target datalayout = "e-m:e-p270:32:32-p271:32:32-p272:64:64-i64:64-i128:128-f80:128-n8:16:32:64-S128"
target triple = "x86_64-unknown-linux-gnu"

%"class.std::ios_base::Init" = type { i8 }
%class.symbol = type { ptr }
%struct.app_flags = type { i24 }
%class.ref_vector = type { %class.ref_vector_core }
%class.ref_vector_core = type { %class.ref_manager_wrapper, %class.ptr_vector.26 }
%class.ref_manager_wrapper = type { ptr }
%class.ptr_vector.26 = type { %class.vector.27 }
%class.vector.27 = type { ptr }
%class.reduce_args_tactic = type { %class.tactic.base, ptr }
%class.tactic.base = type <{ %"class.user_propagator::core", i32 }>
%"class.user_propagator::core" = type { ptr }
%class.tactic = type <{ %"class.user_propagator::core", i32, [4 x i8] }>
%"struct.reduce_args_tactic::imp" = type { %class.ref_vector, ptr, %class.bv_util, %class.array_util }
%class.bv_util = type { %class.bv_recognizers, ptr, ptr }
%class.bv_recognizers = type { i32 }
%class.array_util = type { %class.array_recognizers, ptr }
%class.array_recognizers = type { i32 }
%class.ref_buffer_core = type { %class.ptr_buffer }
%class.ptr_buffer = type { %class.buffer }
%class.buffer = type { ptr, i32, i32, [16 x %"union.std::aligned_storage<8, 8>::type"] }
%"union.std::aligned_storage<8, 8>::type" = type { [8 x i8] }
%class.ast_manager = type { %class.reslimit, %class.small_object_allocator, %class.family_manager, %class.parray_manager, %class.dependency_manager, %class.parray_manager.10, %class.ptr_vector.13, i32, i8, %class.ast_table, %class.obj_map, %class.id_gen, %class.id_gen, ptr, ptr, ptr, ptr, ptr, i32, i8, [3 x i8], %class.u_map, ptr, i8, i8, ptr, %class.symbol, %class.obj_map.21, ptr }
%class.reslimit = type { %"struct.std::atomic", i8, i64, i64, %class.svector, %class.ptr_vector }
%"struct.std::atomic" = type { %"struct.std::__atomic_base" }
%"struct.std::__atomic_base" = type { i32 }
%class.svector = type { %class.vector }
%class.vector = type { ptr }
%class.ptr_vector = type { %class.vector.0 }
%class.vector.0 = type { ptr }
%class.small_object_allocator = type { [32 x ptr], [32 x ptr], i64 }
%class.family_manager = type { i32, %class.symbol_table, %class.svector.4 }
%class.symbol_table = type { %class.core_hashtable, %class.vector.1, %class.svector.2 }
%class.core_hashtable = type <{ ptr, i32, i32, i32, [4 x i8] }>
%class.vector.1 = type { ptr }
%class.svector.2 = type { %class.vector.3 }
%class.vector.3 = type { ptr }
%class.svector.4 = type { %class.vector.5 }
%class.vector.5 = type { ptr }
%class.parray_manager = type { ptr, ptr, %class.ptr_vector.6, %class.ptr_vector.6 }
%class.ptr_vector.6 = type { %class.vector.7 }
%class.vector.7 = type { ptr }
%class.dependency_manager = type { ptr, ptr, %class.ptr_vector.8 }
%class.ptr_vector.8 = type { %class.vector.9 }
%class.vector.9 = type { ptr }
%class.parray_manager.10 = type { ptr, ptr, %class.ptr_vector.11, %class.ptr_vector.11 }
%class.ptr_vector.11 = type { %class.vector.12 }
%class.vector.12 = type { ptr }
%class.ptr_vector.13 = type { %class.vector.14 }
%class.vector.14 = type { ptr }
%class.ast_table = type { %class.chashtable }
%class.chashtable = type { ptr, i32, i32, i32, i32, i32, i32, i32, ptr, ptr, ptr }
%class.obj_map = type { %class.core_hashtable.15 }
%class.core_hashtable.15 = type <{ ptr, i32, i32, i32, [4 x i8] }>
%class.id_gen = type { i32, %class.svector.17 }
%class.svector.17 = type { %class.vector.18 }
%class.vector.18 = type { ptr }
%class.u_map = type { %class.map }
%class.map = type { %class.table2map }
%class.table2map = type { %class.core_hashtable.19 }
%class.core_hashtable.19 = type <{ ptr, i32, i32, i32, [4 x i8] }>
%class.obj_map.21 = type { %class.core_hashtable.22 }
%class.core_hashtable.22 = type <{ ptr, i32, i32, i32, [4 x i8] }>
%class.tactic_report = type { ptr }
%class.obj_hashtable = type { %class.core_hashtable.base.33, [4 x i8] }
%class.core_hashtable.base.33 = type <{ ptr, i32, i32, i32 }>
%class.obj_map.34 = type { %class.core_hashtable.35 }
%class.core_hashtable.35 = type <{ ptr, i32, i32, i32, [4 x i8] }>
%"struct.reduce_args_tactic::imp::reduce_args_ctx" = type { ptr, %class.obj_map.39 }
%class.obj_map.39 = type { %class.core_hashtable.40 }
%class.core_hashtable.40 = type <{ ptr, i32, i32, i32, [4 x i8] }>
%"struct.reduce_args_tactic::imp::reduce_args_rw" = type { %class.rewriter_tpl, %"struct.reduce_args_tactic::imp::reduce_args_rw_cfg" }
%class.rewriter_tpl = type { %class.rewriter_core, ptr, i32, %class.ptr_vector.26, %class.var_shifter, %class.inv_var_shifter, %class.obj_ref, %class.obj_ref.61, %class.obj_ref.61, %class.svector.17 }
%class.rewriter_core = type { ptr, ptr, i8, i8, %class.ptr_vector.44, ptr, %class.svector.46, %class.ref_vector, %class.ptr_vector.44, ptr, %class.ref_vector.48, %class.obj_hashtable.53, ptr, i32, %class.svector.59 }
%class.svector.46 = type { %class.vector.47 }
%class.vector.47 = type { ptr }
%class.ptr_vector.44 = type { %class.vector.45 }
%class.vector.45 = type { ptr }
%class.ref_vector.48 = type { %class.ref_vector_core.49 }
%class.ref_vector_core.49 = type { %class.ref_manager_wrapper.50, %class.ptr_vector.51 }
%class.ref_manager_wrapper.50 = type { ptr }
%class.ptr_vector.51 = type { %class.vector.52 }
%class.vector.52 = type { ptr }
%class.obj_hashtable.53 = type { %class.core_hashtable.base.57, [4 x i8] }
%class.core_hashtable.base.57 = type <{ ptr, i32, i32, i32 }>
%class.svector.59 = type { %class.vector.60 }
%class.vector.60 = type { ptr }
%class.var_shifter = type <{ %class.var_shifter_core, i32, i32, i32, [4 x i8] }>
%class.var_shifter_core = type { %class.rewriter_core }
%class.inv_var_shifter = type <{ %class.var_shifter_core, i32, [4 x i8] }>
%class.obj_ref = type { ptr, ptr }
%class.obj_ref.61 = type { ptr, ptr }
%"struct.reduce_args_tactic::imp::reduce_args_rw_cfg" = type { ptr, ptr, ptr, ptr }
%class.ref = type { ptr }
%class.goal = type <{ ptr, %class.ref.28, %class.ref.29, %class.ref.30, i32, [4 x i8], %"class.std::__cxx11::basic_string", %"class.parray_manager<ast_manager::expr_array_config>::ref", %"class.parray_manager<ast_manager::expr_array_config>::ref", %"class.parray_manager<ast_manager::expr_dependency_array_config>::ref", i32, [4 x i8] }>
%class.ref.28 = type { ptr }
%class.ref.29 = type { ptr }
%class.ref.30 = type { ptr }
%"class.std::__cxx11::basic_string" = type { %"struct.std::__cxx11::basic_string<char>::_Alloc_hider", i64, %union.anon }
%"struct.std::__cxx11::basic_string<char>::_Alloc_hider" = type { ptr }
%union.anon = type { i64, [8 x i8] }
%"class.parray_manager<ast_manager::expr_array_config>::ref" = type <{ ptr, i32, [4 x i8] }>
%"class.parray_manager<ast_manager::expr_dependency_array_config>::ref" = type <{ ptr, i32, [4 x i8] }>
%"class.std::allocator" = type { i8 }
%class.default_exception = type { %class.z3_exception, %"class.std::__cxx11::basic_string" }
%class.z3_exception = type { ptr }
%struct._Guard = type { ptr }
%class.ast = type { i32, i24, i32, i32 }
%struct.obj_ptr_hash.32 = type { i8 }
%struct.ptr_eq = type { i8 }
%struct.obj_hash.36 = type { i8 }
%struct.default_eq.37 = type { i8 }
%"struct.reduce_args_tactic::imp::find_non_candidates_proc" = type { ptr, ptr, ptr, ptr }
%class.ast_fast_mark = type { %class.ptr_buffer.62 }
%class.ptr_buffer.62 = type { %class.buffer.63 }
%class.buffer.63 = type { ptr, i32, i32, [16 x %"union.std::aligned_storage<8, 8>::type"] }
%"struct.reduce_args_tactic::imp::populate_decl2args_proc" = type { ptr, ptr, ptr, ptr, %class.obj_map.67 }
%class.obj_map.67 = type { %class.core_hashtable.68 }
%class.core_hashtable.68 = type <{ ptr, i32, i32, i32, [4 x i8] }>
%class.ptr_buffer.72 = type { %class.buffer.73 }
%class.buffer.73 = type { ptr, i32, i32, [16 x %"union.std::aligned_storage<8, 8>::type"] }
%"class.core_hashtable<obj_map<func_decl, bit_vector>::obj_map_entry, obj_hash<obj_map<func_decl, bit_vector>::key_data>, default_eq<obj_map<func_decl, bit_vector>::key_data>>::iterator" = type { ptr, ptr }
%"struct.obj_map<func_decl, bit_vector>::key_data" = type { ptr, %class.bit_vector }
%class.bit_vector = type { i32, i32, ptr }
%class.ptr_buffer.87 = type { %class.buffer.88 }
%class.buffer.88 = type { ptr, i32, i32, [16 x %"union.std::aligned_storage<8, 8>::type"] }
%class.ref_vector.91 = type { %class.ref_vector_core.92 }
%class.ref_vector_core.92 = type { %class.ref_manager_wrapper.93, %class.ptr_vector.94 }
%class.ref_manager_wrapper.93 = type { ptr }
%class.ptr_vector.94 = type { %class.vector.95 }
%class.vector.95 = type { ptr }
%"class.core_hashtable<obj_map<func_decl, map<app *, func_decl *, reduce_args_tactic::imp::arg2func_hash_proc, reduce_args_tactic::imp::arg2func_eq_proc> *>::obj_map_entry, obj_hash<obj_map<func_decl, map<app *, func_decl *, reduce_args_tactic::imp::arg2func_hash_proc, reduce_args_tactic::imp::arg2func_eq_proc> *>::key_data>, default_eq<obj_map<func_decl, map<app *, func_decl *, reduce_args_tactic::imp::arg2func_hash_proc, reduce_args_tactic::imp::arg2func_eq_proc> *>::key_data>>::iterator" = type { ptr, ptr }
%"class.core_hashtable<default_map_entry<app *, func_decl *>, table2map<default_map_entry<app *, func_decl *>, reduce_args_tactic::imp::arg2func_hash_proc, reduce_args_tactic::imp::arg2func_eq_proc>::entry_hash_proc, table2map<default_map_entry<app *, func_decl *>, reduce_args_tactic::imp::arg2func_hash_proc, reduce_args_tactic::imp::arg2func_eq_proc>::entry_eq_proc>::iterator" = type { ptr, ptr }
%"struct.obj_map<func_decl, map<app *, func_decl *, reduce_args_tactic::imp::arg2func_hash_proc, reduce_args_tactic::imp::arg2func_eq_proc> *>::key_data" = type { ptr, ptr }
%struct._key_data = type { ptr, ptr }
%class.core_hashtable.31 = type <{ ptr, i32, i32, i32, [4 x i8] }>
%class.obj_hash_entry = type { ptr }
%"class.obj_map<func_decl, bit_vector>::obj_map_entry" = type { %"struct.obj_map<func_decl, bit_vector>::key_data" }
%class.app = type { %class.expr, ptr, i32, [0 x ptr] }
%class.expr = type { %class.ast }
%class.sbuffer = type { %class.buffer.64 }
%class.buffer.64 = type { ptr, i32, i32, [16 x %"union.std::aligned_storage<16, 8>::type"] }
%"union.std::aligned_storage<16, 8>::type" = type { [16 x i8] }
%"struct.std::pair" = type <{ ptr, i32, [4 x i8] }>
%class.decl = type { %class.ast, %class.symbol, ptr }
%class.decl_info = type <{ i32, i32, %class.vector.66, i8, [7 x i8] }>
%class.vector.66 = type { ptr }
%class.quantifier = type { %class.expr, i32, i32, ptr, ptr, i32, i32, i8, i8, %class.symbol, %class.symbol, i32, i32, [0 x i8] }
%struct.obj_hash.69 = type { i8 }
%struct.default_eq.70 = type { i8 }
%"class.obj_map<func_decl, svector<expr *>>::obj_map_entry" = type { %"struct.obj_map<func_decl, svector<expr *>>::key_data" }
%"struct.obj_map<func_decl, svector<expr *>>::key_data" = type { ptr, %class.svector.74 }
%class.svector.74 = type { %class.vector.27 }
%struct.obj_hash.41 = type { i8 }
%struct.default_eq.42 = type { i8 }
%"class.obj_map<func_decl, map<app *, func_decl *, reduce_args_tactic::imp::arg2func_hash_proc, reduce_args_tactic::imp::arg2func_eq_proc> *>::obj_map_entry" = type { %"struct.obj_map<func_decl, map<app *, func_decl *, reduce_args_tactic::imp::arg2func_hash_proc, reduce_args_tactic::imp::arg2func_eq_proc> *>::key_data" }
%"struct.parray_manager<ast_manager::expr_array_config>::cell" = type { i32, %union.anon.75, ptr, %union.anon.76 }
%union.anon.75 = type { i32 }
%union.anon.76 = type { ptr }
%"class.core_hashtable<obj_hash_entry<expr>, obj_ptr_hash<expr>, ptr_eq<expr>>::iterator" = type { ptr, ptr }
%"struct.rewriter_core::frame" = type { ptr, i32, i32 }
%class.core_hashtable.54 = type <{ ptr, i32, i32, i32, [4 x i8] }>
%class.obj_hash_entry.89 = type { ptr }
%"struct.reduce_args_tactic::imp::arg2func_hash_proc" = type { ptr }
%"struct.reduce_args_tactic::imp::arg2func_eq_proc" = type { ptr }
%class.ptr_buffer.85 = type { %class.buffer.86 }
%class.buffer.86 = type { ptr, i32, i32, [16 x %"union.std::aligned_storage<8, 8>::type"] }
%class.func_decl = type { %class.decl, i32, ptr, [0 x ptr] }
%class.table2map.82 = type { %class.core_hashtable.83 }
%class.core_hashtable.83 = type <{ %"struct.table2map<default_map_entry<app *, func_decl *>, reduce_args_tactic::imp::arg2func_hash_proc, reduce_args_tactic::imp::arg2func_eq_proc>::entry_hash_proc", %"struct.table2map<default_map_entry<app *, func_decl *>, reduce_args_tactic::imp::arg2func_hash_proc, reduce_args_tactic::imp::arg2func_eq_proc>::entry_eq_proc", ptr, i32, i32, i32, [4 x i8] }>
%"struct.table2map<default_map_entry<app *, func_decl *>, reduce_args_tactic::imp::arg2func_hash_proc, reduce_args_tactic::imp::arg2func_eq_proc>::entry_hash_proc" = type { %"struct.reduce_args_tactic::imp::arg2func_hash_proc" }
%"struct.table2map<default_map_entry<app *, func_decl *>, reduce_args_tactic::imp::arg2func_hash_proc, reduce_args_tactic::imp::arg2func_eq_proc>::entry_eq_proc" = type { %"struct.reduce_args_tactic::imp::arg2func_eq_proc" }
%class.default_map_entry = type { %class.default_hash_entry }
%class.default_hash_entry = type { i32, i32, %struct._key_data }
%class.var = type { %class.expr, i32, ptr }
%"class.ref_vector<expr, ast_manager>::element_ref" = type { ptr, ptr }
%class.obj_ref.90 = type { ptr, ptr }
%struct.func_decl_info = type <{ %class.decl_info.base, i16, [5 x i8] }>
%class.decl_info.base = type <{ i32, i32, %class.vector.66, i8 }>
%class.converter = type <{ ptr, i32, [4 x i8] }>
%class.generic_model_converter = type { %class.model_converter.base, ptr, %"class.std::__cxx11::basic_string", %class.vector.96 }
%class.model_converter.base = type <{ %class.converter.base, [4 x i8], ptr, i8 }>
%class.converter.base = type <{ ptr, i32 }>
%class.vector.96 = type { ptr }
%"struct.generic_model_converter::entry" = type <{ %class.obj_ref.97, %class.obj_ref, i32, [4 x i8] }>
%class.obj_ref.97 = type { ptr, ptr }
%class.model_converter = type <{ %class.converter.base, [4 x i8], ptr, i8, [7 x i8] }>
%"struct.std::pair.98" = type { ptr, ptr }
%"struct.std::pair.100" = type { %"class.std::move_iterator", ptr }
%"class.std::move_iterator" = type { ptr }

$_ZN6tacticC2Ev = comdat any

$_ZN10ref_vectorI4expr11ast_managerEC2ERS1_ = comdat any

$_ZN18reduce_args_tactic3impC2ER11ast_manager = comdat any

$_ZN10ref_vectorI4expr11ast_managerED2Ev = comdat any

$_Z7deallocIN18reduce_args_tactic3impEEvPT_ = comdat any

$__clang_call_terminate = comdat any

$_ZN15ref_buffer_coreI4goal21ref_unmanaged_wrapperIS0_ELj16EE5resetEv = comdat any

$_ZNK11ast_manager14proofs_enabledEv = comdat any

$_ZN18reduce_args_tactic3impclER4goal = comdat any

$_ZNK3refI4goalE3getEv = comdat any

$_ZNK3refI4goalEptEv = comdat any

$_ZN4goal9inc_depthEv = comdat any

$_ZN15ref_buffer_coreI4goal21ref_unmanaged_wrapperIS0_ELj16EE9push_backEPS0_ = comdat any

$_ZN10ref_vectorI4expr11ast_managerEC2ERKS2_ = comdat any

$_ZN18reduce_args_tactic3impD2Ev = comdat any

$_ZN15ref_vector_coreI4expr19ref_manager_wrapperIS0_11ast_managerEE6appendERKS4_ = comdat any

$_ZN15ref_vector_coreI4expr19ref_manager_wrapperIS0_11ast_managerEE9push_backEPS0_ = comdat any

$_ZN15ref_vector_coreI4expr19ref_manager_wrapperIS0_11ast_managerEE5resetEv = comdat any

$_ZN6tactic19user_propagate_initEPvRSt8functionIFvS0_PN15user_propagator8callbackEEERS1_IFvS0_S4_jEERS1_IFS0_S0_R11ast_managerRPNS2_11context_objEEE = comdat any

$_ZN15user_propagator4core29user_propagate_register_fixedERSt8functionIFvPvPNS_8callbackEP4exprS6_EE = comdat any

$_ZN15user_propagator4core29user_propagate_register_finalERSt8functionIFvPvPNS_8callbackEEE = comdat any

$_ZN15user_propagator4core26user_propagate_register_eqERSt8functionIFvPvPNS_8callbackEP4exprS6_EE = comdat any

$_ZN15user_propagator4core29user_propagate_register_diseqERSt8functionIFvPvPNS_8callbackEP4exprS6_EE = comdat any

$_ZN15user_propagator4core31user_propagate_register_createdERSt8functionIFvPvPNS_8callbackEP4exprEE = comdat any

$_ZN15user_propagator4core30user_propagate_register_decideERSt8functionIFvPvPNS_8callbackEP4exprjbEE = comdat any

$_ZN6tactic18register_on_clauseEPvRSt8functionIFvS0_P4exprjPKjjPKS3_EE = comdat any

$_ZN6tactic11updt_paramsERK10params_ref = comdat any

$_ZN6tactic20collect_param_descrsER12param_descrs = comdat any

$_ZNK6tactic18collect_statisticsER10statistics = comdat any

$_ZN6tactic16reset_statisticsEv = comdat any

$_ZN6tactic5resetEv = comdat any

$_ZN6tactic9set_logicERK6symbol = comdat any

$_ZN6tactic21set_progress_callbackEP17progress_callback = comdat any

$_ZN18reduce_args_tactic9translateER11ast_manager = comdat any

$_ZNK18reduce_args_tactic4nameEv = comdat any

$_ZN15user_propagator4coreC2Ev = comdat any

$_ZN6tacticD2Ev = comdat any

$_ZN6tacticD0Ev = comdat any

$_ZN6tactic28user_propagate_register_exprEP4expr = comdat any

$_ZN15user_propagator4core20user_propagate_clearEv = comdat any

$_ZN15user_propagator4coreD2Ev = comdat any

$_ZN15user_propagator4coreD0Ev = comdat any

$_ZN15user_propagator4core19user_propagate_initEPvRSt8functionIFvS1_PNS_8callbackEEERS2_IFvS1_S4_jEERS2_IFS1_S1_R11ast_managerRPNS_11context_objEEE = comdat any

$_ZN15user_propagator4core28user_propagate_register_exprEP4expr = comdat any

$_ZN15user_propagator4core18register_on_clauseEPvRSt8functionIFvS1_P4exprjPKjjPKS4_EE = comdat any

$_ZNSt7__cxx1112basic_stringIcSt11char_traitsIcESaIcEEC2IS3_EEPKcRKS3_ = comdat any

$_ZN17default_exceptionC2EONSt7__cxx1112basic_stringIcSt11char_traitsIcESaIcEEE = comdat any

$_ZN17default_exceptionD2Ev = comdat any

$_ZNSt11char_traitsIcE6lengthEPKc = comdat any

$_ZNSt7__cxx1112basic_stringIcSt11char_traitsIcESaIcEE12_M_constructIPKcEEvT_S8_St20forward_iterator_tag = comdat any

$_ZNSt7__cxx1112basic_stringIcSt11char_traitsIcESaIcEE12_Alloc_hiderD2Ev = comdat any

$_ZSt8distanceIPKcENSt15iterator_traitsIT_E15difference_typeES3_S3_ = comdat any

$_ZZNSt7__cxx1112basic_stringIcSt11char_traitsIcESaIcEE12_M_constructIPKcEEvT_S8_St20forward_iterator_tagEN6_GuardC2EPS4_ = comdat any

$_ZZNSt7__cxx1112basic_stringIcSt11char_traitsIcESaIcEE12_M_constructIPKcEEvT_S8_St20forward_iterator_tagEN6_GuardD2Ev = comdat any

$_ZSt10__distanceIPKcENSt15iterator_traitsIT_E15difference_typeES3_S3_St26random_access_iterator_tag = comdat any

$_ZSt19__iterator_categoryIPKcENSt15iterator_traitsIT_E17iterator_categoryERKS3_ = comdat any

$_ZN12z3_exceptionC2Ev = comdat any

$_ZN12z3_exceptionD2Ev = comdat any

$_ZN15ref_vector_coreI4expr19ref_manager_wrapperIS0_11ast_managerEED2Ev = comdat any

$_ZN15ref_vector_coreI4expr19ref_manager_wrapperIS0_11ast_managerEE13dec_range_refEPKPS0_S7_ = comdat any

$_ZNK6vectorIP4exprLb0EjE4dataEv = comdat any

$_ZNK6vectorIP4exprLb0EjE4sizeEv = comdat any

$_ZN10ptr_vectorI4exprED2Ev = comdat any

$_ZN15ref_vector_coreI4expr19ref_manager_wrapperIS0_11ast_managerEE7dec_refEPS0_ = comdat any

$_ZN19ref_manager_wrapperI4expr11ast_managerE7dec_refEPS0_ = comdat any

$_ZN11ast_manager7dec_refEP3ast = comdat any

$_ZN3ast7dec_refEv = comdat any

$_ZNK3ast13get_ref_countEv = comdat any

$_ZN6vectorIP4exprLb0EjED2Ev = comdat any

$_ZN6vectorIP4exprLb0EjE7destroyEv = comdat any

$_ZN6vectorIP4exprLb0EjE11free_memoryEv = comdat any

$_ZNK4goal12inconsistentEv = comdat any

$_ZN13obj_hashtableI9func_declEC2Ej = comdat any

$_ZN7obj_mapI9func_decl10bit_vectorEC2Ev = comdat any

$_ZN18reduce_args_tactic3imp19find_non_candidatesERK4goalR13obj_hashtableI9func_declE = comdat any

$_ZN18reduce_args_tactic3imp18populate_decl2argsERK4goalR13obj_hashtableI9func_declER7obj_mapIS5_10bit_vectorE = comdat any

$_ZNK7obj_mapI9func_decl10bit_vectorE5emptyEv = comdat any

$_ZN18reduce_args_tactic3imp15reduce_args_ctxC2ER11ast_manager = comdat any

$_ZN18reduce_args_tactic3imp14reduce_args_rwC2ERS0_R7obj_mapI9func_decl10bit_vectorERS3_IS4_P3mapIP3appPS4_NS0_18arg2func_hash_procENS0_16arg2func_eq_procEEE = comdat any

$_ZNK4goal4sizeEv = comdat any

$_ZNK4goal4formEj = comdat any

$_ZN7obj_refI4expr11ast_managerEC2ERS1_ = comdat any

$_ZN12rewriter_tplIN18reduce_args_tactic3imp18reduce_args_rw_cfgEEclEP4exprR7obj_refIS4_11ast_managerE = comdat any

$_ZNK7obj_refI4expr11ast_managerEcvPS0_Ev = comdat any

$_ZN7obj_refI4expr11ast_managerED2Ev = comdat any

$_ZNK7obj_mapI9func_decl10bit_vectorE4sizeEv = comdat any

$_ZNK4goal14models_enabledEv = comdat any

$_ZN4goal3addEP15model_converter = comdat any

$_ZN18reduce_args_tactic3imp5mk_mcER7obj_mapI9func_decl10bit_vectorERS1_IS2_P3mapIP3appPS2_NS0_18arg2func_hash_procENS0_16arg2func_eq_procEEE = comdat any

$_ZN18reduce_args_tactic3imp14reduce_args_rwD2Ev = comdat any

$_ZN18reduce_args_tactic3imp15reduce_args_ctxD2Ev = comdat any

$_ZN7obj_mapI9func_decl10bit_vectorED2Ev = comdat any

$_ZN13obj_hashtableI9func_declED2Ev = comdat any

$_ZN14core_hashtableI14obj_hash_entryI9func_declE12obj_ptr_hashIS1_E6ptr_eqIS1_EEC2EjRKS4_RKS6_ = comdat any

$_ZN14core_hashtableI14obj_hash_entryI9func_declE12obj_ptr_hashIS1_E6ptr_eqIS1_EE11alloc_tableEj = comdat any

$_Z10alloc_vectI14obj_hash_entryI9func_declEEPT_j = comdat any

$_ZN14obj_hash_entryI9func_declEC2Ev = comdat any

$_ZN14core_hashtableIN7obj_mapI9func_decl10bit_vectorE13obj_map_entryE8obj_hashINS3_8key_dataEE10default_eqIS6_EEC2EjRKS7_RKS9_ = comdat any

$_ZN14core_hashtableIN7obj_mapI9func_decl10bit_vectorE13obj_map_entryE8obj_hashINS3_8key_dataEE10default_eqIS6_EE11alloc_tableEj = comdat any

$_Z10alloc_vectIN7obj_mapI9func_decl10bit_vectorE13obj_map_entryEEPT_j = comdat any

$_ZN7obj_mapI9func_decl10bit_vectorE13obj_map_entryC2Ev = comdat any

$_ZN7obj_mapI9func_decl10bit_vectorE8key_dataC2Ev = comdat any

$_ZN10bit_vectorC2Ev = comdat any

$_ZN14core_hashtableI14obj_hash_entryI9func_declE12obj_ptr_hashIS1_E6ptr_eqIS1_EE5resetEv = comdat any

$_ZNK15ref_vector_coreI4expr19ref_manager_wrapperIS0_11ast_managerEE5beginEv = comdat any

$_ZNK15ref_vector_coreI4expr19ref_manager_wrapperIS0_11ast_managerEE3endEv = comdat any

$_Z6is_appPK3ast = comdat any

$_ZN14core_hashtableI14obj_hash_entryI9func_declE12obj_ptr_hashIS1_E6ptr_eqIS1_EE6insertEOPS1_ = comdat any

$_Z6to_appP3ast = comdat any

$_ZNK3app8get_declEv = comdat any

$_ZN18reduce_args_tactic3imp24find_non_candidates_procC2ER11ast_managerR7bv_utilR10array_utilR13obj_hashtableI9func_declE = comdat any

$_ZN13ast_fast_markILj1EEC2Ev = comdat any

$_ZN18reduce_args_tactic3imp10checkpointEv = comdat any

$_Z19quick_for_each_exprIN18reduce_args_tactic3imp24find_non_candidates_procEEvRT_R13ast_fast_markILj1EEP4expr = comdat any

$_ZN13ast_fast_markILj1EED2Ev = comdat any

$_ZNK14obj_hash_entryI9func_declE7is_freeEv = comdat any

$_ZN14obj_hash_entryI9func_declE12mark_as_freeEv = comdat any

$_ZN14core_hashtableI14obj_hash_entryI9func_declE12obj_ptr_hashIS1_E6ptr_eqIS1_EE12delete_tableEv = comdat any

$_Z12dealloc_vectI14obj_hash_entryI9func_declEEvPT_j = comdat any

$_ZNK6vectorIP4exprLb0EjE5beginEv = comdat any

$_ZNK15ref_vector_coreI4expr19ref_manager_wrapperIS0_11ast_managerEE4sizeEv = comdat any

$_ZNK3ast8get_kindEv = comdat any

$_ZN14core_hashtableI14obj_hash_entryI9func_declE12obj_ptr_hashIS1_E6ptr_eqIS1_EE12expand_tableEv = comdat any

$_ZNK14core_hashtableI14obj_hash_entryI9func_declE12obj_ptr_hashIS1_E6ptr_eqIS1_EE8get_hashERKPS1_ = comdat any

$_ZNK14obj_hash_entryI9func_declE7is_usedEv = comdat any

$_ZNK14obj_hash_entryI9func_declE8get_hashEv = comdat any

$_ZNK14core_hashtableI14obj_hash_entryI9func_declE12obj_ptr_hashIS1_E6ptr_eqIS1_EE6equalsERKPS1_SA_ = comdat any

$_ZN14obj_hash_entryI9func_declE8get_dataEv = comdat any

$_ZN14obj_hash_entryI9func_declE8set_dataEPS0_ = comdat any

$_ZN14obj_hash_entryI9func_declE8set_hashEj = comdat any

$_ZN14core_hashtableI14obj_hash_entryI9func_declE12obj_ptr_hashIS1_E6ptr_eqIS1_EE10move_tableEPS2_jS8_j = comdat any

$_ZNK12obj_ptr_hashI9func_declEclEPS0_ = comdat any

$_ZNK3ast4hashEv = comdat any

$_ZNK6ptr_eqI9func_declEclEPS0_S2_ = comdat any

$_ZN10ptr_bufferI3astLj16EEC2Ev = comdat any

$_ZN6bufferIP3astLb0ELj16EEC2Ev = comdat any

$_Z18for_each_expr_coreIN18reduce_args_tactic3imp24find_non_candidates_procE13ast_fast_markILj1EELb0ELb0EEvRT_RT0_P4expr = comdat any

$_ZN13ast_fast_markILj1EE9is_markedEP3ast = comdat any

$_ZN13ast_fast_markILj1EE4markEP3ast = comdat any

$_ZN7sbufferISt4pairIP4exprjELj16EEC2Ev = comdat any

$_ZN6bufferISt4pairIP4exprjELb0ELj16EE9push_backEOS3_ = comdat any

$_ZNSt4pairIP4exprjEC2IRS1_iTnNSt9enable_ifIXaaclsr5_PCCPE22_MoveConstructiblePairIT_T0_EEclsr5_PCCPE30_ImplicitlyMoveConvertiblePairIS6_S7_EEEbE4typeELb1EEEOS6_OS7_ = comdat any

$_ZNK6bufferISt4pairIP4exprjELb0ELj16EE5emptyEv = comdat any

$_ZN6bufferISt4pairIP4exprjELb0ELj16EE4backEv = comdat any

$_ZN18reduce_args_tactic3imp24find_non_candidates_procclEP3var = comdat any

$_Z6to_varP3ast = comdat any

$_ZN6bufferISt4pairIP4exprjELb0ELj16EE8pop_backEv = comdat any

$_ZNK3app12get_num_argsEv = comdat any

$_ZNK3app7get_argEj = comdat any

$_ZN18reduce_args_tactic3imp24find_non_candidates_procclEP3app = comdat any

$_Z13to_quantifierP3ast = comdat any

$_ZNK10quantifier16get_num_childrenEv = comdat any

$_ZNK10quantifier9get_childEj = comdat any

$_ZN18reduce_args_tactic3imp24find_non_candidates_procclEP10quantifier = comdat any

$_ZN7sbufferISt4pairIP4exprjELj16EED2Ev = comdat any

$_ZNK3ast10is_marked1Ev = comdat any

$_ZN3ast5mark1Eb = comdat any

$_ZN6bufferIP3astLb0ELj16EE9push_backERKS1_ = comdat any

$_ZN6bufferIP3astLb0ELj16EE6expandEv = comdat any

$_ZN6bufferIP3astLb0ELj16EE11free_memoryEv = comdat any

$_Z13dealloc_svectIP3astEvPT_ = comdat any

$_ZN6bufferISt4pairIP4exprjELb0ELj16EEC2Ev = comdat any

$_ZN6bufferISt4pairIP4exprjELb0ELj16EE6expandEv = comdat any

$_ZN6bufferISt4pairIP4exprjELb0ELj16EE11free_memoryEv = comdat any

$_Z13dealloc_svectISt4pairIP4exprjEEvPT_ = comdat any

$_ZNK17array_recognizers11is_as_arrayEP4exprRP9func_decl = comdat any

$_ZN14core_hashtableI14obj_hash_entryI9func_declE12obj_ptr_hashIS1_E6ptr_eqIS1_EE6insertERKPS1_ = comdat any

$_ZNK4decl13get_family_idEv = comdat any

$_ZNK14core_hashtableI14obj_hash_entryI9func_declE12obj_ptr_hashIS1_E6ptr_eqIS1_EE8containsERKPS1_ = comdat any

$_ZN18reduce_args_tactic3imp13may_be_uniqueER11ast_managerR7bv_utilP4expr = comdat any

$_ZNK17array_recognizers11is_as_arrayEP4expr = comdat any

$_Z9is_app_ofPK4exprii = comdat any

$_Z6to_appPK3ast = comdat any

$_ZNK3app9is_app_ofEii = comdat any

$_ZNK4decl10is_decl_ofEii = comdat any

$_ZNK9decl_info10is_decl_ofEii = comdat any

$_ZNK9decl_info13get_family_idEv = comdat any

$_ZNK14core_hashtableI14obj_hash_entryI9func_declE12obj_ptr_hashIS1_E6ptr_eqIS1_EE9find_coreERKPS1_ = comdat any

$_ZN18reduce_args_tactic3imp13may_be_uniqueER11ast_managerR7bv_utilP4exprRS6_ = comdat any

$_ZN18reduce_args_tactic3imp18is_var_plus_offsetER11ast_managerR7bv_utilP4exprRS6_ = comdat any

$_ZNK14bv_recognizers9is_bv_addEPK4exprRPS0_S4_ = comdat any

$_ZNK14bv_recognizers10is_numeralEPK4expr = comdat any

$_ZNK14bv_recognizers9is_bv_addEPK4expr = comdat any

$_ZNK14bv_recognizers7get_fidEv = comdat any

$_ZNK10quantifier16get_num_patternsEv = comdat any

$_ZNK10quantifier19get_num_no_patternsEv = comdat any

$_ZNK10quantifier8get_exprEv = comdat any

$_ZNK10quantifier11get_patternEj = comdat any

$_ZNK10quantifier14get_no_patternEj = comdat any

$_ZNK10quantifier12get_patternsEv = comdat any

$_ZNK10quantifier14get_decl_namesEv = comdat any

$_ZNK10quantifier14get_decl_sortsEv = comdat any

$_ZNK10quantifier15get_no_patternsEv = comdat any

$_ZN6bufferISt4pairIP4exprjELb0ELj16EED2Ev = comdat any

$_ZN6bufferISt4pairIP4exprjELb0ELj16EE7destroyEv = comdat any

$_ZN13ast_fast_markILj1EE5resetEv = comdat any

$_ZN10ptr_bufferI3astLj16EED2Ev = comdat any

$_ZN6bufferIP3astLb0ELj16EE5beginEv = comdat any

$_ZN6bufferIP3astLb0ELj16EE3endEv = comdat any

$_ZN13ast_fast_markILj1EE10reset_markEP3ast = comdat any

$_ZN6bufferIP3astLb0ELj16EE5resetEv = comdat any

$_ZNK6bufferIP3astLb0ELj16EE4sizeEv = comdat any

$_ZN3ast11reset_mark1Ev = comdat any

$_ZN6bufferIP3astLb0ELj16EED2Ev = comdat any

$_ZN6bufferIP3astLb0ELj16EE7destroyEv = comdat any

$_ZN7obj_mapI9func_decl10bit_vectorE5resetEv = comdat any

$_ZN18reduce_args_tactic3imp23populate_decl2args_procC2ER11ast_managerR7bv_utilR13obj_hashtableI9func_declER7obj_mapIS7_10bit_vectorE = comdat any

$_Z19quick_for_each_exprIN18reduce_args_tactic3imp23populate_decl2args_procEEvRT_R13ast_fast_markILj1EEP4expr = comdat any

$_ZN10ptr_bufferI9func_declLj16EEC2Ev = comdat any

$_ZNK7obj_mapI9func_decl10bit_vectorE5beginEv = comdat any

$_ZNK7obj_mapI9func_decl10bit_vectorE3endEv = comdat any

$_ZNK14core_hashtableIN7obj_mapI9func_decl10bit_vectorE13obj_map_entryE8obj_hashINS3_8key_dataEE10default_eqIS6_EE8iteratorneERKSB_ = comdat any

$_ZN14core_hashtableIN7obj_mapI9func_decl10bit_vectorE13obj_map_entryE8obj_hashINS3_8key_dataEE10default_eqIS6_EE8iteratordeEv = comdat any

$_ZNK10bit_vector4sizeEv = comdat any

$_ZNK10bit_vector3getEj = comdat any

$_ZN6bufferIP9func_declLb0ELj16EE9push_backERKS1_ = comdat any

$_ZN14core_hashtableIN7obj_mapI9func_decl10bit_vectorE13obj_map_entryE8obj_hashINS3_8key_dataEE10default_eqIS6_EE8iteratorppEv = comdat any

$_ZN6bufferIP9func_declLb0ELj16EE5beginEv = comdat any

$_ZN6bufferIP9func_declLb0ELj16EE3endEv = comdat any

$_ZN7obj_mapI9func_decl10bit_vectorE5eraseEPS0_ = comdat any

$_ZN10ptr_bufferI9func_declLj16EED2Ev = comdat any

$_ZN18reduce_args_tactic3imp23populate_decl2args_procD2Ev = comdat any

$_ZN14core_hashtableIN7obj_mapI9func_decl10bit_vectorE13obj_map_entryE8obj_hashINS3_8key_dataEE10default_eqIS6_EE5resetEv = comdat any

$_ZNK7obj_mapI9func_decl10bit_vectorE13obj_map_entry7is_freeEv = comdat any

$_ZN7obj_mapI9func_decl10bit_vectorE13obj_map_entry12mark_as_freeEv = comdat any

$_ZN14core_hashtableIN7obj_mapI9func_decl10bit_vectorE13obj_map_entryE8obj_hashINS3_8key_dataEE10default_eqIS6_EE12delete_tableEv = comdat any

$_Z12dealloc_vectIN7obj_mapI9func_decl10bit_vectorE13obj_map_entryEEvPT_j = comdat any

$_ZN7obj_mapI9func_decl10bit_vectorE13obj_map_entryD2Ev = comdat any

$_ZN7obj_mapI9func_decl10bit_vectorE8key_dataD2Ev = comdat any

$_ZN10bit_vectorD2Ev = comdat any

$_Z13dealloc_svectIjEvPT_ = comdat any

$_ZN7obj_mapI9func_decl7svectorIP4exprjEEC2Ev = comdat any

$_ZN14core_hashtableIN7obj_mapI9func_decl7svectorIP4exprjEE13obj_map_entryE8obj_hashINS6_8key_dataEE10default_eqIS9_EEC2EjRKSA_RKSC_ = comdat any

$_ZN14core_hashtableIN7obj_mapI9func_decl7svectorIP4exprjEE13obj_map_entryE8obj_hashINS6_8key_dataEE10default_eqIS9_EE11alloc_tableEj = comdat any

$_Z10alloc_vectIN7obj_mapI9func_decl7svectorIP4exprjEE13obj_map_entryEEPT_j = comdat any

$_ZN7obj_mapI9func_decl7svectorIP4exprjEE13obj_map_entryC2Ev = comdat any

$_ZN7obj_mapI9func_decl7svectorIP4exprjEE8key_dataC2Ev = comdat any

$_ZN7svectorIP4exprjEC2Ev = comdat any

$_ZN6vectorIP4exprLb0EjEC2Ev = comdat any

$_Z18for_each_expr_coreIN18reduce_args_tactic3imp23populate_decl2args_procE13ast_fast_markILj1EELb0ELb0EEvRT_RT0_P4expr = comdat any

$_ZN18reduce_args_tactic3imp23populate_decl2args_procclEP3var = comdat any

$_ZN18reduce_args_tactic3imp23populate_decl2args_procclEP3app = comdat any

$_ZN18reduce_args_tactic3imp23populate_decl2args_procclEP10quantifier = comdat any

$_ZNK7obj_mapI9func_decl10bit_vectorE13find_iteratorEPS0_ = comdat any

$_ZNK14core_hashtableIN7obj_mapI9func_decl10bit_vectorE13obj_map_entryE8obj_hashINS3_8key_dataEE10default_eqIS6_EE8iteratoreqERKSB_ = comdat any

$_ZN7obj_mapI9func_decl10bit_vectorE6insertEPS0_OS1_ = comdat any

$_ZN7obj_mapI9func_decl7svectorIP4exprjEE19insert_if_not_thereEPS0_RKS4_ = comdat any

$_ZN7svectorIP4exprjED2Ev = comdat any

$_ZN6vectorIP4exprLb0EjE6resizeEj = comdat any

$_ZN14core_hashtableIN7obj_mapI9func_decl10bit_vectorE13obj_map_entryE8obj_hashINS3_8key_dataEE10default_eqIS6_EE8iteratorptEv = comdat any

$_ZN10bit_vector7reserveEjb = comdat any

$_ZN10bit_vector3setEjb = comdat any

$_ZN6vectorIP4exprLb0EjEixEj = comdat any

$_ZN7obj_mapI9func_decl7svectorIP4exprjEEixEPS0_ = comdat any

$_ZNK14core_hashtableIN7obj_mapI9func_decl10bit_vectorE13obj_map_entryE8obj_hashINS3_8key_dataEE10default_eqIS6_EE4findERKS6_ = comdat any

$_ZN7obj_mapI9func_decl10bit_vectorE8key_dataC2EPS0_ = comdat any

$_ZNK14core_hashtableIN7obj_mapI9func_decl10bit_vectorE13obj_map_entryE8obj_hashINS3_8key_dataEE10default_eqIS6_EE9find_coreERKS6_ = comdat any

$_ZN14core_hashtableIN7obj_mapI9func_decl10bit_vectorE13obj_map_entryE8obj_hashINS3_8key_dataEE10default_eqIS6_EE8iteratorC2EPS4_SC_ = comdat any

$_ZNK14core_hashtableIN7obj_mapI9func_decl10bit_vectorE13obj_map_entryE8obj_hashINS3_8key_dataEE10default_eqIS6_EE3endEv = comdat any

$_ZNK14core_hashtableIN7obj_mapI9func_decl10bit_vectorE13obj_map_entryE8obj_hashINS3_8key_dataEE10default_eqIS6_EE8get_hashERKS6_ = comdat any

$_ZNK7obj_mapI9func_decl10bit_vectorE13obj_map_entry7is_usedEv = comdat any

$_ZNK7obj_mapI9func_decl10bit_vectorE13obj_map_entry8get_hashEv = comdat any

$_ZNK14core_hashtableIN7obj_mapI9func_decl10bit_vectorE13obj_map_entryE8obj_hashINS3_8key_dataEE10default_eqIS6_EE6equalsERKS6_SC_ = comdat any

$_ZN7obj_mapI9func_decl10bit_vectorE13obj_map_entry8get_dataEv = comdat any

$_ZNK8obj_hashIN7obj_mapI9func_decl10bit_vectorE8key_dataEEclERKS4_ = comdat any

$_ZNK7obj_mapI9func_decl10bit_vectorE8key_data4hashEv = comdat any

$_ZNK10default_eqIN7obj_mapI9func_decl10bit_vectorE8key_dataEEclERKS4_S7_ = comdat any

$_ZNK7obj_mapI9func_decl10bit_vectorE8key_dataeqERKS3_ = comdat any

$_ZN14core_hashtableIN7obj_mapI9func_decl10bit_vectorE13obj_map_entryE8obj_hashINS3_8key_dataEE10default_eqIS6_EE8iterator12move_to_usedEv = comdat any

$_ZN14core_hashtableIN7obj_mapI9func_decl10bit_vectorE13obj_map_entryE8obj_hashINS3_8key_dataEE10default_eqIS6_EE6insertEOS6_ = comdat any

$_ZN7obj_mapI9func_decl10bit_vectorE8key_dataC2EPS0_OS1_ = comdat any

$_ZN14core_hashtableIN7obj_mapI9func_decl10bit_vectorE13obj_map_entryE8obj_hashINS3_8key_dataEE10default_eqIS6_EE12expand_tableEv = comdat any

$_ZN7obj_mapI9func_decl10bit_vectorE13obj_map_entry8set_dataEONS2_8key_dataE = comdat any

$_ZN7obj_mapI9func_decl10bit_vectorE13obj_map_entry8set_hashEj = comdat any

$_ZN14core_hashtableIN7obj_mapI9func_decl10bit_vectorE13obj_map_entryE8obj_hashINS3_8key_dataEE10default_eqIS6_EE10move_tableEPS4_jSB_j = comdat any

$_ZN7obj_mapI9func_decl10bit_vectorE13obj_map_entryaSEOS3_ = comdat any

$_ZN7obj_mapI9func_decl10bit_vectorE8key_dataaSEOS3_ = comdat any

$_ZN10bit_vectoraSERKS_ = comdat any

$_ZN10bit_vectorC2ERKS_ = comdat any

$_ZN14core_hashtableIN7obj_mapI9func_decl7svectorIP4exprjEE13obj_map_entryE8obj_hashINS6_8key_dataEE10default_eqIS9_EE20insert_if_not_there2ERKS9_ = comdat any

$_ZN7obj_mapI9func_decl7svectorIP4exprjEE8key_dataC2EPS0_RKS4_ = comdat any

$_ZN7obj_mapI9func_decl7svectorIP4exprjEE13obj_map_entry8get_dataEv = comdat any

$_ZN7obj_mapI9func_decl7svectorIP4exprjEE8key_dataD2Ev = comdat any

$_ZN14core_hashtableIN7obj_mapI9func_decl7svectorIP4exprjEE13obj_map_entryE8obj_hashINS6_8key_dataEE10default_eqIS9_EE24insert_if_not_there_coreERKS9_RPS7_ = comdat any

$_ZN7obj_mapI9func_decl7svectorIP4exprjEE8key_dataC2ERKS6_ = comdat any

$_ZN14core_hashtableIN7obj_mapI9func_decl7svectorIP4exprjEE13obj_map_entryE8obj_hashINS6_8key_dataEE10default_eqIS9_EE24insert_if_not_there_coreEOS9_RPS7_ = comdat any

$_ZN7svectorIP4exprjEC2ERKS2_ = comdat any

$_ZN6vectorIP4exprLb0EjEC2ERKS2_ = comdat any

$_ZN6vectorIP4exprLb0EjE9copy_coreERKS2_ = comdat any

$_ZNK6vectorIP4exprLb0EjE8capacityEv = comdat any

$_ZSt18uninitialized_copyIPKP4exprPS1_ET0_T_S6_S5_ = comdat any

$_ZNK6vectorIP4exprLb0EjE3endEv = comdat any

$_ZN6vectorIP4exprLb0EjE5beginEv = comdat any

$_ZNSt20__uninitialized_copyILb1EE13__uninit_copyIPKP4exprPS3_EET0_T_S8_S7_ = comdat any

$_ZSt4copyIPKP4exprPS1_ET0_T_S6_S5_ = comdat any

$_ZSt13__copy_move_aILb0EPKP4exprPS1_ET1_T0_S6_S5_ = comdat any

$_ZSt12__miter_baseIPKP4exprET_S4_ = comdat any

$_ZSt12__niter_wrapIPP4exprET_RKS3_S3_ = comdat any

$_ZSt14__copy_move_a1ILb0EPKP4exprPS1_ET1_T0_S6_S5_ = comdat any

$_ZSt12__niter_baseIPKP4exprET_S4_ = comdat any

$_ZSt12__niter_baseIPP4exprET_S3_ = comdat any

$_ZSt14__copy_move_a2ILb0EPKP4exprPS1_ET1_T0_S6_S5_ = comdat any

$_ZNSt11__copy_moveILb0ELb1ESt26random_access_iterator_tagE8__copy_mIP4exprEEPT_PKS5_S8_S6_ = comdat any

$_ZN14core_hashtableIN7obj_mapI9func_decl7svectorIP4exprjEE13obj_map_entryE8obj_hashINS6_8key_dataEE10default_eqIS9_EE12expand_tableEv = comdat any

$_ZNK14core_hashtableIN7obj_mapI9func_decl7svectorIP4exprjEE13obj_map_entryE8obj_hashINS6_8key_dataEE10default_eqIS9_EE8get_hashERKS9_ = comdat any

$_ZNK7obj_mapI9func_decl7svectorIP4exprjEE13obj_map_entry7is_usedEv = comdat any

$_ZNK7obj_mapI9func_decl7svectorIP4exprjEE13obj_map_entry8get_hashEv = comdat any

$_ZNK14core_hashtableIN7obj_mapI9func_decl7svectorIP4exprjEE13obj_map_entryE8obj_hashINS6_8key_dataEE10default_eqIS9_EE6equalsERKS9_SF_ = comdat any

$_ZNK7obj_mapI9func_decl7svectorIP4exprjEE13obj_map_entry7is_freeEv = comdat any

$_ZN7obj_mapI9func_decl7svectorIP4exprjEE13obj_map_entry8set_dataEONS5_8key_dataE = comdat any

$_ZN7obj_mapI9func_decl7svectorIP4exprjEE13obj_map_entry8set_hashEj = comdat any

$_ZN14core_hashtableIN7obj_mapI9func_decl7svectorIP4exprjEE13obj_map_entryE8obj_hashINS6_8key_dataEE10default_eqIS9_EE10move_tableEPS7_jSE_j = comdat any

$_ZN14core_hashtableIN7obj_mapI9func_decl7svectorIP4exprjEE13obj_map_entryE8obj_hashINS6_8key_dataEE10default_eqIS9_EE12delete_tableEv = comdat any

$_ZN7obj_mapI9func_decl7svectorIP4exprjEE13obj_map_entryaSEOS6_ = comdat any

$_ZN7obj_mapI9func_decl7svectorIP4exprjEE8key_dataaSEOS6_ = comdat any

$_ZN7svectorIP4exprjEaSEOS2_ = comdat any

$_ZN6vectorIP4exprLb0EjEaSEOS2_ = comdat any

$_ZSt4swapIPP4exprENSt9enable_ifIXsr6__and_ISt6__not_ISt15__is_tuple_likeIT_EESt21is_move_constructibleIS6_ESt18is_move_assignableIS6_EEE5valueEvE4typeERS6_SF_ = comdat any

$_Z12dealloc_vectIN7obj_mapI9func_decl7svectorIP4exprjEE13obj_map_entryEEvPT_j = comdat any

$_ZN7obj_mapI9func_decl7svectorIP4exprjEE13obj_map_entryD2Ev = comdat any

$_ZNK8obj_hashIN7obj_mapI9func_decl7svectorIP4exprjEE8key_dataEEclERKS7_ = comdat any

$_ZNK7obj_mapI9func_decl7svectorIP4exprjEE8key_data4hashEv = comdat any

$_ZNK10default_eqIN7obj_mapI9func_decl7svectorIP4exprjEE8key_dataEEclERKS7_SA_ = comdat any

$_ZNK7obj_mapI9func_decl7svectorIP4exprjEE8key_dataeqERKS6_ = comdat any

$_ZN6vectorIP4exprLb0EjE6shrinkEj = comdat any

$_ZN6vectorIP4exprLb0EjE13expand_vectorEv = comdat any

$_ZN10bit_vector12get_bit_wordEj = comdat any

$_ZN10bit_vector12get_pos_maskEj = comdat any

$_ZN7obj_mapI9func_decl7svectorIP4exprjEE4findEPS0_ = comdat any

$_ZNK7obj_mapI9func_decl7svectorIP4exprjEE9find_coreEPS0_ = comdat any

$_ZNK14core_hashtableIN7obj_mapI9func_decl7svectorIP4exprjEE13obj_map_entryE8obj_hashINS6_8key_dataEE10default_eqIS9_EE9find_coreERKS9_ = comdat any

$_ZN7obj_mapI9func_decl7svectorIP4exprjEE8key_dataC2EPS0_ = comdat any

$_ZN6bufferIP9func_declLb0ELj16EEC2Ev = comdat any

$_ZNK14core_hashtableIN7obj_mapI9func_decl10bit_vectorE13obj_map_entryE8obj_hashINS3_8key_dataEE10default_eqIS6_EE5beginEv = comdat any

$_ZNK10bit_vector12get_bit_wordEj = comdat any

$_ZN6bufferIP9func_declLb0ELj16EE6expandEv = comdat any

$_ZN6bufferIP9func_declLb0ELj16EE11free_memoryEv = comdat any

$_Z13dealloc_svectIP9func_declEvPT_ = comdat any

$_ZNK6bufferIP9func_declLb0ELj16EE4sizeEv = comdat any

$_ZN7obj_mapI9func_decl10bit_vectorE6removeEPS0_ = comdat any

$_ZN14core_hashtableIN7obj_mapI9func_decl10bit_vectorE13obj_map_entryE8obj_hashINS3_8key_dataEE10default_eqIS6_EE6removeERKS6_ = comdat any

$_ZN7obj_mapI9func_decl10bit_vectorE13obj_map_entry15mark_as_deletedEv = comdat any

$_ZN14core_hashtableIN7obj_mapI9func_decl10bit_vectorE13obj_map_entryE8obj_hashINS3_8key_dataEE10default_eqIS6_EE22remove_deleted_entriesEv = comdat any

$_ZN6bufferIP9func_declLb0ELj16EED2Ev = comdat any

$_ZN6bufferIP9func_declLb0ELj16EE7destroyEv = comdat any

$_ZN7obj_mapI9func_decl7svectorIP4exprjEED2Ev = comdat any

$_ZN14core_hashtableIN7obj_mapI9func_decl7svectorIP4exprjEE13obj_map_entryE8obj_hashINS6_8key_dataEE10default_eqIS9_EED2Ev = comdat any

$_ZNK14core_hashtableIN7obj_mapI9func_decl10bit_vectorE13obj_map_entryE8obj_hashINS3_8key_dataEE10default_eqIS6_EE5emptyEv = comdat any

$_ZN7obj_mapI9func_declP3mapIP3appPS0_N18reduce_args_tactic3imp18arg2func_hash_procENS6_16arg2func_eq_procEEEC2Ev = comdat any

$_ZN14core_hashtableIN7obj_mapI9func_declP3mapIP3appPS1_N18reduce_args_tactic3imp18arg2func_hash_procENS7_16arg2func_eq_procEEE13obj_map_entryE8obj_hashINSC_8key_dataEE10default_eqISF_EEC2EjRKSG_RKSI_ = comdat any

$_ZN14core_hashtableIN7obj_mapI9func_declP3mapIP3appPS1_N18reduce_args_tactic3imp18arg2func_hash_procENS7_16arg2func_eq_procEEE13obj_map_entryE8obj_hashINSC_8key_dataEE10default_eqISF_EE11alloc_tableEj = comdat any

$_Z10alloc_vectIN7obj_mapI9func_declP3mapIP3appPS1_N18reduce_args_tactic3imp18arg2func_hash_procENS7_16arg2func_eq_procEEE13obj_map_entryEEPT_j = comdat any

$_ZN7obj_mapI9func_declP3mapIP3appPS0_N18reduce_args_tactic3imp18arg2func_hash_procENS6_16arg2func_eq_procEEE13obj_map_entryC2Ev = comdat any

$_ZN7obj_mapI9func_declP3mapIP3appPS0_N18reduce_args_tactic3imp18arg2func_hash_procENS6_16arg2func_eq_procEEE8key_dataC2Ev = comdat any

$_ZN18reduce_args_tactic3imp18reduce_args_rw_cfgC2ERS0_R7obj_mapI9func_decl10bit_vectorERS3_IS4_P3mapIP3appPS4_NS0_18arg2func_hash_procENS0_16arg2func_eq_procEEE = comdat any

$_ZN18reduce_args_tactic3imp14reduce_args_rwD0Ev = comdat any

$_ZN10ptr_vectorI4exprEC2Ev = comdat any

$_ZN11var_shifterC2ER11ast_manager = comdat any

$_ZN15inv_var_shifterC2ER11ast_manager = comdat any

$_ZN7obj_refI3app11ast_managerEC2ERS1_ = comdat any

$_ZN7svectorIjjEC2Ev = comdat any

$_ZN7obj_refI3app11ast_managerED2Ev = comdat any

$_ZN15inv_var_shifterD2Ev = comdat any

$_ZN11var_shifterD2Ev = comdat any

$_ZN12rewriter_tplIN18reduce_args_tactic3imp18reduce_args_rw_cfgEED2Ev = comdat any

$_ZN12rewriter_tplIN18reduce_args_tactic3imp18reduce_args_rw_cfgEED0Ev = comdat any

$_ZN16var_shifter_coreC2ER11ast_manager = comdat any

$_ZN16var_shifter_coreD2Ev = comdat any

$_ZN16var_shifter_coreD0Ev = comdat any

$_ZN6vectorIjLb0EjEC2Ev = comdat any

$_ZN7obj_refI3app11ast_managerE7dec_refEv = comdat any

$_ZN7svectorIjjED2Ev = comdat any

$_ZN6vectorIjLb0EjED2Ev = comdat any

$_ZN6vectorIjLb0EjE7destroyEv = comdat any

$_ZN6vectorIjLb0EjE11free_memoryEv = comdat any

$_ZNK4goal1mEv = comdat any

$_ZNK11ast_manager4sizeERKN14parray_managerINS_17expr_array_configEE3refE = comdat any

$_ZNK14parray_managerIN11ast_manager17expr_array_configEE4sizeERKNS2_3refE = comdat any

$_ZNK14parray_managerIN11ast_manager17expr_array_configEE4cell4kindEv = comdat any

$_ZNK14parray_managerIN11ast_manager17expr_array_configEE4cell4nextEv = comdat any

$_ZNK14parray_managerIN11ast_manager17expr_array_configEE4cell3idxEv = comdat any

$_ZNK14parray_managerIN11ast_manager17expr_array_configEE4cell4sizeEv = comdat any

$_ZNK11ast_manager8mk_falseEv = comdat any

$_ZNK11ast_manager3getERKN14parray_managerINS_17expr_array_configEE3refEj = comdat any

$_ZNK14parray_managerIN11ast_manager17expr_array_configEE3getERKNS2_3refEj = comdat any

$_ZN14parray_managerIN11ast_manager17expr_array_configEE6rerootERNS2_3refE = comdat any

$_ZNK14parray_managerIN11ast_manager17expr_array_configEE4cell4elemEv = comdat any

$_ZNK14parray_managerIN11ast_manager17expr_array_configEE3ref4rootEv = comdat any

$_ZN6vectorIPN14parray_managerIN11ast_manager17expr_array_configEE4cellELb0EjE5resetEv = comdat any

$_ZN6vectorIPN14parray_managerIN11ast_manager17expr_array_configEE4cellELb0EjE9push_backERKS5_ = comdat any

$_ZN14parray_managerIN11ast_manager17expr_array_configEE6unfoldEPNS2_4cellE = comdat any

$_ZNK6vectorIPN14parray_managerIN11ast_manager17expr_array_configEE4cellELb0EjE4sizeEv = comdat any

$_ZN6vectorIPN14parray_managerIN11ast_manager17expr_array_configEE4cellELb0EjEixEj = comdat any

$_ZN14parray_managerIN11ast_manager17expr_array_configEE8capacityEPP4expr = comdat any

$_ZN14parray_managerIN11ast_manager17expr_array_configEE6expandERPP4expr = comdat any

$_ZN14parray_managerIN11ast_manager17expr_array_configEE7inc_refEPNS2_4cellE = comdat any

$_ZN14parray_managerIN11ast_manager17expr_array_configEE7dec_refEPNS2_4cellE = comdat any

$_ZN6vectorIPN14parray_managerIN11ast_manager17expr_array_configEE4cellELb0EjE13expand_vectorEv = comdat any

$_ZN14parray_managerIN11ast_manager17expr_array_configEE10get_valuesEPNS2_4cellERPP4expr = comdat any

$_ZN14parray_managerIN11ast_manager17expr_array_configEE7dec_refERKP4expr = comdat any

$_ZN14parray_managerIN11ast_manager17expr_array_configEE11copy_valuesEPP4exprjRS5_ = comdat any

$_ZN14parray_managerIN11ast_manager17expr_array_configEE4rsetEPP4exprjRKS4_ = comdat any

$_ZN14parray_managerIN11ast_manager17expr_array_configEE9rpop_backEPP4exprRj = comdat any

$_ZN14parray_managerIN11ast_manager17expr_array_configEE10rpush_backERPP4exprRjRKS4_ = comdat any

$_ZN14parray_managerIN11ast_manager17expr_array_configEE15allocate_valuesEm = comdat any

$_ZN14parray_managerIN11ast_manager17expr_array_configEE7inc_refERKP4expr = comdat any

$_ZN11ast_manager7inc_refEP3ast = comdat any

$_ZN3ast7inc_refEv = comdat any

$_ZN14parray_managerIN11ast_manager17expr_array_configEE17deallocate_valuesEPP4expr = comdat any

$_ZN14parray_managerIN11ast_manager17expr_array_configEE3delEPNS2_4cellE = comdat any

$_ZN14parray_managerIN11ast_manager17expr_array_configEE7dec_refEjPP4expr = comdat any

$_ZN12rewriter_tplIN18reduce_args_tactic3imp18reduce_args_rw_cfgEEclEP4exprR7obj_refIS4_11ast_managerERS6_I3appS7_E = comdat any

$_ZN12rewriter_tplIN18reduce_args_tactic3imp18reduce_args_rw_cfgEE11frame_stackEv = comdat any

$_ZNK6vectorIN13rewriter_core5frameELb0EjE5emptyEv = comdat any

$_ZN6vectorIP9act_cacheLb0EjEixEj = comdat any

$_ZN6vectorIN13rewriter_core5frameELb0EjE5resetEv = comdat any

$_ZN12rewriter_tplIN18reduce_args_tactic3imp18reduce_args_rw_cfgEE12result_stackEv = comdat any

$_ZN12rewriter_tplIN18reduce_args_tactic3imp18reduce_args_rw_cfgEE15result_pr_stackEv = comdat any

$_ZN15ref_vector_coreI3app19ref_manager_wrapperIS0_11ast_managerEE5resetEv = comdat any

$_ZN6vectorIN13rewriter_core5scopeELb0EjE5resetEv = comdat any

$_ZN12rewriter_tplIN18reduce_args_tactic3imp18reduce_args_rw_cfgEE9main_loopILb1EEEvP4exprR7obj_refIS5_11ast_managerERS7_I3appS8_E = comdat any

$_ZN12rewriter_tplIN18reduce_args_tactic3imp18reduce_args_rw_cfgEE9main_loopILb0EEEvP4exprR7obj_refIS5_11ast_managerERS7_I3appS8_E = comdat any

$_ZN15ref_vector_coreI3app19ref_manager_wrapperIS0_11ast_managerEE13dec_range_refEPKPS0_S7_ = comdat any

$_ZNK6vectorIP3appLb0EjE4dataEv = comdat any

$_ZNK6vectorIP3appLb0EjE4sizeEv = comdat any

$_ZN6vectorIP3appLb0EjE5resetEv = comdat any

$_ZN15ref_vector_coreI3app19ref_manager_wrapperIS0_11ast_managerEE7dec_refEPS0_ = comdat any

$_ZN19ref_manager_wrapperI3app11ast_managerE7dec_refEPS0_ = comdat any

$_ZN7obj_refI3app11ast_managerEaSEPS0_ = comdat any

$_ZNK12rewriter_tplIN18reduce_args_tactic3imp18reduce_args_rw_cfgEE1mEv = comdat any

$_ZN11ast_manager3incEv = comdat any

$_ZN12rewriter_tplIN18reduce_args_tactic3imp18reduce_args_rw_cfgEE5resetEv = comdat any

$_ZN11ast_manager5limitEv = comdat any

$_ZN18rewriter_exceptionC2EONSt7__cxx1112basic_stringIcSt11char_traitsIcESaIcEEE = comdat any

$_ZN18rewriter_exceptionD2Ev = comdat any

$_ZN7obj_refI4expr11ast_managerEaSEPS0_ = comdat any

$_ZN12rewriter_tplIN18reduce_args_tactic3imp18reduce_args_rw_cfgEE5visitILb1EEEbP4exprj = comdat any

$_ZNK15ref_vector_coreI4expr19ref_manager_wrapperIS0_11ast_managerEE4backEv = comdat any

$_ZN15ref_vector_coreI4expr19ref_manager_wrapperIS0_11ast_managerEE8pop_backEv = comdat any

$_ZNK15ref_vector_coreI3app19ref_manager_wrapperIS0_11ast_managerEE4backEv = comdat any

$_ZN15ref_vector_coreI3app19ref_manager_wrapperIS0_11ast_managerEE8pop_backEv = comdat any

$_ZNK7obj_refI3app11ast_managerE3getEv = comdat any

$_ZN12rewriter_tplIN18reduce_args_tactic3imp18reduce_args_rw_cfgEE11resume_coreILb1EEEvR7obj_refI4expr11ast_managerERS5_I3appS7_E = comdat any

$_ZN20default_rewriter_cfg5resetEv = comdat any

$_ZN6vectorIP4exprLb0EjE5resetEv = comdat any

$_ZN6vectorIjLb0EjE5resetEv = comdat any

$_ZN18rewriter_exceptionD0Ev = comdat any

$_ZN7obj_refI4expr11ast_managerE7dec_refEv = comdat any

$_ZN20default_rewriter_cfg9get_substEP4exprRS1_RP3app = comdat any

$_ZN12rewriter_tplIN18reduce_args_tactic3imp18reduce_args_rw_cfgEE18set_new_child_flagEP4exprS5_ = comdat any

$_ZN15ref_vector_coreI3app19ref_manager_wrapperIS0_11ast_managerEE9push_backEPS0_ = comdat any

$_ZNK12rewriter_tplIN18reduce_args_tactic3imp18reduce_args_rw_cfgEE10must_cacheEP4expr = comdat any

$_ZNK13rewriter_core10get_cachedEP4expr = comdat any

$_ZNK13rewriter_core13get_cached_prEP4expr = comdat any

$_ZN12rewriter_tplIN18reduce_args_tactic3imp18reduce_args_rw_cfgEE9pre_visitEP4expr = comdat any

$_ZN12rewriter_tplIN18reduce_args_tactic3imp18reduce_args_rw_cfgEE13process_constILb1EEEbP3app = comdat any

$_ZNK13rewriter_core10is_blockedEP4expr = comdat any

$_ZN12rewriter_tplIN18reduce_args_tactic3imp18reduce_args_rw_cfgEEC2ER11ast_managerbRS2_ = comdat any

$_ZNK14core_hashtableI14obj_hash_entryI4exprE12obj_ptr_hashIS1_E6ptr_eqIS1_EE5beginEv = comdat any

$_ZNK14core_hashtableI14obj_hash_entryI4exprE12obj_ptr_hashIS1_E6ptr_eqIS1_EE3endEv = comdat any

$_ZNK14core_hashtableI14obj_hash_entryI4exprE12obj_ptr_hashIS1_E6ptr_eqIS1_EE8iteratorneERKS8_ = comdat any

$_ZN14core_hashtableI14obj_hash_entryI4exprE12obj_ptr_hashIS1_E6ptr_eqIS1_EE8iteratordeEv = comdat any

$_ZN13rewriter_core5blockEP4expr = comdat any

$_ZN14core_hashtableI14obj_hash_entryI4exprE12obj_ptr_hashIS1_E6ptr_eqIS1_EE8iteratorppEv = comdat any

$_ZN7obj_refI4expr11ast_managerEaSERKS2_ = comdat any

$_ZN12rewriter_tplIN18reduce_args_tactic3imp18reduce_args_rw_cfgEE10push_frameEP4exprbj = comdat any

$_ZN12rewriter_tplIN18reduce_args_tactic3imp18reduce_args_rw_cfgEE11process_varILb1EEEvP3var = comdat any

$_ZN12rewriter_tplIN18reduce_args_tactic3imp18reduce_args_rw_cfgEE18set_new_child_flagEP4expr = comdat any

$_ZN6vectorIN13rewriter_core5frameELb0EjE4backEv = comdat any

$_ZN6vectorIN13rewriter_core5frameELb0EjEixEj = comdat any

$_ZNK6vectorIN13rewriter_core5frameELb0EjE4sizeEv = comdat any

$_ZN15ref_vector_coreI3app19ref_manager_wrapperIS0_11ast_managerEE7inc_refEPS0_ = comdat any

$_ZN6vectorIP3appLb0EjE9push_backERKS1_ = comdat any

$_ZN19ref_manager_wrapperI3app11ast_managerE7inc_refEPS0_ = comdat any

$_ZN6vectorIP3appLb0EjE13expand_vectorEv = comdat any

$_ZNK12rewriter_tplIN18reduce_args_tactic3imp18reduce_args_rw_cfgEE17cache_all_resultsEv = comdat any

$_Z13is_quantifierPK3ast = comdat any

$_ZNK12rewriter_tplIN18reduce_args_tactic3imp18reduce_args_rw_cfgEE13cache_resultsEv = comdat any

$_ZNK13rewriter_core10must_cacheEP4expr = comdat any

$_ZNK20default_rewriter_cfg17cache_all_resultsEv = comdat any

$_ZNK20default_rewriter_cfg13cache_resultsEv = comdat any

$_ZN9act_cache4findEP4expr = comdat any

$_ZN20default_rewriter_cfg9pre_visitEP4expr = comdat any

$_ZN7obj_refI3app11ast_managerEC2EPS0_RS1_ = comdat any

$_ZN18reduce_args_tactic3imp18reduce_args_rw_cfg10reduce_appEP9func_decljPKP4exprR7obj_refIS4_11ast_managerERS8_I3appS9_E = comdat any

$_ZNK7obj_refI3app11ast_managerEptEv = comdat any

$_ZNK7obj_refI3app11ast_managerEcvPS0_Ev = comdat any

$_ZNK7obj_refI4expr11ast_managerE3getEv = comdat any

$_ZNK7obj_refI3app11ast_managerEcvbEv = comdat any

$_ZN7obj_refI3app11ast_managerE7inc_refEv = comdat any

$_ZNK9func_decl9get_arityEv = comdat any

$_ZN7obj_mapI9func_declP3mapIP3appPS0_N18reduce_args_tactic3imp18arg2func_hash_procENS6_16arg2func_eq_procEEE19insert_if_not_thereES4_RKSA_ = comdat any

$_ZN18reduce_args_tactic3imp18arg2func_hash_procC2ERK10bit_vector = comdat any

$_ZN18reduce_args_tactic3imp16arg2func_eq_procC2ERK10bit_vector = comdat any

$_ZN3mapIP3appP9func_declN18reduce_args_tactic3imp18arg2func_hash_procENS5_16arg2func_eq_procEEC2ERKS6_RKS7_ = comdat any

$_ZN9table2mapI17default_map_entryIP3appP9func_declEN18reduce_args_tactic3imp18arg2func_hash_procENS7_16arg2func_eq_procEE19insert_if_not_thereERKS2_RKS4_ = comdat any

$_ZN10ptr_bufferI4sortLj16EEC2Ev = comdat any

$_ZN6bufferIP4sortLb0ELj16EE9push_backEOS1_ = comdat any

$_ZNK9func_decl10get_domainEj = comdat any

$_ZNK4decl8get_nameEv = comdat any

$_ZNK6bufferIP4sortLb0ELj16EE4sizeEv = comdat any

$_ZNK6bufferIP4sortLb0ELj16EE4dataEv = comdat any

$_ZNK9func_decl9get_rangeEv = comdat any

$_ZN10ptr_bufferI4sortLj16EED2Ev = comdat any

$_ZN10ptr_bufferI4exprLj16EEC2Ev = comdat any

$_ZN6bufferIP4exprLb0ELj16EE9push_backERKS1_ = comdat any

$_ZNK6bufferIP4exprLb0ELj16EE4sizeEv = comdat any

$_ZNK6bufferIP4exprLb0ELj16EE4dataEv = comdat any

$_ZN10ptr_bufferI4exprLj16EED2Ev = comdat any

$_ZN14core_hashtableIN7obj_mapI9func_declP3mapIP3appPS1_N18reduce_args_tactic3imp18arg2func_hash_procENS7_16arg2func_eq_procEEE13obj_map_entryE8obj_hashINSC_8key_dataEE10default_eqISF_EE20insert_if_not_there2ERKSF_ = comdat any

$_ZN7obj_mapI9func_declP3mapIP3appPS0_N18reduce_args_tactic3imp18arg2func_hash_procENS6_16arg2func_eq_procEEE8key_dataC2ES4_RKSA_ = comdat any

$_ZN7obj_mapI9func_declP3mapIP3appPS0_N18reduce_args_tactic3imp18arg2func_hash_procENS6_16arg2func_eq_procEEE13obj_map_entry8get_dataEv = comdat any

$_ZN14core_hashtableIN7obj_mapI9func_declP3mapIP3appPS1_N18reduce_args_tactic3imp18arg2func_hash_procENS7_16arg2func_eq_procEEE13obj_map_entryE8obj_hashINSC_8key_dataEE10default_eqISF_EE24insert_if_not_there_coreERKSF_RPSD_ = comdat any

$_ZN14core_hashtableIN7obj_mapI9func_declP3mapIP3appPS1_N18reduce_args_tactic3imp18arg2func_hash_procENS7_16arg2func_eq_procEEE13obj_map_entryE8obj_hashINSC_8key_dataEE10default_eqISF_EE24insert_if_not_there_coreEOSF_RPSD_ = comdat any

$_ZN14core_hashtableIN7obj_mapI9func_declP3mapIP3appPS1_N18reduce_args_tactic3imp18arg2func_hash_procENS7_16arg2func_eq_procEEE13obj_map_entryE8obj_hashINSC_8key_dataEE10default_eqISF_EE12expand_tableEv = comdat any

$_ZNK14core_hashtableIN7obj_mapI9func_declP3mapIP3appPS1_N18reduce_args_tactic3imp18arg2func_hash_procENS7_16arg2func_eq_procEEE13obj_map_entryE8obj_hashINSC_8key_dataEE10default_eqISF_EE8get_hashERKSF_ = comdat any

$_ZNK7obj_mapI9func_declP3mapIP3appPS0_N18reduce_args_tactic3imp18arg2func_hash_procENS6_16arg2func_eq_procEEE13obj_map_entry7is_usedEv = comdat any

$_ZNK7obj_mapI9func_declP3mapIP3appPS0_N18reduce_args_tactic3imp18arg2func_hash_procENS6_16arg2func_eq_procEEE13obj_map_entry8get_hashEv = comdat any

$_ZNK14core_hashtableIN7obj_mapI9func_declP3mapIP3appPS1_N18reduce_args_tactic3imp18arg2func_hash_procENS7_16arg2func_eq_procEEE13obj_map_entryE8obj_hashINSC_8key_dataEE10default_eqISF_EE6equalsERKSF_SL_ = comdat any

$_ZNK7obj_mapI9func_declP3mapIP3appPS0_N18reduce_args_tactic3imp18arg2func_hash_procENS6_16arg2func_eq_procEEE13obj_map_entry7is_freeEv = comdat any

$_ZN7obj_mapI9func_declP3mapIP3appPS0_N18reduce_args_tactic3imp18arg2func_hash_procENS6_16arg2func_eq_procEEE13obj_map_entry8set_dataEONSB_8key_dataE = comdat any

$_ZN7obj_mapI9func_declP3mapIP3appPS0_N18reduce_args_tactic3imp18arg2func_hash_procENS6_16arg2func_eq_procEEE13obj_map_entry8set_hashEj = comdat any

$_ZN14core_hashtableIN7obj_mapI9func_declP3mapIP3appPS1_N18reduce_args_tactic3imp18arg2func_hash_procENS7_16arg2func_eq_procEEE13obj_map_entryE8obj_hashINSC_8key_dataEE10default_eqISF_EE10move_tableEPSD_jSK_j = comdat any

$_ZN14core_hashtableIN7obj_mapI9func_declP3mapIP3appPS1_N18reduce_args_tactic3imp18arg2func_hash_procENS7_16arg2func_eq_procEEE13obj_map_entryE8obj_hashINSC_8key_dataEE10default_eqISF_EE12delete_tableEv = comdat any

$_Z12dealloc_vectIN7obj_mapI9func_declP3mapIP3appPS1_N18reduce_args_tactic3imp18arg2func_hash_procENS7_16arg2func_eq_procEEE13obj_map_entryEEvPT_j = comdat any

$_ZNK8obj_hashIN7obj_mapI9func_declP3mapIP3appPS1_N18reduce_args_tactic3imp18arg2func_hash_procENS7_16arg2func_eq_procEEE8key_dataEEclERKSD_ = comdat any

$_ZNK7obj_mapI9func_declP3mapIP3appPS0_N18reduce_args_tactic3imp18arg2func_hash_procENS6_16arg2func_eq_procEEE8key_data4hashEv = comdat any

$_ZNK10default_eqIN7obj_mapI9func_declP3mapIP3appPS1_N18reduce_args_tactic3imp18arg2func_hash_procENS7_16arg2func_eq_procEEE8key_dataEEclERKSD_SG_ = comdat any

$_ZNK7obj_mapI9func_declP3mapIP3appPS0_N18reduce_args_tactic3imp18arg2func_hash_procENS6_16arg2func_eq_procEEE8key_dataeqERKSC_ = comdat any

$_ZN9table2mapI17default_map_entryIP3appP9func_declEN18reduce_args_tactic3imp18arg2func_hash_procENS7_16arg2func_eq_procEEC2ERKS8_RKS9_ = comdat any

$_ZN9table2mapI17default_map_entryIP3appP9func_declEN18reduce_args_tactic3imp18arg2func_hash_procENS7_16arg2func_eq_procEE15entry_hash_procC2ERKS8_ = comdat any

$_ZN9table2mapI17default_map_entryIP3appP9func_declEN18reduce_args_tactic3imp18arg2func_hash_procENS7_16arg2func_eq_procEE13entry_eq_procC2ERKS9_ = comdat any

$_ZN14core_hashtableI17default_map_entryIP3appP9func_declEN9table2mapIS5_N18reduce_args_tactic3imp18arg2func_hash_procENS8_16arg2func_eq_procEE15entry_hash_procENSB_13entry_eq_procEEC2EjRKSC_RKSD_ = comdat any

$_ZN14core_hashtableI17default_map_entryIP3appP9func_declEN9table2mapIS5_N18reduce_args_tactic3imp18arg2func_hash_procENS8_16arg2func_eq_procEE15entry_hash_procENSB_13entry_eq_procEE11alloc_tableEj = comdat any

$_Z10alloc_vectI17default_map_entryIP3appP9func_declEEPT_j = comdat any

$_ZN17default_map_entryIP3appP9func_declEC2Ev = comdat any

$_ZN18default_hash_entryI9_key_dataIP3appP9func_declEEC2Ev = comdat any

$_ZN9_key_dataIP3appP9func_declEC2Ev = comdat any

$_ZN14core_hashtableI17default_map_entryIP3appP9func_declEN9table2mapIS5_N18reduce_args_tactic3imp18arg2func_hash_procENS8_16arg2func_eq_procEE15entry_hash_procENSB_13entry_eq_procEE20insert_if_not_there2ERK9_key_dataIS2_S4_E = comdat any

$_ZN9_key_dataIP3appP9func_declEC2ERKS1_RKS3_ = comdat any

$_ZN18default_hash_entryI9_key_dataIP3appP9func_declEE8get_dataEv = comdat any

$_ZN14core_hashtableI17default_map_entryIP3appP9func_declEN9table2mapIS5_N18reduce_args_tactic3imp18arg2func_hash_procENS8_16arg2func_eq_procEE15entry_hash_procENSB_13entry_eq_procEE24insert_if_not_there_coreERK9_key_dataIS2_S4_ERPS5_ = comdat any

$_ZN14core_hashtableI17default_map_entryIP3appP9func_declEN9table2mapIS5_N18reduce_args_tactic3imp18arg2func_hash_procENS8_16arg2func_eq_procEE15entry_hash_procENSB_13entry_eq_procEE24insert_if_not_there_coreEO9_key_dataIS2_S4_ERPS5_ = comdat any

$_ZN14core_hashtableI17default_map_entryIP3appP9func_declEN9table2mapIS5_N18reduce_args_tactic3imp18arg2func_hash_procENS8_16arg2func_eq_procEE15entry_hash_procENSB_13entry_eq_procEE12expand_tableEv = comdat any

$_ZNK14core_hashtableI17default_map_entryIP3appP9func_declEN9table2mapIS5_N18reduce_args_tactic3imp18arg2func_hash_procENS8_16arg2func_eq_procEE15entry_hash_procENSB_13entry_eq_procEE8get_hashERK9_key_dataIS2_S4_E = comdat any

$_ZNK18default_hash_entryI9_key_dataIP3appP9func_declEE7is_usedEv = comdat any

$_ZNK18default_hash_entryI9_key_dataIP3appP9func_declEE8get_hashEv = comdat any

$_ZNK14core_hashtableI17default_map_entryIP3appP9func_declEN9table2mapIS5_N18reduce_args_tactic3imp18arg2func_hash_procENS8_16arg2func_eq_procEE15entry_hash_procENSB_13entry_eq_procEE6equalsERK9_key_dataIS2_S4_ESI_ = comdat any

$_ZNK18default_hash_entryI9_key_dataIP3appP9func_declEE7is_freeEv = comdat any

$_ZN18default_hash_entryI9_key_dataIP3appP9func_declEE8set_dataEOS5_ = comdat any

$_ZN18default_hash_entryI9_key_dataIP3appP9func_declEE8set_hashEj = comdat any

$_ZN14core_hashtableI17default_map_entryIP3appP9func_declEN9table2mapIS5_N18reduce_args_tactic3imp18arg2func_hash_procENS8_16arg2func_eq_procEE15entry_hash_procENSB_13entry_eq_procEE10move_tableEPS5_jSF_j = comdat any

$_ZN14core_hashtableI17default_map_entryIP3appP9func_declEN9table2mapIS5_N18reduce_args_tactic3imp18arg2func_hash_procENS8_16arg2func_eq_procEE15entry_hash_procENSB_13entry_eq_procEE12delete_tableEv = comdat any

$_Z12dealloc_vectI17default_map_entryIP3appP9func_declEEvPT_j = comdat any

$_ZNK9table2mapI17default_map_entryIP3appP9func_declEN18reduce_args_tactic3imp18arg2func_hash_procENS7_16arg2func_eq_procEE15entry_hash_procclERK9_key_dataIS2_S4_E = comdat any

$_ZNK18reduce_args_tactic3imp18arg2func_hash_procclEPK3app = comdat any

$_Z8hash_u_ujj = comdat any

$_ZNK3ast6get_idEv = comdat any

$_Z12combine_hashjj = comdat any

$_Z6hash_uj = comdat any

$_ZNK9table2mapI17default_map_entryIP3appP9func_declEN18reduce_args_tactic3imp18arg2func_hash_procENS7_16arg2func_eq_procEE13entry_eq_procclERK9_key_dataIS2_S4_ESF_ = comdat any

$_ZNK18reduce_args_tactic3imp16arg2func_eq_procclEPK3appS4_ = comdat any

$_ZN6bufferIP4sortLb0ELj16EEC2Ev = comdat any

$_ZN6bufferIP4sortLb0ELj16EE6expandEv = comdat any

$_ZN6bufferIP4sortLb0ELj16EE11free_memoryEv = comdat any

$_Z13dealloc_svectIP4sortEvPT_ = comdat any

$_ZN6bufferIP4sortLb0ELj16EED2Ev = comdat any

$_ZN6bufferIP4sortLb0ELj16EE7destroyEv = comdat any

$_ZN6bufferIP4exprLb0ELj16EEC2Ev = comdat any

$_ZN6bufferIP4exprLb0ELj16EE6expandEv = comdat any

$_ZN6bufferIP4exprLb0ELj16EE11free_memoryEv = comdat any

$_Z13dealloc_svectIP4exprEvPT_ = comdat any

$_ZN6bufferIP4exprLb0ELj16EED2Ev = comdat any

$_ZN6bufferIP4exprLb0ELj16EE7destroyEv = comdat any

$_ZNK14core_hashtableI14obj_hash_entryI4exprE12obj_ptr_hashIS1_E6ptr_eqIS1_EE8containsERKPS1_ = comdat any

$_ZNK14core_hashtableI14obj_hash_entryI4exprE12obj_ptr_hashIS1_E6ptr_eqIS1_EE9find_coreERKPS1_ = comdat any

$_ZNK14core_hashtableI14obj_hash_entryI4exprE12obj_ptr_hashIS1_E6ptr_eqIS1_EE8get_hashERKPS1_ = comdat any

$_ZNK14obj_hash_entryI4exprE7is_usedEv = comdat any

$_ZNK14obj_hash_entryI4exprE8get_hashEv = comdat any

$_ZNK14core_hashtableI14obj_hash_entryI4exprE12obj_ptr_hashIS1_E6ptr_eqIS1_EE6equalsERKPS1_SA_ = comdat any

$_ZN14obj_hash_entryI4exprE8get_dataEv = comdat any

$_ZNK14obj_hash_entryI4exprE7is_freeEv = comdat any

$_ZNK12obj_ptr_hashI4exprEclEPS0_ = comdat any

$_ZNK6ptr_eqI4exprEclEPS0_S2_ = comdat any

$_ZN14core_hashtableI14obj_hash_entryI4exprE12obj_ptr_hashIS1_E6ptr_eqIS1_EE8iteratorC2EPS2_S9_ = comdat any

$_ZN14core_hashtableI14obj_hash_entryI4exprE12obj_ptr_hashIS1_E6ptr_eqIS1_EE8iterator12move_to_usedEv = comdat any

$_ZN14core_hashtableI14obj_hash_entryI4exprE12obj_ptr_hashIS1_E6ptr_eqIS1_EE6insertERKPS1_ = comdat any

$_ZN14core_hashtableI14obj_hash_entryI4exprE12obj_ptr_hashIS1_E6ptr_eqIS1_EE6insertEOPS1_ = comdat any

$_ZN14core_hashtableI14obj_hash_entryI4exprE12obj_ptr_hashIS1_E6ptr_eqIS1_EE12expand_tableEv = comdat any

$_ZN14obj_hash_entryI4exprE8set_dataEPS0_ = comdat any

$_ZN14obj_hash_entryI4exprE8set_hashEj = comdat any

$_ZN14core_hashtableI14obj_hash_entryI4exprE12obj_ptr_hashIS1_E6ptr_eqIS1_EE11alloc_tableEj = comdat any

$_ZN14core_hashtableI14obj_hash_entryI4exprE12obj_ptr_hashIS1_E6ptr_eqIS1_EE10move_tableEPS2_jS8_j = comdat any

$_ZN14core_hashtableI14obj_hash_entryI4exprE12obj_ptr_hashIS1_E6ptr_eqIS1_EE12delete_tableEv = comdat any

$_Z10alloc_vectI14obj_hash_entryI4exprEEPT_j = comdat any

$_ZN14obj_hash_entryI4exprEC2Ev = comdat any

$_Z12dealloc_vectI14obj_hash_entryI4exprEEvPT_j = comdat any

$_ZN7obj_refI4expr11ast_managerE7inc_refEv = comdat any

$_ZNK12rewriter_tplIN18reduce_args_tactic3imp18reduce_args_rw_cfgEE16check_max_framesEv = comdat any

$_ZN13rewriter_core15push_frame_coreEP4exprbjj = comdat any

$_ZNK20default_rewriter_cfg19max_frames_exceededEj = comdat any

$_ZNK12rewriter_tplIN18reduce_args_tactic3imp18reduce_args_rw_cfgEE11frame_stackEv = comdat any

$_ZN6vectorIN13rewriter_core5frameELb0EjE9push_backEOS1_ = comdat any

$_ZN13rewriter_core5frameC2EP4exprbjjj = comdat any

$_ZN6vectorIN13rewriter_core5frameELb0EjE13expand_vectorEv = comdat any

$_ZN20default_rewriter_cfg10reduce_varEP3varR7obj_refI4expr11ast_managerERS2_I3appS4_E = comdat any

$_ZNK3var7get_idxEv = comdat any

$_Z9is_groundPK4expr = comdat any

$_ZN6vectorIjLb0EjEixEj = comdat any

$_ZNK13rewriter_core10get_cachedEP4exprj = comdat any

$_ZN11var_shifterclEP4exprjR7obj_refIS0_11ast_managerE = comdat any

$_ZNK3app9is_groundEv = comdat any

$_ZNK3app5flagsEv = comdat any

$_ZNK6vectorIP4exprLb0EjE4backEv = comdat any

$_ZNK6vectorIP4exprLb0EjEixEj = comdat any

$_ZN6vectorIP4exprLb0EjE4backEv = comdat any

$_ZN6vectorIP4exprLb0EjE8pop_backEv = comdat any

$_ZNK6vectorIP3appLb0EjE4backEv = comdat any

$_ZNK6vectorIP3appLb0EjEixEj = comdat any

$_ZN6vectorIP3appLb0EjE4backEv = comdat any

$_ZN6vectorIP3appLb0EjE8pop_backEv = comdat any

$_ZN6vectorIP3appLb0EjEixEj = comdat any

$_ZNK12rewriter_tplIN18reduce_args_tactic3imp18reduce_args_rw_cfgEE15check_max_stepsEv = comdat any

$_ZNK12rewriter_tplIN18reduce_args_tactic3imp18reduce_args_rw_cfgEE11first_visitERN13rewriter_core5frameE = comdat any

$_ZN6vectorIN13rewriter_core5frameELb0EjE8pop_backEv = comdat any

$_ZN12rewriter_tplIN18reduce_args_tactic3imp18reduce_args_rw_cfgEE11process_appILb1EEEvP3appRN13rewriter_core5frameE = comdat any

$_ZN12rewriter_tplIN18reduce_args_tactic3imp18reduce_args_rw_cfgEE18process_quantifierILb1EEEvP10quantifierRN13rewriter_core5frameE = comdat any

$_ZNK18reduce_args_tactic3imp18reduce_args_rw_cfg18max_steps_exceededEj = comdat any

$_ZN15ref_vector_coreI4expr19ref_manager_wrapperIS0_11ast_managerEE4dataEv = comdat any

$_ZNK15ref_vector_coreI3app19ref_manager_wrapperIS0_11ast_managerEE4sizeEv = comdat any

$_ZN15ref_vector_coreI3app19ref_manager_wrapperIS0_11ast_managerEE4dataEv = comdat any

$_ZN15ref_vector_coreI4expr19ref_manager_wrapperIS0_11ast_managerEE6shrinkEj = comdat any

$_ZN15ref_vector_coreI3app19ref_manager_wrapperIS0_11ast_managerEE6shrinkEj = comdat any

$_ZNK7obj_refI3app11ast_managerEntEv = comdat any

$_ZN12rewriter_tplIN18reduce_args_tactic3imp18reduce_args_rw_cfgEE12cache_resultILb1EEEvP4exprS6_P3appb = comdat any

$_ZN12rewriter_tplIN18reduce_args_tactic3imp18reduce_args_rw_cfgEE9get_macroEP9func_declRP4exprRP3app = comdat any

$_ZN20default_rewriter_cfg12reduce_macroEv = comdat any

$_ZN6vectorIP4exprLb0EjE3endEv = comdat any

$_ZN6vectorIP3appLb0EjE5beginEv = comdat any

$_ZN6vectorIP3appLb0EjE3endEv = comdat any

$_ZN6vectorIP3appLb0EjE6shrinkEj = comdat any

$_ZN20default_rewriter_cfg9get_macroEP9func_declRP4exprRP10quantifierRP3app = comdat any

$_ZNK10quantifier13get_num_declsEv = comdat any

$_ZN12rewriter_tplIN18reduce_args_tactic3imp18reduce_args_rw_cfgEE11begin_scopeEv = comdat any

$_ZN6vectorIP4exprLb0EjE9push_backEOS1_ = comdat any

$_ZN6vectorIjLb0EjE9push_backERKj = comdat any

$_ZNK12rewriter_tplIN18reduce_args_tactic3imp18reduce_args_rw_cfgEE16rewrite_patternsEv = comdat any

$_ZN10ref_vectorI4expr11ast_managerEC2ERS1_jPKPS0_ = comdat any

$_ZN10ref_vectorI4expr11ast_managerEixEj = comdat any

$_ZN10ref_vectorI4expr11ast_managerE11element_refaSEPS0_ = comdat any

$_ZN7obj_refI10quantifier11ast_managerEC2EPS0_RS1_ = comdat any

$_ZNK7obj_refI10quantifier11ast_managerEcvPS0_Ev = comdat any

$_ZNK15ref_vector_coreI3app19ref_manager_wrapperIS0_11ast_managerEE3getEj = comdat any

$_ZN20default_rewriter_cfg17reduce_quantifierEP10quantifierP4exprPKS3_S5_R7obj_refIS2_11ast_managerERS6_I3appS7_E = comdat any

$_ZN7obj_refI10quantifier11ast_managerED2Ev = comdat any

$_ZN6vectorIjLb0EjE6shrinkEj = comdat any

$_ZNK6vectorIjLb0EjE4sizeEv = comdat any

$_ZNK12rewriter_tplIN18reduce_args_tactic3imp18reduce_args_rw_cfgEE16check_max_scopesEv = comdat any

$_ZNK20default_rewriter_cfg19max_scopes_exceededEj = comdat any

$_ZNK6vectorIN13rewriter_core5scopeELb0EjE4sizeEv = comdat any

$_ZN6vectorIjLb0EjE13expand_vectorEv = comdat any

$_ZNK20default_rewriter_cfg16rewrite_patternsEv = comdat any

$_ZN19ref_manager_wrapperI4expr11ast_managerEC2ERS1_ = comdat any

$_ZN15ref_vector_coreI4expr19ref_manager_wrapperIS0_11ast_managerEEC2ERKS3_ = comdat any

$_ZN15ref_vector_coreI4expr19ref_manager_wrapperIS0_11ast_managerEE6appendEjPKPS0_ = comdat any

$_ZN10ref_vectorI4expr11ast_managerE11element_refC2ERPS0_RS1_ = comdat any

$_ZN7obj_refI10quantifier11ast_managerE7inc_refEv = comdat any

$_ZN7obj_refI10quantifier11ast_managerE7dec_refEv = comdat any

$_ZN12rewriter_tplIN18reduce_args_tactic3imp18reduce_args_rw_cfgEE5visitILb0EEEbP4exprj = comdat any

$_ZN12rewriter_tplIN18reduce_args_tactic3imp18reduce_args_rw_cfgEE11resume_coreILb0EEEvR7obj_refI4expr11ast_managerERS5_I3appS7_E = comdat any

$_ZN12rewriter_tplIN18reduce_args_tactic3imp18reduce_args_rw_cfgEE13process_constILb0EEEbP3app = comdat any

$_ZN12rewriter_tplIN18reduce_args_tactic3imp18reduce_args_rw_cfgEE11process_varILb0EEEvP3var = comdat any

$_ZN12rewriter_tplIN18reduce_args_tactic3imp18reduce_args_rw_cfgEE11process_appILb0EEEvP3appRN13rewriter_core5frameE = comdat any

$_ZN12rewriter_tplIN18reduce_args_tactic3imp18reduce_args_rw_cfgEE18process_quantifierILb0EEEvP10quantifierRN13rewriter_core5frameE = comdat any

$_ZN12rewriter_tplIN18reduce_args_tactic3imp18reduce_args_rw_cfgEE13constant_foldEP3appRN13rewriter_core5frameE = comdat any

$_ZNK9func_decl14is_associativeEv = comdat any

$_ZNK12rewriter_tplIN18reduce_args_tactic3imp18reduce_args_rw_cfgEE10flat_assocEP9func_decl = comdat any

$_ZN12rewriter_tplIN18reduce_args_tactic3imp18reduce_args_rw_cfgEE12cache_resultILb0EEEvP4exprS6_P3appb = comdat any

$_ZN6vectorIP4exprLb0EjE9push_backERKS1_ = comdat any

$_ZN7obj_refI4expr11ast_managerEaSEOS2_ = comdat any

$_ZNK11ast_manager6is_iteEPK4expr = comdat any

$_ZNK10ref_vectorI4expr11ast_managerE11element_ref3getEv = comdat any

$_ZNK11ast_manager7is_trueEPK4expr = comdat any

$_ZNK11ast_manager8is_falseEPK4expr = comdat any

$_ZNK9func_decl8get_infoEv = comdat any

$_ZNK14func_decl_info14is_associativeEv = comdat any

$_ZNK20default_rewriter_cfg10flat_assocEP9func_decl = comdat any

$_ZN13rewriter_core12cache_resultEP4exprS1_ = comdat any

$_ZSt4swapIP4exprENSt9enable_ifIXsr6__and_ISt6__not_ISt15__is_tuple_likeIT_EESt21is_move_constructibleIS5_ESt18is_move_assignableIS5_EEE5valueEvE4typeERS5_SE_ = comdat any

$_ZN7obj_refI4expr11ast_managerE5resetEv = comdat any

$_ZNK14core_hashtableIN7obj_mapI9func_decl10bit_vectorE13obj_map_entryE8obj_hashINS3_8key_dataEE10default_eqIS6_EE4sizeEv = comdat any

$_ZNK3refI15model_converterE3getEv = comdat any

$_ZN3refI15model_converterEaSEPS0_ = comdat any

$_ZN9converter7inc_refEv = comdat any

$_ZN3refI15model_converterE7dec_refEv = comdat any

$_ZN9converter7dec_refEv = comdat any

$_Z7deallocI9converterEvPT_ = comdat any

$_ZN10ref_vectorI3var11ast_managerEC2ERS1_ = comdat any

$_ZN23generic_model_converterC2ER11ast_managerPKc = comdat any

$_ZNK7obj_mapI9func_declP3mapIP3appPS0_N18reduce_args_tactic3imp18arg2func_hash_procENS6_16arg2func_eq_procEEE5beginEv = comdat any

$_ZNK7obj_mapI9func_declP3mapIP3appPS0_N18reduce_args_tactic3imp18arg2func_hash_procENS6_16arg2func_eq_procEEE3endEv = comdat any

$_ZNK14core_hashtableIN7obj_mapI9func_declP3mapIP3appPS1_N18reduce_args_tactic3imp18arg2func_hash_procENS7_16arg2func_eq_procEEE13obj_map_entryE8obj_hashINSC_8key_dataEE10default_eqISF_EE8iteratorneERKSK_ = comdat any

$_ZN14core_hashtableIN7obj_mapI9func_declP3mapIP3appPS1_N18reduce_args_tactic3imp18arg2func_hash_procENS7_16arg2func_eq_procEEE13obj_map_entryE8obj_hashINSC_8key_dataEE10default_eqISF_EE8iteratordeEv = comdat any

$_ZNK9table2mapI17default_map_entryIP3appP9func_declEN18reduce_args_tactic3imp18arg2func_hash_procENS7_16arg2func_eq_procEE5beginEv = comdat any

$_ZNK9table2mapI17default_map_entryIP3appP9func_declEN18reduce_args_tactic3imp18arg2func_hash_procENS7_16arg2func_eq_procEE3endEv = comdat any

$_ZNK14core_hashtableI17default_map_entryIP3appP9func_declEN9table2mapIS5_N18reduce_args_tactic3imp18arg2func_hash_procENS8_16arg2func_eq_procEE15entry_hash_procENSB_13entry_eq_procEE8iteratorneERKSF_ = comdat any

$_ZN14core_hashtableI17default_map_entryIP3appP9func_declEN9table2mapIS5_N18reduce_args_tactic3imp18arg2func_hash_procENS8_16arg2func_eq_procEE15entry_hash_procENSB_13entry_eq_procEE8iteratordeEv = comdat any

$_ZN23generic_model_converter4hideEP9func_decl = comdat any

$_ZN14core_hashtableI17default_map_entryIP3appP9func_declEN9table2mapIS5_N18reduce_args_tactic3imp18arg2func_hash_procENS8_16arg2func_eq_procEE15entry_hash_procENSB_13entry_eq_procEE8iteratorppEv = comdat any

$_ZN14core_hashtableIN7obj_mapI9func_declP3mapIP3appPS1_N18reduce_args_tactic3imp18arg2func_hash_procENS7_16arg2func_eq_procEEE13obj_map_entryE8obj_hashINSC_8key_dataEE10default_eqISF_EE8iteratorppEv = comdat any

$_ZN7obj_mapI9func_decl10bit_vectorE4findEPS0_ = comdat any

$_ZN15ref_vector_coreI3var19ref_manager_wrapperIS0_11ast_managerEE5resetEv = comdat any

$_ZN6bufferIP4exprLb0ELj16EE5resetEv = comdat any

$_ZN15ref_vector_coreI3var19ref_manager_wrapperIS0_11ast_managerEE9push_backEPS0_ = comdat any

$_ZN6bufferIP4exprLb0ELj16EE9push_backEOS1_ = comdat any

$_ZNK15ref_vector_coreI3var19ref_manager_wrapperIS0_11ast_managerEE4backEv = comdat any

$_ZN11ast_manager6mk_appEP9func_declRK10ptr_bufferI4exprLj16EE = comdat any

$_ZN11ast_manager5mk_eqEP4exprS1_ = comdat any

$_ZNK15ref_vector_coreI3var19ref_manager_wrapperIS0_11ast_managerEE3getEj = comdat any

$_Z6mk_andR11ast_managerRK10ptr_bufferI4exprLj16EE = comdat any

$_ZN11ast_manager6mk_iteEP4exprS1_S1_ = comdat any

$_ZN10ref_vectorI3var11ast_managerED2Ev = comdat any

$_ZN19ref_manager_wrapperI3var11ast_managerEC2ERS1_ = comdat any

$_ZN15ref_vector_coreI3var19ref_manager_wrapperIS0_11ast_managerEEC2ERKS3_ = comdat any

$_ZN10ptr_vectorI3varEC2Ev = comdat any

$_ZN6vectorIP3varLb0EjEC2Ev = comdat any

$_ZN15model_converterC2Ev = comdat any

$_ZN6vectorIN23generic_model_converter5entryELb1EjEC2Ev = comdat any

$_ZN15model_converterD2Ev = comdat any

$_ZN9converterC2Ev = comdat any

$_ZN9converterD2Ev = comdat any

$_ZN9converterD0Ev = comdat any

$_ZN9converter6cancelEv = comdat any

$_ZNK14core_hashtableIN7obj_mapI9func_declP3mapIP3appPS1_N18reduce_args_tactic3imp18arg2func_hash_procENS7_16arg2func_eq_procEEE13obj_map_entryE8obj_hashINSC_8key_dataEE10default_eqISF_EE5beginEv = comdat any

$_ZN14core_hashtableIN7obj_mapI9func_declP3mapIP3appPS1_N18reduce_args_tactic3imp18arg2func_hash_procENS7_16arg2func_eq_procEEE13obj_map_entryE8obj_hashINSC_8key_dataEE10default_eqISF_EE8iteratorC2EPSD_SL_ = comdat any

$_ZN14core_hashtableIN7obj_mapI9func_declP3mapIP3appPS1_N18reduce_args_tactic3imp18arg2func_hash_procENS7_16arg2func_eq_procEEE13obj_map_entryE8obj_hashINSC_8key_dataEE10default_eqISF_EE8iterator12move_to_usedEv = comdat any

$_ZNK14core_hashtableIN7obj_mapI9func_declP3mapIP3appPS1_N18reduce_args_tactic3imp18arg2func_hash_procENS7_16arg2func_eq_procEEE13obj_map_entryE8obj_hashINSC_8key_dataEE10default_eqISF_EE3endEv = comdat any

$_ZNK14core_hashtableI17default_map_entryIP3appP9func_declEN9table2mapIS5_N18reduce_args_tactic3imp18arg2func_hash_procENS8_16arg2func_eq_procEE15entry_hash_procENSB_13entry_eq_procEE5beginEv = comdat any

$_ZN14core_hashtableI17default_map_entryIP3appP9func_declEN9table2mapIS5_N18reduce_args_tactic3imp18arg2func_hash_procENS8_16arg2func_eq_procEE15entry_hash_procENSB_13entry_eq_procEE8iteratorC2EPS5_SG_ = comdat any

$_ZN14core_hashtableI17default_map_entryIP3appP9func_declEN9table2mapIS5_N18reduce_args_tactic3imp18arg2func_hash_procENS8_16arg2func_eq_procEE15entry_hash_procENSB_13entry_eq_procEE8iterator12move_to_usedEv = comdat any

$_ZNK14core_hashtableI17default_map_entryIP3appP9func_declEN9table2mapIS5_N18reduce_args_tactic3imp18arg2func_hash_procENS8_16arg2func_eq_procEE15entry_hash_procENSB_13entry_eq_procEE3endEv = comdat any

$_ZN6vectorIN23generic_model_converter5entryELb1EjE9push_backEOS1_ = comdat any

$_ZN23generic_model_converter5entryC2EP9func_declP4exprR11ast_managerNS_11instructionE = comdat any

$_ZN23generic_model_converter5entryD2Ev = comdat any

$_ZN6vectorIN23generic_model_converter5entryELb1EjE13expand_vectorEv = comdat any

$_ZN23generic_model_converter5entryC2EOS0_ = comdat any

$_ZNK6vectorIN23generic_model_converter5entryELb1EjE4sizeEv = comdat any

$_ZSt20uninitialized_move_nIPN23generic_model_converter5entryEjS2_ESt4pairIT_T1_ES4_T0_S5_ = comdat any

$_ZN6vectorIN23generic_model_converter5entryELb1EjE7destroyEv = comdat any

$_ZSt27__uninitialized_copy_n_pairISt13move_iteratorIPN23generic_model_converter5entryEEjS3_ESt4pairIT_T1_ES6_T0_S7_ = comdat any

$_ZSt18make_move_iteratorIPN23generic_model_converter5entryEESt13move_iteratorIT_ES4_ = comdat any

$_ZNKSt13move_iteratorIPN23generic_model_converter5entryEE4baseEv = comdat any

$_ZNSt4pairIPN23generic_model_converter5entryES2_EC2IS2_RS2_TnNSt9enable_ifIXaaclsr5_PCCPE22_MoveConstructiblePairIT_T0_EEclsr5_PCCPE30_ImplicitlyMoveConvertiblePairIS7_S8_EEEbE4typeELb1EEEOS7_OS8_ = comdat any

$_ZSt27__uninitialized_copy_n_pairISt13move_iteratorIPN23generic_model_converter5entryEEjS3_ESt4pairIT_T1_ES6_T0_S7_St26random_access_iterator_tag = comdat any

$_ZSt19__iterator_categoryISt13move_iteratorIPN23generic_model_converter5entryEEENSt15iterator_traitsIT_E17iterator_categoryERKS6_ = comdat any

$_ZSt18uninitialized_copyISt13move_iteratorIPN23generic_model_converter5entryEES3_ET0_T_S6_S5_ = comdat any

$_ZNKSt13move_iteratorIPN23generic_model_converter5entryEEplEl = comdat any

$_ZSt4nextISt13move_iteratorIPN23generic_model_converter5entryEEET_S5_NSt15iterator_traitsIS5_E15difference_typeE = comdat any

$_ZNSt4pairISt13move_iteratorIPN23generic_model_converter5entryEES3_EC2IRS4_RS3_TnNSt9enable_ifIXaaclsr5_PCCPE22_MoveConstructiblePairIT_T0_EEclsr5_PCCPE30_ImplicitlyMoveConvertiblePairISA_SB_EEEbE4typeELb1EEEOSA_OSB_ = comdat any

$_ZNSt20__uninitialized_copyILb0EE13__uninit_copyISt13move_iteratorIPN23generic_model_converter5entryEES5_EET0_T_S8_S7_ = comdat any

$_ZSt16__do_uninit_copyISt13move_iteratorIPN23generic_model_converter5entryEES3_ET0_T_S6_S5_ = comdat any

$_ZStneIPN23generic_model_converter5entryEEbRKSt13move_iteratorIT_ES7_ = comdat any

$_ZSt10_ConstructIN23generic_model_converter5entryEJS1_EEvPT_DpOT0_ = comdat any

$_ZNKSt13move_iteratorIPN23generic_model_converter5entryEEdeEv = comdat any

$_ZNSt13move_iteratorIPN23generic_model_converter5entryEEppEv = comdat any

$_ZSt8_DestroyIPN23generic_model_converter5entryEEvT_S3_ = comdat any

$_ZSteqIPN23generic_model_converter5entryEEbRKSt13move_iteratorIT_ES7_ = comdat any

$_ZNSt12_Destroy_auxILb0EE9__destroyIPN23generic_model_converter5entryEEEvT_S5_ = comdat any

$_ZSt8_DestroyIN23generic_model_converter5entryEEvPT_ = comdat any

$_ZNSt13move_iteratorIPN23generic_model_converter5entryEEC2ES2_ = comdat any

$_ZSt7advanceISt13move_iteratorIPN23generic_model_converter5entryEElEvRT_T0_ = comdat any

$_ZSt9__advanceISt13move_iteratorIPN23generic_model_converter5entryEElEvRT_T0_St26random_access_iterator_tag = comdat any

$_ZNSt13move_iteratorIPN23generic_model_converter5entryEEmmEv = comdat any

$_ZNSt13move_iteratorIPN23generic_model_converter5entryEEpLEl = comdat any

$_ZN6vectorIN23generic_model_converter5entryELb1EjE16destroy_elementsEv = comdat any

$_ZN6vectorIN23generic_model_converter5entryELb1EjE11free_memoryEv = comdat any

$_ZSt9destroy_nIPN23generic_model_converter5entryEjET_S3_T0_ = comdat any

$_ZSt10_Destroy_nIPN23generic_model_converter5entryEjET_S3_T0_ = comdat any

$_ZNSt14_Destroy_n_auxILb0EE11__destroy_nIPN23generic_model_converter5entryEjEET_S5_T0_ = comdat any

$_ZN7obj_refI9func_decl11ast_managerEC2EOS2_ = comdat any

$_ZN7obj_refI4expr11ast_managerEC2EOS2_ = comdat any

$_ZSt4swapIP9func_declENSt9enable_ifIXsr6__and_ISt6__not_ISt15__is_tuple_likeIT_EESt21is_move_constructibleIS5_ESt18is_move_assignableIS5_EEE5valueEvE4typeERS5_SE_ = comdat any

$_ZN7obj_refI9func_decl11ast_managerEC2EPS0_RS1_ = comdat any

$_ZN7obj_refI4expr11ast_managerEC2EPS0_RS1_ = comdat any

$_ZN7obj_refI9func_decl11ast_managerED2Ev = comdat any

$_ZN7obj_refI9func_decl11ast_managerE7inc_refEv = comdat any

$_ZN7obj_refI9func_decl11ast_managerE7dec_refEv = comdat any

$_ZNK7obj_mapI9func_decl10bit_vectorE9find_coreEPS0_ = comdat any

$_ZN15ref_vector_coreI3var19ref_manager_wrapperIS0_11ast_managerEE13dec_range_refEPKPS0_S7_ = comdat any

$_ZNK6vectorIP3varLb0EjE4dataEv = comdat any

$_ZNK6vectorIP3varLb0EjE4sizeEv = comdat any

$_ZN6vectorIP3varLb0EjE5resetEv = comdat any

$_ZN15ref_vector_coreI3var19ref_manager_wrapperIS0_11ast_managerEE7dec_refEPS0_ = comdat any

$_ZN19ref_manager_wrapperI3var11ast_managerE7dec_refEPS0_ = comdat any

$_ZN15ref_vector_coreI3var19ref_manager_wrapperIS0_11ast_managerEE7inc_refEPS0_ = comdat any

$_ZN6vectorIP3varLb0EjE9push_backERKS1_ = comdat any

$_ZN19ref_manager_wrapperI3var11ast_managerE7inc_refEPS0_ = comdat any

$_ZN6vectorIP3varLb0EjE13expand_vectorEv = comdat any

$_ZNK6vectorIP3varLb0EjE4backEv = comdat any

$_ZNK6vectorIP3varLb0EjEixEj = comdat any

$_ZNK11ast_manager9get_eq_opEPK4expr = comdat any

$_ZN15ref_vector_coreI3var19ref_manager_wrapperIS0_11ast_managerEED2Ev = comdat any

$_ZN10ptr_vectorI3varED2Ev = comdat any

$_ZN6vectorIP3varLb0EjED2Ev = comdat any

$_ZN6vectorIP3varLb0EjE7destroyEv = comdat any

$_ZN6vectorIP3varLb0EjE11free_memoryEv = comdat any

$_Z7deallocI3mapIP3appP9func_declN18reduce_args_tactic3imp18arg2func_hash_procENS6_16arg2func_eq_procEEEvPT_ = comdat any

$_ZN7obj_mapI9func_declP3mapIP3appPS0_N18reduce_args_tactic3imp18arg2func_hash_procENS6_16arg2func_eq_procEEED2Ev = comdat any

$_ZN3mapIP3appP9func_declN18reduce_args_tactic3imp18arg2func_hash_procENS5_16arg2func_eq_procEED2Ev = comdat any

$_ZN9table2mapI17default_map_entryIP3appP9func_declEN18reduce_args_tactic3imp18arg2func_hash_procENS7_16arg2func_eq_procEED2Ev = comdat any

$_ZN14core_hashtableI17default_map_entryIP3appP9func_declEN9table2mapIS5_N18reduce_args_tactic3imp18arg2func_hash_procENS8_16arg2func_eq_procEE15entry_hash_procENSB_13entry_eq_procEED2Ev = comdat any

$_ZN14core_hashtableIN7obj_mapI9func_declP3mapIP3appPS1_N18reduce_args_tactic3imp18arg2func_hash_procENS7_16arg2func_eq_procEEE13obj_map_entryE8obj_hashINSC_8key_dataEE10default_eqISF_EED2Ev = comdat any

$_ZN14core_hashtableIN7obj_mapI9func_decl10bit_vectorE13obj_map_entryE8obj_hashINS3_8key_dataEE10default_eqIS6_EED2Ev = comdat any

$_ZN14core_hashtableI14obj_hash_entryI9func_declE12obj_ptr_hashIS1_E6ptr_eqIS1_EED2Ev = comdat any

$_ZN15ref_vector_coreI4expr19ref_manager_wrapperIS0_11ast_managerEE7inc_refEPS0_ = comdat any

$_ZN19ref_manager_wrapperI4expr11ast_managerE7inc_refEPS0_ = comdat any

$_ZN15ref_buffer_coreI4goal21ref_unmanaged_wrapperIS0_ELj16EE13dec_range_refEPKPS0_S6_ = comdat any

$_ZN6bufferIP4goalLb0ELj16EE5beginEv = comdat any

$_ZN6bufferIP4goalLb0ELj16EE3endEv = comdat any

$_ZN6bufferIP4goalLb0ELj16EE5resetEv = comdat any

$_ZN15ref_buffer_coreI4goal21ref_unmanaged_wrapperIS0_ELj16EE7dec_refEPS0_ = comdat any

$_ZN21ref_unmanaged_wrapperI4goalE7dec_refEPS0_ = comdat any

$_ZN4goal7dec_refEv = comdat any

$_Z7deallocI4goalEvPT_ = comdat any

$_ZNK6bufferIP4goalLb0ELj16EE4sizeEv = comdat any

$_ZN15ref_buffer_coreI4goal21ref_unmanaged_wrapperIS0_ELj16EE7inc_refEPS0_ = comdat any

$_ZN6bufferIP4goalLb0ELj16EE9push_backERKS1_ = comdat any

$_ZN21ref_unmanaged_wrapperI4goalE7inc_refEPS0_ = comdat any

$_ZN4goal7inc_refEv = comdat any

$_ZN6bufferIP4goalLb0ELj16EE6expandEv = comdat any

$_ZN6bufferIP4goalLb0ELj16EE11free_memoryEv = comdat any

$_Z13dealloc_svectIP4goalEvPT_ = comdat any

$_ZNK15ref_vector_coreI4expr19ref_manager_wrapperIS0_11ast_managerEEixEj = comdat any

$_ZTS6tactic = comdat any

$_ZTSN15user_propagator4coreE = comdat any

$_ZTIN15user_propagator4coreE = comdat any

$_ZTI6tactic = comdat any

$_ZTV6tactic = comdat any

$_ZTVN15user_propagator4coreE = comdat any

$_ZTVN18reduce_args_tactic3imp14reduce_args_rwE = comdat any

$_ZTSN18reduce_args_tactic3imp14reduce_args_rwE = comdat any

$_ZTS12rewriter_tplIN18reduce_args_tactic3imp18reduce_args_rw_cfgEE = comdat any

$_ZTI12rewriter_tplIN18reduce_args_tactic3imp18reduce_args_rw_cfgEE = comdat any

$_ZTIN18reduce_args_tactic3imp14reduce_args_rwE = comdat any

$_ZTV12rewriter_tplIN18reduce_args_tactic3imp18reduce_args_rw_cfgEE = comdat any

$_ZTV16var_shifter_core = comdat any

$_ZTS16var_shifter_core = comdat any

$_ZTI16var_shifter_core = comdat any

$_ZTS18rewriter_exception = comdat any

$_ZTI18rewriter_exception = comdat any

$_ZTV18rewriter_exception = comdat any

$_ZTV9converter = comdat any

$_ZTS9converter = comdat any

$_ZTI9converter = comdat any

@_ZStL8__ioinit = internal global %"class.std::ios_base::Init" zeroinitializer, align 1
@__dso_handle = external hidden global i8
@_ZTV18reduce_args_tactic = hidden unnamed_addr constant { [25 x ptr] } { [25 x ptr] [ptr null, ptr @_ZTI18reduce_args_tactic, ptr @_ZN18reduce_args_tacticD1Ev, ptr @_ZN18reduce_args_tacticD0Ev, ptr @_ZN6tactic19user_propagate_initEPvRSt8functionIFvS0_PN15user_propagator8callbackEEERS1_IFvS0_S4_jEERS1_IFS0_S0_R11ast_managerRPNS2_11context_objEEE, ptr @_ZN15user_propagator4core29user_propagate_register_fixedERSt8functionIFvPvPNS_8callbackEP4exprS6_EE, ptr @_ZN15user_propagator4core29user_propagate_register_finalERSt8functionIFvPvPNS_8callbackEEE, ptr @_ZN15user_propagator4core26user_propagate_register_eqERSt8functionIFvPvPNS_8callbackEP4exprS6_EE, ptr @_ZN15user_propagator4core29user_propagate_register_diseqERSt8functionIFvPvPNS_8callbackEP4exprS6_EE, ptr @_ZN18reduce_args_tactic28user_propagate_register_exprEP4expr, ptr @_ZN15user_propagator4core31user_propagate_register_createdERSt8functionIFvPvPNS_8callbackEP4exprEE, ptr @_ZN15user_propagator4core30user_propagate_register_decideERSt8functionIFvPvPNS_8callbackEP4exprjbEE, ptr @_ZN18reduce_args_tactic20user_propagate_clearEv, ptr @_ZN6tactic18register_on_clauseEPvRSt8functionIFvS0_P4exprjPKjjPKS3_EE, ptr @_ZN6tactic11updt_paramsERK10params_ref, ptr @_ZN6tactic20collect_param_descrsER12param_descrs, ptr @_ZN18reduce_args_tacticclERK3refI4goalER11sref_bufferIS1_Lj16EE, ptr @_ZNK6tactic18collect_statisticsER10statistics, ptr @_ZN6tactic16reset_statisticsEv, ptr @_ZN18reduce_args_tactic7cleanupEv, ptr @_ZN6tactic5resetEv, ptr @_ZN6tactic9set_logicERK6symbol, ptr @_ZN6tactic21set_progress_callbackEP17progress_callback, ptr @_ZN18reduce_args_tactic9translateER11ast_manager, ptr @_ZNK18reduce_args_tactic4nameEv] }, align 8
@.str = private unnamed_addr constant [12 x i8] c"reduce-args\00", align 1
@_ZTVN10__cxxabiv120__si_class_type_infoE = external global [0 x ptr]
@_ZTS18reduce_args_tactic = hidden constant [21 x i8] c"18reduce_args_tactic\00", align 1
@_ZTS6tactic = linkonce_odr hidden constant [8 x i8] c"6tactic\00", comdat, align 1
@_ZTVN10__cxxabiv117__class_type_infoE = external global [0 x ptr]
@_ZTSN15user_propagator4coreE = linkonce_odr hidden constant [25 x i8] c"N15user_propagator4coreE\00", comdat, align 1
@_ZTIN15user_propagator4coreE = linkonce_odr hidden constant { ptr, ptr } { ptr getelementptr inbounds (ptr, ptr @_ZTVN10__cxxabiv117__class_type_infoE, i64 2), ptr @_ZTSN15user_propagator4coreE }, comdat, align 8
@_ZTI6tactic = linkonce_odr hidden constant { ptr, ptr, ptr } { ptr getelementptr inbounds (ptr, ptr @_ZTVN10__cxxabiv120__si_class_type_infoE, i64 2), ptr @_ZTS6tactic, ptr @_ZTIN15user_propagator4coreE }, comdat, align 8
@_ZTI18reduce_args_tactic = hidden constant { ptr, ptr, ptr } { ptr getelementptr inbounds (ptr, ptr @_ZTVN10__cxxabiv120__si_class_type_infoE, i64 2), ptr @_ZTS18reduce_args_tactic, ptr @_ZTI6tactic }, align 8
@_ZTV6tactic = linkonce_odr hidden unnamed_addr constant { [25 x ptr] } { [25 x ptr] [ptr null, ptr @_ZTI6tactic, ptr @_ZN6tacticD2Ev, ptr @_ZN6tacticD0Ev, ptr @_ZN6tactic19user_propagate_initEPvRSt8functionIFvS0_PN15user_propagator8callbackEEERS1_IFvS0_S4_jEERS1_IFS0_S0_R11ast_managerRPNS2_11context_objEEE, ptr @_ZN15user_propagator4core29user_propagate_register_fixedERSt8functionIFvPvPNS_8callbackEP4exprS6_EE, ptr @_ZN15user_propagator4core29user_propagate_register_finalERSt8functionIFvPvPNS_8callbackEEE, ptr @_ZN15user_propagator4core26user_propagate_register_eqERSt8functionIFvPvPNS_8callbackEP4exprS6_EE, ptr @_ZN15user_propagator4core29user_propagate_register_diseqERSt8functionIFvPvPNS_8callbackEP4exprS6_EE, ptr @_ZN6tactic28user_propagate_register_exprEP4expr, ptr @_ZN15user_propagator4core31user_propagate_register_createdERSt8functionIFvPvPNS_8callbackEP4exprEE, ptr @_ZN15user_propagator4core30user_propagate_register_decideERSt8functionIFvPvPNS_8callbackEP4exprjbEE, ptr @_ZN15user_propagator4core20user_propagate_clearEv, ptr @_ZN6tactic18register_on_clauseEPvRSt8functionIFvS0_P4exprjPKjjPKS3_EE, ptr @_ZN6tactic11updt_paramsERK10params_ref, ptr @_ZN6tactic20collect_param_descrsER12param_descrs, ptr @__cxa_pure_virtual, ptr @_ZNK6tactic18collect_statisticsER10statistics, ptr @_ZN6tactic16reset_statisticsEv, ptr @__cxa_pure_virtual, ptr @_ZN6tactic5resetEv, ptr @_ZN6tactic9set_logicERK6symbol, ptr @_ZN6tactic21set_progress_callbackEP17progress_callback, ptr @__cxa_pure_virtual, ptr @__cxa_pure_virtual] }, comdat, align 8
@_ZTVN15user_propagator4coreE = linkonce_odr hidden unnamed_addr constant { [14 x ptr] } { [14 x ptr] [ptr null, ptr @_ZTIN15user_propagator4coreE, ptr @_ZN15user_propagator4coreD2Ev, ptr @_ZN15user_propagator4coreD0Ev, ptr @_ZN15user_propagator4core19user_propagate_initEPvRSt8functionIFvS1_PNS_8callbackEEERS2_IFvS1_S4_jEERS2_IFS1_S1_R11ast_managerRPNS_11context_objEEE, ptr @_ZN15user_propagator4core29user_propagate_register_fixedERSt8functionIFvPvPNS_8callbackEP4exprS6_EE, ptr @_ZN15user_propagator4core29user_propagate_register_finalERSt8functionIFvPvPNS_8callbackEEE, ptr @_ZN15user_propagator4core26user_propagate_register_eqERSt8functionIFvPvPNS_8callbackEP4exprS6_EE, ptr @_ZN15user_propagator4core29user_propagate_register_diseqERSt8functionIFvPvPNS_8callbackEP4exprS6_EE, ptr @_ZN15user_propagator4core28user_propagate_register_exprEP4expr, ptr @_ZN15user_propagator4core31user_propagate_register_createdERSt8functionIFvPvPNS_8callbackEP4exprEE, ptr @_ZN15user_propagator4core30user_propagate_register_decideERSt8functionIFvPvPNS_8callbackEP4exprjbEE, ptr @_ZN15user_propagator4core20user_propagate_clearEv, ptr @_ZN15user_propagator4core18register_on_clauseEPvRSt8functionIFvS1_P4exprjPKjjPKS4_EE] }, comdat, align 8
@.str.1 = private unnamed_addr constant [54 x i8] c"user-propagators are only supported on the SMT solver\00", align 1
@_ZTI17default_exception = external constant ptr
@.str.2 = private unnamed_addr constant [50 x i8] c"basic_string: construction from null is not valid\00", align 1
@_ZTV17default_exception = external unnamed_addr constant { [6 x ptr] }, align 8
@_ZTV12z3_exception = external unnamed_addr constant { [6 x ptr] }, align 8
@.str.3 = private unnamed_addr constant [51 x i8] c"clause logging is only supported on the SMT solver\00", align 1
@.str.4 = private unnamed_addr constant [15 x i8] c":reduced-funcs\00", align 1
@.str.5 = private unnamed_addr constant [104 x i8] c"generated/home/dtcxzyw/WorkSpace/Projects/compilers/llvm-opt-benchmark/bench/z3/z3/src/util/hashtable.h\00", align 1
@.str.6 = private unnamed_addr constant [29 x i8] c"UNEXPECTED CODE WAS REACHED.\00", align 1
@.str.7 = private unnamed_addr constant [107 x i8] c"generated/home/dtcxzyw/WorkSpace/Projects/compilers/llvm-opt-benchmark/bench/z3/z3/src/ast/for_each_expr.h\00", align 1
@.str.8 = private unnamed_addr constant [43 x i8] c"Overflow encountered when expanding vector\00", align 1
@_ZTVN18reduce_args_tactic3imp14reduce_args_rwE = linkonce_odr hidden unnamed_addr constant { [4 x ptr] } { [4 x ptr] [ptr null, ptr @_ZTIN18reduce_args_tactic3imp14reduce_args_rwE, ptr @_ZN18reduce_args_tactic3imp14reduce_args_rwD2Ev, ptr @_ZN18reduce_args_tactic3imp14reduce_args_rwD0Ev] }, comdat, align 8
@_ZTSN18reduce_args_tactic3imp14reduce_args_rwE = linkonce_odr hidden constant [43 x i8] c"N18reduce_args_tactic3imp14reduce_args_rwE\00", comdat, align 1
@_ZTS12rewriter_tplIN18reduce_args_tactic3imp18reduce_args_rw_cfgEE = linkonce_odr hidden constant [63 x i8] c"12rewriter_tplIN18reduce_args_tactic3imp18reduce_args_rw_cfgEE\00", comdat, align 1
@_ZTI13rewriter_core = external constant ptr
@_ZTI12rewriter_tplIN18reduce_args_tactic3imp18reduce_args_rw_cfgEE = linkonce_odr hidden constant { ptr, ptr, ptr } { ptr getelementptr inbounds (ptr, ptr @_ZTVN10__cxxabiv120__si_class_type_infoE, i64 2), ptr @_ZTS12rewriter_tplIN18reduce_args_tactic3imp18reduce_args_rw_cfgEE, ptr @_ZTI13rewriter_core }, comdat, align 8
@_ZTIN18reduce_args_tactic3imp14reduce_args_rwE = linkonce_odr hidden constant { ptr, ptr, ptr } { ptr getelementptr inbounds (ptr, ptr @_ZTVN10__cxxabiv120__si_class_type_infoE, i64 2), ptr @_ZTSN18reduce_args_tactic3imp14reduce_args_rwE, ptr @_ZTI12rewriter_tplIN18reduce_args_tactic3imp18reduce_args_rw_cfgEE }, comdat, align 8
@_ZTV12rewriter_tplIN18reduce_args_tactic3imp18reduce_args_rw_cfgEE = linkonce_odr hidden unnamed_addr constant { [4 x ptr] } { [4 x ptr] [ptr null, ptr @_ZTI12rewriter_tplIN18reduce_args_tactic3imp18reduce_args_rw_cfgEE, ptr @_ZN12rewriter_tplIN18reduce_args_tactic3imp18reduce_args_rw_cfgEED2Ev, ptr @_ZN12rewriter_tplIN18reduce_args_tactic3imp18reduce_args_rw_cfgEED0Ev] }, comdat, align 8
@_ZTV11var_shifter = external unnamed_addr constant { [5 x ptr] }, align 8
@_ZTV16var_shifter_core = linkonce_odr hidden unnamed_addr constant { [5 x ptr] } { [5 x ptr] [ptr null, ptr @_ZTI16var_shifter_core, ptr @_ZN16var_shifter_coreD2Ev, ptr @_ZN16var_shifter_coreD0Ev, ptr @__cxa_pure_virtual] }, comdat, align 8
@_ZTS16var_shifter_core = linkonce_odr hidden constant [19 x i8] c"16var_shifter_core\00", comdat, align 1
@_ZTI16var_shifter_core = linkonce_odr hidden constant { ptr, ptr, ptr } { ptr getelementptr inbounds (ptr, ptr @_ZTVN10__cxxabiv120__si_class_type_infoE, i64 2), ptr @_ZTS16var_shifter_core, ptr @_ZTI13rewriter_core }, comdat, align 8
@_ZTV15inv_var_shifter = external unnamed_addr constant { [5 x ptr] }, align 8
@.str.9 = private unnamed_addr constant [101 x i8] c"generated/home/dtcxzyw/WorkSpace/Projects/compilers/llvm-opt-benchmark/bench/z3/z3/src/util/parray.h\00", align 1
@_ZTS18rewriter_exception = linkonce_odr hidden constant [21 x i8] c"18rewriter_exception\00", comdat, align 1
@_ZTI18rewriter_exception = linkonce_odr hidden constant { ptr, ptr, ptr } { ptr getelementptr inbounds (ptr, ptr @_ZTVN10__cxxabiv120__si_class_type_infoE, i64 2), ptr @_ZTS18rewriter_exception, ptr @_ZTI17default_exception }, comdat, align 8
@_ZTV18rewriter_exception = linkonce_odr hidden unnamed_addr constant { [6 x ptr] } { [6 x ptr] [ptr null, ptr @_ZTI18rewriter_exception, ptr @_ZN18rewriter_exceptionD2Ev, ptr @_ZN18rewriter_exceptionD0Ev, ptr @_ZNK17default_exception3msgEv, ptr @_ZNK12z3_exception10error_codeEv] }, comdat, align 8
@.str.10 = private unnamed_addr constant [115 x i8] c"generated/home/dtcxzyw/WorkSpace/Projects/compilers/llvm-opt-benchmark/bench/z3/z3/src/ast/rewriter/rewriter_def.h\00", align 1
@_ZN6symbol4nullE = external global %class.symbol, align 8
@_ZN11common_msgs16g_max_frames_msgE = external global ptr, align 8
@_ZN3app16g_constant_flagsE = external global %struct.app_flags, align 4
@_ZN11common_msgs15g_max_steps_msgE = external global ptr, align 8
@.str.11 = private unnamed_addr constant [21 x i8] c"NOT IMPLEMENTED YET!\00", align 1
@_ZN11common_msgs16g_max_scopes_msgE = external global ptr, align 8
@.str.12 = private unnamed_addr constant [12 x i8] c"reduce_args\00", align 1
@_ZTV23generic_model_converter = external unnamed_addr constant { [12 x ptr] }, align 8
@_ZTV15model_converter = external unnamed_addr constant { [12 x ptr] }, align 8
@_ZTV9converter = linkonce_odr hidden unnamed_addr constant { [6 x ptr] } { [6 x ptr] [ptr null, ptr @_ZTI9converter, ptr @_ZN9converterD2Ev, ptr @_ZN9converterD0Ev, ptr @_ZN9converter6cancelEv, ptr @__cxa_pure_virtual] }, comdat, align 8
@_ZTS9converter = linkonce_odr hidden constant [11 x i8] c"9converter\00", comdat, align 1
@_ZTI9converter = linkonce_odr hidden constant { ptr, ptr } { ptr getelementptr inbounds (ptr, ptr @_ZTVN10__cxxabiv117__class_type_infoE, i64 2), ptr @_ZTS9converter }, comdat, align 8
@.str.13 = private unnamed_addr constant [41 x i8] c"tactic does not support user propagation\00", align 1
@.str.14 = private unnamed_addr constant [39 x i8] c"tactic does not support clause logging\00", align 1
@llvm.global_ctors = appending global [1 x { i32, ptr, ptr }] [{ i32, ptr, ptr } { i32 65535, ptr @_GLOBAL__sub_I_reduce_args_tactic.cpp, ptr null }]

@_ZN18reduce_args_tacticC1ER11ast_manager = hidden unnamed_addr alias void (ptr, ptr), ptr @_ZN18reduce_args_tacticC2ER11ast_manager
@_ZN18reduce_args_tacticD1Ev = hidden unnamed_addr alias void (ptr), ptr @_ZN18reduce_args_tacticD2Ev

; Function Attrs: uwtable
define internal void @__cxx_global_var_init() #0 section ".text.startup" {
entry:
  call void @_ZNSt8ios_base4InitC1Ev(ptr noundef nonnull align 1 dereferenceable(1) @_ZStL8__ioinit)
  %0 = call i32 @__cxa_atexit(ptr @_ZNSt8ios_base4InitD1Ev, ptr @_ZStL8__ioinit, ptr @__dso_handle) #3
  ret void
}

declare void @_ZNSt8ios_base4InitC1Ev(ptr noundef nonnull align 1 dereferenceable(1)) unnamed_addr #1

; Function Attrs: nounwind
declare void @_ZNSt8ios_base4InitD1Ev(ptr noundef nonnull align 1 dereferenceable(1)) unnamed_addr #2

; Function Attrs: nounwind
declare i32 @__cxa_atexit(ptr, ptr, ptr) #3

; Function Attrs: mustprogress uwtable
define hidden noundef ptr @_Z21mk_reduce_args_tacticR11ast_managerRK10params_ref(ptr noundef nonnull align 8 dereferenceable(976) %m, ptr noundef nonnull align 8 dereferenceable(8) %p) #4 {
entry:
  %m.addr = alloca ptr, align 8
  %p.addr = alloca ptr, align 8
  store ptr %m, ptr %m.addr, align 8
  store ptr %p, ptr %p.addr, align 8
  %call = call noalias noundef ptr @_ZN6memory8allocateEm(i64 noundef 24)
  %0 = load ptr, ptr %m.addr, align 8
  call void @_ZN18reduce_args_tacticC1ER11ast_manager(ptr noundef nonnull align 8 dereferenceable(24) %call, ptr noundef nonnull align 8 dereferenceable(976) %0)
  %call1 = call noundef ptr @_Z5cleanP6tactic(ptr noundef %call)
  ret ptr %call1
}

declare noundef ptr @_Z5cleanP6tactic(ptr noundef) #1

declare noalias noundef ptr @_ZN6memory8allocateEm(i64 noundef) #1

; Function Attrs: mustprogress uwtable
define hidden void @_ZN18reduce_args_tacticC2ER11ast_manager(ptr noundef nonnull align 8 dereferenceable(24) %this, ptr noundef nonnull align 8 dereferenceable(976) %m) unnamed_addr #4 align 2 personality ptr @__gxx_personality_v0 {
entry:
  %this.addr = alloca ptr, align 8
  %m.addr = alloca ptr, align 8
  %vars = alloca %class.ref_vector, align 8
  %exn.slot = alloca ptr, align 8
  %ehselector.slot = alloca i32, align 4
  store ptr %this, ptr %this.addr, align 8
  store ptr %m, ptr %m.addr, align 8
  %this1 = load ptr, ptr %this.addr, align 8
  call void @_ZN6tacticC2Ev(ptr noundef nonnull align 8 dereferenceable(12) %this1)
  store ptr getelementptr inbounds ({ [25 x ptr] }, ptr @_ZTV18reduce_args_tactic, i32 0, inrange i32 0, i32 2), ptr %this1, align 8
  %0 = load ptr, ptr %m.addr, align 8
  invoke void @_ZN10ref_vectorI4expr11ast_managerEC2ERS1_(ptr noundef nonnull align 8 dereferenceable(16) %vars, ptr noundef nonnull align 8 dereferenceable(976) %0)
          to label %invoke.cont unwind label %lpad

invoke.cont:                                      ; preds = %entry
  %call = invoke noalias noundef ptr @_ZN6memory8allocateEm(i64 noundef 64)
          to label %invoke.cont3 unwind label %lpad2

invoke.cont3:                                     ; preds = %invoke.cont
  %1 = load ptr, ptr %m.addr, align 8
  invoke void @_ZN18reduce_args_tactic3impC2ER11ast_manager(ptr noundef nonnull align 8 dereferenceable(64) %call, ptr noundef nonnull align 8 dereferenceable(976) %1)
          to label %invoke.cont4 unwind label %lpad2

invoke.cont4:                                     ; preds = %invoke.cont3
  %m_imp = getelementptr inbounds %class.reduce_args_tactic, ptr %this1, i32 0, i32 1
  store ptr %call, ptr %m_imp, align 8
  call void @_ZN10ref_vectorI4expr11ast_managerED2Ev(ptr noundef nonnull align 8 dereferenceable(16) %vars) #3
  ret void

lpad:                                             ; preds = %entry
  %2 = landingpad { ptr, i32 }
          cleanup
  %3 = extractvalue { ptr, i32 } %2, 0
  store ptr %3, ptr %exn.slot, align 8
  %4 = extractvalue { ptr, i32 } %2, 1
  store i32 %4, ptr %ehselector.slot, align 4
  br label %ehcleanup

lpad2:                                            ; preds = %invoke.cont3, %invoke.cont
  %5 = landingpad { ptr, i32 }
          cleanup
  %6 = extractvalue { ptr, i32 } %5, 0
  store ptr %6, ptr %exn.slot, align 8
  %7 = extractvalue { ptr, i32 } %5, 1
  store i32 %7, ptr %ehselector.slot, align 4
  call void @_ZN10ref_vectorI4expr11ast_managerED2Ev(ptr noundef nonnull align 8 dereferenceable(16) %vars) #3
  br label %ehcleanup

ehcleanup:                                        ; preds = %lpad2, %lpad
  call void @_ZN6tacticD2Ev(ptr noundef nonnull align 8 dereferenceable(12) %this1) #3
  br label %eh.resume

eh.resume:                                        ; preds = %ehcleanup
  %exn = load ptr, ptr %exn.slot, align 8
  %sel = load i32, ptr %ehselector.slot, align 4
  %lpad.val = insertvalue { ptr, i32 } poison, ptr %exn, 0
  %lpad.val5 = insertvalue { ptr, i32 } %lpad.val, i32 %sel, 1
  resume { ptr, i32 } %lpad.val5
}

; Function Attrs: mustprogress nounwind uwtable
define linkonce_odr hidden void @_ZN6tacticC2Ev(ptr noundef nonnull align 8 dereferenceable(12) %this) unnamed_addr #5 comdat align 2 {
entry:
  %this.addr = alloca ptr, align 8
  store ptr %this, ptr %this.addr, align 8
  %this1 = load ptr, ptr %this.addr, align 8
  call void @_ZN15user_propagator4coreC2Ev(ptr noundef nonnull align 8 dereferenceable(8) %this1) #3
  store ptr getelementptr inbounds ({ [25 x ptr] }, ptr @_ZTV6tactic, i32 0, inrange i32 0, i32 2), ptr %this1, align 8
  %m_ref_count = getelementptr inbounds %class.tactic, ptr %this1, i32 0, i32 1
  store i32 0, ptr %m_ref_count, align 8
  ret void
}

; Function Attrs: mustprogress uwtable
define linkonce_odr hidden void @_ZN10ref_vectorI4expr11ast_managerEC2ERS1_(ptr noundef nonnull align 8 dereferenceable(16) %this, ptr noundef nonnull align 8 dereferenceable(976) %m) unnamed_addr #4 comdat align 2 {
entry:
  %this.addr = alloca ptr, align 8
  %m.addr = alloca ptr, align 8
  %ref.tmp = alloca %class.ref_manager_wrapper, align 8
  store ptr %this, ptr %this.addr, align 8
  store ptr %m, ptr %m.addr, align 8
  %this1 = load ptr, ptr %this.addr, align 8
  %0 = load ptr, ptr %m.addr, align 8
  call void @_ZN19ref_manager_wrapperI4expr11ast_managerEC2ERS1_(ptr noundef nonnull align 8 dereferenceable(8) %ref.tmp, ptr noundef nonnull align 8 dereferenceable(976) %0)
  call void @_ZN15ref_vector_coreI4expr19ref_manager_wrapperIS0_11ast_managerEEC2ERKS3_(ptr noundef nonnull align 8 dereferenceable(16) %this1, ptr noundef nonnull align 8 dereferenceable(8) %ref.tmp)
  ret void
}

declare i32 @__gxx_personality_v0(...)

; Function Attrs: mustprogress uwtable
define linkonce_odr hidden void @_ZN18reduce_args_tactic3impC2ER11ast_manager(ptr noundef nonnull align 8 dereferenceable(64) %this, ptr noundef nonnull align 8 dereferenceable(976) %m) unnamed_addr #4 comdat align 2 personality ptr @__gxx_personality_v0 {
entry:
  %this.addr = alloca ptr, align 8
  %m.addr = alloca ptr, align 8
  %exn.slot = alloca ptr, align 8
  %ehselector.slot = alloca i32, align 4
  store ptr %this, ptr %this.addr, align 8
  store ptr %m, ptr %m.addr, align 8
  %this1 = load ptr, ptr %this.addr, align 8
  %m_vars = getelementptr inbounds %"struct.reduce_args_tactic::imp", ptr %this1, i32 0, i32 0
  %0 = load ptr, ptr %m.addr, align 8
  call void @_ZN10ref_vectorI4expr11ast_managerEC2ERS1_(ptr noundef nonnull align 8 dereferenceable(16) %m_vars, ptr noundef nonnull align 8 dereferenceable(976) %0)
  %m2 = getelementptr inbounds %"struct.reduce_args_tactic::imp", ptr %this1, i32 0, i32 1
  %1 = load ptr, ptr %m.addr, align 8
  store ptr %1, ptr %m2, align 8
  %m_bv = getelementptr inbounds %"struct.reduce_args_tactic::imp", ptr %this1, i32 0, i32 2
  %2 = load ptr, ptr %m.addr, align 8
  invoke void @_ZN7bv_utilC1ER11ast_manager(ptr noundef nonnull align 8 dereferenceable(24) %m_bv, ptr noundef nonnull align 8 dereferenceable(976) %2)
          to label %invoke.cont unwind label %lpad

invoke.cont:                                      ; preds = %entry
  %m_ar = getelementptr inbounds %"struct.reduce_args_tactic::imp", ptr %this1, i32 0, i32 3
  %3 = load ptr, ptr %m.addr, align 8
  invoke void @_ZN10array_utilC1ER11ast_manager(ptr noundef nonnull align 8 dereferenceable(16) %m_ar, ptr noundef nonnull align 8 dereferenceable(976) %3)
          to label %invoke.cont3 unwind label %lpad

invoke.cont3:                                     ; preds = %invoke.cont
  ret void

lpad:                                             ; preds = %invoke.cont, %entry
  %4 = landingpad { ptr, i32 }
          cleanup
  %5 = extractvalue { ptr, i32 } %4, 0
  store ptr %5, ptr %exn.slot, align 8
  %6 = extractvalue { ptr, i32 } %4, 1
  store i32 %6, ptr %ehselector.slot, align 4
  call void @_ZN10ref_vectorI4expr11ast_managerED2Ev(ptr noundef nonnull align 8 dereferenceable(16) %m_vars) #3
  br label %eh.resume

eh.resume:                                        ; preds = %lpad
  %exn = load ptr, ptr %exn.slot, align 8
  %sel = load i32, ptr %ehselector.slot, align 4
  %lpad.val = insertvalue { ptr, i32 } poison, ptr %exn, 0
  %lpad.val4 = insertvalue { ptr, i32 } %lpad.val, i32 %sel, 1
  resume { ptr, i32 } %lpad.val4
}

; Function Attrs: mustprogress nounwind uwtable
define linkonce_odr hidden void @_ZN10ref_vectorI4expr11ast_managerED2Ev(ptr noundef nonnull align 8 dereferenceable(16) %this) unnamed_addr #5 comdat align 2 {
entry:
  %this.addr = alloca ptr, align 8
  store ptr %this, ptr %this.addr, align 8
  %this1 = load ptr, ptr %this.addr, align 8
  call void @_ZN15ref_vector_coreI4expr19ref_manager_wrapperIS0_11ast_managerEED2Ev(ptr noundef nonnull align 8 dereferenceable(16) %this1) #3
  ret void
}

; Function Attrs: mustprogress nounwind uwtable
define hidden void @_ZN18reduce_args_tacticD2Ev(ptr noundef nonnull align 8 dereferenceable(24) %this) unnamed_addr #5 align 2 personality ptr @__gxx_personality_v0 {
entry:
  %this.addr = alloca ptr, align 8
  store ptr %this, ptr %this.addr, align 8
  %this1 = load ptr, ptr %this.addr, align 8
  store ptr getelementptr inbounds ({ [25 x ptr] }, ptr @_ZTV18reduce_args_tactic, i32 0, inrange i32 0, i32 2), ptr %this1, align 8
  %m_imp = getelementptr inbounds %class.reduce_args_tactic, ptr %this1, i32 0, i32 1
  %0 = load ptr, ptr %m_imp, align 8
  invoke void @_Z7deallocIN18reduce_args_tactic3impEEvPT_(ptr noundef %0)
          to label %invoke.cont unwind label %terminate.lpad

invoke.cont:                                      ; preds = %entry
  call void @_ZN6tacticD2Ev(ptr noundef nonnull align 8 dereferenceable(12) %this1) #3
  ret void

terminate.lpad:                                   ; preds = %entry
  %1 = landingpad { ptr, i32 }
          catch ptr null
  %2 = extractvalue { ptr, i32 } %1, 0
  call void @__clang_call_terminate(ptr %2) #14
  unreachable
}

; Function Attrs: mustprogress uwtable
define linkonce_odr hidden void @_Z7deallocIN18reduce_args_tactic3impEEvPT_(ptr noundef %ptr) #4 comdat {
entry:
  %ptr.addr = alloca ptr, align 8
  store ptr %ptr, ptr %ptr.addr, align 8
  %0 = load ptr, ptr %ptr.addr, align 8
  %cmp = icmp eq ptr %0, null
  br i1 %cmp, label %if.then, label %if.end

if.then:                                          ; preds = %entry
  br label %return

if.end:                                           ; preds = %entry
  %1 = load ptr, ptr %ptr.addr, align 8
  call void @_ZN18reduce_args_tactic3impD2Ev(ptr noundef nonnull align 8 dereferenceable(64) %1) #3
  %2 = load ptr, ptr %ptr.addr, align 8
  call void @_ZN6memory10deallocateEPv(ptr noundef %2)
  br label %return

return:                                           ; preds = %if.end, %if.then
  ret void
}

; Function Attrs: noreturn nounwind uwtable
define linkonce_odr hidden void @__clang_call_terminate(ptr noundef %0) #6 comdat {
  %2 = call ptr @__cxa_begin_catch(ptr %0) #3
  call void @_ZSt9terminatev() #14
  unreachable
}

declare ptr @__cxa_begin_catch(ptr)

declare void @_ZSt9terminatev()

; Function Attrs: mustprogress nounwind uwtable
define hidden void @_ZN18reduce_args_tacticD0Ev(ptr noundef nonnull align 8 dereferenceable(24) %this) unnamed_addr #5 align 2 {
entry:
  %this.addr = alloca ptr, align 8
  store ptr %this, ptr %this.addr, align 8
  %this1 = load ptr, ptr %this.addr, align 8
  call void @_ZN18reduce_args_tacticD1Ev(ptr noundef nonnull align 8 dereferenceable(24) %this1) #3
  call void @_ZdlPv(ptr noundef %this1) #15
  ret void
}

; Function Attrs: nobuiltin nounwind
declare void @_ZdlPv(ptr noundef) #7

; Function Attrs: mustprogress uwtable
define hidden void @_ZN18reduce_args_tacticclERK3refI4goalER11sref_bufferIS1_Lj16EE(ptr noundef nonnull align 8 dereferenceable(24) %this, ptr noundef nonnull align 8 dereferenceable(8) %g, ptr noundef nonnull align 8 dereferenceable(144) %result) unnamed_addr #4 align 2 {
entry:
  %this.addr = alloca ptr, align 8
  %g.addr = alloca ptr, align 8
  %result.addr = alloca ptr, align 8
  store ptr %this, ptr %this.addr, align 8
  store ptr %g, ptr %g.addr, align 8
  store ptr %result, ptr %result.addr, align 8
  %this1 = load ptr, ptr %this.addr, align 8
  %0 = load ptr, ptr %g.addr, align 8
  call void @_Z29fail_if_unsat_core_generationPKcRK3refI4goalE(ptr noundef @.str, ptr noundef nonnull align 8 dereferenceable(8) %0)
  %1 = load ptr, ptr %result.addr, align 8
  call void @_ZN15ref_buffer_coreI4goal21ref_unmanaged_wrapperIS0_ELj16EE5resetEv(ptr noundef nonnull align 8 dereferenceable(144) %1)
  %m_imp = getelementptr inbounds %class.reduce_args_tactic, ptr %this1, i32 0, i32 1
  %2 = load ptr, ptr %m_imp, align 8
  %m = getelementptr inbounds %"struct.reduce_args_tactic::imp", ptr %2, i32 0, i32 1
  %3 = load ptr, ptr %m, align 8
  %call = call noundef zeroext i1 @_ZNK11ast_manager14proofs_enabledEv(ptr noundef nonnull align 8 dereferenceable(976) %3)
  br i1 %call, label %if.end, label %if.then

if.then:                                          ; preds = %entry
  %m_imp2 = getelementptr inbounds %class.reduce_args_tactic, ptr %this1, i32 0, i32 1
  %4 = load ptr, ptr %m_imp2, align 8
  %5 = load ptr, ptr %g.addr, align 8
  %call3 = call noundef ptr @_ZNK3refI4goalE3getEv(ptr noundef nonnull align 8 dereferenceable(8) %5)
  call void @_ZN18reduce_args_tactic3impclER4goal(ptr noundef nonnull align 8 dereferenceable(64) %4, ptr noundef nonnull align 8 dereferenceable(124) %call3)
  br label %if.end

if.end:                                           ; preds = %if.then, %entry
  %6 = load ptr, ptr %g.addr, align 8
  %call4 = call noundef ptr @_ZNK3refI4goalEptEv(ptr noundef nonnull align 8 dereferenceable(8) %6)
  call void @_ZN4goal9inc_depthEv(ptr noundef nonnull align 8 dereferenceable(124) %call4)
  %7 = load ptr, ptr %result.addr, align 8
  %8 = load ptr, ptr %g.addr, align 8
  %call5 = call noundef ptr @_ZNK3refI4goalE3getEv(ptr noundef nonnull align 8 dereferenceable(8) %8)
  call void @_ZN15ref_buffer_coreI4goal21ref_unmanaged_wrapperIS0_ELj16EE9push_backEPS0_(ptr noundef nonnull align 8 dereferenceable(144) %7, ptr noundef %call5)
  ret void
}

declare void @_Z29fail_if_unsat_core_generationPKcRK3refI4goalE(ptr noundef, ptr noundef nonnull align 8 dereferenceable(8)) #1

; Function Attrs: mustprogress uwtable
define linkonce_odr hidden void @_ZN15ref_buffer_coreI4goal21ref_unmanaged_wrapperIS0_ELj16EE5resetEv(ptr noundef nonnull align 8 dereferenceable(144) %this) #4 comdat align 2 {
entry:
  %this.addr = alloca ptr, align 8
  store ptr %this, ptr %this.addr, align 8
  %this1 = load ptr, ptr %this.addr, align 8
  %m_buffer = getelementptr inbounds %class.ref_buffer_core, ptr %this1, i32 0, i32 0
  %call = call noundef ptr @_ZN6bufferIP4goalLb0ELj16EE5beginEv(ptr noundef nonnull align 8 dereferenceable(144) %m_buffer)
  %m_buffer2 = getelementptr inbounds %class.ref_buffer_core, ptr %this1, i32 0, i32 0
  %call3 = call noundef ptr @_ZN6bufferIP4goalLb0ELj16EE3endEv(ptr noundef nonnull align 8 dereferenceable(144) %m_buffer2)
  call void @_ZN15ref_buffer_coreI4goal21ref_unmanaged_wrapperIS0_ELj16EE13dec_range_refEPKPS0_S6_(ptr noundef nonnull align 8 dereferenceable(144) %this1, ptr noundef %call, ptr noundef %call3)
  %m_buffer4 = getelementptr inbounds %class.ref_buffer_core, ptr %this1, i32 0, i32 0
  call void @_ZN6bufferIP4goalLb0ELj16EE5resetEv(ptr noundef nonnull align 8 dereferenceable(144) %m_buffer4)
  ret void
}

; Function Attrs: mustprogress nounwind uwtable
define linkonce_odr hidden noundef zeroext i1 @_ZNK11ast_manager14proofs_enabledEv(ptr noundef nonnull align 8 dereferenceable(976) %this) #5 comdat align 2 {
entry:
  %this.addr = alloca ptr, align 8
  store ptr %this, ptr %this.addr, align 8
  %this1 = load ptr, ptr %this.addr, align 8
  %m_proof_mode = getelementptr inbounds %class.ast_manager, ptr %this1, i32 0, i32 7
  %0 = load i32, ptr %m_proof_mode, align 8
  %cmp = icmp ne i32 %0, 0
  ret i1 %cmp
}

; Function Attrs: mustprogress uwtable
define linkonce_odr hidden void @_ZN18reduce_args_tactic3impclER4goal(ptr noundef nonnull align 8 dereferenceable(64) %this, ptr noundef nonnull align 8 dereferenceable(124) %g) #4 comdat align 2 personality ptr @__gxx_personality_v0 {
entry:
  %this.addr = alloca ptr, align 8
  %g.addr = alloca ptr, align 8
  %report = alloca %class.tactic_report, align 8
  %non_candidates = alloca %class.obj_hashtable, align 8
  %exn.slot = alloca ptr, align 8
  %ehselector.slot = alloca i32, align 4
  %decl2args = alloca %class.obj_map.34, align 8
  %cleanup.dest.slot = alloca i32, align 4
  %ctx = alloca %"struct.reduce_args_tactic::imp::reduce_args_ctx", align 8
  %rw = alloca %"struct.reduce_args_tactic::imp::reduce_args_rw", align 8
  %sz = alloca i32, align 4
  %i = alloca i32, align 4
  %f = alloca ptr, align 8
  %new_f = alloca %class.obj_ref, align 8
  store ptr %this, ptr %this.addr, align 8
  store ptr %g, ptr %g.addr, align 8
  %this1 = load ptr, ptr %this.addr, align 8
  %0 = load ptr, ptr %g.addr, align 8
  %call = call noundef zeroext i1 @_ZNK4goal12inconsistentEv(ptr noundef nonnull align 8 dereferenceable(124) %0)
  br i1 %call, label %if.then, label %if.end

if.then:                                          ; preds = %entry
  br label %cleanup.cont

if.end:                                           ; preds = %entry
  %1 = load ptr, ptr %g.addr, align 8
  call void @_ZN13tactic_reportC1EPKcRK4goal(ptr noundef nonnull align 8 dereferenceable(8) %report, ptr noundef @.str, ptr noundef nonnull align 8 dereferenceable(124) %1)
  invoke void @_ZN13obj_hashtableI9func_declEC2Ej(ptr noundef nonnull align 8 dereferenceable(20) %non_candidates, i32 noundef 8)
          to label %invoke.cont unwind label %lpad

invoke.cont:                                      ; preds = %if.end
  invoke void @_ZN7obj_mapI9func_decl10bit_vectorEC2Ev(ptr noundef nonnull align 8 dereferenceable(24) %decl2args)
          to label %invoke.cont3 unwind label %lpad2

invoke.cont3:                                     ; preds = %invoke.cont
  %2 = load ptr, ptr %g.addr, align 8
  invoke void @_ZN18reduce_args_tactic3imp19find_non_candidatesERK4goalR13obj_hashtableI9func_declE(ptr noundef nonnull align 8 dereferenceable(64) %this1, ptr noundef nonnull align 8 dereferenceable(124) %2, ptr noundef nonnull align 8 dereferenceable(20) %non_candidates)
          to label %invoke.cont5 unwind label %lpad4

invoke.cont5:                                     ; preds = %invoke.cont3
  %3 = load ptr, ptr %g.addr, align 8
  invoke void @_ZN18reduce_args_tactic3imp18populate_decl2argsERK4goalR13obj_hashtableI9func_declER7obj_mapIS5_10bit_vectorE(ptr noundef nonnull align 8 dereferenceable(64) %this1, ptr noundef nonnull align 8 dereferenceable(124) %3, ptr noundef nonnull align 8 dereferenceable(20) %non_candidates, ptr noundef nonnull align 8 dereferenceable(24) %decl2args)
          to label %invoke.cont6 unwind label %lpad4

invoke.cont6:                                     ; preds = %invoke.cont5
  %call8 = invoke noundef zeroext i1 @_ZNK7obj_mapI9func_decl10bit_vectorE5emptyEv(ptr noundef nonnull align 8 dereferenceable(24) %decl2args)
          to label %invoke.cont7 unwind label %lpad4

invoke.cont7:                                     ; preds = %invoke.cont6
  br i1 %call8, label %if.then9, label %if.end10

if.then9:                                         ; preds = %invoke.cont7
  store i32 1, ptr %cleanup.dest.slot, align 4
  br label %cleanup

lpad:                                             ; preds = %if.end
  %4 = landingpad { ptr, i32 }
          cleanup
  %5 = extractvalue { ptr, i32 } %4, 0
  store ptr %5, ptr %exn.slot, align 8
  %6 = extractvalue { ptr, i32 } %4, 1
  store i32 %6, ptr %ehselector.slot, align 4
  br label %ehcleanup46

lpad2:                                            ; preds = %invoke.cont
  %7 = landingpad { ptr, i32 }
          cleanup
  %8 = extractvalue { ptr, i32 } %7, 0
  store ptr %8, ptr %exn.slot, align 8
  %9 = extractvalue { ptr, i32 } %7, 1
  store i32 %9, ptr %ehselector.slot, align 4
  br label %ehcleanup44

lpad4:                                            ; preds = %if.end10, %invoke.cont6, %invoke.cont5, %invoke.cont3
  %10 = landingpad { ptr, i32 }
          cleanup
  %11 = extractvalue { ptr, i32 } %10, 0
  store ptr %11, ptr %exn.slot, align 8
  %12 = extractvalue { ptr, i32 } %10, 1
  store i32 %12, ptr %ehselector.slot, align 4
  br label %ehcleanup42

if.end10:                                         ; preds = %invoke.cont7
  %m = getelementptr inbounds %"struct.reduce_args_tactic::imp", ptr %this1, i32 0, i32 1
  %13 = load ptr, ptr %m, align 8
  invoke void @_ZN18reduce_args_tactic3imp15reduce_args_ctxC2ER11ast_manager(ptr noundef nonnull align 8 dereferenceable(32) %ctx, ptr noundef nonnull align 8 dereferenceable(976) %13)
          to label %invoke.cont11 unwind label %lpad4

invoke.cont11:                                    ; preds = %if.end10
  %m_decl2arg2funcs = getelementptr inbounds %"struct.reduce_args_tactic::imp::reduce_args_ctx", ptr %ctx, i32 0, i32 1
  invoke void @_ZN18reduce_args_tactic3imp14reduce_args_rwC2ERS0_R7obj_mapI9func_decl10bit_vectorERS3_IS4_P3mapIP3appPS4_NS0_18arg2func_hash_procENS0_16arg2func_eq_procEEE(ptr noundef nonnull align 8 dereferenceable(568) %rw, ptr noundef nonnull align 8 dereferenceable(64) %this1, ptr noundef nonnull align 8 dereferenceable(24) %decl2args, ptr noundef nonnull align 8 dereferenceable(24) %m_decl2arg2funcs)
          to label %invoke.cont13 unwind label %lpad12

invoke.cont13:                                    ; preds = %invoke.cont11
  %14 = load ptr, ptr %g.addr, align 8
  %call16 = invoke noundef i32 @_ZNK4goal4sizeEv(ptr noundef nonnull align 8 dereferenceable(124) %14)
          to label %invoke.cont15 unwind label %lpad14

invoke.cont15:                                    ; preds = %invoke.cont13
  store i32 %call16, ptr %sz, align 4
  store i32 0, ptr %i, align 4
  br label %for.cond

for.cond:                                         ; preds = %for.inc, %invoke.cont15
  %15 = load i32, ptr %i, align 4
  %16 = load i32, ptr %sz, align 4
  %cmp = icmp ult i32 %15, %16
  br i1 %cmp, label %for.body, label %for.end

for.body:                                         ; preds = %for.cond
  %17 = load ptr, ptr %g.addr, align 8
  %call18 = invoke noundef zeroext i1 @_ZNK4goal12inconsistentEv(ptr noundef nonnull align 8 dereferenceable(124) %17)
          to label %invoke.cont17 unwind label %lpad14

invoke.cont17:                                    ; preds = %for.body
  br i1 %call18, label %if.then19, label %if.end20

if.then19:                                        ; preds = %invoke.cont17
  br label %for.end

lpad12:                                           ; preds = %invoke.cont11
  %18 = landingpad { ptr, i32 }
          cleanup
  %19 = extractvalue { ptr, i32 } %18, 0
  store ptr %19, ptr %exn.slot, align 8
  %20 = extractvalue { ptr, i32 } %18, 1
  store i32 %20, ptr %ehselector.slot, align 4
  br label %ehcleanup41

lpad14:                                           ; preds = %invoke.cont37, %if.then35, %invoke.cont32, %invoke.cont30, %for.end, %invoke.cont21, %if.end20, %for.body, %invoke.cont13
  %21 = landingpad { ptr, i32 }
          cleanup
  %22 = extractvalue { ptr, i32 } %21, 0
  store ptr %22, ptr %exn.slot, align 8
  %23 = extractvalue { ptr, i32 } %21, 1
  store i32 %23, ptr %ehselector.slot, align 4
  br label %ehcleanup

if.end20:                                         ; preds = %invoke.cont17
  %24 = load ptr, ptr %g.addr, align 8
  %25 = load i32, ptr %i, align 4
  %call22 = invoke noundef ptr @_ZNK4goal4formEj(ptr noundef nonnull align 8 dereferenceable(124) %24, i32 noundef %25)
          to label %invoke.cont21 unwind label %lpad14

invoke.cont21:                                    ; preds = %if.end20
  store ptr %call22, ptr %f, align 8
  %m23 = getelementptr inbounds %"struct.reduce_args_tactic::imp", ptr %this1, i32 0, i32 1
  %26 = load ptr, ptr %m23, align 8
  invoke void @_ZN7obj_refI4expr11ast_managerEC2ERS1_(ptr noundef nonnull align 8 dereferenceable(16) %new_f, ptr noundef nonnull align 8 dereferenceable(976) %26)
          to label %invoke.cont24 unwind label %lpad14

invoke.cont24:                                    ; preds = %invoke.cont21
  %27 = load ptr, ptr %f, align 8
  invoke void @_ZN12rewriter_tplIN18reduce_args_tactic3imp18reduce_args_rw_cfgEEclEP4exprR7obj_refIS4_11ast_managerE(ptr noundef nonnull align 8 dereferenceable(536) %rw, ptr noundef %27, ptr noundef nonnull align 8 dereferenceable(16) %new_f)
          to label %invoke.cont26 unwind label %lpad25

invoke.cont26:                                    ; preds = %invoke.cont24
  %28 = load ptr, ptr %g.addr, align 8
  %29 = load i32, ptr %i, align 4
  %call28 = invoke noundef ptr @_ZNK7obj_refI4expr11ast_managerEcvPS0_Ev(ptr noundef nonnull align 8 dereferenceable(16) %new_f)
          to label %invoke.cont27 unwind label %lpad25

invoke.cont27:                                    ; preds = %invoke.cont26
  invoke void @_ZN4goal6updateEjP4exprP3appPN18dependency_managerIN11ast_manager22expr_dependency_configEE10dependencyE(ptr noundef nonnull align 8 dereferenceable(124) %28, i32 noundef %29, ptr noundef %call28, ptr noundef null, ptr noundef null)
          to label %invoke.cont29 unwind label %lpad25

invoke.cont29:                                    ; preds = %invoke.cont27
  call void @_ZN7obj_refI4expr11ast_managerED2Ev(ptr noundef nonnull align 8 dereferenceable(16) %new_f) #3
  br label %for.inc

for.inc:                                          ; preds = %invoke.cont29
  %30 = load i32, ptr %i, align 4
  %inc = add i32 %30, 1
  store i32 %inc, ptr %i, align 4
  br label %for.cond, !llvm.loop !4

lpad25:                                           ; preds = %invoke.cont27, %invoke.cont26, %invoke.cont24
  %31 = landingpad { ptr, i32 }
          cleanup
  %32 = extractvalue { ptr, i32 } %31, 0
  store ptr %32, ptr %exn.slot, align 8
  %33 = extractvalue { ptr, i32 } %31, 1
  store i32 %33, ptr %ehselector.slot, align 4
  call void @_ZN7obj_refI4expr11ast_managerED2Ev(ptr noundef nonnull align 8 dereferenceable(16) %new_f) #3
  br label %ehcleanup

for.end:                                          ; preds = %if.then19, %for.cond
  %call31 = invoke noundef i32 @_ZNK7obj_mapI9func_decl10bit_vectorE4sizeEv(ptr noundef nonnull align 8 dereferenceable(24) %decl2args)
          to label %invoke.cont30 unwind label %lpad14

invoke.cont30:                                    ; preds = %for.end
  invoke void @_Z22report_tactic_progressPKcj(ptr noundef @.str.4, i32 noundef %call31)
          to label %invoke.cont32 unwind label %lpad14

invoke.cont32:                                    ; preds = %invoke.cont30
  %34 = load ptr, ptr %g.addr, align 8
  %call34 = invoke noundef zeroext i1 @_ZNK4goal14models_enabledEv(ptr noundef nonnull align 8 dereferenceable(124) %34)
          to label %invoke.cont33 unwind label %lpad14

invoke.cont33:                                    ; preds = %invoke.cont32
  br i1 %call34, label %if.then35, label %if.end40

if.then35:                                        ; preds = %invoke.cont33
  %35 = load ptr, ptr %g.addr, align 8
  %m_decl2arg2funcs36 = getelementptr inbounds %"struct.reduce_args_tactic::imp::reduce_args_ctx", ptr %ctx, i32 0, i32 1
  %call38 = invoke noundef ptr @_ZN18reduce_args_tactic3imp5mk_mcER7obj_mapI9func_decl10bit_vectorERS1_IS2_P3mapIP3appPS2_NS0_18arg2func_hash_procENS0_16arg2func_eq_procEEE(ptr noundef nonnull align 8 dereferenceable(64) %this1, ptr noundef nonnull align 8 dereferenceable(24) %decl2args, ptr noundef nonnull align 8 dereferenceable(24) %m_decl2arg2funcs36)
          to label %invoke.cont37 unwind label %lpad14

invoke.cont37:                                    ; preds = %if.then35
  invoke void @_ZN4goal3addEP15model_converter(ptr noundef nonnull align 8 dereferenceable(124) %35, ptr noundef %call38)
          to label %invoke.cont39 unwind label %lpad14

invoke.cont39:                                    ; preds = %invoke.cont37
  br label %if.end40

if.end40:                                         ; preds = %invoke.cont39, %invoke.cont33
  call void @_ZN18reduce_args_tactic3imp14reduce_args_rwD2Ev(ptr noundef nonnull align 8 dereferenceable(568) %rw) #3
  call void @_ZN18reduce_args_tactic3imp15reduce_args_ctxD2Ev(ptr noundef nonnull align 8 dereferenceable(32) %ctx) #3
  store i32 0, ptr %cleanup.dest.slot, align 4
  br label %cleanup

cleanup:                                          ; preds = %if.end40, %if.then9
  call void @_ZN7obj_mapI9func_decl10bit_vectorED2Ev(ptr noundef nonnull align 8 dereferenceable(24) %decl2args) #3
  call void @_ZN13obj_hashtableI9func_declED2Ev(ptr noundef nonnull align 8 dereferenceable(20) %non_candidates) #3
  call void @_ZN13tactic_reportD1Ev(ptr noundef nonnull align 8 dereferenceable(8) %report) #3
  %cleanup.dest = load i32, ptr %cleanup.dest.slot, align 4
  switch i32 %cleanup.dest, label %unreachable [
    i32 0, label %cleanup.cont
    i32 1, label %cleanup.cont
  ]

cleanup.cont:                                     ; preds = %cleanup, %cleanup, %if.then
  ret void

ehcleanup:                                        ; preds = %lpad25, %lpad14
  call void @_ZN18reduce_args_tactic3imp14reduce_args_rwD2Ev(ptr noundef nonnull align 8 dereferenceable(568) %rw) #3
  br label %ehcleanup41

ehcleanup41:                                      ; preds = %ehcleanup, %lpad12
  call void @_ZN18reduce_args_tactic3imp15reduce_args_ctxD2Ev(ptr noundef nonnull align 8 dereferenceable(32) %ctx) #3
  br label %ehcleanup42

ehcleanup42:                                      ; preds = %ehcleanup41, %lpad4
  call void @_ZN7obj_mapI9func_decl10bit_vectorED2Ev(ptr noundef nonnull align 8 dereferenceable(24) %decl2args) #3
  br label %ehcleanup44

ehcleanup44:                                      ; preds = %ehcleanup42, %lpad2
  call void @_ZN13obj_hashtableI9func_declED2Ev(ptr noundef nonnull align 8 dereferenceable(20) %non_candidates) #3
  br label %ehcleanup46

ehcleanup46:                                      ; preds = %ehcleanup44, %lpad
  call void @_ZN13tactic_reportD1Ev(ptr noundef nonnull align 8 dereferenceable(8) %report) #3
  br label %eh.resume

eh.resume:                                        ; preds = %ehcleanup46
  %exn = load ptr, ptr %exn.slot, align 8
  %sel = load i32, ptr %ehselector.slot, align 4
  %lpad.val = insertvalue { ptr, i32 } poison, ptr %exn, 0
  %lpad.val47 = insertvalue { ptr, i32 } %lpad.val, i32 %sel, 1
  resume { ptr, i32 } %lpad.val47

unreachable:                                      ; preds = %cleanup
  unreachable
}

; Function Attrs: mustprogress nounwind uwtable
define linkonce_odr hidden noundef ptr @_ZNK3refI4goalE3getEv(ptr noundef nonnull align 8 dereferenceable(8) %this) #5 comdat align 2 {
entry:
  %this.addr = alloca ptr, align 8
  store ptr %this, ptr %this.addr, align 8
  %this1 = load ptr, ptr %this.addr, align 8
  %m_ptr = getelementptr inbounds %class.ref, ptr %this1, i32 0, i32 0
  %0 = load ptr, ptr %m_ptr, align 8
  ret ptr %0
}

; Function Attrs: mustprogress nounwind uwtable
define linkonce_odr hidden noundef ptr @_ZNK3refI4goalEptEv(ptr noundef nonnull align 8 dereferenceable(8) %this) #5 comdat align 2 {
entry:
  %this.addr = alloca ptr, align 8
  store ptr %this, ptr %this.addr, align 8
  %this1 = load ptr, ptr %this.addr, align 8
  %m_ptr = getelementptr inbounds %class.ref, ptr %this1, i32 0, i32 0
  %0 = load ptr, ptr %m_ptr, align 8
  ret ptr %0
}

; Function Attrs: mustprogress nounwind uwtable
define linkonce_odr hidden void @_ZN4goal9inc_depthEv(ptr noundef nonnull align 8 dereferenceable(124) %this) #5 comdat align 2 {
entry:
  %this.addr = alloca ptr, align 8
  store ptr %this, ptr %this.addr, align 8
  %this1 = load ptr, ptr %this.addr, align 8
  %m_depth = getelementptr inbounds %class.goal, ptr %this1, i32 0, i32 10
  %bf.load = load i32, ptr %m_depth, align 8
  %bf.clear = and i32 %bf.load, 67108863
  %inc = add i32 %bf.clear, 1
  %bf.load2 = load i32, ptr %m_depth, align 8
  %bf.value = and i32 %inc, 67108863
  %bf.clear3 = and i32 %bf.load2, -67108864
  %bf.set = or i32 %bf.clear3, %bf.value
  store i32 %bf.set, ptr %m_depth, align 8
  ret void
}

; Function Attrs: mustprogress uwtable
define linkonce_odr hidden void @_ZN15ref_buffer_coreI4goal21ref_unmanaged_wrapperIS0_ELj16EE9push_backEPS0_(ptr noundef nonnull align 8 dereferenceable(144) %this, ptr noundef %n) #4 comdat align 2 {
entry:
  %this.addr = alloca ptr, align 8
  %n.addr = alloca ptr, align 8
  store ptr %this, ptr %this.addr, align 8
  store ptr %n, ptr %n.addr, align 8
  %this1 = load ptr, ptr %this.addr, align 8
  %0 = load ptr, ptr %n.addr, align 8
  call void @_ZN15ref_buffer_coreI4goal21ref_unmanaged_wrapperIS0_ELj16EE7inc_refEPS0_(ptr noundef nonnull align 8 dereferenceable(144) %this1, ptr noundef %0)
  %m_buffer = getelementptr inbounds %class.ref_buffer_core, ptr %this1, i32 0, i32 0
  call void @_ZN6bufferIP4goalLb0ELj16EE9push_backERKS1_(ptr noundef nonnull align 8 dereferenceable(144) %m_buffer, ptr noundef nonnull align 8 dereferenceable(8) %n.addr)
  ret void
}

; Function Attrs: mustprogress uwtable
define hidden void @_ZN18reduce_args_tactic7cleanupEv(ptr noundef nonnull align 8 dereferenceable(24) %this) unnamed_addr #4 align 2 personality ptr @__gxx_personality_v0 {
entry:
  %this.addr = alloca ptr, align 8
  %m = alloca ptr, align 8
  %vars = alloca %class.ref_vector, align 8
  %exn.slot = alloca ptr, align 8
  %ehselector.slot = alloca i32, align 4
  store ptr %this, ptr %this.addr, align 8
  %this1 = load ptr, ptr %this.addr, align 8
  %m_imp = getelementptr inbounds %class.reduce_args_tactic, ptr %this1, i32 0, i32 1
  %0 = load ptr, ptr %m_imp, align 8
  %m2 = getelementptr inbounds %"struct.reduce_args_tactic::imp", ptr %0, i32 0, i32 1
  %1 = load ptr, ptr %m2, align 8
  store ptr %1, ptr %m, align 8
  %m_imp3 = getelementptr inbounds %class.reduce_args_tactic, ptr %this1, i32 0, i32 1
  %2 = load ptr, ptr %m_imp3, align 8
  %m_vars = getelementptr inbounds %"struct.reduce_args_tactic::imp", ptr %2, i32 0, i32 0
  call void @_ZN10ref_vectorI4expr11ast_managerEC2ERKS2_(ptr noundef nonnull align 8 dereferenceable(16) %vars, ptr noundef nonnull align 8 dereferenceable(16) %m_vars)
  %m_imp4 = getelementptr inbounds %class.reduce_args_tactic, ptr %this1, i32 0, i32 1
  %3 = load ptr, ptr %m_imp4, align 8
  call void @_ZN18reduce_args_tactic3impD2Ev(ptr noundef nonnull align 8 dereferenceable(64) %3) #3
  %m_imp5 = getelementptr inbounds %class.reduce_args_tactic, ptr %this1, i32 0, i32 1
  %4 = load ptr, ptr %m_imp5, align 8
  %5 = load ptr, ptr %m, align 8
  invoke void @_ZN18reduce_args_tactic3impC2ER11ast_manager(ptr noundef nonnull align 8 dereferenceable(64) %4, ptr noundef nonnull align 8 dereferenceable(976) %5)
          to label %invoke.cont unwind label %lpad

invoke.cont:                                      ; preds = %entry
  %m_imp6 = getelementptr inbounds %class.reduce_args_tactic, ptr %this1, i32 0, i32 1
  store ptr %4, ptr %m_imp6, align 8
  %m_imp7 = getelementptr inbounds %class.reduce_args_tactic, ptr %this1, i32 0, i32 1
  %6 = load ptr, ptr %m_imp7, align 8
  %m_vars8 = getelementptr inbounds %"struct.reduce_args_tactic::imp", ptr %6, i32 0, i32 0
  invoke void @_ZN15ref_vector_coreI4expr19ref_manager_wrapperIS0_11ast_managerEE6appendERKS4_(ptr noundef nonnull align 8 dereferenceable(16) %m_vars8, ptr noundef nonnull align 8 dereferenceable(16) %vars)
          to label %invoke.cont9 unwind label %lpad

invoke.cont9:                                     ; preds = %invoke.cont
  call void @_ZN10ref_vectorI4expr11ast_managerED2Ev(ptr noundef nonnull align 8 dereferenceable(16) %vars) #3
  ret void

lpad:                                             ; preds = %invoke.cont, %entry
  %7 = landingpad { ptr, i32 }
          cleanup
  %8 = extractvalue { ptr, i32 } %7, 0
  store ptr %8, ptr %exn.slot, align 8
  %9 = extractvalue { ptr, i32 } %7, 1
  store i32 %9, ptr %ehselector.slot, align 4
  call void @_ZN10ref_vectorI4expr11ast_managerED2Ev(ptr noundef nonnull align 8 dereferenceable(16) %vars) #3
  br label %eh.resume

eh.resume:                                        ; preds = %lpad
  %exn = load ptr, ptr %exn.slot, align 8
  %sel = load i32, ptr %ehselector.slot, align 4
  %lpad.val = insertvalue { ptr, i32 } poison, ptr %exn, 0
  %lpad.val10 = insertvalue { ptr, i32 } %lpad.val, i32 %sel, 1
  resume { ptr, i32 } %lpad.val10
}

; Function Attrs: mustprogress uwtable
define linkonce_odr hidden void @_ZN10ref_vectorI4expr11ast_managerEC2ERKS2_(ptr noundef nonnull align 8 dereferenceable(16) %this, ptr noundef nonnull align 8 dereferenceable(16) %other) unnamed_addr #4 comdat align 2 personality ptr @__gxx_personality_v0 {
entry:
  %this.addr = alloca ptr, align 8
  %other.addr = alloca ptr, align 8
  %ref.tmp = alloca %class.ref_manager_wrapper, align 8
  %exn.slot = alloca ptr, align 8
  %ehselector.slot = alloca i32, align 4
  store ptr %this, ptr %this.addr, align 8
  store ptr %other, ptr %other.addr, align 8
  %this1 = load ptr, ptr %this.addr, align 8
  %0 = load ptr, ptr %other.addr, align 8
  %m_manager = getelementptr inbounds %class.ref_manager_wrapper, ptr %0, i32 0, i32 0
  %1 = load ptr, ptr %m_manager, align 8
  call void @_ZN19ref_manager_wrapperI4expr11ast_managerEC2ERS1_(ptr noundef nonnull align 8 dereferenceable(8) %ref.tmp, ptr noundef nonnull align 8 dereferenceable(976) %1)
  call void @_ZN15ref_vector_coreI4expr19ref_manager_wrapperIS0_11ast_managerEEC2ERKS3_(ptr noundef nonnull align 8 dereferenceable(16) %this1, ptr noundef nonnull align 8 dereferenceable(8) %ref.tmp)
  %2 = load ptr, ptr %other.addr, align 8
  invoke void @_ZN15ref_vector_coreI4expr19ref_manager_wrapperIS0_11ast_managerEE6appendERKS4_(ptr noundef nonnull align 8 dereferenceable(16) %this1, ptr noundef nonnull align 8 dereferenceable(16) %2)
          to label %invoke.cont unwind label %lpad

invoke.cont:                                      ; preds = %entry
  ret void

lpad:                                             ; preds = %entry
  %3 = landingpad { ptr, i32 }
          cleanup
  %4 = extractvalue { ptr, i32 } %3, 0
  store ptr %4, ptr %exn.slot, align 8
  %5 = extractvalue { ptr, i32 } %3, 1
  store i32 %5, ptr %ehselector.slot, align 4
  call void @_ZN15ref_vector_coreI4expr19ref_manager_wrapperIS0_11ast_managerEED2Ev(ptr noundef nonnull align 8 dereferenceable(16) %this1) #3
  br label %eh.resume

eh.resume:                                        ; preds = %lpad
  %exn = load ptr, ptr %exn.slot, align 8
  %sel = load i32, ptr %ehselector.slot, align 4
  %lpad.val = insertvalue { ptr, i32 } poison, ptr %exn, 0
  %lpad.val2 = insertvalue { ptr, i32 } %lpad.val, i32 %sel, 1
  resume { ptr, i32 } %lpad.val2
}

; Function Attrs: mustprogress nounwind uwtable
define linkonce_odr hidden void @_ZN18reduce_args_tactic3impD2Ev(ptr noundef nonnull align 8 dereferenceable(64) %this) unnamed_addr #5 comdat align 2 {
entry:
  %this.addr = alloca ptr, align 8
  store ptr %this, ptr %this.addr, align 8
  %this1 = load ptr, ptr %this.addr, align 8
  %m_vars = getelementptr inbounds %"struct.reduce_args_tactic::imp", ptr %this1, i32 0, i32 0
  call void @_ZN10ref_vectorI4expr11ast_managerED2Ev(ptr noundef nonnull align 8 dereferenceable(16) %m_vars) #3
  ret void
}

; Function Attrs: mustprogress uwtable
define linkonce_odr hidden void @_ZN15ref_vector_coreI4expr19ref_manager_wrapperIS0_11ast_managerEE6appendERKS4_(ptr noundef nonnull align 8 dereferenceable(16) %this, ptr noundef nonnull align 8 dereferenceable(16) %other) #4 comdat align 2 {
entry:
  %this.addr = alloca ptr, align 8
  %other.addr = alloca ptr, align 8
  %i = alloca i32, align 4
  store ptr %this, ptr %this.addr, align 8
  store ptr %other, ptr %other.addr, align 8
  %this1 = load ptr, ptr %this.addr, align 8
  store i32 0, ptr %i, align 4
  br label %for.cond

for.cond:                                         ; preds = %for.inc, %entry
  %0 = load i32, ptr %i, align 4
  %1 = load ptr, ptr %other.addr, align 8
  %call = call noundef i32 @_ZNK15ref_vector_coreI4expr19ref_manager_wrapperIS0_11ast_managerEE4sizeEv(ptr noundef nonnull align 8 dereferenceable(16) %1)
  %cmp = icmp ult i32 %0, %call
  br i1 %cmp, label %for.body, label %for.end

for.body:                                         ; preds = %for.cond
  %2 = load ptr, ptr %other.addr, align 8
  %3 = load i32, ptr %i, align 4
  %call2 = call noundef ptr @_ZNK15ref_vector_coreI4expr19ref_manager_wrapperIS0_11ast_managerEEixEj(ptr noundef nonnull align 8 dereferenceable(16) %2, i32 noundef %3)
  %call3 = call noundef nonnull align 8 dereferenceable(16) ptr @_ZN15ref_vector_coreI4expr19ref_manager_wrapperIS0_11ast_managerEE9push_backEPS0_(ptr noundef nonnull align 8 dereferenceable(16) %this1, ptr noundef %call2)
  br label %for.inc

for.inc:                                          ; preds = %for.body
  %4 = load i32, ptr %i, align 4
  %inc = add i32 %4, 1
  store i32 %inc, ptr %i, align 4
  br label %for.cond, !llvm.loop !6

for.end:                                          ; preds = %for.cond
  ret void
}

; Function Attrs: mustprogress uwtable
define hidden void @_ZN18reduce_args_tactic28user_propagate_register_exprEP4expr(ptr noundef nonnull align 8 dereferenceable(24) %this, ptr noundef %e) unnamed_addr #4 align 2 {
entry:
  %this.addr = alloca ptr, align 8
  %e.addr = alloca ptr, align 8
  store ptr %this, ptr %this.addr, align 8
  store ptr %e, ptr %e.addr, align 8
  %this1 = load ptr, ptr %this.addr, align 8
  %m_imp = getelementptr inbounds %class.reduce_args_tactic, ptr %this1, i32 0, i32 1
  %0 = load ptr, ptr %m_imp, align 8
  %m_vars = getelementptr inbounds %"struct.reduce_args_tactic::imp", ptr %0, i32 0, i32 0
  %1 = load ptr, ptr %e.addr, align 8
  %call = call noundef nonnull align 8 dereferenceable(16) ptr @_ZN15ref_vector_coreI4expr19ref_manager_wrapperIS0_11ast_managerEE9push_backEPS0_(ptr noundef nonnull align 8 dereferenceable(16) %m_vars, ptr noundef %1)
  ret void
}

; Function Attrs: mustprogress uwtable
define linkonce_odr hidden noundef nonnull align 8 dereferenceable(16) ptr @_ZN15ref_vector_coreI4expr19ref_manager_wrapperIS0_11ast_managerEE9push_backEPS0_(ptr noundef nonnull align 8 dereferenceable(16) %this, ptr noundef %n) #4 comdat align 2 {
entry:
  %this.addr = alloca ptr, align 8
  %n.addr = alloca ptr, align 8
  store ptr %this, ptr %this.addr, align 8
  store ptr %n, ptr %n.addr, align 8
  %this1 = load ptr, ptr %this.addr, align 8
  %0 = load ptr, ptr %n.addr, align 8
  call void @_ZN15ref_vector_coreI4expr19ref_manager_wrapperIS0_11ast_managerEE7inc_refEPS0_(ptr noundef nonnull align 8 dereferenceable(16) %this1, ptr noundef %0)
  %m_nodes = getelementptr inbounds %class.ref_vector_core, ptr %this1, i32 0, i32 1
  %call = call noundef nonnull align 8 dereferenceable(8) ptr @_ZN6vectorIP4exprLb0EjE9push_backERKS1_(ptr noundef nonnull align 8 dereferenceable(8) %m_nodes, ptr noundef nonnull align 8 dereferenceable(8) %n.addr)
  ret ptr %this1
}

; Function Attrs: mustprogress uwtable
define hidden void @_ZN18reduce_args_tactic20user_propagate_clearEv(ptr noundef nonnull align 8 dereferenceable(24) %this) unnamed_addr #4 align 2 {
entry:
  %this.addr = alloca ptr, align 8
  store ptr %this, ptr %this.addr, align 8
  %this1 = load ptr, ptr %this.addr, align 8
  %m_imp = getelementptr inbounds %class.reduce_args_tactic, ptr %this1, i32 0, i32 1
  %0 = load ptr, ptr %m_imp, align 8
  %m_vars = getelementptr inbounds %"struct.reduce_args_tactic::imp", ptr %0, i32 0, i32 0
  call void @_ZN15ref_vector_coreI4expr19ref_manager_wrapperIS0_11ast_managerEE5resetEv(ptr noundef nonnull align 8 dereferenceable(16) %m_vars)
  ret void
}

; Function Attrs: mustprogress uwtable
define linkonce_odr hidden void @_ZN15ref_vector_coreI4expr19ref_manager_wrapperIS0_11ast_managerEE5resetEv(ptr noundef nonnull align 8 dereferenceable(16) %this) #4 comdat align 2 {
entry:
  %this.addr = alloca ptr, align 8
  store ptr %this, ptr %this.addr, align 8
  %this1 = load ptr, ptr %this.addr, align 8
  %m_nodes = getelementptr inbounds %class.ref_vector_core, ptr %this1, i32 0, i32 1
  %call = call noundef ptr @_ZNK6vectorIP4exprLb0EjE4dataEv(ptr noundef nonnull align 8 dereferenceable(8) %m_nodes)
  %m_nodes2 = getelementptr inbounds %class.ref_vector_core, ptr %this1, i32 0, i32 1
  %call3 = call noundef ptr @_ZNK6vectorIP4exprLb0EjE4dataEv(ptr noundef nonnull align 8 dereferenceable(8) %m_nodes2)
  %m_nodes4 = getelementptr inbounds %class.ref_vector_core, ptr %this1, i32 0, i32 1
  %call5 = call noundef i32 @_ZNK6vectorIP4exprLb0EjE4sizeEv(ptr noundef nonnull align 8 dereferenceable(8) %m_nodes4)
  %idx.ext = zext i32 %call5 to i64
  %add.ptr = getelementptr inbounds ptr, ptr %call3, i64 %idx.ext
  call void @_ZN15ref_vector_coreI4expr19ref_manager_wrapperIS0_11ast_managerEE13dec_range_refEPKPS0_S7_(ptr noundef nonnull align 8 dereferenceable(16) %this1, ptr noundef %call, ptr noundef %add.ptr)
  %m_nodes6 = getelementptr inbounds %class.ref_vector_core, ptr %this1, i32 0, i32 1
  call void @_ZN6vectorIP4exprLb0EjE5resetEv(ptr noundef nonnull align 8 dereferenceable(8) %m_nodes6)
  ret void
}

; Function Attrs: mustprogress uwtable
define linkonce_odr hidden void @_ZN6tactic19user_propagate_initEPvRSt8functionIFvS0_PN15user_propagator8callbackEEERS1_IFvS0_S4_jEERS1_IFS0_S0_R11ast_managerRPNS2_11context_objEEE(ptr noundef nonnull align 8 dereferenceable(12) %this, ptr noundef %ctx, ptr noundef nonnull align 1 %push_eh, ptr noundef nonnull align 1 %pop_eh, ptr noundef nonnull align 1 %fresh_eh) unnamed_addr #4 comdat align 2 personality ptr @__gxx_personality_v0 {
entry:
  %this.addr = alloca ptr, align 8
  %ctx.addr = alloca ptr, align 8
  %push_eh.addr = alloca ptr, align 8
  %pop_eh.addr = alloca ptr, align 8
  %fresh_eh.addr = alloca ptr, align 8
  %ref.tmp = alloca %"class.std::__cxx11::basic_string", align 8
  %ref.tmp2 = alloca %"class.std::allocator", align 1
  %exn.slot = alloca ptr, align 8
  %ehselector.slot = alloca i32, align 4
  %cleanup.isactive = alloca i1, align 1
  store ptr %this, ptr %this.addr, align 8
  store ptr %ctx, ptr %ctx.addr, align 8
  store ptr %push_eh, ptr %push_eh.addr, align 8
  store ptr %pop_eh, ptr %pop_eh.addr, align 8
  store ptr %fresh_eh, ptr %fresh_eh.addr, align 8
  store i1 true, ptr %cleanup.isactive, align 1
  %exception = call ptr @__cxa_allocate_exception(i64 40) #3
  call void @_ZNSaIcEC1Ev(ptr noundef nonnull align 1 dereferenceable(1) %ref.tmp2) #3
  invoke void @_ZNSt7__cxx1112basic_stringIcSt11char_traitsIcESaIcEEC2IS3_EEPKcRKS3_(ptr noundef nonnull align 8 dereferenceable(32) %ref.tmp, ptr noundef @.str.13, ptr noundef nonnull align 1 dereferenceable(1) %ref.tmp2)
          to label %invoke.cont unwind label %lpad

invoke.cont:                                      ; preds = %entry
  invoke void @_ZN17default_exceptionC2EONSt7__cxx1112basic_stringIcSt11char_traitsIcESaIcEEE(ptr noundef nonnull align 8 dereferenceable(40) %exception, ptr noundef nonnull align 8 dereferenceable(32) %ref.tmp)
          to label %invoke.cont4 unwind label %lpad3

invoke.cont4:                                     ; preds = %invoke.cont
  store i1 false, ptr %cleanup.isactive, align 1
  invoke void @__cxa_throw(ptr %exception, ptr @_ZTI17default_exception, ptr @_ZN17default_exceptionD2Ev) #16
          to label %unreachable unwind label %lpad3

lpad:                                             ; preds = %entry
  %0 = landingpad { ptr, i32 }
          cleanup
  %1 = extractvalue { ptr, i32 } %0, 0
  store ptr %1, ptr %exn.slot, align 8
  %2 = extractvalue { ptr, i32 } %0, 1
  store i32 %2, ptr %ehselector.slot, align 4
  br label %ehcleanup

lpad3:                                            ; preds = %invoke.cont4, %invoke.cont
  %3 = landingpad { ptr, i32 }
          cleanup
  %4 = extractvalue { ptr, i32 } %3, 0
  store ptr %4, ptr %exn.slot, align 8
  %5 = extractvalue { ptr, i32 } %3, 1
  store i32 %5, ptr %ehselector.slot, align 4
  call void @_ZNSt7__cxx1112basic_stringIcSt11char_traitsIcESaIcEED1Ev(ptr noundef nonnull align 8 dereferenceable(32) %ref.tmp) #3
  br label %ehcleanup

ehcleanup:                                        ; preds = %lpad3, %lpad
  call void @_ZNSaIcED1Ev(ptr noundef nonnull align 1 dereferenceable(1) %ref.tmp2) #3
  %cleanup.is_active = load i1, ptr %cleanup.isactive, align 1
  br i1 %cleanup.is_active, label %cleanup.action, label %cleanup.done

cleanup.action:                                   ; preds = %ehcleanup
  call void @__cxa_free_exception(ptr %exception) #3
  br label %cleanup.done

cleanup.done:                                     ; preds = %cleanup.action, %ehcleanup
  br label %eh.resume

eh.resume:                                        ; preds = %cleanup.done
  %exn = load ptr, ptr %exn.slot, align 8
  %sel = load i32, ptr %ehselector.slot, align 4
  %lpad.val = insertvalue { ptr, i32 } poison, ptr %exn, 0
  %lpad.val6 = insertvalue { ptr, i32 } %lpad.val, i32 %sel, 1
  resume { ptr, i32 } %lpad.val6

unreachable:                                      ; preds = %invoke.cont4
  unreachable
}

; Function Attrs: mustprogress uwtable
define linkonce_odr hidden void @_ZN15user_propagator4core29user_propagate_register_fixedERSt8functionIFvPvPNS_8callbackEP4exprS6_EE(ptr noundef nonnull align 8 dereferenceable(8) %this, ptr noundef nonnull align 1 %fixed_eh) unnamed_addr #4 comdat align 2 personality ptr @__gxx_personality_v0 {
entry:
  %this.addr = alloca ptr, align 8
  %fixed_eh.addr = alloca ptr, align 8
  %ref.tmp = alloca %"class.std::__cxx11::basic_string", align 8
  %ref.tmp2 = alloca %"class.std::allocator", align 1
  %exn.slot = alloca ptr, align 8
  %ehselector.slot = alloca i32, align 4
  %cleanup.isactive = alloca i1, align 1
  store ptr %this, ptr %this.addr, align 8
  store ptr %fixed_eh, ptr %fixed_eh.addr, align 8
  store i1 true, ptr %cleanup.isactive, align 1
  %exception = call ptr @__cxa_allocate_exception(i64 40) #3
  call void @_ZNSaIcEC1Ev(ptr noundef nonnull align 1 dereferenceable(1) %ref.tmp2) #3
  invoke void @_ZNSt7__cxx1112basic_stringIcSt11char_traitsIcESaIcEEC2IS3_EEPKcRKS3_(ptr noundef nonnull align 8 dereferenceable(32) %ref.tmp, ptr noundef @.str.1, ptr noundef nonnull align 1 dereferenceable(1) %ref.tmp2)
          to label %invoke.cont unwind label %lpad

invoke.cont:                                      ; preds = %entry
  invoke void @_ZN17default_exceptionC2EONSt7__cxx1112basic_stringIcSt11char_traitsIcESaIcEEE(ptr noundef nonnull align 8 dereferenceable(40) %exception, ptr noundef nonnull align 8 dereferenceable(32) %ref.tmp)
          to label %invoke.cont4 unwind label %lpad3

invoke.cont4:                                     ; preds = %invoke.cont
  store i1 false, ptr %cleanup.isactive, align 1
  invoke void @__cxa_throw(ptr %exception, ptr @_ZTI17default_exception, ptr @_ZN17default_exceptionD2Ev) #16
          to label %unreachable unwind label %lpad3

lpad:                                             ; preds = %entry
  %0 = landingpad { ptr, i32 }
          cleanup
  %1 = extractvalue { ptr, i32 } %0, 0
  store ptr %1, ptr %exn.slot, align 8
  %2 = extractvalue { ptr, i32 } %0, 1
  store i32 %2, ptr %ehselector.slot, align 4
  br label %ehcleanup

lpad3:                                            ; preds = %invoke.cont4, %invoke.cont
  %3 = landingpad { ptr, i32 }
          cleanup
  %4 = extractvalue { ptr, i32 } %3, 0
  store ptr %4, ptr %exn.slot, align 8
  %5 = extractvalue { ptr, i32 } %3, 1
  store i32 %5, ptr %ehselector.slot, align 4
  call void @_ZNSt7__cxx1112basic_stringIcSt11char_traitsIcESaIcEED1Ev(ptr noundef nonnull align 8 dereferenceable(32) %ref.tmp) #3
  br label %ehcleanup

ehcleanup:                                        ; preds = %lpad3, %lpad
  call void @_ZNSaIcED1Ev(ptr noundef nonnull align 1 dereferenceable(1) %ref.tmp2) #3
  %cleanup.is_active = load i1, ptr %cleanup.isactive, align 1
  br i1 %cleanup.is_active, label %cleanup.action, label %cleanup.done

cleanup.action:                                   ; preds = %ehcleanup
  call void @__cxa_free_exception(ptr %exception) #3
  br label %cleanup.done

cleanup.done:                                     ; preds = %cleanup.action, %ehcleanup
  br label %eh.resume

eh.resume:                                        ; preds = %cleanup.done
  %exn = load ptr, ptr %exn.slot, align 8
  %sel = load i32, ptr %ehselector.slot, align 4
  %lpad.val = insertvalue { ptr, i32 } poison, ptr %exn, 0
  %lpad.val6 = insertvalue { ptr, i32 } %lpad.val, i32 %sel, 1
  resume { ptr, i32 } %lpad.val6

unreachable:                                      ; preds = %invoke.cont4
  unreachable
}

; Function Attrs: mustprogress uwtable
define linkonce_odr hidden void @_ZN15user_propagator4core29user_propagate_register_finalERSt8functionIFvPvPNS_8callbackEEE(ptr noundef nonnull align 8 dereferenceable(8) %this, ptr noundef nonnull align 1 %final_eh) unnamed_addr #4 comdat align 2 personality ptr @__gxx_personality_v0 {
entry:
  %this.addr = alloca ptr, align 8
  %final_eh.addr = alloca ptr, align 8
  %ref.tmp = alloca %"class.std::__cxx11::basic_string", align 8
  %ref.tmp2 = alloca %"class.std::allocator", align 1
  %exn.slot = alloca ptr, align 8
  %ehselector.slot = alloca i32, align 4
  %cleanup.isactive = alloca i1, align 1
  store ptr %this, ptr %this.addr, align 8
  store ptr %final_eh, ptr %final_eh.addr, align 8
  store i1 true, ptr %cleanup.isactive, align 1
  %exception = call ptr @__cxa_allocate_exception(i64 40) #3
  call void @_ZNSaIcEC1Ev(ptr noundef nonnull align 1 dereferenceable(1) %ref.tmp2) #3
  invoke void @_ZNSt7__cxx1112basic_stringIcSt11char_traitsIcESaIcEEC2IS3_EEPKcRKS3_(ptr noundef nonnull align 8 dereferenceable(32) %ref.tmp, ptr noundef @.str.1, ptr noundef nonnull align 1 dereferenceable(1) %ref.tmp2)
          to label %invoke.cont unwind label %lpad

invoke.cont:                                      ; preds = %entry
  invoke void @_ZN17default_exceptionC2EONSt7__cxx1112basic_stringIcSt11char_traitsIcESaIcEEE(ptr noundef nonnull align 8 dereferenceable(40) %exception, ptr noundef nonnull align 8 dereferenceable(32) %ref.tmp)
          to label %invoke.cont4 unwind label %lpad3

invoke.cont4:                                     ; preds = %invoke.cont
  store i1 false, ptr %cleanup.isactive, align 1
  invoke void @__cxa_throw(ptr %exception, ptr @_ZTI17default_exception, ptr @_ZN17default_exceptionD2Ev) #16
          to label %unreachable unwind label %lpad3

lpad:                                             ; preds = %entry
  %0 = landingpad { ptr, i32 }
          cleanup
  %1 = extractvalue { ptr, i32 } %0, 0
  store ptr %1, ptr %exn.slot, align 8
  %2 = extractvalue { ptr, i32 } %0, 1
  store i32 %2, ptr %ehselector.slot, align 4
  br label %ehcleanup

lpad3:                                            ; preds = %invoke.cont4, %invoke.cont
  %3 = landingpad { ptr, i32 }
          cleanup
  %4 = extractvalue { ptr, i32 } %3, 0
  store ptr %4, ptr %exn.slot, align 8
  %5 = extractvalue { ptr, i32 } %3, 1
  store i32 %5, ptr %ehselector.slot, align 4
  call void @_ZNSt7__cxx1112basic_stringIcSt11char_traitsIcESaIcEED1Ev(ptr noundef nonnull align 8 dereferenceable(32) %ref.tmp) #3
  br label %ehcleanup

ehcleanup:                                        ; preds = %lpad3, %lpad
  call void @_ZNSaIcED1Ev(ptr noundef nonnull align 1 dereferenceable(1) %ref.tmp2) #3
  %cleanup.is_active = load i1, ptr %cleanup.isactive, align 1
  br i1 %cleanup.is_active, label %cleanup.action, label %cleanup.done

cleanup.action:                                   ; preds = %ehcleanup
  call void @__cxa_free_exception(ptr %exception) #3
  br label %cleanup.done

cleanup.done:                                     ; preds = %cleanup.action, %ehcleanup
  br label %eh.resume

eh.resume:                                        ; preds = %cleanup.done
  %exn = load ptr, ptr %exn.slot, align 8
  %sel = load i32, ptr %ehselector.slot, align 4
  %lpad.val = insertvalue { ptr, i32 } poison, ptr %exn, 0
  %lpad.val6 = insertvalue { ptr, i32 } %lpad.val, i32 %sel, 1
  resume { ptr, i32 } %lpad.val6

unreachable:                                      ; preds = %invoke.cont4
  unreachable
}

; Function Attrs: mustprogress uwtable
define linkonce_odr hidden void @_ZN15user_propagator4core26user_propagate_register_eqERSt8functionIFvPvPNS_8callbackEP4exprS6_EE(ptr noundef nonnull align 8 dereferenceable(8) %this, ptr noundef nonnull align 1 %eq_eh) unnamed_addr #4 comdat align 2 personality ptr @__gxx_personality_v0 {
entry:
  %this.addr = alloca ptr, align 8
  %eq_eh.addr = alloca ptr, align 8
  %ref.tmp = alloca %"class.std::__cxx11::basic_string", align 8
  %ref.tmp2 = alloca %"class.std::allocator", align 1
  %exn.slot = alloca ptr, align 8
  %ehselector.slot = alloca i32, align 4
  %cleanup.isactive = alloca i1, align 1
  store ptr %this, ptr %this.addr, align 8
  store ptr %eq_eh, ptr %eq_eh.addr, align 8
  store i1 true, ptr %cleanup.isactive, align 1
  %exception = call ptr @__cxa_allocate_exception(i64 40) #3
  call void @_ZNSaIcEC1Ev(ptr noundef nonnull align 1 dereferenceable(1) %ref.tmp2) #3
  invoke void @_ZNSt7__cxx1112basic_stringIcSt11char_traitsIcESaIcEEC2IS3_EEPKcRKS3_(ptr noundef nonnull align 8 dereferenceable(32) %ref.tmp, ptr noundef @.str.1, ptr noundef nonnull align 1 dereferenceable(1) %ref.tmp2)
          to label %invoke.cont unwind label %lpad

invoke.cont:                                      ; preds = %entry
  invoke void @_ZN17default_exceptionC2EONSt7__cxx1112basic_stringIcSt11char_traitsIcESaIcEEE(ptr noundef nonnull align 8 dereferenceable(40) %exception, ptr noundef nonnull align 8 dereferenceable(32) %ref.tmp)
          to label %invoke.cont4 unwind label %lpad3

invoke.cont4:                                     ; preds = %invoke.cont
  store i1 false, ptr %cleanup.isactive, align 1
  invoke void @__cxa_throw(ptr %exception, ptr @_ZTI17default_exception, ptr @_ZN17default_exceptionD2Ev) #16
          to label %unreachable unwind label %lpad3

lpad:                                             ; preds = %entry
  %0 = landingpad { ptr, i32 }
          cleanup
  %1 = extractvalue { ptr, i32 } %0, 0
  store ptr %1, ptr %exn.slot, align 8
  %2 = extractvalue { ptr, i32 } %0, 1
  store i32 %2, ptr %ehselector.slot, align 4
  br label %ehcleanup

lpad3:                                            ; preds = %invoke.cont4, %invoke.cont
  %3 = landingpad { ptr, i32 }
          cleanup
  %4 = extractvalue { ptr, i32 } %3, 0
  store ptr %4, ptr %exn.slot, align 8
  %5 = extractvalue { ptr, i32 } %3, 1
  store i32 %5, ptr %ehselector.slot, align 4
  call void @_ZNSt7__cxx1112basic_stringIcSt11char_traitsIcESaIcEED1Ev(ptr noundef nonnull align 8 dereferenceable(32) %ref.tmp) #3
  br label %ehcleanup

ehcleanup:                                        ; preds = %lpad3, %lpad
  call void @_ZNSaIcED1Ev(ptr noundef nonnull align 1 dereferenceable(1) %ref.tmp2) #3
  %cleanup.is_active = load i1, ptr %cleanup.isactive, align 1
  br i1 %cleanup.is_active, label %cleanup.action, label %cleanup.done

cleanup.action:                                   ; preds = %ehcleanup
  call void @__cxa_free_exception(ptr %exception) #3
  br label %cleanup.done

cleanup.done:                                     ; preds = %cleanup.action, %ehcleanup
  br label %eh.resume

eh.resume:                                        ; preds = %cleanup.done
  %exn = load ptr, ptr %exn.slot, align 8
  %sel = load i32, ptr %ehselector.slot, align 4
  %lpad.val = insertvalue { ptr, i32 } poison, ptr %exn, 0
  %lpad.val6 = insertvalue { ptr, i32 } %lpad.val, i32 %sel, 1
  resume { ptr, i32 } %lpad.val6

unreachable:                                      ; preds = %invoke.cont4
  unreachable
}

; Function Attrs: mustprogress uwtable
define linkonce_odr hidden void @_ZN15user_propagator4core29user_propagate_register_diseqERSt8functionIFvPvPNS_8callbackEP4exprS6_EE(ptr noundef nonnull align 8 dereferenceable(8) %this, ptr noundef nonnull align 1 %diseq_eh) unnamed_addr #4 comdat align 2 personality ptr @__gxx_personality_v0 {
entry:
  %this.addr = alloca ptr, align 8
  %diseq_eh.addr = alloca ptr, align 8
  %ref.tmp = alloca %"class.std::__cxx11::basic_string", align 8
  %ref.tmp2 = alloca %"class.std::allocator", align 1
  %exn.slot = alloca ptr, align 8
  %ehselector.slot = alloca i32, align 4
  %cleanup.isactive = alloca i1, align 1
  store ptr %this, ptr %this.addr, align 8
  store ptr %diseq_eh, ptr %diseq_eh.addr, align 8
  store i1 true, ptr %cleanup.isactive, align 1
  %exception = call ptr @__cxa_allocate_exception(i64 40) #3
  call void @_ZNSaIcEC1Ev(ptr noundef nonnull align 1 dereferenceable(1) %ref.tmp2) #3
  invoke void @_ZNSt7__cxx1112basic_stringIcSt11char_traitsIcESaIcEEC2IS3_EEPKcRKS3_(ptr noundef nonnull align 8 dereferenceable(32) %ref.tmp, ptr noundef @.str.1, ptr noundef nonnull align 1 dereferenceable(1) %ref.tmp2)
          to label %invoke.cont unwind label %lpad

invoke.cont:                                      ; preds = %entry
  invoke void @_ZN17default_exceptionC2EONSt7__cxx1112basic_stringIcSt11char_traitsIcESaIcEEE(ptr noundef nonnull align 8 dereferenceable(40) %exception, ptr noundef nonnull align 8 dereferenceable(32) %ref.tmp)
          to label %invoke.cont4 unwind label %lpad3

invoke.cont4:                                     ; preds = %invoke.cont
  store i1 false, ptr %cleanup.isactive, align 1
  invoke void @__cxa_throw(ptr %exception, ptr @_ZTI17default_exception, ptr @_ZN17default_exceptionD2Ev) #16
          to label %unreachable unwind label %lpad3

lpad:                                             ; preds = %entry
  %0 = landingpad { ptr, i32 }
          cleanup
  %1 = extractvalue { ptr, i32 } %0, 0
  store ptr %1, ptr %exn.slot, align 8
  %2 = extractvalue { ptr, i32 } %0, 1
  store i32 %2, ptr %ehselector.slot, align 4
  br label %ehcleanup

lpad3:                                            ; preds = %invoke.cont4, %invoke.cont
  %3 = landingpad { ptr, i32 }
          cleanup
  %4 = extractvalue { ptr, i32 } %3, 0
  store ptr %4, ptr %exn.slot, align 8
  %5 = extractvalue { ptr, i32 } %3, 1
  store i32 %5, ptr %ehselector.slot, align 4
  call void @_ZNSt7__cxx1112basic_stringIcSt11char_traitsIcESaIcEED1Ev(ptr noundef nonnull align 8 dereferenceable(32) %ref.tmp) #3
  br label %ehcleanup

ehcleanup:                                        ; preds = %lpad3, %lpad
  call void @_ZNSaIcED1Ev(ptr noundef nonnull align 1 dereferenceable(1) %ref.tmp2) #3
  %cleanup.is_active = load i1, ptr %cleanup.isactive, align 1
  br i1 %cleanup.is_active, label %cleanup.action, label %cleanup.done

cleanup.action:                                   ; preds = %ehcleanup
  call void @__cxa_free_exception(ptr %exception) #3
  br label %cleanup.done

cleanup.done:                                     ; preds = %cleanup.action, %ehcleanup
  br label %eh.resume

eh.resume:                                        ; preds = %cleanup.done
  %exn = load ptr, ptr %exn.slot, align 8
  %sel = load i32, ptr %ehselector.slot, align 4
  %lpad.val = insertvalue { ptr, i32 } poison, ptr %exn, 0
  %lpad.val6 = insertvalue { ptr, i32 } %lpad.val, i32 %sel, 1
  resume { ptr, i32 } %lpad.val6

unreachable:                                      ; preds = %invoke.cont4
  unreachable
}

; Function Attrs: mustprogress uwtable
define linkonce_odr hidden void @_ZN15user_propagator4core31user_propagate_register_createdERSt8functionIFvPvPNS_8callbackEP4exprEE(ptr noundef nonnull align 8 dereferenceable(8) %this, ptr noundef nonnull align 1 %r) unnamed_addr #4 comdat align 2 personality ptr @__gxx_personality_v0 {
entry:
  %this.addr = alloca ptr, align 8
  %r.addr = alloca ptr, align 8
  %ref.tmp = alloca %"class.std::__cxx11::basic_string", align 8
  %ref.tmp2 = alloca %"class.std::allocator", align 1
  %exn.slot = alloca ptr, align 8
  %ehselector.slot = alloca i32, align 4
  %cleanup.isactive = alloca i1, align 1
  store ptr %this, ptr %this.addr, align 8
  store ptr %r, ptr %r.addr, align 8
  store i1 true, ptr %cleanup.isactive, align 1
  %exception = call ptr @__cxa_allocate_exception(i64 40) #3
  call void @_ZNSaIcEC1Ev(ptr noundef nonnull align 1 dereferenceable(1) %ref.tmp2) #3
  invoke void @_ZNSt7__cxx1112basic_stringIcSt11char_traitsIcESaIcEEC2IS3_EEPKcRKS3_(ptr noundef nonnull align 8 dereferenceable(32) %ref.tmp, ptr noundef @.str.1, ptr noundef nonnull align 1 dereferenceable(1) %ref.tmp2)
          to label %invoke.cont unwind label %lpad

invoke.cont:                                      ; preds = %entry
  invoke void @_ZN17default_exceptionC2EONSt7__cxx1112basic_stringIcSt11char_traitsIcESaIcEEE(ptr noundef nonnull align 8 dereferenceable(40) %exception, ptr noundef nonnull align 8 dereferenceable(32) %ref.tmp)
          to label %invoke.cont4 unwind label %lpad3

invoke.cont4:                                     ; preds = %invoke.cont
  store i1 false, ptr %cleanup.isactive, align 1
  invoke void @__cxa_throw(ptr %exception, ptr @_ZTI17default_exception, ptr @_ZN17default_exceptionD2Ev) #16
          to label %unreachable unwind label %lpad3

lpad:                                             ; preds = %entry
  %0 = landingpad { ptr, i32 }
          cleanup
  %1 = extractvalue { ptr, i32 } %0, 0
  store ptr %1, ptr %exn.slot, align 8
  %2 = extractvalue { ptr, i32 } %0, 1
  store i32 %2, ptr %ehselector.slot, align 4
  br label %ehcleanup

lpad3:                                            ; preds = %invoke.cont4, %invoke.cont
  %3 = landingpad { ptr, i32 }
          cleanup
  %4 = extractvalue { ptr, i32 } %3, 0
  store ptr %4, ptr %exn.slot, align 8
  %5 = extractvalue { ptr, i32 } %3, 1
  store i32 %5, ptr %ehselector.slot, align 4
  call void @_ZNSt7__cxx1112basic_stringIcSt11char_traitsIcESaIcEED1Ev(ptr noundef nonnull align 8 dereferenceable(32) %ref.tmp) #3
  br label %ehcleanup

ehcleanup:                                        ; preds = %lpad3, %lpad
  call void @_ZNSaIcED1Ev(ptr noundef nonnull align 1 dereferenceable(1) %ref.tmp2) #3
  %cleanup.is_active = load i1, ptr %cleanup.isactive, align 1
  br i1 %cleanup.is_active, label %cleanup.action, label %cleanup.done

cleanup.action:                                   ; preds = %ehcleanup
  call void @__cxa_free_exception(ptr %exception) #3
  br label %cleanup.done

cleanup.done:                                     ; preds = %cleanup.action, %ehcleanup
  br label %eh.resume

eh.resume:                                        ; preds = %cleanup.done
  %exn = load ptr, ptr %exn.slot, align 8
  %sel = load i32, ptr %ehselector.slot, align 4
  %lpad.val = insertvalue { ptr, i32 } poison, ptr %exn, 0
  %lpad.val6 = insertvalue { ptr, i32 } %lpad.val, i32 %sel, 1
  resume { ptr, i32 } %lpad.val6

unreachable:                                      ; preds = %invoke.cont4
  unreachable
}

; Function Attrs: mustprogress uwtable
define linkonce_odr hidden void @_ZN15user_propagator4core30user_propagate_register_decideERSt8functionIFvPvPNS_8callbackEP4exprjbEE(ptr noundef nonnull align 8 dereferenceable(8) %this, ptr noundef nonnull align 1 %r) unnamed_addr #4 comdat align 2 personality ptr @__gxx_personality_v0 {
entry:
  %this.addr = alloca ptr, align 8
  %r.addr = alloca ptr, align 8
  %ref.tmp = alloca %"class.std::__cxx11::basic_string", align 8
  %ref.tmp2 = alloca %"class.std::allocator", align 1
  %exn.slot = alloca ptr, align 8
  %ehselector.slot = alloca i32, align 4
  %cleanup.isactive = alloca i1, align 1
  store ptr %this, ptr %this.addr, align 8
  store ptr %r, ptr %r.addr, align 8
  store i1 true, ptr %cleanup.isactive, align 1
  %exception = call ptr @__cxa_allocate_exception(i64 40) #3
  call void @_ZNSaIcEC1Ev(ptr noundef nonnull align 1 dereferenceable(1) %ref.tmp2) #3
  invoke void @_ZNSt7__cxx1112basic_stringIcSt11char_traitsIcESaIcEEC2IS3_EEPKcRKS3_(ptr noundef nonnull align 8 dereferenceable(32) %ref.tmp, ptr noundef @.str.1, ptr noundef nonnull align 1 dereferenceable(1) %ref.tmp2)
          to label %invoke.cont unwind label %lpad

invoke.cont:                                      ; preds = %entry
  invoke void @_ZN17default_exceptionC2EONSt7__cxx1112basic_stringIcSt11char_traitsIcESaIcEEE(ptr noundef nonnull align 8 dereferenceable(40) %exception, ptr noundef nonnull align 8 dereferenceable(32) %ref.tmp)
          to label %invoke.cont4 unwind label %lpad3

invoke.cont4:                                     ; preds = %invoke.cont
  store i1 false, ptr %cleanup.isactive, align 1
  invoke void @__cxa_throw(ptr %exception, ptr @_ZTI17default_exception, ptr @_ZN17default_exceptionD2Ev) #16
          to label %unreachable unwind label %lpad3

lpad:                                             ; preds = %entry
  %0 = landingpad { ptr, i32 }
          cleanup
  %1 = extractvalue { ptr, i32 } %0, 0
  store ptr %1, ptr %exn.slot, align 8
  %2 = extractvalue { ptr, i32 } %0, 1
  store i32 %2, ptr %ehselector.slot, align 4
  br label %ehcleanup

lpad3:                                            ; preds = %invoke.cont4, %invoke.cont
  %3 = landingpad { ptr, i32 }
          cleanup
  %4 = extractvalue { ptr, i32 } %3, 0
  store ptr %4, ptr %exn.slot, align 8
  %5 = extractvalue { ptr, i32 } %3, 1
  store i32 %5, ptr %ehselector.slot, align 4
  call void @_ZNSt7__cxx1112basic_stringIcSt11char_traitsIcESaIcEED1Ev(ptr noundef nonnull align 8 dereferenceable(32) %ref.tmp) #3
  br label %ehcleanup

ehcleanup:                                        ; preds = %lpad3, %lpad
  call void @_ZNSaIcED1Ev(ptr noundef nonnull align 1 dereferenceable(1) %ref.tmp2) #3
  %cleanup.is_active = load i1, ptr %cleanup.isactive, align 1
  br i1 %cleanup.is_active, label %cleanup.action, label %cleanup.done

cleanup.action:                                   ; preds = %ehcleanup
  call void @__cxa_free_exception(ptr %exception) #3
  br label %cleanup.done

cleanup.done:                                     ; preds = %cleanup.action, %ehcleanup
  br label %eh.resume

eh.resume:                                        ; preds = %cleanup.done
  %exn = load ptr, ptr %exn.slot, align 8
  %sel = load i32, ptr %ehselector.slot, align 4
  %lpad.val = insertvalue { ptr, i32 } poison, ptr %exn, 0
  %lpad.val6 = insertvalue { ptr, i32 } %lpad.val, i32 %sel, 1
  resume { ptr, i32 } %lpad.val6

unreachable:                                      ; preds = %invoke.cont4
  unreachable
}

; Function Attrs: mustprogress uwtable
define linkonce_odr hidden void @_ZN6tactic18register_on_clauseEPvRSt8functionIFvS0_P4exprjPKjjPKS3_EE(ptr noundef nonnull align 8 dereferenceable(12) %this, ptr noundef %ctx, ptr noundef nonnull align 1 %on_clause) unnamed_addr #4 comdat align 2 personality ptr @__gxx_personality_v0 {
entry:
  %this.addr = alloca ptr, align 8
  %ctx.addr = alloca ptr, align 8
  %on_clause.addr = alloca ptr, align 8
  %ref.tmp = alloca %"class.std::__cxx11::basic_string", align 8
  %ref.tmp2 = alloca %"class.std::allocator", align 1
  %exn.slot = alloca ptr, align 8
  %ehselector.slot = alloca i32, align 4
  %cleanup.isactive = alloca i1, align 1
  store ptr %this, ptr %this.addr, align 8
  store ptr %ctx, ptr %ctx.addr, align 8
  store ptr %on_clause, ptr %on_clause.addr, align 8
  store i1 true, ptr %cleanup.isactive, align 1
  %exception = call ptr @__cxa_allocate_exception(i64 40) #3
  call void @_ZNSaIcEC1Ev(ptr noundef nonnull align 1 dereferenceable(1) %ref.tmp2) #3
  invoke void @_ZNSt7__cxx1112basic_stringIcSt11char_traitsIcESaIcEEC2IS3_EEPKcRKS3_(ptr noundef nonnull align 8 dereferenceable(32) %ref.tmp, ptr noundef @.str.14, ptr noundef nonnull align 1 dereferenceable(1) %ref.tmp2)
          to label %invoke.cont unwind label %lpad

invoke.cont:                                      ; preds = %entry
  invoke void @_ZN17default_exceptionC2EONSt7__cxx1112basic_stringIcSt11char_traitsIcESaIcEEE(ptr noundef nonnull align 8 dereferenceable(40) %exception, ptr noundef nonnull align 8 dereferenceable(32) %ref.tmp)
          to label %invoke.cont4 unwind label %lpad3

invoke.cont4:                                     ; preds = %invoke.cont
  store i1 false, ptr %cleanup.isactive, align 1
  invoke void @__cxa_throw(ptr %exception, ptr @_ZTI17default_exception, ptr @_ZN17default_exceptionD2Ev) #16
          to label %unreachable unwind label %lpad3

lpad:                                             ; preds = %entry
  %0 = landingpad { ptr, i32 }
          cleanup
  %1 = extractvalue { ptr, i32 } %0, 0
  store ptr %1, ptr %exn.slot, align 8
  %2 = extractvalue { ptr, i32 } %0, 1
  store i32 %2, ptr %ehselector.slot, align 4
  br label %ehcleanup

lpad3:                                            ; preds = %invoke.cont4, %invoke.cont
  %3 = landingpad { ptr, i32 }
          cleanup
  %4 = extractvalue { ptr, i32 } %3, 0
  store ptr %4, ptr %exn.slot, align 8
  %5 = extractvalue { ptr, i32 } %3, 1
  store i32 %5, ptr %ehselector.slot, align 4
  call void @_ZNSt7__cxx1112basic_stringIcSt11char_traitsIcESaIcEED1Ev(ptr noundef nonnull align 8 dereferenceable(32) %ref.tmp) #3
  br label %ehcleanup

ehcleanup:                                        ; preds = %lpad3, %lpad
  call void @_ZNSaIcED1Ev(ptr noundef nonnull align 1 dereferenceable(1) %ref.tmp2) #3
  %cleanup.is_active = load i1, ptr %cleanup.isactive, align 1
  br i1 %cleanup.is_active, label %cleanup.action, label %cleanup.done

cleanup.action:                                   ; preds = %ehcleanup
  call void @__cxa_free_exception(ptr %exception) #3
  br label %cleanup.done

cleanup.done:                                     ; preds = %cleanup.action, %ehcleanup
  br label %eh.resume

eh.resume:                                        ; preds = %cleanup.done
  %exn = load ptr, ptr %exn.slot, align 8
  %sel = load i32, ptr %ehselector.slot, align 4
  %lpad.val = insertvalue { ptr, i32 } poison, ptr %exn, 0
  %lpad.val6 = insertvalue { ptr, i32 } %lpad.val, i32 %sel, 1
  resume { ptr, i32 } %lpad.val6

unreachable:                                      ; preds = %invoke.cont4
  unreachable
}

; Function Attrs: mustprogress nounwind uwtable
define linkonce_odr hidden void @_ZN6tactic11updt_paramsERK10params_ref(ptr noundef nonnull align 8 dereferenceable(12) %this, ptr noundef nonnull align 8 dereferenceable(8) %p) unnamed_addr #5 comdat align 2 {
entry:
  %this.addr = alloca ptr, align 8
  %p.addr = alloca ptr, align 8
  store ptr %this, ptr %this.addr, align 8
  store ptr %p, ptr %p.addr, align 8
  ret void
}

; Function Attrs: mustprogress nounwind uwtable
define linkonce_odr hidden void @_ZN6tactic20collect_param_descrsER12param_descrs(ptr noundef nonnull align 8 dereferenceable(12) %this, ptr noundef nonnull align 8 dereferenceable(8) %r) unnamed_addr #5 comdat align 2 {
entry:
  %this.addr = alloca ptr, align 8
  %r.addr = alloca ptr, align 8
  store ptr %this, ptr %this.addr, align 8
  store ptr %r, ptr %r.addr, align 8
  ret void
}

; Function Attrs: mustprogress nounwind uwtable
define linkonce_odr hidden void @_ZNK6tactic18collect_statisticsER10statistics(ptr noundef nonnull align 8 dereferenceable(12) %this, ptr noundef nonnull align 8 dereferenceable(16) %st) unnamed_addr #5 comdat align 2 {
entry:
  %this.addr = alloca ptr, align 8
  %st.addr = alloca ptr, align 8
  store ptr %this, ptr %this.addr, align 8
  store ptr %st, ptr %st.addr, align 8
  ret void
}

; Function Attrs: mustprogress nounwind uwtable
define linkonce_odr hidden void @_ZN6tactic16reset_statisticsEv(ptr noundef nonnull align 8 dereferenceable(12) %this) unnamed_addr #5 comdat align 2 {
entry:
  %this.addr = alloca ptr, align 8
  store ptr %this, ptr %this.addr, align 8
  ret void
}

; Function Attrs: mustprogress uwtable
define linkonce_odr hidden void @_ZN6tactic5resetEv(ptr noundef nonnull align 8 dereferenceable(12) %this) unnamed_addr #4 comdat align 2 {
entry:
  %this.addr = alloca ptr, align 8
  store ptr %this, ptr %this.addr, align 8
  %this1 = load ptr, ptr %this.addr, align 8
  %vtable = load ptr, ptr %this1, align 8
  %vfn = getelementptr inbounds ptr, ptr %vtable, i64 17
  %0 = load ptr, ptr %vfn, align 8
  call void %0(ptr noundef nonnull align 8 dereferenceable(12) %this1)
  ret void
}

; Function Attrs: mustprogress nounwind uwtable
define linkonce_odr hidden void @_ZN6tactic9set_logicERK6symbol(ptr noundef nonnull align 8 dereferenceable(12) %this, ptr noundef nonnull align 8 dereferenceable(8) %l) unnamed_addr #5 comdat align 2 {
entry:
  %this.addr = alloca ptr, align 8
  %l.addr = alloca ptr, align 8
  store ptr %this, ptr %this.addr, align 8
  store ptr %l, ptr %l.addr, align 8
  ret void
}

; Function Attrs: mustprogress nounwind uwtable
define linkonce_odr hidden void @_ZN6tactic21set_progress_callbackEP17progress_callback(ptr noundef nonnull align 8 dereferenceable(12) %this, ptr noundef %callback) unnamed_addr #5 comdat align 2 {
entry:
  %this.addr = alloca ptr, align 8
  %callback.addr = alloca ptr, align 8
  store ptr %this, ptr %this.addr, align 8
  store ptr %callback, ptr %callback.addr, align 8
  ret void
}

; Function Attrs: mustprogress uwtable
define linkonce_odr hidden noundef ptr @_ZN18reduce_args_tactic9translateER11ast_manager(ptr noundef nonnull align 8 dereferenceable(24) %this, ptr noundef nonnull align 8 dereferenceable(976) %m) unnamed_addr #4 comdat align 2 {
entry:
  %this.addr = alloca ptr, align 8
  %m.addr = alloca ptr, align 8
  store ptr %this, ptr %this.addr, align 8
  store ptr %m, ptr %m.addr, align 8
  %call = call noalias noundef ptr @_ZN6memory8allocateEm(i64 noundef 24)
  %0 = load ptr, ptr %m.addr, align 8
  call void @_ZN18reduce_args_tacticC1ER11ast_manager(ptr noundef nonnull align 8 dereferenceable(24) %call, ptr noundef nonnull align 8 dereferenceable(976) %0)
  ret ptr %call
}

; Function Attrs: mustprogress nounwind uwtable
define linkonce_odr hidden noundef ptr @_ZNK18reduce_args_tactic4nameEv(ptr noundef nonnull align 8 dereferenceable(24) %this) unnamed_addr #5 comdat align 2 {
entry:
  %this.addr = alloca ptr, align 8
  store ptr %this, ptr %this.addr, align 8
  ret ptr @.str.12
}

; Function Attrs: mustprogress nounwind uwtable
define linkonce_odr hidden void @_ZN15user_propagator4coreC2Ev(ptr noundef nonnull align 8 dereferenceable(8) %this) unnamed_addr #5 comdat align 2 {
entry:
  %this.addr = alloca ptr, align 8
  store ptr %this, ptr %this.addr, align 8
  %this1 = load ptr, ptr %this.addr, align 8
  store ptr getelementptr inbounds ({ [14 x ptr] }, ptr @_ZTVN15user_propagator4coreE, i32 0, inrange i32 0, i32 2), ptr %this1, align 8
  ret void
}

; Function Attrs: mustprogress nounwind uwtable
define linkonce_odr hidden void @_ZN6tacticD2Ev(ptr noundef nonnull align 8 dereferenceable(12) %this) unnamed_addr #5 comdat align 2 {
entry:
  %this.addr = alloca ptr, align 8
  store ptr %this, ptr %this.addr, align 8
  %this1 = load ptr, ptr %this.addr, align 8
  call void @_ZN15user_propagator4coreD2Ev(ptr noundef nonnull align 8 dereferenceable(8) %this1) #3
  ret void
}

; Function Attrs: mustprogress nounwind uwtable
define linkonce_odr hidden void @_ZN6tacticD0Ev(ptr noundef nonnull align 8 dereferenceable(12) %this) unnamed_addr #5 comdat align 2 {
entry:
  %this.addr = alloca ptr, align 8
  store ptr %this, ptr %this.addr, align 8
  call void @llvm.trap() #14
  unreachable
}

; Function Attrs: mustprogress nounwind uwtable
define linkonce_odr hidden void @_ZN6tactic28user_propagate_register_exprEP4expr(ptr noundef nonnull align 8 dereferenceable(12) %this, ptr noundef %e) unnamed_addr #5 comdat align 2 {
entry:
  %this.addr = alloca ptr, align 8
  %e.addr = alloca ptr, align 8
  store ptr %this, ptr %this.addr, align 8
  store ptr %e, ptr %e.addr, align 8
  ret void
}

; Function Attrs: mustprogress nounwind uwtable
define linkonce_odr hidden void @_ZN15user_propagator4core20user_propagate_clearEv(ptr noundef nonnull align 8 dereferenceable(8) %this) unnamed_addr #5 comdat align 2 {
entry:
  %this.addr = alloca ptr, align 8
  store ptr %this, ptr %this.addr, align 8
  ret void
}

declare void @__cxa_pure_virtual() unnamed_addr

; Function Attrs: mustprogress nounwind uwtable
define linkonce_odr hidden void @_ZN15user_propagator4coreD2Ev(ptr noundef nonnull align 8 dereferenceable(8) %this) unnamed_addr #5 comdat align 2 {
entry:
  %this.addr = alloca ptr, align 8
  store ptr %this, ptr %this.addr, align 8
  ret void
}

; Function Attrs: mustprogress nounwind uwtable
define linkonce_odr hidden void @_ZN15user_propagator4coreD0Ev(ptr noundef nonnull align 8 dereferenceable(8) %this) unnamed_addr #5 comdat align 2 {
entry:
  %this.addr = alloca ptr, align 8
  store ptr %this, ptr %this.addr, align 8
  %this1 = load ptr, ptr %this.addr, align 8
  call void @_ZN15user_propagator4coreD2Ev(ptr noundef nonnull align 8 dereferenceable(8) %this1) #3
  call void @_ZdlPv(ptr noundef %this1) #15
  ret void
}

; Function Attrs: mustprogress uwtable
define linkonce_odr hidden void @_ZN15user_propagator4core19user_propagate_initEPvRSt8functionIFvS1_PNS_8callbackEEERS2_IFvS1_S4_jEERS2_IFS1_S1_R11ast_managerRPNS_11context_objEEE(ptr noundef nonnull align 8 dereferenceable(8) %this, ptr noundef %ctx, ptr noundef nonnull align 1 %push_eh, ptr noundef nonnull align 1 %pop_eh, ptr noundef nonnull align 1 %fresh_eh) unnamed_addr #4 comdat align 2 personality ptr @__gxx_personality_v0 {
entry:
  %this.addr = alloca ptr, align 8
  %ctx.addr = alloca ptr, align 8
  %push_eh.addr = alloca ptr, align 8
  %pop_eh.addr = alloca ptr, align 8
  %fresh_eh.addr = alloca ptr, align 8
  %ref.tmp = alloca %"class.std::__cxx11::basic_string", align 8
  %ref.tmp2 = alloca %"class.std::allocator", align 1
  %exn.slot = alloca ptr, align 8
  %ehselector.slot = alloca i32, align 4
  %cleanup.isactive = alloca i1, align 1
  store ptr %this, ptr %this.addr, align 8
  store ptr %ctx, ptr %ctx.addr, align 8
  store ptr %push_eh, ptr %push_eh.addr, align 8
  store ptr %pop_eh, ptr %pop_eh.addr, align 8
  store ptr %fresh_eh, ptr %fresh_eh.addr, align 8
  store i1 true, ptr %cleanup.isactive, align 1
  %exception = call ptr @__cxa_allocate_exception(i64 40) #3
  call void @_ZNSaIcEC1Ev(ptr noundef nonnull align 1 dereferenceable(1) %ref.tmp2) #3
  invoke void @_ZNSt7__cxx1112basic_stringIcSt11char_traitsIcESaIcEEC2IS3_EEPKcRKS3_(ptr noundef nonnull align 8 dereferenceable(32) %ref.tmp, ptr noundef @.str.1, ptr noundef nonnull align 1 dereferenceable(1) %ref.tmp2)
          to label %invoke.cont unwind label %lpad

invoke.cont:                                      ; preds = %entry
  invoke void @_ZN17default_exceptionC2EONSt7__cxx1112basic_stringIcSt11char_traitsIcESaIcEEE(ptr noundef nonnull align 8 dereferenceable(40) %exception, ptr noundef nonnull align 8 dereferenceable(32) %ref.tmp)
          to label %invoke.cont4 unwind label %lpad3

invoke.cont4:                                     ; preds = %invoke.cont
  store i1 false, ptr %cleanup.isactive, align 1
  invoke void @__cxa_throw(ptr %exception, ptr @_ZTI17default_exception, ptr @_ZN17default_exceptionD2Ev) #16
          to label %unreachable unwind label %lpad3

lpad:                                             ; preds = %entry
  %0 = landingpad { ptr, i32 }
          cleanup
  %1 = extractvalue { ptr, i32 } %0, 0
  store ptr %1, ptr %exn.slot, align 8
  %2 = extractvalue { ptr, i32 } %0, 1
  store i32 %2, ptr %ehselector.slot, align 4
  br label %ehcleanup

lpad3:                                            ; preds = %invoke.cont4, %invoke.cont
  %3 = landingpad { ptr, i32 }
          cleanup
  %4 = extractvalue { ptr, i32 } %3, 0
  store ptr %4, ptr %exn.slot, align 8
  %5 = extractvalue { ptr, i32 } %3, 1
  store i32 %5, ptr %ehselector.slot, align 4
  call void @_ZNSt7__cxx1112basic_stringIcSt11char_traitsIcESaIcEED1Ev(ptr noundef nonnull align 8 dereferenceable(32) %ref.tmp) #3
  br label %ehcleanup

ehcleanup:                                        ; preds = %lpad3, %lpad
  call void @_ZNSaIcED1Ev(ptr noundef nonnull align 1 dereferenceable(1) %ref.tmp2) #3
  %cleanup.is_active = load i1, ptr %cleanup.isactive, align 1
  br i1 %cleanup.is_active, label %cleanup.action, label %cleanup.done

cleanup.action:                                   ; preds = %ehcleanup
  call void @__cxa_free_exception(ptr %exception) #3
  br label %cleanup.done

cleanup.done:                                     ; preds = %cleanup.action, %ehcleanup
  br label %eh.resume

eh.resume:                                        ; preds = %cleanup.done
  %exn = load ptr, ptr %exn.slot, align 8
  %sel = load i32, ptr %ehselector.slot, align 4
  %lpad.val = insertvalue { ptr, i32 } poison, ptr %exn, 0
  %lpad.val6 = insertvalue { ptr, i32 } %lpad.val, i32 %sel, 1
  resume { ptr, i32 } %lpad.val6

unreachable:                                      ; preds = %invoke.cont4
  unreachable
}

; Function Attrs: mustprogress uwtable
define linkonce_odr hidden void @_ZN15user_propagator4core28user_propagate_register_exprEP4expr(ptr noundef nonnull align 8 dereferenceable(8) %this, ptr noundef %e) unnamed_addr #4 comdat align 2 personality ptr @__gxx_personality_v0 {
entry:
  %this.addr = alloca ptr, align 8
  %e.addr = alloca ptr, align 8
  %ref.tmp = alloca %"class.std::__cxx11::basic_string", align 8
  %ref.tmp2 = alloca %"class.std::allocator", align 1
  %exn.slot = alloca ptr, align 8
  %ehselector.slot = alloca i32, align 4
  %cleanup.isactive = alloca i1, align 1
  store ptr %this, ptr %this.addr, align 8
  store ptr %e, ptr %e.addr, align 8
  store i1 true, ptr %cleanup.isactive, align 1
  %exception = call ptr @__cxa_allocate_exception(i64 40) #3
  call void @_ZNSaIcEC1Ev(ptr noundef nonnull align 1 dereferenceable(1) %ref.tmp2) #3
  invoke void @_ZNSt7__cxx1112basic_stringIcSt11char_traitsIcESaIcEEC2IS3_EEPKcRKS3_(ptr noundef nonnull align 8 dereferenceable(32) %ref.tmp, ptr noundef @.str.1, ptr noundef nonnull align 1 dereferenceable(1) %ref.tmp2)
          to label %invoke.cont unwind label %lpad

invoke.cont:                                      ; preds = %entry
  invoke void @_ZN17default_exceptionC2EONSt7__cxx1112basic_stringIcSt11char_traitsIcESaIcEEE(ptr noundef nonnull align 8 dereferenceable(40) %exception, ptr noundef nonnull align 8 dereferenceable(32) %ref.tmp)
          to label %invoke.cont4 unwind label %lpad3

invoke.cont4:                                     ; preds = %invoke.cont
  store i1 false, ptr %cleanup.isactive, align 1
  invoke void @__cxa_throw(ptr %exception, ptr @_ZTI17default_exception, ptr @_ZN17default_exceptionD2Ev) #16
          to label %unreachable unwind label %lpad3

lpad:                                             ; preds = %entry
  %0 = landingpad { ptr, i32 }
          cleanup
  %1 = extractvalue { ptr, i32 } %0, 0
  store ptr %1, ptr %exn.slot, align 8
  %2 = extractvalue { ptr, i32 } %0, 1
  store i32 %2, ptr %ehselector.slot, align 4
  br label %ehcleanup

lpad3:                                            ; preds = %invoke.cont4, %invoke.cont
  %3 = landingpad { ptr, i32 }
          cleanup
  %4 = extractvalue { ptr, i32 } %3, 0
  store ptr %4, ptr %exn.slot, align 8
  %5 = extractvalue { ptr, i32 } %3, 1
  store i32 %5, ptr %ehselector.slot, align 4
  call void @_ZNSt7__cxx1112basic_stringIcSt11char_traitsIcESaIcEED1Ev(ptr noundef nonnull align 8 dereferenceable(32) %ref.tmp) #3
  br label %ehcleanup

ehcleanup:                                        ; preds = %lpad3, %lpad
  call void @_ZNSaIcED1Ev(ptr noundef nonnull align 1 dereferenceable(1) %ref.tmp2) #3
  %cleanup.is_active = load i1, ptr %cleanup.isactive, align 1
  br i1 %cleanup.is_active, label %cleanup.action, label %cleanup.done

cleanup.action:                                   ; preds = %ehcleanup
  call void @__cxa_free_exception(ptr %exception) #3
  br label %cleanup.done

cleanup.done:                                     ; preds = %cleanup.action, %ehcleanup
  br label %eh.resume

eh.resume:                                        ; preds = %cleanup.done
  %exn = load ptr, ptr %exn.slot, align 8
  %sel = load i32, ptr %ehselector.slot, align 4
  %lpad.val = insertvalue { ptr, i32 } poison, ptr %exn, 0
  %lpad.val6 = insertvalue { ptr, i32 } %lpad.val, i32 %sel, 1
  resume { ptr, i32 } %lpad.val6

unreachable:                                      ; preds = %invoke.cont4
  unreachable
}

; Function Attrs: mustprogress uwtable
define linkonce_odr hidden void @_ZN15user_propagator4core18register_on_clauseEPvRSt8functionIFvS1_P4exprjPKjjPKS4_EE(ptr noundef nonnull align 8 dereferenceable(8) %this, ptr noundef %0, ptr noundef nonnull align 1 %r) unnamed_addr #4 comdat align 2 personality ptr @__gxx_personality_v0 {
entry:
  %this.addr = alloca ptr, align 8
  %.addr = alloca ptr, align 8
  %r.addr = alloca ptr, align 8
  %ref.tmp = alloca %"class.std::__cxx11::basic_string", align 8
  %ref.tmp2 = alloca %"class.std::allocator", align 1
  %exn.slot = alloca ptr, align 8
  %ehselector.slot = alloca i32, align 4
  %cleanup.isactive = alloca i1, align 1
  store ptr %this, ptr %this.addr, align 8
  store ptr %0, ptr %.addr, align 8
  store ptr %r, ptr %r.addr, align 8
  store i1 true, ptr %cleanup.isactive, align 1
  %exception = call ptr @__cxa_allocate_exception(i64 40) #3
  call void @_ZNSaIcEC1Ev(ptr noundef nonnull align 1 dereferenceable(1) %ref.tmp2) #3
  invoke void @_ZNSt7__cxx1112basic_stringIcSt11char_traitsIcESaIcEEC2IS3_EEPKcRKS3_(ptr noundef nonnull align 8 dereferenceable(32) %ref.tmp, ptr noundef @.str.3, ptr noundef nonnull align 1 dereferenceable(1) %ref.tmp2)
          to label %invoke.cont unwind label %lpad

invoke.cont:                                      ; preds = %entry
  invoke void @_ZN17default_exceptionC2EONSt7__cxx1112basic_stringIcSt11char_traitsIcESaIcEEE(ptr noundef nonnull align 8 dereferenceable(40) %exception, ptr noundef nonnull align 8 dereferenceable(32) %ref.tmp)
          to label %invoke.cont4 unwind label %lpad3

invoke.cont4:                                     ; preds = %invoke.cont
  store i1 false, ptr %cleanup.isactive, align 1
  invoke void @__cxa_throw(ptr %exception, ptr @_ZTI17default_exception, ptr @_ZN17default_exceptionD2Ev) #16
          to label %unreachable unwind label %lpad3

lpad:                                             ; preds = %entry
  %1 = landingpad { ptr, i32 }
          cleanup
  %2 = extractvalue { ptr, i32 } %1, 0
  store ptr %2, ptr %exn.slot, align 8
  %3 = extractvalue { ptr, i32 } %1, 1
  store i32 %3, ptr %ehselector.slot, align 4
  br label %ehcleanup

lpad3:                                            ; preds = %invoke.cont4, %invoke.cont
  %4 = landingpad { ptr, i32 }
          cleanup
  %5 = extractvalue { ptr, i32 } %4, 0
  store ptr %5, ptr %exn.slot, align 8
  %6 = extractvalue { ptr, i32 } %4, 1
  store i32 %6, ptr %ehselector.slot, align 4
  call void @_ZNSt7__cxx1112basic_stringIcSt11char_traitsIcESaIcEED1Ev(ptr noundef nonnull align 8 dereferenceable(32) %ref.tmp) #3
  br label %ehcleanup

ehcleanup:                                        ; preds = %lpad3, %lpad
  call void @_ZNSaIcED1Ev(ptr noundef nonnull align 1 dereferenceable(1) %ref.tmp2) #3
  %cleanup.is_active = load i1, ptr %cleanup.isactive, align 1
  br i1 %cleanup.is_active, label %cleanup.action, label %cleanup.done

cleanup.action:                                   ; preds = %ehcleanup
  call void @__cxa_free_exception(ptr %exception) #3
  br label %cleanup.done

cleanup.done:                                     ; preds = %cleanup.action, %ehcleanup
  br label %eh.resume

eh.resume:                                        ; preds = %cleanup.done
  %exn = load ptr, ptr %exn.slot, align 8
  %sel = load i32, ptr %ehselector.slot, align 4
  %lpad.val = insertvalue { ptr, i32 } poison, ptr %exn, 0
  %lpad.val6 = insertvalue { ptr, i32 } %lpad.val, i32 %sel, 1
  resume { ptr, i32 } %lpad.val6

unreachable:                                      ; preds = %invoke.cont4
  unreachable
}

declare ptr @__cxa_allocate_exception(i64)

; Function Attrs: nounwind
declare void @_ZNSaIcEC1Ev(ptr noundef nonnull align 1 dereferenceable(1)) unnamed_addr #2

; Function Attrs: mustprogress uwtable
define linkonce_odr hidden void @_ZNSt7__cxx1112basic_stringIcSt11char_traitsIcESaIcEEC2IS3_EEPKcRKS3_(ptr noundef nonnull align 8 dereferenceable(32) %this, ptr noundef %__s, ptr noundef nonnull align 1 dereferenceable(1) %__a) unnamed_addr #4 comdat align 2 personality ptr @__gxx_personality_v0 {
entry:
  %this.addr = alloca ptr, align 8
  %__s.addr = alloca ptr, align 8
  %__a.addr = alloca ptr, align 8
  %exn.slot = alloca ptr, align 8
  %ehselector.slot = alloca i32, align 4
  %__end = alloca ptr, align 8
  store ptr %this, ptr %this.addr, align 8
  store ptr %__s, ptr %__s.addr, align 8
  store ptr %__a, ptr %__a.addr, align 8
  %this1 = load ptr, ptr %this.addr, align 8
  %_M_dataplus = getelementptr inbounds %"class.std::__cxx11::basic_string", ptr %this1, i32 0, i32 0
  %call = call noundef ptr @_ZNSt7__cxx1112basic_stringIcSt11char_traitsIcESaIcEE13_M_local_dataEv(ptr noundef nonnull align 8 dereferenceable(32) %this1)
  %0 = load ptr, ptr %__a.addr, align 8
  call void @_ZNSt7__cxx1112basic_stringIcSt11char_traitsIcESaIcEE12_Alloc_hiderC1EPcRKS3_(ptr noundef nonnull align 8 dereferenceable(8) %_M_dataplus, ptr noundef %call, ptr noundef nonnull align 1 dereferenceable(1) %0)
  %1 = load ptr, ptr %__s.addr, align 8
  %cmp = icmp eq ptr %1, null
  br i1 %cmp, label %if.then, label %if.end

if.then:                                          ; preds = %entry
  invoke void @_ZSt19__throw_logic_errorPKc(ptr noundef @.str.2) #16
          to label %invoke.cont unwind label %lpad

invoke.cont:                                      ; preds = %if.then
  unreachable

lpad:                                             ; preds = %invoke.cont2, %if.end, %if.then
  %2 = landingpad { ptr, i32 }
          cleanup
  %3 = extractvalue { ptr, i32 } %2, 0
  store ptr %3, ptr %exn.slot, align 8
  %4 = extractvalue { ptr, i32 } %2, 1
  store i32 %4, ptr %ehselector.slot, align 4
  call void @_ZNSt7__cxx1112basic_stringIcSt11char_traitsIcESaIcEE12_Alloc_hiderD2Ev(ptr noundef nonnull align 8 dereferenceable(8) %_M_dataplus) #3
  br label %eh.resume

if.end:                                           ; preds = %entry
  %5 = load ptr, ptr %__s.addr, align 8
  %6 = load ptr, ptr %__s.addr, align 8
  %call3 = invoke noundef i64 @_ZNSt11char_traitsIcE6lengthEPKc(ptr noundef %6)
          to label %invoke.cont2 unwind label %lpad

invoke.cont2:                                     ; preds = %if.end
  %add.ptr = getelementptr inbounds i8, ptr %5, i64 %call3
  store ptr %add.ptr, ptr %__end, align 8
  %7 = load ptr, ptr %__s.addr, align 8
  %8 = load ptr, ptr %__end, align 8
  invoke void @_ZNSt7__cxx1112basic_stringIcSt11char_traitsIcESaIcEE12_M_constructIPKcEEvT_S8_St20forward_iterator_tag(ptr noundef nonnull align 8 dereferenceable(32) %this1, ptr noundef %7, ptr noundef %8)
          to label %invoke.cont4 unwind label %lpad

invoke.cont4:                                     ; preds = %invoke.cont2
  ret void

eh.resume:                                        ; preds = %lpad
  %exn = load ptr, ptr %exn.slot, align 8
  %sel = load i32, ptr %ehselector.slot, align 4
  %lpad.val = insertvalue { ptr, i32 } poison, ptr %exn, 0
  %lpad.val5 = insertvalue { ptr, i32 } %lpad.val, i32 %sel, 1
  resume { ptr, i32 } %lpad.val5
}

; Function Attrs: mustprogress nounwind uwtable
define linkonce_odr hidden void @_ZN17default_exceptionC2EONSt7__cxx1112basic_stringIcSt11char_traitsIcESaIcEEE(ptr noundef nonnull align 8 dereferenceable(40) %this, ptr noundef nonnull align 8 dereferenceable(32) %msg) unnamed_addr #5 comdat align 2 {
entry:
  %this.addr = alloca ptr, align 8
  %msg.addr = alloca ptr, align 8
  store ptr %this, ptr %this.addr, align 8
  store ptr %msg, ptr %msg.addr, align 8
  %this1 = load ptr, ptr %this.addr, align 8
  call void @_ZN12z3_exceptionC2Ev(ptr noundef nonnull align 8 dereferenceable(8) %this1) #3
  store ptr getelementptr inbounds ({ [6 x ptr] }, ptr @_ZTV17default_exception, i32 0, inrange i32 0, i32 2), ptr %this1, align 8
  %m_msg = getelementptr inbounds %class.default_exception, ptr %this1, i32 0, i32 1
  %0 = load ptr, ptr %msg.addr, align 8
  call void @_ZNSt7__cxx1112basic_stringIcSt11char_traitsIcESaIcEEC1EOS4_(ptr noundef nonnull align 8 dereferenceable(32) %m_msg, ptr noundef nonnull align 8 dereferenceable(32) %0) #3
  ret void
}

; Function Attrs: mustprogress nounwind uwtable
define linkonce_odr hidden void @_ZN17default_exceptionD2Ev(ptr noundef nonnull align 8 dereferenceable(40) %this) unnamed_addr #5 comdat align 2 {
entry:
  %this.addr = alloca ptr, align 8
  store ptr %this, ptr %this.addr, align 8
  %this1 = load ptr, ptr %this.addr, align 8
  store ptr getelementptr inbounds ({ [6 x ptr] }, ptr @_ZTV17default_exception, i32 0, inrange i32 0, i32 2), ptr %this1, align 8
  %m_msg = getelementptr inbounds %class.default_exception, ptr %this1, i32 0, i32 1
  call void @_ZNSt7__cxx1112basic_stringIcSt11char_traitsIcESaIcEED1Ev(ptr noundef nonnull align 8 dereferenceable(32) %m_msg) #3
  call void @_ZN12z3_exceptionD2Ev(ptr noundef nonnull align 8 dereferenceable(8) %this1) #3
  ret void
}

declare void @__cxa_throw(ptr, ptr, ptr)

; Function Attrs: nounwind
declare void @_ZNSt7__cxx1112basic_stringIcSt11char_traitsIcESaIcEED1Ev(ptr noundef nonnull align 8 dereferenceable(32)) unnamed_addr #2

; Function Attrs: nounwind
declare void @_ZNSaIcED1Ev(ptr noundef nonnull align 1 dereferenceable(1)) unnamed_addr #2

declare void @__cxa_free_exception(ptr)

declare noundef ptr @_ZNSt7__cxx1112basic_stringIcSt11char_traitsIcESaIcEE13_M_local_dataEv(ptr noundef nonnull align 8 dereferenceable(32)) #1

declare void @_ZNSt7__cxx1112basic_stringIcSt11char_traitsIcESaIcEE12_Alloc_hiderC1EPcRKS3_(ptr noundef nonnull align 8 dereferenceable(8), ptr noundef, ptr noundef nonnull align 1 dereferenceable(1)) unnamed_addr #1

; Function Attrs: noreturn
declare void @_ZSt19__throw_logic_errorPKc(ptr noundef) #8

; Function Attrs: mustprogress nounwind uwtable
define linkonce_odr hidden noundef i64 @_ZNSt11char_traitsIcE6lengthEPKc(ptr noundef %__s) #5 comdat align 2 {
entry:
  %__s.addr = alloca ptr, align 8
  store ptr %__s, ptr %__s.addr, align 8
  %0 = load ptr, ptr %__s.addr, align 8
  %call = call i64 @strlen(ptr noundef %0) #3
  ret i64 %call
}

; Function Attrs: mustprogress uwtable
define linkonce_odr void @_ZNSt7__cxx1112basic_stringIcSt11char_traitsIcESaIcEE12_M_constructIPKcEEvT_S8_St20forward_iterator_tag(ptr noundef nonnull align 8 dereferenceable(32) %this, ptr noundef %__beg, ptr noundef %__end) #4 comdat align 2 personality ptr @__gxx_personality_v0 {
entry:
  %this.addr.i = alloca ptr, align 8
  %this.addr = alloca ptr, align 8
  %__beg.addr = alloca ptr, align 8
  %__end.addr = alloca ptr, align 8
  %__dnew = alloca i64, align 8
  %__guard = alloca %struct._Guard, align 8
  %exn.slot = alloca ptr, align 8
  %ehselector.slot = alloca i32, align 4
  store ptr %this, ptr %this.addr, align 8
  store ptr %__beg, ptr %__beg.addr, align 8
  store ptr %__end, ptr %__end.addr, align 8
  %this1 = load ptr, ptr %this.addr, align 8
  %0 = load ptr, ptr %__beg.addr, align 8
  %1 = load ptr, ptr %__end.addr, align 8
  %call = call noundef i64 @_ZSt8distanceIPKcENSt15iterator_traitsIT_E15difference_typeES3_S3_(ptr noundef %0, ptr noundef %1)
  store i64 %call, ptr %__dnew, align 8
  %2 = load i64, ptr %__dnew, align 8
  %cmp = icmp ugt i64 %2, 15
  br i1 %cmp, label %if.then, label %if.else

if.then:                                          ; preds = %entry
  %call2 = call noundef ptr @_ZNSt7__cxx1112basic_stringIcSt11char_traitsIcESaIcEE9_M_createERmm(ptr noundef nonnull align 8 dereferenceable(32) %this1, ptr noundef nonnull align 8 dereferenceable(8) %__dnew, i64 noundef 0)
  call void @_ZNSt7__cxx1112basic_stringIcSt11char_traitsIcESaIcEE7_M_dataEPc(ptr noundef nonnull align 8 dereferenceable(32) %this1, ptr noundef %call2)
  %3 = load i64, ptr %__dnew, align 8
  call void @_ZNSt7__cxx1112basic_stringIcSt11char_traitsIcESaIcEE11_M_capacityEm(ptr noundef nonnull align 8 dereferenceable(32) %this1, i64 noundef %3)
  br label %if.end

if.else:                                          ; preds = %entry
  store ptr %this1, ptr %this.addr.i, align 8
  %this1.i = load ptr, ptr %this.addr.i, align 8
  %call.i = invoke noundef ptr @_ZNSt7__cxx1112basic_stringIcSt11char_traitsIcESaIcEE13_M_local_dataEv(ptr noundef nonnull align 8 dereferenceable(32) %this1.i)
          to label %_ZNSt7__cxx1112basic_stringIcSt11char_traitsIcESaIcEE17_M_use_local_dataEv.exit unwind label %terminate.lpad.i

terminate.lpad.i:                                 ; preds = %if.else
  %4 = landingpad { ptr, i32 }
          catch ptr null
  %5 = extractvalue { ptr, i32 } %4, 0
  call void @__clang_call_terminate(ptr %5) #14
  unreachable

_ZNSt7__cxx1112basic_stringIcSt11char_traitsIcESaIcEE17_M_use_local_dataEv.exit: ; preds = %if.else
  br label %if.end

if.end:                                           ; preds = %_ZNSt7__cxx1112basic_stringIcSt11char_traitsIcESaIcEE17_M_use_local_dataEv.exit, %if.then
  call void @_ZZNSt7__cxx1112basic_stringIcSt11char_traitsIcESaIcEE12_M_constructIPKcEEvT_S8_St20forward_iterator_tagEN6_GuardC2EPS4_(ptr noundef nonnull align 8 dereferenceable(8) %__guard, ptr noundef %this1)
  %call4 = invoke noundef ptr @_ZNKSt7__cxx1112basic_stringIcSt11char_traitsIcESaIcEE7_M_dataEv(ptr noundef nonnull align 8 dereferenceable(32) %this1)
          to label %invoke.cont unwind label %lpad

invoke.cont:                                      ; preds = %if.end
  %6 = load ptr, ptr %__beg.addr, align 8
  %7 = load ptr, ptr %__end.addr, align 8
  call void @_ZNSt7__cxx1112basic_stringIcSt11char_traitsIcESaIcEE13_S_copy_charsEPcPKcS7_(ptr noundef %call4, ptr noundef %6, ptr noundef %7) #3
  %_M_guarded = getelementptr inbounds %struct._Guard, ptr %__guard, i32 0, i32 0
  store ptr null, ptr %_M_guarded, align 8
  %8 = load i64, ptr %__dnew, align 8
  invoke void @_ZNSt7__cxx1112basic_stringIcSt11char_traitsIcESaIcEE13_M_set_lengthEm(ptr noundef nonnull align 8 dereferenceable(32) %this1, i64 noundef %8)
          to label %invoke.cont5 unwind label %lpad

invoke.cont5:                                     ; preds = %invoke.cont
  call void @_ZZNSt7__cxx1112basic_stringIcSt11char_traitsIcESaIcEE12_M_constructIPKcEEvT_S8_St20forward_iterator_tagEN6_GuardD2Ev(ptr noundef nonnull align 8 dereferenceable(8) %__guard) #3
  ret void

lpad:                                             ; preds = %invoke.cont, %if.end
  %9 = landingpad { ptr, i32 }
          cleanup
  %10 = extractvalue { ptr, i32 } %9, 0
  store ptr %10, ptr %exn.slot, align 8
  %11 = extractvalue { ptr, i32 } %9, 1
  store i32 %11, ptr %ehselector.slot, align 4
  call void @_ZZNSt7__cxx1112basic_stringIcSt11char_traitsIcESaIcEE12_M_constructIPKcEEvT_S8_St20forward_iterator_tagEN6_GuardD2Ev(ptr noundef nonnull align 8 dereferenceable(8) %__guard) #3
  br label %eh.resume

eh.resume:                                        ; preds = %lpad
  %exn = load ptr, ptr %exn.slot, align 8
  %sel = load i32, ptr %ehselector.slot, align 4
  %lpad.val = insertvalue { ptr, i32 } poison, ptr %exn, 0
  %lpad.val6 = insertvalue { ptr, i32 } %lpad.val, i32 %sel, 1
  resume { ptr, i32 } %lpad.val6
}

; Function Attrs: mustprogress nounwind uwtable
define linkonce_odr hidden void @_ZNSt7__cxx1112basic_stringIcSt11char_traitsIcESaIcEE12_Alloc_hiderD2Ev(ptr noundef nonnull align 8 dereferenceable(8) %this) unnamed_addr #5 comdat align 2 {
entry:
  %this.addr = alloca ptr, align 8
  store ptr %this, ptr %this.addr, align 8
  %this1 = load ptr, ptr %this.addr, align 8
  call void @_ZNSaIcED2Ev(ptr noundef nonnull align 1 dereferenceable(1) %this1) #3
  ret void
}

; Function Attrs: nounwind
declare i64 @strlen(ptr noundef) #2

; Function Attrs: mustprogress uwtable
define linkonce_odr noundef i64 @_ZSt8distanceIPKcENSt15iterator_traitsIT_E15difference_typeES3_S3_(ptr noundef %__first, ptr noundef %__last) #4 comdat {
entry:
  %__first.addr = alloca ptr, align 8
  %__last.addr = alloca ptr, align 8
  store ptr %__first, ptr %__first.addr, align 8
  store ptr %__last, ptr %__last.addr, align 8
  %0 = load ptr, ptr %__first.addr, align 8
  %1 = load ptr, ptr %__last.addr, align 8
  call void @_ZSt19__iterator_categoryIPKcENSt15iterator_traitsIT_E17iterator_categoryERKS3_(ptr noundef nonnull align 8 dereferenceable(8) %__first.addr)
  %call = call noundef i64 @_ZSt10__distanceIPKcENSt15iterator_traitsIT_E15difference_typeES3_S3_St26random_access_iterator_tag(ptr noundef %0, ptr noundef %1)
  ret i64 %call
}

declare void @_ZNSt7__cxx1112basic_stringIcSt11char_traitsIcESaIcEE7_M_dataEPc(ptr noundef nonnull align 8 dereferenceable(32), ptr noundef) #1

declare noundef ptr @_ZNSt7__cxx1112basic_stringIcSt11char_traitsIcESaIcEE9_M_createERmm(ptr noundef nonnull align 8 dereferenceable(32), ptr noundef nonnull align 8 dereferenceable(8), i64 noundef) #1

declare void @_ZNSt7__cxx1112basic_stringIcSt11char_traitsIcESaIcEE11_M_capacityEm(ptr noundef nonnull align 8 dereferenceable(32), i64 noundef) #1

; Function Attrs: mustprogress nounwind uwtable
define linkonce_odr hidden void @_ZZNSt7__cxx1112basic_stringIcSt11char_traitsIcESaIcEE12_M_constructIPKcEEvT_S8_St20forward_iterator_tagEN6_GuardC2EPS4_(ptr noundef nonnull align 8 dereferenceable(8) %this, ptr noundef %__s) unnamed_addr #5 comdat align 2 {
entry:
  %this.addr = alloca ptr, align 8
  %__s.addr = alloca ptr, align 8
  store ptr %this, ptr %this.addr, align 8
  store ptr %__s, ptr %__s.addr, align 8
  %this1 = load ptr, ptr %this.addr, align 8
  %_M_guarded = getelementptr inbounds %struct._Guard, ptr %this1, i32 0, i32 0
  %0 = load ptr, ptr %__s.addr, align 8
  store ptr %0, ptr %_M_guarded, align 8
  ret void
}

; Function Attrs: nounwind
declare void @_ZNSt7__cxx1112basic_stringIcSt11char_traitsIcESaIcEE13_S_copy_charsEPcPKcS7_(ptr noundef, ptr noundef, ptr noundef) #2

declare noundef ptr @_ZNKSt7__cxx1112basic_stringIcSt11char_traitsIcESaIcEE7_M_dataEv(ptr noundef nonnull align 8 dereferenceable(32)) #1

declare void @_ZNSt7__cxx1112basic_stringIcSt11char_traitsIcESaIcEE13_M_set_lengthEm(ptr noundef nonnull align 8 dereferenceable(32), i64 noundef) #1

; Function Attrs: mustprogress nounwind uwtable
define linkonce_odr hidden void @_ZZNSt7__cxx1112basic_stringIcSt11char_traitsIcESaIcEE12_M_constructIPKcEEvT_S8_St20forward_iterator_tagEN6_GuardD2Ev(ptr noundef nonnull align 8 dereferenceable(8) %this) unnamed_addr #5 comdat align 2 personality ptr @__gxx_personality_v0 {
entry:
  %this.addr = alloca ptr, align 8
  store ptr %this, ptr %this.addr, align 8
  %this1 = load ptr, ptr %this.addr, align 8
  %_M_guarded = getelementptr inbounds %struct._Guard, ptr %this1, i32 0, i32 0
  %0 = load ptr, ptr %_M_guarded, align 8
  %tobool = icmp ne ptr %0, null
  br i1 %tobool, label %if.then, label %if.end

if.then:                                          ; preds = %entry
  %_M_guarded2 = getelementptr inbounds %struct._Guard, ptr %this1, i32 0, i32 0
  %1 = load ptr, ptr %_M_guarded2, align 8
  invoke void @_ZNSt7__cxx1112basic_stringIcSt11char_traitsIcESaIcEE10_M_disposeEv(ptr noundef nonnull align 8 dereferenceable(32) %1)
          to label %invoke.cont unwind label %terminate.lpad

invoke.cont:                                      ; preds = %if.then
  br label %if.end

if.end:                                           ; preds = %invoke.cont, %entry
  ret void

terminate.lpad:                                   ; preds = %if.then
  %2 = landingpad { ptr, i32 }
          catch ptr null
  %3 = extractvalue { ptr, i32 } %2, 0
  call void @__clang_call_terminate(ptr %3) #14
  unreachable
}

; Function Attrs: mustprogress nounwind uwtable
define linkonce_odr noundef i64 @_ZSt10__distanceIPKcENSt15iterator_traitsIT_E15difference_typeES3_S3_St26random_access_iterator_tag(ptr noundef %__first, ptr noundef %__last) #5 comdat {
entry:
  %__first.addr = alloca ptr, align 8
  %__last.addr = alloca ptr, align 8
  store ptr %__first, ptr %__first.addr, align 8
  store ptr %__last, ptr %__last.addr, align 8
  %0 = load ptr, ptr %__last.addr, align 8
  %1 = load ptr, ptr %__first.addr, align 8
  %sub.ptr.lhs.cast = ptrtoint ptr %0 to i64
  %sub.ptr.rhs.cast = ptrtoint ptr %1 to i64
  %sub.ptr.sub = sub i64 %sub.ptr.lhs.cast, %sub.ptr.rhs.cast
  ret i64 %sub.ptr.sub
}

; Function Attrs: mustprogress nounwind uwtable
define linkonce_odr void @_ZSt19__iterator_categoryIPKcENSt15iterator_traitsIT_E17iterator_categoryERKS3_(ptr noundef nonnull align 8 dereferenceable(8) %0) #5 comdat {
entry:
  %.addr = alloca ptr, align 8
  store ptr %0, ptr %.addr, align 8
  ret void
}

declare void @_ZNSt7__cxx1112basic_stringIcSt11char_traitsIcESaIcEE10_M_disposeEv(ptr noundef nonnull align 8 dereferenceable(32)) #1

; Function Attrs: nounwind
declare void @_ZNSaIcED2Ev(ptr noundef nonnull align 1 dereferenceable(1)) unnamed_addr #2

; Function Attrs: mustprogress nounwind uwtable
define linkonce_odr hidden void @_ZN12z3_exceptionC2Ev(ptr noundef nonnull align 8 dereferenceable(8) %this) unnamed_addr #5 comdat align 2 {
entry:
  %this.addr = alloca ptr, align 8
  store ptr %this, ptr %this.addr, align 8
  %this1 = load ptr, ptr %this.addr, align 8
  store ptr getelementptr inbounds ({ [6 x ptr] }, ptr @_ZTV12z3_exception, i32 0, inrange i32 0, i32 2), ptr %this1, align 8
  ret void
}

; Function Attrs: nounwind
declare void @_ZNSt7__cxx1112basic_stringIcSt11char_traitsIcESaIcEEC1EOS4_(ptr noundef nonnull align 8 dereferenceable(32), ptr noundef nonnull align 8 dereferenceable(32)) unnamed_addr #2

; Function Attrs: mustprogress nounwind uwtable
define linkonce_odr hidden void @_ZN12z3_exceptionD2Ev(ptr noundef nonnull align 8 dereferenceable(8) %this) unnamed_addr #5 comdat align 2 {
entry:
  %this.addr = alloca ptr, align 8
  store ptr %this, ptr %this.addr, align 8
  ret void
}

; Function Attrs: cold noreturn nounwind memory(inaccessiblemem: write)
declare void @llvm.trap() #9

declare void @_ZN7bv_utilC1ER11ast_manager(ptr noundef nonnull align 8 dereferenceable(24), ptr noundef nonnull align 8 dereferenceable(976)) unnamed_addr #1

declare void @_ZN10array_utilC1ER11ast_manager(ptr noundef nonnull align 8 dereferenceable(16), ptr noundef nonnull align 8 dereferenceable(976)) unnamed_addr #1

; Function Attrs: mustprogress nounwind uwtable
define linkonce_odr hidden void @_ZN15ref_vector_coreI4expr19ref_manager_wrapperIS0_11ast_managerEED2Ev(ptr noundef nonnull align 8 dereferenceable(16) %this) unnamed_addr #5 comdat align 2 personality ptr @__gxx_personality_v0 {
entry:
  %this.addr = alloca ptr, align 8
  store ptr %this, ptr %this.addr, align 8
  %this1 = load ptr, ptr %this.addr, align 8
  %m_nodes = getelementptr inbounds %class.ref_vector_core, ptr %this1, i32 0, i32 1
  %call = invoke noundef ptr @_ZNK6vectorIP4exprLb0EjE4dataEv(ptr noundef nonnull align 8 dereferenceable(8) %m_nodes)
          to label %invoke.cont unwind label %terminate.lpad

invoke.cont:                                      ; preds = %entry
  %m_nodes2 = getelementptr inbounds %class.ref_vector_core, ptr %this1, i32 0, i32 1
  %call4 = invoke noundef ptr @_ZNK6vectorIP4exprLb0EjE4dataEv(ptr noundef nonnull align 8 dereferenceable(8) %m_nodes2)
          to label %invoke.cont3 unwind label %terminate.lpad

invoke.cont3:                                     ; preds = %invoke.cont
  %m_nodes5 = getelementptr inbounds %class.ref_vector_core, ptr %this1, i32 0, i32 1
  %call7 = invoke noundef i32 @_ZNK6vectorIP4exprLb0EjE4sizeEv(ptr noundef nonnull align 8 dereferenceable(8) %m_nodes5)
          to label %invoke.cont6 unwind label %terminate.lpad

invoke.cont6:                                     ; preds = %invoke.cont3
  %idx.ext = zext i32 %call7 to i64
  %add.ptr = getelementptr inbounds ptr, ptr %call4, i64 %idx.ext
  invoke void @_ZN15ref_vector_coreI4expr19ref_manager_wrapperIS0_11ast_managerEE13dec_range_refEPKPS0_S7_(ptr noundef nonnull align 8 dereferenceable(16) %this1, ptr noundef %call, ptr noundef %add.ptr)
          to label %invoke.cont8 unwind label %terminate.lpad

invoke.cont8:                                     ; preds = %invoke.cont6
  %m_nodes9 = getelementptr inbounds %class.ref_vector_core, ptr %this1, i32 0, i32 1
  call void @_ZN10ptr_vectorI4exprED2Ev(ptr noundef nonnull align 8 dereferenceable(8) %m_nodes9) #3
  ret void

terminate.lpad:                                   ; preds = %invoke.cont6, %invoke.cont3, %invoke.cont, %entry
  %0 = landingpad { ptr, i32 }
          catch ptr null
  %1 = extractvalue { ptr, i32 } %0, 0
  call void @__clang_call_terminate(ptr %1) #14
  unreachable
}

; Function Attrs: mustprogress uwtable
define linkonce_odr hidden void @_ZN15ref_vector_coreI4expr19ref_manager_wrapperIS0_11ast_managerEE13dec_range_refEPKPS0_S7_(ptr noundef nonnull align 8 dereferenceable(16) %this, ptr noundef %begin, ptr noundef %end) #4 comdat align 2 {
entry:
  %this.addr = alloca ptr, align 8
  %begin.addr = alloca ptr, align 8
  %end.addr = alloca ptr, align 8
  %it = alloca ptr, align 8
  store ptr %this, ptr %this.addr, align 8
  store ptr %begin, ptr %begin.addr, align 8
  store ptr %end, ptr %end.addr, align 8
  %this1 = load ptr, ptr %this.addr, align 8
  %0 = load ptr, ptr %begin.addr, align 8
  store ptr %0, ptr %it, align 8
  br label %for.cond

for.cond:                                         ; preds = %for.inc, %entry
  %1 = load ptr, ptr %it, align 8
  %2 = load ptr, ptr %end.addr, align 8
  %cmp = icmp ult ptr %1, %2
  br i1 %cmp, label %for.body, label %for.end

for.body:                                         ; preds = %for.cond
  %3 = load ptr, ptr %it, align 8
  %4 = load ptr, ptr %3, align 8
  call void @_ZN15ref_vector_coreI4expr19ref_manager_wrapperIS0_11ast_managerEE7dec_refEPS0_(ptr noundef nonnull align 8 dereferenceable(16) %this1, ptr noundef %4)
  br label %for.inc

for.inc:                                          ; preds = %for.body
  %5 = load ptr, ptr %it, align 8
  %incdec.ptr = getelementptr inbounds ptr, ptr %5, i32 1
  store ptr %incdec.ptr, ptr %it, align 8
  br label %for.cond, !llvm.loop !7

for.end:                                          ; preds = %for.cond
  ret void
}

; Function Attrs: mustprogress nounwind uwtable
define linkonce_odr hidden noundef ptr @_ZNK6vectorIP4exprLb0EjE4dataEv(ptr noundef nonnull align 8 dereferenceable(8) %this) #5 comdat align 2 {
entry:
  %this.addr = alloca ptr, align 8
  store ptr %this, ptr %this.addr, align 8
  %this1 = load ptr, ptr %this.addr, align 8
  %m_data = getelementptr inbounds %class.vector.27, ptr %this1, i32 0, i32 0
  %0 = load ptr, ptr %m_data, align 8
  ret ptr %0
}

; Function Attrs: mustprogress nounwind uwtable
define linkonce_odr hidden noundef i32 @_ZNK6vectorIP4exprLb0EjE4sizeEv(ptr noundef nonnull align 8 dereferenceable(8) %this) #5 comdat align 2 {
entry:
  %retval = alloca i32, align 4
  %this.addr = alloca ptr, align 8
  store ptr %this, ptr %this.addr, align 8
  %this1 = load ptr, ptr %this.addr, align 8
  %m_data = getelementptr inbounds %class.vector.27, ptr %this1, i32 0, i32 0
  %0 = load ptr, ptr %m_data, align 8
  %cmp = icmp eq ptr %0, null
  br i1 %cmp, label %if.then, label %if.end

if.then:                                          ; preds = %entry
  store i32 0, ptr %retval, align 4
  br label %return

if.end:                                           ; preds = %entry
  %m_data2 = getelementptr inbounds %class.vector.27, ptr %this1, i32 0, i32 0
  %1 = load ptr, ptr %m_data2, align 8
  %arrayidx = getelementptr inbounds i32, ptr %1, i64 -1
  %2 = load i32, ptr %arrayidx, align 4
  store i32 %2, ptr %retval, align 4
  br label %return

return:                                           ; preds = %if.end, %if.then
  %3 = load i32, ptr %retval, align 4
  ret i32 %3
}

; Function Attrs: mustprogress nounwind uwtable
define linkonce_odr hidden void @_ZN10ptr_vectorI4exprED2Ev(ptr noundef nonnull align 8 dereferenceable(8) %this) unnamed_addr #5 comdat align 2 {
entry:
  %this.addr = alloca ptr, align 8
  store ptr %this, ptr %this.addr, align 8
  %this1 = load ptr, ptr %this.addr, align 8
  call void @_ZN6vectorIP4exprLb0EjED2Ev(ptr noundef nonnull align 8 dereferenceable(8) %this1) #3
  ret void
}

; Function Attrs: mustprogress uwtable
define linkonce_odr hidden void @_ZN15ref_vector_coreI4expr19ref_manager_wrapperIS0_11ast_managerEE7dec_refEPS0_(ptr noundef nonnull align 8 dereferenceable(16) %this, ptr noundef %o) #4 comdat align 2 {
entry:
  %this.addr = alloca ptr, align 8
  %o.addr = alloca ptr, align 8
  store ptr %this, ptr %this.addr, align 8
  store ptr %o, ptr %o.addr, align 8
  %this1 = load ptr, ptr %this.addr, align 8
  %0 = load ptr, ptr %o.addr, align 8
  call void @_ZN19ref_manager_wrapperI4expr11ast_managerE7dec_refEPS0_(ptr noundef nonnull align 8 dereferenceable(8) %this1, ptr noundef %0)
  ret void
}

; Function Attrs: mustprogress uwtable
define linkonce_odr hidden void @_ZN19ref_manager_wrapperI4expr11ast_managerE7dec_refEPS0_(ptr noundef nonnull align 8 dereferenceable(8) %this, ptr noundef %n) #4 comdat align 2 {
entry:
  %this.addr = alloca ptr, align 8
  %n.addr = alloca ptr, align 8
  store ptr %this, ptr %this.addr, align 8
  store ptr %n, ptr %n.addr, align 8
  %this1 = load ptr, ptr %this.addr, align 8
  %m_manager = getelementptr inbounds %class.ref_manager_wrapper, ptr %this1, i32 0, i32 0
  %0 = load ptr, ptr %m_manager, align 8
  %1 = load ptr, ptr %n.addr, align 8
  call void @_ZN11ast_manager7dec_refEP3ast(ptr noundef nonnull align 8 dereferenceable(976) %0, ptr noundef %1)
  ret void
}

; Function Attrs: mustprogress uwtable
define linkonce_odr hidden void @_ZN11ast_manager7dec_refEP3ast(ptr noundef nonnull align 8 dereferenceable(976) %this, ptr noundef %n) #4 comdat align 2 {
entry:
  %this.addr = alloca ptr, align 8
  %n.addr = alloca ptr, align 8
  store ptr %this, ptr %this.addr, align 8
  store ptr %n, ptr %n.addr, align 8
  %this1 = load ptr, ptr %this.addr, align 8
  %0 = load ptr, ptr %n.addr, align 8
  %tobool = icmp ne ptr %0, null
  br i1 %tobool, label %if.then, label %if.end3

if.then:                                          ; preds = %entry
  %1 = load ptr, ptr %n.addr, align 8
  call void @_ZN3ast7dec_refEv(ptr noundef nonnull align 4 dereferenceable(16) %1)
  %2 = load ptr, ptr %n.addr, align 8
  %call = call noundef i32 @_ZNK3ast13get_ref_countEv(ptr noundef nonnull align 4 dereferenceable(16) %2)
  %cmp = icmp eq i32 %call, 0
  br i1 %cmp, label %if.then2, label %if.end

if.then2:                                         ; preds = %if.then
  %3 = load ptr, ptr %n.addr, align 8
  call void @_ZN11ast_manager11delete_nodeEP3ast(ptr noundef nonnull align 8 dereferenceable(976) %this1, ptr noundef %3)
  br label %if.end

if.end:                                           ; preds = %if.then2, %if.then
  br label %if.end3

if.end3:                                          ; preds = %if.end, %entry
  ret void
}

; Function Attrs: mustprogress nounwind uwtable
define linkonce_odr hidden void @_ZN3ast7dec_refEv(ptr noundef nonnull align 4 dereferenceable(16) %this) #5 comdat align 2 {
entry:
  %this.addr = alloca ptr, align 8
  store ptr %this, ptr %this.addr, align 8
  %this1 = load ptr, ptr %this.addr, align 8
  %m_ref_count = getelementptr inbounds %class.ast, ptr %this1, i32 0, i32 2
  %0 = load i32, ptr %m_ref_count, align 4
  %dec = add i32 %0, -1
  store i32 %dec, ptr %m_ref_count, align 4
  ret void
}

; Function Attrs: mustprogress nounwind uwtable
define linkonce_odr hidden noundef i32 @_ZNK3ast13get_ref_countEv(ptr noundef nonnull align 4 dereferenceable(16) %this) #5 comdat align 2 {
entry:
  %this.addr = alloca ptr, align 8
  store ptr %this, ptr %this.addr, align 8
  %this1 = load ptr, ptr %this.addr, align 8
  %m_ref_count = getelementptr inbounds %class.ast, ptr %this1, i32 0, i32 2
  %0 = load i32, ptr %m_ref_count, align 4
  ret i32 %0
}

declare void @_ZN11ast_manager11delete_nodeEP3ast(ptr noundef nonnull align 8 dereferenceable(976), ptr noundef) #1

; Function Attrs: mustprogress nounwind uwtable
define linkonce_odr hidden void @_ZN6vectorIP4exprLb0EjED2Ev(ptr noundef nonnull align 8 dereferenceable(8) %this) unnamed_addr #5 comdat align 2 personality ptr @__gxx_personality_v0 {
entry:
  %this.addr = alloca ptr, align 8
  store ptr %this, ptr %this.addr, align 8
  %this1 = load ptr, ptr %this.addr, align 8
  invoke void @_ZN6vectorIP4exprLb0EjE7destroyEv(ptr noundef nonnull align 8 dereferenceable(8) %this1)
          to label %invoke.cont unwind label %terminate.lpad

invoke.cont:                                      ; preds = %entry
  ret void

terminate.lpad:                                   ; preds = %entry
  %0 = landingpad { ptr, i32 }
          catch ptr null
  %1 = extractvalue { ptr, i32 } %0, 0
  call void @__clang_call_terminate(ptr %1) #14
  unreachable
}

; Function Attrs: mustprogress uwtable
define linkonce_odr hidden void @_ZN6vectorIP4exprLb0EjE7destroyEv(ptr noundef nonnull align 8 dereferenceable(8) %this) #4 comdat align 2 {
entry:
  %this.addr = alloca ptr, align 8
  store ptr %this, ptr %this.addr, align 8
  %this1 = load ptr, ptr %this.addr, align 8
  %m_data = getelementptr inbounds %class.vector.27, ptr %this1, i32 0, i32 0
  %0 = load ptr, ptr %m_data, align 8
  %tobool = icmp ne ptr %0, null
  br i1 %tobool, label %if.then, label %if.end

if.then:                                          ; preds = %entry
  call void @_ZN6vectorIP4exprLb0EjE11free_memoryEv(ptr noundef nonnull align 8 dereferenceable(8) %this1)
  br label %if.end

if.end:                                           ; preds = %if.then, %entry
  ret void
}

; Function Attrs: mustprogress uwtable
define linkonce_odr hidden void @_ZN6vectorIP4exprLb0EjE11free_memoryEv(ptr noundef nonnull align 8 dereferenceable(8) %this) #4 comdat align 2 {
entry:
  %this.addr = alloca ptr, align 8
  store ptr %this, ptr %this.addr, align 8
  %this1 = load ptr, ptr %this.addr, align 8
  %m_data = getelementptr inbounds %class.vector.27, ptr %this1, i32 0, i32 0
  %0 = load ptr, ptr %m_data, align 8
  %add.ptr = getelementptr inbounds i32, ptr %0, i64 -2
  call void @_ZN6memory10deallocateEPv(ptr noundef %add.ptr)
  ret void
}

declare void @_ZN6memory10deallocateEPv(ptr noundef) #1

; Function Attrs: mustprogress nounwind uwtable
define linkonce_odr hidden noundef zeroext i1 @_ZNK4goal12inconsistentEv(ptr noundef nonnull align 8 dereferenceable(124) %this) #5 comdat align 2 {
entry:
  %this.addr = alloca ptr, align 8
  store ptr %this, ptr %this.addr, align 8
  %this1 = load ptr, ptr %this.addr, align 8
  %m_inconsistent = getelementptr inbounds %class.goal, ptr %this1, i32 0, i32 10
  %bf.load = load i32, ptr %m_inconsistent, align 8
  %bf.lshr = lshr i32 %bf.load, 29
  %bf.clear = and i32 %bf.lshr, 1
  %tobool = icmp ne i32 %bf.clear, 0
  ret i1 %tobool
}

declare void @_ZN13tactic_reportC1EPKcRK4goal(ptr noundef nonnull align 8 dereferenceable(8), ptr noundef, ptr noundef nonnull align 8 dereferenceable(124)) unnamed_addr #1

; Function Attrs: mustprogress uwtable
define linkonce_odr hidden void @_ZN13obj_hashtableI9func_declEC2Ej(ptr noundef nonnull align 8 dereferenceable(20) %this, i32 noundef %initial_capacity) unnamed_addr #4 comdat align 2 {
entry:
  %this.addr = alloca ptr, align 8
  %initial_capacity.addr = alloca i32, align 4
  %ref.tmp = alloca %struct.obj_ptr_hash.32, align 1
  %ref.tmp2 = alloca %struct.ptr_eq, align 1
  store ptr %this, ptr %this.addr, align 8
  store i32 %initial_capacity, ptr %initial_capacity.addr, align 4
  %this1 = load ptr, ptr %this.addr, align 8
  %0 = load i32, ptr %initial_capacity.addr, align 4
  call void @_ZN14core_hashtableI14obj_hash_entryI9func_declE12obj_ptr_hashIS1_E6ptr_eqIS1_EEC2EjRKS4_RKS6_(ptr noundef nonnull align 8 dereferenceable(20) %this1, i32 noundef %0, ptr noundef nonnull align 1 dereferenceable(1) %ref.tmp, ptr noundef nonnull align 1 dereferenceable(1) %ref.tmp2)
  ret void
}

; Function Attrs: mustprogress uwtable
define linkonce_odr hidden void @_ZN7obj_mapI9func_decl10bit_vectorEC2Ev(ptr noundef nonnull align 8 dereferenceable(24) %this) unnamed_addr #4 comdat align 2 {
entry:
  %this.addr = alloca ptr, align 8
  %ref.tmp = alloca %struct.obj_hash.36, align 1
  %ref.tmp2 = alloca %struct.default_eq.37, align 1
  store ptr %this, ptr %this.addr, align 8
  %this1 = load ptr, ptr %this.addr, align 8
  %m_table = getelementptr inbounds %class.obj_map.34, ptr %this1, i32 0, i32 0
  call void @_ZN14core_hashtableIN7obj_mapI9func_decl10bit_vectorE13obj_map_entryE8obj_hashINS3_8key_dataEE10default_eqIS6_EEC2EjRKS7_RKS9_(ptr noundef nonnull align 8 dereferenceable(20) %m_table, i32 noundef 8, ptr noundef nonnull align 1 dereferenceable(1) %ref.tmp, ptr noundef nonnull align 1 dereferenceable(1) %ref.tmp2)
  ret void
}

; Function Attrs: mustprogress uwtable
define linkonce_odr hidden void @_ZN18reduce_args_tactic3imp19find_non_candidatesERK4goalR13obj_hashtableI9func_declE(ptr noundef nonnull align 8 dereferenceable(64) %this, ptr noundef nonnull align 8 dereferenceable(124) %g, ptr noundef nonnull align 8 dereferenceable(20) %non_candidates) #4 comdat align 2 personality ptr @__gxx_personality_v0 {
entry:
  %this.addr = alloca ptr, align 8
  %g.addr = alloca ptr, align 8
  %non_candidates.addr = alloca ptr, align 8
  %__range1 = alloca ptr, align 8
  %__begin1 = alloca ptr, align 8
  %__end1 = alloca ptr, align 8
  %v = alloca ptr, align 8
  %ref.tmp = alloca ptr, align 8
  %proc = alloca %"struct.reduce_args_tactic::imp::find_non_candidates_proc", align 8
  %visited = alloca %class.ast_fast_mark, align 8
  %sz = alloca i32, align 4
  %exn.slot = alloca ptr, align 8
  %ehselector.slot = alloca i32, align 4
  %i = alloca i32, align 4
  store ptr %this, ptr %this.addr, align 8
  store ptr %g, ptr %g.addr, align 8
  store ptr %non_candidates, ptr %non_candidates.addr, align 8
  %this1 = load ptr, ptr %this.addr, align 8
  %0 = load ptr, ptr %non_candidates.addr, align 8
  call void @_ZN14core_hashtableI14obj_hash_entryI9func_declE12obj_ptr_hashIS1_E6ptr_eqIS1_EE5resetEv(ptr noundef nonnull align 8 dereferenceable(20) %0)
  %m_vars = getelementptr inbounds %"struct.reduce_args_tactic::imp", ptr %this1, i32 0, i32 0
  store ptr %m_vars, ptr %__range1, align 8
  %1 = load ptr, ptr %__range1, align 8
  %call = call noundef ptr @_ZNK15ref_vector_coreI4expr19ref_manager_wrapperIS0_11ast_managerEE5beginEv(ptr noundef nonnull align 8 dereferenceable(16) %1)
  store ptr %call, ptr %__begin1, align 8
  %2 = load ptr, ptr %__range1, align 8
  %call2 = call noundef ptr @_ZNK15ref_vector_coreI4expr19ref_manager_wrapperIS0_11ast_managerEE3endEv(ptr noundef nonnull align 8 dereferenceable(16) %2)
  store ptr %call2, ptr %__end1, align 8
  br label %for.cond

for.cond:                                         ; preds = %for.inc, %entry
  %3 = load ptr, ptr %__begin1, align 8
  %4 = load ptr, ptr %__end1, align 8
  %cmp = icmp ne ptr %3, %4
  br i1 %cmp, label %for.body, label %for.end

for.body:                                         ; preds = %for.cond
  %5 = load ptr, ptr %__begin1, align 8
  %6 = load ptr, ptr %5, align 8
  store ptr %6, ptr %v, align 8
  %7 = load ptr, ptr %v, align 8
  %call3 = call noundef zeroext i1 @_Z6is_appPK3ast(ptr noundef %7)
  br i1 %call3, label %if.then, label %if.end

if.then:                                          ; preds = %for.body
  %8 = load ptr, ptr %non_candidates.addr, align 8
  %9 = load ptr, ptr %v, align 8
  %call4 = call noundef ptr @_Z6to_appP3ast(ptr noundef %9)
  %call5 = call noundef ptr @_ZNK3app8get_declEv(ptr noundef nonnull align 8 dereferenceable(32) %call4)
  store ptr %call5, ptr %ref.tmp, align 8
  call void @_ZN14core_hashtableI14obj_hash_entryI9func_declE12obj_ptr_hashIS1_E6ptr_eqIS1_EE6insertEOPS1_(ptr noundef nonnull align 8 dereferenceable(20) %8, ptr noundef nonnull align 8 dereferenceable(8) %ref.tmp)
  br label %if.end

if.end:                                           ; preds = %if.then, %for.body
  br label %for.inc

for.inc:                                          ; preds = %if.end
  %10 = load ptr, ptr %__begin1, align 8
  %incdec.ptr = getelementptr inbounds ptr, ptr %10, i32 1
  store ptr %incdec.ptr, ptr %__begin1, align 8
  br label %for.cond

for.end:                                          ; preds = %for.cond
  %m = getelementptr inbounds %"struct.reduce_args_tactic::imp", ptr %this1, i32 0, i32 1
  %11 = load ptr, ptr %m, align 8
  %m_bv = getelementptr inbounds %"struct.reduce_args_tactic::imp", ptr %this1, i32 0, i32 2
  %m_ar = getelementptr inbounds %"struct.reduce_args_tactic::imp", ptr %this1, i32 0, i32 3
  %12 = load ptr, ptr %non_candidates.addr, align 8
  call void @_ZN18reduce_args_tactic3imp24find_non_candidates_procC2ER11ast_managerR7bv_utilR10array_utilR13obj_hashtableI9func_declE(ptr noundef nonnull align 8 dereferenceable(32) %proc, ptr noundef nonnull align 8 dereferenceable(976) %11, ptr noundef nonnull align 8 dereferenceable(24) %m_bv, ptr noundef nonnull align 8 dereferenceable(16) %m_ar, ptr noundef nonnull align 8 dereferenceable(20) %12)
  call void @_ZN13ast_fast_markILj1EEC2Ev(ptr noundef nonnull align 8 dereferenceable(144) %visited) #3
  %13 = load ptr, ptr %g.addr, align 8
  %call6 = invoke noundef i32 @_ZNK4goal4sizeEv(ptr noundef nonnull align 8 dereferenceable(124) %13)
          to label %invoke.cont unwind label %lpad

invoke.cont:                                      ; preds = %for.end
  store i32 %call6, ptr %sz, align 4
  store i32 0, ptr %i, align 4
  br label %for.cond7

for.cond7:                                        ; preds = %for.inc14, %invoke.cont
  %14 = load i32, ptr %i, align 4
  %15 = load i32, ptr %sz, align 4
  %cmp8 = icmp ult i32 %14, %15
  br i1 %cmp8, label %for.body9, label %for.end15

for.body9:                                        ; preds = %for.cond7
  invoke void @_ZN18reduce_args_tactic3imp10checkpointEv(ptr noundef nonnull align 8 dereferenceable(64) %this1)
          to label %invoke.cont10 unwind label %lpad

invoke.cont10:                                    ; preds = %for.body9
  %16 = load ptr, ptr %g.addr, align 8
  %17 = load i32, ptr %i, align 4
  %call12 = invoke noundef ptr @_ZNK4goal4formEj(ptr noundef nonnull align 8 dereferenceable(124) %16, i32 noundef %17)
          to label %invoke.cont11 unwind label %lpad

invoke.cont11:                                    ; preds = %invoke.cont10
  invoke void @_Z19quick_for_each_exprIN18reduce_args_tactic3imp24find_non_candidates_procEEvRT_R13ast_fast_markILj1EEP4expr(ptr noundef nonnull align 8 dereferenceable(32) %proc, ptr noundef nonnull align 8 dereferenceable(144) %visited, ptr noundef %call12)
          to label %invoke.cont13 unwind label %lpad

invoke.cont13:                                    ; preds = %invoke.cont11
  br label %for.inc14

for.inc14:                                        ; preds = %invoke.cont13
  %18 = load i32, ptr %i, align 4
  %inc = add i32 %18, 1
  store i32 %inc, ptr %i, align 4
  br label %for.cond7, !llvm.loop !8

lpad:                                             ; preds = %invoke.cont11, %invoke.cont10, %for.body9, %for.end
  %19 = landingpad { ptr, i32 }
          cleanup
  %20 = extractvalue { ptr, i32 } %19, 0
  store ptr %20, ptr %exn.slot, align 8
  %21 = extractvalue { ptr, i32 } %19, 1
  store i32 %21, ptr %ehselector.slot, align 4
  call void @_ZN13ast_fast_markILj1EED2Ev(ptr noundef nonnull align 8 dereferenceable(144) %visited) #3
  br label %eh.resume

for.end15:                                        ; preds = %for.cond7
  call void @_ZN13ast_fast_markILj1EED2Ev(ptr noundef nonnull align 8 dereferenceable(144) %visited) #3
  ret void

eh.resume:                                        ; preds = %lpad
  %exn = load ptr, ptr %exn.slot, align 8
  %sel = load i32, ptr %ehselector.slot, align 4
  %lpad.val = insertvalue { ptr, i32 } poison, ptr %exn, 0
  %lpad.val16 = insertvalue { ptr, i32 } %lpad.val, i32 %sel, 1
  resume { ptr, i32 } %lpad.val16
}

; Function Attrs: mustprogress uwtable
define linkonce_odr hidden void @_ZN18reduce_args_tactic3imp18populate_decl2argsERK4goalR13obj_hashtableI9func_declER7obj_mapIS5_10bit_vectorE(ptr noundef nonnull align 8 dereferenceable(64) %this, ptr noundef nonnull align 8 dereferenceable(124) %g, ptr noundef nonnull align 8 dereferenceable(20) %non_candidates, ptr noundef nonnull align 8 dereferenceable(24) %decl2args) #4 comdat align 2 personality ptr @__gxx_personality_v0 {
entry:
  %this.addr = alloca ptr, align 8
  %g.addr = alloca ptr, align 8
  %non_candidates.addr = alloca ptr, align 8
  %decl2args.addr = alloca ptr, align 8
  %visited = alloca %class.ast_fast_mark, align 8
  %exn.slot = alloca ptr, align 8
  %ehselector.slot = alloca i32, align 4
  %proc = alloca %"struct.reduce_args_tactic::imp::populate_decl2args_proc", align 8
  %sz = alloca i32, align 4
  %i = alloca i32, align 4
  %bad_decls = alloca %class.ptr_buffer.72, align 8
  %__range1 = alloca ptr, align 8
  %__begin1 = alloca %"class.core_hashtable<obj_map<func_decl, bit_vector>::obj_map_entry, obj_hash<obj_map<func_decl, bit_vector>::key_data>, default_eq<obj_map<func_decl, bit_vector>::key_data>>::iterator", align 8
  %__end1 = alloca %"class.core_hashtable<obj_map<func_decl, bit_vector>::obj_map_entry, obj_hash<obj_map<func_decl, bit_vector>::key_data>, default_eq<obj_map<func_decl, bit_vector>::key_data>>::iterator", align 8
  %0 = alloca ptr, align 8
  %is_zero = alloca i8, align 1
  %i20 = alloca i32, align 4
  %__range140 = alloca ptr, align 8
  %__begin141 = alloca ptr, align 8
  %__end144 = alloca ptr, align 8
  %a = alloca ptr, align 8
  store ptr %this, ptr %this.addr, align 8
  store ptr %g, ptr %g.addr, align 8
  store ptr %non_candidates, ptr %non_candidates.addr, align 8
  store ptr %decl2args, ptr %decl2args.addr, align 8
  %this1 = load ptr, ptr %this.addr, align 8
  call void @_ZN13ast_fast_markILj1EEC2Ev(ptr noundef nonnull align 8 dereferenceable(144) %visited) #3
  %1 = load ptr, ptr %decl2args.addr, align 8
  invoke void @_ZN7obj_mapI9func_decl10bit_vectorE5resetEv(ptr noundef nonnull align 8 dereferenceable(24) %1)
          to label %invoke.cont unwind label %lpad

invoke.cont:                                      ; preds = %entry
  %m = getelementptr inbounds %"struct.reduce_args_tactic::imp", ptr %this1, i32 0, i32 1
  %2 = load ptr, ptr %m, align 8
  %m_bv = getelementptr inbounds %"struct.reduce_args_tactic::imp", ptr %this1, i32 0, i32 2
  %3 = load ptr, ptr %non_candidates.addr, align 8
  %4 = load ptr, ptr %decl2args.addr, align 8
  invoke void @_ZN18reduce_args_tactic3imp23populate_decl2args_procC2ER11ast_managerR7bv_utilR13obj_hashtableI9func_declER7obj_mapIS7_10bit_vectorE(ptr noundef nonnull align 8 dereferenceable(56) %proc, ptr noundef nonnull align 8 dereferenceable(976) %2, ptr noundef nonnull align 8 dereferenceable(24) %m_bv, ptr noundef nonnull align 8 dereferenceable(20) %3, ptr noundef nonnull align 8 dereferenceable(24) %4)
          to label %invoke.cont2 unwind label %lpad

invoke.cont2:                                     ; preds = %invoke.cont
  %5 = load ptr, ptr %g.addr, align 8
  %call = invoke noundef i32 @_ZNK4goal4sizeEv(ptr noundef nonnull align 8 dereferenceable(124) %5)
          to label %invoke.cont4 unwind label %lpad3

invoke.cont4:                                     ; preds = %invoke.cont2
  store i32 %call, ptr %sz, align 4
  store i32 0, ptr %i, align 4
  br label %for.cond

for.cond:                                         ; preds = %for.inc, %invoke.cont4
  %6 = load i32, ptr %i, align 4
  %7 = load i32, ptr %sz, align 4
  %cmp = icmp ult i32 %6, %7
  br i1 %cmp, label %for.body, label %for.end

for.body:                                         ; preds = %for.cond
  invoke void @_ZN18reduce_args_tactic3imp10checkpointEv(ptr noundef nonnull align 8 dereferenceable(64) %this1)
          to label %invoke.cont5 unwind label %lpad3

invoke.cont5:                                     ; preds = %for.body
  %8 = load ptr, ptr %g.addr, align 8
  %9 = load i32, ptr %i, align 4
  %call7 = invoke noundef ptr @_ZNK4goal4formEj(ptr noundef nonnull align 8 dereferenceable(124) %8, i32 noundef %9)
          to label %invoke.cont6 unwind label %lpad3

invoke.cont6:                                     ; preds = %invoke.cont5
  invoke void @_Z19quick_for_each_exprIN18reduce_args_tactic3imp23populate_decl2args_procEEvRT_R13ast_fast_markILj1EEP4expr(ptr noundef nonnull align 8 dereferenceable(56) %proc, ptr noundef nonnull align 8 dereferenceable(144) %visited, ptr noundef %call7)
          to label %invoke.cont8 unwind label %lpad3

invoke.cont8:                                     ; preds = %invoke.cont6
  br label %for.inc

for.inc:                                          ; preds = %invoke.cont8
  %10 = load i32, ptr %i, align 4
  %inc = add i32 %10, 1
  store i32 %inc, ptr %i, align 4
  br label %for.cond, !llvm.loop !9

lpad:                                             ; preds = %invoke.cont, %entry
  %11 = landingpad { ptr, i32 }
          cleanup
  %12 = extractvalue { ptr, i32 } %11, 0
  store ptr %12, ptr %exn.slot, align 8
  %13 = extractvalue { ptr, i32 } %11, 1
  store i32 %13, ptr %ehselector.slot, align 4
  br label %ehcleanup53

lpad3:                                            ; preds = %invoke.cont6, %invoke.cont5, %for.body, %invoke.cont2
  %14 = landingpad { ptr, i32 }
          cleanup
  %15 = extractvalue { ptr, i32 } %14, 0
  store ptr %15, ptr %exn.slot, align 8
  %16 = extractvalue { ptr, i32 } %14, 1
  store i32 %16, ptr %ehselector.slot, align 4
  br label %ehcleanup

for.end:                                          ; preds = %for.cond
  call void @_ZN10ptr_bufferI9func_declLj16EEC2Ev(ptr noundef nonnull align 8 dereferenceable(144) %bad_decls) #3
  %17 = load ptr, ptr %decl2args.addr, align 8
  store ptr %17, ptr %__range1, align 8
  %18 = load ptr, ptr %__range1, align 8
  %call11 = invoke { ptr, ptr } @_ZNK7obj_mapI9func_decl10bit_vectorE5beginEv(ptr noundef nonnull align 8 dereferenceable(24) %18)
          to label %invoke.cont10 unwind label %lpad9

invoke.cont10:                                    ; preds = %for.end
  %19 = getelementptr inbounds { ptr, ptr }, ptr %__begin1, i32 0, i32 0
  %20 = extractvalue { ptr, ptr } %call11, 0
  store ptr %20, ptr %19, align 8
  %21 = getelementptr inbounds { ptr, ptr }, ptr %__begin1, i32 0, i32 1
  %22 = extractvalue { ptr, ptr } %call11, 1
  store ptr %22, ptr %21, align 8
  %23 = load ptr, ptr %__range1, align 8
  %call13 = invoke { ptr, ptr } @_ZNK7obj_mapI9func_decl10bit_vectorE3endEv(ptr noundef nonnull align 8 dereferenceable(24) %23)
          to label %invoke.cont12 unwind label %lpad9

invoke.cont12:                                    ; preds = %invoke.cont10
  %24 = getelementptr inbounds { ptr, ptr }, ptr %__end1, i32 0, i32 0
  %25 = extractvalue { ptr, ptr } %call13, 0
  store ptr %25, ptr %24, align 8
  %26 = getelementptr inbounds { ptr, ptr }, ptr %__end1, i32 0, i32 1
  %27 = extractvalue { ptr, ptr } %call13, 1
  store ptr %27, ptr %26, align 8
  br label %for.cond14

for.cond14:                                       ; preds = %invoke.cont37, %invoke.cont12
  %call16 = invoke noundef zeroext i1 @_ZNK14core_hashtableIN7obj_mapI9func_decl10bit_vectorE13obj_map_entryE8obj_hashINS3_8key_dataEE10default_eqIS6_EE8iteratorneERKSB_(ptr noundef nonnull align 8 dereferenceable(16) %__begin1, ptr noundef nonnull align 8 dereferenceable(16) %__end1)
          to label %invoke.cont15 unwind label %lpad9

invoke.cont15:                                    ; preds = %for.cond14
  br i1 %call16, label %for.body17, label %for.end39

for.body17:                                       ; preds = %invoke.cont15
  %call19 = invoke noundef nonnull align 8 dereferenceable(24) ptr @_ZN14core_hashtableIN7obj_mapI9func_decl10bit_vectorE13obj_map_entryE8obj_hashINS3_8key_dataEE10default_eqIS6_EE8iteratordeEv(ptr noundef nonnull align 8 dereferenceable(16) %__begin1)
          to label %invoke.cont18 unwind label %lpad9

invoke.cont18:                                    ; preds = %for.body17
  store ptr %call19, ptr %0, align 8
  store i8 1, ptr %is_zero, align 1
  store i32 0, ptr %i20, align 4
  br label %for.cond21

for.cond21:                                       ; preds = %for.inc29, %invoke.cont18
  %28 = load i32, ptr %i20, align 4
  %29 = load ptr, ptr %0, align 8
  %m_value = getelementptr inbounds %"struct.obj_map<func_decl, bit_vector>::key_data", ptr %29, i32 0, i32 1
  %call23 = invoke noundef i32 @_ZNK10bit_vector4sizeEv(ptr noundef nonnull align 8 dereferenceable(16) %m_value)
          to label %invoke.cont22 unwind label %lpad9

invoke.cont22:                                    ; preds = %for.cond21
  %cmp24 = icmp ult i32 %28, %call23
  br i1 %cmp24, label %land.rhs, label %land.end

land.rhs:                                         ; preds = %invoke.cont22
  %30 = load i8, ptr %is_zero, align 1
  %tobool = trunc i8 %30 to i1
  br label %land.end

land.end:                                         ; preds = %land.rhs, %invoke.cont22
  %31 = phi i1 [ false, %invoke.cont22 ], [ %tobool, %land.rhs ]
  br i1 %31, label %for.body25, label %for.end31

for.body25:                                       ; preds = %land.end
  %32 = load ptr, ptr %0, align 8
  %m_value26 = getelementptr inbounds %"struct.obj_map<func_decl, bit_vector>::key_data", ptr %32, i32 0, i32 1
  %33 = load i32, ptr %i20, align 4
  %call28 = invoke noundef zeroext i1 @_ZNK10bit_vector3getEj(ptr noundef nonnull align 8 dereferenceable(16) %m_value26, i32 noundef %33)
          to label %invoke.cont27 unwind label %lpad9

invoke.cont27:                                    ; preds = %for.body25
  br i1 %call28, label %if.then, label %if.end

if.then:                                          ; preds = %invoke.cont27
  store i8 0, ptr %is_zero, align 1
  br label %if.end

lpad9:                                            ; preds = %for.body49, %invoke.cont42, %for.end39, %for.inc36, %if.then33, %for.body25, %for.cond21, %for.body17, %for.cond14, %invoke.cont10, %for.end
  %34 = landingpad { ptr, i32 }
          cleanup
  %35 = extractvalue { ptr, i32 } %34, 0
  store ptr %35, ptr %exn.slot, align 8
  %36 = extractvalue { ptr, i32 } %34, 1
  store i32 %36, ptr %ehselector.slot, align 4
  call void @_ZN10ptr_bufferI9func_declLj16EED2Ev(ptr noundef nonnull align 8 dereferenceable(144) %bad_decls) #3
  br label %ehcleanup

if.end:                                           ; preds = %if.then, %invoke.cont27
  br label %for.inc29

for.inc29:                                        ; preds = %if.end
  %37 = load i32, ptr %i20, align 4
  %inc30 = add i32 %37, 1
  store i32 %inc30, ptr %i20, align 4
  br label %for.cond21, !llvm.loop !10

for.end31:                                        ; preds = %land.end
  %38 = load i8, ptr %is_zero, align 1
  %tobool32 = trunc i8 %38 to i1
  br i1 %tobool32, label %if.then33, label %if.end35

if.then33:                                        ; preds = %for.end31
  %39 = load ptr, ptr %0, align 8
  %m_key = getelementptr inbounds %"struct.obj_map<func_decl, bit_vector>::key_data", ptr %39, i32 0, i32 0
  invoke void @_ZN6bufferIP9func_declLb0ELj16EE9push_backERKS1_(ptr noundef nonnull align 8 dereferenceable(144) %bad_decls, ptr noundef nonnull align 8 dereferenceable(8) %m_key)
          to label %invoke.cont34 unwind label %lpad9

invoke.cont34:                                    ; preds = %if.then33
  br label %if.end35

if.end35:                                         ; preds = %invoke.cont34, %for.end31
  br label %for.inc36

for.inc36:                                        ; preds = %if.end35
  %call38 = invoke noundef nonnull align 8 dereferenceable(16) ptr @_ZN14core_hashtableIN7obj_mapI9func_decl10bit_vectorE13obj_map_entryE8obj_hashINS3_8key_dataEE10default_eqIS6_EE8iteratorppEv(ptr noundef nonnull align 8 dereferenceable(16) %__begin1)
          to label %invoke.cont37 unwind label %lpad9

invoke.cont37:                                    ; preds = %for.inc36
  br label %for.cond14

for.end39:                                        ; preds = %invoke.cont15
  store ptr %bad_decls, ptr %__range140, align 8
  %40 = load ptr, ptr %__range140, align 8
  %call43 = invoke noundef ptr @_ZN6bufferIP9func_declLb0ELj16EE5beginEv(ptr noundef nonnull align 8 dereferenceable(144) %40)
          to label %invoke.cont42 unwind label %lpad9

invoke.cont42:                                    ; preds = %for.end39
  store ptr %call43, ptr %__begin141, align 8
  %41 = load ptr, ptr %__range140, align 8
  %call46 = invoke noundef ptr @_ZN6bufferIP9func_declLb0ELj16EE3endEv(ptr noundef nonnull align 8 dereferenceable(144) %41)
          to label %invoke.cont45 unwind label %lpad9

invoke.cont45:                                    ; preds = %invoke.cont42
  store ptr %call46, ptr %__end144, align 8
  br label %for.cond47

for.cond47:                                       ; preds = %for.inc51, %invoke.cont45
  %42 = load ptr, ptr %__begin141, align 8
  %43 = load ptr, ptr %__end144, align 8
  %cmp48 = icmp ne ptr %42, %43
  br i1 %cmp48, label %for.body49, label %for.end52

for.body49:                                       ; preds = %for.cond47
  %44 = load ptr, ptr %__begin141, align 8
  %45 = load ptr, ptr %44, align 8
  store ptr %45, ptr %a, align 8
  %46 = load ptr, ptr %decl2args.addr, align 8
  %47 = load ptr, ptr %a, align 8
  invoke void @_ZN7obj_mapI9func_decl10bit_vectorE5eraseEPS0_(ptr noundef nonnull align 8 dereferenceable(24) %46, ptr noundef %47)
          to label %invoke.cont50 unwind label %lpad9

invoke.cont50:                                    ; preds = %for.body49
  br label %for.inc51

for.inc51:                                        ; preds = %invoke.cont50
  %48 = load ptr, ptr %__begin141, align 8
  %incdec.ptr = getelementptr inbounds ptr, ptr %48, i32 1
  store ptr %incdec.ptr, ptr %__begin141, align 8
  br label %for.cond47

for.end52:                                        ; preds = %for.cond47
  call void @_ZN10ptr_bufferI9func_declLj16EED2Ev(ptr noundef nonnull align 8 dereferenceable(144) %bad_decls) #3
  call void @_ZN18reduce_args_tactic3imp23populate_decl2args_procD2Ev(ptr noundef nonnull align 8 dereferenceable(56) %proc) #3
  call void @_ZN13ast_fast_markILj1EED2Ev(ptr noundef nonnull align 8 dereferenceable(144) %visited) #3
  ret void

ehcleanup:                                        ; preds = %lpad9, %lpad3
  call void @_ZN18reduce_args_tactic3imp23populate_decl2args_procD2Ev(ptr noundef nonnull align 8 dereferenceable(56) %proc) #3
  br label %ehcleanup53

ehcleanup53:                                      ; preds = %ehcleanup, %lpad
  call void @_ZN13ast_fast_markILj1EED2Ev(ptr noundef nonnull align 8 dereferenceable(144) %visited) #3
  br label %eh.resume

eh.resume:                                        ; preds = %ehcleanup53
  %exn = load ptr, ptr %exn.slot, align 8
  %sel = load i32, ptr %ehselector.slot, align 4
  %lpad.val = insertvalue { ptr, i32 } poison, ptr %exn, 0
  %lpad.val54 = insertvalue { ptr, i32 } %lpad.val, i32 %sel, 1
  resume { ptr, i32 } %lpad.val54
}

; Function Attrs: mustprogress uwtable
define linkonce_odr hidden noundef zeroext i1 @_ZNK7obj_mapI9func_decl10bit_vectorE5emptyEv(ptr noundef nonnull align 8 dereferenceable(24) %this) #4 comdat align 2 {
entry:
  %this.addr = alloca ptr, align 8
  store ptr %this, ptr %this.addr, align 8
  %this1 = load ptr, ptr %this.addr, align 8
  %m_table = getelementptr inbounds %class.obj_map.34, ptr %this1, i32 0, i32 0
  %call = call noundef zeroext i1 @_ZNK14core_hashtableIN7obj_mapI9func_decl10bit_vectorE13obj_map_entryE8obj_hashINS3_8key_dataEE10default_eqIS6_EE5emptyEv(ptr noundef nonnull align 8 dereferenceable(20) %m_table)
  ret i1 %call
}

; Function Attrs: mustprogress uwtable
define linkonce_odr hidden void @_ZN18reduce_args_tactic3imp15reduce_args_ctxC2ER11ast_manager(ptr noundef nonnull align 8 dereferenceable(32) %this, ptr noundef nonnull align 8 dereferenceable(976) %m) unnamed_addr #4 comdat align 2 {
entry:
  %this.addr = alloca ptr, align 8
  %m.addr = alloca ptr, align 8
  store ptr %this, ptr %this.addr, align 8
  store ptr %m, ptr %m.addr, align 8
  %this1 = load ptr, ptr %this.addr, align 8
  %m2 = getelementptr inbounds %"struct.reduce_args_tactic::imp::reduce_args_ctx", ptr %this1, i32 0, i32 0
  %0 = load ptr, ptr %m.addr, align 8
  store ptr %0, ptr %m2, align 8
  %m_decl2arg2funcs = getelementptr inbounds %"struct.reduce_args_tactic::imp::reduce_args_ctx", ptr %this1, i32 0, i32 1
  call void @_ZN7obj_mapI9func_declP3mapIP3appPS0_N18reduce_args_tactic3imp18arg2func_hash_procENS6_16arg2func_eq_procEEEC2Ev(ptr noundef nonnull align 8 dereferenceable(24) %m_decl2arg2funcs)
  ret void
}

; Function Attrs: mustprogress uwtable
define linkonce_odr hidden void @_ZN18reduce_args_tactic3imp14reduce_args_rwC2ERS0_R7obj_mapI9func_decl10bit_vectorERS3_IS4_P3mapIP3appPS4_NS0_18arg2func_hash_procENS0_16arg2func_eq_procEEE(ptr noundef nonnull align 8 dereferenceable(568) %this, ptr noundef nonnull align 8 dereferenceable(64) %owner, ptr noundef nonnull align 8 dereferenceable(24) %decl2args, ptr noundef nonnull align 8 dereferenceable(24) %decl2arg2funcs) unnamed_addr #4 comdat align 2 personality ptr @__gxx_personality_v0 {
entry:
  %this.addr = alloca ptr, align 8
  %owner.addr = alloca ptr, align 8
  %decl2args.addr = alloca ptr, align 8
  %decl2arg2funcs.addr = alloca ptr, align 8
  %exn.slot = alloca ptr, align 8
  %ehselector.slot = alloca i32, align 4
  store ptr %this, ptr %this.addr, align 8
  store ptr %owner, ptr %owner.addr, align 8
  store ptr %decl2args, ptr %decl2args.addr, align 8
  store ptr %decl2arg2funcs, ptr %decl2arg2funcs.addr, align 8
  %this1 = load ptr, ptr %this.addr, align 8
  store ptr getelementptr inbounds ({ [4 x ptr] }, ptr @_ZTVN18reduce_args_tactic3imp14reduce_args_rwE, i32 0, inrange i32 0, i32 2), ptr %this1, align 8
  %0 = load ptr, ptr %owner.addr, align 8
  %m = getelementptr inbounds %"struct.reduce_args_tactic::imp", ptr %0, i32 0, i32 1
  %1 = load ptr, ptr %m, align 8
  %m_cfg = getelementptr inbounds %"struct.reduce_args_tactic::imp::reduce_args_rw", ptr %this1, i32 0, i32 1
  call void @_ZN12rewriter_tplIN18reduce_args_tactic3imp18reduce_args_rw_cfgEEC2ER11ast_managerbRS2_(ptr noundef nonnull align 8 dereferenceable(536) %this1, ptr noundef nonnull align 8 dereferenceable(976) %1, i1 noundef zeroext false, ptr noundef nonnull align 8 dereferenceable(32) %m_cfg)
  store ptr getelementptr inbounds ({ [4 x ptr] }, ptr @_ZTVN18reduce_args_tactic3imp14reduce_args_rwE, i32 0, inrange i32 0, i32 2), ptr %this1, align 8
  %m_cfg2 = getelementptr inbounds %"struct.reduce_args_tactic::imp::reduce_args_rw", ptr %this1, i32 0, i32 1
  %2 = load ptr, ptr %owner.addr, align 8
  %3 = load ptr, ptr %decl2args.addr, align 8
  %4 = load ptr, ptr %decl2arg2funcs.addr, align 8
  invoke void @_ZN18reduce_args_tactic3imp18reduce_args_rw_cfgC2ERS0_R7obj_mapI9func_decl10bit_vectorERS3_IS4_P3mapIP3appPS4_NS0_18arg2func_hash_procENS0_16arg2func_eq_procEEE(ptr noundef nonnull align 8 dereferenceable(32) %m_cfg2, ptr noundef nonnull align 8 dereferenceable(64) %2, ptr noundef nonnull align 8 dereferenceable(24) %3, ptr noundef nonnull align 8 dereferenceable(24) %4)
          to label %invoke.cont unwind label %lpad

invoke.cont:                                      ; preds = %entry
  ret void

lpad:                                             ; preds = %entry
  %5 = landingpad { ptr, i32 }
          cleanup
  %6 = extractvalue { ptr, i32 } %5, 0
  store ptr %6, ptr %exn.slot, align 8
  %7 = extractvalue { ptr, i32 } %5, 1
  store i32 %7, ptr %ehselector.slot, align 4
  call void @_ZN12rewriter_tplIN18reduce_args_tactic3imp18reduce_args_rw_cfgEED2Ev(ptr noundef nonnull align 8 dereferenceable(536) %this1) #3
  br label %eh.resume

eh.resume:                                        ; preds = %lpad
  %exn = load ptr, ptr %exn.slot, align 8
  %sel = load i32, ptr %ehselector.slot, align 4
  %lpad.val = insertvalue { ptr, i32 } poison, ptr %exn, 0
  %lpad.val3 = insertvalue { ptr, i32 } %lpad.val, i32 %sel, 1
  resume { ptr, i32 } %lpad.val3
}

; Function Attrs: mustprogress uwtable
define linkonce_odr hidden noundef i32 @_ZNK4goal4sizeEv(ptr noundef nonnull align 8 dereferenceable(124) %this) #4 comdat align 2 {
entry:
  %this.addr = alloca ptr, align 8
  store ptr %this, ptr %this.addr, align 8
  %this1 = load ptr, ptr %this.addr, align 8
  %call = call noundef nonnull align 8 dereferenceable(976) ptr @_ZNK4goal1mEv(ptr noundef nonnull align 8 dereferenceable(124) %this1)
  %m_forms = getelementptr inbounds %class.goal, ptr %this1, i32 0, i32 7
