target datalayout = "e-m:e-p270:32:32-p271:32:32-p272:64:64-i64:64-i128:128-f80:128-n8:16:32:64-S128"
target triple = "x86_64-unknown-linux-gnu"

%"class.std::ios_base::Init" = type { i8 }
%class.stopwatch = type <{ %"class.std::chrono::time_point", %"class.std::chrono::duration", i8, [7 x i8] }>
%"class.std::chrono::time_point" = type { %"class.std::chrono::duration" }
%"class.std::chrono::duration" = type { i64 }
%class.symbol = type { ptr }
%"class.(anonymous namespace)::get_implied_equalities_impl" = type { ptr, ptr, %class.union_find_default_ctx, %class.union_find, %class.array_util, %class.stopwatch, i32, [4 x i8], %class.stopwatch }
%class.union_find_default_ctx = type { %class.trail_stack }
%class.trail_stack = type { %class.ptr_vector, %class.svector, %class.region }
%class.ptr_vector = type { %class.vector }
%class.vector = type { ptr }
%class.svector = type { %class.vector.0 }
%class.vector.0 = type { ptr }
%class.region = type { ptr, ptr, ptr, ptr, ptr }
%class.union_find = type { ptr, ptr, %class.svector, %class.svector, %class.svector, %"class.union_find<>::mk_var_trail" }
%"class.union_find<>::mk_var_trail" = type { %class.trail, ptr }
%class.trail = type { ptr }
%class.array_util = type { %class.array_recognizers, ptr }
%class.array_recognizers = type { i32 }
%class.params_ref = type { ptr }
%class.obj_map.30 = type { %class.core_hashtable.31 }
%class.core_hashtable.31 = type <{ ptr, i32, i32, i32, [4 x i8] }>
%class.ref.35 = type { ptr }
%"class.core_hashtable<obj_map<sort, vector<(anonymous namespace)::get_implied_equalities_impl::term_id>>::obj_map_entry, obj_hash<obj_map<sort, vector<(anonymous namespace)::get_implied_equalities_impl::term_id>>::key_data>, default_eq<obj_map<sort, vector<(anonymous namespace)::get_implied_equalities_impl::term_id>>::key_data>>::iterator" = type { ptr, ptr }
%"struct.obj_map<sort, vector<(anonymous namespace)::get_implied_equalities_impl::term_id>>::key_data" = type { ptr, %class.vector.36 }
%class.vector.36 = type { ptr }
%"struct.(anonymous namespace)::get_implied_equalities_impl::term_id" = type <{ %class.obj_ref.37, i32, [4 x i8] }>
%class.obj_ref.37 = type { ptr, ptr }
%struct.obj_hash.32 = type { i8 }
%struct.default_eq.33 = type { i8 }
%"class.obj_map<sort, vector<(anonymous namespace)::get_implied_equalities_impl::term_id>>::obj_map_entry" = type { %"struct.obj_map<sort, vector<(anonymous namespace)::get_implied_equalities_impl::term_id>>::key_data" }
%"class.std::chrono::duration.82" = type { i64 }
%"class.std::__cxx11::basic_string" = type { %"struct.std::__cxx11::basic_string<char>::_Alloc_hider", i64, %union.anon }
%"struct.std::__cxx11::basic_string<char>::_Alloc_hider" = type { ptr }
%union.anon = type { i64, [8 x i8] }
%"class.std::allocator" = type { i8 }
%class.default_exception = type { %class.z3_exception, %"class.std::__cxx11::basic_string" }
%class.z3_exception = type { ptr }
%struct._Guard = type { ptr }
%class.ast_manager = type { %class.reslimit, %class.small_object_allocator, %class.family_manager, %class.parray_manager, %class.dependency_manager, %class.parray_manager.14, %class.ptr_vector.17, i32, i8, %class.ast_table, %class.obj_map, %class.id_gen, %class.id_gen, ptr, ptr, ptr, ptr, ptr, i32, i8, [3 x i8], %class.u_map, ptr, i8, i8, ptr, %class.symbol, %class.obj_map.23, ptr }
%class.reslimit = type { %"struct.std::atomic", i8, i64, i64, %class.svector.1, %class.ptr_vector.3 }
%"struct.std::atomic" = type { %"struct.std::__atomic_base" }
%"struct.std::__atomic_base" = type { i32 }
%class.svector.1 = type { %class.vector.2 }
%class.vector.2 = type { ptr }
%class.ptr_vector.3 = type { %class.vector.4 }
%class.vector.4 = type { ptr }
%class.small_object_allocator = type { [32 x ptr], [32 x ptr], i64 }
%class.family_manager = type { i32, %class.symbol_table, %class.svector.8 }
%class.symbol_table = type { %class.core_hashtable, %class.vector.5, %class.svector.6 }
%class.core_hashtable = type <{ ptr, i32, i32, i32, [4 x i8] }>
%class.vector.5 = type { ptr }
%class.svector.6 = type { %class.vector.7 }
%class.vector.7 = type { ptr }
%class.svector.8 = type { %class.vector.9 }
%class.vector.9 = type { ptr }
%class.parray_manager = type { ptr, ptr, %class.ptr_vector.10, %class.ptr_vector.10 }
%class.ptr_vector.10 = type { %class.vector.11 }
%class.vector.11 = type { ptr }
%class.dependency_manager = type { ptr, ptr, %class.ptr_vector.12 }
%class.ptr_vector.12 = type { %class.vector.13 }
%class.vector.13 = type { ptr }
%class.parray_manager.14 = type { ptr, ptr, %class.ptr_vector.15, %class.ptr_vector.15 }
%class.ptr_vector.15 = type { %class.vector.16 }
%class.vector.16 = type { ptr }
%class.ptr_vector.17 = type { %class.vector.18 }
%class.vector.18 = type { ptr }
%class.ast_table = type { %class.chashtable }
%class.chashtable = type { ptr, i32, i32, i32, i32, i32, i32, i32, ptr, ptr, ptr }
%class.obj_map = type { %class.core_hashtable.19 }
%class.core_hashtable.19 = type <{ ptr, i32, i32, i32, [4 x i8] }>
%class.id_gen = type { i32, %class.svector }
%class.u_map = type { %class.map }
%class.map = type { %class.table2map }
%class.table2map = type { %class.core_hashtable.21 }
%class.core_hashtable.21 = type <{ ptr, i32, i32, i32, [4 x i8] }>
%class.obj_map.23 = type { %class.core_hashtable.24 }
%class.core_hashtable.24 = type <{ ptr, i32, i32, i32, [4 x i8] }>
%class.decl = type { %class.ast, %class.symbol, ptr }
%class.ast = type { i32, i24, i32, i32 }
%class.decl_info = type <{ i32, i32, %class.vector.38, i8, [7 x i8] }>
%class.vector.38 = type { ptr }
%class.check_sat_result = type { ptr, ptr, %class.ref_vector, %class.obj_ref, i32, i32, %class.ref, double }
%class.ref_vector = type { %class.ref_vector_core }
%class.ref_vector_core = type { %class.ref_manager_wrapper, %class.ptr_vector.28 }
%class.ref_manager_wrapper = type { ptr }
%class.ptr_vector.28 = type { %class.vector.29 }
%class.vector.29 = type { ptr }
%class.obj_ref = type { ptr, ptr }
%class.ref = type { ptr }
%"struct.std::pair" = type { ptr, ptr }
%"struct.std::pair.39" = type { %"class.std::move_iterator", ptr }
%"class.std::move_iterator" = type { ptr }
%"class.ref_vector<expr, ast_manager>::element_ref" = type { ptr, ptr }
%class.uint_set = type { %class.svector }
%class.obj_map.41 = type { %class.core_hashtable.42 }
%class.core_hashtable.42 = type <{ ptr, i32, i32, i32, [4 x i8] }>
%"class.uint_set::iterator" = type { ptr, i32, i32 }
%struct.obj_hash.43 = type { i8 }
%struct.default_eq.44 = type { i8 }
%"struct.obj_map<expr, svector<unsigned int>>::key_data" = type { ptr, %class.svector }
%"class.union_find<>::merge_trail" = type <{ %class.trail, ptr, i32, [4 x i8] }>
%class.parameter = type { %"class.std::variant" }
%"class.std::variant" = type { %"struct.std::__detail::__variant::_Variant_base.base", [7 x i8] }
%"struct.std::__detail::__variant::_Variant_base.base" = type { %"struct.std::__detail::__variant::_Move_assign_base.base" }
%"struct.std::__detail::__variant::_Move_assign_base.base" = type { %"struct.std::__detail::__variant::_Copy_assign_base.base" }
%"struct.std::__detail::__variant::_Copy_assign_base.base" = type { %"struct.std::__detail::__variant::_Move_ctor_base.base" }
%"struct.std::__detail::__variant::_Move_ctor_base.base" = type { %"struct.std::__detail::__variant::_Copy_ctor_base.base" }
%"struct.std::__detail::__variant::_Copy_ctor_base.base" = type { %"struct.std::__detail::__variant::_Variant_storage.base" }
%"struct.std::__detail::__variant::_Variant_storage.base" = type <{ %"union.std::__detail::__variant::_Variadic_union", i8 }>
%"union.std::__detail::__variant::_Variadic_union" = type { %"union.std::__detail::__variant::_Variadic_union.67" }
%"union.std::__detail::__variant::_Variadic_union.67" = type { %"struct.std::__detail::__variant::_Uninitialized.68" }
%"struct.std::__detail::__variant::_Uninitialized.68" = type { ptr }
%"struct.std::__detail::__variant::_Variant_storage" = type <{ %"union.std::__detail::__variant::_Variadic_union", i8, [7 x i8] }>
%"class.std::bad_variant_access" = type { %"class.std::exception", ptr }
%"class.std::exception" = type { ptr }
%"class.obj_map<expr, svector<unsigned int>>::obj_map_entry" = type { %"struct.obj_map<expr, svector<unsigned int>>::key_data" }
%class.app = type { %class.expr, ptr, i32, [0 x ptr] }
%class.expr = type { %class.ast }
%class.model_core = type { ptr, ptr, i32, [4 x i8], %class.obj_map.46, %class.obj_map.51, %class.ptr_vector.56, %class.ptr_vector.56, %class.ptr_vector.56 }
%class.obj_map.46 = type { %class.core_hashtable.47 }
%class.core_hashtable.47 = type <{ ptr, i32, i32, i32, [4 x i8] }>
%class.obj_map.51 = type { %class.core_hashtable.52 }
%class.core_hashtable.52 = type <{ ptr, i32, i32, i32, [4 x i8] }>
%class.ptr_vector.56 = type { %class.vector.57 }
%class.vector.57 = type { ptr }
%class.func_interp = type { ptr, i32, %class.ptr_vector.80, ptr, i8, ptr, ptr }
%class.ptr_vector.80 = type { %class.vector.81 }
%class.vector.81 = type { ptr }
%class.func_entry = type { i8, ptr, [0 x ptr] }
%"struct.obj_map<func_decl, func_interp *>::key_data" = type { ptr, ptr }
%"class.obj_map<func_decl, func_interp *>::obj_map_entry" = type { %"struct.obj_map<func_decl, func_interp *>::key_data" }

$_ZN9stopwatchC2Ev = comdat any

$_ZNSt6chrono10time_pointINS_3_V212steady_clockENS_8durationIlSt5ratioILl1ELl1000000000EEEEEC2Ev = comdat any

$_ZN9stopwatch5resetEv = comdat any

$_ZNSt6chrono8durationIlSt5ratioILl1ELl1000000000EEE4zeroEv = comdat any

$_ZNSt6chrono15duration_valuesIlE4zeroEv = comdat any

$_ZNSt6chrono8durationIlSt5ratioILl1ELl1000000000EEEC2IlvEERKT_ = comdat any

$__clang_call_terminate = comdat any

$_ZN22union_find_default_ctxC2Ev = comdat any

$_ZN10union_findI22union_find_default_ctxS0_EC2ERS0_ = comdat any

$_ZN10union_findI22union_find_default_ctxS0_ED2Ev = comdat any

$_ZN22union_find_default_ctxD2Ev = comdat any

$_ZN11trail_stackC2Ev = comdat any

$_ZN10ptr_vectorI5trailEC2Ev = comdat any

$_ZN7svectorIjjEC2Ev = comdat any

$_ZN7svectorIjjED2Ev = comdat any

$_ZN10ptr_vectorI5trailED2Ev = comdat any

$_ZN6vectorIP5trailLb0EjEC2Ev = comdat any

$_ZN6vectorIjLb0EjEC2Ev = comdat any

$_ZN6vectorIjLb0EjED2Ev = comdat any

$_ZN6vectorIjLb0EjE7destroyEv = comdat any

$_ZN6vectorIjLb0EjE11free_memoryEv = comdat any

$_ZN6vectorIP5trailLb0EjED2Ev = comdat any

$_ZN6vectorIP5trailLb0EjE7destroyEv = comdat any

$_ZN6vectorIP5trailLb0EjE11free_memoryEv = comdat any

$_ZN22union_find_default_ctx15get_trail_stackEv = comdat any

$_ZN10union_findI22union_find_default_ctxS0_E12mk_var_trailC2ERS1_ = comdat any

$_ZN5trailC2Ev = comdat any

$_ZN10union_findI22union_find_default_ctxS0_E12mk_var_trailD2Ev = comdat any

$_ZN10union_findI22union_find_default_ctxS0_E12mk_var_trailD0Ev = comdat any

$_ZN10union_findI22union_find_default_ctxS0_E12mk_var_trail4undoEv = comdat any

$_ZN5trailD2Ev = comdat any

$_ZN5trailD0Ev = comdat any

$_ZN6vectorIjLb0EjE8pop_backEv = comdat any

$_ZN11trail_stackD2Ev = comdat any

$_ZN10params_refC2Ev = comdat any

$_ZN9stopwatch5startEv = comdat any

$_ZN10union_findI22union_find_default_ctxS0_E6mk_varEv = comdat any

$_ZN3refI5modelEC2Ev = comdat any

$_ZN16check_sat_result9get_modelER3refI5modelE = comdat any

$_ZNK10union_findI22union_find_default_ctxS0_E4findEj = comdat any

$_ZN3refI5modelED2Ev = comdat any

$_ZN9stopwatch4stopEv = comdat any

$_ZNK9stopwatch11get_secondsEv = comdat any

$_ZN9stopwatch3getEv = comdat any

$_ZNK6vectorIjLb0EjE4sizeEv = comdat any

$_ZN6vectorIjLb0EjE9push_backERKj = comdat any

$_ZN6vectorIjLb0EjE9push_backEOj = comdat any

$_ZN11trail_stack8push_ptrEP5trail = comdat any

$_ZN6vectorIjLb0EjE13expand_vectorEv = comdat any

$_ZNSt7__cxx1112basic_stringIcSt11char_traitsIcESaIcEEC2IS3_EEPKcRKS3_ = comdat any

$_ZN17default_exceptionC2EONSt7__cxx1112basic_stringIcSt11char_traitsIcESaIcEEE = comdat any

$_ZN17default_exceptionD2Ev = comdat any

$_ZNSt11char_traitsIcE6lengthEPKc = comdat any

$_ZNSt7__cxx1112basic_stringIcSt11char_traitsIcESaIcEE12_M_constructIPKcEEvT_S8_St20forward_iterator_tag = comdat any

$_ZNSt7__cxx1112basic_stringIcSt11char_traitsIcESaIcEE12_Alloc_hiderD2Ev = comdat any

$_ZSt8distanceIPKcENSt15iterator_traitsIT_E15difference_typeES3_S3_ = comdat any

$_ZZNSt7__cxx1112basic_stringIcSt11char_traitsIcESaIcEE12_M_constructIPKcEEvT_S8_St20forward_iterator_tagEN6_GuardC2EPS4_ = comdat any

$_ZZNSt7__cxx1112basic_stringIcSt11char_traitsIcESaIcEE12_M_constructIPKcEEvT_S8_St20forward_iterator_tagEN6_GuardD2Ev = comdat any

$_ZSt10__distanceIPKcENSt15iterator_traitsIT_E15difference_typeES3_S3_St26random_access_iterator_tag = comdat any

$_ZSt19__iterator_categoryIPKcENSt15iterator_traitsIT_E17iterator_categoryERKS3_ = comdat any

$_ZN12z3_exceptionC2Ev = comdat any

$_ZN12z3_exceptionD2Ev = comdat any

$_ZN6vectorIP5trailLb0EjE9push_backERKS1_ = comdat any

$_ZN6vectorIP5trailLb0EjE13expand_vectorEv = comdat any

$_ZNK17array_recognizers8is_arrayEP4sort = comdat any

$_ZN11ast_manager6mk_appEP9func_declP4expr = comdat any

$_ZN11ast_manager12mk_func_declERK6symboljPKP4sortS4_ = comdat any

$_ZNK11ast_manager12mk_bool_sortEv = comdat any

$_Z10is_sort_ofPK4sortii = comdat any

$_ZNK4sort10is_sort_ofEii = comdat any

$_ZNK4decl13get_family_idEv = comdat any

$_ZNK4decl13get_decl_kindEv = comdat any

$_ZNK9decl_info13get_family_idEv = comdat any

$_ZNK9decl_info13get_decl_kindEv = comdat any

$_ZNK3refI5modelEcvbEv = comdat any

$_ZNK16check_sat_result3mc0Ev = comdat any

$_ZNK3refI15model_converterE3getEv = comdat any

$_ZN7obj_refI4expr11ast_managerEC2EPS0_RS1_ = comdat any

$_ZN7obj_refI4expr11ast_managerED2Ev = comdat any

$_ZN7obj_refI4expr11ast_managerEC2ERKS2_ = comdat any

$_ZN7obj_refI4expr11ast_managerE7inc_refEv = comdat any

$_ZN11ast_manager7inc_refEP3ast = comdat any

$_ZN3ast7inc_refEv = comdat any

$_ZNK3ast4hashEv = comdat any

$_ZN7obj_refI4expr11ast_managerEC2EOS2_ = comdat any

$_ZSt4swapIP4exprENSt9enable_ifIXsr6__and_ISt6__not_ISt15__is_tuple_likeIT_EESt21is_move_constructibleIS5_ESt18is_move_assignableIS5_EEE5valueEvE4typeERS5_SE_ = comdat any

$_ZN7obj_refI4expr11ast_managerE7dec_refEv = comdat any

$_ZN11ast_manager7dec_refEP3ast = comdat any

$_ZN3ast7dec_refEv = comdat any

$_ZNK3ast13get_ref_countEv = comdat any

$_ZNK7obj_refI4expr11ast_managerEptEv = comdat any

$_Z15get_array_arityPK4sort = comdat any

$_ZN10ref_vectorI4expr11ast_managerEC2ERS1_ = comdat any

$_ZN15ref_vector_coreI4expr19ref_manager_wrapperIS0_11ast_managerEE9push_backEPS0_ = comdat any

$_Z16get_array_domainPK4sortj = comdat any

$_ZN11ast_manager14mk_fresh_constEPKcP4sortb = comdat any

$_ZNK7obj_refI4expr11ast_managerEcvPS0_Ev = comdat any

$_ZN10ref_vectorI4expr11ast_managerEixEj = comdat any

$_ZN10ref_vectorI4expr11ast_managerE11element_refaSEPS0_ = comdat any

$_ZNK17array_recognizers13get_family_idEv = comdat any

$_ZNK15ref_vector_coreI4expr19ref_manager_wrapperIS0_11ast_managerEE4sizeEv = comdat any

$_ZN15ref_vector_coreI4expr19ref_manager_wrapperIS0_11ast_managerEE4dataEv = comdat any

$_ZN7obj_refI4expr11ast_managerEaSEPS0_ = comdat any

$_ZN10ref_vectorI4expr11ast_managerED2Ev = comdat any

$_ZN8uint_setC2Ev = comdat any

$_ZN8uint_set6insertEj = comdat any

$_ZN7obj_refI4expr11ast_managerEC2ERS1_ = comdat any

$_ZN7obj_mapI4expr7svectorIjjEEC2Ev = comdat any

$_ZN3refI5modelEdeEv = comdat any

$_ZN7obj_refI4expr11ast_managerEaSEOS2_ = comdat any

$_ZN7obj_mapI4expr7svectorIjjEE19insert_if_not_thereEPS0_RKS2_ = comdat any

$_ZN6vectorIjLb0EjEixEj = comdat any

$_ZN11ast_manager6mk_notEP4expr = comdat any

$_ZN11ast_manager5mk_eqEP4exprS1_ = comdat any

$_ZN10union_findI22union_find_default_ctxS0_E5mergeEjj = comdat any

$_ZNK8uint_set5emptyEv = comdat any

$_ZN7obj_mapI4expr7svectorIjjEED2Ev = comdat any

$_ZN8uint_setD2Ev = comdat any

$_ZNK4decl18get_num_parametersEv = comdat any

$_ZNK9decl_info18get_num_parametersEv = comdat any

$_ZNK6vectorI9parameterLb1EjE4sizeEv = comdat any

$_ZN19ref_manager_wrapperI4expr11ast_managerEC2ERS1_ = comdat any

$_ZN15ref_vector_coreI4expr19ref_manager_wrapperIS0_11ast_managerEEC2ERKS3_ = comdat any

$_ZN10ptr_vectorI4exprEC2Ev = comdat any

$_ZN6vectorIP4exprLb0EjEC2Ev = comdat any

$_ZN15ref_vector_coreI4expr19ref_manager_wrapperIS0_11ast_managerEE7inc_refEPS0_ = comdat any

$_ZN6vectorIP4exprLb0EjE9push_backERKS1_ = comdat any

$_ZN19ref_manager_wrapperI4expr11ast_managerE7inc_refEPS0_ = comdat any

$_ZN6vectorIP4exprLb0EjE13expand_vectorEv = comdat any

$_Z7to_sortP3ast = comdat any

$_ZNK4decl13get_parameterEj = comdat any

$_ZNK9parameter7get_astEv = comdat any

$_ZNK9decl_info13get_parameterEj = comdat any

$_ZNK6vectorI9parameterLb1EjEixEj = comdat any

$_ZSt3getIP3astJiS1_6symbolP7zstringP8rationaldjEERKT_RKSt7variantIJDpT0_EE = comdat any

$_ZSt3getILm1EJiP3ast6symbolP7zstringP8rationaldjEERKNSt19variant_alternativeIXT_ESt7variantIJDpT0_EEE4typeERKSB_ = comdat any

$_ZNKSt7variantIJiP3ast6symbolP7zstringP8rationaldjEE5indexEv = comdat any

$_ZSt26__throw_bad_variant_accessb = comdat any

$_ZNKSt7variantIJiP3ast6symbolP7zstringP8rationaldjEE22valueless_by_exceptionEv = comdat any

$_ZNSt8__detail9__variant5__getILm1ERKSt7variantIJiP3ast6symbolP7zstringP8rationaldjEEEEDcOT0_ = comdat any

$_ZSt26__throw_bad_variant_accessPKc = comdat any

$_ZNSt18bad_variant_accessC2EPKc = comdat any

$_ZNSt18bad_variant_accessD2Ev = comdat any

$_ZNSt9exceptionC2Ev = comdat any

$_ZNSt18bad_variant_accessD0Ev = comdat any

$_ZNKSt18bad_variant_access4whatEv = comdat any

$_ZNKSt8__detail9__variant16_Variant_storageILb1EJiP3ast6symbolP7zstringP8rationaldjEE8_M_validEv = comdat any

$_ZNSt8__detail9__variant7__get_nILm1ERKNS0_15_Variadic_unionIJiP3ast6symbolP7zstringP8rationaldjEEEEEDcOT0_ = comdat any

$_ZNKRSt8__detail9__variant14_UninitializedIP3astLb1EE6_M_getEv = comdat any

$_ZN11ast_manager8mk_constEP9func_decl = comdat any

$_ZN11ast_manager18mk_fresh_func_declEPKcjPKP4sortS3_b = comdat any

$_ZN6vectorIP4exprLb0EjEixEj = comdat any

$_ZN10ref_vectorI4expr11ast_managerE11element_refC2ERPS0_RS1_ = comdat any

$_ZNK6vectorIP4exprLb0EjE4sizeEv = comdat any

$_ZNK6vectorIP4exprLb0EjE4dataEv = comdat any

$_ZN15ref_vector_coreI4expr19ref_manager_wrapperIS0_11ast_managerEED2Ev = comdat any

$_ZN15ref_vector_coreI4expr19ref_manager_wrapperIS0_11ast_managerEE13dec_range_refEPKPS0_S7_ = comdat any

$_ZN10ptr_vectorI4exprED2Ev = comdat any

$_ZN15ref_vector_coreI4expr19ref_manager_wrapperIS0_11ast_managerEE7dec_refEPS0_ = comdat any

$_ZN19ref_manager_wrapperI4expr11ast_managerE7dec_refEPS0_ = comdat any

$_ZN6vectorIP4exprLb0EjED2Ev = comdat any

$_ZN6vectorIP4exprLb0EjE7destroyEv = comdat any

$_ZN6vectorIP4exprLb0EjE11free_memoryEv = comdat any

$_ZN6vectorIjLb0EjE6resizeEj = comdat any

$_ZN6vectorIjLb0EjE6shrinkEj = comdat any

$_ZNK6vectorIjLb0EjE8capacityEv = comdat any

$_ZNK8uint_set5beginEv = comdat any

$_ZNK8uint_set3endEv = comdat any

$_ZNK8uint_set8iteratorneERKS0_ = comdat any

$_ZNK8uint_set8iteratordeEv = comdat any

$_ZNK8uint_set8containsEj = comdat any

$_ZN8uint_set8iteratorppEv = comdat any

$_ZN8uint_set8iteratorC2ERKS_b = comdat any

$_ZNK8uint_set12get_max_elemEv = comdat any

$_ZN8uint_set8iterator4scanEv = comdat any

$_ZN8uint_set8iterator8scan_idxEv = comdat any

$_ZNK8uint_set8iterator8containsEv = comdat any

$_ZNK8uint_set8iterator6at_endEv = comdat any

$_ZN8uint_set8iterator9scan_wordEv = comdat any

$_ZNK6vectorIjLb0EjEixEj = comdat any

$_ZN14core_hashtableIN7obj_mapI4expr7svectorIjjEE13obj_map_entryE8obj_hashINS4_8key_dataEE10default_eqIS7_EEC2EjRKS8_RKSA_ = comdat any

$_ZN14core_hashtableIN7obj_mapI4expr7svectorIjjEE13obj_map_entryE8obj_hashINS4_8key_dataEE10default_eqIS7_EE11alloc_tableEj = comdat any

$_Z10alloc_vectIN7obj_mapI4expr7svectorIjjEE13obj_map_entryEEPT_j = comdat any

$_ZN7obj_mapI4expr7svectorIjjEE13obj_map_entryC2Ev = comdat any

$_ZN7obj_mapI4expr7svectorIjjEE8key_dataC2Ev = comdat any

$_ZN7obj_refI4expr11ast_managerE5resetEv = comdat any

$_ZNK11ast_manager6is_iteEPK4exprRPS0_S4_S4_ = comdat any

$_ZNK11ast_manager6is_iteEPK4expr = comdat any

$_Z6to_appPK3ast = comdat any

$_ZNK3app7get_argEj = comdat any

$_Z9is_app_ofPK4exprii = comdat any

$_ZNK3ast8get_kindEv = comdat any

$_ZNK3app9is_app_ofEii = comdat any

$_ZNK4decl10is_decl_ofEii = comdat any

$_ZNK9decl_info10is_decl_ofEii = comdat any

$_ZNK11ast_manager5is_eqEPK4exprRPS0_S4_ = comdat any

$_ZNK17array_recognizers11is_as_arrayEP4expr = comdat any

$_Z6to_appP3ast = comdat any

$_ZNK3refI5modelEptEv = comdat any

$_ZNK10model_core15get_func_interpEP9func_decl = comdat any

$_ZNK11func_interp11num_entriesEv = comdat any

$_ZNK11func_interp9get_entryEj = comdat any

$_ZNK11func_interp9get_arityEv = comdat any

$_ZNK10func_entry7get_argEj = comdat any

$_ZNK10func_entry8get_argsEv = comdat any

$_ZNK10func_entry10get_resultEv = comdat any

$_ZNK11ast_manager5is_eqEPK4expr = comdat any

$_ZNK3app12get_num_argsEv = comdat any

$_ZNK7obj_mapI9func_declP11func_interpE4findEPS0_RS2_ = comdat any

$_ZNK7obj_mapI9func_declP11func_interpE9find_coreEPS0_ = comdat any

$_ZN7obj_mapI9func_declP11func_interpE13obj_map_entry8get_dataEv = comdat any

$_ZNK14core_hashtableIN7obj_mapI9func_declP11func_interpE13obj_map_entryE8obj_hashINS4_8key_dataEE10default_eqIS7_EE9find_coreERKS7_ = comdat any

$_ZN7obj_mapI9func_declP11func_interpE8key_dataC2EPS0_ = comdat any

$_ZNK14core_hashtableIN7obj_mapI9func_declP11func_interpE13obj_map_entryE8obj_hashINS4_8key_dataEE10default_eqIS7_EE8get_hashERKS7_ = comdat any

$_ZNK7obj_mapI9func_declP11func_interpE13obj_map_entry7is_usedEv = comdat any

$_ZNK7obj_mapI9func_declP11func_interpE13obj_map_entry8get_hashEv = comdat any

$_ZNK14core_hashtableIN7obj_mapI9func_declP11func_interpE13obj_map_entryE8obj_hashINS4_8key_dataEE10default_eqIS7_EE6equalsERKS7_SD_ = comdat any

$_ZNK7obj_mapI9func_declP11func_interpE13obj_map_entry7is_freeEv = comdat any

$_ZNK8obj_hashIN7obj_mapI9func_declP11func_interpE8key_dataEEclERKS5_ = comdat any

$_ZNK7obj_mapI9func_declP11func_interpE8key_data4hashEv = comdat any

$_ZNK10default_eqIN7obj_mapI9func_declP11func_interpE8key_dataEEclERKS5_S8_ = comdat any

$_ZNK7obj_mapI9func_declP11func_interpE8key_dataeqERKS4_ = comdat any

$_ZNK6vectorIP10func_entryLb0EjE4sizeEv = comdat any

$_ZNK6vectorIP10func_entryLb0EjEixEj = comdat any

$_ZN14core_hashtableIN7obj_mapI4expr7svectorIjjEE13obj_map_entryE8obj_hashINS4_8key_dataEE10default_eqIS7_EE20insert_if_not_there2ERKS7_ = comdat any

$_ZN7obj_mapI4expr7svectorIjjEE8key_dataC2EPS0_RKS2_ = comdat any

$_ZN7obj_mapI4expr7svectorIjjEE13obj_map_entry8get_dataEv = comdat any

$_ZN7obj_mapI4expr7svectorIjjEE8key_dataD2Ev = comdat any

$_ZN14core_hashtableIN7obj_mapI4expr7svectorIjjEE13obj_map_entryE8obj_hashINS4_8key_dataEE10default_eqIS7_EE24insert_if_not_there_coreERKS7_RPS5_ = comdat any

$_ZN7obj_mapI4expr7svectorIjjEE8key_dataC2ERKS4_ = comdat any

$_ZN14core_hashtableIN7obj_mapI4expr7svectorIjjEE13obj_map_entryE8obj_hashINS4_8key_dataEE10default_eqIS7_EE24insert_if_not_there_coreEOS7_RPS5_ = comdat any

$_ZN7svectorIjjEC2ERKS0_ = comdat any

$_ZN6vectorIjLb0EjEC2ERKS0_ = comdat any

$_ZN6vectorIjLb0EjE9copy_coreERKS0_ = comdat any

$_ZSt18uninitialized_copyIPKjPjET0_T_S4_S3_ = comdat any

$_ZNK6vectorIjLb0EjE5beginEv = comdat any

$_ZNK6vectorIjLb0EjE3endEv = comdat any

$_ZN6vectorIjLb0EjE5beginEv = comdat any

$_ZNSt20__uninitialized_copyILb1EE13__uninit_copyIPKjPjEET0_T_S6_S5_ = comdat any

$_ZSt4copyIPKjPjET0_T_S4_S3_ = comdat any

$_ZSt13__copy_move_aILb0EPKjPjET1_T0_S4_S3_ = comdat any

$_ZSt12__miter_baseIPKjET_S2_ = comdat any

$_ZSt12__niter_wrapIPjET_RKS1_S1_ = comdat any

$_ZSt14__copy_move_a1ILb0EPKjPjET1_T0_S4_S3_ = comdat any

$_ZSt12__niter_baseIPKjET_S2_ = comdat any

$_ZSt12__niter_baseIPjET_S1_ = comdat any

$_ZSt14__copy_move_a2ILb0EPKjPjET1_T0_S4_S3_ = comdat any

$_ZNSt11__copy_moveILb0ELb1ESt26random_access_iterator_tagE8__copy_mIjEEPT_PKS3_S6_S4_ = comdat any

$_ZN14core_hashtableIN7obj_mapI4expr7svectorIjjEE13obj_map_entryE8obj_hashINS4_8key_dataEE10default_eqIS7_EE12expand_tableEv = comdat any

$_ZNK14core_hashtableIN7obj_mapI4expr7svectorIjjEE13obj_map_entryE8obj_hashINS4_8key_dataEE10default_eqIS7_EE8get_hashERKS7_ = comdat any

$_ZNK7obj_mapI4expr7svectorIjjEE13obj_map_entry7is_usedEv = comdat any

$_ZNK7obj_mapI4expr7svectorIjjEE13obj_map_entry8get_hashEv = comdat any

$_ZNK14core_hashtableIN7obj_mapI4expr7svectorIjjEE13obj_map_entryE8obj_hashINS4_8key_dataEE10default_eqIS7_EE6equalsERKS7_SD_ = comdat any

$_ZNK7obj_mapI4expr7svectorIjjEE13obj_map_entry7is_freeEv = comdat any

$_ZN7obj_mapI4expr7svectorIjjEE13obj_map_entry8set_dataEONS3_8key_dataE = comdat any

$_ZN7obj_mapI4expr7svectorIjjEE13obj_map_entry8set_hashEj = comdat any

$_ZN14core_hashtableIN7obj_mapI4expr7svectorIjjEE13obj_map_entryE8obj_hashINS4_8key_dataEE10default_eqIS7_EE10move_tableEPS5_jSC_j = comdat any

$_ZN14core_hashtableIN7obj_mapI4expr7svectorIjjEE13obj_map_entryE8obj_hashINS4_8key_dataEE10default_eqIS7_EE12delete_tableEv = comdat any

$_ZN7obj_mapI4expr7svectorIjjEE13obj_map_entryaSEOS4_ = comdat any

$_ZN7obj_mapI4expr7svectorIjjEE8key_dataaSEOS4_ = comdat any

$_ZN7svectorIjjEaSEOS0_ = comdat any

$_ZN6vectorIjLb0EjEaSEOS0_ = comdat any

$_ZSt4swapIPjENSt9enable_ifIXsr6__and_ISt6__not_ISt15__is_tuple_likeIT_EESt21is_move_constructibleIS4_ESt18is_move_assignableIS4_EEE5valueEvE4typeERS4_SD_ = comdat any

$_Z12dealloc_vectIN7obj_mapI4expr7svectorIjjEE13obj_map_entryEEvPT_j = comdat any

$_ZN7obj_mapI4expr7svectorIjjEE13obj_map_entryD2Ev = comdat any

$_ZNK8obj_hashIN7obj_mapI4expr7svectorIjjEE8key_dataEEclERKS5_ = comdat any

$_ZNK7obj_mapI4expr7svectorIjjEE8key_data4hashEv = comdat any

$_ZNK10default_eqIN7obj_mapI4expr7svectorIjjEE8key_dataEEclERKS5_S8_ = comdat any

$_ZNK7obj_mapI4expr7svectorIjjEE8key_dataeqERKS4_ = comdat any

$_ZNK11ast_manager9get_eq_opEPK4expr = comdat any

$_ZSt4swapIjENSt9enable_ifIXsr6__and_ISt6__not_ISt15__is_tuple_likeIT_EESt21is_move_constructibleIS3_ESt18is_move_assignableIS3_EEE5valueEvE4typeERS3_SC_ = comdat any

$_ZN22union_find_default_ctx8merge_ehEjjjj = comdat any

$_ZN11trail_stack4pushIN10union_findI22union_find_default_ctxS2_E11merge_trailEEEvRKT_ = comdat any

$_ZN10union_findI22union_find_default_ctxS0_E11merge_trailC2ERS1_j = comdat any

$_ZN10union_findI22union_find_default_ctxS0_E11merge_trailD2Ev = comdat any

$_ZN22union_find_default_ctx14after_merge_ehEjjjj = comdat any

$_ZN6vectorIP5trailLb0EjE9push_backEOS1_ = comdat any

$_ZnwmR6region = comdat any

$_ZN10union_findI22union_find_default_ctxS0_E11merge_trailC2ERKS2_ = comdat any

$_ZN5trailC2ERKS_ = comdat any

$_ZN10union_findI22union_find_default_ctxS0_E11merge_trailD0Ev = comdat any

$_ZN10union_findI22union_find_default_ctxS0_E11merge_trail4undoEv = comdat any

$_ZN10union_findI22union_find_default_ctxS0_E7unmergeEj = comdat any

$_ZN22union_find_default_ctx10unmerge_ehEjj = comdat any

$_ZN14core_hashtableIN7obj_mapI4expr7svectorIjjEE13obj_map_entryE8obj_hashINS4_8key_dataEE10default_eqIS7_EED2Ev = comdat any

$_ZN3refI5modelE7dec_refEv = comdat any

$_ZN10model_core7dec_refEv = comdat any

$_Z7deallocI10model_coreEvPT_ = comdat any

$_ZNSt6chronomiINS_3_V212steady_clockENS_8durationIlSt5ratioILl1ELl1000000000EEEES6_EENSt11common_typeIJT0_T1_EE4typeERKNS_10time_pointIT_S8_EERKNSC_ISD_S9_EE = comdat any

$_ZNSt6chrono8durationIlSt5ratioILl1ELl1000000000EEEpLERKS3_ = comdat any

$_ZNSt6chronomiIlSt5ratioILl1ELl1000000000EElS2_EENSt11common_typeIJNS_8durationIT_T0_EENS4_IT1_T2_EEEE4typeERKS7_RKSA_ = comdat any

$_ZNKSt6chrono10time_pointINS_3_V212steady_clockENS_8durationIlSt5ratioILl1ELl1000000000EEEEE16time_since_epochEv = comdat any

$_ZNKSt6chrono8durationIlSt5ratioILl1ELl1000000000EEE5countEv = comdat any

$_ZNSt6chrono13duration_castINS_8durationIlSt5ratioILl1ELl1000EEEElS2_ILl1ELl1000000000EEEENSt9enable_ifIXsr13__is_durationIT_EE5valueES7_E4typeERKNS1_IT0_T1_EE = comdat any

$_ZNKSt6chrono8durationIlSt5ratioILl1ELl1000EEE5countEv = comdat any

$_ZNSt6chrono20__duration_cast_implINS_8durationIlSt5ratioILl1ELl1000EEEES2_ILl1ELl1000000EElLb1ELb0EE6__castIlS2_ILl1ELl1000000000EEEES4_RKNS1_IT_T0_EE = comdat any

$_ZNSt6chrono8durationIlSt5ratioILl1ELl1000EEEC2IlvEERKT_ = comdat any

$_ZTVN10union_findI22union_find_default_ctxS0_E12mk_var_trailE = comdat any

$_ZTSN10union_findI22union_find_default_ctxS0_E12mk_var_trailE = comdat any

$_ZTS5trail = comdat any

$_ZTI5trail = comdat any

$_ZTIN10union_findI22union_find_default_ctxS0_E12mk_var_trailE = comdat any

$_ZTV5trail = comdat any

$_ZTSSt18bad_variant_access = comdat any

$_ZTISt18bad_variant_access = comdat any

$_ZTVSt18bad_variant_access = comdat any

$_ZTVN10union_findI22union_find_default_ctxS0_E11merge_trailE = comdat any

$_ZTSN10union_findI22union_find_default_ctxS0_E11merge_trailE = comdat any

$_ZTIN10union_findI22union_find_default_ctxS0_E11merge_trailE = comdat any

@_ZStL8__ioinit = internal global %"class.std::ios_base::Init" zeroinitializer, align 1
@__dso_handle = external hidden global i8
@_ZN12_GLOBAL__N_127get_implied_equalities_impl7s_timerE = internal global %class.stopwatch zeroinitializer, align 8
@_ZN12_GLOBAL__N_127get_implied_equalities_impl20s_stats_val_eq_timerE = internal global %class.stopwatch zeroinitializer, align 8
@_ZTVN10union_findI22union_find_default_ctxS0_E12mk_var_trailE = linkonce_odr hidden unnamed_addr constant { [5 x ptr] } { [5 x ptr] [ptr null, ptr @_ZTIN10union_findI22union_find_default_ctxS0_E12mk_var_trailE, ptr @_ZN10union_findI22union_find_default_ctxS0_E12mk_var_trailD2Ev, ptr @_ZN10union_findI22union_find_default_ctxS0_E12mk_var_trailD0Ev, ptr @_ZN10union_findI22union_find_default_ctxS0_E12mk_var_trail4undoEv] }, comdat, align 8
@_ZTVN10__cxxabiv120__si_class_type_infoE = external global [0 x ptr]
@_ZTSN10union_findI22union_find_default_ctxS0_E12mk_var_trailE = linkonce_odr hidden constant [58 x i8] c"N10union_findI22union_find_default_ctxS0_E12mk_var_trailE\00", comdat, align 1
@_ZTVN10__cxxabiv117__class_type_infoE = external global [0 x ptr]
@_ZTS5trail = linkonce_odr hidden constant [7 x i8] c"5trail\00", comdat, align 1
@_ZTI5trail = linkonce_odr hidden constant { ptr, ptr } { ptr getelementptr inbounds (ptr, ptr @_ZTVN10__cxxabiv117__class_type_infoE, i64 2), ptr @_ZTS5trail }, comdat, align 8
@_ZTIN10union_findI22union_find_default_ctxS0_E12mk_var_trailE = linkonce_odr hidden constant { ptr, ptr, ptr } { ptr getelementptr inbounds (ptr, ptr @_ZTVN10__cxxabiv120__si_class_type_infoE, i64 2), ptr @_ZTSN10union_findI22union_find_default_ctxS0_E12mk_var_trailE, ptr @_ZTI5trail }, comdat, align 8
@_ZTV5trail = linkonce_odr hidden unnamed_addr constant { [5 x ptr] } { [5 x ptr] [ptr null, ptr @_ZTI5trail, ptr @_ZN5trailD2Ev, ptr @_ZN5trailD0Ev, ptr @__cxa_pure_virtual] }, comdat, align 8
@.str = private unnamed_addr constant [15 x i8] c"produce_models\00", align 1
@.str.3 = private unnamed_addr constant [2 x i8] c"\09\00", align 1
@.str.4 = private unnamed_addr constant [2 x i8] c"\0A\00", align 1
@.str.5 = private unnamed_addr constant [43 x i8] c"Overflow encountered when expanding vector\00", align 1
@_ZTI17default_exception = external constant ptr
@.str.6 = private unnamed_addr constant [50 x i8] c"basic_string: construction from null is not valid\00", align 1
@_ZTV17default_exception = external unnamed_addr constant { [6 x ptr] }, align 8
@_ZTV12z3_exception = external unnamed_addr constant { [6 x ptr] }, align 8
@.str.7 = private unnamed_addr constant [10 x i8] c"Relevant!\00", align 1
@.str.8 = private unnamed_addr constant [104 x i8] c"generated/home/dtcxzyw/WorkSpace/Projects/compilers/llvm-opt-benchmark/bench/z3/z3/src/util/hashtable.h\00", align 1
@.str.9 = private unnamed_addr constant [29 x i8] c"UNEXPECTED CODE WAS REACHED.\00", align 1
@.str.10 = private unnamed_addr constant [6 x i8] c"index\00", align 1
@.str.11 = private unnamed_addr constant [118 x i8] c"generated/home/dtcxzyw/WorkSpace/Projects/compilers/llvm-opt-benchmark/bench/z3/z3/src/smt/smt_implied_equalities.cpp\00", align 1
@.str.12 = private unnamed_addr constant [60 x i8] c"Failed to verify: m_solver.check_sat(0,nullptr) != l_false\0A\00", align 1
@.str.13 = private unnamed_addr constant [31 x i8] c"std::get: variant is valueless\00", align 1
@.str.14 = private unnamed_addr constant [34 x i8] c"std::get: wrong index for variant\00", align 1
@_ZTSSt18bad_variant_access = linkonce_odr constant [23 x i8] c"St18bad_variant_access\00", comdat, align 1
@_ZTISt9exception = external constant ptr
@_ZTISt18bad_variant_access = linkonce_odr constant { ptr, ptr, ptr } { ptr getelementptr inbounds (ptr, ptr @_ZTVN10__cxxabiv120__si_class_type_infoE, i64 2), ptr @_ZTSSt18bad_variant_access, ptr @_ZTISt9exception }, comdat, align 8
@_ZTVSt18bad_variant_access = linkonce_odr unnamed_addr constant { [5 x ptr] } { [5 x ptr] [ptr null, ptr @_ZTISt18bad_variant_access, ptr @_ZNSt18bad_variant_accessD2Ev, ptr @_ZNSt18bad_variant_accessD0Ev, ptr @_ZNKSt18bad_variant_access4whatEv] }, comdat, align 8
@_ZTVSt9exception = external unnamed_addr constant { [5 x ptr] }, align 8
@_ZN6symbol4nullE = external global %class.symbol, align 8
@_ZTVN10union_findI22union_find_default_ctxS0_E11merge_trailE = linkonce_odr hidden unnamed_addr constant { [5 x ptr] } { [5 x ptr] [ptr null, ptr @_ZTIN10union_findI22union_find_default_ctxS0_E11merge_trailE, ptr @_ZN10union_findI22union_find_default_ctxS0_E11merge_trailD2Ev, ptr @_ZN10union_findI22union_find_default_ctxS0_E11merge_trailD0Ev, ptr @_ZN10union_findI22union_find_default_ctxS0_E11merge_trail4undoEv] }, comdat, align 8
@_ZTSN10union_findI22union_find_default_ctxS0_E11merge_trailE = linkonce_odr hidden constant [57 x i8] c"N10union_findI22union_find_default_ctxS0_E11merge_trailE\00", comdat, align 1
@_ZTIN10union_findI22union_find_default_ctxS0_E11merge_trailE = linkonce_odr hidden constant { ptr, ptr, ptr } { ptr getelementptr inbounds (ptr, ptr @_ZTVN10__cxxabiv120__si_class_type_infoE, i64 2), ptr @_ZTSN10union_findI22union_find_default_ctxS0_E11merge_trailE, ptr @_ZTI5trail }, comdat, align 8
@llvm.global_ctors = appending global [1 x { i32, ptr, ptr }] [{ i32, ptr, ptr } { i32 65535, ptr @_GLOBAL__sub_I_smt_implied_equalities.cpp, ptr null }]

; Function Attrs: uwtable
define internal void @__cxx_global_var_init() #0 section ".text.startup" {
entry:
  call void @_ZNSt8ios_base4InitC1Ev(ptr noundef nonnull align 1 dereferenceable(1) @_ZStL8__ioinit)
  %0 = call i32 @__cxa_atexit(ptr @_ZNSt8ios_base4InitD1Ev, ptr @_ZStL8__ioinit, ptr @__dso_handle) #3
  ret void
}

declare void @_ZNSt8ios_base4InitC1Ev(ptr noundef nonnull align 1 dereferenceable(1)) unnamed_addr #1

; Function Attrs: nounwind
declare void @_ZNSt8ios_base4InitD1Ev(ptr noundef nonnull align 1 dereferenceable(1)) unnamed_addr #2

; Function Attrs: nounwind
declare i32 @__cxa_atexit(ptr, ptr, ptr) #3

; Function Attrs: uwtable
define internal void @__cxx_global_var_init.1() #0 section ".text.startup" {
entry:
  call void @_ZN9stopwatchC2Ev(ptr noundef nonnull align 8 dereferenceable(17) @_ZN12_GLOBAL__N_127get_implied_equalities_impl7s_timerE)
  ret void
}

; Function Attrs: mustprogress uwtable
define linkonce_odr hidden void @_ZN9stopwatchC2Ev(ptr noundef nonnull align 8 dereferenceable(17) %this) unnamed_addr #4 comdat align 2 {
entry:
  %this.addr = alloca ptr, align 8
  store ptr %this, ptr %this.addr, align 8
  %this1 = load ptr, ptr %this.addr, align 8
  %m_start = getelementptr inbounds %class.stopwatch, ptr %this1, i32 0, i32 0
  call void @_ZNSt6chrono10time_pointINS_3_V212steady_clockENS_8durationIlSt5ratioILl1ELl1000000000EEEEEC2Ev(ptr noundef nonnull align 8 dereferenceable(8) %m_start)
  %m_running = getelementptr inbounds %class.stopwatch, ptr %this1, i32 0, i32 2
  store i8 0, ptr %m_running, align 8
  call void @_ZN9stopwatch5resetEv(ptr noundef nonnull align 8 dereferenceable(17) %this1)
  ret void
}

; Function Attrs: uwtable
define internal void @__cxx_global_var_init.2() #0 section ".text.startup" {
entry:
  call void @_ZN9stopwatchC2Ev(ptr noundef nonnull align 8 dereferenceable(17) @_ZN12_GLOBAL__N_127get_implied_equalities_impl20s_stats_val_eq_timerE)
  ret void
}

; Function Attrs: mustprogress uwtable
define hidden noundef i32 @_ZN3smt18implied_equalitiesER11ast_managerR6solverjPKP4exprPj(ptr noundef nonnull align 8 dereferenceable(976) %m, ptr noundef nonnull align 8 dereferenceable(96) %solver, i32 noundef %num_terms, ptr noundef %terms, ptr noundef %class_ids) #4 personality ptr @__gxx_personality_v0 {
entry:
  %m.addr = alloca ptr, align 8
  %solver.addr = alloca ptr, align 8
  %num_terms.addr = alloca i32, align 4
  %terms.addr = alloca ptr, align 8
  %class_ids.addr = alloca ptr, align 8
  %gi = alloca %"class.(anonymous namespace)::get_implied_equalities_impl", align 8
  %exn.slot = alloca ptr, align 8
  %ehselector.slot = alloca i32, align 4
  store ptr %m, ptr %m.addr, align 8
  store ptr %solver, ptr %solver.addr, align 8
  store i32 %num_terms, ptr %num_terms.addr, align 4
  store ptr %terms, ptr %terms.addr, align 8
  store ptr %class_ids, ptr %class_ids.addr, align 8
  %0 = load ptr, ptr %m.addr, align 8
  %1 = load ptr, ptr %solver.addr, align 8
  call void @_ZN12_GLOBAL__N_127get_implied_equalities_implC2ER11ast_managerR6solver(ptr noundef nonnull align 8 dereferenceable(200) %gi, ptr noundef nonnull align 8 dereferenceable(976) %0, ptr noundef nonnull align 8 dereferenceable(96) %1)
  %2 = load i32, ptr %num_terms.addr, align 4
  %3 = load ptr, ptr %terms.addr, align 8
  %4 = load ptr, ptr %class_ids.addr, align 8
  %call = invoke noundef i32 @_ZN12_GLOBAL__N_127get_implied_equalities_implclEjPKP4exprPj(ptr noundef nonnull align 8 dereferenceable(200) %gi, i32 noundef %2, ptr noundef %3, ptr noundef %4)
          to label %invoke.cont unwind label %lpad

invoke.cont:                                      ; preds = %entry
  call void @_ZN12_GLOBAL__N_127get_implied_equalities_implD2Ev(ptr noundef nonnull align 8 dereferenceable(200) %gi) #3
  ret i32 %call

lpad:                                             ; preds = %entry
  %5 = landingpad { ptr, i32 }
          cleanup
  %6 = extractvalue { ptr, i32 } %5, 0
  store ptr %6, ptr %exn.slot, align 8
  %7 = extractvalue { ptr, i32 } %5, 1
  store i32 %7, ptr %ehselector.slot, align 4
  call void @_ZN12_GLOBAL__N_127get_implied_equalities_implD2Ev(ptr noundef nonnull align 8 dereferenceable(200) %gi) #3
  br label %eh.resume

eh.resume:                                        ; preds = %lpad
  %exn = load ptr, ptr %exn.slot, align 8
  %sel = load i32, ptr %ehselector.slot, align 4
  %lpad.val = insertvalue { ptr, i32 } poison, ptr %exn, 0
  %lpad.val1 = insertvalue { ptr, i32 } %lpad.val, i32 %sel, 1
  resume { ptr, i32 } %lpad.val1
}

; Function Attrs: mustprogress uwtable
define internal void @_ZN12_GLOBAL__N_127get_implied_equalities_implC2ER11ast_managerR6solver(ptr noundef nonnull align 8 dereferenceable(200) %this, ptr noundef nonnull align 8 dereferenceable(976) %m, ptr noundef nonnull align 8 dereferenceable(96) %s) unnamed_addr #4 align 2 personality ptr @__gxx_personality_v0 {
entry:
  %this.addr = alloca ptr, align 8
  %m.addr = alloca ptr, align 8
  %s.addr = alloca ptr, align 8
  %exn.slot = alloca ptr, align 8
  %ehselector.slot = alloca i32, align 4
  store ptr %this, ptr %this.addr, align 8
  store ptr %m, ptr %m.addr, align 8
  store ptr %s, ptr %s.addr, align 8
  %this1 = load ptr, ptr %this.addr, align 8
  %m2 = getelementptr inbounds %"class.(anonymous namespace)::get_implied_equalities_impl", ptr %this1, i32 0, i32 0
  %0 = load ptr, ptr %m.addr, align 8
  store ptr %0, ptr %m2, align 8
  %m_solver = getelementptr inbounds %"class.(anonymous namespace)::get_implied_equalities_impl", ptr %this1, i32 0, i32 1
  %1 = load ptr, ptr %s.addr, align 8
  store ptr %1, ptr %m_solver, align 8
  %m_df = getelementptr inbounds %"class.(anonymous namespace)::get_implied_equalities_impl", ptr %this1, i32 0, i32 2
  call void @_ZN22union_find_default_ctxC2Ev(ptr noundef nonnull align 8 dereferenceable(56) %m_df)
  %m_uf = getelementptr inbounds %"class.(anonymous namespace)::get_implied_equalities_impl", ptr %this1, i32 0, i32 3
  %m_df3 = getelementptr inbounds %"class.(anonymous namespace)::get_implied_equalities_impl", ptr %this1, i32 0, i32 2
  invoke void @_ZN10union_findI22union_find_default_ctxS0_EC2ERS0_(ptr noundef nonnull align 8 dereferenceable(56) %m_uf, ptr noundef nonnull align 8 dereferenceable(56) %m_df3)
          to label %invoke.cont unwind label %lpad

invoke.cont:                                      ; preds = %entry
  %m_array_util = getelementptr inbounds %"class.(anonymous namespace)::get_implied_equalities_impl", ptr %this1, i32 0, i32 4
  %2 = load ptr, ptr %m.addr, align 8
  invoke void @_ZN10array_utilC1ER11ast_manager(ptr noundef nonnull align 8 dereferenceable(16) %m_array_util, ptr noundef nonnull align 8 dereferenceable(976) %2)
          to label %invoke.cont5 unwind label %lpad4

invoke.cont5:                                     ; preds = %invoke.cont
  %m_stats_timer = getelementptr inbounds %"class.(anonymous namespace)::get_implied_equalities_impl", ptr %this1, i32 0, i32 5
  invoke void @_ZN9stopwatchC2Ev(ptr noundef nonnull align 8 dereferenceable(17) %m_stats_timer)
          to label %invoke.cont6 unwind label %lpad4

invoke.cont6:                                     ; preds = %invoke.cont5
  %m_stats_calls = getelementptr inbounds %"class.(anonymous namespace)::get_implied_equalities_impl", ptr %this1, i32 0, i32 6
  store i32 0, ptr %m_stats_calls, align 8
  %m_stats_val_eq_timer = getelementptr inbounds %"class.(anonymous namespace)::get_implied_equalities_impl", ptr %this1, i32 0, i32 8
  invoke void @_ZN9stopwatchC2Ev(ptr noundef nonnull align 8 dereferenceable(17) %m_stats_val_eq_timer)
          to label %invoke.cont7 unwind label %lpad4

invoke.cont7:                                     ; preds = %invoke.cont6
  ret void

lpad:                                             ; preds = %entry
  %3 = landingpad { ptr, i32 }
          cleanup
  %4 = extractvalue { ptr, i32 } %3, 0
  store ptr %4, ptr %exn.slot, align 8
  %5 = extractvalue { ptr, i32 } %3, 1
  store i32 %5, ptr %ehselector.slot, align 4
  br label %ehcleanup

lpad4:                                            ; preds = %invoke.cont6, %invoke.cont5, %invoke.cont
  %6 = landingpad { ptr, i32 }
          cleanup
  %7 = extractvalue { ptr, i32 } %6, 0
  store ptr %7, ptr %exn.slot, align 8
  %8 = extractvalue { ptr, i32 } %6, 1
  store i32 %8, ptr %ehselector.slot, align 4
  call void @_ZN10union_findI22union_find_default_ctxS0_ED2Ev(ptr noundef nonnull align 8 dereferenceable(56) %m_uf) #3
  br label %ehcleanup

ehcleanup:                                        ; preds = %lpad4, %lpad
  call void @_ZN22union_find_default_ctxD2Ev(ptr noundef nonnull align 8 dereferenceable(56) %m_df) #3
  br label %eh.resume

eh.resume:                                        ; preds = %ehcleanup
  %exn = load ptr, ptr %exn.slot, align 8
  %sel = load i32, ptr %ehselector.slot, align 4
  %lpad.val = insertvalue { ptr, i32 } poison, ptr %exn, 0
  %lpad.val8 = insertvalue { ptr, i32 } %lpad.val, i32 %sel, 1
  resume { ptr, i32 } %lpad.val8
}

; Function Attrs: mustprogress uwtable
define internal noundef i32 @_ZN12_GLOBAL__N_127get_implied_equalities_implclEjPKP4exprPj(ptr noundef nonnull align 8 dereferenceable(200) %this, i32 noundef %num_terms, ptr noundef %terms, ptr noundef %class_ids) #4 align 2 personality ptr @__gxx_personality_v0 {
entry:
  %this.addr = alloca ptr, align 8
  %num_terms.addr = alloca i32, align 4
  %terms.addr = alloca ptr, align 8
  %class_ids.addr = alloca ptr, align 8
  %p = alloca %class.params_ref, align 8
  %exn.slot = alloca ptr, align 8
  %ehselector.slot = alloca i32, align 4
  %termids = alloca %class.obj_map.30, align 8
  %timer = alloca %class.stopwatch, align 8
  %i = alloca i32, align 4
  %is_sat = alloca i32, align 4
  %model = alloca %class.ref.35, align 8
  %it = alloca %"class.core_hashtable<obj_map<sort, vector<(anonymous namespace)::get_implied_equalities_impl::term_id>>::obj_map_entry, obj_hash<obj_map<sort, vector<(anonymous namespace)::get_implied_equalities_impl::term_id>>::key_data>, default_eq<obj_map<sort, vector<(anonymous namespace)::get_implied_equalities_impl::term_id>>::key_data>>::iterator", align 8
  %end = alloca %"class.core_hashtable<obj_map<sort, vector<(anonymous namespace)::get_implied_equalities_impl::term_id>>::obj_map_entry, obj_hash<obj_map<sort, vector<(anonymous namespace)::get_implied_equalities_impl::term_id>>::key_data>, default_eq<obj_map<sort, vector<(anonymous namespace)::get_implied_equalities_impl::term_id>>::key_data>>::iterator", align 8
  %term_ids = alloca ptr, align 8
  %i34 = alloca i32, align 4
  store ptr %this, ptr %this.addr, align 8
  store i32 %num_terms, ptr %num_terms.addr, align 4
  store ptr %terms, ptr %terms.addr, align 8
  store ptr %class_ids, ptr %class_ids.addr, align 8
  %this1 = load ptr, ptr %this.addr, align 8
  call void @_ZN10params_refC2Ev(ptr noundef nonnull align 8 dereferenceable(8) %p)
  invoke void @_ZN10params_ref8set_boolEPKcb(ptr noundef nonnull align 8 dereferenceable(8) %p, ptr noundef @.str, i1 noundef zeroext true)
          to label %invoke.cont unwind label %lpad

invoke.cont:                                      ; preds = %entry
  %m_solver = getelementptr inbounds %"class.(anonymous namespace)::get_implied_equalities_impl", ptr %this1, i32 0, i32 1
  %0 = load ptr, ptr %m_solver, align 8
  %vtable = load ptr, ptr %0, align 8
  %vfn = getelementptr inbounds ptr, ptr %vtable, i64 11
  %1 = load ptr, ptr %vfn, align 8
  invoke void %1(ptr noundef nonnull align 8 dereferenceable(96) %0, ptr noundef nonnull align 8 dereferenceable(8) %p)
          to label %invoke.cont2 unwind label %lpad

invoke.cont2:                                     ; preds = %invoke.cont
  invoke void @_ZN7obj_mapI4sort6vectorIN12_GLOBAL__N_127get_implied_equalities_impl7term_idELb1EjEEC2Ev(ptr noundef nonnull align 8 dereferenceable(24) %termids)
          to label %invoke.cont3 unwind label %lpad

invoke.cont3:                                     ; preds = %invoke.cont2
  invoke void @_ZN9stopwatchC2Ev(ptr noundef nonnull align 8 dereferenceable(17) %timer)
          to label %invoke.cont5 unwind label %lpad4

invoke.cont5:                                     ; preds = %invoke.cont3
  invoke void @_ZN9stopwatch5startEv(ptr noundef nonnull align 8 dereferenceable(17) %timer)
          to label %invoke.cont6 unwind label %lpad4

invoke.cont6:                                     ; preds = %invoke.cont5
  invoke void @_ZN9stopwatch5startEv(ptr noundef nonnull align 8 dereferenceable(17) @_ZN12_GLOBAL__N_127get_implied_equalities_impl7s_timerE)
          to label %invoke.cont7 unwind label %lpad4

invoke.cont7:                                     ; preds = %invoke.cont6
  store i32 0, ptr %i, align 4
  br label %for.cond

for.cond:                                         ; preds = %for.inc, %invoke.cont7
  %2 = load i32, ptr %i, align 4
  %3 = load i32, ptr %num_terms.addr, align 4
  %cmp = icmp ult i32 %2, %3
  br i1 %cmp, label %for.body, label %for.end

for.body:                                         ; preds = %for.cond
  %m_uf = getelementptr inbounds %"class.(anonymous namespace)::get_implied_equalities_impl", ptr %this1, i32 0, i32 3
  %call = invoke noundef i32 @_ZN10union_findI22union_find_default_ctxS0_E6mk_varEv(ptr noundef nonnull align 8 dereferenceable(56) %m_uf)
          to label %invoke.cont8 unwind label %lpad4

invoke.cont8:                                     ; preds = %for.body
  br label %for.inc

for.inc:                                          ; preds = %invoke.cont8
  %4 = load i32, ptr %i, align 4
  %inc = add i32 %4, 1
  store i32 %inc, ptr %i, align 4
  br label %for.cond, !llvm.loop !4

lpad:                                             ; preds = %invoke.cont2, %invoke.cont, %entry
  %5 = landingpad { ptr, i32 }
          cleanup
  %6 = extractvalue { ptr, i32 } %5, 0
  store ptr %6, ptr %exn.slot, align 8
  %7 = extractvalue { ptr, i32 } %5, 1
  store i32 %7, ptr %ehselector.slot, align 4
  br label %ehcleanup155

lpad4:                                            ; preds = %invoke.cont149, %invoke.cont147, %invoke.cont145, %invoke.cont143, %invoke.cont141, %invoke.cont138, %invoke.cont136, %invoke.cont134, %invoke.cont131, %invoke.cont129, %invoke.cont126, %invoke.cont124, %invoke.cont122, %invoke.cont120, %invoke.cont118, %invoke.cont116, %invoke.cont114, %invoke.cont112, %invoke.cont110, %if.else, %invoke.cont107, %invoke.cont105, %invoke.cont103, %invoke.cont101, %invoke.cont99, %invoke.cont97, %invoke.cont95, %invoke.cont93, %invoke.cont91, %invoke.cont89, %invoke.cont87, %invoke.cont85, %invoke.cont83, %invoke.cont81, %invoke.cont79, %invoke.cont77, %invoke.cont75, %invoke.cont73, %invoke.cont71, %invoke.cont69, %invoke.cont68, %if.then67, %if.then64, %invoke.cont60, %invoke.cont59, %invoke.cont58, %if.end, %if.then, %invoke.cont13, %invoke.cont12, %for.end, %for.body, %invoke.cont6, %invoke.cont5, %invoke.cont3
  %8 = landingpad { ptr, i32 }
          cleanup
  %9 = extractvalue { ptr, i32 } %8, 0
  store ptr %9, ptr %exn.slot, align 8
  %10 = extractvalue { ptr, i32 } %8, 1
  store i32 %10, ptr %ehselector.slot, align 4
  br label %ehcleanup

for.end:                                          ; preds = %for.cond
  %m_solver9 = getelementptr inbounds %"class.(anonymous namespace)::get_implied_equalities_impl", ptr %this1, i32 0, i32 1
  %11 = load ptr, ptr %m_solver9, align 8
  %vtable10 = load ptr, ptr %11, align 8
  %vfn11 = getelementptr inbounds ptr, ptr %vtable10, i64 24
  %12 = load ptr, ptr %vfn11, align 8
  invoke void %12(ptr noundef nonnull align 8 dereferenceable(96) %11)
          to label %invoke.cont12 unwind label %lpad4

invoke.cont12:                                    ; preds = %for.end
  %13 = load i32, ptr %num_terms.addr, align 4
  %14 = load ptr, ptr %terms.addr, align 8
  invoke void @_ZN12_GLOBAL__N_127get_implied_equalities_impl15assert_relevantEjPKP4expr(ptr noundef nonnull align 8 dereferenceable(200) %this1, i32 noundef %13, ptr noundef %14)
          to label %invoke.cont13 unwind label %lpad4

invoke.cont13:                                    ; preds = %invoke.cont12
  %m_solver14 = getelementptr inbounds %"class.(anonymous namespace)::get_implied_equalities_impl", ptr %this1, i32 0, i32 1
  %15 = load ptr, ptr %m_solver14, align 8
  %call16 = invoke noundef i32 @_ZN6solver9check_satEjPKP4expr(ptr noundef nonnull align 8 dereferenceable(96) %15, i32 noundef 0, ptr noundef null)
          to label %invoke.cont15 unwind label %lpad4

invoke.cont15:                                    ; preds = %invoke.cont13
  store i32 %call16, ptr %is_sat, align 4
  %16 = load i32, ptr %is_sat, align 4
  %cmp17 = icmp ne i32 %16, -1
  br i1 %cmp17, label %if.then, label %if.end

if.then:                                          ; preds = %invoke.cont15
  invoke void @_ZN3refI5modelEC2Ev(ptr noundef nonnull align 8 dereferenceable(8) %model)
          to label %invoke.cont18 unwind label %lpad4

invoke.cont18:                                    ; preds = %if.then
  %m_solver19 = getelementptr inbounds %"class.(anonymous namespace)::get_implied_equalities_impl", ptr %this1, i32 0, i32 1
  %17 = load ptr, ptr %m_solver19, align 8
  invoke void @_ZN16check_sat_result9get_modelER3refI5modelE(ptr noundef nonnull align 8 dereferenceable(72) %17, ptr noundef nonnull align 8 dereferenceable(8) %model)
          to label %invoke.cont21 unwind label %lpad20

invoke.cont21:                                    ; preds = %invoke.cont18
  %18 = load i32, ptr %num_terms.addr, align 4
  %19 = load ptr, ptr %terms.addr, align 8
  invoke void @_ZN12_GLOBAL__N_127get_implied_equalities_impl15partition_termsEjPKP4exprR7obj_mapI4sort6vectorINS0_7term_idELb1EjEE(ptr noundef nonnull align 8 dereferenceable(200) %this1, i32 noundef %18, ptr noundef %19, ptr noundef nonnull align 8 dereferenceable(24) %termids)
          to label %invoke.cont22 unwind label %lpad20

invoke.cont22:                                    ; preds = %invoke.cont21
  %call24 = invoke { ptr, ptr } @_ZNK7obj_mapI4sort6vectorIN12_GLOBAL__N_127get_implied_equalities_impl7term_idELb1EjEE5beginEv(ptr noundef nonnull align 8 dereferenceable(24) %termids)
          to label %invoke.cont23 unwind label %lpad20

invoke.cont23:                                    ; preds = %invoke.cont22
  %20 = getelementptr inbounds { ptr, ptr }, ptr %it, i32 0, i32 0
  %21 = extractvalue { ptr, ptr } %call24, 0
  store ptr %21, ptr %20, align 8
  %22 = getelementptr inbounds { ptr, ptr }, ptr %it, i32 0, i32 1
  %23 = extractvalue { ptr, ptr } %call24, 1
  store ptr %23, ptr %22, align 8
  %call26 = invoke { ptr, ptr } @_ZNK7obj_mapI4sort6vectorIN12_GLOBAL__N_127get_implied_equalities_impl7term_idELb1EjEE3endEv(ptr noundef nonnull align 8 dereferenceable(24) %termids)
          to label %invoke.cont25 unwind label %lpad20

invoke.cont25:                                    ; preds = %invoke.cont23
  %24 = getelementptr inbounds { ptr, ptr }, ptr %end, i32 0, i32 0
  %25 = extractvalue { ptr, ptr } %call26, 0
  store ptr %25, ptr %24, align 8
  %26 = getelementptr inbounds { ptr, ptr }, ptr %end, i32 0, i32 1
  %27 = extractvalue { ptr, ptr } %call26, 1
  store ptr %27, ptr %26, align 8
  br label %for.cond27

for.cond27:                                       ; preds = %invoke.cont52, %invoke.cont25
  %call29 = invoke noundef zeroext i1 @_ZNK14core_hashtableIN7obj_mapI4sort6vectorIN12_GLOBAL__N_127get_implied_equalities_impl7term_idELb1EjEE13obj_map_entryE8obj_hashINS7_8key_dataEE10default_eqISA_EE8iteratorneERKSF_(ptr noundef nonnull align 8 dereferenceable(16) %it, ptr noundef nonnull align 8 dereferenceable(16) %end)
          to label %invoke.cont28 unwind label %lpad20

invoke.cont28:                                    ; preds = %for.cond27
  br i1 %call29, label %for.body30, label %for.end54

for.body30:                                       ; preds = %invoke.cont28
  %call32 = invoke noundef ptr @_ZN14core_hashtableIN7obj_mapI4sort6vectorIN12_GLOBAL__N_127get_implied_equalities_impl7term_idELb1EjEE13obj_map_entryE8obj_hashINS7_8key_dataEE10default_eqISA_EE8iteratorptEv(ptr noundef nonnull align 8 dereferenceable(16) %it)
          to label %invoke.cont31 unwind label %lpad20

invoke.cont31:                                    ; preds = %for.body30
  %m_value = getelementptr inbounds %"struct.obj_map<sort, vector<(anonymous namespace)::get_implied_equalities_impl::term_id>>::key_data", ptr %call32, i32 0, i32 1
  store ptr %m_value, ptr %term_ids, align 8
  %28 = load ptr, ptr %term_ids, align 8
  invoke void @_ZN12_GLOBAL__N_127get_implied_equalities_impl27get_implied_equalities_coreER3refI5modelER6vectorINS0_7term_idELb1EjE(ptr noundef nonnull align 8 dereferenceable(200) %this1, ptr noundef nonnull align 8 dereferenceable(8) %model, ptr noundef nonnull align 8 dereferenceable(8) %28)
          to label %invoke.cont33 unwind label %lpad20

invoke.cont33:                                    ; preds = %invoke.cont31
  store i32 0, ptr %i34, align 4
  br label %for.cond35

for.cond35:                                       ; preds = %for.inc48, %invoke.cont33
  %29 = load i32, ptr %i34, align 4
  %30 = load ptr, ptr %term_ids, align 8
  %call37 = invoke noundef i32 @_ZNK6vectorIN12_GLOBAL__N_127get_implied_equalities_impl7term_idELb1EjE4sizeEv(ptr noundef nonnull align 8 dereferenceable(8) %30)
          to label %invoke.cont36 unwind label %lpad20

invoke.cont36:                                    ; preds = %for.cond35
  %cmp38 = icmp ult i32 %29, %call37
  br i1 %cmp38, label %for.body39, label %for.end50

for.body39:                                       ; preds = %invoke.cont36
  %m_uf40 = getelementptr inbounds %"class.(anonymous namespace)::get_implied_equalities_impl", ptr %this1, i32 0, i32 3
  %31 = load ptr, ptr %term_ids, align 8
  %32 = load i32, ptr %i34, align 4
  %call42 = invoke noundef nonnull align 8 dereferenceable(20) ptr @_ZN6vectorIN12_GLOBAL__N_127get_implied_equalities_impl7term_idELb1EjEixEj(ptr noundef nonnull align 8 dereferenceable(8) %31, i32 noundef %32)
          to label %invoke.cont41 unwind label %lpad20

invoke.cont41:                                    ; preds = %for.body39
  %id = getelementptr inbounds %"struct.(anonymous namespace)::get_implied_equalities_impl::term_id", ptr %call42, i32 0, i32 1
  %33 = load i32, ptr %id, align 8
  %call44 = invoke noundef i32 @_ZNK10union_findI22union_find_default_ctxS0_E4findEj(ptr noundef nonnull align 8 dereferenceable(56) %m_uf40, i32 noundef %33)
          to label %invoke.cont43 unwind label %lpad20

invoke.cont43:                                    ; preds = %invoke.cont41
  %34 = load ptr, ptr %class_ids.addr, align 8
  %35 = load ptr, ptr %term_ids, align 8
  %36 = load i32, ptr %i34, align 4
  %call46 = invoke noundef nonnull align 8 dereferenceable(20) ptr @_ZN6vectorIN12_GLOBAL__N_127get_implied_equalities_impl7term_idELb1EjEixEj(ptr noundef nonnull align 8 dereferenceable(8) %35, i32 noundef %36)
          to label %invoke.cont45 unwind label %lpad20

invoke.cont45:                                    ; preds = %invoke.cont43
  %id47 = getelementptr inbounds %"struct.(anonymous namespace)::get_implied_equalities_impl::term_id", ptr %call46, i32 0, i32 1
  %37 = load i32, ptr %id47, align 8
  %idxprom = zext i32 %37 to i64
  %arrayidx = getelementptr inbounds i32, ptr %34, i64 %idxprom
  store i32 %call44, ptr %arrayidx, align 4
  br label %for.inc48

for.inc48:                                        ; preds = %invoke.cont45
  %38 = load i32, ptr %i34, align 4
  %inc49 = add i32 %38, 1
  store i32 %inc49, ptr %i34, align 4
  br label %for.cond35, !llvm.loop !6

lpad20:                                           ; preds = %for.inc51, %invoke.cont43, %invoke.cont41, %for.body39, %for.cond35, %invoke.cont31, %for.body30, %for.cond27, %invoke.cont23, %invoke.cont22, %invoke.cont21, %invoke.cont18
  %39 = landingpad { ptr, i32 }
          cleanup
  %40 = extractvalue { ptr, i32 } %39, 0
  store ptr %40, ptr %exn.slot, align 8
  %41 = extractvalue { ptr, i32 } %39, 1
  store i32 %41, ptr %ehselector.slot, align 4
  call void @_ZN3refI5modelED2Ev(ptr noundef nonnull align 8 dereferenceable(8) %model) #3
  br label %ehcleanup

for.end50:                                        ; preds = %invoke.cont36
  br label %for.inc51

for.inc51:                                        ; preds = %for.end50
  %call53 = invoke noundef nonnull align 8 dereferenceable(16) ptr @_ZN14core_hashtableIN7obj_mapI4sort6vectorIN12_GLOBAL__N_127get_implied_equalities_impl7term_idELb1EjEE13obj_map_entryE8obj_hashINS7_8key_dataEE10default_eqISA_EE8iteratorppEv(ptr noundef nonnull align 8 dereferenceable(16) %it)
          to label %invoke.cont52 unwind label %lpad20

invoke.cont52:                                    ; preds = %for.inc51
  br label %for.cond27, !llvm.loop !7

for.end54:                                        ; preds = %invoke.cont28
  call void @_ZN3refI5modelED2Ev(ptr noundef nonnull align 8 dereferenceable(8) %model) #3
  br label %if.end

if.end:                                           ; preds = %for.end54, %invoke.cont15
  %m_solver55 = getelementptr inbounds %"class.(anonymous namespace)::get_implied_equalities_impl", ptr %this1, i32 0, i32 1
  %42 = load ptr, ptr %m_solver55, align 8
  %vtable56 = load ptr, ptr %42, align 8
  %vfn57 = getelementptr inbounds ptr, ptr %vtable56, i64 25
  %43 = load ptr, ptr %vfn57, align 8
  invoke void %43(ptr noundef nonnull align 8 dereferenceable(96) %42, i32 noundef 1)
          to label %invoke.cont58 unwind label %lpad4

invoke.cont58:                                    ; preds = %if.end
  invoke void @_ZN9stopwatch4stopEv(ptr noundef nonnull align 8 dereferenceable(17) %timer)
          to label %invoke.cont59 unwind label %lpad4

invoke.cont59:                                    ; preds = %invoke.cont58
  invoke void @_ZN9stopwatch4stopEv(ptr noundef nonnull align 8 dereferenceable(17) @_ZN12_GLOBAL__N_127get_implied_equalities_impl7s_timerE)
          to label %invoke.cont60 unwind label %lpad4

invoke.cont60:                                    ; preds = %invoke.cont59
  %call62 = invoke noundef i32 @_Z19get_verbosity_levelv()
          to label %invoke.cont61 unwind label %lpad4

invoke.cont61:                                    ; preds = %invoke.cont60
  %cmp63 = icmp uge i32 %call62, 1
  br i1 %cmp63, label %if.then64, label %if.end154

if.then64:                                        ; preds = %invoke.cont61
  %call66 = invoke noundef zeroext i1 @_Z11is_threadedv()
          to label %invoke.cont65 unwind label %lpad4

invoke.cont65:                                    ; preds = %if.then64
  br i1 %call66, label %if.then67, label %if.else

if.then67:                                        ; preds = %invoke.cont65
  invoke void @_Z12verbose_lockv()
          to label %invoke.cont68 unwind label %lpad4

invoke.cont68:                                    ; preds = %if.then67
  %call70 = invoke noundef nonnull align 8 dereferenceable(8) ptr @_Z14verbose_streamv()
          to label %invoke.cont69 unwind label %lpad4

invoke.cont69:                                    ; preds = %invoke.cont68
  %call72 = invoke noundef double @_ZNK9stopwatch11get_secondsEv(ptr noundef nonnull align 8 dereferenceable(17) @_ZN12_GLOBAL__N_127get_implied_equalities_impl7s_timerE)
          to label %invoke.cont71 unwind label %lpad4

invoke.cont71:                                    ; preds = %invoke.cont69
  %call74 = invoke noundef nonnull align 8 dereferenceable(8) ptr @_ZNSolsEd(ptr noundef nonnull align 8 dereferenceable(8) %call70, double noundef %call72)
          to label %invoke.cont73 unwind label %lpad4

invoke.cont73:                                    ; preds = %invoke.cont71
  %call76 = invoke noundef nonnull align 8 dereferenceable(8) ptr @_ZStlsISt11char_traitsIcEERSt13basic_ostreamIcT_ES5_PKc(ptr noundef nonnull align 8 dereferenceable(8) %call74, ptr noundef @.str.3)
          to label %invoke.cont75 unwind label %lpad4

invoke.cont75:                                    ; preds = %invoke.cont73
  %44 = load i32, ptr %num_terms.addr, align 4
  %call78 = invoke noundef nonnull align 8 dereferenceable(8) ptr @_ZNSolsEj(ptr noundef nonnull align 8 dereferenceable(8) %call76, i32 noundef %44)
          to label %invoke.cont77 unwind label %lpad4

invoke.cont77:                                    ; preds = %invoke.cont75
  %call80 = invoke noundef nonnull align 8 dereferenceable(8) ptr @_ZStlsISt11char_traitsIcEERSt13basic_ostreamIcT_ES5_PKc(ptr noundef nonnull align 8 dereferenceable(8) %call78, ptr noundef @.str.3)
          to label %invoke.cont79 unwind label %lpad4

invoke.cont79:                                    ; preds = %invoke.cont77
  %call82 = invoke noundef double @_ZNK9stopwatch11get_secondsEv(ptr noundef nonnull align 8 dereferenceable(17) %timer)
          to label %invoke.cont81 unwind label %lpad4

invoke.cont81:                                    ; preds = %invoke.cont79
  %call84 = invoke noundef nonnull align 8 dereferenceable(8) ptr @_ZNSolsEd(ptr noundef nonnull align 8 dereferenceable(8) %call80, double noundef %call82)
          to label %invoke.cont83 unwind label %lpad4

invoke.cont83:                                    ; preds = %invoke.cont81
  %call86 = invoke noundef nonnull align 8 dereferenceable(8) ptr @_ZStlsISt11char_traitsIcEERSt13basic_ostreamIcT_ES5_PKc(ptr noundef nonnull align 8 dereferenceable(8) %call84, ptr noundef @.str.3)
          to label %invoke.cont85 unwind label %lpad4

invoke.cont85:                                    ; preds = %invoke.cont83
  %m_stats_calls = getelementptr inbounds %"class.(anonymous namespace)::get_implied_equalities_impl", ptr %this1, i32 0, i32 6
  %45 = load i32, ptr %m_stats_calls, align 8
  %call88 = invoke noundef nonnull align 8 dereferenceable(8) ptr @_ZNSolsEj(ptr noundef nonnull align 8 dereferenceable(8) %call86, i32 noundef %45)
          to label %invoke.cont87 unwind label %lpad4

invoke.cont87:                                    ; preds = %invoke.cont85
  %call90 = invoke noundef nonnull align 8 dereferenceable(8) ptr @_ZStlsISt11char_traitsIcEERSt13basic_ostreamIcT_ES5_PKc(ptr noundef nonnull align 8 dereferenceable(8) %call88, ptr noundef @.str.3)
          to label %invoke.cont89 unwind label %lpad4

invoke.cont89:                                    ; preds = %invoke.cont87
  %m_stats_timer = getelementptr inbounds %"class.(anonymous namespace)::get_implied_equalities_impl", ptr %this1, i32 0, i32 5
  %call92 = invoke noundef double @_ZNK9stopwatch11get_secondsEv(ptr noundef nonnull align 8 dereferenceable(17) %m_stats_timer)
          to label %invoke.cont91 unwind label %lpad4

invoke.cont91:                                    ; preds = %invoke.cont89
  %call94 = invoke noundef nonnull align 8 dereferenceable(8) ptr @_ZNSolsEd(ptr noundef nonnull align 8 dereferenceable(8) %call90, double noundef %call92)
          to label %invoke.cont93 unwind label %lpad4

invoke.cont93:                                    ; preds = %invoke.cont91
  %call96 = invoke noundef nonnull align 8 dereferenceable(8) ptr @_ZStlsISt11char_traitsIcEERSt13basic_ostreamIcT_ES5_PKc(ptr noundef nonnull align 8 dereferenceable(8) %call94, ptr noundef @.str.3)
          to label %invoke.cont95 unwind label %lpad4

invoke.cont95:                                    ; preds = %invoke.cont93
  %m_stats_val_eq_timer = getelementptr inbounds %"class.(anonymous namespace)::get_implied_equalities_impl", ptr %this1, i32 0, i32 8
  %call98 = invoke noundef double @_ZNK9stopwatch11get_secondsEv(ptr noundef nonnull align 8 dereferenceable(17) %m_stats_val_eq_timer)
          to label %invoke.cont97 unwind label %lpad4

invoke.cont97:                                    ; preds = %invoke.cont95
  %call100 = invoke noundef nonnull align 8 dereferenceable(8) ptr @_ZNSolsEd(ptr noundef nonnull align 8 dereferenceable(8) %call96, double noundef %call98)
          to label %invoke.cont99 unwind label %lpad4

invoke.cont99:                                    ; preds = %invoke.cont97
  %call102 = invoke noundef nonnull align 8 dereferenceable(8) ptr @_ZStlsISt11char_traitsIcEERSt13basic_ostreamIcT_ES5_PKc(ptr noundef nonnull align 8 dereferenceable(8) %call100, ptr noundef @.str.3)
          to label %invoke.cont101 unwind label %lpad4

invoke.cont101:                                   ; preds = %invoke.cont99
  %call104 = invoke noundef double @_ZNK9stopwatch11get_secondsEv(ptr noundef nonnull align 8 dereferenceable(17) @_ZN12_GLOBAL__N_127get_implied_equalities_impl20s_stats_val_eq_timerE)
          to label %invoke.cont103 unwind label %lpad4

invoke.cont103:                                   ; preds = %invoke.cont101
  %call106 = invoke noundef nonnull align 8 dereferenceable(8) ptr @_ZNSolsEd(ptr noundef nonnull align 8 dereferenceable(8) %call102, double noundef %call104)
          to label %invoke.cont105 unwind label %lpad4

invoke.cont105:                                   ; preds = %invoke.cont103
  %call108 = invoke noundef nonnull align 8 dereferenceable(8) ptr @_ZStlsISt11char_traitsIcEERSt13basic_ostreamIcT_ES5_PKc(ptr noundef nonnull align 8 dereferenceable(8) %call106, ptr noundef @.str.4)
          to label %invoke.cont107 unwind label %lpad4

invoke.cont107:                                   ; preds = %invoke.cont105
  invoke void @_Z14verbose_unlockv()
          to label %invoke.cont109 unwind label %lpad4

invoke.cont109:                                   ; preds = %invoke.cont107
  br label %if.end153

if.else:                                          ; preds = %invoke.cont65
  %call111 = invoke noundef nonnull align 8 dereferenceable(8) ptr @_Z14verbose_streamv()
          to label %invoke.cont110 unwind label %lpad4

invoke.cont110:                                   ; preds = %if.else
  %call113 = invoke noundef double @_ZNK9stopwatch11get_secondsEv(ptr noundef nonnull align 8 dereferenceable(17) @_ZN12_GLOBAL__N_127get_implied_equalities_impl7s_timerE)
          to label %invoke.cont112 unwind label %lpad4

invoke.cont112:                                   ; preds = %invoke.cont110
  %call115 = invoke noundef nonnull align 8 dereferenceable(8) ptr @_ZNSolsEd(ptr noundef nonnull align 8 dereferenceable(8) %call111, double noundef %call113)
          to label %invoke.cont114 unwind label %lpad4

invoke.cont114:                                   ; preds = %invoke.cont112
  %call117 = invoke noundef nonnull align 8 dereferenceable(8) ptr @_ZStlsISt11char_traitsIcEERSt13basic_ostreamIcT_ES5_PKc(ptr noundef nonnull align 8 dereferenceable(8) %call115, ptr noundef @.str.3)
          to label %invoke.cont116 unwind label %lpad4

invoke.cont116:                                   ; preds = %invoke.cont114
  %46 = load i32, ptr %num_terms.addr, align 4
  %call119 = invoke noundef nonnull align 8 dereferenceable(8) ptr @_ZNSolsEj(ptr noundef nonnull align 8 dereferenceable(8) %call117, i32 noundef %46)
          to label %invoke.cont118 unwind label %lpad4

invoke.cont118:                                   ; preds = %invoke.cont116
  %call121 = invoke noundef nonnull align 8 dereferenceable(8) ptr @_ZStlsISt11char_traitsIcEERSt13basic_ostreamIcT_ES5_PKc(ptr noundef nonnull align 8 dereferenceable(8) %call119, ptr noundef @.str.3)
          to label %invoke.cont120 unwind label %lpad4

invoke.cont120:                                   ; preds = %invoke.cont118
  %call123 = invoke noundef double @_ZNK9stopwatch11get_secondsEv(ptr noundef nonnull align 8 dereferenceable(17) %timer)
          to label %invoke.cont122 unwind label %lpad4

invoke.cont122:                                   ; preds = %invoke.cont120
  %call125 = invoke noundef nonnull align 8 dereferenceable(8) ptr @_ZNSolsEd(ptr noundef nonnull align 8 dereferenceable(8) %call121, double noundef %call123)
          to label %invoke.cont124 unwind label %lpad4

invoke.cont124:                                   ; preds = %invoke.cont122
  %call127 = invoke noundef nonnull align 8 dereferenceable(8) ptr @_ZStlsISt11char_traitsIcEERSt13basic_ostreamIcT_ES5_PKc(ptr noundef nonnull align 8 dereferenceable(8) %call125, ptr noundef @.str.3)
          to label %invoke.cont126 unwind label %lpad4

invoke.cont126:                                   ; preds = %invoke.cont124
  %m_stats_calls128 = getelementptr inbounds %"class.(anonymous namespace)::get_implied_equalities_impl", ptr %this1, i32 0, i32 6
  %47 = load i32, ptr %m_stats_calls128, align 8
  %call130 = invoke noundef nonnull align 8 dereferenceable(8) ptr @_ZNSolsEj(ptr noundef nonnull align 8 dereferenceable(8) %call127, i32 noundef %47)
          to label %invoke.cont129 unwind label %lpad4

invoke.cont129:                                   ; preds = %invoke.cont126
  %call132 = invoke noundef nonnull align 8 dereferenceable(8) ptr @_ZStlsISt11char_traitsIcEERSt13basic_ostreamIcT_ES5_PKc(ptr noundef nonnull align 8 dereferenceable(8) %call130, ptr noundef @.str.3)
          to label %invoke.cont131 unwind label %lpad4

invoke.cont131:                                   ; preds = %invoke.cont129
  %m_stats_timer133 = getelementptr inbounds %"class.(anonymous namespace)::get_implied_equalities_impl", ptr %this1, i32 0, i32 5
  %call135 = invoke noundef double @_ZNK9stopwatch11get_secondsEv(ptr noundef nonnull align 8 dereferenceable(17) %m_stats_timer133)
          to label %invoke.cont134 unwind label %lpad4

invoke.cont134:                                   ; preds = %invoke.cont131
  %call137 = invoke noundef nonnull align 8 dereferenceable(8) ptr @_ZNSolsEd(ptr noundef nonnull align 8 dereferenceable(8) %call132, double noundef %call135)
          to label %invoke.cont136 unwind label %lpad4

invoke.cont136:                                   ; preds = %invoke.cont134
  %call139 = invoke noundef nonnull align 8 dereferenceable(8) ptr @_ZStlsISt11char_traitsIcEERSt13basic_ostreamIcT_ES5_PKc(ptr noundef nonnull align 8 dereferenceable(8) %call137, ptr noundef @.str.3)
          to label %invoke.cont138 unwind label %lpad4

invoke.cont138:                                   ; preds = %invoke.cont136
  %m_stats_val_eq_timer140 = getelementptr inbounds %"class.(anonymous namespace)::get_implied_equalities_impl", ptr %this1, i32 0, i32 8
  %call142 = invoke noundef double @_ZNK9stopwatch11get_secondsEv(ptr noundef nonnull align 8 dereferenceable(17) %m_stats_val_eq_timer140)
          to label %invoke.cont141 unwind label %lpad4

invoke.cont141:                                   ; preds = %invoke.cont138
  %call144 = invoke noundef nonnull align 8 dereferenceable(8) ptr @_ZNSolsEd(ptr noundef nonnull align 8 dereferenceable(8) %call139, double noundef %call142)
          to label %invoke.cont143 unwind label %lpad4

invoke.cont143:                                   ; preds = %invoke.cont141
  %call146 = invoke noundef nonnull align 8 dereferenceable(8) ptr @_ZStlsISt11char_traitsIcEERSt13basic_ostreamIcT_ES5_PKc(ptr noundef nonnull align 8 dereferenceable(8) %call144, ptr noundef @.str.3)
          to label %invoke.cont145 unwind label %lpad4

invoke.cont145:                                   ; preds = %invoke.cont143
  %call148 = invoke noundef double @_ZNK9stopwatch11get_secondsEv(ptr noundef nonnull align 8 dereferenceable(17) @_ZN12_GLOBAL__N_127get_implied_equalities_impl20s_stats_val_eq_timerE)
          to label %invoke.cont147 unwind label %lpad4

invoke.cont147:                                   ; preds = %invoke.cont145
  %call150 = invoke noundef nonnull align 8 dereferenceable(8) ptr @_ZNSolsEd(ptr noundef nonnull align 8 dereferenceable(8) %call146, double noundef %call148)
          to label %invoke.cont149 unwind label %lpad4

invoke.cont149:                                   ; preds = %invoke.cont147
  %call152 = invoke noundef nonnull align 8 dereferenceable(8) ptr @_ZStlsISt11char_traitsIcEERSt13basic_ostreamIcT_ES5_PKc(ptr noundef nonnull align 8 dereferenceable(8) %call150, ptr noundef @.str.4)
          to label %invoke.cont151 unwind label %lpad4

invoke.cont151:                                   ; preds = %invoke.cont149
  br label %if.end153

if.end153:                                        ; preds = %invoke.cont151, %invoke.cont109
  br label %if.end154

if.end154:                                        ; preds = %if.end153, %invoke.cont61
  %48 = load i32, ptr %is_sat, align 4
  call void @_ZN7obj_mapI4sort6vectorIN12_GLOBAL__N_127get_implied_equalities_impl7term_idELb1EjEED2Ev(ptr noundef nonnull align 8 dereferenceable(24) %termids) #3
  call void @_ZN10params_refD1Ev(ptr noundef nonnull align 8 dereferenceable(8) %p) #3
  ret i32 %48

ehcleanup:                                        ; preds = %lpad20, %lpad4
  call void @_ZN7obj_mapI4sort6vectorIN12_GLOBAL__N_127get_implied_equalities_impl7term_idELb1EjEED2Ev(ptr noundef nonnull align 8 dereferenceable(24) %termids) #3
  br label %ehcleanup155

ehcleanup155:                                     ; preds = %ehcleanup, %lpad
  call void @_ZN10params_refD1Ev(ptr noundef nonnull align 8 dereferenceable(8) %p) #3
  br label %eh.resume

eh.resume:                                        ; preds = %ehcleanup155
  %exn = load ptr, ptr %exn.slot, align 8
  %sel = load i32, ptr %ehselector.slot, align 4
  %lpad.val = insertvalue { ptr, i32 } poison, ptr %exn, 0
  %lpad.val156 = insertvalue { ptr, i32 } %lpad.val, i32 %sel, 1
  resume { ptr, i32 } %lpad.val156
}

declare i32 @__gxx_personality_v0(...)

; Function Attrs: mustprogress nounwind uwtable
define internal void @_ZN12_GLOBAL__N_127get_implied_equalities_implD2Ev(ptr noundef nonnull align 8 dereferenceable(200) %this) unnamed_addr #5 align 2 {
entry:
  %this.addr = alloca ptr, align 8
  store ptr %this, ptr %this.addr, align 8
  %this1 = load ptr, ptr %this.addr, align 8
  %m_uf = getelementptr inbounds %"class.(anonymous namespace)::get_implied_equalities_impl", ptr %this1, i32 0, i32 3
  call void @_ZN10union_findI22union_find_default_ctxS0_ED2Ev(ptr noundef nonnull align 8 dereferenceable(56) %m_uf) #3
  %m_df = getelementptr inbounds %"class.(anonymous namespace)::get_implied_equalities_impl", ptr %this1, i32 0, i32 2
  call void @_ZN22union_find_default_ctxD2Ev(ptr noundef nonnull align 8 dereferenceable(56) %m_df) #3
  ret void
}

; Function Attrs: mustprogress nounwind uwtable
define linkonce_odr hidden void @_ZNSt6chrono10time_pointINS_3_V212steady_clockENS_8durationIlSt5ratioILl1ELl1000000000EEEEEC2Ev(ptr noundef nonnull align 8 dereferenceable(8) %this) unnamed_addr #5 comdat align 2 {
entry:
  %this.addr = alloca ptr, align 8
  store ptr %this, ptr %this.addr, align 8
  %this1 = load ptr, ptr %this.addr, align 8
  %__d = getelementptr inbounds %"class.std::chrono::time_point", ptr %this1, i32 0, i32 0
  %call = call i64 @_ZNSt6chrono8durationIlSt5ratioILl1ELl1000000000EEE4zeroEv() #3
  %coerce.dive = getelementptr inbounds %"class.std::chrono::duration", ptr %__d, i32 0, i32 0
  store i64 %call, ptr %coerce.dive, align 8
  ret void
}

; Function Attrs: mustprogress nounwind uwtable
define linkonce_odr hidden void @_ZN9stopwatch5resetEv(ptr noundef nonnull align 8 dereferenceable(17) %this) #5 comdat align 2 {
entry:
  %this.addr = alloca ptr, align 8
  %ref.tmp = alloca %"class.std::chrono::duration", align 8
  store ptr %this, ptr %this.addr, align 8
  %this1 = load ptr, ptr %this.addr, align 8
  %call = call i64 @_ZNSt6chrono8durationIlSt5ratioILl1ELl1000000000EEE4zeroEv() #3
  %coerce.dive = getelementptr inbounds %"class.std::chrono::duration", ptr %ref.tmp, i32 0, i32 0
  store i64 %call, ptr %coerce.dive, align 8
  %m_elapsed = getelementptr inbounds %class.stopwatch, ptr %this1, i32 0, i32 1
  call void @llvm.memcpy.p0.p0.i64(ptr align 8 %m_elapsed, ptr align 8 %ref.tmp, i64 8, i1 false)
  ret void
}

; Function Attrs: mustprogress nounwind uwtable
define linkonce_odr hidden i64 @_ZNSt6chrono8durationIlSt5ratioILl1ELl1000000000EEE4zeroEv() #5 comdat align 2 personality ptr @__gxx_personality_v0 {
entry:
  %retval = alloca %"class.std::chrono::duration", align 8
  %ref.tmp = alloca i64, align 8
  %call = call noundef i64 @_ZNSt6chrono15duration_valuesIlE4zeroEv() #3
  store i64 %call, ptr %ref.tmp, align 8
  invoke void @_ZNSt6chrono8durationIlSt5ratioILl1ELl1000000000EEEC2IlvEERKT_(ptr noundef nonnull align 8 dereferenceable(8) %retval, ptr noundef nonnull align 8 dereferenceable(8) %ref.tmp)
          to label %invoke.cont unwind label %terminate.lpad

invoke.cont:                                      ; preds = %entry
  %coerce.dive = getelementptr inbounds %"class.std::chrono::duration", ptr %retval, i32 0, i32 0
  %0 = load i64, ptr %coerce.dive, align 8
  ret i64 %0

terminate.lpad:                                   ; preds = %entry
  %1 = landingpad { ptr, i32 }
          catch ptr null
  %2 = extractvalue { ptr, i32 } %1, 0
  call void @__clang_call_terminate(ptr %2) #14
  unreachable
}

; Function Attrs: mustprogress nounwind uwtable
define linkonce_odr hidden noundef i64 @_ZNSt6chrono15duration_valuesIlE4zeroEv() #5 comdat align 2 {
entry:
  ret i64 0
}

; Function Attrs: mustprogress nounwind uwtable
define linkonce_odr hidden void @_ZNSt6chrono8durationIlSt5ratioILl1ELl1000000000EEEC2IlvEERKT_(ptr noundef nonnull align 8 dereferenceable(8) %this, ptr noundef nonnull align 8 dereferenceable(8) %__rep) unnamed_addr #5 comdat align 2 {
entry:
  %this.addr = alloca ptr, align 8
  %__rep.addr = alloca ptr, align 8
  store ptr %this, ptr %this.addr, align 8
  store ptr %__rep, ptr %__rep.addr, align 8
  %this1 = load ptr, ptr %this.addr, align 8
  %__r = getelementptr inbounds %"class.std::chrono::duration", ptr %this1, i32 0, i32 0
  %0 = load ptr, ptr %__rep.addr, align 8
  %1 = load i64, ptr %0, align 8
  store i64 %1, ptr %__r, align 8
  ret void
}

; Function Attrs: noreturn nounwind uwtable
define linkonce_odr hidden void @__clang_call_terminate(ptr noundef %0) #6 comdat {
  %2 = call ptr @__cxa_begin_catch(ptr %0) #3
  call void @_ZSt9terminatev() #14
  unreachable
}

declare ptr @__cxa_begin_catch(ptr)

declare void @_ZSt9terminatev()

; Function Attrs: nocallback nofree nounwind willreturn memory(argmem: readwrite)
declare void @llvm.memcpy.p0.p0.i64(ptr noalias nocapture writeonly, ptr noalias nocapture readonly, i64, i1 immarg) #7

; Function Attrs: mustprogress uwtable
define linkonce_odr hidden void @_ZN22union_find_default_ctxC2Ev(ptr noundef nonnull align 8 dereferenceable(56) %this) unnamed_addr #4 comdat align 2 {
entry:
  %this.addr = alloca ptr, align 8
  store ptr %this, ptr %this.addr, align 8
  %this1 = load ptr, ptr %this.addr, align 8
  %m_stack = getelementptr inbounds %class.union_find_default_ctx, ptr %this1, i32 0, i32 0
  call void @_ZN11trail_stackC2Ev(ptr noundef nonnull align 8 dereferenceable(56) %m_stack)
  ret void
}

; Function Attrs: mustprogress uwtable
define linkonce_odr hidden void @_ZN10union_findI22union_find_default_ctxS0_EC2ERS0_(ptr noundef nonnull align 8 dereferenceable(56) %this, ptr noundef nonnull align 8 dereferenceable(56) %ctx) unnamed_addr #4 comdat align 2 personality ptr @__gxx_personality_v0 {
entry:
  %this.addr = alloca ptr, align 8
  %ctx.addr = alloca ptr, align 8
  %exn.slot = alloca ptr, align 8
  %ehselector.slot = alloca i32, align 4
  store ptr %this, ptr %this.addr, align 8
  store ptr %ctx, ptr %ctx.addr, align 8
  %this1 = load ptr, ptr %this.addr, align 8
  %m_ctx = getelementptr inbounds %class.union_find, ptr %this1, i32 0, i32 0
  %0 = load ptr, ptr %ctx.addr, align 8
  store ptr %0, ptr %m_ctx, align 8
  %m_trail_stack = getelementptr inbounds %class.union_find, ptr %this1, i32 0, i32 1
  %1 = load ptr, ptr %ctx.addr, align 8
  %call = call noundef nonnull align 8 dereferenceable(56) ptr @_ZN22union_find_default_ctx15get_trail_stackEv(ptr noundef nonnull align 8 dereferenceable(56) %1)
  store ptr %call, ptr %m_trail_stack, align 8
  %m_find = getelementptr inbounds %class.union_find, ptr %this1, i32 0, i32 2
  call void @_ZN7svectorIjjEC2Ev(ptr noundef nonnull align 8 dereferenceable(8) %m_find)
  %m_size = getelementptr inbounds %class.union_find, ptr %this1, i32 0, i32 3
  invoke void @_ZN7svectorIjjEC2Ev(ptr noundef nonnull align 8 dereferenceable(8) %m_size)
          to label %invoke.cont unwind label %lpad

invoke.cont:                                      ; preds = %entry
  %m_next = getelementptr inbounds %class.union_find, ptr %this1, i32 0, i32 4
  invoke void @_ZN7svectorIjjEC2Ev(ptr noundef nonnull align 8 dereferenceable(8) %m_next)
          to label %invoke.cont3 unwind label %lpad2

invoke.cont3:                                     ; preds = %invoke.cont
  %m_mk_var_trail = getelementptr inbounds %class.union_find, ptr %this1, i32 0, i32 5
  invoke void @_ZN10union_findI22union_find_default_ctxS0_E12mk_var_trailC2ERS1_(ptr noundef nonnull align 8 dereferenceable(16) %m_mk_var_trail, ptr noundef nonnull align 8 dereferenceable(56) %this1)
          to label %invoke.cont5 unwind label %lpad4

invoke.cont5:                                     ; preds = %invoke.cont3
  ret void

lpad:                                             ; preds = %entry
  %2 = landingpad { ptr, i32 }
          cleanup
  %3 = extractvalue { ptr, i32 } %2, 0
  store ptr %3, ptr %exn.slot, align 8
  %4 = extractvalue { ptr, i32 } %2, 1
  store i32 %4, ptr %ehselector.slot, align 4
  br label %ehcleanup6

lpad2:                                            ; preds = %invoke.cont
  %5 = landingpad { ptr, i32 }
          cleanup
  %6 = extractvalue { ptr, i32 } %5, 0
  store ptr %6, ptr %exn.slot, align 8
  %7 = extractvalue { ptr, i32 } %5, 1
  store i32 %7, ptr %ehselector.slot, align 4
  br label %ehcleanup

lpad4:                                            ; preds = %invoke.cont3
  %8 = landingpad { ptr, i32 }
          cleanup
  %9 = extractvalue { ptr, i32 } %8, 0
  store ptr %9, ptr %exn.slot, align 8
  %10 = extractvalue { ptr, i32 } %8, 1
  store i32 %10, ptr %ehselector.slot, align 4
  call void @_ZN7svectorIjjED2Ev(ptr noundef nonnull align 8 dereferenceable(8) %m_next) #3
  br label %ehcleanup

ehcleanup:                                        ; preds = %lpad4, %lpad2
  call void @_ZN7svectorIjjED2Ev(ptr noundef nonnull align 8 dereferenceable(8) %m_size) #3
  br label %ehcleanup6

ehcleanup6:                                       ; preds = %ehcleanup, %lpad
  call void @_ZN7svectorIjjED2Ev(ptr noundef nonnull align 8 dereferenceable(8) %m_find) #3
  br label %eh.resume

eh.resume:                                        ; preds = %ehcleanup6
  %exn = load ptr, ptr %exn.slot, align 8
  %sel = load i32, ptr %ehselector.slot, align 4
  %lpad.val = insertvalue { ptr, i32 } poison, ptr %exn, 0
  %lpad.val7 = insertvalue { ptr, i32 } %lpad.val, i32 %sel, 1
  resume { ptr, i32 } %lpad.val7
}

declare void @_ZN10array_utilC1ER11ast_manager(ptr noundef nonnull align 8 dereferenceable(16), ptr noundef nonnull align 8 dereferenceable(976)) unnamed_addr #1

; Function Attrs: mustprogress nounwind uwtable
define linkonce_odr hidden void @_ZN10union_findI22union_find_default_ctxS0_ED2Ev(ptr noundef nonnull align 8 dereferenceable(56) %this) unnamed_addr #5 comdat align 2 {
entry:
  %this.addr = alloca ptr, align 8
  store ptr %this, ptr %this.addr, align 8
  %this1 = load ptr, ptr %this.addr, align 8
  %m_mk_var_trail = getelementptr inbounds %class.union_find, ptr %this1, i32 0, i32 5
  call void @_ZN10union_findI22union_find_default_ctxS0_E12mk_var_trailD2Ev(ptr noundef nonnull align 8 dereferenceable(16) %m_mk_var_trail) #3
  %m_next = getelementptr inbounds %class.union_find, ptr %this1, i32 0, i32 4
  call void @_ZN7svectorIjjED2Ev(ptr noundef nonnull align 8 dereferenceable(8) %m_next) #3
  %m_size = getelementptr inbounds %class.union_find, ptr %this1, i32 0, i32 3
  call void @_ZN7svectorIjjED2Ev(ptr noundef nonnull align 8 dereferenceable(8) %m_size) #3
  %m_find = getelementptr inbounds %class.union_find, ptr %this1, i32 0, i32 2
  call void @_ZN7svectorIjjED2Ev(ptr noundef nonnull align 8 dereferenceable(8) %m_find) #3
  ret void
}

; Function Attrs: mustprogress nounwind uwtable
define linkonce_odr hidden void @_ZN22union_find_default_ctxD2Ev(ptr noundef nonnull align 8 dereferenceable(56) %this) unnamed_addr #5 comdat align 2 {
entry:
  %this.addr = alloca ptr, align 8
  store ptr %this, ptr %this.addr, align 8
  %this1 = load ptr, ptr %this.addr, align 8
  %m_stack = getelementptr inbounds %class.union_find_default_ctx, ptr %this1, i32 0, i32 0
  call void @_ZN11trail_stackD2Ev(ptr noundef nonnull align 8 dereferenceable(56) %m_stack) #3
  ret void
}

; Function Attrs: mustprogress uwtable
define linkonce_odr hidden void @_ZN11trail_stackC2Ev(ptr noundef nonnull align 8 dereferenceable(56) %this) unnamed_addr #4 comdat align 2 personality ptr @__gxx_personality_v0 {
entry:
  %this.addr = alloca ptr, align 8
  %exn.slot = alloca ptr, align 8
  %ehselector.slot = alloca i32, align 4
  store ptr %this, ptr %this.addr, align 8
  %this1 = load ptr, ptr %this.addr, align 8
  %m_trail_stack = getelementptr inbounds %class.trail_stack, ptr %this1, i32 0, i32 0
  call void @_ZN10ptr_vectorI5trailEC2Ev(ptr noundef nonnull align 8 dereferenceable(8) %m_trail_stack)
  %m_scopes = getelementptr inbounds %class.trail_stack, ptr %this1, i32 0, i32 1
  invoke void @_ZN7svectorIjjEC2Ev(ptr noundef nonnull align 8 dereferenceable(8) %m_scopes)
          to label %invoke.cont unwind label %lpad

invoke.cont:                                      ; preds = %entry
  %m_region = getelementptr inbounds %class.trail_stack, ptr %this1, i32 0, i32 2
  invoke void @_ZN6regionC1Ev(ptr noundef nonnull align 8 dereferenceable(40) %m_region)
          to label %invoke.cont3 unwind label %lpad2

invoke.cont3:                                     ; preds = %invoke.cont
  ret void

lpad:                                             ; preds = %entry
  %0 = landingpad { ptr, i32 }
          cleanup
  %1 = extractvalue { ptr, i32 } %0, 0
  store ptr %1, ptr %exn.slot, align 8
  %2 = extractvalue { ptr, i32 } %0, 1
  store i32 %2, ptr %ehselector.slot, align 4
  br label %ehcleanup

lpad2:                                            ; preds = %invoke.cont
  %3 = landingpad { ptr, i32 }
          cleanup
  %4 = extractvalue { ptr, i32 } %3, 0
  store ptr %4, ptr %exn.slot, align 8
  %5 = extractvalue { ptr, i32 } %3, 1
  store i32 %5, ptr %ehselector.slot, align 4
  call void @_ZN7svectorIjjED2Ev(ptr noundef nonnull align 8 dereferenceable(8) %m_scopes) #3
  br label %ehcleanup

ehcleanup:                                        ; preds = %lpad2, %lpad
  call void @_ZN10ptr_vectorI5trailED2Ev(ptr noundef nonnull align 8 dereferenceable(8) %m_trail_stack) #3
  br label %eh.resume

eh.resume:                                        ; preds = %ehcleanup
  %exn = load ptr, ptr %exn.slot, align 8
  %sel = load i32, ptr %ehselector.slot, align 4
  %lpad.val = insertvalue { ptr, i32 } poison, ptr %exn, 0
  %lpad.val4 = insertvalue { ptr, i32 } %lpad.val, i32 %sel, 1
  resume { ptr, i32 } %lpad.val4
}

; Function Attrs: mustprogress nounwind uwtable
define linkonce_odr hidden void @_ZN10ptr_vectorI5trailEC2Ev(ptr noundef nonnull align 8 dereferenceable(8) %this) unnamed_addr #5 comdat align 2 {
entry:
  %this.addr = alloca ptr, align 8
  store ptr %this, ptr %this.addr, align 8
  %this1 = load ptr, ptr %this.addr, align 8
  %0 = getelementptr inbounds i8, ptr %this1, i64 0
  call void @llvm.memset.p0.i64(ptr align 8 %0, i8 0, i64 8, i1 false)
  call void @_ZN6vectorIP5trailLb0EjEC2Ev(ptr noundef nonnull align 8 dereferenceable(8) %this1) #3
  ret void
}

; Function Attrs: mustprogress nounwind uwtable
define linkonce_odr hidden void @_ZN7svectorIjjEC2Ev(ptr noundef nonnull align 8 dereferenceable(8) %this) unnamed_addr #5 comdat align 2 {
entry:
  %this.addr = alloca ptr, align 8
  store ptr %this, ptr %this.addr, align 8
  %this1 = load ptr, ptr %this.addr, align 8
  %0 = getelementptr inbounds i8, ptr %this1, i64 0
  call void @llvm.memset.p0.i64(ptr align 8 %0, i8 0, i64 8, i1 false)
  call void @_ZN6vectorIjLb0EjEC2Ev(ptr noundef nonnull align 8 dereferenceable(8) %this1) #3
  ret void
}

declare void @_ZN6regionC1Ev(ptr noundef nonnull align 8 dereferenceable(40)) unnamed_addr #1

; Function Attrs: mustprogress nounwind uwtable
define linkonce_odr hidden void @_ZN7svectorIjjED2Ev(ptr noundef nonnull align 8 dereferenceable(8) %this) unnamed_addr #5 comdat align 2 {
entry:
  %this.addr = alloca ptr, align 8
  store ptr %this, ptr %this.addr, align 8
  %this1 = load ptr, ptr %this.addr, align 8
  call void @_ZN6vectorIjLb0EjED2Ev(ptr noundef nonnull align 8 dereferenceable(8) %this1) #3
  ret void
}

; Function Attrs: mustprogress nounwind uwtable
define linkonce_odr hidden void @_ZN10ptr_vectorI5trailED2Ev(ptr noundef nonnull align 8 dereferenceable(8) %this) unnamed_addr #5 comdat align 2 {
entry:
  %this.addr = alloca ptr, align 8
  store ptr %this, ptr %this.addr, align 8
  %this1 = load ptr, ptr %this.addr, align 8
  call void @_ZN6vectorIP5trailLb0EjED2Ev(ptr noundef nonnull align 8 dereferenceable(8) %this1) #3
  ret void
}

; Function Attrs: nocallback nofree nounwind willreturn memory(argmem: write)
declare void @llvm.memset.p0.i64(ptr nocapture writeonly, i8, i64, i1 immarg) #8

; Function Attrs: mustprogress nounwind uwtable
define linkonce_odr hidden void @_ZN6vectorIP5trailLb0EjEC2Ev(ptr noundef nonnull align 8 dereferenceable(8) %this) unnamed_addr #5 comdat align 2 {
entry:
  %this.addr = alloca ptr, align 8
  store ptr %this, ptr %this.addr, align 8
  %this1 = load ptr, ptr %this.addr, align 8
  %m_data = getelementptr inbounds %class.vector, ptr %this1, i32 0, i32 0
  store ptr null, ptr %m_data, align 8
  ret void
}

; Function Attrs: mustprogress nounwind uwtable
define linkonce_odr hidden void @_ZN6vectorIjLb0EjEC2Ev(ptr noundef nonnull align 8 dereferenceable(8) %this) unnamed_addr #5 comdat align 2 {
entry:
  %this.addr = alloca ptr, align 8
  store ptr %this, ptr %this.addr, align 8
  %this1 = load ptr, ptr %this.addr, align 8
  %m_data = getelementptr inbounds %class.vector.0, ptr %this1, i32 0, i32 0
  store ptr null, ptr %m_data, align 8
  ret void
}

; Function Attrs: mustprogress nounwind uwtable
define linkonce_odr hidden void @_ZN6vectorIjLb0EjED2Ev(ptr noundef nonnull align 8 dereferenceable(8) %this) unnamed_addr #5 comdat align 2 personality ptr @__gxx_personality_v0 {
entry:
  %this.addr = alloca ptr, align 8
  store ptr %this, ptr %this.addr, align 8
  %this1 = load ptr, ptr %this.addr, align 8
  invoke void @_ZN6vectorIjLb0EjE7destroyEv(ptr noundef nonnull align 8 dereferenceable(8) %this1)
          to label %invoke.cont unwind label %terminate.lpad

invoke.cont:                                      ; preds = %entry
  ret void

terminate.lpad:                                   ; preds = %entry
  %0 = landingpad { ptr, i32 }
          catch ptr null
  %1 = extractvalue { ptr, i32 } %0, 0
  call void @__clang_call_terminate(ptr %1) #14
  unreachable
}

; Function Attrs: mustprogress uwtable
define linkonce_odr hidden void @_ZN6vectorIjLb0EjE7destroyEv(ptr noundef nonnull align 8 dereferenceable(8) %this) #4 comdat align 2 {
entry:
  %this.addr = alloca ptr, align 8
  store ptr %this, ptr %this.addr, align 8
  %this1 = load ptr, ptr %this.addr, align 8
  %m_data = getelementptr inbounds %class.vector.0, ptr %this1, i32 0, i32 0
  %0 = load ptr, ptr %m_data, align 8
  %tobool = icmp ne ptr %0, null
  br i1 %tobool, label %if.then, label %if.end

if.then:                                          ; preds = %entry
  call void @_ZN6vectorIjLb0EjE11free_memoryEv(ptr noundef nonnull align 8 dereferenceable(8) %this1)
  br label %if.end

if.end:                                           ; preds = %if.then, %entry
  ret void
}

; Function Attrs: mustprogress uwtable
define linkonce_odr hidden void @_ZN6vectorIjLb0EjE11free_memoryEv(ptr noundef nonnull align 8 dereferenceable(8) %this) #4 comdat align 2 {
entry:
  %this.addr = alloca ptr, align 8
  store ptr %this, ptr %this.addr, align 8
  %this1 = load ptr, ptr %this.addr, align 8
  %m_data = getelementptr inbounds %class.vector.0, ptr %this1, i32 0, i32 0
  %0 = load ptr, ptr %m_data, align 8
  %add.ptr = getelementptr inbounds i32, ptr %0, i64 -2
  call void @_ZN6memory10deallocateEPv(ptr noundef %add.ptr)
  ret void
}

declare void @_ZN6memory10deallocateEPv(ptr noundef) #1

; Function Attrs: mustprogress nounwind uwtable
define linkonce_odr hidden void @_ZN6vectorIP5trailLb0EjED2Ev(ptr noundef nonnull align 8 dereferenceable(8) %this) unnamed_addr #5 comdat align 2 personality ptr @__gxx_personality_v0 {
entry:
  %this.addr = alloca ptr, align 8
  store ptr %this, ptr %this.addr, align 8
  %this1 = load ptr, ptr %this.addr, align 8
  invoke void @_ZN6vectorIP5trailLb0EjE7destroyEv(ptr noundef nonnull align 8 dereferenceable(8) %this1)
          to label %invoke.cont unwind label %terminate.lpad

invoke.cont:                                      ; preds = %entry
  ret void

terminate.lpad:                                   ; preds = %entry
  %0 = landingpad { ptr, i32 }
          catch ptr null
  %1 = extractvalue { ptr, i32 } %0, 0
  call void @__clang_call_terminate(ptr %1) #14
  unreachable
}

; Function Attrs: mustprogress uwtable
define linkonce_odr hidden void @_ZN6vectorIP5trailLb0EjE7destroyEv(ptr noundef nonnull align 8 dereferenceable(8) %this) #4 comdat align 2 {
entry:
  %this.addr = alloca ptr, align 8
  store ptr %this, ptr %this.addr, align 8
  %this1 = load ptr, ptr %this.addr, align 8
  %m_data = getelementptr inbounds %class.vector, ptr %this1, i32 0, i32 0
  %0 = load ptr, ptr %m_data, align 8
  %tobool = icmp ne ptr %0, null
  br i1 %tobool, label %if.then, label %if.end

if.then:                                          ; preds = %entry
  call void @_ZN6vectorIP5trailLb0EjE11free_memoryEv(ptr noundef nonnull align 8 dereferenceable(8) %this1)
  br label %if.end

if.end:                                           ; preds = %if.then, %entry
  ret void
}

; Function Attrs: mustprogress uwtable
define linkonce_odr hidden void @_ZN6vectorIP5trailLb0EjE11free_memoryEv(ptr noundef nonnull align 8 dereferenceable(8) %this) #4 comdat align 2 {
entry:
  %this.addr = alloca ptr, align 8
  store ptr %this, ptr %this.addr, align 8
  %this1 = load ptr, ptr %this.addr, align 8
  %m_data = getelementptr inbounds %class.vector, ptr %this1, i32 0, i32 0
  %0 = load ptr, ptr %m_data, align 8
  %add.ptr = getelementptr inbounds i32, ptr %0, i64 -2
  call void @_ZN6memory10deallocateEPv(ptr noundef %add.ptr)
  ret void
}

; Function Attrs: mustprogress nounwind uwtable
define linkonce_odr hidden noundef nonnull align 8 dereferenceable(56) ptr @_ZN22union_find_default_ctx15get_trail_stackEv(ptr noundef nonnull align 8 dereferenceable(56) %this) #5 comdat align 2 {
entry:
  %this.addr = alloca ptr, align 8
  store ptr %this, ptr %this.addr, align 8
  %this1 = load ptr, ptr %this.addr, align 8
  %m_stack = getelementptr inbounds %class.union_find_default_ctx, ptr %this1, i32 0, i32 0
  ret ptr %m_stack
}

; Function Attrs: mustprogress nounwind uwtable
define linkonce_odr hidden void @_ZN10union_findI22union_find_default_ctxS0_E12mk_var_trailC2ERS1_(ptr noundef nonnull align 8 dereferenceable(16) %this, ptr noundef nonnull align 8 dereferenceable(56) %o) unnamed_addr #5 comdat align 2 {
entry:
  %this.addr = alloca ptr, align 8
  %o.addr = alloca ptr, align 8
  store ptr %this, ptr %this.addr, align 8
  store ptr %o, ptr %o.addr, align 8
  %this1 = load ptr, ptr %this.addr, align 8
  call void @_ZN5trailC2Ev(ptr noundef nonnull align 8 dereferenceable(8) %this1) #3
  store ptr getelementptr inbounds ({ [5 x ptr] }, ptr @_ZTVN10union_findI22union_find_default_ctxS0_E12mk_var_trailE, i32 0, inrange i32 0, i32 2), ptr %this1, align 8
  %m_owner = getelementptr inbounds %"class.union_find<>::mk_var_trail", ptr %this1, i32 0, i32 1
  %0 = load ptr, ptr %o.addr, align 8
  store ptr %0, ptr %m_owner, align 8
  ret void
}

; Function Attrs: mustprogress nounwind uwtable
define linkonce_odr hidden void @_ZN5trailC2Ev(ptr noundef nonnull align 8 dereferenceable(8) %this) unnamed_addr #5 comdat align 2 {
entry:
  %this.addr = alloca ptr, align 8
  store ptr %this, ptr %this.addr, align 8
  %this1 = load ptr, ptr %this.addr, align 8
  store ptr getelementptr inbounds ({ [5 x ptr] }, ptr @_ZTV5trail, i32 0, inrange i32 0, i32 2), ptr %this1, align 8
  ret void
}

; Function Attrs: mustprogress nounwind uwtable
define linkonce_odr hidden void @_ZN10union_findI22union_find_default_ctxS0_E12mk_var_trailD2Ev(ptr noundef nonnull align 8 dereferenceable(16) %this) unnamed_addr #5 comdat align 2 {
entry:
  %this.addr = alloca ptr, align 8
  store ptr %this, ptr %this.addr, align 8
  %this1 = load ptr, ptr %this.addr, align 8
  call void @_ZN5trailD2Ev(ptr noundef nonnull align 8 dereferenceable(8) %this1) #3
  ret void
}

; Function Attrs: mustprogress nounwind uwtable
define linkonce_odr hidden void @_ZN10union_findI22union_find_default_ctxS0_E12mk_var_trailD0Ev(ptr noundef nonnull align 8 dereferenceable(16) %this) unnamed_addr #5 comdat align 2 {
entry:
  %this.addr = alloca ptr, align 8
  store ptr %this, ptr %this.addr, align 8
  %this1 = load ptr, ptr %this.addr, align 8
  call void @_ZN10union_findI22union_find_default_ctxS0_E12mk_var_trailD2Ev(ptr noundef nonnull align 8 dereferenceable(16) %this1) #3
  call void @_ZdlPv(ptr noundef %this1) #15
  ret void
}

; Function Attrs: mustprogress uwtable
define linkonce_odr hidden void @_ZN10union_findI22union_find_default_ctxS0_E12mk_var_trail4undoEv(ptr noundef nonnull align 8 dereferenceable(16) %this) unnamed_addr #4 comdat align 2 {
entry:
  %this.addr = alloca ptr, align 8
  store ptr %this, ptr %this.addr, align 8
  %this1 = load ptr, ptr %this.addr, align 8
  %m_owner = getelementptr inbounds %"class.union_find<>::mk_var_trail", ptr %this1, i32 0, i32 1
  %0 = load ptr, ptr %m_owner, align 8
  %m_find = getelementptr inbounds %class.union_find, ptr %0, i32 0, i32 2
  call void @_ZN6vectorIjLb0EjE8pop_backEv(ptr noundef nonnull align 8 dereferenceable(8) %m_find)
  %m_owner2 = getelementptr inbounds %"class.union_find<>::mk_var_trail", ptr %this1, i32 0, i32 1
  %1 = load ptr, ptr %m_owner2, align 8
  %m_size = getelementptr inbounds %class.union_find, ptr %1, i32 0, i32 3
  call void @_ZN6vectorIjLb0EjE8pop_backEv(ptr noundef nonnull align 8 dereferenceable(8) %m_size)
  %m_owner3 = getelementptr inbounds %"class.union_find<>::mk_var_trail", ptr %this1, i32 0, i32 1
  %2 = load ptr, ptr %m_owner3, align 8
  %m_next = getelementptr inbounds %class.union_find, ptr %2, i32 0, i32 4
  call void @_ZN6vectorIjLb0EjE8pop_backEv(ptr noundef nonnull align 8 dereferenceable(8) %m_next)
  ret void
}

; Function Attrs: mustprogress nounwind uwtable
define linkonce_odr hidden void @_ZN5trailD2Ev(ptr noundef nonnull align 8 dereferenceable(8) %this) unnamed_addr #5 comdat align 2 {
entry:
  %this.addr = alloca ptr, align 8
  store ptr %this, ptr %this.addr, align 8
  ret void
}

; Function Attrs: mustprogress nounwind uwtable
define linkonce_odr hidden void @_ZN5trailD0Ev(ptr noundef nonnull align 8 dereferenceable(8) %this) unnamed_addr #5 comdat align 2 {
entry:
  %this.addr = alloca ptr, align 8
  store ptr %this, ptr %this.addr, align 8
  call void @llvm.trap() #14
  unreachable
}

declare void @__cxa_pure_virtual() unnamed_addr

; Function Attrs: cold noreturn nounwind memory(inaccessiblemem: write)
declare void @llvm.trap() #9

; Function Attrs: nobuiltin nounwind
declare void @_ZdlPv(ptr noundef) #10

; Function Attrs: mustprogress nounwind uwtable
define linkonce_odr hidden void @_ZN6vectorIjLb0EjE8pop_backEv(ptr noundef nonnull align 8 dereferenceable(8) %this) #5 comdat align 2 {
entry:
  %this.addr = alloca ptr, align 8
  store ptr %this, ptr %this.addr, align 8
  %this1 = load ptr, ptr %this.addr, align 8
  %m_data = getelementptr inbounds %class.vector.0, ptr %this1, i32 0, i32 0
  %0 = load ptr, ptr %m_data, align 8
  %arrayidx = getelementptr inbounds i32, ptr %0, i64 -1
  %1 = load i32, ptr %arrayidx, align 4
  %dec = add i32 %1, -1
  store i32 %dec, ptr %arrayidx, align 4
  ret void
}

; Function Attrs: mustprogress nounwind uwtable
define linkonce_odr hidden void @_ZN11trail_stackD2Ev(ptr noundef nonnull align 8 dereferenceable(56) %this) unnamed_addr #5 comdat align 2 {
entry:
  %this.addr = alloca ptr, align 8
  store ptr %this, ptr %this.addr, align 8
  %this1 = load ptr, ptr %this.addr, align 8
  %m_region = getelementptr inbounds %class.trail_stack, ptr %this1, i32 0, i32 2
  call void @_ZN6regionD1Ev(ptr noundef nonnull align 8 dereferenceable(40) %m_region) #3
  %m_scopes = getelementptr inbounds %class.trail_stack, ptr %this1, i32 0, i32 1
  call void @_ZN7svectorIjjED2Ev(ptr noundef nonnull align 8 dereferenceable(8) %m_scopes) #3
  %m_trail_stack = getelementptr inbounds %class.trail_stack, ptr %this1, i32 0, i32 0
  call void @_ZN10ptr_vectorI5trailED2Ev(ptr noundef nonnull align 8 dereferenceable(8) %m_trail_stack) #3
  ret void
}

; Function Attrs: nounwind
declare void @_ZN6regionD1Ev(ptr noundef nonnull align 8 dereferenceable(40)) unnamed_addr #2

; Function Attrs: mustprogress nounwind uwtable
define linkonce_odr hidden void @_ZN10params_refC2Ev(ptr noundef nonnull align 8 dereferenceable(8) %this) unnamed_addr #5 comdat align 2 {
entry:
  %this.addr = alloca ptr, align 8
  store ptr %this, ptr %this.addr, align 8
  %this1 = load ptr, ptr %this.addr, align 8
  %m_params = getelementptr inbounds %class.params_ref, ptr %this1, i32 0, i32 0
  store ptr null, ptr %m_params, align 8
  ret void
}

declare void @_ZN10params_ref8set_boolEPKcb(ptr noundef nonnull align 8 dereferenceable(8), ptr noundef, i1 noundef zeroext) #1

; Function Attrs: mustprogress uwtable
define internal void @_ZN7obj_mapI4sort6vectorIN12_GLOBAL__N_127get_implied_equalities_impl7term_idELb1EjEEC2Ev(ptr noundef nonnull align 8 dereferenceable(24) %this) unnamed_addr #4 align 2 {
entry:
  %this.addr = alloca ptr, align 8
  %ref.tmp = alloca %struct.obj_hash.32, align 1
  %ref.tmp2 = alloca %struct.default_eq.33, align 1
  store ptr %this, ptr %this.addr, align 8
  %this1 = load ptr, ptr %this.addr, align 8
  %m_table = getelementptr inbounds %class.obj_map.30, ptr %this1, i32 0, i32 0
  call void @_ZN14core_hashtableIN7obj_mapI4sort6vectorIN12_GLOBAL__N_127get_implied_equalities_impl7term_idELb1EjEE13obj_map_entryE8obj_hashINS7_8key_dataEE10default_eqISA_EEC2EjRKSB_RKSD_(ptr noundef nonnull align 8 dereferenceable(20) %m_table, i32 noundef 8, ptr noundef nonnull align 1 dereferenceable(1) %ref.tmp, ptr noundef nonnull align 1 dereferenceable(1) %ref.tmp2)
  ret void
}

; Function Attrs: mustprogress uwtable
define linkonce_odr hidden void @_ZN9stopwatch5startEv(ptr noundef nonnull align 8 dereferenceable(17) %this) #4 comdat align 2 {
entry:
  %this.addr = alloca ptr, align 8
  %ref.tmp = alloca %"class.std::chrono::time_point", align 8
  store ptr %this, ptr %this.addr, align 8
  %this1 = load ptr, ptr %this.addr, align 8
  %m_running = getelementptr inbounds %class.stopwatch, ptr %this1, i32 0, i32 2
  %0 = load i8, ptr %m_running, align 8
  %tobool = trunc i8 %0 to i1
  br i1 %tobool, label %if.end, label %if.then

if.then:                                          ; preds = %entry
  %call = call i64 @_ZN9stopwatch3getEv()
  %coerce.dive = getelementptr inbounds %"class.std::chrono::time_point", ptr %ref.tmp, i32 0, i32 0
  %coerce.dive2 = getelementptr inbounds %"class.std::chrono::duration", ptr %coerce.dive, i32 0, i32 0
  store i64 %call, ptr %coerce.dive2, align 8
  %m_start = getelementptr inbounds %class.stopwatch, ptr %this1, i32 0, i32 0
  call void @llvm.memcpy.p0.p0.i64(ptr align 8 %m_start, ptr align 8 %ref.tmp, i64 8, i1 false)
  %m_running3 = getelementptr inbounds %class.stopwatch, ptr %this1, i32 0, i32 2
  store i8 1, ptr %m_running3, align 8
  br label %if.end

if.end:                                           ; preds = %if.then, %entry
  ret void
}

; Function Attrs: mustprogress uwtable
define linkonce_odr hidden noundef i32 @_ZN10union_findI22union_find_default_ctxS0_E6mk_varEv(ptr noundef nonnull align 8 dereferenceable(56) %this) #4 comdat align 2 {
entry:
  %this.addr = alloca ptr, align 8
  %r = alloca i32, align 4
  %ref.tmp = alloca i32, align 4
  store ptr %this, ptr %this.addr, align 8
  %this1 = load ptr, ptr %this.addr, align 8
  %m_find = getelementptr inbounds %class.union_find, ptr %this1, i32 0, i32 2
  %call = call noundef i32 @_ZNK6vectorIjLb0EjE4sizeEv(ptr noundef nonnull align 8 dereferenceable(8) %m_find)
  store i32 %call, ptr %r, align 4
  %m_find2 = getelementptr inbounds %class.union_find, ptr %this1, i32 0, i32 2
  %call3 = call noundef nonnull align 8 dereferenceable(8) ptr @_ZN6vectorIjLb0EjE9push_backERKj(ptr noundef nonnull align 8 dereferenceable(8) %m_find2, ptr noundef nonnull align 4 dereferenceable(4) %r)
  %m_size = getelementptr inbounds %class.union_find, ptr %this1, i32 0, i32 3
  store i32 1, ptr %ref.tmp, align 4
  %call4 = call noundef nonnull align 8 dereferenceable(8) ptr @_ZN6vectorIjLb0EjE9push_backEOj(ptr noundef nonnull align 8 dereferenceable(8) %m_size, ptr noundef nonnull align 4 dereferenceable(4) %ref.tmp)
  %m_next = getelementptr inbounds %class.union_find, ptr %this1, i32 0, i32 4
  %call5 = call noundef nonnull align 8 dereferenceable(8) ptr @_ZN6vectorIjLb0EjE9push_backERKj(ptr noundef nonnull align 8 dereferenceable(8) %m_next, ptr noundef nonnull align 4 dereferenceable(4) %r)
  %m_trail_stack = getelementptr inbounds %class.union_find, ptr %this1, i32 0, i32 1
  %0 = load ptr, ptr %m_trail_stack, align 8
  %m_mk_var_trail = getelementptr inbounds %class.union_find, ptr %this1, i32 0, i32 5
  call void @_ZN11trail_stack8push_ptrEP5trail(ptr noundef nonnull align 8 dereferenceable(56) %0, ptr noundef %m_mk_var_trail)
  %1 = load i32, ptr %r, align 4
  ret i32 %1
}

; Function Attrs: mustprogress uwtable
define internal void @_ZN12_GLOBAL__N_127get_implied_equalities_impl15assert_relevantEjPKP4expr(ptr noundef nonnull align 8 dereferenceable(200) %this, i32 noundef %num_terms, ptr noundef %terms) #4 align 2 {
entry:
  %this.addr = alloca ptr, align 8
  %num_terms.addr = alloca i32, align 4
  %terms.addr = alloca ptr, align 8
  %i = alloca i32, align 4
  %srt = alloca ptr, align 8
  %ref.tmp = alloca %class.symbol, align 8
  store ptr %this, ptr %this.addr, align 8
  store i32 %num_terms, ptr %num_terms.addr, align 4
  store ptr %terms, ptr %terms.addr, align 8
  %this1 = load ptr, ptr %this.addr, align 8
  store i32 0, ptr %i, align 4
  br label %for.cond

for.cond:                                         ; preds = %for.inc, %entry
  %0 = load i32, ptr %i, align 4
  %1 = load i32, ptr %num_terms.addr, align 4
  %cmp = icmp ult i32 %0, %1
  br i1 %cmp, label %for.body, label %for.end

for.body:                                         ; preds = %for.cond
  %2 = load ptr, ptr %terms.addr, align 8
  %3 = load i32, ptr %i, align 4
  %idxprom = zext i32 %3 to i64
  %arrayidx = getelementptr inbounds ptr, ptr %2, i64 %idxprom
  %4 = load ptr, ptr %arrayidx, align 8
  %call = call noundef ptr @_ZNK4expr8get_sortEv(ptr noundef nonnull align 4 dereferenceable(16) %4)
  store ptr %call, ptr %srt, align 8
  %m_array_util = getelementptr inbounds %"class.(anonymous namespace)::get_implied_equalities_impl", ptr %this1, i32 0, i32 4
  %5 = load ptr, ptr %srt, align 8
  %call2 = call noundef zeroext i1 @_ZNK17array_recognizers8is_arrayEP4sort(ptr noundef nonnull align 4 dereferenceable(4) %m_array_util, ptr noundef %5)
  br i1 %call2, label %if.end, label %if.then

if.then:                                          ; preds = %for.body
  %m_solver = getelementptr inbounds %"class.(anonymous namespace)::get_implied_equalities_impl", ptr %this1, i32 0, i32 1
  %6 = load ptr, ptr %m_solver, align 8
  %m = getelementptr inbounds %"class.(anonymous namespace)::get_implied_equalities_impl", ptr %this1, i32 0, i32 0
  %7 = load ptr, ptr %m, align 8
  %m3 = getelementptr inbounds %"class.(anonymous namespace)::get_implied_equalities_impl", ptr %this1, i32 0, i32 0
  %8 = load ptr, ptr %m3, align 8
  call void @_ZN6symbolC1EPKc(ptr noundef nonnull align 8 dereferenceable(8) %ref.tmp, ptr noundef @.str.7)
  %m4 = getelementptr inbounds %"class.(anonymous namespace)::get_implied_equalities_impl", ptr %this1, i32 0, i32 0
  %9 = load ptr, ptr %m4, align 8
  %call5 = call noundef ptr @_ZNK11ast_manager12mk_bool_sortEv(ptr noundef nonnull align 8 dereferenceable(976) %9)
  %call6 = call noundef ptr @_ZN11ast_manager12mk_func_declERK6symboljPKP4sortS4_(ptr noundef nonnull align 8 dereferenceable(976) %8, ptr noundef nonnull align 8 dereferenceable(8) %ref.tmp, i32 noundef 1, ptr noundef %srt, ptr noundef %call5)
  %10 = load ptr, ptr %terms.addr, align 8
  %11 = load i32, ptr %i, align 4
  %idxprom7 = zext i32 %11 to i64
  %arrayidx8 = getelementptr inbounds ptr, ptr %10, i64 %idxprom7
  %12 = load ptr, ptr %arrayidx8, align 8
  %call9 = call noundef ptr @_ZN11ast_manager6mk_appEP9func_declP4expr(ptr noundef nonnull align 8 dereferenceable(976) %7, ptr noundef %call6, ptr noundef %12)
  call void @_ZN6solver11assert_exprEP4expr(ptr noundef nonnull align 8 dereferenceable(96) %6, ptr noundef %call9)
  br label %if.end

if.end:                                           ; preds = %if.then, %for.body
  br label %for.inc

for.inc:                                          ; preds = %if.end
  %13 = load i32, ptr %i, align 4
  %inc = add i32 %13, 1
  store i32 %inc, ptr %i, align 4
  br label %for.cond, !llvm.loop !8

for.end:                                          ; preds = %for.cond
  ret void
}

declare noundef i32 @_ZN6solver9check_satEjPKP4expr(ptr noundef nonnull align 8 dereferenceable(96), i32 noundef, ptr noundef) #1

; Function Attrs: mustprogress nounwind uwtable
define linkonce_odr hidden void @_ZN3refI5modelEC2Ev(ptr noundef nonnull align 8 dereferenceable(8) %this) unnamed_addr #5 comdat align 2 {
entry:
  %this.addr = alloca ptr, align 8
  store ptr %this, ptr %this.addr, align 8
  %this1 = load ptr, ptr %this.addr, align 8
  %m_ptr = getelementptr inbounds %class.ref.35, ptr %this1, i32 0, i32 0
  store ptr null, ptr %m_ptr, align 8
  ret void
}

; Function Attrs: mustprogress uwtable
define linkonce_odr hidden void @_ZN16check_sat_result9get_modelER3refI5modelE(ptr noundef nonnull align 8 dereferenceable(72) %this, ptr noundef nonnull align 8 dereferenceable(8) %m) #4 comdat align 2 {
entry:
  %this.addr = alloca ptr, align 8
  %m.addr = alloca ptr, align 8
  store ptr %this, ptr %this.addr, align 8
  store ptr %m, ptr %m.addr, align 8
  %this1 = load ptr, ptr %this.addr, align 8
  %0 = load ptr, ptr %m.addr, align 8
  %vtable = load ptr, ptr %this1, align 8
  %vfn = getelementptr inbounds ptr, ptr %vtable, i64 4
  %1 = load ptr, ptr %vfn, align 8
  call void %1(ptr noundef nonnull align 8 dereferenceable(72) %this1, ptr noundef nonnull align 8 dereferenceable(8) %0)
  %2 = load ptr, ptr %m.addr, align 8
  %call = call noundef zeroext i1 @_ZNK3refI5modelEcvbEv(ptr noundef nonnull align 8 dereferenceable(8) %2)
  br i1 %call, label %land.lhs.true, label %if.end

land.lhs.true:                                    ; preds = %entry
  %call2 = call noundef ptr @_ZNK16check_sat_result3mc0Ev(ptr noundef nonnull align 8 dereferenceable(72) %this1)
  %tobool = icmp ne ptr %call2, null
  br i1 %tobool, label %if.then, label %if.end

if.then:                                          ; preds = %land.lhs.true
  %call3 = call noundef ptr @_ZNK16check_sat_result3mc0Ev(ptr noundef nonnull align 8 dereferenceable(72) %this1)
  %3 = load ptr, ptr %m.addr, align 8
  %vtable4 = load ptr, ptr %call3, align 8
  %vfn5 = getelementptr inbounds ptr, ptr %vtable4, i64 4
  %4 = load ptr, ptr %vfn5, align 8
  call void %4(ptr noundef nonnull align 8 dereferenceable(25) %call3, ptr noundef nonnull align 8 dereferenceable(8) %3)
  br label %if.end

if.end:                                           ; preds = %if.then, %land.lhs.true, %entry
  ret void
}

; Function Attrs: mustprogress uwtable
define internal void @_ZN12_GLOBAL__N_127get_implied_equalities_impl15partition_termsEjPKP4exprR7obj_mapI4sort6vectorINS0_7term_idELb1EjEE(ptr noundef nonnull align 8 dereferenceable(200) %this, i32 noundef %num_terms, ptr noundef %terms, ptr noundef nonnull align 8 dereferenceable(24) %termids) #4 align 2 personality ptr @__gxx_personality_v0 {
entry:
  %this.addr = alloca ptr, align 8
  %num_terms.addr = alloca i32, align 4
  %terms.addr = alloca ptr, align 8
  %termids.addr = alloca ptr, align 8
  %i = alloca i32, align 4
  %s = alloca ptr, align 8
  %vec = alloca ptr, align 8
  %ref.tmp = alloca %class.vector.36, align 8
  %exn.slot = alloca ptr, align 8
  %ehselector.slot = alloca i32, align 4
  %ref.tmp3 = alloca %"struct.(anonymous namespace)::get_implied_equalities_impl::term_id", align 8
  %agg.tmp = alloca %class.obj_ref.37, align 8
  store ptr %this, ptr %this.addr, align 8
  store i32 %num_terms, ptr %num_terms.addr, align 4
  store ptr %terms, ptr %terms.addr, align 8
  store ptr %termids, ptr %termids.addr, align 8
  %this1 = load ptr, ptr %this.addr, align 8
  store i32 0, ptr %i, align 4
  br label %for.cond

for.cond:                                         ; preds = %for.inc, %entry
  %0 = load i32, ptr %i, align 4
  %1 = load i32, ptr %num_terms.addr, align 4
  %cmp = icmp ult i32 %0, %1
  br i1 %cmp, label %for.body, label %for.end

for.body:                                         ; preds = %for.cond
  %2 = load ptr, ptr %terms.addr, align 8
  %3 = load i32, ptr %i, align 4
  %idxprom = zext i32 %3 to i64
  %arrayidx = getelementptr inbounds ptr, ptr %2, i64 %idxprom
  %4 = load ptr, ptr %arrayidx, align 8
  %call = call noundef ptr @_ZNK4expr8get_sortEv(ptr noundef nonnull align 4 dereferenceable(16) %4)
  store ptr %call, ptr %s, align 8
  %5 = load ptr, ptr %termids.addr, align 8
  %6 = load ptr, ptr %s, align 8
  call void @llvm.memset.p0.i64(ptr align 8 %ref.tmp, i8 0, i64 8, i1 false)
  call void @_ZN6vectorIN12_GLOBAL__N_127get_implied_equalities_impl7term_idELb1EjEC2Ev(ptr noundef nonnull align 8 dereferenceable(8) %ref.tmp) #3
  %call2 = invoke noundef nonnull align 8 dereferenceable(8) ptr @_ZN7obj_mapI4sort6vectorIN12_GLOBAL__N_127get_implied_equalities_impl7term_idELb1EjEE19insert_if_not_thereEPS0_RKS5_(ptr noundef nonnull align 8 dereferenceable(24) %5, ptr noundef %6, ptr noundef nonnull align 8 dereferenceable(8) %ref.tmp)
          to label %invoke.cont unwind label %lpad

invoke.cont:                                      ; preds = %for.body
  call void @_ZN6vectorIN12_GLOBAL__N_127get_implied_equalities_impl7term_idELb1EjED2Ev(ptr noundef nonnull align 8 dereferenceable(8) %ref.tmp) #3
  store ptr %call2, ptr %vec, align 8
  %7 = load ptr, ptr %vec, align 8
  %8 = load ptr, ptr %terms.addr, align 8
  %9 = load i32, ptr %i, align 4
  %idxprom4 = zext i32 %9 to i64
  %arrayidx5 = getelementptr inbounds ptr, ptr %8, i64 %idxprom4
  %10 = load ptr, ptr %arrayidx5, align 8
  %m = getelementptr inbounds %"class.(anonymous namespace)::get_implied_equalities_impl", ptr %this1, i32 0, i32 0
  %11 = load ptr, ptr %m, align 8
  call void @_ZN7obj_refI4expr11ast_managerEC2EPS0_RS1_(ptr noundef nonnull align 8 dereferenceable(16) %agg.tmp, ptr noundef %10, ptr noundef nonnull align 8 dereferenceable(976) %11)
  %12 = load i32, ptr %i, align 4
  invoke void @_ZN12_GLOBAL__N_127get_implied_equalities_impl7term_idC2E7obj_refI4expr11ast_managerEj(ptr noundef nonnull align 8 dereferenceable(20) %ref.tmp3, ptr noundef %agg.tmp, i32 noundef %12)
          to label %invoke.cont7 unwind label %lpad6

invoke.cont7:                                     ; preds = %invoke.cont
  %call10 = invoke noundef nonnull align 8 dereferenceable(8) ptr @_ZN6vectorIN12_GLOBAL__N_127get_implied_equalities_impl7term_idELb1EjE9push_backEOS2_(ptr noundef nonnull align 8 dereferenceable(8) %7, ptr noundef nonnull align 8 dereferenceable(20) %ref.tmp3)
          to label %invoke.cont9 unwind label %lpad8

invoke.cont9:                                     ; preds = %invoke.cont7
  call void @_ZN12_GLOBAL__N_127get_implied_equalities_impl7term_idD2Ev(ptr noundef nonnull align 8 dereferenceable(20) %ref.tmp3) #3
  call void @_ZN7obj_refI4expr11ast_managerED2Ev(ptr noundef nonnull align 8 dereferenceable(16) %agg.tmp) #3
  br label %for.inc

for.inc:                                          ; preds = %invoke.cont9
  %13 = load i32, ptr %i, align 4
  %inc = add i32 %13, 1
  store i32 %inc, ptr %i, align 4
  br label %for.cond, !llvm.loop !9

lpad:                                             ; preds = %for.body
  %14 = landingpad { ptr, i32 }
          cleanup
  %15 = extractvalue { ptr, i32 } %14, 0
  store ptr %15, ptr %exn.slot, align 8
  %16 = extractvalue { ptr, i32 } %14, 1
  store i32 %16, ptr %ehselector.slot, align 4
  call void @_ZN6vectorIN12_GLOBAL__N_127get_implied_equalities_impl7term_idELb1EjED2Ev(ptr noundef nonnull align 8 dereferenceable(8) %ref.tmp) #3
  br label %eh.resume

lpad6:                                            ; preds = %invoke.cont
  %17 = landingpad { ptr, i32 }
          cleanup
  %18 = extractvalue { ptr, i32 } %17, 0
  store ptr %18, ptr %exn.slot, align 8
  %19 = extractvalue { ptr, i32 } %17, 1
  store i32 %19, ptr %ehselector.slot, align 4
  br label %ehcleanup

lpad8:                                            ; preds = %invoke.cont7
  %20 = landingpad { ptr, i32 }
          cleanup
  %21 = extractvalue { ptr, i32 } %20, 0
  store ptr %21, ptr %exn.slot, align 8
  %22 = extractvalue { ptr, i32 } %20, 1
  store i32 %22, ptr %ehselector.slot, align 4
  call void @_ZN12_GLOBAL__N_127get_implied_equalities_impl7term_idD2Ev(ptr noundef nonnull align 8 dereferenceable(20) %ref.tmp3) #3
  br label %ehcleanup

ehcleanup:                                        ; preds = %lpad8, %lpad6
  call void @_ZN7obj_refI4expr11ast_managerED2Ev(ptr noundef nonnull align 8 dereferenceable(16) %agg.tmp) #3
  br label %eh.resume

for.end:                                          ; preds = %for.cond
  ret void

eh.resume:                                        ; preds = %ehcleanup, %lpad
  %exn = load ptr, ptr %exn.slot, align 8
  %sel = load i32, ptr %ehselector.slot, align 4
  %lpad.val = insertvalue { ptr, i32 } poison, ptr %exn, 0
  %lpad.val11 = insertvalue { ptr, i32 } %lpad.val, i32 %sel, 1
  resume { ptr, i32 } %lpad.val11
}

; Function Attrs: mustprogress uwtable
define internal { ptr, ptr } @_ZNK7obj_mapI4sort6vectorIN12_GLOBAL__N_127get_implied_equalities_impl7term_idELb1EjEE5beginEv(ptr noundef nonnull align 8 dereferenceable(24) %this) #4 align 2 {
entry:
  %retval = alloca %"class.core_hashtable<obj_map<sort, vector<(anonymous namespace)::get_implied_equalities_impl::term_id>>::obj_map_entry, obj_hash<obj_map<sort, vector<(anonymous namespace)::get_implied_equalities_impl::term_id>>::key_data>, default_eq<obj_map<sort, vector<(anonymous namespace)::get_implied_equalities_impl::term_id>>::key_data>>::iterator", align 8
  %this.addr = alloca ptr, align 8
  store ptr %this, ptr %this.addr, align 8
  %this1 = load ptr, ptr %this.addr, align 8
  %m_table = getelementptr inbounds %class.obj_map.30, ptr %this1, i32 0, i32 0
  %call = call { ptr, ptr } @_ZNK14core_hashtableIN7obj_mapI4sort6vectorIN12_GLOBAL__N_127get_implied_equalities_impl7term_idELb1EjEE13obj_map_entryE8obj_hashINS7_8key_dataEE10default_eqISA_EE5beginEv(ptr noundef nonnull align 8 dereferenceable(20) %m_table)
  %0 = getelementptr inbounds { ptr, ptr }, ptr %retval, i32 0, i32 0
  %1 = extractvalue { ptr, ptr } %call, 0
  store ptr %1, ptr %0, align 8
  %2 = getelementptr inbounds { ptr, ptr }, ptr %retval, i32 0, i32 1
  %3 = extractvalue { ptr, ptr } %call, 1
  store ptr %3, ptr %2, align 8
  %4 = load { ptr, ptr }, ptr %retval, align 8
  ret { ptr, ptr } %4
}

; Function Attrs: mustprogress uwtable
define internal { ptr, ptr } @_ZNK7obj_mapI4sort6vectorIN12_GLOBAL__N_127get_implied_equalities_impl7term_idELb1EjEE3endEv(ptr noundef nonnull align 8 dereferenceable(24) %this) #4 align 2 {
entry:
  %retval = alloca %"class.core_hashtable<obj_map<sort, vector<(anonymous namespace)::get_implied_equalities_impl::term_id>>::obj_map_entry, obj_hash<obj_map<sort, vector<(anonymous namespace)::get_implied_equalities_impl::term_id>>::key_data>, default_eq<obj_map<sort, vector<(anonymous namespace)::get_implied_equalities_impl::term_id>>::key_data>>::iterator", align 8
  %this.addr = alloca ptr, align 8
  store ptr %this, ptr %this.addr, align 8
  %this1 = load ptr, ptr %this.addr, align 8
  %m_table = getelementptr inbounds %class.obj_map.30, ptr %this1, i32 0, i32 0
  %call = call { ptr, ptr } @_ZNK14core_hashtableIN7obj_mapI4sort6vectorIN12_GLOBAL__N_127get_implied_equalities_impl7term_idELb1EjEE13obj_map_entryE8obj_hashINS7_8key_dataEE10default_eqISA_EE3endEv(ptr noundef nonnull align 8 dereferenceable(20) %m_table)
  %0 = getelementptr inbounds { ptr, ptr }, ptr %retval, i32 0, i32 0
  %1 = extractvalue { ptr, ptr } %call, 0
  store ptr %1, ptr %0, align 8
  %2 = getelementptr inbounds { ptr, ptr }, ptr %retval, i32 0, i32 1
  %3 = extractvalue { ptr, ptr } %call, 1
  store ptr %3, ptr %2, align 8
  %4 = load { ptr, ptr }, ptr %retval, align 8
  ret { ptr, ptr } %4
}

; Function Attrs: mustprogress nounwind uwtable
define internal noundef zeroext i1 @_ZNK14core_hashtableIN7obj_mapI4sort6vectorIN12_GLOBAL__N_127get_implied_equalities_impl7term_idELb1EjEE13obj_map_entryE8obj_hashINS7_8key_dataEE10default_eqISA_EE8iteratorneERKSF_(ptr noundef nonnull align 8 dereferenceable(16) %this, ptr noundef nonnull align 8 dereferenceable(16) %it) #5 align 2 {
entry:
  %this.addr = alloca ptr, align 8
  %it.addr = alloca ptr, align 8
  store ptr %this, ptr %this.addr, align 8
  store ptr %it, ptr %it.addr, align 8
  %this1 = load ptr, ptr %this.addr, align 8
  %m_curr = getelementptr inbounds %"class.core_hashtable<obj_map<sort, vector<(anonymous namespace)::get_implied_equalities_impl::term_id>>::obj_map_entry, obj_hash<obj_map<sort, vector<(anonymous namespace)::get_implied_equalities_impl::term_id>>::key_data>, default_eq<obj_map<sort, vector<(anonymous namespace)::get_implied_equalities_impl::term_id>>::key_data>>::iterator", ptr %this1, i32 0, i32 0
  %0 = load ptr, ptr %m_curr, align 8
  %1 = load ptr, ptr %it.addr, align 8
  %m_curr2 = getelementptr inbounds %"class.core_hashtable<obj_map<sort, vector<(anonymous namespace)::get_implied_equalities_impl::term_id>>::obj_map_entry, obj_hash<obj_map<sort, vector<(anonymous namespace)::get_implied_equalities_impl::term_id>>::key_data>, default_eq<obj_map<sort, vector<(anonymous namespace)::get_implied_equalities_impl::term_id>>::key_data>>::iterator", ptr %1, i32 0, i32 0
  %2 = load ptr, ptr %m_curr2, align 8
  %cmp = icmp ne ptr %0, %2
  ret i1 %cmp
}

; Function Attrs: mustprogress uwtable
define internal noundef ptr @_ZN14core_hashtableIN7obj_mapI4sort6vectorIN12_GLOBAL__N_127get_implied_equalities_impl7term_idELb1EjEE13obj_map_entryE8obj_hashINS7_8key_dataEE10default_eqISA_EE8iteratorptEv(ptr noundef nonnull align 8 dereferenceable(16) %this) #4 align 2 {
entry:
  %this.addr = alloca ptr, align 8
  store ptr %this, ptr %this.addr, align 8
  %this1 = load ptr, ptr %this.addr, align 8
  %call = call noundef nonnull align 8 dereferenceable(16) ptr @_ZN14core_hashtableIN7obj_mapI4sort6vectorIN12_GLOBAL__N_127get_implied_equalities_impl7term_idELb1EjEE13obj_map_entryE8obj_hashINS7_8key_dataEE10default_eqISA_EE8iteratordeEv(ptr noundef nonnull align 8 dereferenceable(16) %this1)
  ret ptr %call
}

; Function Attrs: mustprogress uwtable
define internal void @_ZN12_GLOBAL__N_127get_implied_equalities_impl27get_implied_equalities_coreER3refI5modelER6vectorINS0_7term_idELb1EjE(ptr noundef nonnull align 8 dereferenceable(200) %this, ptr noundef nonnull align 8 dereferenceable(8) %model, ptr noundef nonnull align 8 dereferenceable(8) %terms) #4 align 2 {
entry:
  %this.addr = alloca ptr, align 8
  %model.addr = alloca ptr, align 8
  %terms.addr = alloca ptr, align 8
  store ptr %this, ptr %this.addr, align 8
  store ptr %model, ptr %model.addr, align 8
  store ptr %terms, ptr %terms.addr, align 8
  %this1 = load ptr, ptr %this.addr, align 8
  %0 = load ptr, ptr %model.addr, align 8
  %1 = load ptr, ptr %terms.addr, align 8
  call void @_ZN12_GLOBAL__N_127get_implied_equalities_impl34get_implied_equalities_model_basedER3refI5modelER6vectorINS0_7term_idELb1EjE(ptr noundef nonnull align 8 dereferenceable(200) %this1, ptr noundef nonnull align 8 dereferenceable(8) %0, ptr noundef nonnull align 8 dereferenceable(8) %1)
  ret void
}

; Function Attrs: mustprogress nounwind uwtable
define internal noundef i32 @_ZNK6vectorIN12_GLOBAL__N_127get_implied_equalities_impl7term_idELb1EjE4sizeEv(ptr noundef nonnull align 8 dereferenceable(8) %this) #5 align 2 {
entry:
  %retval = alloca i32, align 4
  %this.addr = alloca ptr, align 8
  store ptr %this, ptr %this.addr, align 8
  %this1 = load ptr, ptr %this.addr, align 8
  %m_data = getelementptr inbounds %class.vector.36, ptr %this1, i32 0, i32 0
  %0 = load ptr, ptr %m_data, align 8
  %cmp = icmp eq ptr %0, null
  br i1 %cmp, label %if.then, label %if.end

if.then:                                          ; preds = %entry
  store i32 0, ptr %retval, align 4
  br label %return

if.end:                                           ; preds = %entry
  %m_data2 = getelementptr inbounds %class.vector.36, ptr %this1, i32 0, i32 0
  %1 = load ptr, ptr %m_data2, align 8
  %arrayidx = getelementptr inbounds i32, ptr %1, i64 -1
  %2 = load i32, ptr %arrayidx, align 4
  store i32 %2, ptr %retval, align 4
  br label %return

return:                                           ; preds = %if.end, %if.then
  %3 = load i32, ptr %retval, align 4
  ret i32 %3
}

; Function Attrs: mustprogress nounwind uwtable
define linkonce_odr hidden noundef i32 @_ZNK10union_findI22union_find_default_ctxS0_E4findEj(ptr noundef nonnull align 8 dereferenceable(56) %this, i32 noundef %v) #5 comdat align 2 {
entry:
  %this.addr = alloca ptr, align 8
  %v.addr = alloca i32, align 4
  %new_v = alloca i32, align 4
  store ptr %this, ptr %this.addr, align 8
  store i32 %v, ptr %v.addr, align 4
  %this1 = load ptr, ptr %this.addr, align 8
  br label %while.body

while.body:                                       ; preds = %if.end, %entry
  %m_find = getelementptr inbounds %class.union_find, ptr %this1, i32 0, i32 2
  %0 = load i32, ptr %v.addr, align 4
  %call = call noundef nonnull align 4 dereferenceable(4) ptr @_ZNK6vectorIjLb0EjEixEj(ptr noundef nonnull align 8 dereferenceable(8) %m_find, i32 noundef %0)
  %1 = load i32, ptr %call, align 4
  store i32 %1, ptr %new_v, align 4
  %2 = load i32, ptr %new_v, align 4
  %3 = load i32, ptr %v.addr, align 4
  %cmp = icmp eq i32 %2, %3
  br i1 %cmp, label %if.then, label %if.end

if.then:                                          ; preds = %while.body
  %4 = load i32, ptr %v.addr, align 4
  ret i32 %4

if.end:                                           ; preds = %while.body
  %5 = load i32, ptr %new_v, align 4
  store i32 %5, ptr %v.addr, align 4
  br label %while.body, !llvm.loop !10
}

; Function Attrs: mustprogress nounwind uwtable
define internal noundef nonnull align 8 dereferenceable(20) ptr @_ZN6vectorIN12_GLOBAL__N_127get_implied_equalities_impl7term_idELb1EjEixEj(ptr noundef nonnull align 8 dereferenceable(8) %this, i32 noundef %idx) #5 align 2 {
entry:
  %this.addr = alloca ptr, align 8
  %idx.addr = alloca i32, align 4
  store ptr %this, ptr %this.addr, align 8
  store i32 %idx, ptr %idx.addr, align 4
  %this1 = load ptr, ptr %this.addr, align 8
  %m_data = getelementptr inbounds %class.vector.36, ptr %this1, i32 0, i32 0
  %0 = load ptr, ptr %m_data, align 8
  %1 = load i32, ptr %idx.addr, align 4
  %idxprom = zext i32 %1 to i64
  %arrayidx = getelementptr inbounds %"struct.(anonymous namespace)::get_implied_equalities_impl::term_id", ptr %0, i64 %idxprom
  ret ptr %arrayidx
}

; Function Attrs: mustprogress nounwind uwtable
define internal noundef nonnull align 8 dereferenceable(16) ptr @_ZN14core_hashtableIN7obj_mapI4sort6vectorIN12_GLOBAL__N_127get_implied_equalities_impl7term_idELb1EjEE13obj_map_entryE8obj_hashINS7_8key_dataEE10default_eqISA_EE8iteratorppEv(ptr noundef nonnull align 8 dereferenceable(16) %this) #5 align 2 {
entry:
  %this.addr = alloca ptr, align 8
  store ptr %this, ptr %this.addr, align 8
  %this1 = load ptr, ptr %this.addr, align 8
  %m_curr = getelementptr inbounds %"class.core_hashtable<obj_map<sort, vector<(anonymous namespace)::get_implied_equalities_impl::term_id>>::obj_map_entry, obj_hash<obj_map<sort, vector<(anonymous namespace)::get_implied_equalities_impl::term_id>>::key_data>, default_eq<obj_map<sort, vector<(anonymous namespace)::get_implied_equalities_impl::term_id>>::key_data>>::iterator", ptr %this1, i32 0, i32 0
  %0 = load ptr, ptr %m_curr, align 8
  %incdec.ptr = getelementptr inbounds %"class.obj_map<sort, vector<(anonymous namespace)::get_implied_equalities_impl::term_id>>::obj_map_entry", ptr %0, i32 1
  store ptr %incdec.ptr, ptr %m_curr, align 8
  call void @_ZN14core_hashtableIN7obj_mapI4sort6vectorIN12_GLOBAL__N_127get_implied_equalities_impl7term_idELb1EjEE13obj_map_entryE8obj_hashINS7_8key_dataEE10default_eqISA_EE8iterator12move_to_usedEv(ptr noundef nonnull align 8 dereferenceable(16) %this1)
  ret ptr %this1
}

; Function Attrs: mustprogress nounwind uwtable
define linkonce_odr hidden void @_ZN3refI5modelED2Ev(ptr noundef nonnull align 8 dereferenceable(8) %this) unnamed_addr #5 comdat align 2 personality ptr @__gxx_personality_v0 {
entry:
  %this.addr = alloca ptr, align 8
  store ptr %this, ptr %this.addr, align 8
  %this1 = load ptr, ptr %this.addr, align 8
  invoke void @_ZN3refI5modelE7dec_refEv(ptr noundef nonnull align 8 dereferenceable(8) %this1)
          to label %invoke.cont unwind label %terminate.lpad

invoke.cont:                                      ; preds = %entry
  ret void

terminate.lpad:                                   ; preds = %entry
  %0 = landingpad { ptr, i32 }
          catch ptr null
  %1 = extractvalue { ptr, i32 } %0, 0
  call void @__clang_call_terminate(ptr %1) #14
  unreachable
}

; Function Attrs: mustprogress uwtable
define linkonce_odr hidden void @_ZN9stopwatch4stopEv(ptr noundef nonnull align 8 dereferenceable(17) %this) #4 comdat align 2 {
entry:
  %this.addr = alloca ptr, align 8
  %ref.tmp = alloca %"class.std::chrono::duration", align 8
  %ref.tmp2 = alloca %"class.std::chrono::time_point", align 8
  store ptr %this, ptr %this.addr, align 8
  %this1 = load ptr, ptr %this.addr, align 8
  %m_running = getelementptr inbounds %class.stopwatch, ptr %this1, i32 0, i32 2
  %0 = load i8, ptr %m_running, align 8
  %tobool = trunc i8 %0 to i1
  br i1 %tobool, label %if.then, label %if.end

if.then:                                          ; preds = %entry
  %call = call i64 @_ZN9stopwatch3getEv()
  %coerce.dive = getelementptr inbounds %"class.std::chrono::time_point", ptr %ref.tmp2, i32 0, i32 0
  %coerce.dive3 = getelementptr inbounds %"class.std::chrono::duration", ptr %coerce.dive, i32 0, i32 0
  store i64 %call, ptr %coerce.dive3, align 8
  %m_start = getelementptr inbounds %class.stopwatch, ptr %this1, i32 0, i32 0
  %call4 = call i64 @_ZNSt6chronomiINS_3_V212steady_clockENS_8durationIlSt5ratioILl1ELl1000000000EEEES6_EENSt11common_typeIJT0_T1_EE4typeERKNS_10time_pointIT_S8_EERKNSC_ISD_S9_EE(ptr noundef nonnull align 8 dereferenceable(8) %ref.tmp2, ptr noundef nonnull align 8 dereferenceable(8) %m_start)
  %coerce.dive5 = getelementptr inbounds %"class.std::chrono::duration", ptr %ref.tmp, i32 0, i32 0
  store i64 %call4, ptr %coerce.dive5, align 8
  %m_elapsed = getelementptr inbounds %class.stopwatch, ptr %this1, i32 0, i32 1
  %call6 = call noundef nonnull align 8 dereferenceable(8) ptr @_ZNSt6chrono8durationIlSt5ratioILl1ELl1000000000EEEpLERKS3_(ptr noundef nonnull align 8 dereferenceable(8) %m_elapsed, ptr noundef nonnull align 8 dereferenceable(8) %ref.tmp)
  %m_running7 = getelementptr inbounds %class.stopwatch, ptr %this1, i32 0, i32 2
  store i8 0, ptr %m_running7, align 8
  br label %if.end

if.end:                                           ; preds = %if.then, %entry
  ret void
}

declare noundef i32 @_Z19get_verbosity_levelv() #1

declare noundef zeroext i1 @_Z11is_threadedv() #1

declare void @_Z12verbose_lockv() #1

declare noundef nonnull align 8 dereferenceable(8) ptr @_ZStlsISt11char_traitsIcEERSt13basic_ostreamIcT_ES5_PKc(ptr noundef nonnull align 8 dereferenceable(8), ptr noundef) #1

declare noundef nonnull align 8 dereferenceable(8) ptr @_Z14verbose_streamv() #1

declare noundef nonnull align 8 dereferenceable(8) ptr @_ZNSolsEd(ptr noundef nonnull align 8 dereferenceable(8), double noundef) #1

; Function Attrs: mustprogress uwtable
define linkonce_odr hidden noundef double @_ZNK9stopwatch11get_secondsEv(ptr noundef nonnull align 8 dereferenceable(17) %this) #4 comdat align 2 {
entry:
  %this.addr = alloca ptr, align 8
  %ref.tmp = alloca %"class.std::chrono::duration.82", align 8
  store ptr %this, ptr %this.addr, align 8
  %this1 = load ptr, ptr %this.addr, align 8
  %m_running = getelementptr inbounds %class.stopwatch, ptr %this1, i32 0, i32 2
  %0 = load i8, ptr %m_running, align 8
  %tobool = trunc i8 %0 to i1
  br i1 %tobool, label %if.then, label %if.end

if.then:                                          ; preds = %entry
  call void @_ZN9stopwatch4stopEv(ptr noundef nonnull align 8 dereferenceable(17) %this1)
  call void @_ZN9stopwatch5startEv(ptr noundef nonnull align 8 dereferenceable(17) %this1)
  br label %if.end

if.end:                                           ; preds = %if.then, %entry
  %m_elapsed = getelementptr inbounds %class.stopwatch, ptr %this1, i32 0, i32 1
  %call = call i64 @_ZNSt6chrono13duration_castINS_8durationIlSt5ratioILl1ELl1000EEEElS2_ILl1ELl1000000000EEEENSt9enable_ifIXsr13__is_durationIT_EE5valueES7_E4typeERKNS1_IT0_T1_EE(ptr noundef nonnull align 8 dereferenceable(8) %m_elapsed)
  %coerce.dive = getelementptr inbounds %"class.std::chrono::duration.82", ptr %ref.tmp, i32 0, i32 0
  store i64 %call, ptr %coerce.dive, align 8
  %call2 = call noundef i64 @_ZNKSt6chrono8durationIlSt5ratioILl1ELl1000EEE5countEv(ptr noundef nonnull align 8 dereferenceable(8) %ref.tmp)
  %conv = sitofp i64 %call2 to double
  %div = fdiv double %conv, 1.000000e+03
  ret double %div
}

declare noundef nonnull align 8 dereferenceable(8) ptr @_ZNSolsEj(ptr noundef nonnull align 8 dereferenceable(8), i32 noundef) #1

declare void @_Z14verbose_unlockv() #1

; Function Attrs: mustprogress nounwind uwtable
define internal void @_ZN7obj_mapI4sort6vectorIN12_GLOBAL__N_127get_implied_equalities_impl7term_idELb1EjEED2Ev(ptr noundef nonnull align 8 dereferenceable(24) %this) unnamed_addr #5 align 2 {
entry:
  %this.addr = alloca ptr, align 8
  store ptr %this, ptr %this.addr, align 8
  %this1 = load ptr, ptr %this.addr, align 8
  %m_table = getelementptr inbounds %class.obj_map.30, ptr %this1, i32 0, i32 0
  call void @_ZN14core_hashtableIN7obj_mapI4sort6vectorIN12_GLOBAL__N_127get_implied_equalities_impl7term_idELb1EjEE13obj_map_entryE8obj_hashINS7_8key_dataEE10default_eqISA_EED2Ev(ptr noundef nonnull align 8 dereferenceable(20) %m_table) #3
  ret void
}

; Function Attrs: nounwind
declare void @_ZN10params_refD1Ev(ptr noundef nonnull align 8 dereferenceable(8)) unnamed_addr #2

; Function Attrs: mustprogress uwtable
define internal void @_ZN14core_hashtableIN7obj_mapI4sort6vectorIN12_GLOBAL__N_127get_implied_equalities_impl7term_idELb1EjEE13obj_map_entryE8obj_hashINS7_8key_dataEE10default_eqISA_EEC2EjRKSB_RKSD_(ptr noundef nonnull align 8 dereferenceable(20) %this, i32 noundef %initial_capacity, ptr noundef nonnull align 1 dereferenceable(1) %h, ptr noundef nonnull align 1 dereferenceable(1) %e) unnamed_addr #4 align 2 {
entry:
  %this.addr = alloca ptr, align 8
  %initial_capacity.addr = alloca i32, align 4
  %h.addr = alloca ptr, align 8
  %e.addr = alloca ptr, align 8
  store ptr %this, ptr %this.addr, align 8
  store i32 %initial_capacity, ptr %initial_capacity.addr, align 4
  store ptr %h, ptr %h.addr, align 8
  store ptr %e, ptr %e.addr, align 8
  %this1 = load ptr, ptr %this.addr, align 8
  %0 = load i32, ptr %initial_capacity.addr, align 4
  %call = call noundef ptr @_ZN14core_hashtableIN7obj_mapI4sort6vectorIN12_GLOBAL__N_127get_implied_equalities_impl7term_idELb1EjEE13obj_map_entryE8obj_hashINS7_8key_dataEE10default_eqISA_EE11alloc_tableEj(ptr noundef nonnull align 8 dereferenceable(20) %this1, i32 noundef %0)
  %m_table = getelementptr inbounds %class.core_hashtable.31, ptr %this1, i32 0, i32 0
  store ptr %call, ptr %m_table, align 8
  %1 = load i32, ptr %initial_capacity.addr, align 4
  %m_capacity = getelementptr inbounds %class.core_hashtable.31, ptr %this1, i32 0, i32 1
  store i32 %1, ptr %m_capacity, align 8
  %m_size = getelementptr inbounds %class.core_hashtable.31, ptr %this1, i32 0, i32 2
  store i32 0, ptr %m_size, align 4
  %m_num_deleted = getelementptr inbounds %class.core_hashtable.31, ptr %this1, i32 0, i32 3
  store i32 0, ptr %m_num_deleted, align 8
  ret void
}

; Function Attrs: mustprogress uwtable
define internal noundef ptr @_ZN14core_hashtableIN7obj_mapI4sort6vectorIN12_GLOBAL__N_127get_implied_equalities_impl7term_idELb1EjEE13obj_map_entryE8obj_hashINS7_8key_dataEE10default_eqISA_EE11alloc_tableEj(ptr noundef nonnull align 8 dereferenceable(20) %this, i32 noundef %size) #4 align 2 {
entry:
  %this.addr = alloca ptr, align 8
  %size.addr = alloca i32, align 4
  %entries = alloca ptr, align 8
  store ptr %this, ptr %this.addr, align 8
  store i32 %size, ptr %size.addr, align 4
  %0 = load i32, ptr %size.addr, align 4
  %call = call noalias noundef ptr @_Z10alloc_vectIN7obj_mapI4sort6vectorIN12_GLOBAL__N_127get_implied_equalities_impl7term_idELb1EjEE13obj_map_entryEEPT_j(i32 noundef %0)
  store ptr %call, ptr %entries, align 8
  %1 = load ptr, ptr %entries, align 8
  ret ptr %1
}

; Function Attrs: mustprogress uwtable
define internal noalias noundef ptr @_Z10alloc_vectIN7obj_mapI4sort6vectorIN12_GLOBAL__N_127get_implied_equalities_impl7term_idELb1EjEE13obj_map_entryEEPT_j(i32 noundef %sz) #4 {
entry:
  %sz.addr = alloca i32, align 4
  %r = alloca ptr, align 8
  %curr = alloca ptr, align 8
  %i = alloca i32, align 4
  store i32 %sz, ptr %sz.addr, align 4
  %0 = load i32, ptr %sz.addr, align 4
  %conv = zext i32 %0 to i64
  %mul = mul i64 16, %conv
  %call = call noalias noundef ptr @_ZN6memory8allocateEm(i64 noundef %mul)
  store ptr %call, ptr %r, align 8
  %1 = load ptr, ptr %r, align 8
  store ptr %1, ptr %curr, align 8
  store i32 0, ptr %i, align 4
  br label %for.cond

for.cond:                                         ; preds = %for.inc, %entry
  %2 = load i32, ptr %i, align 4
  %3 = load i32, ptr %sz.addr, align 4
  %cmp = icmp ult i32 %2, %3
  br i1 %cmp, label %for.body, label %for.end

for.body:                                         ; preds = %for.cond
  %4 = load ptr, ptr %curr, align 8
  call void @llvm.memset.p0.i64(ptr align 8 %4, i8 0, i64 16, i1 false)
  call void @_ZN7obj_mapI4sort6vectorIN12_GLOBAL__N_127get_implied_equalities_impl7term_idELb1EjEE13obj_map_entryC2Ev(ptr noundef nonnull align 8 dereferenceable(16) %4)
  br label %for.inc

for.inc:                                          ; preds = %for.body
  %5 = load i32, ptr %i, align 4
  %inc = add i32 %5, 1
  store i32 %inc, ptr %i, align 4
  %6 = load ptr, ptr %curr, align 8
  %incdec.ptr = getelementptr inbounds %"class.obj_map<sort, vector<(anonymous namespace)::get_implied_equalities_impl::term_id>>::obj_map_entry", ptr %6, i32 1
  store ptr %incdec.ptr, ptr %curr, align 8
  br label %for.cond, !llvm.loop !11

for.end:                                          ; preds = %for.cond
  %7 = load ptr, ptr %r, align 8
  ret ptr %7
}

declare noalias noundef ptr @_ZN6memory8allocateEm(i64 noundef) #1

; Function Attrs: mustprogress uwtable
define internal void @_ZN7obj_mapI4sort6vectorIN12_GLOBAL__N_127get_implied_equalities_impl7term_idELb1EjEE13obj_map_entryC2Ev(ptr noundef nonnull align 8 dereferenceable(16) %this) unnamed_addr #4 align 2 {
entry:
  %this.addr = alloca ptr, align 8
  store ptr %this, ptr %this.addr, align 8
  %this1 = load ptr, ptr %this.addr, align 8
  %m_data = getelementptr inbounds %"class.obj_map<sort, vector<(anonymous namespace)::get_implied_equalities_impl::term_id>>::obj_map_entry", ptr %this1, i32 0, i32 0
  call void @_ZN7obj_mapI4sort6vectorIN12_GLOBAL__N_127get_implied_equalities_impl7term_idELb1EjEE8key_dataC2Ev(ptr noundef nonnull align 8 dereferenceable(16) %m_data)
  ret void
}

; Function Attrs: mustprogress nounwind uwtable
define internal void @_ZN7obj_mapI4sort6vectorIN12_GLOBAL__N_127get_implied_equalities_impl7term_idELb1EjEE8key_dataC2Ev(ptr noundef nonnull align 8 dereferenceable(16) %this) unnamed_addr #5 align 2 {
entry:
  %this.addr = alloca ptr, align 8
  store ptr %this, ptr %this.addr, align 8
  %this1 = load ptr, ptr %this.addr, align 8
  %m_key = getelementptr inbounds %"struct.obj_map<sort, vector<(anonymous namespace)::get_implied_equalities_impl::term_id>>::key_data", ptr %this1, i32 0, i32 0
  store ptr null, ptr %m_key, align 8
  %m_value = getelementptr inbounds %"struct.obj_map<sort, vector<(anonymous namespace)::get_implied_equalities_impl::term_id>>::key_data", ptr %this1, i32 0, i32 1
  call void @llvm.memset.p0.i64(ptr align 8 %m_value, i8 0, i64 8, i1 false)
  call void @_ZN6vectorIN12_GLOBAL__N_127get_implied_equalities_impl7term_idELb1EjEC2Ev(ptr noundef nonnull align 8 dereferenceable(8) %m_value) #3
  ret void
}

; Function Attrs: mustprogress nounwind uwtable
define internal void @_ZN6vectorIN12_GLOBAL__N_127get_implied_equalities_impl7term_idELb1EjEC2Ev(ptr noundef nonnull align 8 dereferenceable(8) %this) unnamed_addr #5 align 2 {
entry:
  %this.addr = alloca ptr, align 8
  store ptr %this, ptr %this.addr, align 8
  %this1 = load ptr, ptr %this.addr, align 8
  %m_data = getelementptr inbounds %class.vector.36, ptr %this1, i32 0, i32 0
  store ptr null, ptr %m_data, align 8
  ret void
}

; Function Attrs: mustprogress nounwind uwtable
define linkonce_odr hidden i64 @_ZN9stopwatch3getEv() #5 comdat align 2 {
entry:
  %retval = alloca %"class.std::chrono::time_point", align 8
  %call = call i64 @_ZNSt6chrono3_V212steady_clock3nowEv() #3
  %coerce.dive = getelementptr inbounds %"class.std::chrono::time_point", ptr %retval, i32 0, i32 0
  %coerce.dive1 = getelementptr inbounds %"class.std::chrono::duration", ptr %coerce.dive, i32 0, i32 0
  store i64 %call, ptr %coerce.dive1, align 8
  %coerce.dive2 = getelementptr inbounds %"class.std::chrono::time_point", ptr %retval, i32 0, i32 0
  %coerce.dive3 = getelementptr inbounds %"class.std::chrono::duration", ptr %coerce.dive2, i32 0, i32 0
  %0 = load i64, ptr %coerce.dive3, align 8
  ret i64 %0
}

; Function Attrs: nounwind
declare i64 @_ZNSt6chrono3_V212steady_clock3nowEv() #2

; Function Attrs: mustprogress nounwind uwtable
define linkonce_odr hidden noundef i32 @_ZNK6vectorIjLb0EjE4sizeEv(ptr noundef nonnull align 8 dereferenceable(8) %this) #5 comdat align 2 {
entry:
  %retval = alloca i32, align 4
  %this.addr = alloca ptr, align 8
  store ptr %this, ptr %this.addr, align 8
  %this1 = load ptr, ptr %this.addr, align 8
  %m_data = getelementptr inbounds %class.vector.0, ptr %this1, i32 0, i32 0
  %0 = load ptr, ptr %m_data, align 8
  %cmp = icmp eq ptr %0, null
  br i1 %cmp, label %if.then, label %if.end

if.then:                                          ; preds = %entry
  store i32 0, ptr %retval, align 4
  br label %return

if.end:                                           ; preds = %entry
  %m_data2 = getelementptr inbounds %class.vector.0, ptr %this1, i32 0, i32 0
  %1 = load ptr, ptr %m_data2, align 8
  %arrayidx = getelementptr inbounds i32, ptr %1, i64 -1
  %2 = load i32, ptr %arrayidx, align 4
  store i32 %2, ptr %retval, align 4
  br label %return

return:                                           ; preds = %if.end, %if.then
  %3 = load i32, ptr %retval, align 4
  ret i32 %3
}

; Function Attrs: mustprogress uwtable
define linkonce_odr hidden noundef nonnull align 8 dereferenceable(8) ptr @_ZN6vectorIjLb0EjE9push_backERKj(ptr noundef nonnull align 8 dereferenceable(8) %this, ptr noundef nonnull align 4 dereferenceable(4) %elem) #4 comdat align 2 {
entry:
  %this.addr = alloca ptr, align 8
  %elem.addr = alloca ptr, align 8
  store ptr %this, ptr %this.addr, align 8
  store ptr %elem, ptr %elem.addr, align 8
  %this1 = load ptr, ptr %this.addr, align 8
  %m_data = getelementptr inbounds %class.vector.0, ptr %this1, i32 0, i32 0
  %0 = load ptr, ptr %m_data, align 8
  %cmp = icmp eq ptr %0, null
  br i1 %cmp, label %if.then, label %lor.lhs.false

lor.lhs.false:                                    ; preds = %entry
  %m_data2 = getelementptr inbounds %class.vector.0, ptr %this1, i32 0, i32 0
  %1 = load ptr, ptr %m_data2, align 8
  %arrayidx = getelementptr inbounds i32, ptr %1, i64 -1
  %2 = load i32, ptr %arrayidx, align 4
  %m_data3 = getelementptr inbounds %class.vector.0, ptr %this1, i32 0, i32 0
  %3 = load ptr, ptr %m_data3, align 8
  %arrayidx4 = getelementptr inbounds i32, ptr %3, i64 -2
  %4 = load i32, ptr %arrayidx4, align 4
  %cmp5 = icmp eq i32 %2, %4
  br i1 %cmp5, label %if.then, label %if.end

if.then:                                          ; preds = %lor.lhs.false, %entry
  call void @_ZN6vectorIjLb0EjE13expand_vectorEv(ptr noundef nonnull align 8 dereferenceable(8) %this1)
  br label %if.end

if.end:                                           ; preds = %if.then, %lor.lhs.false
  %m_data6 = getelementptr inbounds %class.vector.0, ptr %this1, i32 0, i32 0
  %5 = load ptr, ptr %m_data6, align 8
  %m_data7 = getelementptr inbounds %class.vector.0, ptr %this1, i32 0, i32 0
  %6 = load ptr, ptr %m_data7, align 8
  %arrayidx8 = getelementptr inbounds i32, ptr %6, i64 -1
  %7 = load i32, ptr %arrayidx8, align 4
  %idx.ext = zext i32 %7 to i64
  %add.ptr = getelementptr inbounds i32, ptr %5, i64 %idx.ext
  %8 = load ptr, ptr %elem.addr, align 8
  %9 = load i32, ptr %8, align 4
  store i32 %9, ptr %add.ptr, align 4
  %m_data9 = getelementptr inbounds %class.vector.0, ptr %this1, i32 0, i32 0
  %10 = load ptr, ptr %m_data9, align 8
  %arrayidx10 = getelementptr inbounds i32, ptr %10, i64 -1
  %11 = load i32, ptr %arrayidx10, align 4
  %inc = add i32 %11, 1
  store i32 %inc, ptr %arrayidx10, align 4
  ret ptr %this1
}

; Function Attrs: mustprogress uwtable
define linkonce_odr hidden noundef nonnull align 8 dereferenceable(8) ptr @_ZN6vectorIjLb0EjE9push_backEOj(ptr noundef nonnull align 8 dereferenceable(8) %this, ptr noundef nonnull align 4 dereferenceable(4) %elem) #4 comdat align 2 {
entry:
  %this.addr = alloca ptr, align 8
  %elem.addr = alloca ptr, align 8
  store ptr %this, ptr %this.addr, align 8
  store ptr %elem, ptr %elem.addr, align 8
  %this1 = load ptr, ptr %this.addr, align 8
  %m_data = getelementptr inbounds %class.vector.0, ptr %this1, i32 0, i32 0
  %0 = load ptr, ptr %m_data, align 8
  %cmp = icmp eq ptr %0, null
  br i1 %cmp, label %if.then, label %lor.lhs.false

lor.lhs.false:                                    ; preds = %entry
  %m_data2 = getelementptr inbounds %class.vector.0, ptr %this1, i32 0, i32 0
  %1 = load ptr, ptr %m_data2, align 8
  %arrayidx = getelementptr inbounds i32, ptr %1, i64 -1
  %2 = load i32, ptr %arrayidx, align 4
  %m_data3 = getelementptr inbounds %class.vector.0, ptr %this1, i32 0, i32 0
  %3 = load ptr, ptr %m_data3, align 8
  %arrayidx4 = getelementptr inbounds i32, ptr %3, i64 -2
  %4 = load i32, ptr %arrayidx4, align 4
  %cmp5 = icmp eq i32 %2, %4
  br i1 %cmp5, label %if.then, label %if.end

if.then:                                          ; preds = %lor.lhs.false, %entry
  call void @_ZN6vectorIjLb0EjE13expand_vectorEv(ptr noundef nonnull align 8 dereferenceable(8) %this1)
  br label %if.end

if.end:                                           ; preds = %if.then, %lor.lhs.false
  %m_data6 = getelementptr inbounds %class.vector.0, ptr %this1, i32 0, i32 0
  %5 = load ptr, ptr %m_data6, align 8
  %m_data7 = getelementptr inbounds %class.vector.0, ptr %this1, i32 0, i32 0
  %6 = load ptr, ptr %m_data7, align 8
  %arrayidx8 = getelementptr inbounds i32, ptr %6, i64 -1
  %7 = load i32, ptr %arrayidx8, align 4
  %idx.ext = zext i32 %7 to i64
  %add.ptr = getelementptr inbounds i32, ptr %5, i64 %idx.ext
  %8 = load ptr, ptr %elem.addr, align 8
  %9 = load i32, ptr %8, align 4
  store i32 %9, ptr %add.ptr, align 4
  %m_data9 = getelementptr inbounds %class.vector.0, ptr %this1, i32 0, i32 0
  %10 = load ptr, ptr %m_data9, align 8
  %arrayidx10 = getelementptr inbounds i32, ptr %10, i64 -1
  %11 = load i32, ptr %arrayidx10, align 4
  %inc = add i32 %11, 1
  store i32 %inc, ptr %arrayidx10, align 4
  ret ptr %this1
}

; Function Attrs: mustprogress uwtable
define linkonce_odr hidden void @_ZN11trail_stack8push_ptrEP5trail(ptr noundef nonnull align 8 dereferenceable(56) %this, ptr noundef %t) #4 comdat align 2 {
entry:
  %this.addr = alloca ptr, align 8
  %t.addr = alloca ptr, align 8
  store ptr %this, ptr %this.addr, align 8
  store ptr %t, ptr %t.addr, align 8
  %this1 = load ptr, ptr %this.addr, align 8
  %m_trail_stack = getelementptr inbounds %class.trail_stack, ptr %this1, i32 0, i32 0
  %call = call noundef nonnull align 8 dereferenceable(8) ptr @_ZN6vectorIP5trailLb0EjE9push_backERKS1_(ptr noundef nonnull align 8 dereferenceable(8) %m_trail_stack, ptr noundef nonnull align 8 dereferenceable(8) %t.addr)
  ret void
}

; Function Attrs: mustprogress uwtable
define linkonce_odr hidden void @_ZN6vectorIjLb0EjE13expand_vectorEv(ptr noundef nonnull align 8 dereferenceable(8) %this) #4 comdat align 2 personality ptr @__gxx_personality_v0 {
entry:
  %this.addr = alloca ptr, align 8
  %capacity = alloca i32, align 4
  %mem = alloca ptr, align 8
  %old_capacity = alloca i32, align 4
  %old_capacity_T = alloca i32, align 4
  %new_capacity = alloca i32, align 4
  %new_capacity_T = alloca i32, align 4
  %ref.tmp = alloca %"class.std::__cxx11::basic_string", align 8
  %ref.tmp18 = alloca %"class.std::allocator", align 1
  %exn.slot = alloca ptr, align 8
  %ehselector.slot = alloca i32, align 4
  %cleanup.isactive = alloca i1, align 1
  %mem22 = alloca ptr, align 8
  %old_mem = alloca ptr, align 8
  store ptr %this, ptr %this.addr, align 8
  %this1 = load ptr, ptr %this.addr, align 8
  %m_data = getelementptr inbounds %class.vector.0, ptr %this1, i32 0, i32 0
  %0 = load ptr, ptr %m_data, align 8
  %cmp = icmp eq ptr %0, null
  br i1 %cmp, label %if.then, label %if.else

if.then:                                          ; preds = %entry
  store i32 2, ptr %capacity, align 4
  %1 = load i32, ptr %capacity, align 4
  %conv = zext i32 %1 to i64
  %mul = mul i64 4, %conv
  %add = add i64 %mul, 8
  %call = call noalias noundef ptr @_ZN6memory8allocateEm(i64 noundef %add)
  store ptr %call, ptr %mem, align 8
  %2 = load i32, ptr %capacity, align 4
  %3 = load ptr, ptr %mem, align 8
  store i32 %2, ptr %3, align 4
  %4 = load ptr, ptr %mem, align 8
  %incdec.ptr = getelementptr inbounds i32, ptr %4, i32 1
  store ptr %incdec.ptr, ptr %mem, align 8
  %5 = load ptr, ptr %mem, align 8
  store i32 0, ptr %5, align 4
  %6 = load ptr, ptr %mem, align 8
  %incdec.ptr2 = getelementptr inbounds i32, ptr %6, i32 1
  store ptr %incdec.ptr2, ptr %mem, align 8
  %7 = load ptr, ptr %mem, align 8
  %m_data3 = getelementptr inbounds %class.vector.0, ptr %this1, i32 0, i32 0
  store ptr %7, ptr %m_data3, align 8
  br label %if.end28

if.else:                                          ; preds = %entry
  %m_data4 = getelementptr inbounds %class.vector.0, ptr %this1, i32 0, i32 0
  %8 = load ptr, ptr %m_data4, align 8
  %arrayidx = getelementptr inbounds i32, ptr %8, i64 -2
  %9 = load i32, ptr %arrayidx, align 4
  store i32 %9, ptr %old_capacity, align 4
  %10 = load i32, ptr %old_capacity, align 4
  %conv5 = zext i32 %10 to i64
  %mul6 = mul i64 4, %conv5
  %add7 = add i64 %mul6, 8
  %conv8 = trunc i64 %add7 to i32
  store i32 %conv8, ptr %old_capacity_T, align 4
  %11 = load i32, ptr %old_capacity, align 4
  %mul9 = mul i32 3, %11
  %add10 = add i32 %mul9, 1
  %shr = lshr i32 %add10, 1
  store i32 %shr, ptr %new_capacity, align 4
  %12 = load i32, ptr %new_capacity, align 4
  %conv11 = zext i32 %12 to i64
  %mul12 = mul i64 4, %conv11
  %add13 = add i64 %mul12, 8
  %conv14 = trunc i64 %add13 to i32
  store i32 %conv14, ptr %new_capacity_T, align 4
  %13 = load i32, ptr %new_capacity, align 4
  %14 = load i32, ptr %old_capacity, align 4
  %cmp15 = icmp ule i32 %13, %14
  br i1 %cmp15, label %if.then17, label %lor.lhs.false

lor.lhs.false:                                    ; preds = %if.else
  %15 = load i32, ptr %new_capacity_T, align 4
  %16 = load i32, ptr %old_capacity_T, align 4
  %cmp16 = icmp ule i32 %15, %16
  br i1 %cmp16, label %if.then17, label %if.end

if.then17:                                        ; preds = %lor.lhs.false, %if.else
  store i1 true, ptr %cleanup.isactive, align 1
  %exception = call ptr @__cxa_allocate_exception(i64 40) #3
  call void @_ZNSaIcEC1Ev(ptr noundef nonnull align 1 dereferenceable(1) %ref.tmp18) #3
  invoke void @_ZNSt7__cxx1112basic_stringIcSt11char_traitsIcESaIcEEC2IS3_EEPKcRKS3_(ptr noundef nonnull align 8 dereferenceable(32) %ref.tmp, ptr noundef @.str.5, ptr noundef nonnull align 1 dereferenceable(1) %ref.tmp18)
          to label %invoke.cont unwind label %lpad

invoke.cont:                                      ; preds = %if.then17
  invoke void @_ZN17default_exceptionC2EONSt7__cxx1112basic_stringIcSt11char_traitsIcESaIcEEE(ptr noundef nonnull align 8 dereferenceable(40) %exception, ptr noundef nonnull align 8 dereferenceable(32) %ref.tmp)
          to label %invoke.cont20 unwind label %lpad19

invoke.cont20:                                    ; preds = %invoke.cont
  store i1 false, ptr %cleanup.isactive, align 1
  invoke void @__cxa_throw(ptr %exception, ptr @_ZTI17default_exception, ptr @_ZN17default_exceptionD2Ev) #16
          to label %unreachable unwind label %lpad19

lpad:                                             ; preds = %if.then17
  %17 = landingpad { ptr, i32 }
          cleanup
  %18 = extractvalue { ptr, i32 } %17, 0
  store ptr %18, ptr %exn.slot, align 8
  %19 = extractvalue { ptr, i32 } %17, 1
  store i32 %19, ptr %ehselector.slot, align 4
  br label %ehcleanup

lpad19:                                           ; preds = %invoke.cont20, %invoke.cont
  %20 = landingpad { ptr, i32 }
          cleanup
  %21 = extractvalue { ptr, i32 } %20, 0
  store ptr %21, ptr %exn.slot, align 8
  %22 = extractvalue { ptr, i32 } %20, 1
  store i32 %22, ptr %ehselector.slot, align 4
  call void @_ZNSt7__cxx1112basic_stringIcSt11char_traitsIcESaIcEED1Ev(ptr noundef nonnull align 8 dereferenceable(32) %ref.tmp) #3
  br label %ehcleanup

ehcleanup:                                        ; preds = %lpad19, %lpad
  call void @_ZNSaIcED1Ev(ptr noundef nonnull align 1 dereferenceable(1) %ref.tmp18) #3
  %cleanup.is_active = load i1, ptr %cleanup.isactive, align 1
  br i1 %cleanup.is_active, label %cleanup.action, label %cleanup.done

cleanup.action:                                   ; preds = %ehcleanup
  call void @__cxa_free_exception(ptr %exception) #3
  br label %cleanup.done

cleanup.done:                                     ; preds = %cleanup.action, %ehcleanup
  br label %eh.resume

if.end:                                           ; preds = %lor.lhs.false
  %m_data23 = getelementptr inbounds %class.vector.0, ptr %this1, i32 0, i32 0
  %23 = load ptr, ptr %m_data23, align 8
  %add.ptr = getelementptr inbounds i32, ptr %23, i64 -2
  store ptr %add.ptr, ptr %old_mem, align 8
  %24 = load ptr, ptr %old_mem, align 8
  %25 = load i32, ptr %new_capacity_T, align 4
  %conv24 = zext i32 %25 to i64
  %call25 = call noalias noundef ptr @_ZN6memory10reallocateEPvm(ptr noundef %24, i64 noundef %conv24)
  store ptr %call25, ptr %mem22, align 8
  %26 = load ptr, ptr %mem22, align 8
  %add.ptr26 = getelementptr inbounds i32, ptr %26, i64 2
  %m_data27 = getelementptr inbounds %class.vector.0, ptr %this1, i32 0, i32 0
  store ptr %add.ptr26, ptr %m_data27, align 8
  %27 = load i32, ptr %new_capacity, align 4
  %28 = load ptr, ptr %mem22, align 8
  store i32 %27, ptr %28, align 4
  br label %if.end28

if.end28:                                         ; preds = %if.end, %if.then
  ret void

eh.resume:                                        ; preds = %cleanup.done
  %exn = load ptr, ptr %exn.slot, align 8
  %sel = load i32, ptr %ehselector.slot, align 4
  %lpad.val = insertvalue { ptr, i32 } poison, ptr %exn, 0
  %lpad.val29 = insertvalue { ptr, i32 } %lpad.val, i32 %sel, 1
  resume { ptr, i32 } %lpad.val29

unreachable:                                      ; preds = %invoke.cont20
  unreachable
}

declare ptr @__cxa_allocate_exception(i64)

; Function Attrs: nounwind
declare void @_ZNSaIcEC1Ev(ptr noundef nonnull align 1 dereferenceable(1)) unnamed_addr #2

; Function Attrs: mustprogress uwtable
define linkonce_odr hidden void @_ZNSt7__cxx1112basic_stringIcSt11char_traitsIcESaIcEEC2IS3_EEPKcRKS3_(ptr noundef nonnull align 8 dereferenceable(32) %this, ptr noundef %__s, ptr noundef nonnull align 1 dereferenceable(1) %__a) unnamed_addr #4 comdat align 2 personality ptr @__gxx_personality_v0 {
entry:
  %this.addr = alloca ptr, align 8
  %__s.addr = alloca ptr, align 8
  %__a.addr = alloca ptr, align 8
  %exn.slot = alloca ptr, align 8
  %ehselector.slot = alloca i32, align 4
  %__end = alloca ptr, align 8
  store ptr %this, ptr %this.addr, align 8
  store ptr %__s, ptr %__s.addr, align 8
  store ptr %__a, ptr %__a.addr, align 8
  %this1 = load ptr, ptr %this.addr, align 8
  %_M_dataplus = getelementptr inbounds %"class.std::__cxx11::basic_string", ptr %this1, i32 0, i32 0
  %call = call noundef ptr @_ZNSt7__cxx1112basic_stringIcSt11char_traitsIcESaIcEE13_M_local_dataEv(ptr noundef nonnull align 8 dereferenceable(32) %this1)
  %0 = load ptr, ptr %__a.addr, align 8
  call void @_ZNSt7__cxx1112basic_stringIcSt11char_traitsIcESaIcEE12_Alloc_hiderC1EPcRKS3_(ptr noundef nonnull align 8 dereferenceable(8) %_M_dataplus, ptr noundef %call, ptr noundef nonnull align 1 dereferenceable(1) %0)
  %1 = load ptr, ptr %__s.addr, align 8
  %cmp = icmp eq ptr %1, null
  br i1 %cmp, label %if.then, label %if.end

if.then:                                          ; preds = %entry
  invoke void @_ZSt19__throw_logic_errorPKc(ptr noundef @.str.6) #16
          to label %invoke.cont unwind label %lpad

invoke.cont:                                      ; preds = %if.then
  unreachable

lpad:                                             ; preds = %invoke.cont2, %if.end, %if.then
  %2 = landingpad { ptr, i32 }
          cleanup
  %3 = extractvalue { ptr, i32 } %2, 0
  store ptr %3, ptr %exn.slot, align 8
  %4 = extractvalue { ptr, i32 } %2, 1
  store i32 %4, ptr %ehselector.slot, align 4
  call void @_ZNSt7__cxx1112basic_stringIcSt11char_traitsIcESaIcEE12_Alloc_hiderD2Ev(ptr noundef nonnull align 8 dereferenceable(8) %_M_dataplus) #3
  br label %eh.resume

if.end:                                           ; preds = %entry
  %5 = load ptr, ptr %__s.addr, align 8
  %6 = load ptr, ptr %__s.addr, align 8
  %call3 = invoke noundef i64 @_ZNSt11char_traitsIcE6lengthEPKc(ptr noundef %6)
          to label %invoke.cont2 unwind label %lpad

invoke.cont2:                                     ; preds = %if.end
  %add.ptr = getelementptr inbounds i8, ptr %5, i64 %call3
  store ptr %add.ptr, ptr %__end, align 8
  %7 = load ptr, ptr %__s.addr, align 8
  %8 = load ptr, ptr %__end, align 8
  invoke void @_ZNSt7__cxx1112basic_stringIcSt11char_traitsIcESaIcEE12_M_constructIPKcEEvT_S8_St20forward_iterator_tag(ptr noundef nonnull align 8 dereferenceable(32) %this1, ptr noundef %7, ptr noundef %8)
          to label %invoke.cont4 unwind label %lpad

invoke.cont4:                                     ; preds = %invoke.cont2
  ret void

eh.resume:                                        ; preds = %lpad
  %exn = load ptr, ptr %exn.slot, align 8
  %sel = load i32, ptr %ehselector.slot, align 4
  %lpad.val = insertvalue { ptr, i32 } poison, ptr %exn, 0
  %lpad.val5 = insertvalue { ptr, i32 } %lpad.val, i32 %sel, 1
  resume { ptr, i32 } %lpad.val5
}

; Function Attrs: mustprogress nounwind uwtable
define linkonce_odr hidden void @_ZN17default_exceptionC2EONSt7__cxx1112basic_stringIcSt11char_traitsIcESaIcEEE(ptr noundef nonnull align 8 dereferenceable(40) %this, ptr noundef nonnull align 8 dereferenceable(32) %msg) unnamed_addr #5 comdat align 2 {
entry:
  %this.addr = alloca ptr, align 8
  %msg.addr = alloca ptr, align 8
  store ptr %this, ptr %this.addr, align 8
  store ptr %msg, ptr %msg.addr, align 8
  %this1 = load ptr, ptr %this.addr, align 8
  call void @_ZN12z3_exceptionC2Ev(ptr noundef nonnull align 8 dereferenceable(8) %this1) #3
  store ptr getelementptr inbounds ({ [6 x ptr] }, ptr @_ZTV17default_exception, i32 0, inrange i32 0, i32 2), ptr %this1, align 8
  %m_msg = getelementptr inbounds %class.default_exception, ptr %this1, i32 0, i32 1
  %0 = load ptr, ptr %msg.addr, align 8
  call void @_ZNSt7__cxx1112basic_stringIcSt11char_traitsIcESaIcEEC1EOS4_(ptr noundef nonnull align 8 dereferenceable(32) %m_msg, ptr noundef nonnull align 8 dereferenceable(32) %0) #3
  ret void
}

; Function Attrs: mustprogress nounwind uwtable
define linkonce_odr hidden void @_ZN17default_exceptionD2Ev(ptr noundef nonnull align 8 dereferenceable(40) %this) unnamed_addr #5 comdat align 2 {
entry:
  %this.addr = alloca ptr, align 8
  store ptr %this, ptr %this.addr, align 8
  %this1 = load ptr, ptr %this.addr, align 8
  store ptr getelementptr inbounds ({ [6 x ptr] }, ptr @_ZTV17default_exception, i32 0, inrange i32 0, i32 2), ptr %this1, align 8
  %m_msg = getelementptr inbounds %class.default_exception, ptr %this1, i32 0, i32 1
  call void @_ZNSt7__cxx1112basic_stringIcSt11char_traitsIcESaIcEED1Ev(ptr noundef nonnull align 8 dereferenceable(32) %m_msg) #3
  call void @_ZN12z3_exceptionD2Ev(ptr noundef nonnull align 8 dereferenceable(8) %this1) #3
  ret void
}

declare void @__cxa_throw(ptr, ptr, ptr)

; Function Attrs: nounwind
declare void @_ZNSt7__cxx1112basic_stringIcSt11char_traitsIcESaIcEED1Ev(ptr noundef nonnull align 8 dereferenceable(32)) unnamed_addr #2

; Function Attrs: nounwind
declare void @_ZNSaIcED1Ev(ptr noundef nonnull align 1 dereferenceable(1)) unnamed_addr #2

declare void @__cxa_free_exception(ptr)

declare noalias noundef ptr @_ZN6memory10reallocateEPvm(ptr noundef, i64 noundef) #1

declare noundef ptr @_ZNSt7__cxx1112basic_stringIcSt11char_traitsIcESaIcEE13_M_local_dataEv(ptr noundef nonnull align 8 dereferenceable(32)) #1

declare void @_ZNSt7__cxx1112basic_stringIcSt11char_traitsIcESaIcEE12_Alloc_hiderC1EPcRKS3_(ptr noundef nonnull align 8 dereferenceable(8), ptr noundef, ptr noundef nonnull align 1 dereferenceable(1)) unnamed_addr #1

; Function Attrs: noreturn
declare void @_ZSt19__throw_logic_errorPKc(ptr noundef) #11

; Function Attrs: mustprogress nounwind uwtable
define linkonce_odr hidden noundef i64 @_ZNSt11char_traitsIcE6lengthEPKc(ptr noundef %__s) #5 comdat align 2 {
entry:
  %__s.addr = alloca ptr, align 8
  store ptr %__s, ptr %__s.addr, align 8
  %0 = load ptr, ptr %__s.addr, align 8
  %call = call i64 @strlen(ptr noundef %0) #3
  ret i64 %call
}

; Function Attrs: mustprogress uwtable
define linkonce_odr void @_ZNSt7__cxx1112basic_stringIcSt11char_traitsIcESaIcEE12_M_constructIPKcEEvT_S8_St20forward_iterator_tag(ptr noundef nonnull align 8 dereferenceable(32) %this, ptr noundef %__beg, ptr noundef %__end) #4 comdat align 2 personality ptr @__gxx_personality_v0 {
entry:
  %this.addr.i = alloca ptr, align 8
  %this.addr = alloca ptr, align 8
  %__beg.addr = alloca ptr, align 8
  %__end.addr = alloca ptr, align 8
  %__dnew = alloca i64, align 8
  %__guard = alloca %struct._Guard, align 8
  %exn.slot = alloca ptr, align 8
  %ehselector.slot = alloca i32, align 4
  store ptr %this, ptr %this.addr, align 8
  store ptr %__beg, ptr %__beg.addr, align 8
  store ptr %__end, ptr %__end.addr, align 8
  %this1 = load ptr, ptr %this.addr, align 8
  %0 = load ptr, ptr %__beg.addr, align 8
  %1 = load ptr, ptr %__end.addr, align 8
  %call = call noundef i64 @_ZSt8distanceIPKcENSt15iterator_traitsIT_E15difference_typeES3_S3_(ptr noundef %0, ptr noundef %1)
  store i64 %call, ptr %__dnew, align 8
  %2 = load i64, ptr %__dnew, align 8
  %cmp = icmp ugt i64 %2, 15
  br i1 %cmp, label %if.then, label %if.else

if.then:                                          ; preds = %entry
  %call2 = call noundef ptr @_ZNSt7__cxx1112basic_stringIcSt11char_traitsIcESaIcEE9_M_createERmm(ptr noundef nonnull align 8 dereferenceable(32) %this1, ptr noundef nonnull align 8 dereferenceable(8) %__dnew, i64 noundef 0)
  call void @_ZNSt7__cxx1112basic_stringIcSt11char_traitsIcESaIcEE7_M_dataEPc(ptr noundef nonnull align 8 dereferenceable(32) %this1, ptr noundef %call2)
  %3 = load i64, ptr %__dnew, align 8
  call void @_ZNSt7__cxx1112basic_stringIcSt11char_traitsIcESaIcEE11_M_capacityEm(ptr noundef nonnull align 8 dereferenceable(32) %this1, i64 noundef %3)
  br label %if.end

if.else:                                          ; preds = %entry
  store ptr %this1, ptr %this.addr.i, align 8
  %this1.i = load ptr, ptr %this.addr.i, align 8
  %call.i = invoke noundef ptr @_ZNSt7__cxx1112basic_stringIcSt11char_traitsIcESaIcEE13_M_local_dataEv(ptr noundef nonnull align 8 dereferenceable(32) %this1.i)
          to label %_ZNSt7__cxx1112basic_stringIcSt11char_traitsIcESaIcEE17_M_use_local_dataEv.exit unwind label %terminate.lpad.i

terminate.lpad.i:                                 ; preds = %if.else
  %4 = landingpad { ptr, i32 }
          catch ptr null
  %5 = extractvalue { ptr, i32 } %4, 0
  call void @__clang_call_terminate(ptr %5) #14
  unreachable

_ZNSt7__cxx1112basic_stringIcSt11char_traitsIcESaIcEE17_M_use_local_dataEv.exit: ; preds = %if.else
  br label %if.end

if.end:                                           ; preds = %_ZNSt7__cxx1112basic_stringIcSt11char_traitsIcESaIcEE17_M_use_local_dataEv.exit, %if.then
  call void @_ZZNSt7__cxx1112basic_stringIcSt11char_traitsIcESaIcEE12_M_constructIPKcEEvT_S8_St20forward_iterator_tagEN6_GuardC2EPS4_(ptr noundef nonnull align 8 dereferenceable(8) %__guard, ptr noundef %this1)
  %call4 = invoke noundef ptr @_ZNKSt7__cxx1112basic_stringIcSt11char_traitsIcESaIcEE7_M_dataEv(ptr noundef nonnull align 8 dereferenceable(32) %this1)
          to label %invoke.cont unwind label %lpad

invoke.cont:                                      ; preds = %if.end
  %6 = load ptr, ptr %__beg.addr, align 8
  %7 = load ptr, ptr %__end.addr, align 8
  call void @_ZNSt7__cxx1112basic_stringIcSt11char_traitsIcESaIcEE13_S_copy_charsEPcPKcS7_(ptr noundef %call4, ptr noundef %6, ptr noundef %7) #3
  %_M_guarded = getelementptr inbounds %struct._Guard, ptr %__guard, i32 0, i32 0
  store ptr null, ptr %_M_guarded, align 8
  %8 = load i64, ptr %__dnew, align 8
  invoke void @_ZNSt7__cxx1112basic_stringIcSt11char_traitsIcESaIcEE13_M_set_lengthEm(ptr noundef nonnull align 8 dereferenceable(32) %this1, i64 noundef %8)
          to label %invoke.cont5 unwind label %lpad

invoke.cont5:                                     ; preds = %invoke.cont
  call void @_ZZNSt7__cxx1112basic_stringIcSt11char_traitsIcESaIcEE12_M_constructIPKcEEvT_S8_St20forward_iterator_tagEN6_GuardD2Ev(ptr noundef nonnull align 8 dereferenceable(8) %__guard) #3
  ret void

lpad:                                             ; preds = %invoke.cont, %if.end
  %9 = landingpad { ptr, i32 }
          cleanup
  %10 = extractvalue { ptr, i32 } %9, 0
  store ptr %10, ptr %exn.slot, align 8
  %11 = extractvalue { ptr, i32 } %9, 1
  store i32 %11, ptr %ehselector.slot, align 4
  call void @_ZZNSt7__cxx1112basic_stringIcSt11char_traitsIcESaIcEE12_M_constructIPKcEEvT_S8_St20forward_iterator_tagEN6_GuardD2Ev(ptr noundef nonnull align 8 dereferenceable(8) %__guard) #3
  br label %eh.resume

eh.resume:                                        ; preds = %lpad
  %exn = load ptr, ptr %exn.slot, align 8
  %sel = load i32, ptr %ehselector.slot, align 4
  %lpad.val = insertvalue { ptr, i32 } poison, ptr %exn, 0
  %lpad.val6 = insertvalue { ptr, i32 } %lpad.val, i32 %sel, 1
  resume { ptr, i32 } %lpad.val6
}

; Function Attrs: mustprogress nounwind uwtable
define linkonce_odr hidden void @_ZNSt7__cxx1112basic_stringIcSt11char_traitsIcESaIcEE12_Alloc_hiderD2Ev(ptr noundef nonnull align 8 dereferenceable(8) %this) unnamed_addr #5 comdat align 2 {
entry:
  %this.addr = alloca ptr, align 8
  store ptr %this, ptr %this.addr, align 8
  %this1 = load ptr, ptr %this.addr, align 8
  call void @_ZNSaIcED2Ev(ptr noundef nonnull align 1 dereferenceable(1) %this1) #3
  ret void
}

; Function Attrs: nounwind
declare i64 @strlen(ptr noundef) #2

; Function Attrs: mustprogress uwtable
define linkonce_odr noundef i64 @_ZSt8distanceIPKcENSt15iterator_traitsIT_E15difference_typeES3_S3_(ptr noundef %__first, ptr noundef %__last) #4 comdat {
entry:
  %__first.addr = alloca ptr, align 8
  %__last.addr = alloca ptr, align 8
  store ptr %__first, ptr %__first.addr, align 8
  store ptr %__last, ptr %__last.addr, align 8
  %0 = load ptr, ptr %__first.addr, align 8
  %1 = load ptr, ptr %__last.addr, align 8
  call void @_ZSt19__iterator_categoryIPKcENSt15iterator_traitsIT_E17iterator_categoryERKS3_(ptr noundef nonnull align 8 dereferenceable(8) %__first.addr)
  %call = call noundef i64 @_ZSt10__distanceIPKcENSt15iterator_traitsIT_E15difference_typeES3_S3_St26random_access_iterator_tag(ptr noundef %0, ptr noundef %1)
  ret i64 %call
}

declare void @_ZNSt7__cxx1112basic_stringIcSt11char_traitsIcESaIcEE7_M_dataEPc(ptr noundef nonnull align 8 dereferenceable(32), ptr noundef) #1

declare noundef ptr @_ZNSt7__cxx1112basic_stringIcSt11char_traitsIcESaIcEE9_M_createERmm(ptr noundef nonnull align 8 dereferenceable(32), ptr noundef nonnull align 8 dereferenceable(8), i64 noundef) #1

declare void @_ZNSt7__cxx1112basic_stringIcSt11char_traitsIcESaIcEE11_M_capacityEm(ptr noundef nonnull align 8 dereferenceable(32), i64 noundef) #1

; Function Attrs: mustprogress nounwind uwtable
define linkonce_odr hidden void @_ZZNSt7__cxx1112basic_stringIcSt11char_traitsIcESaIcEE12_M_constructIPKcEEvT_S8_St20forward_iterator_tagEN6_GuardC2EPS4_(ptr noundef nonnull align 8 dereferenceable(8) %this, ptr noundef %__s) unnamed_addr #5 comdat align 2 {
entry:
  %this.addr = alloca ptr, align 8
  %__s.addr = alloca ptr, align 8
  store ptr %this, ptr %this.addr, align 8
  store ptr %__s, ptr %__s.addr, align 8
  %this1 = load ptr, ptr %this.addr, align 8
  %_M_guarded = getelementptr inbounds %struct._Guard, ptr %this1, i32 0, i32 0
  %0 = load ptr, ptr %__s.addr, align 8
  store ptr %0, ptr %_M_guarded, align 8
  ret void
}

; Function Attrs: nounwind
declare void @_ZNSt7__cxx1112basic_stringIcSt11char_traitsIcESaIcEE13_S_copy_charsEPcPKcS7_(ptr noundef, ptr noundef, ptr noundef) #2

declare noundef ptr @_ZNKSt7__cxx1112basic_stringIcSt11char_traitsIcESaIcEE7_M_dataEv(ptr noundef nonnull align 8 dereferenceable(32)) #1

declare void @_ZNSt7__cxx1112basic_stringIcSt11char_traitsIcESaIcEE13_M_set_lengthEm(ptr noundef nonnull align 8 dereferenceable(32), i64 noundef) #1

; Function Attrs: mustprogress nounwind uwtable
define linkonce_odr hidden void @_ZZNSt7__cxx1112basic_stringIcSt11char_traitsIcESaIcEE12_M_constructIPKcEEvT_S8_St20forward_iterator_tagEN6_GuardD2Ev(ptr noundef nonnull align 8 dereferenceable(8) %this) unnamed_addr #5 comdat align 2 personality ptr @__gxx_personality_v0 {
entry:
  %this.addr = alloca ptr, align 8
  store ptr %this, ptr %this.addr, align 8
  %this1 = load ptr, ptr %this.addr, align 8
  %_M_guarded = getelementptr inbounds %struct._Guard, ptr %this1, i32 0, i32 0
  %0 = load ptr, ptr %_M_guarded, align 8
  %tobool = icmp ne ptr %0, null
  br i1 %tobool, label %if.then, label %if.end

if.then:                                          ; preds = %entry
  %_M_guarded2 = getelementptr inbounds %struct._Guard, ptr %this1, i32 0, i32 0
  %1 = load ptr, ptr %_M_guarded2, align 8
  invoke void @_ZNSt7__cxx1112basic_stringIcSt11char_traitsIcESaIcEE10_M_disposeEv(ptr noundef nonnull align 8 dereferenceable(32) %1)
          to label %invoke.cont unwind label %terminate.lpad

invoke.cont:                                      ; preds = %if.then
  br label %if.end

if.end:                                           ; preds = %invoke.cont, %entry
  ret void

terminate.lpad:                                   ; preds = %if.then
  %2 = landingpad { ptr, i32 }
          catch ptr null
  %3 = extractvalue { ptr, i32 } %2, 0
  call void @__clang_call_terminate(ptr %3) #14
  unreachable
}

; Function Attrs: mustprogress nounwind uwtable
define linkonce_odr noundef i64 @_ZSt10__distanceIPKcENSt15iterator_traitsIT_E15difference_typeES3_S3_St26random_access_iterator_tag(ptr noundef %__first, ptr noundef %__last) #5 comdat {
entry:
  %__first.addr = alloca ptr, align 8
  %__last.addr = alloca ptr, align 8
  store ptr %__first, ptr %__first.addr, align 8
  store ptr %__last, ptr %__last.addr, align 8
  %0 = load ptr, ptr %__last.addr, align 8
  %1 = load ptr, ptr %__first.addr, align 8
  %sub.ptr.lhs.cast = ptrtoint ptr %0 to i64
  %sub.ptr.rhs.cast = ptrtoint ptr %1 to i64
  %sub.ptr.sub = sub i64 %sub.ptr.lhs.cast, %sub.ptr.rhs.cast
  ret i64 %sub.ptr.sub
}

; Function Attrs: mustprogress nounwind uwtable
define linkonce_odr void @_ZSt19__iterator_categoryIPKcENSt15iterator_traitsIT_E17iterator_categoryERKS3_(ptr noundef nonnull align 8 dereferenceable(8) %0) #5 comdat {
entry:
  %.addr = alloca ptr, align 8
  store ptr %0, ptr %.addr, align 8
  ret void
}

declare void @_ZNSt7__cxx1112basic_stringIcSt11char_traitsIcESaIcEE10_M_disposeEv(ptr noundef nonnull align 8 dereferenceable(32)) #1

; Function Attrs: nounwind
declare void @_ZNSaIcED2Ev(ptr noundef nonnull align 1 dereferenceable(1)) unnamed_addr #2

; Function Attrs: mustprogress nounwind uwtable
define linkonce_odr hidden void @_ZN12z3_exceptionC2Ev(ptr noundef nonnull align 8 dereferenceable(8) %this) unnamed_addr #5 comdat align 2 {
entry:
  %this.addr = alloca ptr, align 8
  store ptr %this, ptr %this.addr, align 8
  %this1 = load ptr, ptr %this.addr, align 8
  store ptr getelementptr inbounds ({ [6 x ptr] }, ptr @_ZTV12z3_exception, i32 0, inrange i32 0, i32 2), ptr %this1, align 8
  ret void
}

; Function Attrs: nounwind
declare void @_ZNSt7__cxx1112basic_stringIcSt11char_traitsIcESaIcEEC1EOS4_(ptr noundef nonnull align 8 dereferenceable(32), ptr noundef nonnull align 8 dereferenceable(32)) unnamed_addr #2

; Function Attrs: mustprogress nounwind uwtable
define linkonce_odr hidden void @_ZN12z3_exceptionD2Ev(ptr noundef nonnull align 8 dereferenceable(8) %this) unnamed_addr #5 comdat align 2 {
entry:
  %this.addr = alloca ptr, align 8
  store ptr %this, ptr %this.addr, align 8
  ret void
}

; Function Attrs: mustprogress uwtable
define linkonce_odr hidden noundef nonnull align 8 dereferenceable(8) ptr @_ZN6vectorIP5trailLb0EjE9push_backERKS1_(ptr noundef nonnull align 8 dereferenceable(8) %this, ptr noundef nonnull align 8 dereferenceable(8) %elem) #4 comdat align 2 {
entry:
  %this.addr = alloca ptr, align 8
  %elem.addr = alloca ptr, align 8
  store ptr %this, ptr %this.addr, align 8
  store ptr %elem, ptr %elem.addr, align 8
  %this1 = load ptr, ptr %this.addr, align 8
  %m_data = getelementptr inbounds %class.vector, ptr %this1, i32 0, i32 0
  %0 = load ptr, ptr %m_data, align 8
  %cmp = icmp eq ptr %0, null
  br i1 %cmp, label %if.then, label %lor.lhs.false

lor.lhs.false:                                    ; preds = %entry
  %m_data2 = getelementptr inbounds %class.vector, ptr %this1, i32 0, i32 0
  %1 = load ptr, ptr %m_data2, align 8
  %arrayidx = getelementptr inbounds i32, ptr %1, i64 -1
  %2 = load i32, ptr %arrayidx, align 4
  %m_data3 = getelementptr inbounds %class.vector, ptr %this1, i32 0, i32 0
  %3 = load ptr, ptr %m_data3, align 8
  %arrayidx4 = getelementptr inbounds i32, ptr %3, i64 -2
  %4 = load i32, ptr %arrayidx4, align 4
  %cmp5 = icmp eq i32 %2, %4
  br i1 %cmp5, label %if.then, label %if.end

if.then:                                          ; preds = %lor.lhs.false, %entry
  call void @_ZN6vectorIP5trailLb0EjE13expand_vectorEv(ptr noundef nonnull align 8 dereferenceable(8) %this1)
  br label %if.end

if.end:                                           ; preds = %if.then, %lor.lhs.false
  %m_data6 = getelementptr inbounds %class.vector, ptr %this1, i32 0, i32 0
  %5 = load ptr, ptr %m_data6, align 8
  %m_data7 = getelementptr inbounds %class.vector, ptr %this1, i32 0, i32 0
  %6 = load ptr, ptr %m_data7, align 8
  %arrayidx8 = getelementptr inbounds i32, ptr %6, i64 -1
  %7 = load i32, ptr %arrayidx8, align 4
  %idx.ext = zext i32 %7 to i64
  %add.ptr = getelementptr inbounds ptr, ptr %5, i64 %idx.ext
  %8 = load ptr, ptr %elem.addr, align 8
  %9 = load ptr, ptr %8, align 8
  store ptr %9, ptr %add.ptr, align 8
  %m_data9 = getelementptr inbounds %class.vector, ptr %this1, i32 0, i32 0
  %10 = load ptr, ptr %m_data9, align 8
  %arrayidx10 = getelementptr inbounds i32, ptr %10, i64 -1
  %11 = load i32, ptr %arrayidx10, align 4
  %inc = add i32 %11, 1
  store i32 %inc, ptr %arrayidx10, align 4
  ret ptr %this1
}

; Function Attrs: mustprogress uwtable
define linkonce_odr hidden void @_ZN6vectorIP5trailLb0EjE13expand_vectorEv(ptr noundef nonnull align 8 dereferenceable(8) %this) #4 comdat align 2 personality ptr @__gxx_personality_v0 {
entry:
  %this.addr = alloca ptr, align 8
  %capacity = alloca i32, align 4
  %mem = alloca ptr, align 8
  %old_capacity = alloca i32, align 4
  %old_capacity_T = alloca i32, align 4
  %new_capacity = alloca i32, align 4
  %new_capacity_T = alloca i32, align 4
  %ref.tmp = alloca %"class.std::__cxx11::basic_string", align 8
  %ref.tmp18 = alloca %"class.std::allocator", align 1
  %exn.slot = alloca ptr, align 8
  %ehselector.slot = alloca i32, align 4
  %cleanup.isactive = alloca i1, align 1
  %mem22 = alloca ptr, align 8
  %old_mem = alloca ptr, align 8
  store ptr %this, ptr %this.addr, align 8
  %this1 = load ptr, ptr %this.addr, align 8
  %m_data = getelementptr inbounds %class.vector, ptr %this1, i32 0, i32 0
  %0 = load ptr, ptr %m_data, align 8
  %cmp = icmp eq ptr %0, null
  br i1 %cmp, label %if.then, label %if.else

if.then:                                          ; preds = %entry
  store i32 2, ptr %capacity, align 4
  %1 = load i32, ptr %capacity, align 4
  %conv = zext i32 %1 to i64
  %mul = mul i64 8, %conv
  %add = add i64 %mul, 8
  %call = call noalias noundef ptr @_ZN6memory8allocateEm(i64 noundef %add)
  store ptr %call, ptr %mem, align 8
  %2 = load i32, ptr %capacity, align 4
  %3 = load ptr, ptr %mem, align 8
  store i32 %2, ptr %3, align 4
  %4 = load ptr, ptr %mem, align 8
  %incdec.ptr = getelementptr inbounds i32, ptr %4, i32 1
  store ptr %incdec.ptr, ptr %mem, align 8
  %5 = load ptr, ptr %mem, align 8
  store i32 0, ptr %5, align 4
  %6 = load ptr, ptr %mem, align 8
  %incdec.ptr2 = getelementptr inbounds i32, ptr %6, i32 1
  store ptr %incdec.ptr2, ptr %mem, align 8
  %7 = load ptr, ptr %mem, align 8
  %m_data3 = getelementptr inbounds %class.vector, ptr %this1, i32 0, i32 0
  store ptr %7, ptr %m_data3, align 8
  br label %if.end28

if.else:                                          ; preds = %entry
  %m_data4 = getelementptr inbounds %class.vector, ptr %this1, i32 0, i32 0
  %8 = load ptr, ptr %m_data4, align 8
  %arrayidx = getelementptr inbounds i32, ptr %8, i64 -2
  %9 = load i32, ptr %arrayidx, align 4
  store i32 %9, ptr %old_capacity, align 4
  %10 = load i32, ptr %old_capacity, align 4
  %conv5 = zext i32 %10 to i64
  %mul6 = mul i64 8, %conv5
  %add7 = add i64 %mul6, 8
  %conv8 = trunc i64 %add7 to i32
  store i32 %conv8, ptr %old_capacity_T, align 4
  %11 = load i32, ptr %old_capacity, align 4
  %mul9 = mul i32 3, %11
  %add10 = add i32 %mul9, 1
  %shr = lshr i32 %add10, 1
  store i32 %shr, ptr %new_capacity, align 4
  %12 = load i32, ptr %new_capacity, align 4
  %conv11 = zext i32 %12 to i64
  %mul12 = mul i64 8, %conv11
  %add13 = add i64 %mul12, 8
  %conv14 = trunc i64 %add13 to i32
  store i32 %conv14, ptr %new_capacity_T, align 4
  %13 = load i32, ptr %new_capacity, align 4
  %14 = load i32, ptr %old_capacity, align 4
  %cmp15 = icmp ule i32 %13, %14
  br i1 %cmp15, label %if.then17, label %lor.lhs.false

lor.lhs.false:                                    ; preds = %if.else
  %15 = load i32, ptr %new_capacity_T, align 4
  %16 = load i32, ptr %old_capacity_T, align 4
  %cmp16 = icmp ule i32 %15, %16
  br i1 %cmp16, label %if.then17, label %if.end

if.then17:                                        ; preds = %lor.lhs.false, %if.else
  store i1 true, ptr %cleanup.isactive, align 1
  %exception = call ptr @__cxa_allocate_exception(i64 40) #3
  call void @_ZNSaIcEC1Ev(ptr noundef nonnull align 1 dereferenceable(1) %ref.tmp18) #3
  invoke void @_ZNSt7__cxx1112basic_stringIcSt11char_traitsIcESaIcEEC2IS3_EEPKcRKS3_(ptr noundef nonnull align 8 dereferenceable(32) %ref.tmp, ptr noundef @.str.5, ptr noundef nonnull align 1 dereferenceable(1) %ref.tmp18)
          to label %invoke.cont unwind label %lpad

invoke.cont:                                      ; preds = %if.then17
  invoke void @_ZN17default_exceptionC2EONSt7__cxx1112basic_stringIcSt11char_traitsIcESaIcEEE(ptr noundef nonnull align 8 dereferenceable(40) %exception, ptr noundef nonnull align 8 dereferenceable(32) %ref.tmp)
          to label %invoke.cont20 unwind label %lpad19

invoke.cont20:                                    ; preds = %invoke.cont
  store i1 false, ptr %cleanup.isactive, align 1
  invoke void @__cxa_throw(ptr %exception, ptr @_ZTI17default_exception, ptr @_ZN17default_exceptionD2Ev) #16
          to label %unreachable unwind label %lpad19

lpad:                                             ; preds = %if.then17
  %17 = landingpad { ptr, i32 }
          cleanup
  %18 = extractvalue { ptr, i32 } %17, 0
  store ptr %18, ptr %exn.slot, align 8
  %19 = extractvalue { ptr, i32 } %17, 1
  store i32 %19, ptr %ehselector.slot, align 4
  br label %ehcleanup

lpad19:                                           ; preds = %invoke.cont20, %invoke.cont
  %20 = landingpad { ptr, i32 }
          cleanup
  %21 = extractvalue { ptr, i32 } %20, 0
  store ptr %21, ptr %exn.slot, align 8
  %22 = extractvalue { ptr, i32 } %20, 1
  store i32 %22, ptr %ehselector.slot, align 4
  call void @_ZNSt7__cxx1112basic_stringIcSt11char_traitsIcESaIcEED1Ev(ptr noundef nonnull align 8 dereferenceable(32) %ref.tmp) #3
  br label %ehcleanup

ehcleanup:                                        ; preds = %lpad19, %lpad
  call void @_ZNSaIcED1Ev(ptr noundef nonnull align 1 dereferenceable(1) %ref.tmp18) #3
  %cleanup.is_active = load i1, ptr %cleanup.isactive, align 1
  br i1 %cleanup.is_active, label %cleanup.action, label %cleanup.done

cleanup.action:                                   ; preds = %ehcleanup
  call void @__cxa_free_exception(ptr %exception) #3
  br label %cleanup.done

cleanup.done:                                     ; preds = %cleanup.action, %ehcleanup
  br label %eh.resume

if.end:                                           ; preds = %lor.lhs.false
  %m_data23 = getelementptr inbounds %class.vector, ptr %this1, i32 0, i32 0
  %23 = load ptr, ptr %m_data23, align 8
  %add.ptr = getelementptr inbounds i32, ptr %23, i64 -2
  store ptr %add.ptr, ptr %old_mem, align 8
  %24 = load ptr, ptr %old_mem, align 8
  %25 = load i32, ptr %new_capacity_T, align 4
  %conv24 = zext i32 %25 to i64
  %call25 = call noalias noundef ptr @_ZN6memory10reallocateEPvm(ptr noundef %24, i64 noundef %conv24)
  store ptr %call25, ptr %mem22, align 8
  %26 = load ptr, ptr %mem22, align 8
  %add.ptr26 = getelementptr inbounds i32, ptr %26, i64 2
  %m_data27 = getelementptr inbounds %class.vector, ptr %this1, i32 0, i32 0
  store ptr %add.ptr26, ptr %m_data27, align 8
  %27 = load i32, ptr %new_capacity, align 4
  %28 = load ptr, ptr %mem22, align 8
  store i32 %27, ptr %28, align 4
  br label %if.end28

if.end28:                                         ; preds = %if.end, %if.then
  ret void

eh.resume:                                        ; preds = %cleanup.done
  %exn = load ptr, ptr %exn.slot, align 8
  %sel = load i32, ptr %ehselector.slot, align 4
  %lpad.val = insertvalue { ptr, i32 } poison, ptr %exn, 0
  %lpad.val29 = insertvalue { ptr, i32 } %lpad.val, i32 %sel, 1
  resume { ptr, i32 } %lpad.val29

unreachable:                                      ; preds = %invoke.cont20
  unreachable
}

declare noundef ptr @_ZNK4expr8get_sortEv(ptr noundef nonnull align 4 dereferenceable(16)) #1

; Function Attrs: mustprogress uwtable
define linkonce_odr hidden noundef zeroext i1 @_ZNK17array_recognizers8is_arrayEP4sort(ptr noundef nonnull align 4 dereferenceable(4) %this, ptr noundef %s) #4 comdat align 2 {
entry:
  %this.addr = alloca ptr, align 8
  %s.addr = alloca ptr, align 8
  store ptr %this, ptr %this.addr, align 8
  store ptr %s, ptr %s.addr, align 8
  %this1 = load ptr, ptr %this.addr, align 8
  %0 = load ptr, ptr %s.addr, align 8
  %m_fid = getelementptr inbounds %class.array_recognizers, ptr %this1, i32 0, i32 0
  %1 = load i32, ptr %m_fid, align 4
  %call = call noundef zeroext i1 @_Z10is_sort_ofPK4sortii(ptr noundef %0, i32 noundef %1, i32 noundef 0)
  ret i1 %call
}

declare void @_ZN6solver11assert_exprEP4expr(ptr noundef nonnull align 8 dereferenceable(96), ptr noundef) #1

; Function Attrs: mustprogress uwtable
define linkonce_odr hidden noundef ptr @_ZN11ast_manager6mk_appEP9func_declP4expr(ptr noundef nonnull align 8 dereferenceable(976) %this, ptr noundef %decl, ptr noundef %arg) #4 comdat align 2 {
entry:
  %this.addr = alloca ptr, align 8
  %decl.addr = alloca ptr, align 8
  %arg.addr = alloca ptr, align 8
  store ptr %this, ptr %this.addr, align 8
  store ptr %decl, ptr %decl.addr, align 8
  store ptr %arg, ptr %arg.addr, align 8
  %this1 = load ptr, ptr %this.addr, align 8
  %0 = load ptr, ptr %decl.addr, align 8
  %call = call noundef ptr @_ZN11ast_manager6mk_appEP9func_decljPKP4expr(ptr noundef nonnull align 8 dereferenceable(976) %this1, ptr noundef %0, i32 noundef 1, ptr noundef %arg.addr)
  ret ptr %call
}

; Function Attrs: mustprogress uwtable
define linkonce_odr hidden noundef ptr @_ZN11ast_manager12mk_func_declERK6symboljPKP4sortS4_(ptr noundef nonnull align 8 dereferenceable(976) %this, ptr noundef nonnull align 8 dereferenceable(8) %name, i32 noundef %arity, ptr noundef %domain, ptr noundef %range) #4 comdat align 2 {
entry:
  %this.addr = alloca ptr, align 8
  %name.addr = alloca ptr, align 8
  %arity.addr = alloca i32, align 4
  %domain.addr = alloca ptr, align 8
  %range.addr = alloca ptr, align 8
  store ptr %this, ptr %this.addr, align 8
  store ptr %name, ptr %name.addr, align 8
  store i32 %arity, ptr %arity.addr, align 4
  store ptr %domain, ptr %domain.addr, align 8
  store ptr %range, ptr %range.addr, align 8
  %this1 = load ptr, ptr %this.addr, align 8
  %0 = load ptr, ptr %name.addr, align 8
  %1 = load i32, ptr %arity.addr, align 4
  %2 = load ptr, ptr %domain.addr, align 8
  %3 = load ptr, ptr %range.addr, align 8
  %call = call noundef ptr @_ZN11ast_manager12mk_func_declERK6symboljPKP4sortS4_P14func_decl_info(ptr noundef nonnull align 8 dereferenceable(976) %this1, ptr noundef nonnull align 8 dereferenceable(8) %0, i32 noundef %1, ptr noundef %2, ptr noundef %3, ptr noundef null)
  ret ptr %call
}

declare void @_ZN6symbolC1EPKc(ptr noundef nonnull align 8 dereferenceable(8), ptr noundef) unnamed_addr #1

; Function Attrs: mustprogress nounwind uwtable
define linkonce_odr hidden noundef ptr @_ZNK11ast_manager12mk_bool_sortEv(ptr noundef nonnull align 8 dereferenceable(976) %this) #5 comdat align 2 {
entry:
  %this.addr = alloca ptr, align 8
  store ptr %this, ptr %this.addr, align 8
  %this1 = load ptr, ptr %this.addr, align 8
  %m_bool_sort = getelementptr inbounds %class.ast_manager, ptr %this1, i32 0, i32 13
  %0 = load ptr, ptr %m_bool_sort, align 8
  ret ptr %0
}

; Function Attrs: mustprogress uwtable
define linkonce_odr hidden noundef zeroext i1 @_Z10is_sort_ofPK4sortii(ptr noundef %s, i32 noundef %fid, i32 noundef %k) #4 comdat {
entry:
  %s.addr = alloca ptr, align 8
  %fid.addr = alloca i32, align 4
  %k.addr = alloca i32, align 4
  store ptr %s, ptr %s.addr, align 8
  store i32 %fid, ptr %fid.addr, align 4
  store i32 %k, ptr %k.addr, align 4
  %0 = load ptr, ptr %s.addr, align 8
  %1 = load i32, ptr %fid.addr, align 4
  %2 = load i32, ptr %k.addr, align 4
  %call = call noundef zeroext i1 @_ZNK4sort10is_sort_ofEii(ptr noundef nonnull align 8 dereferenceable(32) %0, i32 noundef %1, i32 noundef %2)
  ret i1 %call
}

; Function Attrs: mustprogress uwtable
define linkonce_odr hidden noundef zeroext i1 @_ZNK4sort10is_sort_ofEii(ptr noundef nonnull align 8 dereferenceable(32) %this, i32 noundef %fid, i32 noundef %k) #4 comdat align 2 {
entry:
  %this.addr = alloca ptr, align 8
  %fid.addr = alloca i32, align 4
  %k.addr = alloca i32, align 4
  store ptr %this, ptr %this.addr, align 8
  store i32 %fid, ptr %fid.addr, align 4
  store i32 %k, ptr %k.addr, align 4
  %this1 = load ptr, ptr %this.addr, align 8
  %call = call noundef i32 @_ZNK4decl13get_family_idEv(ptr noundef nonnull align 8 dereferenceable(32) %this1)
  %0 = load i32, ptr %fid.addr, align 4
  %cmp = icmp eq i32 %call, %0
  br i1 %cmp, label %land.rhs, label %land.end

land.rhs:                                         ; preds = %entry
  %call2 = call noundef i32 @_ZNK4decl13get_decl_kindEv(ptr noundef nonnull align 8 dereferenceable(32) %this1)
  %1 = load i32, ptr %k.addr, align 4
  %cmp3 = icmp eq i32 %call2, %1
  br label %land.end

land.end:                                         ; preds = %land.rhs, %entry
  %2 = phi i1 [ false, %entry ], [ %cmp3, %land.rhs ]
  ret i1 %2
}

; Function Attrs: mustprogress uwtable
define linkonce_odr hidden noundef i32 @_ZNK4decl13get_family_idEv(ptr noundef nonnull align 8 dereferenceable(32) %this) #4 comdat align 2 {
entry:
  %this.addr = alloca ptr, align 8
  store ptr %this, ptr %this.addr, align 8
  %this1 = load ptr, ptr %this.addr, align 8
  %m_info = getelementptr inbounds %class.decl, ptr %this1, i32 0, i32 2
  %0 = load ptr, ptr %m_info, align 8
  %cmp = icmp eq ptr %0, null
  br i1 %cmp, label %cond.true, label %cond.false

cond.true:                                        ; preds = %entry
  br label %cond.end

cond.false:                                       ; preds = %entry
  %m_info2 = getelementptr inbounds %class.decl, ptr %this1, i32 0, i32 2
  %1 = load ptr, ptr %m_info2, align 8
  %call = call noundef i32 @_ZNK9decl_info13get_family_idEv(ptr noundef nonnull align 8 dereferenceable(17) %1)
  br label %cond.end

cond.end:                                         ; preds = %cond.false, %cond.true
  %cond = phi i32 [ -1, %cond.true ], [ %call, %cond.false ]
  ret i32 %cond
}

; Function Attrs: mustprogress uwtable
define linkonce_odr hidden noundef i32 @_ZNK4decl13get_decl_kindEv(ptr noundef nonnull align 8 dereferenceable(32) %this) #4 comdat align 2 {
entry:
  %this.addr = alloca ptr, align 8
  store ptr %this, ptr %this.addr, align 8
  %this1 = load ptr, ptr %this.addr, align 8
  %m_info = getelementptr inbounds %class.decl, ptr %this1, i32 0, i32 2
  %0 = load ptr, ptr %m_info, align 8
  %cmp = icmp eq ptr %0, null
  br i1 %cmp, label %cond.true, label %cond.false

cond.true:                                        ; preds = %entry
  br label %cond.end

cond.false:                                       ; preds = %entry
  %m_info2 = getelementptr inbounds %class.decl, ptr %this1, i32 0, i32 2
  %1 = load ptr, ptr %m_info2, align 8
  %call = call noundef i32 @_ZNK9decl_info13get_decl_kindEv(ptr noundef nonnull align 8 dereferenceable(17) %1)
  br label %cond.end

cond.end:                                         ; preds = %cond.false, %cond.true
  %cond = phi i32 [ -1, %cond.true ], [ %call, %cond.false ]
  ret i32 %cond
}

; Function Attrs: mustprogress nounwind uwtable
define linkonce_odr hidden noundef i32 @_ZNK9decl_info13get_family_idEv(ptr noundef nonnull align 8 dereferenceable(17) %this) #5 comdat align 2 {
entry:
  %this.addr = alloca ptr, align 8
  store ptr %this, ptr %this.addr, align 8
  %this1 = load ptr, ptr %this.addr, align 8
  %m_family_id = getelementptr inbounds %class.decl_info, ptr %this1, i32 0, i32 0
  %0 = load i32, ptr %m_family_id, align 8
  ret i32 %0
}

; Function Attrs: mustprogress nounwind uwtable
define linkonce_odr hidden noundef i32 @_ZNK9decl_info13get_decl_kindEv(ptr noundef nonnull align 8 dereferenceable(17) %this) #5 comdat align 2 {
entry:
  %this.addr = alloca ptr, align 8
  store ptr %this, ptr %this.addr, align 8
  %this1 = load ptr, ptr %this.addr, align 8
  %m_kind = getelementptr inbounds %class.decl_info, ptr %this1, i32 0, i32 1
  %0 = load i32, ptr %m_kind, align 4
  ret i32 %0
}

declare noundef ptr @_ZN11ast_manager6mk_appEP9func_decljPKP4expr(ptr noundef nonnull align 8 dereferenceable(976), ptr noundef, i32 noundef, ptr noundef) #1

declare noundef ptr @_ZN11ast_manager12mk_func_declERK6symboljPKP4sortS4_P14func_decl_info(ptr noundef nonnull align 8 dereferenceable(976), ptr noundef nonnull align 8 dereferenceable(8), i32 noundef, ptr noundef, ptr noundef, ptr noundef) #1

; Function Attrs: mustprogress nounwind uwtable
define linkonce_odr hidden noundef zeroext i1 @_ZNK3refI5modelEcvbEv(ptr noundef nonnull align 8 dereferenceable(8) %this) #5 comdat align 2 {
entry:
  %this.addr = alloca ptr, align 8
  store ptr %this, ptr %this.addr, align 8
  %this1 = load ptr, ptr %this.addr, align 8
  %m_ptr = getelementptr inbounds %class.ref.35, ptr %this1, i32 0, i32 0
  %0 = load ptr, ptr %m_ptr, align 8
  %cmp = icmp ne ptr %0, null
  ret i1 %cmp
}

; Function Attrs: mustprogress uwtable
define linkonce_odr hidden noundef ptr @_ZNK16check_sat_result3mc0Ev(ptr noundef nonnull align 8 dereferenceable(72) %this) #4 comdat align 2 {
entry:
  %this.addr = alloca ptr, align 8
  store ptr %this, ptr %this.addr, align 8
  %this1 = load ptr, ptr %this.addr, align 8
  %m_mc0 = getelementptr inbounds %class.check_sat_result, ptr %this1, i32 0, i32 6
  %call = call noundef ptr @_ZNK3refI15model_converterE3getEv(ptr noundef nonnull align 8 dereferenceable(8) %m_mc0)
  ret ptr %call
}

; Function Attrs: mustprogress nounwind uwtable
define linkonce_odr hidden noundef ptr @_ZNK3refI15model_converterE3getEv(ptr noundef nonnull align 8 dereferenceable(8) %this) #5 comdat align 2 {
entry:
  %this.addr = alloca ptr, align 8
  store ptr %this, ptr %this.addr, align 8
  %this1 = load ptr, ptr %this.addr, align 8
  %m_ptr = getelementptr inbounds %class.ref, ptr %this1, i32 0, i32 0
  %0 = load ptr, ptr %m_ptr, align 8
  ret ptr %0
}

; Function Attrs: mustprogress uwtable
define internal noundef nonnull align 8 dereferenceable(8) ptr @_ZN7obj_mapI4sort6vectorIN12_GLOBAL__N_127get_implied_equalities_impl7term_idELb1EjEE19insert_if_not_thereEPS0_RKS5_(ptr noundef nonnull align 8 dereferenceable(24) %this, ptr noundef %k, ptr noundef nonnull align 8 dereferenceable(8) %v) #4 align 2 personality ptr @__gxx_personality_v0 {
entry:
  %this.addr = alloca ptr, align 8
  %k.addr = alloca ptr, align 8
  %v.addr = alloca ptr, align 8
  %ref.tmp = alloca %"struct.obj_map<sort, vector<(anonymous namespace)::get_implied_equalities_impl::term_id>>::key_data", align 8
  %exn.slot = alloca ptr, align 8
  %ehselector.slot = alloca i32, align 4
  store ptr %this, ptr %this.addr, align 8
  store ptr %k, ptr %k.addr, align 8
  store ptr %v, ptr %v.addr, align 8
  %this1 = load ptr, ptr %this.addr, align 8
  %m_table = getelementptr inbounds %class.obj_map.30, ptr %this1, i32 0, i32 0
  %0 = load ptr, ptr %k.addr, align 8
  %1 = load ptr, ptr %v.addr, align 8
  call void @_ZN7obj_mapI4sort6vectorIN12_GLOBAL__N_127get_implied_equalities_impl7term_idELb1EjEE8key_dataC2EPS0_RKS5_(ptr noundef nonnull align 8 dereferenceable(16) %ref.tmp, ptr noundef %0, ptr noundef nonnull align 8 dereferenceable(8) %1)
  %call = invoke noundef ptr @_ZN14core_hashtableIN7obj_mapI4sort6vectorIN12_GLOBAL__N_127get_implied_equalities_impl7term_idELb1EjEE13obj_map_entryE8obj_hashINS7_8key_dataEE10default_eqISA_EE20insert_if_not_there2ERKSA_(ptr noundef nonnull align 8 dereferenceable(20) %m_table, ptr noundef nonnull align 8 dereferenceable(16) %ref.tmp)
          to label %invoke.cont unwind label %lpad

invoke.cont:                                      ; preds = %entry
  %call3 = invoke noundef nonnull align 8 dereferenceable(16) ptr @_ZN7obj_mapI4sort6vectorIN12_GLOBAL__N_127get_implied_equalities_impl7term_idELb1EjEE13obj_map_entry8get_dataEv(ptr noundef nonnull align 8 dereferenceable(16) %call)
          to label %invoke.cont2 unwind label %lpad

invoke.cont2:                                     ; preds = %invoke.cont
  %m_value = getelementptr inbounds %"struct.obj_map<sort, vector<(anonymous namespace)::get_implied_equalities_impl::term_id>>::key_data", ptr %call3, i32 0, i32 1
  call void @_ZN7obj_mapI4sort6vectorIN12_GLOBAL__N_127get_implied_equalities_impl7term_idELb1EjEE8key_dataD2Ev(ptr noundef nonnull align 8 dereferenceable(16) %ref.tmp) #3
  ret ptr %m_value

lpad:                                             ; preds = %invoke.cont, %entry
  %2 = landingpad { ptr, i32 }
          cleanup
  %3 = extractvalue { ptr, i32 } %2, 0
  store ptr %3, ptr %exn.slot, align 8
  %4 = extractvalue { ptr, i32 } %2, 1
  store i32 %4, ptr %ehselector.slot, align 4
  call void @_ZN7obj_mapI4sort6vectorIN12_GLOBAL__N_127get_implied_equalities_impl7term_idELb1EjEE8key_dataD2Ev(ptr noundef nonnull align 8 dereferenceable(16) %ref.tmp) #3
  br label %eh.resume

eh.resume:                                        ; preds = %lpad
  %exn = load ptr, ptr %exn.slot, align 8
  %sel = load i32, ptr %ehselector.slot, align 4
  %lpad.val = insertvalue { ptr, i32 } poison, ptr %exn, 0
  %lpad.val4 = insertvalue { ptr, i32 } %lpad.val, i32 %sel, 1
  resume { ptr, i32 } %lpad.val4
}

; Function Attrs: mustprogress nounwind uwtable
define internal void @_ZN6vectorIN12_GLOBAL__N_127get_implied_equalities_impl7term_idELb1EjED2Ev(ptr noundef nonnull align 8 dereferenceable(8) %this) unnamed_addr #5 align 2 personality ptr @__gxx_personality_v0 {
entry:
  %this.addr = alloca ptr, align 8
  store ptr %this, ptr %this.addr, align 8
  %this1 = load ptr, ptr %this.addr, align 8
  invoke void @_ZN6vectorIN12_GLOBAL__N_127get_implied_equalities_impl7term_idELb1EjE7destroyEv(ptr noundef nonnull align 8 dereferenceable(8) %this1)
          to label %invoke.cont unwind label %terminate.lpad

invoke.cont:                                      ; preds = %entry
  ret void

terminate.lpad:                                   ; preds = %entry
  %0 = landingpad { ptr, i32 }
          catch ptr null
  %1 = extractvalue { ptr, i32 } %0, 0
  call void @__clang_call_terminate(ptr %1) #14
  unreachable
}

; Function Attrs: mustprogress uwtable
define internal noundef nonnull align 8 dereferenceable(8) ptr @_ZN6vectorIN12_GLOBAL__N_127get_implied_equalities_impl7term_idELb1EjE9push_backEOS2_(ptr noundef nonnull align 8 dereferenceable(8) %this, ptr noundef nonnull align 8 dereferenceable(20) %elem) #4 align 2 {
entry:
  %this.addr = alloca ptr, align 8
  %elem.addr = alloca ptr, align 8
  store ptr %this, ptr %this.addr, align 8
  store ptr %elem, ptr %elem.addr, align 8
  %this1 = load ptr, ptr %this.addr, align 8
  %m_data = getelementptr inbounds %class.vector.36, ptr %this1, i32 0, i32 0
  %0 = load ptr, ptr %m_data, align 8
  %cmp = icmp eq ptr %0, null
  br i1 %cmp, label %if.then, label %lor.lhs.false

lor.lhs.false:                                    ; preds = %entry
  %m_data2 = getelementptr inbounds %class.vector.36, ptr %this1, i32 0, i32 0
  %1 = load ptr, ptr %m_data2, align 8
  %arrayidx = getelementptr inbounds i32, ptr %1, i64 -1
  %2 = load i32, ptr %arrayidx, align 4
  %m_data3 = getelementptr inbounds %class.vector.36, ptr %this1, i32 0, i32 0
  %3 = load ptr, ptr %m_data3, align 8
  %arrayidx4 = getelementptr inbounds i32, ptr %3, i64 -2
  %4 = load i32, ptr %arrayidx4, align 4
  %cmp5 = icmp eq i32 %2, %4
  br i1 %cmp5, label %if.then, label %if.end

if.then:                                          ; preds = %lor.lhs.false, %entry
  call void @_ZN6vectorIN12_GLOBAL__N_127get_implied_equalities_impl7term_idELb1EjE13expand_vectorEv(ptr noundef nonnull align 8 dereferenceable(8) %this1)
  br label %if.end

if.end:                                           ; preds = %if.then, %lor.lhs.false
  %m_data6 = getelementptr inbounds %class.vector.36, ptr %this1, i32 0, i32 0
  %5 = load ptr, ptr %m_data6, align 8
  %m_data7 = getelementptr inbounds %class.vector.36, ptr %this1, i32 0, i32 0
  %6 = load ptr, ptr %m_data7, align 8
  %arrayidx8 = getelementptr inbounds i32, ptr %6, i64 -1
  %7 = load i32, ptr %arrayidx8, align 4
  %idx.ext = zext i32 %7 to i64
  %add.ptr = getelementptr inbounds %"struct.(anonymous namespace)::get_implied_equalities_impl::term_id", ptr %5, i64 %idx.ext
  %8 = load ptr, ptr %elem.addr, align 8
  call void @_ZN12_GLOBAL__N_127get_implied_equalities_impl7term_idC2EOS1_(ptr noundef nonnull align 8 dereferenceable(20) %add.ptr, ptr noundef nonnull align 8 dereferenceable(20) %8) #3
  %m_data9 = getelementptr inbounds %class.vector.36, ptr %this1, i32 0, i32 0
  %9 = load ptr, ptr %m_data9, align 8
  %arrayidx10 = getelementptr inbounds i32, ptr %9, i64 -1
  %10 = load i32, ptr %arrayidx10, align 4
  %inc = add i32 %10, 1
  store i32 %inc, ptr %arrayidx10, align 4
  ret ptr %this1
}

; Function Attrs: mustprogress uwtable
define linkonce_odr hidden void @_ZN7obj_refI4expr11ast_managerEC2EPS0_RS1_(ptr noundef nonnull align 8 dereferenceable(16) %this, ptr noundef %n, ptr noundef nonnull align 8 dereferenceable(976) %m) unnamed_addr #4 comdat align 2 {
entry:
  %this.addr = alloca ptr, align 8
  %n.addr = alloca ptr, align 8
  %m.addr = alloca ptr, align 8
  store ptr %this, ptr %this.addr, align 8
  store ptr %n, ptr %n.addr, align 8
  store ptr %m, ptr %m.addr, align 8
  %this1 = load ptr, ptr %this.addr, align 8
  %m_obj = getelementptr inbounds %class.obj_ref.37, ptr %this1, i32 0, i32 0
  %0 = load ptr, ptr %n.addr, align 8
  store ptr %0, ptr %m_obj, align 8
  %m_manager = getelementptr inbounds %class.obj_ref.37, ptr %this1, i32 0, i32 1
  %1 = load ptr, ptr %m.addr, align 8
  store ptr %1, ptr %m_manager, align 8
  call void @_ZN7obj_refI4expr11ast_managerE7inc_refEv(ptr noundef nonnull align 8 dereferenceable(16) %this1)
  ret void
}

; Function Attrs: mustprogress uwtable
define internal void @_ZN12_GLOBAL__N_127get_implied_equalities_impl7term_idC2E7obj_refI4expr11ast_managerEj(ptr noundef nonnull align 8 dereferenceable(20) %this, ptr noundef %t, i32 noundef %id) unnamed_addr #4 align 2 {
entry:
  %this.addr = alloca ptr, align 8
  %t.indirect_addr = alloca ptr, align 8
  %id.addr = alloca i32, align 4
  store ptr %this, ptr %this.addr, align 8
  store ptr %t, ptr %t.indirect_addr, align 8
  store i32 %id, ptr %id.addr, align 4
  %this1 = load ptr, ptr %this.addr, align 8
  %term = getelementptr inbounds %"struct.(anonymous namespace)::get_implied_equalities_impl::term_id", ptr %this1, i32 0, i32 0
  call void @_ZN7obj_refI4expr11ast_managerEC2ERKS2_(ptr noundef nonnull align 8 dereferenceable(16) %term, ptr noundef nonnull align 8 dereferenceable(16) %t)
  %id2 = getelementptr inbounds %"struct.(anonymous namespace)::get_implied_equalities_impl::term_id", ptr %this1, i32 0, i32 1
  %0 = load i32, ptr %id.addr, align 4
  store i32 %0, ptr %id2, align 8
  ret void
}

; Function Attrs: mustprogress nounwind uwtable
define internal void @_ZN12_GLOBAL__N_127get_implied_equalities_impl7term_idD2Ev(ptr noundef nonnull align 8 dereferenceable(20) %this) unnamed_addr #5 align 2 {
entry:
  %this.addr = alloca ptr, align 8
  store ptr %this, ptr %this.addr, align 8
  %this1 = load ptr, ptr %this.addr, align 8
  %term = getelementptr inbounds %"struct.(anonymous namespace)::get_implied_equalities_impl::term_id", ptr %this1, i32 0, i32 0
  call void @_ZN7obj_refI4expr11ast_managerED2Ev(ptr noundef nonnull align 8 dereferenceable(16) %term) #3
  ret void
}

; Function Attrs: mustprogress nounwind uwtable
define linkonce_odr hidden void @_ZN7obj_refI4expr11ast_managerED2Ev(ptr noundef nonnull align 8 dereferenceable(16) %this) unnamed_addr #5 comdat align 2 personality ptr @__gxx_personality_v0 {
entry:
  %this.addr = alloca ptr, align 8
  store ptr %this, ptr %this.addr, align 8
  %this1 = load ptr, ptr %this.addr, align 8
  invoke void @_ZN7obj_refI4expr11ast_managerE7dec_refEv(ptr noundef nonnull align 8 dereferenceable(16) %this1)
          to label %invoke.cont unwind label %terminate.lpad

invoke.cont:                                      ; preds = %entry
  ret void

terminate.lpad:                                   ; preds = %entry
  %0 = landingpad { ptr, i32 }
          catch ptr null
  %1 = extractvalue { ptr, i32 } %0, 0
  call void @__clang_call_terminate(ptr %1) #14
  unreachable
}

; Function Attrs: mustprogress uwtable
define internal noundef ptr @_ZN14core_hashtableIN7obj_mapI4sort6vectorIN12_GLOBAL__N_127get_implied_equalities_impl7term_idELb1EjEE13obj_map_entryE8obj_hashINS7_8key_dataEE10default_eqISA_EE20insert_if_not_there2ERKSA_(ptr noundef nonnull align 8 dereferenceable(20) %this, ptr noundef nonnull align 8 dereferenceable(16) %e) #4 align 2 {
entry:
  %this.addr = alloca ptr, align 8
  %e.addr = alloca ptr, align 8
  %et = alloca ptr, align 8
  store ptr %this, ptr %this.addr, align 8
  store ptr %e, ptr %e.addr, align 8
  %this1 = load ptr, ptr %this.addr, align 8
  %0 = load ptr, ptr %e.addr, align 8
  %call = call noundef zeroext i1 @_ZN14core_hashtableIN7obj_mapI4sort6vectorIN12_GLOBAL__N_127get_implied_equalities_impl7term_idELb1EjEE13obj_map_entryE8obj_hashINS7_8key_dataEE10default_eqISA_EE24insert_if_not_there_coreERKSA_RPS8_(ptr noundef nonnull align 8 dereferenceable(20) %this1, ptr noundef nonnull align 8 dereferenceable(16) %0, ptr noundef nonnull align 8 dereferenceable(8) %et)
  %1 = load ptr, ptr %et, align 8
  ret ptr %1
}

; Function Attrs: mustprogress uwtable
define internal void @_ZN7obj_mapI4sort6vectorIN12_GLOBAL__N_127get_implied_equalities_impl7term_idELb1EjEE8key_dataC2EPS0_RKS5_(ptr noundef nonnull align 8 dereferenceable(16) %this, ptr noundef %k, ptr noundef nonnull align 8 dereferenceable(8) %v) unnamed_addr #4 align 2 {
entry:
  %this.addr = alloca ptr, align 8
  %k.addr = alloca ptr, align 8
  %v.addr = alloca ptr, align 8
  store ptr %this, ptr %this.addr, align 8
  store ptr %k, ptr %k.addr, align 8
  store ptr %v, ptr %v.addr, align 8
  %this1 = load ptr, ptr %this.addr, align 8
  %m_key = getelementptr inbounds %"struct.obj_map<sort, vector<(anonymous namespace)::get_implied_equalities_impl::term_id>>::key_data", ptr %this1, i32 0, i32 0
  %0 = load ptr, ptr %k.addr, align 8
  store ptr %0, ptr %m_key, align 8
  %m_value = getelementptr inbounds %"struct.obj_map<sort, vector<(anonymous namespace)::get_implied_equalities_impl::term_id>>::key_data", ptr %this1, i32 0, i32 1
  %1 = load ptr, ptr %v.addr, align 8
  call void @_ZN6vectorIN12_GLOBAL__N_127get_implied_equalities_impl7term_idELb1EjEC2ERKS3_(ptr noundef nonnull align 8 dereferenceable(8) %m_value, ptr noundef nonnull align 8 dereferenceable(8) %1)
  ret void
}

; Function Attrs: mustprogress nounwind uwtable
define internal noundef nonnull align 8 dereferenceable(16) ptr @_ZN7obj_mapI4sort6vectorIN12_GLOBAL__N_127get_implied_equalities_impl7term_idELb1EjEE13obj_map_entry8get_dataEv(ptr noundef nonnull align 8 dereferenceable(16) %this) #5 align 2 {
entry:
  %this.addr = alloca ptr, align 8
  store ptr %this, ptr %this.addr, align 8
  %this1 = load ptr, ptr %this.addr, align 8
  %m_data = getelementptr inbounds %"class.obj_map<sort, vector<(anonymous namespace)::get_implied_equalities_impl::term_id>>::obj_map_entry", ptr %this1, i32 0, i32 0
  ret ptr %m_data
}

; Function Attrs: mustprogress nounwind uwtable
define internal void @_ZN7obj_mapI4sort6vectorIN12_GLOBAL__N_127get_implied_equalities_impl7term_idELb1EjEE8key_dataD2Ev(ptr noundef nonnull align 8 dereferenceable(16) %this) unnamed_addr #5 align 2 {
entry:
  %this.addr = alloca ptr, align 8
  store ptr %this, ptr %this.addr, align 8
  %this1 = load ptr, ptr %this.addr, align 8
  %m_value = getelementptr inbounds %"struct.obj_map<sort, vector<(anonymous namespace)::get_implied_equalities_impl::term_id>>::key_data", ptr %this1, i32 0, i32 1
  call void @_ZN6vectorIN12_GLOBAL__N_127get_implied_equalities_impl7term_idELb1EjED2Ev(ptr noundef nonnull align 8 dereferenceable(8) %m_value) #3
  ret void
}

; Function Attrs: mustprogress uwtable
define internal noundef zeroext i1 @_ZN14core_hashtableIN7obj_mapI4sort6vectorIN12_GLOBAL__N_127get_implied_equalities_impl7term_idELb1EjEE13obj_map_entryE8obj_hashINS7_8key_dataEE10default_eqISA_EE24insert_if_not_there_coreERKSA_RPS8_(ptr noundef nonnull align 8 dereferenceable(20) %this, ptr noundef nonnull align 8 dereferenceable(16) %e, ptr noundef nonnull align 8 dereferenceable(8) %et) #4 align 2 personality ptr @__gxx_personality_v0 {
entry:
  %this.addr = alloca ptr, align 8
  %e.addr = alloca ptr, align 8
  %et.addr = alloca ptr, align 8
  %temp = alloca %"struct.obj_map<sort, vector<(anonymous namespace)::get_implied_equalities_impl::term_id>>::key_data", align 8
  %exn.slot = alloca ptr, align 8
  %ehselector.slot = alloca i32, align 4
  store ptr %this, ptr %this.addr, align 8
  store ptr %e, ptr %e.addr, align 8
  store ptr %et, ptr %et.addr, align 8
  %this1 = load ptr, ptr %this.addr, align 8
  %0 = load ptr, ptr %e.addr, align 8
  call void @_ZN7obj_mapI4sort6vectorIN12_GLOBAL__N_127get_implied_equalities_impl7term_idELb1EjEE8key_dataC2ERKS7_(ptr noundef nonnull align 8 dereferenceable(16) %temp, ptr noundef nonnull align 8 dereferenceable(16) %0)
  %1 = load ptr, ptr %et.addr, align 8
  %call = invoke noundef zeroext i1 @_ZN14core_hashtableIN7obj_mapI4sort6vectorIN12_GLOBAL__N_127get_implied_equalities_impl7term_idELb1EjEE13obj_map_entryE8obj_hashINS7_8key_dataEE10default_eqISA_EE24insert_if_not_there_coreEOSA_RPS8_(ptr noundef nonnull align 8 dereferenceable(20) %this1, ptr noundef nonnull align 8 dereferenceable(16) %temp, ptr noundef nonnull align 8 dereferenceable(8) %1)
          to label %invoke.cont unwind label %lpad

invoke.cont:                                      ; preds = %entry
  call void @_ZN7obj_mapI4sort6vectorIN12_GLOBAL__N_127get_implied_equalities_impl7term_idELb1EjEE8key_dataD2Ev(ptr noundef nonnull align 8 dereferenceable(16) %temp) #3
  ret i1 %call

lpad:                                             ; preds = %entry
  %2 = landingpad { ptr, i32 }
          cleanup
  %3 = extractvalue { ptr, i32 } %2, 0
  store ptr %3, ptr %exn.slot, align 8
  %4 = extractvalue { ptr, i32 } %2, 1
  store i32 %4, ptr %ehselector.slot, align 4
  call void @_ZN7obj_mapI4sort6vectorIN12_GLOBAL__N_127get_implied_equalities_impl7term_idELb1EjEE8key_dataD2Ev(ptr noundef nonnull align 8 dereferenceable(16) %temp) #3
  br label %eh.resume

eh.resume:                                        ; preds = %lpad
  %exn = load ptr, ptr %exn.slot, align 8
  %sel = load i32, ptr %ehselector.slot, align 4
  %lpad.val = insertvalue { ptr, i32 } poison, ptr %exn, 0
  %lpad.val2 = insertvalue { ptr, i32 } %lpad.val, i32 %sel, 1
  resume { ptr, i32 } %lpad.val2
}

; Function Attrs: mustprogress uwtable
define internal void @_ZN7obj_mapI4sort6vectorIN12_GLOBAL__N_127get_implied_equalities_impl7term_idELb1EjEE8key_dataC2ERKS7_(ptr noundef nonnull align 8 dereferenceable(16) %this, ptr noundef nonnull align 8 dereferenceable(16) %0) unnamed_addr #4 align 2 {
entry:
  %this.addr = alloca ptr, align 8
  %.addr = alloca ptr, align 8
  store ptr %this, ptr %this.addr, align 8
  store ptr %0, ptr %.addr, align 8
  %this1 = load ptr, ptr %this.addr, align 8
  %m_key = getelementptr inbounds %"struct.obj_map<sort, vector<(anonymous namespace)::get_implied_equalities_impl::term_id>>::key_data", ptr %this1, i32 0, i32 0
  %1 = load ptr, ptr %.addr, align 8
  %m_key2 = getelementptr inbounds %"struct.obj_map<sort, vector<(anonymous namespace)::get_implied_equalities_impl::term_id>>::key_data", ptr %1, i32 0, i32 0
  %2 = load ptr, ptr %m_key2, align 8
  store ptr %2, ptr %m_key, align 8
  %m_value = getelementptr inbounds %"struct.obj_map<sort, vector<(anonymous namespace)::get_implied_equalities_impl::term_id>>::key_data", ptr %this1, i32 0, i32 1
  %3 = load ptr, ptr %.addr, align 8
  %m_value3 = getelementptr inbounds %"struct.obj_map<sort, vector<(anonymous namespace)::get_implied_equalities_impl::term_id>>::key_data", ptr %3, i32 0, i32 1
  call void @_ZN6vectorIN12_GLOBAL__N_127get_implied_equalities_impl7term_idELb1EjEC2ERKS3_(ptr noundef nonnull align 8 dereferenceable(8) %m_value, ptr noundef nonnull align 8 dereferenceable(8) %m_value3)
  ret void
}

; Function Attrs: mustprogress uwtable
define internal noundef zeroext i1 @_ZN14core_hashtableIN7obj_mapI4sort6vectorIN12_GLOBAL__N_127get_implied_equalities_impl7term_idELb1EjEE13obj_map_entryE8obj_hashINS7_8key_dataEE10default_eqISA_EE24insert_if_not_there_coreEOSA_RPS8_(ptr noundef nonnull align 8 dereferenceable(20) %this, ptr noundef nonnull align 8 dereferenceable(16) %e, ptr noundef nonnull align 8 dereferenceable(8) %et) #4 align 2 {
entry:
  %retval = alloca i1, align 1
  %this.addr = alloca ptr, align 8
  %e.addr = alloca ptr, align 8
  %et.addr = alloca ptr, align 8
  %hash = alloca i32, align 4
  %mask = alloca i32, align 4
  %idx = alloca i32, align 4
  %begin = alloca ptr, align 8
  %end = alloca ptr, align 8
  %curr = alloca ptr, align 8
  %del_entry = alloca ptr, align 8
  %new_entry = alloca ptr, align 8
  %new_entry42 = alloca ptr, align 8
  store ptr %this, ptr %this.addr, align 8
  store ptr %e, ptr %e.addr, align 8
  store ptr %et, ptr %et.addr, align 8
  %this1 = load ptr, ptr %this.addr, align 8
  %m_size = getelementptr inbounds %class.core_hashtable.31, ptr %this1, i32 0, i32 2
  %0 = load i32, ptr %m_size, align 4
  %m_num_deleted = getelementptr inbounds %class.core_hashtable.31, ptr %this1, i32 0, i32 3
  %1 = load i32, ptr %m_num_deleted, align 8
  %add = add i32 %0, %1
  %shl = shl i32 %add, 2
  %m_capacity = getelementptr inbounds %class.core_hashtable.31, ptr %this1, i32 0, i32 1
  %2 = load i32, ptr %m_capacity, align 8
  %mul = mul i32 %2, 3
  %cmp = icmp ugt i32 %shl, %mul
  br i1 %cmp, label %if.then, label %if.end

if.then:                                          ; preds = %entry
  call void @_ZN14core_hashtableIN7obj_mapI4sort6vectorIN12_GLOBAL__N_127get_implied_equalities_impl7term_idELb1EjEE13obj_map_entryE8obj_hashINS7_8key_dataEE10default_eqISA_EE12expand_tableEv(ptr noundef nonnull align 8 dereferenceable(20) %this1)
  br label %if.end

if.end:                                           ; preds = %if.then, %entry
  %3 = load ptr, ptr %e.addr, align 8
  %call = call noundef i32 @_ZNK14core_hashtableIN7obj_mapI4sort6vectorIN12_GLOBAL__N_127get_implied_equalities_impl7term_idELb1EjEE13obj_map_entryE8obj_hashINS7_8key_dataEE10default_eqISA_EE8get_hashERKSA_(ptr noundef nonnull align 8 dereferenceable(20) %this1, ptr noundef nonnull align 8 dereferenceable(16) %3)
  store i32 %call, ptr %hash, align 4
  %m_capacity2 = getelementptr inbounds %class.core_hashtable.31, ptr %this1, i32 0, i32 1
  %4 = load i32, ptr %m_capacity2, align 8
  %sub = sub i32 %4, 1
  store i32 %sub, ptr %mask, align 4
  %5 = load i32, ptr %hash, align 4
  %6 = load i32, ptr %mask, align 4
  %and = and i32 %5, %6
  store i32 %and, ptr %idx, align 4
  %m_table = getelementptr inbounds %class.core_hashtable.31, ptr %this1, i32 0, i32 0
  %7 = load ptr, ptr %m_table, align 8
  %8 = load i32, ptr %idx, align 4
  %idx.ext = zext i32 %8 to i64
  %add.ptr = getelementptr inbounds %"class.obj_map<sort, vector<(anonymous namespace)::get_implied_equalities_impl::term_id>>::obj_map_entry", ptr %7, i64 %idx.ext
  store ptr %add.ptr, ptr %begin, align 8
  %m_table3 = getelementptr inbounds %class.core_hashtable.31, ptr %this1, i32 0, i32 0
  %9 = load ptr, ptr %m_table3, align 8
  %m_capacity4 = getelementptr inbounds %class.core_hashtable.31, ptr %this1, i32 0, i32 1
  %10 = load i32, ptr %m_capacity4, align 8
  %idx.ext5 = zext i32 %10 to i64
  %add.ptr6 = getelementptr inbounds %"class.obj_map<sort, vector<(anonymous namespace)::get_implied_equalities_impl::term_id>>::obj_map_entry", ptr %9, i64 %idx.ext5
  store ptr %add.ptr6, ptr %end, align 8
  %11 = load ptr, ptr %begin, align 8
  store ptr %11, ptr %curr, align 8
  store ptr null, ptr %del_entry, align 8
  br label %for.cond

for.cond:                                         ; preds = %for.inc, %if.end
  %12 = load ptr, ptr %curr, align 8
  %13 = load ptr, ptr %end, align 8
  %cmp7 = icmp ne ptr %12, %13
  br i1 %cmp7, label %for.body, label %for.end

for.body:                                         ; preds = %for.cond
  %14 = load ptr, ptr %curr, align 8
  %call8 = call noundef zeroext i1 @_ZNK7obj_mapI4sort6vectorIN12_GLOBAL__N_127get_implied_equalities_impl7term_idELb1EjEE13obj_map_entry7is_usedEv(ptr noundef nonnull align 8 dereferenceable(16) %14)
  br i1 %call8, label %if.then9, label %if.else

if.then9:                                         ; preds = %for.body
  %15 = load ptr, ptr %curr, align 8
  %call10 = call noundef i32 @_ZNK7obj_mapI4sort6vectorIN12_GLOBAL__N_127get_implied_equalities_impl7term_idELb1EjEE13obj_map_entry8get_hashEv(ptr noundef nonnull align 8 dereferenceable(16) %15)
  %16 = load i32, ptr %hash, align 4
  %cmp11 = icmp eq i32 %call10, %16
  br i1 %cmp11, label %land.lhs.true, label %if.end15

land.lhs.true:                                    ; preds = %if.then9
  %17 = load ptr, ptr %curr, align 8
  %call12 = call noundef nonnull align 8 dereferenceable(16) ptr @_ZN7obj_mapI4sort6vectorIN12_GLOBAL__N_127get_implied_equalities_impl7term_idELb1EjEE13obj_map_entry8get_dataEv(ptr noundef nonnull align 8 dereferenceable(16) %17)
  %18 = load ptr, ptr %e.addr, align 8
  %call13 = call noundef zeroext i1 @_ZNK14core_hashtableIN7obj_mapI4sort6vectorIN12_GLOBAL__N_127get_implied_equalities_impl7term_idELb1EjEE13obj_map_entryE8obj_hashINS7_8key_dataEE10default_eqISA_EE6equalsERKSA_SG_(ptr noundef nonnull align 8 dereferenceable(20) %this1, ptr noundef nonnull align 8 dereferenceable(16) %call12, ptr noundef nonnull align 8 dereferenceable(16) %18)
  br i1 %call13, label %if.then14, label %if.end15

if.then14:                                        ; preds = %land.lhs.true
  %19 = load ptr, ptr %curr, align 8
  %20 = load ptr, ptr %et.addr, align 8
  store ptr %19, ptr %20, align 8
  store i1 false, ptr %retval, align 1
  br label %return

if.end15:                                         ; preds = %land.lhs.true, %if.then9
  br label %if.end25

if.else:                                          ; preds = %for.body
  %21 = load ptr, ptr %curr, align 8
  %call16 = call noundef zeroext i1 @_ZNK7obj_mapI4sort6vectorIN12_GLOBAL__N_127get_implied_equalities_impl7term_idELb1EjEE13obj_map_entry7is_freeEv(ptr noundef nonnull align 8 dereferenceable(16) %21)
  br i1 %call16, label %if.then17, label %if.else23

if.then17:                                        ; preds = %if.else
  %22 = load ptr, ptr %del_entry, align 8
  %tobool = icmp ne ptr %22, null
  br i1 %tobool, label %if.then18, label %if.else20

if.then18:                                        ; preds = %if.then17
  %23 = load ptr, ptr %del_entry, align 8
  store ptr %23, ptr %new_entry, align 8
  %m_num_deleted19 = getelementptr inbounds %class.core_hashtable.31, ptr %this1, i32 0, i32 3
  %24 = load i32, ptr %m_num_deleted19, align 8
  %dec = add i32 %24, -1
  store i32 %dec, ptr %m_num_deleted19, align 8
  br label %if.end21

if.else20:                                        ; preds = %if.then17
  %25 = load ptr, ptr %curr, align 8
  store ptr %25, ptr %new_entry, align 8
  br label %if.end21

if.end21:                                         ; preds = %if.else20, %if.then18
  %26 = load ptr, ptr %new_entry, align 8
  %27 = load ptr, ptr %e.addr, align 8
  call void @_ZN7obj_mapI4sort6vectorIN12_GLOBAL__N_127get_implied_equalities_impl7term_idELb1EjEE13obj_map_entry8set_dataEONS6_8key_dataE(ptr noundef nonnull align 8 dereferenceable(16) %26, ptr noundef nonnull align 8 dereferenceable(16) %27)
  %28 = load ptr, ptr %new_entry, align 8
  %29 = load i32, ptr %hash, align 4
  call void @_ZN7obj_mapI4sort6vectorIN12_GLOBAL__N_127get_implied_equalities_impl7term_idELb1EjEE13obj_map_entry8set_hashEj(ptr noundef nonnull align 8 dereferenceable(16) %28, i32 noundef %29)
  %m_size22 = getelementptr inbounds %class.core_hashtable.31, ptr %this1, i32 0, i32 2
  %30 = load i32, ptr %m_size22, align 4
  %inc = add i32 %30, 1
  store i32 %inc, ptr %m_size22, align 4
  %31 = load ptr, ptr %new_entry, align 8
  %32 = load ptr, ptr %et.addr, align 8
  store ptr %31, ptr %32, align 8
  store i1 true, ptr %retval, align 1
  br label %return

if.else23:                                        ; preds = %if.else
  %33 = load ptr, ptr %curr, align 8
  store ptr %33, ptr %del_entry, align 8
  br label %if.end24

if.end24:                                         ; preds = %if.else23
  br label %if.end25

if.end25:                                         ; preds = %if.end24, %if.end15
  br label %for.inc

for.inc:                                          ; preds = %if.end25
  %34 = load ptr, ptr %curr, align 8
  %incdec.ptr = getelementptr inbounds %"class.obj_map<sort, vector<(anonymous namespace)::get_implied_equalities_impl::term_id>>::obj_map_entry", ptr %34, i32 1
  store ptr %incdec.ptr, ptr %curr, align 8
  br label %for.cond, !llvm.loop !12

for.end:                                          ; preds = %for.cond
  %m_table26 = getelementptr inbounds %class.core_hashtable.31, ptr %this1, i32 0, i32 0
  %35 = load ptr, ptr %m_table26, align 8
  store ptr %35, ptr %curr, align 8
  br label %for.cond27

for.cond27:                                       ; preds = %for.inc54, %for.end
  %36 = load ptr, ptr %curr, align 8
  %37 = load ptr, ptr %begin, align 8
  %cmp28 = icmp ne ptr %36, %37
  br i1 %cmp28, label %for.body29, label %for.end56

for.body29:                                       ; preds = %for.cond27
  %38 = load ptr, ptr %curr, align 8
  %call30 = call noundef zeroext i1 @_ZNK7obj_mapI4sort6vectorIN12_GLOBAL__N_127get_implied_equalities_impl7term_idELb1EjEE13obj_map_entry7is_usedEv(ptr noundef nonnull align 8 dereferenceable(16) %38)
  br i1 %call30, label %if.then31, label %if.else39

if.then31:                                        ; preds = %for.body29
  %39 = load ptr, ptr %curr, align 8
  %call32 = call noundef i32 @_ZNK7obj_mapI4sort6vectorIN12_GLOBAL__N_127get_implied_equalities_impl7term_idELb1EjEE13obj_map_entry8get_hashEv(ptr noundef nonnull align 8 dereferenceable(16) %39)
  %40 = load i32, ptr %hash, align 4
  %cmp33 = icmp eq i32 %call32, %40
  br i1 %cmp33, label %land.lhs.true34, label %if.end38

land.lhs.true34:                                  ; preds = %if.then31
  %41 = load ptr, ptr %curr, align 8
  %call35 = call noundef nonnull align 8 dereferenceable(16) ptr @_ZN7obj_mapI4sort6vectorIN12_GLOBAL__N_127get_implied_equalities_impl7term_idELb1EjEE13obj_map_entry8get_dataEv(ptr noundef nonnull align 8 dereferenceable(16) %41)
  %42 = load ptr, ptr %e.addr, align 8
  %call36 = call noundef zeroext i1 @_ZNK14core_hashtableIN7obj_mapI4sort6vectorIN12_GLOBAL__N_127get_implied_equalities_impl7term_idELb1EjEE13obj_map_entryE8obj_hashINS7_8key_dataEE10default_eqISA_EE6equalsERKSA_SG_(ptr noundef nonnull align 8 dereferenceable(20) %this1, ptr noundef nonnull align 8 dereferenceable(16) %call35, ptr noundef nonnull align 8 dereferenceable(16) %42)
  br i1 %call36, label %if.then37, label %if.end38

if.then37:                                        ; preds = %land.lhs.true34
  %43 = load ptr, ptr %curr, align 8
  %44 = load ptr, ptr %et.addr, align 8
  store ptr %43, ptr %44, align 8
  store i1 false, ptr %retval, align 1
  br label %return

if.end38:                                         ; preds = %land.lhs.true34, %if.then31
  br label %if.end53

if.else39:                                        ; preds = %for.body29
  %45 = load ptr, ptr %curr, align 8
  %call40 = call noundef zeroext i1 @_ZNK7obj_mapI4sort6vectorIN12_GLOBAL__N_127get_implied_equalities_impl7term_idELb1EjEE13obj_map_entry7is_freeEv(ptr noundef nonnull align 8 dereferenceable(16) %45)
  br i1 %call40, label %if.then41, label %if.else51

if.then41:                                        ; preds = %if.else39
  %46 = load ptr, ptr %del_entry, align 8
  %tobool43 = icmp ne ptr %46, null
  br i1 %tobool43, label %if.then44, label %if.else47

if.then44:                                        ; preds = %if.then41
  %47 = load ptr, ptr %del_entry, align 8
  store ptr %47, ptr %new_entry42, align 8
  %m_num_deleted45 = getelementptr inbounds %class.core_hashtable.31, ptr %this1, i32 0, i32 3
  %48 = load i32, ptr %m_num_deleted45, align 8
  %dec46 = add i32 %48, -1
  store i32 %dec46, ptr %m_num_deleted45, align 8
  br label %if.end48

if.else47:                                        ; preds = %if.then41
  %49 = load ptr, ptr %curr, align 8
  store ptr %49, ptr %new_entry42, align 8
  br label %if.end48

if.end48:                                         ; preds = %if.else47, %if.then44
  %50 = load ptr, ptr %new_entry42, align 8
  %51 = load ptr, ptr %e.addr, align 8
  call void @_ZN7obj_mapI4sort6vectorIN12_GLOBAL__N_127get_implied_equalities_impl7term_idELb1EjEE13obj_map_entry8set_dataEONS6_8key_dataE(ptr noundef nonnull align 8 dereferenceable(16) %50, ptr noundef nonnull align 8 dereferenceable(16) %51)
  %52 = load ptr, ptr %new_entry42, align 8
  %53 = load i32, ptr %hash, align 4
  call void @_ZN7obj_mapI4sort6vectorIN12_GLOBAL__N_127get_implied_equalities_impl7term_idELb1EjEE13obj_map_entry8set_hashEj(ptr noundef nonnull align 8 dereferenceable(16) %52, i32 noundef %53)
  %m_size49 = getelementptr inbounds %class.core_hashtable.31, ptr %this1, i32 0, i32 2
  %54 = load i32, ptr %m_size49, align 4
  %inc50 = add i32 %54, 1
  store i32 %inc50, ptr %m_size49, align 4
  %55 = load ptr, ptr %new_entry42, align 8
  %56 = load ptr, ptr %et.addr, align 8
  store ptr %55, ptr %56, align 8
  store i1 true, ptr %retval, align 1
  br label %return

if.else51:                                        ; preds = %if.else39
  %57 = load ptr, ptr %curr, align 8
  store ptr %57, ptr %del_entry, align 8
  br label %if.end52

if.end52:                                         ; preds = %if.else51
  br label %if.end53

if.end53:                                         ; preds = %if.end52, %if.end38
  br label %for.inc54

for.inc54:                                        ; preds = %if.end53
  %58 = load ptr, ptr %curr, align 8
  %incdec.ptr55 = getelementptr inbounds %"class.obj_map<sort, vector<(anonymous namespace)::get_implied_equalities_impl::term_id>>::obj_map_entry", ptr %58, i32 1
  store ptr %incdec.ptr55, ptr %curr, align 8
  br label %for.cond27, !llvm.loop !13

for.end56:                                        ; preds = %for.cond27
  call void @_Z26notify_assertion_violationPKciS0_(ptr noundef @.str.8, i32 noundef 460, ptr noundef @.str.9)
  call void @exit(i32 noundef 114) #14
  unreachable

return:                                           ; preds = %if.end48, %if.then37, %if.end21, %if.then14
  %59 = load i1, ptr %retval, align 1
  ret i1 %59
}

; Function Attrs: mustprogress uwtable
define internal void @_ZN6vectorIN12_GLOBAL__N_127get_implied_equalities_impl7term_idELb1EjEC2ERKS3_(ptr noundef nonnull align 8 dereferenceable(8) %this, ptr noundef nonnull align 8 dereferenceable(8) %source) unnamed_addr #4 align 2 {
entry:
  %this.addr = alloca ptr, align 8
  %source.addr = alloca ptr, align 8
  store ptr %this, ptr %this.addr, align 8
  store ptr %source, ptr %source.addr, align 8
  %this1 = load ptr, ptr %this.addr, align 8
  %m_data = getelementptr inbounds %class.vector.36, ptr %this1, i32 0, i32 0
  store ptr null, ptr %m_data, align 8
  %0 = load ptr, ptr %source.addr, align 8
  %m_data2 = getelementptr inbounds %class.vector.36, ptr %0, i32 0, i32 0
  %1 = load ptr, ptr %m_data2, align 8
  %tobool = icmp ne ptr %1, null
  br i1 %tobool, label %if.then, label %if.end

if.then:                                          ; preds = %entry
  %2 = load ptr, ptr %source.addr, align 8
  call void @_ZN6vectorIN12_GLOBAL__N_127get_implied_equalities_impl7term_idELb1EjE9copy_coreERKS3_(ptr noundef nonnull align 8 dereferenceable(8) %this1, ptr noundef nonnull align 8 dereferenceable(8) %2)
  br label %if.end

if.end:                                           ; preds = %if.then, %entry
  ret void
}

; Function Attrs: mustprogress uwtable
define internal void @_ZN6vectorIN12_GLOBAL__N_127get_implied_equalities_impl7term_idELb1EjE9copy_coreERKS3_(ptr noundef nonnull align 8 dereferenceable(8) %this, ptr noundef nonnull align 8 dereferenceable(8) %source) #4 align 2 {
entry:
  %this.addr = alloca ptr, align 8
  %source.addr = alloca ptr, align 8
  %size = alloca i32, align 4
  %capacity = alloca i32, align 4
  %mem = alloca ptr, align 8
  store ptr %this, ptr %this.addr, align 8
  store ptr %source, ptr %source.addr, align 8
  %this1 = load ptr, ptr %this.addr, align 8
  %0 = load ptr, ptr %source.addr, align 8
  %call = call noundef i32 @_ZNK6vectorIN12_GLOBAL__N_127get_implied_equalities_impl7term_idELb1EjE4sizeEv(ptr noundef nonnull align 8 dereferenceable(8) %0)
  store i32 %call, ptr %size, align 4
  %1 = load ptr, ptr %source.addr, align 8
  %call2 = call noundef i32 @_ZNK6vectorIN12_GLOBAL__N_127get_implied_equalities_impl7term_idELb1EjE8capacityEv(ptr noundef nonnull align 8 dereferenceable(8) %1)
  store i32 %call2, ptr %capacity, align 4
  %2 = load i32, ptr %capacity, align 4
  %conv = zext i32 %2 to i64
  %mul = mul i64 24, %conv
  %add = add i64 %mul, 8
  %call3 = call noalias noundef ptr @_ZN6memory8allocateEm(i64 noundef %add)
  store ptr %call3, ptr %mem, align 8
  %3 = load i32, ptr %capacity, align 4
  %4 = load ptr, ptr %mem, align 8
  store i32 %3, ptr %4, align 4
  %5 = load ptr, ptr %mem, align 8
  %incdec.ptr = getelementptr inbounds i32, ptr %5, i32 1
  store ptr %incdec.ptr, ptr %mem, align 8
  %6 = load i32, ptr %size, align 4
  %7 = load ptr, ptr %mem, align 8
  store i32 %6, ptr %7, align 4
  %8 = load ptr, ptr %mem, align 8
  %incdec.ptr4 = getelementptr inbounds i32, ptr %8, i32 1
  store ptr %incdec.ptr4, ptr %mem, align 8
  %9 = load ptr, ptr %mem, align 8
  %m_data = getelementptr inbounds %class.vector.36, ptr %this1, i32 0, i32 0
  store ptr %9, ptr %m_data, align 8
  %10 = load ptr, ptr %source.addr, align 8
  %call5 = call noundef ptr @_ZNK6vectorIN12_GLOBAL__N_127get_implied_equalities_impl7term_idELb1EjE5beginEv(ptr noundef nonnull align 8 dereferenceable(8) %10)
  %11 = load ptr, ptr %source.addr, align 8
  %call6 = call noundef ptr @_ZNK6vectorIN12_GLOBAL__N_127get_implied_equalities_impl7term_idELb1EjE3endEv(ptr noundef nonnull align 8 dereferenceable(8) %11)
  %call7 = call noundef ptr @_ZN6vectorIN12_GLOBAL__N_127get_implied_equalities_impl7term_idELb1EjE5beginEv(ptr noundef nonnull align 8 dereferenceable(8) %this1)
  %call8 = call noundef ptr @_ZSt18uninitialized_copyIPKN12_GLOBAL__N_127get_implied_equalities_impl7term_idEPS2_ET0_T_S7_S6_(ptr noundef %call5, ptr noundef %call6, ptr noundef %call7)
  ret void
}

; Function Attrs: mustprogress nounwind uwtable
define internal noundef i32 @_ZNK6vectorIN12_GLOBAL__N_127get_implied_equalities_impl7term_idELb1EjE8capacityEv(ptr noundef nonnull align 8 dereferenceable(8) %this) #5 align 2 {
entry:
  %retval = alloca i32, align 4
  %this.addr = alloca ptr, align 8
  store ptr %this, ptr %this.addr, align 8
  %this1 = load ptr, ptr %this.addr, align 8
  %m_data = getelementptr inbounds %class.vector.36, ptr %this1, i32 0, i32 0
  %0 = load ptr, ptr %m_data, align 8
  %cmp = icmp eq ptr %0, null
  br i1 %cmp, label %if.then, label %if.end

if.then:                                          ; preds = %entry
  store i32 0, ptr %retval, align 4
  br label %return

if.end:                                           ; preds = %entry
  %m_data2 = getelementptr inbounds %class.vector.36, ptr %this1, i32 0, i32 0
  %1 = load ptr, ptr %m_data2, align 8
  %arrayidx = getelementptr inbounds i32, ptr %1, i64 -2
  %2 = load i32, ptr %arrayidx, align 4
  store i32 %2, ptr %retval, align 4
  br label %return

return:                                           ; preds = %if.end, %if.then
  %3 = load i32, ptr %retval, align 4
  ret i32 %3
}

; Function Attrs: mustprogress uwtable
define internal noundef ptr @_ZSt18uninitialized_copyIPKN12_GLOBAL__N_127get_implied_equalities_impl7term_idEPS2_ET0_T_S7_S6_(ptr noundef %__first, ptr noundef %__last, ptr noundef %__result) #4 {
entry:
  %__first.addr = alloca ptr, align 8
  %__last.addr = alloca ptr, align 8
  %__result.addr = alloca ptr, align 8
  %__can_memmove = alloca i8, align 1
  %__assignable = alloca i8, align 1
  store ptr %__first, ptr %__first.addr, align 8
  store ptr %__last, ptr %__last.addr, align 8
  store ptr %__result, ptr %__result.addr, align 8
  store i8 0, ptr %__can_memmove, align 1
  store i8 0, ptr %__assignable, align 1
  %0 = load ptr, ptr %__first.addr, align 8
  %1 = load ptr, ptr %__last.addr, align 8
  %2 = load ptr, ptr %__result.addr, align 8
  %call = call noundef ptr @_ZNSt20__uninitialized_copyILb0EE13__uninit_copyIPKN12_GLOBAL__N_127get_implied_equalities_impl7term_idEPS4_EET0_T_S9_S8_(ptr noundef %0, ptr noundef %1, ptr noundef %2)
  ret ptr %call
}

; Function Attrs: mustprogress nounwind uwtable
define internal noundef ptr @_ZNK6vectorIN12_GLOBAL__N_127get_implied_equalities_impl7term_idELb1EjE5beginEv(ptr noundef nonnull align 8 dereferenceable(8) %this) #5 align 2 {
entry:
  %this.addr = alloca ptr, align 8
  store ptr %this, ptr %this.addr, align 8
  %this1 = load ptr, ptr %this.addr, align 8
  %m_data = getelementptr inbounds %class.vector.36, ptr %this1, i32 0, i32 0
  %0 = load ptr, ptr %m_data, align 8
  ret ptr %0
}

; Function Attrs: mustprogress uwtable
define internal noundef ptr @_ZNK6vectorIN12_GLOBAL__N_127get_implied_equalities_impl7term_idELb1EjE3endEv(ptr noundef nonnull align 8 dereferenceable(8) %this) #4 align 2 {
entry:
  %this.addr = alloca ptr, align 8
  store ptr %this, ptr %this.addr, align 8
  %this1 = load ptr, ptr %this.addr, align 8
  %m_data = getelementptr inbounds %class.vector.36, ptr %this1, i32 0, i32 0
  %0 = load ptr, ptr %m_data, align 8
  %call = call noundef i32 @_ZNK6vectorIN12_GLOBAL__N_127get_implied_equalities_impl7term_idELb1EjE4sizeEv(ptr noundef nonnull align 8 dereferenceable(8) %this1)
  %idx.ext = zext i32 %call to i64
  %add.ptr = getelementptr inbounds %"struct.(anonymous namespace)::get_implied_equalities_impl::term_id", ptr %0, i64 %idx.ext
  ret ptr %add.ptr
}

; Function Attrs: mustprogress nounwind uwtable
define internal noundef ptr @_ZN6vectorIN12_GLOBAL__N_127get_implied_equalities_impl7term_idELb1EjE5beginEv(ptr noundef nonnull align 8 dereferenceable(8) %this) #5 align 2 {
entry:
  %this.addr = alloca ptr, align 8
  store ptr %this, ptr %this.addr, align 8
  %this1 = load ptr, ptr %this.addr, align 8
  %m_data = getelementptr inbounds %class.vector.36, ptr %this1, i32 0, i32 0
  %0 = load ptr, ptr %m_data, align 8
  ret ptr %0
}

; Function Attrs: mustprogress uwtable
define internal noundef ptr @_ZNSt20__uninitialized_copyILb0EE13__uninit_copyIPKN12_GLOBAL__N_127get_implied_equalities_impl7term_idEPS4_EET0_T_S9_S8_(ptr noundef %__first, ptr noundef %__last, ptr noundef %__result) #4 align 2 {
entry:
  %__first.addr = alloca ptr, align 8
  %__last.addr = alloca ptr, align 8
  %__result.addr = alloca ptr, align 8
  store ptr %__first, ptr %__first.addr, align 8
  store ptr %__last, ptr %__last.addr, align 8
  store ptr %__result, ptr %__result.addr, align 8
  %0 = load ptr, ptr %__first.addr, align 8
  %1 = load ptr, ptr %__last.addr, align 8
  %2 = load ptr, ptr %__result.addr, align 8
  %call = call noundef ptr @_ZSt16__do_uninit_copyIPKN12_GLOBAL__N_127get_implied_equalities_impl7term_idEPS2_ET0_T_S7_S6_(ptr noundef %0, ptr noundef %1, ptr noundef %2)
  ret ptr %call
}

; Function Attrs: mustprogress uwtable
define internal noundef ptr @_ZSt16__do_uninit_copyIPKN12_GLOBAL__N_127get_implied_equalities_impl7term_idEPS2_ET0_T_S7_S6_(ptr noundef %__first, ptr noundef %__last, ptr noundef %__result) #4 personality ptr @__gxx_personality_v0 {
entry:
  %__first.addr = alloca ptr, align 8
  %__last.addr = alloca ptr, align 8
  %__result.addr = alloca ptr, align 8
  %__cur = alloca ptr, align 8
  %exn.slot = alloca ptr, align 8
  %ehselector.slot = alloca i32, align 4
  store ptr %__first, ptr %__first.addr, align 8
  store ptr %__last, ptr %__last.addr, align 8
  store ptr %__result, ptr %__result.addr, align 8
  %0 = load ptr, ptr %__result.addr, align 8
  store ptr %0, ptr %__cur, align 8
  br label %for.cond

for.cond:                                         ; preds = %for.inc, %entry
  %1 = load ptr, ptr %__first.addr, align 8
  %2 = load ptr, ptr %__last.addr, align 8
  %cmp = icmp ne ptr %1, %2
  br i1 %cmp, label %for.body, label %for.end

for.body:                                         ; preds = %for.cond
  %3 = load ptr, ptr %__cur, align 8
  %4 = load ptr, ptr %__first.addr, align 8
  invoke void @_ZSt10_ConstructIN12_GLOBAL__N_127get_implied_equalities_impl7term_idEJRKS2_EEvPT_DpOT0_(ptr noundef %3, ptr noundef nonnull align 8 dereferenceable(20) %4)
          to label %invoke.cont unwind label %lpad

invoke.cont:                                      ; preds = %for.body
  br label %for.inc

for.inc:                                          ; preds = %invoke.cont
  %5 = load ptr, ptr %__first.addr, align 8
  %incdec.ptr = getelementptr inbounds %"struct.(anonymous namespace)::get_implied_equalities_impl::term_id", ptr %5, i32 1
  store ptr %incdec.ptr, ptr %__first.addr, align 8
  %6 = load ptr, ptr %__cur, align 8
  %incdec.ptr1 = getelementptr inbounds %"struct.(anonymous namespace)::get_implied_equalities_impl::term_id", ptr %6, i32 1
  store ptr %incdec.ptr1, ptr %__cur, align 8
  br label %for.cond, !llvm.loop !14

lpad:                                             ; preds = %for.body
  %7 = landingpad { ptr, i32 }
          catch ptr null
  %8 = extractvalue { ptr, i32 } %7, 0
  store ptr %8, ptr %exn.slot, align 8
  %9 = extractvalue { ptr, i32 } %7, 1
  store i32 %9, ptr %ehselector.slot, align 4
  br label %catch

catch:                                            ; preds = %lpad
  %exn = load ptr, ptr %exn.slot, align 8
  %10 = call ptr @__cxa_begin_catch(ptr %exn) #3
  %11 = load ptr, ptr %__result.addr, align 8
  %12 = load ptr, ptr %__cur, align 8
  invoke void @_ZSt8_DestroyIPN12_GLOBAL__N_127get_implied_equalities_impl7term_idEEvT_S4_(ptr noundef %11, ptr noundef %12)
          to label %invoke.cont3 unwind label %lpad2

invoke.cont3:                                     ; preds = %catch
  invoke void @__cxa_rethrow() #16
          to label %unreachable unwind label %lpad2

for.end:                                          ; preds = %for.cond
  %13 = load ptr, ptr %__cur, align 8
  ret ptr %13

lpad2:                                            ; preds = %invoke.cont3, %catch
  %14 = landingpad { ptr, i32 }
          cleanup
  %15 = extractvalue { ptr, i32 } %14, 0
  store ptr %15, ptr %exn.slot, align 8
  %16 = extractvalue { ptr, i32 } %14, 1
  store i32 %16, ptr %ehselector.slot, align 4
  invoke void @__cxa_end_catch()
          to label %invoke.cont4 unwind label %terminate.lpad

invoke.cont4:                                     ; preds = %lpad2
  br label %eh.resume

try.cont:                                         ; No predecessors!
  call void @llvm.trap()
  unreachable

eh.resume:                                        ; preds = %invoke.cont4
  %exn5 = load ptr, ptr %exn.slot, align 8
  %sel = load i32, ptr %ehselector.slot, align 4
  %lpad.val = insertvalue { ptr, i32 } poison, ptr %exn5, 0
  %lpad.val6 = insertvalue { ptr, i32 } %lpad.val, i32 %sel, 1
  resume { ptr, i32 } %lpad.val6

terminate.lpad:                                   ; preds = %lpad2
  %17 = landingpad { ptr, i32 }
          catch ptr null
  %18 = extractvalue { ptr, i32 } %17, 0
  call void @__clang_call_terminate(ptr %18) #14
  unreachable

unreachable:                                      ; preds = %invoke.cont3
  unreachable
}

; Function Attrs: mustprogress uwtable
define internal void @_ZSt10_ConstructIN12_GLOBAL__N_127get_implied_equalities_impl7term_idEJRKS2_EEvPT_DpOT0_(ptr noundef %__p, ptr noundef nonnull align 8 dereferenceable(20) %__args) #4 {
entry:
  %__p.addr = alloca ptr, align 8
  %__args.addr = alloca ptr, align 8
  store ptr %__p, ptr %__p.addr, align 8
  store ptr %__args, ptr %__args.addr, align 8
  %0 = load ptr, ptr %__p.addr, align 8
  %1 = load ptr, ptr %__args.addr, align 8
  call void @_ZN12_GLOBAL__N_127get_implied_equalities_impl7term_idC2ERKS1_(ptr noundef nonnull align 8 dereferenceable(20) %0, ptr noundef nonnull align 8 dereferenceable(20) %1)
  ret void
}

; Function Attrs: mustprogress uwtable
define internal void @_ZSt8_DestroyIPN12_GLOBAL__N_127get_implied_equalities_impl7term_idEEvT_S4_(ptr noundef %__first, ptr noundef %__last) #4 {
entry:
  %__first.addr = alloca ptr, align 8
  %__last.addr = alloca ptr, align 8
  store ptr %__first, ptr %__first.addr, align 8
  store ptr %__last, ptr %__last.addr, align 8
  %0 = load ptr, ptr %__first.addr, align 8
  %1 = load ptr, ptr %__last.addr, align 8
  call void @_ZNSt12_Destroy_auxILb0EE9__destroyIPN12_GLOBAL__N_127get_implied_equalities_impl7term_idEEEvT_S6_(ptr noundef %0, ptr noundef %1)
  ret void
}

declare void @__cxa_rethrow()

declare void @__cxa_end_catch()

; Function Attrs: mustprogress uwtable
define internal void @_ZN12_GLOBAL__N_127get_implied_equalities_impl7term_idC2ERKS1_(ptr noundef nonnull align 8 dereferenceable(20) %this, ptr noundef nonnull align 8 dereferenceable(20) %0) unnamed_addr #4 align 2 {
entry:
  %this.addr = alloca ptr, align 8
  %.addr = alloca ptr, align 8
  store ptr %this, ptr %this.addr, align 8
  store ptr %0, ptr %.addr, align 8
  %this1 = load ptr, ptr %this.addr, align 8
  %term = getelementptr inbounds %"struct.(anonymous namespace)::get_implied_equalities_impl::term_id", ptr %this1, i32 0, i32 0
  %1 = load ptr, ptr %.addr, align 8
  %term2 = getelementptr inbounds %"struct.(anonymous namespace)::get_implied_equalities_impl::term_id", ptr %1, i32 0, i32 0
  call void @_ZN7obj_refI4expr11ast_managerEC2ERKS2_(ptr noundef nonnull align 8 dereferenceable(16) %term, ptr noundef nonnull align 8 dereferenceable(16) %term2)
  %id = getelementptr inbounds %"struct.(anonymous namespace)::get_implied_equalities_impl::term_id", ptr %this1, i32 0, i32 1
  %2 = load ptr, ptr %.addr, align 8
  %id3 = getelementptr inbounds %"struct.(anonymous namespace)::get_implied_equalities_impl::term_id", ptr %2, i32 0, i32 1
  %3 = load i32, ptr %id3, align 8
  store i32 %3, ptr %id, align 8
  ret void
}

; Function Attrs: mustprogress uwtable
define linkonce_odr hidden void @_ZN7obj_refI4expr11ast_managerEC2ERKS2_(ptr noundef nonnull align 8 dereferenceable(16) %this, ptr noundef nonnull align 8 dereferenceable(16) %n) unnamed_addr #4 comdat align 2 {
entry:
  %this.addr = alloca ptr, align 8
  %n.addr = alloca ptr, align 8
  store ptr %this, ptr %this.addr, align 8
  store ptr %n, ptr %n.addr, align 8
  %this1 = load ptr, ptr %this.addr, align 8
  %m_obj = getelementptr inbounds %class.obj_ref.37, ptr %this1, i32 0, i32 0
  %0 = load ptr, ptr %n.addr, align 8
  %m_obj2 = getelementptr inbounds %class.obj_ref.37, ptr %0, i32 0, i32 0
  %1 = load ptr, ptr %m_obj2, align 8
  store ptr %1, ptr %m_obj, align 8
  %m_manager = getelementptr inbounds %class.obj_ref.37, ptr %this1, i32 0, i32 1
  %2 = load ptr, ptr %n.addr, align 8
  %m_manager3 = getelementptr inbounds %class.obj_ref.37, ptr %2, i32 0, i32 1
  %3 = load ptr, ptr %m_manager3, align 8
  store ptr %3, ptr %m_manager, align 8
  call void @_ZN7obj_refI4expr11ast_managerE7inc_refEv(ptr noundef nonnull align 8 dereferenceable(16) %this1)
  ret void
}

; Function Attrs: mustprogress uwtable
define linkonce_odr hidden void @_ZN7obj_refI4expr11ast_managerE7inc_refEv(ptr noundef nonnull align 8 dereferenceable(16) %this) #4 comdat align 2 {
entry:
  %this.addr = alloca ptr, align 8
  store ptr %this, ptr %this.addr, align 8
  %this1 = load ptr, ptr %this.addr, align 8
  %m_obj = getelementptr inbounds %class.obj_ref.37, ptr %this1, i32 0, i32 0
  %0 = load ptr, ptr %m_obj, align 8
  %tobool = icmp ne ptr %0, null
  br i1 %tobool, label %if.then, label %if.end

if.then:                                          ; preds = %entry
  %m_manager = getelementptr inbounds %class.obj_ref.37, ptr %this1, i32 0, i32 1
  %1 = load ptr, ptr %m_manager, align 8
  %m_obj2 = getelementptr inbounds %class.obj_ref.37, ptr %this1, i32 0, i32 0
  %2 = load ptr, ptr %m_obj2, align 8
  call void @_ZN11ast_manager7inc_refEP3ast(ptr noundef nonnull align 8 dereferenceable(976) %1, ptr noundef %2)
  br label %if.end

if.end:                                           ; preds = %if.then, %entry
  ret void
}

; Function Attrs: mustprogress uwtable
define linkonce_odr hidden void @_ZN11ast_manager7inc_refEP3ast(ptr noundef nonnull align 8 dereferenceable(976) %this, ptr noundef %n) #4 comdat align 2 {
entry:
  %this.addr = alloca ptr, align 8
  %n.addr = alloca ptr, align 8
  store ptr %this, ptr %this.addr, align 8
  store ptr %n, ptr %n.addr, align 8
  %0 = load ptr, ptr %n.addr, align 8
  %tobool = icmp ne ptr %0, null
  br i1 %tobool, label %if.then, label %if.end

if.then:                                          ; preds = %entry
  %1 = load ptr, ptr %n.addr, align 8
  call void @_ZN3ast7inc_refEv(ptr noundef nonnull align 4 dereferenceable(16) %1)
  br label %if.end

if.end:                                           ; preds = %if.then, %entry
  ret void
}

; Function Attrs: mustprogress nounwind uwtable
define linkonce_odr hidden void @_ZN3ast7inc_refEv(ptr noundef nonnull align 4 dereferenceable(16) %this) #5 comdat align 2 {
entry:
  %this.addr = alloca ptr, align 8
  store ptr %this, ptr %this.addr, align 8
  %this1 = load ptr, ptr %this.addr, align 8
  %m_ref_count = getelementptr inbounds %class.ast, ptr %this1, i32 0, i32 2
  %0 = load i32, ptr %m_ref_count, align 4
  %inc = add i32 %0, 1
  store i32 %inc, ptr %m_ref_count, align 4
  ret void
}

; Function Attrs: mustprogress uwtable
define internal void @_ZNSt12_Destroy_auxILb0EE9__destroyIPN12_GLOBAL__N_127get_implied_equalities_impl7term_idEEEvT_S6_(ptr noundef %__first, ptr noundef %__last) #4 align 2 {
entry:
  %__first.addr = alloca ptr, align 8
  %__last.addr = alloca ptr, align 8
  store ptr %__first, ptr %__first.addr, align 8
  store ptr %__last, ptr %__last.addr, align 8
  br label %for.cond

for.cond:                                         ; preds = %for.inc, %entry
  %0 = load ptr, ptr %__first.addr, align 8
  %1 = load ptr, ptr %__last.addr, align 8
  %cmp = icmp ne ptr %0, %1
  br i1 %cmp, label %for.body, label %for.end

for.body:                                         ; preds = %for.cond
  %2 = load ptr, ptr %__first.addr, align 8
