target datalayout = "e-m:e-p270:32:32-p271:32:32-p272:64:64-i64:64-i128:128-f80:128-n8:16:32:64-S128"
target triple = "x86_64-unknown-linux-gnu"

%"struct.std::in_place_t" = type { i8 }
%"class.std::vector" = type { %"struct.std::_Vector_base" }
%"struct.std::_Vector_base" = type { %"struct.std::_Vector_base<std::__cxx11::basic_string<char16_t>, std::allocator<std::__cxx11::basic_string<char16_t>>>::_Vector_impl" }
%"struct.std::_Vector_base<std::__cxx11::basic_string<char16_t>, std::allocator<std::__cxx11::basic_string<char16_t>>>::_Vector_impl" = type { %"struct.std::_Vector_base<std::__cxx11::basic_string<char16_t>, std::allocator<std::__cxx11::basic_string<char16_t>>>::_Vector_impl_data" }
%"struct.std::_Vector_base<std::__cxx11::basic_string<char16_t>, std::allocator<std::__cxx11::basic_string<char16_t>>>::_Vector_impl_data" = type { ptr, ptr, ptr }
%"class.__gnu_cxx::__normal_iterator" = type { ptr }
%"class.__gnu_cxx::__normal_iterator.32" = type { ptr }
%"class.__gnu_cxx::__normal_iterator.18" = type { ptr }
%"class.hermes::platform_intl::LanguageTagParser" = type { %"struct.hermes::platform_intl::ParsedLocaleIdentifier", %"class.std::vector" }
%"struct.hermes::platform_intl::ParsedLocaleIdentifier" = type { %"struct.hermes::platform_intl::ParsedLocaleIdentifier::ParsedLanguageIdentifier", %"class.std::set", %"class.std::map", %"struct.hermes::platform_intl::ParsedLocaleIdentifier::ParsedLanguageIdentifier", %"class.std::map", %"class.std::map.10", %"class.std::__cxx11::basic_string" }
%"class.std::set" = type { %"class.std::_Rb_tree" }
%"class.std::_Rb_tree" = type { %"struct.std::_Rb_tree<std::__cxx11::basic_string<char16_t>, std::__cxx11::basic_string<char16_t>, std::_Identity<std::__cxx11::basic_string<char16_t>>, std::less<std::__cxx11::basic_string<char16_t>>>::_Rb_tree_impl" }
%"struct.std::_Rb_tree<std::__cxx11::basic_string<char16_t>, std::__cxx11::basic_string<char16_t>, std::_Identity<std::__cxx11::basic_string<char16_t>>, std::less<std::__cxx11::basic_string<char16_t>>>::_Rb_tree_impl" = type { %"struct.std::_Rb_tree_key_compare", %"struct.std::_Rb_tree_header" }
%"struct.std::_Rb_tree_key_compare" = type { %"struct.std::less" }
%"struct.std::less" = type { i8 }
%"struct.std::_Rb_tree_header" = type { %"struct.std::_Rb_tree_node_base", i64 }
%"struct.std::_Rb_tree_node_base" = type { i32, ptr, ptr, ptr }
%"struct.hermes::platform_intl::ParsedLocaleIdentifier::ParsedLanguageIdentifier" = type { %"class.std::__cxx11::basic_string", %"class.std::__cxx11::basic_string", %"class.std::__cxx11::basic_string", %"class.std::set" }
%"class.std::map" = type { %"class.std::_Rb_tree.6" }
%"class.std::_Rb_tree.6" = type { %"struct.std::_Rb_tree<std::__cxx11::basic_string<char16_t>, std::pair<const std::__cxx11::basic_string<char16_t>, std::__cxx11::basic_string<char16_t>>, std::_Select1st<std::pair<const std::__cxx11::basic_string<char16_t>, std::__cxx11::basic_string<char16_t>>>, std::less<std::__cxx11::basic_string<char16_t>>>::_Rb_tree_impl" }
%"struct.std::_Rb_tree<std::__cxx11::basic_string<char16_t>, std::pair<const std::__cxx11::basic_string<char16_t>, std::__cxx11::basic_string<char16_t>>, std::_Select1st<std::pair<const std::__cxx11::basic_string<char16_t>, std::__cxx11::basic_string<char16_t>>>, std::less<std::__cxx11::basic_string<char16_t>>>::_Rb_tree_impl" = type { %"struct.std::_Rb_tree_key_compare", %"struct.std::_Rb_tree_header" }
%"class.std::map.10" = type { %"class.std::_Rb_tree.11" }
%"class.std::_Rb_tree.11" = type { %"struct.std::_Rb_tree<char16_t, std::pair<const char16_t, std::__cxx11::basic_string<char16_t>>, std::_Select1st<std::pair<const char16_t, std::__cxx11::basic_string<char16_t>>>, std::less<char16_t>>::_Rb_tree_impl" }
%"struct.std::_Rb_tree<char16_t, std::pair<const char16_t, std::__cxx11::basic_string<char16_t>>, std::_Select1st<std::pair<const char16_t, std::__cxx11::basic_string<char16_t>>>, std::less<char16_t>>::_Rb_tree_impl" = type { %"struct.std::_Rb_tree_key_compare.15", %"struct.std::_Rb_tree_header" }
%"struct.std::_Rb_tree_key_compare.15" = type { %"struct.std::less.16" }
%"struct.std::less.16" = type { i8 }
%"class.std::__cxx11::basic_string" = type { %"struct.std::__cxx11::basic_string<char16_t>::_Alloc_hider", i64, %union.anon }
%"struct.std::__cxx11::basic_string<char16_t>::_Alloc_hider" = type { ptr }
%union.anon = type { i64, [8 x i8] }
%"class.std::optional" = type { %"struct.std::_Optional_base" }
%"struct.std::_Optional_base" = type { %"struct.std::_Optional_payload" }
%"struct.std::_Optional_payload" = type { %"struct.std::_Optional_payload.base", [7 x i8] }
%"struct.std::_Optional_payload.base" = type { %"struct.std::_Optional_payload_base.base" }
%"struct.std::_Optional_payload_base.base" = type <{ %"union.std::_Optional_payload_base<hermes::platform_intl::ParsedLocaleIdentifier>::_Storage", i8 }>
%"union.std::_Optional_payload_base<hermes::platform_intl::ParsedLocaleIdentifier>::_Storage" = type { %"struct.hermes::platform_intl::ParsedLocaleIdentifier" }
%"struct.std::pair" = type <{ %"struct.std::_Rb_tree_const_iterator", i8, [7 x i8] }>
%"struct.std::_Rb_tree_const_iterator" = type { ptr }
%"struct.std::pair.42" = type <{ %"struct.std::_Rb_tree_iterator.44", i8, [7 x i8] }>
%"struct.std::_Rb_tree_iterator.44" = type { ptr }
%"struct.std::pair.21" = type <{ %"struct.std::_Rb_tree_iterator", i8, [7 x i8] }>
%"struct.std::_Rb_tree_iterator" = type { ptr }
%"struct.std::pair.24" = type { %"class.std::__cxx11::basic_string", %"class.std::__cxx11::basic_string" }
%"struct.std::pair.26" = type <{ %"struct.std::_Rb_tree_iterator.28", i8, [7 x i8] }>
%"struct.std::_Rb_tree_iterator.28" = type { ptr }
%"struct.std::pair.30" = type { i16, %"class.std::__cxx11::basic_string" }
%"class.std::allocator.0" = type { i8 }
%"class.__gnu_cxx::__normal_iterator.51" = type { ptr }
%class.anon = type { i8 }
%"class.std::initializer_list" = type { ptr, i64 }
%"struct.std::_Rb_tree_const_iterator.33" = type { ptr }
%"struct.std::_Rb_tree_const_iterator.34" = type { ptr }
%"struct.__gnu_cxx::__ops::_Iter_equals_val" = type { ptr }
%struct._Guard = type { ptr }
%"struct.__gnu_cxx::__ops::_Iter_pred" = type { ptr }
%"struct.__gnu_cxx::__ops::_Iter_negate" = type { ptr }
%"struct.std::_Optional_payload_base" = type <{ %"union.std::_Optional_payload_base<hermes::platform_intl::ParsedLocaleIdentifier>::_Storage", i8, [7 x i8] }>
%"class.std::allocator.3" = type { i8 }
%"struct.std::_Rb_tree<std::__cxx11::basic_string<char16_t>, std::__cxx11::basic_string<char16_t>, std::_Identity<std::__cxx11::basic_string<char16_t>>, std::less<std::__cxx11::basic_string<char16_t>>>::_Alloc_node" = type { ptr }
%"struct.std::_Rb_tree_node" = type { %"struct.std::_Rb_tree_node_base", %"struct.__gnu_cxx::__aligned_membuf" }
%"struct.__gnu_cxx::__aligned_membuf" = type { [32 x i8] }
%"class.std::allocator.7" = type { i8 }
%"struct.std::_Rb_tree<std::__cxx11::basic_string<char16_t>, std::pair<const std::__cxx11::basic_string<char16_t>, std::__cxx11::basic_string<char16_t>>, std::_Select1st<std::pair<const std::__cxx11::basic_string<char16_t>, std::__cxx11::basic_string<char16_t>>>, std::less<std::__cxx11::basic_string<char16_t>>>::_Alloc_node" = type { ptr }
%"struct.std::_Rb_tree_node.35" = type { %"struct.std::_Rb_tree_node_base", %"struct.__gnu_cxx::__aligned_membuf.36" }
%"struct.__gnu_cxx::__aligned_membuf.36" = type { [64 x i8] }
%"class.std::allocator.12" = type { i8 }
%"struct.std::_Rb_tree<char16_t, std::pair<const char16_t, std::__cxx11::basic_string<char16_t>>, std::_Select1st<std::pair<const char16_t, std::__cxx11::basic_string<char16_t>>>, std::less<char16_t>>::_Alloc_node" = type { ptr }
%"struct.std::_Rb_tree_node.37" = type { %"struct.std::_Rb_tree_node_base", %"struct.__gnu_cxx::__aligned_membuf.38" }
%"struct.__gnu_cxx::__aligned_membuf.38" = type { [40 x i8] }
%struct._Guard.39 = type { ptr }
%"struct.__gnu_cxx::__ops::_Iter_pred.40" = type { ptr }
%"struct.__gnu_cxx::__ops::_Iter_negate.41" = type { ptr }
%"class.std::allocator" = type { i8 }
%"struct.std::pair.46" = type { ptr, ptr }
%"struct.std::_Identity" = type { i8 }
%"struct.std::_Select1st" = type { i8 }
%"struct.std::_Select1st.49" = type { i8 }

$_ZN4llvh6all_ofISt6vectorINSt7__cxx1112basic_stringIDsSt11char_traitsIDsESaIDsEEESaIS7_EEPFbRKS7_EEEbOT_T0_ = comdat any

$_ZNSt6vectorINSt7__cxx1112basic_stringIDsSt11char_traitsIDsESaIDsEEESaIS5_EED2Ev = comdat any

$_ZN6hermes13platform_intl22ParsedLocaleIdentifierC2Ev = comdat any

$_ZNSt6vectorINSt7__cxx1112basic_stringIDsSt11char_traitsIDsESaIDsEEESaIS5_EEC2Ev = comdat any

$_ZNSt6vectorINSt7__cxx1112basic_stringIDsSt11char_traitsIDsESaIDsEEESaIS5_EEaSEOS7_ = comdat any

$_ZSt7reverseIN9__gnu_cxx17__normal_iteratorIPNSt7__cxx1112basic_stringIDsSt11char_traitsIDsESaIDsEEESt6vectorIS7_SaIS7_EEEEEvT_SD_ = comdat any

$_ZNSt6vectorINSt7__cxx1112basic_stringIDsSt11char_traitsIDsESaIDsEEESaIS5_EE5beginEv = comdat any

$_ZNSt6vectorINSt7__cxx1112basic_stringIDsSt11char_traitsIDsESaIDsEEESaIS5_EE3endEv = comdat any

$_ZN9__gnu_cxxneIPNSt7__cxx1112basic_stringIDsSt11char_traitsIDsESaIDsEEESt6vectorIS6_SaIS6_EEEEbRKNS_17__normal_iteratorIT_T0_EESG_ = comdat any

$_ZNK9__gnu_cxx17__normal_iteratorIPNSt7__cxx1112basic_stringIDsSt11char_traitsIDsESaIDsEEESt6vectorIS6_SaIS6_EEEdeEv = comdat any

$_ZNSt7__cxx1112basic_stringIDsSt11char_traitsIDsESaIDsEE5beginEv = comdat any

$_ZNSt7__cxx1112basic_stringIDsSt11char_traitsIDsESaIDsEE3endEv = comdat any

$_ZN9__gnu_cxxneIPDsNSt7__cxx1112basic_stringIDsSt11char_traitsIDsESaIDsEEEEEbRKNS_17__normal_iteratorIT_T0_EESD_ = comdat any

$_ZNK9__gnu_cxx17__normal_iteratorIPDsNSt7__cxx1112basic_stringIDsSt11char_traitsIDsESaIDsEEEEdeEv = comdat any

$_ZN9__gnu_cxx17__normal_iteratorIPDsNSt7__cxx1112basic_stringIDsSt11char_traitsIDsESaIDsEEEEppEv = comdat any

$_ZN9__gnu_cxx17__normal_iteratorIPNSt7__cxx1112basic_stringIDsSt11char_traitsIDsESaIDsEEESt6vectorIS6_SaIS6_EEEppEv = comdat any

$_ZNSt8optionalIN6hermes13platform_intl22ParsedLocaleIdentifierEEC2Ev = comdat any

$_ZNSt8optionalIN6hermes13platform_intl22ParsedLocaleIdentifierEEC2IRS2_TnNSt9enable_ifIX7__and_vISt6__not_ISt7is_sameIS3_NSt9remove_cvINSt16remove_referenceIT_E4typeEE4typeEEES7_IS8_ISt10in_place_tSF_EESt16is_constructibleIS2_JSB_EESt14is_convertibleISB_S2_EEEbE4typeELb1EEEOSB_ = comdat any

$_ZNSt7__cxx1112basic_stringIDsSt11char_traitsIDsESaIDsEEaSERKS4_ = comdat any

$_ZNSt3setINSt7__cxx1112basic_stringIDsSt11char_traitsIDsESaIDsEEESt4lessIS5_ESaIS5_EE6insertERKS5_ = comdat any

$_ZNKSt7__cxx1112basic_stringIDsSt11char_traitsIDsESaIDsEE4sizeEv = comdat any

$_ZNKSt7__cxx1112basic_stringIDsSt11char_traitsIDsESaIDsEEixEm = comdat any

$_ZNKSt3setINSt7__cxx1112basic_stringIDsSt11char_traitsIDsESaIDsEEESt4lessIS5_ESaIS5_EE5emptyEv = comdat any

$_ZNKSt3mapINSt7__cxx1112basic_stringIDsSt11char_traitsIDsESaIDsEEES5_St4lessIS5_ESaISt4pairIKS5_S5_EEE5emptyEv = comdat any

$_ZNSt3mapINSt7__cxx1112basic_stringIDsSt11char_traitsIDsESaIDsEEES5_St4lessIS5_ESaISt4pairIKS5_S5_EEE6insertEOSA_ = comdat any

$_ZNSt7__cxx1112basic_stringIDsSt11char_traitsIDsESaIDsEEC2Ev = comdat any

$_ZNSt4pairIKNSt7__cxx1112basic_stringIDsSt11char_traitsIDsESaIDsEEES5_EC2IS6_S5_TnNSt9enable_ifIXaaclsr5_PCCPE18_ConstructiblePairIT_T0_EEclsr5_PCCPE26_ImplicitlyConvertiblePairISA_SB_EEEbE4typeELb1EEERS6_SE_ = comdat any

$_ZNSt4pairIKNSt7__cxx1112basic_stringIDsSt11char_traitsIDsESaIDsEEES5_ED2Ev = comdat any

$_ZNSt7__cxx1112basic_stringIDsSt11char_traitsIDsESaIDsEED2Ev = comdat any

$_ZNKSt17_Rb_tree_iteratorISt4pairIKNSt7__cxx1112basic_stringIDsSt11char_traitsIDsESaIDsEEES6_EEptEv = comdat any

$_ZNKSt7__cxx1112basic_stringIDsSt11char_traitsIDsESaIDsEE5emptyEv = comdat any

$_ZNSt7__cxx1112basic_stringIDsSt11char_traitsIDsESaIDsEEpLEDs = comdat any

$_ZNSt7__cxx1112basic_stringIDsSt11char_traitsIDsESaIDsEE6appendERKS4_ = comdat any

$_ZNSt3mapIDsNSt7__cxx1112basic_stringIDsSt11char_traitsIDsESaIDsEEESt4lessIDsESaISt4pairIKDsS5_EEE6insertEOSA_ = comdat any

$_ZNSt4pairIKDsNSt7__cxx1112basic_stringIDsSt11char_traitsIDsESaIDsEEEEC2IS0_S6_TnNSt9enable_ifIXaaclsr5_PCCPE18_ConstructiblePairIT_T0_EEclsr5_PCCPE26_ImplicitlyConvertiblePairISA_SB_EEEbE4typeELb1EEERS0_RKS6_ = comdat any

$_ZNSt4pairIKDsNSt7__cxx1112basic_stringIDsSt11char_traitsIDsESaIDsEEEED2Ev = comdat any

$_ZNKSt17_Rb_tree_iteratorISt4pairIKDsNSt7__cxx1112basic_stringIDsSt11char_traitsIDsESaIDsEEEEEptEv = comdat any

$_ZNKSt6vectorINSt7__cxx1112basic_stringIDsSt11char_traitsIDsESaIDsEEESaIS5_EE5emptyEv = comdat any

$_ZNSt6vectorINSt7__cxx1112basic_stringIDsSt11char_traitsIDsESaIDsEEESaIS5_EE8pop_backEv = comdat any

$_ZNKSt6vectorINSt7__cxx1112basic_stringIDsSt11char_traitsIDsESaIDsEEESaIS5_EE4backEv = comdat any

$_ZN6hermes13platform_intl17LanguageTagParserD2Ev = comdat any

$_ZNSt7__cxx1112basic_stringIDsSt11char_traitsIDsESaIDsEE6appendESt16initializer_listIDsE = comdat any

$_ZNKSt7__cxx1112basic_stringIDsSt11char_traitsIDsESaIDsEE5beginEv = comdat any

$_ZNKSt7__cxx1112basic_stringIDsSt11char_traitsIDsESaIDsEE3endEv = comdat any

$_ZN9__gnu_cxxneIPKDsNSt7__cxx1112basic_stringIDsSt11char_traitsIDsESaIDsEEEEEbRKNS_17__normal_iteratorIT_T0_EESE_ = comdat any

$_ZNK9__gnu_cxx17__normal_iteratorIPKDsNSt7__cxx1112basic_stringIDsSt11char_traitsIDsESaIDsEEEEdeEv = comdat any

$_ZN9__gnu_cxx17__normal_iteratorIPKDsNSt7__cxx1112basic_stringIDsSt11char_traitsIDsESaIDsEEEEppEv = comdat any

$_ZNKSt3setINSt7__cxx1112basic_stringIDsSt11char_traitsIDsESaIDsEEESt4lessIS5_ESaIS5_EE5beginEv = comdat any

$_ZNKSt3setINSt7__cxx1112basic_stringIDsSt11char_traitsIDsESaIDsEEESt4lessIS5_ESaIS5_EE3endEv = comdat any

$_ZStneRKSt23_Rb_tree_const_iteratorINSt7__cxx1112basic_stringIDsSt11char_traitsIDsESaIDsEEEES8_ = comdat any

$_ZNKSt23_Rb_tree_const_iteratorINSt7__cxx1112basic_stringIDsSt11char_traitsIDsESaIDsEEEEdeEv = comdat any

$_ZNSt7__cxx1112basic_stringIDsSt11char_traitsIDsESaIDsEE6appendEPKDs = comdat any

$_ZNSt23_Rb_tree_const_iteratorINSt7__cxx1112basic_stringIDsSt11char_traitsIDsESaIDsEEEEppEv = comdat any

$_ZNKSt3mapIDsNSt7__cxx1112basic_stringIDsSt11char_traitsIDsESaIDsEEESt4lessIDsESaISt4pairIKDsS5_EEE5beginEv = comdat any

$_ZStneRKSt23_Rb_tree_const_iteratorISt4pairIKDsNSt7__cxx1112basic_stringIDsSt11char_traitsIDsESaIDsEEEEESB_ = comdat any

$_ZNKSt3mapIDsNSt7__cxx1112basic_stringIDsSt11char_traitsIDsESaIDsEEESt4lessIDsESaISt4pairIKDsS5_EEE3endEv = comdat any

$_ZNKSt23_Rb_tree_const_iteratorISt4pairIKDsNSt7__cxx1112basic_stringIDsSt11char_traitsIDsESaIDsEEEEEptEv = comdat any

$_ZNSt23_Rb_tree_const_iteratorISt4pairIKDsNSt7__cxx1112basic_stringIDsSt11char_traitsIDsESaIDsEEEEEppEi = comdat any

$_ZNKSt3mapINSt7__cxx1112basic_stringIDsSt11char_traitsIDsESaIDsEEES5_St4lessIS5_ESaISt4pairIKS5_S5_EEE5beginEv = comdat any

$_ZNKSt3mapINSt7__cxx1112basic_stringIDsSt11char_traitsIDsESaIDsEEES5_St4lessIS5_ESaISt4pairIKS5_S5_EEE3endEv = comdat any

$_ZStneRKSt23_Rb_tree_const_iteratorISt4pairIKNSt7__cxx1112basic_stringIDsSt11char_traitsIDsESaIDsEEES6_EESB_ = comdat any

$_ZNKSt23_Rb_tree_const_iteratorISt4pairIKNSt7__cxx1112basic_stringIDsSt11char_traitsIDsESaIDsEEES6_EEdeEv = comdat any

$_ZNSt23_Rb_tree_const_iteratorISt4pairIKNSt7__cxx1112basic_stringIDsSt11char_traitsIDsESaIDsEEES6_EEppEv = comdat any

$_ZNKSt7__cxx1112basic_stringIDsSt11char_traitsIDsESaIDsEE6lengthEv = comdat any

$_ZStneIDsSt11char_traitsIDsESaIDsEEbRKNSt7__cxx1112basic_stringIT_T0_T1_EEPKS5_ = comdat any

$_ZSt4findIN9__gnu_cxx17__normal_iteratorIPKDsNSt7__cxx1112basic_stringIDsSt11char_traitsIDsESaIDsEEEEEDsET_SB_SB_RKT0_ = comdat any

$_ZNSt6vectorINSt7__cxx1112basic_stringIDsSt11char_traitsIDsESaIDsEEESaIS5_EE12emplace_backIJRN9__gnu_cxx17__normal_iteratorIPKDsS5_EESE_EEERS5_DpOT_ = comdat any

$_ZN9__gnu_cxxeqIPKDsNSt7__cxx1112basic_stringIDsSt11char_traitsIDsESaIDsEEEEEbRKNS_17__normal_iteratorIT_T0_EESE_ = comdat any

$_ZNK9__gnu_cxx17__normal_iteratorIPKDsNSt7__cxx1112basic_stringIDsSt11char_traitsIDsESaIDsEEEEplEl = comdat any

$_ZSt9__find_ifIN9__gnu_cxx17__normal_iteratorIPKDsNSt7__cxx1112basic_stringIDsSt11char_traitsIDsESaIDsEEEEENS0_5__ops16_Iter_equals_valIS2_EEET_SE_SE_T0_ = comdat any

$_ZN9__gnu_cxx5__ops17__iter_equals_valIKDsEENS0_16_Iter_equals_valIT_EERS4_ = comdat any

$_ZSt9__find_ifIN9__gnu_cxx17__normal_iteratorIPKDsNSt7__cxx1112basic_stringIDsSt11char_traitsIDsESaIDsEEEEENS0_5__ops16_Iter_equals_valIS2_EEET_SE_SE_T0_St26random_access_iterator_tag = comdat any

$_ZSt19__iterator_categoryIN9__gnu_cxx17__normal_iteratorIPKDsNSt7__cxx1112basic_stringIDsSt11char_traitsIDsESaIDsEEEEEENSt15iterator_traitsIT_E17iterator_categoryERKSC_ = comdat any

$_ZN9__gnu_cxxmiIPKDsNSt7__cxx1112basic_stringIDsSt11char_traitsIDsESaIDsEEEEENS_17__normal_iteratorIT_T0_E15difference_typeERKSC_SF_ = comdat any

$_ZN9__gnu_cxx5__ops16_Iter_equals_valIKDsEclINS_17__normal_iteratorIPS2_NSt7__cxx1112basic_stringIDsSt11char_traitsIDsESaIDsEEEEEEEbT_ = comdat any

$_ZNK9__gnu_cxx17__normal_iteratorIPKDsNSt7__cxx1112basic_stringIDsSt11char_traitsIDsESaIDsEEEE4baseEv = comdat any

$_ZN9__gnu_cxx5__ops16_Iter_equals_valIKDsEC2ERS2_ = comdat any

$_ZNSt16allocator_traitsISaINSt7__cxx1112basic_stringIDsSt11char_traitsIDsESaIDsEEEEE9constructIS5_JRN9__gnu_cxx17__normal_iteratorIPKDsS5_EESE_EEEvRS6_PT_DpOT0_ = comdat any

$_ZNSt6vectorINSt7__cxx1112basic_stringIDsSt11char_traitsIDsESaIDsEEESaIS5_EE17_M_realloc_insertIJRN9__gnu_cxx17__normal_iteratorIPKDsS5_EESE_EEEvNSA_IPS5_S7_EEDpOT_ = comdat any

$_ZNSt6vectorINSt7__cxx1112basic_stringIDsSt11char_traitsIDsESaIDsEEESaIS5_EE4backEv = comdat any

$_ZNSt15__new_allocatorINSt7__cxx1112basic_stringIDsSt11char_traitsIDsESaIDsEEEE9constructIS5_JRN9__gnu_cxx17__normal_iteratorIPKDsS5_EESD_EEEvPT_DpOT0_ = comdat any

$_ZNSaIDsEC2Ev = comdat any

$_ZNSt7__cxx1112basic_stringIDsSt11char_traitsIDsESaIDsEEC2IN9__gnu_cxx17__normal_iteratorIPKDsS4_EEvEET_SB_RKS3_ = comdat any

$_ZNSaIDsED2Ev = comdat any

$_ZNSt15__new_allocatorIDsEC2Ev = comdat any

$_ZNSt7__cxx1112basic_stringIDsSt11char_traitsIDsESaIDsEE13_M_local_dataEv = comdat any

$_ZNSt7__cxx1112basic_stringIDsSt11char_traitsIDsESaIDsEE12_Alloc_hiderC2EPDsRKS3_ = comdat any

$_ZNSt7__cxx1112basic_stringIDsSt11char_traitsIDsESaIDsEE12_M_constructIN9__gnu_cxx17__normal_iteratorIPKDsS4_EEEEvT_SB_St20forward_iterator_tag = comdat any

$_ZNSt19__ptr_traits_ptr_toIPDsDsLb0EE10pointer_toERDs = comdat any

$_ZNSt15__new_allocatorIDsEC2ERKS0_ = comdat any

$_ZSt8distanceIN9__gnu_cxx17__normal_iteratorIPKDsNSt7__cxx1112basic_stringIDsSt11char_traitsIDsESaIDsEEEEEENSt15iterator_traitsIT_E15difference_typeESC_SC_ = comdat any

$_ZNSt7__cxx1112basic_stringIDsSt11char_traitsIDsESaIDsEE7_M_dataEPDs = comdat any

$_ZNSt7__cxx1112basic_stringIDsSt11char_traitsIDsESaIDsEE9_M_createERmm = comdat any

$_ZNSt7__cxx1112basic_stringIDsSt11char_traitsIDsESaIDsEE11_M_capacityEm = comdat any

$_ZZNSt7__cxx1112basic_stringIDsSt11char_traitsIDsESaIDsEE12_M_constructIN9__gnu_cxx17__normal_iteratorIPKDsS4_EEEEvT_SB_St20forward_iterator_tagEN6_GuardC2EPS4_ = comdat any

$_ZNSt7__cxx1112basic_stringIDsSt11char_traitsIDsESaIDsEE13_S_copy_charsEPDsN9__gnu_cxx17__normal_iteratorIPKDsS4_EESA_ = comdat any

$_ZNKSt7__cxx1112basic_stringIDsSt11char_traitsIDsESaIDsEE7_M_dataEv = comdat any

$_ZNSt7__cxx1112basic_stringIDsSt11char_traitsIDsESaIDsEE13_M_set_lengthEm = comdat any

$_ZZNSt7__cxx1112basic_stringIDsSt11char_traitsIDsESaIDsEE12_M_constructIN9__gnu_cxx17__normal_iteratorIPKDsS4_EEEEvT_SB_St20forward_iterator_tagEN6_GuardD2Ev = comdat any

$_ZSt10__distanceIN9__gnu_cxx17__normal_iteratorIPKDsNSt7__cxx1112basic_stringIDsSt11char_traitsIDsESaIDsEEEEEENSt15iterator_traitsIT_E15difference_typeESC_SC_St26random_access_iterator_tag = comdat any

$_ZNKSt7__cxx1112basic_stringIDsSt11char_traitsIDsESaIDsEE8max_sizeEv = comdat any

$_ZNSt16allocator_traitsISaIDsEE8allocateERS0_m = comdat any

$_ZNSt7__cxx1112basic_stringIDsSt11char_traitsIDsESaIDsEE16_M_get_allocatorEv = comdat any

$_ZNSt16allocator_traitsISaIDsEE8max_sizeERKS0_ = comdat any

$_ZNKSt7__cxx1112basic_stringIDsSt11char_traitsIDsESaIDsEE16_M_get_allocatorEv = comdat any

$_ZNKSt15__new_allocatorIDsE8max_sizeEv = comdat any

$_ZNKSt15__new_allocatorIDsE11_M_max_sizeEv = comdat any

$_ZNSt15__new_allocatorIDsE8allocateEmPKv = comdat any

$_ZNSt7__cxx1112basic_stringIDsSt11char_traitsIDsESaIDsEE13_S_copy_charsEPDsPKDsS7_ = comdat any

$_ZNSt7__cxx1112basic_stringIDsSt11char_traitsIDsESaIDsEE7_S_copyEPDsPKDsm = comdat any

$_ZNSt11char_traitsIDsE6assignERDsRKDs = comdat any

$_ZNSt11char_traitsIDsE4copyEPDsPKDsm = comdat any

$_ZNSt7__cxx1112basic_stringIDsSt11char_traitsIDsESaIDsEE9_M_lengthEm = comdat any

$_ZNSt7__cxx1112basic_stringIDsSt11char_traitsIDsESaIDsEE10_M_disposeEv = comdat any

$_ZNKSt7__cxx1112basic_stringIDsSt11char_traitsIDsESaIDsEE11_M_is_localEv = comdat any

$_ZNSt7__cxx1112basic_stringIDsSt11char_traitsIDsESaIDsEE10_M_destroyEm = comdat any

$_ZNKSt7__cxx1112basic_stringIDsSt11char_traitsIDsESaIDsEE13_M_local_dataEv = comdat any

$_ZNSt19__ptr_traits_ptr_toIPKDsS0_Lb0EE10pointer_toERS0_ = comdat any

$_ZNSt16allocator_traitsISaIDsEE10deallocateERS0_PDsm = comdat any

$_ZNSt15__new_allocatorIDsE10deallocateEPDsm = comdat any

$_ZNSt15__new_allocatorIDsED2Ev = comdat any

$_ZNKSt6vectorINSt7__cxx1112basic_stringIDsSt11char_traitsIDsESaIDsEEESaIS5_EE12_M_check_lenEmPKc = comdat any

$_ZN9__gnu_cxxmiIPNSt7__cxx1112basic_stringIDsSt11char_traitsIDsESaIDsEEESt6vectorIS6_SaIS6_EEEENS_17__normal_iteratorIT_T0_E15difference_typeERKSE_SH_ = comdat any

$_ZNSt12_Vector_baseINSt7__cxx1112basic_stringIDsSt11char_traitsIDsESaIDsEEESaIS5_EE11_M_allocateEm = comdat any

$_ZNSt6vectorINSt7__cxx1112basic_stringIDsSt11char_traitsIDsESaIDsEEESaIS5_EE11_S_relocateEPS5_S8_S8_RS6_ = comdat any

$_ZNK9__gnu_cxx17__normal_iteratorIPNSt7__cxx1112basic_stringIDsSt11char_traitsIDsESaIDsEEESt6vectorIS6_SaIS6_EEE4baseEv = comdat any

$_ZNSt12_Vector_baseINSt7__cxx1112basic_stringIDsSt11char_traitsIDsESaIDsEEESaIS5_EE19_M_get_Tp_allocatorEv = comdat any

$_ZNSt12_Vector_baseINSt7__cxx1112basic_stringIDsSt11char_traitsIDsESaIDsEEESaIS5_EE13_M_deallocateEPS5_m = comdat any

$_ZNKSt6vectorINSt7__cxx1112basic_stringIDsSt11char_traitsIDsESaIDsEEESaIS5_EE8max_sizeEv = comdat any

$_ZNKSt6vectorINSt7__cxx1112basic_stringIDsSt11char_traitsIDsESaIDsEEESaIS5_EE4sizeEv = comdat any

$_ZSt3maxImERKT_S2_S2_ = comdat any

$_ZNSt6vectorINSt7__cxx1112basic_stringIDsSt11char_traitsIDsESaIDsEEESaIS5_EE11_S_max_sizeERKS6_ = comdat any

$_ZNKSt12_Vector_baseINSt7__cxx1112basic_stringIDsSt11char_traitsIDsESaIDsEEESaIS5_EE19_M_get_Tp_allocatorEv = comdat any

$_ZNSt16allocator_traitsISaINSt7__cxx1112basic_stringIDsSt11char_traitsIDsESaIDsEEEEE8max_sizeERKS6_ = comdat any

$_ZSt3minImERKT_S2_S2_ = comdat any

$_ZNKSt15__new_allocatorINSt7__cxx1112basic_stringIDsSt11char_traitsIDsESaIDsEEEE8max_sizeEv = comdat any

$_ZNKSt15__new_allocatorINSt7__cxx1112basic_stringIDsSt11char_traitsIDsESaIDsEEEE11_M_max_sizeEv = comdat any

$_ZNSt16allocator_traitsISaINSt7__cxx1112basic_stringIDsSt11char_traitsIDsESaIDsEEEEE8allocateERS6_m = comdat any

$_ZNSt15__new_allocatorINSt7__cxx1112basic_stringIDsSt11char_traitsIDsESaIDsEEEE8allocateEmPKv = comdat any

$_ZSt12__relocate_aIPNSt7__cxx1112basic_stringIDsSt11char_traitsIDsESaIDsEEES6_SaIS5_EET0_T_S9_S8_RT1_ = comdat any

$_ZSt14__relocate_a_1IPNSt7__cxx1112basic_stringIDsSt11char_traitsIDsESaIDsEEES6_SaIS5_EET0_T_S9_S8_RT1_ = comdat any

$_ZSt12__niter_baseIPNSt7__cxx1112basic_stringIDsSt11char_traitsIDsESaIDsEEEET_S7_ = comdat any

$_ZSt19__relocate_object_aINSt7__cxx1112basic_stringIDsSt11char_traitsIDsESaIDsEEES5_SaIS5_EEvPT_PT0_RT1_ = comdat any

$_ZNSt16allocator_traitsISaINSt7__cxx1112basic_stringIDsSt11char_traitsIDsESaIDsEEEEE9constructIS5_JS5_EEEvRS6_PT_DpOT0_ = comdat any

$_ZNSt16allocator_traitsISaINSt7__cxx1112basic_stringIDsSt11char_traitsIDsESaIDsEEEEE7destroyIS5_EEvRS6_PT_ = comdat any

$_ZNSt15__new_allocatorINSt7__cxx1112basic_stringIDsSt11char_traitsIDsESaIDsEEEE9constructIS5_JS5_EEEvPT_DpOT0_ = comdat any

$_ZNSt7__cxx1112basic_stringIDsSt11char_traitsIDsESaIDsEEC2EOS4_ = comdat any

$_ZNSt7__cxx1112basic_stringIDsSt11char_traitsIDsESaIDsEE12_Alloc_hiderC2EPDsOS3_ = comdat any

$_ZNSt15__new_allocatorINSt7__cxx1112basic_stringIDsSt11char_traitsIDsESaIDsEEEE7destroyIS5_EEvPT_ = comdat any

$_ZNSt16allocator_traitsISaINSt7__cxx1112basic_stringIDsSt11char_traitsIDsESaIDsEEEEE10deallocateERS6_PS5_m = comdat any

$_ZNSt15__new_allocatorINSt7__cxx1112basic_stringIDsSt11char_traitsIDsESaIDsEEEE10deallocateEPS5_m = comdat any

$_ZNK9__gnu_cxx17__normal_iteratorIPNSt7__cxx1112basic_stringIDsSt11char_traitsIDsESaIDsEEESt6vectorIS6_SaIS6_EEEmiEl = comdat any

$_ZN9__gnu_cxx17__normal_iteratorIPNSt7__cxx1112basic_stringIDsSt11char_traitsIDsESaIDsEEESt6vectorIS6_SaIS6_EEEC2ERKS7_ = comdat any

$_ZN9__gnu_cxx17__normal_iteratorIPKDsNSt7__cxx1112basic_stringIDsSt11char_traitsIDsESaIDsEEEEC2ERKS2_ = comdat any

$_ZN4llvh6all_ofIRKNSt7__cxx1112basic_stringIDsSt11char_traitsIDsESaIDsEEEPFbDsEEEbOT_T0_ = comdat any

$_ZSt6all_ofIN9__gnu_cxx17__normal_iteratorIPKDsNSt7__cxx1112basic_stringIDsSt11char_traitsIDsESaIDsEEEEEPFbDsEEbT_SD_T0_ = comdat any

$_ZN4llvh9adl_beginIRKNSt7__cxx1112basic_stringIDsSt11char_traitsIDsESaIDsEEEEEDTclsr10adl_detailE9adl_beginclsr3stdE7forwardIT_Efp_EEEOS9_ = comdat any

$_ZN4llvh7adl_endIRKNSt7__cxx1112basic_stringIDsSt11char_traitsIDsESaIDsEEEEEDTclsr10adl_detailE7adl_endclsr3stdE7forwardIT_Efp_EEEOS9_ = comdat any

$_ZSt11find_if_notIN9__gnu_cxx17__normal_iteratorIPKDsNSt7__cxx1112basic_stringIDsSt11char_traitsIDsESaIDsEEEEEPFbDsEET_SD_SD_T0_ = comdat any

$_ZSt13__find_if_notIN9__gnu_cxx17__normal_iteratorIPKDsNSt7__cxx1112basic_stringIDsSt11char_traitsIDsESaIDsEEEEENS0_5__ops10_Iter_predIPFbDsEEEET_SG_SG_T0_ = comdat any

$_ZN9__gnu_cxx5__ops11__pred_iterIPFbDsEEENS0_10_Iter_predIT_EES5_ = comdat any

$_ZSt9__find_ifIN9__gnu_cxx17__normal_iteratorIPKDsNSt7__cxx1112basic_stringIDsSt11char_traitsIDsESaIDsEEEEENS0_5__ops12_Iter_negateIPFbDsEEEET_SG_SG_T0_St26random_access_iterator_tag = comdat any

$_ZN9__gnu_cxx5__ops8__negateIPFbDsEEENS0_12_Iter_negateIT_EENS0_10_Iter_predIS5_EE = comdat any

$_ZN9__gnu_cxx5__ops12_Iter_negateIPFbDsEEclINS_17__normal_iteratorIPKDsNSt7__cxx1112basic_stringIDsSt11char_traitsIDsESaIDsEEEEEEEbT_ = comdat any

$_ZN9__gnu_cxx5__ops12_Iter_negateIPFbDsEEC2ES3_ = comdat any

$_ZN9__gnu_cxx5__ops10_Iter_predIPFbDsEEC2ES3_ = comdat any

$_ZN4llvh10adl_detail9adl_beginIRKNSt7__cxx1112basic_stringIDsSt11char_traitsIDsESaIDsEEEEEDTcl5beginclsr3stdE7forwardIT_Efp_EEEOSA_ = comdat any

$_ZSt5beginINSt7__cxx1112basic_stringIDsSt11char_traitsIDsESaIDsEEEEDTcldtfp_5beginEERKT_ = comdat any

$_ZN4llvh10adl_detail7adl_endIRKNSt7__cxx1112basic_stringIDsSt11char_traitsIDsESaIDsEEEEEDTcl3endclsr3stdE7forwardIT_Efp_EEEOSA_ = comdat any

$_ZSt3endINSt7__cxx1112basic_stringIDsSt11char_traitsIDsESaIDsEEEEDTcldtfp_3endEERKT_ = comdat any

$_ZN6hermes13platform_intl22ParsedLocaleIdentifier24ParsedLanguageIdentifierC2Ev = comdat any

$_ZNSt3setINSt7__cxx1112basic_stringIDsSt11char_traitsIDsESaIDsEEESt4lessIS5_ESaIS5_EEC2Ev = comdat any

$_ZNSt3mapINSt7__cxx1112basic_stringIDsSt11char_traitsIDsESaIDsEEES5_St4lessIS5_ESaISt4pairIKS5_S5_EEEC2Ev = comdat any

$_ZNSt3mapIDsNSt7__cxx1112basic_stringIDsSt11char_traitsIDsESaIDsEEESt4lessIDsESaISt4pairIKDsS5_EEEC2Ev = comdat any

$_ZNSt8_Rb_treeINSt7__cxx1112basic_stringIDsSt11char_traitsIDsESaIDsEEES5_St9_IdentityIS5_ESt4lessIS5_ESaIS5_EEC2Ev = comdat any

$_ZNSt8_Rb_treeINSt7__cxx1112basic_stringIDsSt11char_traitsIDsESaIDsEEES5_St9_IdentityIS5_ESt4lessIS5_ESaIS5_EE13_Rb_tree_implIS9_Lb1EEC2Ev = comdat any

$_ZNSaISt13_Rb_tree_nodeINSt7__cxx1112basic_stringIDsSt11char_traitsIDsESaIDsEEEEEC2Ev = comdat any

$_ZNSt20_Rb_tree_key_compareISt4lessINSt7__cxx1112basic_stringIDsSt11char_traitsIDsESaIDsEEEEEC2Ev = comdat any

$_ZNSt15_Rb_tree_headerC2Ev = comdat any

$_ZNSt15__new_allocatorISt13_Rb_tree_nodeINSt7__cxx1112basic_stringIDsSt11char_traitsIDsESaIDsEEEEEC2Ev = comdat any

$_ZNSt15_Rb_tree_header8_M_resetEv = comdat any

$_ZNSt8_Rb_treeINSt7__cxx1112basic_stringIDsSt11char_traitsIDsESaIDsEEESt4pairIKS5_S5_ESt10_Select1stIS8_ESt4lessIS5_ESaIS8_EEC2Ev = comdat any

$_ZNSt8_Rb_treeINSt7__cxx1112basic_stringIDsSt11char_traitsIDsESaIDsEEESt4pairIKS5_S5_ESt10_Select1stIS8_ESt4lessIS5_ESaIS8_EE13_Rb_tree_implISC_Lb1EEC2Ev = comdat any

$_ZNSaISt13_Rb_tree_nodeISt4pairIKNSt7__cxx1112basic_stringIDsSt11char_traitsIDsESaIDsEEES6_EEEC2Ev = comdat any

$_ZNSt15__new_allocatorISt13_Rb_tree_nodeISt4pairIKNSt7__cxx1112basic_stringIDsSt11char_traitsIDsESaIDsEEES7_EEEC2Ev = comdat any

$_ZNSt8_Rb_treeIDsSt4pairIKDsNSt7__cxx1112basic_stringIDsSt11char_traitsIDsESaIDsEEEESt10_Select1stIS8_ESt4lessIDsESaIS8_EEC2Ev = comdat any

$_ZNSt8_Rb_treeIDsSt4pairIKDsNSt7__cxx1112basic_stringIDsSt11char_traitsIDsESaIDsEEEESt10_Select1stIS8_ESt4lessIDsESaIS8_EE13_Rb_tree_implISC_Lb1EEC2Ev = comdat any

$_ZNSaISt13_Rb_tree_nodeISt4pairIKDsNSt7__cxx1112basic_stringIDsSt11char_traitsIDsESaIDsEEEEEEC2Ev = comdat any

$_ZNSt20_Rb_tree_key_compareISt4lessIDsEEC2Ev = comdat any

$_ZNSt15__new_allocatorISt13_Rb_tree_nodeISt4pairIKDsNSt7__cxx1112basic_stringIDsSt11char_traitsIDsESaIDsEEEEEEC2Ev = comdat any

$_ZNSt12_Vector_baseINSt7__cxx1112basic_stringIDsSt11char_traitsIDsESaIDsEEESaIS5_EEC2Ev = comdat any

$_ZNSt12_Vector_baseINSt7__cxx1112basic_stringIDsSt11char_traitsIDsESaIDsEEESaIS5_EE12_Vector_implC2Ev = comdat any

$_ZNSaINSt7__cxx1112basic_stringIDsSt11char_traitsIDsESaIDsEEEEC2Ev = comdat any

$_ZNSt15__new_allocatorINSt7__cxx1112basic_stringIDsSt11char_traitsIDsESaIDsEEEEC2Ev = comdat any

$_ZNSt14_Optional_baseIN6hermes13platform_intl22ParsedLocaleIdentifierELb0ELb0EEC2Ev = comdat any

$_ZNSt17_Optional_payloadIN6hermes13platform_intl22ParsedLocaleIdentifierELb0ELb0ELb0EEC2Ev = comdat any

$_ZNSt17_Optional_payloadIN6hermes13platform_intl22ParsedLocaleIdentifierELb1ELb0ELb0EEC2Ev = comdat any

$_ZNSt22_Optional_payload_baseIN6hermes13platform_intl22ParsedLocaleIdentifierEEC2Ev = comdat any

$_ZNSt22_Optional_payload_baseIN6hermes13platform_intl22ParsedLocaleIdentifierEE8_StorageIS2_Lb0EEC2Ev = comdat any

$_ZNSt14_Optional_baseIN6hermes13platform_intl22ParsedLocaleIdentifierELb0ELb0EEC2IJRS2_ETnNSt9enable_ifIX18is_constructible_vIS2_DpT_EEbE4typeELb0EEESt10in_place_tDpOS7_ = comdat any

$_ZNSt17_Optional_payloadIN6hermes13platform_intl22ParsedLocaleIdentifierELb0ELb0ELb0EECI2St22_Optional_payload_baseIS2_EIJRS2_EEESt10in_place_tDpOT_ = comdat any

$_ZNSt17_Optional_payloadIN6hermes13platform_intl22ParsedLocaleIdentifierELb1ELb0ELb0EECI2St22_Optional_payload_baseIS2_EIJRS2_EEESt10in_place_tDpOT_ = comdat any

$_ZNSt22_Optional_payload_baseIN6hermes13platform_intl22ParsedLocaleIdentifierEEC2IJRS2_EEESt10in_place_tDpOT_ = comdat any

$_ZNSt22_Optional_payload_baseIN6hermes13platform_intl22ParsedLocaleIdentifierEE8_StorageIS2_Lb0EEC2IJRS2_EEESt10in_place_tDpOT_ = comdat any

$_ZN6hermes13platform_intl22ParsedLocaleIdentifierC2ERKS1_ = comdat any

$_ZN6hermes13platform_intl22ParsedLocaleIdentifier24ParsedLanguageIdentifierC2ERKS2_ = comdat any

$_ZNSt3setINSt7__cxx1112basic_stringIDsSt11char_traitsIDsESaIDsEEESt4lessIS5_ESaIS5_EEC2ERKS9_ = comdat any

$_ZNSt3mapINSt7__cxx1112basic_stringIDsSt11char_traitsIDsESaIDsEEES5_St4lessIS5_ESaISt4pairIKS5_S5_EEEC2ERKSC_ = comdat any

$_ZNSt3mapIDsNSt7__cxx1112basic_stringIDsSt11char_traitsIDsESaIDsEEESt4lessIDsESaISt4pairIKDsS5_EEEC2ERKSC_ = comdat any

$_ZNSt7__cxx1112basic_stringIDsSt11char_traitsIDsESaIDsEEC2ERKS4_ = comdat any

$_ZNSt8_Rb_treeINSt7__cxx1112basic_stringIDsSt11char_traitsIDsESaIDsEEES5_St9_IdentityIS5_ESt4lessIS5_ESaIS5_EEC2ERKSB_ = comdat any

$_ZNSt8_Rb_treeINSt7__cxx1112basic_stringIDsSt11char_traitsIDsESaIDsEEES5_St9_IdentityIS5_ESt4lessIS5_ESaIS5_EE13_Rb_tree_implIS9_Lb1EEC2ERKSD_ = comdat any

$_ZNKSt8_Rb_treeINSt7__cxx1112basic_stringIDsSt11char_traitsIDsESaIDsEEES5_St9_IdentityIS5_ESt4lessIS5_ESaIS5_EE7_M_rootEv = comdat any

$_ZNSt8_Rb_treeINSt7__cxx1112basic_stringIDsSt11char_traitsIDsESaIDsEEES5_St9_IdentityIS5_ESt4lessIS5_ESaIS5_EE7_M_copyERKSB_ = comdat any

$_ZNSt8_Rb_treeINSt7__cxx1112basic_stringIDsSt11char_traitsIDsESaIDsEEES5_St9_IdentityIS5_ESt4lessIS5_ESaIS5_EE7_M_rootEv = comdat any

$_ZN9__gnu_cxx14__alloc_traitsISaISt13_Rb_tree_nodeINSt7__cxx1112basic_stringIDsSt11char_traitsIDsESaIDsEEEEES8_E17_S_select_on_copyERKS9_ = comdat any

$_ZNSaISt13_Rb_tree_nodeINSt7__cxx1112basic_stringIDsSt11char_traitsIDsESaIDsEEEEED2Ev = comdat any

$_ZNSt20_Rb_tree_key_compareISt4lessINSt7__cxx1112basic_stringIDsSt11char_traitsIDsESaIDsEEEEEC2ERKS7_ = comdat any

$_ZNSt16allocator_traitsISaISt13_Rb_tree_nodeINSt7__cxx1112basic_stringIDsSt11char_traitsIDsESaIDsEEEEEE37select_on_container_copy_constructionERKS8_ = comdat any

$_ZNSaISt13_Rb_tree_nodeINSt7__cxx1112basic_stringIDsSt11char_traitsIDsESaIDsEEEEEC2ERKS7_ = comdat any

$_ZNSt15__new_allocatorISt13_Rb_tree_nodeINSt7__cxx1112basic_stringIDsSt11char_traitsIDsESaIDsEEEEEC2ERKS8_ = comdat any

$_ZNSt15__new_allocatorISt13_Rb_tree_nodeINSt7__cxx1112basic_stringIDsSt11char_traitsIDsESaIDsEEEEED2Ev = comdat any

$_ZNSt8_Rb_treeINSt7__cxx1112basic_stringIDsSt11char_traitsIDsESaIDsEEES5_St9_IdentityIS5_ESt4lessIS5_ESaIS5_EE11_Alloc_nodeC2ERSB_ = comdat any

$_ZNSt8_Rb_treeINSt7__cxx1112basic_stringIDsSt11char_traitsIDsESaIDsEEES5_St9_IdentityIS5_ESt4lessIS5_ESaIS5_EE7_M_copyILb0ENSB_11_Alloc_nodeEEEPSt13_Rb_tree_nodeIS5_ERKSB_RT0_ = comdat any

$_ZNSt8_Rb_treeINSt7__cxx1112basic_stringIDsSt11char_traitsIDsESaIDsEEES5_St9_IdentityIS5_ESt4lessIS5_ESaIS5_EE7_M_copyILb0ENSB_11_Alloc_nodeEEEPSt13_Rb_tree_nodeIS5_ESG_PSt18_Rb_tree_node_baseRT0_ = comdat any

$_ZNKSt8_Rb_treeINSt7__cxx1112basic_stringIDsSt11char_traitsIDsESaIDsEEES5_St9_IdentityIS5_ESt4lessIS5_ESaIS5_EE9_M_mbeginEv = comdat any

$_ZNSt8_Rb_treeINSt7__cxx1112basic_stringIDsSt11char_traitsIDsESaIDsEEES5_St9_IdentityIS5_ESt4lessIS5_ESaIS5_EE6_M_endEv = comdat any

$_ZNSt8_Rb_treeINSt7__cxx1112basic_stringIDsSt11char_traitsIDsESaIDsEEES5_St9_IdentityIS5_ESt4lessIS5_ESaIS5_EE10_S_minimumEPSt18_Rb_tree_node_base = comdat any

$_ZNSt8_Rb_treeINSt7__cxx1112basic_stringIDsSt11char_traitsIDsESaIDsEEES5_St9_IdentityIS5_ESt4lessIS5_ESaIS5_EE11_M_leftmostEv = comdat any

$_ZNSt8_Rb_treeINSt7__cxx1112basic_stringIDsSt11char_traitsIDsESaIDsEEES5_St9_IdentityIS5_ESt4lessIS5_ESaIS5_EE10_S_maximumEPSt18_Rb_tree_node_base = comdat any

$_ZNSt8_Rb_treeINSt7__cxx1112basic_stringIDsSt11char_traitsIDsESaIDsEEES5_St9_IdentityIS5_ESt4lessIS5_ESaIS5_EE12_M_rightmostEv = comdat any

$_ZNSt8_Rb_treeINSt7__cxx1112basic_stringIDsSt11char_traitsIDsESaIDsEEES5_St9_IdentityIS5_ESt4lessIS5_ESaIS5_EE13_M_clone_nodeILb0ENSB_11_Alloc_nodeEEEPSt13_Rb_tree_nodeIS5_ESG_RT0_ = comdat any

$_ZNSt8_Rb_treeINSt7__cxx1112basic_stringIDsSt11char_traitsIDsESaIDsEEES5_St9_IdentityIS5_ESt4lessIS5_ESaIS5_EE8_S_rightEPSt18_Rb_tree_node_base = comdat any

$_ZNSt8_Rb_treeINSt7__cxx1112basic_stringIDsSt11char_traitsIDsESaIDsEEES5_St9_IdentityIS5_ESt4lessIS5_ESaIS5_EE7_S_leftEPSt18_Rb_tree_node_base = comdat any

$_ZNKSt8_Rb_treeINSt7__cxx1112basic_stringIDsSt11char_traitsIDsESaIDsEEES5_St9_IdentityIS5_ESt4lessIS5_ESaIS5_EE11_Alloc_nodeclIRKS5_EEPSt13_Rb_tree_nodeIS5_EOT_ = comdat any

$_ZNSt13_Rb_tree_nodeINSt7__cxx1112basic_stringIDsSt11char_traitsIDsESaIDsEEEE9_M_valptrEv = comdat any

$_ZNSt8_Rb_treeINSt7__cxx1112basic_stringIDsSt11char_traitsIDsESaIDsEEES5_St9_IdentityIS5_ESt4lessIS5_ESaIS5_EE14_M_create_nodeIJRKS5_EEEPSt13_Rb_tree_nodeIS5_EDpOT_ = comdat any

$_ZNSt8_Rb_treeINSt7__cxx1112basic_stringIDsSt11char_traitsIDsESaIDsEEES5_St9_IdentityIS5_ESt4lessIS5_ESaIS5_EE11_M_get_nodeEv = comdat any

$_ZNSt8_Rb_treeINSt7__cxx1112basic_stringIDsSt11char_traitsIDsESaIDsEEES5_St9_IdentityIS5_ESt4lessIS5_ESaIS5_EE17_M_construct_nodeIJRKS5_EEEvPSt13_Rb_tree_nodeIS5_EDpOT_ = comdat any

$_ZNSt16allocator_traitsISaISt13_Rb_tree_nodeINSt7__cxx1112basic_stringIDsSt11char_traitsIDsESaIDsEEEEEE8allocateERS8_m = comdat any

$_ZNSt8_Rb_treeINSt7__cxx1112basic_stringIDsSt11char_traitsIDsESaIDsEEES5_St9_IdentityIS5_ESt4lessIS5_ESaIS5_EE21_M_get_Node_allocatorEv = comdat any

$_ZNSt15__new_allocatorISt13_Rb_tree_nodeINSt7__cxx1112basic_stringIDsSt11char_traitsIDsESaIDsEEEEE8allocateEmPKv = comdat any

$_ZNKSt15__new_allocatorISt13_Rb_tree_nodeINSt7__cxx1112basic_stringIDsSt11char_traitsIDsESaIDsEEEEE11_M_max_sizeEv = comdat any

$_ZNSt16allocator_traitsISaISt13_Rb_tree_nodeINSt7__cxx1112basic_stringIDsSt11char_traitsIDsESaIDsEEEEEE9constructIS6_JRKS6_EEEvRS8_PT_DpOT0_ = comdat any

$_ZNSt15__new_allocatorISt13_Rb_tree_nodeINSt7__cxx1112basic_stringIDsSt11char_traitsIDsESaIDsEEEEE9constructIS6_JRKS6_EEEvPT_DpOT0_ = comdat any

$_ZN9__gnu_cxx16__aligned_membufINSt7__cxx1112basic_stringIDsSt11char_traitsIDsESaIDsEEEE6_M_ptrEv = comdat any

$_ZN9__gnu_cxx16__aligned_membufINSt7__cxx1112basic_stringIDsSt11char_traitsIDsESaIDsEEEE7_M_addrEv = comdat any

$_ZNSt18_Rb_tree_node_base10_S_minimumEPS_ = comdat any

$_ZNSt18_Rb_tree_node_base10_S_maximumEPS_ = comdat any

$_ZNSt8_Rb_treeINSt7__cxx1112basic_stringIDsSt11char_traitsIDsESaIDsEEESt4pairIKS5_S5_ESt10_Select1stIS8_ESt4lessIS5_ESaIS8_EEC2ERKSE_ = comdat any

$_ZNSt8_Rb_treeINSt7__cxx1112basic_stringIDsSt11char_traitsIDsESaIDsEEESt4pairIKS5_S5_ESt10_Select1stIS8_ESt4lessIS5_ESaIS8_EE13_Rb_tree_implISC_Lb1EEC2ERKSG_ = comdat any

$_ZNKSt8_Rb_treeINSt7__cxx1112basic_stringIDsSt11char_traitsIDsESaIDsEEESt4pairIKS5_S5_ESt10_Select1stIS8_ESt4lessIS5_ESaIS8_EE7_M_rootEv = comdat any

$_ZNSt8_Rb_treeINSt7__cxx1112basic_stringIDsSt11char_traitsIDsESaIDsEEESt4pairIKS5_S5_ESt10_Select1stIS8_ESt4lessIS5_ESaIS8_EE7_M_copyERKSE_ = comdat any

$_ZNSt8_Rb_treeINSt7__cxx1112basic_stringIDsSt11char_traitsIDsESaIDsEEESt4pairIKS5_S5_ESt10_Select1stIS8_ESt4lessIS5_ESaIS8_EE7_M_rootEv = comdat any

$_ZN9__gnu_cxx14__alloc_traitsISaISt13_Rb_tree_nodeISt4pairIKNSt7__cxx1112basic_stringIDsSt11char_traitsIDsESaIDsEEES8_EEESB_E17_S_select_on_copyERKSC_ = comdat any

$_ZNSaISt13_Rb_tree_nodeISt4pairIKNSt7__cxx1112basic_stringIDsSt11char_traitsIDsESaIDsEEES6_EEED2Ev = comdat any

$_ZNSt16allocator_traitsISaISt13_Rb_tree_nodeISt4pairIKNSt7__cxx1112basic_stringIDsSt11char_traitsIDsESaIDsEEES7_EEEE37select_on_container_copy_constructionERKSB_ = comdat any

$_ZNSaISt13_Rb_tree_nodeISt4pairIKNSt7__cxx1112basic_stringIDsSt11char_traitsIDsESaIDsEEES6_EEEC2ERKSA_ = comdat any

$_ZNSt15__new_allocatorISt13_Rb_tree_nodeISt4pairIKNSt7__cxx1112basic_stringIDsSt11char_traitsIDsESaIDsEEES7_EEEC2ERKSB_ = comdat any

$_ZNSt15__new_allocatorISt13_Rb_tree_nodeISt4pairIKNSt7__cxx1112basic_stringIDsSt11char_traitsIDsESaIDsEEES7_EEED2Ev = comdat any

$_ZNSt8_Rb_treeINSt7__cxx1112basic_stringIDsSt11char_traitsIDsESaIDsEEESt4pairIKS5_S5_ESt10_Select1stIS8_ESt4lessIS5_ESaIS8_EE11_Alloc_nodeC2ERSE_ = comdat any

$_ZNSt8_Rb_treeINSt7__cxx1112basic_stringIDsSt11char_traitsIDsESaIDsEEESt4pairIKS5_S5_ESt10_Select1stIS8_ESt4lessIS5_ESaIS8_EE7_M_copyILb0ENSE_11_Alloc_nodeEEEPSt13_Rb_tree_nodeIS8_ERKSE_RT0_ = comdat any

$_ZNSt8_Rb_treeINSt7__cxx1112basic_stringIDsSt11char_traitsIDsESaIDsEEESt4pairIKS5_S5_ESt10_Select1stIS8_ESt4lessIS5_ESaIS8_EE7_M_copyILb0ENSE_11_Alloc_nodeEEEPSt13_Rb_tree_nodeIS8_ESJ_PSt18_Rb_tree_node_baseRT0_ = comdat any

$_ZNKSt8_Rb_treeINSt7__cxx1112basic_stringIDsSt11char_traitsIDsESaIDsEEESt4pairIKS5_S5_ESt10_Select1stIS8_ESt4lessIS5_ESaIS8_EE9_M_mbeginEv = comdat any

$_ZNSt8_Rb_treeINSt7__cxx1112basic_stringIDsSt11char_traitsIDsESaIDsEEESt4pairIKS5_S5_ESt10_Select1stIS8_ESt4lessIS5_ESaIS8_EE6_M_endEv = comdat any

$_ZNSt8_Rb_treeINSt7__cxx1112basic_stringIDsSt11char_traitsIDsESaIDsEEESt4pairIKS5_S5_ESt10_Select1stIS8_ESt4lessIS5_ESaIS8_EE10_S_minimumEPSt18_Rb_tree_node_base = comdat any

$_ZNSt8_Rb_treeINSt7__cxx1112basic_stringIDsSt11char_traitsIDsESaIDsEEESt4pairIKS5_S5_ESt10_Select1stIS8_ESt4lessIS5_ESaIS8_EE11_M_leftmostEv = comdat any

$_ZNSt8_Rb_treeINSt7__cxx1112basic_stringIDsSt11char_traitsIDsESaIDsEEESt4pairIKS5_S5_ESt10_Select1stIS8_ESt4lessIS5_ESaIS8_EE10_S_maximumEPSt18_Rb_tree_node_base = comdat any

$_ZNSt8_Rb_treeINSt7__cxx1112basic_stringIDsSt11char_traitsIDsESaIDsEEESt4pairIKS5_S5_ESt10_Select1stIS8_ESt4lessIS5_ESaIS8_EE12_M_rightmostEv = comdat any

$_ZNSt8_Rb_treeINSt7__cxx1112basic_stringIDsSt11char_traitsIDsESaIDsEEESt4pairIKS5_S5_ESt10_Select1stIS8_ESt4lessIS5_ESaIS8_EE13_M_clone_nodeILb0ENSE_11_Alloc_nodeEEEPSt13_Rb_tree_nodeIS8_ESJ_RT0_ = comdat any

$_ZNSt8_Rb_treeINSt7__cxx1112basic_stringIDsSt11char_traitsIDsESaIDsEEESt4pairIKS5_S5_ESt10_Select1stIS8_ESt4lessIS5_ESaIS8_EE8_S_rightEPSt18_Rb_tree_node_base = comdat any

$_ZNSt8_Rb_treeINSt7__cxx1112basic_stringIDsSt11char_traitsIDsESaIDsEEESt4pairIKS5_S5_ESt10_Select1stIS8_ESt4lessIS5_ESaIS8_EE7_S_leftEPSt18_Rb_tree_node_base = comdat any

$_ZNKSt8_Rb_treeINSt7__cxx1112basic_stringIDsSt11char_traitsIDsESaIDsEEESt4pairIKS5_S5_ESt10_Select1stIS8_ESt4lessIS5_ESaIS8_EE11_Alloc_nodeclIRKS8_EEPSt13_Rb_tree_nodeIS8_EOT_ = comdat any

$_ZNSt13_Rb_tree_nodeISt4pairIKNSt7__cxx1112basic_stringIDsSt11char_traitsIDsESaIDsEEES6_EE9_M_valptrEv = comdat any

$_ZNSt8_Rb_treeINSt7__cxx1112basic_stringIDsSt11char_traitsIDsESaIDsEEESt4pairIKS5_S5_ESt10_Select1stIS8_ESt4lessIS5_ESaIS8_EE14_M_create_nodeIJRKS8_EEEPSt13_Rb_tree_nodeIS8_EDpOT_ = comdat any

$_ZNSt8_Rb_treeINSt7__cxx1112basic_stringIDsSt11char_traitsIDsESaIDsEEESt4pairIKS5_S5_ESt10_Select1stIS8_ESt4lessIS5_ESaIS8_EE11_M_get_nodeEv = comdat any

$_ZNSt8_Rb_treeINSt7__cxx1112basic_stringIDsSt11char_traitsIDsESaIDsEEESt4pairIKS5_S5_ESt10_Select1stIS8_ESt4lessIS5_ESaIS8_EE17_M_construct_nodeIJRKS8_EEEvPSt13_Rb_tree_nodeIS8_EDpOT_ = comdat any

$_ZNSt16allocator_traitsISaISt13_Rb_tree_nodeISt4pairIKNSt7__cxx1112basic_stringIDsSt11char_traitsIDsESaIDsEEES7_EEEE8allocateERSB_m = comdat any

$_ZNSt8_Rb_treeINSt7__cxx1112basic_stringIDsSt11char_traitsIDsESaIDsEEESt4pairIKS5_S5_ESt10_Select1stIS8_ESt4lessIS5_ESaIS8_EE21_M_get_Node_allocatorEv = comdat any

$_ZNSt15__new_allocatorISt13_Rb_tree_nodeISt4pairIKNSt7__cxx1112basic_stringIDsSt11char_traitsIDsESaIDsEEES7_EEE8allocateEmPKv = comdat any

$_ZNKSt15__new_allocatorISt13_Rb_tree_nodeISt4pairIKNSt7__cxx1112basic_stringIDsSt11char_traitsIDsESaIDsEEES7_EEE11_M_max_sizeEv = comdat any

$_ZNSt16allocator_traitsISaISt13_Rb_tree_nodeISt4pairIKNSt7__cxx1112basic_stringIDsSt11char_traitsIDsESaIDsEEES7_EEEE9constructIS9_JRKS9_EEEvRSB_PT_DpOT0_ = comdat any

$_ZNSt15__new_allocatorISt13_Rb_tree_nodeISt4pairIKNSt7__cxx1112basic_stringIDsSt11char_traitsIDsESaIDsEEES7_EEE9constructIS9_JRKS9_EEEvPT_DpOT0_ = comdat any

$_ZNSt4pairIKNSt7__cxx1112basic_stringIDsSt11char_traitsIDsESaIDsEEES5_EC2ERKS7_ = comdat any

$_ZN9__gnu_cxx16__aligned_membufISt4pairIKNSt7__cxx1112basic_stringIDsSt11char_traitsIDsESaIDsEEES7_EE6_M_ptrEv = comdat any

$_ZN9__gnu_cxx16__aligned_membufISt4pairIKNSt7__cxx1112basic_stringIDsSt11char_traitsIDsESaIDsEEES7_EE7_M_addrEv = comdat any

$_ZNSt8_Rb_treeIDsSt4pairIKDsNSt7__cxx1112basic_stringIDsSt11char_traitsIDsESaIDsEEEESt10_Select1stIS8_ESt4lessIDsESaIS8_EEC2ERKSE_ = comdat any

$_ZNSt8_Rb_treeIDsSt4pairIKDsNSt7__cxx1112basic_stringIDsSt11char_traitsIDsESaIDsEEEESt10_Select1stIS8_ESt4lessIDsESaIS8_EE13_Rb_tree_implISC_Lb1EEC2ERKSG_ = comdat any

$_ZNKSt8_Rb_treeIDsSt4pairIKDsNSt7__cxx1112basic_stringIDsSt11char_traitsIDsESaIDsEEEESt10_Select1stIS8_ESt4lessIDsESaIS8_EE7_M_rootEv = comdat any

$_ZNSt8_Rb_treeIDsSt4pairIKDsNSt7__cxx1112basic_stringIDsSt11char_traitsIDsESaIDsEEEESt10_Select1stIS8_ESt4lessIDsESaIS8_EE7_M_copyERKSE_ = comdat any

$_ZNSt8_Rb_treeIDsSt4pairIKDsNSt7__cxx1112basic_stringIDsSt11char_traitsIDsESaIDsEEEESt10_Select1stIS8_ESt4lessIDsESaIS8_EE7_M_rootEv = comdat any

$_ZN9__gnu_cxx14__alloc_traitsISaISt13_Rb_tree_nodeISt4pairIKDsNSt7__cxx1112basic_stringIDsSt11char_traitsIDsESaIDsEEEEEESB_E17_S_select_on_copyERKSC_ = comdat any

$_ZNSaISt13_Rb_tree_nodeISt4pairIKDsNSt7__cxx1112basic_stringIDsSt11char_traitsIDsESaIDsEEEEEED2Ev = comdat any

$_ZNSt20_Rb_tree_key_compareISt4lessIDsEEC2ERKS1_ = comdat any

$_ZNSt16allocator_traitsISaISt13_Rb_tree_nodeISt4pairIKDsNSt7__cxx1112basic_stringIDsSt11char_traitsIDsESaIDsEEEEEEE37select_on_container_copy_constructionERKSB_ = comdat any

$_ZNSaISt13_Rb_tree_nodeISt4pairIKDsNSt7__cxx1112basic_stringIDsSt11char_traitsIDsESaIDsEEEEEEC2ERKSA_ = comdat any

$_ZNSt15__new_allocatorISt13_Rb_tree_nodeISt4pairIKDsNSt7__cxx1112basic_stringIDsSt11char_traitsIDsESaIDsEEEEEEC2ERKSB_ = comdat any

$_ZNSt15__new_allocatorISt13_Rb_tree_nodeISt4pairIKDsNSt7__cxx1112basic_stringIDsSt11char_traitsIDsESaIDsEEEEEED2Ev = comdat any

$_ZNSt8_Rb_treeIDsSt4pairIKDsNSt7__cxx1112basic_stringIDsSt11char_traitsIDsESaIDsEEEESt10_Select1stIS8_ESt4lessIDsESaIS8_EE11_Alloc_nodeC2ERSE_ = comdat any

$_ZNSt8_Rb_treeIDsSt4pairIKDsNSt7__cxx1112basic_stringIDsSt11char_traitsIDsESaIDsEEEESt10_Select1stIS8_ESt4lessIDsESaIS8_EE7_M_copyILb0ENSE_11_Alloc_nodeEEEPSt13_Rb_tree_nodeIS8_ERKSE_RT0_ = comdat any

$_ZNSt8_Rb_treeIDsSt4pairIKDsNSt7__cxx1112basic_stringIDsSt11char_traitsIDsESaIDsEEEESt10_Select1stIS8_ESt4lessIDsESaIS8_EE7_M_copyILb0ENSE_11_Alloc_nodeEEEPSt13_Rb_tree_nodeIS8_ESJ_PSt18_Rb_tree_node_baseRT0_ = comdat any

$_ZNKSt8_Rb_treeIDsSt4pairIKDsNSt7__cxx1112basic_stringIDsSt11char_traitsIDsESaIDsEEEESt10_Select1stIS8_ESt4lessIDsESaIS8_EE9_M_mbeginEv = comdat any

$_ZNSt8_Rb_treeIDsSt4pairIKDsNSt7__cxx1112basic_stringIDsSt11char_traitsIDsESaIDsEEEESt10_Select1stIS8_ESt4lessIDsESaIS8_EE6_M_endEv = comdat any

$_ZNSt8_Rb_treeIDsSt4pairIKDsNSt7__cxx1112basic_stringIDsSt11char_traitsIDsESaIDsEEEESt10_Select1stIS8_ESt4lessIDsESaIS8_EE10_S_minimumEPSt18_Rb_tree_node_base = comdat any

$_ZNSt8_Rb_treeIDsSt4pairIKDsNSt7__cxx1112basic_stringIDsSt11char_traitsIDsESaIDsEEEESt10_Select1stIS8_ESt4lessIDsESaIS8_EE11_M_leftmostEv = comdat any

$_ZNSt8_Rb_treeIDsSt4pairIKDsNSt7__cxx1112basic_stringIDsSt11char_traitsIDsESaIDsEEEESt10_Select1stIS8_ESt4lessIDsESaIS8_EE10_S_maximumEPSt18_Rb_tree_node_base = comdat any

$_ZNSt8_Rb_treeIDsSt4pairIKDsNSt7__cxx1112basic_stringIDsSt11char_traitsIDsESaIDsEEEESt10_Select1stIS8_ESt4lessIDsESaIS8_EE12_M_rightmostEv = comdat any

$_ZNSt8_Rb_treeIDsSt4pairIKDsNSt7__cxx1112basic_stringIDsSt11char_traitsIDsESaIDsEEEESt10_Select1stIS8_ESt4lessIDsESaIS8_EE13_M_clone_nodeILb0ENSE_11_Alloc_nodeEEEPSt13_Rb_tree_nodeIS8_ESJ_RT0_ = comdat any

$_ZNSt8_Rb_treeIDsSt4pairIKDsNSt7__cxx1112basic_stringIDsSt11char_traitsIDsESaIDsEEEESt10_Select1stIS8_ESt4lessIDsESaIS8_EE8_S_rightEPSt18_Rb_tree_node_base = comdat any

$_ZNSt8_Rb_treeIDsSt4pairIKDsNSt7__cxx1112basic_stringIDsSt11char_traitsIDsESaIDsEEEESt10_Select1stIS8_ESt4lessIDsESaIS8_EE7_S_leftEPSt18_Rb_tree_node_base = comdat any

$_ZNKSt8_Rb_treeIDsSt4pairIKDsNSt7__cxx1112basic_stringIDsSt11char_traitsIDsESaIDsEEEESt10_Select1stIS8_ESt4lessIDsESaIS8_EE11_Alloc_nodeclIRKS8_EEPSt13_Rb_tree_nodeIS8_EOT_ = comdat any

$_ZNSt13_Rb_tree_nodeISt4pairIKDsNSt7__cxx1112basic_stringIDsSt11char_traitsIDsESaIDsEEEEE9_M_valptrEv = comdat any

$_ZNSt8_Rb_treeIDsSt4pairIKDsNSt7__cxx1112basic_stringIDsSt11char_traitsIDsESaIDsEEEESt10_Select1stIS8_ESt4lessIDsESaIS8_EE14_M_create_nodeIJRKS8_EEEPSt13_Rb_tree_nodeIS8_EDpOT_ = comdat any

$_ZNSt8_Rb_treeIDsSt4pairIKDsNSt7__cxx1112basic_stringIDsSt11char_traitsIDsESaIDsEEEESt10_Select1stIS8_ESt4lessIDsESaIS8_EE11_M_get_nodeEv = comdat any

$_ZNSt8_Rb_treeIDsSt4pairIKDsNSt7__cxx1112basic_stringIDsSt11char_traitsIDsESaIDsEEEESt10_Select1stIS8_ESt4lessIDsESaIS8_EE17_M_construct_nodeIJRKS8_EEEvPSt13_Rb_tree_nodeIS8_EDpOT_ = comdat any

$_ZNSt16allocator_traitsISaISt13_Rb_tree_nodeISt4pairIKDsNSt7__cxx1112basic_stringIDsSt11char_traitsIDsESaIDsEEEEEEE8allocateERSB_m = comdat any

$_ZNSt8_Rb_treeIDsSt4pairIKDsNSt7__cxx1112basic_stringIDsSt11char_traitsIDsESaIDsEEEESt10_Select1stIS8_ESt4lessIDsESaIS8_EE21_M_get_Node_allocatorEv = comdat any

$_ZNSt15__new_allocatorISt13_Rb_tree_nodeISt4pairIKDsNSt7__cxx1112basic_stringIDsSt11char_traitsIDsESaIDsEEEEEE8allocateEmPKv = comdat any

$_ZNKSt15__new_allocatorISt13_Rb_tree_nodeISt4pairIKDsNSt7__cxx1112basic_stringIDsSt11char_traitsIDsESaIDsEEEEEE11_M_max_sizeEv = comdat any

$_ZNSt16allocator_traitsISaISt13_Rb_tree_nodeISt4pairIKDsNSt7__cxx1112basic_stringIDsSt11char_traitsIDsESaIDsEEEEEEE9constructIS9_JRKS9_EEEvRSB_PT_DpOT0_ = comdat any

$_ZNSt15__new_allocatorISt13_Rb_tree_nodeISt4pairIKDsNSt7__cxx1112basic_stringIDsSt11char_traitsIDsESaIDsEEEEEE9constructIS9_JRKS9_EEEvPT_DpOT0_ = comdat any

$_ZNSt4pairIKDsNSt7__cxx1112basic_stringIDsSt11char_traitsIDsESaIDsEEEEC2ERKS7_ = comdat any

$_ZN9__gnu_cxx16__aligned_membufISt4pairIKDsNSt7__cxx1112basic_stringIDsSt11char_traitsIDsESaIDsEEEEE6_M_ptrEv = comdat any

$_ZN9__gnu_cxx16__aligned_membufISt4pairIKDsNSt7__cxx1112basic_stringIDsSt11char_traitsIDsESaIDsEEEEE7_M_addrEv = comdat any

$_ZN9__gnu_cxx14__alloc_traitsISaIDsEDsE17_S_select_on_copyERKS1_ = comdat any

$_ZNSt7__cxx1112basic_stringIDsSt11char_traitsIDsESaIDsEE12_M_constructIPDsEEvT_S7_St20forward_iterator_tag = comdat any

$_ZNSt16allocator_traitsISaIDsEE37select_on_container_copy_constructionERKS0_ = comdat any

$_ZNSaIDsEC2ERKS_ = comdat any

$_ZSt8distanceIPDsENSt15iterator_traitsIT_E15difference_typeES2_S2_ = comdat any

$_ZZNSt7__cxx1112basic_stringIDsSt11char_traitsIDsESaIDsEE12_M_constructIPDsEEvT_S7_St20forward_iterator_tagEN6_GuardC2EPS4_ = comdat any

$_ZNSt7__cxx1112basic_stringIDsSt11char_traitsIDsESaIDsEE13_S_copy_charsEPDsS5_S5_ = comdat any

$_ZZNSt7__cxx1112basic_stringIDsSt11char_traitsIDsESaIDsEE12_M_constructIPDsEEvT_S7_St20forward_iterator_tagEN6_GuardD2Ev = comdat any

$_ZSt10__distanceIPDsENSt15iterator_traitsIT_E15difference_typeES2_S2_St26random_access_iterator_tag = comdat any

$_ZSt19__iterator_categoryIPDsENSt15iterator_traitsIT_E17iterator_categoryERKS2_ = comdat any

$_ZNKSt7__cxx1112basic_stringIDsSt11char_traitsIDsESaIDsEE5frontEv = comdat any

$_ZNKSt7__cxx1112basic_stringIDsSt11char_traitsIDsESaIDsEE4backEv = comdat any

$_ZN6hermes13platform_intl22ParsedLocaleIdentifierD2Ev = comdat any

$_ZNSt3mapIDsNSt7__cxx1112basic_stringIDsSt11char_traitsIDsESaIDsEEESt4lessIDsESaISt4pairIKDsS5_EEED2Ev = comdat any

$_ZNSt3mapINSt7__cxx1112basic_stringIDsSt11char_traitsIDsESaIDsEEES5_St4lessIS5_ESaISt4pairIKS5_S5_EEED2Ev = comdat any

$_ZN6hermes13platform_intl22ParsedLocaleIdentifier24ParsedLanguageIdentifierD2Ev = comdat any

$_ZNSt3setINSt7__cxx1112basic_stringIDsSt11char_traitsIDsESaIDsEEESt4lessIS5_ESaIS5_EED2Ev = comdat any

$_ZNSt8_Rb_treeIDsSt4pairIKDsNSt7__cxx1112basic_stringIDsSt11char_traitsIDsESaIDsEEEESt10_Select1stIS8_ESt4lessIDsESaIS8_EED2Ev = comdat any

$_ZNSt8_Rb_treeIDsSt4pairIKDsNSt7__cxx1112basic_stringIDsSt11char_traitsIDsESaIDsEEEESt10_Select1stIS8_ESt4lessIDsESaIS8_EE8_M_eraseEPSt13_Rb_tree_nodeIS8_E = comdat any

$_ZNSt8_Rb_treeIDsSt4pairIKDsNSt7__cxx1112basic_stringIDsSt11char_traitsIDsESaIDsEEEESt10_Select1stIS8_ESt4lessIDsESaIS8_EE8_M_beginEv = comdat any

$_ZNSt8_Rb_treeIDsSt4pairIKDsNSt7__cxx1112basic_stringIDsSt11char_traitsIDsESaIDsEEEESt10_Select1stIS8_ESt4lessIDsESaIS8_EE13_Rb_tree_implISC_Lb1EED2Ev = comdat any

$_ZNSt8_Rb_treeIDsSt4pairIKDsNSt7__cxx1112basic_stringIDsSt11char_traitsIDsESaIDsEEEESt10_Select1stIS8_ESt4lessIDsESaIS8_EE12_M_drop_nodeEPSt13_Rb_tree_nodeIS8_E = comdat any

$_ZNSt8_Rb_treeIDsSt4pairIKDsNSt7__cxx1112basic_stringIDsSt11char_traitsIDsESaIDsEEEESt10_Select1stIS8_ESt4lessIDsESaIS8_EE15_M_destroy_nodeEPSt13_Rb_tree_nodeIS8_E = comdat any

$_ZNSt8_Rb_treeIDsSt4pairIKDsNSt7__cxx1112basic_stringIDsSt11char_traitsIDsESaIDsEEEESt10_Select1stIS8_ESt4lessIDsESaIS8_EE11_M_put_nodeEPSt13_Rb_tree_nodeIS8_E = comdat any

$_ZNSt16allocator_traitsISaISt13_Rb_tree_nodeISt4pairIKDsNSt7__cxx1112basic_stringIDsSt11char_traitsIDsESaIDsEEEEEEE7destroyIS9_EEvRSB_PT_ = comdat any

$_ZNSt15__new_allocatorISt13_Rb_tree_nodeISt4pairIKDsNSt7__cxx1112basic_stringIDsSt11char_traitsIDsESaIDsEEEEEE7destroyIS9_EEvPT_ = comdat any

$_ZNSt16allocator_traitsISaISt13_Rb_tree_nodeISt4pairIKDsNSt7__cxx1112basic_stringIDsSt11char_traitsIDsESaIDsEEEEEEE10deallocateERSB_PSA_m = comdat any

$_ZNSt15__new_allocatorISt13_Rb_tree_nodeISt4pairIKDsNSt7__cxx1112basic_stringIDsSt11char_traitsIDsESaIDsEEEEEE10deallocateEPSA_m = comdat any

$_ZNSt8_Rb_treeINSt7__cxx1112basic_stringIDsSt11char_traitsIDsESaIDsEEESt4pairIKS5_S5_ESt10_Select1stIS8_ESt4lessIS5_ESaIS8_EED2Ev = comdat any

$_ZNSt8_Rb_treeINSt7__cxx1112basic_stringIDsSt11char_traitsIDsESaIDsEEESt4pairIKS5_S5_ESt10_Select1stIS8_ESt4lessIS5_ESaIS8_EE8_M_eraseEPSt13_Rb_tree_nodeIS8_E = comdat any

$_ZNSt8_Rb_treeINSt7__cxx1112basic_stringIDsSt11char_traitsIDsESaIDsEEESt4pairIKS5_S5_ESt10_Select1stIS8_ESt4lessIS5_ESaIS8_EE8_M_beginEv = comdat any

$_ZNSt8_Rb_treeINSt7__cxx1112basic_stringIDsSt11char_traitsIDsESaIDsEEESt4pairIKS5_S5_ESt10_Select1stIS8_ESt4lessIS5_ESaIS8_EE13_Rb_tree_implISC_Lb1EED2Ev = comdat any

$_ZNSt8_Rb_treeINSt7__cxx1112basic_stringIDsSt11char_traitsIDsESaIDsEEESt4pairIKS5_S5_ESt10_Select1stIS8_ESt4lessIS5_ESaIS8_EE12_M_drop_nodeEPSt13_Rb_tree_nodeIS8_E = comdat any

$_ZNSt8_Rb_treeINSt7__cxx1112basic_stringIDsSt11char_traitsIDsESaIDsEEESt4pairIKS5_S5_ESt10_Select1stIS8_ESt4lessIS5_ESaIS8_EE15_M_destroy_nodeEPSt13_Rb_tree_nodeIS8_E = comdat any

$_ZNSt8_Rb_treeINSt7__cxx1112basic_stringIDsSt11char_traitsIDsESaIDsEEESt4pairIKS5_S5_ESt10_Select1stIS8_ESt4lessIS5_ESaIS8_EE11_M_put_nodeEPSt13_Rb_tree_nodeIS8_E = comdat any

$_ZNSt16allocator_traitsISaISt13_Rb_tree_nodeISt4pairIKNSt7__cxx1112basic_stringIDsSt11char_traitsIDsESaIDsEEES7_EEEE7destroyIS9_EEvRSB_PT_ = comdat any

$_ZNSt15__new_allocatorISt13_Rb_tree_nodeISt4pairIKNSt7__cxx1112basic_stringIDsSt11char_traitsIDsESaIDsEEES7_EEE7destroyIS9_EEvPT_ = comdat any

$_ZNSt16allocator_traitsISaISt13_Rb_tree_nodeISt4pairIKNSt7__cxx1112basic_stringIDsSt11char_traitsIDsESaIDsEEES7_EEEE10deallocateERSB_PSA_m = comdat any

$_ZNSt15__new_allocatorISt13_Rb_tree_nodeISt4pairIKNSt7__cxx1112basic_stringIDsSt11char_traitsIDsESaIDsEEES7_EEE10deallocateEPSA_m = comdat any

$_ZNSt8_Rb_treeINSt7__cxx1112basic_stringIDsSt11char_traitsIDsESaIDsEEES5_St9_IdentityIS5_ESt4lessIS5_ESaIS5_EED2Ev = comdat any

$_ZNSt8_Rb_treeINSt7__cxx1112basic_stringIDsSt11char_traitsIDsESaIDsEEES5_St9_IdentityIS5_ESt4lessIS5_ESaIS5_EE8_M_eraseEPSt13_Rb_tree_nodeIS5_E = comdat any

$_ZNSt8_Rb_treeINSt7__cxx1112basic_stringIDsSt11char_traitsIDsESaIDsEEES5_St9_IdentityIS5_ESt4lessIS5_ESaIS5_EE8_M_beginEv = comdat any

$_ZNSt8_Rb_treeINSt7__cxx1112basic_stringIDsSt11char_traitsIDsESaIDsEEES5_St9_IdentityIS5_ESt4lessIS5_ESaIS5_EE13_Rb_tree_implIS9_Lb1EED2Ev = comdat any

$_ZNSt8_Rb_treeINSt7__cxx1112basic_stringIDsSt11char_traitsIDsESaIDsEEES5_St9_IdentityIS5_ESt4lessIS5_ESaIS5_EE12_M_drop_nodeEPSt13_Rb_tree_nodeIS5_E = comdat any

$_ZNSt8_Rb_treeINSt7__cxx1112basic_stringIDsSt11char_traitsIDsESaIDsEEES5_St9_IdentityIS5_ESt4lessIS5_ESaIS5_EE15_M_destroy_nodeEPSt13_Rb_tree_nodeIS5_E = comdat any

$_ZNSt8_Rb_treeINSt7__cxx1112basic_stringIDsSt11char_traitsIDsESaIDsEEES5_St9_IdentityIS5_ESt4lessIS5_ESaIS5_EE11_M_put_nodeEPSt13_Rb_tree_nodeIS5_E = comdat any

$_ZNSt16allocator_traitsISaISt13_Rb_tree_nodeINSt7__cxx1112basic_stringIDsSt11char_traitsIDsESaIDsEEEEEE7destroyIS6_EEvRS8_PT_ = comdat any

$_ZNSt15__new_allocatorISt13_Rb_tree_nodeINSt7__cxx1112basic_stringIDsSt11char_traitsIDsESaIDsEEEEE7destroyIS6_EEvPT_ = comdat any

$_ZNSt16allocator_traitsISaISt13_Rb_tree_nodeINSt7__cxx1112basic_stringIDsSt11char_traitsIDsESaIDsEEEEEE10deallocateERS8_PS7_m = comdat any

$_ZNSt15__new_allocatorISt13_Rb_tree_nodeINSt7__cxx1112basic_stringIDsSt11char_traitsIDsESaIDsEEEEE10deallocateEPS7_m = comdat any

$_ZNSt7__cxx1112basic_stringIDsSt11char_traitsIDsESaIDsEE12_Alloc_hiderD2Ev = comdat any

$_ZSt8_DestroyIPNSt7__cxx1112basic_stringIDsSt11char_traitsIDsESaIDsEEES5_EvT_S7_RSaIT0_E = comdat any

$_ZNSt12_Vector_baseINSt7__cxx1112basic_stringIDsSt11char_traitsIDsESaIDsEEESaIS5_EED2Ev = comdat any

$_ZSt8_DestroyIPNSt7__cxx1112basic_stringIDsSt11char_traitsIDsESaIDsEEEEvT_S7_ = comdat any

$_ZNSt12_Destroy_auxILb0EE9__destroyIPNSt7__cxx1112basic_stringIDsSt11char_traitsIDsESaIDsEEEEEvT_S9_ = comdat any

$_ZSt8_DestroyINSt7__cxx1112basic_stringIDsSt11char_traitsIDsESaIDsEEEEvPT_ = comdat any

$_ZNSt12_Vector_baseINSt7__cxx1112basic_stringIDsSt11char_traitsIDsESaIDsEEESaIS5_EE12_Vector_implD2Ev = comdat any

$_ZNSt15__new_allocatorINSt7__cxx1112basic_stringIDsSt11char_traitsIDsESaIDsEEEED2Ev = comdat any

$_ZSt6all_ofIN9__gnu_cxx17__normal_iteratorIPNSt7__cxx1112basic_stringIDsSt11char_traitsIDsESaIDsEEESt6vectorIS7_SaIS7_EEEEPFbRKS7_EEbT_SH_T0_ = comdat any

$_ZN4llvh9adl_beginIRSt6vectorINSt7__cxx1112basic_stringIDsSt11char_traitsIDsESaIDsEEESaIS7_EEEEDTclsr10adl_detailE9adl_beginclsr3stdE7forwardIT_Efp_EEEOSB_ = comdat any

$_ZN4llvh7adl_endIRSt6vectorINSt7__cxx1112basic_stringIDsSt11char_traitsIDsESaIDsEEESaIS7_EEEEDTclsr10adl_detailE7adl_endclsr3stdE7forwardIT_Efp_EEEOSB_ = comdat any

$_ZN9__gnu_cxxeqIPNSt7__cxx1112basic_stringIDsSt11char_traitsIDsESaIDsEEESt6vectorIS6_SaIS6_EEEEbRKNS_17__normal_iteratorIT_T0_EESG_ = comdat any

$_ZSt11find_if_notIN9__gnu_cxx17__normal_iteratorIPNSt7__cxx1112basic_stringIDsSt11char_traitsIDsESaIDsEEESt6vectorIS7_SaIS7_EEEEPFbRKS7_EET_SH_SH_T0_ = comdat any

$_ZSt13__find_if_notIN9__gnu_cxx17__normal_iteratorIPNSt7__cxx1112basic_stringIDsSt11char_traitsIDsESaIDsEEESt6vectorIS7_SaIS7_EEEENS0_5__ops10_Iter_predIPFbRKS7_EEEET_SK_SK_T0_ = comdat any

$_ZN9__gnu_cxx5__ops11__pred_iterIPFbRKNSt7__cxx1112basic_stringIDsSt11char_traitsIDsESaIDsEEEEEENS0_10_Iter_predIT_EESD_ = comdat any

$_ZSt9__find_ifIN9__gnu_cxx17__normal_iteratorIPNSt7__cxx1112basic_stringIDsSt11char_traitsIDsESaIDsEEESt6vectorIS7_SaIS7_EEEENS0_5__ops12_Iter_negateIPFbRKS7_EEEET_SK_SK_T0_St26random_access_iterator_tag = comdat any

$_ZN9__gnu_cxx5__ops8__negateIPFbRKNSt7__cxx1112basic_stringIDsSt11char_traitsIDsESaIDsEEEEEENS0_12_Iter_negateIT_EENS0_10_Iter_predISD_EE = comdat any

$_ZSt19__iterator_categoryIN9__gnu_cxx17__normal_iteratorIPNSt7__cxx1112basic_stringIDsSt11char_traitsIDsESaIDsEEESt6vectorIS7_SaIS7_EEEEENSt15iterator_traitsIT_E17iterator_categoryERKSE_ = comdat any

$_ZN9__gnu_cxx5__ops12_Iter_negateIPFbRKNSt7__cxx1112basic_stringIDsSt11char_traitsIDsESaIDsEEEEEclINS_17__normal_iteratorIPS7_St6vectorIS7_SaIS7_EEEEEEbT_ = comdat any

$_ZN9__gnu_cxx5__ops12_Iter_negateIPFbRKNSt7__cxx1112basic_stringIDsSt11char_traitsIDsESaIDsEEEEEC2ESB_ = comdat any

$_ZN9__gnu_cxx5__ops10_Iter_predIPFbRKNSt7__cxx1112basic_stringIDsSt11char_traitsIDsESaIDsEEEEEC2ESB_ = comdat any

$_ZN4llvh10adl_detail9adl_beginIRSt6vectorINSt7__cxx1112basic_stringIDsSt11char_traitsIDsESaIDsEEESaIS8_EEEEDTcl5beginclsr3stdE7forwardIT_Efp_EEEOSC_ = comdat any

$_ZSt5beginISt6vectorINSt7__cxx1112basic_stringIDsSt11char_traitsIDsESaIDsEEESaIS6_EEEDTcldtfp_5beginEERT_ = comdat any

$_ZN4llvh10adl_detail7adl_endIRSt6vectorINSt7__cxx1112basic_stringIDsSt11char_traitsIDsESaIDsEEESaIS8_EEEEDTcl3endclsr3stdE7forwardIT_Efp_EEEOSC_ = comdat any

$_ZSt3endISt6vectorINSt7__cxx1112basic_stringIDsSt11char_traitsIDsESaIDsEEESaIS6_EEEDTcldtfp_3endEERT_ = comdat any

$_ZNSt6vectorINSt7__cxx1112basic_stringIDsSt11char_traitsIDsESaIDsEEESaIS5_EE14_M_move_assignEOS7_St17integral_constantIbLb1EE = comdat any

$_ZNKSt12_Vector_baseINSt7__cxx1112basic_stringIDsSt11char_traitsIDsESaIDsEEESaIS5_EE13get_allocatorEv = comdat any

$_ZNSt6vectorINSt7__cxx1112basic_stringIDsSt11char_traitsIDsESaIDsEEESaIS5_EEC2ERKS6_ = comdat any

$_ZNSaINSt7__cxx1112basic_stringIDsSt11char_traitsIDsESaIDsEEEED2Ev = comdat any

$_ZNSt12_Vector_baseINSt7__cxx1112basic_stringIDsSt11char_traitsIDsESaIDsEEESaIS5_EE17_Vector_impl_data12_M_swap_dataERS8_ = comdat any

$_ZSt15__alloc_on_moveISaINSt7__cxx1112basic_stringIDsSt11char_traitsIDsESaIDsEEEEEvRT_S8_ = comdat any

$_ZNSaINSt7__cxx1112basic_stringIDsSt11char_traitsIDsESaIDsEEEEC2ERKS5_ = comdat any

$_ZNSt15__new_allocatorINSt7__cxx1112basic_stringIDsSt11char_traitsIDsESaIDsEEEEC2ERKS6_ = comdat any

$_ZNSt12_Vector_baseINSt7__cxx1112basic_stringIDsSt11char_traitsIDsESaIDsEEESaIS5_EEC2ERKS6_ = comdat any

$_ZNSt12_Vector_baseINSt7__cxx1112basic_stringIDsSt11char_traitsIDsESaIDsEEESaIS5_EE12_Vector_implC2ERKS6_ = comdat any

$_ZNSt12_Vector_baseINSt7__cxx1112basic_stringIDsSt11char_traitsIDsESaIDsEEESaIS5_EE17_Vector_impl_dataC2Ev = comdat any

$_ZNSt12_Vector_baseINSt7__cxx1112basic_stringIDsSt11char_traitsIDsESaIDsEEESaIS5_EE17_Vector_impl_data12_M_copy_dataERKS8_ = comdat any

$_ZSt9__reverseIN9__gnu_cxx17__normal_iteratorIPNSt7__cxx1112basic_stringIDsSt11char_traitsIDsESaIDsEEESt6vectorIS7_SaIS7_EEEEEvT_SD_St26random_access_iterator_tag = comdat any

$_ZN9__gnu_cxx17__normal_iteratorIPNSt7__cxx1112basic_stringIDsSt11char_traitsIDsESaIDsEEESt6vectorIS6_SaIS6_EEEmmEv = comdat any

$_ZN9__gnu_cxxltIPNSt7__cxx1112basic_stringIDsSt11char_traitsIDsESaIDsEEESt6vectorIS6_SaIS6_EEEEbRKNS_17__normal_iteratorIT_T0_EESG_ = comdat any

$_ZSt9iter_swapIN9__gnu_cxx17__normal_iteratorIPNSt7__cxx1112basic_stringIDsSt11char_traitsIDsESaIDsEEESt6vectorIS7_SaIS7_EEEESC_EvT_T0_ = comdat any

$_ZSt4swapIDsSt11char_traitsIDsESaIDsEEvRNSt7__cxx1112basic_stringIT_T0_T1_EES9_ = comdat any

$_ZNSt7__cxx1112basic_stringIDsSt11char_traitsIDsESaIDsEE4swapERS4_ = comdat any

$_ZN9__gnu_cxx14__alloc_traitsISaIDsEDsE10_S_on_swapERS1_S3_ = comdat any

$_ZSt15__alloc_on_swapISaIDsEEvRT_S2_ = comdat any

$_ZN9__gnu_cxx17__normal_iteratorIPDsNSt7__cxx1112basic_stringIDsSt11char_traitsIDsESaIDsEEEEC2ERKS1_ = comdat any

$_ZNK9__gnu_cxx17__normal_iteratorIPDsNSt7__cxx1112basic_stringIDsSt11char_traitsIDsESaIDsEEEE4baseEv = comdat any

$_ZNSt7__cxx1112basic_stringIDsSt11char_traitsIDsESaIDsEE6assignERKS4_ = comdat any

$_ZNSt7__cxx1112basic_stringIDsSt11char_traitsIDsESaIDsEE9_M_assignERKS4_ = comdat any

$_ZNKSt7__cxx1112basic_stringIDsSt11char_traitsIDsESaIDsEE8capacityEv = comdat any

$_ZNSt8_Rb_treeINSt7__cxx1112basic_stringIDsSt11char_traitsIDsESaIDsEEES5_St9_IdentityIS5_ESt4lessIS5_ESaIS5_EE16_M_insert_uniqueIRKS5_EESt4pairISt17_Rb_tree_iteratorIS5_EbEOT_ = comdat any

$_ZNSt4pairISt23_Rb_tree_const_iteratorINSt7__cxx1112basic_stringIDsSt11char_traitsIDsESaIDsEEEEbEC2IRSt17_Rb_tree_iteratorIS6_ERbTnNSt9enable_ifIXaaclsr5_PCCPE22_MoveConstructiblePairIT_T0_EEclsr5_PCCPE30_ImplicitlyMoveConvertiblePairISF_SG_EEEbE4typeELb1EEEOSF_OSG_ = comdat any

$_ZNSt8_Rb_treeINSt7__cxx1112basic_stringIDsSt11char_traitsIDsESaIDsEEES5_St9_IdentityIS5_ESt4lessIS5_ESaIS5_EE24_M_get_insert_unique_posERKS5_ = comdat any

$_ZNKSt9_IdentityINSt7__cxx1112basic_stringIDsSt11char_traitsIDsESaIDsEEEEclERKS5_ = comdat any

$_ZNSt8_Rb_treeINSt7__cxx1112basic_stringIDsSt11char_traitsIDsESaIDsEEES5_St9_IdentityIS5_ESt4lessIS5_ESaIS5_EE10_M_insert_IRKS5_NSB_11_Alloc_nodeEEESt17_Rb_tree_iteratorIS5_EPSt18_Rb_tree_node_baseSJ_OT_RT0_ = comdat any

$_ZNSt4pairISt17_Rb_tree_iteratorINSt7__cxx1112basic_stringIDsSt11char_traitsIDsESaIDsEEEEbEC2IS7_bTnNSt9enable_ifIXaaclsr5_PCCPE22_MoveConstructiblePairIT_T0_EEclsr5_PCCPE30_ImplicitlyMoveConvertiblePairISB_SC_EEEbE4typeELb1EEEOSB_OSC_ = comdat any

$_ZNSt17_Rb_tree_iteratorINSt7__cxx1112basic_stringIDsSt11char_traitsIDsESaIDsEEEEC2EPSt18_Rb_tree_node_base = comdat any

$_ZNKSt4lessINSt7__cxx1112basic_stringIDsSt11char_traitsIDsESaIDsEEEEclERKS5_S8_ = comdat any

$_ZNSt8_Rb_treeINSt7__cxx1112basic_stringIDsSt11char_traitsIDsESaIDsEEES5_St9_IdentityIS5_ESt4lessIS5_ESaIS5_EE6_S_keyEPKSt13_Rb_tree_nodeIS5_E = comdat any

$_ZSteqRKSt17_Rb_tree_iteratorINSt7__cxx1112basic_stringIDsSt11char_traitsIDsESaIDsEEEES8_ = comdat any

$_ZNSt8_Rb_treeINSt7__cxx1112basic_stringIDsSt11char_traitsIDsESaIDsEEES5_St9_IdentityIS5_ESt4lessIS5_ESaIS5_EE5beginEv = comdat any

$_ZNSt4pairIPSt18_Rb_tree_node_baseS1_EC2IRPSt13_Rb_tree_nodeINSt7__cxx1112basic_stringIDsSt11char_traitsIDsESaIDsEEEERS1_TnNSt9enable_ifIXaaclsr5_PCCPE22_MoveConstructiblePairIT_T0_EEclsr5_PCCPE30_ImplicitlyMoveConvertiblePairISG_SH_EEEbE4typeELb1EEEOSG_OSH_ = comdat any

$_ZNSt17_Rb_tree_iteratorINSt7__cxx1112basic_stringIDsSt11char_traitsIDsESaIDsEEEEmmEv = comdat any

$_ZNSt8_Rb_treeINSt7__cxx1112basic_stringIDsSt11char_traitsIDsESaIDsEEES5_St9_IdentityIS5_ESt4lessIS5_ESaIS5_EE6_S_keyEPKSt18_Rb_tree_node_base = comdat any

$_ZNSt4pairIPSt18_Rb_tree_node_baseS1_EC2IS1_S1_TnNSt9enable_ifIXaaclsr5_PCCPE18_ConstructiblePairIT_T0_EEclsr5_PCCPE26_ImplicitlyConvertiblePairIS5_S6_EEEbE4typeELb1EEERKS1_SA_ = comdat any

$_ZStltIDsSt11char_traitsIDsESaIDsEEbRKNSt7__cxx1112basic_stringIT_T0_T1_EESA_ = comdat any

$_ZNKSt7__cxx1112basic_stringIDsSt11char_traitsIDsESaIDsEE7compareERKS4_ = comdat any

$_ZNSt11char_traitsIDsE7compareEPKDsS2_m = comdat any

$_ZNKSt7__cxx1112basic_stringIDsSt11char_traitsIDsESaIDsEE4dataEv = comdat any

$_ZNSt7__cxx1112basic_stringIDsSt11char_traitsIDsESaIDsEE10_S_compareEmm = comdat any

$_ZNSt11char_traitsIDsE2ltERKDsS2_ = comdat any

$_ZNKSt13_Rb_tree_nodeINSt7__cxx1112basic_stringIDsSt11char_traitsIDsESaIDsEEEE9_M_valptrEv = comdat any

$_ZNK9__gnu_cxx16__aligned_membufINSt7__cxx1112basic_stringIDsSt11char_traitsIDsESaIDsEEEE6_M_ptrEv = comdat any

$_ZNK9__gnu_cxx16__aligned_membufINSt7__cxx1112basic_stringIDsSt11char_traitsIDsESaIDsEEEE7_M_addrEv = comdat any

$_ZNSt23_Rb_tree_const_iteratorINSt7__cxx1112basic_stringIDsSt11char_traitsIDsESaIDsEEEEC2ERKSt17_Rb_tree_iteratorIS5_E = comdat any

$_ZNKSt8_Rb_treeINSt7__cxx1112basic_stringIDsSt11char_traitsIDsESaIDsEEES5_St9_IdentityIS5_ESt4lessIS5_ESaIS5_EE5emptyEv = comdat any

$_ZNKSt8_Rb_treeINSt7__cxx1112basic_stringIDsSt11char_traitsIDsESaIDsEEESt4pairIKS5_S5_ESt10_Select1stIS8_ESt4lessIS5_ESaIS8_EE5emptyEv = comdat any

$_ZNSt8_Rb_treeINSt7__cxx1112basic_stringIDsSt11char_traitsIDsESaIDsEEESt4pairIKS5_S5_ESt10_Select1stIS8_ESt4lessIS5_ESaIS8_EE16_M_insert_uniqueIS8_EES6_ISt17_Rb_tree_iteratorIS8_EbEOT_ = comdat any

$_ZNSt8_Rb_treeINSt7__cxx1112basic_stringIDsSt11char_traitsIDsESaIDsEEESt4pairIKS5_S5_ESt10_Select1stIS8_ESt4lessIS5_ESaIS8_EE24_M_get_insert_unique_posERS7_ = comdat any

$_ZNKSt10_Select1stISt4pairIKNSt7__cxx1112basic_stringIDsSt11char_traitsIDsESaIDsEEES6_EEclERS8_ = comdat any

$_ZNSt8_Rb_treeINSt7__cxx1112basic_stringIDsSt11char_traitsIDsESaIDsEEESt4pairIKS5_S5_ESt10_Select1stIS8_ESt4lessIS5_ESaIS8_EE10_M_insert_IS8_NSE_11_Alloc_nodeEEESt17_Rb_tree_iteratorIS8_EPSt18_Rb_tree_node_baseSK_OT_RT0_ = comdat any

$_ZNSt4pairISt17_Rb_tree_iteratorIS_IKNSt7__cxx1112basic_stringIDsSt11char_traitsIDsESaIDsEEES6_EEbEC2IS9_bTnNSt9enable_ifIXaaclsr5_PCCPE22_MoveConstructiblePairIT_T0_EEclsr5_PCCPE30_ImplicitlyMoveConvertiblePairISD_SE_EEEbE4typeELb1EEEOSD_OSE_ = comdat any

$_ZNSt17_Rb_tree_iteratorISt4pairIKNSt7__cxx1112basic_stringIDsSt11char_traitsIDsESaIDsEEES6_EEC2EPSt18_Rb_tree_node_base = comdat any

$_ZNSt8_Rb_treeINSt7__cxx1112basic_stringIDsSt11char_traitsIDsESaIDsEEESt4pairIKS5_S5_ESt10_Select1stIS8_ESt4lessIS5_ESaIS8_EE6_S_keyEPKSt13_Rb_tree_nodeIS8_E = comdat any

$_ZSteqRKSt17_Rb_tree_iteratorISt4pairIKNSt7__cxx1112basic_stringIDsSt11char_traitsIDsESaIDsEEES6_EESB_ = comdat any

$_ZNSt8_Rb_treeINSt7__cxx1112basic_stringIDsSt11char_traitsIDsESaIDsEEESt4pairIKS5_S5_ESt10_Select1stIS8_ESt4lessIS5_ESaIS8_EE5beginEv = comdat any

$_ZNSt4pairIPSt18_Rb_tree_node_baseS1_EC2IRPSt13_Rb_tree_nodeIS_IKNSt7__cxx1112basic_stringIDsSt11char_traitsIDsESaIDsEEESA_EERS1_TnNSt9enable_ifIXaaclsr5_PCCPE22_MoveConstructiblePairIT_T0_EEclsr5_PCCPE30_ImplicitlyMoveConvertiblePairISI_SJ_EEEbE4typeELb1EEEOSI_OSJ_ = comdat any

$_ZNSt17_Rb_tree_iteratorISt4pairIKNSt7__cxx1112basic_stringIDsSt11char_traitsIDsESaIDsEEES6_EEmmEv = comdat any

$_ZNSt8_Rb_treeINSt7__cxx1112basic_stringIDsSt11char_traitsIDsESaIDsEEESt4pairIKS5_S5_ESt10_Select1stIS8_ESt4lessIS5_ESaIS8_EE6_S_keyEPKSt18_Rb_tree_node_base = comdat any

$_ZNKSt10_Select1stISt4pairIKNSt7__cxx1112basic_stringIDsSt11char_traitsIDsESaIDsEEES6_EEclERKS8_ = comdat any

$_ZNKSt13_Rb_tree_nodeISt4pairIKNSt7__cxx1112basic_stringIDsSt11char_traitsIDsESaIDsEEES6_EE9_M_valptrEv = comdat any

$_ZNK9__gnu_cxx16__aligned_membufISt4pairIKNSt7__cxx1112basic_stringIDsSt11char_traitsIDsESaIDsEEES7_EE6_M_ptrEv = comdat any

$_ZNK9__gnu_cxx16__aligned_membufISt4pairIKNSt7__cxx1112basic_stringIDsSt11char_traitsIDsESaIDsEEES7_EE7_M_addrEv = comdat any

$_ZNKSt8_Rb_treeINSt7__cxx1112basic_stringIDsSt11char_traitsIDsESaIDsEEESt4pairIKS5_S5_ESt10_Select1stIS8_ESt4lessIS5_ESaIS8_EE11_Alloc_nodeclIS8_EEPSt13_Rb_tree_nodeIS8_EOT_ = comdat any

$_ZNSt8_Rb_treeINSt7__cxx1112basic_stringIDsSt11char_traitsIDsESaIDsEEESt4pairIKS5_S5_ESt10_Select1stIS8_ESt4lessIS5_ESaIS8_EE14_M_create_nodeIJS8_EEEPSt13_Rb_tree_nodeIS8_EDpOT_ = comdat any

$_ZNSt8_Rb_treeINSt7__cxx1112basic_stringIDsSt11char_traitsIDsESaIDsEEESt4pairIKS5_S5_ESt10_Select1stIS8_ESt4lessIS5_ESaIS8_EE17_M_construct_nodeIJS8_EEEvPSt13_Rb_tree_nodeIS8_EDpOT_ = comdat any

$_ZNSt16allocator_traitsISaISt13_Rb_tree_nodeISt4pairIKNSt7__cxx1112basic_stringIDsSt11char_traitsIDsESaIDsEEES7_EEEE9constructIS9_JS9_EEEvRSB_PT_DpOT0_ = comdat any

$_ZNSt15__new_allocatorISt13_Rb_tree_nodeISt4pairIKNSt7__cxx1112basic_stringIDsSt11char_traitsIDsESaIDsEEES7_EEE9constructIS9_JS9_EEEvPT_DpOT0_ = comdat any

$_ZNSt4pairIKNSt7__cxx1112basic_stringIDsSt11char_traitsIDsESaIDsEEES5_EC2EOS7_ = comdat any

$_ZNSt7__cxx1112basic_stringIDsSt11char_traitsIDsESaIDsEE9push_backEDs = comdat any

$_ZNSt7__cxx1112basic_stringIDsSt11char_traitsIDsESaIDsEE9_M_mutateEmmPKDsm = comdat any

$_ZNSt7__cxx1112basic_stringIDsSt11char_traitsIDsESaIDsEE6appendEPKDsm = comdat any

$_ZNKSt7__cxx1112basic_stringIDsSt11char_traitsIDsESaIDsEE15_M_check_lengthEmmPKc = comdat any

$_ZNSt7__cxx1112basic_stringIDsSt11char_traitsIDsESaIDsEE9_M_appendEPKDsm = comdat any

$_ZNSt8_Rb_treeIDsSt4pairIKDsNSt7__cxx1112basic_stringIDsSt11char_traitsIDsESaIDsEEEESt10_Select1stIS8_ESt4lessIDsESaIS8_EE16_M_insert_uniqueIS8_EES0_ISt17_Rb_tree_iteratorIS8_EbEOT_ = comdat any

$_ZNSt8_Rb_treeIDsSt4pairIKDsNSt7__cxx1112basic_stringIDsSt11char_traitsIDsESaIDsEEEESt10_Select1stIS8_ESt4lessIDsESaIS8_EE24_M_get_insert_unique_posERS1_ = comdat any

$_ZNKSt10_Select1stISt4pairIKDsNSt7__cxx1112basic_stringIDsSt11char_traitsIDsESaIDsEEEEEclERS8_ = comdat any

$_ZNSt8_Rb_treeIDsSt4pairIKDsNSt7__cxx1112basic_stringIDsSt11char_traitsIDsESaIDsEEEESt10_Select1stIS8_ESt4lessIDsESaIS8_EE10_M_insert_IS8_NSE_11_Alloc_nodeEEESt17_Rb_tree_iteratorIS8_EPSt18_Rb_tree_node_baseSK_OT_RT0_ = comdat any

$_ZNSt4pairISt17_Rb_tree_iteratorIS_IKDsNSt7__cxx1112basic_stringIDsSt11char_traitsIDsESaIDsEEEEEbEC2IS9_bTnNSt9enable_ifIXaaclsr5_PCCPE22_MoveConstructiblePairIT_T0_EEclsr5_PCCPE30_ImplicitlyMoveConvertiblePairISD_SE_EEEbE4typeELb1EEEOSD_OSE_ = comdat any

$_ZNSt17_Rb_tree_iteratorISt4pairIKDsNSt7__cxx1112basic_stringIDsSt11char_traitsIDsESaIDsEEEEEC2EPSt18_Rb_tree_node_base = comdat any

$_ZNKSt4lessIDsEclERKDsS2_ = comdat any

$_ZNSt8_Rb_treeIDsSt4pairIKDsNSt7__cxx1112basic_stringIDsSt11char_traitsIDsESaIDsEEEESt10_Select1stIS8_ESt4lessIDsESaIS8_EE6_S_keyEPKSt13_Rb_tree_nodeIS8_E = comdat any

$_ZSteqRKSt17_Rb_tree_iteratorISt4pairIKDsNSt7__cxx1112basic_stringIDsSt11char_traitsIDsESaIDsEEEEESB_ = comdat any

$_ZNSt8_Rb_treeIDsSt4pairIKDsNSt7__cxx1112basic_stringIDsSt11char_traitsIDsESaIDsEEEESt10_Select1stIS8_ESt4lessIDsESaIS8_EE5beginEv = comdat any

$_ZNSt4pairIPSt18_Rb_tree_node_baseS1_EC2IRPSt13_Rb_tree_nodeIS_IKDsNSt7__cxx1112basic_stringIDsSt11char_traitsIDsESaIDsEEEEERS1_TnNSt9enable_ifIXaaclsr5_PCCPE22_MoveConstructiblePairIT_T0_EEclsr5_PCCPE30_ImplicitlyMoveConvertiblePairISI_SJ_EEEbE4typeELb1EEEOSI_OSJ_ = comdat any

$_ZNSt17_Rb_tree_iteratorISt4pairIKDsNSt7__cxx1112basic_stringIDsSt11char_traitsIDsESaIDsEEEEEmmEv = comdat any

$_ZNSt8_Rb_treeIDsSt4pairIKDsNSt7__cxx1112basic_stringIDsSt11char_traitsIDsESaIDsEEEESt10_Select1stIS8_ESt4lessIDsESaIS8_EE6_S_keyEPKSt18_Rb_tree_node_base = comdat any

$_ZNKSt10_Select1stISt4pairIKDsNSt7__cxx1112basic_stringIDsSt11char_traitsIDsESaIDsEEEEEclERKS8_ = comdat any

$_ZNKSt13_Rb_tree_nodeISt4pairIKDsNSt7__cxx1112basic_stringIDsSt11char_traitsIDsESaIDsEEEEE9_M_valptrEv = comdat any

$_ZNK9__gnu_cxx16__aligned_membufISt4pairIKDsNSt7__cxx1112basic_stringIDsSt11char_traitsIDsESaIDsEEEEE6_M_ptrEv = comdat any

$_ZNK9__gnu_cxx16__aligned_membufISt4pairIKDsNSt7__cxx1112basic_stringIDsSt11char_traitsIDsESaIDsEEEEE7_M_addrEv = comdat any

$_ZNKSt8_Rb_treeIDsSt4pairIKDsNSt7__cxx1112basic_stringIDsSt11char_traitsIDsESaIDsEEEESt10_Select1stIS8_ESt4lessIDsESaIS8_EE11_Alloc_nodeclIS8_EEPSt13_Rb_tree_nodeIS8_EOT_ = comdat any

$_ZNSt8_Rb_treeIDsSt4pairIKDsNSt7__cxx1112basic_stringIDsSt11char_traitsIDsESaIDsEEEESt10_Select1stIS8_ESt4lessIDsESaIS8_EE14_M_create_nodeIJS8_EEEPSt13_Rb_tree_nodeIS8_EDpOT_ = comdat any

$_ZNSt8_Rb_treeIDsSt4pairIKDsNSt7__cxx1112basic_stringIDsSt11char_traitsIDsESaIDsEEEESt10_Select1stIS8_ESt4lessIDsESaIS8_EE17_M_construct_nodeIJS8_EEEvPSt13_Rb_tree_nodeIS8_EDpOT_ = comdat any

$_ZNSt16allocator_traitsISaISt13_Rb_tree_nodeISt4pairIKDsNSt7__cxx1112basic_stringIDsSt11char_traitsIDsESaIDsEEEEEEE9constructIS9_JS9_EEEvRSB_PT_DpOT0_ = comdat any

$_ZNSt15__new_allocatorISt13_Rb_tree_nodeISt4pairIKDsNSt7__cxx1112basic_stringIDsSt11char_traitsIDsESaIDsEEEEEE9constructIS9_JS9_EEEvPT_DpOT0_ = comdat any

$_ZNSt4pairIKDsNSt7__cxx1112basic_stringIDsSt11char_traitsIDsESaIDsEEEEC2EOS7_ = comdat any

$_ZN9__gnu_cxxeqIPKNSt7__cxx1112basic_stringIDsSt11char_traitsIDsESaIDsEEESt6vectorIS6_SaIS6_EEEEbRKNS_17__normal_iteratorIT_T0_EESH_ = comdat any

$_ZNKSt6vectorINSt7__cxx1112basic_stringIDsSt11char_traitsIDsESaIDsEEESaIS5_EE5beginEv = comdat any

$_ZNKSt6vectorINSt7__cxx1112basic_stringIDsSt11char_traitsIDsESaIDsEEESaIS5_EE3endEv = comdat any

$_ZNK9__gnu_cxx17__normal_iteratorIPKNSt7__cxx1112basic_stringIDsSt11char_traitsIDsESaIDsEEESt6vectorIS6_SaIS6_EEE4baseEv = comdat any

$_ZN9__gnu_cxx17__normal_iteratorIPKNSt7__cxx1112basic_stringIDsSt11char_traitsIDsESaIDsEEESt6vectorIS6_SaIS6_EEEC2ERKS8_ = comdat any

$_ZNK9__gnu_cxx17__normal_iteratorIPKNSt7__cxx1112basic_stringIDsSt11char_traitsIDsESaIDsEEESt6vectorIS6_SaIS6_EEEmiEl = comdat any

$_ZNK9__gnu_cxx17__normal_iteratorIPKNSt7__cxx1112basic_stringIDsSt11char_traitsIDsESaIDsEEESt6vectorIS6_SaIS6_EEEdeEv = comdat any

$_ZNKSt16initializer_listIDsE5beginEv = comdat any

$_ZNKSt16initializer_listIDsE4sizeEv = comdat any

$_ZNKSt8_Rb_treeINSt7__cxx1112basic_stringIDsSt11char_traitsIDsESaIDsEEES5_St9_IdentityIS5_ESt4lessIS5_ESaIS5_EE5beginEv = comdat any

$_ZNSt23_Rb_tree_const_iteratorINSt7__cxx1112basic_stringIDsSt11char_traitsIDsESaIDsEEEEC2EPKSt18_Rb_tree_node_base = comdat any

$_ZNKSt8_Rb_treeINSt7__cxx1112basic_stringIDsSt11char_traitsIDsESaIDsEEES5_St9_IdentityIS5_ESt4lessIS5_ESaIS5_EE3endEv = comdat any

$_ZNSt11char_traitsIDsE6lengthEPKDs = comdat any

$_ZNSt11char_traitsIDsE2eqERKDsS2_ = comdat any

$_ZNKSt8_Rb_treeIDsSt4pairIKDsNSt7__cxx1112basic_stringIDsSt11char_traitsIDsESaIDsEEEESt10_Select1stIS8_ESt4lessIDsESaIS8_EE5beginEv = comdat any

$_ZNSt23_Rb_tree_const_iteratorISt4pairIKDsNSt7__cxx1112basic_stringIDsSt11char_traitsIDsESaIDsEEEEEC2EPKSt18_Rb_tree_node_base = comdat any

$_ZNKSt8_Rb_treeIDsSt4pairIKDsNSt7__cxx1112basic_stringIDsSt11char_traitsIDsESaIDsEEEESt10_Select1stIS8_ESt4lessIDsESaIS8_EE3endEv = comdat any

$_ZNKSt8_Rb_treeINSt7__cxx1112basic_stringIDsSt11char_traitsIDsESaIDsEEESt4pairIKS5_S5_ESt10_Select1stIS8_ESt4lessIS5_ESaIS8_EE5beginEv = comdat any

$_ZNSt23_Rb_tree_const_iteratorISt4pairIKNSt7__cxx1112basic_stringIDsSt11char_traitsIDsESaIDsEEES6_EEC2EPKSt18_Rb_tree_node_base = comdat any

$_ZNKSt8_Rb_treeINSt7__cxx1112basic_stringIDsSt11char_traitsIDsESaIDsEEESt4pairIKS5_S5_ESt10_Select1stIS8_ESt4lessIS5_ESaIS8_EE3endEv = comdat any

$_ZSteqIDsSt11char_traitsIDsESaIDsEEbRKNSt7__cxx1112basic_stringIT_T0_T1_EEPKS5_ = comdat any

$_ZNKSt7__cxx1112basic_stringIDsSt11char_traitsIDsESaIDsEE7compareEPKDs = comdat any

$_ZSt8in_place = comdat any

@.str = private unnamed_addr constant [2 x i16] [i16 45, i16 0], align 2
@.str.1 = private unnamed_addr constant [3 x i16] [i16 45, i16 116, i16 0], align 2
@.str.2 = private unnamed_addr constant [5 x i16] [i16 116, i16 114, i16 117, i16 101, i16 0], align 2
@.str.3 = private unnamed_addr constant [3 x i16] [i16 45, i16 117, i16 0], align 2
@.str.4 = private unnamed_addr constant [4 x i16] [i16 45, i16 120, i16 45, i16 0], align 2
@.str.5 = private unnamed_addr constant [24 x i8] c"basic_string::_M_create\00", align 1
@.str.6 = private unnamed_addr constant [26 x i8] c"vector::_M_realloc_insert\00", align 1
@_ZSt8in_place = linkonce_odr constant %"struct.std::in_place_t" zeroinitializer, comdat, align 1
@.str.7 = private unnamed_addr constant [21 x i8] c"basic_string::append\00", align 1

@_ZN6hermes13platform_intl17LanguageTagParserC1ERKNSt7__cxx1112basic_stringIDsSt11char_traitsIDsESaIDsEEE = hidden unnamed_addr alias void (ptr, ptr), ptr @_ZN6hermes13platform_intl17LanguageTagParserC2ERKNSt7__cxx1112basic_stringIDsSt11char_traitsIDsESaIDsEEE

; Function Attrs: mustprogress nounwind uwtable
define hidden noundef zeroext i1 @_ZN6hermes13platform_intl22isUnicodeExtensionTypeERKNSt7__cxx1112basic_stringIDsSt11char_traitsIDsESaIDsEEE(ptr noundef nonnull align 8 dereferenceable(32) %str) #0 {
entry:
  %str.addr = alloca ptr, align 8
  %ref.tmp = alloca %"class.std::vector", align 8
  store ptr %str, ptr %str.addr, align 8
  %0 = load ptr, ptr %str.addr, align 8
  call void @_ZN6hermes13platform_intl12_GLOBAL__N_116splitIntoSubtagsERKNSt7__cxx1112basic_stringIDsSt11char_traitsIDsESaIDsEEE(ptr sret(%"class.std::vector") align 8 %ref.tmp, ptr noundef nonnull align 8 dereferenceable(32) %0)
  %call = call noundef zeroext i1 @_ZN4llvh6all_ofISt6vectorINSt7__cxx1112basic_stringIDsSt11char_traitsIDsESaIDsEEESaIS7_EEPFbRKS7_EEEbOT_T0_(ptr noundef nonnull align 8 dereferenceable(24) %ref.tmp, ptr noundef @_ZN6hermes13platform_intl12_GLOBAL__N_129isUnicodeExtensionKeyTypeItemERKNSt7__cxx1112basic_stringIDsSt11char_traitsIDsESaIDsEEE)
  call void @_ZNSt6vectorINSt7__cxx1112basic_stringIDsSt11char_traitsIDsESaIDsEEESaIS5_EED2Ev(ptr noundef nonnull align 8 dereferenceable(24) %ref.tmp) #7
  ret i1 %call
}

; Function Attrs: mustprogress nounwind uwtable
define linkonce_odr hidden noundef zeroext i1 @_ZN4llvh6all_ofISt6vectorINSt7__cxx1112basic_stringIDsSt11char_traitsIDsESaIDsEEESaIS7_EEPFbRKS7_EEEbOT_T0_(ptr noundef nonnull align 8 dereferenceable(24) %Range, ptr noundef %P) #0 comdat {
entry:
  %Range.addr = alloca ptr, align 8
  %P.addr = alloca ptr, align 8
  %agg.tmp = alloca %"class.__gnu_cxx::__normal_iterator", align 8
  %agg.tmp1 = alloca %"class.__gnu_cxx::__normal_iterator", align 8
  store ptr %Range, ptr %Range.addr, align 8
  store ptr %P, ptr %P.addr, align 8
  %0 = load ptr, ptr %Range.addr, align 8
  %call = call ptr @_ZN4llvh9adl_beginIRSt6vectorINSt7__cxx1112basic_stringIDsSt11char_traitsIDsESaIDsEEESaIS7_EEEEDTclsr10adl_detailE9adl_beginclsr3stdE7forwardIT_Efp_EEEOSB_(ptr noundef nonnull align 8 dereferenceable(24) %0)
  %coerce.dive = getelementptr inbounds %"class.__gnu_cxx::__normal_iterator", ptr %agg.tmp, i32 0, i32 0
  store ptr %call, ptr %coerce.dive, align 8
  %1 = load ptr, ptr %Range.addr, align 8
  %call2 = call ptr @_ZN4llvh7adl_endIRSt6vectorINSt7__cxx1112basic_stringIDsSt11char_traitsIDsESaIDsEEESaIS7_EEEEDTclsr10adl_detailE7adl_endclsr3stdE7forwardIT_Efp_EEEOSB_(ptr noundef nonnull align 8 dereferenceable(24) %1)
  %coerce.dive3 = getelementptr inbounds %"class.__gnu_cxx::__normal_iterator", ptr %agg.tmp1, i32 0, i32 0
  store ptr %call2, ptr %coerce.dive3, align 8
  %2 = load ptr, ptr %P.addr, align 8
  %coerce.dive4 = getelementptr inbounds %"class.__gnu_cxx::__normal_iterator", ptr %agg.tmp, i32 0, i32 0
  %3 = load ptr, ptr %coerce.dive4, align 8
  %coerce.dive5 = getelementptr inbounds %"class.__gnu_cxx::__normal_iterator", ptr %agg.tmp1, i32 0, i32 0
  %4 = load ptr, ptr %coerce.dive5, align 8
  %call6 = call noundef zeroext i1 @_ZSt6all_ofIN9__gnu_cxx17__normal_iteratorIPNSt7__cxx1112basic_stringIDsSt11char_traitsIDsESaIDsEEESt6vectorIS7_SaIS7_EEEEPFbRKS7_EEbT_SH_T0_(ptr %3, ptr %4, ptr noundef %2)
  ret i1 %call6
}

; Function Attrs: mustprogress nounwind uwtable
define internal void @_ZN6hermes13platform_intl12_GLOBAL__N_116splitIntoSubtagsERKNSt7__cxx1112basic_stringIDsSt11char_traitsIDsESaIDsEEE(ptr noalias sret(%"class.std::vector") align 8 %agg.result, ptr noundef nonnull align 8 dereferenceable(32) %locale) #0 {
entry:
  %result.ptr = alloca ptr, align 8
  %locale.addr = alloca ptr, align 8
  %nrvo = alloca i1, align 1
  %s = alloca %"class.__gnu_cxx::__normal_iterator.32", align 8
  %e = alloca %"class.__gnu_cxx::__normal_iterator.32", align 8
  %tagEnd = alloca %"class.__gnu_cxx::__normal_iterator.32", align 8
  %agg.tmp = alloca %"class.__gnu_cxx::__normal_iterator.32", align 8
  %agg.tmp3 = alloca %"class.__gnu_cxx::__normal_iterator.32", align 8
  %ref.tmp = alloca i16, align 2
  %ref.tmp10 = alloca %"class.__gnu_cxx::__normal_iterator.32", align 8
  store ptr %agg.result, ptr %result.ptr, align 8
  store ptr %locale, ptr %locale.addr, align 8
  store i1 false, ptr %nrvo, align 1
  call void @_ZNSt6vectorINSt7__cxx1112basic_stringIDsSt11char_traitsIDsESaIDsEEESaIS5_EEC2Ev(ptr noundef nonnull align 8 dereferenceable(24) %agg.result) #7
  %0 = load ptr, ptr %locale.addr, align 8
  %call = call ptr @_ZNKSt7__cxx1112basic_stringIDsSt11char_traitsIDsESaIDsEE5beginEv(ptr noundef nonnull align 8 dereferenceable(32) %0) #7
  %coerce.dive = getelementptr inbounds %"class.__gnu_cxx::__normal_iterator.32", ptr %s, i32 0, i32 0
  store ptr %call, ptr %coerce.dive, align 8
  %1 = load ptr, ptr %locale.addr, align 8
  %call1 = call ptr @_ZNKSt7__cxx1112basic_stringIDsSt11char_traitsIDsESaIDsEE3endEv(ptr noundef nonnull align 8 dereferenceable(32) %1) #7
  %coerce.dive2 = getelementptr inbounds %"class.__gnu_cxx::__normal_iterator.32", ptr %e, i32 0, i32 0
  store ptr %call1, ptr %coerce.dive2, align 8
  br label %while.cond

while.cond:                                       ; preds = %if.end, %entry
  br label %while.body

while.body:                                       ; preds = %while.cond
  call void @llvm.memcpy.p0.p0.i64(ptr align 8 %agg.tmp, ptr align 8 %s, i64 8, i1 false)
  call void @llvm.memcpy.p0.p0.i64(ptr align 8 %agg.tmp3, ptr align 8 %e, i64 8, i1 false)
  store i16 45, ptr %ref.tmp, align 2
  %coerce.dive4 = getelementptr inbounds %"class.__gnu_cxx::__normal_iterator.32", ptr %agg.tmp, i32 0, i32 0
  %2 = load ptr, ptr %coerce.dive4, align 8
  %coerce.dive5 = getelementptr inbounds %"class.__gnu_cxx::__normal_iterator.32", ptr %agg.tmp3, i32 0, i32 0
  %3 = load ptr, ptr %coerce.dive5, align 8
  %call6 = call ptr @_ZSt4findIN9__gnu_cxx17__normal_iteratorIPKDsNSt7__cxx1112basic_stringIDsSt11char_traitsIDsESaIDsEEEEEDsET_SB_SB_RKT0_(ptr %2, ptr %3, ptr noundef nonnull align 2 dereferenceable(2) %ref.tmp)
  %coerce.dive7 = getelementptr inbounds %"class.__gnu_cxx::__normal_iterator.32", ptr %tagEnd, i32 0, i32 0
  store ptr %call6, ptr %coerce.dive7, align 8
  %call8 = call noundef nonnull align 8 dereferenceable(32) ptr @_ZNSt6vectorINSt7__cxx1112basic_stringIDsSt11char_traitsIDsESaIDsEEESaIS5_EE12emplace_backIJRN9__gnu_cxx17__normal_iteratorIPKDsS5_EESE_EEERS5_DpOT_(ptr noundef nonnull align 8 dereferenceable(24) %agg.result, ptr noundef nonnull align 8 dereferenceable(8) %s, ptr noundef nonnull align 8 dereferenceable(8) %tagEnd)
  %call9 = call noundef zeroext i1 @_ZN9__gnu_cxxeqIPKDsNSt7__cxx1112basic_stringIDsSt11char_traitsIDsESaIDsEEEEEbRKNS_17__normal_iteratorIT_T0_EESE_(ptr noundef nonnull align 8 dereferenceable(8) %tagEnd, ptr noundef nonnull align 8 dereferenceable(8) %e) #7
  br i1 %call9, label %if.then, label %if.end

if.then:                                          ; preds = %while.body
  br label %while.end

if.end:                                           ; preds = %while.body
  %call11 = call ptr @_ZNK9__gnu_cxx17__normal_iteratorIPKDsNSt7__cxx1112basic_stringIDsSt11char_traitsIDsESaIDsEEEEplEl(ptr noundef nonnull align 8 dereferenceable(8) %tagEnd, i64 noundef 1) #7
  %coerce.dive12 = getelementptr inbounds %"class.__gnu_cxx::__normal_iterator.32", ptr %ref.tmp10, i32 0, i32 0
  store ptr %call11, ptr %coerce.dive12, align 8
  call void @llvm.memcpy.p0.p0.i64(ptr align 8 %s, ptr align 8 %ref.tmp10, i64 8, i1 false)
  br label %while.cond, !llvm.loop !4

while.end:                                        ; preds = %if.then
  store i1 true, ptr %nrvo, align 1
  %nrvo.val = load i1, ptr %nrvo, align 1
  br i1 %nrvo.val, label %nrvo.skipdtor, label %nrvo.unused

nrvo.unused:                                      ; preds = %while.end
  call void @_ZNSt6vectorINSt7__cxx1112basic_stringIDsSt11char_traitsIDsESaIDsEEESaIS5_EED2Ev(ptr noundef nonnull align 8 dereferenceable(24) %agg.result) #7
  br label %nrvo.skipdtor

nrvo.skipdtor:                                    ; preds = %nrvo.unused, %while.end
  ret void
}

; Function Attrs: mustprogress nounwind uwtable
define internal noundef zeroext i1 @_ZN6hermes13platform_intl12_GLOBAL__N_129isUnicodeExtensionKeyTypeItemERKNSt7__cxx1112basic_stringIDsSt11char_traitsIDsESaIDsEEE(ptr noundef nonnull align 8 dereferenceable(32) %subtag) #0 {
entry:
  %subtag.addr = alloca ptr, align 8
  store ptr %subtag, ptr %subtag.addr, align 8
  %0 = load ptr, ptr %subtag.addr, align 8
  %call = call noundef zeroext i1 @_ZN6hermes13platform_intl12_GLOBAL__N_110isCharTypeIPFbDsEEEbRKNSt7__cxx1112basic_stringIDsSt11char_traitsIDsESaIDsEEEmmT_(ptr noundef nonnull align 8 dereferenceable(32) %0, i64 noundef 3, i64 noundef 8, ptr noundef @_ZN6hermes13platform_intl12_GLOBAL__N_120isASCIILetterOrDigitEDs)
  ret i1 %call
}

; Function Attrs: mustprogress nounwind uwtable
define linkonce_odr void @_ZNSt6vectorINSt7__cxx1112basic_stringIDsSt11char_traitsIDsESaIDsEEESaIS5_EED2Ev(ptr noundef nonnull align 8 dereferenceable(24) %this) unnamed_addr #0 comdat align 2 {
entry:
  %this.addr = alloca ptr, align 8
  store ptr %this, ptr %this.addr, align 8
  %this1 = load ptr, ptr %this.addr, align 8
  %_M_impl = getelementptr inbounds %"struct.std::_Vector_base", ptr %this1, i32 0, i32 0
  %_M_start = getelementptr inbounds %"struct.std::_Vector_base<std::__cxx11::basic_string<char16_t>, std::allocator<std::__cxx11::basic_string<char16_t>>>::_Vector_impl_data", ptr %_M_impl, i32 0, i32 0
  %0 = load ptr, ptr %_M_start, align 8
  %_M_impl2 = getelementptr inbounds %"struct.std::_Vector_base", ptr %this1, i32 0, i32 0
  %_M_finish = getelementptr inbounds %"struct.std::_Vector_base<std::__cxx11::basic_string<char16_t>, std::allocator<std::__cxx11::basic_string<char16_t>>>::_Vector_impl_data", ptr %_M_impl2, i32 0, i32 1
  %1 = load ptr, ptr %_M_finish, align 8
  %call = call noundef nonnull align 1 dereferenceable(1) ptr @_ZNSt12_Vector_baseINSt7__cxx1112basic_stringIDsSt11char_traitsIDsESaIDsEEESaIS5_EE19_M_get_Tp_allocatorEv(ptr noundef nonnull align 8 dereferenceable(24) %this1) #7
  call void @_ZSt8_DestroyIPNSt7__cxx1112basic_stringIDsSt11char_traitsIDsESaIDsEEES5_EvT_S7_RSaIT0_E(ptr noundef %0, ptr noundef %1, ptr noundef nonnull align 1 dereferenceable(1) %call)
  call void @_ZNSt12_Vector_baseINSt7__cxx1112basic_stringIDsSt11char_traitsIDsESaIDsEEESaIS5_EED2Ev(ptr noundef nonnull align 8 dereferenceable(24) %this1) #7
  ret void
}

; Function Attrs: mustprogress nounwind uwtable
define hidden void @_ZN6hermes13platform_intl17LanguageTagParserC2ERKNSt7__cxx1112basic_stringIDsSt11char_traitsIDsESaIDsEEE(ptr noundef nonnull align 8 dereferenceable(536) %this, ptr noundef nonnull align 8 dereferenceable(32) %localeId) unnamed_addr #0 align 2 {
entry:
  %this.addr = alloca ptr, align 8
  %localeId.addr = alloca ptr, align 8
  %ref.tmp = alloca %"class.std::vector", align 8
  %agg.tmp = alloca %"class.__gnu_cxx::__normal_iterator", align 8
  %agg.tmp5 = alloca %"class.__gnu_cxx::__normal_iterator", align 8
  %__range2 = alloca ptr, align 8
  %__begin2 = alloca %"class.__gnu_cxx::__normal_iterator", align 8
  %__end2 = alloca %"class.__gnu_cxx::__normal_iterator", align 8
  %subtag = alloca ptr, align 8
  %__range3 = alloca ptr, align 8
  %__begin3 = alloca %"class.__gnu_cxx::__normal_iterator.18", align 8
  %__end3 = alloca %"class.__gnu_cxx::__normal_iterator.18", align 8
  %c = alloca ptr, align 8
  store ptr %this, ptr %this.addr, align 8
  store ptr %localeId, ptr %localeId.addr, align 8
  %this1 = load ptr, ptr %this.addr, align 8
  %result_ = getelementptr inbounds %"class.hermes::platform_intl::LanguageTagParser", ptr %this1, i32 0, i32 0
  call void @_ZN6hermes13platform_intl22ParsedLocaleIdentifierC2Ev(ptr noundef nonnull align 8 dereferenceable(512) %result_) #7
  %subtags_ = getelementptr inbounds %"class.hermes::platform_intl::LanguageTagParser", ptr %this1, i32 0, i32 1
  call void @_ZNSt6vectorINSt7__cxx1112basic_stringIDsSt11char_traitsIDsESaIDsEEESaIS5_EEC2Ev(ptr noundef nonnull align 8 dereferenceable(24) %subtags_) #7
  %0 = load ptr, ptr %localeId.addr, align 8
  call void @_ZN6hermes13platform_intl12_GLOBAL__N_116splitIntoSubtagsERKNSt7__cxx1112basic_stringIDsSt11char_traitsIDsESaIDsEEE(ptr sret(%"class.std::vector") align 8 %ref.tmp, ptr noundef nonnull align 8 dereferenceable(32) %0)
  %subtags_2 = getelementptr inbounds %"class.hermes::platform_intl::LanguageTagParser", ptr %this1, i32 0, i32 1
  %call = call noundef nonnull align 8 dereferenceable(24) ptr @_ZNSt6vectorINSt7__cxx1112basic_stringIDsSt11char_traitsIDsESaIDsEEESaIS5_EEaSEOS7_(ptr noundef nonnull align 8 dereferenceable(24) %subtags_2, ptr noundef nonnull align 8 dereferenceable(24) %ref.tmp) #7
  call void @_ZNSt6vectorINSt7__cxx1112basic_stringIDsSt11char_traitsIDsESaIDsEEESaIS5_EED2Ev(ptr noundef nonnull align 8 dereferenceable(24) %ref.tmp) #7
  %subtags_3 = getelementptr inbounds %"class.hermes::platform_intl::LanguageTagParser", ptr %this1, i32 0, i32 1
  %call4 = call ptr @_ZNSt6vectorINSt7__cxx1112basic_stringIDsSt11char_traitsIDsESaIDsEEESaIS5_EE5beginEv(ptr noundef nonnull align 8 dereferenceable(24) %subtags_3) #7
  %coerce.dive = getelementptr inbounds %"class.__gnu_cxx::__normal_iterator", ptr %agg.tmp, i32 0, i32 0
  store ptr %call4, ptr %coerce.dive, align 8
  %subtags_6 = getelementptr inbounds %"class.hermes::platform_intl::LanguageTagParser", ptr %this1, i32 0, i32 1
  %call7 = call ptr @_ZNSt6vectorINSt7__cxx1112basic_stringIDsSt11char_traitsIDsESaIDsEEESaIS5_EE3endEv(ptr noundef nonnull align 8 dereferenceable(24) %subtags_6) #7
  %coerce.dive8 = getelementptr inbounds %"class.__gnu_cxx::__normal_iterator", ptr %agg.tmp5, i32 0, i32 0
  store ptr %call7, ptr %coerce.dive8, align 8
  %coerce.dive9 = getelementptr inbounds %"class.__gnu_cxx::__normal_iterator", ptr %agg.tmp, i32 0, i32 0
  %1 = load ptr, ptr %coerce.dive9, align 8
  %coerce.dive10 = getelementptr inbounds %"class.__gnu_cxx::__normal_iterator", ptr %agg.tmp5, i32 0, i32 0
  %2 = load ptr, ptr %coerce.dive10, align 8
  call void @_ZSt7reverseIN9__gnu_cxx17__normal_iteratorIPNSt7__cxx1112basic_stringIDsSt11char_traitsIDsESaIDsEEESt6vectorIS7_SaIS7_EEEEEvT_SD_(ptr %1, ptr %2)
  %subtags_11 = getelementptr inbounds %"class.hermes::platform_intl::LanguageTagParser", ptr %this1, i32 0, i32 1
  store ptr %subtags_11, ptr %__range2, align 8
  %3 = load ptr, ptr %__range2, align 8
  %call12 = call ptr @_ZNSt6vectorINSt7__cxx1112basic_stringIDsSt11char_traitsIDsESaIDsEEESaIS5_EE5beginEv(ptr noundef nonnull align 8 dereferenceable(24) %3) #7
  %coerce.dive13 = getelementptr inbounds %"class.__gnu_cxx::__normal_iterator", ptr %__begin2, i32 0, i32 0
  store ptr %call12, ptr %coerce.dive13, align 8
  %4 = load ptr, ptr %__range2, align 8
  %call14 = call ptr @_ZNSt6vectorINSt7__cxx1112basic_stringIDsSt11char_traitsIDsESaIDsEEESaIS5_EE3endEv(ptr noundef nonnull align 8 dereferenceable(24) %4) #7
  %coerce.dive15 = getelementptr inbounds %"class.__gnu_cxx::__normal_iterator", ptr %__end2, i32 0, i32 0
  store ptr %call14, ptr %coerce.dive15, align 8
  br label %for.cond

for.cond:                                         ; preds = %for.inc31, %entry
  %call16 = call noundef zeroext i1 @_ZN9__gnu_cxxneIPNSt7__cxx1112basic_stringIDsSt11char_traitsIDsESaIDsEEESt6vectorIS6_SaIS6_EEEEbRKNS_17__normal_iteratorIT_T0_EESG_(ptr noundef nonnull align 8 dereferenceable(8) %__begin2, ptr noundef nonnull align 8 dereferenceable(8) %__end2) #7
  br i1 %call16, label %for.body, label %for.end33

for.body:                                         ; preds = %for.cond
  %call17 = call noundef nonnull align 8 dereferenceable(32) ptr @_ZNK9__gnu_cxx17__normal_iteratorIPNSt7__cxx1112basic_stringIDsSt11char_traitsIDsESaIDsEEESt6vectorIS6_SaIS6_EEEdeEv(ptr noundef nonnull align 8 dereferenceable(8) %__begin2) #7
  store ptr %call17, ptr %subtag, align 8
  %5 = load ptr, ptr %subtag, align 8
  store ptr %5, ptr %__range3, align 8
  %6 = load ptr, ptr %__range3, align 8
  %call18 = call ptr @_ZNSt7__cxx1112basic_stringIDsSt11char_traitsIDsESaIDsEE5beginEv(ptr noundef nonnull align 8 dereferenceable(32) %6) #7
  %coerce.dive19 = getelementptr inbounds %"class.__gnu_cxx::__normal_iterator.18", ptr %__begin3, i32 0, i32 0
  store ptr %call18, ptr %coerce.dive19, align 8
  %7 = load ptr, ptr %__range3, align 8
  %call20 = call ptr @_ZNSt7__cxx1112basic_stringIDsSt11char_traitsIDsESaIDsEE3endEv(ptr noundef nonnull align 8 dereferenceable(32) %7) #7
  %coerce.dive21 = getelementptr inbounds %"class.__gnu_cxx::__normal_iterator.18", ptr %__end3, i32 0, i32 0
  store ptr %call20, ptr %coerce.dive21, align 8
  br label %for.cond22

for.cond22:                                       ; preds = %for.inc, %for.body
  %call23 = call noundef zeroext i1 @_ZN9__gnu_cxxneIPDsNSt7__cxx1112basic_stringIDsSt11char_traitsIDsESaIDsEEEEEbRKNS_17__normal_iteratorIT_T0_EESD_(ptr noundef nonnull align 8 dereferenceable(8) %__begin3, ptr noundef nonnull align 8 dereferenceable(8) %__end3) #7
  br i1 %call23, label %for.body24, label %for.end

for.body24:                                       ; preds = %for.cond22
  %call25 = call noundef nonnull align 2 dereferenceable(2) ptr @_ZNK9__gnu_cxx17__normal_iteratorIPDsNSt7__cxx1112basic_stringIDsSt11char_traitsIDsESaIDsEEEEdeEv(ptr noundef nonnull align 8 dereferenceable(8) %__begin3) #7
  store ptr %call25, ptr %c, align 8
  %8 = load ptr, ptr %c, align 8
  %9 = load i16, ptr %8, align 2
  %conv = zext i16 %9 to i32
  %cmp = icmp sle i32 %conv, 90
  br i1 %cmp, label %land.lhs.true, label %if.end

land.lhs.true:                                    ; preds = %for.body24
  %10 = load ptr, ptr %c, align 8
  %11 = load i16, ptr %10, align 2
  %conv26 = zext i16 %11 to i32
  %cmp27 = icmp sge i32 %conv26, 65
  br i1 %cmp27, label %if.then, label %if.end

if.then:                                          ; preds = %land.lhs.true
  %12 = load ptr, ptr %c, align 8
  %13 = load i16, ptr %12, align 2
  %conv28 = zext i16 %13 to i32
  %sub = sub nsw i32 %conv28, -32
  %conv29 = trunc i32 %sub to i16
  store i16 %conv29, ptr %12, align 2
  br label %if.end

if.end:                                           ; preds = %if.then, %land.lhs.true, %for.body24
  br label %for.inc

for.inc:                                          ; preds = %if.end
  %call30 = call noundef nonnull align 8 dereferenceable(8) ptr @_ZN9__gnu_cxx17__normal_iteratorIPDsNSt7__cxx1112basic_stringIDsSt11char_traitsIDsESaIDsEEEEppEv(ptr noundef nonnull align 8 dereferenceable(8) %__begin3) #7
  br label %for.cond22

for.end:                                          ; preds = %for.cond22
  br label %for.inc31

for.inc31:                                        ; preds = %for.end
  %call32 = call noundef nonnull align 8 dereferenceable(8) ptr @_ZN9__gnu_cxx17__normal_iteratorIPNSt7__cxx1112basic_stringIDsSt11char_traitsIDsESaIDsEEESt6vectorIS6_SaIS6_EEEppEv(ptr noundef nonnull align 8 dereferenceable(8) %__begin2) #7
  br label %for.cond

for.end33:                                        ; preds = %for.cond
  ret void
}

; Function Attrs: mustprogress nounwind uwtable
define linkonce_odr hidden void @_ZN6hermes13platform_intl22ParsedLocaleIdentifierC2Ev(ptr noundef nonnull align 8 dereferenceable(512) %this) unnamed_addr #0 comdat align 2 {
entry:
  %this.addr = alloca ptr, align 8
  store ptr %this, ptr %this.addr, align 8
  %this1 = load ptr, ptr %this.addr, align 8
  %languageIdentifier = getelementptr inbounds %"struct.hermes::platform_intl::ParsedLocaleIdentifier", ptr %this1, i32 0, i32 0
  call void @_ZN6hermes13platform_intl22ParsedLocaleIdentifier24ParsedLanguageIdentifierC2Ev(ptr noundef nonnull align 8 dereferenceable(144) %languageIdentifier) #7
  %unicodeExtensionAttributes = getelementptr inbounds %"struct.hermes::platform_intl::ParsedLocaleIdentifier", ptr %this1, i32 0, i32 1
  call void @_ZNSt3setINSt7__cxx1112basic_stringIDsSt11char_traitsIDsESaIDsEEESt4lessIS5_ESaIS5_EEC2Ev(ptr noundef nonnull align 8 dereferenceable(48) %unicodeExtensionAttributes) #7
  %unicodeExtensionKeywords = getelementptr inbounds %"struct.hermes::platform_intl::ParsedLocaleIdentifier", ptr %this1, i32 0, i32 2
  call void @_ZNSt3mapINSt7__cxx1112basic_stringIDsSt11char_traitsIDsESaIDsEEES5_St4lessIS5_ESaISt4pairIKS5_S5_EEEC2Ev(ptr noundef nonnull align 8 dereferenceable(48) %unicodeExtensionKeywords) #7
  %transformedLanguageIdentifier = getelementptr inbounds %"struct.hermes::platform_intl::ParsedLocaleIdentifier", ptr %this1, i32 0, i32 3
  call void @_ZN6hermes13platform_intl22ParsedLocaleIdentifier24ParsedLanguageIdentifierC2Ev(ptr noundef nonnull align 8 dereferenceable(144) %transformedLanguageIdentifier) #7
  %transformedExtensionFields = getelementptr inbounds %"struct.hermes::platform_intl::ParsedLocaleIdentifier", ptr %this1, i32 0, i32 4
  call void @_ZNSt3mapINSt7__cxx1112basic_stringIDsSt11char_traitsIDsESaIDsEEES5_St4lessIS5_ESaISt4pairIKS5_S5_EEEC2Ev(ptr noundef nonnull align 8 dereferenceable(48) %transformedExtensionFields) #7
  %otherExtensionMap = getelementptr inbounds %"struct.hermes::platform_intl::ParsedLocaleIdentifier", ptr %this1, i32 0, i32 5
  call void @_ZNSt3mapIDsNSt7__cxx1112basic_stringIDsSt11char_traitsIDsESaIDsEEESt4lessIDsESaISt4pairIKDsS5_EEEC2Ev(ptr noundef nonnull align 8 dereferenceable(48) %otherExtensionMap) #7
  %puExtensions = getelementptr inbounds %"struct.hermes::platform_intl::ParsedLocaleIdentifier", ptr %this1, i32 0, i32 6
  call void @_ZNSt7__cxx1112basic_stringIDsSt11char_traitsIDsESaIDsEEC2Ev(ptr noundef nonnull align 8 dereferenceable(32) %puExtensions) #7
  ret void
}

; Function Attrs: mustprogress nounwind uwtable
define linkonce_odr void @_ZNSt6vectorINSt7__cxx1112basic_stringIDsSt11char_traitsIDsESaIDsEEESaIS5_EEC2Ev(ptr noundef nonnull align 8 dereferenceable(24) %this) unnamed_addr #0 comdat align 2 {
entry:
  %this.addr = alloca ptr, align 8
  store ptr %this, ptr %this.addr, align 8
  %this1 = load ptr, ptr %this.addr, align 8
  call void @_ZNSt12_Vector_baseINSt7__cxx1112basic_stringIDsSt11char_traitsIDsESaIDsEEESaIS5_EEC2Ev(ptr noundef nonnull align 8 dereferenceable(24) %this1) #7
  ret void
}

; Function Attrs: mustprogress nounwind uwtable
define linkonce_odr noundef nonnull align 8 dereferenceable(24) ptr @_ZNSt6vectorINSt7__cxx1112basic_stringIDsSt11char_traitsIDsESaIDsEEESaIS5_EEaSEOS7_(ptr noundef nonnull align 8 dereferenceable(24) %this, ptr noundef nonnull align 8 dereferenceable(24) %__x) #0 comdat align 2 {
entry:
  %this.addr = alloca ptr, align 8
  %__x.addr = alloca ptr, align 8
  %__move_storage = alloca i8, align 1
  store ptr %this, ptr %this.addr, align 8
  store ptr %__x, ptr %__x.addr, align 8
  %this1 = load ptr, ptr %this.addr, align 8
  store i8 1, ptr %__move_storage, align 1
  %0 = load ptr, ptr %__x.addr, align 8
  call void @_ZNSt6vectorINSt7__cxx1112basic_stringIDsSt11char_traitsIDsESaIDsEEESaIS5_EE14_M_move_assignEOS7_St17integral_constantIbLb1EE(ptr noundef nonnull align 8 dereferenceable(24) %this1, ptr noundef nonnull align 8 dereferenceable(24) %0) #7
  ret ptr %this1
}

; Function Attrs: mustprogress nounwind uwtable
define linkonce_odr void @_ZSt7reverseIN9__gnu_cxx17__normal_iteratorIPNSt7__cxx1112basic_stringIDsSt11char_traitsIDsESaIDsEEESt6vectorIS7_SaIS7_EEEEEvT_SD_(ptr %__first.coerce, ptr %__last.coerce) #0 comdat {
entry:
  %__first = alloca %"class.__gnu_cxx::__normal_iterator", align 8
  %__last = alloca %"class.__gnu_cxx::__normal_iterator", align 8
  %agg.tmp = alloca %"class.__gnu_cxx::__normal_iterator", align 8
  %agg.tmp2 = alloca %"class.__gnu_cxx::__normal_iterator", align 8
  %coerce.dive = getelementptr inbounds %"class.__gnu_cxx::__normal_iterator", ptr %__first, i32 0, i32 0
  store ptr %__first.coerce, ptr %coerce.dive, align 8
  %coerce.dive1 = getelementptr inbounds %"class.__gnu_cxx::__normal_iterator", ptr %__last, i32 0, i32 0
  store ptr %__last.coerce, ptr %coerce.dive1, align 8
  call void @llvm.memcpy.p0.p0.i64(ptr align 8 %agg.tmp, ptr align 8 %__first, i64 8, i1 false)
  call void @llvm.memcpy.p0.p0.i64(ptr align 8 %agg.tmp2, ptr align 8 %__last, i64 8, i1 false)
  call void @_ZSt19__iterator_categoryIN9__gnu_cxx17__normal_iteratorIPNSt7__cxx1112basic_stringIDsSt11char_traitsIDsESaIDsEEESt6vectorIS7_SaIS7_EEEEENSt15iterator_traitsIT_E17iterator_categoryERKSE_(ptr noundef nonnull align 8 dereferenceable(8) %__first)
  %coerce.dive4 = getelementptr inbounds %"class.__gnu_cxx::__normal_iterator", ptr %agg.tmp, i32 0, i32 0
  %0 = load ptr, ptr %coerce.dive4, align 8
  %coerce.dive5 = getelementptr inbounds %"class.__gnu_cxx::__normal_iterator", ptr %agg.tmp2, i32 0, i32 0
  %1 = load ptr, ptr %coerce.dive5, align 8
  call void @_ZSt9__reverseIN9__gnu_cxx17__normal_iteratorIPNSt7__cxx1112basic_stringIDsSt11char_traitsIDsESaIDsEEESt6vectorIS7_SaIS7_EEEEEvT_SD_St26random_access_iterator_tag(ptr %0, ptr %1)
  ret void
}

; Function Attrs: mustprogress nounwind uwtable
define linkonce_odr ptr @_ZNSt6vectorINSt7__cxx1112basic_stringIDsSt11char_traitsIDsESaIDsEEESaIS5_EE5beginEv(ptr noundef nonnull align 8 dereferenceable(24) %this) #0 comdat align 2 {
entry:
  %retval = alloca %"class.__gnu_cxx::__normal_iterator", align 8
  %this.addr = alloca ptr, align 8
  store ptr %this, ptr %this.addr, align 8
  %this1 = load ptr, ptr %this.addr, align 8
  %_M_impl = getelementptr inbounds %"struct.std::_Vector_base", ptr %this1, i32 0, i32 0
  %_M_start = getelementptr inbounds %"struct.std::_Vector_base<std::__cxx11::basic_string<char16_t>, std::allocator<std::__cxx11::basic_string<char16_t>>>::_Vector_impl_data", ptr %_M_impl, i32 0, i32 0
  call void @_ZN9__gnu_cxx17__normal_iteratorIPNSt7__cxx1112basic_stringIDsSt11char_traitsIDsESaIDsEEESt6vectorIS6_SaIS6_EEEC2ERKS7_(ptr noundef nonnull align 8 dereferenceable(8) %retval, ptr noundef nonnull align 8 dereferenceable(8) %_M_start) #7
  %coerce.dive = getelementptr inbounds %"class.__gnu_cxx::__normal_iterator", ptr %retval, i32 0, i32 0
  %0 = load ptr, ptr %coerce.dive, align 8
  ret ptr %0
}

; Function Attrs: mustprogress nounwind uwtable
define linkonce_odr ptr @_ZNSt6vectorINSt7__cxx1112basic_stringIDsSt11char_traitsIDsESaIDsEEESaIS5_EE3endEv(ptr noundef nonnull align 8 dereferenceable(24) %this) #0 comdat align 2 {
entry:
  %retval = alloca %"class.__gnu_cxx::__normal_iterator", align 8
  %this.addr = alloca ptr, align 8
  store ptr %this, ptr %this.addr, align 8
  %this1 = load ptr, ptr %this.addr, align 8
  %_M_impl = getelementptr inbounds %"struct.std::_Vector_base", ptr %this1, i32 0, i32 0
  %_M_finish = getelementptr inbounds %"struct.std::_Vector_base<std::__cxx11::basic_string<char16_t>, std::allocator<std::__cxx11::basic_string<char16_t>>>::_Vector_impl_data", ptr %_M_impl, i32 0, i32 1
  call void @_ZN9__gnu_cxx17__normal_iteratorIPNSt7__cxx1112basic_stringIDsSt11char_traitsIDsESaIDsEEESt6vectorIS6_SaIS6_EEEC2ERKS7_(ptr noundef nonnull align 8 dereferenceable(8) %retval, ptr noundef nonnull align 8 dereferenceable(8) %_M_finish) #7
  %coerce.dive = getelementptr inbounds %"class.__gnu_cxx::__normal_iterator", ptr %retval, i32 0, i32 0
  %0 = load ptr, ptr %coerce.dive, align 8
  ret ptr %0
}

; Function Attrs: mustprogress nounwind uwtable
define linkonce_odr noundef zeroext i1 @_ZN9__gnu_cxxneIPNSt7__cxx1112basic_stringIDsSt11char_traitsIDsESaIDsEEESt6vectorIS6_SaIS6_EEEEbRKNS_17__normal_iteratorIT_T0_EESG_(ptr noundef nonnull align 8 dereferenceable(8) %__lhs, ptr noundef nonnull align 8 dereferenceable(8) %__rhs) #0 comdat {
entry:
  %__lhs.addr = alloca ptr, align 8
  %__rhs.addr = alloca ptr, align 8
  store ptr %__lhs, ptr %__lhs.addr, align 8
  store ptr %__rhs, ptr %__rhs.addr, align 8
  %0 = load ptr, ptr %__lhs.addr, align 8
  %call = call noundef nonnull align 8 dereferenceable(8) ptr @_ZNK9__gnu_cxx17__normal_iteratorIPNSt7__cxx1112basic_stringIDsSt11char_traitsIDsESaIDsEEESt6vectorIS6_SaIS6_EEE4baseEv(ptr noundef nonnull align 8 dereferenceable(8) %0) #7
  %1 = load ptr, ptr %call, align 8
  %2 = load ptr, ptr %__rhs.addr, align 8
  %call1 = call noundef nonnull align 8 dereferenceable(8) ptr @_ZNK9__gnu_cxx17__normal_iteratorIPNSt7__cxx1112basic_stringIDsSt11char_traitsIDsESaIDsEEESt6vectorIS6_SaIS6_EEE4baseEv(ptr noundef nonnull align 8 dereferenceable(8) %2) #7
  %3 = load ptr, ptr %call1, align 8
  %cmp = icmp ne ptr %1, %3
  ret i1 %cmp
}

; Function Attrs: mustprogress nounwind uwtable
define linkonce_odr noundef nonnull align 8 dereferenceable(32) ptr @_ZNK9__gnu_cxx17__normal_iteratorIPNSt7__cxx1112basic_stringIDsSt11char_traitsIDsESaIDsEEESt6vectorIS6_SaIS6_EEEdeEv(ptr noundef nonnull align 8 dereferenceable(8) %this) #0 comdat align 2 {
entry:
  %this.addr = alloca ptr, align 8
  store ptr %this, ptr %this.addr, align 8
  %this1 = load ptr, ptr %this.addr, align 8
  %_M_current = getelementptr inbounds %"class.__gnu_cxx::__normal_iterator", ptr %this1, i32 0, i32 0
  %0 = load ptr, ptr %_M_current, align 8
  ret ptr %0
}

; Function Attrs: mustprogress nounwind uwtable
define linkonce_odr ptr @_ZNSt7__cxx1112basic_stringIDsSt11char_traitsIDsESaIDsEE5beginEv(ptr noundef nonnull align 8 dereferenceable(32) %this) #0 comdat align 2 {
entry:
  %retval = alloca %"class.__gnu_cxx::__normal_iterator.18", align 8
  %this.addr = alloca ptr, align 8
  %ref.tmp = alloca ptr, align 8
  store ptr %this, ptr %this.addr, align 8
  %this1 = load ptr, ptr %this.addr, align 8
  %call = call noundef ptr @_ZNKSt7__cxx1112basic_stringIDsSt11char_traitsIDsESaIDsEE7_M_dataEv(ptr noundef nonnull align 8 dereferenceable(32) %this1)
  store ptr %call, ptr %ref.tmp, align 8
  call void @_ZN9__gnu_cxx17__normal_iteratorIPDsNSt7__cxx1112basic_stringIDsSt11char_traitsIDsESaIDsEEEEC2ERKS1_(ptr noundef nonnull align 8 dereferenceable(8) %retval, ptr noundef nonnull align 8 dereferenceable(8) %ref.tmp) #7
  %coerce.dive = getelementptr inbounds %"class.__gnu_cxx::__normal_iterator.18", ptr %retval, i32 0, i32 0
  %0 = load ptr, ptr %coerce.dive, align 8
  ret ptr %0
}

; Function Attrs: mustprogress nounwind uwtable
define linkonce_odr ptr @_ZNSt7__cxx1112basic_stringIDsSt11char_traitsIDsESaIDsEE3endEv(ptr noundef nonnull align 8 dereferenceable(32) %this) #0 comdat align 2 {
entry:
  %retval = alloca %"class.__gnu_cxx::__normal_iterator.18", align 8
  %this.addr = alloca ptr, align 8
  %ref.tmp = alloca ptr, align 8
  store ptr %this, ptr %this.addr, align 8
  %this1 = load ptr, ptr %this.addr, align 8
  %call = call noundef ptr @_ZNKSt7__cxx1112basic_stringIDsSt11char_traitsIDsESaIDsEE7_M_dataEv(ptr noundef nonnull align 8 dereferenceable(32) %this1)
  %call2 = call noundef i64 @_ZNKSt7__cxx1112basic_stringIDsSt11char_traitsIDsESaIDsEE4sizeEv(ptr noundef nonnull align 8 dereferenceable(32) %this1) #7
  %add.ptr = getelementptr inbounds i16, ptr %call, i64 %call2
  store ptr %add.ptr, ptr %ref.tmp, align 8
  call void @_ZN9__gnu_cxx17__normal_iteratorIPDsNSt7__cxx1112basic_stringIDsSt11char_traitsIDsESaIDsEEEEC2ERKS1_(ptr noundef nonnull align 8 dereferenceable(8) %retval, ptr noundef nonnull align 8 dereferenceable(8) %ref.tmp) #7
  %coerce.dive = getelementptr inbounds %"class.__gnu_cxx::__normal_iterator.18", ptr %retval, i32 0, i32 0
  %0 = load ptr, ptr %coerce.dive, align 8
  ret ptr %0
}

; Function Attrs: mustprogress nounwind uwtable
define linkonce_odr noundef zeroext i1 @_ZN9__gnu_cxxneIPDsNSt7__cxx1112basic_stringIDsSt11char_traitsIDsESaIDsEEEEEbRKNS_17__normal_iteratorIT_T0_EESD_(ptr noundef nonnull align 8 dereferenceable(8) %__lhs, ptr noundef nonnull align 8 dereferenceable(8) %__rhs) #0 comdat {
entry:
  %__lhs.addr = alloca ptr, align 8
  %__rhs.addr = alloca ptr, align 8
  store ptr %__lhs, ptr %__lhs.addr, align 8
  store ptr %__rhs, ptr %__rhs.addr, align 8
  %0 = load ptr, ptr %__lhs.addr, align 8
  %call = call noundef nonnull align 8 dereferenceable(8) ptr @_ZNK9__gnu_cxx17__normal_iteratorIPDsNSt7__cxx1112basic_stringIDsSt11char_traitsIDsESaIDsEEEE4baseEv(ptr noundef nonnull align 8 dereferenceable(8) %0) #7
  %1 = load ptr, ptr %call, align 8
  %2 = load ptr, ptr %__rhs.addr, align 8
  %call1 = call noundef nonnull align 8 dereferenceable(8) ptr @_ZNK9__gnu_cxx17__normal_iteratorIPDsNSt7__cxx1112basic_stringIDsSt11char_traitsIDsESaIDsEEEE4baseEv(ptr noundef nonnull align 8 dereferenceable(8) %2) #7
  %3 = load ptr, ptr %call1, align 8
  %cmp = icmp ne ptr %1, %3
  ret i1 %cmp
}

; Function Attrs: mustprogress nounwind uwtable
define linkonce_odr noundef nonnull align 2 dereferenceable(2) ptr @_ZNK9__gnu_cxx17__normal_iteratorIPDsNSt7__cxx1112basic_stringIDsSt11char_traitsIDsESaIDsEEEEdeEv(ptr noundef nonnull align 8 dereferenceable(8) %this) #0 comdat align 2 {
entry:
  %this.addr = alloca ptr, align 8
  store ptr %this, ptr %this.addr, align 8
  %this1 = load ptr, ptr %this.addr, align 8
  %_M_current = getelementptr inbounds %"class.__gnu_cxx::__normal_iterator.18", ptr %this1, i32 0, i32 0
  %0 = load ptr, ptr %_M_current, align 8
  ret ptr %0
}

; Function Attrs: mustprogress nounwind uwtable
define linkonce_odr noundef nonnull align 8 dereferenceable(8) ptr @_ZN9__gnu_cxx17__normal_iteratorIPDsNSt7__cxx1112basic_stringIDsSt11char_traitsIDsESaIDsEEEEppEv(ptr noundef nonnull align 8 dereferenceable(8) %this) #0 comdat align 2 {
entry:
  %this.addr = alloca ptr, align 8
  store ptr %this, ptr %this.addr, align 8
  %this1 = load ptr, ptr %this.addr, align 8
  %_M_current = getelementptr inbounds %"class.__gnu_cxx::__normal_iterator.18", ptr %this1, i32 0, i32 0
  %0 = load ptr, ptr %_M_current, align 8
  %incdec.ptr = getelementptr inbounds i16, ptr %0, i32 1
  store ptr %incdec.ptr, ptr %_M_current, align 8
  ret ptr %this1
}

; Function Attrs: mustprogress nounwind uwtable
define linkonce_odr noundef nonnull align 8 dereferenceable(8) ptr @_ZN9__gnu_cxx17__normal_iteratorIPNSt7__cxx1112basic_stringIDsSt11char_traitsIDsESaIDsEEESt6vectorIS6_SaIS6_EEEppEv(ptr noundef nonnull align 8 dereferenceable(8) %this) #0 comdat align 2 {
entry:
  %this.addr = alloca ptr, align 8
  store ptr %this, ptr %this.addr, align 8
  %this1 = load ptr, ptr %this.addr, align 8
  %_M_current = getelementptr inbounds %"class.__gnu_cxx::__normal_iterator", ptr %this1, i32 0, i32 0
  %0 = load ptr, ptr %_M_current, align 8
  %incdec.ptr = getelementptr inbounds %"class.std::__cxx11::basic_string", ptr %0, i32 1
  store ptr %incdec.ptr, ptr %_M_current, align 8
  ret ptr %this1
}

; Function Attrs: mustprogress nounwind uwtable
define hidden void @_ZN6hermes13platform_intl17LanguageTagParser20parseUnicodeLocaleIdEv(ptr noalias sret(%"class.std::optional") align 8 %agg.result, ptr noundef nonnull align 8 dereferenceable(536) %this) #0 align 2 {
entry:
  %result.ptr = alloca ptr, align 8
  %this.addr = alloca ptr, align 8
  store ptr %agg.result, ptr %result.ptr, align 8
  store ptr %this, ptr %this.addr, align 8
  %this1 = load ptr, ptr %this.addr, align 8
  %call = call noundef zeroext i1 @_ZN6hermes13platform_intl17LanguageTagParser22parseUnicodeLanguageIdEb(ptr noundef nonnull align 8 dereferenceable(536) %this1, i1 noundef zeroext false)
  br i1 %call, label %if.end, label %if.then

if.then:                                          ; preds = %entry
  call void @_ZNSt8optionalIN6hermes13platform_intl22ParsedLocaleIdentifierEEC2Ev(ptr noundef nonnull align 8 dereferenceable(520) %agg.result) #7
  br label %return

if.end:                                           ; preds = %entry
  %call2 = call noundef zeroext i1 @_ZN6hermes13platform_intl17LanguageTagParser15parseExtensionsEv(ptr noundef nonnull align 8 dereferenceable(536) %this1)
  br i1 %call2, label %if.end4, label %if.then3

if.then3:                                         ; preds = %if.end
  call void @_ZNSt8optionalIN6hermes13platform_intl22ParsedLocaleIdentifierEEC2Ev(ptr noundef nonnull align 8 dereferenceable(520) %agg.result) #7
  br label %return

if.end4:                                          ; preds = %if.end
  %call5 = call noundef zeroext i1 @_ZNK6hermes13platform_intl17LanguageTagParser14hasMoreSubtagsEv(ptr noundef nonnull align 8 dereferenceable(536) %this1)
  br i1 %call5, label %if.then6, label %if.end7

if.then6:                                         ; preds = %if.end4
  call void @_ZNSt8optionalIN6hermes13platform_intl22ParsedLocaleIdentifierEEC2Ev(ptr noundef nonnull align 8 dereferenceable(520) %agg.result) #7
  br label %return

if.end7:                                          ; preds = %if.end4
  %result_ = getelementptr inbounds %"class.hermes::platform_intl::LanguageTagParser", ptr %this1, i32 0, i32 0
  call void @_ZNSt8optionalIN6hermes13platform_intl22ParsedLocaleIdentifierEEC2IRS2_TnNSt9enable_ifIX7__and_vISt6__not_ISt7is_sameIS3_NSt9remove_cvINSt16remove_referenceIT_E4typeEE4typeEEES7_IS8_ISt10in_place_tSF_EESt16is_constructibleIS2_JSB_EESt14is_convertibleISB_S2_EEEbE4typeELb1EEEOSB_(ptr noundef nonnull align 8 dereferenceable(520) %agg.result, ptr noundef nonnull align 8 dereferenceable(512) %result_)
  br label %return

return:                                           ; preds = %if.end7, %if.then6, %if.then3, %if.then
  ret void
}

; Function Attrs: mustprogress nounwind uwtable
define hidden noundef zeroext i1 @_ZN6hermes13platform_intl17LanguageTagParser22parseUnicodeLanguageIdEb(ptr noundef nonnull align 8 dereferenceable(536) %this, i1 noundef zeroext %transformedExtensionId) #0 align 2 {
entry:
  %retval = alloca i1, align 1
  %this.addr = alloca ptr, align 8
  %transformedExtensionId.addr = alloca i8, align 1
  %languageId = alloca ptr, align 8
  %ref.tmp = alloca %"struct.std::pair", align 8
  store ptr %this, ptr %this.addr, align 8
  %frombool = zext i1 %transformedExtensionId to i8
  store i8 %frombool, ptr %transformedExtensionId.addr, align 1
  %this1 = load ptr, ptr %this.addr, align 8
  %0 = load i8, ptr %transformedExtensionId.addr, align 1
  %tobool = trunc i8 %0 to i1
  br i1 %tobool, label %if.end, label %land.lhs.true

land.lhs.true:                                    ; preds = %entry
  %call = call noundef nonnull align 8 dereferenceable(32) ptr @_ZNK6hermes13platform_intl17LanguageTagParser16getCurrentSubtagB5cxx11Ev(ptr noundef nonnull align 8 dereferenceable(536) %this1)
  %call2 = call noundef zeroext i1 @_ZN6hermes13platform_intl12_GLOBAL__N_123isUnicodeLanguageSubtagERKNSt7__cxx1112basic_stringIDsSt11char_traitsIDsESaIDsEEE(ptr noundef nonnull align 8 dereferenceable(32) %call)
  br i1 %call2, label %if.end, label %if.then

if.then:                                          ; preds = %land.lhs.true
  store i1 false, ptr %retval, align 1
  br label %return

if.end:                                           ; preds = %land.lhs.true, %entry
  %1 = load i8, ptr %transformedExtensionId.addr, align 1
  %tobool3 = trunc i8 %1 to i1
  br i1 %tobool3, label %cond.true, label %cond.false

cond.true:                                        ; preds = %if.end
  %result_ = getelementptr inbounds %"class.hermes::platform_intl::LanguageTagParser", ptr %this1, i32 0, i32 0
  %transformedLanguageIdentifier = getelementptr inbounds %"struct.hermes::platform_intl::ParsedLocaleIdentifier", ptr %result_, i32 0, i32 3
  br label %cond.end

cond.false:                                       ; preds = %if.end
  %result_4 = getelementptr inbounds %"class.hermes::platform_intl::LanguageTagParser", ptr %this1, i32 0, i32 0
  %languageIdentifier = getelementptr inbounds %"struct.hermes::platform_intl::ParsedLocaleIdentifier", ptr %result_4, i32 0, i32 0
  br label %cond.end

cond.end:                                         ; preds = %cond.false, %cond.true
  %cond-lvalue = phi ptr [ %transformedLanguageIdentifier, %cond.true ], [ %languageIdentifier, %cond.false ]
  store ptr %cond-lvalue, ptr %languageId, align 8
  %call5 = call noundef nonnull align 8 dereferenceable(32) ptr @_ZNK6hermes13platform_intl17LanguageTagParser16getCurrentSubtagB5cxx11Ev(ptr noundef nonnull align 8 dereferenceable(536) %this1)
  %2 = load ptr, ptr %languageId, align 8
  %languageSubtag = getelementptr inbounds %"struct.hermes::platform_intl::ParsedLocaleIdentifier::ParsedLanguageIdentifier", ptr %2, i32 0, i32 0
  %call6 = call noundef nonnull align 8 dereferenceable(32) ptr @_ZNSt7__cxx1112basic_stringIDsSt11char_traitsIDsESaIDsEEaSERKS4_(ptr noundef nonnull align 8 dereferenceable(32) %languageSubtag, ptr noundef nonnull align 8 dereferenceable(32) %call5)
  %call7 = call noundef zeroext i1 @_ZN6hermes13platform_intl17LanguageTagParser10nextSubtagEv(ptr noundef nonnull align 8 dereferenceable(536) %this1)
  br i1 %call7, label %if.end9, label %if.then8

if.then8:                                         ; preds = %cond.end
  store i1 true, ptr %retval, align 1
  br label %return

if.end9:                                          ; preds = %cond.end
  %call10 = call noundef nonnull align 8 dereferenceable(32) ptr @_ZNK6hermes13platform_intl17LanguageTagParser16getCurrentSubtagB5cxx11Ev(ptr noundef nonnull align 8 dereferenceable(536) %this1)
  %call11 = call noundef zeroext i1 @_ZN6hermes13platform_intl12_GLOBAL__N_121isUnicodeScriptSubtagERKNSt7__cxx1112basic_stringIDsSt11char_traitsIDsESaIDsEEE(ptr noundef nonnull align 8 dereferenceable(32) %call10)
  br i1 %call11, label %if.then12, label %if.end18

if.then12:                                        ; preds = %if.end9
  %call13 = call noundef nonnull align 8 dereferenceable(32) ptr @_ZNK6hermes13platform_intl17LanguageTagParser16getCurrentSubtagB5cxx11Ev(ptr noundef nonnull align 8 dereferenceable(536) %this1)
  %3 = load ptr, ptr %languageId, align 8
  %scriptSubtag = getelementptr inbounds %"struct.hermes::platform_intl::ParsedLocaleIdentifier::ParsedLanguageIdentifier", ptr %3, i32 0, i32 1
  %call14 = call noundef nonnull align 8 dereferenceable(32) ptr @_ZNSt7__cxx1112basic_stringIDsSt11char_traitsIDsESaIDsEEaSERKS4_(ptr noundef nonnull align 8 dereferenceable(32) %scriptSubtag, ptr noundef nonnull align 8 dereferenceable(32) %call13)
  %call15 = call noundef zeroext i1 @_ZN6hermes13platform_intl17LanguageTagParser10nextSubtagEv(ptr noundef nonnull align 8 dereferenceable(536) %this1)
  br i1 %call15, label %if.end17, label %if.then16

if.then16:                                        ; preds = %if.then12
  store i1 true, ptr %retval, align 1
  br label %return

if.end17:                                         ; preds = %if.then12
  br label %if.end18

if.end18:                                         ; preds = %if.end17, %if.end9
  %call19 = call noundef nonnull align 8 dereferenceable(32) ptr @_ZNK6hermes13platform_intl17LanguageTagParser16getCurrentSubtagB5cxx11Ev(ptr noundef nonnull align 8 dereferenceable(536) %this1)
  %call20 = call noundef zeroext i1 @_ZN6hermes13platform_intl12_GLOBAL__N_121isUnicodeRegionSubtagERKNSt7__cxx1112basic_stringIDsSt11char_traitsIDsESaIDsEEE(ptr noundef nonnull align 8 dereferenceable(32) %call19)
  br i1 %call20, label %if.then21, label %if.end27

if.then21:                                        ; preds = %if.end18
  %call22 = call noundef nonnull align 8 dereferenceable(32) ptr @_ZNK6hermes13platform_intl17LanguageTagParser16getCurrentSubtagB5cxx11Ev(ptr noundef nonnull align 8 dereferenceable(536) %this1)
  %4 = load ptr, ptr %languageId, align 8
  %regionSubtag = getelementptr inbounds %"struct.hermes::platform_intl::ParsedLocaleIdentifier::ParsedLanguageIdentifier", ptr %4, i32 0, i32 2
  %call23 = call noundef nonnull align 8 dereferenceable(32) ptr @_ZNSt7__cxx1112basic_stringIDsSt11char_traitsIDsESaIDsEEaSERKS4_(ptr noundef nonnull align 8 dereferenceable(32) %regionSubtag, ptr noundef nonnull align 8 dereferenceable(32) %call22)
  %call24 = call noundef zeroext i1 @_ZN6hermes13platform_intl17LanguageTagParser10nextSubtagEv(ptr noundef nonnull align 8 dereferenceable(536) %this1)
  br i1 %call24, label %if.end26, label %if.then25

if.then25:                                        ; preds = %if.then21
  store i1 true, ptr %retval, align 1
  br label %return

if.end26:                                         ; preds = %if.then21
  br label %if.end27

if.end27:                                         ; preds = %if.end26, %if.end18
  br label %while.cond

while.cond:                                       ; preds = %if.end37, %if.end27
  %call28 = call noundef nonnull align 8 dereferenceable(32) ptr @_ZNK6hermes13platform_intl17LanguageTagParser16getCurrentSubtagB5cxx11Ev(ptr noundef nonnull align 8 dereferenceable(536) %this1)
  %call29 = call noundef zeroext i1 @_ZN6hermes13platform_intl12_GLOBAL__N_122isUnicodeVariantSubtagERKNSt7__cxx1112basic_stringIDsSt11char_traitsIDsESaIDsEEE(ptr noundef nonnull align 8 dereferenceable(32) %call28)
  br i1 %call29, label %while.body, label %while.end

while.body:                                       ; preds = %while.cond
  %5 = load ptr, ptr %languageId, align 8
  %variantSubtagList = getelementptr inbounds %"struct.hermes::platform_intl::ParsedLocaleIdentifier::ParsedLanguageIdentifier", ptr %5, i32 0, i32 3
  %call30 = call noundef nonnull align 8 dereferenceable(32) ptr @_ZNK6hermes13platform_intl17LanguageTagParser16getCurrentSubtagB5cxx11Ev(ptr noundef nonnull align 8 dereferenceable(536) %this1)
  %call31 = call { ptr, i8 } @_ZNSt3setINSt7__cxx1112basic_stringIDsSt11char_traitsIDsESaIDsEEESt4lessIS5_ESaIS5_EE6insertERKS5_(ptr noundef nonnull align 8 dereferenceable(48) %variantSubtagList, ptr noundef nonnull align 8 dereferenceable(32) %call30)
  %6 = getelementptr inbounds { ptr, i8 }, ptr %ref.tmp, i32 0, i32 0
  %7 = extractvalue { ptr, i8 } %call31, 0
  store ptr %7, ptr %6, align 8
  %8 = getelementptr inbounds { ptr, i8 }, ptr %ref.tmp, i32 0, i32 1
  %9 = extractvalue { ptr, i8 } %call31, 1
  store i8 %9, ptr %8, align 8
  %second = getelementptr inbounds %"struct.std::pair", ptr %ref.tmp, i32 0, i32 1
  %10 = load i8, ptr %second, align 8
  %tobool32 = trunc i8 %10 to i1
  %lnot = xor i1 %tobool32, true
  br i1 %lnot, label %if.then33, label %if.end34

if.then33:                                        ; preds = %while.body
  store i1 false, ptr %retval, align 1
  br label %return

if.end34:                                         ; preds = %while.body
  %call35 = call noundef zeroext i1 @_ZN6hermes13platform_intl17LanguageTagParser10nextSubtagEv(ptr noundef nonnull align 8 dereferenceable(536) %this1)
  br i1 %call35, label %if.end37, label %if.then36

if.then36:                                        ; preds = %if.end34
  store i1 true, ptr %retval, align 1
  br label %return

if.end37:                                         ; preds = %if.end34
  br label %while.cond, !llvm.loop !6

while.end:                                        ; preds = %while.cond
  store i1 true, ptr %retval, align 1
  br label %return

return:                                           ; preds = %while.end, %if.then36, %if.then33, %if.then25, %if.then16, %if.then8, %if.then
  %11 = load i1, ptr %retval, align 1
  ret i1 %11
}

; Function Attrs: mustprogress nounwind uwtable
define linkonce_odr hidden void @_ZNSt8optionalIN6hermes13platform_intl22ParsedLocaleIdentifierEEC2Ev(ptr noundef nonnull align 8 dereferenceable(520) %this) unnamed_addr #0 comdat align 2 {
entry:
  %this.addr = alloca ptr, align 8
  store ptr %this, ptr %this.addr, align 8
  %this1 = load ptr, ptr %this.addr, align 8
  call void @_ZNSt14_Optional_baseIN6hermes13platform_intl22ParsedLocaleIdentifierELb0ELb0EEC2Ev(ptr noundef nonnull align 8 dereferenceable(520) %this1) #7
  ret void
}

; Function Attrs: mustprogress nounwind uwtable
define hidden noundef zeroext i1 @_ZN6hermes13platform_intl17LanguageTagParser15parseExtensionsEv(ptr noundef nonnull align 8 dereferenceable(536) %this) #0 align 2 {
entry:
  %retval = alloca i1, align 1
  %this.addr = alloca ptr, align 8
  %singleton = alloca i16, align 2
  store ptr %this, ptr %this.addr, align 8
  %this1 = load ptr, ptr %this.addr, align 8
  br label %while.cond

while.cond:                                       ; preds = %sw.epilog, %entry
  %call = call noundef zeroext i1 @_ZNK6hermes13platform_intl17LanguageTagParser14hasMoreSubtagsEv(ptr noundef nonnull align 8 dereferenceable(536) %this1)
  br i1 %call, label %land.rhs, label %land.end

land.rhs:                                         ; preds = %while.cond
  %call2 = call noundef nonnull align 8 dereferenceable(32) ptr @_ZNK6hermes13platform_intl17LanguageTagParser16getCurrentSubtagB5cxx11Ev(ptr noundef nonnull align 8 dereferenceable(536) %this1)
  %call3 = call noundef i64 @_ZNKSt7__cxx1112basic_stringIDsSt11char_traitsIDsESaIDsEE4sizeEv(ptr noundef nonnull align 8 dereferenceable(32) %call2) #7
  %cmp = icmp eq i64 %call3, 1
  br label %land.end

land.end:                                         ; preds = %land.rhs, %while.cond
  %0 = phi i1 [ false, %while.cond ], [ %cmp, %land.rhs ]
  br i1 %0, label %while.body, label %while.end

while.body:                                       ; preds = %land.end
  %call4 = call noundef nonnull align 8 dereferenceable(32) ptr @_ZNK6hermes13platform_intl17LanguageTagParser16getCurrentSubtagB5cxx11Ev(ptr noundef nonnull align 8 dereferenceable(536) %this1)
  %call5 = call noundef nonnull align 2 dereferenceable(2) ptr @_ZNKSt7__cxx1112basic_stringIDsSt11char_traitsIDsESaIDsEEixEm(ptr noundef nonnull align 8 dereferenceable(32) %call4, i64 noundef 0) #7
  %1 = load i16, ptr %call5, align 2
  store i16 %1, ptr %singleton, align 2
  %2 = load i16, ptr %singleton, align 2
  %call6 = call noundef zeroext i1 @_ZN6hermes13platform_intl12_GLOBAL__N_120isASCIILetterOrDigitEDs(i16 noundef zeroext %2)
  br i1 %call6, label %if.end, label %if.then

if.then:                                          ; preds = %while.body
  store i1 true, ptr %retval, align 1
  br label %return

if.end:                                           ; preds = %while.body
  %call7 = call noundef zeroext i1 @_ZN6hermes13platform_intl17LanguageTagParser10nextSubtagEv(ptr noundef nonnull align 8 dereferenceable(536) %this1)
  br i1 %call7, label %if.end9, label %if.then8

if.then8:                                         ; preds = %if.end
  store i1 false, ptr %retval, align 1
  br label %return

if.end9:                                          ; preds = %if.end
  %3 = load i16, ptr %singleton, align 2
  %conv = zext i16 %3 to i32
  switch i32 %conv, label %sw.default [
    i32 117, label %sw.bb
    i32 116, label %sw.bb13
    i32 120, label %sw.bb17
  ]

sw.bb:                                            ; preds = %if.end9
  %call10 = call noundef zeroext i1 @_ZN6hermes13platform_intl17LanguageTagParser21parseUnicodeExtensionEv(ptr noundef nonnull align 8 dereferenceable(536) %this1)
  br i1 %call10, label %if.end12, label %if.then11

if.then11:                                        ; preds = %sw.bb
  store i1 false, ptr %retval, align 1
  br label %return

if.end12:                                         ; preds = %sw.bb
  br label %sw.epilog

sw.bb13:                                          ; preds = %if.end9
  %call14 = call noundef zeroext i1 @_ZN6hermes13platform_intl17LanguageTagParser25parseTransformedExtensionEv(ptr noundef nonnull align 8 dereferenceable(536) %this1)
  br i1 %call14, label %if.end16, label %if.then15

if.then15:                                        ; preds = %sw.bb13
  store i1 false, ptr %retval, align 1
  br label %return

if.end16:                                         ; preds = %sw.bb13
  br label %sw.epilog

sw.bb17:                                          ; preds = %if.end9
  %call18 = call noundef zeroext i1 @_ZN6hermes13platform_intl17LanguageTagParser16parsePUExtensionEv(ptr noundef nonnull align 8 dereferenceable(536) %this1)
  store i1 %call18, ptr %retval, align 1
  br label %return

sw.default:                                       ; preds = %if.end9
  %4 = load i16, ptr %singleton, align 2
  %call19 = call noundef zeroext i1 @_ZN6hermes13platform_intl17LanguageTagParser19parseOtherExtensionEDs(ptr noundef nonnull align 8 dereferenceable(536) %this1, i16 noundef zeroext %4)
  br i1 %call19, label %if.end21, label %if.then20

if.then20:                                        ; preds = %sw.default
  store i1 false, ptr %retval, align 1
  br label %return

if.end21:                                         ; preds = %sw.default
  br label %sw.epilog

sw.epilog:                                        ; preds = %if.end21, %if.end16, %if.end12
  br label %while.cond, !llvm.loop !7

while.end:                                        ; preds = %land.end
  store i1 true, ptr %retval, align 1
  br label %return

return:                                           ; preds = %while.end, %if.then20, %sw.bb17, %if.then15, %if.then11, %if.then8, %if.then
  %5 = load i1, ptr %retval, align 1
  ret i1 %5
}

; Function Attrs: mustprogress nounwind uwtable
define hidden noundef zeroext i1 @_ZNK6hermes13platform_intl17LanguageTagParser14hasMoreSubtagsEv(ptr noundef nonnull align 8 dereferenceable(536) %this) #0 align 2 {
entry:
  %this.addr = alloca ptr, align 8
  store ptr %this, ptr %this.addr, align 8
  %this1 = load ptr, ptr %this.addr, align 8
  %subtags_ = getelementptr inbounds %"class.hermes::platform_intl::LanguageTagParser", ptr %this1, i32 0, i32 1
  %call = call noundef zeroext i1 @_ZNKSt6vectorINSt7__cxx1112basic_stringIDsSt11char_traitsIDsESaIDsEEESaIS5_EE5emptyEv(ptr noundef nonnull align 8 dereferenceable(24) %subtags_) #7
  %lnot = xor i1 %call, true
  ret i1 %lnot
}

; Function Attrs: mustprogress nounwind uwtable
define linkonce_odr hidden void @_ZNSt8optionalIN6hermes13platform_intl22ParsedLocaleIdentifierEEC2IRS2_TnNSt9enable_ifIX7__and_vISt6__not_ISt7is_sameIS3_NSt9remove_cvINSt16remove_referenceIT_E4typeEE4typeEEES7_IS8_ISt10in_place_tSF_EESt16is_constructibleIS2_JSB_EESt14is_convertibleISB_S2_EEEbE4typeELb1EEEOSB_(ptr noundef nonnull align 8 dereferenceable(520) %this, ptr noundef nonnull align 8 dereferenceable(512) %__t) unnamed_addr #0 comdat align 2 {
entry:
  %this.addr = alloca ptr, align 8
  %__t.addr = alloca ptr, align 8
  store ptr %this, ptr %this.addr, align 8
  store ptr %__t, ptr %__t.addr, align 8
  %this1 = load ptr, ptr %this.addr, align 8
  %0 = load ptr, ptr %__t.addr, align 8
  call void @_ZNSt14_Optional_baseIN6hermes13platform_intl22ParsedLocaleIdentifierELb0ELb0EEC2IJRS2_ETnNSt9enable_ifIX18is_constructible_vIS2_DpT_EEbE4typeELb0EEESt10in_place_tDpOS7_(ptr noundef nonnull align 8 dereferenceable(520) %this1, ptr noundef nonnull align 8 dereferenceable(512) %0)
  ret void
}

; Function Attrs: mustprogress nounwind uwtable
define internal noundef zeroext i1 @_ZN6hermes13platform_intl12_GLOBAL__N_123isUnicodeLanguageSubtagERKNSt7__cxx1112basic_stringIDsSt11char_traitsIDsESaIDsEEE(ptr noundef nonnull align 8 dereferenceable(32) %subtag) #0 {
entry:
  %subtag.addr = alloca ptr, align 8
  store ptr %subtag, ptr %subtag.addr, align 8
  %0 = load ptr, ptr %subtag.addr, align 8
  %call = call noundef zeroext i1 @_ZN6hermes13platform_intl12_GLOBAL__N_110isCharTypeIPFbDsEEEbRKNSt7__cxx1112basic_stringIDsSt11char_traitsIDsESaIDsEEEmmT_(ptr noundef nonnull align 8 dereferenceable(32) %0, i64 noundef 2, i64 noundef 3, ptr noundef @_ZN6hermes13platform_intl12_GLOBAL__N_113isASCIILetterEDs)
  br i1 %call, label %lor.end, label %lor.rhs

lor.rhs:                                          ; preds = %entry
  %1 = load ptr, ptr %subtag.addr, align 8
  %call1 = call noundef zeroext i1 @_ZN6hermes13platform_intl12_GLOBAL__N_110isCharTypeIPFbDsEEEbRKNSt7__cxx1112basic_stringIDsSt11char_traitsIDsESaIDsEEEmmT_(ptr noundef nonnull align 8 dereferenceable(32) %1, i64 noundef 5, i64 noundef 8, ptr noundef @_ZN6hermes13platform_intl12_GLOBAL__N_113isASCIILetterEDs)
  br label %lor.end

lor.end:                                          ; preds = %lor.rhs, %entry
  %2 = phi i1 [ true, %entry ], [ %call1, %lor.rhs ]
  ret i1 %2
}

; Function Attrs: mustprogress nounwind uwtable
define hidden noundef nonnull align 8 dereferenceable(32) ptr @_ZNK6hermes13platform_intl17LanguageTagParser16getCurrentSubtagB5cxx11Ev(ptr noundef nonnull align 8 dereferenceable(536) %this) #0 align 2 {
entry:
  %this.addr = alloca ptr, align 8
  store ptr %this, ptr %this.addr, align 8
  %this1 = load ptr, ptr %this.addr, align 8
  %subtags_ = getelementptr inbounds %"class.hermes::platform_intl::LanguageTagParser", ptr %this1, i32 0, i32 1
  %call = call noundef nonnull align 8 dereferenceable(32) ptr @_ZNKSt6vectorINSt7__cxx1112basic_stringIDsSt11char_traitsIDsESaIDsEEESaIS5_EE4backEv(ptr noundef nonnull align 8 dereferenceable(24) %subtags_) #7
  ret ptr %call
}

; Function Attrs: mustprogress nounwind uwtable
define linkonce_odr noundef nonnull align 8 dereferenceable(32) ptr @_ZNSt7__cxx1112basic_stringIDsSt11char_traitsIDsESaIDsEEaSERKS4_(ptr noundef nonnull align 8 dereferenceable(32) %this, ptr noundef nonnull align 8 dereferenceable(32) %__str) #0 comdat align 2 {
entry:
  %this.addr = alloca ptr, align 8
  %__str.addr = alloca ptr, align 8
  store ptr %this, ptr %this.addr, align 8
  store ptr %__str, ptr %__str.addr, align 8
  %this1 = load ptr, ptr %this.addr, align 8
  %0 = load ptr, ptr %__str.addr, align 8
  %call = call noundef nonnull align 8 dereferenceable(32) ptr @_ZNSt7__cxx1112basic_stringIDsSt11char_traitsIDsESaIDsEE6assignERKS4_(ptr noundef nonnull align 8 dereferenceable(32) %this1, ptr noundef nonnull align 8 dereferenceable(32) %0)
  ret ptr %call
}

; Function Attrs: mustprogress nounwind uwtable
define hidden noundef zeroext i1 @_ZN6hermes13platform_intl17LanguageTagParser10nextSubtagEv(ptr noundef nonnull align 8 dereferenceable(536) %this) #0 align 2 {
entry:
  %this.addr = alloca ptr, align 8
  store ptr %this, ptr %this.addr, align 8
  %this1 = load ptr, ptr %this.addr, align 8
  %subtags_ = getelementptr inbounds %"class.hermes::platform_intl::LanguageTagParser", ptr %this1, i32 0, i32 1
  call void @_ZNSt6vectorINSt7__cxx1112basic_stringIDsSt11char_traitsIDsESaIDsEEESaIS5_EE8pop_backEv(ptr noundef nonnull align 8 dereferenceable(24) %subtags_) #7
  %call = call noundef zeroext i1 @_ZNK6hermes13platform_intl17LanguageTagParser14hasMoreSubtagsEv(ptr noundef nonnull align 8 dereferenceable(536) %this1)
  ret i1 %call
}

; Function Attrs: mustprogress nounwind uwtable
define internal noundef zeroext i1 @_ZN6hermes13platform_intl12_GLOBAL__N_121isUnicodeScriptSubtagERKNSt7__cxx1112basic_stringIDsSt11char_traitsIDsESaIDsEEE(ptr noundef nonnull align 8 dereferenceable(32) %subtag) #0 {
entry:
  %subtag.addr = alloca ptr, align 8
  store ptr %subtag, ptr %subtag.addr, align 8
  %0 = load ptr, ptr %subtag.addr, align 8
  %call = call noundef zeroext i1 @_ZN6hermes13platform_intl12_GLOBAL__N_110isCharTypeIPFbDsEEEbRKNSt7__cxx1112basic_stringIDsSt11char_traitsIDsESaIDsEEEmmT_(ptr noundef nonnull align 8 dereferenceable(32) %0, i64 noundef 4, i64 noundef 4, ptr noundef @_ZN6hermes13platform_intl12_GLOBAL__N_113isASCIILetterEDs)
  ret i1 %call
}

; Function Attrs: mustprogress nounwind uwtable
define internal noundef zeroext i1 @_ZN6hermes13platform_intl12_GLOBAL__N_121isUnicodeRegionSubtagERKNSt7__cxx1112basic_stringIDsSt11char_traitsIDsESaIDsEEE(ptr noundef nonnull align 8 dereferenceable(32) %subtag) #0 {
entry:
  %subtag.addr = alloca ptr, align 8
  store ptr %subtag, ptr %subtag.addr, align 8
  %0 = load ptr, ptr %subtag.addr, align 8
  %call = call noundef zeroext i1 @_ZN6hermes13platform_intl12_GLOBAL__N_110isCharTypeIPFbDsEEEbRKNSt7__cxx1112basic_stringIDsSt11char_traitsIDsESaIDsEEEmmT_(ptr noundef nonnull align 8 dereferenceable(32) %0, i64 noundef 2, i64 noundef 2, ptr noundef @_ZN6hermes13platform_intl12_GLOBAL__N_113isASCIILetterEDs)
  br i1 %call, label %lor.end, label %lor.rhs

lor.rhs:                                          ; preds = %entry
  %1 = load ptr, ptr %subtag.addr, align 8
  %call1 = call noundef zeroext i1 @_ZN6hermes13platform_intl12_GLOBAL__N_110isCharTypeIPFbDsEEEbRKNSt7__cxx1112basic_stringIDsSt11char_traitsIDsESaIDsEEEmmT_(ptr noundef nonnull align 8 dereferenceable(32) %1, i64 noundef 3, i64 noundef 3, ptr noundef @_ZN6hermes13platform_intl12_GLOBAL__N_112isASCIIDigitEDs)
  br label %lor.end

lor.end:                                          ; preds = %lor.rhs, %entry
  %2 = phi i1 [ true, %entry ], [ %call1, %lor.rhs ]
  ret i1 %2
}

; Function Attrs: mustprogress nounwind uwtable
define internal noundef zeroext i1 @_ZN6hermes13platform_intl12_GLOBAL__N_122isUnicodeVariantSubtagERKNSt7__cxx1112basic_stringIDsSt11char_traitsIDsESaIDsEEE(ptr noundef nonnull align 8 dereferenceable(32) %subtag) #0 {
entry:
  %subtag.addr = alloca ptr, align 8
  store ptr %subtag, ptr %subtag.addr, align 8
  %0 = load ptr, ptr %subtag.addr, align 8
  %call = call noundef zeroext i1 @_ZN6hermes13platform_intl12_GLOBAL__N_110isCharTypeIPFbDsEEEbRKNSt7__cxx1112basic_stringIDsSt11char_traitsIDsESaIDsEEEmmT_(ptr noundef nonnull align 8 dereferenceable(32) %0, i64 noundef 5, i64 noundef 8, ptr noundef @_ZN6hermes13platform_intl12_GLOBAL__N_120isASCIILetterOrDigitEDs)
  br i1 %call, label %lor.end, label %lor.rhs

lor.rhs:                                          ; preds = %entry
  %1 = load ptr, ptr %subtag.addr, align 8
  %call1 = call noundef zeroext i1 @_ZN6hermes13platform_intl12_GLOBAL__N_110isCharTypeIPFbDsEEEbRKNSt7__cxx1112basic_stringIDsSt11char_traitsIDsESaIDsEEEmmT_(ptr noundef nonnull align 8 dereferenceable(32) %1, i64 noundef 3, i64 noundef 3, ptr noundef @_ZN6hermes13platform_intl12_GLOBAL__N_120isASCIILetterOrDigitEDs)
  br label %lor.end

lor.end:                                          ; preds = %lor.rhs, %entry
  %2 = phi i1 [ true, %entry ], [ %call1, %lor.rhs ]
  ret i1 %2
}

; Function Attrs: mustprogress nounwind uwtable
define linkonce_odr { ptr, i8 } @_ZNSt3setINSt7__cxx1112basic_stringIDsSt11char_traitsIDsESaIDsEEESt4lessIS5_ESaIS5_EE6insertERKS5_(ptr noundef nonnull align 8 dereferenceable(48) %this, ptr noundef nonnull align 8 dereferenceable(32) %__x) #0 comdat align 2 {
entry:
  %retval = alloca %"struct.std::pair", align 8
  %this.addr = alloca ptr, align 8
  %__x.addr = alloca ptr, align 8
  %__p = alloca %"struct.std::pair.42", align 8
  store ptr %this, ptr %this.addr, align 8
  store ptr %__x, ptr %__x.addr, align 8
  %this1 = load ptr, ptr %this.addr, align 8
  %_M_t = getelementptr inbounds %"class.std::set", ptr %this1, i32 0, i32 0
  %0 = load ptr, ptr %__x.addr, align 8
  %call = call { ptr, i8 } @_ZNSt8_Rb_treeINSt7__cxx1112basic_stringIDsSt11char_traitsIDsESaIDsEEES5_St9_IdentityIS5_ESt4lessIS5_ESaIS5_EE16_M_insert_uniqueIRKS5_EESt4pairISt17_Rb_tree_iteratorIS5_EbEOT_(ptr noundef nonnull align 8 dereferenceable(48) %_M_t, ptr noundef nonnull align 8 dereferenceable(32) %0)
  %1 = getelementptr inbounds { ptr, i8 }, ptr %__p, i32 0, i32 0
  %2 = extractvalue { ptr, i8 } %call, 0
  store ptr %2, ptr %1, align 8
  %3 = getelementptr inbounds { ptr, i8 }, ptr %__p, i32 0, i32 1
  %4 = extractvalue { ptr, i8 } %call, 1
  store i8 %4, ptr %3, align 8
  %first = getelementptr inbounds %"struct.std::pair.42", ptr %__p, i32 0, i32 0
  %second = getelementptr inbounds %"struct.std::pair.42", ptr %__p, i32 0, i32 1
  call void @_ZNSt4pairISt23_Rb_tree_const_iteratorINSt7__cxx1112basic_stringIDsSt11char_traitsIDsESaIDsEEEEbEC2IRSt17_Rb_tree_iteratorIS6_ERbTnNSt9enable_ifIXaaclsr5_PCCPE22_MoveConstructiblePairIT_T0_EEclsr5_PCCPE30_ImplicitlyMoveConvertiblePairISF_SG_EEEbE4typeELb1EEEOSF_OSG_(ptr noundef nonnull align 8 dereferenceable(9) %retval, ptr noundef nonnull align 8 dereferenceable(8) %first, ptr noundef nonnull align 1 dereferenceable(1) %second)
  %5 = load { ptr, i8 }, ptr %retval, align 8
  ret { ptr, i8 } %5
}

; Function Attrs: mustprogress nounwind uwtable
define linkonce_odr noundef i64 @_ZNKSt7__cxx1112basic_stringIDsSt11char_traitsIDsESaIDsEE4sizeEv(ptr noundef nonnull align 8 dereferenceable(32) %this) #0 comdat align 2 {
entry:
  %this.addr = alloca ptr, align 8
  store ptr %this, ptr %this.addr, align 8
  %this1 = load ptr, ptr %this.addr, align 8
  %_M_string_length = getelementptr inbounds %"class.std::__cxx11::basic_string", ptr %this1, i32 0, i32 1
  %0 = load i64, ptr %_M_string_length, align 8
  ret i64 %0
}

; Function Attrs: mustprogress nounwind uwtable
define linkonce_odr noundef nonnull align 2 dereferenceable(2) ptr @_ZNKSt7__cxx1112basic_stringIDsSt11char_traitsIDsESaIDsEEixEm(ptr noundef nonnull align 8 dereferenceable(32) %this, i64 noundef %__pos) #0 comdat align 2 {
entry:
  %this.addr = alloca ptr, align 8
  %__pos.addr = alloca i64, align 8
  store ptr %this, ptr %this.addr, align 8
  store i64 %__pos, ptr %__pos.addr, align 8
  %this1 = load ptr, ptr %this.addr, align 8
  br label %do.body

do.body:                                          ; preds = %entry
  br label %do.end

do.end:                                           ; preds = %do.body
  %call = call noundef ptr @_ZNKSt7__cxx1112basic_stringIDsSt11char_traitsIDsESaIDsEE7_M_dataEv(ptr noundef nonnull align 8 dereferenceable(32) %this1)
  %0 = load i64, ptr %__pos.addr, align 8
  %arrayidx = getelementptr inbounds i16, ptr %call, i64 %0
  ret ptr %arrayidx
}

; Function Attrs: mustprogress nounwind uwtable
define internal noundef zeroext i1 @_ZN6hermes13platform_intl12_GLOBAL__N_120isASCIILetterOrDigitEDs(i16 noundef zeroext %c) #0 {
entry:
  %c.addr = alloca i16, align 2
  store i16 %c, ptr %c.addr, align 2
  %0 = load i16, ptr %c.addr, align 2
  %call = call noundef zeroext i1 @_ZN6hermes13platform_intl12_GLOBAL__N_113isASCIILetterEDs(i16 noundef zeroext %0)
  br i1 %call, label %lor.end, label %lor.rhs

lor.rhs:                                          ; preds = %entry
  %1 = load i16, ptr %c.addr, align 2
  %call1 = call noundef zeroext i1 @_ZN6hermes13platform_intl12_GLOBAL__N_112isASCIIDigitEDs(i16 noundef zeroext %1)
  br label %lor.end

lor.end:                                          ; preds = %lor.rhs, %entry
  %2 = phi i1 [ true, %entry ], [ %call1, %lor.rhs ]
  ret i1 %2
}

; Function Attrs: mustprogress nounwind uwtable
define hidden noundef zeroext i1 @_ZN6hermes13platform_intl17LanguageTagParser21parseUnicodeExtensionEv(ptr noundef nonnull align 8 dereferenceable(536) %this) #0 align 2 {
entry:
  %retval = alloca i1, align 1
  %this.addr = alloca ptr, align 8
  %hasKeywordOrAttribute = alloca i8, align 1
  %coerce = alloca %"struct.std::pair", align 8
  %res = alloca %"struct.std::pair.21", align 8
  %ref.tmp = alloca %"struct.std::pair.24", align 8
  %ref.tmp21 = alloca %"class.std::__cxx11::basic_string", align 8
  %uvalue = alloca ptr, align 8
  store ptr %this, ptr %this.addr, align 8
  %this1 = load ptr, ptr %this.addr, align 8
  %result_ = getelementptr inbounds %"class.hermes::platform_intl::LanguageTagParser", ptr %this1, i32 0, i32 0
  %unicodeExtensionAttributes = getelementptr inbounds %"struct.hermes::platform_intl::ParsedLocaleIdentifier", ptr %result_, i32 0, i32 1
  %call = call noundef zeroext i1 @_ZNKSt3setINSt7__cxx1112basic_stringIDsSt11char_traitsIDsESaIDsEEESt4lessIS5_ESaIS5_EE5emptyEv(ptr noundef nonnull align 8 dereferenceable(48) %unicodeExtensionAttributes) #7
  br i1 %call, label %lor.lhs.false, label %if.then

lor.lhs.false:                                    ; preds = %entry
  %result_2 = getelementptr inbounds %"class.hermes::platform_intl::LanguageTagParser", ptr %this1, i32 0, i32 0
  %unicodeExtensionKeywords = getelementptr inbounds %"struct.hermes::platform_intl::ParsedLocaleIdentifier", ptr %result_2, i32 0, i32 2
  %call3 = call noundef zeroext i1 @_ZNKSt3mapINSt7__cxx1112basic_stringIDsSt11char_traitsIDsESaIDsEEES5_St4lessIS5_ESaISt4pairIKS5_S5_EEE5emptyEv(ptr noundef nonnull align 8 dereferenceable(48) %unicodeExtensionKeywords) #7
  br i1 %call3, label %if.end, label %if.then

if.then:                                          ; preds = %lor.lhs.false, %entry
  store i1 false, ptr %retval, align 1
  br label %return

if.end:                                           ; preds = %lor.lhs.false
  store i8 0, ptr %hasKeywordOrAttribute, align 1
  br label %while.cond

while.cond:                                       ; preds = %if.end12, %if.end
  %call4 = call noundef nonnull align 8 dereferenceable(32) ptr @_ZNK6hermes13platform_intl17LanguageTagParser16getCurrentSubtagB5cxx11Ev(ptr noundef nonnull align 8 dereferenceable(536) %this1)
  %call5 = call noundef zeroext i1 @_ZN6hermes13platform_intl12_GLOBAL__N_127isUnicodeExtensionAttributeERKNSt7__cxx1112basic_stringIDsSt11char_traitsIDsESaIDsEEE(ptr noundef nonnull align 8 dereferenceable(32) %call4)
  br i1 %call5, label %while.body, label %while.end

while.body:                                       ; preds = %while.cond
  store i8 1, ptr %hasKeywordOrAttribute, align 1
  %result_6 = getelementptr inbounds %"class.hermes::platform_intl::LanguageTagParser", ptr %this1, i32 0, i32 0
  %unicodeExtensionAttributes7 = getelementptr inbounds %"struct.hermes::platform_intl::ParsedLocaleIdentifier", ptr %result_6, i32 0, i32 1
  %call8 = call noundef nonnull align 8 dereferenceable(32) ptr @_ZNK6hermes13platform_intl17LanguageTagParser16getCurrentSubtagB5cxx11Ev(ptr noundef nonnull align 8 dereferenceable(536) %this1)
  %call9 = call { ptr, i8 } @_ZNSt3setINSt7__cxx1112basic_stringIDsSt11char_traitsIDsESaIDsEEESt4lessIS5_ESaIS5_EE6insertERKS5_(ptr noundef nonnull align 8 dereferenceable(48) %unicodeExtensionAttributes7, ptr noundef nonnull align 8 dereferenceable(32) %call8)
  %0 = getelementptr inbounds { ptr, i8 }, ptr %coerce, i32 0, i32 0
  %1 = extractvalue { ptr, i8 } %call9, 0
  store ptr %1, ptr %0, align 8
  %2 = getelementptr inbounds { ptr, i8 }, ptr %coerce, i32 0, i32 1
  %3 = extractvalue { ptr, i8 } %call9, 1
  store i8 %3, ptr %2, align 8
  %call10 = call noundef zeroext i1 @_ZN6hermes13platform_intl17LanguageTagParser10nextSubtagEv(ptr noundef nonnull align 8 dereferenceable(536) %this1)
  br i1 %call10, label %if.end12, label %if.then11

if.then11:                                        ; preds = %while.body
  store i1 true, ptr %retval, align 1
  br label %return

if.end12:                                         ; preds = %while.body
  br label %while.cond, !llvm.loop !8

while.end:                                        ; preds = %while.cond
  br label %while.cond13

while.cond13:                                     ; preds = %while.end40, %while.end
  %call14 = call noundef zeroext i1 @_ZNK6hermes13platform_intl17LanguageTagParser14hasMoreSubtagsEv(ptr noundef nonnull align 8 dereferenceable(536) %this1)
  br i1 %call14, label %land.rhs, label %land.end

land.rhs:                                         ; preds = %while.cond13
  %call15 = call noundef nonnull align 8 dereferenceable(32) ptr @_ZNK6hermes13platform_intl17LanguageTagParser16getCurrentSubtagB5cxx11Ev(ptr noundef nonnull align 8 dereferenceable(536) %this1)
  %call16 = call noundef zeroext i1 @_ZN6hermes13platform_intl12_GLOBAL__N_121isUnicodeExtensionKeyERKNSt7__cxx1112basic_stringIDsSt11char_traitsIDsESaIDsEEE(ptr noundef nonnull align 8 dereferenceable(32) %call15)
  br label %land.end

land.end:                                         ; preds = %land.rhs, %while.cond13
  %4 = phi i1 [ false, %while.cond13 ], [ %call16, %land.rhs ]
  br i1 %4, label %while.body17, label %while.end41

while.body17:                                     ; preds = %land.end
  store i8 1, ptr %hasKeywordOrAttribute, align 1
  %result_18 = getelementptr inbounds %"class.hermes::platform_intl::LanguageTagParser", ptr %this1, i32 0, i32 0
  %unicodeExtensionKeywords19 = getelementptr inbounds %"struct.hermes::platform_intl::ParsedLocaleIdentifier", ptr %result_18, i32 0, i32 2
  %call20 = call noundef nonnull align 8 dereferenceable(32) ptr @_ZNK6hermes13platform_intl17LanguageTagParser16getCurrentSubtagB5cxx11Ev(ptr noundef nonnull align 8 dereferenceable(536) %this1)
  call void @_ZNSt7__cxx1112basic_stringIDsSt11char_traitsIDsESaIDsEEC2Ev(ptr noundef nonnull align 8 dereferenceable(32) %ref.tmp21) #7
  call void @_ZNSt4pairIKNSt7__cxx1112basic_stringIDsSt11char_traitsIDsESaIDsEEES5_EC2IS6_S5_TnNSt9enable_ifIXaaclsr5_PCCPE18_ConstructiblePairIT_T0_EEclsr5_PCCPE26_ImplicitlyConvertiblePairISA_SB_EEEbE4typeELb1EEERS6_SE_(ptr noundef nonnull align 8 dereferenceable(64) %ref.tmp, ptr noundef nonnull align 8 dereferenceable(32) %call20, ptr noundef nonnull align 8 dereferenceable(32) %ref.tmp21)
  %call22 = call { ptr, i8 } @_ZNSt3mapINSt7__cxx1112basic_stringIDsSt11char_traitsIDsESaIDsEEES5_St4lessIS5_ESaISt4pairIKS5_S5_EEE6insertEOSA_(ptr noundef nonnull align 8 dereferenceable(48) %unicodeExtensionKeywords19, ptr noundef nonnull align 8 dereferenceable(64) %ref.tmp)
  %5 = getelementptr inbounds { ptr, i8 }, ptr %res, i32 0, i32 0
  %6 = extractvalue { ptr, i8 } %call22, 0
  store ptr %6, ptr %5, align 8
  %7 = getelementptr inbounds { ptr, i8 }, ptr %res, i32 0, i32 1
  %8 = extractvalue { ptr, i8 } %call22, 1
  store i8 %8, ptr %7, align 8
  call void @_ZNSt4pairIKNSt7__cxx1112basic_stringIDsSt11char_traitsIDsESaIDsEEES5_ED2Ev(ptr noundef nonnull align 8 dereferenceable(64) %ref.tmp) #7
  call void @_ZNSt7__cxx1112basic_stringIDsSt11char_traitsIDsESaIDsEED2Ev(ptr noundef nonnull align 8 dereferenceable(32) %ref.tmp21) #7
  %first = getelementptr inbounds %"struct.std::pair.21", ptr %res, i32 0, i32 0
  %call23 = call noundef ptr @_ZNKSt17_Rb_tree_iteratorISt4pairIKNSt7__cxx1112basic_stringIDsSt11char_traitsIDsESaIDsEEES6_EEptEv(ptr noundef nonnull align 8 dereferenceable(8) %first) #7
  %second = getelementptr inbounds %"struct.std::pair.24", ptr %call23, i32 0, i32 1
  store ptr %second, ptr %uvalue, align 8
  br label %while.cond24

while.cond24:                                     ; preds = %if.end39, %while.body17
  %call25 = call noundef zeroext i1 @_ZN6hermes13platform_intl17LanguageTagParser10nextSubtagEv(ptr noundef nonnull align 8 dereferenceable(536) %this1)
  br i1 %call25, label %land.rhs26, label %land.end29

land.rhs26:                                       ; preds = %while.cond24
  %call27 = call noundef nonnull align 8 dereferenceable(32) ptr @_ZNK6hermes13platform_intl17LanguageTagParser16getCurrentSubtagB5cxx11Ev(ptr noundef nonnull align 8 dereferenceable(536) %this1)
  %call28 = call noundef zeroext i1 @_ZN6hermes13platform_intl12_GLOBAL__N_129isUnicodeExtensionKeyTypeItemERKNSt7__cxx1112basic_stringIDsSt11char_traitsIDsESaIDsEEE(ptr noundef nonnull align 8 dereferenceable(32) %call27)
  br label %land.end29

land.end29:                                       ; preds = %land.rhs26, %while.cond24
  %9 = phi i1 [ false, %while.cond24 ], [ %call28, %land.rhs26 ]
  br i1 %9, label %while.body30, label %while.end40

while.body30:                                     ; preds = %land.end29
  %second31 = getelementptr inbounds %"struct.std::pair.21", ptr %res, i32 0, i32 1
  %10 = load i8, ptr %second31, align 8
  %tobool = trunc i8 %10 to i1
  br i1 %tobool, label %if.then32, label %if.end39

if.then32:                                        ; preds = %while.body30
  %11 = load ptr, ptr %uvalue, align 8
  %call33 = call noundef zeroext i1 @_ZNKSt7__cxx1112basic_stringIDsSt11char_traitsIDsESaIDsEE5emptyEv(ptr noundef nonnull align 8 dereferenceable(32) %11) #7
  br i1 %call33, label %if.end36, label %if.then34

if.then34:                                        ; preds = %if.then32
  %12 = load ptr, ptr %uvalue, align 8
  %call35 = call noundef nonnull align 8 dereferenceable(32) ptr @_ZNSt7__cxx1112basic_stringIDsSt11char_traitsIDsESaIDsEEpLEDs(ptr noundef nonnull align 8 dereferenceable(32) %12, i16 noundef zeroext 45)
  br label %if.end36

if.end36:                                         ; preds = %if.then34, %if.then32
  %13 = load ptr, ptr %uvalue, align 8
  %call37 = call noundef nonnull align 8 dereferenceable(32) ptr @_ZNK6hermes13platform_intl17LanguageTagParser16getCurrentSubtagB5cxx11Ev(ptr noundef nonnull align 8 dereferenceable(536) %this1)
  %call38 = call noundef nonnull align 8 dereferenceable(32) ptr @_ZNSt7__cxx1112basic_stringIDsSt11char_traitsIDsESaIDsEE6appendERKS4_(ptr noundef nonnull align 8 dereferenceable(32) %13, ptr noundef nonnull align 8 dereferenceable(32) %call37)
  br label %if.end39

if.end39:                                         ; preds = %if.end36, %while.body30
  br label %while.cond24, !llvm.loop !9

while.end40:                                      ; preds = %land.end29
  br label %while.cond13, !llvm.loop !10

while.end41:                                      ; preds = %land.end
  %14 = load i8, ptr %hasKeywordOrAttribute, align 1
  %tobool42 = trunc i8 %14 to i1
  store i1 %tobool42, ptr %retval, align 1
  br label %return

return:                                           ; preds = %while.end41, %if.then11, %if.then
  %15 = load i1, ptr %retval, align 1
  ret i1 %15
}

; Function Attrs: mustprogress nounwind uwtable
define hidden noundef zeroext i1 @_ZN6hermes13platform_intl17LanguageTagParser25parseTransformedExtensionEv(ptr noundef nonnull align 8 dereferenceable(536) %this) #0 align 2 {
entry:
  %retval = alloca i1, align 1
  %this.addr = alloca ptr, align 8
  %hasExtension = alloca i8, align 1
  %res = alloca %"struct.std::pair.21", align 8
  %ref.tmp = alloca %"struct.std::pair.24", align 8
  %ref.tmp17 = alloca %"class.std::__cxx11::basic_string", align 8
  %tvalue = alloca ptr, align 8
  store ptr %this, ptr %this.addr, align 8
  %this1 = load ptr, ptr %this.addr, align 8
  %result_ = getelementptr inbounds %"class.hermes::platform_intl::LanguageTagParser", ptr %this1, i32 0, i32 0
  %transformedLanguageIdentifier = getelementptr inbounds %"struct.hermes::platform_intl::ParsedLocaleIdentifier", ptr %result_, i32 0, i32 3
  %languageSubtag = getelementptr inbounds %"struct.hermes::platform_intl::ParsedLocaleIdentifier::ParsedLanguageIdentifier", ptr %transformedLanguageIdentifier, i32 0, i32 0
  %call = call noundef zeroext i1 @_ZNKSt7__cxx1112basic_stringIDsSt11char_traitsIDsESaIDsEE5emptyEv(ptr noundef nonnull align 8 dereferenceable(32) %languageSubtag) #7
  br i1 %call, label %lor.lhs.false, label %if.then

lor.lhs.false:                                    ; preds = %entry
  %result_2 = getelementptr inbounds %"class.hermes::platform_intl::LanguageTagParser", ptr %this1, i32 0, i32 0
  %transformedExtensionFields = getelementptr inbounds %"struct.hermes::platform_intl::ParsedLocaleIdentifier", ptr %result_2, i32 0, i32 4
  %call3 = call noundef zeroext i1 @_ZNKSt3mapINSt7__cxx1112basic_stringIDsSt11char_traitsIDsESaIDsEEES5_St4lessIS5_ESaISt4pairIKS5_S5_EEE5emptyEv(ptr noundef nonnull align 8 dereferenceable(48) %transformedExtensionFields) #7
  br i1 %call3, label %if.end, label %if.then

if.then:                                          ; preds = %lor.lhs.false, %entry
  store i1 false, ptr %retval, align 1
  br label %return

if.end:                                           ; preds = %lor.lhs.false
  store i8 0, ptr %hasExtension, align 1
  %call4 = call noundef nonnull align 8 dereferenceable(32) ptr @_ZNK6hermes13platform_intl17LanguageTagParser16getCurrentSubtagB5cxx11Ev(ptr noundef nonnull align 8 dereferenceable(536) %this1)
  %call5 = call noundef zeroext i1 @_ZN6hermes13platform_intl12_GLOBAL__N_123isUnicodeLanguageSubtagERKNSt7__cxx1112basic_stringIDsSt11char_traitsIDsESaIDsEEE(ptr noundef nonnull align 8 dereferenceable(32) %call4)
  br i1 %call5, label %if.then6, label %if.end10

if.then6:                                         ; preds = %if.end
  store i8 1, ptr %hasExtension, align 1
  %call7 = call noundef zeroext i1 @_ZN6hermes13platform_intl17LanguageTagParser22parseUnicodeLanguageIdEb(ptr noundef nonnull align 8 dereferenceable(536) %this1, i1 noundef zeroext true)
  br i1 %call7, label %if.end9, label %if.then8

if.then8:                                         ; preds = %if.then6
  store i1 false, ptr %retval, align 1
  br label %return

if.end9:                                          ; preds = %if.then6
  br label %if.end10

if.end10:                                         ; preds = %if.end9, %if.end
  br label %while.cond

while.cond:                                       ; preds = %do.end, %if.end10
  %call11 = call noundef zeroext i1 @_ZNK6hermes13platform_intl17LanguageTagParser14hasMoreSubtagsEv(ptr noundef nonnull align 8 dereferenceable(536) %this1)
  br i1 %call11, label %land.rhs, label %land.end

land.rhs:                                         ; preds = %while.cond
  %call12 = call noundef nonnull align 8 dereferenceable(32) ptr @_ZNK6hermes13platform_intl17LanguageTagParser16getCurrentSubtagB5cxx11Ev(ptr noundef nonnull align 8 dereferenceable(536) %this1)
  %call13 = call noundef zeroext i1 @_ZN6hermes13platform_intl12_GLOBAL__N_125isTransformedExtensionKeyERKNSt7__cxx1112basic_stringIDsSt11char_traitsIDsESaIDsEEE(ptr noundef nonnull align 8 dereferenceable(32) %call12)
  br label %land.end

land.end:                                         ; preds = %land.rhs, %while.cond
  %0 = phi i1 [ false, %while.cond ], [ %call13, %land.rhs ]
  br i1 %0, label %while.body, label %while.end

while.body:                                       ; preds = %land.end
  store i8 1, ptr %hasExtension, align 1
  %result_14 = getelementptr inbounds %"class.hermes::platform_intl::LanguageTagParser", ptr %this1, i32 0, i32 0
  %transformedExtensionFields15 = getelementptr inbounds %"struct.hermes::platform_intl::ParsedLocaleIdentifier", ptr %result_14, i32 0, i32 4
  %call16 = call noundef nonnull align 8 dereferenceable(32) ptr @_ZNK6hermes13platform_intl17LanguageTagParser16getCurrentSubtagB5cxx11Ev(ptr noundef nonnull align 8 dereferenceable(536) %this1)
  call void @_ZNSt7__cxx1112basic_stringIDsSt11char_traitsIDsESaIDsEEC2Ev(ptr noundef nonnull align 8 dereferenceable(32) %ref.tmp17) #7
  call void @_ZNSt4pairIKNSt7__cxx1112basic_stringIDsSt11char_traitsIDsESaIDsEEES5_EC2IS6_S5_TnNSt9enable_ifIXaaclsr5_PCCPE18_ConstructiblePairIT_T0_EEclsr5_PCCPE26_ImplicitlyConvertiblePairISA_SB_EEEbE4typeELb1EEERS6_SE_(ptr noundef nonnull align 8 dereferenceable(64) %ref.tmp, ptr noundef nonnull align 8 dereferenceable(32) %call16, ptr noundef nonnull align 8 dereferenceable(32) %ref.tmp17)
  %call18 = call { ptr, i8 } @_ZNSt3mapINSt7__cxx1112basic_stringIDsSt11char_traitsIDsESaIDsEEES5_St4lessIS5_ESaISt4pairIKS5_S5_EEE6insertEOSA_(ptr noundef nonnull align 8 dereferenceable(48) %transformedExtensionFields15, ptr noundef nonnull align 8 dereferenceable(64) %ref.tmp)
  %1 = getelementptr inbounds { ptr, i8 }, ptr %res, i32 0, i32 0
  %2 = extractvalue { ptr, i8 } %call18, 0
  store ptr %2, ptr %1, align 8
  %3 = getelementptr inbounds { ptr, i8 }, ptr %res, i32 0, i32 1
  %4 = extractvalue { ptr, i8 } %call18, 1
  store i8 %4, ptr %3, align 8
  call void @_ZNSt4pairIKNSt7__cxx1112basic_stringIDsSt11char_traitsIDsESaIDsEEES5_ED2Ev(ptr noundef nonnull align 8 dereferenceable(64) %ref.tmp) #7
  call void @_ZNSt7__cxx1112basic_stringIDsSt11char_traitsIDsESaIDsEED2Ev(ptr noundef nonnull align 8 dereferenceable(32) %ref.tmp17) #7
  %second = getelementptr inbounds %"struct.std::pair.21", ptr %res, i32 0, i32 1
  %5 = load i8, ptr %second, align 8
  %tobool = trunc i8 %5 to i1
  br i1 %tobool, label %if.end20, label %if.then19

if.then19:                                        ; preds = %while.body
  store i1 false, ptr %retval, align 1
  br label %return

if.end20:                                         ; preds = %while.body
  %call21 = call noundef zeroext i1 @_ZN6hermes13platform_intl17LanguageTagParser10nextSubtagEv(ptr noundef nonnull align 8 dereferenceable(536) %this1)
  br i1 %call21, label %if.end23, label %if.then22

if.then22:                                        ; preds = %if.end20
  store i1 false, ptr %retval, align 1
  br label %return

if.end23:                                         ; preds = %if.end20
  %call24 = call noundef nonnull align 8 dereferenceable(32) ptr @_ZNK6hermes13platform_intl17LanguageTagParser16getCurrentSubtagB5cxx11Ev(ptr noundef nonnull align 8 dereferenceable(536) %this1)
  %call25 = call noundef zeroext i1 @_ZN6hermes13platform_intl12_GLOBAL__N_132isTransformedExtensionTValueItemERKNSt7__cxx1112basic_stringIDsSt11char_traitsIDsESaIDsEEE(ptr noundef nonnull align 8 dereferenceable(32) %call24)
  br i1 %call25, label %if.end27, label %if.then26

if.then26:                                        ; preds = %if.end23
  store i1 false, ptr %retval, align 1
  br label %return

if.end27:                                         ; preds = %if.end23
  %first = getelementptr inbounds %"struct.std::pair.21", ptr %res, i32 0, i32 0
  %call28 = call noundef ptr @_ZNKSt17_Rb_tree_iteratorISt4pairIKNSt7__cxx1112basic_stringIDsSt11char_traitsIDsESaIDsEEES6_EEptEv(ptr noundef nonnull align 8 dereferenceable(8) %first) #7
  %second29 = getelementptr inbounds %"struct.std::pair.24", ptr %call28, i32 0, i32 1
  store ptr %second29, ptr %tvalue, align 8
  br label %do.body

do.body:                                          ; preds = %land.end40, %if.end27
  %6 = load ptr, ptr %tvalue, align 8
  %call30 = call noundef zeroext i1 @_ZNKSt7__cxx1112basic_stringIDsSt11char_traitsIDsESaIDsEE5emptyEv(ptr noundef nonnull align 8 dereferenceable(32) %6) #7
  br i1 %call30, label %if.end33, label %if.then31

if.then31:                                        ; preds = %do.body
  %7 = load ptr, ptr %tvalue, align 8
  %call32 = call noundef nonnull align 8 dereferenceable(32) ptr @_ZNSt7__cxx1112basic_stringIDsSt11char_traitsIDsESaIDsEEpLEDs(ptr noundef nonnull align 8 dereferenceable(32) %7, i16 noundef zeroext 45)
  br label %if.end33

if.end33:                                         ; preds = %if.then31, %do.body
  %8 = load ptr, ptr %tvalue, align 8
  %call34 = call noundef nonnull align 8 dereferenceable(32) ptr @_ZNK6hermes13platform_intl17LanguageTagParser16getCurrentSubtagB5cxx11Ev(ptr noundef nonnull align 8 dereferenceable(536) %this1)
  %call35 = call noundef nonnull align 8 dereferenceable(32) ptr @_ZNSt7__cxx1112basic_stringIDsSt11char_traitsIDsESaIDsEE6appendERKS4_(ptr noundef nonnull align 8 dereferenceable(32) %8, ptr noundef nonnull align 8 dereferenceable(32) %call34)
  br label %do.cond

do.cond:                                          ; preds = %if.end33
  %call36 = call noundef zeroext i1 @_ZN6hermes13platform_intl17LanguageTagParser10nextSubtagEv(ptr noundef nonnull align 8 dereferenceable(536) %this1)
  br i1 %call36, label %land.rhs37, label %land.end40

land.rhs37:                                       ; preds = %do.cond
  %call38 = call noundef nonnull align 8 dereferenceable(32) ptr @_ZNK6hermes13platform_intl17LanguageTagParser16getCurrentSubtagB5cxx11Ev(ptr noundef nonnull align 8 dereferenceable(536) %this1)
  %call39 = call noundef zeroext i1 @_ZN6hermes13platform_intl12_GLOBAL__N_132isTransformedExtensionTValueItemERKNSt7__cxx1112basic_stringIDsSt11char_traitsIDsESaIDsEEE(ptr noundef nonnull align 8 dereferenceable(32) %call38)
  br label %land.end40

land.end40:                                       ; preds = %land.rhs37, %do.cond
  %9 = phi i1 [ false, %do.cond ], [ %call39, %land.rhs37 ]
  br i1 %9, label %do.body, label %do.end, !llvm.loop !11

do.end:                                           ; preds = %land.end40
  br label %while.cond, !llvm.loop !12

while.end:                                        ; preds = %land.end
  %10 = load i8, ptr %hasExtension, align 1
  %tobool41 = trunc i8 %10 to i1
  store i1 %tobool41, ptr %retval, align 1
  br label %return

return:                                           ; preds = %while.end, %if.then26, %if.then22, %if.then19, %if.then8, %if.then
  %11 = load i1, ptr %retval, align 1
  ret i1 %11
}

; Function Attrs: mustprogress nounwind uwtable
define hidden noundef zeroext i1 @_ZN6hermes13platform_intl17LanguageTagParser16parsePUExtensionEv(ptr noundef nonnull align 8 dereferenceable(536) %this) #0 align 2 {
entry:
  %retval = alloca i1, align 1
  %this.addr = alloca ptr, align 8
  %values = alloca ptr, align 8
  store ptr %this, ptr %this.addr, align 8
  %this1 = load ptr, ptr %this.addr, align 8
  %call = call noundef nonnull align 8 dereferenceable(32) ptr @_ZNK6hermes13platform_intl17LanguageTagParser16getCurrentSubtagB5cxx11Ev(ptr noundef nonnull align 8 dereferenceable(536) %this1)
  %call2 = call noundef zeroext i1 @_ZN6hermes13platform_intl12_GLOBAL__N_121isPrivateUseExtensionERKNSt7__cxx1112basic_stringIDsSt11char_traitsIDsESaIDsEEE(ptr noundef nonnull align 8 dereferenceable(32) %call)
  br i1 %call2, label %if.end, label %if.then

if.then:                                          ; preds = %entry
  store i1 false, ptr %retval, align 1
  br label %return

if.end:                                           ; preds = %entry
  %result_ = getelementptr inbounds %"class.hermes::platform_intl::LanguageTagParser", ptr %this1, i32 0, i32 0
  %puExtensions = getelementptr inbounds %"struct.hermes::platform_intl::ParsedLocaleIdentifier", ptr %result_, i32 0, i32 6
  store ptr %puExtensions, ptr %values, align 8
  br label %do.body

do.body:                                          ; preds = %land.end, %if.end
  %0 = load ptr, ptr %values, align 8
  %call3 = call noundef zeroext i1 @_ZNKSt7__cxx1112basic_stringIDsSt11char_traitsIDsESaIDsEE5emptyEv(ptr noundef nonnull align 8 dereferenceable(32) %0) #7
  br i1 %call3, label %if.end6, label %if.then4

if.then4:                                         ; preds = %do.body
  %1 = load ptr, ptr %values, align 8
  %call5 = call noundef nonnull align 8 dereferenceable(32) ptr @_ZNSt7__cxx1112basic_stringIDsSt11char_traitsIDsESaIDsEEpLEDs(ptr noundef nonnull align 8 dereferenceable(32) %1, i16 noundef zeroext 45)
  br label %if.end6

if.end6:                                          ; preds = %if.then4, %do.body
  %2 = load ptr, ptr %values, align 8
  %call7 = call noundef nonnull align 8 dereferenceable(32) ptr @_ZNK6hermes13platform_intl17LanguageTagParser16getCurrentSubtagB5cxx11Ev(ptr noundef nonnull align 8 dereferenceable(536) %this1)
  %call8 = call noundef nonnull align 8 dereferenceable(32) ptr @_ZNSt7__cxx1112basic_stringIDsSt11char_traitsIDsESaIDsEE6appendERKS4_(ptr noundef nonnull align 8 dereferenceable(32) %2, ptr noundef nonnull align 8 dereferenceable(32) %call7)
  br label %do.cond

do.cond:                                          ; preds = %if.end6
  %call9 = call noundef zeroext i1 @_ZN6hermes13platform_intl17LanguageTagParser10nextSubtagEv(ptr noundef nonnull align 8 dereferenceable(536) %this1)
  br i1 %call9, label %land.rhs, label %land.end

land.rhs:                                         ; preds = %do.cond
  %call10 = call noundef nonnull align 8 dereferenceable(32) ptr @_ZNK6hermes13platform_intl17LanguageTagParser16getCurrentSubtagB5cxx11Ev(ptr noundef nonnull align 8 dereferenceable(536) %this1)
  %call11 = call noundef zeroext i1 @_ZN6hermes13platform_intl12_GLOBAL__N_121isPrivateUseExtensionERKNSt7__cxx1112basic_stringIDsSt11char_traitsIDsESaIDsEEE(ptr noundef nonnull align 8 dereferenceable(32) %call10)
  br label %land.end

land.end:                                         ; preds = %land.rhs, %do.cond
  %3 = phi i1 [ false, %do.cond ], [ %call11, %land.rhs ]
  br i1 %3, label %do.body, label %do.end, !llvm.loop !13

do.end:                                           ; preds = %land.end
  store i1 true, ptr %retval, align 1
  br label %return

return:                                           ; preds = %do.end, %if.then
  %4 = load i1, ptr %retval, align 1
  ret i1 %4
}

; Function Attrs: mustprogress nounwind uwtable
define hidden noundef zeroext i1 @_ZN6hermes13platform_intl17LanguageTagParser19parseOtherExtensionEDs(ptr noundef nonnull align 8 dereferenceable(536) %this, i16 noundef zeroext %singleton) #0 align 2 {
entry:
  %retval = alloca i1, align 1
  %this.addr = alloca ptr, align 8
  %singleton.addr = alloca i16, align 2
  %res = alloca %"struct.std::pair.26", align 8
  %ref.tmp = alloca %"struct.std::pair.30", align 8
  %ref.tmp2 = alloca %"class.std::__cxx11::basic_string", align 8
  %values = alloca ptr, align 8
  store ptr %this, ptr %this.addr, align 8
  store i16 %singleton, ptr %singleton.addr, align 2
  %this1 = load ptr, ptr %this.addr, align 8
  %result_ = getelementptr inbounds %"class.hermes::platform_intl::LanguageTagParser", ptr %this1, i32 0, i32 0
  %otherExtensionMap = getelementptr inbounds %"struct.hermes::platform_intl::ParsedLocaleIdentifier", ptr %result_, i32 0, i32 5
  call void @_ZNSt7__cxx1112basic_stringIDsSt11char_traitsIDsESaIDsEEC2Ev(ptr noundef nonnull align 8 dereferenceable(32) %ref.tmp2) #7
  call void @_ZNSt4pairIKDsNSt7__cxx1112basic_stringIDsSt11char_traitsIDsESaIDsEEEEC2IS0_S6_TnNSt9enable_ifIXaaclsr5_PCCPE18_ConstructiblePairIT_T0_EEclsr5_PCCPE26_ImplicitlyConvertiblePairISA_SB_EEEbE4typeELb1EEERS0_RKS6_(ptr noundef nonnull align 8 dereferenceable(40) %ref.tmp, ptr noundef nonnull align 2 dereferenceable(2) %singleton.addr, ptr noundef nonnull align 8 dereferenceable(32) %ref.tmp2)
  %call = call { ptr, i8 } @_ZNSt3mapIDsNSt7__cxx1112basic_stringIDsSt11char_traitsIDsESaIDsEEESt4lessIDsESaISt4pairIKDsS5_EEE6insertEOSA_(ptr noundef nonnull align 8 dereferenceable(48) %otherExtensionMap, ptr noundef nonnull align 8 dereferenceable(40) %ref.tmp)
  %0 = getelementptr inbounds { ptr, i8 }, ptr %res, i32 0, i32 0
  %1 = extractvalue { ptr, i8 } %call, 0
  store ptr %1, ptr %0, align 8
  %2 = getelementptr inbounds { ptr, i8 }, ptr %res, i32 0, i32 1
  %3 = extractvalue { ptr, i8 } %call, 1
  store i8 %3, ptr %2, align 8
  call void @_ZNSt4pairIKDsNSt7__cxx1112basic_stringIDsSt11char_traitsIDsESaIDsEEEED2Ev(ptr noundef nonnull align 8 dereferenceable(40) %ref.tmp) #7
  call void @_ZNSt7__cxx1112basic_stringIDsSt11char_traitsIDsESaIDsEED2Ev(ptr noundef nonnull align 8 dereferenceable(32) %ref.tmp2) #7
  %second = getelementptr inbounds %"struct.std::pair.26", ptr %res, i32 0, i32 1
  %4 = load i8, ptr %second, align 8
  %tobool = trunc i8 %4 to i1
  br i1 %tobool, label %lor.lhs.false, label %if.then

lor.lhs.false:                                    ; preds = %entry
  %call3 = call noundef nonnull align 8 dereferenceable(32) ptr @_ZNK6hermes13platform_intl17LanguageTagParser16getCurrentSubtagB5cxx11Ev(ptr noundef nonnull align 8 dereferenceable(536) %this1)
  %call4 = call noundef zeroext i1 @_ZN6hermes13platform_intl12_GLOBAL__N_116isOtherExtensionERKNSt7__cxx1112basic_stringIDsSt11char_traitsIDsESaIDsEEE(ptr noundef nonnull align 8 dereferenceable(32) %call3)
  br i1 %call4, label %if.end, label %if.then

if.then:                                          ; preds = %lor.lhs.false, %entry
  store i1 false, ptr %retval, align 1
  br label %return

if.end:                                           ; preds = %lor.lhs.false
  %first = getelementptr inbounds %"struct.std::pair.26", ptr %res, i32 0, i32 0
  %call5 = call noundef ptr @_ZNKSt17_Rb_tree_iteratorISt4pairIKDsNSt7__cxx1112basic_stringIDsSt11char_traitsIDsESaIDsEEEEEptEv(ptr noundef nonnull align 8 dereferenceable(8) %first) #7
  %second6 = getelementptr inbounds %"struct.std::pair.30", ptr %call5, i32 0, i32 1
  store ptr %second6, ptr %values, align 8
  br label %do.body

do.body:                                          ; preds = %land.end, %if.end
  %5 = load ptr, ptr %values, align 8
  %call7 = call noundef zeroext i1 @_ZNKSt7__cxx1112basic_stringIDsSt11char_traitsIDsESaIDsEE5emptyEv(ptr noundef nonnull align 8 dereferenceable(32) %5) #7
  br i1 %call7, label %if.end10, label %if.then8

if.then8:                                         ; preds = %do.body
  %6 = load ptr, ptr %values, align 8
  %call9 = call noundef nonnull align 8 dereferenceable(32) ptr @_ZNSt7__cxx1112basic_stringIDsSt11char_traitsIDsESaIDsEEpLEDs(ptr noundef nonnull align 8 dereferenceable(32) %6, i16 noundef zeroext 45)
  br label %if.end10

if.end10:                                         ; preds = %if.then8, %do.body
  %7 = load ptr, ptr %values, align 8
  %call11 = call noundef nonnull align 8 dereferenceable(32) ptr @_ZNK6hermes13platform_intl17LanguageTagParser16getCurrentSubtagB5cxx11Ev(ptr noundef nonnull align 8 dereferenceable(536) %this1)
  %call12 = call noundef nonnull align 8 dereferenceable(32) ptr @_ZNSt7__cxx1112basic_stringIDsSt11char_traitsIDsESaIDsEE6appendERKS4_(ptr noundef nonnull align 8 dereferenceable(32) %7, ptr noundef nonnull align 8 dereferenceable(32) %call11)
  br label %do.cond

do.cond:                                          ; preds = %if.end10
  %call13 = call noundef zeroext i1 @_ZN6hermes13platform_intl17LanguageTagParser10nextSubtagEv(ptr noundef nonnull align 8 dereferenceable(536) %this1)
  br i1 %call13, label %land.rhs, label %land.end

land.rhs:                                         ; preds = %do.cond
  %call14 = call noundef nonnull align 8 dereferenceable(32) ptr @_ZNK6hermes13platform_intl17LanguageTagParser16getCurrentSubtagB5cxx11Ev(ptr noundef nonnull align 8 dereferenceable(536) %this1)
  %call15 = call noundef zeroext i1 @_ZN6hermes13platform_intl12_GLOBAL__N_116isOtherExtensionERKNSt7__cxx1112basic_stringIDsSt11char_traitsIDsESaIDsEEE(ptr noundef nonnull align 8 dereferenceable(32) %call14)
  br label %land.end

land.end:                                         ; preds = %land.rhs, %do.cond
  %8 = phi i1 [ false, %do.cond ], [ %call15, %land.rhs ]
  br i1 %8, label %do.body, label %do.end, !llvm.loop !14

do.end:                                           ; preds = %land.end
  store i1 true, ptr %retval, align 1
  br label %return

return:                                           ; preds = %do.end, %if.then
  %9 = load i1, ptr %retval, align 1
  ret i1 %9
}

; Function Attrs: mustprogress nounwind uwtable
define linkonce_odr noundef zeroext i1 @_ZNKSt3setINSt7__cxx1112basic_stringIDsSt11char_traitsIDsESaIDsEEESt4lessIS5_ESaIS5_EE5emptyEv(ptr noundef nonnull align 8 dereferenceable(48) %this) #0 comdat align 2 {
entry:
  %this.addr = alloca ptr, align 8
  store ptr %this, ptr %this.addr, align 8
  %this1 = load ptr, ptr %this.addr, align 8
  %_M_t = getelementptr inbounds %"class.std::set", ptr %this1, i32 0, i32 0
  %call = call noundef zeroext i1 @_ZNKSt8_Rb_treeINSt7__cxx1112basic_stringIDsSt11char_traitsIDsESaIDsEEES5_St9_IdentityIS5_ESt4lessIS5_ESaIS5_EE5emptyEv(ptr noundef nonnull align 8 dereferenceable(48) %_M_t) #7
  ret i1 %call
}

; Function Attrs: mustprogress nounwind uwtable
define linkonce_odr noundef zeroext i1 @_ZNKSt3mapINSt7__cxx1112basic_stringIDsSt11char_traitsIDsESaIDsEEES5_St4lessIS5_ESaISt4pairIKS5_S5_EEE5emptyEv(ptr noundef nonnull align 8 dereferenceable(48) %this) #0 comdat align 2 {
entry:
  %this.addr = alloca ptr, align 8
  store ptr %this, ptr %this.addr, align 8
  %this1 = load ptr, ptr %this.addr, align 8
  %_M_t = getelementptr inbounds %"class.std::map", ptr %this1, i32 0, i32 0
  %call = call noundef zeroext i1 @_ZNKSt8_Rb_treeINSt7__cxx1112basic_stringIDsSt11char_traitsIDsESaIDsEEESt4pairIKS5_S5_ESt10_Select1stIS8_ESt4lessIS5_ESaIS8_EE5emptyEv(ptr noundef nonnull align 8 dereferenceable(48) %_M_t) #7
  ret i1 %call
}

; Function Attrs: mustprogress nounwind uwtable
define internal noundef zeroext i1 @_ZN6hermes13platform_intl12_GLOBAL__N_127isUnicodeExtensionAttributeERKNSt7__cxx1112basic_stringIDsSt11char_traitsIDsESaIDsEEE(ptr noundef nonnull align 8 dereferenceable(32) %subtag) #0 {
entry:
  %subtag.addr = alloca ptr, align 8
  store ptr %subtag, ptr %subtag.addr, align 8
  %0 = load ptr, ptr %subtag.addr, align 8
  %call = call noundef zeroext i1 @_ZN6hermes13platform_intl12_GLOBAL__N_110isCharTypeIPFbDsEEEbRKNSt7__cxx1112basic_stringIDsSt11char_traitsIDsESaIDsEEEmmT_(ptr noundef nonnull align 8 dereferenceable(32) %0, i64 noundef 3, i64 noundef 8, ptr noundef @_ZN6hermes13platform_intl12_GLOBAL__N_120isASCIILetterOrDigitEDs)
  ret i1 %call
}

; Function Attrs: mustprogress nounwind uwtable
define internal noundef zeroext i1 @_ZN6hermes13platform_intl12_GLOBAL__N_121isUnicodeExtensionKeyERKNSt7__cxx1112basic_stringIDsSt11char_traitsIDsESaIDsEEE(ptr noundef nonnull align 8 dereferenceable(32) %subtag) #0 {
entry:
  %subtag.addr = alloca ptr, align 8
  store ptr %subtag, ptr %subtag.addr, align 8
  %0 = load ptr, ptr %subtag.addr, align 8
  %call = call noundef i64 @_ZNKSt7__cxx1112basic_stringIDsSt11char_traitsIDsESaIDsEE4sizeEv(ptr noundef nonnull align 8 dereferenceable(32) %0) #7
  %cmp = icmp eq i64 %call, 2
  br i1 %cmp, label %land.lhs.true, label %land.end

land.lhs.true:                                    ; preds = %entry
  %1 = load ptr, ptr %subtag.addr, align 8
  %call1 = call noundef nonnull align 2 dereferenceable(2) ptr @_ZNKSt7__cxx1112basic_stringIDsSt11char_traitsIDsESaIDsEE5frontEv(ptr noundef nonnull align 8 dereferenceable(32) %1) #7
  %2 = load i16, ptr %call1, align 2
  %call2 = call noundef zeroext i1 @_ZN6hermes13platform_intl12_GLOBAL__N_120isASCIILetterOrDigitEDs(i16 noundef zeroext %2)
  br i1 %call2, label %land.rhs, label %land.end

land.rhs:                                         ; preds = %land.lhs.true
  %3 = load ptr, ptr %subtag.addr, align 8
  %call3 = call noundef nonnull align 2 dereferenceable(2) ptr @_ZNKSt7__cxx1112basic_stringIDsSt11char_traitsIDsESaIDsEE4backEv(ptr noundef nonnull align 8 dereferenceable(32) %3) #7
  %4 = load i16, ptr %call3, align 2
  %call4 = call noundef zeroext i1 @_ZN6hermes13platform_intl12_GLOBAL__N_113isASCIILetterEDs(i16 noundef zeroext %4)
  br label %land.end

land.end:                                         ; preds = %land.rhs, %land.lhs.true, %entry
  %5 = phi i1 [ false, %land.lhs.true ], [ false, %entry ], [ %call4, %land.rhs ]
  ret i1 %5
}

; Function Attrs: mustprogress nounwind uwtable
define linkonce_odr { ptr, i8 } @_ZNSt3mapINSt7__cxx1112basic_stringIDsSt11char_traitsIDsESaIDsEEES5_St4lessIS5_ESaISt4pairIKS5_S5_EEE6insertEOSA_(ptr noundef nonnull align 8 dereferenceable(48) %this, ptr noundef nonnull align 8 dereferenceable(64) %__x) #0 comdat align 2 {
entry:
  %retval = alloca %"struct.std::pair.21", align 8
  %this.addr = alloca ptr, align 8
  %__x.addr = alloca ptr, align 8
  store ptr %this, ptr %this.addr, align 8
  store ptr %__x, ptr %__x.addr, align 8
  %this1 = load ptr, ptr %this.addr, align 8
  %_M_t = getelementptr inbounds %"class.std::map", ptr %this1, i32 0, i32 0
  %0 = load ptr, ptr %__x.addr, align 8
  %call = call { ptr, i8 } @_ZNSt8_Rb_treeINSt7__cxx1112basic_stringIDsSt11char_traitsIDsESaIDsEEESt4pairIKS5_S5_ESt10_Select1stIS8_ESt4lessIS5_ESaIS8_EE16_M_insert_uniqueIS8_EES6_ISt17_Rb_tree_iteratorIS8_EbEOT_(ptr noundef nonnull align 8 dereferenceable(48) %_M_t, ptr noundef nonnull align 8 dereferenceable(64) %0)
  %1 = getelementptr inbounds { ptr, i8 }, ptr %retval, i32 0, i32 0
  %2 = extractvalue { ptr, i8 } %call, 0
  store ptr %2, ptr %1, align 8
  %3 = getelementptr inbounds { ptr, i8 }, ptr %retval, i32 0, i32 1
  %4 = extractvalue { ptr, i8 } %call, 1
  store i8 %4, ptr %3, align 8
  %5 = load { ptr, i8 }, ptr %retval, align 8
  ret { ptr, i8 } %5
}

; Function Attrs: mustprogress nounwind uwtable
define linkonce_odr void @_ZNSt7__cxx1112basic_stringIDsSt11char_traitsIDsESaIDsEEC2Ev(ptr noundef nonnull align 8 dereferenceable(32) %this) unnamed_addr #0 comdat align 2 {
entry:
  %this.addr.i = alloca ptr, align 8
  %this.addr = alloca ptr, align 8
  %ref.tmp = alloca %"class.std::allocator.0", align 1
  store ptr %this, ptr %this.addr, align 8
  %this1 = load ptr, ptr %this.addr, align 8
  %_M_dataplus = getelementptr inbounds %"class.std::__cxx11::basic_string", ptr %this1, i32 0, i32 0
  %call = call noundef ptr @_ZNSt7__cxx1112basic_stringIDsSt11char_traitsIDsESaIDsEE13_M_local_dataEv(ptr noundef nonnull align 8 dereferenceable(32) %this1)
  call void @_ZNSaIDsEC2Ev(ptr noundef nonnull align 1 dereferenceable(1) %ref.tmp) #7
  call void @_ZNSt7__cxx1112basic_stringIDsSt11char_traitsIDsESaIDsEE12_Alloc_hiderC2EPDsOS3_(ptr noundef nonnull align 8 dereferenceable(8) %_M_dataplus, ptr noundef %call, ptr noundef nonnull align 1 dereferenceable(1) %ref.tmp)
  call void @_ZNSaIDsED2Ev(ptr noundef nonnull align 1 dereferenceable(1) %ref.tmp) #7
  store ptr %this1, ptr %this.addr.i, align 8
  %this1.i = load ptr, ptr %this.addr.i, align 8
  %call.i = call noundef ptr @_ZNSt7__cxx1112basic_stringIDsSt11char_traitsIDsESaIDsEE13_M_local_dataEv(ptr noundef nonnull align 8 dereferenceable(32) %this1.i)
  call void @_ZNSt7__cxx1112basic_stringIDsSt11char_traitsIDsESaIDsEE13_M_set_lengthEm(ptr noundef nonnull align 8 dereferenceable(32) %this1, i64 noundef 0)
  ret void
}

; Function Attrs: mustprogress nounwind uwtable
define linkonce_odr void @_ZNSt4pairIKNSt7__cxx1112basic_stringIDsSt11char_traitsIDsESaIDsEEES5_EC2IS6_S5_TnNSt9enable_ifIXaaclsr5_PCCPE18_ConstructiblePairIT_T0_EEclsr5_PCCPE26_ImplicitlyConvertiblePairISA_SB_EEEbE4typeELb1EEERS6_SE_(ptr noundef nonnull align 8 dereferenceable(64) %this, ptr noundef nonnull align 8 dereferenceable(32) %__a, ptr noundef nonnull align 8 dereferenceable(32) %__b) unnamed_addr #0 comdat align 2 {
entry:
  %this.addr = alloca ptr, align 8
  %__a.addr = alloca ptr, align 8
  %__b.addr = alloca ptr, align 8
  store ptr %this, ptr %this.addr, align 8
  store ptr %__a, ptr %__a.addr, align 8
  store ptr %__b, ptr %__b.addr, align 8
  %this1 = load ptr, ptr %this.addr, align 8
  %first = getelementptr inbounds %"struct.std::pair.24", ptr %this1, i32 0, i32 0
  %0 = load ptr, ptr %__a.addr, align 8
  call void @_ZNSt7__cxx1112basic_stringIDsSt11char_traitsIDsESaIDsEEC2ERKS4_(ptr noundef nonnull align 8 dereferenceable(32) %first, ptr noundef nonnull align 8 dereferenceable(32) %0)
  %second = getelementptr inbounds %"struct.std::pair.24", ptr %this1, i32 0, i32 1
  %1 = load ptr, ptr %__b.addr, align 8
  call void @_ZNSt7__cxx1112basic_stringIDsSt11char_traitsIDsESaIDsEEC2ERKS4_(ptr noundef nonnull align 8 dereferenceable(32) %second, ptr noundef nonnull align 8 dereferenceable(32) %1)
  ret void
}

; Function Attrs: mustprogress nounwind uwtable
define linkonce_odr void @_ZNSt4pairIKNSt7__cxx1112basic_stringIDsSt11char_traitsIDsESaIDsEEES5_ED2Ev(ptr noundef nonnull align 8 dereferenceable(64) %this) unnamed_addr #0 comdat align 2 {
entry:
  %this.addr = alloca ptr, align 8
  store ptr %this, ptr %this.addr, align 8
  %this1 = load ptr, ptr %this.addr, align 8
  %second = getelementptr inbounds %"struct.std::pair.24", ptr %this1, i32 0, i32 1
  call void @_ZNSt7__cxx1112basic_stringIDsSt11char_traitsIDsESaIDsEED2Ev(ptr noundef nonnull align 8 dereferenceable(32) %second) #7
  %first = getelementptr inbounds %"struct.std::pair.24", ptr %this1, i32 0, i32 0
  call void @_ZNSt7__cxx1112basic_stringIDsSt11char_traitsIDsESaIDsEED2Ev(ptr noundef nonnull align 8 dereferenceable(32) %first) #7
  ret void
}

; Function Attrs: mustprogress nounwind uwtable
define linkonce_odr void @_ZNSt7__cxx1112basic_stringIDsSt11char_traitsIDsESaIDsEED2Ev(ptr noundef nonnull align 8 dereferenceable(32) %this) unnamed_addr #0 comdat align 2 {
entry:
  %this.addr = alloca ptr, align 8
  store ptr %this, ptr %this.addr, align 8
  %this1 = load ptr, ptr %this.addr, align 8
  call void @_ZNSt7__cxx1112basic_stringIDsSt11char_traitsIDsESaIDsEE10_M_disposeEv(ptr noundef nonnull align 8 dereferenceable(32) %this1)
  %_M_dataplus = getelementptr inbounds %"class.std::__cxx11::basic_string", ptr %this1, i32 0, i32 0
  call void @_ZNSt7__cxx1112basic_stringIDsSt11char_traitsIDsESaIDsEE12_Alloc_hiderD2Ev(ptr noundef nonnull align 8 dereferenceable(8) %_M_dataplus) #7
  ret void
}

; Function Attrs: mustprogress nounwind uwtable
define linkonce_odr noundef ptr @_ZNKSt17_Rb_tree_iteratorISt4pairIKNSt7__cxx1112basic_stringIDsSt11char_traitsIDsESaIDsEEES6_EEptEv(ptr noundef nonnull align 8 dereferenceable(8) %this) #0 comdat align 2 {
entry:
  %this.addr = alloca ptr, align 8
  store ptr %this, ptr %this.addr, align 8
  %this1 = load ptr, ptr %this.addr, align 8
  %_M_node = getelementptr inbounds %"struct.std::_Rb_tree_iterator", ptr %this1, i32 0, i32 0
  %0 = load ptr, ptr %_M_node, align 8
  %call = call noundef ptr @_ZNSt13_Rb_tree_nodeISt4pairIKNSt7__cxx1112basic_stringIDsSt11char_traitsIDsESaIDsEEES6_EE9_M_valptrEv(ptr noundef nonnull align 8 dereferenceable(96) %0)
  ret ptr %call
}

; Function Attrs: mustprogress nounwind uwtable
define linkonce_odr noundef zeroext i1 @_ZNKSt7__cxx1112basic_stringIDsSt11char_traitsIDsESaIDsEE5emptyEv(ptr noundef nonnull align 8 dereferenceable(32) %this) #0 comdat align 2 {
entry:
  %this.addr = alloca ptr, align 8
  store ptr %this, ptr %this.addr, align 8
  %this1 = load ptr, ptr %this.addr, align 8
  %call = call noundef i64 @_ZNKSt7__cxx1112basic_stringIDsSt11char_traitsIDsESaIDsEE4sizeEv(ptr noundef nonnull align 8 dereferenceable(32) %this1) #7
  %cmp = icmp eq i64 %call, 0
  ret i1 %cmp
}

; Function Attrs: mustprogress nounwind uwtable
define linkonce_odr noundef nonnull align 8 dereferenceable(32) ptr @_ZNSt7__cxx1112basic_stringIDsSt11char_traitsIDsESaIDsEEpLEDs(ptr noundef nonnull align 8 dereferenceable(32) %this, i16 noundef zeroext %__c) #0 comdat align 2 {
entry:
  %this.addr = alloca ptr, align 8
  %__c.addr = alloca i16, align 2
  store ptr %this, ptr %this.addr, align 8
  store i16 %__c, ptr %__c.addr, align 2
  %this1 = load ptr, ptr %this.addr, align 8
  %0 = load i16, ptr %__c.addr, align 2
  call void @_ZNSt7__cxx1112basic_stringIDsSt11char_traitsIDsESaIDsEE9push_backEDs(ptr noundef nonnull align 8 dereferenceable(32) %this1, i16 noundef zeroext %0)
  ret ptr %this1
}

; Function Attrs: mustprogress nounwind uwtable
define linkonce_odr noundef nonnull align 8 dereferenceable(32) ptr @_ZNSt7__cxx1112basic_stringIDsSt11char_traitsIDsESaIDsEE6appendERKS4_(ptr noundef nonnull align 8 dereferenceable(32) %this, ptr noundef nonnull align 8 dereferenceable(32) %__str) #0 comdat align 2 {
entry:
  %this.addr = alloca ptr, align 8
  %__str.addr = alloca ptr, align 8
  store ptr %this, ptr %this.addr, align 8
  store ptr %__str, ptr %__str.addr, align 8
  %this1 = load ptr, ptr %this.addr, align 8
  %0 = load ptr, ptr %__str.addr, align 8
  %call = call noundef ptr @_ZNKSt7__cxx1112basic_stringIDsSt11char_traitsIDsESaIDsEE7_M_dataEv(ptr noundef nonnull align 8 dereferenceable(32) %0)
  %1 = load ptr, ptr %__str.addr, align 8
  %call2 = call noundef i64 @_ZNKSt7__cxx1112basic_stringIDsSt11char_traitsIDsESaIDsEE4sizeEv(ptr noundef nonnull align 8 dereferenceable(32) %1) #7
  %call3 = call noundef nonnull align 8 dereferenceable(32) ptr @_ZNSt7__cxx1112basic_stringIDsSt11char_traitsIDsESaIDsEE6appendEPKDsm(ptr noundef nonnull align 8 dereferenceable(32) %this1, ptr noundef %call, i64 noundef %call2)
  ret ptr %call3
}

; Function Attrs: mustprogress nounwind uwtable
define internal noundef zeroext i1 @_ZN6hermes13platform_intl12_GLOBAL__N_125isTransformedExtensionKeyERKNSt7__cxx1112basic_stringIDsSt11char_traitsIDsESaIDsEEE(ptr noundef nonnull align 8 dereferenceable(32) %subtag) #0 {
entry:
  %subtag.addr = alloca ptr, align 8
  store ptr %subtag, ptr %subtag.addr, align 8
  %0 = load ptr, ptr %subtag.addr, align 8
  %call = call noundef i64 @_ZNKSt7__cxx1112basic_stringIDsSt11char_traitsIDsESaIDsEE4sizeEv(ptr noundef nonnull align 8 dereferenceable(32) %0) #7
  %cmp = icmp eq i64 %call, 2
  br i1 %cmp, label %land.lhs.true, label %land.end

land.lhs.true:                                    ; preds = %entry
  %1 = load ptr, ptr %subtag.addr, align 8
  %call1 = call noundef nonnull align 2 dereferenceable(2) ptr @_ZNKSt7__cxx1112basic_stringIDsSt11char_traitsIDsESaIDsEE5frontEv(ptr noundef nonnull align 8 dereferenceable(32) %1) #7
  %2 = load i16, ptr %call1, align 2
  %call2 = call noundef zeroext i1 @_ZN6hermes13platform_intl12_GLOBAL__N_113isASCIILetterEDs(i16 noundef zeroext %2)
  br i1 %call2, label %land.rhs, label %land.end

land.rhs:                                         ; preds = %land.lhs.true
  %3 = load ptr, ptr %subtag.addr, align 8
  %call3 = call noundef nonnull align 2 dereferenceable(2) ptr @_ZNKSt7__cxx1112basic_stringIDsSt11char_traitsIDsESaIDsEE4backEv(ptr noundef nonnull align 8 dereferenceable(32) %3) #7
  %4 = load i16, ptr %call3, align 2
  %call4 = call noundef zeroext i1 @_ZN6hermes13platform_intl12_GLOBAL__N_112isASCIIDigitEDs(i16 noundef zeroext %4)
  br label %land.end

land.end:                                         ; preds = %land.rhs, %land.lhs.true, %entry
  %5 = phi i1 [ false, %land.lhs.true ], [ false, %entry ], [ %call4, %land.rhs ]
  ret i1 %5
}

; Function Attrs: mustprogress nounwind uwtable
define internal noundef zeroext i1 @_ZN6hermes13platform_intl12_GLOBAL__N_132isTransformedExtensionTValueItemERKNSt7__cxx1112basic_stringIDsSt11char_traitsIDsESaIDsEEE(ptr noundef nonnull align 8 dereferenceable(32) %subtag) #0 {
entry:
  %subtag.addr = alloca ptr, align 8
  store ptr %subtag, ptr %subtag.addr, align 8
  %0 = load ptr, ptr %subtag.addr, align 8
  %call = call noundef zeroext i1 @_ZN6hermes13platform_intl12_GLOBAL__N_110isCharTypeIPFbDsEEEbRKNSt7__cxx1112basic_stringIDsSt11char_traitsIDsESaIDsEEEmmT_(ptr noundef nonnull align 8 dereferenceable(32) %0, i64 noundef 3, i64 noundef 8, ptr noundef @_ZN6hermes13platform_intl12_GLOBAL__N_120isASCIILetterOrDigitEDs)
  ret i1 %call
}

; Function Attrs: mustprogress nounwind uwtable
define internal noundef zeroext i1 @_ZN6hermes13platform_intl12_GLOBAL__N_121isPrivateUseExtensionERKNSt7__cxx1112basic_stringIDsSt11char_traitsIDsESaIDsEEE(ptr noundef nonnull align 8 dereferenceable(32) %subtag) #0 {
entry:
  %subtag.addr = alloca ptr, align 8
  store ptr %subtag, ptr %subtag.addr, align 8
  %0 = load ptr, ptr %subtag.addr, align 8
  %call = call noundef zeroext i1 @_ZN6hermes13platform_intl12_GLOBAL__N_110isCharTypeIPFbDsEEEbRKNSt7__cxx1112basic_stringIDsSt11char_traitsIDsESaIDsEEEmmT_(ptr noundef nonnull align 8 dereferenceable(32) %0, i64 noundef 1, i64 noundef 8, ptr noundef @_ZN6hermes13platform_intl12_GLOBAL__N_120isASCIILetterOrDigitEDs)
  ret i1 %call
}

; Function Attrs: mustprogress nounwind uwtable
define linkonce_odr { ptr, i8 } @_ZNSt3mapIDsNSt7__cxx1112basic_stringIDsSt11char_traitsIDsESaIDsEEESt4lessIDsESaISt4pairIKDsS5_EEE6insertEOSA_(ptr noundef nonnull align 8 dereferenceable(48) %this, ptr noundef nonnull align 8 dereferenceable(40) %__x) #0 comdat align 2 {
entry:
  %retval = alloca %"struct.std::pair.26", align 8
  %this.addr = alloca ptr, align 8
  %__x.addr = alloca ptr, align 8
  store ptr %this, ptr %this.addr, align 8
  store ptr %__x, ptr %__x.addr, align 8
  %this1 = load ptr, ptr %this.addr, align 8
  %_M_t = getelementptr inbounds %"class.std::map.10", ptr %this1, i32 0, i32 0
  %0 = load ptr, ptr %__x.addr, align 8
  %call = call { ptr, i8 } @_ZNSt8_Rb_treeIDsSt4pairIKDsNSt7__cxx1112basic_stringIDsSt11char_traitsIDsESaIDsEEEESt10_Select1stIS8_ESt4lessIDsESaIS8_EE16_M_insert_uniqueIS8_EES0_ISt17_Rb_tree_iteratorIS8_EbEOT_(ptr noundef nonnull align 8 dereferenceable(48) %_M_t, ptr noundef nonnull align 8 dereferenceable(40) %0)
  %1 = getelementptr inbounds { ptr, i8 }, ptr %retval, i32 0, i32 0
  %2 = extractvalue { ptr, i8 } %call, 0
  store ptr %2, ptr %1, align 8
  %3 = getelementptr inbounds { ptr, i8 }, ptr %retval, i32 0, i32 1
  %4 = extractvalue { ptr, i8 } %call, 1
  store i8 %4, ptr %3, align 8
  %5 = load { ptr, i8 }, ptr %retval, align 8
  ret { ptr, i8 } %5
}

; Function Attrs: mustprogress nounwind uwtable
define linkonce_odr void @_ZNSt4pairIKDsNSt7__cxx1112basic_stringIDsSt11char_traitsIDsESaIDsEEEEC2IS0_S6_TnNSt9enable_ifIXaaclsr5_PCCPE18_ConstructiblePairIT_T0_EEclsr5_PCCPE26_ImplicitlyConvertiblePairISA_SB_EEEbE4typeELb1EEERS0_RKS6_(ptr noundef nonnull align 8 dereferenceable(40) %this, ptr noundef nonnull align 2 dereferenceable(2) %__a, ptr noundef nonnull align 8 dereferenceable(32) %__b) unnamed_addr #0 comdat align 2 {
entry:
  %this.addr = alloca ptr, align 8
  %__a.addr = alloca ptr, align 8
  %__b.addr = alloca ptr, align 8
  store ptr %this, ptr %this.addr, align 8
  store ptr %__a, ptr %__a.addr, align 8
  store ptr %__b, ptr %__b.addr, align 8
  %this1 = load ptr, ptr %this.addr, align 8
  %first = getelementptr inbounds %"struct.std::pair.30", ptr %this1, i32 0, i32 0
  %0 = load ptr, ptr %__a.addr, align 8
  %1 = load i16, ptr %0, align 2
  store i16 %1, ptr %first, align 8
  %second = getelementptr inbounds %"struct.std::pair.30", ptr %this1, i32 0, i32 1
  %2 = load ptr, ptr %__b.addr, align 8
  call void @_ZNSt7__cxx1112basic_stringIDsSt11char_traitsIDsESaIDsEEC2ERKS4_(ptr noundef nonnull align 8 dereferenceable(32) %second, ptr noundef nonnull align 8 dereferenceable(32) %2)
  ret void
}

; Function Attrs: mustprogress nounwind uwtable
define linkonce_odr void @_ZNSt4pairIKDsNSt7__cxx1112basic_stringIDsSt11char_traitsIDsESaIDsEEEED2Ev(ptr noundef nonnull align 8 dereferenceable(40) %this) unnamed_addr #0 comdat align 2 {
entry:
  %this.addr = alloca ptr, align 8
  store ptr %this, ptr %this.addr, align 8
  %this1 = load ptr, ptr %this.addr, align 8
  %second = getelementptr inbounds %"struct.std::pair.30", ptr %this1, i32 0, i32 1
  call void @_ZNSt7__cxx1112basic_stringIDsSt11char_traitsIDsESaIDsEED2Ev(ptr noundef nonnull align 8 dereferenceable(32) %second) #7
  ret void
}

; Function Attrs: mustprogress nounwind uwtable
define internal noundef zeroext i1 @_ZN6hermes13platform_intl12_GLOBAL__N_116isOtherExtensionERKNSt7__cxx1112basic_stringIDsSt11char_traitsIDsESaIDsEEE(ptr noundef nonnull align 8 dereferenceable(32) %subtag) #0 {
entry:
  %subtag.addr = alloca ptr, align 8
  store ptr %subtag, ptr %subtag.addr, align 8
  %0 = load ptr, ptr %subtag.addr, align 8
  %call = call noundef zeroext i1 @_ZN6hermes13platform_intl12_GLOBAL__N_110isCharTypeIPFbDsEEEbRKNSt7__cxx1112basic_stringIDsSt11char_traitsIDsESaIDsEEEmmT_(ptr noundef nonnull align 8 dereferenceable(32) %0, i64 noundef 2, i64 noundef 8, ptr noundef @_ZN6hermes13platform_intl12_GLOBAL__N_120isASCIILetterOrDigitEDs)
  ret i1 %call
}

; Function Attrs: mustprogress nounwind uwtable
define linkonce_odr noundef ptr @_ZNKSt17_Rb_tree_iteratorISt4pairIKDsNSt7__cxx1112basic_stringIDsSt11char_traitsIDsESaIDsEEEEEptEv(ptr noundef nonnull align 8 dereferenceable(8) %this) #0 comdat align 2 {
entry:
  %this.addr = alloca ptr, align 8
  store ptr %this, ptr %this.addr, align 8
  %this1 = load ptr, ptr %this.addr, align 8
  %_M_node = getelementptr inbounds %"struct.std::_Rb_tree_iterator.28", ptr %this1, i32 0, i32 0
  %0 = load ptr, ptr %_M_node, align 8
  %call = call noundef ptr @_ZNSt13_Rb_tree_nodeISt4pairIKDsNSt7__cxx1112basic_stringIDsSt11char_traitsIDsESaIDsEEEEE9_M_valptrEv(ptr noundef nonnull align 8 dereferenceable(72) %0)
  ret ptr %call
}

; Function Attrs: mustprogress nounwind uwtable
define linkonce_odr noundef zeroext i1 @_ZNKSt6vectorINSt7__cxx1112basic_stringIDsSt11char_traitsIDsESaIDsEEESaIS5_EE5emptyEv(ptr noundef nonnull align 8 dereferenceable(24) %this) #0 comdat align 2 {
entry:
  %this.addr = alloca ptr, align 8
  %ref.tmp = alloca %"class.__gnu_cxx::__normal_iterator.51", align 8
  %ref.tmp2 = alloca %"class.__gnu_cxx::__normal_iterator.51", align 8
  store ptr %this, ptr %this.addr, align 8
  %this1 = load ptr, ptr %this.addr, align 8
  %call = call ptr @_ZNKSt6vectorINSt7__cxx1112basic_stringIDsSt11char_traitsIDsESaIDsEEESaIS5_EE5beginEv(ptr noundef nonnull align 8 dereferenceable(24) %this1) #7
  %coerce.dive = getelementptr inbounds %"class.__gnu_cxx::__normal_iterator.51", ptr %ref.tmp, i32 0, i32 0
  store ptr %call, ptr %coerce.dive, align 8
  %call3 = call ptr @_ZNKSt6vectorINSt7__cxx1112basic_stringIDsSt11char_traitsIDsESaIDsEEESaIS5_EE3endEv(ptr noundef nonnull align 8 dereferenceable(24) %this1) #7
  %coerce.dive4 = getelementptr inbounds %"class.__gnu_cxx::__normal_iterator.51", ptr %ref.tmp2, i32 0, i32 0
  store ptr %call3, ptr %coerce.dive4, align 8
  %call5 = call noundef zeroext i1 @_ZN9__gnu_cxxeqIPKNSt7__cxx1112basic_stringIDsSt11char_traitsIDsESaIDsEEESt6vectorIS6_SaIS6_EEEEbRKNS_17__normal_iteratorIT_T0_EESH_(ptr noundef nonnull align 8 dereferenceable(8) %ref.tmp, ptr noundef nonnull align 8 dereferenceable(8) %ref.tmp2) #7
  ret i1 %call5
}

; Function Attrs: mustprogress nounwind uwtable
define linkonce_odr void @_ZNSt6vectorINSt7__cxx1112basic_stringIDsSt11char_traitsIDsESaIDsEEESaIS5_EE8pop_backEv(ptr noundef nonnull align 8 dereferenceable(24) %this) #0 comdat align 2 {
entry:
  %this.addr = alloca ptr, align 8
  store ptr %this, ptr %this.addr, align 8
  %this1 = load ptr, ptr %this.addr, align 8
  %_M_impl = getelementptr inbounds %"struct.std::_Vector_base", ptr %this1, i32 0, i32 0
  %_M_finish = getelementptr inbounds %"struct.std::_Vector_base<std::__cxx11::basic_string<char16_t>, std::allocator<std::__cxx11::basic_string<char16_t>>>::_Vector_impl_data", ptr %_M_impl, i32 0, i32 1
  %0 = load ptr, ptr %_M_finish, align 8
  %incdec.ptr = getelementptr inbounds %"class.std::__cxx11::basic_string", ptr %0, i32 -1
  store ptr %incdec.ptr, ptr %_M_finish, align 8
  %_M_impl2 = getelementptr inbounds %"struct.std::_Vector_base", ptr %this1, i32 0, i32 0
  %_M_impl3 = getelementptr inbounds %"struct.std::_Vector_base", ptr %this1, i32 0, i32 0
  %_M_finish4 = getelementptr inbounds %"struct.std::_Vector_base<std::__cxx11::basic_string<char16_t>, std::allocator<std::__cxx11::basic_string<char16_t>>>::_Vector_impl_data", ptr %_M_impl3, i32 0, i32 1
  %1 = load ptr, ptr %_M_finish4, align 8
  call void @_ZNSt16allocator_traitsISaINSt7__cxx1112basic_stringIDsSt11char_traitsIDsESaIDsEEEEE7destroyIS5_EEvRS6_PT_(ptr noundef nonnull align 1 dereferenceable(1) %_M_impl2, ptr noundef %1) #7
  ret void
}

; Function Attrs: mustprogress nounwind uwtable
define linkonce_odr noundef nonnull align 8 dereferenceable(32) ptr @_ZNKSt6vectorINSt7__cxx1112basic_stringIDsSt11char_traitsIDsESaIDsEEESaIS5_EE4backEv(ptr noundef nonnull align 8 dereferenceable(24) %this) #0 comdat align 2 {
entry:
  %this.addr = alloca ptr, align 8
  %ref.tmp = alloca %"class.__gnu_cxx::__normal_iterator.51", align 8
  %ref.tmp2 = alloca %"class.__gnu_cxx::__normal_iterator.51", align 8
  store ptr %this, ptr %this.addr, align 8
  %this1 = load ptr, ptr %this.addr, align 8
  %call = call ptr @_ZNKSt6vectorINSt7__cxx1112basic_stringIDsSt11char_traitsIDsESaIDsEEESaIS5_EE3endEv(ptr noundef nonnull align 8 dereferenceable(24) %this1) #7
  %coerce.dive = getelementptr inbounds %"class.__gnu_cxx::__normal_iterator.51", ptr %ref.tmp2, i32 0, i32 0
  store ptr %call, ptr %coerce.dive, align 8
  %call3 = call ptr @_ZNK9__gnu_cxx17__normal_iteratorIPKNSt7__cxx1112basic_stringIDsSt11char_traitsIDsESaIDsEEESt6vectorIS6_SaIS6_EEEmiEl(ptr noundef nonnull align 8 dereferenceable(8) %ref.tmp2, i64 noundef 1) #7
  %coerce.dive4 = getelementptr inbounds %"class.__gnu_cxx::__normal_iterator.51", ptr %ref.tmp, i32 0, i32 0
  store ptr %call3, ptr %coerce.dive4, align 8
  %call5 = call noundef nonnull align 8 dereferenceable(32) ptr @_ZNK9__gnu_cxx17__normal_iteratorIPKNSt7__cxx1112basic_stringIDsSt11char_traitsIDsESaIDsEEESt6vectorIS6_SaIS6_EEEdeEv(ptr noundef nonnull align 8 dereferenceable(8) %ref.tmp) #7
  ret ptr %call5
}

; Function Attrs: mustprogress nounwind uwtable
define hidden void @_ZN6hermes13platform_intl22ParsedLocaleIdentifier5parseERKNSt7__cxx1112basic_stringIDsSt11char_traitsIDsESaIDsEEE(ptr noalias sret(%"class.std::optional") align 8 %agg.result, ptr noundef nonnull align 8 dereferenceable(32) %localeId) #0 align 2 {
entry:
  %result.ptr = alloca ptr, align 8
  %localeId.addr = alloca ptr, align 8
  %parser = alloca %"class.hermes::platform_intl::LanguageTagParser", align 8
  store ptr %agg.result, ptr %result.ptr, align 8
  store ptr %localeId, ptr %localeId.addr, align 8
  %0 = load ptr, ptr %localeId.addr, align 8
  call void @_ZN6hermes13platform_intl17LanguageTagParserC1ERKNSt7__cxx1112basic_stringIDsSt11char_traitsIDsESaIDsEEE(ptr noundef nonnull align 8 dereferenceable(536) %parser, ptr noundef nonnull align 8 dereferenceable(32) %0)
  call void @_ZN6hermes13platform_intl17LanguageTagParser20parseUnicodeLocaleIdEv(ptr sret(%"class.std::optional") align 8 %agg.result, ptr noundef nonnull align 8 dereferenceable(536) %parser)
  call void @_ZN6hermes13platform_intl17LanguageTagParserD2Ev(ptr noundef nonnull align 8 dereferenceable(536) %parser) #7
  ret void
}

; Function Attrs: mustprogress nounwind uwtable
define linkonce_odr hidden void @_ZN6hermes13platform_intl17LanguageTagParserD2Ev(ptr noundef nonnull align 8 dereferenceable(536) %this) unnamed_addr #0 comdat align 2 {
entry:
  %this.addr = alloca ptr, align 8
  store ptr %this, ptr %this.addr, align 8
  %this1 = load ptr, ptr %this.addr, align 8
  %subtags_ = getelementptr inbounds %"class.hermes::platform_intl::LanguageTagParser", ptr %this1, i32 0, i32 1
  call void @_ZNSt6vectorINSt7__cxx1112basic_stringIDsSt11char_traitsIDsESaIDsEEESaIS5_EED2Ev(ptr noundef nonnull align 8 dereferenceable(24) %subtags_) #7
  %result_ = getelementptr inbounds %"class.hermes::platform_intl::LanguageTagParser", ptr %this1, i32 0, i32 0
  call void @_ZN6hermes13platform_intl22ParsedLocaleIdentifierD2Ev(ptr noundef nonnull align 8 dereferenceable(512) %result_) #7
  ret void
}

; Function Attrs: mustprogress nounwind uwtable
define hidden void @_ZNK6hermes13platform_intl22ParsedLocaleIdentifier12canonicalizeB5cxx11Ev(ptr noalias sret(%"class.std::__cxx11::basic_string") align 8 %agg.result, ptr noundef nonnull align 8 dereferenceable(512) %this) #0 align 2 {
entry:
  %result.ptr = alloca ptr, align 8
  %this.addr = alloca ptr, align 8
  %nrvo = alloca i1, align 1
  %scriptSubtag = alloca ptr, align 8
  %toAsciiUpper = alloca %class.anon, align 1
  %agg.tmp = alloca %"class.std::initializer_list", align 8
  %ref.tmp = alloca [2 x i16], align 2
  %i = alloca i64, align 8
  %__range3 = alloca ptr, align 8
  %__begin3 = alloca %"class.__gnu_cxx::__normal_iterator.32", align 8
  %__end3 = alloca %"class.__gnu_cxx::__normal_iterator.32", align 8
  %c = alloca i16, align 2
  %__range2 = alloca ptr, align 8
  %__begin2 = alloca %"struct.std::_Rb_tree_const_iterator", align 8
  %__end2 = alloca %"struct.std::_Rb_tree_const_iterator", align 8
  %subtag = alloca ptr, align 8
  %oExtIt = alloca %"struct.std::_Rb_tree_const_iterator.33", align 8
  %ref.tmp46 = alloca %"struct.std::_Rb_tree_const_iterator.33", align 8
  %agg.tmp53 = alloca %"class.std::initializer_list", align 8
  %ref.tmp54 = alloca [2 x i16], align 2
  %coerce = alloca %"struct.std::_Rb_tree_const_iterator.33", align 8
  %transformedExtension = alloca %"class.std::__cxx11::basic_string", align 8
  %__range299 = alloca ptr, align 8
  %__begin2102 = alloca %"struct.std::_Rb_tree_const_iterator", align 8
  %__end2105 = alloca %"struct.std::_Rb_tree_const_iterator", align 8
  %subtag111 = alloca ptr, align 8
  %__range2118 = alloca ptr, align 8
  %__begin2119 = alloca %"struct.std::_Rb_tree_const_iterator.34", align 8
  %__end2122 = alloca %"struct.std::_Rb_tree_const_iterator.34", align 8
  %p = alloca ptr, align 8
  %unicodeExtension = alloca %"class.std::__cxx11::basic_string", align 8
  %__range2148 = alloca ptr, align 8
  %__begin2149 = alloca %"struct.std::_Rb_tree_const_iterator", align 8
  %__end2152 = alloca %"struct.std::_Rb_tree_const_iterator", align 8
  %attribute = alloca ptr, align 8
  %__range2164 = alloca ptr, align 8
  %__begin2165 = alloca %"struct.std::_Rb_tree_const_iterator.34", align 8
  %__end2168 = alloca %"struct.std::_Rb_tree_const_iterator.34", align 8
  %p174 = alloca ptr, align 8
  %ref.tmp197 = alloca %"struct.std::_Rb_tree_const_iterator.33", align 8
  %agg.tmp203 = alloca %"class.std::initializer_list", align 8
  %ref.tmp204 = alloca [2 x i16], align 2
  %coerce223 = alloca %"struct.std::_Rb_tree_const_iterator.33", align 8
  store ptr %agg.result, ptr %result.ptr, align 8
  store ptr %this, ptr %this.addr, align 8
  %this1 = load ptr, ptr %this.addr, align 8
  store i1 false, ptr %nrvo, align 1
  call void @_ZNSt7__cxx1112basic_stringIDsSt11char_traitsIDsESaIDsEEC2Ev(ptr noundef nonnull align 8 dereferenceable(32) %agg.result) #7
  %languageIdentifier = getelementptr inbounds %"struct.hermes::platform_intl::ParsedLocaleIdentifier", ptr %this1, i32 0, i32 0
  %languageSubtag = getelementptr inbounds %"struct.hermes::platform_intl::ParsedLocaleIdentifier::ParsedLanguageIdentifier", ptr %languageIdentifier, i32 0, i32 0
  %call = call noundef nonnull align 8 dereferenceable(32) ptr @_ZNSt7__cxx1112basic_stringIDsSt11char_traitsIDsESaIDsEE6appendERKS4_(ptr noundef nonnull align 8 dereferenceable(32) %agg.result, ptr noundef nonnull align 8 dereferenceable(32) %languageSubtag)
  %languageIdentifier2 = getelementptr inbounds %"struct.hermes::platform_intl::ParsedLocaleIdentifier", ptr %this1, i32 0, i32 0
  %scriptSubtag3 = getelementptr inbounds %"struct.hermes::platform_intl::ParsedLocaleIdentifier::ParsedLanguageIdentifier", ptr %languageIdentifier2, i32 0, i32 1
  store ptr %scriptSubtag3, ptr %scriptSubtag, align 8
  %0 = load ptr, ptr %scriptSubtag, align 8
  %call4 = call noundef zeroext i1 @_ZNKSt7__cxx1112basic_stringIDsSt11char_traitsIDsESaIDsEE5emptyEv(ptr noundef nonnull align 8 dereferenceable(32) %0) #7
  br i1 %call4, label %if.end, label %if.then

if.then:                                          ; preds = %entry
  %arrayinit.begin = getelementptr inbounds [2 x i16], ptr %ref.tmp, i64 0, i64 0
  store i16 45, ptr %arrayinit.begin, align 2
  %arrayinit.element = getelementptr inbounds i16, ptr %arrayinit.begin, i64 1
  %1 = load ptr, ptr %scriptSubtag, align 8
  %call5 = call noundef nonnull align 2 dereferenceable(2) ptr @_ZNKSt7__cxx1112basic_stringIDsSt11char_traitsIDsESaIDsEEixEm(ptr noundef nonnull align 8 dereferenceable(32) %1, i64 noundef 0) #7
  %2 = load i16, ptr %call5, align 2
  %call6 = call noundef zeroext i16 @"_ZZNK6hermes13platform_intl22ParsedLocaleIdentifier12canonicalizeB5cxx11EvENK3$_0clEDs"(ptr noundef nonnull align 1 dereferenceable(1) %toAsciiUpper, i16 noundef zeroext %2)
  store i16 %call6, ptr %arrayinit.element, align 2
  %_M_array = getelementptr inbounds %"class.std::initializer_list", ptr %agg.tmp, i32 0, i32 0
  %arraystart = getelementptr inbounds [2 x i16], ptr %ref.tmp, i64 0, i64 0
  store ptr %arraystart, ptr %_M_array, align 8
  %_M_len = getelementptr inbounds %"class.std::initializer_list", ptr %agg.tmp, i32 0, i32 1
  store i64 2, ptr %_M_len, align 8
  %3 = getelementptr inbounds { ptr, i64 }, ptr %agg.tmp, i32 0, i32 0
  %4 = load ptr, ptr %3, align 8
  %5 = getelementptr inbounds { ptr, i64 }, ptr %agg.tmp, i32 0, i32 1
  %6 = load i64, ptr %5, align 8
  %call7 = call noundef nonnull align 8 dereferenceable(32) ptr @_ZNSt7__cxx1112basic_stringIDsSt11char_traitsIDsESaIDsEE6appendESt16initializer_listIDsE(ptr noundef nonnull align 8 dereferenceable(32) %agg.result, ptr %4, i64 %6)
  store i64 1, ptr %i, align 8
  br label %for.cond

for.cond:                                         ; preds = %for.inc, %if.then
  %7 = load i64, ptr %i, align 8
  %8 = load ptr, ptr %scriptSubtag, align 8
  %call8 = call noundef i64 @_ZNKSt7__cxx1112basic_stringIDsSt11char_traitsIDsESaIDsEE4sizeEv(ptr noundef nonnull align 8 dereferenceable(32) %8) #7
  %cmp = icmp ult i64 %7, %call8
  br i1 %cmp, label %for.body, label %for.end

for.body:                                         ; preds = %for.cond
  %9 = load ptr, ptr %scriptSubtag, align 8
  %10 = load i64, ptr %i, align 8
  %call9 = call noundef nonnull align 2 dereferenceable(2) ptr @_ZNKSt7__cxx1112basic_stringIDsSt11char_traitsIDsESaIDsEEixEm(ptr noundef nonnull align 8 dereferenceable(32) %9, i64 noundef %10) #7
  %11 = load i16, ptr %call9, align 2
  %call10 = call noundef nonnull align 8 dereferenceable(32) ptr @_ZNSt7__cxx1112basic_stringIDsSt11char_traitsIDsESaIDsEEpLEDs(ptr noundef nonnull align 8 dereferenceable(32) %agg.result, i16 noundef zeroext %11)
  br label %for.inc

for.inc:                                          ; preds = %for.body
  %12 = load i64, ptr %i, align 8
  %inc = add i64 %12, 1
  store i64 %inc, ptr %i, align 8
  br label %for.cond, !llvm.loop !15

for.end:                                          ; preds = %for.cond
  br label %if.end

if.end:                                           ; preds = %for.end, %entry
  %languageIdentifier11 = getelementptr inbounds %"struct.hermes::platform_intl::ParsedLocaleIdentifier", ptr %this1, i32 0, i32 0
  %regionSubtag = getelementptr inbounds %"struct.hermes::platform_intl::ParsedLocaleIdentifier::ParsedLanguageIdentifier", ptr %languageIdentifier11, i32 0, i32 2
  %call12 = call noundef zeroext i1 @_ZNKSt7__cxx1112basic_stringIDsSt11char_traitsIDsESaIDsEE5emptyEv(ptr noundef nonnull align 8 dereferenceable(32) %regionSubtag) #7
  br i1 %call12, label %if.end29, label %if.then13

if.then13:                                        ; preds = %if.end
  %call14 = call noundef nonnull align 8 dereferenceable(32) ptr @_ZNSt7__cxx1112basic_stringIDsSt11char_traitsIDsESaIDsEEpLEDs(ptr noundef nonnull align 8 dereferenceable(32) %agg.result, i16 noundef zeroext 45)
  %languageIdentifier15 = getelementptr inbounds %"struct.hermes::platform_intl::ParsedLocaleIdentifier", ptr %this1, i32 0, i32 0
  %regionSubtag16 = getelementptr inbounds %"struct.hermes::platform_intl::ParsedLocaleIdentifier::ParsedLanguageIdentifier", ptr %languageIdentifier15, i32 0, i32 2
  store ptr %regionSubtag16, ptr %__range3, align 8
  %13 = load ptr, ptr %__range3, align 8
  %call17 = call ptr @_ZNKSt7__cxx1112basic_stringIDsSt11char_traitsIDsESaIDsEE5beginEv(ptr noundef nonnull align 8 dereferenceable(32) %13) #7
  %coerce.dive = getelementptr inbounds %"class.__gnu_cxx::__normal_iterator.32", ptr %__begin3, i32 0, i32 0
  store ptr %call17, ptr %coerce.dive, align 8
  %14 = load ptr, ptr %__range3, align 8
  %call18 = call ptr @_ZNKSt7__cxx1112basic_stringIDsSt11char_traitsIDsESaIDsEE3endEv(ptr noundef nonnull align 8 dereferenceable(32) %14) #7
  %coerce.dive19 = getelementptr inbounds %"class.__gnu_cxx::__normal_iterator.32", ptr %__end3, i32 0, i32 0
  store ptr %call18, ptr %coerce.dive19, align 8
  br label %for.cond20

for.cond20:                                       ; preds = %for.inc26, %if.then13
  %call21 = call noundef zeroext i1 @_ZN9__gnu_cxxneIPKDsNSt7__cxx1112basic_stringIDsSt11char_traitsIDsESaIDsEEEEEbRKNS_17__normal_iteratorIT_T0_EESE_(ptr noundef nonnull align 8 dereferenceable(8) %__begin3, ptr noundef nonnull align 8 dereferenceable(8) %__end3) #7
  br i1 %call21, label %for.body22, label %for.end28

for.body22:                                       ; preds = %for.cond20
  %call23 = call noundef nonnull align 2 dereferenceable(2) ptr @_ZNK9__gnu_cxx17__normal_iteratorIPKDsNSt7__cxx1112basic_stringIDsSt11char_traitsIDsESaIDsEEEEdeEv(ptr noundef nonnull align 8 dereferenceable(8) %__begin3) #7
  %15 = load i16, ptr %call23, align 2
  store i16 %15, ptr %c, align 2
  %16 = load i16, ptr %c, align 2
  %call24 = call noundef zeroext i16 @"_ZZNK6hermes13platform_intl22ParsedLocaleIdentifier12canonicalizeB5cxx11EvENK3$_0clEDs"(ptr noundef nonnull align 1 dereferenceable(1) %toAsciiUpper, i16 noundef zeroext %16)
  %call25 = call noundef nonnull align 8 dereferenceable(32) ptr @_ZNSt7__cxx1112basic_stringIDsSt11char_traitsIDsESaIDsEEpLEDs(ptr noundef nonnull align 8 dereferenceable(32) %agg.result, i16 noundef zeroext %call24)
  br label %for.inc26

for.inc26:                                        ; preds = %for.body22
  %call27 = call noundef nonnull align 8 dereferenceable(8) ptr @_ZN9__gnu_cxx17__normal_iteratorIPKDsNSt7__cxx1112basic_stringIDsSt11char_traitsIDsESaIDsEEEEppEv(ptr noundef nonnull align 8 dereferenceable(8) %__begin3) #7
  br label %for.cond20

for.end28:                                        ; preds = %for.cond20
  br label %if.end29

if.end29:                                         ; preds = %for.end28, %if.end
  %languageIdentifier30 = getelementptr inbounds %"struct.hermes::platform_intl::ParsedLocaleIdentifier", ptr %this1, i32 0, i32 0
  %variantSubtagList = getelementptr inbounds %"struct.hermes::platform_intl::ParsedLocaleIdentifier::ParsedLanguageIdentifier", ptr %languageIdentifier30, i32 0, i32 3
  store ptr %variantSubtagList, ptr %__range2, align 8
  %17 = load ptr, ptr %__range2, align 8
  %call31 = call ptr @_ZNKSt3setINSt7__cxx1112basic_stringIDsSt11char_traitsIDsESaIDsEEESt4lessIS5_ESaIS5_EE5beginEv(ptr noundef nonnull align 8 dereferenceable(48) %17) #7
  %coerce.dive32 = getelementptr inbounds %"struct.std::_Rb_tree_const_iterator", ptr %__begin2, i32 0, i32 0
  store ptr %call31, ptr %coerce.dive32, align 8
  %18 = load ptr, ptr %__range2, align 8
  %call33 = call ptr @_ZNKSt3setINSt7__cxx1112basic_stringIDsSt11char_traitsIDsESaIDsEEESt4lessIS5_ESaIS5_EE3endEv(ptr noundef nonnull align 8 dereferenceable(48) %18) #7
  %coerce.dive34 = getelementptr inbounds %"struct.std::_Rb_tree_const_iterator", ptr %__end2, i32 0, i32 0
  store ptr %call33, ptr %coerce.dive34, align 8
  br label %for.cond35

for.cond35:                                       ; preds = %for.inc41, %if.end29
  %call36 = call noundef zeroext i1 @_ZStneRKSt23_Rb_tree_const_iteratorINSt7__cxx1112basic_stringIDsSt11char_traitsIDsESaIDsEEEES8_(ptr noundef nonnull align 8 dereferenceable(8) %__begin2, ptr noundef nonnull align 8 dereferenceable(8) %__end2) #7
  br i1 %call36, label %for.body37, label %for.end43

for.body37:                                       ; preds = %for.cond35
  %call38 = call noundef nonnull align 8 dereferenceable(32) ptr @_ZNKSt23_Rb_tree_const_iteratorINSt7__cxx1112basic_stringIDsSt11char_traitsIDsESaIDsEEEEdeEv(ptr noundef nonnull align 8 dereferenceable(8) %__begin2) #7
  store ptr %call38, ptr %subtag, align 8
  %call39 = call noundef nonnull align 8 dereferenceable(32) ptr @_ZNSt7__cxx1112basic_stringIDsSt11char_traitsIDsESaIDsEE6appendEPKDs(ptr noundef nonnull align 8 dereferenceable(32) %agg.result, ptr noundef @.str)
  %19 = load ptr, ptr %subtag, align 8
  %call40 = call noundef nonnull align 8 dereferenceable(32) ptr @_ZNSt7__cxx1112basic_stringIDsSt11char_traitsIDsESaIDsEE6appendERKS4_(ptr noundef nonnull align 8 dereferenceable(32) %call39, ptr noundef nonnull align 8 dereferenceable(32) %19)
  br label %for.inc41

for.inc41:                                        ; preds = %for.body37
  %call42 = call noundef nonnull align 8 dereferenceable(8) ptr @_ZNSt23_Rb_tree_const_iteratorINSt7__cxx1112basic_stringIDsSt11char_traitsIDsESaIDsEEEEppEv(ptr noundef nonnull align 8 dereferenceable(8) %__begin2) #7
  br label %for.cond35

for.end43:                                        ; preds = %for.cond35
  %otherExtensionMap = getelementptr inbounds %"struct.hermes::platform_intl::ParsedLocaleIdentifier", ptr %this1, i32 0, i32 5
  %call44 = call ptr @_ZNKSt3mapIDsNSt7__cxx1112basic_stringIDsSt11char_traitsIDsESaIDsEEESt4lessIDsESaISt4pairIKDsS5_EEE5beginEv(ptr noundef nonnull align 8 dereferenceable(48) %otherExtensionMap) #7
  %coerce.dive45 = getelementptr inbounds %"struct.std::_Rb_tree_const_iterator.33", ptr %oExtIt, i32 0, i32 0
  store ptr %call44, ptr %coerce.dive45, align 8
  br label %while.cond

while.cond:                                       ; preds = %if.end70, %for.end43
  %otherExtensionMap47 = getelementptr inbounds %"struct.hermes::platform_intl::ParsedLocaleIdentifier", ptr %this1, i32 0, i32 5
  %call48 = call ptr @_ZNKSt3mapIDsNSt7__cxx1112basic_stringIDsSt11char_traitsIDsESaIDsEEESt4lessIDsESaISt4pairIKDsS5_EEE3endEv(ptr noundef nonnull align 8 dereferenceable(48) %otherExtensionMap47) #7
  %coerce.dive49 = getelementptr inbounds %"struct.std::_Rb_tree_const_iterator.33", ptr %ref.tmp46, i32 0, i32 0
  store ptr %call48, ptr %coerce.dive49, align 8
  %call50 = call noundef zeroext i1 @_ZStneRKSt23_Rb_tree_const_iteratorISt4pairIKDsNSt7__cxx1112basic_stringIDsSt11char_traitsIDsESaIDsEEEEESB_(ptr noundef nonnull align 8 dereferenceable(8) %oExtIt, ptr noundef nonnull align 8 dereferenceable(8) %ref.tmp46) #7
  br i1 %call50, label %land.rhs, label %land.end

land.rhs:                                         ; preds = %while.cond
  %call51 = call noundef ptr @_ZNKSt23_Rb_tree_const_iteratorISt4pairIKDsNSt7__cxx1112basic_stringIDsSt11char_traitsIDsESaIDsEEEEEptEv(ptr noundef nonnull align 8 dereferenceable(8) %oExtIt) #7
  %first = getelementptr inbounds %"struct.std::pair.30", ptr %call51, i32 0, i32 0
  %20 = load i16, ptr %first, align 8
  %conv = zext i16 %20 to i32
  %cmp52 = icmp slt i32 %conv, 116
  br label %land.end

land.end:                                         ; preds = %land.rhs, %while.cond
  %21 = phi i1 [ false, %while.cond ], [ %cmp52, %land.rhs ]
  br i1 %21, label %while.body, label %while.end

while.body:                                       ; preds = %land.end
  %arrayinit.begin55 = getelementptr inbounds [2 x i16], ptr %ref.tmp54, i64 0, i64 0
  store i16 45, ptr %arrayinit.begin55, align 2
  %arrayinit.element56 = getelementptr inbounds i16, ptr %arrayinit.begin55, i64 1
  %call57 = call noundef ptr @_ZNKSt23_Rb_tree_const_iteratorISt4pairIKDsNSt7__cxx1112basic_stringIDsSt11char_traitsIDsESaIDsEEEEEptEv(ptr noundef nonnull align 8 dereferenceable(8) %oExtIt) #7
  %first58 = getelementptr inbounds %"struct.std::pair.30", ptr %call57, i32 0, i32 0
  %22 = load i16, ptr %first58, align 8
  store i16 %22, ptr %arrayinit.element56, align 2
  %_M_array59 = getelementptr inbounds %"class.std::initializer_list", ptr %agg.tmp53, i32 0, i32 0
  %arraystart60 = getelementptr inbounds [2 x i16], ptr %ref.tmp54, i64 0, i64 0
  store ptr %arraystart60, ptr %_M_array59, align 8
  %_M_len61 = getelementptr inbounds %"class.std::initializer_list", ptr %agg.tmp53, i32 0, i32 1
  store i64 2, ptr %_M_len61, align 8
  %23 = getelementptr inbounds { ptr, i64 }, ptr %agg.tmp53, i32 0, i32 0
  %24 = load ptr, ptr %23, align 8
  %25 = getelementptr inbounds { ptr, i64 }, ptr %agg.tmp53, i32 0, i32 1
  %26 = load i64, ptr %25, align 8
  %call62 = call noundef nonnull align 8 dereferenceable(32) ptr @_ZNSt7__cxx1112basic_stringIDsSt11char_traitsIDsESaIDsEE6appendESt16initializer_listIDsE(ptr noundef nonnull align 8 dereferenceable(32) %agg.result, ptr %24, i64 %26)
  %call63 = call noundef ptr @_ZNKSt23_Rb_tree_const_iteratorISt4pairIKDsNSt7__cxx1112basic_stringIDsSt11char_traitsIDsESaIDsEEEEEptEv(ptr noundef nonnull align 8 dereferenceable(8) %oExtIt) #7
  %second = getelementptr inbounds %"struct.std::pair.30", ptr %call63, i32 0, i32 1
  %call64 = call noundef zeroext i1 @_ZNKSt7__cxx1112basic_stringIDsSt11char_traitsIDsESaIDsEE5emptyEv(ptr noundef nonnull align 8 dereferenceable(32) %second) #7
  br i1 %call64, label %if.end70, label %if.then65

if.then65:                                        ; preds = %while.body
  %call66 = call noundef nonnull align 8 dereferenceable(32) ptr @_ZNSt7__cxx1112basic_stringIDsSt11char_traitsIDsESaIDsEE6appendEPKDs(ptr noundef nonnull align 8 dereferenceable(32) %agg.result, ptr noundef @.str)
  %call67 = call noundef ptr @_ZNKSt23_Rb_tree_const_iteratorISt4pairIKDsNSt7__cxx1112basic_stringIDsSt11char_traitsIDsESaIDsEEEEEptEv(ptr noundef nonnull align 8 dereferenceable(8) %oExtIt) #7
  %second68 = getelementptr inbounds %"struct.std::pair.30", ptr %call67, i32 0, i32 1
  %call69 = call noundef nonnull align 8 dereferenceable(32) ptr @_ZNSt7__cxx1112basic_stringIDsSt11char_traitsIDsESaIDsEE6appendERKS4_(ptr noundef nonnull align 8 dereferenceable(32) %call66, ptr noundef nonnull align 8 dereferenceable(32) %second68)
  br label %if.end70

if.end70:                                         ; preds = %if.then65, %while.body
  %call71 = call ptr @_ZNSt23_Rb_tree_const_iteratorISt4pairIKDsNSt7__cxx1112basic_stringIDsSt11char_traitsIDsESaIDsEEEEEppEi(ptr noundef nonnull align 8 dereferenceable(8) %oExtIt, i32 noundef 0) #7
  %coerce.dive72 = getelementptr inbounds %"struct.std::_Rb_tree_const_iterator.33", ptr %coerce, i32 0, i32 0
  store ptr %call71, ptr %coerce.dive72, align 8
  br label %while.cond, !llvm.loop !16

while.end:                                        ; preds = %land.end
  call void @_ZNSt7__cxx1112basic_stringIDsSt11char_traitsIDsESaIDsEEC2Ev(ptr noundef nonnull align 8 dereferenceable(32) %transformedExtension) #7
  %transformedLanguageIdentifier = getelementptr inbounds %"struct.hermes::platform_intl::ParsedLocaleIdentifier", ptr %this1, i32 0, i32 3
  %languageSubtag73 = getelementptr inbounds %"struct.hermes::platform_intl::ParsedLocaleIdentifier::ParsedLanguageIdentifier", ptr %transformedLanguageIdentifier, i32 0, i32 0
  %call74 = call noundef zeroext i1 @_ZNKSt7__cxx1112basic_stringIDsSt11char_traitsIDsESaIDsEE5emptyEv(ptr noundef nonnull align 8 dereferenceable(32) %languageSubtag73) #7
  br i1 %call74, label %if.end80, label %if.then75

if.then75:                                        ; preds = %while.end
  %call76 = call noundef nonnull align 8 dereferenceable(32) ptr @_ZNSt7__cxx1112basic_stringIDsSt11char_traitsIDsESaIDsEE6appendEPKDs(ptr noundef nonnull align 8 dereferenceable(32) %transformedExtension, ptr noundef @.str)
  %transformedLanguageIdentifier77 = getelementptr inbounds %"struct.hermes::platform_intl::ParsedLocaleIdentifier", ptr %this1, i32 0, i32 3
  %languageSubtag78 = getelementptr inbounds %"struct.hermes::platform_intl::ParsedLocaleIdentifier::ParsedLanguageIdentifier", ptr %transformedLanguageIdentifier77, i32 0, i32 0
  %call79 = call noundef nonnull align 8 dereferenceable(32) ptr @_ZNSt7__cxx1112basic_stringIDsSt11char_traitsIDsESaIDsEE6appendERKS4_(ptr noundef nonnull align 8 dereferenceable(32) %call76, ptr noundef nonnull align 8 dereferenceable(32) %languageSubtag78)
  br label %if.end80

if.end80:                                         ; preds = %if.then75, %while.end
  %transformedLanguageIdentifier81 = getelementptr inbounds %"struct.hermes::platform_intl::ParsedLocaleIdentifier", ptr %this1, i32 0, i32 3
  %scriptSubtag82 = getelementptr inbounds %"struct.hermes::platform_intl::ParsedLocaleIdentifier::ParsedLanguageIdentifier", ptr %transformedLanguageIdentifier81, i32 0, i32 1
  %call83 = call noundef zeroext i1 @_ZNKSt7__cxx1112basic_stringIDsSt11char_traitsIDsESaIDsEE5emptyEv(ptr noundef nonnull align 8 dereferenceable(32) %scriptSubtag82) #7
  br i1 %call83, label %if.end89, label %if.then84

if.then84:                                        ; preds = %if.end80
  %call85 = call noundef nonnull align 8 dereferenceable(32) ptr @_ZNSt7__cxx1112basic_stringIDsSt11char_traitsIDsESaIDsEE6appendEPKDs(ptr noundef nonnull align 8 dereferenceable(32) %transformedExtension, ptr noundef @.str)
  %transformedLanguageIdentifier86 = getelementptr inbounds %"struct.hermes::platform_intl::ParsedLocaleIdentifier", ptr %this1, i32 0, i32 3
  %scriptSubtag87 = getelementptr inbounds %"struct.hermes::platform_intl::ParsedLocaleIdentifier::ParsedLanguageIdentifier", ptr %transformedLanguageIdentifier86, i32 0, i32 1
  %call88 = call noundef nonnull align 8 dereferenceable(32) ptr @_ZNSt7__cxx1112basic_stringIDsSt11char_traitsIDsESaIDsEE6appendERKS4_(ptr noundef nonnull align 8 dereferenceable(32) %call85, ptr noundef nonnull align 8 dereferenceable(32) %scriptSubtag87)
  br label %if.end89

if.end89:                                         ; preds = %if.then84, %if.end80
  %transformedLanguageIdentifier90 = getelementptr inbounds %"struct.hermes::platform_intl::ParsedLocaleIdentifier", ptr %this1, i32 0, i32 3
  %regionSubtag91 = getelementptr inbounds %"struct.hermes::platform_intl::ParsedLocaleIdentifier::ParsedLanguageIdentifier", ptr %transformedLanguageIdentifier90, i32 0, i32 2
  %call92 = call noundef zeroext i1 @_ZNKSt7__cxx1112basic_stringIDsSt11char_traitsIDsESaIDsEE5emptyEv(ptr noundef nonnull align 8 dereferenceable(32) %regionSubtag91) #7
  br i1 %call92, label %if.end98, label %if.then93

if.then93:                                        ; preds = %if.end89
  %call94 = call noundef nonnull align 8 dereferenceable(32) ptr @_ZNSt7__cxx1112basic_stringIDsSt11char_traitsIDsESaIDsEE6appendEPKDs(ptr noundef nonnull align 8 dereferenceable(32) %transformedExtension, ptr noundef @.str)
  %transformedLanguageIdentifier95 = getelementptr inbounds %"struct.hermes::platform_intl::ParsedLocaleIdentifier", ptr %this1, i32 0, i32 3
  %regionSubtag96 = getelementptr inbounds %"struct.hermes::platform_intl::ParsedLocaleIdentifier::ParsedLanguageIdentifier", ptr %transformedLanguageIdentifier95, i32 0, i32 2
  %call97 = call noundef nonnull align 8 dereferenceable(32) ptr @_ZNSt7__cxx1112basic_stringIDsSt11char_traitsIDsESaIDsEE6appendERKS4_(ptr noundef nonnull align 8 dereferenceable(32) %call94, ptr noundef nonnull align 8 dereferenceable(32) %regionSubtag96)
  br label %if.end98

if.end98:                                         ; preds = %if.then93, %if.end89
  %transformedLanguageIdentifier100 = getelementptr inbounds %"struct.hermes::platform_intl::ParsedLocaleIdentifier", ptr %this1, i32 0, i32 3
  %variantSubtagList101 = getelementptr inbounds %"struct.hermes::platform_intl::ParsedLocaleIdentifier::ParsedLanguageIdentifier", ptr %transformedLanguageIdentifier100, i32 0, i32 3
  store ptr %variantSubtagList101, ptr %__range299, align 8
  %27 = load ptr, ptr %__range299, align 8
  %call103 = call ptr @_ZNKSt3setINSt7__cxx1112basic_stringIDsSt11char_traitsIDsESaIDsEEESt4lessIS5_ESaIS5_EE5beginEv(ptr noundef nonnull align 8 dereferenceable(48) %27) #7
  %coerce.dive104 = getelementptr inbounds %"struct.std::_Rb_tree_const_iterator", ptr %__begin2102, i32 0, i32 0
  store ptr %call103, ptr %coerce.dive104, align 8
  %28 = load ptr, ptr %__range299, align 8
  %call106 = call ptr @_ZNKSt3setINSt7__cxx1112basic_stringIDsSt11char_traitsIDsESaIDsEEESt4lessIS5_ESaIS5_EE3endEv(ptr noundef nonnull align 8 dereferenceable(48) %28) #7
  %coerce.dive107 = getelementptr inbounds %"struct.std::_Rb_tree_const_iterator", ptr %__end2105, i32 0, i32 0
  store ptr %call106, ptr %coerce.dive107, align 8
  br label %for.cond108

for.cond108:                                      ; preds = %for.inc115, %if.end98
  %call109 = call noundef zeroext i1 @_ZStneRKSt23_Rb_tree_const_iteratorINSt7__cxx1112basic_stringIDsSt11char_traitsIDsESaIDsEEEES8_(ptr noundef nonnull align 8 dereferenceable(8) %__begin2102, ptr noundef nonnull align 8 dereferenceable(8) %__end2105) #7
  br i1 %call109, label %for.body110, label %for.end117

for.body110:                                      ; preds = %for.cond108
  %call112 = call noundef nonnull align 8 dereferenceable(32) ptr @_ZNKSt23_Rb_tree_const_iteratorINSt7__cxx1112basic_stringIDsSt11char_traitsIDsESaIDsEEEEdeEv(ptr noundef nonnull align 8 dereferenceable(8) %__begin2102) #7
  store ptr %call112, ptr %subtag111, align 8
  %call113 = call noundef nonnull align 8 dereferenceable(32) ptr @_ZNSt7__cxx1112basic_stringIDsSt11char_traitsIDsESaIDsEE6appendEPKDs(ptr noundef nonnull align 8 dereferenceable(32) %transformedExtension, ptr noundef @.str)
  %29 = load ptr, ptr %subtag111, align 8
  %call114 = call noundef nonnull align 8 dereferenceable(32) ptr @_ZNSt7__cxx1112basic_stringIDsSt11char_traitsIDsESaIDsEE6appendERKS4_(ptr noundef nonnull align 8 dereferenceable(32) %call113, ptr noundef nonnull align 8 dereferenceable(32) %29)
  br label %for.inc115

for.inc115:                                       ; preds = %for.body110
  %call116 = call noundef nonnull align 8 dereferenceable(8) ptr @_ZNSt23_Rb_tree_const_iteratorINSt7__cxx1112basic_stringIDsSt11char_traitsIDsESaIDsEEEEppEv(ptr noundef nonnull align 8 dereferenceable(8) %__begin2102) #7
  br label %for.cond108

for.end117:                                       ; preds = %for.cond108
  %transformedExtensionFields = getelementptr inbounds %"struct.hermes::platform_intl::ParsedLocaleIdentifier", ptr %this1, i32 0, i32 4
  store ptr %transformedExtensionFields, ptr %__range2118, align 8
  %30 = load ptr, ptr %__range2118, align 8
  %call120 = call ptr @_ZNKSt3mapINSt7__cxx1112basic_stringIDsSt11char_traitsIDsESaIDsEEES5_St4lessIS5_ESaISt4pairIKS5_S5_EEE5beginEv(ptr noundef nonnull align 8 dereferenceable(48) %30) #7
  %coerce.dive121 = getelementptr inbounds %"struct.std::_Rb_tree_const_iterator.34", ptr %__begin2119, i32 0, i32 0
  store ptr %call120, ptr %coerce.dive121, align 8
  %31 = load ptr, ptr %__range2118, align 8
  %call123 = call ptr @_ZNKSt3mapINSt7__cxx1112basic_stringIDsSt11char_traitsIDsESaIDsEEES5_St4lessIS5_ESaISt4pairIKS5_S5_EEE3endEv(ptr noundef nonnull align 8 dereferenceable(48) %31) #7
  %coerce.dive124 = getelementptr inbounds %"struct.std::_Rb_tree_const_iterator.34", ptr %__end2122, i32 0, i32 0
  store ptr %call123, ptr %coerce.dive124, align 8
  br label %for.cond125

for.cond125:                                      ; preds = %for.inc139, %for.end117
  %call126 = call noundef zeroext i1 @_ZStneRKSt23_Rb_tree_const_iteratorISt4pairIKNSt7__cxx1112basic_stringIDsSt11char_traitsIDsESaIDsEEES6_EESB_(ptr noundef nonnull align 8 dereferenceable(8) %__begin2119, ptr noundef nonnull align 8 dereferenceable(8) %__end2122) #7
  br i1 %call126, label %for.body127, label %for.end141

for.body127:                                      ; preds = %for.cond125
  %call128 = call noundef nonnull align 8 dereferenceable(64) ptr @_ZNKSt23_Rb_tree_const_iteratorISt4pairIKNSt7__cxx1112basic_stringIDsSt11char_traitsIDsESaIDsEEES6_EEdeEv(ptr noundef nonnull align 8 dereferenceable(8) %__begin2119) #7
  store ptr %call128, ptr %p, align 8
  %call129 = call noundef nonnull align 8 dereferenceable(32) ptr @_ZNSt7__cxx1112basic_stringIDsSt11char_traitsIDsESaIDsEE6appendEPKDs(ptr noundef nonnull align 8 dereferenceable(32) %transformedExtension, ptr noundef @.str)
  %32 = load ptr, ptr %p, align 8
  %first130 = getelementptr inbounds %"struct.std::pair.24", ptr %32, i32 0, i32 0
  %call131 = call noundef nonnull align 8 dereferenceable(32) ptr @_ZNSt7__cxx1112basic_stringIDsSt11char_traitsIDsESaIDsEE6appendERKS4_(ptr noundef nonnull align 8 dereferenceable(32) %call129, ptr noundef nonnull align 8 dereferenceable(32) %first130)
  %33 = load ptr, ptr %p, align 8
  %second132 = getelementptr inbounds %"struct.std::pair.24", ptr %33, i32 0, i32 1
  %call133 = call noundef zeroext i1 @_ZNKSt7__cxx1112basic_stringIDsSt11char_traitsIDsESaIDsEE5emptyEv(ptr noundef nonnull align 8 dereferenceable(32) %second132) #7
  br i1 %call133, label %if.end138, label %if.then134

if.then134:                                       ; preds = %for.body127
  %call135 = call noundef nonnull align 8 dereferenceable(32) ptr @_ZNSt7__cxx1112basic_stringIDsSt11char_traitsIDsESaIDsEE6appendEPKDs(ptr noundef nonnull align 8 dereferenceable(32) %transformedExtension, ptr noundef @.str)
  %34 = load ptr, ptr %p, align 8
  %second136 = getelementptr inbounds %"struct.std::pair.24", ptr %34, i32 0, i32 1
  %call137 = call noundef nonnull align 8 dereferenceable(32) ptr @_ZNSt7__cxx1112basic_stringIDsSt11char_traitsIDsESaIDsEE6appendERKS4_(ptr noundef nonnull align 8 dereferenceable(32) %call135, ptr noundef nonnull align 8 dereferenceable(32) %second136)
  br label %if.end138

if.end138:                                        ; preds = %if.then134, %for.body127
  br label %for.inc139

for.inc139:                                       ; preds = %if.end138
  %call140 = call noundef nonnull align 8 dereferenceable(8) ptr @_ZNSt23_Rb_tree_const_iteratorISt4pairIKNSt7__cxx1112basic_stringIDsSt11char_traitsIDsESaIDsEEES6_EEppEv(ptr noundef nonnull align 8 dereferenceable(8) %__begin2119) #7
  br label %for.cond125

for.end141:                                       ; preds = %for.cond125
  %call142 = call noundef i64 @_ZNKSt7__cxx1112basic_stringIDsSt11char_traitsIDsESaIDsEE6lengthEv(ptr noundef nonnull align 8 dereferenceable(32) %transformedExtension) #7
  %cmp143 = icmp ugt i64 %call142, 0
  br i1 %cmp143, label %if.then144, label %if.end147

if.then144:                                       ; preds = %for.end141
  %call145 = call noundef nonnull align 8 dereferenceable(32) ptr @_ZNSt7__cxx1112basic_stringIDsSt11char_traitsIDsESaIDsEE6appendEPKDs(ptr noundef nonnull align 8 dereferenceable(32) %agg.result, ptr noundef @.str.1)
  %call146 = call noundef nonnull align 8 dereferenceable(32) ptr @_ZNSt7__cxx1112basic_stringIDsSt11char_traitsIDsESaIDsEE6appendERKS4_(ptr noundef nonnull align 8 dereferenceable(32) %call145, ptr noundef nonnull align 8 dereferenceable(32) %transformedExtension)
  br label %if.end147

if.end147:                                        ; preds = %if.then144, %for.end141
  call void @_ZNSt7__cxx1112basic_stringIDsSt11char_traitsIDsESaIDsEED2Ev(ptr noundef nonnull align 8 dereferenceable(32) %transformedExtension) #7
  call void @_ZNSt7__cxx1112basic_stringIDsSt11char_traitsIDsESaIDsEEC2Ev(ptr noundef nonnull align 8 dereferenceable(32) %unicodeExtension) #7
  %unicodeExtensionAttributes = getelementptr inbounds %"struct.hermes::platform_intl::ParsedLocaleIdentifier", ptr %this1, i32 0, i32 1
  store ptr %unicodeExtensionAttributes, ptr %__range2148, align 8
  %35 = load ptr, ptr %__range2148, align 8
  %call150 = call ptr @_ZNKSt3setINSt7__cxx1112basic_stringIDsSt11char_traitsIDsESaIDsEEESt4lessIS5_ESaIS5_EE5beginEv(ptr noundef nonnull align 8 dereferenceable(48) %35) #7
  %coerce.dive151 = getelementptr inbounds %"struct.std::_Rb_tree_const_iterator", ptr %__begin2149, i32 0, i32 0
  store ptr %call150, ptr %coerce.dive151, align 8
  %36 = load ptr, ptr %__range2148, align 8
  %call153 = call ptr @_ZNKSt3setINSt7__cxx1112basic_stringIDsSt11char_traitsIDsESaIDsEEESt4lessIS5_ESaIS5_EE3endEv(ptr noundef nonnull align 8 dereferenceable(48) %36) #7
  %coerce.dive154 = getelementptr inbounds %"struct.std::_Rb_tree_const_iterator", ptr %__end2152, i32 0, i32 0
  store ptr %call153, ptr %coerce.dive154, align 8
  br label %for.cond155

for.cond155:                                      ; preds = %for.inc161, %if.end147
  %call156 = call noundef zeroext i1 @_ZStneRKSt23_Rb_tree_const_iteratorINSt7__cxx1112basic_stringIDsSt11char_traitsIDsESaIDsEEEES8_(ptr noundef nonnull align 8 dereferenceable(8) %__begin2149, ptr noundef nonnull align 8 dereferenceable(8) %__end2152) #7
  br i1 %call156, label %for.body157, label %for.end163

for.body157:                                      ; preds = %for.cond155
  %call158 = call noundef nonnull align 8 dereferenceable(32) ptr @_ZNKSt23_Rb_tree_const_iteratorINSt7__cxx1112basic_stringIDsSt11char_traitsIDsESaIDsEEEEdeEv(ptr noundef nonnull align 8 dereferenceable(8) %__begin2149) #7
  store ptr %call158, ptr %attribute, align 8
  %call159 = call noundef nonnull align 8 dereferenceable(32) ptr @_ZNSt7__cxx1112basic_stringIDsSt11char_traitsIDsESaIDsEE6appendEPKDs(ptr noundef nonnull align 8 dereferenceable(32) %unicodeExtension, ptr noundef @.str)
  %37 = load ptr, ptr %attribute, align 8
  %call160 = call noundef nonnull align 8 dereferenceable(32) ptr @_ZNSt7__cxx1112basic_stringIDsSt11char_traitsIDsESaIDsEE6appendERKS4_(ptr noundef nonnull align 8 dereferenceable(32) %call159, ptr noundef nonnull align 8 dereferenceable(32) %37)
  br label %for.inc161

for.inc161:                                       ; preds = %for.body157
  %call162 = call noundef nonnull align 8 dereferenceable(8) ptr @_ZNSt23_Rb_tree_const_iteratorINSt7__cxx1112basic_stringIDsSt11char_traitsIDsESaIDsEEEEppEv(ptr noundef nonnull align 8 dereferenceable(8) %__begin2149) #7
  br label %for.cond155

for.end163:                                       ; preds = %for.cond155
  %unicodeExtensionKeywords = getelementptr inbounds %"struct.hermes::platform_intl::ParsedLocaleIdentifier", ptr %this1, i32 0, i32 2
  store ptr %unicodeExtensionKeywords, ptr %__range2164, align 8
  %38 = load ptr, ptr %__range2164, align 8
  %call166 = call ptr @_ZNKSt3mapINSt7__cxx1112basic_stringIDsSt11char_traitsIDsESaIDsEEES5_St4lessIS5_ESaISt4pairIKS5_S5_EEE5beginEv(ptr noundef nonnull align 8 dereferenceable(48) %38) #7
  %coerce.dive167 = getelementptr inbounds %"struct.std::_Rb_tree_const_iterator.34", ptr %__begin2165, i32 0, i32 0
  store ptr %call166, ptr %coerce.dive167, align 8
  %39 = load ptr, ptr %__range2164, align 8
  %call169 = call ptr @_ZNKSt3mapINSt7__cxx1112basic_stringIDsSt11char_traitsIDsESaIDsEEES5_St4lessIS5_ESaISt4pairIKS5_S5_EEE3endEv(ptr noundef nonnull align 8 dereferenceable(48) %39) #7
  %coerce.dive170 = getelementptr inbounds %"struct.std::_Rb_tree_const_iterator.34", ptr %__end2168, i32 0, i32 0
  store ptr %call169, ptr %coerce.dive170, align 8
  br label %for.cond171

for.cond171:                                      ; preds = %for.inc188, %for.end163
  %call172 = call noundef zeroext i1 @_ZStneRKSt23_Rb_tree_const_iteratorISt4pairIKNSt7__cxx1112basic_stringIDsSt11char_traitsIDsESaIDsEEES6_EESB_(ptr noundef nonnull align 8 dereferenceable(8) %__begin2165, ptr noundef nonnull align 8 dereferenceable(8) %__end2168) #7
  br i1 %call172, label %for.body173, label %for.end190

for.body173:                                      ; preds = %for.cond171
  %call175 = call noundef nonnull align 8 dereferenceable(64) ptr @_ZNKSt23_Rb_tree_const_iteratorISt4pairIKNSt7__cxx1112basic_stringIDsSt11char_traitsIDsESaIDsEEES6_EEdeEv(ptr noundef nonnull align 8 dereferenceable(8) %__begin2165) #7
  store ptr %call175, ptr %p174, align 8
  %call176 = call noundef nonnull align 8 dereferenceable(32) ptr @_ZNSt7__cxx1112basic_stringIDsSt11char_traitsIDsESaIDsEE6appendEPKDs(ptr noundef nonnull align 8 dereferenceable(32) %unicodeExtension, ptr noundef @.str)
  %40 = load ptr, ptr %p174, align 8
  %first177 = getelementptr inbounds %"struct.std::pair.24", ptr %40, i32 0, i32 0
  %call178 = call noundef nonnull align 8 dereferenceable(32) ptr @_ZNSt7__cxx1112basic_stringIDsSt11char_traitsIDsESaIDsEE6appendERKS4_(ptr noundef nonnull align 8 dereferenceable(32) %call176, ptr noundef nonnull align 8 dereferenceable(32) %first177)
  %41 = load ptr, ptr %p174, align 8
  %second179 = getelementptr inbounds %"struct.std::pair.24", ptr %41, i32 0, i32 1
  %call180 = call noundef zeroext i1 @_ZNKSt7__cxx1112basic_stringIDsSt11char_traitsIDsESaIDsEE5emptyEv(ptr noundef nonnull align 8 dereferenceable(32) %second179) #7
  br i1 %call180, label %if.end187, label %land.lhs.true

land.lhs.true:                                    ; preds = %for.body173
  %42 = load ptr, ptr %p174, align 8
  %second181 = getelementptr inbounds %"struct.std::pair.24", ptr %42, i32 0, i32 1
  %call182 = call noundef zeroext i1 @_ZStneIDsSt11char_traitsIDsESaIDsEEbRKNSt7__cxx1112basic_stringIT_T0_T1_EEPKS5_(ptr noundef nonnull align 8 dereferenceable(32) %second181, ptr noundef @.str.2)
  br i1 %call182, label %if.then183, label %if.end187

if.then183:                                       ; preds = %land.lhs.true
  %call184 = call noundef nonnull align 8 dereferenceable(32) ptr @_ZNSt7__cxx1112basic_stringIDsSt11char_traitsIDsESaIDsEE6appendEPKDs(ptr noundef nonnull align 8 dereferenceable(32) %unicodeExtension, ptr noundef @.str)
  %43 = load ptr, ptr %p174, align 8
  %second185 = getelementptr inbounds %"struct.std::pair.24", ptr %43, i32 0, i32 1
  %call186 = call noundef nonnull align 8 dereferenceable(32) ptr @_ZNSt7__cxx1112basic_stringIDsSt11char_traitsIDsESaIDsEE6appendERKS4_(ptr noundef nonnull align 8 dereferenceable(32) %call184, ptr noundef nonnull align 8 dereferenceable(32) %second185)
  br label %if.end187

if.end187:                                        ; preds = %if.then183, %land.lhs.true, %for.body173
  br label %for.inc188

for.inc188:                                       ; preds = %if.end187
  %call189 = call noundef nonnull align 8 dereferenceable(8) ptr @_ZNSt23_Rb_tree_const_iteratorISt4pairIKNSt7__cxx1112basic_stringIDsSt11char_traitsIDsESaIDsEEES6_EEppEv(ptr noundef nonnull align 8 dereferenceable(8) %__begin2165) #7
  br label %for.cond171

for.end190:                                       ; preds = %for.cond171
  %call191 = call noundef zeroext i1 @_ZNKSt7__cxx1112basic_stringIDsSt11char_traitsIDsESaIDsEE5emptyEv(ptr noundef nonnull align 8 dereferenceable(32) %unicodeExtension) #7
  br i1 %call191, label %if.end195, label %if.then192

if.then192:                                       ; preds = %for.end190
  %call193 = call noundef nonnull align 8 dereferenceable(32) ptr @_ZNSt7__cxx1112basic_stringIDsSt11char_traitsIDsESaIDsEE6appendEPKDs(ptr noundef nonnull align 8 dereferenceable(32) %agg.result, ptr noundef @.str.3)
  %call194 = call noundef nonnull align 8 dereferenceable(32) ptr @_ZNSt7__cxx1112basic_stringIDsSt11char_traitsIDsESaIDsEE6appendERKS4_(ptr noundef nonnull align 8 dereferenceable(32) %call193, ptr noundef nonnull align 8 dereferenceable(32) %unicodeExtension)
  br label %if.end195

if.end195:                                        ; preds = %if.then192, %for.end190
  call void @_ZNSt7__cxx1112basic_stringIDsSt11char_traitsIDsESaIDsEED2Ev(ptr noundef nonnull align 8 dereferenceable(32) %unicodeExtension) #7
  br label %while.cond196

while.cond196:                                    ; preds = %if.end221, %if.end195
  %otherExtensionMap198 = getelementptr inbounds %"struct.hermes::platform_intl::ParsedLocaleIdentifier", ptr %this1, i32 0, i32 5
  %call199 = call ptr @_ZNKSt3mapIDsNSt7__cxx1112basic_stringIDsSt11char_traitsIDsESaIDsEEESt4lessIDsESaISt4pairIKDsS5_EEE3endEv(ptr noundef nonnull align 8 dereferenceable(48) %otherExtensionMap198) #7
  %coerce.dive200 = getelementptr inbounds %"struct.std::_Rb_tree_const_iterator.33", ptr %ref.tmp197, i32 0, i32 0
  store ptr %call199, ptr %coerce.dive200, align 8
  %call201 = call noundef zeroext i1 @_ZStneRKSt23_Rb_tree_const_iteratorISt4pairIKDsNSt7__cxx1112basic_stringIDsSt11char_traitsIDsESaIDsEEEEESB_(ptr noundef nonnull align 8 dereferenceable(8) %oExtIt, ptr noundef nonnull align 8 dereferenceable(8) %ref.tmp197) #7
  br i1 %call201, label %while.body202, label %while.end225

while.body202:                                    ; preds = %while.cond196
  %arrayinit.begin205 = getelementptr inbounds [2 x i16], ptr %ref.tmp204, i64 0, i64 0
  store i16 45, ptr %arrayinit.begin205, align 2
  %arrayinit.element206 = getelementptr inbounds i16, ptr %arrayinit.begin205, i64 1
  %call207 = call noundef ptr @_ZNKSt23_Rb_tree_const_iteratorISt4pairIKDsNSt7__cxx1112basic_stringIDsSt11char_traitsIDsESaIDsEEEEEptEv(ptr noundef nonnull align 8 dereferenceable(8) %oExtIt) #7
  %first208 = getelementptr inbounds %"struct.std::pair.30", ptr %call207, i32 0, i32 0
  %44 = load i16, ptr %first208, align 8
  store i16 %44, ptr %arrayinit.element206, align 2
  %_M_array209 = getelementptr inbounds %"class.std::initializer_list", ptr %agg.tmp203, i32 0, i32 0
  %arraystart210 = getelementptr inbounds [2 x i16], ptr %ref.tmp204, i64 0, i64 0
  store ptr %arraystart210, ptr %_M_array209, align 8
  %_M_len211 = getelementptr inbounds %"class.std::initializer_list", ptr %agg.tmp203, i32 0, i32 1
  store i64 2, ptr %_M_len211, align 8
  %45 = getelementptr inbounds { ptr, i64 }, ptr %agg.tmp203, i32 0, i32 0
  %46 = load ptr, ptr %45, align 8
  %47 = getelementptr inbounds { ptr, i64 }, ptr %agg.tmp203, i32 0, i32 1
  %48 = load i64, ptr %47, align 8
  %call212 = call noundef nonnull align 8 dereferenceable(32) ptr @_ZNSt7__cxx1112basic_stringIDsSt11char_traitsIDsESaIDsEE6appendESt16initializer_listIDsE(ptr noundef nonnull align 8 dereferenceable(32) %agg.result, ptr %46, i64 %48)
  %call213 = call noundef ptr @_ZNKSt23_Rb_tree_const_iteratorISt4pairIKDsNSt7__cxx1112basic_stringIDsSt11char_traitsIDsESaIDsEEEEEptEv(ptr noundef nonnull align 8 dereferenceable(8) %oExtIt) #7
  %second214 = getelementptr inbounds %"struct.std::pair.30", ptr %call213, i32 0, i32 1
  %call215 = call noundef zeroext i1 @_ZNKSt7__cxx1112basic_stringIDsSt11char_traitsIDsESaIDsEE5emptyEv(ptr noundef nonnull align 8 dereferenceable(32) %second214) #7
  br i1 %call215, label %if.end221, label %if.then216

if.then216:                                       ; preds = %while.body202
  %call217 = call noundef nonnull align 8 dereferenceable(32) ptr @_ZNSt7__cxx1112basic_stringIDsSt11char_traitsIDsESaIDsEE6appendEPKDs(ptr noundef nonnull align 8 dereferenceable(32) %agg.result, ptr noundef @.str)
  %call218 = call noundef ptr @_ZNKSt23_Rb_tree_const_iteratorISt4pairIKDsNSt7__cxx1112basic_stringIDsSt11char_traitsIDsESaIDsEEEEEptEv(ptr noundef nonnull align 8 dereferenceable(8) %oExtIt) #7
  %second219 = getelementptr inbounds %"struct.std::pair.30", ptr %call218, i32 0, i32 1
  %call220 = call noundef nonnull align 8 dereferenceable(32) ptr @_ZNSt7__cxx1112basic_stringIDsSt11char_traitsIDsESaIDsEE6appendERKS4_(ptr noundef nonnull align 8 dereferenceable(32) %call217, ptr noundef nonnull align 8 dereferenceable(32) %second219)
  br label %if.end221

if.end221:                                        ; preds = %if.then216, %while.body202
  %call222 = call ptr @_ZNSt23_Rb_tree_const_iteratorISt4pairIKDsNSt7__cxx1112basic_stringIDsSt11char_traitsIDsESaIDsEEEEEppEi(ptr noundef nonnull align 8 dereferenceable(8) %oExtIt, i32 noundef 0) #7
  %coerce.dive224 = getelementptr inbounds %"struct.std::_Rb_tree_const_iterator.33", ptr %coerce223, i32 0, i32 0
  store ptr %call222, ptr %coerce.dive224, align 8
  br label %while.cond196, !llvm.loop !17

while.end225:                                     ; preds = %while.cond196
  %puExtensions = getelementptr inbounds %"struct.hermes::platform_intl::ParsedLocaleIdentifier", ptr %this1, i32 0, i32 6
  %call226 = call noundef zeroext i1 @_ZNKSt7__cxx1112basic_stringIDsSt11char_traitsIDsESaIDsEE5emptyEv(ptr noundef nonnull align 8 dereferenceable(32) %puExtensions) #7
  br i1 %call226, label %if.end231, label %if.then227

if.then227:                                       ; preds = %while.end225
  %call228 = call noundef nonnull align 8 dereferenceable(32) ptr @_ZNSt7__cxx1112basic_stringIDsSt11char_traitsIDsESaIDsEE6appendEPKDs(ptr noundef nonnull align 8 dereferenceable(32) %agg.result, ptr noundef @.str.4)
  %puExtensions229 = getelementptr inbounds %"struct.hermes::platform_intl::ParsedLocaleIdentifier", ptr %this1, i32 0, i32 6
  %call230 = call noundef nonnull align 8 dereferenceable(32) ptr @_ZNSt7__cxx1112basic_stringIDsSt11char_traitsIDsESaIDsEE6appendERKS4_(ptr noundef nonnull align 8 dereferenceable(32) %agg.result, ptr noundef nonnull align 8 dereferenceable(32) %puExtensions229)
  br label %if.end231

if.end231:                                        ; preds = %if.then227, %while.end225
  store i1 true, ptr %nrvo, align 1
  %nrvo.val = load i1, ptr %nrvo, align 1
  br i1 %nrvo.val, label %nrvo.skipdtor, label %nrvo.unused

nrvo.unused:                                      ; preds = %if.end231
  call void @_ZNSt7__cxx1112basic_stringIDsSt11char_traitsIDsESaIDsEED2Ev(ptr noundef nonnull align 8 dereferenceable(32) %agg.result) #7
  br label %nrvo.skipdtor

nrvo.skipdtor:                                    ; preds = %nrvo.unused, %if.end231
  ret void
}

; Function Attrs: mustprogress nounwind uwtable
define linkonce_odr noundef nonnull align 8 dereferenceable(32) ptr @_ZNSt7__cxx1112basic_stringIDsSt11char_traitsIDsESaIDsEE6appendESt16initializer_listIDsE(ptr noundef nonnull align 8 dereferenceable(32) %this, ptr %__l.coerce0, i64 %__l.coerce1) #0 comdat align 2 {
entry:
  %__l = alloca %"class.std::initializer_list", align 8
  %this.addr = alloca ptr, align 8
  %0 = getelementptr inbounds { ptr, i64 }, ptr %__l, i32 0, i32 0
  store ptr %__l.coerce0, ptr %0, align 8
  %1 = getelementptr inbounds { ptr, i64 }, ptr %__l, i32 0, i32 1
  store i64 %__l.coerce1, ptr %1, align 8
  store ptr %this, ptr %this.addr, align 8
  %this1 = load ptr, ptr %this.addr, align 8
  %call = call noundef ptr @_ZNKSt16initializer_listIDsE5beginEv(ptr noundef nonnull align 8 dereferenceable(16) %__l) #7
  %call2 = call noundef i64 @_ZNKSt16initializer_listIDsE4sizeEv(ptr noundef nonnull align 8 dereferenceable(16) %__l) #7
  %call3 = call noundef nonnull align 8 dereferenceable(32) ptr @_ZNSt7__cxx1112basic_stringIDsSt11char_traitsIDsESaIDsEE6appendEPKDsm(ptr noundef nonnull align 8 dereferenceable(32) %this1, ptr noundef %call, i64 noundef %call2)
  ret ptr %call3
}

; Function Attrs: mustprogress nounwind uwtable
define internal noundef zeroext i16 @"_ZZNK6hermes13platform_intl22ParsedLocaleIdentifier12canonicalizeB5cxx11EvENK3$_0clEDs"(ptr noundef nonnull align 1 dereferenceable(1) %this, i16 noundef zeroext %c) #0 align 2 {
entry:
  %this.addr = alloca ptr, align 8
  %c.addr = alloca i16, align 2
  store ptr %this, ptr %this.addr, align 8
  store i16 %c, ptr %c.addr, align 2
  %0 = load i16, ptr %c.addr, align 2
  %conv = zext i16 %0 to i32
  %cmp = icmp sge i32 %conv, 97
  br i1 %cmp, label %land.lhs.true, label %cond.false

land.lhs.true:                                    ; preds = %entry
  %1 = load i16, ptr %c.addr, align 2
  %conv2 = zext i16 %1 to i32
  %cmp3 = icmp sle i32 %conv2, 122
  br i1 %cmp3, label %cond.true, label %cond.false

cond.true:                                        ; preds = %land.lhs.true
  %2 = load i16, ptr %c.addr, align 2
  %conv4 = zext i16 %2 to i32
  %sub = sub nsw i32 %conv4, 97
  %add = add nsw i32 %sub, 65
  br label %cond.end

cond.false:                                       ; preds = %land.lhs.true, %entry
  %3 = load i16, ptr %c.addr, align 2
  %conv5 = zext i16 %3 to i32
  br label %cond.end

cond.end:                                         ; preds = %cond.false, %cond.true
