target datalayout = "e-m:e-p270:32:32-p271:32:32-p272:64:64-i64:64-i128:128-f80:128-n8:16:32:64-S128"
target triple = "x86_64-unknown-linux-gnu"

%"class.llvh::ArrayRef" = type { ptr, i64 }
%"struct.hermes::bigint::MutableBigIntRef" = type { ptr, ptr }
%"struct.hermes::bigint::ImmutableBigIntRef" = type { ptr, i32 }
%"class.llvh::APInt" = type <{ %union.anon, i32, [4 x i8] }>
%union.anon = type { i64 }
%"class.hermes::bigint::TmpStorage" = type { %"class.llvh::SmallVector", ptr }
%"class.llvh::SmallVector" = type { %"class.llvh::SmallVectorImpl", %"struct.llvh::SmallVectorStorage" }
%"class.llvh::SmallVectorImpl" = type { %"class.llvh::SmallVectorTemplateBase" }
%"class.llvh::SmallVectorTemplateBase" = type { %"class.llvh::SmallVectorTemplateCommon" }
%"class.llvh::SmallVectorTemplateCommon" = type { %"class.llvh::SmallVectorBase" }
%"class.llvh::SmallVectorBase" = type { ptr, i32, i32 }
%"struct.llvh::SmallVectorStorage" = type { [4 x %"struct.llvh::AlignedCharArrayUnion"] }
%"struct.llvh::AlignedCharArrayUnion" = type { %"struct.llvh::AlignedCharArray" }
%"struct.llvh::AlignedCharArray" = type { [8 x i8] }
%"class.std::tuple" = type { %"struct.std::_Tuple_impl.base", [4 x i8] }
%"struct.std::_Tuple_impl.base" = type <{ %"struct.std::_Tuple_impl.0", %"struct.std::_Head_base.1" }>
%"struct.std::_Tuple_impl.0" = type { %"struct.std::_Head_base" }
%"struct.std::_Head_base" = type { %"struct.hermes::bigint::ImmutableBigIntRef" }
%"struct.std::_Head_base.1" = type { i32 }
%"class.std::optional" = type { %"struct.std::_Optional_base" }
%"struct.std::_Optional_base" = type { %"struct.std::_Optional_payload" }
%"struct.std::_Optional_payload" = type { %"struct.std::_Optional_payload.base", [7 x i8] }
%"struct.std::_Optional_payload.base" = type { %"struct.std::_Optional_payload_base.base" }
%"struct.std::_Optional_payload_base.base" = type <{ %"union.std::_Optional_payload_base<std::__cxx11::basic_string<char>>::_Storage", i8 }>
%"union.std::_Optional_payload_base<std::__cxx11::basic_string<char>>::_Storage" = type { %"class.std::__cxx11::basic_string" }
%"class.std::__cxx11::basic_string" = type { %"struct.std::__cxx11::basic_string<char>::_Alloc_hider", i64, %union.anon.4 }
%"struct.std::__cxx11::basic_string<char>::_Alloc_hider" = type { ptr }
%union.anon.4 = type { i64, [8 x i8] }
%"class.llvh::ArrayRef.2" = type { ptr, i64 }
%"class.hermes::bigint::(anonymous namespace)::StringIntegerLiteralParser" = type { %"class.hermes::bigint::(anonymous namespace)::BigIntLiteralParsingToolBox" }
%"class.hermes::bigint::(anonymous namespace)::BigIntLiteralParsingToolBox" = type { ptr, ptr, ptr, ptr, ptr, ptr }
%"class.llvh::ArrayRef.6" = type { ptr, i64 }
%"class.hermes::bigint::(anonymous namespace)::StringIntegerLiteralParser.61" = type { %"class.hermes::bigint::(anonymous namespace)::BigIntLiteralParsingToolBox.62" }
%"class.hermes::bigint::(anonymous namespace)::BigIntLiteralParsingToolBox.62" = type { ptr, ptr, ptr, ptr, ptr, ptr }
%"class.llvh::StringRef" = type { ptr, i64 }
%"class.hermes::bigint::(anonymous namespace)::NumericValueParser" = type { %"class.hermes::bigint::(anonymous namespace)::BigIntLiteralParsingToolBox.64" }
%"class.hermes::bigint::(anonymous namespace)::BigIntLiteralParsingToolBox.64" = type { ptr, ptr, ptr, ptr, ptr, ptr }
%"class.std::optional.7" = type { %"struct.std::_Optional_base.8" }
%"struct.std::_Optional_base.8" = type { %"struct.std::_Optional_payload.10" }
%"struct.std::_Optional_payload.10" = type { %"struct.std::_Optional_payload.base.17", [7 x i8] }
%"struct.std::_Optional_payload.base.17" = type { %"struct.std::_Optional_payload_base.base.16" }
%"struct.std::_Optional_payload_base.base.16" = type <{ %"union.std::_Optional_payload_base<hermes::bigint::ParsedBigInt>::_Storage", i8 }>
%"union.std::_Optional_payload_base<hermes::bigint::ParsedBigInt>::_Storage" = type { %"class.hermes::bigint::ParsedBigInt" }
%"class.hermes::bigint::ParsedBigInt" = type { %"class.std::vector" }
%"class.std::vector" = type { %"struct.std::_Vector_base" }
%"struct.std::_Vector_base" = type { %"struct.std::_Vector_base<unsigned char, std::allocator<unsigned char>>::_Vector_impl" }
%"struct.std::_Vector_base<unsigned char, std::allocator<unsigned char>>::_Vector_impl" = type { %"struct.std::_Vector_base<unsigned char, std::allocator<unsigned char>>::_Vector_impl_data" }
%"struct.std::_Vector_base<unsigned char, std::allocator<unsigned char>>::_Vector_impl_data" = type { ptr, ptr, ptr }
%"class.std::optional.20" = type { %"struct.std::_Optional_base.21" }
%"struct.std::_Optional_base.21" = type { %"struct.std::_Optional_payload.23" }
%"struct.std::_Optional_payload.23" = type { %"struct.std::_Optional_payload.base.27", [7 x i8] }
%"struct.std::_Optional_payload.base.27" = type { %"struct.std::_Optional_payload_base.base.26" }
%"struct.std::_Optional_payload_base.base.26" = type <{ %"union.std::_Optional_payload_base<std::vector<unsigned char>>::_Storage", i8 }>
%"union.std::_Optional_payload_base<std::vector<unsigned char>>::_Storage" = type { %"class.std::vector" }
%"class.std::allocator.13" = type { i8 }
%"class.std::allocator" = type { i8 }
%"class.llvh::ArrayRef.30" = type { ptr, i64 }
%"class.__gnu_cxx::__normal_iterator" = type { ptr }
%"class.std::tuple.31" = type { %"struct.std::_Tuple_impl.32" }
%"struct.std::_Tuple_impl.32" = type { %"struct.std::_Tuple_impl.0", %"struct.std::_Head_base.33" }
%"struct.std::_Head_base.33" = type { %"struct.hermes::bigint::ImmutableBigIntRef" }
%"class.std::tuple.34" = type { %"struct.std::_Tuple_impl.35" }
%"struct.std::_Tuple_impl.35" = type { %"struct.std::_Tuple_impl.36", %"struct.std::_Head_base.33" }
%"struct.std::_Tuple_impl.36" = type { %"struct.std::_Tuple_impl.37", %"struct.std::_Head_base" }
%"struct.std::_Tuple_impl.37" = type { %"struct.std::_Head_base.38" }
%"struct.std::_Head_base.38" = type { ptr }
%"class.hermes::bigint::(anonymous namespace)::MutableBigIntAndMaxSize" = type <{ ptr, i32, [4 x i8] }>
%"class.std::tuple.39" = type { %"struct.std::_Tuple_impl.40" }
%"struct.std::_Tuple_impl.40" = type { %"struct.std::_Tuple_impl.41", %"struct.std::_Head_base.43" }
%"struct.std::_Tuple_impl.41" = type { %"struct.std::_Head_base.42" }
%"struct.std::_Head_base.42" = type { i8 }
%"struct.std::_Head_base.43" = type { i32 }
%"class.std::tuple.55" = type { %"struct.std::_Tuple_impl.56" }
%"struct.std::_Tuple_impl.56" = type { %"struct.std::_Tuple_impl.57", %"struct.std::_Head_base.43" }
%"struct.std::_Tuple_impl.57" = type { %"struct.std::_Tuple_impl.58", %"struct.std::_Head_base.60" }
%"struct.std::_Tuple_impl.58" = type { %"struct.std::_Head_base.59" }
%"struct.std::_Head_base.59" = type { i32 }
%"struct.std::_Head_base.60" = type { i32 }
%"class.std::vector.44" = type { %"struct.std::_Vector_base.45" }
%"struct.std::_Vector_base.45" = type { %"struct.std::_Vector_base<hermes::bigint::BigIntTableEntry, std::allocator<hermes::bigint::BigIntTableEntry>>::_Vector_impl" }
%"struct.std::_Vector_base<hermes::bigint::BigIntTableEntry, std::allocator<hermes::bigint::BigIntTableEntry>>::_Vector_impl" = type { %"struct.std::_Vector_base<hermes::bigint::BigIntTableEntry, std::allocator<hermes::bigint::BigIntTableEntry>>::_Vector_impl_data" }
%"struct.std::_Vector_base<hermes::bigint::BigIntTableEntry, std::allocator<hermes::bigint::BigIntTableEntry>>::_Vector_impl_data" = type { ptr, ptr, ptr }
%"struct.std::_Deque_iterator.52" = type { ptr, ptr, ptr, ptr }
%"struct.hermes::bigint::BigIntTableEntry" = type { i32, i32 }
%"class.hermes::bigint::UniquingBigIntTable" = type { %"class.std::deque", %"class.llvh::DenseMap" }
%"class.std::deque" = type { %"class.std::_Deque_base" }
%"class.std::_Deque_base" = type { %"struct.std::_Deque_base<hermes::bigint::ParsedBigInt, std::allocator<hermes::bigint::ParsedBigInt>>::_Deque_impl" }
%"struct.std::_Deque_base<hermes::bigint::ParsedBigInt, std::allocator<hermes::bigint::ParsedBigInt>>::_Deque_impl" = type { %"struct.std::_Deque_base<hermes::bigint::ParsedBigInt, std::allocator<hermes::bigint::ParsedBigInt>>::_Deque_impl_data" }
%"struct.std::_Deque_base<hermes::bigint::ParsedBigInt, std::allocator<hermes::bigint::ParsedBigInt>>::_Deque_impl_data" = type { ptr, i64, %"struct.std::_Deque_iterator", %"struct.std::_Deque_iterator" }
%"struct.std::_Deque_iterator" = type { ptr, ptr, ptr, ptr }
%"class.llvh::DenseMap" = type <{ ptr, i32, i32, i32, [4 x i8] }>
%"class.__gnu_cxx::__normal_iterator.54" = type { ptr }
%"class.__gnu_cxx::__normal_iterator.53" = type { ptr }
%"struct.std::_Optional_payload_base.12" = type <{ %"union.std::_Optional_payload_base<hermes::bigint::ParsedBigInt>::_Storage", i8, [7 x i8] }>
%"struct.std::_Optional_payload_base.25" = type <{ %"union.std::_Optional_payload_base<std::vector<unsigned char>>::_Storage", i8, [7 x i8] }>
%"class.hermes::OptValue" = type { i8, i8 }
%"struct.std::_Optional_payload_base" = type <{ %"union.std::_Optional_payload_base<std::__cxx11::basic_string<char>>::_Storage", i8, [7 x i8] }>
%"class.hermes::OptValue.63" = type <{ i16, i8, i8 }>
%struct._Guard = type { ptr }
%"class.__gnu_cxx::__normal_iterator.65" = type { ptr }
%"class.std::move_iterator" = type { ptr }

$_ZNK4llvh8ArrayRefIhE5emptyEv = comdat any

$_ZN6hermes6bigint15getSignExtValueIhhhEENSt9enable_ifIXsr3stdE13is_integral_vIT0_EET_E4typeERKS3_ = comdat any

$_ZNK4llvh8ArrayRefIhE4backEv = comdat any

$_ZNK4llvh8ArrayRefIhE9drop_backEm = comdat any

$_ZNK4llvh8ArrayRefIhE4sizeEv = comdat any

$_ZNK4llvh8ArrayRefIhE4dataEv = comdat any

$_ZN4llvh8bit_castImdvvvvEET_RKT0_ = comdat any

$_ZN6hermes6bigint22numDigitsForSizeInBitsEj = comdat any

$_ZN4llvh7alignToEmmm = comdat any

$_ZNK4llvh5APInt10getRawDataEv = comdat any

$_ZNK4llvh5APInt11getNumWordsEv = comdat any

$_ZN4llvh12makeArrayRefIhEENS_8ArrayRefIT_EEPKS2_m = comdat any

$_ZN4llvh5APIntD2Ev = comdat any

$_ZN6hermes6bigint10TmpStorageC2Ej = comdat any

$_ZN6hermes6bigint10TmpStorage16requestNumDigitsEj = comdat any

$_ZSt3getILm0EJN6hermes6bigint15OperationStatusENS1_18ImmutableBigIntRefEEEONSt13tuple_elementIXT_ESt5tupleIJDpT0_EEE4typeEOS8_ = comdat any

$_ZSt3getILm1EJN6hermes6bigint15OperationStatusENS1_18ImmutableBigIntRefEEEONSt13tuple_elementIXT_ESt5tupleIJDpT0_EEE4typeEOS8_ = comdat any

$_ZN4llvh17countLeadingZerosImEEmT_NS_12ZeroBehaviorE = comdat any

$_ZNSt14numeric_limitsIdE8infinityEv = comdat any

$_ZN4llvh8bit_castIdmvvvvEET_RKT0_ = comdat any

$_ZN6hermes6bigint10TmpStorageD2Ev = comdat any

$_ZNSt8optionalIN6hermes6bigint12ParsedBigIntEEC2Ev = comdat any

$_ZNKSt8optionalISt6vectorIhSaIhEEEcvbEv = comdat any

$_ZNRSt8optionalISt6vectorIhSaIhEEEdeEv = comdat any

$_ZN4llvh8ArrayRefIhEC2ISaIhEEERKSt6vectorIhT_E = comdat any

$_ZN6hermes6bigint12ParsedBigIntC2EN4llvh8ArrayRefIhEE = comdat any

$_ZNSt8optionalIN6hermes6bigint12ParsedBigIntEEaSIS2_EENSt9enable_ifIX7__and_vISt6__not_ISt7is_sameIS3_NSt9remove_cvINSt16remove_referenceIT_E4typeEE4typeEEES6_ISt6__and_IJSt9is_scalarIS2_ES7_IS2_NSt5decayISA_E4typeEEEEESt16is_constructibleIS2_JSA_EESt13is_assignableIRS2_SA_EEERS3_E4typeEOSA_ = comdat any

$_ZN6hermes6bigint12ParsedBigIntD2Ev = comdat any

$_ZNSt8optionalISt6vectorIhSaIhEEED2Ev = comdat any

$_ZNSt8optionalIN6hermes6bigint12ParsedBigIntEED2Ev = comdat any

$_ZNSt7__cxx1112basic_stringIcSt11char_traitsIcESaIcEEC2IS3_EEPKcRKS3_ = comdat any

$_ZN4llvh12makeArrayRefImEENS_8ArrayRefIT_EEPKS2_m = comdat any

$_ZN4llvh5APInt6negateEv = comdat any

$_ZN6hermes6bigint23maxCharsPerDigitInRadixEh = comdat any

$_ZN4llvh5APIntC2Ev = comdat any

$_ZN4llvh5APIntaSEOS0_ = comdat any

$_ZNK4llvh5APIntneEm = comdat any

$_ZSt7reverseIN9__gnu_cxx17__normal_iteratorIPcNSt7__cxx1112basic_stringIcSt11char_traitsIcESaIcEEEEEEvT_SA_ = comdat any

$_ZN6hermes6bigint23numDigitsForSizeInBytesEj = comdat any

$_ZN6hermes6bigint13tooManyDigitsEj = comdat any

$_ZNSt14numeric_limitsIlE3maxEv = comdat any

$_ZSt3minImERKT_S2_S2_ = comdat any

$_ZSt3maxIjERKT_S2_S2_ = comdat any

$_ZSt10make_tupleIJRN6hermes6bigint18ImmutableBigIntRefES3_EESt5tupleIJDpNSt25__strip_reference_wrapperINSt5decayIT_E4typeEE6__typeEEEDpOS7_ = comdat any

$_ZSt3getILm0EJN6hermes6bigint18ImmutableBigIntRefES2_EERKNSt13tuple_elementIXT_ESt5tupleIJDpT0_EEE4typeERKS7_ = comdat any

$_ZSt3getILm1EJN6hermes6bigint18ImmutableBigIntRefES2_EERKNSt13tuple_elementIXT_ESt5tupleIJDpT0_EEE4typeERKS7_ = comdat any

$_ZSt10make_tupleIJRN6hermes6bigint18ImmutableBigIntRefES3_RFvRNS1_16MutableBigIntRefEEEESt5tupleIJDpNSt25__strip_reference_wrapperINSt5decayIT_E4typeEE6__typeEEEDpOSB_ = comdat any

$_ZSt3getILm0EJN6hermes6bigint18ImmutableBigIntRefES2_PFvRNS1_16MutableBigIntRefEEEERKNSt13tuple_elementIXT_ESt5tupleIJDpT0_EEE4typeERKSB_ = comdat any

$_ZSt3getILm1EJN6hermes6bigint18ImmutableBigIntRefES2_PFvRNS1_16MutableBigIntRefEEEERKNSt13tuple_elementIXT_ESt5tupleIJDpT0_EEE4typeERKSB_ = comdat any

$_ZSt3getILm2EJN6hermes6bigint18ImmutableBigIntRefES2_PFvRNS1_16MutableBigIntRefEEEERKNSt13tuple_elementIXT_ESt5tupleIJDpT0_EEE4typeERKSB_ = comdat any

$_ZSt3getILm0EJjbEERKNSt13tuple_elementIXT_ESt5tupleIJDpT0_EEE4typeERKS4_ = comdat any

$_ZSt3getILm1EJjbEERKNSt13tuple_elementIXT_ESt5tupleIJDpT0_EEE4typeERKS4_ = comdat any

$_ZNSt6vectorIN6hermes6bigint16BigIntTableEntryESaIS2_EEC2Ev = comdat any

$_ZNSt6vectorIN6hermes6bigint16BigIntTableEntryESaIS2_EE7reserveEm = comdat any

$_ZNKSt5dequeIN6hermes6bigint12ParsedBigIntESaIS2_EE4sizeEv = comdat any

$_ZNKSt5dequeIN6hermes6bigint12ParsedBigIntESaIS2_EE5beginEv = comdat any

$_ZNKSt5dequeIN6hermes6bigint12ParsedBigIntESaIS2_EE3endEv = comdat any

$_ZStneRKSt15_Deque_iteratorIN6hermes6bigint12ParsedBigIntERKS2_PS3_ES8_ = comdat any

$_ZNKSt15_Deque_iteratorIN6hermes6bigint12ParsedBigIntERKS2_PS3_EdeEv = comdat any

$_ZNK6hermes6bigint12ParsedBigInt8getBytesEv = comdat any

$_ZNSt6vectorIN6hermes6bigint16BigIntTableEntryESaIS2_EE9push_backEOS2_ = comdat any

$_ZNSt15_Deque_iteratorIN6hermes6bigint12ParsedBigIntERKS2_PS3_EppEv = comdat any

$_ZNSt6vectorIN6hermes6bigint16BigIntTableEntryESaIS2_EED2Ev = comdat any

$_ZNSt6vectorIhSaIhEEC2Ev = comdat any

$_ZNSt6vectorIhSaIhEE6insertIPKhvEEN9__gnu_cxx17__normal_iteratorIPhS1_EENS6_IS4_S1_EET_SA_ = comdat any

$_ZNSt6vectorIhSaIhEE3endEv = comdat any

$_ZN9__gnu_cxx17__normal_iteratorIPKhSt6vectorIhSaIhEEEC2IPhvEERKNS0_IT_S5_EE = comdat any

$_ZNK4llvh8ArrayRefIhE5beginEv = comdat any

$_ZNK4llvh8ArrayRefIhE3endEv = comdat any

$_ZNSt6vectorIhSaIhEED2Ev = comdat any

$_ZNK4llvh5APInt12isSingleWordEv = comdat any

$_ZN4llvh5APInt11getNumWordsEj = comdat any

$_ZNK4llvh5APInt12needsCleanupEv = comdat any

$_ZN4llvh11SmallVectorImLj4EEC2EmRKm = comdat any

$_ZN4llvh15SmallVectorImplImEC2Ej = comdat any

$_ZN4llvh15SmallVectorImplImE6assignEmRKm = comdat any

$_ZN4llvh23SmallVectorTemplateBaseImLb1EEC2Em = comdat any

$_ZN4llvh25SmallVectorTemplateCommonImvEC2Em = comdat any

$_ZNK4llvh25SmallVectorTemplateCommonImvE10getFirstElEv = comdat any

$_ZN4llvh15SmallVectorBaseC2EPvm = comdat any

$_ZN4llvh15SmallVectorImplImE5clearEv = comdat any

$_ZNK4llvh15SmallVectorBase8capacityEv = comdat any

$_ZN4llvh23SmallVectorTemplateBaseImLb1EE4growEm = comdat any

$_ZN4llvh15SmallVectorBase8set_sizeEm = comdat any

$_ZSt18uninitialized_fillIPmmEvT_S1_RKT0_ = comdat any

$_ZN4llvh23SmallVectorTemplateBaseImLb1EE13destroy_rangeEPmS2_ = comdat any

$_ZN4llvh25SmallVectorTemplateCommonImvE8grow_podEmm = comdat any

$_ZNSt20__uninitialized_fillILb1EE13__uninit_fillIPmmEEvT_S3_RKT0_ = comdat any

$_ZSt4fillIPmmEvT_S1_RKT0_ = comdat any

$_ZSt8__fill_aIPmmEvT_S1_RKT0_ = comdat any

$_ZSt9__fill_a1IPmmEN9__gnu_cxx11__enable_ifIXsr11__is_scalarIT0_EE7__valueEvE6__typeET_S6_RKS3_ = comdat any

$_ZNK4llvh15SmallVectorBase4sizeEv = comdat any

$_ZSt10make_tupleIJRN6hermes6bigint15OperationStatusENS1_18ImmutableBigIntRefEEESt5tupleIJDpNSt25__strip_reference_wrapperINSt5decayIT_E4typeEE6__typeEEEDpOS8_ = comdat any

$_ZSt10make_tupleIJN6hermes6bigint15OperationStatusENS1_18ImmutableBigIntRefEEESt5tupleIJDpNSt25__strip_reference_wrapperINSt5decayIT_E4typeEE6__typeEEEDpOS7_ = comdat any

$_ZNSt5tupleIJN6hermes6bigint15OperationStatusENS1_18ImmutableBigIntRefEEEC2IRS2_S3_TnNSt9enable_ifIXclsr4_TCCIXntcl14__is_alloc_argIT_EEEEE29__is_implicitly_constructibleIS8_T0_EEEbE4typeELb1EEEOS8_OS9_ = comdat any

$_ZNSt11_Tuple_implILm0EJN6hermes6bigint15OperationStatusENS1_18ImmutableBigIntRefEEEC2IRS2_JS3_EvEEOT_DpOT0_ = comdat any

$_ZNSt11_Tuple_implILm1EJN6hermes6bigint18ImmutableBigIntRefEEEC2IS2_EEOT_ = comdat any

$_ZNSt10_Head_baseILm0EN6hermes6bigint15OperationStatusELb0EEC2IRS2_EEOT_ = comdat any

$_ZNSt10_Head_baseILm1EN6hermes6bigint18ImmutableBigIntRefELb0EEC2IS2_EEOT_ = comdat any

$_ZNSt5tupleIJN6hermes6bigint15OperationStatusENS1_18ImmutableBigIntRefEEEC2IS2_S3_TnNSt9enable_ifIXclsr4_TCCIXntcl14__is_alloc_argIT_EEEEE29__is_implicitly_constructibleIS7_T0_EEEbE4typeELb1EEEOS7_OS8_ = comdat any

$_ZNSt11_Tuple_implILm0EJN6hermes6bigint15OperationStatusENS1_18ImmutableBigIntRefEEEC2IS2_JS3_EvEEOT_DpOT0_ = comdat any

$_ZNSt10_Head_baseILm0EN6hermes6bigint15OperationStatusELb0EEC2IS2_EEOT_ = comdat any

$_ZSt12__get_helperILm0EN6hermes6bigint15OperationStatusEJNS1_18ImmutableBigIntRefEEERT0_RSt11_Tuple_implIXT_EJS4_DpT1_EE = comdat any

$_ZNSt11_Tuple_implILm0EJN6hermes6bigint15OperationStatusENS1_18ImmutableBigIntRefEEE7_M_headERS4_ = comdat any

$_ZNSt10_Head_baseILm0EN6hermes6bigint15OperationStatusELb0EE7_M_headERS3_ = comdat any

$_ZSt12__get_helperILm1EN6hermes6bigint18ImmutableBigIntRefEJEERT0_RSt11_Tuple_implIXT_EJS3_DpT1_EE = comdat any

$_ZNSt11_Tuple_implILm1EJN6hermes6bigint18ImmutableBigIntRefEEE7_M_headERS3_ = comdat any

$_ZNSt10_Head_baseILm1EN6hermes6bigint18ImmutableBigIntRefELb0EE7_M_headERS3_ = comdat any

$_ZN4llvh11SmallVectorImLj4EED2Ev = comdat any

$_ZN4llvh15SmallVectorImplImED2Ev = comdat any

$_ZNK4llvh25SmallVectorTemplateCommonImvE7isSmallEv = comdat any

$_ZNSt14_Optional_baseIN6hermes6bigint12ParsedBigIntELb0ELb0EEC2Ev = comdat any

$_ZNSt17_Optional_payloadIN6hermes6bigint12ParsedBigIntELb0ELb0ELb0EEC2Ev = comdat any

$_ZNSt17_Optional_payloadIN6hermes6bigint12ParsedBigIntELb1ELb0ELb0EEC2Ev = comdat any

$_ZNSt22_Optional_payload_baseIN6hermes6bigint12ParsedBigIntEEC2Ev = comdat any

$_ZNSt22_Optional_payload_baseIN6hermes6bigint12ParsedBigIntEE8_StorageIS2_Lb0EEC2Ev = comdat any

$_ZNKSt19_Optional_base_implISt6vectorIhSaIhEESt14_Optional_baseIS2_Lb0ELb0EEE13_M_is_engagedEv = comdat any

$_ZNSt19_Optional_base_implISt6vectorIhSaIhEESt14_Optional_baseIS2_Lb0ELb0EEE6_M_getEv = comdat any

$_ZNSt22_Optional_payload_baseISt6vectorIhSaIhEEE6_M_getEv = comdat any

$_ZNK4llvh8ArrayRefIhEcvSt6vectorIhSaIhEEEv = comdat any

$_ZNSaIhEC2Ev = comdat any

$_ZNSt6vectorIhSaIhEEC2IPKhvEET_S5_RKS0_ = comdat any

$_ZNSaIhED2Ev = comdat any

$_ZNSt15__new_allocatorIhEC2Ev = comdat any

$_ZNSt12_Vector_baseIhSaIhEEC2ERKS0_ = comdat any

$_ZNSt6vectorIhSaIhEE19_M_range_initializeIPKhEEvT_S5_St20forward_iterator_tag = comdat any

$_ZSt19__iterator_categoryIPKhENSt15iterator_traitsIT_E17iterator_categoryERKS3_ = comdat any

$_ZNSt12_Vector_baseIhSaIhEE12_Vector_implC2ERKS0_ = comdat any

$_ZNSt15__new_allocatorIhEC2ERKS0_ = comdat any

$_ZSt8distanceIPKhENSt15iterator_traitsIT_E15difference_typeES3_S3_ = comdat any

$_ZNSt12_Vector_baseIhSaIhEE11_M_allocateEm = comdat any

$_ZNSt6vectorIhSaIhEE17_S_check_init_lenEmRKS0_ = comdat any

$_ZNSt12_Vector_baseIhSaIhEE19_M_get_Tp_allocatorEv = comdat any

$_ZSt22__uninitialized_copy_aIPKhPhhET0_T_S4_S3_RSaIT1_E = comdat any

$_ZSt10__distanceIPKhENSt15iterator_traitsIT_E15difference_typeES3_S3_St26random_access_iterator_tag = comdat any

$_ZNSt16allocator_traitsISaIhEE8allocateERS0_m = comdat any

$_ZNSt15__new_allocatorIhE8allocateEmPKv = comdat any

$_ZNKSt15__new_allocatorIhE11_M_max_sizeEv = comdat any

$_ZNSt6vectorIhSaIhEE11_S_max_sizeERKS0_ = comdat any

$_ZNSaIhEC2ERKS_ = comdat any

$_ZNSt16allocator_traitsISaIhEE8max_sizeERKS0_ = comdat any

$_ZNKSt15__new_allocatorIhE8max_sizeEv = comdat any

$_ZSt18uninitialized_copyIPKhPhET0_T_S4_S3_ = comdat any

$_ZNSt20__uninitialized_copyILb1EE13__uninit_copyIPKhPhEET0_T_S6_S5_ = comdat any

$_ZSt4copyIPKhPhET0_T_S4_S3_ = comdat any

$_ZSt13__copy_move_aILb0EPKhPhET1_T0_S4_S3_ = comdat any

$_ZSt12__miter_baseIPKhET_S2_ = comdat any

$_ZSt12__niter_wrapIPhET_RKS1_S1_ = comdat any

$_ZSt14__copy_move_a1ILb0EPKhPhET1_T0_S4_S3_ = comdat any

$_ZSt12__niter_baseIPKhET_S2_ = comdat any

$_ZSt12__niter_baseIPhET_S1_ = comdat any

$_ZSt14__copy_move_a2ILb0EPKhPhET1_T0_S4_S3_ = comdat any

$_ZNSt11__copy_moveILb0ELb1ESt26random_access_iterator_tagE8__copy_mIhEEPT_PKS3_S6_S4_ = comdat any

$_ZNSt15__new_allocatorIhED2Ev = comdat any

$_ZNSt14_Optional_baseISt6vectorIhSaIhEELb0ELb0EED2Ev = comdat any

$_ZNSt17_Optional_payloadISt6vectorIhSaIhEELb0ELb0ELb0EED2Ev = comdat any

$_ZNSt22_Optional_payload_baseISt6vectorIhSaIhEEE8_M_resetEv = comdat any

$_ZNSt17_Optional_payloadISt6vectorIhSaIhEELb1ELb0ELb0EED2Ev = comdat any

$_ZNSt22_Optional_payload_baseISt6vectorIhSaIhEEE10_M_destroyEv = comdat any

$_ZNSt22_Optional_payload_baseISt6vectorIhSaIhEEED2Ev = comdat any

$_ZNSt22_Optional_payload_baseISt6vectorIhSaIhEEE8_StorageIS2_Lb0EED2Ev = comdat any

$_ZNSt14_Optional_baseIN6hermes6bigint12ParsedBigIntELb0ELb0EED2Ev = comdat any

$_ZNSt17_Optional_payloadIN6hermes6bigint12ParsedBigIntELb0ELb0ELb0EED2Ev = comdat any

$_ZNSt22_Optional_payload_baseIN6hermes6bigint12ParsedBigIntEE8_M_resetEv = comdat any

$_ZNSt17_Optional_payloadIN6hermes6bigint12ParsedBigIntELb1ELb0ELb0EED2Ev = comdat any

$_ZNSt22_Optional_payload_baseIN6hermes6bigint12ParsedBigIntEE10_M_destroyEv = comdat any

$_ZNSt22_Optional_payload_baseIN6hermes6bigint12ParsedBigIntEED2Ev = comdat any

$_ZNSt22_Optional_payload_baseIN6hermes6bigint12ParsedBigIntEE8_StorageIS2_Lb0EED2Ev = comdat any

$_ZN4llvh5APInt11flipAllBitsEv = comdat any

$_ZN4llvh5APInt15clearUnusedBitsEv = comdat any

$_ZNK4llvh5APInteqEm = comdat any

$_ZNK4llvh5APInt13getActiveBitsEv = comdat any

$_ZNK4llvh5APInt12getZExtValueEv = comdat any

$_ZNK4llvh5APInt17countLeadingZerosEv = comdat any

$_ZN4llvh17maskTrailingZerosImEET_j = comdat any

$_ZN4llvh15maskLeadingOnesImEET_j = comdat any

$_ZN4llvh16maskTrailingOnesImEET_j = comdat any

$_ZN6hermes6bigint15getSignExtValueImmmEENSt9enable_ifIXsr3stdE13is_integral_vIT0_EET_E4typeERKS3_ = comdat any

$_ZNSt5tupleIJN6hermes6bigint18ImmutableBigIntRefES2_EEC2IRS2_S5_TnNSt9enable_ifIXclsr4_TCCIXntcl14__is_alloc_argIT_EEEEE29__is_implicitly_constructibleIS7_T0_EEEbE4typeELb1EEEOS7_OS8_ = comdat any

$_ZNSt11_Tuple_implILm0EJN6hermes6bigint18ImmutableBigIntRefES2_EEC2IRS2_JS5_EvEEOT_DpOT0_ = comdat any

$_ZNSt11_Tuple_implILm1EJN6hermes6bigint18ImmutableBigIntRefEEEC2IRS2_EEOT_ = comdat any

$_ZNSt10_Head_baseILm0EN6hermes6bigint18ImmutableBigIntRefELb0EEC2IRS2_EEOT_ = comdat any

$_ZNSt10_Head_baseILm1EN6hermes6bigint18ImmutableBigIntRefELb0EEC2IRS2_EEOT_ = comdat any

$_ZSt12__get_helperILm0EN6hermes6bigint18ImmutableBigIntRefEJS2_EERKT0_RKSt11_Tuple_implIXT_EJS3_DpT1_EE = comdat any

$_ZNSt11_Tuple_implILm0EJN6hermes6bigint18ImmutableBigIntRefES2_EE7_M_headERKS3_ = comdat any

$_ZNSt10_Head_baseILm0EN6hermes6bigint18ImmutableBigIntRefELb0EE7_M_headERKS3_ = comdat any

$_ZSt12__get_helperILm1EN6hermes6bigint18ImmutableBigIntRefEJEERKT0_RKSt11_Tuple_implIXT_EJS3_DpT1_EE = comdat any

$_ZNSt11_Tuple_implILm1EJN6hermes6bigint18ImmutableBigIntRefEEE7_M_headERKS3_ = comdat any

$_ZNSt10_Head_baseILm1EN6hermes6bigint18ImmutableBigIntRefELb0EE7_M_headERKS3_ = comdat any

$_ZNSt5tupleIJN6hermes6bigint18ImmutableBigIntRefES2_PFvRNS1_16MutableBigIntRefEEEEC2IJRS2_S9_RS5_ELb1ETnNSt9enable_ifIXclsr4_TCCIXT0_EEE29__is_implicitly_constructibleIDpT_EEEbE4typeELb1EEEDpOSC_ = comdat any

$_ZNSt11_Tuple_implILm0EJN6hermes6bigint18ImmutableBigIntRefES2_PFvRNS1_16MutableBigIntRefEEEEC2IRS2_JS9_RS5_EvEEOT_DpOT0_ = comdat any

$_ZNSt11_Tuple_implILm1EJN6hermes6bigint18ImmutableBigIntRefEPFvRNS1_16MutableBigIntRefEEEEC2IRS2_JRS5_EvEEOT_DpOT0_ = comdat any

$_ZNSt11_Tuple_implILm2EJPFvRN6hermes6bigint16MutableBigIntRefEEEEC2ERKS5_ = comdat any

$_ZNSt10_Head_baseILm2EPFvRN6hermes6bigint16MutableBigIntRefEELb0EEC2ERKS5_ = comdat any

$_ZSt12__get_helperILm0EN6hermes6bigint18ImmutableBigIntRefEJS2_PFvRNS1_16MutableBigIntRefEEEERKT0_RKSt11_Tuple_implIXT_EJS7_DpT1_EE = comdat any

$_ZNSt11_Tuple_implILm0EJN6hermes6bigint18ImmutableBigIntRefES2_PFvRNS1_16MutableBigIntRefEEEE7_M_headERKS7_ = comdat any

$_ZSt12__get_helperILm1EN6hermes6bigint18ImmutableBigIntRefEJPFvRNS1_16MutableBigIntRefEEEERKT0_RKSt11_Tuple_implIXT_EJS7_DpT1_EE = comdat any

$_ZNSt11_Tuple_implILm1EJN6hermes6bigint18ImmutableBigIntRefEPFvRNS1_16MutableBigIntRefEEEE7_M_headERKS7_ = comdat any

$_ZSt12__get_helperILm2EPFvRN6hermes6bigint16MutableBigIntRefEEJEERKT0_RKSt11_Tuple_implIXT_EJS6_DpT1_EE = comdat any

$_ZNSt11_Tuple_implILm2EJPFvRN6hermes6bigint16MutableBigIntRefEEEE7_M_headERKS6_ = comdat any

$_ZNSt10_Head_baseILm2EPFvRN6hermes6bigint16MutableBigIntRefEELb0EE7_M_headERKS6_ = comdat any

$_ZSt4swapIPN6hermes6bigint16MutableBigIntRefEENSt9enable_ifIXsr6__and_ISt6__not_ISt15__is_tuple_likeIT_EESt21is_move_constructibleIS7_ESt18is_move_assignableIS7_EEE5valueEvE4typeERS7_SG_ = comdat any

$_ZSt4swapIjENSt9enable_ifIXsr6__and_ISt6__not_ISt15__is_tuple_likeIT_EESt21is_move_constructibleIS3_ESt18is_move_assignableIS3_EEE5valueEvE4typeERS3_SC_ = comdat any

$_ZSt10make_tupleIJjRKbEESt5tupleIJDpNSt25__strip_reference_wrapperINSt5decayIT_E4typeEE6__typeEEEDpOS5_ = comdat any

$_ZNSt5tupleIJjbEEC2IjRKbTnNSt9enable_ifIXclsr4_TCCIXntcl14__is_alloc_argIT_EEEEE29__is_implicitly_constructibleIS5_T0_EEEbE4typeELb1EEEOS5_OS6_ = comdat any

$_ZNSt11_Tuple_implILm0EJjbEEC2IjJRKbEvEEOT_DpOT0_ = comdat any

$_ZNSt11_Tuple_implILm1EJbEEC2ERKb = comdat any

$_ZNSt10_Head_baseILm0EjLb0EEC2IjEEOT_ = comdat any

$_ZNSt10_Head_baseILm1EbLb0EEC2ERKb = comdat any

$_ZSt12__get_helperILm0EjJbEERKT0_RKSt11_Tuple_implIXT_EJS0_DpT1_EE = comdat any

$_ZNSt11_Tuple_implILm0EJjbEE7_M_headERKS0_ = comdat any

$_ZNSt10_Head_baseILm0EjLb0EE7_M_headERKS0_ = comdat any

$_ZSt12__get_helperILm1EbJEERKT0_RKSt11_Tuple_implIXT_EJS0_DpT1_EE = comdat any

$_ZNSt11_Tuple_implILm1EJbEE7_M_headERKS0_ = comdat any

$_ZNSt10_Head_baseILm1EbLb0EE7_M_headERKS0_ = comdat any

$_ZNSt10_Head_baseILm0EjLb0EEC2ERKj = comdat any

$_ZNSt11_Tuple_implILm2EJjEEC2IjEEOT_ = comdat any

$_ZNSt10_Head_baseILm2EjLb0EEC2IjEEOT_ = comdat any

$_ZNSt10_Head_baseILm0EjLb0EE7_M_headERS0_ = comdat any

$_ZSt12__get_helperILm2EjJEERT0_RSt11_Tuple_implIXT_EJS0_DpT1_EE = comdat any

$_ZNSt11_Tuple_implILm2EJjEE7_M_headERS0_ = comdat any

$_ZNSt10_Head_baseILm2EjLb0EE7_M_headERS0_ = comdat any

$_ZNSt12_Vector_baseIN6hermes6bigint16BigIntTableEntryESaIS2_EEC2Ev = comdat any

$_ZNSt12_Vector_baseIN6hermes6bigint16BigIntTableEntryESaIS2_EE12_Vector_implC2Ev = comdat any

$_ZNSaIN6hermes6bigint16BigIntTableEntryEEC2Ev = comdat any

$_ZNSt12_Vector_baseIN6hermes6bigint16BigIntTableEntryESaIS2_EE17_Vector_impl_dataC2Ev = comdat any

$_ZNSt15__new_allocatorIN6hermes6bigint16BigIntTableEntryEEC2Ev = comdat any

$_ZNSt12_Vector_baseIhSaIhEEC2Ev = comdat any

$_ZNSt12_Vector_baseIhSaIhEE12_Vector_implC2Ev = comdat any

$_ZN4llvh6detail19LeadingZerosCounterImLm8EE5countEmNS_12ZeroBehaviorE = comdat any

$_ZNKSt6vectorIhSaIhEE4dataEv = comdat any

$_ZNKSt6vectorIhSaIhEE4sizeEv = comdat any

$_ZNKSt6vectorIhSaIhEE11_M_data_ptrIhEEPT_S4_ = comdat any

$_ZSt8_DestroyIPhhEvT_S1_RSaIT0_E = comdat any

$_ZNSt12_Vector_baseIhSaIhEED2Ev = comdat any

$_ZSt8_DestroyIPhEvT_S1_ = comdat any

$_ZNSt12_Destroy_auxILb1EE9__destroyIPhEEvT_S3_ = comdat any

$_ZNSt12_Vector_baseIhSaIhEE13_M_deallocateEPhm = comdat any

$_ZNSt12_Vector_baseIhSaIhEE12_Vector_implD2Ev = comdat any

$_ZNSt16allocator_traitsISaIhEE10deallocateERS0_Phm = comdat any

$_ZNSt15__new_allocatorIhE10deallocateEPhm = comdat any

$_ZStmiRKSt15_Deque_iteratorIN6hermes6bigint12ParsedBigIntERS2_PS2_ES7_ = comdat any

$_ZNSt15_Deque_iteratorIN6hermes6bigint12ParsedBigIntERS2_PS2_E14_S_buffer_sizeEv = comdat any

$_ZSt16__deque_buf_sizem = comdat any

$_ZNK4llvh8ArrayRefIhE5sliceEmm = comdat any

$_ZN4llvh8ArrayRefIhEC2EPKhm = comdat any

$_ZNSt8optionalINSt7__cxx1112basic_stringIcSt11char_traitsIcESaIcEEEEC2Ev = comdat any

$_ZNSt8optionalINSt7__cxx1112basic_stringIcSt11char_traitsIcESaIcEEEEaSIS5_EENSt9enable_ifIX7__and_vISt6__not_ISt7is_sameIS6_NSt9remove_cvINSt16remove_referenceIT_E4typeEE4typeEEES9_ISt6__and_IJSt9is_scalarIS5_ESA_IS5_NSt5decayISD_E4typeEEEEESt16is_constructibleIS5_JSD_EESt13is_assignableIRS5_SD_EEERS6_E4typeEOSD_ = comdat any

$_ZNSt8optionalINSt7__cxx1112basic_stringIcSt11char_traitsIcESaIcEEEED2Ev = comdat any

$_ZNSt14_Optional_baseINSt7__cxx1112basic_stringIcSt11char_traitsIcESaIcEEELb0ELb0EEC2Ev = comdat any

$_ZNSt17_Optional_payloadINSt7__cxx1112basic_stringIcSt11char_traitsIcESaIcEEELb0ELb0ELb0EEC2Ev = comdat any

$_ZNSt17_Optional_payloadINSt7__cxx1112basic_stringIcSt11char_traitsIcESaIcEEELb1ELb0ELb0EEC2Ev = comdat any

$_ZNSt22_Optional_payload_baseINSt7__cxx1112basic_stringIcSt11char_traitsIcESaIcEEEEC2Ev = comdat any

$_ZNSt22_Optional_payload_baseINSt7__cxx1112basic_stringIcSt11char_traitsIcESaIcEEEE8_StorageIS5_Lb0EEC2Ev = comdat any

$_ZNK4llvh8ArrayRefIcE5beginEv = comdat any

$_ZNK4llvh8ArrayRefIcE3endEv = comdat any

$_ZNK6hermes8OptValueIcEcvbEv = comdat any

$_ZNK6hermes8OptValueIcEdeEv = comdat any

$_ZN6hermes8OptValueIcEC2Ev = comdat any

$_ZN6hermes8OptValueIcEC2ERKc = comdat any

$_ZNK6hermes8OptValueIcE8getValueEv = comdat any

$_ZNK6hermes8OptValueIcE8hasValueEv = comdat any

$_ZNKSt19_Optional_base_implINSt7__cxx1112basic_stringIcSt11char_traitsIcESaIcEEESt14_Optional_baseIS5_Lb0ELb0EEE13_M_is_engagedEv = comdat any

$_ZNSt19_Optional_base_implINSt7__cxx1112basic_stringIcSt11char_traitsIcESaIcEEESt14_Optional_baseIS5_Lb0ELb0EEE6_M_getEv = comdat any

$_ZNSt19_Optional_base_implINSt7__cxx1112basic_stringIcSt11char_traitsIcESaIcEEESt14_Optional_baseIS5_Lb0ELb0EEE12_M_constructIJS5_EEEvDpOT_ = comdat any

$_ZNSt22_Optional_payload_baseINSt7__cxx1112basic_stringIcSt11char_traitsIcESaIcEEEE6_M_getEv = comdat any

$_ZNSt22_Optional_payload_baseINSt7__cxx1112basic_stringIcSt11char_traitsIcESaIcEEEE12_M_constructIJS5_EEEvDpOT_ = comdat any

$_ZSt10_ConstructINSt7__cxx1112basic_stringIcSt11char_traitsIcESaIcEEEJS5_EEvPT_DpOT0_ = comdat any

$_ZNSt14_Optional_baseINSt7__cxx1112basic_stringIcSt11char_traitsIcESaIcEEELb0ELb0EED2Ev = comdat any

$_ZNSt17_Optional_payloadINSt7__cxx1112basic_stringIcSt11char_traitsIcESaIcEEELb0ELb0ELb0EED2Ev = comdat any

$_ZNSt22_Optional_payload_baseINSt7__cxx1112basic_stringIcSt11char_traitsIcESaIcEEEE8_M_resetEv = comdat any

$_ZNSt17_Optional_payloadINSt7__cxx1112basic_stringIcSt11char_traitsIcESaIcEEELb1ELb0ELb0EED2Ev = comdat any

$_ZNSt22_Optional_payload_baseINSt7__cxx1112basic_stringIcSt11char_traitsIcESaIcEEEE10_M_destroyEv = comdat any

$_ZNSt22_Optional_payload_baseINSt7__cxx1112basic_stringIcSt11char_traitsIcESaIcEEEED2Ev = comdat any

$_ZNSt22_Optional_payload_baseINSt7__cxx1112basic_stringIcSt11char_traitsIcESaIcEEEE8_StorageIS5_Lb0EED2Ev = comdat any

$_ZNK4llvh8ArrayRefIDsE5beginEv = comdat any

$_ZNK4llvh8ArrayRefIDsE3endEv = comdat any

$_ZNK6hermes8OptValueIDsEcvbEv = comdat any

$_ZNK6hermes8OptValueIDsEdeEv = comdat any

$_ZN6hermes8OptValueIDsEC2Ev = comdat any

$_ZN6hermes8OptValueIDsEC2ERKDs = comdat any

$_ZNK6hermes8OptValueIDsE8getValueEv = comdat any

$_ZNK6hermes8OptValueIDsE8hasValueEv = comdat any

$_ZNK4llvh9StringRef5beginEv = comdat any

$_ZNK4llvh9StringRef3endEv = comdat any

$_ZNSt8optionalISt6vectorIhSaIhEEEC2Ev = comdat any

$_ZNKSt8optionalINSt7__cxx1112basic_stringIcSt11char_traitsIcESaIcEEEEcvbEv = comdat any

$_ZNRSt8optionalINSt7__cxx1112basic_stringIcSt11char_traitsIcESaIcEEEEdeEv = comdat any

$_ZNSt8optionalISt6vectorIhSaIhEEEaSIS2_EENSt9enable_ifIX7__and_vISt6__not_ISt7is_sameIS3_NSt9remove_cvINSt16remove_referenceIT_E4typeEE4typeEEES6_ISt6__and_IJSt9is_scalarIS2_ES7_IS2_NSt5decayISA_E4typeEEEEESt16is_constructibleIS2_JSA_EESt13is_assignableIRS2_SA_EEERS3_E4typeEOSA_ = comdat any

$_ZNSt14_Optional_baseISt6vectorIhSaIhEELb0ELb0EEC2Ev = comdat any

$_ZNSt17_Optional_payloadISt6vectorIhSaIhEELb0ELb0ELb0EEC2Ev = comdat any

$_ZNSt17_Optional_payloadISt6vectorIhSaIhEELb1ELb0ELb0EEC2Ev = comdat any

$_ZNSt22_Optional_payload_baseISt6vectorIhSaIhEEEC2Ev = comdat any

$_ZNSt22_Optional_payload_baseISt6vectorIhSaIhEEE8_StorageIS2_Lb0EEC2Ev = comdat any

$_ZN4llvh12findFirstSetIhEET_S1_NS_12ZeroBehaviorE = comdat any

$_ZNSt14numeric_limitsIhE3maxEv = comdat any

$_ZN4llvh18countTrailingZerosIhEEmT_NS_12ZeroBehaviorE = comdat any

$_ZN4llvh6detail20TrailingZerosCounterIhLm1EE5countEhNS_12ZeroBehaviorE = comdat any

$_ZNSt6vectorIhSaIhEEaSEOS1_ = comdat any

$_ZNSt19_Optional_base_implISt6vectorIhSaIhEESt14_Optional_baseIS2_Lb0ELb0EEE12_M_constructIJS2_EEEvDpOT_ = comdat any

$_ZNSt6vectorIhSaIhEE14_M_move_assignEOS1_St17integral_constantIbLb1EE = comdat any

$_ZNKSt12_Vector_baseIhSaIhEE13get_allocatorEv = comdat any

$_ZNSt6vectorIhSaIhEEC2ERKS0_ = comdat any

$_ZNSt12_Vector_baseIhSaIhEE17_Vector_impl_data12_M_swap_dataERS2_ = comdat any

$_ZSt15__alloc_on_moveISaIhEEvRT_S2_ = comdat any

$_ZNKSt12_Vector_baseIhSaIhEE19_M_get_Tp_allocatorEv = comdat any

$_ZNSt12_Vector_baseIhSaIhEE17_Vector_impl_dataC2Ev = comdat any

$_ZNSt12_Vector_baseIhSaIhEE17_Vector_impl_data12_M_copy_dataERKS2_ = comdat any

$_ZNSt22_Optional_payload_baseISt6vectorIhSaIhEEE12_M_constructIJS2_EEEvDpOT_ = comdat any

$_ZSt10_ConstructISt6vectorIhSaIhEEJS2_EEvPT_DpOT0_ = comdat any

$_ZNSt6vectorIhSaIhEEC2EOS1_ = comdat any

$_ZNSt12_Vector_baseIhSaIhEEC2EOS1_ = comdat any

$_ZNSt12_Vector_baseIhSaIhEE12_Vector_implC2EOS2_ = comdat any

$_ZNSt12_Vector_baseIhSaIhEE17_Vector_impl_dataC2EOS2_ = comdat any

$_ZNKSt19_Optional_base_implIN6hermes6bigint12ParsedBigIntESt14_Optional_baseIS2_Lb0ELb0EEE13_M_is_engagedEv = comdat any

$_ZNSt19_Optional_base_implIN6hermes6bigint12ParsedBigIntESt14_Optional_baseIS2_Lb0ELb0EEE6_M_getEv = comdat any

$_ZN6hermes6bigint12ParsedBigIntaSEOS1_ = comdat any

$_ZNSt19_Optional_base_implIN6hermes6bigint12ParsedBigIntESt14_Optional_baseIS2_Lb0ELb0EEE12_M_constructIJS2_EEEvDpOT_ = comdat any

$_ZNSt22_Optional_payload_baseIN6hermes6bigint12ParsedBigIntEE6_M_getEv = comdat any

$_ZNSt22_Optional_payload_baseIN6hermes6bigint12ParsedBigIntEE12_M_constructIJS2_EEEvDpOT_ = comdat any

$_ZSt10_ConstructIN6hermes6bigint12ParsedBigIntEJS2_EEvPT_DpOT0_ = comdat any

$_ZN6hermes6bigint12ParsedBigIntC2EOS1_ = comdat any

$_ZNSt11char_traitsIcE6lengthEPKc = comdat any

$_ZNSt7__cxx1112basic_stringIcSt11char_traitsIcESaIcEE12_M_constructIPKcEEvT_S8_St20forward_iterator_tag = comdat any

$_ZSt8distanceIPKcENSt15iterator_traitsIT_E15difference_typeES3_S3_ = comdat any

$_ZZNSt7__cxx1112basic_stringIcSt11char_traitsIcESaIcEE12_M_constructIPKcEEvT_S8_St20forward_iterator_tagEN6_GuardC2EPS4_ = comdat any

$_ZZNSt7__cxx1112basic_stringIcSt11char_traitsIcESaIcEE12_M_constructIPKcEEvT_S8_St20forward_iterator_tagEN6_GuardD2Ev = comdat any

$_ZSt10__distanceIPKcENSt15iterator_traitsIT_E15difference_typeES3_S3_St26random_access_iterator_tag = comdat any

$_ZSt19__iterator_categoryIPKcENSt15iterator_traitsIT_E17iterator_categoryERKS3_ = comdat any

$_ZN4llvh8ArrayRefImEC2EPKmm = comdat any

$_ZSt9__reverseIN9__gnu_cxx17__normal_iteratorIPcNSt7__cxx1112basic_stringIcSt11char_traitsIcESaIcEEEEEEvT_SA_St26random_access_iterator_tag = comdat any

$_ZSt19__iterator_categoryIN9__gnu_cxx17__normal_iteratorIPcNSt7__cxx1112basic_stringIcSt11char_traitsIcESaIcEEEEEENSt15iterator_traitsIT_E17iterator_categoryERKSB_ = comdat any

$_ZN9__gnu_cxxeqIPcNSt7__cxx1112basic_stringIcSt11char_traitsIcESaIcEEEEEbRKNS_17__normal_iteratorIT_T0_EESD_ = comdat any

$_ZN9__gnu_cxx17__normal_iteratorIPcNSt7__cxx1112basic_stringIcSt11char_traitsIcESaIcEEEEmmEv = comdat any

$_ZN9__gnu_cxxltIPcNSt7__cxx1112basic_stringIcSt11char_traitsIcESaIcEEEEEbRKNS_17__normal_iteratorIT_T0_EESD_ = comdat any

$_ZSt9iter_swapIN9__gnu_cxx17__normal_iteratorIPcNSt7__cxx1112basic_stringIcSt11char_traitsIcESaIcEEEEES9_EvT_T0_ = comdat any

$_ZN9__gnu_cxx17__normal_iteratorIPcNSt7__cxx1112basic_stringIcSt11char_traitsIcESaIcEEEEppEv = comdat any

$_ZNK9__gnu_cxx17__normal_iteratorIPcNSt7__cxx1112basic_stringIcSt11char_traitsIcESaIcEEEE4baseEv = comdat any

$_ZSt4swapIcENSt9enable_ifIXsr6__and_ISt6__not_ISt15__is_tuple_likeIT_EESt21is_move_constructibleIS3_ESt18is_move_assignableIS3_EEE5valueEvE4typeERS3_SC_ = comdat any

$_ZNK9__gnu_cxx17__normal_iteratorIPcNSt7__cxx1112basic_stringIcSt11char_traitsIcESaIcEEEEdeEv = comdat any

$_ZSt8_DestroyIPN6hermes6bigint16BigIntTableEntryES2_EvT_S4_RSaIT0_E = comdat any

$_ZNSt12_Vector_baseIN6hermes6bigint16BigIntTableEntryESaIS2_EE19_M_get_Tp_allocatorEv = comdat any

$_ZNSt12_Vector_baseIN6hermes6bigint16BigIntTableEntryESaIS2_EED2Ev = comdat any

$_ZSt8_DestroyIPN6hermes6bigint16BigIntTableEntryEEvT_S4_ = comdat any

$_ZNSt12_Destroy_auxILb1EE9__destroyIPN6hermes6bigint16BigIntTableEntryEEEvT_S6_ = comdat any

$_ZNSt12_Vector_baseIN6hermes6bigint16BigIntTableEntryESaIS2_EE13_M_deallocateEPS2_m = comdat any

$_ZNSt12_Vector_baseIN6hermes6bigint16BigIntTableEntryESaIS2_EE12_Vector_implD2Ev = comdat any

$_ZNSt16allocator_traitsISaIN6hermes6bigint16BigIntTableEntryEEE10deallocateERS3_PS2_m = comdat any

$_ZNSt15__new_allocatorIN6hermes6bigint16BigIntTableEntryEE10deallocateEPS2_m = comdat any

$_ZNSaIN6hermes6bigint16BigIntTableEntryEED2Ev = comdat any

$_ZNSt15__new_allocatorIN6hermes6bigint16BigIntTableEntryEED2Ev = comdat any

$_ZNKSt6vectorIN6hermes6bigint16BigIntTableEntryESaIS2_EE8max_sizeEv = comdat any

$_ZNKSt6vectorIN6hermes6bigint16BigIntTableEntryESaIS2_EE8capacityEv = comdat any

$_ZNKSt6vectorIN6hermes6bigint16BigIntTableEntryESaIS2_EE4sizeEv = comdat any

$_ZNSt12_Vector_baseIN6hermes6bigint16BigIntTableEntryESaIS2_EE11_M_allocateEm = comdat any

$_ZNSt6vectorIN6hermes6bigint16BigIntTableEntryESaIS2_EE11_S_relocateEPS2_S5_S5_RS3_ = comdat any

$_ZNSt6vectorIN6hermes6bigint16BigIntTableEntryESaIS2_EE11_S_max_sizeERKS3_ = comdat any

$_ZNKSt12_Vector_baseIN6hermes6bigint16BigIntTableEntryESaIS2_EE19_M_get_Tp_allocatorEv = comdat any

$_ZNSt16allocator_traitsISaIN6hermes6bigint16BigIntTableEntryEEE8max_sizeERKS3_ = comdat any

$_ZNKSt15__new_allocatorIN6hermes6bigint16BigIntTableEntryEE8max_sizeEv = comdat any

$_ZNKSt15__new_allocatorIN6hermes6bigint16BigIntTableEntryEE11_M_max_sizeEv = comdat any

$_ZNSt16allocator_traitsISaIN6hermes6bigint16BigIntTableEntryEEE8allocateERS3_m = comdat any

$_ZNSt15__new_allocatorIN6hermes6bigint16BigIntTableEntryEE8allocateEmPKv = comdat any

$_ZSt12__relocate_aIPN6hermes6bigint16BigIntTableEntryES3_SaIS2_EET0_T_S6_S5_RT1_ = comdat any

$_ZSt14__relocate_a_1IN6hermes6bigint16BigIntTableEntryES2_ENSt9enable_ifIXsr3std24__is_bitwise_relocatableIT_EE5valueEPS4_E4typeES5_S5_S5_RSaIT0_E = comdat any

$_ZSt12__niter_baseIPN6hermes6bigint16BigIntTableEntryEET_S4_ = comdat any

$_ZNSt15_Deque_iteratorIN6hermes6bigint12ParsedBigIntERKS2_PS3_EC2IS_IS2_RS2_PS2_EvEERKT_ = comdat any

$_ZSteqRKSt15_Deque_iteratorIN6hermes6bigint12ParsedBigIntERKS2_PS3_ES8_ = comdat any

$_ZNSt15_Deque_iteratorIN6hermes6bigint12ParsedBigIntERKS2_PS3_E11_M_set_nodeEPPS2_ = comdat any

$_ZNSt15_Deque_iteratorIN6hermes6bigint12ParsedBigIntERKS2_PS3_E14_S_buffer_sizeEv = comdat any

$_ZNSt6vectorIN6hermes6bigint16BigIntTableEntryESaIS2_EE12emplace_backIJS2_EEERS2_DpOT_ = comdat any

$_ZNSt16allocator_traitsISaIN6hermes6bigint16BigIntTableEntryEEE9constructIS2_JS2_EEEvRS3_PT_DpOT0_ = comdat any

$_ZNSt6vectorIN6hermes6bigint16BigIntTableEntryESaIS2_EE17_M_realloc_insertIJS2_EEEvN9__gnu_cxx17__normal_iteratorIPS2_S4_EEDpOT_ = comdat any

$_ZNSt6vectorIN6hermes6bigint16BigIntTableEntryESaIS2_EE3endEv = comdat any

$_ZNSt6vectorIN6hermes6bigint16BigIntTableEntryESaIS2_EE4backEv = comdat any

$_ZNSt15__new_allocatorIN6hermes6bigint16BigIntTableEntryEE9constructIS2_JS2_EEEvPT_DpOT0_ = comdat any

$_ZNKSt6vectorIN6hermes6bigint16BigIntTableEntryESaIS2_EE12_M_check_lenEmPKc = comdat any

$_ZN9__gnu_cxxmiIPN6hermes6bigint16BigIntTableEntryESt6vectorIS3_SaIS3_EEEENS_17__normal_iteratorIT_T0_E15difference_typeERKSB_SE_ = comdat any

$_ZNSt6vectorIN6hermes6bigint16BigIntTableEntryESaIS2_EE5beginEv = comdat any

$_ZNK9__gnu_cxx17__normal_iteratorIPN6hermes6bigint16BigIntTableEntryESt6vectorIS3_SaIS3_EEE4baseEv = comdat any

$_ZSt3maxImERKT_S2_S2_ = comdat any

$_ZN9__gnu_cxx17__normal_iteratorIPN6hermes6bigint16BigIntTableEntryESt6vectorIS3_SaIS3_EEEC2ERKS4_ = comdat any

$_ZNK9__gnu_cxx17__normal_iteratorIPN6hermes6bigint16BigIntTableEntryESt6vectorIS3_SaIS3_EEEmiEl = comdat any

$_ZNK9__gnu_cxx17__normal_iteratorIPN6hermes6bigint16BigIntTableEntryESt6vectorIS3_SaIS3_EEEdeEv = comdat any

$_ZN9__gnu_cxx17__normal_iteratorIPhSt6vectorIhSaIhEEEC2ERKS1_ = comdat any

$_ZN9__gnu_cxxmiIPKhSt6vectorIhSaIhEEEENS_17__normal_iteratorIT_T0_E15difference_typeERKS9_SC_ = comdat any

$_ZNKSt6vectorIhSaIhEE6cbeginEv = comdat any

$_ZNSt6vectorIhSaIhEE18_M_insert_dispatchIPKhEEvN9__gnu_cxx17__normal_iteratorIPhS1_EET_S9_St12__false_type = comdat any

$_ZNSt6vectorIhSaIhEE5beginEv = comdat any

$_ZNK9__gnu_cxx17__normal_iteratorIPhSt6vectorIhSaIhEEEplEl = comdat any

$_ZNK9__gnu_cxx17__normal_iteratorIPKhSt6vectorIhSaIhEEE4baseEv = comdat any

$_ZN9__gnu_cxx17__normal_iteratorIPKhSt6vectorIhSaIhEEEC2ERKS2_ = comdat any

$_ZNSt6vectorIhSaIhEE15_M_range_insertIPKhEEvN9__gnu_cxx17__normal_iteratorIPhS1_EET_S9_St20forward_iterator_tag = comdat any

$_ZN9__gnu_cxxmiIPhSt6vectorIhSaIhEEEENS_17__normal_iteratorIT_T0_E15difference_typeERKS8_SB_ = comdat any

$_ZSt22__uninitialized_move_aIPhS0_SaIhEET0_T_S3_S2_RT1_ = comdat any

$_ZSt13move_backwardIPhS0_ET0_T_S2_S1_ = comdat any

$_ZNK9__gnu_cxx17__normal_iteratorIPhSt6vectorIhSaIhEEE4baseEv = comdat any

$_ZSt4copyIPKhN9__gnu_cxx17__normal_iteratorIPhSt6vectorIhSaIhEEEEET0_T_SA_S9_ = comdat any

$_ZSt7advanceIPKhmEvRT_T0_ = comdat any

$_ZNKSt6vectorIhSaIhEE12_M_check_lenEmPKc = comdat any

$_ZSt34__uninitialized_move_if_noexcept_aIPhS0_SaIhEET0_T_S3_S2_RT1_ = comdat any

$_ZSt22__uninitialized_copy_aISt13move_iteratorIPhES1_hET0_T_S4_S3_RSaIT1_E = comdat any

$_ZSt18make_move_iteratorIPhESt13move_iteratorIT_ES2_ = comdat any

$_ZSt18uninitialized_copyISt13move_iteratorIPhES1_ET0_T_S4_S3_ = comdat any

$_ZNSt20__uninitialized_copyILb1EE13__uninit_copyISt13move_iteratorIPhES3_EET0_T_S6_S5_ = comdat any

$_ZSt4copyISt13move_iteratorIPhES1_ET0_T_S4_S3_ = comdat any

$_ZSt13__copy_move_aILb1EPhS0_ET1_T0_S2_S1_ = comdat any

$_ZSt12__miter_baseIPhEDTcl12__miter_basecldtfp_4baseEEESt13move_iteratorIT_E = comdat any

$_ZSt14__copy_move_a1ILb1EPhS0_ET1_T0_S2_S1_ = comdat any

$_ZSt14__copy_move_a2ILb1EPhS0_ET1_T0_S2_S1_ = comdat any

$_ZNSt11__copy_moveILb1ELb1ESt26random_access_iterator_tagE8__copy_mIhEEPT_PKS3_S6_S4_ = comdat any

$_ZSt12__miter_baseIPhET_S1_ = comdat any

$_ZNKSt13move_iteratorIPhE4baseEv = comdat any

$_ZNSt13move_iteratorIPhEC2ES0_ = comdat any

$_ZSt22__copy_move_backward_aILb1EPhS0_ET1_T0_S2_S1_ = comdat any

$_ZSt23__copy_move_backward_a1ILb1EPhS0_ET1_T0_S2_S1_ = comdat any

$_ZSt23__copy_move_backward_a2ILb1EPhS0_ET1_T0_S2_S1_ = comdat any

$_ZNSt20__copy_move_backwardILb1ELb1ESt26random_access_iterator_tagE13__copy_move_bIhEEPT_PKS3_S6_S4_ = comdat any

$_ZSt13__copy_move_aILb0EPKhN9__gnu_cxx17__normal_iteratorIPhSt6vectorIhSaIhEEEEET1_T0_SA_S9_ = comdat any

$_ZSt12__niter_wrapIN9__gnu_cxx17__normal_iteratorIPhSt6vectorIhSaIhEEEES2_ET_S7_T0_ = comdat any

$_ZSt12__niter_baseIPhSt6vectorIhSaIhEEET_N9__gnu_cxx17__normal_iteratorIS4_T0_EE = comdat any

$_ZSt9__advanceIPKhlEvRT_T0_St26random_access_iterator_tag = comdat any

$_ZNKSt6vectorIhSaIhEE8max_sizeEv = comdat any

$_ZSt32__make_move_if_noexcept_iteratorIhSt13move_iteratorIPhEET0_PT_ = comdat any

@_ZZN6hermes6bigint8toDoubleERdNS0_18ImmutableBigIntRefEE4bias = internal constant i64 1023, align 8
@.str = private unnamed_addr constant [2 x i8] c"0\00", align 1
@.str.1 = private unnamed_addr constant [49 x i8] c"cannot create std::vector larger than max_size()\00", align 1
@.str.2 = private unnamed_addr constant [37 x i8] c"trailing data in non-decimal literal\00", align 1
@.str.3 = private unnamed_addr constant [33 x i8] c"trailing data in decimal literal\00", align 1
@.str.4 = private unnamed_addr constant [23 x i8] c"invalid bigint literal\00", align 1
@.str.5 = private unnamed_addr constant [28 x i8] c"trailing data in 0n literal\00", align 1
@.str.6 = private unnamed_addr constant [27 x i8] c"no n suffix in non-decimal\00", align 1
@.str.7 = private unnamed_addr constant [23 x i8] c"no n suffix in decimal\00", align 1
@.str.8 = private unnamed_addr constant [50 x i8] c"basic_string: construction from null is not valid\00", align 1
@.str.9 = private unnamed_addr constant [16 x i8] c"vector::reserve\00", align 1
@.str.10 = private unnamed_addr constant [26 x i8] c"vector::_M_realloc_insert\00", align 1
@.str.11 = private unnamed_addr constant [24 x i8] c"vector::_M_range_insert\00", align 1

; Function Attrs: mustprogress nounwind uwtable
define hidden { ptr, i64 } @_ZN6hermes6bigint17dropExtraSignBitsEN4llvh8ArrayRefIhEE(ptr %src.coerce0, i64 %src.coerce1) #0 {
entry:
  %retval = alloca %"class.llvh::ArrayRef", align 8
  %src = alloca %"class.llvh::ArrayRef", align 8
  %drop = alloca i8, align 1
  %previousSrc = alloca %"class.llvh::ArrayRef", align 8
  %ref.tmp = alloca %"class.llvh::ArrayRef", align 8
  %lastChar = alloca i8, align 1
  %0 = getelementptr inbounds { ptr, i64 }, ptr %src, i32 0, i32 0
  store ptr %src.coerce0, ptr %0, align 8
  %1 = getelementptr inbounds { ptr, i64 }, ptr %src, i32 0, i32 1
  store i64 %src.coerce1, ptr %1, align 8
  %call = call noundef zeroext i1 @_ZNK4llvh8ArrayRefIhE5emptyEv(ptr noundef nonnull align 8 dereferenceable(16) %src)
  br i1 %call, label %if.then, label %if.end

if.then:                                          ; preds = %entry
  call void @llvm.memcpy.p0.p0.i64(ptr align 8 %retval, ptr align 8 %src, i64 16, i1 false)
  br label %return

if.end:                                           ; preds = %entry
  %call1 = call noundef nonnull align 1 dereferenceable(1) ptr @_ZNK4llvh8ArrayRefIhE4backEv(ptr noundef nonnull align 8 dereferenceable(16) %src)
  %call2 = call noundef zeroext i8 @_ZN6hermes6bigint15getSignExtValueIhhhEENSt9enable_ifIXsr3stdE13is_integral_vIT0_EET_E4typeERKS3_(ptr noundef nonnull align 1 dereferenceable(1) %call1)
  store i8 %call2, ptr %drop, align 1
  call void @llvm.memcpy.p0.p0.i64(ptr align 8 %previousSrc, ptr align 8 %src, i64 16, i1 false)
  br label %while.cond

while.cond:                                       ; preds = %while.body, %if.end
  %call3 = call noundef zeroext i1 @_ZNK4llvh8ArrayRefIhE5emptyEv(ptr noundef nonnull align 8 dereferenceable(16) %src)
  br i1 %call3, label %land.end, label %land.rhs

land.rhs:                                         ; preds = %while.cond
  %call4 = call noundef nonnull align 1 dereferenceable(1) ptr @_ZNK4llvh8ArrayRefIhE4backEv(ptr noundef nonnull align 8 dereferenceable(16) %src)
  %2 = load i8, ptr %call4, align 1
  %conv = zext i8 %2 to i32
  %3 = load i8, ptr %drop, align 1
  %conv5 = zext i8 %3 to i32
  %cmp = icmp eq i32 %conv, %conv5
  br label %land.end

land.end:                                         ; preds = %land.rhs, %while.cond
  %4 = phi i1 [ false, %while.cond ], [ %cmp, %land.rhs ]
  br i1 %4, label %while.body, label %while.end

while.body:                                       ; preds = %land.end
  call void @llvm.memcpy.p0.p0.i64(ptr align 8 %previousSrc, ptr align 8 %src, i64 16, i1 false)
  %call6 = call { ptr, i64 } @_ZNK4llvh8ArrayRefIhE9drop_backEm(ptr noundef nonnull align 8 dereferenceable(16) %src, i64 noundef 1)
  %5 = getelementptr inbounds { ptr, i64 }, ptr %ref.tmp, i32 0, i32 0
  %6 = extractvalue { ptr, i64 } %call6, 0
  store ptr %6, ptr %5, align 8
  %7 = getelementptr inbounds { ptr, i64 }, ptr %ref.tmp, i32 0, i32 1
  %8 = extractvalue { ptr, i64 } %call6, 1
  store i64 %8, ptr %7, align 8
  call void @llvm.memcpy.p0.p0.i64(ptr align 8 %src, ptr align 8 %ref.tmp, i64 16, i1 false)
  br label %while.cond, !llvm.loop !4

while.end:                                        ; preds = %land.end
  %call7 = call noundef zeroext i1 @_ZNK4llvh8ArrayRefIhE5emptyEv(ptr noundef nonnull align 8 dereferenceable(16) %src)
  br i1 %call7, label %cond.true, label %cond.false

cond.true:                                        ; preds = %while.end
  br label %cond.end

cond.false:                                       ; preds = %while.end
  %call8 = call noundef nonnull align 1 dereferenceable(1) ptr @_ZNK4llvh8ArrayRefIhE4backEv(ptr noundef nonnull align 8 dereferenceable(16) %src)
  %9 = load i8, ptr %call8, align 1
  %conv9 = zext i8 %9 to i32
  br label %cond.end

cond.end:                                         ; preds = %cond.false, %cond.true
  %cond = phi i32 [ 0, %cond.true ], [ %conv9, %cond.false ]
  %conv10 = trunc i32 %cond to i8
  store i8 %conv10, ptr %lastChar, align 1
  %call11 = call noundef zeroext i8 @_ZN6hermes6bigint15getSignExtValueIhhhEENSt9enable_ifIXsr3stdE13is_integral_vIT0_EET_E4typeERKS3_(ptr noundef nonnull align 1 dereferenceable(1) %lastChar)
  %conv12 = zext i8 %call11 to i32
  %10 = load i8, ptr %drop, align 1
  %conv13 = zext i8 %10 to i32
  %cmp14 = icmp eq i32 %conv12, %conv13
  br i1 %cmp14, label %cond.true15, label %cond.false16

cond.true15:                                      ; preds = %cond.end
  br label %cond.end17

cond.false16:                                     ; preds = %cond.end
  br label %cond.end17

cond.end17:                                       ; preds = %cond.false16, %cond.true15
  %cond-lvalue = phi ptr [ %src, %cond.true15 ], [ %previousSrc, %cond.false16 ]
  call void @llvm.memcpy.p0.p0.i64(ptr align 8 %retval, ptr align 8 %cond-lvalue, i64 16, i1 false)
  br label %return

return:                                           ; preds = %cond.end17, %if.then
  %11 = load { ptr, i64 }, ptr %retval, align 8
  ret { ptr, i64 } %11
}

; Function Attrs: mustprogress nounwind uwtable
define linkonce_odr hidden noundef zeroext i1 @_ZNK4llvh8ArrayRefIhE5emptyEv(ptr noundef nonnull align 8 dereferenceable(16) %this) #0 comdat align 2 {
entry:
  %this.addr = alloca ptr, align 8
  store ptr %this, ptr %this.addr, align 8
  %this1 = load ptr, ptr %this.addr, align 8
  %Length = getelementptr inbounds %"class.llvh::ArrayRef", ptr %this1, i32 0, i32 1
  %0 = load i64, ptr %Length, align 8
  %cmp = icmp eq i64 %0, 0
  ret i1 %cmp
}

; Function Attrs: nocallback nofree nounwind willreturn memory(argmem: readwrite)
declare void @llvm.memcpy.p0.p0.i64(ptr noalias nocapture writeonly, ptr noalias nocapture readonly, i64, i1 immarg) #1

; Function Attrs: mustprogress nounwind uwtable
define linkonce_odr hidden noundef zeroext i8 @_ZN6hermes6bigint15getSignExtValueIhhhEENSt9enable_ifIXsr3stdE13is_integral_vIT0_EET_E4typeERKS3_(ptr noundef nonnull align 1 dereferenceable(1) %value) #0 comdat {
entry:
  %value.addr = alloca ptr, align 8
  %UnsignedTSizeInBits = alloca i32, align 4
  %unsignedValue = alloca i8, align 1
  %signExtValue = alloca i64, align 8
  store ptr %value, ptr %value.addr, align 8
  store i32 8, ptr %UnsignedTSizeInBits, align 4
  %0 = load ptr, ptr %value.addr, align 8
  %1 = load i8, ptr %0, align 1
  store i8 %1, ptr %unsignedValue, align 1
  %2 = load i8, ptr %unsignedValue, align 1
  %conv = zext i8 %2 to i32
  %3 = load i32, ptr %UnsignedTSizeInBits, align 4
  %sub = sub i32 %3, 1
  %shr = ashr i32 %conv, %sub
  %conv1 = sext i32 %shr to i64
  %sub2 = sub i64 0, %conv1
  store i64 %sub2, ptr %signExtValue, align 8
  %4 = load i64, ptr %signExtValue, align 8
  %conv3 = trunc i64 %4 to i8
  ret i8 %conv3
}

; Function Attrs: mustprogress nounwind uwtable
define linkonce_odr hidden noundef nonnull align 1 dereferenceable(1) ptr @_ZNK4llvh8ArrayRefIhE4backEv(ptr noundef nonnull align 8 dereferenceable(16) %this) #0 comdat align 2 {
entry:
  %this.addr = alloca ptr, align 8
  store ptr %this, ptr %this.addr, align 8
  %this1 = load ptr, ptr %this.addr, align 8
  %Data = getelementptr inbounds %"class.llvh::ArrayRef", ptr %this1, i32 0, i32 0
  %0 = load ptr, ptr %Data, align 8
  %Length = getelementptr inbounds %"class.llvh::ArrayRef", ptr %this1, i32 0, i32 1
  %1 = load i64, ptr %Length, align 8
  %sub = sub i64 %1, 1
  %arrayidx = getelementptr inbounds i8, ptr %0, i64 %sub
  ret ptr %arrayidx
}

; Function Attrs: mustprogress nounwind uwtable
define linkonce_odr hidden { ptr, i64 } @_ZNK4llvh8ArrayRefIhE9drop_backEm(ptr noundef nonnull align 8 dereferenceable(16) %this, i64 noundef %N) #0 comdat align 2 {
entry:
  %retval = alloca %"class.llvh::ArrayRef", align 8
  %this.addr = alloca ptr, align 8
  %N.addr = alloca i64, align 8
  store ptr %this, ptr %this.addr, align 8
  store i64 %N, ptr %N.addr, align 8
  %this1 = load ptr, ptr %this.addr, align 8
  %call = call noundef i64 @_ZNK4llvh8ArrayRefIhE4sizeEv(ptr noundef nonnull align 8 dereferenceable(16) %this1)
  %0 = load i64, ptr %N.addr, align 8
  %sub = sub i64 %call, %0
  %call2 = call { ptr, i64 } @_ZNK4llvh8ArrayRefIhE5sliceEmm(ptr noundef nonnull align 8 dereferenceable(16) %this1, i64 noundef 0, i64 noundef %sub)
  %1 = getelementptr inbounds { ptr, i64 }, ptr %retval, i32 0, i32 0
  %2 = extractvalue { ptr, i64 } %call2, 0
  store ptr %2, ptr %1, align 8
  %3 = getelementptr inbounds { ptr, i64 }, ptr %retval, i32 0, i32 1
  %4 = extractvalue { ptr, i64 } %call2, 1
  store i64 %4, ptr %3, align 8
  %5 = load { ptr, i64 }, ptr %retval, align 8
  ret { ptr, i64 } %5
}

; Function Attrs: mustprogress nounwind uwtable
define hidden noundef i32 @_ZN6hermes6bigint13initWithBytesENS0_16MutableBigIntRefEN4llvh8ArrayRefIhEE(ptr %dst.coerce0, ptr %dst.coerce1, ptr %data.coerce0, i64 %data.coerce1) #0 {
entry:
  %retval = alloca i32, align 4
  %dst = alloca %"struct.hermes::bigint::MutableBigIntRef", align 8
  %data = alloca %"class.llvh::ArrayRef", align 8
  %dstSizeInBytes = alloca i32, align 4
  %dataSizeInBytes = alloca i64, align 8
  %ptr = alloca ptr, align 8
  %numBytesToSet = alloca i32, align 4
  %signExtValue = alloca i8, align 1
  %0 = getelementptr inbounds { ptr, ptr }, ptr %dst, i32 0, i32 0
  store ptr %dst.coerce0, ptr %0, align 8
  %1 = getelementptr inbounds { ptr, ptr }, ptr %dst, i32 0, i32 1
  store ptr %dst.coerce1, ptr %1, align 8
  %2 = getelementptr inbounds { ptr, i64 }, ptr %data, i32 0, i32 0
  store ptr %data.coerce0, ptr %2, align 8
  %3 = getelementptr inbounds { ptr, i64 }, ptr %data, i32 0, i32 1
  store i64 %data.coerce1, ptr %3, align 8
  %numDigits = getelementptr inbounds %"struct.hermes::bigint::MutableBigIntRef", ptr %dst, i32 0, i32 1
  %4 = load ptr, ptr %numDigits, align 8
  %5 = load i32, ptr %4, align 4
  %mul = mul i32 %5, 8
  store i32 %mul, ptr %dstSizeInBytes, align 4
  %6 = load i32, ptr %dstSizeInBytes, align 4
  %conv = zext i32 %6 to i64
  %call = call noundef i64 @_ZNK4llvh8ArrayRefIhE4sizeEv(ptr noundef nonnull align 8 dereferenceable(16) %data)
  %cmp = icmp ult i64 %conv, %call
  br i1 %cmp, label %if.then, label %if.end

if.then:                                          ; preds = %entry
  %numDigits1 = getelementptr inbounds %"struct.hermes::bigint::MutableBigIntRef", ptr %dst, i32 0, i32 1
  %7 = load ptr, ptr %numDigits1, align 8
  store i32 0, ptr %7, align 4
  store i32 1, ptr %retval, align 4
  br label %return

if.end:                                           ; preds = %entry
  %call2 = call noundef i64 @_ZNK4llvh8ArrayRefIhE4sizeEv(ptr noundef nonnull align 8 dereferenceable(16) %data)
  store i64 %call2, ptr %dataSizeInBytes, align 8
  %8 = load i64, ptr %dataSizeInBytes, align 8
  %cmp3 = icmp eq i64 %8, 0
  br i1 %cmp3, label %if.then4, label %if.end6

if.then4:                                         ; preds = %if.end
  %numDigits5 = getelementptr inbounds %"struct.hermes::bigint::MutableBigIntRef", ptr %dst, i32 0, i32 1
  %9 = load ptr, ptr %numDigits5, align 8
  store i32 0, ptr %9, align 4
  store i32 0, ptr %retval, align 4
  br label %return

if.end6:                                          ; preds = %if.end
  %digits = getelementptr inbounds %"struct.hermes::bigint::MutableBigIntRef", ptr %dst, i32 0, i32 0
  %10 = load ptr, ptr %digits, align 8
  store ptr %10, ptr %ptr, align 8
  %11 = load ptr, ptr %ptr, align 8
  %call7 = call noundef ptr @_ZNK4llvh8ArrayRefIhE4dataEv(ptr noundef nonnull align 8 dereferenceable(16) %data)
  %12 = load i64, ptr %dataSizeInBytes, align 8
  call void @llvm.memcpy.p0.p0.i64(ptr align 1 %11, ptr align 1 %call7, i64 %12, i1 false)
  %13 = load i32, ptr %dstSizeInBytes, align 4
  %conv8 = zext i32 %13 to i64
  %14 = load i64, ptr %dataSizeInBytes, align 8
  %sub = sub i64 %conv8, %14
  %conv9 = trunc i64 %sub to i32
  store i32 %conv9, ptr %numBytesToSet, align 4
  %15 = load ptr, ptr %ptr, align 8
  %16 = load i64, ptr %dataSizeInBytes, align 8
  %sub10 = sub i64 %16, 1
  %arrayidx = getelementptr inbounds i8, ptr %15, i64 %sub10
  %call11 = call noundef zeroext i8 @_ZN6hermes6bigint15getSignExtValueIhhhEENSt9enable_ifIXsr3stdE13is_integral_vIT0_EET_E4typeERKS3_(ptr noundef nonnull align 1 dereferenceable(1) %arrayidx)
  store i8 %call11, ptr %signExtValue, align 1
  %17 = load ptr, ptr %ptr, align 8
  %18 = load i64, ptr %dataSizeInBytes, align 8
  %add.ptr = getelementptr inbounds i8, ptr %17, i64 %18
  %19 = load i8, ptr %signExtValue, align 1
  %conv12 = zext i8 %19 to i32
  %20 = trunc i32 %conv12 to i8
  %21 = load i32, ptr %numBytesToSet, align 4
  %conv13 = zext i32 %21 to i64
  call void @llvm.memset.p0.i64(ptr align 1 %add.ptr, i8 %20, i64 %conv13, i1 false)
  call void @_ZN6hermes6bigint12_GLOBAL__N_121ensureCanonicalResultERNS0_16MutableBigIntRefE(ptr noundef nonnull align 8 dereferenceable(16) %dst)
  store i32 0, ptr %retval, align 4
  br label %return

return:                                           ; preds = %if.end6, %if.then4, %if.then
  %22 = load i32, ptr %retval, align 4
  ret i32 %22
}

; Function Attrs: mustprogress nounwind uwtable
define linkonce_odr hidden noundef i64 @_ZNK4llvh8ArrayRefIhE4sizeEv(ptr noundef nonnull align 8 dereferenceable(16) %this) #0 comdat align 2 {
entry:
  %this.addr = alloca ptr, align 8
  store ptr %this, ptr %this.addr, align 8
  %this1 = load ptr, ptr %this.addr, align 8
  %Length = getelementptr inbounds %"class.llvh::ArrayRef", ptr %this1, i32 0, i32 1
  %0 = load i64, ptr %Length, align 8
  ret i64 %0
}

; Function Attrs: mustprogress nounwind uwtable
define linkonce_odr hidden noundef ptr @_ZNK4llvh8ArrayRefIhE4dataEv(ptr noundef nonnull align 8 dereferenceable(16) %this) #0 comdat align 2 {
entry:
  %this.addr = alloca ptr, align 8
  store ptr %this, ptr %this.addr, align 8
  %this1 = load ptr, ptr %this.addr, align 8
  %Data = getelementptr inbounds %"class.llvh::ArrayRef", ptr %this1, i32 0, i32 0
  %0 = load ptr, ptr %Data, align 8
  ret ptr %0
}

; Function Attrs: nocallback nofree nounwind willreturn memory(argmem: write)
declare void @llvm.memset.p0.i64(ptr nocapture writeonly, i8, i64, i1 immarg) #2

; Function Attrs: mustprogress nounwind uwtable
define internal void @_ZN6hermes6bigint12_GLOBAL__N_121ensureCanonicalResultERNS0_16MutableBigIntRefE(ptr noundef nonnull align 8 dereferenceable(16) %dst) #0 {
entry:
  %dst.addr = alloca ptr, align 8
  %ptr = alloca ptr, align 8
  %sizeInBytes = alloca i32, align 4
  %compactView = alloca %"class.llvh::ArrayRef", align 8
  %agg.tmp = alloca %"class.llvh::ArrayRef", align 8
  store ptr %dst, ptr %dst.addr, align 8
  %0 = load ptr, ptr %dst.addr, align 8
  %digits = getelementptr inbounds %"struct.hermes::bigint::MutableBigIntRef", ptr %0, i32 0, i32 0
  %1 = load ptr, ptr %digits, align 8
  store ptr %1, ptr %ptr, align 8
  %2 = load ptr, ptr %dst.addr, align 8
  %numDigits = getelementptr inbounds %"struct.hermes::bigint::MutableBigIntRef", ptr %2, i32 0, i32 1
  %3 = load ptr, ptr %numDigits, align 8
  %4 = load i32, ptr %3, align 4
  %mul = mul i32 %4, 8
  store i32 %mul, ptr %sizeInBytes, align 4
  %5 = load ptr, ptr %ptr, align 8
  %6 = load i32, ptr %sizeInBytes, align 4
  %conv = zext i32 %6 to i64
  %call = call { ptr, i64 } @_ZN4llvh12makeArrayRefIhEENS_8ArrayRefIT_EEPKS2_m(ptr noundef %5, i64 noundef %conv)
  %7 = getelementptr inbounds { ptr, i64 }, ptr %agg.tmp, i32 0, i32 0
  %8 = extractvalue { ptr, i64 } %call, 0
  store ptr %8, ptr %7, align 8
  %9 = getelementptr inbounds { ptr, i64 }, ptr %agg.tmp, i32 0, i32 1
  %10 = extractvalue { ptr, i64 } %call, 1
  store i64 %10, ptr %9, align 8
  %11 = getelementptr inbounds { ptr, i64 }, ptr %agg.tmp, i32 0, i32 0
  %12 = load ptr, ptr %11, align 8
  %13 = getelementptr inbounds { ptr, i64 }, ptr %agg.tmp, i32 0, i32 1
  %14 = load i64, ptr %13, align 8
  %call1 = call { ptr, i64 } @_ZN6hermes6bigint17dropExtraSignBitsEN4llvh8ArrayRefIhEE(ptr %12, i64 %14)
  %15 = getelementptr inbounds { ptr, i64 }, ptr %compactView, i32 0, i32 0
  %16 = extractvalue { ptr, i64 } %call1, 0
  store ptr %16, ptr %15, align 8
  %17 = getelementptr inbounds { ptr, i64 }, ptr %compactView, i32 0, i32 1
  %18 = extractvalue { ptr, i64 } %call1, 1
  store i64 %18, ptr %17, align 8
  %call2 = call noundef i64 @_ZNK4llvh8ArrayRefIhE4sizeEv(ptr noundef nonnull align 8 dereferenceable(16) %compactView)
  %conv3 = trunc i64 %call2 to i32
  %call4 = call noundef i32 @_ZN6hermes6bigint23numDigitsForSizeInBytesEj(i32 noundef %conv3)
  %19 = load ptr, ptr %dst.addr, align 8
  %numDigits5 = getelementptr inbounds %"struct.hermes::bigint::MutableBigIntRef", ptr %19, i32 0, i32 1
  %20 = load ptr, ptr %numDigits5, align 8
  store i32 %call4, ptr %20, align 4
  ret void
}

; Function Attrs: mustprogress nounwind uwtable
define hidden noundef zeroext i1 @_ZN6hermes6bigint10isNegativeENS0_18ImmutableBigIntRefE(ptr %src.coerce0, i32 %src.coerce1) #0 {
entry:
  %src = alloca %"struct.hermes::bigint::ImmutableBigIntRef", align 8
  %0 = getelementptr inbounds { ptr, i32 }, ptr %src, i32 0, i32 0
  store ptr %src.coerce0, ptr %0, align 8
  %1 = getelementptr inbounds { ptr, i32 }, ptr %src, i32 0, i32 1
  store i32 %src.coerce1, ptr %1, align 8
  %numDigits = getelementptr inbounds %"struct.hermes::bigint::ImmutableBigIntRef", ptr %src, i32 0, i32 1
  %2 = load i32, ptr %numDigits, align 8
  %cmp = icmp ugt i32 %2, 0
  br i1 %cmp, label %land.rhs, label %land.end

land.rhs:                                         ; preds = %entry
  %digits = getelementptr inbounds %"struct.hermes::bigint::ImmutableBigIntRef", ptr %src, i32 0, i32 0
  %3 = load ptr, ptr %digits, align 8
  %numDigits1 = getelementptr inbounds %"struct.hermes::bigint::ImmutableBigIntRef", ptr %src, i32 0, i32 1
  %4 = load i32, ptr %numDigits1, align 8
  %sub = sub i32 %4, 1
  %idxprom = zext i32 %sub to i64
  %arrayidx = getelementptr inbounds i64, ptr %3, i64 %idxprom
  %5 = load i64, ptr %arrayidx, align 8
  %cmp2 = icmp slt i64 %5, 0
  br label %land.end

land.end:                                         ; preds = %land.rhs, %entry
  %6 = phi i1 [ false, %entry ], [ %cmp2, %land.rhs ]
  ret i1 %6
}

; Function Attrs: mustprogress nounwind uwtable
define hidden noundef i32 @_ZN6hermes6bigint20fromDoubleResultSizeEd(double noundef %src) #0 {
entry:
  %retval = alloca i32, align 4
  %src.addr = alloca double, align 8
  %srcI = alloca i64, align 8
  %exp = alloca i64, align 8
  store double %src, ptr %src.addr, align 8
  %call = call noundef i64 @_ZN4llvh8bit_castImdvvvvEET_RKT0_(ptr noundef nonnull align 8 dereferenceable(8) %src.addr) #11
  store i64 %call, ptr %srcI, align 8
  %0 = load i64, ptr %srcI, align 8
  %shr = lshr i64 %0, 52
  %and = and i64 %shr, 2047
  %sub = sub i64 %and, 1023
  store i64 %sub, ptr %exp, align 8
  %1 = load i64, ptr %exp, align 8
  %cmp = icmp slt i64 %1, 0
  br i1 %cmp, label %if.then, label %if.end

if.then:                                          ; preds = %entry
  store i32 0, ptr %retval, align 4
  br label %return

if.end:                                           ; preds = %entry
  %2 = load i64, ptr %exp, align 8
  %add = add nsw i64 %2, 2
  %conv = trunc i64 %add to i32
  %call1 = call noundef i32 @_ZN6hermes6bigint22numDigitsForSizeInBitsEj(i32 noundef %conv)
  store i32 %call1, ptr %retval, align 4
  br label %return

return:                                           ; preds = %if.end, %if.then
  %3 = load i32, ptr %retval, align 4
  ret i32 %3
}

; Function Attrs: mustprogress nounwind uwtable
define linkonce_odr hidden noundef i64 @_ZN4llvh8bit_castImdvvvvEET_RKT0_(ptr noundef nonnull align 8 dereferenceable(8) %from) #0 comdat {
entry:
  %from.addr = alloca ptr, align 8
  %to = alloca i64, align 8
  store ptr %from, ptr %from.addr, align 8
  %0 = load ptr, ptr %from.addr, align 8
  call void @llvm.memcpy.p0.p0.i64(ptr align 8 %to, ptr align 8 %0, i64 8, i1 false)
  %1 = load i64, ptr %to, align 8
  ret i64 %1
}

; Function Attrs: mustprogress nounwind uwtable
define linkonce_odr hidden noundef i32 @_ZN6hermes6bigint22numDigitsForSizeInBitsEj(i32 noundef %v) #0 comdat {
entry:
  %v.addr = alloca i32, align 4
  store i32 %v, ptr %v.addr, align 4
  %0 = load i32, ptr %v.addr, align 4
  %conv = zext i32 %0 to i64
  %call = call noundef i64 @_ZN4llvh7alignToEmmm(i64 noundef %conv, i64 noundef 64, i64 noundef 0)
  %conv1 = trunc i64 %call to i32
  %div = udiv i32 %conv1, 64
  ret i32 %div
}

; Function Attrs: mustprogress nounwind uwtable
define hidden noundef i32 @_ZN6hermes6bigint10fromDoubleENS0_16MutableBigIntRefEd(ptr %dst.coerce0, ptr %dst.coerce1, double noundef %src) #0 {
entry:
  %dst = alloca %"struct.hermes::bigint::MutableBigIntRef", align 8
  %src.addr = alloca double, align 8
  %MaxBitsToRepresentDouble = alloca i32, align 4
  %tmp = alloca %"class.llvh::APInt", align 8
  %ptr = alloca ptr, align 8
  %size = alloca i32, align 4
  %bytesRef = alloca %"class.llvh::ArrayRef", align 8
  %agg.tmp = alloca %"struct.hermes::bigint::MutableBigIntRef", align 8
  %agg.tmp5 = alloca %"class.llvh::ArrayRef", align 8
  %agg.tmp6 = alloca %"class.llvh::ArrayRef", align 8
  %0 = getelementptr inbounds { ptr, ptr }, ptr %dst, i32 0, i32 0
  store ptr %dst.coerce0, ptr %0, align 8
  %1 = getelementptr inbounds { ptr, ptr }, ptr %dst, i32 0, i32 1
  store ptr %dst.coerce1, ptr %1, align 8
  store double %src, ptr %src.addr, align 8
  %call = call noundef i64 @_ZN4llvh7alignToEmmm(i64 noundef 1025, i64 noundef 64, i64 noundef 0)
  %conv = trunc i64 %call to i32
  store i32 %conv, ptr %MaxBitsToRepresentDouble, align 4
  %2 = load double, ptr %src.addr, align 8
  %3 = load i32, ptr %MaxBitsToRepresentDouble, align 4
  call void @_ZN4llvh8APIntOps18RoundDoubleToAPIntEdj(ptr sret(%"class.llvh::APInt") align 8 %tmp, double noundef %2, i32 noundef %3)
  %call1 = call noundef ptr @_ZNK4llvh5APInt10getRawDataEv(ptr noundef nonnull align 8 dereferenceable(12) %tmp)
  store ptr %call1, ptr %ptr, align 8
  %call2 = call noundef i32 @_ZNK4llvh5APInt11getNumWordsEv(ptr noundef nonnull align 8 dereferenceable(12) %tmp)
  %mul = mul i32 %call2, 8
  store i32 %mul, ptr %size, align 4
  %4 = load ptr, ptr %ptr, align 8
  %5 = load i32, ptr %size, align 4
  %conv3 = zext i32 %5 to i64
  %call4 = call { ptr, i64 } @_ZN4llvh12makeArrayRefIhEENS_8ArrayRefIT_EEPKS2_m(ptr noundef %4, i64 noundef %conv3)
  %6 = getelementptr inbounds { ptr, i64 }, ptr %bytesRef, i32 0, i32 0
  %7 = extractvalue { ptr, i64 } %call4, 0
  store ptr %7, ptr %6, align 8
  %8 = getelementptr inbounds { ptr, i64 }, ptr %bytesRef, i32 0, i32 1
  %9 = extractvalue { ptr, i64 } %call4, 1
  store i64 %9, ptr %8, align 8
  call void @llvm.memcpy.p0.p0.i64(ptr align 8 %agg.tmp, ptr align 8 %dst, i64 16, i1 false)
  call void @llvm.memcpy.p0.p0.i64(ptr align 8 %agg.tmp6, ptr align 8 %bytesRef, i64 16, i1 false)
  %10 = getelementptr inbounds { ptr, i64 }, ptr %agg.tmp6, i32 0, i32 0
  %11 = load ptr, ptr %10, align 8
  %12 = getelementptr inbounds { ptr, i64 }, ptr %agg.tmp6, i32 0, i32 1
  %13 = load i64, ptr %12, align 8
  %call7 = call { ptr, i64 } @_ZN6hermes6bigint17dropExtraSignBitsEN4llvh8ArrayRefIhEE(ptr %11, i64 %13)
  %14 = getelementptr inbounds { ptr, i64 }, ptr %agg.tmp5, i32 0, i32 0
  %15 = extractvalue { ptr, i64 } %call7, 0
  store ptr %15, ptr %14, align 8
  %16 = getelementptr inbounds { ptr, i64 }, ptr %agg.tmp5, i32 0, i32 1
  %17 = extractvalue { ptr, i64 } %call7, 1
  store i64 %17, ptr %16, align 8
  %18 = getelementptr inbounds { ptr, ptr }, ptr %agg.tmp, i32 0, i32 0
  %19 = load ptr, ptr %18, align 8
  %20 = getelementptr inbounds { ptr, ptr }, ptr %agg.tmp, i32 0, i32 1
  %21 = load ptr, ptr %20, align 8
  %22 = getelementptr inbounds { ptr, i64 }, ptr %agg.tmp5, i32 0, i32 0
  %23 = load ptr, ptr %22, align 8
  %24 = getelementptr inbounds { ptr, i64 }, ptr %agg.tmp5, i32 0, i32 1
  %25 = load i64, ptr %24, align 8
  %call8 = call noundef i32 @_ZN6hermes6bigint13initWithBytesENS0_16MutableBigIntRefEN4llvh8ArrayRefIhEE(ptr %19, ptr %21, ptr %23, i64 %25)
  call void @_ZN4llvh5APIntD2Ev(ptr noundef nonnull align 8 dereferenceable(12) %tmp) #11
  ret i32 %call8
}

; Function Attrs: mustprogress nounwind uwtable
define linkonce_odr hidden noundef i64 @_ZN4llvh7alignToEmmm(i64 noundef %Value, i64 noundef %Align, i64 noundef %Skew) #0 comdat {
entry:
  %Value.addr = alloca i64, align 8
  %Align.addr = alloca i64, align 8
  %Skew.addr = alloca i64, align 8
  store i64 %Value, ptr %Value.addr, align 8
  store i64 %Align, ptr %Align.addr, align 8
  store i64 %Skew, ptr %Skew.addr, align 8
  %0 = load i64, ptr %Align.addr, align 8
  %1 = load i64, ptr %Skew.addr, align 8
  %rem = urem i64 %1, %0
  store i64 %rem, ptr %Skew.addr, align 8
  %2 = load i64, ptr %Value.addr, align 8
  %3 = load i64, ptr %Align.addr, align 8
  %add = add i64 %2, %3
  %sub = sub i64 %add, 1
  %4 = load i64, ptr %Skew.addr, align 8
  %sub1 = sub i64 %sub, %4
  %5 = load i64, ptr %Align.addr, align 8
  %div = udiv i64 %sub1, %5
  %6 = load i64, ptr %Align.addr, align 8
  %mul = mul i64 %div, %6
  %7 = load i64, ptr %Skew.addr, align 8
  %add2 = add i64 %mul, %7
  ret i64 %add2
}

declare void @_ZN4llvh8APIntOps18RoundDoubleToAPIntEdj(ptr sret(%"class.llvh::APInt") align 8, double noundef, i32 noundef) #3

; Function Attrs: mustprogress nounwind uwtable
define linkonce_odr hidden noundef ptr @_ZNK4llvh5APInt10getRawDataEv(ptr noundef nonnull align 8 dereferenceable(12) %this) #0 comdat align 2 {
entry:
  %retval = alloca ptr, align 8
  %this.addr = alloca ptr, align 8
  store ptr %this, ptr %this.addr, align 8
  %this1 = load ptr, ptr %this.addr, align 8
  %call = call noundef zeroext i1 @_ZNK4llvh5APInt12isSingleWordEv(ptr noundef nonnull align 8 dereferenceable(12) %this1)
  br i1 %call, label %if.then, label %if.end

if.then:                                          ; preds = %entry
  %U = getelementptr inbounds %"class.llvh::APInt", ptr %this1, i32 0, i32 0
  store ptr %U, ptr %retval, align 8
  br label %return

if.end:                                           ; preds = %entry
  %U2 = getelementptr inbounds %"class.llvh::APInt", ptr %this1, i32 0, i32 0
  %0 = load ptr, ptr %U2, align 8
  %arrayidx = getelementptr inbounds i64, ptr %0, i64 0
  store ptr %arrayidx, ptr %retval, align 8
  br label %return

return:                                           ; preds = %if.end, %if.then
  %1 = load ptr, ptr %retval, align 8
  ret ptr %1
}

; Function Attrs: mustprogress nounwind uwtable
define linkonce_odr hidden noundef i32 @_ZNK4llvh5APInt11getNumWordsEv(ptr noundef nonnull align 8 dereferenceable(12) %this) #0 comdat align 2 {
entry:
  %this.addr = alloca ptr, align 8
  store ptr %this, ptr %this.addr, align 8
  %this1 = load ptr, ptr %this.addr, align 8
  %BitWidth = getelementptr inbounds %"class.llvh::APInt", ptr %this1, i32 0, i32 1
  %0 = load i32, ptr %BitWidth, align 8
  %call = call noundef i32 @_ZN4llvh5APInt11getNumWordsEj(i32 noundef %0)
  ret i32 %call
}

; Function Attrs: mustprogress nounwind uwtable
define linkonce_odr hidden { ptr, i64 } @_ZN4llvh12makeArrayRefIhEENS_8ArrayRefIT_EEPKS2_m(ptr noundef %data, i64 noundef %length) #0 comdat {
entry:
  %retval = alloca %"class.llvh::ArrayRef", align 8
  %data.addr = alloca ptr, align 8
  %length.addr = alloca i64, align 8
  store ptr %data, ptr %data.addr, align 8
  store i64 %length, ptr %length.addr, align 8
  %0 = load ptr, ptr %data.addr, align 8
  %1 = load i64, ptr %length.addr, align 8
  call void @_ZN4llvh8ArrayRefIhEC2EPKhm(ptr noundef nonnull align 8 dereferenceable(16) %retval, ptr noundef %0, i64 noundef %1)
  %2 = load { ptr, i64 }, ptr %retval, align 8
  ret { ptr, i64 } %2
}

; Function Attrs: mustprogress nounwind uwtable
define linkonce_odr hidden void @_ZN4llvh5APIntD2Ev(ptr noundef nonnull align 8 dereferenceable(12) %this) unnamed_addr #0 comdat align 2 {
entry:
  %this.addr = alloca ptr, align 8
  store ptr %this, ptr %this.addr, align 8
  %this1 = load ptr, ptr %this.addr, align 8
  %call = call noundef zeroext i1 @_ZNK4llvh5APInt12needsCleanupEv(ptr noundef nonnull align 8 dereferenceable(12) %this1)
  br i1 %call, label %if.then, label %if.end

if.then:                                          ; preds = %entry
  %U = getelementptr inbounds %"class.llvh::APInt", ptr %this1, i32 0, i32 0
  %0 = load ptr, ptr %U, align 8
  %isnull = icmp eq ptr %0, null
  br i1 %isnull, label %delete.end, label %delete.notnull

delete.notnull:                                   ; preds = %if.then
  call void @_ZdaPv(ptr noundef %0) #12
  br label %delete.end

delete.end:                                       ; preds = %delete.notnull, %if.then
  br label %if.end

if.end:                                           ; preds = %delete.end, %entry
  ret void
}

; Function Attrs: mustprogress nounwind uwtable
define hidden noundef i32 @_ZN6hermes6bigint8toDoubleERdNS0_18ImmutableBigIntRefE(ptr noundef nonnull align 8 dereferenceable(8) %dst, ptr %src.coerce0, i32 %src.coerce1) #0 {
entry:
  %retval = alloca i32, align 4
  %src = alloca %"struct.hermes::bigint::ImmutableBigIntRef", align 8
  %dst.addr = alloca ptr, align 8
  %isSrcNegative = alloca i8, align 1
  %agg.tmp = alloca %"struct.hermes::bigint::ImmutableBigIntRef", align 8
  %tmpStorageSize = alloca i32, align 4
  %tmpStorage = alloca %"class.hermes::bigint::TmpStorage", align 8
  %tmp = alloca %"struct.hermes::bigint::MutableBigIntRef", align 8
  %0 = alloca %"class.std::tuple", align 8
  %agg.tmp6 = alloca %"struct.hermes::bigint::MutableBigIntRef", align 8
  %agg.tmp7 = alloca %"struct.hermes::bigint::ImmutableBigIntRef", align 8
  %res = alloca ptr, align 8
  %newSrc = alloca ptr, align 8
  %cleanup.dest.slot = alloca i32, align 4
  %currDigit = alloca ptr, align 8
  %clearBitsInMSD = alloca i32, align 4
  %numBits = alloca i32, align 4
  %exp = alloca i32, align 4
  %mantissaSizeInBits = alloca i32, align 4
  %numBitsSignExp = alloca i32, align 4
  %msdShift = alloca i32, align 4
  %mantissa = alloca i64, align 8
  %bottomUnsetMantissaBits = alloca i32, align 4
  %numUnusedBitsInCurrDigit = alloca i32, align 4
  %sign = alloca i64, align 8
  %exponent = alloca i64, align 8
  %number = alloca i64, align 8
  %1 = getelementptr inbounds { ptr, i32 }, ptr %src, i32 0, i32 0
  store ptr %src.coerce0, ptr %1, align 8
  %2 = getelementptr inbounds { ptr, i32 }, ptr %src, i32 0, i32 1
  store i32 %src.coerce1, ptr %2, align 8
  store ptr %dst, ptr %dst.addr, align 8
  %numDigits = getelementptr inbounds %"struct.hermes::bigint::ImmutableBigIntRef", ptr %src, i32 0, i32 1
  %3 = load i32, ptr %numDigits, align 8
  %cmp = icmp eq i32 %3, 0
  br i1 %cmp, label %if.then, label %if.end

if.then:                                          ; preds = %entry
  %4 = load ptr, ptr %dst.addr, align 8
  store double 0.000000e+00, ptr %4, align 8
  store i32 0, ptr %retval, align 4
  br label %return

if.end:                                           ; preds = %entry
  call void @llvm.memcpy.p0.p0.i64(ptr align 8 %agg.tmp, ptr align 8 %src, i64 16, i1 false)
  %5 = getelementptr inbounds { ptr, i32 }, ptr %agg.tmp, i32 0, i32 0
  %6 = load ptr, ptr %5, align 8
  %7 = getelementptr inbounds { ptr, i32 }, ptr %agg.tmp, i32 0, i32 1
  %8 = load i32, ptr %7, align 8
  %call = call noundef zeroext i1 @_ZN6hermes6bigint10isNegativeENS0_18ImmutableBigIntRefE(ptr %6, i32 %8)
  %frombool = zext i1 %call to i8
  store i8 %frombool, ptr %isSrcNegative, align 1
  %9 = load i8, ptr %isSrcNegative, align 1
  %tobool = trunc i8 %9 to i1
  br i1 %tobool, label %cond.true, label %cond.false

cond.true:                                        ; preds = %if.end
  %numDigits1 = getelementptr inbounds %"struct.hermes::bigint::ImmutableBigIntRef", ptr %src, i32 0, i32 1
  %10 = load i32, ptr %numDigits1, align 8
  br label %cond.end

cond.false:                                       ; preds = %if.end
  br label %cond.end

cond.end:                                         ; preds = %cond.false, %cond.true
  %cond = phi i32 [ %10, %cond.true ], [ 0, %cond.false ]
  store i32 %cond, ptr %tmpStorageSize, align 4
  %11 = load i32, ptr %tmpStorageSize, align 4
  call void @_ZN6hermes6bigint10TmpStorageC2Ej(ptr noundef nonnull align 8 dereferenceable(56) %tmpStorage, i32 noundef %11)
  %12 = load i8, ptr %isSrcNegative, align 1
  %tobool2 = trunc i8 %12 to i1
  br i1 %tobool2, label %if.then3, label %if.end13

if.then3:                                         ; preds = %cond.end
  %digits = getelementptr inbounds %"struct.hermes::bigint::MutableBigIntRef", ptr %tmp, i32 0, i32 0
  %13 = load i32, ptr %tmpStorageSize, align 4
  %call4 = call noundef ptr @_ZN6hermes6bigint10TmpStorage16requestNumDigitsEj(ptr noundef nonnull align 8 dereferenceable(56) %tmpStorage, i32 noundef %13)
  store ptr %call4, ptr %digits, align 8
  %numDigits5 = getelementptr inbounds %"struct.hermes::bigint::MutableBigIntRef", ptr %tmp, i32 0, i32 1
  store ptr %tmpStorageSize, ptr %numDigits5, align 8
  call void @llvm.memcpy.p0.p0.i64(ptr align 8 %agg.tmp6, ptr align 8 %tmp, i64 16, i1 false)
  call void @llvm.memcpy.p0.p0.i64(ptr align 8 %agg.tmp7, ptr align 8 %src, i64 16, i1 false)
  %14 = getelementptr inbounds { ptr, ptr }, ptr %agg.tmp6, i32 0, i32 0
  %15 = load ptr, ptr %14, align 8
  %16 = getelementptr inbounds { ptr, ptr }, ptr %agg.tmp6, i32 0, i32 1
  %17 = load ptr, ptr %16, align 8
  %18 = getelementptr inbounds { ptr, i32 }, ptr %agg.tmp7, i32 0, i32 0
  %19 = load ptr, ptr %18, align 8
  %20 = getelementptr inbounds { ptr, i32 }, ptr %agg.tmp7, i32 0, i32 1
  %21 = load i32, ptr %20, align 8
  call void @_ZN6hermes6bigint12_GLOBAL__N_113copyAndNegateENS0_16MutableBigIntRefENS0_18ImmutableBigIntRefE(ptr sret(%"class.std::tuple") align 8 %0, ptr %15, ptr %17, ptr %19, i32 %21)
  %call8 = call noundef nonnull align 4 dereferenceable(4) ptr @_ZSt3getILm0EJN6hermes6bigint15OperationStatusENS1_18ImmutableBigIntRefEEEONSt13tuple_elementIXT_ESt5tupleIJDpT0_EEE4typeEOS8_(ptr noundef nonnull align 8 dereferenceable(20) %0) #11
  store ptr %call8, ptr %res, align 8
  %call9 = call noundef nonnull align 8 dereferenceable(16) ptr @_ZSt3getILm1EJN6hermes6bigint15OperationStatusENS1_18ImmutableBigIntRefEEEONSt13tuple_elementIXT_ESt5tupleIJDpT0_EEE4typeEOS8_(ptr noundef nonnull align 8 dereferenceable(20) %0) #11
  store ptr %call9, ptr %newSrc, align 8
  %22 = load ptr, ptr %res, align 8
  %23 = load i32, ptr %22, align 4
  %cmp10 = icmp ne i32 %23, 0
  br i1 %cmp10, label %if.then11, label %if.end12

if.then11:                                        ; preds = %if.then3
  %24 = load ptr, ptr %res, align 8
  %25 = load i32, ptr %24, align 4
  store i32 %25, ptr %retval, align 4
  store i32 1, ptr %cleanup.dest.slot, align 4
  br label %cleanup

if.end12:                                         ; preds = %if.then3
  %26 = load ptr, ptr %newSrc, align 8
  call void @llvm.memcpy.p0.p0.i64(ptr align 8 %src, ptr align 8 %26, i64 16, i1 false)
  br label %if.end13

if.end13:                                         ; preds = %if.end12, %cond.end
  %digits14 = getelementptr inbounds %"struct.hermes::bigint::ImmutableBigIntRef", ptr %src, i32 0, i32 0
  %27 = load ptr, ptr %digits14, align 8
  %numDigits15 = getelementptr inbounds %"struct.hermes::bigint::ImmutableBigIntRef", ptr %src, i32 0, i32 1
  %28 = load i32, ptr %numDigits15, align 8
  %idx.ext = zext i32 %28 to i64
  %add.ptr = getelementptr inbounds i64, ptr %27, i64 %idx.ext
  %add.ptr16 = getelementptr inbounds i64, ptr %add.ptr, i64 -1
  store ptr %add.ptr16, ptr %currDigit, align 8
  %29 = load ptr, ptr %currDigit, align 8
  %30 = load i64, ptr %29, align 8
  %tobool17 = icmp ne i64 %30, 0
  br i1 %tobool17, label %if.end19, label %if.then18

if.then18:                                        ; preds = %if.end13
  %31 = load ptr, ptr %currDigit, align 8
  %incdec.ptr = getelementptr inbounds i64, ptr %31, i32 -1
  store ptr %incdec.ptr, ptr %currDigit, align 8
  br label %if.end19

if.end19:                                         ; preds = %if.then18, %if.end13
  %32 = load ptr, ptr %currDigit, align 8
  %33 = load i64, ptr %32, align 8
  %call20 = call noundef i64 @_ZN4llvh17countLeadingZerosImEEmT_NS_12ZeroBehaviorE(i64 noundef %33, i32 noundef 2)
  %conv = trunc i64 %call20 to i32
  store i32 %conv, ptr %clearBitsInMSD, align 4
  %34 = load ptr, ptr %currDigit, align 8
  %digits21 = getelementptr inbounds %"struct.hermes::bigint::ImmutableBigIntRef", ptr %src, i32 0, i32 0
  %35 = load ptr, ptr %digits21, align 8
  %sub.ptr.lhs.cast = ptrtoint ptr %34 to i64
  %sub.ptr.rhs.cast = ptrtoint ptr %35 to i64
  %sub.ptr.sub = sub i64 %sub.ptr.lhs.cast, %sub.ptr.rhs.cast
  %sub.ptr.div = sdiv exact i64 %sub.ptr.sub, 8
  %add = add nsw i64 %sub.ptr.div, 1
  %mul = mul nsw i64 %add, 64
  %36 = load i32, ptr %clearBitsInMSD, align 4
  %conv22 = zext i32 %36 to i64
  %sub = sub nsw i64 %mul, %conv22
  %conv23 = trunc i64 %sub to i32
  store i32 %conv23, ptr %numBits, align 4
  %37 = load i32, ptr %numBits, align 4
  %sub24 = sub i32 %37, 1
  store i32 %sub24, ptr %exp, align 4
  %38 = load i32, ptr %exp, align 4
  %cmp25 = icmp ugt i32 %38, 1023
  br i1 %cmp25, label %if.then26, label %if.end31

if.then26:                                        ; preds = %if.end19
  %39 = load i8, ptr %isSrcNegative, align 1
  %tobool27 = trunc i8 %39 to i1
  %call28 = call noundef double @_ZNSt14numeric_limitsIdE8infinityEv() #11
  %fneg = fneg double %call28
  %call29 = call noundef double @_ZNSt14numeric_limitsIdE8infinityEv() #11
  %cond30 = select i1 %tobool27, double %fneg, double %call29
  %40 = load ptr, ptr %dst.addr, align 8
  store double %cond30, ptr %40, align 8
  store i32 0, ptr %retval, align 4
  store i32 1, ptr %cleanup.dest.slot, align 4
  br label %cleanup

if.end31:                                         ; preds = %if.end19
  store i32 52, ptr %mantissaSizeInBits, align 4
  store i32 12, ptr %numBitsSignExp, align 4
  %41 = load i32, ptr %clearBitsInMSD, align 4
  %add32 = add i32 %41, 1
  store i32 %add32, ptr %msdShift, align 4
  %42 = load i32, ptr %msdShift, align 4
  %cmp33 = icmp eq i32 %42, 64
  br i1 %cmp33, label %cond.true34, label %cond.false35

cond.true34:                                      ; preds = %if.end31
  br label %cond.end36

cond.false35:                                     ; preds = %if.end31
  %43 = load ptr, ptr %currDigit, align 8
  %44 = load i64, ptr %43, align 8
  %45 = load i32, ptr %msdShift, align 4
  %sh_prom = zext i32 %45 to i64
  %shl = shl i64 %44, %sh_prom
  br label %cond.end36

cond.end36:                                       ; preds = %cond.false35, %cond.true34
  %cond37 = phi i64 [ 0, %cond.true34 ], [ %shl, %cond.false35 ]
  store i64 %cond37, ptr %mantissa, align 8
  %46 = load i64, ptr %mantissa, align 8
  %shr = lshr i64 %46, 12
  store i64 %shr, ptr %mantissa, align 8
  %47 = load i32, ptr %msdShift, align 4
  %cmp38 = icmp ult i32 %47, 12
  br i1 %cmp38, label %cond.true39, label %cond.false40

cond.true39:                                      ; preds = %cond.end36
  br label %cond.end42

cond.false40:                                     ; preds = %cond.end36
  %48 = load i32, ptr %msdShift, align 4
  %sub41 = sub i32 %48, 12
  br label %cond.end42

cond.end42:                                       ; preds = %cond.false40, %cond.true39
  %cond43 = phi i32 [ 0, %cond.true39 ], [ %sub41, %cond.false40 ]
  store i32 %cond43, ptr %bottomUnsetMantissaBits, align 4
  %49 = load i32, ptr %msdShift, align 4
  %cmp44 = icmp ult i32 12, %49
  br i1 %cmp44, label %cond.true45, label %cond.false46

cond.true45:                                      ; preds = %cond.end42
  br label %cond.end48

cond.false46:                                     ; preds = %cond.end42
  %50 = load i32, ptr %msdShift, align 4
  %sub47 = sub i32 12, %50
  br label %cond.end48

cond.end48:                                       ; preds = %cond.false46, %cond.true45
  %cond49 = phi i32 [ 0, %cond.true45 ], [ %sub47, %cond.false46 ]
  store i32 %cond49, ptr %numUnusedBitsInCurrDigit, align 4
  %51 = load i32, ptr %bottomUnsetMantissaBits, align 4
  %cmp50 = icmp ne i32 %51, 0
  br i1 %cmp50, label %land.lhs.true, label %if.end59

land.lhs.true:                                    ; preds = %cond.end48
  %52 = load ptr, ptr %currDigit, align 8
  %digits51 = getelementptr inbounds %"struct.hermes::bigint::ImmutableBigIntRef", ptr %src, i32 0, i32 0
  %53 = load ptr, ptr %digits51, align 8
  %cmp52 = icmp ugt ptr %52, %53
  br i1 %cmp52, label %if.then53, label %if.end59

if.then53:                                        ; preds = %land.lhs.true
  %54 = load ptr, ptr %currDigit, align 8
  %incdec.ptr54 = getelementptr inbounds i64, ptr %54, i32 -1
  store ptr %incdec.ptr54, ptr %currDigit, align 8
  %55 = load ptr, ptr %currDigit, align 8
  %56 = load i64, ptr %55, align 8
  %57 = load i32, ptr %bottomUnsetMantissaBits, align 4
  %sub55 = sub i32 64, %57
  %sh_prom56 = zext i32 %sub55 to i64
  %shr57 = lshr i64 %56, %sh_prom56
  %58 = load i64, ptr %mantissa, align 8
  %or = or i64 %58, %shr57
  store i64 %or, ptr %mantissa, align 8
  %59 = load i32, ptr %bottomUnsetMantissaBits, align 4
  %sub58 = sub i32 64, %59
  store i32 %sub58, ptr %numUnusedBitsInCurrDigit, align 4
  store i32 0, ptr %bottomUnsetMantissaBits, align 4
  br label %if.end59

if.end59:                                         ; preds = %if.then53, %land.lhs.true, %cond.end48
  %60 = load i64, ptr %mantissa, align 8
  %digits60 = getelementptr inbounds %"struct.hermes::bigint::ImmutableBigIntRef", ptr %src, i32 0, i32 0
  %61 = load ptr, ptr %digits60, align 8
  %62 = load ptr, ptr %currDigit, align 8
  %63 = load i32, ptr %bottomUnsetMantissaBits, align 4
  %64 = load i32, ptr %numUnusedBitsInCurrDigit, align 4
  %call61 = call noundef zeroext i1 @_ZN6hermes6bigint12_GLOBAL__N_115roundMantissaUpEmPKmS3_jj(i64 noundef %60, ptr noundef %61, ptr noundef %62, i32 noundef %63, i32 noundef %64)
  br i1 %call61, label %if.then62, label %if.end75

if.then62:                                        ; preds = %if.end59
  %65 = load i64, ptr %mantissa, align 8
  %inc = add i64 %65, 1
  store i64 %inc, ptr %mantissa, align 8
  %cmp63 = icmp eq i64 %inc, 4503599627370496
  br i1 %cmp63, label %if.then64, label %if.end74

if.then64:                                        ; preds = %if.then62
  store i64 0, ptr %mantissa, align 8
  %66 = load i32, ptr %exp, align 4
  %inc65 = add i32 %66, 1
  store i32 %inc65, ptr %exp, align 4
  %cmp66 = icmp ugt i32 %inc65, 1023
  br i1 %cmp66, label %if.then67, label %if.end73

if.then67:                                        ; preds = %if.then64
  %67 = load i8, ptr %isSrcNegative, align 1
  %tobool68 = trunc i8 %67 to i1
  %call69 = call noundef double @_ZNSt14numeric_limitsIdE8infinityEv() #11
  %fneg70 = fneg double %call69
  %call71 = call noundef double @_ZNSt14numeric_limitsIdE8infinityEv() #11
  %cond72 = select i1 %tobool68, double %fneg70, double %call71
  %68 = load ptr, ptr %dst.addr, align 8
  store double %cond72, ptr %68, align 8
  store i32 0, ptr %retval, align 4
  store i32 1, ptr %cleanup.dest.slot, align 4
  br label %cleanup

if.end73:                                         ; preds = %if.then64
  br label %if.end74

if.end74:                                         ; preds = %if.end73, %if.then62
  br label %if.end75

if.end75:                                         ; preds = %if.end74, %if.end59
  %69 = load i8, ptr %isSrcNegative, align 1
  %tobool76 = trunc i8 %69 to i1
  %cond77 = select i1 %tobool76, i64 -9223372036854775808, i64 0
  store i64 %cond77, ptr %sign, align 8
  %70 = load i32, ptr %exp, align 4
  %conv78 = zext i32 %70 to i64
  %add79 = add i64 %conv78, 1023
  %shl80 = shl i64 %add79, 52
  store i64 %shl80, ptr %exponent, align 8
  %71 = load i64, ptr %sign, align 8
  %72 = load i64, ptr %exponent, align 8
  %or81 = or i64 %71, %72
  %73 = load i64, ptr %mantissa, align 8
  %or82 = or i64 %or81, %73
  store i64 %or82, ptr %number, align 8
  %call83 = call noundef double @_ZN4llvh8bit_castIdmvvvvEET_RKT0_(ptr noundef nonnull align 8 dereferenceable(8) %number) #11
  %74 = load ptr, ptr %dst.addr, align 8
  store double %call83, ptr %74, align 8
  store i32 0, ptr %retval, align 4
  store i32 1, ptr %cleanup.dest.slot, align 4
  br label %cleanup

cleanup:                                          ; preds = %if.end75, %if.then67, %if.then26, %if.then11
  call void @_ZN6hermes6bigint10TmpStorageD2Ev(ptr noundef nonnull align 8 dereferenceable(56) %tmpStorage) #11
  br label %return

return:                                           ; preds = %cleanup, %if.then
  %75 = load i32, ptr %retval, align 4
  ret i32 %75
}

; Function Attrs: mustprogress nounwind uwtable
define linkonce_odr hidden void @_ZN6hermes6bigint10TmpStorageC2Ej(ptr noundef nonnull align 8 dereferenceable(56) %this, i32 noundef %sizeInDigits) unnamed_addr #0 comdat align 2 {
entry:
  %this.addr.i = alloca ptr, align 8
  %this.addr = alloca ptr, align 8
  %sizeInDigits.addr = alloca i32, align 4
  %ref.tmp = alloca i64, align 8
  store ptr %this, ptr %this.addr, align 8
  store i32 %sizeInDigits, ptr %sizeInDigits.addr, align 4
  %this1 = load ptr, ptr %this.addr, align 8
  %storage_ = getelementptr inbounds %"class.hermes::bigint::TmpStorage", ptr %this1, i32 0, i32 0
  %0 = load i32, ptr %sizeInDigits.addr, align 4
  %conv = zext i32 %0 to i64
  store i64 0, ptr %ref.tmp, align 8
  call void @_ZN4llvh11SmallVectorImLj4EEC2EmRKm(ptr noundef nonnull align 8 dereferenceable(48) %storage_, i64 noundef %conv, ptr noundef nonnull align 8 dereferenceable(8) %ref.tmp)
  %data_ = getelementptr inbounds %"class.hermes::bigint::TmpStorage", ptr %this1, i32 0, i32 1
  %storage_2 = getelementptr inbounds %"class.hermes::bigint::TmpStorage", ptr %this1, i32 0, i32 0
  store ptr %storage_2, ptr %this.addr.i, align 8
  %this1.i = load ptr, ptr %this.addr.i, align 8
  %1 = load ptr, ptr %this1.i, align 8
  store ptr %1, ptr %data_, align 8
  ret void
}

; Function Attrs: mustprogress nounwind uwtable
define linkonce_odr hidden noundef ptr @_ZN6hermes6bigint10TmpStorage16requestNumDigitsEj(ptr noundef nonnull align 8 dereferenceable(56) %this, i32 noundef %size) #0 comdat align 2 {
entry:
  %this.addr = alloca ptr, align 8
  %size.addr = alloca i32, align 4
  %ret = alloca ptr, align 8
  store ptr %this, ptr %this.addr, align 8
  store i32 %size, ptr %size.addr, align 4
  %this1 = load ptr, ptr %this.addr, align 8
  %data_ = getelementptr inbounds %"class.hermes::bigint::TmpStorage", ptr %this1, i32 0, i32 1
  %0 = load ptr, ptr %data_, align 8
  store ptr %0, ptr %ret, align 8
  %1 = load i32, ptr %size.addr, align 4
  %data_2 = getelementptr inbounds %"class.hermes::bigint::TmpStorage", ptr %this1, i32 0, i32 1
  %2 = load ptr, ptr %data_2, align 8
  %idx.ext = zext i32 %1 to i64
  %add.ptr = getelementptr inbounds i64, ptr %2, i64 %idx.ext
  store ptr %add.ptr, ptr %data_2, align 8
  %3 = load ptr, ptr %ret, align 8
  ret ptr %3
}

; Function Attrs: mustprogress nounwind uwtable
define internal void @_ZN6hermes6bigint12_GLOBAL__N_113copyAndNegateENS0_16MutableBigIntRefENS0_18ImmutableBigIntRefE(ptr noalias sret(%"class.std::tuple") align 8 %agg.result, ptr %dst.coerce0, ptr %dst.coerce1, ptr %src.coerce0, i32 %src.coerce1) #0 {
entry:
  %result.ptr = alloca ptr, align 8
  %dst = alloca %"struct.hermes::bigint::MutableBigIntRef", align 8
  %src = alloca %"struct.hermes::bigint::ImmutableBigIntRef", align 8
  %res = alloca i32, align 4
  %ref.tmp = alloca %"struct.hermes::bigint::ImmutableBigIntRef", align 8
  %ref.tmp3 = alloca i32, align 4
  %ref.tmp4 = alloca %"struct.hermes::bigint::ImmutableBigIntRef", align 8
  store ptr %agg.result, ptr %result.ptr, align 8
  %0 = getelementptr inbounds { ptr, ptr }, ptr %dst, i32 0, i32 0
  store ptr %dst.coerce0, ptr %0, align 8
  %1 = getelementptr inbounds { ptr, ptr }, ptr %dst, i32 0, i32 1
  store ptr %dst.coerce1, ptr %1, align 8
  %2 = getelementptr inbounds { ptr, i32 }, ptr %src, i32 0, i32 0
  store ptr %src.coerce0, ptr %2, align 8
  %3 = getelementptr inbounds { ptr, i32 }, ptr %src, i32 0, i32 1
  store i32 %src.coerce1, ptr %3, align 8
  %call = call noundef i32 @_ZN6hermes6bigint12_GLOBAL__N_134initNonCanonicalWithReadOnlyBigIntERNS0_16MutableBigIntRefERKNS0_18ImmutableBigIntRefE(ptr noundef nonnull align 8 dereferenceable(16) %dst, ptr noundef nonnull align 8 dereferenceable(16) %src)
  store i32 %call, ptr %res, align 4
  %4 = load i32, ptr %res, align 4
  %cmp = icmp ne i32 %4, 0
  br i1 %cmp, label %if.then, label %if.end

if.then:                                          ; preds = %entry
  %digits = getelementptr inbounds %"struct.hermes::bigint::ImmutableBigIntRef", ptr %ref.tmp, i32 0, i32 0
  store ptr null, ptr %digits, align 8
  %numDigits = getelementptr inbounds %"struct.hermes::bigint::ImmutableBigIntRef", ptr %ref.tmp, i32 0, i32 1
  store i32 0, ptr %numDigits, align 8
  call void @_ZSt10make_tupleIJRN6hermes6bigint15OperationStatusENS1_18ImmutableBigIntRefEEESt5tupleIJDpNSt25__strip_reference_wrapperINSt5decayIT_E4typeEE6__typeEEEDpOS8_(ptr sret(%"class.std::tuple") align 8 %agg.result, ptr noundef nonnull align 4 dereferenceable(4) %res, ptr noundef nonnull align 8 dereferenceable(16) %ref.tmp)
  br label %return

if.end:                                           ; preds = %entry
  %digits1 = getelementptr inbounds %"struct.hermes::bigint::MutableBigIntRef", ptr %dst, i32 0, i32 0
  %5 = load ptr, ptr %digits1, align 8
  %numDigits2 = getelementptr inbounds %"struct.hermes::bigint::MutableBigIntRef", ptr %dst, i32 0, i32 1
  %6 = load ptr, ptr %numDigits2, align 8
  %7 = load i32, ptr %6, align 4
  call void @_ZN4llvh5APInt8tcNegateEPmj(ptr noundef %5, i32 noundef %7)
  call void @_ZN6hermes6bigint12_GLOBAL__N_121ensureCanonicalResultERNS0_16MutableBigIntRefE(ptr noundef nonnull align 8 dereferenceable(16) %dst)
  store i32 0, ptr %ref.tmp3, align 4
  %digits5 = getelementptr inbounds %"struct.hermes::bigint::ImmutableBigIntRef", ptr %ref.tmp4, i32 0, i32 0
  %digits6 = getelementptr inbounds %"struct.hermes::bigint::MutableBigIntRef", ptr %dst, i32 0, i32 0
  %8 = load ptr, ptr %digits6, align 8
  store ptr %8, ptr %digits5, align 8
  %numDigits7 = getelementptr inbounds %"struct.hermes::bigint::ImmutableBigIntRef", ptr %ref.tmp4, i32 0, i32 1
  %numDigits8 = getelementptr inbounds %"struct.hermes::bigint::MutableBigIntRef", ptr %dst, i32 0, i32 1
  %9 = load ptr, ptr %numDigits8, align 8
  %10 = load i32, ptr %9, align 4
  store i32 %10, ptr %numDigits7, align 8
  call void @_ZSt10make_tupleIJN6hermes6bigint15OperationStatusENS1_18ImmutableBigIntRefEEESt5tupleIJDpNSt25__strip_reference_wrapperINSt5decayIT_E4typeEE6__typeEEEDpOS7_(ptr sret(%"class.std::tuple") align 8 %agg.result, ptr noundef nonnull align 4 dereferenceable(4) %ref.tmp3, ptr noundef nonnull align 8 dereferenceable(16) %ref.tmp4)
  br label %return

return:                                           ; preds = %if.end, %if.then
  ret void
}

; Function Attrs: mustprogress nounwind uwtable
define linkonce_odr hidden noundef nonnull align 4 dereferenceable(4) ptr @_ZSt3getILm0EJN6hermes6bigint15OperationStatusENS1_18ImmutableBigIntRefEEEONSt13tuple_elementIXT_ESt5tupleIJDpT0_EEE4typeEOS8_(ptr noundef nonnull align 8 dereferenceable(20) %__t) #0 comdat {
entry:
  %__t.addr = alloca ptr, align 8
  store ptr %__t, ptr %__t.addr, align 8
  %0 = load ptr, ptr %__t.addr, align 8
  %call = call noundef nonnull align 4 dereferenceable(4) ptr @_ZSt12__get_helperILm0EN6hermes6bigint15OperationStatusEJNS1_18ImmutableBigIntRefEEERT0_RSt11_Tuple_implIXT_EJS4_DpT1_EE(ptr noundef nonnull align 8 dereferenceable(20) %0) #11
  ret ptr %call
}

; Function Attrs: mustprogress nounwind uwtable
define linkonce_odr hidden noundef nonnull align 8 dereferenceable(16) ptr @_ZSt3getILm1EJN6hermes6bigint15OperationStatusENS1_18ImmutableBigIntRefEEEONSt13tuple_elementIXT_ESt5tupleIJDpT0_EEE4typeEOS8_(ptr noundef nonnull align 8 dereferenceable(20) %__t) #0 comdat {
entry:
  %__t.addr = alloca ptr, align 8
  store ptr %__t, ptr %__t.addr, align 8
  %0 = load ptr, ptr %__t.addr, align 8
  %call = call noundef nonnull align 8 dereferenceable(16) ptr @_ZSt12__get_helperILm1EN6hermes6bigint18ImmutableBigIntRefEJEERT0_RSt11_Tuple_implIXT_EJS3_DpT1_EE(ptr noundef nonnull align 8 dereferenceable(16) %0) #11
  ret ptr %call
}

; Function Attrs: mustprogress nounwind uwtable
define linkonce_odr hidden noundef i64 @_ZN4llvh17countLeadingZerosImEEmT_NS_12ZeroBehaviorE(i64 noundef %Val, i32 noundef %ZB) #0 comdat {
entry:
  %Val.addr = alloca i64, align 8
  %ZB.addr = alloca i32, align 4
  store i64 %Val, ptr %Val.addr, align 8
  store i32 %ZB, ptr %ZB.addr, align 4
  %0 = load i64, ptr %Val.addr, align 8
  %1 = load i32, ptr %ZB.addr, align 4
  %call = call noundef i64 @_ZN4llvh6detail19LeadingZerosCounterImLm8EE5countEmNS_12ZeroBehaviorE(i64 noundef %0, i32 noundef %1)
  ret i64 %call
}

; Function Attrs: mustprogress nounwind uwtable
define linkonce_odr noundef double @_ZNSt14numeric_limitsIdE8infinityEv() #0 comdat align 2 {
entry:
  ret double 0x7FF0000000000000
}

; Function Attrs: mustprogress nounwind uwtable
define internal noundef zeroext i1 @_ZN6hermes6bigint12_GLOBAL__N_115roundMantissaUpEmPKmS3_jj(i64 noundef %mantissa, ptr noundef %firstDigit, ptr noundef %currDigit, i32 noundef %bottomUnsetMantissaBits, i32 noundef %numUnusedBitsInCurrDigit) #0 {
entry:
  %retval = alloca i1, align 1
  %mantissa.addr = alloca i64, align 8
  %firstDigit.addr = alloca ptr, align 8
  %currDigit.addr = alloca ptr, align 8
  %bottomUnsetMantissaBits.addr = alloca i32, align 4
  %numUnusedBitsInCurrDigit.addr = alloca i32, align 4
  %mostSignificantUnusedBit = alloca i64, align 8
  store i64 %mantissa, ptr %mantissa.addr, align 8
  store ptr %firstDigit, ptr %firstDigit.addr, align 8
  store ptr %currDigit, ptr %currDigit.addr, align 8
  store i32 %bottomUnsetMantissaBits, ptr %bottomUnsetMantissaBits.addr, align 4
  store i32 %numUnusedBitsInCurrDigit, ptr %numUnusedBitsInCurrDigit.addr, align 4
  %0 = load i32, ptr %bottomUnsetMantissaBits.addr, align 4
  %cmp = icmp ne i32 %0, 0
  br i1 %cmp, label %if.then, label %if.end

if.then:                                          ; preds = %entry
  store i1 false, ptr %retval, align 1
  br label %return

if.end:                                           ; preds = %entry
  %1 = load i32, ptr %numUnusedBitsInCurrDigit.addr, align 4
  %cmp1 = icmp eq i32 %1, 0
  br i1 %cmp1, label %if.then2, label %if.end6

if.then2:                                         ; preds = %if.end
  %2 = load ptr, ptr %firstDigit.addr, align 8
  %3 = load ptr, ptr %currDigit.addr, align 8
  %cmp3 = icmp eq ptr %2, %3
  br i1 %cmp3, label %if.then4, label %if.end5

if.then4:                                         ; preds = %if.then2
  store i1 false, ptr %retval, align 1
  br label %return

if.end5:                                          ; preds = %if.then2
  %4 = load ptr, ptr %currDigit.addr, align 8
  %incdec.ptr = getelementptr inbounds i64, ptr %4, i32 -1
  store ptr %incdec.ptr, ptr %currDigit.addr, align 8
  store i32 64, ptr %numUnusedBitsInCurrDigit.addr, align 4
  br label %if.end6

if.end6:                                          ; preds = %if.end5, %if.end
  %5 = load i32, ptr %numUnusedBitsInCurrDigit.addr, align 4
  %sub = sub i32 %5, 1
  %sh_prom = zext i32 %sub to i64
  %shl = shl i64 1, %sh_prom
  store i64 %shl, ptr %mostSignificantUnusedBit, align 8
  %6 = load ptr, ptr %currDigit.addr, align 8
  %7 = load i64, ptr %6, align 8
  %8 = load i64, ptr %mostSignificantUnusedBit, align 8
  %and = and i64 %7, %8
  %tobool = icmp ne i64 %and, 0
  br i1 %tobool, label %if.end8, label %if.then7

if.then7:                                         ; preds = %if.end6
  store i1 false, ptr %retval, align 1
  br label %return

if.end8:                                          ; preds = %if.end6
  %9 = load ptr, ptr %currDigit.addr, align 8
  %10 = load i64, ptr %9, align 8
  %11 = load i64, ptr %mostSignificantUnusedBit, align 8
  %sub9 = sub i64 %11, 1
  %and10 = and i64 %10, %sub9
  %tobool11 = icmp ne i64 %and10, 0
  br i1 %tobool11, label %if.then12, label %if.end13

if.then12:                                        ; preds = %if.end8
  store i1 true, ptr %retval, align 1
  br label %return

if.end13:                                         ; preds = %if.end8
  br label %while.cond

while.cond:                                       ; preds = %if.end18, %if.end13
  %12 = load ptr, ptr %currDigit.addr, align 8
  %13 = load ptr, ptr %firstDigit.addr, align 8
  %cmp14 = icmp ugt ptr %12, %13
  br i1 %cmp14, label %while.body, label %while.end

while.body:                                       ; preds = %while.cond
  %14 = load ptr, ptr %currDigit.addr, align 8
  %incdec.ptr15 = getelementptr inbounds i64, ptr %14, i32 -1
  store ptr %incdec.ptr15, ptr %currDigit.addr, align 8
  %15 = load i64, ptr %incdec.ptr15, align 8
  %tobool16 = icmp ne i64 %15, 0
  br i1 %tobool16, label %if.then17, label %if.end18

if.then17:                                        ; preds = %while.body
  store i1 true, ptr %retval, align 1
  br label %return

if.end18:                                         ; preds = %while.body
  br label %while.cond, !llvm.loop !6

while.end:                                        ; preds = %while.cond
  %16 = load i64, ptr %mantissa.addr, align 8
  %and19 = and i64 %16, 1
  %tobool20 = icmp ne i64 %and19, 0
  store i1 %tobool20, ptr %retval, align 1
  br label %return

return:                                           ; preds = %while.end, %if.then17, %if.then12, %if.then7, %if.then4, %if.then
  %17 = load i1, ptr %retval, align 1
  ret i1 %17
}

; Function Attrs: mustprogress nounwind uwtable
define linkonce_odr hidden noundef double @_ZN4llvh8bit_castIdmvvvvEET_RKT0_(ptr noundef nonnull align 8 dereferenceable(8) %from) #0 comdat {
entry:
  %from.addr = alloca ptr, align 8
  %to = alloca double, align 8
  store ptr %from, ptr %from.addr, align 8
  %0 = load ptr, ptr %from.addr, align 8
  call void @llvm.memcpy.p0.p0.i64(ptr align 8 %to, ptr align 8 %0, i64 8, i1 false)
  %1 = load double, ptr %to, align 8
  ret double %1
}

; Function Attrs: mustprogress nounwind uwtable
define linkonce_odr hidden void @_ZN6hermes6bigint10TmpStorageD2Ev(ptr noundef nonnull align 8 dereferenceable(56) %this) unnamed_addr #0 comdat align 2 {
entry:
  %this.addr = alloca ptr, align 8
  store ptr %this, ptr %this.addr, align 8
  %this1 = load ptr, ptr %this.addr, align 8
  %storage_ = getelementptr inbounds %"class.hermes::bigint::TmpStorage", ptr %this1, i32 0, i32 0
  call void @_ZN4llvh11SmallVectorImLj4EED2Ev(ptr noundef nonnull align 8 dereferenceable(48) %storage_) #11
  ret void
}

; Function Attrs: mustprogress nounwind uwtable
define hidden void @_ZN6hermes6bigint36getStringIntegerLiteralDigitsAndSignEN4llvh8ArrayRefIcEERhRNS0_10ParsedSignEPNSt7__cxx1112basic_stringIcSt11char_traitsIcESaIcEEE(ptr noalias sret(%"class.std::optional") align 8 %agg.result, ptr %src.coerce0, i64 %src.coerce1, ptr noundef nonnull align 1 dereferenceable(1) %radix, ptr noundef nonnull align 4 dereferenceable(4) %sign, ptr noundef %outError) #0 {
entry:
  %result.ptr = alloca ptr, align 8
  %src = alloca %"class.llvh::ArrayRef.2", align 8
  %radix.addr = alloca ptr, align 8
  %sign.addr = alloca ptr, align 8
  %outError.addr = alloca ptr, align 8
  %agg.tmp = alloca %"class.llvh::ArrayRef.2", align 8
  store ptr %agg.result, ptr %result.ptr, align 8
  %0 = getelementptr inbounds { ptr, i64 }, ptr %src, i32 0, i32 0
  store ptr %src.coerce0, ptr %0, align 8
  %1 = getelementptr inbounds { ptr, i64 }, ptr %src, i32 0, i32 1
  store i64 %src.coerce1, ptr %1, align 8
  store ptr %radix, ptr %radix.addr, align 8
  store ptr %sign, ptr %sign.addr, align 8
  store ptr %outError, ptr %outError.addr, align 8
  call void @llvm.memcpy.p0.p0.i64(ptr align 8 %agg.tmp, ptr align 8 %src, i64 16, i1 false)
  %2 = load ptr, ptr %radix.addr, align 8
  %3 = load ptr, ptr %sign.addr, align 8
  %4 = load ptr, ptr %outError.addr, align 8
  %5 = getelementptr inbounds { ptr, i64 }, ptr %agg.tmp, i32 0, i32 0
  %6 = load ptr, ptr %5, align 8
  %7 = getelementptr inbounds { ptr, i64 }, ptr %agg.tmp, i32 0, i32 1
  %8 = load i64, ptr %7, align 8
  call void @_ZN6hermes6bigint12_GLOBAL__N_113getDigitsWithINS1_26StringIntegerLiteralParserIN4llvh8ArrayRefIcEEEES6_EESt8optionalINSt7__cxx1112basic_stringIcSt11char_traitsIcESaIcEEEET0_RhRNS0_10ParsedSignEPSE_(ptr sret(%"class.std::optional") align 8 %agg.result, ptr %6, i64 %8, ptr noundef nonnull align 1 dereferenceable(1) %2, ptr noundef nonnull align 4 dereferenceable(4) %3, ptr noundef %4)
  ret void
}

; Function Attrs: mustprogress nounwind uwtable
define internal void @_ZN6hermes6bigint12_GLOBAL__N_113getDigitsWithINS1_26StringIntegerLiteralParserIN4llvh8ArrayRefIcEEEES6_EESt8optionalINSt7__cxx1112basic_stringIcSt11char_traitsIcESaIcEEEET0_RhRNS0_10ParsedSignEPSE_(ptr noalias sret(%"class.std::optional") align 8 %agg.result, ptr %src.coerce0, i64 %src.coerce1, ptr noundef nonnull align 1 dereferenceable(1) %radix, ptr noundef nonnull align 4 dereferenceable(4) %sign, ptr noundef %outError) #0 {
entry:
  %result.ptr = alloca ptr, align 8
  %src = alloca %"class.llvh::ArrayRef.2", align 8
  %radix.addr = alloca ptr, align 8
  %sign.addr = alloca ptr, align 8
  %outError.addr = alloca ptr, align 8
  %bigintDigits = alloca %"class.std::__cxx11::basic_string", align 8
  %nrvo = alloca i1, align 1
  %ref.tmp = alloca %"class.hermes::bigint::(anonymous namespace)::StringIntegerLiteralParser", align 8
  %agg.tmp = alloca %"class.llvh::ArrayRef.2", align 8
  store ptr %agg.result, ptr %result.ptr, align 8
  %0 = getelementptr inbounds { ptr, i64 }, ptr %src, i32 0, i32 0
  store ptr %src.coerce0, ptr %0, align 8
  %1 = getelementptr inbounds { ptr, i64 }, ptr %src, i32 0, i32 1
  store i64 %src.coerce1, ptr %1, align 8
  store ptr %radix, ptr %radix.addr, align 8
  store ptr %sign, ptr %sign.addr, align 8
  store ptr %outError, ptr %outError.addr, align 8
  call void @_ZNSt7__cxx1112basic_stringIcSt11char_traitsIcESaIcEEC1Ev(ptr noundef nonnull align 8 dereferenceable(32) %bigintDigits) #11
  store i1 false, ptr %nrvo, align 1
  call void @_ZNSt8optionalINSt7__cxx1112basic_stringIcSt11char_traitsIcESaIcEEEEC2Ev(ptr noundef nonnull align 8 dereferenceable(40) %agg.result) #11
  call void @llvm.memcpy.p0.p0.i64(ptr align 8 %agg.tmp, ptr align 8 %src, i64 16, i1 false)
  %2 = load ptr, ptr %radix.addr, align 8
  %3 = load ptr, ptr %sign.addr, align 8
  %4 = load ptr, ptr %outError.addr, align 8
  %5 = getelementptr inbounds { ptr, i64 }, ptr %agg.tmp, i32 0, i32 0
  %6 = load ptr, ptr %5, align 8
  %7 = getelementptr inbounds { ptr, i64 }, ptr %agg.tmp, i32 0, i32 1
  %8 = load i64, ptr %7, align 8
  call void @_ZN6hermes6bigint12_GLOBAL__N_126StringIntegerLiteralParserIN4llvh8ArrayRefIcEEEC2ES5_RhRNSt7__cxx1112basic_stringIcSt11char_traitsIcESaIcEEERNS0_10ParsedSignEPSD_(ptr noundef nonnull align 8 dereferenceable(48) %ref.tmp, ptr %6, i64 %8, ptr noundef nonnull align 1 dereferenceable(1) %2, ptr noundef nonnull align 8 dereferenceable(32) %bigintDigits, ptr noundef nonnull align 4 dereferenceable(4) %3, ptr noundef %4)
  %call = call noundef zeroext i1 @_ZNO6hermes6bigint12_GLOBAL__N_126StringIntegerLiteralParserIN4llvh8ArrayRefIcEEE4goalEv(ptr noundef nonnull align 8 dereferenceable(48) %ref.tmp)
  br i1 %call, label %if.then, label %if.end

if.then:                                          ; preds = %entry
  %call1 = call noundef nonnull align 8 dereferenceable(40) ptr @_ZNSt8optionalINSt7__cxx1112basic_stringIcSt11char_traitsIcESaIcEEEEaSIS5_EENSt9enable_ifIX7__and_vISt6__not_ISt7is_sameIS6_NSt9remove_cvINSt16remove_referenceIT_E4typeEE4typeEEES9_ISt6__and_IJSt9is_scalarIS5_ESA_IS5_NSt5decayISD_E4typeEEEEESt16is_constructibleIS5_JSD_EESt13is_assignableIRS5_SD_EEERS6_E4typeEOSD_(ptr noundef nonnull align 8 dereferenceable(40) %agg.result, ptr noundef nonnull align 8 dereferenceable(32) %bigintDigits) #11
  br label %if.end

if.end:                                           ; preds = %if.then, %entry
  store i1 true, ptr %nrvo, align 1
  %nrvo.val = load i1, ptr %nrvo, align 1
  br i1 %nrvo.val, label %nrvo.skipdtor, label %nrvo.unused

nrvo.unused:                                      ; preds = %if.end
  call void @_ZNSt8optionalINSt7__cxx1112basic_stringIcSt11char_traitsIcESaIcEEEED2Ev(ptr noundef nonnull align 8 dereferenceable(40) %agg.result) #11
  br label %nrvo.skipdtor

nrvo.skipdtor:                                    ; preds = %nrvo.unused, %if.end
  call void @_ZNSt7__cxx1112basic_stringIcSt11char_traitsIcESaIcEED1Ev(ptr noundef nonnull align 8 dereferenceable(32) %bigintDigits) #11
  ret void
}

; Function Attrs: mustprogress nounwind uwtable
define hidden void @_ZN6hermes6bigint36getStringIntegerLiteralDigitsAndSignEN4llvh8ArrayRefIDsEERhRNS0_10ParsedSignEPNSt7__cxx1112basic_stringIcSt11char_traitsIcESaIcEEE(ptr noalias sret(%"class.std::optional") align 8 %agg.result, ptr %src.coerce0, i64 %src.coerce1, ptr noundef nonnull align 1 dereferenceable(1) %radix, ptr noundef nonnull align 4 dereferenceable(4) %sign, ptr noundef %outError) #0 {
entry:
  %result.ptr = alloca ptr, align 8
  %src = alloca %"class.llvh::ArrayRef.6", align 8
  %radix.addr = alloca ptr, align 8
  %sign.addr = alloca ptr, align 8
  %outError.addr = alloca ptr, align 8
  %agg.tmp = alloca %"class.llvh::ArrayRef.6", align 8
  store ptr %agg.result, ptr %result.ptr, align 8
  %0 = getelementptr inbounds { ptr, i64 }, ptr %src, i32 0, i32 0
  store ptr %src.coerce0, ptr %0, align 8
  %1 = getelementptr inbounds { ptr, i64 }, ptr %src, i32 0, i32 1
  store i64 %src.coerce1, ptr %1, align 8
  store ptr %radix, ptr %radix.addr, align 8
  store ptr %sign, ptr %sign.addr, align 8
  store ptr %outError, ptr %outError.addr, align 8
  call void @llvm.memcpy.p0.p0.i64(ptr align 8 %agg.tmp, ptr align 8 %src, i64 16, i1 false)
  %2 = load ptr, ptr %radix.addr, align 8
  %3 = load ptr, ptr %sign.addr, align 8
  %4 = load ptr, ptr %outError.addr, align 8
  %5 = getelementptr inbounds { ptr, i64 }, ptr %agg.tmp, i32 0, i32 0
  %6 = load ptr, ptr %5, align 8
  %7 = getelementptr inbounds { ptr, i64 }, ptr %agg.tmp, i32 0, i32 1
  %8 = load i64, ptr %7, align 8
  call void @_ZN6hermes6bigint12_GLOBAL__N_113getDigitsWithINS1_26StringIntegerLiteralParserIN4llvh8ArrayRefIDsEEEES6_EESt8optionalINSt7__cxx1112basic_stringIcSt11char_traitsIcESaIcEEEET0_RhRNS0_10ParsedSignEPSE_(ptr sret(%"class.std::optional") align 8 %agg.result, ptr %6, i64 %8, ptr noundef nonnull align 1 dereferenceable(1) %2, ptr noundef nonnull align 4 dereferenceable(4) %3, ptr noundef %4)
  ret void
}

; Function Attrs: mustprogress nounwind uwtable
define internal void @_ZN6hermes6bigint12_GLOBAL__N_113getDigitsWithINS1_26StringIntegerLiteralParserIN4llvh8ArrayRefIDsEEEES6_EESt8optionalINSt7__cxx1112basic_stringIcSt11char_traitsIcESaIcEEEET0_RhRNS0_10ParsedSignEPSE_(ptr noalias sret(%"class.std::optional") align 8 %agg.result, ptr %src.coerce0, i64 %src.coerce1, ptr noundef nonnull align 1 dereferenceable(1) %radix, ptr noundef nonnull align 4 dereferenceable(4) %sign, ptr noundef %outError) #0 {
entry:
  %result.ptr = alloca ptr, align 8
  %src = alloca %"class.llvh::ArrayRef.6", align 8
  %radix.addr = alloca ptr, align 8
  %sign.addr = alloca ptr, align 8
  %outError.addr = alloca ptr, align 8
  %bigintDigits = alloca %"class.std::__cxx11::basic_string", align 8
  %nrvo = alloca i1, align 1
  %ref.tmp = alloca %"class.hermes::bigint::(anonymous namespace)::StringIntegerLiteralParser.61", align 8
  %agg.tmp = alloca %"class.llvh::ArrayRef.6", align 8
  store ptr %agg.result, ptr %result.ptr, align 8
  %0 = getelementptr inbounds { ptr, i64 }, ptr %src, i32 0, i32 0
  store ptr %src.coerce0, ptr %0, align 8
  %1 = getelementptr inbounds { ptr, i64 }, ptr %src, i32 0, i32 1
  store i64 %src.coerce1, ptr %1, align 8
  store ptr %radix, ptr %radix.addr, align 8
  store ptr %sign, ptr %sign.addr, align 8
  store ptr %outError, ptr %outError.addr, align 8
  call void @_ZNSt7__cxx1112basic_stringIcSt11char_traitsIcESaIcEEC1Ev(ptr noundef nonnull align 8 dereferenceable(32) %bigintDigits) #11
  store i1 false, ptr %nrvo, align 1
  call void @_ZNSt8optionalINSt7__cxx1112basic_stringIcSt11char_traitsIcESaIcEEEEC2Ev(ptr noundef nonnull align 8 dereferenceable(40) %agg.result) #11
  call void @llvm.memcpy.p0.p0.i64(ptr align 8 %agg.tmp, ptr align 8 %src, i64 16, i1 false)
  %2 = load ptr, ptr %radix.addr, align 8
  %3 = load ptr, ptr %sign.addr, align 8
  %4 = load ptr, ptr %outError.addr, align 8
  %5 = getelementptr inbounds { ptr, i64 }, ptr %agg.tmp, i32 0, i32 0
  %6 = load ptr, ptr %5, align 8
  %7 = getelementptr inbounds { ptr, i64 }, ptr %agg.tmp, i32 0, i32 1
  %8 = load i64, ptr %7, align 8
  call void @_ZN6hermes6bigint12_GLOBAL__N_126StringIntegerLiteralParserIN4llvh8ArrayRefIDsEEEC2ES5_RhRNSt7__cxx1112basic_stringIcSt11char_traitsIcESaIcEEERNS0_10ParsedSignEPSD_(ptr noundef nonnull align 8 dereferenceable(48) %ref.tmp, ptr %6, i64 %8, ptr noundef nonnull align 1 dereferenceable(1) %2, ptr noundef nonnull align 8 dereferenceable(32) %bigintDigits, ptr noundef nonnull align 4 dereferenceable(4) %3, ptr noundef %4)
  %call = call noundef zeroext i1 @_ZNO6hermes6bigint12_GLOBAL__N_126StringIntegerLiteralParserIN4llvh8ArrayRefIDsEEE4goalEv(ptr noundef nonnull align 8 dereferenceable(48) %ref.tmp)
  br i1 %call, label %if.then, label %if.end

if.then:                                          ; preds = %entry
  %call1 = call noundef nonnull align 8 dereferenceable(40) ptr @_ZNSt8optionalINSt7__cxx1112basic_stringIcSt11char_traitsIcESaIcEEEEaSIS5_EENSt9enable_ifIX7__and_vISt6__not_ISt7is_sameIS6_NSt9remove_cvINSt16remove_referenceIT_E4typeEE4typeEEES9_ISt6__and_IJSt9is_scalarIS5_ESA_IS5_NSt5decayISD_E4typeEEEEESt16is_constructibleIS5_JSD_EESt13is_assignableIRS5_SD_EEERS6_E4typeEOSD_(ptr noundef nonnull align 8 dereferenceable(40) %agg.result, ptr noundef nonnull align 8 dereferenceable(32) %bigintDigits) #11
  br label %if.end

if.end:                                           ; preds = %if.then, %entry
  store i1 true, ptr %nrvo, align 1
  %nrvo.val = load i1, ptr %nrvo, align 1
  br i1 %nrvo.val, label %nrvo.skipdtor, label %nrvo.unused

nrvo.unused:                                      ; preds = %if.end
  call void @_ZNSt8optionalINSt7__cxx1112basic_stringIcSt11char_traitsIcESaIcEEEED2Ev(ptr noundef nonnull align 8 dereferenceable(40) %agg.result) #11
  br label %nrvo.skipdtor

nrvo.skipdtor:                                    ; preds = %nrvo.unused, %if.end
  call void @_ZNSt7__cxx1112basic_stringIcSt11char_traitsIcESaIcEED1Ev(ptr noundef nonnull align 8 dereferenceable(32) %bigintDigits) #11
  ret void
}

; Function Attrs: mustprogress nounwind uwtable
define hidden void @_ZN6hermes6bigint21getNumericValueDigitsEN4llvh9StringRefERhPNSt7__cxx1112basic_stringIcSt11char_traitsIcESaIcEEE(ptr noalias sret(%"class.std::optional") align 8 %agg.result, ptr %src.coerce0, i64 %src.coerce1, ptr noundef nonnull align 1 dereferenceable(1) %radix, ptr noundef %outError) #0 {
entry:
  %result.ptr = alloca ptr, align 8
  %src = alloca %"class.llvh::StringRef", align 8
  %radix.addr = alloca ptr, align 8
  %outError.addr = alloca ptr, align 8
  %sign = alloca i32, align 4
  %agg.tmp = alloca %"class.llvh::StringRef", align 8
  store ptr %agg.result, ptr %result.ptr, align 8
  %0 = getelementptr inbounds { ptr, i64 }, ptr %src, i32 0, i32 0
  store ptr %src.coerce0, ptr %0, align 8
  %1 = getelementptr inbounds { ptr, i64 }, ptr %src, i32 0, i32 1
  store i64 %src.coerce1, ptr %1, align 8
  store ptr %radix, ptr %radix.addr, align 8
  store ptr %outError, ptr %outError.addr, align 8
  call void @llvm.memcpy.p0.p0.i64(ptr align 8 %agg.tmp, ptr align 8 %src, i64 16, i1 false)
  %2 = load ptr, ptr %radix.addr, align 8
  %3 = load ptr, ptr %outError.addr, align 8
  %4 = getelementptr inbounds { ptr, i64 }, ptr %agg.tmp, i32 0, i32 0
  %5 = load ptr, ptr %4, align 8
  %6 = getelementptr inbounds { ptr, i64 }, ptr %agg.tmp, i32 0, i32 1
  %7 = load i64, ptr %6, align 8
  call void @_ZN6hermes6bigint12_GLOBAL__N_113getDigitsWithINS1_18NumericValueParserEN4llvh9StringRefEEESt8optionalINSt7__cxx1112basic_stringIcSt11char_traitsIcESaIcEEEET0_RhRNS0_10ParsedSignEPSC_(ptr sret(%"class.std::optional") align 8 %agg.result, ptr %5, i64 %7, ptr noundef nonnull align 1 dereferenceable(1) %2, ptr noundef nonnull align 4 dereferenceable(4) %sign, ptr noundef %3)
  ret void
}

; Function Attrs: mustprogress nounwind uwtable
define internal void @_ZN6hermes6bigint12_GLOBAL__N_113getDigitsWithINS1_18NumericValueParserEN4llvh9StringRefEEESt8optionalINSt7__cxx1112basic_stringIcSt11char_traitsIcESaIcEEEET0_RhRNS0_10ParsedSignEPSC_(ptr noalias sret(%"class.std::optional") align 8 %agg.result, ptr %src.coerce0, i64 %src.coerce1, ptr noundef nonnull align 1 dereferenceable(1) %radix, ptr noundef nonnull align 4 dereferenceable(4) %sign, ptr noundef %outError) #0 {
entry:
  %result.ptr = alloca ptr, align 8
  %src = alloca %"class.llvh::StringRef", align 8
  %radix.addr = alloca ptr, align 8
  %sign.addr = alloca ptr, align 8
  %outError.addr = alloca ptr, align 8
  %bigintDigits = alloca %"class.std::__cxx11::basic_string", align 8
  %nrvo = alloca i1, align 1
  %ref.tmp = alloca %"class.hermes::bigint::(anonymous namespace)::NumericValueParser", align 8
  %agg.tmp = alloca %"class.llvh::StringRef", align 8
  store ptr %agg.result, ptr %result.ptr, align 8
  %0 = getelementptr inbounds { ptr, i64 }, ptr %src, i32 0, i32 0
  store ptr %src.coerce0, ptr %0, align 8
  %1 = getelementptr inbounds { ptr, i64 }, ptr %src, i32 0, i32 1
  store i64 %src.coerce1, ptr %1, align 8
  store ptr %radix, ptr %radix.addr, align 8
  store ptr %sign, ptr %sign.addr, align 8
  store ptr %outError, ptr %outError.addr, align 8
  call void @_ZNSt7__cxx1112basic_stringIcSt11char_traitsIcESaIcEEC1Ev(ptr noundef nonnull align 8 dereferenceable(32) %bigintDigits) #11
  store i1 false, ptr %nrvo, align 1
  call void @_ZNSt8optionalINSt7__cxx1112basic_stringIcSt11char_traitsIcESaIcEEEEC2Ev(ptr noundef nonnull align 8 dereferenceable(40) %agg.result) #11
  call void @llvm.memcpy.p0.p0.i64(ptr align 8 %agg.tmp, ptr align 8 %src, i64 16, i1 false)
  %2 = load ptr, ptr %radix.addr, align 8
  %3 = load ptr, ptr %sign.addr, align 8
  %4 = load ptr, ptr %outError.addr, align 8
  %5 = getelementptr inbounds { ptr, i64 }, ptr %agg.tmp, i32 0, i32 0
  %6 = load ptr, ptr %5, align 8
  %7 = getelementptr inbounds { ptr, i64 }, ptr %agg.tmp, i32 0, i32 1
  %8 = load i64, ptr %7, align 8
  call void @_ZN6hermes6bigint12_GLOBAL__N_118NumericValueParserC2EN4llvh9StringRefERhRNSt7__cxx1112basic_stringIcSt11char_traitsIcESaIcEEERNS0_10ParsedSignEPSB_(ptr noundef nonnull align 8 dereferenceable(48) %ref.tmp, ptr %6, i64 %8, ptr noundef nonnull align 1 dereferenceable(1) %2, ptr noundef nonnull align 8 dereferenceable(32) %bigintDigits, ptr noundef nonnull align 4 dereferenceable(4) %3, ptr noundef %4)
  %call = call noundef zeroext i1 @_ZNO6hermes6bigint12_GLOBAL__N_118NumericValueParser4goalEv(ptr noundef nonnull align 8 dereferenceable(48) %ref.tmp)
  br i1 %call, label %if.then, label %if.end

if.then:                                          ; preds = %entry
  %call1 = call noundef nonnull align 8 dereferenceable(40) ptr @_ZNSt8optionalINSt7__cxx1112basic_stringIcSt11char_traitsIcESaIcEEEEaSIS5_EENSt9enable_ifIX7__and_vISt6__not_ISt7is_sameIS6_NSt9remove_cvINSt16remove_referenceIT_E4typeEE4typeEEES9_ISt6__and_IJSt9is_scalarIS5_ESA_IS5_NSt5decayISD_E4typeEEEEESt16is_constructibleIS5_JSD_EESt13is_assignableIRS5_SD_EEERS6_E4typeEOSD_(ptr noundef nonnull align 8 dereferenceable(40) %agg.result, ptr noundef nonnull align 8 dereferenceable(32) %bigintDigits) #11
  br label %if.end

if.end:                                           ; preds = %if.then, %entry
  store i1 true, ptr %nrvo, align 1
  %nrvo.val = load i1, ptr %nrvo, align 1
  br i1 %nrvo.val, label %nrvo.skipdtor, label %nrvo.unused

nrvo.unused:                                      ; preds = %if.end
  call void @_ZNSt8optionalINSt7__cxx1112basic_stringIcSt11char_traitsIcESaIcEEEED2Ev(ptr noundef nonnull align 8 dereferenceable(40) %agg.result) #11
  br label %nrvo.skipdtor

nrvo.skipdtor:                                    ; preds = %nrvo.unused, %if.end
  call void @_ZNSt7__cxx1112basic_stringIcSt11char_traitsIcESaIcEED1Ev(ptr noundef nonnull align 8 dereferenceable(32) %bigintDigits) #11
  ret void
}

; Function Attrs: mustprogress nounwind uwtable
define hidden void @_ZN6hermes6bigint12ParsedBigInt36parsedBigIntFromStringIntegerLiteralEN4llvh8ArrayRefIcEEPNSt7__cxx1112basic_stringIcSt11char_traitsIcESaIcEEE(ptr noalias sret(%"class.std::optional.7") align 8 %agg.result, ptr %input.coerce0, i64 %input.coerce1, ptr noundef %outError) #0 align 2 {
entry:
  %result.ptr = alloca ptr, align 8
  %input = alloca %"class.llvh::ArrayRef.2", align 8
  %outError.addr = alloca ptr, align 8
  %nrvo = alloca i1, align 1
  %maybeBytes = alloca %"class.std::optional.20", align 8
  %agg.tmp = alloca %"class.llvh::ArrayRef.2", align 8
  %ref.tmp = alloca %"class.hermes::bigint::ParsedBigInt", align 8
  %agg.tmp1 = alloca %"class.llvh::ArrayRef", align 8
  store ptr %agg.result, ptr %result.ptr, align 8
  %0 = getelementptr inbounds { ptr, i64 }, ptr %input, i32 0, i32 0
  store ptr %input.coerce0, ptr %0, align 8
  %1 = getelementptr inbounds { ptr, i64 }, ptr %input, i32 0, i32 1
  store i64 %input.coerce1, ptr %1, align 8
  store ptr %outError, ptr %outError.addr, align 8
  store i1 false, ptr %nrvo, align 1
  call void @_ZNSt8optionalIN6hermes6bigint12ParsedBigIntEEC2Ev(ptr noundef nonnull align 8 dereferenceable(32) %agg.result) #11
  call void @llvm.memcpy.p0.p0.i64(ptr align 8 %agg.tmp, ptr align 8 %input, i64 16, i1 false)
  %2 = load ptr, ptr %outError.addr, align 8
  %3 = getelementptr inbounds { ptr, i64 }, ptr %agg.tmp, i32 0, i32 0
  %4 = load ptr, ptr %3, align 8
  %5 = getelementptr inbounds { ptr, i64 }, ptr %agg.tmp, i32 0, i32 1
  %6 = load i64, ptr %5, align 8
  call void @_ZN6hermes6bigint12_GLOBAL__N_116parsedBigIntFromINS1_26StringIntegerLiteralParserIN4llvh8ArrayRefIcEEEES6_EESt8optionalISt6vectorIhSaIhEEET0_PNSt7__cxx1112basic_stringIcSt11char_traitsIcESaIcEEE(ptr sret(%"class.std::optional.20") align 8 %maybeBytes, ptr %4, i64 %6, ptr noundef %2)
  %call = call noundef zeroext i1 @_ZNKSt8optionalISt6vectorIhSaIhEEEcvbEv(ptr noundef nonnull align 8 dereferenceable(32) %maybeBytes) #11
  br i1 %call, label %if.then, label %if.end

if.then:                                          ; preds = %entry
  %call2 = call noundef nonnull align 8 dereferenceable(24) ptr @_ZNRSt8optionalISt6vectorIhSaIhEEEdeEv(ptr noundef nonnull align 8 dereferenceable(32) %maybeBytes) #11
  call void @_ZN4llvh8ArrayRefIhEC2ISaIhEEERKSt6vectorIhT_E(ptr noundef nonnull align 8 dereferenceable(16) %agg.tmp1, ptr noundef nonnull align 8 dereferenceable(24) %call2)
  %7 = getelementptr inbounds { ptr, i64 }, ptr %agg.tmp1, i32 0, i32 0
  %8 = load ptr, ptr %7, align 8
  %9 = getelementptr inbounds { ptr, i64 }, ptr %agg.tmp1, i32 0, i32 1
  %10 = load i64, ptr %9, align 8
  call void @_ZN6hermes6bigint12ParsedBigIntC2EN4llvh8ArrayRefIhEE(ptr noundef nonnull align 8 dereferenceable(24) %ref.tmp, ptr %8, i64 %10)
  %call3 = call noundef nonnull align 8 dereferenceable(32) ptr @_ZNSt8optionalIN6hermes6bigint12ParsedBigIntEEaSIS2_EENSt9enable_ifIX7__and_vISt6__not_ISt7is_sameIS3_NSt9remove_cvINSt16remove_referenceIT_E4typeEE4typeEEES6_ISt6__and_IJSt9is_scalarIS2_ES7_IS2_NSt5decayISA_E4typeEEEEESt16is_constructibleIS2_JSA_EESt13is_assignableIRS2_SA_EEERS3_E4typeEOSA_(ptr noundef nonnull align 8 dereferenceable(32) %agg.result, ptr noundef nonnull align 8 dereferenceable(24) %ref.tmp) #11
  call void @_ZN6hermes6bigint12ParsedBigIntD2Ev(ptr noundef nonnull align 8 dereferenceable(24) %ref.tmp) #11
  br label %if.end

if.end:                                           ; preds = %if.then, %entry
  call void @_ZNSt8optionalISt6vectorIhSaIhEEED2Ev(ptr noundef nonnull align 8 dereferenceable(32) %maybeBytes) #11
  store i1 true, ptr %nrvo, align 1
  %nrvo.val = load i1, ptr %nrvo, align 1
  br i1 %nrvo.val, label %nrvo.skipdtor, label %nrvo.unused

nrvo.unused:                                      ; preds = %if.end
  call void @_ZNSt8optionalIN6hermes6bigint12ParsedBigIntEED2Ev(ptr noundef nonnull align 8 dereferenceable(32) %agg.result) #11
  br label %nrvo.skipdtor

nrvo.skipdtor:                                    ; preds = %nrvo.unused, %if.end
  ret void
}

; Function Attrs: mustprogress nounwind uwtable
define linkonce_odr hidden void @_ZNSt8optionalIN6hermes6bigint12ParsedBigIntEEC2Ev(ptr noundef nonnull align 8 dereferenceable(32) %this) unnamed_addr #0 comdat align 2 {
entry:
  %this.addr = alloca ptr, align 8
  store ptr %this, ptr %this.addr, align 8
  %this1 = load ptr, ptr %this.addr, align 8
  call void @_ZNSt14_Optional_baseIN6hermes6bigint12ParsedBigIntELb0ELb0EEC2Ev(ptr noundef nonnull align 8 dereferenceable(32) %this1) #11
  ret void
}

; Function Attrs: mustprogress nounwind uwtable
define internal void @_ZN6hermes6bigint12_GLOBAL__N_116parsedBigIntFromINS1_26StringIntegerLiteralParserIN4llvh8ArrayRefIcEEEES6_EESt8optionalISt6vectorIhSaIhEEET0_PNSt7__cxx1112basic_stringIcSt11char_traitsIcESaIcEEE(ptr noalias sret(%"class.std::optional.20") align 8 %agg.result, ptr %input.coerce0, i64 %input.coerce1, ptr noundef %outError) #0 {
entry:
  %this.addr.i = alloca ptr, align 8
  %Str.addr.i = alloca ptr, align 8
  %result.ptr = alloca ptr, align 8
  %input = alloca %"class.llvh::ArrayRef.2", align 8
  %outError.addr = alloca ptr, align 8
  %radix = alloca i8, align 1
  %sign = alloca i32, align 4
  %bigintDigits = alloca %"class.std::optional", align 8
  %agg.tmp = alloca %"class.llvh::ArrayRef.2", align 8
  %nrvo = alloca i1, align 1
  %i = alloca %"class.llvh::APInt", align 8
  %agg.tmp1 = alloca %"class.std::__cxx11::basic_string", align 8
  %agg.tmp4 = alloca %"class.llvh::StringRef", align 8
  %ptr = alloca ptr, align 8
  %size = alloca i64, align 8
  %ref.tmp = alloca %"class.std::vector", align 8
  %ref.tmp9 = alloca %"class.std::allocator.13", align 1
  store ptr %agg.result, ptr %result.ptr, align 8
  %0 = getelementptr inbounds { ptr, i64 }, ptr %input, i32 0, i32 0
  store ptr %input.coerce0, ptr %0, align 8
  %1 = getelementptr inbounds { ptr, i64 }, ptr %input, i32 0, i32 1
  store i64 %input.coerce1, ptr %1, align 8
  store ptr %outError, ptr %outError.addr, align 8
  call void @llvm.memcpy.p0.p0.i64(ptr align 8 %agg.tmp, ptr align 8 %input, i64 16, i1 false)
  %2 = load ptr, ptr %outError.addr, align 8
  %3 = getelementptr inbounds { ptr, i64 }, ptr %agg.tmp, i32 0, i32 0
  %4 = load ptr, ptr %3, align 8
  %5 = getelementptr inbounds { ptr, i64 }, ptr %agg.tmp, i32 0, i32 1
  %6 = load i64, ptr %5, align 8
  call void @_ZN6hermes6bigint12_GLOBAL__N_113getDigitsWithINS1_26StringIntegerLiteralParserIN4llvh8ArrayRefIcEEEES6_EESt8optionalINSt7__cxx1112basic_stringIcSt11char_traitsIcESaIcEEEET0_RhRNS0_10ParsedSignEPSE_(ptr sret(%"class.std::optional") align 8 %bigintDigits, ptr %4, i64 %6, ptr noundef nonnull align 1 dereferenceable(1) %radix, ptr noundef nonnull align 4 dereferenceable(4) %sign, ptr noundef %2)
  store i1 false, ptr %nrvo, align 1
  call void @_ZNSt8optionalISt6vectorIhSaIhEEEC2Ev(ptr noundef nonnull align 8 dereferenceable(32) %agg.result) #11
  %call = call noundef zeroext i1 @_ZNKSt8optionalINSt7__cxx1112basic_stringIcSt11char_traitsIcESaIcEEEEcvbEv(ptr noundef nonnull align 8 dereferenceable(40) %bigintDigits) #11
  br i1 %call, label %if.then, label %if.end11

if.then:                                          ; preds = %entry
  %call2 = call noundef nonnull align 8 dereferenceable(32) ptr @_ZNRSt8optionalINSt7__cxx1112basic_stringIcSt11char_traitsIcESaIcEEEEdeEv(ptr noundef nonnull align 8 dereferenceable(40) %bigintDigits) #11
  call void @_ZNSt7__cxx1112basic_stringIcSt11char_traitsIcESaIcEEC1ERKS4_(ptr noundef nonnull align 8 dereferenceable(32) %agg.tmp1, ptr noundef nonnull align 8 dereferenceable(32) %call2)
  %7 = load i8, ptr %radix, align 1
  %call3 = call noundef i32 @_ZN6hermes6bigint12_GLOBAL__N_122numBitsForBigintDigitsINSt7__cxx1112basic_stringIcSt11char_traitsIcESaIcEEEEEjT_h(ptr noundef %agg.tmp1, i8 noundef zeroext %7)
  %call5 = call noundef nonnull align 8 dereferenceable(32) ptr @_ZNRSt8optionalINSt7__cxx1112basic_stringIcSt11char_traitsIcESaIcEEEEdeEv(ptr noundef nonnull align 8 dereferenceable(40) %bigintDigits) #11
  store ptr %agg.tmp4, ptr %this.addr.i, align 8
  store ptr %call5, ptr %Str.addr.i, align 8
  %this1.i = load ptr, ptr %this.addr.i, align 8
  %8 = load ptr, ptr %Str.addr.i, align 8
  %call.i = call noundef ptr @_ZNKSt7__cxx1112basic_stringIcSt11char_traitsIcESaIcEE4dataEv(ptr noundef nonnull align 8 dereferenceable(32) %8) #11
  store ptr %call.i, ptr %this1.i, align 8
  %Length.i = getelementptr inbounds %"class.llvh::StringRef", ptr %this1.i, i32 0, i32 1
  %9 = load ptr, ptr %Str.addr.i, align 8
  %call2.i = call noundef i64 @_ZNKSt7__cxx1112basic_stringIcSt11char_traitsIcESaIcEE6lengthEv(ptr noundef nonnull align 8 dereferenceable(32) %9) #11
  store i64 %call2.i, ptr %Length.i, align 8
  %10 = load i8, ptr %radix, align 1
  %11 = getelementptr inbounds { ptr, i64 }, ptr %agg.tmp4, i32 0, i32 0
  %12 = load ptr, ptr %11, align 8
  %13 = getelementptr inbounds { ptr, i64 }, ptr %agg.tmp4, i32 0, i32 1
  %14 = load i64, ptr %13, align 8
  call void @_ZN4llvh5APIntC1EjNS_9StringRefEh(ptr noundef nonnull align 8 dereferenceable(12) %i, i32 noundef %call3, ptr %12, i64 %14, i8 noundef zeroext %10)
  call void @_ZNSt7__cxx1112basic_stringIcSt11char_traitsIcESaIcEED1Ev(ptr noundef nonnull align 8 dereferenceable(32) %agg.tmp1) #11
  %call6 = call noundef ptr @_ZNK4llvh5APInt10getRawDataEv(ptr noundef nonnull align 8 dereferenceable(12) %i)
  store ptr %call6, ptr %ptr, align 8
  %call7 = call noundef i32 @_ZNK4llvh5APInt11getNumWordsEv(ptr noundef nonnull align 8 dereferenceable(12) %i)
  %conv = zext i32 %call7 to i64
  %mul = mul i64 %conv, 8
  store i64 %mul, ptr %size, align 8
  %15 = load i32, ptr %sign, align 4
  %cmp = icmp eq i32 %15, -1
  br i1 %cmp, label %if.then8, label %if.end

if.then8:                                         ; preds = %if.then
  call void @_ZN4llvh5APInt6negateEv(ptr noundef nonnull align 8 dereferenceable(12) %i)
  br label %if.end

if.end:                                           ; preds = %if.then8, %if.then
  %16 = load ptr, ptr %ptr, align 8
  %17 = load ptr, ptr %ptr, align 8
  %18 = load i64, ptr %size, align 8
  %add.ptr = getelementptr inbounds i8, ptr %17, i64 %18
  call void @_ZNSaIhEC2Ev(ptr noundef nonnull align 1 dereferenceable(1) %ref.tmp9) #11
  call void @_ZNSt6vectorIhSaIhEEC2IPKhvEET_S5_RKS0_(ptr noundef nonnull align 8 dereferenceable(24) %ref.tmp, ptr noundef %16, ptr noundef %add.ptr, ptr noundef nonnull align 1 dereferenceable(1) %ref.tmp9)
  %call10 = call noundef nonnull align 8 dereferenceable(32) ptr @_ZNSt8optionalISt6vectorIhSaIhEEEaSIS2_EENSt9enable_ifIX7__and_vISt6__not_ISt7is_sameIS3_NSt9remove_cvINSt16remove_referenceIT_E4typeEE4typeEEES6_ISt6__and_IJSt9is_scalarIS2_ES7_IS2_NSt5decayISA_E4typeEEEEESt16is_constructibleIS2_JSA_EESt13is_assignableIRS2_SA_EEERS3_E4typeEOSA_(ptr noundef nonnull align 8 dereferenceable(32) %agg.result, ptr noundef nonnull align 8 dereferenceable(24) %ref.tmp) #11
  call void @_ZNSt6vectorIhSaIhEED2Ev(ptr noundef nonnull align 8 dereferenceable(24) %ref.tmp) #11
  call void @_ZNSaIhED2Ev(ptr noundef nonnull align 1 dereferenceable(1) %ref.tmp9) #11
  call void @_ZN4llvh5APIntD2Ev(ptr noundef nonnull align 8 dereferenceable(12) %i) #11
  br label %if.end11

if.end11:                                         ; preds = %if.end, %entry
  store i1 true, ptr %nrvo, align 1
  %nrvo.val = load i1, ptr %nrvo, align 1
  br i1 %nrvo.val, label %nrvo.skipdtor, label %nrvo.unused

nrvo.unused:                                      ; preds = %if.end11
  call void @_ZNSt8optionalISt6vectorIhSaIhEEED2Ev(ptr noundef nonnull align 8 dereferenceable(32) %agg.result) #11
  br label %nrvo.skipdtor

nrvo.skipdtor:                                    ; preds = %nrvo.unused, %if.end11
  call void @_ZNSt8optionalINSt7__cxx1112basic_stringIcSt11char_traitsIcESaIcEEEED2Ev(ptr noundef nonnull align 8 dereferenceable(40) %bigintDigits) #11
  ret void
}

; Function Attrs: mustprogress nounwind uwtable
define linkonce_odr noundef zeroext i1 @_ZNKSt8optionalISt6vectorIhSaIhEEEcvbEv(ptr noundef nonnull align 8 dereferenceable(32) %this) #0 comdat align 2 {
entry:
  %this.addr = alloca ptr, align 8
  store ptr %this, ptr %this.addr, align 8
  %this1 = load ptr, ptr %this.addr, align 8
  %call = call noundef zeroext i1 @_ZNKSt19_Optional_base_implISt6vectorIhSaIhEESt14_Optional_baseIS2_Lb0ELb0EEE13_M_is_engagedEv(ptr noundef nonnull align 1 dereferenceable(1) %this1) #11
  ret i1 %call
}

; Function Attrs: mustprogress nounwind uwtable
define linkonce_odr noundef nonnull align 8 dereferenceable(24) ptr @_ZNRSt8optionalISt6vectorIhSaIhEEEdeEv(ptr noundef nonnull align 8 dereferenceable(32) %this) #0 comdat align 2 {
entry:
  %this.addr = alloca ptr, align 8
  store ptr %this, ptr %this.addr, align 8
  %this1 = load ptr, ptr %this.addr, align 8
  %call = call noundef nonnull align 8 dereferenceable(24) ptr @_ZNSt19_Optional_base_implISt6vectorIhSaIhEESt14_Optional_baseIS2_Lb0ELb0EEE6_M_getEv(ptr noundef nonnull align 1 dereferenceable(1) %this1) #11
  ret ptr %call
}

; Function Attrs: mustprogress nounwind uwtable
define linkonce_odr hidden void @_ZN4llvh8ArrayRefIhEC2ISaIhEEERKSt6vectorIhT_E(ptr noundef nonnull align 8 dereferenceable(16) %this, ptr noundef nonnull align 8 dereferenceable(24) %Vec) unnamed_addr #0 comdat align 2 {
entry:
  %this.addr = alloca ptr, align 8
  %Vec.addr = alloca ptr, align 8
  store ptr %this, ptr %this.addr, align 8
  store ptr %Vec, ptr %Vec.addr, align 8
  %this1 = load ptr, ptr %this.addr, align 8
  %Data = getelementptr inbounds %"class.llvh::ArrayRef", ptr %this1, i32 0, i32 0
  %0 = load ptr, ptr %Vec.addr, align 8
  %call = call noundef ptr @_ZNKSt6vectorIhSaIhEE4dataEv(ptr noundef nonnull align 8 dereferenceable(24) %0) #11
  store ptr %call, ptr %Data, align 8
  %Length = getelementptr inbounds %"class.llvh::ArrayRef", ptr %this1, i32 0, i32 1
  %1 = load ptr, ptr %Vec.addr, align 8
  %call2 = call noundef i64 @_ZNKSt6vectorIhSaIhEE4sizeEv(ptr noundef nonnull align 8 dereferenceable(24) %1) #11
  store i64 %call2, ptr %Length, align 8
  ret void
}

; Function Attrs: mustprogress nounwind uwtable
define linkonce_odr hidden void @_ZN6hermes6bigint12ParsedBigIntC2EN4llvh8ArrayRefIhEE(ptr noundef nonnull align 8 dereferenceable(24) %this, ptr %bytes.coerce0, i64 %bytes.coerce1) unnamed_addr #0 comdat align 2 {
entry:
  %bytes = alloca %"class.llvh::ArrayRef", align 8
  %this.addr = alloca ptr, align 8
  %0 = getelementptr inbounds { ptr, i64 }, ptr %bytes, i32 0, i32 0
  store ptr %bytes.coerce0, ptr %0, align 8
  %1 = getelementptr inbounds { ptr, i64 }, ptr %bytes, i32 0, i32 1
  store i64 %bytes.coerce1, ptr %1, align 8
  store ptr %this, ptr %this.addr, align 8
  %this1 = load ptr, ptr %this.addr, align 8
  %storage_ = getelementptr inbounds %"class.hermes::bigint::ParsedBigInt", ptr %this1, i32 0, i32 0
  call void @_ZNK4llvh8ArrayRefIhEcvSt6vectorIhSaIhEEEv(ptr sret(%"class.std::vector") align 8 %storage_, ptr noundef nonnull align 8 dereferenceable(16) %bytes)
  ret void
}

; Function Attrs: mustprogress nounwind uwtable
define linkonce_odr hidden noundef nonnull align 8 dereferenceable(32) ptr @_ZNSt8optionalIN6hermes6bigint12ParsedBigIntEEaSIS2_EENSt9enable_ifIX7__and_vISt6__not_ISt7is_sameIS3_NSt9remove_cvINSt16remove_referenceIT_E4typeEE4typeEEES6_ISt6__and_IJSt9is_scalarIS2_ES7_IS2_NSt5decayISA_E4typeEEEEESt16is_constructibleIS2_JSA_EESt13is_assignableIRS2_SA_EEERS3_E4typeEOSA_(ptr noundef nonnull align 8 dereferenceable(32) %this, ptr noundef nonnull align 8 dereferenceable(24) %__u) #0 comdat align 2 {
entry:
  %this.addr = alloca ptr, align 8
  %__u.addr = alloca ptr, align 8
  store ptr %this, ptr %this.addr, align 8
  store ptr %__u, ptr %__u.addr, align 8
  %this1 = load ptr, ptr %this.addr, align 8
  %call = call noundef zeroext i1 @_ZNKSt19_Optional_base_implIN6hermes6bigint12ParsedBigIntESt14_Optional_baseIS2_Lb0ELb0EEE13_M_is_engagedEv(ptr noundef nonnull align 1 dereferenceable(1) %this1) #11
  br i1 %call, label %if.then, label %if.else

if.then:                                          ; preds = %entry
  %0 = load ptr, ptr %__u.addr, align 8
  %call2 = call noundef nonnull align 8 dereferenceable(24) ptr @_ZNSt19_Optional_base_implIN6hermes6bigint12ParsedBigIntESt14_Optional_baseIS2_Lb0ELb0EEE6_M_getEv(ptr noundef nonnull align 1 dereferenceable(1) %this1) #11
  %call3 = call noundef nonnull align 8 dereferenceable(24) ptr @_ZN6hermes6bigint12ParsedBigIntaSEOS1_(ptr noundef nonnull align 8 dereferenceable(24) %call2, ptr noundef nonnull align 8 dereferenceable(24) %0) #11
  br label %if.end

if.else:                                          ; preds = %entry
  %1 = load ptr, ptr %__u.addr, align 8
  call void @_ZNSt19_Optional_base_implIN6hermes6bigint12ParsedBigIntESt14_Optional_baseIS2_Lb0ELb0EEE12_M_constructIJS2_EEEvDpOT_(ptr noundef nonnull align 1 dereferenceable(1) %this1, ptr noundef nonnull align 8 dereferenceable(24) %1) #11
  br label %if.end

if.end:                                           ; preds = %if.else, %if.then
  ret ptr %this1
}

; Function Attrs: mustprogress nounwind uwtable
define linkonce_odr hidden void @_ZN6hermes6bigint12ParsedBigIntD2Ev(ptr noundef nonnull align 8 dereferenceable(24) %this) unnamed_addr #0 comdat align 2 {
entry:
  %this.addr = alloca ptr, align 8
  store ptr %this, ptr %this.addr, align 8
  %this1 = load ptr, ptr %this.addr, align 8
  %storage_ = getelementptr inbounds %"class.hermes::bigint::ParsedBigInt", ptr %this1, i32 0, i32 0
  call void @_ZNSt6vectorIhSaIhEED2Ev(ptr noundef nonnull align 8 dereferenceable(24) %storage_) #11
  ret void
}

; Function Attrs: mustprogress nounwind uwtable
define linkonce_odr void @_ZNSt8optionalISt6vectorIhSaIhEEED2Ev(ptr noundef nonnull align 8 dereferenceable(32) %this) unnamed_addr #0 comdat align 2 {
entry:
  %this.addr = alloca ptr, align 8
  store ptr %this, ptr %this.addr, align 8
  %this1 = load ptr, ptr %this.addr, align 8
  call void @_ZNSt14_Optional_baseISt6vectorIhSaIhEELb0ELb0EED2Ev(ptr noundef nonnull align 8 dereferenceable(32) %this1) #11
  ret void
}

; Function Attrs: mustprogress nounwind uwtable
define linkonce_odr hidden void @_ZNSt8optionalIN6hermes6bigint12ParsedBigIntEED2Ev(ptr noundef nonnull align 8 dereferenceable(32) %this) unnamed_addr #0 comdat align 2 {
entry:
  %this.addr = alloca ptr, align 8
  store ptr %this, ptr %this.addr, align 8
  %this1 = load ptr, ptr %this.addr, align 8
  call void @_ZNSt14_Optional_baseIN6hermes6bigint12ParsedBigIntELb0ELb0EED2Ev(ptr noundef nonnull align 8 dereferenceable(32) %this1) #11
  ret void
}

; Function Attrs: mustprogress nounwind uwtable
define hidden void @_ZN6hermes6bigint12ParsedBigInt36parsedBigIntFromStringIntegerLiteralEN4llvh8ArrayRefIDsEEPNSt7__cxx1112basic_stringIcSt11char_traitsIcESaIcEEE(ptr noalias sret(%"class.std::optional.7") align 8 %agg.result, ptr %input.coerce0, i64 %input.coerce1, ptr noundef %outError) #0 align 2 {
entry:
  %result.ptr = alloca ptr, align 8
  %input = alloca %"class.llvh::ArrayRef.6", align 8
  %outError.addr = alloca ptr, align 8
  %nrvo = alloca i1, align 1
  %maybeBytes = alloca %"class.std::optional.20", align 8
  %agg.tmp = alloca %"class.llvh::ArrayRef.6", align 8
  %ref.tmp = alloca %"class.hermes::bigint::ParsedBigInt", align 8
  %agg.tmp1 = alloca %"class.llvh::ArrayRef", align 8
  store ptr %agg.result, ptr %result.ptr, align 8
  %0 = getelementptr inbounds { ptr, i64 }, ptr %input, i32 0, i32 0
  store ptr %input.coerce0, ptr %0, align 8
  %1 = getelementptr inbounds { ptr, i64 }, ptr %input, i32 0, i32 1
  store i64 %input.coerce1, ptr %1, align 8
  store ptr %outError, ptr %outError.addr, align 8
  store i1 false, ptr %nrvo, align 1
  call void @_ZNSt8optionalIN6hermes6bigint12ParsedBigIntEEC2Ev(ptr noundef nonnull align 8 dereferenceable(32) %agg.result) #11
  call void @llvm.memcpy.p0.p0.i64(ptr align 8 %agg.tmp, ptr align 8 %input, i64 16, i1 false)
  %2 = load ptr, ptr %outError.addr, align 8
  %3 = getelementptr inbounds { ptr, i64 }, ptr %agg.tmp, i32 0, i32 0
  %4 = load ptr, ptr %3, align 8
  %5 = getelementptr inbounds { ptr, i64 }, ptr %agg.tmp, i32 0, i32 1
  %6 = load i64, ptr %5, align 8
  call void @_ZN6hermes6bigint12_GLOBAL__N_116parsedBigIntFromINS1_26StringIntegerLiteralParserIN4llvh8ArrayRefIDsEEEES6_EESt8optionalISt6vectorIhSaIhEEET0_PNSt7__cxx1112basic_stringIcSt11char_traitsIcESaIcEEE(ptr sret(%"class.std::optional.20") align 8 %maybeBytes, ptr %4, i64 %6, ptr noundef %2)
  %call = call noundef zeroext i1 @_ZNKSt8optionalISt6vectorIhSaIhEEEcvbEv(ptr noundef nonnull align 8 dereferenceable(32) %maybeBytes) #11
  br i1 %call, label %if.then, label %if.end

if.then:                                          ; preds = %entry
  %call2 = call noundef nonnull align 8 dereferenceable(24) ptr @_ZNRSt8optionalISt6vectorIhSaIhEEEdeEv(ptr noundef nonnull align 8 dereferenceable(32) %maybeBytes) #11
  call void @_ZN4llvh8ArrayRefIhEC2ISaIhEEERKSt6vectorIhT_E(ptr noundef nonnull align 8 dereferenceable(16) %agg.tmp1, ptr noundef nonnull align 8 dereferenceable(24) %call2)
  %7 = getelementptr inbounds { ptr, i64 }, ptr %agg.tmp1, i32 0, i32 0
  %8 = load ptr, ptr %7, align 8
  %9 = getelementptr inbounds { ptr, i64 }, ptr %agg.tmp1, i32 0, i32 1
  %10 = load i64, ptr %9, align 8
  call void @_ZN6hermes6bigint12ParsedBigIntC2EN4llvh8ArrayRefIhEE(ptr noundef nonnull align 8 dereferenceable(24) %ref.tmp, ptr %8, i64 %10)
  %call3 = call noundef nonnull align 8 dereferenceable(32) ptr @_ZNSt8optionalIN6hermes6bigint12ParsedBigIntEEaSIS2_EENSt9enable_ifIX7__and_vISt6__not_ISt7is_sameIS3_NSt9remove_cvINSt16remove_referenceIT_E4typeEE4typeEEES6_ISt6__and_IJSt9is_scalarIS2_ES7_IS2_NSt5decayISA_E4typeEEEEESt16is_constructibleIS2_JSA_EESt13is_assignableIRS2_SA_EEERS3_E4typeEOSA_(ptr noundef nonnull align 8 dereferenceable(32) %agg.result, ptr noundef nonnull align 8 dereferenceable(24) %ref.tmp) #11
  call void @_ZN6hermes6bigint12ParsedBigIntD2Ev(ptr noundef nonnull align 8 dereferenceable(24) %ref.tmp) #11
  br label %if.end

if.end:                                           ; preds = %if.then, %entry
  call void @_ZNSt8optionalISt6vectorIhSaIhEEED2Ev(ptr noundef nonnull align 8 dereferenceable(32) %maybeBytes) #11
  store i1 true, ptr %nrvo, align 1
  %nrvo.val = load i1, ptr %nrvo, align 1
  br i1 %nrvo.val, label %nrvo.skipdtor, label %nrvo.unused

nrvo.unused:                                      ; preds = %if.end
  call void @_ZNSt8optionalIN6hermes6bigint12ParsedBigIntEED2Ev(ptr noundef nonnull align 8 dereferenceable(32) %agg.result) #11
  br label %nrvo.skipdtor

nrvo.skipdtor:                                    ; preds = %nrvo.unused, %if.end
  ret void
}

; Function Attrs: mustprogress nounwind uwtable
define internal void @_ZN6hermes6bigint12_GLOBAL__N_116parsedBigIntFromINS1_26StringIntegerLiteralParserIN4llvh8ArrayRefIDsEEEES6_EESt8optionalISt6vectorIhSaIhEEET0_PNSt7__cxx1112basic_stringIcSt11char_traitsIcESaIcEEE(ptr noalias sret(%"class.std::optional.20") align 8 %agg.result, ptr %input.coerce0, i64 %input.coerce1, ptr noundef %outError) #0 {
entry:
  %this.addr.i = alloca ptr, align 8
  %Str.addr.i = alloca ptr, align 8
  %result.ptr = alloca ptr, align 8
  %input = alloca %"class.llvh::ArrayRef.6", align 8
  %outError.addr = alloca ptr, align 8
  %radix = alloca i8, align 1
  %sign = alloca i32, align 4
  %bigintDigits = alloca %"class.std::optional", align 8
  %agg.tmp = alloca %"class.llvh::ArrayRef.6", align 8
  %nrvo = alloca i1, align 1
  %i = alloca %"class.llvh::APInt", align 8
  %agg.tmp1 = alloca %"class.std::__cxx11::basic_string", align 8
  %agg.tmp4 = alloca %"class.llvh::StringRef", align 8
  %ptr = alloca ptr, align 8
  %size = alloca i64, align 8
  %ref.tmp = alloca %"class.std::vector", align 8
  %ref.tmp9 = alloca %"class.std::allocator.13", align 1
  store ptr %agg.result, ptr %result.ptr, align 8
  %0 = getelementptr inbounds { ptr, i64 }, ptr %input, i32 0, i32 0
  store ptr %input.coerce0, ptr %0, align 8
  %1 = getelementptr inbounds { ptr, i64 }, ptr %input, i32 0, i32 1
  store i64 %input.coerce1, ptr %1, align 8
  store ptr %outError, ptr %outError.addr, align 8
  call void @llvm.memcpy.p0.p0.i64(ptr align 8 %agg.tmp, ptr align 8 %input, i64 16, i1 false)
  %2 = load ptr, ptr %outError.addr, align 8
  %3 = getelementptr inbounds { ptr, i64 }, ptr %agg.tmp, i32 0, i32 0
  %4 = load ptr, ptr %3, align 8
  %5 = getelementptr inbounds { ptr, i64 }, ptr %agg.tmp, i32 0, i32 1
  %6 = load i64, ptr %5, align 8
  call void @_ZN6hermes6bigint12_GLOBAL__N_113getDigitsWithINS1_26StringIntegerLiteralParserIN4llvh8ArrayRefIDsEEEES6_EESt8optionalINSt7__cxx1112basic_stringIcSt11char_traitsIcESaIcEEEET0_RhRNS0_10ParsedSignEPSE_(ptr sret(%"class.std::optional") align 8 %bigintDigits, ptr %4, i64 %6, ptr noundef nonnull align 1 dereferenceable(1) %radix, ptr noundef nonnull align 4 dereferenceable(4) %sign, ptr noundef %2)
  store i1 false, ptr %nrvo, align 1
  call void @_ZNSt8optionalISt6vectorIhSaIhEEEC2Ev(ptr noundef nonnull align 8 dereferenceable(32) %agg.result) #11
  %call = call noundef zeroext i1 @_ZNKSt8optionalINSt7__cxx1112basic_stringIcSt11char_traitsIcESaIcEEEEcvbEv(ptr noundef nonnull align 8 dereferenceable(40) %bigintDigits) #11
  br i1 %call, label %if.then, label %if.end11

if.then:                                          ; preds = %entry
  %call2 = call noundef nonnull align 8 dereferenceable(32) ptr @_ZNRSt8optionalINSt7__cxx1112basic_stringIcSt11char_traitsIcESaIcEEEEdeEv(ptr noundef nonnull align 8 dereferenceable(40) %bigintDigits) #11
  call void @_ZNSt7__cxx1112basic_stringIcSt11char_traitsIcESaIcEEC1ERKS4_(ptr noundef nonnull align 8 dereferenceable(32) %agg.tmp1, ptr noundef nonnull align 8 dereferenceable(32) %call2)
  %7 = load i8, ptr %radix, align 1
  %call3 = call noundef i32 @_ZN6hermes6bigint12_GLOBAL__N_122numBitsForBigintDigitsINSt7__cxx1112basic_stringIcSt11char_traitsIcESaIcEEEEEjT_h(ptr noundef %agg.tmp1, i8 noundef zeroext %7)
  %call5 = call noundef nonnull align 8 dereferenceable(32) ptr @_ZNRSt8optionalINSt7__cxx1112basic_stringIcSt11char_traitsIcESaIcEEEEdeEv(ptr noundef nonnull align 8 dereferenceable(40) %bigintDigits) #11
  store ptr %agg.tmp4, ptr %this.addr.i, align 8
  store ptr %call5, ptr %Str.addr.i, align 8
  %this1.i = load ptr, ptr %this.addr.i, align 8
  %8 = load ptr, ptr %Str.addr.i, align 8
  %call.i = call noundef ptr @_ZNKSt7__cxx1112basic_stringIcSt11char_traitsIcESaIcEE4dataEv(ptr noundef nonnull align 8 dereferenceable(32) %8) #11
  store ptr %call.i, ptr %this1.i, align 8
  %Length.i = getelementptr inbounds %"class.llvh::StringRef", ptr %this1.i, i32 0, i32 1
  %9 = load ptr, ptr %Str.addr.i, align 8
  %call2.i = call noundef i64 @_ZNKSt7__cxx1112basic_stringIcSt11char_traitsIcESaIcEE6lengthEv(ptr noundef nonnull align 8 dereferenceable(32) %9) #11
  store i64 %call2.i, ptr %Length.i, align 8
  %10 = load i8, ptr %radix, align 1
  %11 = getelementptr inbounds { ptr, i64 }, ptr %agg.tmp4, i32 0, i32 0
  %12 = load ptr, ptr %11, align 8
  %13 = getelementptr inbounds { ptr, i64 }, ptr %agg.tmp4, i32 0, i32 1
  %14 = load i64, ptr %13, align 8
  call void @_ZN4llvh5APIntC1EjNS_9StringRefEh(ptr noundef nonnull align 8 dereferenceable(12) %i, i32 noundef %call3, ptr %12, i64 %14, i8 noundef zeroext %10)
  call void @_ZNSt7__cxx1112basic_stringIcSt11char_traitsIcESaIcEED1Ev(ptr noundef nonnull align 8 dereferenceable(32) %agg.tmp1) #11
  %call6 = call noundef ptr @_ZNK4llvh5APInt10getRawDataEv(ptr noundef nonnull align 8 dereferenceable(12) %i)
  store ptr %call6, ptr %ptr, align 8
  %call7 = call noundef i32 @_ZNK4llvh5APInt11getNumWordsEv(ptr noundef nonnull align 8 dereferenceable(12) %i)
  %conv = zext i32 %call7 to i64
  %mul = mul i64 %conv, 8
  store i64 %mul, ptr %size, align 8
  %15 = load i32, ptr %sign, align 4
  %cmp = icmp eq i32 %15, -1
  br i1 %cmp, label %if.then8, label %if.end

if.then8:                                         ; preds = %if.then
  call void @_ZN4llvh5APInt6negateEv(ptr noundef nonnull align 8 dereferenceable(12) %i)
  br label %if.end

if.end:                                           ; preds = %if.then8, %if.then
  %16 = load ptr, ptr %ptr, align 8
  %17 = load ptr, ptr %ptr, align 8
  %18 = load i64, ptr %size, align 8
  %add.ptr = getelementptr inbounds i8, ptr %17, i64 %18
  call void @_ZNSaIhEC2Ev(ptr noundef nonnull align 1 dereferenceable(1) %ref.tmp9) #11
  call void @_ZNSt6vectorIhSaIhEEC2IPKhvEET_S5_RKS0_(ptr noundef nonnull align 8 dereferenceable(24) %ref.tmp, ptr noundef %16, ptr noundef %add.ptr, ptr noundef nonnull align 1 dereferenceable(1) %ref.tmp9)
  %call10 = call noundef nonnull align 8 dereferenceable(32) ptr @_ZNSt8optionalISt6vectorIhSaIhEEEaSIS2_EENSt9enable_ifIX7__and_vISt6__not_ISt7is_sameIS3_NSt9remove_cvINSt16remove_referenceIT_E4typeEE4typeEEES6_ISt6__and_IJSt9is_scalarIS2_ES7_IS2_NSt5decayISA_E4typeEEEEESt16is_constructibleIS2_JSA_EESt13is_assignableIRS2_SA_EEERS3_E4typeEOSA_(ptr noundef nonnull align 8 dereferenceable(32) %agg.result, ptr noundef nonnull align 8 dereferenceable(24) %ref.tmp) #11
  call void @_ZNSt6vectorIhSaIhEED2Ev(ptr noundef nonnull align 8 dereferenceable(24) %ref.tmp) #11
  call void @_ZNSaIhED2Ev(ptr noundef nonnull align 1 dereferenceable(1) %ref.tmp9) #11
  call void @_ZN4llvh5APIntD2Ev(ptr noundef nonnull align 8 dereferenceable(12) %i) #11
  br label %if.end11

if.end11:                                         ; preds = %if.end, %entry
  store i1 true, ptr %nrvo, align 1
  %nrvo.val = load i1, ptr %nrvo, align 1
  br i1 %nrvo.val, label %nrvo.skipdtor, label %nrvo.unused

nrvo.unused:                                      ; preds = %if.end11
  call void @_ZNSt8optionalISt6vectorIhSaIhEEED2Ev(ptr noundef nonnull align 8 dereferenceable(32) %agg.result) #11
  br label %nrvo.skipdtor

nrvo.skipdtor:                                    ; preds = %nrvo.unused, %if.end11
  call void @_ZNSt8optionalINSt7__cxx1112basic_stringIcSt11char_traitsIcESaIcEEEED2Ev(ptr noundef nonnull align 8 dereferenceable(40) %bigintDigits) #11
  ret void
}

; Function Attrs: mustprogress nounwind uwtable
define hidden void @_ZN6hermes6bigint12ParsedBigInt28parsedBigIntFromNumericValueEN4llvh9StringRefEPNSt7__cxx1112basic_stringIcSt11char_traitsIcESaIcEEE(ptr noalias sret(%"class.std::optional.7") align 8 %agg.result, ptr %input.coerce0, i64 %input.coerce1, ptr noundef %outError) #0 align 2 {
entry:
  %result.ptr = alloca ptr, align 8
  %input = alloca %"class.llvh::StringRef", align 8
  %outError.addr = alloca ptr, align 8
  %nrvo = alloca i1, align 1
  %maybeBytes = alloca %"class.std::optional.20", align 8
  %agg.tmp = alloca %"class.llvh::StringRef", align 8
  %ref.tmp = alloca %"class.hermes::bigint::ParsedBigInt", align 8
  %agg.tmp1 = alloca %"class.llvh::ArrayRef", align 8
  store ptr %agg.result, ptr %result.ptr, align 8
  %0 = getelementptr inbounds { ptr, i64 }, ptr %input, i32 0, i32 0
  store ptr %input.coerce0, ptr %0, align 8
  %1 = getelementptr inbounds { ptr, i64 }, ptr %input, i32 0, i32 1
  store i64 %input.coerce1, ptr %1, align 8
  store ptr %outError, ptr %outError.addr, align 8
  store i1 false, ptr %nrvo, align 1
  call void @_ZNSt8optionalIN6hermes6bigint12ParsedBigIntEEC2Ev(ptr noundef nonnull align 8 dereferenceable(32) %agg.result) #11
  call void @llvm.memcpy.p0.p0.i64(ptr align 8 %agg.tmp, ptr align 8 %input, i64 16, i1 false)
  %2 = load ptr, ptr %outError.addr, align 8
  %3 = getelementptr inbounds { ptr, i64 }, ptr %agg.tmp, i32 0, i32 0
  %4 = load ptr, ptr %3, align 8
  %5 = getelementptr inbounds { ptr, i64 }, ptr %agg.tmp, i32 0, i32 1
  %6 = load i64, ptr %5, align 8
  call void @_ZN6hermes6bigint12_GLOBAL__N_116parsedBigIntFromINS1_18NumericValueParserEN4llvh9StringRefEEESt8optionalISt6vectorIhSaIhEEET0_PNSt7__cxx1112basic_stringIcSt11char_traitsIcESaIcEEE(ptr sret(%"class.std::optional.20") align 8 %maybeBytes, ptr %4, i64 %6, ptr noundef %2)
  %call = call noundef zeroext i1 @_ZNKSt8optionalISt6vectorIhSaIhEEEcvbEv(ptr noundef nonnull align 8 dereferenceable(32) %maybeBytes) #11
  br i1 %call, label %if.then, label %if.end

if.then:                                          ; preds = %entry
  %call2 = call noundef nonnull align 8 dereferenceable(24) ptr @_ZNRSt8optionalISt6vectorIhSaIhEEEdeEv(ptr noundef nonnull align 8 dereferenceable(32) %maybeBytes) #11
  call void @_ZN4llvh8ArrayRefIhEC2ISaIhEEERKSt6vectorIhT_E(ptr noundef nonnull align 8 dereferenceable(16) %agg.tmp1, ptr noundef nonnull align 8 dereferenceable(24) %call2)
  %7 = getelementptr inbounds { ptr, i64 }, ptr %agg.tmp1, i32 0, i32 0
  %8 = load ptr, ptr %7, align 8
  %9 = getelementptr inbounds { ptr, i64 }, ptr %agg.tmp1, i32 0, i32 1
  %10 = load i64, ptr %9, align 8
  call void @_ZN6hermes6bigint12ParsedBigIntC2EN4llvh8ArrayRefIhEE(ptr noundef nonnull align 8 dereferenceable(24) %ref.tmp, ptr %8, i64 %10)
  %call3 = call noundef nonnull align 8 dereferenceable(32) ptr @_ZNSt8optionalIN6hermes6bigint12ParsedBigIntEEaSIS2_EENSt9enable_ifIX7__and_vISt6__not_ISt7is_sameIS3_NSt9remove_cvINSt16remove_referenceIT_E4typeEE4typeEEES6_ISt6__and_IJSt9is_scalarIS2_ES7_IS2_NSt5decayISA_E4typeEEEEESt16is_constructibleIS2_JSA_EESt13is_assignableIRS2_SA_EEERS3_E4typeEOSA_(ptr noundef nonnull align 8 dereferenceable(32) %agg.result, ptr noundef nonnull align 8 dereferenceable(24) %ref.tmp) #11
  call void @_ZN6hermes6bigint12ParsedBigIntD2Ev(ptr noundef nonnull align 8 dereferenceable(24) %ref.tmp) #11
  br label %if.end

if.end:                                           ; preds = %if.then, %entry
  call void @_ZNSt8optionalISt6vectorIhSaIhEEED2Ev(ptr noundef nonnull align 8 dereferenceable(32) %maybeBytes) #11
  store i1 true, ptr %nrvo, align 1
  %nrvo.val = load i1, ptr %nrvo, align 1
  br i1 %nrvo.val, label %nrvo.skipdtor, label %nrvo.unused

nrvo.unused:                                      ; preds = %if.end
  call void @_ZNSt8optionalIN6hermes6bigint12ParsedBigIntEED2Ev(ptr noundef nonnull align 8 dereferenceable(32) %agg.result) #11
  br label %nrvo.skipdtor

nrvo.skipdtor:                                    ; preds = %nrvo.unused, %if.end
  ret void
}

; Function Attrs: mustprogress nounwind uwtable
define internal void @_ZN6hermes6bigint12_GLOBAL__N_116parsedBigIntFromINS1_18NumericValueParserEN4llvh9StringRefEEESt8optionalISt6vectorIhSaIhEEET0_PNSt7__cxx1112basic_stringIcSt11char_traitsIcESaIcEEE(ptr noalias sret(%"class.std::optional.20") align 8 %agg.result, ptr %input.coerce0, i64 %input.coerce1, ptr noundef %outError) #0 {
entry:
  %this.addr.i = alloca ptr, align 8
  %Str.addr.i = alloca ptr, align 8
  %result.ptr = alloca ptr, align 8
  %input = alloca %"class.llvh::StringRef", align 8
  %outError.addr = alloca ptr, align 8
  %radix = alloca i8, align 1
  %sign = alloca i32, align 4
  %bigintDigits = alloca %"class.std::optional", align 8
  %agg.tmp = alloca %"class.llvh::StringRef", align 8
  %nrvo = alloca i1, align 1
  %i = alloca %"class.llvh::APInt", align 8
  %agg.tmp1 = alloca %"class.std::__cxx11::basic_string", align 8
  %agg.tmp4 = alloca %"class.llvh::StringRef", align 8
  %ptr = alloca ptr, align 8
  %size = alloca i64, align 8
  %ref.tmp = alloca %"class.std::vector", align 8
  %ref.tmp9 = alloca %"class.std::allocator.13", align 1
  store ptr %agg.result, ptr %result.ptr, align 8
  %0 = getelementptr inbounds { ptr, i64 }, ptr %input, i32 0, i32 0
  store ptr %input.coerce0, ptr %0, align 8
  %1 = getelementptr inbounds { ptr, i64 }, ptr %input, i32 0, i32 1
  store i64 %input.coerce1, ptr %1, align 8
  store ptr %outError, ptr %outError.addr, align 8
  call void @llvm.memcpy.p0.p0.i64(ptr align 8 %agg.tmp, ptr align 8 %input, i64 16, i1 false)
  %2 = load ptr, ptr %outError.addr, align 8
  %3 = getelementptr inbounds { ptr, i64 }, ptr %agg.tmp, i32 0, i32 0
  %4 = load ptr, ptr %3, align 8
  %5 = getelementptr inbounds { ptr, i64 }, ptr %agg.tmp, i32 0, i32 1
  %6 = load i64, ptr %5, align 8
  call void @_ZN6hermes6bigint12_GLOBAL__N_113getDigitsWithINS1_18NumericValueParserEN4llvh9StringRefEEESt8optionalINSt7__cxx1112basic_stringIcSt11char_traitsIcESaIcEEEET0_RhRNS0_10ParsedSignEPSC_(ptr sret(%"class.std::optional") align 8 %bigintDigits, ptr %4, i64 %6, ptr noundef nonnull align 1 dereferenceable(1) %radix, ptr noundef nonnull align 4 dereferenceable(4) %sign, ptr noundef %2)
  store i1 false, ptr %nrvo, align 1
  call void @_ZNSt8optionalISt6vectorIhSaIhEEEC2Ev(ptr noundef nonnull align 8 dereferenceable(32) %agg.result) #11
  %call = call noundef zeroext i1 @_ZNKSt8optionalINSt7__cxx1112basic_stringIcSt11char_traitsIcESaIcEEEEcvbEv(ptr noundef nonnull align 8 dereferenceable(40) %bigintDigits) #11
  br i1 %call, label %if.then, label %if.end11

if.then:                                          ; preds = %entry
  %call2 = call noundef nonnull align 8 dereferenceable(32) ptr @_ZNRSt8optionalINSt7__cxx1112basic_stringIcSt11char_traitsIcESaIcEEEEdeEv(ptr noundef nonnull align 8 dereferenceable(40) %bigintDigits) #11
  call void @_ZNSt7__cxx1112basic_stringIcSt11char_traitsIcESaIcEEC1ERKS4_(ptr noundef nonnull align 8 dereferenceable(32) %agg.tmp1, ptr noundef nonnull align 8 dereferenceable(32) %call2)
  %7 = load i8, ptr %radix, align 1
  %call3 = call noundef i32 @_ZN6hermes6bigint12_GLOBAL__N_122numBitsForBigintDigitsINSt7__cxx1112basic_stringIcSt11char_traitsIcESaIcEEEEEjT_h(ptr noundef %agg.tmp1, i8 noundef zeroext %7)
  %call5 = call noundef nonnull align 8 dereferenceable(32) ptr @_ZNRSt8optionalINSt7__cxx1112basic_stringIcSt11char_traitsIcESaIcEEEEdeEv(ptr noundef nonnull align 8 dereferenceable(40) %bigintDigits) #11
  store ptr %agg.tmp4, ptr %this.addr.i, align 8
  store ptr %call5, ptr %Str.addr.i, align 8
  %this1.i = load ptr, ptr %this.addr.i, align 8
  %8 = load ptr, ptr %Str.addr.i, align 8
  %call.i = call noundef ptr @_ZNKSt7__cxx1112basic_stringIcSt11char_traitsIcESaIcEE4dataEv(ptr noundef nonnull align 8 dereferenceable(32) %8) #11
  store ptr %call.i, ptr %this1.i, align 8
  %Length.i = getelementptr inbounds %"class.llvh::StringRef", ptr %this1.i, i32 0, i32 1
  %9 = load ptr, ptr %Str.addr.i, align 8
  %call2.i = call noundef i64 @_ZNKSt7__cxx1112basic_stringIcSt11char_traitsIcESaIcEE6lengthEv(ptr noundef nonnull align 8 dereferenceable(32) %9) #11
  store i64 %call2.i, ptr %Length.i, align 8
  %10 = load i8, ptr %radix, align 1
  %11 = getelementptr inbounds { ptr, i64 }, ptr %agg.tmp4, i32 0, i32 0
  %12 = load ptr, ptr %11, align 8
  %13 = getelementptr inbounds { ptr, i64 }, ptr %agg.tmp4, i32 0, i32 1
  %14 = load i64, ptr %13, align 8
  call void @_ZN4llvh5APIntC1EjNS_9StringRefEh(ptr noundef nonnull align 8 dereferenceable(12) %i, i32 noundef %call3, ptr %12, i64 %14, i8 noundef zeroext %10)
  call void @_ZNSt7__cxx1112basic_stringIcSt11char_traitsIcESaIcEED1Ev(ptr noundef nonnull align 8 dereferenceable(32) %agg.tmp1) #11
  %call6 = call noundef ptr @_ZNK4llvh5APInt10getRawDataEv(ptr noundef nonnull align 8 dereferenceable(12) %i)
  store ptr %call6, ptr %ptr, align 8
  %call7 = call noundef i32 @_ZNK4llvh5APInt11getNumWordsEv(ptr noundef nonnull align 8 dereferenceable(12) %i)
  %conv = zext i32 %call7 to i64
  %mul = mul i64 %conv, 8
  store i64 %mul, ptr %size, align 8
  %15 = load i32, ptr %sign, align 4
  %cmp = icmp eq i32 %15, -1
  br i1 %cmp, label %if.then8, label %if.end

if.then8:                                         ; preds = %if.then
  call void @_ZN4llvh5APInt6negateEv(ptr noundef nonnull align 8 dereferenceable(12) %i)
  br label %if.end

if.end:                                           ; preds = %if.then8, %if.then
  %16 = load ptr, ptr %ptr, align 8
  %17 = load ptr, ptr %ptr, align 8
  %18 = load i64, ptr %size, align 8
  %add.ptr = getelementptr inbounds i8, ptr %17, i64 %18
  call void @_ZNSaIhEC2Ev(ptr noundef nonnull align 1 dereferenceable(1) %ref.tmp9) #11
  call void @_ZNSt6vectorIhSaIhEEC2IPKhvEET_S5_RKS0_(ptr noundef nonnull align 8 dereferenceable(24) %ref.tmp, ptr noundef %16, ptr noundef %add.ptr, ptr noundef nonnull align 1 dereferenceable(1) %ref.tmp9)
  %call10 = call noundef nonnull align 8 dereferenceable(32) ptr @_ZNSt8optionalISt6vectorIhSaIhEEEaSIS2_EENSt9enable_ifIX7__and_vISt6__not_ISt7is_sameIS3_NSt9remove_cvINSt16remove_referenceIT_E4typeEE4typeEEES6_ISt6__and_IJSt9is_scalarIS2_ES7_IS2_NSt5decayISA_E4typeEEEEESt16is_constructibleIS2_JSA_EESt13is_assignableIRS2_SA_EEERS3_E4typeEOSA_(ptr noundef nonnull align 8 dereferenceable(32) %agg.result, ptr noundef nonnull align 8 dereferenceable(24) %ref.tmp) #11
  call void @_ZNSt6vectorIhSaIhEED2Ev(ptr noundef nonnull align 8 dereferenceable(24) %ref.tmp) #11
  call void @_ZNSaIhED2Ev(ptr noundef nonnull align 1 dereferenceable(1) %ref.tmp9) #11
  call void @_ZN4llvh5APIntD2Ev(ptr noundef nonnull align 8 dereferenceable(12) %i) #11
  br label %if.end11

if.end11:                                         ; preds = %if.end, %entry
  store i1 true, ptr %nrvo, align 1
  %nrvo.val = load i1, ptr %nrvo, align 1
  br i1 %nrvo.val, label %nrvo.skipdtor, label %nrvo.unused

nrvo.unused:                                      ; preds = %if.end11
  call void @_ZNSt8optionalISt6vectorIhSaIhEEED2Ev(ptr noundef nonnull align 8 dereferenceable(32) %agg.result) #11
  br label %nrvo.skipdtor

nrvo.skipdtor:                                    ; preds = %nrvo.unused, %if.end11
  call void @_ZNSt8optionalINSt7__cxx1112basic_stringIcSt11char_traitsIcESaIcEEEED2Ev(ptr noundef nonnull align 8 dereferenceable(40) %bigintDigits) #11
  ret void
}

; Function Attrs: mustprogress nounwind uwtable
define hidden void @_ZN6hermes6bigint8toStringB5cxx11ENS0_18ImmutableBigIntRefEh(ptr noalias sret(%"class.std::__cxx11::basic_string") align 8 %agg.result, ptr %src.coerce0, i32 %src.coerce1, i8 noundef zeroext %radix) #0 {
entry:
  %result.ptr = alloca ptr, align 8
  %src = alloca %"struct.hermes::bigint::ImmutableBigIntRef", align 8
  %radix.addr = alloca i8, align 1
  %agg.tmp = alloca %"struct.hermes::bigint::ImmutableBigIntRef", align 8
  %ref.tmp = alloca %"class.std::allocator", align 1
  %numBits = alloca i32, align 4
  %sign = alloca i8, align 1
  %agg.tmp2 = alloca %"struct.hermes::bigint::ImmutableBigIntRef", align 8
  %tmp = alloca %"class.llvh::APInt", align 8
  %agg.tmp4 = alloca %"class.llvh::ArrayRef.30", align 8
  %nrvo = alloca i1, align 1
  %quoc = alloca %"class.llvh::APInt", align 8
  %rem = alloca i64, align 8
  %agg.tmp26 = alloca %"class.__gnu_cxx::__normal_iterator", align 8
  %agg.tmp28 = alloca %"class.__gnu_cxx::__normal_iterator", align 8
  store ptr %agg.result, ptr %result.ptr, align 8
  %0 = getelementptr inbounds { ptr, i32 }, ptr %src, i32 0, i32 0
  store ptr %src.coerce0, ptr %0, align 8
  %1 = getelementptr inbounds { ptr, i32 }, ptr %src, i32 0, i32 1
  store i32 %src.coerce1, ptr %1, align 8
  store i8 %radix, ptr %radix.addr, align 1
  call void @llvm.memcpy.p0.p0.i64(ptr align 8 %agg.tmp, ptr align 8 %src, i64 16, i1 false)
  %2 = getelementptr inbounds { ptr, i32 }, ptr %agg.tmp, i32 0, i32 0
  %3 = load ptr, ptr %2, align 8
  %4 = getelementptr inbounds { ptr, i32 }, ptr %agg.tmp, i32 0, i32 1
  %5 = load i32, ptr %4, align 8
  %call = call noundef i32 @_ZN6hermes6bigint7compareENS0_18ImmutableBigIntRefEl(ptr %3, i32 %5, i64 noundef 0)
  %cmp = icmp eq i32 %call, 0
  br i1 %cmp, label %if.then, label %if.end

if.then:                                          ; preds = %entry
  call void @_ZNSaIcEC1Ev(ptr noundef nonnull align 1 dereferenceable(1) %ref.tmp) #11
  call void @_ZNSt7__cxx1112basic_stringIcSt11char_traitsIcESaIcEEC2IS3_EEPKcRKS3_(ptr noundef nonnull align 8 dereferenceable(32) %agg.result, ptr noundef @.str, ptr noundef nonnull align 1 dereferenceable(1) %ref.tmp)
  call void @_ZNSaIcED1Ev(ptr noundef nonnull align 1 dereferenceable(1) %ref.tmp) #11
  br label %return

if.end:                                           ; preds = %entry
  %numDigits = getelementptr inbounds %"struct.hermes::bigint::ImmutableBigIntRef", ptr %src, i32 0, i32 1
  %6 = load i32, ptr %numDigits, align 8
  %mul = mul i32 %6, 8
  %mul1 = mul i32 %mul, 8
  store i32 %mul1, ptr %numBits, align 4
  call void @llvm.memcpy.p0.p0.i64(ptr align 8 %agg.tmp2, ptr align 8 %src, i64 16, i1 false)
  %7 = getelementptr inbounds { ptr, i32 }, ptr %agg.tmp2, i32 0, i32 0
  %8 = load ptr, ptr %7, align 8
  %9 = getelementptr inbounds { ptr, i32 }, ptr %agg.tmp2, i32 0, i32 1
  %10 = load i32, ptr %9, align 8
  %call3 = call noundef zeroext i1 @_ZN6hermes6bigint10isNegativeENS0_18ImmutableBigIntRefE(ptr %8, i32 %10)
  %frombool = zext i1 %call3 to i8
  store i8 %frombool, ptr %sign, align 1
  %11 = load i32, ptr %numBits, align 4
  %digits = getelementptr inbounds %"struct.hermes::bigint::ImmutableBigIntRef", ptr %src, i32 0, i32 0
  %12 = load ptr, ptr %digits, align 8
  %numDigits5 = getelementptr inbounds %"struct.hermes::bigint::ImmutableBigIntRef", ptr %src, i32 0, i32 1
  %13 = load i32, ptr %numDigits5, align 8
  %conv = zext i32 %13 to i64
  %call6 = call { ptr, i64 } @_ZN4llvh12makeArrayRefImEENS_8ArrayRefIT_EEPKS2_m(ptr noundef %12, i64 noundef %conv)
  %14 = getelementptr inbounds { ptr, i64 }, ptr %agg.tmp4, i32 0, i32 0
  %15 = extractvalue { ptr, i64 } %call6, 0
  store ptr %15, ptr %14, align 8
  %16 = getelementptr inbounds { ptr, i64 }, ptr %agg.tmp4, i32 0, i32 1
  %17 = extractvalue { ptr, i64 } %call6, 1
  store i64 %17, ptr %16, align 8
  %18 = getelementptr inbounds { ptr, i64 }, ptr %agg.tmp4, i32 0, i32 0
  %19 = load ptr, ptr %18, align 8
  %20 = getelementptr inbounds { ptr, i64 }, ptr %agg.tmp4, i32 0, i32 1
  %21 = load i64, ptr %20, align 8
  call void @_ZN4llvh5APIntC1EjNS_8ArrayRefImEE(ptr noundef nonnull align 8 dereferenceable(12) %tmp, i32 noundef %11, ptr %19, i64 %21)
  %22 = load i8, ptr %sign, align 1
  %tobool = trunc i8 %22 to i1
  br i1 %tobool, label %if.then7, label %if.end8

if.then7:                                         ; preds = %if.end
  call void @_ZN4llvh5APInt6negateEv(ptr noundef nonnull align 8 dereferenceable(12) %tmp)
  br label %if.end8

if.end8:                                          ; preds = %if.then7, %if.end
  store i1 false, ptr %nrvo, align 1
  call void @_ZNSt7__cxx1112basic_stringIcSt11char_traitsIcESaIcEEC1Ev(ptr noundef nonnull align 8 dereferenceable(32) %agg.result) #11
  %numDigits9 = getelementptr inbounds %"struct.hermes::bigint::ImmutableBigIntRef", ptr %src, i32 0, i32 1
  %23 = load i32, ptr %numDigits9, align 8
  %24 = load i8, ptr %radix.addr, align 1
  %call10 = call noundef i32 @_ZN6hermes6bigint23maxCharsPerDigitInRadixEh(i8 noundef zeroext %24)
  %mul11 = mul i32 %23, %call10
  %add = add i32 1, %mul11
  %conv12 = zext i32 %add to i64
  call void @_ZNSt7__cxx1112basic_stringIcSt11char_traitsIcESaIcEE7reserveEm(ptr noundef nonnull align 8 dereferenceable(32) %agg.result, i64 noundef %conv12)
  br label %do.body

do.body:                                          ; preds = %do.cond, %if.end8
  call void @_ZN4llvh5APIntC2Ev(ptr noundef nonnull align 8 dereferenceable(12) %quoc)
  %25 = load i8, ptr %radix.addr, align 1
  %conv13 = zext i8 %25 to i64
  call void @_ZN4llvh5APInt7udivremERKS0_mRS0_Rm(ptr noundef nonnull align 8 dereferenceable(12) %tmp, i64 noundef %conv13, ptr noundef nonnull align 8 dereferenceable(12) %quoc, ptr noundef nonnull align 8 dereferenceable(8) %rem)
  %26 = load i64, ptr %rem, align 8
  %cmp14 = icmp ult i64 %26, 10
  br i1 %cmp14, label %if.then15, label %if.else

if.then15:                                        ; preds = %do.body
  %27 = load i64, ptr %rem, align 8
  %add16 = add i64 48, %27
  %conv17 = trunc i64 %add16 to i8
  call void @_ZNSt7__cxx1112basic_stringIcSt11char_traitsIcESaIcEE9push_backEc(ptr noundef nonnull align 8 dereferenceable(32) %agg.result, i8 noundef signext %conv17)
  br label %if.end20

if.else:                                          ; preds = %do.body
  %28 = load i64, ptr %rem, align 8
  %add18 = add i64 97, %28
  %sub = sub i64 %add18, 10
  %conv19 = trunc i64 %sub to i8
  call void @_ZNSt7__cxx1112basic_stringIcSt11char_traitsIcESaIcEE9push_backEc(ptr noundef nonnull align 8 dereferenceable(32) %agg.result, i8 noundef signext %conv19)
  br label %if.end20

if.end20:                                         ; preds = %if.else, %if.then15
  %call21 = call noundef nonnull align 8 dereferenceable(12) ptr @_ZN4llvh5APIntaSEOS0_(ptr noundef nonnull align 8 dereferenceable(12) %tmp, ptr noundef nonnull align 8 dereferenceable(12) %quoc)
  call void @_ZN4llvh5APIntD2Ev(ptr noundef nonnull align 8 dereferenceable(12) %quoc) #11
  br label %do.cond

do.cond:                                          ; preds = %if.end20
  %call22 = call noundef zeroext i1 @_ZNK4llvh5APIntneEm(ptr noundef nonnull align 8 dereferenceable(12) %tmp, i64 noundef 0)
  br i1 %call22, label %do.body, label %do.end, !llvm.loop !7

do.end:                                           ; preds = %do.cond
  %29 = load i8, ptr %sign, align 1
  %tobool23 = trunc i8 %29 to i1
  br i1 %tobool23, label %if.then24, label %if.end25

if.then24:                                        ; preds = %do.end
  call void @_ZNSt7__cxx1112basic_stringIcSt11char_traitsIcESaIcEE9push_backEc(ptr noundef nonnull align 8 dereferenceable(32) %agg.result, i8 noundef signext 45)
  br label %if.end25

if.end25:                                         ; preds = %if.then24, %do.end
  %call27 = call ptr @_ZNSt7__cxx1112basic_stringIcSt11char_traitsIcESaIcEE5beginEv(ptr noundef nonnull align 8 dereferenceable(32) %agg.result) #11
  %coerce.dive = getelementptr inbounds %"class.__gnu_cxx::__normal_iterator", ptr %agg.tmp26, i32 0, i32 0
  store ptr %call27, ptr %coerce.dive, align 8
  %call29 = call ptr @_ZNSt7__cxx1112basic_stringIcSt11char_traitsIcESaIcEE3endEv(ptr noundef nonnull align 8 dereferenceable(32) %agg.result) #11
  %coerce.dive30 = getelementptr inbounds %"class.__gnu_cxx::__normal_iterator", ptr %agg.tmp28, i32 0, i32 0
  store ptr %call29, ptr %coerce.dive30, align 8
  %coerce.dive31 = getelementptr inbounds %"class.__gnu_cxx::__normal_iterator", ptr %agg.tmp26, i32 0, i32 0
  %30 = load ptr, ptr %coerce.dive31, align 8
  %coerce.dive32 = getelementptr inbounds %"class.__gnu_cxx::__normal_iterator", ptr %agg.tmp28, i32 0, i32 0
  %31 = load ptr, ptr %coerce.dive32, align 8
  call void @_ZSt7reverseIN9__gnu_cxx17__normal_iteratorIPcNSt7__cxx1112basic_stringIcSt11char_traitsIcESaIcEEEEEEvT_SA_(ptr %30, ptr %31)
  store i1 true, ptr %nrvo, align 1
  %nrvo.val = load i1, ptr %nrvo, align 1
  br i1 %nrvo.val, label %nrvo.skipdtor, label %nrvo.unused

nrvo.unused:                                      ; preds = %if.end25
  call void @_ZNSt7__cxx1112basic_stringIcSt11char_traitsIcESaIcEED1Ev(ptr noundef nonnull align 8 dereferenceable(32) %agg.result) #11
  br label %nrvo.skipdtor

nrvo.skipdtor:                                    ; preds = %nrvo.unused, %if.end25
  call void @_ZN4llvh5APIntD2Ev(ptr noundef nonnull align 8 dereferenceable(12) %tmp) #11
  br label %return

return:                                           ; preds = %nrvo.skipdtor, %if.then
  ret void
}

; Function Attrs: mustprogress nounwind uwtable
define hidden noundef i32 @_ZN6hermes6bigint7compareENS0_18ImmutableBigIntRefEl(ptr %lhs.coerce0, i32 %lhs.coerce1, i64 noundef %rhs) #0 {
entry:
  %lhs = alloca %"struct.hermes::bigint::ImmutableBigIntRef", align 8
  %rhs.addr = alloca i64, align 8
  %agg.tmp = alloca %"struct.hermes::bigint::ImmutableBigIntRef", align 8
  %agg.tmp1 = alloca %"struct.hermes::bigint::ImmutableBigIntRef", align 8
  %0 = getelementptr inbounds { ptr, i32 }, ptr %lhs, i32 0, i32 0
  store ptr %lhs.coerce0, ptr %0, align 8
  %1 = getelementptr inbounds { ptr, i32 }, ptr %lhs, i32 0, i32 1
  store i32 %lhs.coerce1, ptr %1, align 8
  store i64 %rhs, ptr %rhs.addr, align 8
  call void @llvm.memcpy.p0.p0.i64(ptr align 8 %agg.tmp, ptr align 8 %lhs, i64 16, i1 false)
  %call = call { ptr, i32 } @_ZN6hermes6bigint12_GLOBAL__N_131makeImmutableRefFromSignedDigitERl(ptr noundef nonnull align 8 dereferenceable(8) %rhs.addr)
  %2 = getelementptr inbounds { ptr, i32 }, ptr %agg.tmp1, i32 0, i32 0
  %3 = extractvalue { ptr, i32 } %call, 0
  store ptr %3, ptr %2, align 8
  %4 = getelementptr inbounds { ptr, i32 }, ptr %agg.tmp1, i32 0, i32 1
  %5 = extractvalue { ptr, i32 } %call, 1
  store i32 %5, ptr %4, align 8
  %6 = getelementptr inbounds { ptr, i32 }, ptr %agg.tmp, i32 0, i32 0
  %7 = load ptr, ptr %6, align 8
  %8 = getelementptr inbounds { ptr, i32 }, ptr %agg.tmp, i32 0, i32 1
  %9 = load i32, ptr %8, align 8
  %10 = getelementptr inbounds { ptr, i32 }, ptr %agg.tmp1, i32 0, i32 0
  %11 = load ptr, ptr %10, align 8
  %12 = getelementptr inbounds { ptr, i32 }, ptr %agg.tmp1, i32 0, i32 1
  %13 = load i32, ptr %12, align 8
  %call2 = call noundef i32 @_ZN6hermes6bigint7compareENS0_18ImmutableBigIntRefES1_(ptr %7, i32 %9, ptr %11, i32 %13)
  ret i32 %call2
}

; Function Attrs: nounwind
declare void @_ZNSaIcEC1Ev(ptr noundef nonnull align 1 dereferenceable(1)) unnamed_addr #4

; Function Attrs: mustprogress nounwind uwtable
define linkonce_odr void @_ZNSt7__cxx1112basic_stringIcSt11char_traitsIcESaIcEEC2IS3_EEPKcRKS3_(ptr noundef nonnull align 8 dereferenceable(32) %this, ptr noundef %__s, ptr noundef nonnull align 1 dereferenceable(1) %__a) unnamed_addr #0 comdat align 2 {
entry:
  %this.addr = alloca ptr, align 8
  %__s.addr = alloca ptr, align 8
  %__a.addr = alloca ptr, align 8
  %__end = alloca ptr, align 8
  store ptr %this, ptr %this.addr, align 8
  store ptr %__s, ptr %__s.addr, align 8
  store ptr %__a, ptr %__a.addr, align 8
  %this1 = load ptr, ptr %this.addr, align 8
  %_M_dataplus = getelementptr inbounds %"class.std::__cxx11::basic_string", ptr %this1, i32 0, i32 0
  %call = call noundef ptr @_ZNSt7__cxx1112basic_stringIcSt11char_traitsIcESaIcEE13_M_local_dataEv(ptr noundef nonnull align 8 dereferenceable(32) %this1)
  %0 = load ptr, ptr %__a.addr, align 8
  call void @_ZNSt7__cxx1112basic_stringIcSt11char_traitsIcESaIcEE12_Alloc_hiderC1EPcRKS3_(ptr noundef nonnull align 8 dereferenceable(8) %_M_dataplus, ptr noundef %call, ptr noundef nonnull align 1 dereferenceable(1) %0)
  %1 = load ptr, ptr %__s.addr, align 8
  %cmp = icmp eq ptr %1, null
  br i1 %cmp, label %if.then, label %if.end

if.then:                                          ; preds = %entry
  call void @_ZSt19__throw_logic_errorPKc(ptr noundef @.str.8) #13
  unreachable

if.end:                                           ; preds = %entry
  %2 = load ptr, ptr %__s.addr, align 8
  %3 = load ptr, ptr %__s.addr, align 8
  %call2 = call noundef i64 @_ZNSt11char_traitsIcE6lengthEPKc(ptr noundef %3)
  %add.ptr = getelementptr inbounds i8, ptr %2, i64 %call2
  store ptr %add.ptr, ptr %__end, align 8
  %4 = load ptr, ptr %__s.addr, align 8
  %5 = load ptr, ptr %__end, align 8
  call void @_ZNSt7__cxx1112basic_stringIcSt11char_traitsIcESaIcEE12_M_constructIPKcEEvT_S8_St20forward_iterator_tag(ptr noundef nonnull align 8 dereferenceable(32) %this1, ptr noundef %4, ptr noundef %5)
  ret void
}

; Function Attrs: nounwind
declare void @_ZNSaIcED1Ev(ptr noundef nonnull align 1 dereferenceable(1)) unnamed_addr #4

; Function Attrs: mustprogress nounwind uwtable
define linkonce_odr hidden { ptr, i64 } @_ZN4llvh12makeArrayRefImEENS_8ArrayRefIT_EEPKS2_m(ptr noundef %data, i64 noundef %length) #0 comdat {
entry:
  %retval = alloca %"class.llvh::ArrayRef.30", align 8
  %data.addr = alloca ptr, align 8
  %length.addr = alloca i64, align 8
  store ptr %data, ptr %data.addr, align 8
  store i64 %length, ptr %length.addr, align 8
  %0 = load ptr, ptr %data.addr, align 8
  %1 = load i64, ptr %length.addr, align 8
  call void @_ZN4llvh8ArrayRefImEC2EPKmm(ptr noundef nonnull align 8 dereferenceable(16) %retval, ptr noundef %0, i64 noundef %1)
  %2 = load { ptr, i64 }, ptr %retval, align 8
  ret { ptr, i64 } %2
}

declare void @_ZN4llvh5APIntC1EjNS_8ArrayRefImEE(ptr noundef nonnull align 8 dereferenceable(12), i32 noundef, ptr, i64) unnamed_addr #3

; Function Attrs: mustprogress nounwind uwtable
define linkonce_odr hidden void @_ZN4llvh5APInt6negateEv(ptr noundef nonnull align 8 dereferenceable(12) %this) #0 comdat align 2 {
entry:
  %this.addr = alloca ptr, align 8
  store ptr %this, ptr %this.addr, align 8
  %this1 = load ptr, ptr %this.addr, align 8
  call void @_ZN4llvh5APInt11flipAllBitsEv(ptr noundef nonnull align 8 dereferenceable(12) %this1)
  %call = call noundef nonnull align 8 dereferenceable(12) ptr @_ZN4llvh5APIntppEv(ptr noundef nonnull align 8 dereferenceable(12) %this1)
  ret void
}

; Function Attrs: nounwind
declare void @_ZNSt7__cxx1112basic_stringIcSt11char_traitsIcESaIcEEC1Ev(ptr noundef nonnull align 8 dereferenceable(32)) unnamed_addr #4

declare void @_ZNSt7__cxx1112basic_stringIcSt11char_traitsIcESaIcEE7reserveEm(ptr noundef nonnull align 8 dereferenceable(32), i64 noundef) #3

; Function Attrs: mustprogress nounwind uwtable
define linkonce_odr hidden noundef i32 @_ZN6hermes6bigint23maxCharsPerDigitInRadixEh(i8 noundef zeroext %radix) #0 comdat {
entry:
  %radix.addr = alloca i8, align 1
  %minNumBitsPerChar = alloca i32, align 4
  %numCharsPerDigits = alloca i32, align 4
  store i8 %radix, ptr %radix.addr, align 1
  %0 = load i8, ptr %radix.addr, align 1
  %conv = zext i8 %0 to i32
  %cmp = icmp slt i32 %conv, 4
  br i1 %cmp, label %cond.true, label %cond.false

cond.true:                                        ; preds = %entry
  br label %cond.end14

cond.false:                                       ; preds = %entry
  %1 = load i8, ptr %radix.addr, align 1
  %conv1 = zext i8 %1 to i32
  %cmp2 = icmp slt i32 %conv1, 8
  br i1 %cmp2, label %cond.true3, label %cond.false4

cond.true3:                                       ; preds = %cond.false
  br label %cond.end12

cond.false4:                                      ; preds = %cond.false
  %2 = load i8, ptr %radix.addr, align 1
  %conv5 = zext i8 %2 to i32
  %cmp6 = icmp slt i32 %conv5, 16
  br i1 %cmp6, label %cond.true7, label %cond.false8

cond.true7:                                       ; preds = %cond.false4
  br label %cond.end

cond.false8:                                      ; preds = %cond.false4
  %3 = load i8, ptr %radix.addr, align 1
  %conv9 = zext i8 %3 to i32
  %cmp10 = icmp slt i32 %conv9, 32
  %cond = select i1 %cmp10, i32 4, i32 5
  br label %cond.end

cond.end:                                         ; preds = %cond.false8, %cond.true7
  %cond11 = phi i32 [ 3, %cond.true7 ], [ %cond, %cond.false8 ]
  br label %cond.end12

cond.end12:                                       ; preds = %cond.end, %cond.true3
  %cond13 = phi i32 [ 2, %cond.true3 ], [ %cond11, %cond.end ]
  br label %cond.end14

cond.end14:                                       ; preds = %cond.end12, %cond.true
  %cond15 = phi i32 [ 1, %cond.true ], [ %cond13, %cond.end12 ]
  store i32 %cond15, ptr %minNumBitsPerChar, align 4
  %4 = load i32, ptr %minNumBitsPerChar, align 4
  %shl = shl i32 1, %4
  %div = udiv i32 64, %shl
  store i32 %div, ptr %numCharsPerDigits, align 4
  %5 = load i32, ptr %numCharsPerDigits, align 4
  ret i32 %5
}

; Function Attrs: mustprogress nounwind uwtable
define linkonce_odr hidden void @_ZN4llvh5APIntC2Ev(ptr noundef nonnull align 8 dereferenceable(12) %this) unnamed_addr #0 comdat align 2 {
entry:
  %this.addr = alloca ptr, align 8
  store ptr %this, ptr %this.addr, align 8
  %this1 = load ptr, ptr %this.addr, align 8
  %BitWidth = getelementptr inbounds %"class.llvh::APInt", ptr %this1, i32 0, i32 1
  store i32 1, ptr %BitWidth, align 8
  %U2 = getelementptr inbounds %"class.llvh::APInt", ptr %this1, i32 0, i32 0
  store i64 0, ptr %U2, align 8
  ret void
}

declare void @_ZN4llvh5APInt7udivremERKS0_mRS0_Rm(ptr noundef nonnull align 8 dereferenceable(12), i64 noundef, ptr noundef nonnull align 8 dereferenceable(12), ptr noundef nonnull align 8 dereferenceable(8)) #3

declare void @_ZNSt7__cxx1112basic_stringIcSt11char_traitsIcESaIcEE9push_backEc(ptr noundef nonnull align 8 dereferenceable(32), i8 noundef signext) #3

; Function Attrs: mustprogress nounwind uwtable
define linkonce_odr hidden noundef nonnull align 8 dereferenceable(12) ptr @_ZN4llvh5APIntaSEOS0_(ptr noundef nonnull align 8 dereferenceable(12) %this, ptr noundef nonnull align 8 dereferenceable(12) %that) #0 comdat align 2 {
entry:
  %this.addr = alloca ptr, align 8
  %that.addr = alloca ptr, align 8
  store ptr %this, ptr %this.addr, align 8
  store ptr %that, ptr %that.addr, align 8
  %this1 = load ptr, ptr %this.addr, align 8
  %call = call noundef zeroext i1 @_ZNK4llvh5APInt12isSingleWordEv(ptr noundef nonnull align 8 dereferenceable(12) %this1)
  br i1 %call, label %if.end, label %if.then

if.then:                                          ; preds = %entry
  %U = getelementptr inbounds %"class.llvh::APInt", ptr %this1, i32 0, i32 0
  %0 = load ptr, ptr %U, align 8
  %isnull = icmp eq ptr %0, null
  br i1 %isnull, label %delete.end, label %delete.notnull

delete.notnull:                                   ; preds = %if.then
  call void @_ZdaPv(ptr noundef %0) #12
  br label %delete.end

delete.end:                                       ; preds = %delete.notnull, %if.then
  br label %if.end

if.end:                                           ; preds = %delete.end, %entry
  %U2 = getelementptr inbounds %"class.llvh::APInt", ptr %this1, i32 0, i32 0
  %1 = load ptr, ptr %that.addr, align 8
  %U3 = getelementptr inbounds %"class.llvh::APInt", ptr %1, i32 0, i32 0
  call void @llvm.memcpy.p0.p0.i64(ptr align 8 %U2, ptr align 8 %U3, i64 8, i1 false)
  %2 = load ptr, ptr %that.addr, align 8
  %BitWidth = getelementptr inbounds %"class.llvh::APInt", ptr %2, i32 0, i32 1
  %3 = load i32, ptr %BitWidth, align 8
  %BitWidth4 = getelementptr inbounds %"class.llvh::APInt", ptr %this1, i32 0, i32 1
  store i32 %3, ptr %BitWidth4, align 8
  %4 = load ptr, ptr %that.addr, align 8
  %BitWidth5 = getelementptr inbounds %"class.llvh::APInt", ptr %4, i32 0, i32 1
  store i32 0, ptr %BitWidth5, align 8
  ret ptr %this1
}

; Function Attrs: mustprogress nounwind uwtable
define linkonce_odr hidden noundef zeroext i1 @_ZNK4llvh5APIntneEm(ptr noundef nonnull align 8 dereferenceable(12) %this, i64 noundef %Val) #0 comdat align 2 {
entry:
  %this.addr = alloca ptr, align 8
  %Val.addr = alloca i64, align 8
  store ptr %this, ptr %this.addr, align 8
  store i64 %Val, ptr %Val.addr, align 8
  %this1 = load ptr, ptr %this.addr, align 8
  %0 = load i64, ptr %Val.addr, align 8
  %call = call noundef zeroext i1 @_ZNK4llvh5APInteqEm(ptr noundef nonnull align 8 dereferenceable(12) %this1, i64 noundef %0)
  %lnot = xor i1 %call, true
  ret i1 %lnot
}

; Function Attrs: mustprogress nounwind uwtable
define linkonce_odr void @_ZSt7reverseIN9__gnu_cxx17__normal_iteratorIPcNSt7__cxx1112basic_stringIcSt11char_traitsIcESaIcEEEEEEvT_SA_(ptr %__first.coerce, ptr %__last.coerce) #0 comdat {
entry:
  %__first = alloca %"class.__gnu_cxx::__normal_iterator", align 8
  %__last = alloca %"class.__gnu_cxx::__normal_iterator", align 8
  %agg.tmp = alloca %"class.__gnu_cxx::__normal_iterator", align 8
  %agg.tmp2 = alloca %"class.__gnu_cxx::__normal_iterator", align 8
  %coerce.dive = getelementptr inbounds %"class.__gnu_cxx::__normal_iterator", ptr %__first, i32 0, i32 0
  store ptr %__first.coerce, ptr %coerce.dive, align 8
  %coerce.dive1 = getelementptr inbounds %"class.__gnu_cxx::__normal_iterator", ptr %__last, i32 0, i32 0
  store ptr %__last.coerce, ptr %coerce.dive1, align 8
  call void @llvm.memcpy.p0.p0.i64(ptr align 8 %agg.tmp, ptr align 8 %__first, i64 8, i1 false)
  call void @llvm.memcpy.p0.p0.i64(ptr align 8 %agg.tmp2, ptr align 8 %__last, i64 8, i1 false)
  call void @_ZSt19__iterator_categoryIN9__gnu_cxx17__normal_iteratorIPcNSt7__cxx1112basic_stringIcSt11char_traitsIcESaIcEEEEEENSt15iterator_traitsIT_E17iterator_categoryERKSB_(ptr noundef nonnull align 8 dereferenceable(8) %__first)
  %coerce.dive4 = getelementptr inbounds %"class.__gnu_cxx::__normal_iterator", ptr %agg.tmp, i32 0, i32 0
  %0 = load ptr, ptr %coerce.dive4, align 8
  %coerce.dive5 = getelementptr inbounds %"class.__gnu_cxx::__normal_iterator", ptr %agg.tmp2, i32 0, i32 0
  %1 = load ptr, ptr %coerce.dive5, align 8
  call void @_ZSt9__reverseIN9__gnu_cxx17__normal_iteratorIPcNSt7__cxx1112basic_stringIcSt11char_traitsIcESaIcEEEEEEvT_SA_St26random_access_iterator_tag(ptr %0, ptr %1)
  ret void
}

; Function Attrs: nounwind
declare ptr @_ZNSt7__cxx1112basic_stringIcSt11char_traitsIcESaIcEE5beginEv(ptr noundef nonnull align 8 dereferenceable(32)) #4

; Function Attrs: nounwind
declare ptr @_ZNSt7__cxx1112basic_stringIcSt11char_traitsIcESaIcEE3endEv(ptr noundef nonnull align 8 dereferenceable(32)) #4

; Function Attrs: nounwind
declare void @_ZNSt7__cxx1112basic_stringIcSt11char_traitsIcESaIcEED1Ev(ptr noundef nonnull align 8 dereferenceable(32)) unnamed_addr #4

; Function Attrs: mustprogress nounwind uwtable
define hidden noundef i32 @_ZN6hermes6bigint8toStringERNSt7__cxx1112basic_stringIcSt11char_traitsIcESaIcEEEN4llvh8ArrayRefIhEEh(ptr noundef nonnull align 8 dereferenceable(32) %out, ptr %bytes.coerce0, i64 %bytes.coerce1, i8 noundef zeroext %radix) #0 {
entry:
  %retval = alloca i32, align 4
  %bytes = alloca %"class.llvh::ArrayRef", align 8
  %out.addr = alloca ptr, align 8
  %radix.addr = alloca i8, align 1
  %numDigits = alloca i32, align 4
  %tmp = alloca %"class.hermes::bigint::TmpStorage", align 8
  %dst = alloca %"struct.hermes::bigint::MutableBigIntRef", align 8
  %res = alloca i32, align 4
  %agg.tmp = alloca %"struct.hermes::bigint::MutableBigIntRef", align 8
  %agg.tmp5 = alloca %"class.llvh::ArrayRef", align 8
  %cleanup.dest.slot = alloca i32, align 4
  %ref.tmp = alloca %"class.std::__cxx11::basic_string", align 8
  %agg.tmp10 = alloca %"struct.hermes::bigint::ImmutableBigIntRef", align 8
  %0 = getelementptr inbounds { ptr, i64 }, ptr %bytes, i32 0, i32 0
  store ptr %bytes.coerce0, ptr %0, align 8
  %1 = getelementptr inbounds { ptr, i64 }, ptr %bytes, i32 0, i32 1
  store i64 %bytes.coerce1, ptr %1, align 8
  store ptr %out, ptr %out.addr, align 8
  store i8 %radix, ptr %radix.addr, align 1
  %call = call noundef i64 @_ZNK4llvh8ArrayRefIhE4sizeEv(ptr noundef nonnull align 8 dereferenceable(16) %bytes)
  %conv = trunc i64 %call to i32
  %call1 = call noundef i32 @_ZN6hermes6bigint23numDigitsForSizeInBytesEj(i32 noundef %conv)
  store i32 %call1, ptr %numDigits, align 4
  %2 = load i32, ptr %numDigits, align 4
  %call2 = call noundef zeroext i1 @_ZN6hermes6bigint13tooManyDigitsEj(i32 noundef %2)
  br i1 %call2, label %if.then, label %if.end

if.then:                                          ; preds = %entry
  store i32 2, ptr %retval, align 4
  br label %return

if.end:                                           ; preds = %entry
  %3 = load i32, ptr %numDigits, align 4
  call void @_ZN6hermes6bigint10TmpStorageC2Ej(ptr noundef nonnull align 8 dereferenceable(56) %tmp, i32 noundef %3)
  %digits = getelementptr inbounds %"struct.hermes::bigint::MutableBigIntRef", ptr %dst, i32 0, i32 0
  %4 = load i32, ptr %numDigits, align 4
  %call3 = call noundef ptr @_ZN6hermes6bigint10TmpStorage16requestNumDigitsEj(ptr noundef nonnull align 8 dereferenceable(56) %tmp, i32 noundef %4)
  store ptr %call3, ptr %digits, align 8
  %numDigits4 = getelementptr inbounds %"struct.hermes::bigint::MutableBigIntRef", ptr %dst, i32 0, i32 1
  store ptr %numDigits, ptr %numDigits4, align 8
  call void @llvm.memcpy.p0.p0.i64(ptr align 8 %agg.tmp, ptr align 8 %dst, i64 16, i1 false)
  call void @llvm.memcpy.p0.p0.i64(ptr align 8 %agg.tmp5, ptr align 8 %bytes, i64 16, i1 false)
  %5 = getelementptr inbounds { ptr, ptr }, ptr %agg.tmp, i32 0, i32 0
  %6 = load ptr, ptr %5, align 8
  %7 = getelementptr inbounds { ptr, ptr }, ptr %agg.tmp, i32 0, i32 1
  %8 = load ptr, ptr %7, align 8
  %9 = getelementptr inbounds { ptr, i64 }, ptr %agg.tmp5, i32 0, i32 0
  %10 = load ptr, ptr %9, align 8
  %11 = getelementptr inbounds { ptr, i64 }, ptr %agg.tmp5, i32 0, i32 1
  %12 = load i64, ptr %11, align 8
  %call6 = call noundef i32 @_ZN6hermes6bigint13initWithBytesENS0_16MutableBigIntRefEN4llvh8ArrayRefIhEE(ptr %6, ptr %8, ptr %10, i64 %12)
  store i32 %call6, ptr %res, align 4
  %13 = load i32, ptr %res, align 4
  %cmp = icmp ne i32 %13, 0
  br i1 %cmp, label %if.then8, label %if.end9

if.then8:                                         ; preds = %if.end
  %14 = load i32, ptr %res, align 4
  store i32 %14, ptr %retval, align 4
  store i32 1, ptr %cleanup.dest.slot, align 4
  br label %cleanup

if.end9:                                          ; preds = %if.end
  %digits11 = getelementptr inbounds %"struct.hermes::bigint::ImmutableBigIntRef", ptr %agg.tmp10, i32 0, i32 0
  %digits12 = getelementptr inbounds %"struct.hermes::bigint::MutableBigIntRef", ptr %dst, i32 0, i32 0
  %15 = load ptr, ptr %digits12, align 8
  store ptr %15, ptr %digits11, align 8
  %numDigits13 = getelementptr inbounds %"struct.hermes::bigint::ImmutableBigIntRef", ptr %agg.tmp10, i32 0, i32 1
  %numDigits14 = getelementptr inbounds %"struct.hermes::bigint::MutableBigIntRef", ptr %dst, i32 0, i32 1
  %16 = load ptr, ptr %numDigits14, align 8
  %17 = load i32, ptr %16, align 4
  store i32 %17, ptr %numDigits13, align 8
  %18 = load i8, ptr %radix.addr, align 1
  %19 = getelementptr inbounds { ptr, i32 }, ptr %agg.tmp10, i32 0, i32 0
  %20 = load ptr, ptr %19, align 8
  %21 = getelementptr inbounds { ptr, i32 }, ptr %agg.tmp10, i32 0, i32 1
  %22 = load i32, ptr %21, align 8
  call void @_ZN6hermes6bigint8toStringB5cxx11ENS0_18ImmutableBigIntRefEh(ptr sret(%"class.std::__cxx11::basic_string") align 8 %ref.tmp, ptr %20, i32 %22, i8 noundef zeroext %18)
  %23 = load ptr, ptr %out.addr, align 8
  %call15 = call noundef nonnull align 8 dereferenceable(32) ptr @_ZNSt7__cxx1112basic_stringIcSt11char_traitsIcESaIcEEaSEOS4_(ptr noundef nonnull align 8 dereferenceable(32) %23, ptr noundef nonnull align 8 dereferenceable(32) %ref.tmp) #11
  call void @_ZNSt7__cxx1112basic_stringIcSt11char_traitsIcESaIcEED1Ev(ptr noundef nonnull align 8 dereferenceable(32) %ref.tmp) #11
  store i32 0, ptr %retval, align 4
  store i32 1, ptr %cleanup.dest.slot, align 4
  br label %cleanup

cleanup:                                          ; preds = %if.end9, %if.then8
  call void @_ZN6hermes6bigint10TmpStorageD2Ev(ptr noundef nonnull align 8 dereferenceable(56) %tmp) #11
  br label %return

return:                                           ; preds = %cleanup, %if.then
  %24 = load i32, ptr %retval, align 4
  ret i32 %24
}

; Function Attrs: mustprogress nounwind uwtable
define linkonce_odr hidden noundef i32 @_ZN6hermes6bigint23numDigitsForSizeInBytesEj(i32 noundef %v) #0 comdat {
entry:
  %v.addr = alloca i32, align 4
  store i32 %v, ptr %v.addr, align 4
  %0 = load i32, ptr %v.addr, align 4
  %conv = zext i32 %0 to i64
  %call = call noundef i64 @_ZN4llvh7alignToEmmm(i64 noundef %conv, i64 noundef 8, i64 noundef 0)
  %conv1 = trunc i64 %call to i32
  %div = udiv i32 %conv1, 8
  ret i32 %div
}

; Function Attrs: mustprogress nounwind uwtable
define linkonce_odr hidden noundef zeroext i1 @_ZN6hermes6bigint13tooManyDigitsEj(i32 noundef %numDigits) #0 comdat {
entry:
  %numDigits.addr = alloca i32, align 4
  store i32 %numDigits, ptr %numDigits.addr, align 4
  %0 = load i32, ptr %numDigits.addr, align 4
  %cmp = icmp ult i32 1024, %0
  ret i1 %cmp
}

; Function Attrs: nounwind
declare noundef nonnull align 8 dereferenceable(32) ptr @_ZNSt7__cxx1112basic_stringIcSt11char_traitsIcESaIcEEaSEOS4_(ptr noundef nonnull align 8 dereferenceable(32), ptr noundef nonnull align 8 dereferenceable(32)) #4

; Function Attrs: mustprogress nounwind uwtable
define hidden noundef i32 @_ZN6hermes6bigint7compareENS0_18ImmutableBigIntRefES1_(ptr %lhs.coerce0, i32 %lhs.coerce1, ptr %rhs.coerce0, i32 %rhs.coerce1) #0 {
entry:
  %retval = alloca i32, align 4
  %lhs = alloca %"struct.hermes::bigint::ImmutableBigIntRef", align 8
  %rhs = alloca %"struct.hermes::bigint::ImmutableBigIntRef", align 8
  %kLhsGreater = alloca i32, align 4
  %kRhsGreater = alloca i32, align 4
  %lhsSign = alloca i8, align 1
  %agg.tmp = alloca %"struct.hermes::bigint::ImmutableBigIntRef", align 8
  %rhsSign = alloca i8, align 1
  %agg.tmp1 = alloca %"struct.hermes::bigint::ImmutableBigIntRef", align 8
  %result = alloca i32, align 4
  %0 = getelementptr inbounds { ptr, i32 }, ptr %lhs, i32 0, i32 0
  store ptr %lhs.coerce0, ptr %0, align 8
  %1 = getelementptr inbounds { ptr, i32 }, ptr %lhs, i32 0, i32 1
  store i32 %lhs.coerce1, ptr %1, align 8
  %2 = getelementptr inbounds { ptr, i32 }, ptr %rhs, i32 0, i32 0
  store ptr %rhs.coerce0, ptr %2, align 8
  %3 = getelementptr inbounds { ptr, i32 }, ptr %rhs, i32 0, i32 1
  store i32 %rhs.coerce1, ptr %3, align 8
  store i32 1, ptr %kLhsGreater, align 4
  store i32 -1, ptr %kRhsGreater, align 4
  call void @llvm.memcpy.p0.p0.i64(ptr align 8 %agg.tmp, ptr align 8 %lhs, i64 16, i1 false)
  %4 = getelementptr inbounds { ptr, i32 }, ptr %agg.tmp, i32 0, i32 0
  %5 = load ptr, ptr %4, align 8
  %6 = getelementptr inbounds { ptr, i32 }, ptr %agg.tmp, i32 0, i32 1
  %7 = load i32, ptr %6, align 8
  %call = call noundef zeroext i1 @_ZN6hermes6bigint10isNegativeENS0_18ImmutableBigIntRefE(ptr %5, i32 %7)
  %frombool = zext i1 %call to i8
  store i8 %frombool, ptr %lhsSign, align 1
  call void @llvm.memcpy.p0.p0.i64(ptr align 8 %agg.tmp1, ptr align 8 %rhs, i64 16, i1 false)
  %8 = getelementptr inbounds { ptr, i32 }, ptr %agg.tmp1, i32 0, i32 0
  %9 = load ptr, ptr %8, align 8
  %10 = getelementptr inbounds { ptr, i32 }, ptr %agg.tmp1, i32 0, i32 1
  %11 = load i32, ptr %10, align 8
  %call2 = call noundef zeroext i1 @_ZN6hermes6bigint10isNegativeENS0_18ImmutableBigIntRefE(ptr %9, i32 %11)
  %frombool3 = zext i1 %call2 to i8
  store i8 %frombool3, ptr %rhsSign, align 1
  %12 = load i8, ptr %lhsSign, align 1
  %tobool = trunc i8 %12 to i1
  %conv = zext i1 %tobool to i32
  %13 = load i8, ptr %rhsSign, align 1
  %tobool4 = trunc i8 %13 to i1
  %conv5 = zext i1 %tobool4 to i32
  %cmp = icmp ne i32 %conv, %conv5
  br i1 %cmp, label %if.then, label %if.end

if.then:                                          ; preds = %entry
  %14 = load i8, ptr %lhsSign, align 1
  %tobool6 = trunc i8 %14 to i1
  %cond = select i1 %tobool6, i32 -1, i32 1
  store i32 %cond, ptr %retval, align 4
  br label %return

if.end:                                           ; preds = %entry
  %numDigits = getelementptr inbounds %"struct.hermes::bigint::ImmutableBigIntRef", ptr %lhs, i32 0, i32 1
  %15 = load i32, ptr %numDigits, align 8
  %numDigits7 = getelementptr inbounds %"struct.hermes::bigint::ImmutableBigIntRef", ptr %rhs, i32 0, i32 1
  %16 = load i32, ptr %numDigits7, align 8
  %cmp8 = icmp eq i32 %15, %16
  br i1 %cmp8, label %if.then9, label %if.else

if.then9:                                         ; preds = %if.end
  %digits = getelementptr inbounds %"struct.hermes::bigint::ImmutableBigIntRef", ptr %lhs, i32 0, i32 0
  %17 = load ptr, ptr %digits, align 8
  %digits10 = getelementptr inbounds %"struct.hermes::bigint::ImmutableBigIntRef", ptr %rhs, i32 0, i32 0
  %18 = load ptr, ptr %digits10, align 8
  %numDigits11 = getelementptr inbounds %"struct.hermes::bigint::ImmutableBigIntRef", ptr %lhs, i32 0, i32 1
  %19 = load i32, ptr %numDigits11, align 8
  %call12 = call noundef i32 @_ZN4llvh5APInt9tcCompareEPKmS2_j(ptr noundef %17, ptr noundef %18, i32 noundef %19)
  store i32 %call12, ptr %result, align 4
  br label %if.end25

if.else:                                          ; preds = %if.end
  %20 = load i8, ptr %lhsSign, align 1
  %tobool13 = trunc i8 %20 to i1
  br i1 %tobool13, label %if.then14, label %if.else19

if.then14:                                        ; preds = %if.else
  %numDigits15 = getelementptr inbounds %"struct.hermes::bigint::ImmutableBigIntRef", ptr %lhs, i32 0, i32 1
  %21 = load i32, ptr %numDigits15, align 8
  %numDigits16 = getelementptr inbounds %"struct.hermes::bigint::ImmutableBigIntRef", ptr %rhs, i32 0, i32 1
  %22 = load i32, ptr %numDigits16, align 8
  %cmp17 = icmp ult i32 %21, %22
  %cond18 = select i1 %cmp17, i32 1, i32 -1
  store i32 %cond18, ptr %result, align 4
  br label %if.end24

if.else19:                                        ; preds = %if.else
  %numDigits20 = getelementptr inbounds %"struct.hermes::bigint::ImmutableBigIntRef", ptr %lhs, i32 0, i32 1
  %23 = load i32, ptr %numDigits20, align 8
  %numDigits21 = getelementptr inbounds %"struct.hermes::bigint::ImmutableBigIntRef", ptr %rhs, i32 0, i32 1
  %24 = load i32, ptr %numDigits21, align 8
  %cmp22 = icmp ult i32 %23, %24
  %cond23 = select i1 %cmp22, i32 -1, i32 1
  store i32 %cond23, ptr %result, align 4
  br label %if.end24

if.end24:                                         ; preds = %if.else19, %if.then14
  br label %if.end25

if.end25:                                         ; preds = %if.end24, %if.then9
  %25 = load i32, ptr %result, align 4
  store i32 %25, ptr %retval, align 4
  br label %return

return:                                           ; preds = %if.end25, %if.then
  %26 = load i32, ptr %retval, align 4
  ret i32 %26
}

declare noundef i32 @_ZN4llvh5APInt9tcCompareEPKmS2_j(ptr noundef, ptr noundef, i32 noundef) #3

; Function Attrs: mustprogress nounwind uwtable
define internal { ptr, i32 } @_ZN6hermes6bigint12_GLOBAL__N_131makeImmutableRefFromSignedDigitERl(ptr noundef nonnull align 8 dereferenceable(8) %digit) #0 {
entry:
  %retval = alloca %"struct.hermes::bigint::ImmutableBigIntRef", align 8
  %digit.addr = alloca ptr, align 8
  %numDigits = alloca i32, align 4
  %mr = alloca %"struct.hermes::bigint::MutableBigIntRef", align 8
  store ptr %digit, ptr %digit.addr, align 8
  store i32 1, ptr %numDigits, align 4
  %digits = getelementptr inbounds %"struct.hermes::bigint::MutableBigIntRef", ptr %mr, i32 0, i32 0
  %0 = load ptr, ptr %digit.addr, align 8
  store ptr %0, ptr %digits, align 8
  %numDigits1 = getelementptr inbounds %"struct.hermes::bigint::MutableBigIntRef", ptr %mr, i32 0, i32 1
  store ptr %numDigits, ptr %numDigits1, align 8
  call void @_ZN6hermes6bigint12_GLOBAL__N_121ensureCanonicalResultERNS0_16MutableBigIntRefE(ptr noundef nonnull align 8 dereferenceable(16) %mr)
  %digits2 = getelementptr inbounds %"struct.hermes::bigint::ImmutableBigIntRef", ptr %retval, i32 0, i32 0
  %1 = load ptr, ptr %digit.addr, align 8
  store ptr %1, ptr %digits2, align 8
  %numDigits3 = getelementptr inbounds %"struct.hermes::bigint::ImmutableBigIntRef", ptr %retval, i32 0, i32 1
  %2 = load i32, ptr %numDigits, align 4
  store i32 %2, ptr %numDigits3, align 8
  %3 = load { ptr, i32 }, ptr %retval, align 8
  ret { ptr, i32 } %3
}

; Function Attrs: mustprogress nounwind uwtable
define hidden noundef zeroext i1 @_ZN6hermes6bigint31isSingleDigitTruncationLosslessENS0_18ImmutableBigIntRefEb(ptr %src.coerce0, i32 %src.coerce1, i1 noundef zeroext %signedTruncation) #0 {
entry:
  %retval = alloca i1, align 1
  %src = alloca %"struct.hermes::bigint::ImmutableBigIntRef", align 8
  %signedTruncation.addr = alloca i8, align 1
  %0 = getelementptr inbounds { ptr, i32 }, ptr %src, i32 0, i32 0
  store ptr %src.coerce0, ptr %0, align 8
  %1 = getelementptr inbounds { ptr, i32 }, ptr %src, i32 0, i32 1
  store i32 %src.coerce1, ptr %1, align 8
  %frombool = zext i1 %signedTruncation to i8
  store i8 %frombool, ptr %signedTruncation.addr, align 1
  %numDigits = getelementptr inbounds %"struct.hermes::bigint::ImmutableBigIntRef", ptr %src, i32 0, i32 1
  %2 = load i32, ptr %numDigits, align 8
  %cmp = icmp eq i32 %2, 0
  br i1 %cmp, label %if.then, label %if.end

if.then:                                          ; preds = %entry
  store i1 true, ptr %retval, align 1
  br label %return

if.end:                                           ; preds = %entry
  %3 = load i8, ptr %signedTruncation.addr, align 1
  %tobool = trunc i8 %3 to i1
  br i1 %tobool, label %if.then1, label %if.end4

if.then1:                                         ; preds = %if.end
  %numDigits2 = getelementptr inbounds %"struct.hermes::bigint::ImmutableBigIntRef", ptr %src, i32 0, i32 1
  %4 = load i32, ptr %numDigits2, align 8
  %cmp3 = icmp eq i32 %4, 1
  store i1 %cmp3, ptr %retval, align 1
  br label %return

if.end4:                                          ; preds = %if.end
  %numDigits5 = getelementptr inbounds %"struct.hermes::bigint::ImmutableBigIntRef", ptr %src, i32 0, i32 1
  %5 = load i32, ptr %numDigits5, align 8
  %cmp6 = icmp eq i32 %5, 1
  br i1 %cmp6, label %land.lhs.true, label %lor.rhs

land.lhs.true:                                    ; preds = %if.end4
  %digits = getelementptr inbounds %"struct.hermes::bigint::ImmutableBigIntRef", ptr %src, i32 0, i32 0
  %6 = load ptr, ptr %digits, align 8
  %arrayidx = getelementptr inbounds i64, ptr %6, i64 0
  %7 = load i64, ptr %arrayidx, align 8
  %call = call noundef i64 @_ZNSt14numeric_limitsIlE3maxEv() #11
  %cmp7 = icmp ule i64 %7, %call
  br i1 %cmp7, label %lor.end, label %lor.rhs

lor.rhs:                                          ; preds = %land.lhs.true, %if.end4
  %numDigits8 = getelementptr inbounds %"struct.hermes::bigint::ImmutableBigIntRef", ptr %src, i32 0, i32 1
  %8 = load i32, ptr %numDigits8, align 8
  %cmp9 = icmp eq i32 %8, 2
  br i1 %cmp9, label %land.rhs, label %land.end

land.rhs:                                         ; preds = %lor.rhs
  %digits10 = getelementptr inbounds %"struct.hermes::bigint::ImmutableBigIntRef", ptr %src, i32 0, i32 0
  %9 = load ptr, ptr %digits10, align 8
  %arrayidx11 = getelementptr inbounds i64, ptr %9, i64 1
  %10 = load i64, ptr %arrayidx11, align 8
  %cmp12 = icmp eq i64 %10, 0
  br label %land.end

land.end:                                         ; preds = %land.rhs, %lor.rhs
  %11 = phi i1 [ false, %lor.rhs ], [ %cmp12, %land.rhs ]
  br label %lor.end

lor.end:                                          ; preds = %land.end, %land.lhs.true
  %12 = phi i1 [ true, %land.lhs.true ], [ %11, %land.end ]
  store i1 %12, ptr %retval, align 1
  br label %return

return:                                           ; preds = %lor.end, %if.then1, %if.then
  %13 = load i1, ptr %retval, align 1
  ret i1 %13
}

; Function Attrs: mustprogress nounwind uwtable
define linkonce_odr noundef i64 @_ZNSt14numeric_limitsIlE3maxEv() #0 comdat align 2 {
entry:
  ret i64 9223372036854775807
}

; Function Attrs: mustprogress nounwind uwtable
define hidden noundef i32 @_ZN6hermes6bigint17asUintNResultSizeEmNS0_18ImmutableBigIntRefERj(i64 noundef %n, ptr %src.coerce0, i32 %src.coerce1, ptr noundef nonnull align 4 dereferenceable(4) %resultSize) #0 {
entry:
  %retval = alloca i32, align 4
  %src = alloca %"struct.hermes::bigint::ImmutableBigIntRef", align 8
  %n.addr = alloca i64, align 8
  %resultSize.addr = alloca ptr, align 8
  %numBitsSrc = alloca i64, align 8
  %numBitsResult = alloca i64, align 8
  %agg.tmp = alloca %"struct.hermes::bigint::ImmutableBigIntRef", align 8
  %0 = getelementptr inbounds { ptr, i32 }, ptr %src, i32 0, i32 0
  store ptr %src.coerce0, ptr %0, align 8
  %1 = getelementptr inbounds { ptr, i32 }, ptr %src, i32 0, i32 1
  store i32 %src.coerce1, ptr %1, align 8
  store i64 %n, ptr %n.addr, align 8
  store ptr %resultSize, ptr %resultSize.addr, align 8
  %numDigits = getelementptr inbounds %"struct.hermes::bigint::ImmutableBigIntRef", ptr %src, i32 0, i32 1
  %2 = load i32, ptr %numDigits, align 8
  %mul = mul i32 %2, 64
  %conv = zext i32 %mul to i64
  store i64 %conv, ptr %numBitsSrc, align 8
  call void @llvm.memcpy.p0.p0.i64(ptr align 8 %agg.tmp, ptr align 8 %src, i64 16, i1 false)
  %3 = getelementptr inbounds { ptr, i32 }, ptr %agg.tmp, i32 0, i32 0
  %4 = load ptr, ptr %3, align 8
  %5 = getelementptr inbounds { ptr, i32 }, ptr %agg.tmp, i32 0, i32 1
  %6 = load i32, ptr %5, align 8
  %call = call noundef zeroext i1 @_ZN6hermes6bigint10isNegativeENS0_18ImmutableBigIntRefE(ptr %4, i32 %6)
  br i1 %call, label %if.else, label %if.then

if.then:                                          ; preds = %entry
  %call1 = call noundef nonnull align 8 dereferenceable(8) ptr @_ZSt3minImERKT_S2_S2_(ptr noundef nonnull align 8 dereferenceable(8) %n.addr, ptr noundef nonnull align 8 dereferenceable(8) %numBitsSrc)
  %7 = load i64, ptr %call1, align 8
  %add = add i64 %7, 1
  store i64 %add, ptr %numBitsResult, align 8
  br label %if.end

if.else:                                          ; preds = %entry
  %8 = load i64, ptr %n.addr, align 8
  %add2 = add i64 %8, 1
  store i64 %add2, ptr %numBitsResult, align 8
  br label %if.end

if.end:                                           ; preds = %if.else, %if.then
  %9 = load i64, ptr %numBitsResult, align 8
  %cmp = icmp ugt i64 %9, 65536
  br i1 %cmp, label %if.then3, label %if.end4

if.then3:                                         ; preds = %if.end
  store i32 2, ptr %retval, align 4
  br label %return

if.end4:                                          ; preds = %if.end
  %10 = load i64, ptr %numBitsResult, align 8
  %conv5 = trunc i64 %10 to i32
  %call6 = call noundef i32 @_ZN6hermes6bigint22numDigitsForSizeInBitsEj(i32 noundef %conv5)
  %11 = load ptr, ptr %resultSize.addr, align 8
  store i32 %call6, ptr %11, align 4
  store i32 0, ptr %retval, align 4
  br label %return

return:                                           ; preds = %if.end4, %if.then3
  %12 = load i32, ptr %retval, align 4
  ret i32 %12
}

; Function Attrs: mustprogress nounwind uwtable
define linkonce_odr noundef nonnull align 8 dereferenceable(8) ptr @_ZSt3minImERKT_S2_S2_(ptr noundef nonnull align 8 dereferenceable(8) %__a, ptr noundef nonnull align 8 dereferenceable(8) %__b) #0 comdat {
entry:
  %retval = alloca ptr, align 8
  %__a.addr = alloca ptr, align 8
  %__b.addr = alloca ptr, align 8
  store ptr %__a, ptr %__a.addr, align 8
  store ptr %__b, ptr %__b.addr, align 8
  %0 = load ptr, ptr %__b.addr, align 8
  %1 = load i64, ptr %0, align 8
  %2 = load ptr, ptr %__a.addr, align 8
  %3 = load i64, ptr %2, align 8
  %cmp = icmp ult i64 %1, %3
  br i1 %cmp, label %if.then, label %if.end

if.then:                                          ; preds = %entry
  %4 = load ptr, ptr %__b.addr, align 8
  store ptr %4, ptr %retval, align 8
  br label %return

if.end:                                           ; preds = %entry
  %5 = load ptr, ptr %__a.addr, align 8
  store ptr %5, ptr %retval, align 8
  br label %return

return:                                           ; preds = %if.end, %if.then
  %6 = load ptr, ptr %retval, align 8
  ret ptr %6
}

; Function Attrs: mustprogress nounwind uwtable
define hidden noundef i32 @_ZN6hermes6bigint16asIntNResultSizeEmNS0_18ImmutableBigIntRefE(i64 noundef %n, ptr %src.coerce0, i32 %src.coerce1) #0 {
entry:
  %src = alloca %"struct.hermes::bigint::ImmutableBigIntRef", align 8
  %n.addr = alloca i64, align 8
  %numDigitsN = alloca i64, align 8
  %ref.tmp = alloca i64, align 8
  %0 = getelementptr inbounds { ptr, i32 }, ptr %src, i32 0, i32 0
  store ptr %src.coerce0, ptr %0, align 8
  %1 = getelementptr inbounds { ptr, i32 }, ptr %src, i32 0, i32 1
  store i32 %src.coerce1, ptr %1, align 8
  store i64 %n, ptr %n.addr, align 8
  %2 = load i64, ptr %n.addr, align 8
  %conv = trunc i64 %2 to i32
  %call = call noundef i32 @_ZN6hermes6bigint22numDigitsForSizeInBitsEj(i32 noundef %conv)
  %conv1 = zext i32 %call to i64
  store i64 %conv1, ptr %numDigitsN, align 8
  %numDigits = getelementptr inbounds %"struct.hermes::bigint::ImmutableBigIntRef", ptr %src, i32 0, i32 1
  %3 = load i32, ptr %numDigits, align 8
  %conv2 = zext i32 %3 to i64
  store i64 %conv2, ptr %ref.tmp, align 8
  %call3 = call noundef nonnull align 8 dereferenceable(8) ptr @_ZSt3minImERKT_S2_S2_(ptr noundef nonnull align 8 dereferenceable(8) %ref.tmp, ptr noundef nonnull align 8 dereferenceable(8) %numDigitsN)
  %4 = load i64, ptr %call3, align 8
  %conv4 = trunc i64 %4 to i32
  ret i32 %conv4
}

; Function Attrs: mustprogress nounwind uwtable
define hidden noundef i32 @_ZN6hermes6bigint7asUintNENS0_16MutableBigIntRefEmNS0_18ImmutableBigIntRefE(ptr %dst.coerce0, ptr %dst.coerce1, i64 noundef %n, ptr %src.coerce0, i32 %src.coerce1) #0 {
entry:
  %retval = alloca i32, align 4
  %dst = alloca %"struct.hermes::bigint::MutableBigIntRef", align 8
  %src = alloca %"struct.hermes::bigint::ImmutableBigIntRef", align 8
  %n.addr = alloca i64, align 8
  %numDigits = alloca i32, align 4
  %s = alloca i32, align 4
  %agg.tmp = alloca %"struct.hermes::bigint::ImmutableBigIntRef", align 8
  %agg.tmp1 = alloca %"struct.hermes::bigint::MutableBigIntRef", align 8
  %agg.tmp2 = alloca %"struct.hermes::bigint::ImmutableBigIntRef", align 8
  %0 = getelementptr inbounds { ptr, ptr }, ptr %dst, i32 0, i32 0
  store ptr %dst.coerce0, ptr %0, align 8
  %1 = getelementptr inbounds { ptr, ptr }, ptr %dst, i32 0, i32 1
  store ptr %dst.coerce1, ptr %1, align 8
  %2 = getelementptr inbounds { ptr, i32 }, ptr %src, i32 0, i32 0
  store ptr %src.coerce0, ptr %2, align 8
  %3 = getelementptr inbounds { ptr, i32 }, ptr %src, i32 0, i32 1
  store i32 %src.coerce1, ptr %3, align 8
  store i64 %n, ptr %n.addr, align 8
  %4 = load i64, ptr %n.addr, align 8
  call void @llvm.memcpy.p0.p0.i64(ptr align 8 %agg.tmp, ptr align 8 %src, i64 16, i1 false)
  %5 = getelementptr inbounds { ptr, i32 }, ptr %agg.tmp, i32 0, i32 0
  %6 = load ptr, ptr %5, align 8
  %7 = getelementptr inbounds { ptr, i32 }, ptr %agg.tmp, i32 0, i32 1
  %8 = load i32, ptr %7, align 8
  %call = call noundef i32 @_ZN6hermes6bigint17asUintNResultSizeEmNS0_18ImmutableBigIntRefERj(i64 noundef %4, ptr %6, i32 %8, ptr noundef nonnull align 4 dereferenceable(4) %numDigits)
  store i32 %call, ptr %s, align 4
  %9 = load i32, ptr %s, align 4
  %cmp = icmp ne i32 %9, 0
  br i1 %cmp, label %if.then, label %if.end

if.then:                                          ; preds = %entry
  %10 = load i32, ptr %s, align 4
  store i32 %10, ptr %retval, align 4
  br label %return

if.end:                                           ; preds = %entry
  call void @llvm.memcpy.p0.p0.i64(ptr align 8 %agg.tmp1, ptr align 8 %dst, i64 16, i1 false)
  %11 = load i32, ptr %numDigits, align 4
  %12 = load i64, ptr %n.addr, align 8
  call void @llvm.memcpy.p0.p0.i64(ptr align 8 %agg.tmp2, ptr align 8 %src, i64 16, i1 false)
  %13 = getelementptr inbounds { ptr, ptr }, ptr %agg.tmp1, i32 0, i32 0
  %14 = load ptr, ptr %13, align 8
  %15 = getelementptr inbounds { ptr, ptr }, ptr %agg.tmp1, i32 0, i32 1
  %16 = load ptr, ptr %15, align 8
  %17 = getelementptr inbounds { ptr, i32 }, ptr %agg.tmp2, i32 0, i32 0
  %18 = load ptr, ptr %17, align 8
  %19 = getelementptr inbounds { ptr, i32 }, ptr %agg.tmp2, i32 0, i32 1
  %20 = load i32, ptr %19, align 8
  %call3 = call noundef i32 @_ZN6hermes6bigint12_GLOBAL__N_112bigintAsImplENS0_16MutableBigIntRefEjmNS0_18ImmutableBigIntRefENS1_8BigIntAsE(ptr %14, ptr %16, i32 noundef %11, i64 noundef %12, ptr %18, i32 %20, i32 noundef 1)
  store i32 %call3, ptr %retval, align 4
  br label %return

return:                                           ; preds = %if.end, %if.then
  %21 = load i32, ptr %retval, align 4
  ret i32 %21
}

; Function Attrs: mustprogress nounwind uwtable
define internal noundef i32 @_ZN6hermes6bigint12_GLOBAL__N_112bigintAsImplENS0_16MutableBigIntRefEjmNS0_18ImmutableBigIntRefENS1_8BigIntAsE(ptr %dst.coerce0, ptr %dst.coerce1, i32 noundef %numDigits, i64 noundef %n, ptr %src.coerce0, i32 %src.coerce1, i32 noundef %operation) #0 {
entry:
  %retval = alloca i32, align 4
  %dst = alloca %"struct.hermes::bigint::MutableBigIntRef", align 8
  %src = alloca %"struct.hermes::bigint::ImmutableBigIntRef", align 8
  %numDigits.addr = alloca i32, align 4
  %n.addr = alloca i64, align 8
  %operation.addr = alloca i32, align 4
  %agg.tmp = alloca %"struct.hermes::bigint::MutableBigIntRef", align 8
  %agg.tmp7 = alloca %"struct.hermes::bigint::ImmutableBigIntRef", align 8
  %k = alloca i64, align 8
  %bitWithinK = alloca i32, align 4
  %numDigitsToCopy = alloca i32, align 4
  %ref.tmp = alloca i64, align 8
  %ref.tmp10 = alloca i64, align 8
  %numDigitsDst = alloca i32, align 4
  %ref.tmp15 = alloca i64, align 8
  %ref.tmp17 = alloca i64, align 8
  %limitedDst = alloca %"struct.hermes::bigint::MutableBigIntRef", align 8
  %res = alloca i32, align 4
  %ref.tmp24 = alloca %"struct.hermes::bigint::ImmutableBigIntRef", align 8
  %hasSign = alloca i8, align 1
  %sign = alloca i8, align 1
  %signExtMask = alloca i64, align 8
  %numDigitsToSet = alloca i32, align 4
  %0 = getelementptr inbounds { ptr, ptr }, ptr %dst, i32 0, i32 0
  store ptr %dst.coerce0, ptr %0, align 8
  %1 = getelementptr inbounds { ptr, ptr }, ptr %dst, i32 0, i32 1
  store ptr %dst.coerce1, ptr %1, align 8
  %2 = getelementptr inbounds { ptr, i32 }, ptr %src, i32 0, i32 0
  store ptr %src.coerce0, ptr %2, align 8
  %3 = getelementptr inbounds { ptr, i32 }, ptr %src, i32 0, i32 1
  store i32 %src.coerce1, ptr %3, align 8
  store i32 %numDigits, ptr %numDigits.addr, align 4
  store i64 %n, ptr %n.addr, align 8
  store i32 %operation, ptr %operation.addr, align 4
  %numDigits1 = getelementptr inbounds %"struct.hermes::bigint::MutableBigIntRef", ptr %dst, i32 0, i32 1
  %4 = load ptr, ptr %numDigits1, align 8
  %5 = load i32, ptr %4, align 4
  %6 = load i32, ptr %numDigits.addr, align 4
  %cmp = icmp ult i32 %5, %6
  br i1 %cmp, label %if.then, label %if.end

if.then:                                          ; preds = %entry
  store i32 1, ptr %retval, align 4
  br label %return

if.end:                                           ; preds = %entry
  %7 = load i32, ptr %numDigits.addr, align 4
  %numDigits2 = getelementptr inbounds %"struct.hermes::bigint::MutableBigIntRef", ptr %dst, i32 0, i32 1
  %8 = load ptr, ptr %numDigits2, align 8
  store i32 %7, ptr %8, align 4
  %numDigits3 = getelementptr inbounds %"struct.hermes::bigint::ImmutableBigIntRef", ptr %src, i32 0, i32 1
  %9 = load i32, ptr %numDigits3, align 8
  %cmp4 = icmp eq i32 %9, 0
  br i1 %cmp4, label %if.then6, label %lor.lhs.false

lor.lhs.false:                                    ; preds = %if.end
  %10 = load i64, ptr %n.addr, align 8
  %cmp5 = icmp eq i64 %10, 0
  br i1 %cmp5, label %if.then6, label %if.end8

if.then6:                                         ; preds = %lor.lhs.false, %if.end
  call void @llvm.memcpy.p0.p0.i64(ptr align 8 %agg.tmp, ptr align 8 %dst, i64 16, i1 false)
  call void @llvm.memcpy.p0.p0.i64(ptr align 8 %agg.tmp7, ptr align 8 %src, i64 16, i1 false)
  %11 = getelementptr inbounds { ptr, ptr }, ptr %agg.tmp, i32 0, i32 0
  %12 = load ptr, ptr %11, align 8
  %13 = getelementptr inbounds { ptr, ptr }, ptr %agg.tmp, i32 0, i32 1
  %14 = load ptr, ptr %13, align 8
  %15 = getelementptr inbounds { ptr, i32 }, ptr %agg.tmp7, i32 0, i32 0
  %16 = load ptr, ptr %15, align 8
  %17 = getelementptr inbounds { ptr, i32 }, ptr %agg.tmp7, i32 0, i32 1
  %18 = load i32, ptr %17, align 8
  %call = call noundef i32 @_ZN6hermes6bigint12_GLOBAL__N_114initWithDigitsENS0_16MutableBigIntRefENS0_18ImmutableBigIntRefE(ptr %12, ptr %14, ptr %16, i32 %18)
  store i32 %call, ptr %retval, align 4
  br label %return

if.end8:                                          ; preds = %lor.lhs.false
  %19 = load i64, ptr %n.addr, align 8
  %sub = sub i64 %19, 1
  %div = udiv i64 %sub, 64
  store i64 %div, ptr %k, align 8
  %20 = load i64, ptr %n.addr, align 8
  %sub9 = sub i64 %20, 1
  %rem = urem i64 %sub9, 64
  %conv = trunc i64 %rem to i32
  store i32 %conv, ptr %bitWithinK, align 4
  %21 = load i64, ptr %k, align 8
  %add = add i64 %21, 1
  store i64 %add, ptr %ref.tmp, align 8
  %numDigits11 = getelementptr inbounds %"struct.hermes::bigint::ImmutableBigIntRef", ptr %src, i32 0, i32 1
  %22 = load i32, ptr %numDigits11, align 8
  %conv12 = zext i32 %22 to i64
  store i64 %conv12, ptr %ref.tmp10, align 8
  %call13 = call noundef nonnull align 8 dereferenceable(8) ptr @_ZSt3minImERKT_S2_S2_(ptr noundef nonnull align 8 dereferenceable(8) %ref.tmp, ptr noundef nonnull align 8 dereferenceable(8) %ref.tmp10)
  %23 = load i64, ptr %call13, align 8
  %conv14 = trunc i64 %23 to i32
  store i32 %conv14, ptr %numDigitsToCopy, align 4
  %24 = load i64, ptr %k, align 8
  %add16 = add i64 %24, 1
  store i64 %add16, ptr %ref.tmp15, align 8
  %numDigits18 = getelementptr inbounds %"struct.hermes::bigint::MutableBigIntRef", ptr %dst, i32 0, i32 1
  %25 = load ptr, ptr %numDigits18, align 8
  %26 = load i32, ptr %25, align 4
  %conv19 = zext i32 %26 to i64
  store i64 %conv19, ptr %ref.tmp17, align 8
  %call20 = call noundef nonnull align 8 dereferenceable(8) ptr @_ZSt3minImERKT_S2_S2_(ptr noundef nonnull align 8 dereferenceable(8) %ref.tmp15, ptr noundef nonnull align 8 dereferenceable(8) %ref.tmp17)
  %27 = load i64, ptr %call20, align 8
  %conv21 = trunc i64 %27 to i32
  store i32 %conv21, ptr %numDigitsDst, align 4
  %digits = getelementptr inbounds %"struct.hermes::bigint::MutableBigIntRef", ptr %limitedDst, i32 0, i32 0
  %digits22 = getelementptr inbounds %"struct.hermes::bigint::MutableBigIntRef", ptr %dst, i32 0, i32 0
  %28 = load ptr, ptr %digits22, align 8
  store ptr %28, ptr %digits, align 8
  %numDigits23 = getelementptr inbounds %"struct.hermes::bigint::MutableBigIntRef", ptr %limitedDst, i32 0, i32 1
  store ptr %numDigitsDst, ptr %numDigits23, align 8
  %digits25 = getelementptr inbounds %"struct.hermes::bigint::ImmutableBigIntRef", ptr %ref.tmp24, i32 0, i32 0
  %digits26 = getelementptr inbounds %"struct.hermes::bigint::ImmutableBigIntRef", ptr %src, i32 0, i32 0
  %29 = load ptr, ptr %digits26, align 8
  store ptr %29, ptr %digits25, align 8
  %numDigits27 = getelementptr inbounds %"struct.hermes::bigint::ImmutableBigIntRef", ptr %ref.tmp24, i32 0, i32 1
  %30 = load i32, ptr %numDigitsToCopy, align 4
  store i32 %30, ptr %numDigits27, align 8
  %call28 = call noundef i32 @_ZN6hermes6bigint12_GLOBAL__N_134initNonCanonicalWithReadOnlyBigIntERNS0_16MutableBigIntRefERKNS0_18ImmutableBigIntRefE(ptr noundef nonnull align 8 dereferenceable(16) %limitedDst, ptr noundef nonnull align 8 dereferenceable(16) %ref.tmp24)
  store i32 %call28, ptr %res, align 4
  %31 = load i32, ptr %res, align 4
  %cmp29 = icmp ne i32 %31, 0
  br i1 %cmp29, label %if.then31, label %if.end32

if.then31:                                        ; preds = %if.end8
  %32 = load i32, ptr %res, align 4
  store i32 %32, ptr %retval, align 4
  br label %return

if.end32:                                         ; preds = %if.end8
  %33 = load i64, ptr %k, align 8
  %numDigits33 = getelementptr inbounds %"struct.hermes::bigint::MutableBigIntRef", ptr %dst, i32 0, i32 1
  %34 = load ptr, ptr %numDigits33, align 8
  %35 = load i32, ptr %34, align 4
  %conv34 = zext i32 %35 to i64
  %cmp35 = icmp ult i64 %33, %conv34
  br i1 %cmp35, label %if.then36, label %if.end68

if.then36:                                        ; preds = %if.end32
  %36 = load i32, ptr %operation.addr, align 4
  %cmp37 = icmp eq i32 %36, 0
  %frombool = zext i1 %cmp37 to i8
  store i8 %frombool, ptr %hasSign, align 1
  %37 = load i8, ptr %hasSign, align 1
  %tobool = trunc i8 %37 to i1
  br i1 %tobool, label %land.rhs, label %land.end

land.rhs:                                         ; preds = %if.then36
  %digits38 = getelementptr inbounds %"struct.hermes::bigint::MutableBigIntRef", ptr %dst, i32 0, i32 0
  %38 = load ptr, ptr %digits38, align 8
  %39 = load i64, ptr %k, align 8
  %arrayidx = getelementptr inbounds i64, ptr %38, i64 %39
  %40 = load i64, ptr %arrayidx, align 8
  %41 = load i32, ptr %bitWithinK, align 4
  %sh_prom = zext i32 %41 to i64
  %shl = shl i64 1, %sh_prom
  %and = and i64 %40, %shl
  %cmp39 = icmp ne i64 %and, 0
  br label %land.end

land.end:                                         ; preds = %land.rhs, %if.then36
  %42 = phi i1 [ false, %if.then36 ], [ %cmp39, %land.rhs ]
  %frombool40 = zext i1 %42 to i8
  store i8 %frombool40, ptr %sign, align 1
  %43 = load i32, ptr %bitWithinK, align 4
  %cmp41 = icmp ult i32 %43, 63
  br i1 %cmp41, label %if.then42, label %if.end53

if.then42:                                        ; preds = %land.end
  %44 = load i32, ptr %bitWithinK, align 4
  %add43 = add i32 %44, 1
  %call44 = call noundef i64 @_ZN4llvh17maskTrailingZerosImEET_j(i32 noundef %add43)
  store i64 %call44, ptr %signExtMask, align 8
  %45 = load i8, ptr %sign, align 1
  %tobool45 = trunc i8 %45 to i1
  br i1 %tobool45, label %if.then46, label %if.else

if.then46:                                        ; preds = %if.then42
  %46 = load i64, ptr %signExtMask, align 8
  %digits47 = getelementptr inbounds %"struct.hermes::bigint::MutableBigIntRef", ptr %dst, i32 0, i32 0
  %47 = load ptr, ptr %digits47, align 8
  %48 = load i64, ptr %k, align 8
  %arrayidx48 = getelementptr inbounds i64, ptr %47, i64 %48
  %49 = load i64, ptr %arrayidx48, align 8
  %or = or i64 %49, %46
  store i64 %or, ptr %arrayidx48, align 8
  br label %if.end52

if.else:                                          ; preds = %if.then42
  %50 = load i64, ptr %signExtMask, align 8
  %not = xor i64 %50, -1
  %digits49 = getelementptr inbounds %"struct.hermes::bigint::MutableBigIntRef", ptr %dst, i32 0, i32 0
  %51 = load ptr, ptr %digits49, align 8
  %52 = load i64, ptr %k, align 8
  %arrayidx50 = getelementptr inbounds i64, ptr %51, i64 %52
  %53 = load i64, ptr %arrayidx50, align 8
  %and51 = and i64 %53, %not
  store i64 %and51, ptr %arrayidx50, align 8
  br label %if.end52

if.end52:                                         ; preds = %if.else, %if.then46
  br label %if.end53

if.end53:                                         ; preds = %if.end52, %land.end
  %54 = load i64, ptr %k, align 8
  %add54 = add i64 %54, 1
  %numDigits55 = getelementptr inbounds %"struct.hermes::bigint::MutableBigIntRef", ptr %dst, i32 0, i32 1
  %55 = load ptr, ptr %numDigits55, align 8
  %56 = load i32, ptr %55, align 4
  %conv56 = zext i32 %56 to i64
  %cmp57 = icmp ult i64 %add54, %conv56
  br i1 %cmp57, label %cond.true, label %cond.false

cond.true:                                        ; preds = %if.end53
  %numDigits58 = getelementptr inbounds %"struct.hermes::bigint::MutableBigIntRef", ptr %dst, i32 0, i32 1
  %57 = load ptr, ptr %numDigits58, align 8
  %58 = load i32, ptr %57, align 4
  %conv59 = zext i32 %58 to i64
  %59 = load i64, ptr %k, align 8
  %sub60 = sub i64 %conv59, %59
  %sub61 = sub i64 %sub60, 1
  br label %cond.end

cond.false:                                       ; preds = %if.end53
  br label %cond.end

cond.end:                                         ; preds = %cond.false, %cond.true
  %cond = phi i64 [ %sub61, %cond.true ], [ 0, %cond.false ]
  %conv62 = trunc i64 %cond to i32
  store i32 %conv62, ptr %numDigitsToSet, align 4
  %digits63 = getelementptr inbounds %"struct.hermes::bigint::MutableBigIntRef", ptr %dst, i32 0, i32 0
  %60 = load ptr, ptr %digits63, align 8
  %61 = load i64, ptr %k, align 8
  %add.ptr = getelementptr inbounds i64, ptr %60, i64 %61
  %add.ptr64 = getelementptr inbounds i64, ptr %add.ptr, i64 1
  %62 = load i8, ptr %sign, align 1
  %tobool65 = trunc i8 %62 to i1
  %cond66 = select i1 %tobool65, i32 255, i32 0
  %63 = trunc i32 %cond66 to i8
  %64 = load i32, ptr %numDigitsToSet, align 4
  %mul = mul i32 %64, 8
  %conv67 = zext i32 %mul to i64
  call void @llvm.memset.p0.i64(ptr align 8 %add.ptr64, i8 %63, i64 %conv67, i1 false)
  br label %if.end68

if.end68:                                         ; preds = %cond.end, %if.end32
  call void @_ZN6hermes6bigint12_GLOBAL__N_121ensureCanonicalResultERNS0_16MutableBigIntRefE(ptr noundef nonnull align 8 dereferenceable(16) %dst)
  store i32 0, ptr %retval, align 4
  br label %return

return:                                           ; preds = %if.end68, %if.then31, %if.then6, %if.then
  %65 = load i32, ptr %retval, align 4
  ret i32 %65
}

; Function Attrs: mustprogress nounwind uwtable
define hidden noundef i32 @_ZN6hermes6bigint6asIntNENS0_16MutableBigIntRefEmNS0_18ImmutableBigIntRefE(ptr %dst.coerce0, ptr %dst.coerce1, i64 noundef %n, ptr %src.coerce0, i32 %src.coerce1) #0 {
entry:
  %dst = alloca %"struct.hermes::bigint::MutableBigIntRef", align 8
  %src = alloca %"struct.hermes::bigint::ImmutableBigIntRef", align 8
  %n.addr = alloca i64, align 8
  %numDigits = alloca i32, align 4
  %agg.tmp = alloca %"struct.hermes::bigint::ImmutableBigIntRef", align 8
  %agg.tmp1 = alloca %"struct.hermes::bigint::MutableBigIntRef", align 8
  %agg.tmp2 = alloca %"struct.hermes::bigint::ImmutableBigIntRef", align 8
  %0 = getelementptr inbounds { ptr, ptr }, ptr %dst, i32 0, i32 0
  store ptr %dst.coerce0, ptr %0, align 8
  %1 = getelementptr inbounds { ptr, ptr }, ptr %dst, i32 0, i32 1
  store ptr %dst.coerce1, ptr %1, align 8
  %2 = getelementptr inbounds { ptr, i32 }, ptr %src, i32 0, i32 0
  store ptr %src.coerce0, ptr %2, align 8
  %3 = getelementptr inbounds { ptr, i32 }, ptr %src, i32 0, i32 1
  store i32 %src.coerce1, ptr %3, align 8
  store i64 %n, ptr %n.addr, align 8
  %4 = load i64, ptr %n.addr, align 8
  call void @llvm.memcpy.p0.p0.i64(ptr align 8 %agg.tmp, ptr align 8 %src, i64 16, i1 false)
  %5 = getelementptr inbounds { ptr, i32 }, ptr %agg.tmp, i32 0, i32 0
  %6 = load ptr, ptr %5, align 8
  %7 = getelementptr inbounds { ptr, i32 }, ptr %agg.tmp, i32 0, i32 1
  %8 = load i32, ptr %7, align 8
  %call = call noundef i32 @_ZN6hermes6bigint16asIntNResultSizeEmNS0_18ImmutableBigIntRefE(i64 noundef %4, ptr %6, i32 %8)
  store i32 %call, ptr %numDigits, align 4
  call void @llvm.memcpy.p0.p0.i64(ptr align 8 %agg.tmp1, ptr align 8 %dst, i64 16, i1 false)
  %9 = load i32, ptr %numDigits, align 4
  %10 = load i64, ptr %n.addr, align 8
  call void @llvm.memcpy.p0.p0.i64(ptr align 8 %agg.tmp2, ptr align 8 %src, i64 16, i1 false)
  %11 = getelementptr inbounds { ptr, ptr }, ptr %agg.tmp1, i32 0, i32 0
  %12 = load ptr, ptr %11, align 8
  %13 = getelementptr inbounds { ptr, ptr }, ptr %agg.tmp1, i32 0, i32 1
  %14 = load ptr, ptr %13, align 8
  %15 = getelementptr inbounds { ptr, i32 }, ptr %agg.tmp2, i32 0, i32 0
  %16 = load ptr, ptr %15, align 8
  %17 = getelementptr inbounds { ptr, i32 }, ptr %agg.tmp2, i32 0, i32 1
  %18 = load i32, ptr %17, align 8
  %call3 = call noundef i32 @_ZN6hermes6bigint12_GLOBAL__N_112bigintAsImplENS0_16MutableBigIntRefEjmNS0_18ImmutableBigIntRefENS1_8BigIntAsE(ptr %12, ptr %14, i32 noundef %9, i64 noundef %10, ptr %16, i32 %18, i32 noundef 0)
  ret i32 %call3
}

; Function Attrs: mustprogress nounwind uwtable
define hidden noundef i32 @_ZN6hermes6bigint20unaryMinusResultSizeENS0_18ImmutableBigIntRefE(ptr %src.coerce0, i32 %src.coerce1) #0 {
entry:
  %src = alloca %"struct.hermes::bigint::ImmutableBigIntRef", align 8
  %agg.tmp = alloca %"struct.hermes::bigint::ImmutableBigIntRef", align 8
  %0 = getelementptr inbounds { ptr, i32 }, ptr %src, i32 0, i32 0
  store ptr %src.coerce0, ptr %0, align 8
  %1 = getelementptr inbounds { ptr, i32 }, ptr %src, i32 0, i32 1
  store i32 %src.coerce1, ptr %1, align 8
  call void @llvm.memcpy.p0.p0.i64(ptr align 8 %agg.tmp, ptr align 8 %src, i64 16, i1 false)
  %2 = getelementptr inbounds { ptr, i32 }, ptr %agg.tmp, i32 0, i32 0
  %3 = load ptr, ptr %2, align 8
  %4 = getelementptr inbounds { ptr, i32 }, ptr %agg.tmp, i32 0, i32 1
  %5 = load i32, ptr %4, align 8
  %call = call noundef zeroext i1 @_ZN6hermes6bigint10isNegativeENS0_18ImmutableBigIntRefE(ptr %3, i32 %5)
  br i1 %call, label %cond.false, label %cond.true

cond.true:                                        ; preds = %entry
  %numDigits = getelementptr inbounds %"struct.hermes::bigint::ImmutableBigIntRef", ptr %src, i32 0, i32 1
  %6 = load i32, ptr %numDigits, align 8
  br label %cond.end

cond.false:                                       ; preds = %entry
  %numDigits1 = getelementptr inbounds %"struct.hermes::bigint::ImmutableBigIntRef", ptr %src, i32 0, i32 1
  %7 = load i32, ptr %numDigits1, align 8
  %add = add i32 %7, 1
  br label %cond.end

cond.end:                                         ; preds = %cond.false, %cond.true
  %cond = phi i32 [ %6, %cond.true ], [ %add, %cond.false ]
  ret i32 %cond
}

; Function Attrs: mustprogress nounwind uwtable
define hidden noundef i32 @_ZN6hermes6bigint10unaryMinusENS0_16MutableBigIntRefENS0_18ImmutableBigIntRefE(ptr %dst.coerce0, ptr %dst.coerce1, ptr %src.coerce0, i32 %src.coerce1) #0 {
entry:
  %retval = alloca i32, align 4
  %dst = alloca %"struct.hermes::bigint::MutableBigIntRef", align 8
  %src = alloca %"struct.hermes::bigint::ImmutableBigIntRef", align 8
  %res = alloca i32, align 4
  %0 = getelementptr inbounds { ptr, ptr }, ptr %dst, i32 0, i32 0
  store ptr %dst.coerce0, ptr %0, align 8
  %1 = getelementptr inbounds { ptr, ptr }, ptr %dst, i32 0, i32 1
  store ptr %dst.coerce1, ptr %1, align 8
  %2 = getelementptr inbounds { ptr, i32 }, ptr %src, i32 0, i32 0
  store ptr %src.coerce0, ptr %2, align 8
  %3 = getelementptr inbounds { ptr, i32 }, ptr %src, i32 0, i32 1
  store i32 %src.coerce1, ptr %3, align 8
  %call = call noundef i32 @_ZN6hermes6bigint12_GLOBAL__N_134initNonCanonicalWithReadOnlyBigIntERNS0_16MutableBigIntRefERKNS0_18ImmutableBigIntRefE(ptr noundef nonnull align 8 dereferenceable(16) %dst, ptr noundef nonnull align 8 dereferenceable(16) %src)
  store i32 %call, ptr %res, align 4
  %4 = load i32, ptr %res, align 4
  %cmp = icmp ne i32 %4, 0
  br i1 %cmp, label %if.then, label %if.end

if.then:                                          ; preds = %entry
  %5 = load i32, ptr %res, align 4
  store i32 %5, ptr %retval, align 4
  br label %return

if.end:                                           ; preds = %entry
  %digits = getelementptr inbounds %"struct.hermes::bigint::MutableBigIntRef", ptr %dst, i32 0, i32 0
  %6 = load ptr, ptr %digits, align 8
  %numDigits = getelementptr inbounds %"struct.hermes::bigint::MutableBigIntRef", ptr %dst, i32 0, i32 1
  %7 = load ptr, ptr %numDigits, align 8
  %8 = load i32, ptr %7, align 4
  call void @_ZN4llvh5APInt8tcNegateEPmj(ptr noundef %6, i32 noundef %8)
  call void @_ZN6hermes6bigint12_GLOBAL__N_121ensureCanonicalResultERNS0_16MutableBigIntRefE(ptr noundef nonnull align 8 dereferenceable(16) %dst)
  store i32 0, ptr %retval, align 4
  br label %return

return:                                           ; preds = %if.end, %if.then
  %9 = load i32, ptr %retval, align 4
  ret i32 %9
}

; Function Attrs: mustprogress nounwind uwtable
define internal noundef i32 @_ZN6hermes6bigint12_GLOBAL__N_134initNonCanonicalWithReadOnlyBigIntERNS0_16MutableBigIntRefERKNS0_18ImmutableBigIntRefE(ptr noundef nonnull align 8 dereferenceable(16) %dst, ptr noundef nonnull align 8 dereferenceable(16) %src) #0 {
entry:
  %retval = alloca i32, align 4
  %dst.addr = alloca ptr, align 8
  %src.addr = alloca ptr, align 8
  %digitsToCopy = alloca i32, align 4
  %bytesToCopy = alloca i32, align 4
  %digitsToSet = alloca i32, align 4
  %bytesToSet = alloca i32, align 4
  %signExtValue = alloca i64, align 8
  store ptr %dst, ptr %dst.addr, align 8
  store ptr %src, ptr %src.addr, align 8
  %0 = load ptr, ptr %dst.addr, align 8
  %numDigits = getelementptr inbounds %"struct.hermes::bigint::MutableBigIntRef", ptr %0, i32 0, i32 1
  %1 = load ptr, ptr %numDigits, align 8
  %2 = load i32, ptr %1, align 4
  %3 = load ptr, ptr %src.addr, align 8
  %numDigits1 = getelementptr inbounds %"struct.hermes::bigint::ImmutableBigIntRef", ptr %3, i32 0, i32 1
  %4 = load i32, ptr %numDigits1, align 8
  %cmp = icmp ult i32 %2, %4
  br i1 %cmp, label %if.then, label %if.end

if.then:                                          ; preds = %entry
  store i32 1, ptr %retval, align 4
  br label %return

if.end:                                           ; preds = %entry
  %5 = load ptr, ptr %src.addr, align 8
  %numDigits2 = getelementptr inbounds %"struct.hermes::bigint::ImmutableBigIntRef", ptr %5, i32 0, i32 1
  %6 = load i32, ptr %numDigits2, align 8
  store i32 %6, ptr %digitsToCopy, align 4
  %7 = load i32, ptr %digitsToCopy, align 4
  %mul = mul i32 %7, 8
  store i32 %mul, ptr %bytesToCopy, align 4
  %8 = load ptr, ptr %dst.addr, align 8
  %digits = getelementptr inbounds %"struct.hermes::bigint::MutableBigIntRef", ptr %8, i32 0, i32 0
  %9 = load ptr, ptr %digits, align 8
  %10 = load ptr, ptr %src.addr, align 8
  %digits3 = getelementptr inbounds %"struct.hermes::bigint::ImmutableBigIntRef", ptr %10, i32 0, i32 0
  %11 = load ptr, ptr %digits3, align 8
  %12 = load i32, ptr %bytesToCopy, align 4
  %conv = zext i32 %12 to i64
  call void @llvm.memcpy.p0.p0.i64(ptr align 8 %9, ptr align 8 %11, i64 %conv, i1 false)
  %13 = load ptr, ptr %dst.addr, align 8
  %numDigits4 = getelementptr inbounds %"struct.hermes::bigint::MutableBigIntRef", ptr %13, i32 0, i32 1
  %14 = load ptr, ptr %numDigits4, align 8
  %15 = load i32, ptr %14, align 4
  %16 = load i32, ptr %digitsToCopy, align 4
  %sub = sub i32 %15, %16
  store i32 %sub, ptr %digitsToSet, align 4
  %17 = load i32, ptr %digitsToSet, align 4
  %mul5 = mul i32 %17, 8
  store i32 %mul5, ptr %bytesToSet, align 4
  %18 = load ptr, ptr %src.addr, align 8
  %call = call noundef i64 @_ZN6hermes6bigint12_GLOBAL__N_124getBigIntRefSignExtValueINS0_18ImmutableBigIntRefEEEmRKT_(ptr noundef nonnull align 8 dereferenceable(16) %18)
  store i64 %call, ptr %signExtValue, align 8
  %19 = load ptr, ptr %dst.addr, align 8
  %digits6 = getelementptr inbounds %"struct.hermes::bigint::MutableBigIntRef", ptr %19, i32 0, i32 0
  %20 = load ptr, ptr %digits6, align 8
  %21 = load i32, ptr %digitsToCopy, align 4
  %idx.ext = zext i32 %21 to i64
  %add.ptr = getelementptr inbounds i64, ptr %20, i64 %idx.ext
  %22 = load i64, ptr %signExtValue, align 8
  %conv7 = trunc i64 %22 to i32
  %23 = trunc i32 %conv7 to i8
  %24 = load i32, ptr %bytesToSet, align 4
  %conv8 = zext i32 %24 to i64
  call void @llvm.memset.p0.i64(ptr align 8 %add.ptr, i8 %23, i64 %conv8, i1 false)
  store i32 0, ptr %retval, align 4
  br label %return

return:                                           ; preds = %if.end, %if.then
  %25 = load i32, ptr %retval, align 4
  ret i32 %25
}

declare void @_ZN4llvh5APInt8tcNegateEPmj(ptr noundef, i32 noundef) #3

; Function Attrs: mustprogress nounwind uwtable
define hidden noundef i32 @_ZN6hermes6bigint18unaryNotResultSizeENS0_18ImmutableBigIntRefE(ptr %src.coerce0, i32 %src.coerce1) #0 {
entry:
  %src = alloca %"struct.hermes::bigint::ImmutableBigIntRef", align 8
  %ref.tmp = alloca i32, align 4
  %0 = getelementptr inbounds { ptr, i32 }, ptr %src, i32 0, i32 0
  store ptr %src.coerce0, ptr %0, align 8
  %1 = getelementptr inbounds { ptr, i32 }, ptr %src, i32 0, i32 1
  store i32 %src.coerce1, ptr %1, align 8
  store i32 1, ptr %ref.tmp, align 4
  %numDigits = getelementptr inbounds %"struct.hermes::bigint::ImmutableBigIntRef", ptr %src, i32 0, i32 1
  %call = call noundef nonnull align 4 dereferenceable(4) ptr @_ZSt3maxIjERKT_S2_S2_(ptr noundef nonnull align 4 dereferenceable(4) %ref.tmp, ptr noundef nonnull align 4 dereferenceable(4) %numDigits)
  %2 = load i32, ptr %call, align 4
  ret i32 %2
}

; Function Attrs: mustprogress nounwind uwtable
define linkonce_odr noundef nonnull align 4 dereferenceable(4) ptr @_ZSt3maxIjERKT_S2_S2_(ptr noundef nonnull align 4 dereferenceable(4) %__a, ptr noundef nonnull align 4 dereferenceable(4) %__b) #0 comdat {
entry:
  %retval = alloca ptr, align 8
  %__a.addr = alloca ptr, align 8
  %__b.addr = alloca ptr, align 8
  store ptr %__a, ptr %__a.addr, align 8
  store ptr %__b, ptr %__b.addr, align 8
  %0 = load ptr, ptr %__a.addr, align 8
  %1 = load i32, ptr %0, align 4
  %2 = load ptr, ptr %__b.addr, align 8
  %3 = load i32, ptr %2, align 4
  %cmp = icmp ult i32 %1, %3
  br i1 %cmp, label %if.then, label %if.end

if.then:                                          ; preds = %entry
  %4 = load ptr, ptr %__b.addr, align 8
  store ptr %4, ptr %retval, align 8
  br label %return

if.end:                                           ; preds = %entry
  %5 = load ptr, ptr %__a.addr, align 8
  store ptr %5, ptr %retval, align 8
  br label %return

return:                                           ; preds = %if.end, %if.then
  %6 = load ptr, ptr %retval, align 8
  ret ptr %6
}

; Function Attrs: mustprogress nounwind uwtable
define hidden noundef i32 @_ZN6hermes6bigint8unaryNotENS0_16MutableBigIntRefENS0_18ImmutableBigIntRefE(ptr %lhs.coerce0, ptr %lhs.coerce1, ptr %rhs.coerce0, i32 %rhs.coerce1) #0 {
entry:
  %retval = alloca i32, align 4
  %lhs = alloca %"struct.hermes::bigint::MutableBigIntRef", align 8
  %rhs = alloca %"struct.hermes::bigint::ImmutableBigIntRef", align 8
  %res = alloca i32, align 4
  %0 = getelementptr inbounds { ptr, ptr }, ptr %lhs, i32 0, i32 0
  store ptr %lhs.coerce0, ptr %0, align 8
  %1 = getelementptr inbounds { ptr, ptr }, ptr %lhs, i32 0, i32 1
  store ptr %lhs.coerce1, ptr %1, align 8
  %2 = getelementptr inbounds { ptr, i32 }, ptr %rhs, i32 0, i32 0
  store ptr %rhs.coerce0, ptr %2, align 8
  %3 = getelementptr inbounds { ptr, i32 }, ptr %rhs, i32 0, i32 1
  store i32 %rhs.coerce1, ptr %3, align 8
  %call = call noundef i32 @_ZN6hermes6bigint12_GLOBAL__N_134initNonCanonicalWithReadOnlyBigIntERNS0_16MutableBigIntRefERKNS0_18ImmutableBigIntRefE(ptr noundef nonnull align 8 dereferenceable(16) %lhs, ptr noundef nonnull align 8 dereferenceable(16) %rhs)
  store i32 %call, ptr %res, align 4
  %4 = load i32, ptr %res, align 4
  %cmp = icmp ne i32 %4, 0
  br i1 %cmp, label %if.then, label %if.end

if.then:                                          ; preds = %entry
  %5 = load i32, ptr %res, align 4
  store i32 %5, ptr %retval, align 4
  br label %return

if.end:                                           ; preds = %entry
  %digits = getelementptr inbounds %"struct.hermes::bigint::MutableBigIntRef", ptr %lhs, i32 0, i32 0
  %6 = load ptr, ptr %digits, align 8
  %numDigits = getelementptr inbounds %"struct.hermes::bigint::MutableBigIntRef", ptr %lhs, i32 0, i32 1
  %7 = load ptr, ptr %numDigits, align 8
  %8 = load i32, ptr %7, align 4
  call void @_ZN4llvh5APInt12tcComplementEPmj(ptr noundef %6, i32 noundef %8)
  call void @_ZN6hermes6bigint12_GLOBAL__N_121ensureCanonicalResultERNS0_16MutableBigIntRefE(ptr noundef nonnull align 8 dereferenceable(16) %lhs)
  store i32 0, ptr %retval, align 4
  br label %return

return:                                           ; preds = %if.end, %if.then
  %9 = load i32, ptr %retval, align 4
  ret i32 %9
}

declare void @_ZN4llvh5APInt12tcComplementEPmj(ptr noundef, i32 noundef) #3

; Function Attrs: mustprogress nounwind uwtable
define hidden noundef i32 @_ZN6hermes6bigint20bitwiseANDResultSizeENS0_18ImmutableBigIntRefES1_(ptr %lhs.coerce0, i32 %lhs.coerce1, ptr %rhs.coerce0, i32 %rhs.coerce1) #0 {
entry:
  %lhs = alloca %"struct.hermes::bigint::ImmutableBigIntRef", align 8
  %rhs = alloca %"struct.hermes::bigint::ImmutableBigIntRef", align 8
  %0 = getelementptr inbounds { ptr, i32 }, ptr %lhs, i32 0, i32 0
  store ptr %lhs.coerce0, ptr %0, align 8
  %1 = getelementptr inbounds { ptr, i32 }, ptr %lhs, i32 0, i32 1
  store i32 %lhs.coerce1, ptr %1, align 8
  %2 = getelementptr inbounds { ptr, i32 }, ptr %rhs, i32 0, i32 0
  store ptr %rhs.coerce0, ptr %2, align 8
  %3 = getelementptr inbounds { ptr, i32 }, ptr %rhs, i32 0, i32 1
  store i32 %rhs.coerce1, ptr %3, align 8
  %numDigits = getelementptr inbounds %"struct.hermes::bigint::ImmutableBigIntRef", ptr %lhs, i32 0, i32 1
  %numDigits1 = getelementptr inbounds %"struct.hermes::bigint::ImmutableBigIntRef", ptr %rhs, i32 0, i32 1
  %call = call noundef nonnull align 4 dereferenceable(4) ptr @_ZSt3maxIjERKT_S2_S2_(ptr noundef nonnull align 4 dereferenceable(4) %numDigits, ptr noundef nonnull align 4 dereferenceable(4) %numDigits1)
  %4 = load i32, ptr %call, align 4
  ret i32 %4
}

; Function Attrs: mustprogress nounwind uwtable
define hidden noundef i32 @_ZN6hermes6bigint10bitwiseANDENS0_16MutableBigIntRefENS0_18ImmutableBigIntRefES2_(ptr %dst.coerce0, ptr %dst.coerce1, ptr %lhs.coerce0, i32 %lhs.coerce1, ptr %rhs.coerce0, i32 %rhs.coerce1) #0 {
entry:
  %dst = alloca %"struct.hermes::bigint::MutableBigIntRef", align 8
  %lhs = alloca %"struct.hermes::bigint::ImmutableBigIntRef", align 8
  %rhs = alloca %"struct.hermes::bigint::ImmutableBigIntRef", align 8
  %0 = alloca ptr, align 8
  %ref.tmp = alloca %"class.std::tuple.31", align 8
  %srcWithFewerDigits = alloca ptr, align 8
  %srcWithMostDigits = alloca ptr, align 8
  %agg.tmp = alloca %"struct.hermes::bigint::MutableBigIntRef", align 8
  %agg.tmp3 = alloca %"struct.hermes::bigint::ImmutableBigIntRef", align 8
  %agg.tmp4 = alloca %"struct.hermes::bigint::ImmutableBigIntRef", align 8
  %1 = getelementptr inbounds { ptr, ptr }, ptr %dst, i32 0, i32 0
  store ptr %dst.coerce0, ptr %1, align 8
  %2 = getelementptr inbounds { ptr, ptr }, ptr %dst, i32 0, i32 1
  store ptr %dst.coerce1, ptr %2, align 8
  %3 = getelementptr inbounds { ptr, i32 }, ptr %lhs, i32 0, i32 0
  store ptr %lhs.coerce0, ptr %3, align 8
  %4 = getelementptr inbounds { ptr, i32 }, ptr %lhs, i32 0, i32 1
  store i32 %lhs.coerce1, ptr %4, align 8
  %5 = getelementptr inbounds { ptr, i32 }, ptr %rhs, i32 0, i32 0
  store ptr %rhs.coerce0, ptr %5, align 8
  %6 = getelementptr inbounds { ptr, i32 }, ptr %rhs, i32 0, i32 1
  store i32 %rhs.coerce1, ptr %6, align 8
  %numDigits = getelementptr inbounds %"struct.hermes::bigint::ImmutableBigIntRef", ptr %lhs, i32 0, i32 1
  %7 = load i32, ptr %numDigits, align 8
  %numDigits1 = getelementptr inbounds %"struct.hermes::bigint::ImmutableBigIntRef", ptr %rhs, i32 0, i32 1
  %8 = load i32, ptr %numDigits1, align 8
  %cmp = icmp ule i32 %7, %8
  br i1 %cmp, label %cond.true, label %cond.false

cond.true:                                        ; preds = %entry
  call void @_ZSt10make_tupleIJRN6hermes6bigint18ImmutableBigIntRefES3_EESt5tupleIJDpNSt25__strip_reference_wrapperINSt5decayIT_E4typeEE6__typeEEEDpOS7_(ptr sret(%"class.std::tuple.31") align 8 %ref.tmp, ptr noundef nonnull align 8 dereferenceable(16) %lhs, ptr noundef nonnull align 8 dereferenceable(16) %rhs)
  br label %cond.end

cond.false:                                       ; preds = %entry
  call void @_ZSt10make_tupleIJRN6hermes6bigint18ImmutableBigIntRefES3_EESt5tupleIJDpNSt25__strip_reference_wrapperINSt5decayIT_E4typeEE6__typeEEEDpOS7_(ptr sret(%"class.std::tuple.31") align 8 %ref.tmp, ptr noundef nonnull align 8 dereferenceable(16) %rhs, ptr noundef nonnull align 8 dereferenceable(16) %lhs)
  br label %cond.end

cond.end:                                         ; preds = %cond.false, %cond.true
  store ptr %ref.tmp, ptr %0, align 8
  %9 = load ptr, ptr %0, align 8
  %call = call noundef nonnull align 8 dereferenceable(16) ptr @_ZSt3getILm0EJN6hermes6bigint18ImmutableBigIntRefES2_EERKNSt13tuple_elementIXT_ESt5tupleIJDpT0_EEE4typeERKS7_(ptr noundef nonnull align 8 dereferenceable(32) %9) #11
  store ptr %call, ptr %srcWithFewerDigits, align 8
  %10 = load ptr, ptr %0, align 8
  %call2 = call noundef nonnull align 8 dereferenceable(16) ptr @_ZSt3getILm1EJN6hermes6bigint18ImmutableBigIntRefES2_EERKNSt13tuple_elementIXT_ESt5tupleIJDpT0_EEE4typeERKS7_(ptr noundef nonnull align 8 dereferenceable(32) %10) #11
  store ptr %call2, ptr %srcWithMostDigits, align 8
  call void @llvm.memcpy.p0.p0.i64(ptr align 8 %agg.tmp, ptr align 8 %dst, i64 16, i1 false)
  %11 = load ptr, ptr %srcWithFewerDigits, align 8
  call void @llvm.memcpy.p0.p0.i64(ptr align 8 %agg.tmp3, ptr align 8 %11, i64 16, i1 false)
  %12 = load ptr, ptr %srcWithMostDigits, align 8
  call void @llvm.memcpy.p0.p0.i64(ptr align 8 %agg.tmp4, ptr align 8 %12, i64 16, i1 false)
  %13 = getelementptr inbounds { ptr, ptr }, ptr %agg.tmp, i32 0, i32 0
  %14 = load ptr, ptr %13, align 8
  %15 = getelementptr inbounds { ptr, ptr }, ptr %agg.tmp, i32 0, i32 1
  %16 = load ptr, ptr %15, align 8
  %call5 = call noundef i32 @_ZN6hermes6bigint12_GLOBAL__N_117additiveOperationEPFmPmPKmmjEPFmS2_mjEPFvRNS0_16MutableBigIntRefEES9_NS0_18ImmutableBigIntRefESD_(ptr noundef @_ZN6hermes6bigint12_GLOBAL__N_118tcBitwiseWithCarryITnDaXadL_ZN4llvh5APInt5tcAndEPmPKmjEEEEmS5_S7_mj, ptr noundef @_ZN6hermes6bigint12_GLOBAL__N_118noopAdditiveOpPartEPmmj, ptr noundef @_ZN6hermes6bigint12_GLOBAL__N_125noopAdditiveOpPostProcessERNS0_16MutableBigIntRefE, ptr %14, ptr %16, ptr noundef byval(%"struct.hermes::bigint::ImmutableBigIntRef") align 8 %agg.tmp3, ptr noundef byval(%"struct.hermes::bigint::ImmutableBigIntRef") align 8 %agg.tmp4)
  ret i32 %call5
}

; Function Attrs: mustprogress nounwind uwtable
define linkonce_odr hidden void @_ZSt10make_tupleIJRN6hermes6bigint18ImmutableBigIntRefES3_EESt5tupleIJDpNSt25__strip_reference_wrapperINSt5decayIT_E4typeEE6__typeEEEDpOS7_(ptr noalias sret(%"class.std::tuple.31") align 8 %agg.result, ptr noundef nonnull align 8 dereferenceable(16) %__args, ptr noundef nonnull align 8 dereferenceable(16) %__args1) #0 comdat {
entry:
  %result.ptr = alloca ptr, align 8
  %__args.addr = alloca ptr, align 8
  %__args.addr2 = alloca ptr, align 8
  store ptr %agg.result, ptr %result.ptr, align 8
  store ptr %__args, ptr %__args.addr, align 8
  store ptr %__args1, ptr %__args.addr2, align 8
  %0 = load ptr, ptr %__args.addr, align 8
  %1 = load ptr, ptr %__args.addr2, align 8
  call void @_ZNSt5tupleIJN6hermes6bigint18ImmutableBigIntRefES2_EEC2IRS2_S5_TnNSt9enable_ifIXclsr4_TCCIXntcl14__is_alloc_argIT_EEEEE29__is_implicitly_constructibleIS7_T0_EEEbE4typeELb1EEEOS7_OS8_(ptr noundef nonnull align 8 dereferenceable(32) %agg.result, ptr noundef nonnull align 8 dereferenceable(16) %0, ptr noundef nonnull align 8 dereferenceable(16) %1) #11
  ret void
}

; Function Attrs: mustprogress nounwind uwtable
define linkonce_odr hidden noundef nonnull align 8 dereferenceable(16) ptr @_ZSt3getILm0EJN6hermes6bigint18ImmutableBigIntRefES2_EERKNSt13tuple_elementIXT_ESt5tupleIJDpT0_EEE4typeERKS7_(ptr noundef nonnull align 8 dereferenceable(32) %__t) #0 comdat {
entry:
  %__t.addr = alloca ptr, align 8
  store ptr %__t, ptr %__t.addr, align 8
  %0 = load ptr, ptr %__t.addr, align 8
  %call = call noundef nonnull align 8 dereferenceable(16) ptr @_ZSt12__get_helperILm0EN6hermes6bigint18ImmutableBigIntRefEJS2_EERKT0_RKSt11_Tuple_implIXT_EJS3_DpT1_EE(ptr noundef nonnull align 8 dereferenceable(32) %0) #11
  ret ptr %call
}

; Function Attrs: mustprogress nounwind uwtable
define linkonce_odr hidden noundef nonnull align 8 dereferenceable(16) ptr @_ZSt3getILm1EJN6hermes6bigint18ImmutableBigIntRefES2_EERKNSt13tuple_elementIXT_ESt5tupleIJDpT0_EEE4typeERKS7_(ptr noundef nonnull align 8 dereferenceable(32) %__t) #0 comdat {
entry:
  %__t.addr = alloca ptr, align 8
  store ptr %__t, ptr %__t.addr, align 8
  %0 = load ptr, ptr %__t.addr, align 8
  %call = call noundef nonnull align 8 dereferenceable(16) ptr @_ZSt12__get_helperILm1EN6hermes6bigint18ImmutableBigIntRefEJEERKT0_RKSt11_Tuple_implIXT_EJS3_DpT1_EE(ptr noundef nonnull align 8 dereferenceable(16) %0) #11
  ret ptr %call
}

; Function Attrs: mustprogress nounwind uwtable
define internal noundef i32 @_ZN6hermes6bigint12_GLOBAL__N_117additiveOperationEPFmPmPKmmjEPFmS2_mjEPFvRNS0_16MutableBigIntRefEES9_NS0_18ImmutableBigIntRefESD_(ptr noundef %op, ptr noundef %opPart, ptr noundef %opPost, ptr %dst.coerce0, ptr %dst.coerce1, ptr noundef byval(%"struct.hermes::bigint::ImmutableBigIntRef") align 8 %lhs, ptr noundef byval(%"struct.hermes::bigint::ImmutableBigIntRef") align 8 %rhs) #0 {
entry:
  %retval = alloca i32, align 4
  %dst = alloca %"struct.hermes::bigint::MutableBigIntRef", align 8
  %op.addr = alloca ptr, align 8
  %opPart.addr = alloca ptr, align 8
  %opPost.addr = alloca ptr, align 8
  %res = alloca i32, align 4
  %carryIn = alloca i64, align 8
  %carryOut = alloca i64, align 8
  %0 = getelementptr inbounds { ptr, ptr }, ptr %dst, i32 0, i32 0
  store ptr %dst.coerce0, ptr %0, align 8
  %1 = getelementptr inbounds { ptr, ptr }, ptr %dst, i32 0, i32 1
  store ptr %dst.coerce1, ptr %1, align 8
  store ptr %op, ptr %op.addr, align 8
  store ptr %opPart, ptr %opPart.addr, align 8
  store ptr %opPost, ptr %opPost.addr, align 8
  %numDigits = getelementptr inbounds %"struct.hermes::bigint::MutableBigIntRef", ptr %dst, i32 0, i32 1
