target datalayout = "e-m:e-p270:32:32-p271:32:32-p272:64:64-i64:64-i128:128-f80:128-n8:16:32:64-S128"
target triple = "x86_64-unknown-linux-gnu"

%"struct.hermes::ESTree::UnmodifiedT" = type { i8 }
%"struct.std::in_place_index_t" = type { i8 }
%"struct.std::in_place_index_t.49" = type { i8 }
%"struct.std::in_place_index_t.50" = type { i8 }
%"class.hermes::ES6ClassesTransformations" = type { ptr, ptr, ptr, ptr }
%"class.hermes::Identifier" = type { ptr }
%"class.llvh::StringRef" = type { ptr, i64 }
%"class.std::variant" = type { %"struct.std::__detail::__variant::_Variant_base.base", [7 x i8] }
%"struct.std::__detail::__variant::_Variant_base.base" = type { %"struct.std::__detail::__variant::_Move_assign_base.base" }
%"struct.std::__detail::__variant::_Move_assign_base.base" = type { %"struct.std::__detail::__variant::_Copy_assign_base.base" }
%"struct.std::__detail::__variant::_Copy_assign_base.base" = type { %"struct.std::__detail::__variant::_Move_ctor_base.base" }
%"struct.std::__detail::__variant::_Move_ctor_base.base" = type { %"struct.std::__detail::__variant::_Copy_ctor_base.base" }
%"struct.std::__detail::__variant::_Copy_ctor_base.base" = type { %"struct.std::__detail::__variant::_Variant_storage.base" }
%"struct.std::__detail::__variant::_Variant_storage.base" = type <{ %"union.std::__detail::__variant::_Variadic_union", i8 }>
%"union.std::__detail::__variant::_Variadic_union" = type { %"union.std::__detail::__variant::_Variadic_union.37" }
%"union.std::__detail::__variant::_Variadic_union.37" = type { %"union.std::__detail::__variant::_Variadic_union.39" }
%"union.std::__detail::__variant::_Variadic_union.39" = type { %"struct.std::__detail::__variant::_Uninitialized.40" }
%"struct.std::__detail::__variant::_Uninitialized.40" = type { ptr }
%"class.hermes::Context" = type { %"class.hermes::BacktrackingBumpPtrAllocator", %"class.hermes::BacktrackingBumpPtrAllocator", %"class.std::unique_ptr", %"class.hermes::StringTable", %"class.std::map", %"class.std::unique_ptr.5", ptr, i8, i8, i8, i32, i32, i8, i8, i8, i8, i8, i32, i8, i8, %"class.std::unique_ptr.13", %"class.std::vector.21", i32, i8, %"struct.hermes::CodeGenerationSettings", %"struct.hermes::OptimizationSettings", %"class.std::shared_ptr" }
%"class.hermes::BacktrackingBumpPtrAllocator" = type { %"class.std::vector", ptr }
%"class.std::vector" = type { %"struct.std::_Vector_base" }
%"struct.std::_Vector_base" = type { %"struct.std::_Vector_base<std::unique_ptr<hermes::BacktrackingBumpPtrAllocator::Slab>, std::allocator<std::unique_ptr<hermes::BacktrackingBumpPtrAllocator::Slab>>>::_Vector_impl" }
%"struct.std::_Vector_base<std::unique_ptr<hermes::BacktrackingBumpPtrAllocator::Slab>, std::allocator<std::unique_ptr<hermes::BacktrackingBumpPtrAllocator::Slab>>>::_Vector_impl" = type { %"struct.std::_Vector_base<std::unique_ptr<hermes::BacktrackingBumpPtrAllocator::Slab>, std::allocator<std::unique_ptr<hermes::BacktrackingBumpPtrAllocator::Slab>>>::_Vector_impl_data" }
%"struct.std::_Vector_base<std::unique_ptr<hermes::BacktrackingBumpPtrAllocator::Slab>, std::allocator<std::unique_ptr<hermes::BacktrackingBumpPtrAllocator::Slab>>>::_Vector_impl_data" = type { ptr, ptr, ptr }
%"class.std::unique_ptr" = type { %"struct.std::__uniq_ptr_data" }
%"struct.std::__uniq_ptr_data" = type { %"class.std::__uniq_ptr_impl" }
%"class.std::__uniq_ptr_impl" = type { %"class.std::tuple" }
%"class.std::tuple" = type { %"struct.std::_Tuple_impl" }
%"struct.std::_Tuple_impl" = type { %"struct.std::_Head_base.1" }
%"struct.std::_Head_base.1" = type { ptr }
%"class.hermes::StringTable" = type { ptr, %"class.llvh::DenseMap" }
%"class.llvh::DenseMap" = type <{ ptr, i32, i32, i32, [4 x i8] }>
%"class.std::map" = type { %"class.std::_Rb_tree" }
%"class.std::_Rb_tree" = type { %"struct.std::_Rb_tree<std::pair<hermes::UniqueString *, hermes::UniqueString *>, std::pair<const std::pair<hermes::UniqueString *, hermes::UniqueString *>, hermes::CompiledRegExp>, std::_Select1st<std::pair<const std::pair<hermes::UniqueString *, hermes::UniqueString *>, hermes::CompiledRegExp>>, std::less<std::pair<hermes::UniqueString *, hermes::UniqueString *>>>::_Rb_tree_impl" }
%"struct.std::_Rb_tree<std::pair<hermes::UniqueString *, hermes::UniqueString *>, std::pair<const std::pair<hermes::UniqueString *, hermes::UniqueString *>, hermes::CompiledRegExp>, std::_Select1st<std::pair<const std::pair<hermes::UniqueString *, hermes::UniqueString *>, hermes::CompiledRegExp>>, std::less<std::pair<hermes::UniqueString *, hermes::UniqueString *>>>::_Rb_tree_impl" = type { %"struct.std::_Rb_tree_key_compare", %"struct.std::_Rb_tree_header" }
%"struct.std::_Rb_tree_key_compare" = type { %"struct.std::less" }
%"struct.std::less" = type { i8 }
%"struct.std::_Rb_tree_header" = type { %"struct.std::_Rb_tree_node_base", i64 }
%"struct.std::_Rb_tree_node_base" = type { i32, ptr, ptr, ptr }
%"class.std::unique_ptr.5" = type { %"struct.std::__uniq_ptr_data.6" }
%"struct.std::__uniq_ptr_data.6" = type { %"class.std::__uniq_ptr_impl.7" }
%"class.std::__uniq_ptr_impl.7" = type { %"class.std::tuple.8" }
%"class.std::tuple.8" = type { %"struct.std::_Tuple_impl.9" }
%"struct.std::_Tuple_impl.9" = type { %"struct.std::_Head_base.12" }
%"struct.std::_Head_base.12" = type { ptr }
%"class.std::unique_ptr.13" = type { %"struct.std::__uniq_ptr_data.14" }
%"struct.std::__uniq_ptr_data.14" = type { %"class.std::__uniq_ptr_impl.15" }
%"class.std::__uniq_ptr_impl.15" = type { %"class.std::tuple.16" }
%"class.std::tuple.16" = type { %"struct.std::_Tuple_impl.17" }
%"struct.std::_Tuple_impl.17" = type { %"struct.std::_Head_base.20" }
%"struct.std::_Head_base.20" = type { ptr }
%"class.std::vector.21" = type { %"struct.std::_Vector_base.22" }
%"struct.std::_Vector_base.22" = type { %"struct.std::_Vector_base<unsigned int, std::allocator<unsigned int>>::_Vector_impl" }
%"struct.std::_Vector_base<unsigned int, std::allocator<unsigned int>>::_Vector_impl" = type { %"struct.std::_Vector_base<unsigned int, std::allocator<unsigned int>>::_Vector_impl_data" }
%"struct.std::_Vector_base<unsigned int, std::allocator<unsigned int>>::_Vector_impl_data" = type { ptr, ptr, ptr }
%"struct.hermes::CodeGenerationSettings" = type { i8, i8, i8, i8, i8, i8, i8, i8, i8, i8, [6 x i8], %"struct.hermes::CodeGenerationSettings_DumpSettings", %"struct.hermes::CodeGenerationSettings_DumpSettings", %"class.llvh::SmallDenseSet" }
%"struct.hermes::CodeGenerationSettings_DumpSettings" = type { i8, [7 x i8], %"class.llvh::SmallDenseSet", %"class.llvh::SmallDenseSet" }
%"class.llvh::SmallDenseSet" = type { %"class.llvh::detail::DenseSetImpl" }
%"class.llvh::detail::DenseSetImpl" = type { %"class.llvh::SmallDenseMap" }
%"class.llvh::SmallDenseMap" = type { i32, i32, %"struct.llvh::AlignedCharArrayUnion" }
%"struct.llvh::AlignedCharArrayUnion" = type { %"struct.llvh::AlignedCharArray" }
%"struct.llvh::AlignedCharArray" = type { [64 x i8] }
%"struct.hermes::OptimizationSettings" = type { i8, i8, i8, i8, i8, i8 }
%"class.std::shared_ptr" = type { %"class.std::__shared_ptr" }
%"class.std::__shared_ptr" = type { ptr, %"class.std::__shared_count" }
%"class.std::__shared_count" = type { ptr }
%"class.llvh::DenseMapIterator" = type { ptr, ptr }
%"struct.std::pair" = type { %"class.llvh::StringRef", ptr }
%"struct.std::pair.27" = type <{ %"class.llvh::DenseMapIterator", i8, [7 x i8] }>
%"struct.llvh::detail::DenseMapPair" = type { %"struct.std::pair" }
%"class.hermes::UniqueString" = type { %"class.llvh::StringRef" }
%"class.llvh::hash_code" = type { i64 }
%"class.hermes::BacktrackingBumpPtrAllocator::State" = type { i32, i64, %"class.llvh::SmallVector", ptr }
%"class.llvh::SmallVector" = type { %"class.llvh::SmallVectorImpl" }
%"class.llvh::SmallVectorImpl" = type { %"class.llvh::SmallVectorTemplateBase" }
%"class.llvh::SmallVectorTemplateBase" = type { %"class.llvh::SmallVectorTemplateCommon" }
%"class.llvh::SmallVectorTemplateCommon" = type { %"class.llvh::SmallVectorBase" }
%"class.llvh::SmallVectorBase" = type { ptr, i32, i32 }
%"struct.hermes::BacktrackingBumpPtrAllocator::Slab" = type { [262144 x i8] }
%"class.std::unique_ptr.29" = type { %"struct.std::__uniq_ptr_data.30" }
%"struct.std::__uniq_ptr_data.30" = type { %"class.std::__uniq_ptr_impl.31" }
%"class.std::__uniq_ptr_impl.31" = type { %"class.std::tuple.32" }
%"class.std::tuple.32" = type { %"struct.std::_Tuple_impl.33" }
%"struct.std::_Tuple_impl.33" = type { %"struct.std::_Head_base.36" }
%"struct.std::_Head_base.36" = type { ptr }
%"class.hermes::ESTree::Node" = type { %"class.llvh::ilist_node", i32, i32, %"class.llvh::SMRange", %"class.llvh::SMLoc" }
%"class.llvh::ilist_node" = type { %"class.llvh::ilist_node_impl" }
%"class.llvh::ilist_node_impl" = type { %"class.llvh::ilist_node_base" }
%"class.llvh::ilist_node_base" = type { ptr, ptr }
%"class.llvh::SMRange" = type { %"class.llvh::SMLoc", %"class.llvh::SMLoc" }
%"class.llvh::SMLoc" = type { ptr }
%"struct.std::__detail::__variant::_Variant_storage" = type <{ %"union.std::__detail::__variant::_Variadic_union", i8, [7 x i8] }>
%"class.hermes::ESTree::ProgramNode" = type { %"class.hermes::ESTree::FunctionLikeNode.base", %"class.hermes::ESTree::ProgramDecoration", %"class.llvh::simple_ilist" }
%"class.hermes::ESTree::FunctionLikeNode.base" = type <{ %"class.hermes::ESTree::Node", %"class.hermes::ESTree::FunctionLikeDecoration.base" }>
%"class.hermes::ESTree::FunctionLikeDecoration.base" = type <{ ptr, i32, i32, i8 }>
%"class.hermes::ESTree::ProgramDecoration" = type { %"class.llvh::simple_ilist" }
%"class.llvh::simple_ilist" = type { %"class.llvh::ilist_sentinel" }
%"class.llvh::ilist_sentinel" = type { %"class.llvh::ilist_node_impl" }
%"class.hermes::ESTree::FunctionExpressionNode" = type <{ %"class.hermes::ESTree::FunctionLikeNode.base", [7 x i8], ptr, %"class.llvh::simple_ilist", ptr, ptr, ptr, ptr, i8, i8, [6 x i8] }>
%"class.hermes::ESTree::ArrowFunctionExpressionNode" = type <{ %"class.hermes::ESTree::FunctionLikeNode.base", [7 x i8], ptr, %"class.llvh::simple_ilist", ptr, ptr, ptr, ptr, i8, i8, [6 x i8] }>
%"class.hermes::ESTree::FunctionDeclarationNode" = type <{ %"class.hermes::ESTree::FunctionLikeNode.base", [7 x i8], ptr, %"class.llvh::simple_ilist", ptr, ptr, ptr, ptr, i8, i8, [6 x i8] }>
%"class.hermes::ESTree::ComponentDeclarationNode" = type { %"class.hermes::ESTree::FunctionLikeNode.base", ptr, %"class.llvh::simple_ilist", ptr, ptr, ptr }
%"class.hermes::ESTree::WhileStatementNode" = type { %"class.hermes::ESTree::LoopStatementNode.base", ptr, ptr }
%"class.hermes::ESTree::LoopStatementNode.base" = type <{ %"class.hermes::ESTree::StatementNode", %"class.hermes::ESTree::LoopStatementDecoration" }>
%"class.hermes::ESTree::StatementNode" = type { %"class.hermes::ESTree::Node" }
%"class.hermes::ESTree::LoopStatementDecoration" = type { %"class.hermes::ESTree::LabelDecorationBase" }
%"class.hermes::ESTree::LabelDecorationBase" = type { i32 }
%"class.hermes::ESTree::DoWhileStatementNode" = type { %"class.hermes::ESTree::LoopStatementNode.base", ptr, ptr }
%"class.hermes::ESTree::ForInStatementNode" = type { %"class.hermes::ESTree::LoopStatementNode.base", ptr, ptr, ptr }
%"class.hermes::ESTree::ForOfStatementNode" = type <{ %"class.hermes::ESTree::LoopStatementNode.base", [4 x i8], ptr, ptr, ptr, i8, [7 x i8] }>
%"class.hermes::ESTree::ForStatementNode" = type { %"class.hermes::ESTree::LoopStatementNode.base", ptr, ptr, ptr, ptr }
%"class.hermes::ESTree::BlockStatementNode" = type { %"class.hermes::ESTree::StatementNode", %"class.hermes::ESTree::BlockStatementDecoration.base", %"class.llvh::simple_ilist" }
%"class.hermes::ESTree::BlockStatementDecoration.base" = type <{ i32, i8, i8, i8 }>
%"class.hermes::ESTree::BreakStatementNode" = type { %"class.hermes::ESTree::StatementNode", %"class.hermes::ESTree::BreakStatementDecoration", ptr }
%"class.hermes::ESTree::BreakStatementDecoration" = type { %"class.hermes::ESTree::GotoDecorationBase" }
%"class.hermes::ESTree::GotoDecorationBase" = type { %"class.hermes::ESTree::LabelDecorationBase" }
%"class.hermes::ESTree::ContinueStatementNode" = type { %"class.hermes::ESTree::StatementNode", %"class.hermes::ESTree::ContinueStatementDecoration", ptr }
%"class.hermes::ESTree::ContinueStatementDecoration" = type { %"class.hermes::ESTree::GotoDecorationBase" }
%"class.hermes::ESTree::ThrowStatementNode" = type { %"class.hermes::ESTree::StatementNode", ptr }
%"class.hermes::ESTree::ReturnStatementNode" = type { %"class.hermes::ESTree::StatementNode", ptr }
%"class.hermes::ESTree::WithStatementNode" = type { %"class.hermes::ESTree::StatementNode", ptr, ptr }
%"class.hermes::ESTree::SwitchStatementNode" = type { %"class.hermes::ESTree::StatementNode", %"class.hermes::ESTree::SwitchStatementDecoration", ptr, %"class.llvh::simple_ilist" }
%"class.hermes::ESTree::SwitchStatementDecoration" = type { %"class.hermes::ESTree::LabelDecorationBase" }
%"class.hermes::ESTree::LabeledStatementNode" = type { %"class.hermes::ESTree::StatementNode", %"class.hermes::ESTree::LabeledStatementDecoration", ptr, ptr }
%"class.hermes::ESTree::LabeledStatementDecoration" = type { %"class.hermes::ESTree::LabelDecorationBase" }
%"class.hermes::ESTree::ExpressionStatementNode" = type { %"class.hermes::ESTree::StatementNode", ptr, ptr }
%"class.hermes::ESTree::TryStatementNode" = type { %"class.hermes::ESTree::StatementNode", ptr, ptr, ptr }
%"class.hermes::ESTree::IfStatementNode" = type { %"class.hermes::ESTree::StatementNode", ptr, ptr, ptr }
%"class.hermes::ESTree::BooleanLiteralNode" = type <{ %"class.hermes::ESTree::Node", i8, [7 x i8] }>
%"class.hermes::ESTree::StringLiteralNode" = type { %"class.hermes::ESTree::Node", ptr }
%"class.hermes::ESTree::NumericLiteralNode" = type { %"class.hermes::ESTree::Node", double }
%"class.hermes::ESTree::RegExpLiteralNode" = type { %"class.hermes::ESTree::Node", ptr, ptr }
%"class.hermes::ESTree::BigIntLiteralNode" = type { %"class.hermes::ESTree::Node", ptr }
%"class.hermes::ESTree::SequenceExpressionNode" = type { %"class.hermes::ESTree::Node", %"class.llvh::simple_ilist" }
%"class.hermes::ESTree::ObjectExpressionNode" = type { %"class.hermes::ESTree::Node", %"class.llvh::simple_ilist" }
%"class.hermes::ESTree::ArrayExpressionNode" = type <{ %"class.hermes::ESTree::Node", %"class.llvh::simple_ilist", i8, [7 x i8] }>
%"class.hermes::ESTree::SpreadElementNode" = type { %"class.hermes::ESTree::Node", ptr }
%"class.hermes::ESTree::NewExpressionNode" = type { %"class.hermes::ESTree::Node", ptr, ptr, %"class.llvh::simple_ilist" }
%"class.hermes::ESTree::YieldExpressionNode" = type <{ %"class.hermes::ESTree::Node", ptr, i8, [7 x i8] }>
%"class.hermes::ESTree::AwaitExpressionNode" = type { %"class.hermes::ESTree::Node", ptr }
%"class.hermes::ESTree::ImportExpressionNode" = type { %"class.hermes::ESTree::Node", ptr, ptr }
%"class.hermes::ESTree::CallExpressionNode" = type { %"class.hermes::ESTree::CallExpressionLikeNode", ptr, ptr, %"class.llvh::simple_ilist" }
%"class.hermes::ESTree::CallExpressionLikeNode" = type { %"class.hermes::ESTree::Node" }
%"class.hermes::ESTree::OptionalCallExpressionNode" = type <{ %"class.hermes::ESTree::CallExpressionLikeNode", ptr, ptr, %"class.llvh::simple_ilist", i8, [7 x i8] }>
%"class.hermes::ESTree::AssignmentExpressionNode" = type { %"class.hermes::ESTree::Node", ptr, ptr, ptr }
%"class.hermes::ESTree::UnaryExpressionNode" = type <{ %"class.hermes::ESTree::Node", ptr, ptr, i8, [7 x i8] }>
%"class.hermes::ESTree::UpdateExpressionNode" = type <{ %"class.hermes::ESTree::Node", ptr, ptr, i8, [7 x i8] }>
%"class.hermes::ESTree::MemberExpressionNode" = type <{ %"class.hermes::ESTree::MemberExpressionLikeNode", ptr, ptr, i8, [7 x i8] }>
%"class.hermes::ESTree::MemberExpressionLikeNode" = type { %"class.hermes::ESTree::Node" }
%"class.hermes::ESTree::OptionalMemberExpressionNode" = type <{ %"class.hermes::ESTree::MemberExpressionLikeNode", ptr, ptr, i8, i8, [6 x i8] }>
%"class.hermes::ESTree::LogicalExpressionNode" = type { %"class.hermes::ESTree::Node", ptr, ptr, ptr }
%"class.hermes::ESTree::ConditionalExpressionNode" = type { %"class.hermes::ESTree::Node", ptr, ptr, ptr }
%"class.hermes::ESTree::BinaryExpressionNode" = type { %"class.hermes::ESTree::Node", ptr, ptr, ptr }
%"class.hermes::ESTree::DirectiveNode" = type { %"class.hermes::ESTree::Node", ptr }
%"class.hermes::ESTree::DirectiveLiteralNode" = type { %"class.hermes::ESTree::Node", ptr }
%"class.hermes::ESTree::IdentifierNode" = type <{ %"class.hermes::ESTree::Node", ptr, ptr, i8, [7 x i8] }>
%"class.hermes::ESTree::PrivateNameNode" = type { %"class.hermes::ESTree::Node", ptr }
%"class.hermes::ESTree::MetaPropertyNode" = type { %"class.hermes::ESTree::Node", ptr, ptr }
%"class.hermes::ESTree::SwitchCaseNode" = type { %"class.hermes::ESTree::Node", ptr, %"class.llvh::simple_ilist" }
%"class.hermes::ESTree::CatchClauseNode" = type { %"class.hermes::ESTree::Node", ptr, ptr }
%"class.hermes::ESTree::VariableDeclaratorNode" = type { %"class.hermes::ESTree::Node", ptr, ptr }
%"class.hermes::ESTree::VariableDeclarationNode" = type { %"class.hermes::ESTree::Node", ptr, %"class.llvh::simple_ilist" }
%"class.hermes::ESTree::TemplateLiteralNode" = type { %"class.hermes::ESTree::Node", %"class.llvh::simple_ilist", %"class.llvh::simple_ilist" }
%"class.hermes::ESTree::TaggedTemplateExpressionNode" = type { %"class.hermes::ESTree::Node", ptr, ptr }
%"class.hermes::ESTree::TemplateElementNode" = type { %"class.hermes::ESTree::Node", i8, ptr, ptr }
%"class.hermes::ESTree::PropertyNode" = type <{ %"class.hermes::ESTree::Node", ptr, ptr, ptr, i8, i8, i8, [5 x i8] }>
%"class.hermes::ESTree::ClassDeclarationNode" = type { %"class.hermes::ESTree::Node", ptr, ptr, ptr, ptr, %"class.llvh::simple_ilist", %"class.llvh::simple_ilist", ptr }
%"class.hermes::ESTree::ClassExpressionNode" = type { %"class.hermes::ESTree::Node", ptr, ptr, ptr, ptr, %"class.llvh::simple_ilist", %"class.llvh::simple_ilist", ptr }
%"class.hermes::ESTree::ClassBodyNode" = type { %"class.hermes::ESTree::Node", %"class.llvh::simple_ilist" }
%"class.hermes::ESTree::ClassPropertyNode" = type { %"class.hermes::ESTree::Node", ptr, ptr, i8, i8, i8, i8, ptr, ptr, ptr }
%"class.hermes::ESTree::ClassPrivatePropertyNode" = type { %"class.hermes::ESTree::Node", ptr, ptr, i8, i8, i8, ptr, ptr, ptr }
%"class.hermes::ESTree::MethodDefinitionNode" = type <{ %"class.hermes::ESTree::Node", ptr, ptr, ptr, i8, i8, [6 x i8] }>
%"class.hermes::ESTree::ImportDeclarationNode" = type { %"class.hermes::ESTree::Node", %"class.llvh::simple_ilist", ptr, %"class.llvh::simple_ilist", ptr }
%"class.hermes::ESTree::ImportSpecifierNode" = type { %"class.hermes::ESTree::Node", ptr, ptr, ptr }
%"class.hermes::ESTree::ImportDefaultSpecifierNode" = type { %"class.hermes::ESTree::Node", ptr }
%"class.hermes::ESTree::ImportNamespaceSpecifierNode" = type { %"class.hermes::ESTree::Node", ptr }
%"class.hermes::ESTree::ImportAttributeNode" = type { %"class.hermes::ESTree::Node", ptr, ptr }
%"class.hermes::ESTree::ExportNamedDeclarationNode" = type { %"class.hermes::ESTree::Node", ptr, %"class.llvh::simple_ilist", ptr, ptr }
%"class.hermes::ESTree::ExportSpecifierNode" = type { %"class.hermes::ESTree::Node", ptr, ptr }
%"class.hermes::ESTree::ExportNamespaceSpecifierNode" = type { %"class.hermes::ESTree::Node", ptr }
%"class.hermes::ESTree::ExportDefaultDeclarationNode" = type { %"class.hermes::ESTree::Node", ptr }
%"class.hermes::ESTree::ExportAllDeclarationNode" = type { %"class.hermes::ESTree::Node", ptr, ptr }
%"class.hermes::ESTree::ObjectPatternNode" = type { %"class.hermes::ESTree::PatternNode", %"class.llvh::simple_ilist", ptr }
%"class.hermes::ESTree::PatternNode" = type { %"class.hermes::ESTree::Node" }
%"class.hermes::ESTree::ArrayPatternNode" = type { %"class.hermes::ESTree::PatternNode", %"class.llvh::simple_ilist", ptr }
%"class.hermes::ESTree::RestElementNode" = type { %"class.hermes::ESTree::PatternNode", ptr }
%"class.hermes::ESTree::AssignmentPatternNode" = type { %"class.hermes::ESTree::PatternNode", ptr, ptr }
%"class.hermes::ESTree::JSXIdentifierNode" = type { %"class.hermes::ESTree::JSXNode", ptr }
%"class.hermes::ESTree::JSXNode" = type { %"class.hermes::ESTree::Node" }
%"class.hermes::ESTree::JSXMemberExpressionNode" = type { %"class.hermes::ESTree::JSXNode", ptr, ptr }
%"class.hermes::ESTree::JSXNamespacedNameNode" = type { %"class.hermes::ESTree::JSXNode", ptr, ptr }
%"class.hermes::ESTree::JSXExpressionContainerNode" = type { %"class.hermes::ESTree::JSXNode", ptr }
%"class.hermes::ESTree::JSXSpreadChildNode" = type { %"class.hermes::ESTree::JSXNode", ptr }
%"class.hermes::ESTree::JSXOpeningElementNode" = type { %"class.hermes::ESTree::JSXNode", ptr, %"class.llvh::simple_ilist", i8, ptr }
%"class.hermes::ESTree::JSXClosingElementNode" = type { %"class.hermes::ESTree::JSXNode", ptr }
%"class.hermes::ESTree::JSXAttributeNode" = type { %"class.hermes::ESTree::JSXNode", ptr, ptr }
%"class.hermes::ESTree::JSXSpreadAttributeNode" = type { %"class.hermes::ESTree::JSXNode", ptr }
%"class.hermes::ESTree::JSXStringLiteralNode" = type { %"class.hermes::ESTree::JSXNode", ptr, ptr }
%"class.hermes::ESTree::JSXTextNode" = type { %"class.hermes::ESTree::JSXNode", ptr, ptr }
%"class.hermes::ESTree::JSXElementNode" = type { %"class.hermes::ESTree::JSXNode", ptr, %"class.llvh::simple_ilist", ptr }
%"class.hermes::ESTree::JSXFragmentNode" = type { %"class.hermes::ESTree::JSXNode", ptr, %"class.llvh::simple_ilist", ptr }
%"class.hermes::ESTree::StringLiteralTypeAnnotationNode" = type { %"class.hermes::ESTree::FlowNode", ptr, ptr }
%"class.hermes::ESTree::FlowNode" = type { %"class.hermes::ESTree::Node" }
%"class.hermes::ESTree::NumberLiteralTypeAnnotationNode" = type { %"class.hermes::ESTree::FlowNode", double, ptr }
%"class.hermes::ESTree::BigIntLiteralTypeAnnotationNode" = type { %"class.hermes::ESTree::FlowNode", ptr }
%"class.hermes::ESTree::BooleanLiteralTypeAnnotationNode" = type { %"class.hermes::ESTree::FlowNode", i8, ptr }
%"class.hermes::ESTree::FunctionTypeAnnotationNode" = type { %"class.hermes::ESTree::FlowNode", %"class.llvh::simple_ilist", ptr, ptr, ptr, ptr }
%"class.hermes::ESTree::FunctionTypeParamNode" = type <{ %"class.hermes::ESTree::FlowNode", ptr, ptr, i8, [7 x i8] }>
%"class.hermes::ESTree::ComponentTypeAnnotationNode" = type { %"class.hermes::ESTree::FlowNode", %"class.llvh::simple_ilist", ptr, ptr, ptr }
%"class.hermes::ESTree::ComponentTypeParameterNode" = type <{ %"class.hermes::ESTree::FlowNode", ptr, ptr, i8, [7 x i8] }>
%"class.hermes::ESTree::NullableTypeAnnotationNode" = type { %"class.hermes::ESTree::FlowNode", ptr }
%"class.hermes::ESTree::QualifiedTypeIdentifierNode" = type { %"class.hermes::ESTree::FlowNode", ptr, ptr }
%"class.hermes::ESTree::TypeofTypeAnnotationNode" = type { %"class.hermes::ESTree::FlowNode", ptr }
%"class.hermes::ESTree::KeyofTypeAnnotationNode" = type { %"class.hermes::ESTree::FlowNode", ptr }
%"class.hermes::ESTree::TypeOperatorNode" = type { %"class.hermes::ESTree::FlowNode", ptr, ptr }
%"class.hermes::ESTree::QualifiedTypeofIdentifierNode" = type { %"class.hermes::ESTree::FlowNode", ptr, ptr }
%"class.hermes::ESTree::TupleTypeAnnotationNode" = type { %"class.hermes::ESTree::FlowNode", %"class.llvh::simple_ilist" }
%"class.hermes::ESTree::TupleTypeSpreadElementNode" = type { %"class.hermes::ESTree::FlowNode", ptr, ptr }
%"class.hermes::ESTree::TupleTypeLabeledElementNode" = type { %"class.hermes::ESTree::FlowNode", ptr, ptr, i8, ptr }
%"class.hermes::ESTree::ArrayTypeAnnotationNode" = type { %"class.hermes::ESTree::FlowNode", ptr }
%"class.hermes::ESTree::InferTypeAnnotationNode" = type { %"class.hermes::ESTree::FlowNode", ptr }
%"class.hermes::ESTree::UnionTypeAnnotationNode" = type { %"class.hermes::ESTree::FlowNode", %"class.llvh::simple_ilist" }
%"class.hermes::ESTree::IntersectionTypeAnnotationNode" = type { %"class.hermes::ESTree::FlowNode", %"class.llvh::simple_ilist" }
%"class.hermes::ESTree::GenericTypeAnnotationNode" = type { %"class.hermes::ESTree::FlowNode", ptr, ptr }
%"class.hermes::ESTree::IndexedAccessTypeNode" = type { %"class.hermes::ESTree::FlowNode", ptr, ptr }
%"class.hermes::ESTree::OptionalIndexedAccessTypeNode" = type <{ %"class.hermes::ESTree::FlowNode", ptr, ptr, i8, [7 x i8] }>
%"class.hermes::ESTree::ConditionalTypeAnnotationNode" = type { %"class.hermes::ESTree::FlowNode", ptr, ptr, ptr, ptr }
%"class.hermes::ESTree::TypePredicateNode" = type <{ %"class.hermes::ESTree::FlowNode", ptr, ptr, i8, [7 x i8] }>
%"class.hermes::ESTree::InterfaceTypeAnnotationNode" = type { %"class.hermes::ESTree::FlowNode", %"class.llvh::simple_ilist", ptr }
%"class.hermes::ESTree::TypeAliasNode" = type { %"class.hermes::ESTree::FlowNode", ptr, ptr, ptr }
%"class.hermes::ESTree::OpaqueTypeNode" = type { %"class.hermes::ESTree::FlowNode", ptr, ptr, ptr, ptr }
%"class.hermes::ESTree::InterfaceDeclarationNode" = type { %"class.hermes::ESTree::FlowNode", ptr, ptr, %"class.llvh::simple_ilist", ptr }
%"class.hermes::ESTree::DeclareTypeAliasNode" = type { %"class.hermes::ESTree::FlowNode", ptr, ptr, ptr }
%"class.hermes::ESTree::DeclareOpaqueTypeNode" = type { %"class.hermes::ESTree::FlowNode", ptr, ptr, ptr, ptr }
%"class.hermes::ESTree::DeclareInterfaceNode" = type { %"class.hermes::ESTree::FlowNode", ptr, ptr, %"class.llvh::simple_ilist", ptr }
%"class.hermes::ESTree::DeclareClassNode" = type { %"class.hermes::ESTree::FlowNode", ptr, ptr, %"class.llvh::simple_ilist", %"class.llvh::simple_ilist", %"class.llvh::simple_ilist", ptr }
%"class.hermes::ESTree::DeclareFunctionNode" = type { %"class.hermes::ESTree::FlowNode", ptr, ptr }
%"class.hermes::ESTree::DeclareComponentNode" = type { %"class.hermes::ESTree::FlowNode", ptr, %"class.llvh::simple_ilist", ptr, ptr, ptr }
%"class.hermes::ESTree::DeclareVariableNode" = type { %"class.hermes::ESTree::FlowNode", ptr, ptr }
%"class.hermes::ESTree::DeclareEnumNode" = type { %"class.hermes::ESTree::FlowNode", ptr, ptr }
%"class.hermes::ESTree::DeclareExportDeclarationNode" = type <{ %"class.hermes::ESTree::FlowNode", ptr, %"class.llvh::simple_ilist", ptr, i8, [7 x i8] }>
%"class.hermes::ESTree::DeclareExportAllDeclarationNode" = type { %"class.hermes::ESTree::FlowNode", ptr }
%"class.hermes::ESTree::DeclareModuleNode" = type { %"class.hermes::ESTree::FlowNode", ptr, ptr, ptr }
%"class.hermes::ESTree::DeclareModuleExportsNode" = type { %"class.hermes::ESTree::FlowNode", ptr }
%"class.hermes::ESTree::InterfaceExtendsNode" = type { %"class.hermes::ESTree::FlowNode", ptr, ptr }
%"class.hermes::ESTree::ClassImplementsNode" = type { %"class.hermes::ESTree::FlowNode", ptr, ptr }
%"class.hermes::ESTree::TypeAnnotationNode" = type { %"class.hermes::ESTree::FlowNode", ptr }
%"class.hermes::ESTree::ObjectTypeAnnotationNode" = type <{ %"class.hermes::ESTree::FlowNode", %"class.llvh::simple_ilist", %"class.llvh::simple_ilist", %"class.llvh::simple_ilist", %"class.llvh::simple_ilist", i8, i8, [6 x i8] }>
%"class.hermes::ESTree::ObjectTypePropertyNode" = type { %"class.hermes::ESTree::FlowNode", ptr, ptr, i8, i8, i8, i8, ptr, ptr }
%"class.hermes::ESTree::ObjectTypeSpreadPropertyNode" = type { %"class.hermes::ESTree::FlowNode", ptr }
%"class.hermes::ESTree::ObjectTypeInternalSlotNode" = type <{ %"class.hermes::ESTree::FlowNode", ptr, ptr, i8, i8, i8, [5 x i8] }>
%"class.hermes::ESTree::ObjectTypeCallPropertyNode" = type <{ %"class.hermes::ESTree::FlowNode", ptr, i8, [7 x i8] }>
%"class.hermes::ESTree::ObjectTypeIndexerNode" = type { %"class.hermes::ESTree::FlowNode", ptr, ptr, ptr, i8, ptr }
%"class.hermes::ESTree::ObjectTypeMappedTypePropertyNode" = type { %"class.hermes::ESTree::FlowNode", ptr, ptr, ptr, ptr, ptr }
%"class.hermes::ESTree::VarianceNode" = type { %"class.hermes::ESTree::FlowNode", ptr }
%"class.hermes::ESTree::TypeParameterDeclarationNode" = type { %"class.hermes::ESTree::FlowNode", %"class.llvh::simple_ilist" }
%"class.hermes::ESTree::TypeParameterNode" = type <{ %"class.hermes::ESTree::FlowNode", ptr, ptr, ptr, ptr, i8, [7 x i8] }>
%"class.hermes::ESTree::TypeParameterInstantiationNode" = type { %"class.hermes::ESTree::FlowNode", %"class.llvh::simple_ilist" }
%"class.hermes::ESTree::TypeCastExpressionNode" = type { %"class.hermes::ESTree::FlowNode", ptr, ptr }
%"class.hermes::ESTree::AsExpressionNode" = type { %"class.hermes::ESTree::FlowNode", ptr, ptr }
%"class.hermes::ESTree::DeclaredPredicateNode" = type { %"class.hermes::ESTree::FlowNode", ptr }
%"class.hermes::ESTree::EnumDeclarationNode" = type { %"class.hermes::ESTree::FlowNode", ptr, ptr }
%"class.hermes::ESTree::EnumStringBodyNode" = type <{ %"class.hermes::ESTree::FlowNode", %"class.llvh::simple_ilist", i8, i8, [6 x i8] }>
%"class.hermes::ESTree::EnumNumberBodyNode" = type <{ %"class.hermes::ESTree::FlowNode", %"class.llvh::simple_ilist", i8, i8, [6 x i8] }>
%"class.hermes::ESTree::EnumBooleanBodyNode" = type <{ %"class.hermes::ESTree::FlowNode", %"class.llvh::simple_ilist", i8, i8, [6 x i8] }>
%"class.hermes::ESTree::EnumSymbolBodyNode" = type <{ %"class.hermes::ESTree::FlowNode", %"class.llvh::simple_ilist", i8, [7 x i8] }>
%"class.hermes::ESTree::EnumDefaultedMemberNode" = type { %"class.hermes::ESTree::FlowNode", ptr }
%"class.hermes::ESTree::EnumStringMemberNode" = type { %"class.hermes::ESTree::FlowNode", ptr, ptr }
%"class.hermes::ESTree::EnumNumberMemberNode" = type { %"class.hermes::ESTree::FlowNode", ptr, ptr }
%"class.hermes::ESTree::EnumBooleanMemberNode" = type { %"class.hermes::ESTree::FlowNode", ptr, ptr }
%"class.hermes::ESTree::ComponentParameterNode" = type <{ %"class.hermes::ESTree::FlowNode", ptr, ptr, i8, [7 x i8] }>
%"class.hermes::ESTree::TSTypeAnnotationNode" = type { %"class.hermes::ESTree::TSNode", ptr }
%"class.hermes::ESTree::TSNode" = type { %"class.hermes::ESTree::Node" }
%"class.hermes::ESTree::TSLiteralTypeNode" = type { %"class.hermes::ESTree::TSNode", ptr }
%"class.hermes::ESTree::TSIndexedAccessTypeNode" = type { %"class.hermes::ESTree::TSNode", ptr, ptr }
%"class.hermes::ESTree::TSArrayTypeNode" = type { %"class.hermes::ESTree::TSNode", ptr }
%"class.hermes::ESTree::TSTypeReferenceNode" = type { %"class.hermes::ESTree::TSNode", ptr, ptr }
%"class.hermes::ESTree::TSQualifiedNameNode" = type { %"class.hermes::ESTree::TSNode", ptr, ptr }
%"class.hermes::ESTree::TSFunctionTypeNode" = type { %"class.hermes::ESTree::TSNode", %"class.llvh::simple_ilist", ptr, ptr }
%"class.hermes::ESTree::TSConstructorTypeNode" = type { %"class.hermes::ESTree::TSNode", %"class.llvh::simple_ilist", ptr, ptr }
%"class.hermes::ESTree::TSTypePredicateNode" = type { %"class.hermes::ESTree::TSNode", ptr, ptr }
%"class.hermes::ESTree::TSTupleTypeNode" = type { %"class.hermes::ESTree::TSNode", %"class.llvh::simple_ilist" }
%"class.hermes::ESTree::TSTypeAssertionNode" = type { %"class.hermes::ESTree::TSNode", ptr, ptr }
%"class.hermes::ESTree::TSAsExpressionNode" = type { %"class.hermes::ESTree::TSNode", ptr, ptr }
%"class.hermes::ESTree::TSParameterPropertyNode" = type <{ %"class.hermes::ESTree::TSNode", ptr, ptr, i8, i8, i8, [5 x i8] }>
%"class.hermes::ESTree::TSTypeAliasDeclarationNode" = type { %"class.hermes::ESTree::TSNode", ptr, ptr, ptr }
%"class.hermes::ESTree::TSInterfaceDeclarationNode" = type { %"class.hermes::ESTree::TSNode", ptr, ptr, %"class.llvh::simple_ilist", ptr }
%"class.hermes::ESTree::TSInterfaceHeritageNode" = type { %"class.hermes::ESTree::TSNode", ptr, ptr }
%"class.hermes::ESTree::TSInterfaceBodyNode" = type { %"class.hermes::ESTree::TSNode", %"class.llvh::simple_ilist" }
%"class.hermes::ESTree::TSEnumDeclarationNode" = type { %"class.hermes::ESTree::TSNode", ptr, %"class.llvh::simple_ilist" }
%"class.hermes::ESTree::TSEnumMemberNode" = type { %"class.hermes::ESTree::TSNode", ptr, ptr }
%"class.hermes::ESTree::TSModuleDeclarationNode" = type { %"class.hermes::ESTree::TSNode", ptr, ptr }
%"class.hermes::ESTree::TSModuleBlockNode" = type { %"class.hermes::ESTree::TSNode", %"class.llvh::simple_ilist" }
%"class.hermes::ESTree::TSModuleMemberNode" = type { %"class.hermes::ESTree::TSNode", ptr, ptr }
%"class.hermes::ESTree::TSTypeParameterDeclarationNode" = type { %"class.hermes::ESTree::TSNode", %"class.llvh::simple_ilist" }
%"class.hermes::ESTree::TSTypeParameterNode" = type { %"class.hermes::ESTree::TSNode", ptr, ptr, ptr }
%"class.hermes::ESTree::TSTypeParameterInstantiationNode" = type { %"class.hermes::ESTree::TSNode", %"class.llvh::simple_ilist" }
%"class.hermes::ESTree::TSUnionTypeNode" = type { %"class.hermes::ESTree::TSNode", %"class.llvh::simple_ilist" }
%"class.hermes::ESTree::TSIntersectionTypeNode" = type { %"class.hermes::ESTree::TSNode", %"class.llvh::simple_ilist" }
%"class.hermes::ESTree::TSTypeQueryNode" = type { %"class.hermes::ESTree::TSNode", ptr }
%"class.hermes::ESTree::TSConditionalTypeNode" = type { %"class.hermes::ESTree::TSNode", ptr, ptr, ptr, ptr }
%"class.hermes::ESTree::TSTypeLiteralNode" = type { %"class.hermes::ESTree::TSNode", %"class.llvh::simple_ilist" }
%"class.hermes::ESTree::TSPropertySignatureNode" = type <{ %"class.hermes::ESTree::TSNode", ptr, ptr, ptr, i8, i8, i8, i8, i8, [3 x i8] }>
%"class.hermes::ESTree::TSMethodSignatureNode" = type <{ %"class.hermes::ESTree::TSNode", ptr, %"class.llvh::simple_ilist", ptr, i8, [7 x i8] }>
%"class.hermes::ESTree::TSIndexSignatureNode" = type { %"class.hermes::ESTree::TSNode", %"class.llvh::simple_ilist", ptr }
%"class.hermes::ESTree::TSCallSignatureDeclarationNode" = type { %"class.hermes::ESTree::TSNode", %"class.llvh::simple_ilist", ptr }
%"class.hermes::ESTree::TSModifiersNode" = type <{ %"class.hermes::ESTree::TSNode", ptr, i8, [7 x i8] }>
%"class.hermes::ESTree::CoverInitializerNode" = type { %"class.hermes::ESTree::CoverNode", ptr }
%"class.hermes::ESTree::CoverNode" = type { %"class.hermes::ESTree::Node" }
%"class.hermes::ESTree::CoverRestElementNode" = type { %"class.hermes::ESTree::CoverNode", ptr }
%"class.hermes::ESTree::CoverTypedIdentifierNode" = type <{ %"class.hermes::ESTree::CoverNode", ptr, ptr, i8, [7 x i8] }>
%"class.llvh::ilist_iterator" = type { ptr }
%"struct.std::__detail::__variant::_Uninitialized" = type { %"struct.hermes::ESTree::UnmodifiedT" }
%"class.(anonymous namespace)::NodeVector" = type { %"class.llvh::SmallVector.42" }
%"class.llvh::SmallVector.42" = type { %"class.llvh::SmallVectorImpl.43", %"struct.llvh::SmallVectorStorage.46" }
%"class.llvh::SmallVectorImpl.43" = type { %"class.llvh::SmallVectorTemplateBase.44" }
%"class.llvh::SmallVectorTemplateBase.44" = type { %"class.llvh::SmallVectorTemplateCommon.45" }
%"class.llvh::SmallVectorTemplateCommon.45" = type { %"class.llvh::SmallVectorBase" }
%"struct.llvh::SmallVectorStorage.46" = type { [8 x %"struct.llvh::AlignedCharArrayUnion.47"] }
%"struct.llvh::AlignedCharArrayUnion.47" = type { %"struct.llvh::AlignedCharArray.48" }
%"struct.llvh::AlignedCharArray.48" = type { [8 x i8] }
%"struct.(anonymous namespace)::VisitedClass" = type <{ ptr, ptr, i8, [7 x i8] }>
%"struct.(anonymous namespace)::ResolvedClassMember" = type { ptr, i8, ptr, ptr, ptr }
%"struct.(anonymous namespace)::ResolvedClassMembers" = type { ptr, %"class.llvh::SmallVector.51" }
%"class.llvh::SmallVector.51" = type { %"class.llvh::SmallVectorImpl.52", %"struct.llvh::SmallVectorStorage.55" }
%"class.llvh::SmallVectorImpl.52" = type { %"class.llvh::SmallVectorTemplateBase.53" }
%"class.llvh::SmallVectorTemplateBase.53" = type { %"class.llvh::SmallVectorTemplateCommon.54" }
%"class.llvh::SmallVectorTemplateCommon.54" = type { %"class.llvh::SmallVectorBase" }
%"struct.llvh::SmallVectorStorage.55" = type { [8 x %"struct.llvh::AlignedCharArrayUnion.56"] }
%"struct.llvh::AlignedCharArrayUnion.56" = type { %"struct.llvh::AlignedCharArray.57" }
%"struct.llvh::AlignedCharArray.57" = type { [40 x i8] }
%"class.std::initializer_list" = type { ptr, i64 }
%"class.llvh::DenseMap.58" = type <{ ptr, i32, i32, i32, [4 x i8] }>
%"struct.(anonymous namespace)::ClassMemberKey" = type <{ %"class.hermes::Identifier", i8, [7 x i8] }>
%"class.llvh::DenseMapIterator.61" = type { ptr, ptr }
%"struct.std::pair.63" = type { %"struct.(anonymous namespace)::ClassMemberKey", i64 }
%"struct.llvh::detail::DenseMapPair.62" = type { %"struct.std::pair.63" }
%"struct.llvh::hashing::detail::hash_combine_recursive_helper" = type { [64 x i8], %"struct.llvh::hashing::detail::hash_state", i64 }
%"struct.llvh::hashing::detail::hash_state" = type { i64, i64, i64, i64, i64, i64, i64 }
%"class.hermes::ESTree::BlockStatementDecoration" = type <{ i32, i8, i8, i8, i8 }>
%"class.hermes::ESTree::FunctionLikeDecoration" = type <{ ptr, i32, i32, i8, [7 x i8] }>

$_ZN6hermes25ES6ClassesTransformationsC2ERNS_7ContextE = comdat any

$_ZN6hermes6ESTree15visitESTreeNodeINS_25ES6ClassesTransformationsEEEvRT_PNS0_4NodeES6_ = comdat any

$_ZN6hermes7Context13getIdentifierEN4llvh9StringRefE = comdat any

$_ZNK6hermes10Identifier20getUnderlyingPointerEv = comdat any

$_ZN6hermes11StringTable13getIdentifierEN4llvh9StringRefE = comdat any

$_ZN6hermes10Identifier14getFromPointerEPNS_12UniqueStringE = comdat any

$_ZN6hermes11StringTable9getStringEN4llvh9StringRefE = comdat any

$_ZN6hermes10IdentifierC2EPNS_12UniqueStringE = comdat any

$_ZN4llvh12DenseMapBaseINS_8DenseMapINS_9StringRefEPN6hermes12UniqueStringENS_12DenseMapInfoIS2_EENS_6detail12DenseMapPairIS2_S5_EEEES2_S5_S7_SA_E4findERKS2_ = comdat any

$_ZNK4llvh16DenseMapIteratorINS_9StringRefEPN6hermes12UniqueStringENS_12DenseMapInfoIS1_EENS_6detail12DenseMapPairIS1_S4_EELb0EEneERKSA_ = comdat any

$_ZN4llvh12DenseMapBaseINS_8DenseMapINS_9StringRefEPN6hermes12UniqueStringENS_12DenseMapInfoIS2_EENS_6detail12DenseMapPairIS2_S5_EEEES2_S5_S7_SA_E3endEv = comdat any

$_ZNK4llvh16DenseMapIteratorINS_9StringRefEPN6hermes12UniqueStringENS_12DenseMapInfoIS1_EENS_6detail12DenseMapPairIS1_S4_EELb0EEptEv = comdat any

$_ZN6hermes28BacktrackingBumpPtrAllocator8AllocateINS_12UniqueStringEEEPT_mm = comdat any

$_ZN6hermes13zeroTerminateINS_28BacktrackingBumpPtrAllocatorEEEN4llvh9StringRefERT_S3_ = comdat any

$_ZN6hermes12UniqueStringC2EN4llvh9StringRefE = comdat any

$_ZN4llvh12DenseMapBaseINS_8DenseMapINS_9StringRefEPN6hermes12UniqueStringENS_12DenseMapInfoIS2_EENS_6detail12DenseMapPairIS2_S5_EEEES2_S5_S7_SA_E6insertEOSt4pairIS2_S5_E = comdat any

$_ZNK6hermes12UniqueString3strEv = comdat any

$_ZNSt4pairIN4llvh9StringRefEPN6hermes12UniqueStringEEC2IRKS1_RS4_TnNSt9enable_ifIXaaclsr5_PCCPE22_MoveConstructiblePairIT_T0_EEclsr5_PCCPE30_ImplicitlyMoveConvertiblePairISB_SC_EEEbE4typeELb1EEEOSB_OSC_ = comdat any

$_ZN4llvh12DenseMapBaseINS_8DenseMapINS_9StringRefEPN6hermes12UniqueStringENS_12DenseMapInfoIS2_EENS_6detail12DenseMapPairIS2_S5_EEEES2_S5_S7_SA_E15LookupBucketForIS2_EEbRKT_RPSA_ = comdat any

$_ZN4llvh12DenseMapBaseINS_8DenseMapINS_9StringRefEPN6hermes12UniqueStringENS_12DenseMapInfoIS2_EENS_6detail12DenseMapPairIS2_S5_EEEES2_S5_S7_SA_E12makeIteratorEPSA_SD_RNS_14DebugEpochBaseEb = comdat any

$_ZN4llvh12DenseMapBaseINS_8DenseMapINS_9StringRefEPN6hermes12UniqueStringENS_12DenseMapInfoIS2_EENS_6detail12DenseMapPairIS2_S5_EEEES2_S5_S7_SA_E13getBucketsEndEv = comdat any

$_ZNK4llvh12DenseMapBaseINS_8DenseMapINS_9StringRefEPN6hermes12UniqueStringENS_12DenseMapInfoIS2_EENS_6detail12DenseMapPairIS2_S5_EEEES2_S5_S7_SA_E15LookupBucketForIS2_EEbRKT_RPKSA_ = comdat any

$_ZNK4llvh12DenseMapBaseINS_8DenseMapINS_9StringRefEPN6hermes12UniqueStringENS_12DenseMapInfoIS2_EENS_6detail12DenseMapPairIS2_S5_EEEES2_S5_S7_SA_E10getBucketsEv = comdat any

$_ZNK4llvh12DenseMapBaseINS_8DenseMapINS_9StringRefEPN6hermes12UniqueStringENS_12DenseMapInfoIS2_EENS_6detail12DenseMapPairIS2_S5_EEEES2_S5_S7_SA_E13getNumBucketsEv = comdat any

$_ZN4llvh12DenseMapBaseINS_8DenseMapINS_9StringRefEPN6hermes12UniqueStringENS_12DenseMapInfoIS2_EENS_6detail12DenseMapPairIS2_S5_EEEES2_S5_S7_SA_E11getEmptyKeyEv = comdat any

$_ZN4llvh12DenseMapBaseINS_8DenseMapINS_9StringRefEPN6hermes12UniqueStringENS_12DenseMapInfoIS2_EENS_6detail12DenseMapPairIS2_S5_EEEES2_S5_S7_SA_E15getTombstoneKeyEv = comdat any

$_ZN4llvh12DenseMapBaseINS_8DenseMapINS_9StringRefEPN6hermes12UniqueStringENS_12DenseMapInfoIS2_EENS_6detail12DenseMapPairIS2_S5_EEEES2_S5_S7_SA_E12getHashValueERKS2_ = comdat any

$_ZN4llvh12DenseMapInfoINS_9StringRefEE7isEqualES1_S1_ = comdat any

$_ZNK4llvh6detail12DenseMapPairINS_9StringRefEPN6hermes12UniqueStringEE8getFirstEv = comdat any

$_ZNK4llvh8DenseMapINS_9StringRefEPN6hermes12UniqueStringENS_12DenseMapInfoIS1_EENS_6detail12DenseMapPairIS1_S4_EEE10getBucketsEv = comdat any

$_ZNK4llvh8DenseMapINS_9StringRefEPN6hermes12UniqueStringENS_12DenseMapInfoIS1_EENS_6detail12DenseMapPairIS1_S4_EEE13getNumBucketsEv = comdat any

$_ZN4llvh12DenseMapInfoINS_9StringRefEE11getEmptyKeyEv = comdat any

$_ZN4llvh12DenseMapInfoINS_9StringRefEE15getTombstoneKeyEv = comdat any

$_ZN4llvh12DenseMapInfoINS_9StringRefEE12getHashValueES1_ = comdat any

$_ZNK4llvh9hash_codecvmEv = comdat any

$_ZN4llvh20shouldReverseIterateINS_9StringRefEEEbv = comdat any

$_ZN4llvh12DenseMapBaseINS_8DenseMapINS_9StringRefEPN6hermes12UniqueStringENS_12DenseMapInfoIS2_EENS_6detail12DenseMapPairIS2_S5_EEEES2_S5_S7_SA_E10getBucketsEv = comdat any

$_ZN4llvh16DenseMapIteratorINS_9StringRefEPN6hermes12UniqueStringENS_12DenseMapInfoIS1_EENS_6detail12DenseMapPairIS1_S4_EELb0EEC2EPS9_SB_RKNS_14DebugEpochBaseEb = comdat any

$_ZN4llvh14DebugEpochBase10HandleBaseC2EPKS0_ = comdat any

$_ZN4llvh16DenseMapIteratorINS_9StringRefEPN6hermes12UniqueStringENS_12DenseMapInfoIS1_EENS_6detail12DenseMapPairIS1_S4_EELb0EE23RetreatPastEmptyBucketsEv = comdat any

$_ZN4llvh16DenseMapIteratorINS_9StringRefEPN6hermes12UniqueStringENS_12DenseMapInfoIS1_EENS_6detail12DenseMapPairIS1_S4_EELb0EE23AdvancePastEmptyBucketsEv = comdat any

$_ZN4llvh6detail12DenseMapPairINS_9StringRefEPN6hermes12UniqueStringEE8getFirstEv = comdat any

$_ZNK4llvh16DenseMapIteratorINS_9StringRefEPN6hermes12UniqueStringENS_12DenseMapInfoIS1_EENS_6detail12DenseMapPairIS1_S4_EELb0EEeqERKSA_ = comdat any

$_ZN6hermes28BacktrackingBumpPtrAllocator8AllocateEmm = comdat any

$_ZNSt6vectorISt10unique_ptrIN6hermes28BacktrackingBumpPtrAllocator4SlabESt14default_deleteIS3_EESaIS6_EEixEm = comdat any

$_ZNKSt10unique_ptrIN6hermes28BacktrackingBumpPtrAllocator4SlabESt14default_deleteIS2_EE3getEv = comdat any

$_ZN6hermes28BacktrackingBumpPtrAllocator11alignOffsetEmmm = comdat any

$_ZNKSt15__uniq_ptr_implIN6hermes28BacktrackingBumpPtrAllocator4SlabESt14default_deleteIS2_EE6_M_ptrEv = comdat any

$_ZSt3getILm0EJPN6hermes28BacktrackingBumpPtrAllocator4SlabESt14default_deleteIS2_EEERKNSt13tuple_elementIXT_ESt5tupleIJDpT0_EEE4typeERKSA_ = comdat any

$_ZSt12__get_helperILm0EPN6hermes28BacktrackingBumpPtrAllocator4SlabEJSt14default_deleteIS2_EEERKT0_RKSt11_Tuple_implIXT_EJS6_DpT1_EE = comdat any

$_ZNSt11_Tuple_implILm0EJPN6hermes28BacktrackingBumpPtrAllocator4SlabESt14default_deleteIS2_EEE7_M_headERKS6_ = comdat any

$_ZNSt10_Head_baseILm0EPN6hermes28BacktrackingBumpPtrAllocator4SlabELb0EE7_M_headERKS4_ = comdat any

$_ZN4llvh7alignToEmmm = comdat any

$_ZN6hermes28BacktrackingBumpPtrAllocator8AllocateIcEEPT_mm = comdat any

$_ZSt4copyIPKcPcET0_T_S4_S3_ = comdat any

$_ZNK4llvh9StringRef5beginEv = comdat any

$_ZNK4llvh9StringRef3endEv = comdat any

$_ZSt13__copy_move_aILb0EPKcPcET1_T0_S4_S3_ = comdat any

$_ZSt12__miter_baseIPKcET_S2_ = comdat any

$_ZSt12__niter_wrapIPcET_RKS1_S1_ = comdat any

$_ZSt14__copy_move_a1ILb0EPKcPcET1_T0_S4_S3_ = comdat any

$_ZSt12__niter_baseIPKcET_S2_ = comdat any

$_ZSt12__niter_baseIPcET_S1_ = comdat any

$_ZSt14__copy_move_a2ILb0EPKcPcET1_T0_S4_S3_ = comdat any

$_ZNSt11__copy_moveILb0ELb1ESt26random_access_iterator_tagE8__copy_mIcEEPT_PKS3_S6_S4_ = comdat any

$_ZN4llvh12DenseMapBaseINS_8DenseMapINS_9StringRefEPN6hermes12UniqueStringENS_12DenseMapInfoIS2_EENS_6detail12DenseMapPairIS2_S5_EEEES2_S5_S7_SA_E11try_emplaceIJS5_EEESt4pairINS_16DenseMapIteratorIS2_S5_S7_SA_Lb0EEEbEOS2_DpOT_ = comdat any

$_ZSt9make_pairIN4llvh16DenseMapIteratorINS0_9StringRefEPN6hermes12UniqueStringENS0_12DenseMapInfoIS2_EENS0_6detail12DenseMapPairIS2_S5_EELb0EEEbESt4pairINSt25__strip_reference_wrapperINSt5decayIT_E4typeEE6__typeENSD_INSE_IT0_E4typeEE6__typeEEOSF_OSK_ = comdat any

$_ZN4llvh12DenseMapBaseINS_8DenseMapINS_9StringRefEPN6hermes12UniqueStringENS_12DenseMapInfoIS2_EENS_6detail12DenseMapPairIS2_S5_EEEES2_S5_S7_SA_E16InsertIntoBucketIS2_JS5_EEEPSA_SE_OT_DpOT0_ = comdat any

$_ZNSt4pairIN4llvh16DenseMapIteratorINS0_9StringRefEPN6hermes12UniqueStringENS0_12DenseMapInfoIS2_EENS0_6detail12DenseMapPairIS2_S5_EELb0EEEbEC2ISB_bTnNSt9enable_ifIXaaclsr5_PCCPE22_MoveConstructiblePairIT_T0_EEclsr5_PCCPE30_ImplicitlyMoveConvertiblePairISF_SG_EEEbE4typeELb1EEEOSF_OSG_ = comdat any

$_ZN4llvh12DenseMapBaseINS_8DenseMapINS_9StringRefEPN6hermes12UniqueStringENS_12DenseMapInfoIS2_EENS_6detail12DenseMapPairIS2_S5_EEEES2_S5_S7_SA_E20InsertIntoBucketImplIS2_EEPSA_RKS2_RKT_SE_ = comdat any

$_ZN4llvh6detail12DenseMapPairINS_9StringRefEPN6hermes12UniqueStringEE9getSecondEv = comdat any

$_ZN4llvh14DebugEpochBase14incrementEpochEv = comdat any

$_ZNK4llvh12DenseMapBaseINS_8DenseMapINS_9StringRefEPN6hermes12UniqueStringENS_12DenseMapInfoIS2_EENS_6detail12DenseMapPairIS2_S5_EEEES2_S5_S7_SA_E13getNumEntriesEv = comdat any

$_ZN4llvh12DenseMapBaseINS_8DenseMapINS_9StringRefEPN6hermes12UniqueStringENS_12DenseMapInfoIS2_EENS_6detail12DenseMapPairIS2_S5_EEEES2_S5_S7_SA_E4growEj = comdat any

$_ZNK4llvh12DenseMapBaseINS_8DenseMapINS_9StringRefEPN6hermes12UniqueStringENS_12DenseMapInfoIS2_EENS_6detail12DenseMapPairIS2_S5_EEEES2_S5_S7_SA_E16getNumTombstonesEv = comdat any

$_ZN4llvh12DenseMapBaseINS_8DenseMapINS_9StringRefEPN6hermes12UniqueStringENS_12DenseMapInfoIS2_EENS_6detail12DenseMapPairIS2_S5_EEEES2_S5_S7_SA_E19incrementNumEntriesEv = comdat any

$_ZN4llvh12DenseMapBaseINS_8DenseMapINS_9StringRefEPN6hermes12UniqueStringENS_12DenseMapInfoIS2_EENS_6detail12DenseMapPairIS2_S5_EEEES2_S5_S7_SA_E22decrementNumTombstonesEv = comdat any

$_ZNK4llvh8DenseMapINS_9StringRefEPN6hermes12UniqueStringENS_12DenseMapInfoIS1_EENS_6detail12DenseMapPairIS1_S4_EEE13getNumEntriesEv = comdat any

$_ZN4llvh8DenseMapINS_9StringRefEPN6hermes12UniqueStringENS_12DenseMapInfoIS1_EENS_6detail12DenseMapPairIS1_S4_EEE4growEj = comdat any

$_ZN4llvh8DenseMapINS_9StringRefEPN6hermes12UniqueStringENS_12DenseMapInfoIS1_EENS_6detail12DenseMapPairIS1_S4_EEE15allocateBucketsEj = comdat any

$_ZSt3maxIjERKT_S2_S2_ = comdat any

$_ZN4llvh12NextPowerOf2Em = comdat any

$_ZN4llvh12DenseMapBaseINS_8DenseMapINS_9StringRefEPN6hermes12UniqueStringENS_12DenseMapInfoIS2_EENS_6detail12DenseMapPairIS2_S5_EEEES2_S5_S7_SA_E9initEmptyEv = comdat any

$_ZN4llvh12DenseMapBaseINS_8DenseMapINS_9StringRefEPN6hermes12UniqueStringENS_12DenseMapInfoIS2_EENS_6detail12DenseMapPairIS2_S5_EEEES2_S5_S7_SA_E18moveFromOldBucketsEPSA_SD_ = comdat any

$_ZN4llvh12DenseMapBaseINS_8DenseMapINS_9StringRefEPN6hermes12UniqueStringENS_12DenseMapInfoIS2_EENS_6detail12DenseMapPairIS2_S5_EEEES2_S5_S7_SA_E13setNumEntriesEj = comdat any

$_ZN4llvh12DenseMapBaseINS_8DenseMapINS_9StringRefEPN6hermes12UniqueStringENS_12DenseMapInfoIS2_EENS_6detail12DenseMapPairIS2_S5_EEEES2_S5_S7_SA_E16setNumTombstonesEj = comdat any

$_ZN4llvh8DenseMapINS_9StringRefEPN6hermes12UniqueStringENS_12DenseMapInfoIS1_EENS_6detail12DenseMapPairIS1_S4_EEE13setNumEntriesEj = comdat any

$_ZN4llvh8DenseMapINS_9StringRefEPN6hermes12UniqueStringENS_12DenseMapInfoIS1_EENS_6detail12DenseMapPairIS1_S4_EEE16setNumTombstonesEj = comdat any

$_ZNK4llvh8DenseMapINS_9StringRefEPN6hermes12UniqueStringENS_12DenseMapInfoIS1_EENS_6detail12DenseMapPairIS1_S4_EEE16getNumTombstonesEv = comdat any

$_ZN6hermes6ESTree24RecursiveVisitorDispatchINS_25ES6ClassesTransformationsELb0EE5visitERS2_PNS0_4NodeES6_ = comdat any

$_ZNSt7variantIJN6hermes6ESTree11UnmodifiedTENS1_8RemovedTEPNS1_4NodeEEEC2IRS2_vvS2_vEEOT_ = comdat any

$_ZN6hermes25ES6ClassesTransformations17incRecursionDepthEPNS_6ESTree4NodeE = comdat any

$_ZNSt7variantIJN6hermes6ESTree11UnmodifiedTENS1_8RemovedTEPNS1_4NodeEEEC2Ev = comdat any

$_ZNK6hermes6ESTree4Node7getKindEv = comdat any

$_ZN6hermes6ESTree6detail11VisitCallerINS_25ES6ClassesTransformationsENS0_9EmptyNodeEvE4callERS3_PS4_PNS0_4NodeE = comdat any

$_ZN4llvh4castIN6hermes6ESTree9EmptyNodeENS2_4NodeEEENS_10cast_rettyIT_PT0_E8ret_typeES8_ = comdat any

$_ZNSt7variantIJN6hermes6ESTree11UnmodifiedTENS1_8RemovedTEPNS1_4NodeEEEaSIS2_EENSt9enable_ifIXaaaa14__exactly_onceINSt9_Nth_typeIX16__accepted_indexIOT_EEJS2_S3_S5_EE4typeEE18is_constructible_vISD_SA_E15is_assignable_vIRSD_SA_EERS6_E4typeESB_ = comdat any

$_ZN6hermes6ESTree6detail11VisitCallerINS_25ES6ClassesTransformationsENS0_12MetadataNodeEvE4callERS3_PS4_PNS0_4NodeE = comdat any

$_ZN4llvh4castIN6hermes6ESTree12MetadataNodeENS2_4NodeEEENS_10cast_rettyIT_PT0_E8ret_typeES8_ = comdat any

$_ZN6hermes6ESTree6detail11VisitCallerINS_25ES6ClassesTransformationsENS0_11ProgramNodeEvE4callERS3_PS4_PNS0_4NodeE = comdat any

$_ZN4llvh4castIN6hermes6ESTree11ProgramNodeENS2_4NodeEEENS_10cast_rettyIT_PT0_E8ret_typeES8_ = comdat any

$_ZN6hermes6ESTree6detail11VisitCallerINS_25ES6ClassesTransformationsENS0_22FunctionExpressionNodeEvE4callERS3_PS4_PNS0_4NodeE = comdat any

$_ZN4llvh4castIN6hermes6ESTree22FunctionExpressionNodeENS2_4NodeEEENS_10cast_rettyIT_PT0_E8ret_typeES8_ = comdat any

$_ZN6hermes6ESTree6detail11VisitCallerINS_25ES6ClassesTransformationsENS0_27ArrowFunctionExpressionNodeEvE4callERS3_PS4_PNS0_4NodeE = comdat any

$_ZN4llvh4castIN6hermes6ESTree27ArrowFunctionExpressionNodeENS2_4NodeEEENS_10cast_rettyIT_PT0_E8ret_typeES8_ = comdat any

$_ZN6hermes6ESTree6detail11VisitCallerINS_25ES6ClassesTransformationsENS0_23FunctionDeclarationNodeEvE4callERS3_PS4_PNS0_4NodeE = comdat any

$_ZN4llvh4castIN6hermes6ESTree23FunctionDeclarationNodeENS2_4NodeEEENS_10cast_rettyIT_PT0_E8ret_typeES8_ = comdat any

$_ZN6hermes6ESTree6detail11VisitCallerINS_25ES6ClassesTransformationsENS0_24ComponentDeclarationNodeEvE4callERS3_PS4_PNS0_4NodeE = comdat any

$_ZN4llvh4castIN6hermes6ESTree24ComponentDeclarationNodeENS2_4NodeEEENS_10cast_rettyIT_PT0_E8ret_typeES8_ = comdat any

$_ZN6hermes6ESTree6detail11VisitCallerINS_25ES6ClassesTransformationsENS0_18WhileStatementNodeEvE4callERS3_PS4_PNS0_4NodeE = comdat any

$_ZN4llvh4castIN6hermes6ESTree18WhileStatementNodeENS2_4NodeEEENS_10cast_rettyIT_PT0_E8ret_typeES8_ = comdat any

$_ZN6hermes6ESTree6detail11VisitCallerINS_25ES6ClassesTransformationsENS0_20DoWhileStatementNodeEvE4callERS3_PS4_PNS0_4NodeE = comdat any

$_ZN4llvh4castIN6hermes6ESTree20DoWhileStatementNodeENS2_4NodeEEENS_10cast_rettyIT_PT0_E8ret_typeES8_ = comdat any

$_ZN6hermes6ESTree6detail11VisitCallerINS_25ES6ClassesTransformationsENS0_18ForInStatementNodeEvE4callERS3_PS4_PNS0_4NodeE = comdat any

$_ZN4llvh4castIN6hermes6ESTree18ForInStatementNodeENS2_4NodeEEENS_10cast_rettyIT_PT0_E8ret_typeES8_ = comdat any

$_ZN6hermes6ESTree6detail11VisitCallerINS_25ES6ClassesTransformationsENS0_18ForOfStatementNodeEvE4callERS3_PS4_PNS0_4NodeE = comdat any

$_ZN4llvh4castIN6hermes6ESTree18ForOfStatementNodeENS2_4NodeEEENS_10cast_rettyIT_PT0_E8ret_typeES8_ = comdat any

$_ZN6hermes6ESTree6detail11VisitCallerINS_25ES6ClassesTransformationsENS0_16ForStatementNodeEvE4callERS3_PS4_PNS0_4NodeE = comdat any

$_ZN4llvh4castIN6hermes6ESTree16ForStatementNodeENS2_4NodeEEENS_10cast_rettyIT_PT0_E8ret_typeES8_ = comdat any

$_ZN6hermes6ESTree6detail11VisitCallerINS_25ES6ClassesTransformationsENS0_21DebuggerStatementNodeEvE4callERS3_PS4_PNS0_4NodeE = comdat any

$_ZN4llvh4castIN6hermes6ESTree21DebuggerStatementNodeENS2_4NodeEEENS_10cast_rettyIT_PT0_E8ret_typeES8_ = comdat any

$_ZN6hermes6ESTree6detail11VisitCallerINS_25ES6ClassesTransformationsENS0_18EmptyStatementNodeEvE4callERS3_PS4_PNS0_4NodeE = comdat any

$_ZN4llvh4castIN6hermes6ESTree18EmptyStatementNodeENS2_4NodeEEENS_10cast_rettyIT_PT0_E8ret_typeES8_ = comdat any

$_ZN6hermes6ESTree6detail11VisitCallerINS_25ES6ClassesTransformationsENS0_18BlockStatementNodeEvE4callERS3_PS4_PNS0_4NodeE = comdat any

$_ZN4llvh4castIN6hermes6ESTree18BlockStatementNodeENS2_4NodeEEENS_10cast_rettyIT_PT0_E8ret_typeES8_ = comdat any

$_ZN6hermes6ESTree6detail11VisitCallerINS_25ES6ClassesTransformationsENS0_18BreakStatementNodeEvE4callERS3_PS4_PNS0_4NodeE = comdat any

$_ZN4llvh4castIN6hermes6ESTree18BreakStatementNodeENS2_4NodeEEENS_10cast_rettyIT_PT0_E8ret_typeES8_ = comdat any

$_ZN6hermes6ESTree6detail11VisitCallerINS_25ES6ClassesTransformationsENS0_21ContinueStatementNodeEvE4callERS3_PS4_PNS0_4NodeE = comdat any

$_ZN4llvh4castIN6hermes6ESTree21ContinueStatementNodeENS2_4NodeEEENS_10cast_rettyIT_PT0_E8ret_typeES8_ = comdat any

$_ZN6hermes6ESTree6detail11VisitCallerINS_25ES6ClassesTransformationsENS0_18ThrowStatementNodeEvE4callERS3_PS4_PNS0_4NodeE = comdat any

$_ZN4llvh4castIN6hermes6ESTree18ThrowStatementNodeENS2_4NodeEEENS_10cast_rettyIT_PT0_E8ret_typeES8_ = comdat any

$_ZN6hermes6ESTree6detail11VisitCallerINS_25ES6ClassesTransformationsENS0_19ReturnStatementNodeEvE4callERS3_PS4_PNS0_4NodeE = comdat any

$_ZN4llvh4castIN6hermes6ESTree19ReturnStatementNodeENS2_4NodeEEENS_10cast_rettyIT_PT0_E8ret_typeES8_ = comdat any

$_ZN6hermes6ESTree6detail11VisitCallerINS_25ES6ClassesTransformationsENS0_17WithStatementNodeEvE4callERS3_PS4_PNS0_4NodeE = comdat any

$_ZN4llvh4castIN6hermes6ESTree17WithStatementNodeENS2_4NodeEEENS_10cast_rettyIT_PT0_E8ret_typeES8_ = comdat any

$_ZN6hermes6ESTree6detail11VisitCallerINS_25ES6ClassesTransformationsENS0_19SwitchStatementNodeEvE4callERS3_PS4_PNS0_4NodeE = comdat any

$_ZN4llvh4castIN6hermes6ESTree19SwitchStatementNodeENS2_4NodeEEENS_10cast_rettyIT_PT0_E8ret_typeES8_ = comdat any

$_ZN6hermes6ESTree6detail11VisitCallerINS_25ES6ClassesTransformationsENS0_20LabeledStatementNodeEvE4callERS3_PS4_PNS0_4NodeE = comdat any

$_ZN4llvh4castIN6hermes6ESTree20LabeledStatementNodeENS2_4NodeEEENS_10cast_rettyIT_PT0_E8ret_typeES8_ = comdat any

$_ZN6hermes6ESTree6detail11VisitCallerINS_25ES6ClassesTransformationsENS0_23ExpressionStatementNodeEvE4callERS3_PS4_PNS0_4NodeE = comdat any

$_ZN4llvh4castIN6hermes6ESTree23ExpressionStatementNodeENS2_4NodeEEENS_10cast_rettyIT_PT0_E8ret_typeES8_ = comdat any

$_ZN6hermes6ESTree6detail11VisitCallerINS_25ES6ClassesTransformationsENS0_16TryStatementNodeEvE4callERS3_PS4_PNS0_4NodeE = comdat any

$_ZN4llvh4castIN6hermes6ESTree16TryStatementNodeENS2_4NodeEEENS_10cast_rettyIT_PT0_E8ret_typeES8_ = comdat any

$_ZN6hermes6ESTree6detail11VisitCallerINS_25ES6ClassesTransformationsENS0_15IfStatementNodeEvE4callERS3_PS4_PNS0_4NodeE = comdat any

$_ZN4llvh4castIN6hermes6ESTree15IfStatementNodeENS2_4NodeEEENS_10cast_rettyIT_PT0_E8ret_typeES8_ = comdat any

$_ZN6hermes6ESTree6detail11VisitCallerINS_25ES6ClassesTransformationsENS0_15NullLiteralNodeEvE4callERS3_PS4_PNS0_4NodeE = comdat any

$_ZN4llvh4castIN6hermes6ESTree15NullLiteralNodeENS2_4NodeEEENS_10cast_rettyIT_PT0_E8ret_typeES8_ = comdat any

$_ZN6hermes6ESTree6detail11VisitCallerINS_25ES6ClassesTransformationsENS0_18BooleanLiteralNodeEvE4callERS3_PS4_PNS0_4NodeE = comdat any

$_ZN4llvh4castIN6hermes6ESTree18BooleanLiteralNodeENS2_4NodeEEENS_10cast_rettyIT_PT0_E8ret_typeES8_ = comdat any

$_ZN6hermes6ESTree6detail11VisitCallerINS_25ES6ClassesTransformationsENS0_17StringLiteralNodeEvE4callERS3_PS4_PNS0_4NodeE = comdat any

$_ZN4llvh4castIN6hermes6ESTree17StringLiteralNodeENS2_4NodeEEENS_10cast_rettyIT_PT0_E8ret_typeES8_ = comdat any

$_ZN6hermes6ESTree6detail11VisitCallerINS_25ES6ClassesTransformationsENS0_18NumericLiteralNodeEvE4callERS3_PS4_PNS0_4NodeE = comdat any

$_ZN4llvh4castIN6hermes6ESTree18NumericLiteralNodeENS2_4NodeEEENS_10cast_rettyIT_PT0_E8ret_typeES8_ = comdat any

$_ZN6hermes6ESTree6detail11VisitCallerINS_25ES6ClassesTransformationsENS0_17RegExpLiteralNodeEvE4callERS3_PS4_PNS0_4NodeE = comdat any

$_ZN4llvh4castIN6hermes6ESTree17RegExpLiteralNodeENS2_4NodeEEENS_10cast_rettyIT_PT0_E8ret_typeES8_ = comdat any

$_ZN6hermes6ESTree6detail11VisitCallerINS_25ES6ClassesTransformationsENS0_17BigIntLiteralNodeEvE4callERS3_PS4_PNS0_4NodeE = comdat any

$_ZN4llvh4castIN6hermes6ESTree17BigIntLiteralNodeENS2_4NodeEEENS_10cast_rettyIT_PT0_E8ret_typeES8_ = comdat any

$_ZN6hermes6ESTree6detail11VisitCallerINS_25ES6ClassesTransformationsENS0_18ThisExpressionNodeEvE4callERS3_PS4_PNS0_4NodeE = comdat any

$_ZN4llvh4castIN6hermes6ESTree18ThisExpressionNodeENS2_4NodeEEENS_10cast_rettyIT_PT0_E8ret_typeES8_ = comdat any

$_ZN6hermes6ESTree6detail11VisitCallerINS_25ES6ClassesTransformationsENS0_9SuperNodeEvE4callERS3_PS4_PNS0_4NodeE = comdat any

$_ZN4llvh4castIN6hermes6ESTree9SuperNodeENS2_4NodeEEENS_10cast_rettyIT_PT0_E8ret_typeES8_ = comdat any

$_ZN6hermes6ESTree6detail11VisitCallerINS_25ES6ClassesTransformationsENS0_22SequenceExpressionNodeEvE4callERS3_PS4_PNS0_4NodeE = comdat any

$_ZN4llvh4castIN6hermes6ESTree22SequenceExpressionNodeENS2_4NodeEEENS_10cast_rettyIT_PT0_E8ret_typeES8_ = comdat any

$_ZN6hermes6ESTree6detail11VisitCallerINS_25ES6ClassesTransformationsENS0_20ObjectExpressionNodeEvE4callERS3_PS4_PNS0_4NodeE = comdat any

$_ZN4llvh4castIN6hermes6ESTree20ObjectExpressionNodeENS2_4NodeEEENS_10cast_rettyIT_PT0_E8ret_typeES8_ = comdat any

$_ZN6hermes6ESTree6detail11VisitCallerINS_25ES6ClassesTransformationsENS0_19ArrayExpressionNodeEvE4callERS3_PS4_PNS0_4NodeE = comdat any

$_ZN4llvh4castIN6hermes6ESTree19ArrayExpressionNodeENS2_4NodeEEENS_10cast_rettyIT_PT0_E8ret_typeES8_ = comdat any

$_ZN6hermes6ESTree6detail11VisitCallerINS_25ES6ClassesTransformationsENS0_17SpreadElementNodeEvE4callERS3_PS4_PNS0_4NodeE = comdat any

$_ZN4llvh4castIN6hermes6ESTree17SpreadElementNodeENS2_4NodeEEENS_10cast_rettyIT_PT0_E8ret_typeES8_ = comdat any

$_ZN6hermes6ESTree6detail11VisitCallerINS_25ES6ClassesTransformationsENS0_17NewExpressionNodeEvE4callERS3_PS4_PNS0_4NodeE = comdat any

$_ZN4llvh4castIN6hermes6ESTree17NewExpressionNodeENS2_4NodeEEENS_10cast_rettyIT_PT0_E8ret_typeES8_ = comdat any

$_ZN6hermes6ESTree6detail11VisitCallerINS_25ES6ClassesTransformationsENS0_19YieldExpressionNodeEvE4callERS3_PS4_PNS0_4NodeE = comdat any

$_ZN4llvh4castIN6hermes6ESTree19YieldExpressionNodeENS2_4NodeEEENS_10cast_rettyIT_PT0_E8ret_typeES8_ = comdat any

$_ZN6hermes6ESTree6detail11VisitCallerINS_25ES6ClassesTransformationsENS0_19AwaitExpressionNodeEvE4callERS3_PS4_PNS0_4NodeE = comdat any

$_ZN4llvh4castIN6hermes6ESTree19AwaitExpressionNodeENS2_4NodeEEENS_10cast_rettyIT_PT0_E8ret_typeES8_ = comdat any

$_ZN6hermes6ESTree6detail11VisitCallerINS_25ES6ClassesTransformationsENS0_20ImportExpressionNodeEvE4callERS3_PS4_PNS0_4NodeE = comdat any

$_ZN4llvh4castIN6hermes6ESTree20ImportExpressionNodeENS2_4NodeEEENS_10cast_rettyIT_PT0_E8ret_typeES8_ = comdat any

$_ZN6hermes6ESTree6detail11VisitCallerINS_25ES6ClassesTransformationsENS0_18CallExpressionNodeEvE4callERS3_PS4_PNS0_4NodeE = comdat any

$_ZN4llvh4castIN6hermes6ESTree18CallExpressionNodeENS2_4NodeEEENS_10cast_rettyIT_PT0_E8ret_typeES8_ = comdat any

$_ZN6hermes6ESTree6detail11VisitCallerINS_25ES6ClassesTransformationsENS0_26OptionalCallExpressionNodeEvE4callERS3_PS4_PNS0_4NodeE = comdat any

$_ZN4llvh4castIN6hermes6ESTree26OptionalCallExpressionNodeENS2_4NodeEEENS_10cast_rettyIT_PT0_E8ret_typeES8_ = comdat any

$_ZN6hermes6ESTree6detail11VisitCallerINS_25ES6ClassesTransformationsENS0_24AssignmentExpressionNodeEvE4callERS3_PS4_PNS0_4NodeE = comdat any

$_ZN4llvh4castIN6hermes6ESTree24AssignmentExpressionNodeENS2_4NodeEEENS_10cast_rettyIT_PT0_E8ret_typeES8_ = comdat any

$_ZN6hermes6ESTree6detail11VisitCallerINS_25ES6ClassesTransformationsENS0_19UnaryExpressionNodeEvE4callERS3_PS4_PNS0_4NodeE = comdat any

$_ZN4llvh4castIN6hermes6ESTree19UnaryExpressionNodeENS2_4NodeEEENS_10cast_rettyIT_PT0_E8ret_typeES8_ = comdat any

$_ZN6hermes6ESTree6detail11VisitCallerINS_25ES6ClassesTransformationsENS0_20UpdateExpressionNodeEvE4callERS3_PS4_PNS0_4NodeE = comdat any

$_ZN4llvh4castIN6hermes6ESTree20UpdateExpressionNodeENS2_4NodeEEENS_10cast_rettyIT_PT0_E8ret_typeES8_ = comdat any

$_ZN6hermes6ESTree6detail11VisitCallerINS_25ES6ClassesTransformationsENS0_20MemberExpressionNodeEvE4callERS3_PS4_PNS0_4NodeE = comdat any

$_ZN4llvh4castIN6hermes6ESTree20MemberExpressionNodeENS2_4NodeEEENS_10cast_rettyIT_PT0_E8ret_typeES8_ = comdat any

$_ZN6hermes6ESTree6detail11VisitCallerINS_25ES6ClassesTransformationsENS0_28OptionalMemberExpressionNodeEvE4callERS3_PS4_PNS0_4NodeE = comdat any

$_ZN4llvh4castIN6hermes6ESTree28OptionalMemberExpressionNodeENS2_4NodeEEENS_10cast_rettyIT_PT0_E8ret_typeES8_ = comdat any

$_ZN6hermes6ESTree6detail11VisitCallerINS_25ES6ClassesTransformationsENS0_21LogicalExpressionNodeEvE4callERS3_PS4_PNS0_4NodeE = comdat any

$_ZN4llvh4castIN6hermes6ESTree21LogicalExpressionNodeENS2_4NodeEEENS_10cast_rettyIT_PT0_E8ret_typeES8_ = comdat any

$_ZN6hermes6ESTree6detail11VisitCallerINS_25ES6ClassesTransformationsENS0_25ConditionalExpressionNodeEvE4callERS3_PS4_PNS0_4NodeE = comdat any

$_ZN4llvh4castIN6hermes6ESTree25ConditionalExpressionNodeENS2_4NodeEEENS_10cast_rettyIT_PT0_E8ret_typeES8_ = comdat any

$_ZN6hermes6ESTree6detail11VisitCallerINS_25ES6ClassesTransformationsENS0_20BinaryExpressionNodeEvE4callERS3_PS4_PNS0_4NodeE = comdat any

$_ZN4llvh4castIN6hermes6ESTree20BinaryExpressionNodeENS2_4NodeEEENS_10cast_rettyIT_PT0_E8ret_typeES8_ = comdat any

$_ZN6hermes6ESTree6detail11VisitCallerINS_25ES6ClassesTransformationsENS0_13DirectiveNodeEvE4callERS3_PS4_PNS0_4NodeE = comdat any

$_ZN4llvh4castIN6hermes6ESTree13DirectiveNodeENS2_4NodeEEENS_10cast_rettyIT_PT0_E8ret_typeES8_ = comdat any

$_ZN6hermes6ESTree6detail11VisitCallerINS_25ES6ClassesTransformationsENS0_20DirectiveLiteralNodeEvE4callERS3_PS4_PNS0_4NodeE = comdat any

$_ZN4llvh4castIN6hermes6ESTree20DirectiveLiteralNodeENS2_4NodeEEENS_10cast_rettyIT_PT0_E8ret_typeES8_ = comdat any

$_ZN6hermes6ESTree6detail11VisitCallerINS_25ES6ClassesTransformationsENS0_14IdentifierNodeEvE4callERS3_PS4_PNS0_4NodeE = comdat any

$_ZN4llvh4castIN6hermes6ESTree14IdentifierNodeENS2_4NodeEEENS_10cast_rettyIT_PT0_E8ret_typeES8_ = comdat any

$_ZN6hermes6ESTree6detail11VisitCallerINS_25ES6ClassesTransformationsENS0_15PrivateNameNodeEvE4callERS3_PS4_PNS0_4NodeE = comdat any

$_ZN4llvh4castIN6hermes6ESTree15PrivateNameNodeENS2_4NodeEEENS_10cast_rettyIT_PT0_E8ret_typeES8_ = comdat any

$_ZN6hermes6ESTree6detail11VisitCallerINS_25ES6ClassesTransformationsENS0_16MetaPropertyNodeEvE4callERS3_PS4_PNS0_4NodeE = comdat any

$_ZN4llvh4castIN6hermes6ESTree16MetaPropertyNodeENS2_4NodeEEENS_10cast_rettyIT_PT0_E8ret_typeES8_ = comdat any

$_ZN6hermes6ESTree6detail11VisitCallerINS_25ES6ClassesTransformationsENS0_14SwitchCaseNodeEvE4callERS3_PS4_PNS0_4NodeE = comdat any

$_ZN4llvh4castIN6hermes6ESTree14SwitchCaseNodeENS2_4NodeEEENS_10cast_rettyIT_PT0_E8ret_typeES8_ = comdat any

$_ZN6hermes6ESTree6detail11VisitCallerINS_25ES6ClassesTransformationsENS0_15CatchClauseNodeEvE4callERS3_PS4_PNS0_4NodeE = comdat any

$_ZN4llvh4castIN6hermes6ESTree15CatchClauseNodeENS2_4NodeEEENS_10cast_rettyIT_PT0_E8ret_typeES8_ = comdat any

$_ZN6hermes6ESTree6detail11VisitCallerINS_25ES6ClassesTransformationsENS0_22VariableDeclaratorNodeEvE4callERS3_PS4_PNS0_4NodeE = comdat any

$_ZN4llvh4castIN6hermes6ESTree22VariableDeclaratorNodeENS2_4NodeEEENS_10cast_rettyIT_PT0_E8ret_typeES8_ = comdat any

$_ZN6hermes6ESTree6detail11VisitCallerINS_25ES6ClassesTransformationsENS0_23VariableDeclarationNodeEvE4callERS3_PS4_PNS0_4NodeE = comdat any

$_ZN4llvh4castIN6hermes6ESTree23VariableDeclarationNodeENS2_4NodeEEENS_10cast_rettyIT_PT0_E8ret_typeES8_ = comdat any

$_ZN6hermes6ESTree6detail11VisitCallerINS_25ES6ClassesTransformationsENS0_19TemplateLiteralNodeEvE4callERS3_PS4_PNS0_4NodeE = comdat any

$_ZN4llvh4castIN6hermes6ESTree19TemplateLiteralNodeENS2_4NodeEEENS_10cast_rettyIT_PT0_E8ret_typeES8_ = comdat any

$_ZN6hermes6ESTree6detail11VisitCallerINS_25ES6ClassesTransformationsENS0_28TaggedTemplateExpressionNodeEvE4callERS3_PS4_PNS0_4NodeE = comdat any

$_ZN4llvh4castIN6hermes6ESTree28TaggedTemplateExpressionNodeENS2_4NodeEEENS_10cast_rettyIT_PT0_E8ret_typeES8_ = comdat any

$_ZN6hermes6ESTree6detail11VisitCallerINS_25ES6ClassesTransformationsENS0_19TemplateElementNodeEvE4callERS3_PS4_PNS0_4NodeE = comdat any

$_ZN4llvh4castIN6hermes6ESTree19TemplateElementNodeENS2_4NodeEEENS_10cast_rettyIT_PT0_E8ret_typeES8_ = comdat any

$_ZN6hermes6ESTree6detail11VisitCallerINS_25ES6ClassesTransformationsENS0_12PropertyNodeEvE4callERS3_PS4_PNS0_4NodeE = comdat any

$_ZN4llvh4castIN6hermes6ESTree12PropertyNodeENS2_4NodeEEENS_10cast_rettyIT_PT0_E8ret_typeES8_ = comdat any

$_ZN6hermes6ESTree6detail11VisitCallerINS_25ES6ClassesTransformationsENS0_20ClassDeclarationNodeEvE4callERS3_PS4_PNS0_4NodeE = comdat any

$_ZN4llvh4castIN6hermes6ESTree20ClassDeclarationNodeENS2_4NodeEEENS_10cast_rettyIT_PT0_E8ret_typeES8_ = comdat any

$_ZN6hermes6ESTree6detail11VisitCallerINS_25ES6ClassesTransformationsENS0_19ClassExpressionNodeEvE4callERS3_PS4_PNS0_4NodeE = comdat any

$_ZN4llvh4castIN6hermes6ESTree19ClassExpressionNodeENS2_4NodeEEENS_10cast_rettyIT_PT0_E8ret_typeES8_ = comdat any

$_ZN6hermes6ESTree6detail11VisitCallerINS_25ES6ClassesTransformationsENS0_13ClassBodyNodeEvE4callERS3_PS4_PNS0_4NodeE = comdat any

$_ZN4llvh4castIN6hermes6ESTree13ClassBodyNodeENS2_4NodeEEENS_10cast_rettyIT_PT0_E8ret_typeES8_ = comdat any

$_ZN6hermes6ESTree6detail11VisitCallerINS_25ES6ClassesTransformationsENS0_17ClassPropertyNodeEvE4callERS3_PS4_PNS0_4NodeE = comdat any

$_ZN4llvh4castIN6hermes6ESTree17ClassPropertyNodeENS2_4NodeEEENS_10cast_rettyIT_PT0_E8ret_typeES8_ = comdat any

$_ZN6hermes6ESTree6detail11VisitCallerINS_25ES6ClassesTransformationsENS0_24ClassPrivatePropertyNodeEvE4callERS3_PS4_PNS0_4NodeE = comdat any

$_ZN4llvh4castIN6hermes6ESTree24ClassPrivatePropertyNodeENS2_4NodeEEENS_10cast_rettyIT_PT0_E8ret_typeES8_ = comdat any

$_ZN6hermes6ESTree6detail11VisitCallerINS_25ES6ClassesTransformationsENS0_20MethodDefinitionNodeEvE4callERS3_PS4_PNS0_4NodeE = comdat any

$_ZN4llvh4castIN6hermes6ESTree20MethodDefinitionNodeENS2_4NodeEEENS_10cast_rettyIT_PT0_E8ret_typeES8_ = comdat any

$_ZN6hermes6ESTree6detail11VisitCallerINS_25ES6ClassesTransformationsENS0_21ImportDeclarationNodeEvE4callERS3_PS4_PNS0_4NodeE = comdat any

$_ZN4llvh4castIN6hermes6ESTree21ImportDeclarationNodeENS2_4NodeEEENS_10cast_rettyIT_PT0_E8ret_typeES8_ = comdat any

$_ZN6hermes6ESTree6detail11VisitCallerINS_25ES6ClassesTransformationsENS0_19ImportSpecifierNodeEvE4callERS3_PS4_PNS0_4NodeE = comdat any

$_ZN4llvh4castIN6hermes6ESTree19ImportSpecifierNodeENS2_4NodeEEENS_10cast_rettyIT_PT0_E8ret_typeES8_ = comdat any

$_ZN6hermes6ESTree6detail11VisitCallerINS_25ES6ClassesTransformationsENS0_26ImportDefaultSpecifierNodeEvE4callERS3_PS4_PNS0_4NodeE = comdat any

$_ZN4llvh4castIN6hermes6ESTree26ImportDefaultSpecifierNodeENS2_4NodeEEENS_10cast_rettyIT_PT0_E8ret_typeES8_ = comdat any

$_ZN6hermes6ESTree6detail11VisitCallerINS_25ES6ClassesTransformationsENS0_28ImportNamespaceSpecifierNodeEvE4callERS3_PS4_PNS0_4NodeE = comdat any

$_ZN4llvh4castIN6hermes6ESTree28ImportNamespaceSpecifierNodeENS2_4NodeEEENS_10cast_rettyIT_PT0_E8ret_typeES8_ = comdat any

$_ZN6hermes6ESTree6detail11VisitCallerINS_25ES6ClassesTransformationsENS0_19ImportAttributeNodeEvE4callERS3_PS4_PNS0_4NodeE = comdat any

$_ZN4llvh4castIN6hermes6ESTree19ImportAttributeNodeENS2_4NodeEEENS_10cast_rettyIT_PT0_E8ret_typeES8_ = comdat any

$_ZN6hermes6ESTree6detail11VisitCallerINS_25ES6ClassesTransformationsENS0_26ExportNamedDeclarationNodeEvE4callERS3_PS4_PNS0_4NodeE = comdat any

$_ZN4llvh4castIN6hermes6ESTree26ExportNamedDeclarationNodeENS2_4NodeEEENS_10cast_rettyIT_PT0_E8ret_typeES8_ = comdat any

$_ZN6hermes6ESTree6detail11VisitCallerINS_25ES6ClassesTransformationsENS0_19ExportSpecifierNodeEvE4callERS3_PS4_PNS0_4NodeE = comdat any

$_ZN4llvh4castIN6hermes6ESTree19ExportSpecifierNodeENS2_4NodeEEENS_10cast_rettyIT_PT0_E8ret_typeES8_ = comdat any

$_ZN6hermes6ESTree6detail11VisitCallerINS_25ES6ClassesTransformationsENS0_28ExportNamespaceSpecifierNodeEvE4callERS3_PS4_PNS0_4NodeE = comdat any

$_ZN4llvh4castIN6hermes6ESTree28ExportNamespaceSpecifierNodeENS2_4NodeEEENS_10cast_rettyIT_PT0_E8ret_typeES8_ = comdat any

$_ZN6hermes6ESTree6detail11VisitCallerINS_25ES6ClassesTransformationsENS0_28ExportDefaultDeclarationNodeEvE4callERS3_PS4_PNS0_4NodeE = comdat any

$_ZN4llvh4castIN6hermes6ESTree28ExportDefaultDeclarationNodeENS2_4NodeEEENS_10cast_rettyIT_PT0_E8ret_typeES8_ = comdat any

$_ZN6hermes6ESTree6detail11VisitCallerINS_25ES6ClassesTransformationsENS0_24ExportAllDeclarationNodeEvE4callERS3_PS4_PNS0_4NodeE = comdat any

$_ZN4llvh4castIN6hermes6ESTree24ExportAllDeclarationNodeENS2_4NodeEEENS_10cast_rettyIT_PT0_E8ret_typeES8_ = comdat any

$_ZN6hermes6ESTree6detail11VisitCallerINS_25ES6ClassesTransformationsENS0_17ObjectPatternNodeEvE4callERS3_PS4_PNS0_4NodeE = comdat any

$_ZN4llvh4castIN6hermes6ESTree17ObjectPatternNodeENS2_4NodeEEENS_10cast_rettyIT_PT0_E8ret_typeES8_ = comdat any

$_ZN6hermes6ESTree6detail11VisitCallerINS_25ES6ClassesTransformationsENS0_16ArrayPatternNodeEvE4callERS3_PS4_PNS0_4NodeE = comdat any

$_ZN4llvh4castIN6hermes6ESTree16ArrayPatternNodeENS2_4NodeEEENS_10cast_rettyIT_PT0_E8ret_typeES8_ = comdat any

$_ZN6hermes6ESTree6detail11VisitCallerINS_25ES6ClassesTransformationsENS0_15RestElementNodeEvE4callERS3_PS4_PNS0_4NodeE = comdat any

$_ZN4llvh4castIN6hermes6ESTree15RestElementNodeENS2_4NodeEEENS_10cast_rettyIT_PT0_E8ret_typeES8_ = comdat any

$_ZN6hermes6ESTree6detail11VisitCallerINS_25ES6ClassesTransformationsENS0_21AssignmentPatternNodeEvE4callERS3_PS4_PNS0_4NodeE = comdat any

$_ZN4llvh4castIN6hermes6ESTree21AssignmentPatternNodeENS2_4NodeEEENS_10cast_rettyIT_PT0_E8ret_typeES8_ = comdat any

$_ZN6hermes6ESTree6detail11VisitCallerINS_25ES6ClassesTransformationsENS0_17JSXIdentifierNodeEvE4callERS3_PS4_PNS0_4NodeE = comdat any

$_ZN4llvh4castIN6hermes6ESTree17JSXIdentifierNodeENS2_4NodeEEENS_10cast_rettyIT_PT0_E8ret_typeES8_ = comdat any

$_ZN6hermes6ESTree6detail11VisitCallerINS_25ES6ClassesTransformationsENS0_23JSXMemberExpressionNodeEvE4callERS3_PS4_PNS0_4NodeE = comdat any

$_ZN4llvh4castIN6hermes6ESTree23JSXMemberExpressionNodeENS2_4NodeEEENS_10cast_rettyIT_PT0_E8ret_typeES8_ = comdat any

$_ZN6hermes6ESTree6detail11VisitCallerINS_25ES6ClassesTransformationsENS0_21JSXNamespacedNameNodeEvE4callERS3_PS4_PNS0_4NodeE = comdat any

$_ZN4llvh4castIN6hermes6ESTree21JSXNamespacedNameNodeENS2_4NodeEEENS_10cast_rettyIT_PT0_E8ret_typeES8_ = comdat any

$_ZN6hermes6ESTree6detail11VisitCallerINS_25ES6ClassesTransformationsENS0_22JSXEmptyExpressionNodeEvE4callERS3_PS4_PNS0_4NodeE = comdat any

$_ZN4llvh4castIN6hermes6ESTree22JSXEmptyExpressionNodeENS2_4NodeEEENS_10cast_rettyIT_PT0_E8ret_typeES8_ = comdat any

$_ZN6hermes6ESTree6detail11VisitCallerINS_25ES6ClassesTransformationsENS0_26JSXExpressionContainerNodeEvE4callERS3_PS4_PNS0_4NodeE = comdat any

$_ZN4llvh4castIN6hermes6ESTree26JSXExpressionContainerNodeENS2_4NodeEEENS_10cast_rettyIT_PT0_E8ret_typeES8_ = comdat any

$_ZN6hermes6ESTree6detail11VisitCallerINS_25ES6ClassesTransformationsENS0_18JSXSpreadChildNodeEvE4callERS3_PS4_PNS0_4NodeE = comdat any

$_ZN4llvh4castIN6hermes6ESTree18JSXSpreadChildNodeENS2_4NodeEEENS_10cast_rettyIT_PT0_E8ret_typeES8_ = comdat any

$_ZN6hermes6ESTree6detail11VisitCallerINS_25ES6ClassesTransformationsENS0_21JSXOpeningElementNodeEvE4callERS3_PS4_PNS0_4NodeE = comdat any

$_ZN4llvh4castIN6hermes6ESTree21JSXOpeningElementNodeENS2_4NodeEEENS_10cast_rettyIT_PT0_E8ret_typeES8_ = comdat any

$_ZN6hermes6ESTree6detail11VisitCallerINS_25ES6ClassesTransformationsENS0_21JSXClosingElementNodeEvE4callERS3_PS4_PNS0_4NodeE = comdat any

$_ZN4llvh4castIN6hermes6ESTree21JSXClosingElementNodeENS2_4NodeEEENS_10cast_rettyIT_PT0_E8ret_typeES8_ = comdat any

$_ZN6hermes6ESTree6detail11VisitCallerINS_25ES6ClassesTransformationsENS0_16JSXAttributeNodeEvE4callERS3_PS4_PNS0_4NodeE = comdat any

$_ZN4llvh4castIN6hermes6ESTree16JSXAttributeNodeENS2_4NodeEEENS_10cast_rettyIT_PT0_E8ret_typeES8_ = comdat any

$_ZN6hermes6ESTree6detail11VisitCallerINS_25ES6ClassesTransformationsENS0_22JSXSpreadAttributeNodeEvE4callERS3_PS4_PNS0_4NodeE = comdat any

$_ZN4llvh4castIN6hermes6ESTree22JSXSpreadAttributeNodeENS2_4NodeEEENS_10cast_rettyIT_PT0_E8ret_typeES8_ = comdat any

$_ZN6hermes6ESTree6detail11VisitCallerINS_25ES6ClassesTransformationsENS0_20JSXStringLiteralNodeEvE4callERS3_PS4_PNS0_4NodeE = comdat any

$_ZN4llvh4castIN6hermes6ESTree20JSXStringLiteralNodeENS2_4NodeEEENS_10cast_rettyIT_PT0_E8ret_typeES8_ = comdat any

$_ZN6hermes6ESTree6detail11VisitCallerINS_25ES6ClassesTransformationsENS0_11JSXTextNodeEvE4callERS3_PS4_PNS0_4NodeE = comdat any

$_ZN4llvh4castIN6hermes6ESTree11JSXTextNodeENS2_4NodeEEENS_10cast_rettyIT_PT0_E8ret_typeES8_ = comdat any

$_ZN6hermes6ESTree6detail11VisitCallerINS_25ES6ClassesTransformationsENS0_14JSXElementNodeEvE4callERS3_PS4_PNS0_4NodeE = comdat any

$_ZN4llvh4castIN6hermes6ESTree14JSXElementNodeENS2_4NodeEEENS_10cast_rettyIT_PT0_E8ret_typeES8_ = comdat any

$_ZN6hermes6ESTree6detail11VisitCallerINS_25ES6ClassesTransformationsENS0_15JSXFragmentNodeEvE4callERS3_PS4_PNS0_4NodeE = comdat any

$_ZN4llvh4castIN6hermes6ESTree15JSXFragmentNodeENS2_4NodeEEENS_10cast_rettyIT_PT0_E8ret_typeES8_ = comdat any

$_ZN6hermes6ESTree6detail11VisitCallerINS_25ES6ClassesTransformationsENS0_22JSXOpeningFragmentNodeEvE4callERS3_PS4_PNS0_4NodeE = comdat any

$_ZN4llvh4castIN6hermes6ESTree22JSXOpeningFragmentNodeENS2_4NodeEEENS_10cast_rettyIT_PT0_E8ret_typeES8_ = comdat any

$_ZN6hermes6ESTree6detail11VisitCallerINS_25ES6ClassesTransformationsENS0_22JSXClosingFragmentNodeEvE4callERS3_PS4_PNS0_4NodeE = comdat any

$_ZN4llvh4castIN6hermes6ESTree22JSXClosingFragmentNodeENS2_4NodeEEENS_10cast_rettyIT_PT0_E8ret_typeES8_ = comdat any

$_ZN6hermes6ESTree6detail11VisitCallerINS_25ES6ClassesTransformationsENS0_24ExistsTypeAnnotationNodeEvE4callERS3_PS4_PNS0_4NodeE = comdat any

$_ZN4llvh4castIN6hermes6ESTree24ExistsTypeAnnotationNodeENS2_4NodeEEENS_10cast_rettyIT_PT0_E8ret_typeES8_ = comdat any

$_ZN6hermes6ESTree6detail11VisitCallerINS_25ES6ClassesTransformationsENS0_23EmptyTypeAnnotationNodeEvE4callERS3_PS4_PNS0_4NodeE = comdat any

$_ZN4llvh4castIN6hermes6ESTree23EmptyTypeAnnotationNodeENS2_4NodeEEENS_10cast_rettyIT_PT0_E8ret_typeES8_ = comdat any

$_ZN6hermes6ESTree6detail11VisitCallerINS_25ES6ClassesTransformationsENS0_24StringTypeAnnotationNodeEvE4callERS3_PS4_PNS0_4NodeE = comdat any

$_ZN4llvh4castIN6hermes6ESTree24StringTypeAnnotationNodeENS2_4NodeEEENS_10cast_rettyIT_PT0_E8ret_typeES8_ = comdat any

$_ZN6hermes6ESTree6detail11VisitCallerINS_25ES6ClassesTransformationsENS0_24NumberTypeAnnotationNodeEvE4callERS3_PS4_PNS0_4NodeE = comdat any

$_ZN4llvh4castIN6hermes6ESTree24NumberTypeAnnotationNodeENS2_4NodeEEENS_10cast_rettyIT_PT0_E8ret_typeES8_ = comdat any

$_ZN6hermes6ESTree6detail11VisitCallerINS_25ES6ClassesTransformationsENS0_31StringLiteralTypeAnnotationNodeEvE4callERS3_PS4_PNS0_4NodeE = comdat any

$_ZN4llvh4castIN6hermes6ESTree31StringLiteralTypeAnnotationNodeENS2_4NodeEEENS_10cast_rettyIT_PT0_E8ret_typeES8_ = comdat any

$_ZN6hermes6ESTree6detail11VisitCallerINS_25ES6ClassesTransformationsENS0_31NumberLiteralTypeAnnotationNodeEvE4callERS3_PS4_PNS0_4NodeE = comdat any

$_ZN4llvh4castIN6hermes6ESTree31NumberLiteralTypeAnnotationNodeENS2_4NodeEEENS_10cast_rettyIT_PT0_E8ret_typeES8_ = comdat any

$_ZN6hermes6ESTree6detail11VisitCallerINS_25ES6ClassesTransformationsENS0_31BigIntLiteralTypeAnnotationNodeEvE4callERS3_PS4_PNS0_4NodeE = comdat any

$_ZN4llvh4castIN6hermes6ESTree31BigIntLiteralTypeAnnotationNodeENS2_4NodeEEENS_10cast_rettyIT_PT0_E8ret_typeES8_ = comdat any

$_ZN6hermes6ESTree6detail11VisitCallerINS_25ES6ClassesTransformationsENS0_25BooleanTypeAnnotationNodeEvE4callERS3_PS4_PNS0_4NodeE = comdat any

$_ZN4llvh4castIN6hermes6ESTree25BooleanTypeAnnotationNodeENS2_4NodeEEENS_10cast_rettyIT_PT0_E8ret_typeES8_ = comdat any

$_ZN6hermes6ESTree6detail11VisitCallerINS_25ES6ClassesTransformationsENS0_32BooleanLiteralTypeAnnotationNodeEvE4callERS3_PS4_PNS0_4NodeE = comdat any

$_ZN4llvh4castIN6hermes6ESTree32BooleanLiteralTypeAnnotationNodeENS2_4NodeEEENS_10cast_rettyIT_PT0_E8ret_typeES8_ = comdat any

$_ZN6hermes6ESTree6detail11VisitCallerINS_25ES6ClassesTransformationsENS0_29NullLiteralTypeAnnotationNodeEvE4callERS3_PS4_PNS0_4NodeE = comdat any

$_ZN4llvh4castIN6hermes6ESTree29NullLiteralTypeAnnotationNodeENS2_4NodeEEENS_10cast_rettyIT_PT0_E8ret_typeES8_ = comdat any

$_ZN6hermes6ESTree6detail11VisitCallerINS_25ES6ClassesTransformationsENS0_24SymbolTypeAnnotationNodeEvE4callERS3_PS4_PNS0_4NodeE = comdat any

$_ZN4llvh4castIN6hermes6ESTree24SymbolTypeAnnotationNodeENS2_4NodeEEENS_10cast_rettyIT_PT0_E8ret_typeES8_ = comdat any

$_ZN6hermes6ESTree6detail11VisitCallerINS_25ES6ClassesTransformationsENS0_21AnyTypeAnnotationNodeEvE4callERS3_PS4_PNS0_4NodeE = comdat any

$_ZN4llvh4castIN6hermes6ESTree21AnyTypeAnnotationNodeENS2_4NodeEEENS_10cast_rettyIT_PT0_E8ret_typeES8_ = comdat any

$_ZN6hermes6ESTree6detail11VisitCallerINS_25ES6ClassesTransformationsENS0_23MixedTypeAnnotationNodeEvE4callERS3_PS4_PNS0_4NodeE = comdat any

$_ZN4llvh4castIN6hermes6ESTree23MixedTypeAnnotationNodeENS2_4NodeEEENS_10cast_rettyIT_PT0_E8ret_typeES8_ = comdat any

$_ZN6hermes6ESTree6detail11VisitCallerINS_25ES6ClassesTransformationsENS0_24BigIntTypeAnnotationNodeEvE4callERS3_PS4_PNS0_4NodeE = comdat any

$_ZN4llvh4castIN6hermes6ESTree24BigIntTypeAnnotationNodeENS2_4NodeEEENS_10cast_rettyIT_PT0_E8ret_typeES8_ = comdat any

$_ZN6hermes6ESTree6detail11VisitCallerINS_25ES6ClassesTransformationsENS0_22VoidTypeAnnotationNodeEvE4callERS3_PS4_PNS0_4NodeE = comdat any

$_ZN4llvh4castIN6hermes6ESTree22VoidTypeAnnotationNodeENS2_4NodeEEENS_10cast_rettyIT_PT0_E8ret_typeES8_ = comdat any

$_ZN6hermes6ESTree6detail11VisitCallerINS_25ES6ClassesTransformationsENS0_26FunctionTypeAnnotationNodeEvE4callERS3_PS4_PNS0_4NodeE = comdat any

$_ZN4llvh4castIN6hermes6ESTree26FunctionTypeAnnotationNodeENS2_4NodeEEENS_10cast_rettyIT_PT0_E8ret_typeES8_ = comdat any

$_ZN6hermes6ESTree6detail11VisitCallerINS_25ES6ClassesTransformationsENS0_21FunctionTypeParamNodeEvE4callERS3_PS4_PNS0_4NodeE = comdat any

$_ZN4llvh4castIN6hermes6ESTree21FunctionTypeParamNodeENS2_4NodeEEENS_10cast_rettyIT_PT0_E8ret_typeES8_ = comdat any

$_ZN6hermes6ESTree6detail11VisitCallerINS_25ES6ClassesTransformationsENS0_27ComponentTypeAnnotationNodeEvE4callERS3_PS4_PNS0_4NodeE = comdat any

$_ZN4llvh4castIN6hermes6ESTree27ComponentTypeAnnotationNodeENS2_4NodeEEENS_10cast_rettyIT_PT0_E8ret_typeES8_ = comdat any

$_ZN6hermes6ESTree6detail11VisitCallerINS_25ES6ClassesTransformationsENS0_26ComponentTypeParameterNodeEvE4callERS3_PS4_PNS0_4NodeE = comdat any

$_ZN4llvh4castIN6hermes6ESTree26ComponentTypeParameterNodeENS2_4NodeEEENS_10cast_rettyIT_PT0_E8ret_typeES8_ = comdat any

$_ZN6hermes6ESTree6detail11VisitCallerINS_25ES6ClassesTransformationsENS0_26NullableTypeAnnotationNodeEvE4callERS3_PS4_PNS0_4NodeE = comdat any

$_ZN4llvh4castIN6hermes6ESTree26NullableTypeAnnotationNodeENS2_4NodeEEENS_10cast_rettyIT_PT0_E8ret_typeES8_ = comdat any

$_ZN6hermes6ESTree6detail11VisitCallerINS_25ES6ClassesTransformationsENS0_27QualifiedTypeIdentifierNodeEvE4callERS3_PS4_PNS0_4NodeE = comdat any

$_ZN4llvh4castIN6hermes6ESTree27QualifiedTypeIdentifierNodeENS2_4NodeEEENS_10cast_rettyIT_PT0_E8ret_typeES8_ = comdat any

$_ZN6hermes6ESTree6detail11VisitCallerINS_25ES6ClassesTransformationsENS0_24TypeofTypeAnnotationNodeEvE4callERS3_PS4_PNS0_4NodeE = comdat any

$_ZN4llvh4castIN6hermes6ESTree24TypeofTypeAnnotationNodeENS2_4NodeEEENS_10cast_rettyIT_PT0_E8ret_typeES8_ = comdat any

$_ZN6hermes6ESTree6detail11VisitCallerINS_25ES6ClassesTransformationsENS0_23KeyofTypeAnnotationNodeEvE4callERS3_PS4_PNS0_4NodeE = comdat any

$_ZN4llvh4castIN6hermes6ESTree23KeyofTypeAnnotationNodeENS2_4NodeEEENS_10cast_rettyIT_PT0_E8ret_typeES8_ = comdat any

$_ZN6hermes6ESTree6detail11VisitCallerINS_25ES6ClassesTransformationsENS0_16TypeOperatorNodeEvE4callERS3_PS4_PNS0_4NodeE = comdat any

$_ZN4llvh4castIN6hermes6ESTree16TypeOperatorNodeENS2_4NodeEEENS_10cast_rettyIT_PT0_E8ret_typeES8_ = comdat any

$_ZN6hermes6ESTree6detail11VisitCallerINS_25ES6ClassesTransformationsENS0_29QualifiedTypeofIdentifierNodeEvE4callERS3_PS4_PNS0_4NodeE = comdat any

$_ZN4llvh4castIN6hermes6ESTree29QualifiedTypeofIdentifierNodeENS2_4NodeEEENS_10cast_rettyIT_PT0_E8ret_typeES8_ = comdat any

$_ZN6hermes6ESTree6detail11VisitCallerINS_25ES6ClassesTransformationsENS0_23TupleTypeAnnotationNodeEvE4callERS3_PS4_PNS0_4NodeE = comdat any

$_ZN4llvh4castIN6hermes6ESTree23TupleTypeAnnotationNodeENS2_4NodeEEENS_10cast_rettyIT_PT0_E8ret_typeES8_ = comdat any

$_ZN6hermes6ESTree6detail11VisitCallerINS_25ES6ClassesTransformationsENS0_26TupleTypeSpreadElementNodeEvE4callERS3_PS4_PNS0_4NodeE = comdat any

$_ZN4llvh4castIN6hermes6ESTree26TupleTypeSpreadElementNodeENS2_4NodeEEENS_10cast_rettyIT_PT0_E8ret_typeES8_ = comdat any

$_ZN6hermes6ESTree6detail11VisitCallerINS_25ES6ClassesTransformationsENS0_27TupleTypeLabeledElementNodeEvE4callERS3_PS4_PNS0_4NodeE = comdat any

$_ZN4llvh4castIN6hermes6ESTree27TupleTypeLabeledElementNodeENS2_4NodeEEENS_10cast_rettyIT_PT0_E8ret_typeES8_ = comdat any

$_ZN6hermes6ESTree6detail11VisitCallerINS_25ES6ClassesTransformationsENS0_23ArrayTypeAnnotationNodeEvE4callERS3_PS4_PNS0_4NodeE = comdat any

$_ZN4llvh4castIN6hermes6ESTree23ArrayTypeAnnotationNodeENS2_4NodeEEENS_10cast_rettyIT_PT0_E8ret_typeES8_ = comdat any

$_ZN6hermes6ESTree6detail11VisitCallerINS_25ES6ClassesTransformationsENS0_23InferTypeAnnotationNodeEvE4callERS3_PS4_PNS0_4NodeE = comdat any

$_ZN4llvh4castIN6hermes6ESTree23InferTypeAnnotationNodeENS2_4NodeEEENS_10cast_rettyIT_PT0_E8ret_typeES8_ = comdat any

$_ZN6hermes6ESTree6detail11VisitCallerINS_25ES6ClassesTransformationsENS0_23UnionTypeAnnotationNodeEvE4callERS3_PS4_PNS0_4NodeE = comdat any

$_ZN4llvh4castIN6hermes6ESTree23UnionTypeAnnotationNodeENS2_4NodeEEENS_10cast_rettyIT_PT0_E8ret_typeES8_ = comdat any

$_ZN6hermes6ESTree6detail11VisitCallerINS_25ES6ClassesTransformationsENS0_30IntersectionTypeAnnotationNodeEvE4callERS3_PS4_PNS0_4NodeE = comdat any

$_ZN4llvh4castIN6hermes6ESTree30IntersectionTypeAnnotationNodeENS2_4NodeEEENS_10cast_rettyIT_PT0_E8ret_typeES8_ = comdat any

$_ZN6hermes6ESTree6detail11VisitCallerINS_25ES6ClassesTransformationsENS0_25GenericTypeAnnotationNodeEvE4callERS3_PS4_PNS0_4NodeE = comdat any

$_ZN4llvh4castIN6hermes6ESTree25GenericTypeAnnotationNodeENS2_4NodeEEENS_10cast_rettyIT_PT0_E8ret_typeES8_ = comdat any

$_ZN6hermes6ESTree6detail11VisitCallerINS_25ES6ClassesTransformationsENS0_21IndexedAccessTypeNodeEvE4callERS3_PS4_PNS0_4NodeE = comdat any

$_ZN4llvh4castIN6hermes6ESTree21IndexedAccessTypeNodeENS2_4NodeEEENS_10cast_rettyIT_PT0_E8ret_typeES8_ = comdat any

$_ZN6hermes6ESTree6detail11VisitCallerINS_25ES6ClassesTransformationsENS0_29OptionalIndexedAccessTypeNodeEvE4callERS3_PS4_PNS0_4NodeE = comdat any

$_ZN4llvh4castIN6hermes6ESTree29OptionalIndexedAccessTypeNodeENS2_4NodeEEENS_10cast_rettyIT_PT0_E8ret_typeES8_ = comdat any

$_ZN6hermes6ESTree6detail11VisitCallerINS_25ES6ClassesTransformationsENS0_29ConditionalTypeAnnotationNodeEvE4callERS3_PS4_PNS0_4NodeE = comdat any

$_ZN4llvh4castIN6hermes6ESTree29ConditionalTypeAnnotationNodeENS2_4NodeEEENS_10cast_rettyIT_PT0_E8ret_typeES8_ = comdat any

$_ZN6hermes6ESTree6detail11VisitCallerINS_25ES6ClassesTransformationsENS0_17TypePredicateNodeEvE4callERS3_PS4_PNS0_4NodeE = comdat any

$_ZN4llvh4castIN6hermes6ESTree17TypePredicateNodeENS2_4NodeEEENS_10cast_rettyIT_PT0_E8ret_typeES8_ = comdat any

$_ZN6hermes6ESTree6detail11VisitCallerINS_25ES6ClassesTransformationsENS0_27InterfaceTypeAnnotationNodeEvE4callERS3_PS4_PNS0_4NodeE = comdat any

$_ZN4llvh4castIN6hermes6ESTree27InterfaceTypeAnnotationNodeENS2_4NodeEEENS_10cast_rettyIT_PT0_E8ret_typeES8_ = comdat any

$_ZN6hermes6ESTree6detail11VisitCallerINS_25ES6ClassesTransformationsENS0_13TypeAliasNodeEvE4callERS3_PS4_PNS0_4NodeE = comdat any

$_ZN4llvh4castIN6hermes6ESTree13TypeAliasNodeENS2_4NodeEEENS_10cast_rettyIT_PT0_E8ret_typeES8_ = comdat any

$_ZN6hermes6ESTree6detail11VisitCallerINS_25ES6ClassesTransformationsENS0_14OpaqueTypeNodeEvE4callERS3_PS4_PNS0_4NodeE = comdat any

$_ZN4llvh4castIN6hermes6ESTree14OpaqueTypeNodeENS2_4NodeEEENS_10cast_rettyIT_PT0_E8ret_typeES8_ = comdat any

$_ZN6hermes6ESTree6detail11VisitCallerINS_25ES6ClassesTransformationsENS0_24InterfaceDeclarationNodeEvE4callERS3_PS4_PNS0_4NodeE = comdat any

$_ZN4llvh4castIN6hermes6ESTree24InterfaceDeclarationNodeENS2_4NodeEEENS_10cast_rettyIT_PT0_E8ret_typeES8_ = comdat any

$_ZN6hermes6ESTree6detail11VisitCallerINS_25ES6ClassesTransformationsENS0_20DeclareTypeAliasNodeEvE4callERS3_PS4_PNS0_4NodeE = comdat any

$_ZN4llvh4castIN6hermes6ESTree20DeclareTypeAliasNodeENS2_4NodeEEENS_10cast_rettyIT_PT0_E8ret_typeES8_ = comdat any

$_ZN6hermes6ESTree6detail11VisitCallerINS_25ES6ClassesTransformationsENS0_21DeclareOpaqueTypeNodeEvE4callERS3_PS4_PNS0_4NodeE = comdat any

$_ZN4llvh4castIN6hermes6ESTree21DeclareOpaqueTypeNodeENS2_4NodeEEENS_10cast_rettyIT_PT0_E8ret_typeES8_ = comdat any

$_ZN6hermes6ESTree6detail11VisitCallerINS_25ES6ClassesTransformationsENS0_20DeclareInterfaceNodeEvE4callERS3_PS4_PNS0_4NodeE = comdat any

$_ZN4llvh4castIN6hermes6ESTree20DeclareInterfaceNodeENS2_4NodeEEENS_10cast_rettyIT_PT0_E8ret_typeES8_ = comdat any

$_ZN6hermes6ESTree6detail11VisitCallerINS_25ES6ClassesTransformationsENS0_16DeclareClassNodeEvE4callERS3_PS4_PNS0_4NodeE = comdat any

$_ZN4llvh4castIN6hermes6ESTree16DeclareClassNodeENS2_4NodeEEENS_10cast_rettyIT_PT0_E8ret_typeES8_ = comdat any

$_ZN6hermes6ESTree6detail11VisitCallerINS_25ES6ClassesTransformationsENS0_19DeclareFunctionNodeEvE4callERS3_PS4_PNS0_4NodeE = comdat any

$_ZN4llvh4castIN6hermes6ESTree19DeclareFunctionNodeENS2_4NodeEEENS_10cast_rettyIT_PT0_E8ret_typeES8_ = comdat any

$_ZN6hermes6ESTree6detail11VisitCallerINS_25ES6ClassesTransformationsENS0_20DeclareComponentNodeEvE4callERS3_PS4_PNS0_4NodeE = comdat any

$_ZN4llvh4castIN6hermes6ESTree20DeclareComponentNodeENS2_4NodeEEENS_10cast_rettyIT_PT0_E8ret_typeES8_ = comdat any

$_ZN6hermes6ESTree6detail11VisitCallerINS_25ES6ClassesTransformationsENS0_19DeclareVariableNodeEvE4callERS3_PS4_PNS0_4NodeE = comdat any

$_ZN4llvh4castIN6hermes6ESTree19DeclareVariableNodeENS2_4NodeEEENS_10cast_rettyIT_PT0_E8ret_typeES8_ = comdat any

$_ZN6hermes6ESTree6detail11VisitCallerINS_25ES6ClassesTransformationsENS0_15DeclareEnumNodeEvE4callERS3_PS4_PNS0_4NodeE = comdat any

$_ZN4llvh4castIN6hermes6ESTree15DeclareEnumNodeENS2_4NodeEEENS_10cast_rettyIT_PT0_E8ret_typeES8_ = comdat any

$_ZN6hermes6ESTree6detail11VisitCallerINS_25ES6ClassesTransformationsENS0_28DeclareExportDeclarationNodeEvE4callERS3_PS4_PNS0_4NodeE = comdat any

$_ZN4llvh4castIN6hermes6ESTree28DeclareExportDeclarationNodeENS2_4NodeEEENS_10cast_rettyIT_PT0_E8ret_typeES8_ = comdat any

$_ZN6hermes6ESTree6detail11VisitCallerINS_25ES6ClassesTransformationsENS0_31DeclareExportAllDeclarationNodeEvE4callERS3_PS4_PNS0_4NodeE = comdat any

$_ZN4llvh4castIN6hermes6ESTree31DeclareExportAllDeclarationNodeENS2_4NodeEEENS_10cast_rettyIT_PT0_E8ret_typeES8_ = comdat any

$_ZN6hermes6ESTree6detail11VisitCallerINS_25ES6ClassesTransformationsENS0_17DeclareModuleNodeEvE4callERS3_PS4_PNS0_4NodeE = comdat any

$_ZN4llvh4castIN6hermes6ESTree17DeclareModuleNodeENS2_4NodeEEENS_10cast_rettyIT_PT0_E8ret_typeES8_ = comdat any

$_ZN6hermes6ESTree6detail11VisitCallerINS_25ES6ClassesTransformationsENS0_24DeclareModuleExportsNodeEvE4callERS3_PS4_PNS0_4NodeE = comdat any

$_ZN4llvh4castIN6hermes6ESTree24DeclareModuleExportsNodeENS2_4NodeEEENS_10cast_rettyIT_PT0_E8ret_typeES8_ = comdat any

$_ZN6hermes6ESTree6detail11VisitCallerINS_25ES6ClassesTransformationsENS0_20InterfaceExtendsNodeEvE4callERS3_PS4_PNS0_4NodeE = comdat any

$_ZN4llvh4castIN6hermes6ESTree20InterfaceExtendsNodeENS2_4NodeEEENS_10cast_rettyIT_PT0_E8ret_typeES8_ = comdat any

$_ZN6hermes6ESTree6detail11VisitCallerINS_25ES6ClassesTransformationsENS0_19ClassImplementsNodeEvE4callERS3_PS4_PNS0_4NodeE = comdat any

$_ZN4llvh4castIN6hermes6ESTree19ClassImplementsNodeENS2_4NodeEEENS_10cast_rettyIT_PT0_E8ret_typeES8_ = comdat any

$_ZN6hermes6ESTree6detail11VisitCallerINS_25ES6ClassesTransformationsENS0_18TypeAnnotationNodeEvE4callERS3_PS4_PNS0_4NodeE = comdat any

$_ZN4llvh4castIN6hermes6ESTree18TypeAnnotationNodeENS2_4NodeEEENS_10cast_rettyIT_PT0_E8ret_typeES8_ = comdat any

$_ZN6hermes6ESTree6detail11VisitCallerINS_25ES6ClassesTransformationsENS0_24ObjectTypeAnnotationNodeEvE4callERS3_PS4_PNS0_4NodeE = comdat any

$_ZN4llvh4castIN6hermes6ESTree24ObjectTypeAnnotationNodeENS2_4NodeEEENS_10cast_rettyIT_PT0_E8ret_typeES8_ = comdat any

$_ZN6hermes6ESTree6detail11VisitCallerINS_25ES6ClassesTransformationsENS0_22ObjectTypePropertyNodeEvE4callERS3_PS4_PNS0_4NodeE = comdat any

$_ZN4llvh4castIN6hermes6ESTree22ObjectTypePropertyNodeENS2_4NodeEEENS_10cast_rettyIT_PT0_E8ret_typeES8_ = comdat any

$_ZN6hermes6ESTree6detail11VisitCallerINS_25ES6ClassesTransformationsENS0_28ObjectTypeSpreadPropertyNodeEvE4callERS3_PS4_PNS0_4NodeE = comdat any

$_ZN4llvh4castIN6hermes6ESTree28ObjectTypeSpreadPropertyNodeENS2_4NodeEEENS_10cast_rettyIT_PT0_E8ret_typeES8_ = comdat any

$_ZN6hermes6ESTree6detail11VisitCallerINS_25ES6ClassesTransformationsENS0_26ObjectTypeInternalSlotNodeEvE4callERS3_PS4_PNS0_4NodeE = comdat any

$_ZN4llvh4castIN6hermes6ESTree26ObjectTypeInternalSlotNodeENS2_4NodeEEENS_10cast_rettyIT_PT0_E8ret_typeES8_ = comdat any

$_ZN6hermes6ESTree6detail11VisitCallerINS_25ES6ClassesTransformationsENS0_26ObjectTypeCallPropertyNodeEvE4callERS3_PS4_PNS0_4NodeE = comdat any

$_ZN4llvh4castIN6hermes6ESTree26ObjectTypeCallPropertyNodeENS2_4NodeEEENS_10cast_rettyIT_PT0_E8ret_typeES8_ = comdat any

$_ZN6hermes6ESTree6detail11VisitCallerINS_25ES6ClassesTransformationsENS0_21ObjectTypeIndexerNodeEvE4callERS3_PS4_PNS0_4NodeE = comdat any

$_ZN4llvh4castIN6hermes6ESTree21ObjectTypeIndexerNodeENS2_4NodeEEENS_10cast_rettyIT_PT0_E8ret_typeES8_ = comdat any

$_ZN6hermes6ESTree6detail11VisitCallerINS_25ES6ClassesTransformationsENS0_32ObjectTypeMappedTypePropertyNodeEvE4callERS3_PS4_PNS0_4NodeE = comdat any

$_ZN4llvh4castIN6hermes6ESTree32ObjectTypeMappedTypePropertyNodeENS2_4NodeEEENS_10cast_rettyIT_PT0_E8ret_typeES8_ = comdat any

$_ZN6hermes6ESTree6detail11VisitCallerINS_25ES6ClassesTransformationsENS0_12VarianceNodeEvE4callERS3_PS4_PNS0_4NodeE = comdat any

$_ZN4llvh4castIN6hermes6ESTree12VarianceNodeENS2_4NodeEEENS_10cast_rettyIT_PT0_E8ret_typeES8_ = comdat any

$_ZN6hermes6ESTree6detail11VisitCallerINS_25ES6ClassesTransformationsENS0_28TypeParameterDeclarationNodeEvE4callERS3_PS4_PNS0_4NodeE = comdat any

$_ZN4llvh4castIN6hermes6ESTree28TypeParameterDeclarationNodeENS2_4NodeEEENS_10cast_rettyIT_PT0_E8ret_typeES8_ = comdat any

$_ZN6hermes6ESTree6detail11VisitCallerINS_25ES6ClassesTransformationsENS0_17TypeParameterNodeEvE4callERS3_PS4_PNS0_4NodeE = comdat any

$_ZN4llvh4castIN6hermes6ESTree17TypeParameterNodeENS2_4NodeEEENS_10cast_rettyIT_PT0_E8ret_typeES8_ = comdat any

$_ZN6hermes6ESTree6detail11VisitCallerINS_25ES6ClassesTransformationsENS0_30TypeParameterInstantiationNodeEvE4callERS3_PS4_PNS0_4NodeE = comdat any

$_ZN4llvh4castIN6hermes6ESTree30TypeParameterInstantiationNodeENS2_4NodeEEENS_10cast_rettyIT_PT0_E8ret_typeES8_ = comdat any

$_ZN6hermes6ESTree6detail11VisitCallerINS_25ES6ClassesTransformationsENS0_22TypeCastExpressionNodeEvE4callERS3_PS4_PNS0_4NodeE = comdat any

$_ZN4llvh4castIN6hermes6ESTree22TypeCastExpressionNodeENS2_4NodeEEENS_10cast_rettyIT_PT0_E8ret_typeES8_ = comdat any

$_ZN6hermes6ESTree6detail11VisitCallerINS_25ES6ClassesTransformationsENS0_16AsExpressionNodeEvE4callERS3_PS4_PNS0_4NodeE = comdat any

$_ZN4llvh4castIN6hermes6ESTree16AsExpressionNodeENS2_4NodeEEENS_10cast_rettyIT_PT0_E8ret_typeES8_ = comdat any

$_ZN6hermes6ESTree6detail11VisitCallerINS_25ES6ClassesTransformationsENS0_21InferredPredicateNodeEvE4callERS3_PS4_PNS0_4NodeE = comdat any

$_ZN4llvh4castIN6hermes6ESTree21InferredPredicateNodeENS2_4NodeEEENS_10cast_rettyIT_PT0_E8ret_typeES8_ = comdat any

$_ZN6hermes6ESTree6detail11VisitCallerINS_25ES6ClassesTransformationsENS0_21DeclaredPredicateNodeEvE4callERS3_PS4_PNS0_4NodeE = comdat any

$_ZN4llvh4castIN6hermes6ESTree21DeclaredPredicateNodeENS2_4NodeEEENS_10cast_rettyIT_PT0_E8ret_typeES8_ = comdat any

$_ZN6hermes6ESTree6detail11VisitCallerINS_25ES6ClassesTransformationsENS0_19EnumDeclarationNodeEvE4callERS3_PS4_PNS0_4NodeE = comdat any

$_ZN4llvh4castIN6hermes6ESTree19EnumDeclarationNodeENS2_4NodeEEENS_10cast_rettyIT_PT0_E8ret_typeES8_ = comdat any

$_ZN6hermes6ESTree6detail11VisitCallerINS_25ES6ClassesTransformationsENS0_18EnumStringBodyNodeEvE4callERS3_PS4_PNS0_4NodeE = comdat any

$_ZN4llvh4castIN6hermes6ESTree18EnumStringBodyNodeENS2_4NodeEEENS_10cast_rettyIT_PT0_E8ret_typeES8_ = comdat any

$_ZN6hermes6ESTree6detail11VisitCallerINS_25ES6ClassesTransformationsENS0_18EnumNumberBodyNodeEvE4callERS3_PS4_PNS0_4NodeE = comdat any

$_ZN4llvh4castIN6hermes6ESTree18EnumNumberBodyNodeENS2_4NodeEEENS_10cast_rettyIT_PT0_E8ret_typeES8_ = comdat any

$_ZN6hermes6ESTree6detail11VisitCallerINS_25ES6ClassesTransformationsENS0_19EnumBooleanBodyNodeEvE4callERS3_PS4_PNS0_4NodeE = comdat any

$_ZN4llvh4castIN6hermes6ESTree19EnumBooleanBodyNodeENS2_4NodeEEENS_10cast_rettyIT_PT0_E8ret_typeES8_ = comdat any

$_ZN6hermes6ESTree6detail11VisitCallerINS_25ES6ClassesTransformationsENS0_18EnumSymbolBodyNodeEvE4callERS3_PS4_PNS0_4NodeE = comdat any

$_ZN4llvh4castIN6hermes6ESTree18EnumSymbolBodyNodeENS2_4NodeEEENS_10cast_rettyIT_PT0_E8ret_typeES8_ = comdat any

$_ZN6hermes6ESTree6detail11VisitCallerINS_25ES6ClassesTransformationsENS0_23EnumDefaultedMemberNodeEvE4callERS3_PS4_PNS0_4NodeE = comdat any

$_ZN4llvh4castIN6hermes6ESTree23EnumDefaultedMemberNodeENS2_4NodeEEENS_10cast_rettyIT_PT0_E8ret_typeES8_ = comdat any

$_ZN6hermes6ESTree6detail11VisitCallerINS_25ES6ClassesTransformationsENS0_20EnumStringMemberNodeEvE4callERS3_PS4_PNS0_4NodeE = comdat any

$_ZN4llvh4castIN6hermes6ESTree20EnumStringMemberNodeENS2_4NodeEEENS_10cast_rettyIT_PT0_E8ret_typeES8_ = comdat any

$_ZN6hermes6ESTree6detail11VisitCallerINS_25ES6ClassesTransformationsENS0_20EnumNumberMemberNodeEvE4callERS3_PS4_PNS0_4NodeE = comdat any

$_ZN4llvh4castIN6hermes6ESTree20EnumNumberMemberNodeENS2_4NodeEEENS_10cast_rettyIT_PT0_E8ret_typeES8_ = comdat any

$_ZN6hermes6ESTree6detail11VisitCallerINS_25ES6ClassesTransformationsENS0_21EnumBooleanMemberNodeEvE4callERS3_PS4_PNS0_4NodeE = comdat any

$_ZN4llvh4castIN6hermes6ESTree21EnumBooleanMemberNodeENS2_4NodeEEENS_10cast_rettyIT_PT0_E8ret_typeES8_ = comdat any

$_ZN6hermes6ESTree6detail11VisitCallerINS_25ES6ClassesTransformationsENS0_22ComponentParameterNodeEvE4callERS3_PS4_PNS0_4NodeE = comdat any

$_ZN4llvh4castIN6hermes6ESTree22ComponentParameterNodeENS2_4NodeEEENS_10cast_rettyIT_PT0_E8ret_typeES8_ = comdat any

$_ZN6hermes6ESTree6detail11VisitCallerINS_25ES6ClassesTransformationsENS0_20TSTypeAnnotationNodeEvE4callERS3_PS4_PNS0_4NodeE = comdat any

$_ZN4llvh4castIN6hermes6ESTree20TSTypeAnnotationNodeENS2_4NodeEEENS_10cast_rettyIT_PT0_E8ret_typeES8_ = comdat any

$_ZN6hermes6ESTree6detail11VisitCallerINS_25ES6ClassesTransformationsENS0_16TSAnyKeywordNodeEvE4callERS3_PS4_PNS0_4NodeE = comdat any

$_ZN4llvh4castIN6hermes6ESTree16TSAnyKeywordNodeENS2_4NodeEEENS_10cast_rettyIT_PT0_E8ret_typeES8_ = comdat any

$_ZN6hermes6ESTree6detail11VisitCallerINS_25ES6ClassesTransformationsENS0_19TSNumberKeywordNodeEvE4callERS3_PS4_PNS0_4NodeE = comdat any

$_ZN4llvh4castIN6hermes6ESTree19TSNumberKeywordNodeENS2_4NodeEEENS_10cast_rettyIT_PT0_E8ret_typeES8_ = comdat any

$_ZN6hermes6ESTree6detail11VisitCallerINS_25ES6ClassesTransformationsENS0_20TSBooleanKeywordNodeEvE4callERS3_PS4_PNS0_4NodeE = comdat any

$_ZN4llvh4castIN6hermes6ESTree20TSBooleanKeywordNodeENS2_4NodeEEENS_10cast_rettyIT_PT0_E8ret_typeES8_ = comdat any

$_ZN6hermes6ESTree6detail11VisitCallerINS_25ES6ClassesTransformationsENS0_19TSStringKeywordNodeEvE4callERS3_PS4_PNS0_4NodeE = comdat any

$_ZN4llvh4castIN6hermes6ESTree19TSStringKeywordNodeENS2_4NodeEEENS_10cast_rettyIT_PT0_E8ret_typeES8_ = comdat any

$_ZN6hermes6ESTree6detail11VisitCallerINS_25ES6ClassesTransformationsENS0_19TSSymbolKeywordNodeEvE4callERS3_PS4_PNS0_4NodeE = comdat any

$_ZN4llvh4castIN6hermes6ESTree19TSSymbolKeywordNodeENS2_4NodeEEENS_10cast_rettyIT_PT0_E8ret_typeES8_ = comdat any

$_ZN6hermes6ESTree6detail11VisitCallerINS_25ES6ClassesTransformationsENS0_17TSVoidKeywordNodeEvE4callERS3_PS4_PNS0_4NodeE = comdat any

$_ZN4llvh4castIN6hermes6ESTree17TSVoidKeywordNodeENS2_4NodeEEENS_10cast_rettyIT_PT0_E8ret_typeES8_ = comdat any

$_ZN6hermes6ESTree6detail11VisitCallerINS_25ES6ClassesTransformationsENS0_22TSUndefinedKeywordNodeEvE4callERS3_PS4_PNS0_4NodeE = comdat any

$_ZN4llvh4castIN6hermes6ESTree22TSUndefinedKeywordNodeENS2_4NodeEEENS_10cast_rettyIT_PT0_E8ret_typeES8_ = comdat any

$_ZN6hermes6ESTree6detail11VisitCallerINS_25ES6ClassesTransformationsENS0_20TSUnknownKeywordNodeEvE4callERS3_PS4_PNS0_4NodeE = comdat any

$_ZN4llvh4castIN6hermes6ESTree20TSUnknownKeywordNodeENS2_4NodeEEENS_10cast_rettyIT_PT0_E8ret_typeES8_ = comdat any

$_ZN6hermes6ESTree6detail11VisitCallerINS_25ES6ClassesTransformationsENS0_18TSNeverKeywordNodeEvE4callERS3_PS4_PNS0_4NodeE = comdat any

$_ZN4llvh4castIN6hermes6ESTree18TSNeverKeywordNodeENS2_4NodeEEENS_10cast_rettyIT_PT0_E8ret_typeES8_ = comdat any

$_ZN6hermes6ESTree6detail11VisitCallerINS_25ES6ClassesTransformationsENS0_19TSBigIntKeywordNodeEvE4callERS3_PS4_PNS0_4NodeE = comdat any

$_ZN4llvh4castIN6hermes6ESTree19TSBigIntKeywordNodeENS2_4NodeEEENS_10cast_rettyIT_PT0_E8ret_typeES8_ = comdat any

$_ZN6hermes6ESTree6detail11VisitCallerINS_25ES6ClassesTransformationsENS0_14TSThisTypeNodeEvE4callERS3_PS4_PNS0_4NodeE = comdat any

$_ZN4llvh4castIN6hermes6ESTree14TSThisTypeNodeENS2_4NodeEEENS_10cast_rettyIT_PT0_E8ret_typeES8_ = comdat any

$_ZN6hermes6ESTree6detail11VisitCallerINS_25ES6ClassesTransformationsENS0_17TSLiteralTypeNodeEvE4callERS3_PS4_PNS0_4NodeE = comdat any

$_ZN4llvh4castIN6hermes6ESTree17TSLiteralTypeNodeENS2_4NodeEEENS_10cast_rettyIT_PT0_E8ret_typeES8_ = comdat any

$_ZN6hermes6ESTree6detail11VisitCallerINS_25ES6ClassesTransformationsENS0_23TSIndexedAccessTypeNodeEvE4callERS3_PS4_PNS0_4NodeE = comdat any

$_ZN4llvh4castIN6hermes6ESTree23TSIndexedAccessTypeNodeENS2_4NodeEEENS_10cast_rettyIT_PT0_E8ret_typeES8_ = comdat any

$_ZN6hermes6ESTree6detail11VisitCallerINS_25ES6ClassesTransformationsENS0_15TSArrayTypeNodeEvE4callERS3_PS4_PNS0_4NodeE = comdat any

$_ZN4llvh4castIN6hermes6ESTree15TSArrayTypeNodeENS2_4NodeEEENS_10cast_rettyIT_PT0_E8ret_typeES8_ = comdat any

$_ZN6hermes6ESTree6detail11VisitCallerINS_25ES6ClassesTransformationsENS0_19TSTypeReferenceNodeEvE4callERS3_PS4_PNS0_4NodeE = comdat any

$_ZN4llvh4castIN6hermes6ESTree19TSTypeReferenceNodeENS2_4NodeEEENS_10cast_rettyIT_PT0_E8ret_typeES8_ = comdat any

$_ZN6hermes6ESTree6detail11VisitCallerINS_25ES6ClassesTransformationsENS0_19TSQualifiedNameNodeEvE4callERS3_PS4_PNS0_4NodeE = comdat any

$_ZN4llvh4castIN6hermes6ESTree19TSQualifiedNameNodeENS2_4NodeEEENS_10cast_rettyIT_PT0_E8ret_typeES8_ = comdat any

$_ZN6hermes6ESTree6detail11VisitCallerINS_25ES6ClassesTransformationsENS0_18TSFunctionTypeNodeEvE4callERS3_PS4_PNS0_4NodeE = comdat any

$_ZN4llvh4castIN6hermes6ESTree18TSFunctionTypeNodeENS2_4NodeEEENS_10cast_rettyIT_PT0_E8ret_typeES8_ = comdat any

$_ZN6hermes6ESTree6detail11VisitCallerINS_25ES6ClassesTransformationsENS0_21TSConstructorTypeNodeEvE4callERS3_PS4_PNS0_4NodeE = comdat any

$_ZN4llvh4castIN6hermes6ESTree21TSConstructorTypeNodeENS2_4NodeEEENS_10cast_rettyIT_PT0_E8ret_typeES8_ = comdat any

$_ZN6hermes6ESTree6detail11VisitCallerINS_25ES6ClassesTransformationsENS0_19TSTypePredicateNodeEvE4callERS3_PS4_PNS0_4NodeE = comdat any

$_ZN4llvh4castIN6hermes6ESTree19TSTypePredicateNodeENS2_4NodeEEENS_10cast_rettyIT_PT0_E8ret_typeES8_ = comdat any

$_ZN6hermes6ESTree6detail11VisitCallerINS_25ES6ClassesTransformationsENS0_15TSTupleTypeNodeEvE4callERS3_PS4_PNS0_4NodeE = comdat any

$_ZN4llvh4castIN6hermes6ESTree15TSTupleTypeNodeENS2_4NodeEEENS_10cast_rettyIT_PT0_E8ret_typeES8_ = comdat any

$_ZN6hermes6ESTree6detail11VisitCallerINS_25ES6ClassesTransformationsENS0_19TSTypeAssertionNodeEvE4callERS3_PS4_PNS0_4NodeE = comdat any

$_ZN4llvh4castIN6hermes6ESTree19TSTypeAssertionNodeENS2_4NodeEEENS_10cast_rettyIT_PT0_E8ret_typeES8_ = comdat any

$_ZN6hermes6ESTree6detail11VisitCallerINS_25ES6ClassesTransformationsENS0_18TSAsExpressionNodeEvE4callERS3_PS4_PNS0_4NodeE = comdat any

$_ZN4llvh4castIN6hermes6ESTree18TSAsExpressionNodeENS2_4NodeEEENS_10cast_rettyIT_PT0_E8ret_typeES8_ = comdat any

$_ZN6hermes6ESTree6detail11VisitCallerINS_25ES6ClassesTransformationsENS0_23TSParameterPropertyNodeEvE4callERS3_PS4_PNS0_4NodeE = comdat any

$_ZN4llvh4castIN6hermes6ESTree23TSParameterPropertyNodeENS2_4NodeEEENS_10cast_rettyIT_PT0_E8ret_typeES8_ = comdat any

$_ZN6hermes6ESTree6detail11VisitCallerINS_25ES6ClassesTransformationsENS0_26TSTypeAliasDeclarationNodeEvE4callERS3_PS4_PNS0_4NodeE = comdat any

$_ZN4llvh4castIN6hermes6ESTree26TSTypeAliasDeclarationNodeENS2_4NodeEEENS_10cast_rettyIT_PT0_E8ret_typeES8_ = comdat any

$_ZN6hermes6ESTree6detail11VisitCallerINS_25ES6ClassesTransformationsENS0_26TSInterfaceDeclarationNodeEvE4callERS3_PS4_PNS0_4NodeE = comdat any

$_ZN4llvh4castIN6hermes6ESTree26TSInterfaceDeclarationNodeENS2_4NodeEEENS_10cast_rettyIT_PT0_E8ret_typeES8_ = comdat any

$_ZN6hermes6ESTree6detail11VisitCallerINS_25ES6ClassesTransformationsENS0_23TSInterfaceHeritageNodeEvE4callERS3_PS4_PNS0_4NodeE = comdat any

$_ZN4llvh4castIN6hermes6ESTree23TSInterfaceHeritageNodeENS2_4NodeEEENS_10cast_rettyIT_PT0_E8ret_typeES8_ = comdat any

$_ZN6hermes6ESTree6detail11VisitCallerINS_25ES6ClassesTransformationsENS0_19TSInterfaceBodyNodeEvE4callERS3_PS4_PNS0_4NodeE = comdat any

$_ZN4llvh4castIN6hermes6ESTree19TSInterfaceBodyNodeENS2_4NodeEEENS_10cast_rettyIT_PT0_E8ret_typeES8_ = comdat any

$_ZN6hermes6ESTree6detail11VisitCallerINS_25ES6ClassesTransformationsENS0_21TSEnumDeclarationNodeEvE4callERS3_PS4_PNS0_4NodeE = comdat any

$_ZN4llvh4castIN6hermes6ESTree21TSEnumDeclarationNodeENS2_4NodeEEENS_10cast_rettyIT_PT0_E8ret_typeES8_ = comdat any

$_ZN6hermes6ESTree6detail11VisitCallerINS_25ES6ClassesTransformationsENS0_16TSEnumMemberNodeEvE4callERS3_PS4_PNS0_4NodeE = comdat any

$_ZN4llvh4castIN6hermes6ESTree16TSEnumMemberNodeENS2_4NodeEEENS_10cast_rettyIT_PT0_E8ret_typeES8_ = comdat any

$_ZN6hermes6ESTree6detail11VisitCallerINS_25ES6ClassesTransformationsENS0_23TSModuleDeclarationNodeEvE4callERS3_PS4_PNS0_4NodeE = comdat any

$_ZN4llvh4castIN6hermes6ESTree23TSModuleDeclarationNodeENS2_4NodeEEENS_10cast_rettyIT_PT0_E8ret_typeES8_ = comdat any

$_ZN6hermes6ESTree6detail11VisitCallerINS_25ES6ClassesTransformationsENS0_17TSModuleBlockNodeEvE4callERS3_PS4_PNS0_4NodeE = comdat any

$_ZN4llvh4castIN6hermes6ESTree17TSModuleBlockNodeENS2_4NodeEEENS_10cast_rettyIT_PT0_E8ret_typeES8_ = comdat any

$_ZN6hermes6ESTree6detail11VisitCallerINS_25ES6ClassesTransformationsENS0_18TSModuleMemberNodeEvE4callERS3_PS4_PNS0_4NodeE = comdat any

$_ZN4llvh4castIN6hermes6ESTree18TSModuleMemberNodeENS2_4NodeEEENS_10cast_rettyIT_PT0_E8ret_typeES8_ = comdat any

$_ZN6hermes6ESTree6detail11VisitCallerINS_25ES6ClassesTransformationsENS0_30TSTypeParameterDeclarationNodeEvE4callERS3_PS4_PNS0_4NodeE = comdat any

$_ZN4llvh4castIN6hermes6ESTree30TSTypeParameterDeclarationNodeENS2_4NodeEEENS_10cast_rettyIT_PT0_E8ret_typeES8_ = comdat any

$_ZN6hermes6ESTree6detail11VisitCallerINS_25ES6ClassesTransformationsENS0_19TSTypeParameterNodeEvE4callERS3_PS4_PNS0_4NodeE = comdat any

$_ZN4llvh4castIN6hermes6ESTree19TSTypeParameterNodeENS2_4NodeEEENS_10cast_rettyIT_PT0_E8ret_typeES8_ = comdat any

$_ZN6hermes6ESTree6detail11VisitCallerINS_25ES6ClassesTransformationsENS0_32TSTypeParameterInstantiationNodeEvE4callERS3_PS4_PNS0_4NodeE = comdat any

$_ZN4llvh4castIN6hermes6ESTree32TSTypeParameterInstantiationNodeENS2_4NodeEEENS_10cast_rettyIT_PT0_E8ret_typeES8_ = comdat any

$_ZN6hermes6ESTree6detail11VisitCallerINS_25ES6ClassesTransformationsENS0_15TSUnionTypeNodeEvE4callERS3_PS4_PNS0_4NodeE = comdat any

$_ZN4llvh4castIN6hermes6ESTree15TSUnionTypeNodeENS2_4NodeEEENS_10cast_rettyIT_PT0_E8ret_typeES8_ = comdat any

$_ZN6hermes6ESTree6detail11VisitCallerINS_25ES6ClassesTransformationsENS0_22TSIntersectionTypeNodeEvE4callERS3_PS4_PNS0_4NodeE = comdat any

$_ZN4llvh4castIN6hermes6ESTree22TSIntersectionTypeNodeENS2_4NodeEEENS_10cast_rettyIT_PT0_E8ret_typeES8_ = comdat any

$_ZN6hermes6ESTree6detail11VisitCallerINS_25ES6ClassesTransformationsENS0_15TSTypeQueryNodeEvE4callERS3_PS4_PNS0_4NodeE = comdat any

$_ZN4llvh4castIN6hermes6ESTree15TSTypeQueryNodeENS2_4NodeEEENS_10cast_rettyIT_PT0_E8ret_typeES8_ = comdat any

$_ZN6hermes6ESTree6detail11VisitCallerINS_25ES6ClassesTransformationsENS0_21TSConditionalTypeNodeEvE4callERS3_PS4_PNS0_4NodeE = comdat any

$_ZN4llvh4castIN6hermes6ESTree21TSConditionalTypeNodeENS2_4NodeEEENS_10cast_rettyIT_PT0_E8ret_typeES8_ = comdat any

$_ZN6hermes6ESTree6detail11VisitCallerINS_25ES6ClassesTransformationsENS0_17TSTypeLiteralNodeEvE4callERS3_PS4_PNS0_4NodeE = comdat any

$_ZN4llvh4castIN6hermes6ESTree17TSTypeLiteralNodeENS2_4NodeEEENS_10cast_rettyIT_PT0_E8ret_typeES8_ = comdat any

$_ZN6hermes6ESTree6detail11VisitCallerINS_25ES6ClassesTransformationsENS0_23TSPropertySignatureNodeEvE4callERS3_PS4_PNS0_4NodeE = comdat any

$_ZN4llvh4castIN6hermes6ESTree23TSPropertySignatureNodeENS2_4NodeEEENS_10cast_rettyIT_PT0_E8ret_typeES8_ = comdat any

$_ZN6hermes6ESTree6detail11VisitCallerINS_25ES6ClassesTransformationsENS0_21TSMethodSignatureNodeEvE4callERS3_PS4_PNS0_4NodeE = comdat any

$_ZN4llvh4castIN6hermes6ESTree21TSMethodSignatureNodeENS2_4NodeEEENS_10cast_rettyIT_PT0_E8ret_typeES8_ = comdat any

$_ZN6hermes6ESTree6detail11VisitCallerINS_25ES6ClassesTransformationsENS0_20TSIndexSignatureNodeEvE4callERS3_PS4_PNS0_4NodeE = comdat any

$_ZN4llvh4castIN6hermes6ESTree20TSIndexSignatureNodeENS2_4NodeEEENS_10cast_rettyIT_PT0_E8ret_typeES8_ = comdat any

$_ZN6hermes6ESTree6detail11VisitCallerINS_25ES6ClassesTransformationsENS0_30TSCallSignatureDeclarationNodeEvE4callERS3_PS4_PNS0_4NodeE = comdat any

$_ZN4llvh4castIN6hermes6ESTree30TSCallSignatureDeclarationNodeENS2_4NodeEEENS_10cast_rettyIT_PT0_E8ret_typeES8_ = comdat any

$_ZN6hermes6ESTree6detail11VisitCallerINS_25ES6ClassesTransformationsENS0_15TSModifiersNodeEvE4callERS3_PS4_PNS0_4NodeE = comdat any

$_ZN4llvh4castIN6hermes6ESTree15TSModifiersNodeENS2_4NodeEEENS_10cast_rettyIT_PT0_E8ret_typeES8_ = comdat any

$_ZN6hermes6ESTree6detail11VisitCallerINS_25ES6ClassesTransformationsENS0_18CoverEmptyArgsNodeEvE4callERS3_PS4_PNS0_4NodeE = comdat any

$_ZN4llvh4castIN6hermes6ESTree18CoverEmptyArgsNodeENS2_4NodeEEENS_10cast_rettyIT_PT0_E8ret_typeES8_ = comdat any

$_ZN6hermes6ESTree6detail11VisitCallerINS_25ES6ClassesTransformationsENS0_22CoverTrailingCommaNodeEvE4callERS3_PS4_PNS0_4NodeE = comdat any

$_ZN4llvh4castIN6hermes6ESTree22CoverTrailingCommaNodeENS2_4NodeEEENS_10cast_rettyIT_PT0_E8ret_typeES8_ = comdat any

$_ZN6hermes6ESTree6detail11VisitCallerINS_25ES6ClassesTransformationsENS0_20CoverInitializerNodeEvE4callERS3_PS4_PNS0_4NodeE = comdat any

$_ZN4llvh4castIN6hermes6ESTree20CoverInitializerNodeENS2_4NodeEEENS_10cast_rettyIT_PT0_E8ret_typeES8_ = comdat any

$_ZN6hermes6ESTree6detail11VisitCallerINS_25ES6ClassesTransformationsENS0_20CoverRestElementNodeEvE4callERS3_PS4_PNS0_4NodeE = comdat any

$_ZN4llvh4castIN6hermes6ESTree20CoverRestElementNodeENS2_4NodeEEENS_10cast_rettyIT_PT0_E8ret_typeES8_ = comdat any

$_ZN6hermes6ESTree6detail11VisitCallerINS_25ES6ClassesTransformationsENS0_24CoverTypedIdentifierNodeEvE4callERS3_PS4_PNS0_4NodeE = comdat any

$_ZN4llvh4castIN6hermes6ESTree24CoverTypedIdentifierNodeENS2_4NodeEEENS_10cast_rettyIT_PT0_E8ret_typeES8_ = comdat any

$_ZN6hermes25ES6ClassesTransformations17decRecursionDepthEv = comdat any

$_ZNSt7variantIJN6hermes6ESTree11UnmodifiedTENS1_8RemovedTEPNS1_4NodeEEEC2ILm0EJRS2_ES2_vEESt16in_place_index_tIXT_EEDpOT0_ = comdat any

$_ZNSt8__detail9__variant13_Variant_baseIJN6hermes6ESTree11UnmodifiedTENS3_8RemovedTEPNS3_4NodeEEEC2ILm0EJRS4_EEESt16in_place_index_tIXT_EEDpOT0_ = comdat any

$_ZNSt27_Enable_default_constructorILb1ESt7variantIJN6hermes6ESTree11UnmodifiedTENS2_8RemovedTEPNS2_4NodeEEEEC2ESt31_Enable_default_constructor_tag = comdat any

$_ZNSt8__detail9__variant17_Move_assign_baseILb1EJN6hermes6ESTree11UnmodifiedTENS3_8RemovedTEPNS3_4NodeEEECI2NS0_16_Variant_storageILb1EJS4_S5_S7_EEEILm0EJRS4_EEESt16in_place_index_tIXT_EEDpOT0_ = comdat any

$_ZNSt8__detail9__variant17_Copy_assign_baseILb1EJN6hermes6ESTree11UnmodifiedTENS3_8RemovedTEPNS3_4NodeEEECI2NS0_16_Variant_storageILb1EJS4_S5_S7_EEEILm0EJRS4_EEESt16in_place_index_tIXT_EEDpOT0_ = comdat any

$_ZNSt8__detail9__variant15_Move_ctor_baseILb1EJN6hermes6ESTree11UnmodifiedTENS3_8RemovedTEPNS3_4NodeEEECI2NS0_16_Variant_storageILb1EJS4_S5_S7_EEEILm0EJRS4_EEESt16in_place_index_tIXT_EEDpOT0_ = comdat any

$_ZNSt8__detail9__variant15_Copy_ctor_baseILb1EJN6hermes6ESTree11UnmodifiedTENS3_8RemovedTEPNS3_4NodeEEECI2NS0_16_Variant_storageILb1EJS4_S5_S7_EEEILm0EJRS4_EEESt16in_place_index_tIXT_EEDpOT0_ = comdat any

$_ZNSt8__detail9__variant16_Variant_storageILb1EJN6hermes6ESTree11UnmodifiedTENS3_8RemovedTEPNS3_4NodeEEEC2ILm0EJRS4_EEESt16in_place_index_tIXT_EEDpOT0_ = comdat any

$_ZNSt8__detail9__variant15_Variadic_unionIJN6hermes6ESTree11UnmodifiedTENS3_8RemovedTEPNS3_4NodeEEEC2IJRS4_EEESt16in_place_index_tILm0EEDpOT_ = comdat any

$_ZNSt8__detail9__variant14_UninitializedIN6hermes6ESTree11UnmodifiedTELb1EEC2IJRS4_EEESt16in_place_index_tILm0EEDpOT_ = comdat any

$_ZNSt8__detail9__variant13_Variant_baseIJN6hermes6ESTree11UnmodifiedTENS3_8RemovedTEPNS3_4NodeEEEC2Ev = comdat any

$_ZNSt8__detail9__variant13_Variant_baseIJN6hermes6ESTree11UnmodifiedTENS3_8RemovedTEPNS3_4NodeEEEC2ILm0EJEEESt16in_place_index_tIXT_EEDpOT0_ = comdat any

$_ZNSt8__detail9__variant17_Move_assign_baseILb1EJN6hermes6ESTree11UnmodifiedTENS3_8RemovedTEPNS3_4NodeEEECI2NS0_16_Variant_storageILb1EJS4_S5_S7_EEEILm0EJEEESt16in_place_index_tIXT_EEDpOT0_ = comdat any

$_ZNSt8__detail9__variant17_Copy_assign_baseILb1EJN6hermes6ESTree11UnmodifiedTENS3_8RemovedTEPNS3_4NodeEEECI2NS0_16_Variant_storageILb1EJS4_S5_S7_EEEILm0EJEEESt16in_place_index_tIXT_EEDpOT0_ = comdat any

$_ZNSt8__detail9__variant15_Move_ctor_baseILb1EJN6hermes6ESTree11UnmodifiedTENS3_8RemovedTEPNS3_4NodeEEECI2NS0_16_Variant_storageILb1EJS4_S5_S7_EEEILm0EJEEESt16in_place_index_tIXT_EEDpOT0_ = comdat any

$_ZNSt8__detail9__variant15_Copy_ctor_baseILb1EJN6hermes6ESTree11UnmodifiedTENS3_8RemovedTEPNS3_4NodeEEECI2NS0_16_Variant_storageILb1EJS4_S5_S7_EEEILm0EJEEESt16in_place_index_tIXT_EEDpOT0_ = comdat any

$_ZNSt8__detail9__variant16_Variant_storageILb1EJN6hermes6ESTree11UnmodifiedTENS3_8RemovedTEPNS3_4NodeEEEC2ILm0EJEEESt16in_place_index_tIXT_EEDpOT0_ = comdat any

$_ZNSt8__detail9__variant15_Variadic_unionIJN6hermes6ESTree11UnmodifiedTENS3_8RemovedTEPNS3_4NodeEEEC2IJEEESt16in_place_index_tILm0EEDpOT_ = comdat any

$_ZNSt8__detail9__variant14_UninitializedIN6hermes6ESTree11UnmodifiedTELb1EEC2IJEEESt16in_place_index_tILm0EEDpOT_ = comdat any

$_ZN6hermes25ES6ClassesTransformations5visitEPNS_6ESTree4NodeE = comdat any

$_ZN6hermes6ESTree19visitESTreeChildrenINS_25ES6ClassesTransformationsENS0_4NodeEEEvRT_PT0_ = comdat any

$_ZN6hermes6ESTree24RecursiveVisitorDispatchINS_25ES6ClassesTransformationsELb0EE13visitChildrenERS2_PNS0_4NodeE = comdat any

$_ZN6hermes6ESTree24RecursiveVisitorDispatchINS_25ES6ClassesTransformationsELb0EE13visitChildrenERS2_PNS0_9EmptyNodeE = comdat any

$_ZN6hermes6ESTree24RecursiveVisitorDispatchINS_25ES6ClassesTransformationsELb0EE13visitChildrenERS2_PNS0_12MetadataNodeE = comdat any

$_ZN6hermes6ESTree24RecursiveVisitorDispatchINS_25ES6ClassesTransformationsELb0EE13visitChildrenERS2_PNS0_11ProgramNodeE = comdat any

$_ZN6hermes6ESTree24RecursiveVisitorDispatchINS_25ES6ClassesTransformationsELb0EE13visitChildrenERS2_PNS0_22FunctionExpressionNodeE = comdat any

$_ZN6hermes6ESTree24RecursiveVisitorDispatchINS_25ES6ClassesTransformationsELb0EE13visitChildrenERS2_PNS0_27ArrowFunctionExpressionNodeE = comdat any

$_ZN6hermes6ESTree24RecursiveVisitorDispatchINS_25ES6ClassesTransformationsELb0EE13visitChildrenERS2_PNS0_23FunctionDeclarationNodeE = comdat any

$_ZN6hermes6ESTree24RecursiveVisitorDispatchINS_25ES6ClassesTransformationsELb0EE13visitChildrenERS2_PNS0_24ComponentDeclarationNodeE = comdat any

$_ZN6hermes6ESTree24RecursiveVisitorDispatchINS_25ES6ClassesTransformationsELb0EE13visitChildrenERS2_PNS0_18WhileStatementNodeE = comdat any

$_ZN6hermes6ESTree24RecursiveVisitorDispatchINS_25ES6ClassesTransformationsELb0EE13visitChildrenERS2_PNS0_20DoWhileStatementNodeE = comdat any

$_ZN6hermes6ESTree24RecursiveVisitorDispatchINS_25ES6ClassesTransformationsELb0EE13visitChildrenERS2_PNS0_18ForInStatementNodeE = comdat any

$_ZN6hermes6ESTree24RecursiveVisitorDispatchINS_25ES6ClassesTransformationsELb0EE13visitChildrenERS2_PNS0_18ForOfStatementNodeE = comdat any

$_ZN6hermes6ESTree24RecursiveVisitorDispatchINS_25ES6ClassesTransformationsELb0EE13visitChildrenERS2_PNS0_16ForStatementNodeE = comdat any

$_ZN6hermes6ESTree24RecursiveVisitorDispatchINS_25ES6ClassesTransformationsELb0EE13visitChildrenERS2_PNS0_21DebuggerStatementNodeE = comdat any

$_ZN6hermes6ESTree24RecursiveVisitorDispatchINS_25ES6ClassesTransformationsELb0EE13visitChildrenERS2_PNS0_18EmptyStatementNodeE = comdat any

$_ZN6hermes6ESTree24RecursiveVisitorDispatchINS_25ES6ClassesTransformationsELb0EE13visitChildrenERS2_PNS0_18BlockStatementNodeE = comdat any

$_ZN6hermes6ESTree24RecursiveVisitorDispatchINS_25ES6ClassesTransformationsELb0EE13visitChildrenERS2_PNS0_18BreakStatementNodeE = comdat any

$_ZN6hermes6ESTree24RecursiveVisitorDispatchINS_25ES6ClassesTransformationsELb0EE13visitChildrenERS2_PNS0_21ContinueStatementNodeE = comdat any

$_ZN6hermes6ESTree24RecursiveVisitorDispatchINS_25ES6ClassesTransformationsELb0EE13visitChildrenERS2_PNS0_18ThrowStatementNodeE = comdat any

$_ZN6hermes6ESTree24RecursiveVisitorDispatchINS_25ES6ClassesTransformationsELb0EE13visitChildrenERS2_PNS0_19ReturnStatementNodeE = comdat any

$_ZN6hermes6ESTree24RecursiveVisitorDispatchINS_25ES6ClassesTransformationsELb0EE13visitChildrenERS2_PNS0_17WithStatementNodeE = comdat any

$_ZN6hermes6ESTree24RecursiveVisitorDispatchINS_25ES6ClassesTransformationsELb0EE13visitChildrenERS2_PNS0_19SwitchStatementNodeE = comdat any

$_ZN6hermes6ESTree24RecursiveVisitorDispatchINS_25ES6ClassesTransformationsELb0EE13visitChildrenERS2_PNS0_20LabeledStatementNodeE = comdat any

$_ZN6hermes6ESTree24RecursiveVisitorDispatchINS_25ES6ClassesTransformationsELb0EE13visitChildrenERS2_PNS0_23ExpressionStatementNodeE = comdat any

$_ZN6hermes6ESTree24RecursiveVisitorDispatchINS_25ES6ClassesTransformationsELb0EE13visitChildrenERS2_PNS0_16TryStatementNodeE = comdat any

$_ZN6hermes6ESTree24RecursiveVisitorDispatchINS_25ES6ClassesTransformationsELb0EE13visitChildrenERS2_PNS0_15IfStatementNodeE = comdat any

$_ZN6hermes6ESTree24RecursiveVisitorDispatchINS_25ES6ClassesTransformationsELb0EE13visitChildrenERS2_PNS0_15NullLiteralNodeE = comdat any

$_ZN6hermes6ESTree24RecursiveVisitorDispatchINS_25ES6ClassesTransformationsELb0EE13visitChildrenERS2_PNS0_18BooleanLiteralNodeE = comdat any

$_ZN6hermes6ESTree24RecursiveVisitorDispatchINS_25ES6ClassesTransformationsELb0EE13visitChildrenERS2_PNS0_17StringLiteralNodeE = comdat any

$_ZN6hermes6ESTree24RecursiveVisitorDispatchINS_25ES6ClassesTransformationsELb0EE13visitChildrenERS2_PNS0_18NumericLiteralNodeE = comdat any

$_ZN6hermes6ESTree24RecursiveVisitorDispatchINS_25ES6ClassesTransformationsELb0EE13visitChildrenERS2_PNS0_17RegExpLiteralNodeE = comdat any

$_ZN6hermes6ESTree24RecursiveVisitorDispatchINS_25ES6ClassesTransformationsELb0EE13visitChildrenERS2_PNS0_17BigIntLiteralNodeE = comdat any

$_ZN6hermes6ESTree24RecursiveVisitorDispatchINS_25ES6ClassesTransformationsELb0EE13visitChildrenERS2_PNS0_18ThisExpressionNodeE = comdat any

$_ZN6hermes6ESTree24RecursiveVisitorDispatchINS_25ES6ClassesTransformationsELb0EE13visitChildrenERS2_PNS0_9SuperNodeE = comdat any

$_ZN6hermes6ESTree24RecursiveVisitorDispatchINS_25ES6ClassesTransformationsELb0EE13visitChildrenERS2_PNS0_22SequenceExpressionNodeE = comdat any

$_ZN6hermes6ESTree24RecursiveVisitorDispatchINS_25ES6ClassesTransformationsELb0EE13visitChildrenERS2_PNS0_20ObjectExpressionNodeE = comdat any

$_ZN6hermes6ESTree24RecursiveVisitorDispatchINS_25ES6ClassesTransformationsELb0EE13visitChildrenERS2_PNS0_19ArrayExpressionNodeE = comdat any

$_ZN6hermes6ESTree24RecursiveVisitorDispatchINS_25ES6ClassesTransformationsELb0EE13visitChildrenERS2_PNS0_17SpreadElementNodeE = comdat any

$_ZN6hermes6ESTree24RecursiveVisitorDispatchINS_25ES6ClassesTransformationsELb0EE13visitChildrenERS2_PNS0_17NewExpressionNodeE = comdat any

$_ZN6hermes6ESTree24RecursiveVisitorDispatchINS_25ES6ClassesTransformationsELb0EE13visitChildrenERS2_PNS0_19YieldExpressionNodeE = comdat any

$_ZN6hermes6ESTree24RecursiveVisitorDispatchINS_25ES6ClassesTransformationsELb0EE13visitChildrenERS2_PNS0_19AwaitExpressionNodeE = comdat any

$_ZN6hermes6ESTree24RecursiveVisitorDispatchINS_25ES6ClassesTransformationsELb0EE13visitChildrenERS2_PNS0_20ImportExpressionNodeE = comdat any

$_ZN6hermes6ESTree24RecursiveVisitorDispatchINS_25ES6ClassesTransformationsELb0EE13visitChildrenERS2_PNS0_18CallExpressionNodeE = comdat any

$_ZN6hermes6ESTree24RecursiveVisitorDispatchINS_25ES6ClassesTransformationsELb0EE13visitChildrenERS2_PNS0_26OptionalCallExpressionNodeE = comdat any

$_ZN6hermes6ESTree24RecursiveVisitorDispatchINS_25ES6ClassesTransformationsELb0EE13visitChildrenERS2_PNS0_24AssignmentExpressionNodeE = comdat any

$_ZN6hermes6ESTree24RecursiveVisitorDispatchINS_25ES6ClassesTransformationsELb0EE13visitChildrenERS2_PNS0_19UnaryExpressionNodeE = comdat any

$_ZN6hermes6ESTree24RecursiveVisitorDispatchINS_25ES6ClassesTransformationsELb0EE13visitChildrenERS2_PNS0_20UpdateExpressionNodeE = comdat any

$_ZN6hermes6ESTree24RecursiveVisitorDispatchINS_25ES6ClassesTransformationsELb0EE13visitChildrenERS2_PNS0_20MemberExpressionNodeE = comdat any

$_ZN6hermes6ESTree24RecursiveVisitorDispatchINS_25ES6ClassesTransformationsELb0EE13visitChildrenERS2_PNS0_28OptionalMemberExpressionNodeE = comdat any

$_ZN6hermes6ESTree24RecursiveVisitorDispatchINS_25ES6ClassesTransformationsELb0EE13visitChildrenERS2_PNS0_21LogicalExpressionNodeE = comdat any

$_ZN6hermes6ESTree24RecursiveVisitorDispatchINS_25ES6ClassesTransformationsELb0EE13visitChildrenERS2_PNS0_25ConditionalExpressionNodeE = comdat any

$_ZN6hermes6ESTree24RecursiveVisitorDispatchINS_25ES6ClassesTransformationsELb0EE13visitChildrenERS2_PNS0_20BinaryExpressionNodeE = comdat any

$_ZN6hermes6ESTree24RecursiveVisitorDispatchINS_25ES6ClassesTransformationsELb0EE13visitChildrenERS2_PNS0_13DirectiveNodeE = comdat any

$_ZN6hermes6ESTree24RecursiveVisitorDispatchINS_25ES6ClassesTransformationsELb0EE13visitChildrenERS2_PNS0_20DirectiveLiteralNodeE = comdat any

$_ZN6hermes6ESTree24RecursiveVisitorDispatchINS_25ES6ClassesTransformationsELb0EE13visitChildrenERS2_PNS0_14IdentifierNodeE = comdat any

$_ZN6hermes6ESTree24RecursiveVisitorDispatchINS_25ES6ClassesTransformationsELb0EE13visitChildrenERS2_PNS0_15PrivateNameNodeE = comdat any

$_ZN6hermes6ESTree24RecursiveVisitorDispatchINS_25ES6ClassesTransformationsELb0EE13visitChildrenERS2_PNS0_16MetaPropertyNodeE = comdat any

$_ZN6hermes6ESTree24RecursiveVisitorDispatchINS_25ES6ClassesTransformationsELb0EE13visitChildrenERS2_PNS0_14SwitchCaseNodeE = comdat any

$_ZN6hermes6ESTree24RecursiveVisitorDispatchINS_25ES6ClassesTransformationsELb0EE13visitChildrenERS2_PNS0_15CatchClauseNodeE = comdat any

$_ZN6hermes6ESTree24RecursiveVisitorDispatchINS_25ES6ClassesTransformationsELb0EE13visitChildrenERS2_PNS0_22VariableDeclaratorNodeE = comdat any

$_ZN6hermes6ESTree24RecursiveVisitorDispatchINS_25ES6ClassesTransformationsELb0EE13visitChildrenERS2_PNS0_23VariableDeclarationNodeE = comdat any

$_ZN6hermes6ESTree24RecursiveVisitorDispatchINS_25ES6ClassesTransformationsELb0EE13visitChildrenERS2_PNS0_19TemplateLiteralNodeE = comdat any

$_ZN6hermes6ESTree24RecursiveVisitorDispatchINS_25ES6ClassesTransformationsELb0EE13visitChildrenERS2_PNS0_28TaggedTemplateExpressionNodeE = comdat any

$_ZN6hermes6ESTree24RecursiveVisitorDispatchINS_25ES6ClassesTransformationsELb0EE13visitChildrenERS2_PNS0_19TemplateElementNodeE = comdat any

$_ZN6hermes6ESTree24RecursiveVisitorDispatchINS_25ES6ClassesTransformationsELb0EE13visitChildrenERS2_PNS0_12PropertyNodeE = comdat any

$_ZN6hermes6ESTree24RecursiveVisitorDispatchINS_25ES6ClassesTransformationsELb0EE13visitChildrenERS2_PNS0_20ClassDeclarationNodeE = comdat any

$_ZN6hermes6ESTree24RecursiveVisitorDispatchINS_25ES6ClassesTransformationsELb0EE13visitChildrenERS2_PNS0_19ClassExpressionNodeE = comdat any

$_ZN6hermes6ESTree24RecursiveVisitorDispatchINS_25ES6ClassesTransformationsELb0EE13visitChildrenERS2_PNS0_13ClassBodyNodeE = comdat any

$_ZN6hermes6ESTree24RecursiveVisitorDispatchINS_25ES6ClassesTransformationsELb0EE13visitChildrenERS2_PNS0_17ClassPropertyNodeE = comdat any

$_ZN6hermes6ESTree24RecursiveVisitorDispatchINS_25ES6ClassesTransformationsELb0EE13visitChildrenERS2_PNS0_24ClassPrivatePropertyNodeE = comdat any

$_ZN6hermes6ESTree24RecursiveVisitorDispatchINS_25ES6ClassesTransformationsELb0EE13visitChildrenERS2_PNS0_20MethodDefinitionNodeE = comdat any

$_ZN6hermes6ESTree24RecursiveVisitorDispatchINS_25ES6ClassesTransformationsELb0EE13visitChildrenERS2_PNS0_21ImportDeclarationNodeE = comdat any

$_ZN6hermes6ESTree24RecursiveVisitorDispatchINS_25ES6ClassesTransformationsELb0EE13visitChildrenERS2_PNS0_19ImportSpecifierNodeE = comdat any

$_ZN6hermes6ESTree24RecursiveVisitorDispatchINS_25ES6ClassesTransformationsELb0EE13visitChildrenERS2_PNS0_26ImportDefaultSpecifierNodeE = comdat any

$_ZN6hermes6ESTree24RecursiveVisitorDispatchINS_25ES6ClassesTransformationsELb0EE13visitChildrenERS2_PNS0_28ImportNamespaceSpecifierNodeE = comdat any

$_ZN6hermes6ESTree24RecursiveVisitorDispatchINS_25ES6ClassesTransformationsELb0EE13visitChildrenERS2_PNS0_19ImportAttributeNodeE = comdat any

$_ZN6hermes6ESTree24RecursiveVisitorDispatchINS_25ES6ClassesTransformationsELb0EE13visitChildrenERS2_PNS0_26ExportNamedDeclarationNodeE = comdat any

$_ZN6hermes6ESTree24RecursiveVisitorDispatchINS_25ES6ClassesTransformationsELb0EE13visitChildrenERS2_PNS0_19ExportSpecifierNodeE = comdat any

$_ZN6hermes6ESTree24RecursiveVisitorDispatchINS_25ES6ClassesTransformationsELb0EE13visitChildrenERS2_PNS0_28ExportNamespaceSpecifierNodeE = comdat any

$_ZN6hermes6ESTree24RecursiveVisitorDispatchINS_25ES6ClassesTransformationsELb0EE13visitChildrenERS2_PNS0_28ExportDefaultDeclarationNodeE = comdat any

$_ZN6hermes6ESTree24RecursiveVisitorDispatchINS_25ES6ClassesTransformationsELb0EE13visitChildrenERS2_PNS0_24ExportAllDeclarationNodeE = comdat any

$_ZN6hermes6ESTree24RecursiveVisitorDispatchINS_25ES6ClassesTransformationsELb0EE13visitChildrenERS2_PNS0_17ObjectPatternNodeE = comdat any

$_ZN6hermes6ESTree24RecursiveVisitorDispatchINS_25ES6ClassesTransformationsELb0EE13visitChildrenERS2_PNS0_16ArrayPatternNodeE = comdat any

$_ZN6hermes6ESTree24RecursiveVisitorDispatchINS_25ES6ClassesTransformationsELb0EE13visitChildrenERS2_PNS0_15RestElementNodeE = comdat any

$_ZN6hermes6ESTree24RecursiveVisitorDispatchINS_25ES6ClassesTransformationsELb0EE13visitChildrenERS2_PNS0_21AssignmentPatternNodeE = comdat any

$_ZN6hermes6ESTree24RecursiveVisitorDispatchINS_25ES6ClassesTransformationsELb0EE13visitChildrenERS2_PNS0_17JSXIdentifierNodeE = comdat any

$_ZN6hermes6ESTree24RecursiveVisitorDispatchINS_25ES6ClassesTransformationsELb0EE13visitChildrenERS2_PNS0_23JSXMemberExpressionNodeE = comdat any

$_ZN6hermes6ESTree24RecursiveVisitorDispatchINS_25ES6ClassesTransformationsELb0EE13visitChildrenERS2_PNS0_21JSXNamespacedNameNodeE = comdat any

$_ZN6hermes6ESTree24RecursiveVisitorDispatchINS_25ES6ClassesTransformationsELb0EE13visitChildrenERS2_PNS0_22JSXEmptyExpressionNodeE = comdat any

$_ZN6hermes6ESTree24RecursiveVisitorDispatchINS_25ES6ClassesTransformationsELb0EE13visitChildrenERS2_PNS0_26JSXExpressionContainerNodeE = comdat any

$_ZN6hermes6ESTree24RecursiveVisitorDispatchINS_25ES6ClassesTransformationsELb0EE13visitChildrenERS2_PNS0_18JSXSpreadChildNodeE = comdat any

$_ZN6hermes6ESTree24RecursiveVisitorDispatchINS_25ES6ClassesTransformationsELb0EE13visitChildrenERS2_PNS0_21JSXOpeningElementNodeE = comdat any

$_ZN6hermes6ESTree24RecursiveVisitorDispatchINS_25ES6ClassesTransformationsELb0EE13visitChildrenERS2_PNS0_21JSXClosingElementNodeE = comdat any

$_ZN6hermes6ESTree24RecursiveVisitorDispatchINS_25ES6ClassesTransformationsELb0EE13visitChildrenERS2_PNS0_16JSXAttributeNodeE = comdat any

$_ZN6hermes6ESTree24RecursiveVisitorDispatchINS_25ES6ClassesTransformationsELb0EE13visitChildrenERS2_PNS0_22JSXSpreadAttributeNodeE = comdat any

$_ZN6hermes6ESTree24RecursiveVisitorDispatchINS_25ES6ClassesTransformationsELb0EE13visitChildrenERS2_PNS0_20JSXStringLiteralNodeE = comdat any

$_ZN6hermes6ESTree24RecursiveVisitorDispatchINS_25ES6ClassesTransformationsELb0EE13visitChildrenERS2_PNS0_11JSXTextNodeE = comdat any

$_ZN6hermes6ESTree24RecursiveVisitorDispatchINS_25ES6ClassesTransformationsELb0EE13visitChildrenERS2_PNS0_14JSXElementNodeE = comdat any

$_ZN6hermes6ESTree24RecursiveVisitorDispatchINS_25ES6ClassesTransformationsELb0EE13visitChildrenERS2_PNS0_15JSXFragmentNodeE = comdat any

$_ZN6hermes6ESTree24RecursiveVisitorDispatchINS_25ES6ClassesTransformationsELb0EE13visitChildrenERS2_PNS0_22JSXOpeningFragmentNodeE = comdat any

$_ZN6hermes6ESTree24RecursiveVisitorDispatchINS_25ES6ClassesTransformationsELb0EE13visitChildrenERS2_PNS0_22JSXClosingFragmentNodeE = comdat any

$_ZN6hermes6ESTree24RecursiveVisitorDispatchINS_25ES6ClassesTransformationsELb0EE13visitChildrenERS2_PNS0_24ExistsTypeAnnotationNodeE = comdat any

$_ZN6hermes6ESTree24RecursiveVisitorDispatchINS_25ES6ClassesTransformationsELb0EE13visitChildrenERS2_PNS0_23EmptyTypeAnnotationNodeE = comdat any

$_ZN6hermes6ESTree24RecursiveVisitorDispatchINS_25ES6ClassesTransformationsELb0EE13visitChildrenERS2_PNS0_24StringTypeAnnotationNodeE = comdat any

$_ZN6hermes6ESTree24RecursiveVisitorDispatchINS_25ES6ClassesTransformationsELb0EE13visitChildrenERS2_PNS0_24NumberTypeAnnotationNodeE = comdat any

$_ZN6hermes6ESTree24RecursiveVisitorDispatchINS_25ES6ClassesTransformationsELb0EE13visitChildrenERS2_PNS0_31StringLiteralTypeAnnotationNodeE = comdat any

$_ZN6hermes6ESTree24RecursiveVisitorDispatchINS_25ES6ClassesTransformationsELb0EE13visitChildrenERS2_PNS0_31NumberLiteralTypeAnnotationNodeE = comdat any

$_ZN6hermes6ESTree24RecursiveVisitorDispatchINS_25ES6ClassesTransformationsELb0EE13visitChildrenERS2_PNS0_31BigIntLiteralTypeAnnotationNodeE = comdat any

$_ZN6hermes6ESTree24RecursiveVisitorDispatchINS_25ES6ClassesTransformationsELb0EE13visitChildrenERS2_PNS0_25BooleanTypeAnnotationNodeE = comdat any

$_ZN6hermes6ESTree24RecursiveVisitorDispatchINS_25ES6ClassesTransformationsELb0EE13visitChildrenERS2_PNS0_32BooleanLiteralTypeAnnotationNodeE = comdat any

$_ZN6hermes6ESTree24RecursiveVisitorDispatchINS_25ES6ClassesTransformationsELb0EE13visitChildrenERS2_PNS0_29NullLiteralTypeAnnotationNodeE = comdat any

$_ZN6hermes6ESTree24RecursiveVisitorDispatchINS_25ES6ClassesTransformationsELb0EE13visitChildrenERS2_PNS0_24SymbolTypeAnnotationNodeE = comdat any

$_ZN6hermes6ESTree24RecursiveVisitorDispatchINS_25ES6ClassesTransformationsELb0EE13visitChildrenERS2_PNS0_21AnyTypeAnnotationNodeE = comdat any

$_ZN6hermes6ESTree24RecursiveVisitorDispatchINS_25ES6ClassesTransformationsELb0EE13visitChildrenERS2_PNS0_23MixedTypeAnnotationNodeE = comdat any

$_ZN6hermes6ESTree24RecursiveVisitorDispatchINS_25ES6ClassesTransformationsELb0EE13visitChildrenERS2_PNS0_24BigIntTypeAnnotationNodeE = comdat any

$_ZN6hermes6ESTree24RecursiveVisitorDispatchINS_25ES6ClassesTransformationsELb0EE13visitChildrenERS2_PNS0_22VoidTypeAnnotationNodeE = comdat any

$_ZN6hermes6ESTree24RecursiveVisitorDispatchINS_25ES6ClassesTransformationsELb0EE13visitChildrenERS2_PNS0_26FunctionTypeAnnotationNodeE = comdat any

$_ZN6hermes6ESTree24RecursiveVisitorDispatchINS_25ES6ClassesTransformationsELb0EE13visitChildrenERS2_PNS0_21FunctionTypeParamNodeE = comdat any

$_ZN6hermes6ESTree24RecursiveVisitorDispatchINS_25ES6ClassesTransformationsELb0EE13visitChildrenERS2_PNS0_27ComponentTypeAnnotationNodeE = comdat any

$_ZN6hermes6ESTree24RecursiveVisitorDispatchINS_25ES6ClassesTransformationsELb0EE13visitChildrenERS2_PNS0_26ComponentTypeParameterNodeE = comdat any

$_ZN6hermes6ESTree24RecursiveVisitorDispatchINS_25ES6ClassesTransformationsELb0EE13visitChildrenERS2_PNS0_26NullableTypeAnnotationNodeE = comdat any

$_ZN6hermes6ESTree24RecursiveVisitorDispatchINS_25ES6ClassesTransformationsELb0EE13visitChildrenERS2_PNS0_27QualifiedTypeIdentifierNodeE = comdat any

$_ZN6hermes6ESTree24RecursiveVisitorDispatchINS_25ES6ClassesTransformationsELb0EE13visitChildrenERS2_PNS0_24TypeofTypeAnnotationNodeE = comdat any

$_ZN6hermes6ESTree24RecursiveVisitorDispatchINS_25ES6ClassesTransformationsELb0EE13visitChildrenERS2_PNS0_23KeyofTypeAnnotationNodeE = comdat any

$_ZN6hermes6ESTree24RecursiveVisitorDispatchINS_25ES6ClassesTransformationsELb0EE13visitChildrenERS2_PNS0_16TypeOperatorNodeE = comdat any

$_ZN6hermes6ESTree24RecursiveVisitorDispatchINS_25ES6ClassesTransformationsELb0EE13visitChildrenERS2_PNS0_29QualifiedTypeofIdentifierNodeE = comdat any

$_ZN6hermes6ESTree24RecursiveVisitorDispatchINS_25ES6ClassesTransformationsELb0EE13visitChildrenERS2_PNS0_23TupleTypeAnnotationNodeE = comdat any

$_ZN6hermes6ESTree24RecursiveVisitorDispatchINS_25ES6ClassesTransformationsELb0EE13visitChildrenERS2_PNS0_26TupleTypeSpreadElementNodeE = comdat any

$_ZN6hermes6ESTree24RecursiveVisitorDispatchINS_25ES6ClassesTransformationsELb0EE13visitChildrenERS2_PNS0_27TupleTypeLabeledElementNodeE = comdat any

$_ZN6hermes6ESTree24RecursiveVisitorDispatchINS_25ES6ClassesTransformationsELb0EE13visitChildrenERS2_PNS0_23ArrayTypeAnnotationNodeE = comdat any

$_ZN6hermes6ESTree24RecursiveVisitorDispatchINS_25ES6ClassesTransformationsELb0EE13visitChildrenERS2_PNS0_23InferTypeAnnotationNodeE = comdat any

$_ZN6hermes6ESTree24RecursiveVisitorDispatchINS_25ES6ClassesTransformationsELb0EE13visitChildrenERS2_PNS0_23UnionTypeAnnotationNodeE = comdat any

$_ZN6hermes6ESTree24RecursiveVisitorDispatchINS_25ES6ClassesTransformationsELb0EE13visitChildrenERS2_PNS0_30IntersectionTypeAnnotationNodeE = comdat any

$_ZN6hermes6ESTree24RecursiveVisitorDispatchINS_25ES6ClassesTransformationsELb0EE13visitChildrenERS2_PNS0_25GenericTypeAnnotationNodeE = comdat any

$_ZN6hermes6ESTree24RecursiveVisitorDispatchINS_25ES6ClassesTransformationsELb0EE13visitChildrenERS2_PNS0_21IndexedAccessTypeNodeE = comdat any

$_ZN6hermes6ESTree24RecursiveVisitorDispatchINS_25ES6ClassesTransformationsELb0EE13visitChildrenERS2_PNS0_29OptionalIndexedAccessTypeNodeE = comdat any

$_ZN6hermes6ESTree24RecursiveVisitorDispatchINS_25ES6ClassesTransformationsELb0EE13visitChildrenERS2_PNS0_29ConditionalTypeAnnotationNodeE = comdat any

$_ZN6hermes6ESTree24RecursiveVisitorDispatchINS_25ES6ClassesTransformationsELb0EE13visitChildrenERS2_PNS0_17TypePredicateNodeE = comdat any

$_ZN6hermes6ESTree24RecursiveVisitorDispatchINS_25ES6ClassesTransformationsELb0EE13visitChildrenERS2_PNS0_27InterfaceTypeAnnotationNodeE = comdat any

$_ZN6hermes6ESTree24RecursiveVisitorDispatchINS_25ES6ClassesTransformationsELb0EE13visitChildrenERS2_PNS0_13TypeAliasNodeE = comdat any

$_ZN6hermes6ESTree24RecursiveVisitorDispatchINS_25ES6ClassesTransformationsELb0EE13visitChildrenERS2_PNS0_14OpaqueTypeNodeE = comdat any

$_ZN6hermes6ESTree24RecursiveVisitorDispatchINS_25ES6ClassesTransformationsELb0EE13visitChildrenERS2_PNS0_24InterfaceDeclarationNodeE = comdat any

$_ZN6hermes6ESTree24RecursiveVisitorDispatchINS_25ES6ClassesTransformationsELb0EE13visitChildrenERS2_PNS0_20DeclareTypeAliasNodeE = comdat any

$_ZN6hermes6ESTree24RecursiveVisitorDispatchINS_25ES6ClassesTransformationsELb0EE13visitChildrenERS2_PNS0_21DeclareOpaqueTypeNodeE = comdat any

$_ZN6hermes6ESTree24RecursiveVisitorDispatchINS_25ES6ClassesTransformationsELb0EE13visitChildrenERS2_PNS0_20DeclareInterfaceNodeE = comdat any

$_ZN6hermes6ESTree24RecursiveVisitorDispatchINS_25ES6ClassesTransformationsELb0EE13visitChildrenERS2_PNS0_16DeclareClassNodeE = comdat any

$_ZN6hermes6ESTree24RecursiveVisitorDispatchINS_25ES6ClassesTransformationsELb0EE13visitChildrenERS2_PNS0_19DeclareFunctionNodeE = comdat any

$_ZN6hermes6ESTree24RecursiveVisitorDispatchINS_25ES6ClassesTransformationsELb0EE13visitChildrenERS2_PNS0_20DeclareComponentNodeE = comdat any

$_ZN6hermes6ESTree24RecursiveVisitorDispatchINS_25ES6ClassesTransformationsELb0EE13visitChildrenERS2_PNS0_19DeclareVariableNodeE = comdat any

$_ZN6hermes6ESTree24RecursiveVisitorDispatchINS_25ES6ClassesTransformationsELb0EE13visitChildrenERS2_PNS0_15DeclareEnumNodeE = comdat any

$_ZN6hermes6ESTree24RecursiveVisitorDispatchINS_25ES6ClassesTransformationsELb0EE13visitChildrenERS2_PNS0_28DeclareExportDeclarationNodeE = comdat any

$_ZN6hermes6ESTree24RecursiveVisitorDispatchINS_25ES6ClassesTransformationsELb0EE13visitChildrenERS2_PNS0_31DeclareExportAllDeclarationNodeE = comdat any

$_ZN6hermes6ESTree24RecursiveVisitorDispatchINS_25ES6ClassesTransformationsELb0EE13visitChildrenERS2_PNS0_17DeclareModuleNodeE = comdat any

$_ZN6hermes6ESTree24RecursiveVisitorDispatchINS_25ES6ClassesTransformationsELb0EE13visitChildrenERS2_PNS0_24DeclareModuleExportsNodeE = comdat any

$_ZN6hermes6ESTree24RecursiveVisitorDispatchINS_25ES6ClassesTransformationsELb0EE13visitChildrenERS2_PNS0_20InterfaceExtendsNodeE = comdat any

$_ZN6hermes6ESTree24RecursiveVisitorDispatchINS_25ES6ClassesTransformationsELb0EE13visitChildrenERS2_PNS0_19ClassImplementsNodeE = comdat any

$_ZN6hermes6ESTree24RecursiveVisitorDispatchINS_25ES6ClassesTransformationsELb0EE13visitChildrenERS2_PNS0_18TypeAnnotationNodeE = comdat any

$_ZN6hermes6ESTree24RecursiveVisitorDispatchINS_25ES6ClassesTransformationsELb0EE13visitChildrenERS2_PNS0_24ObjectTypeAnnotationNodeE = comdat any

$_ZN6hermes6ESTree24RecursiveVisitorDispatchINS_25ES6ClassesTransformationsELb0EE13visitChildrenERS2_PNS0_22ObjectTypePropertyNodeE = comdat any

$_ZN6hermes6ESTree24RecursiveVisitorDispatchINS_25ES6ClassesTransformationsELb0EE13visitChildrenERS2_PNS0_28ObjectTypeSpreadPropertyNodeE = comdat any

$_ZN6hermes6ESTree24RecursiveVisitorDispatchINS_25ES6ClassesTransformationsELb0EE13visitChildrenERS2_PNS0_26ObjectTypeInternalSlotNodeE = comdat any

$_ZN6hermes6ESTree24RecursiveVisitorDispatchINS_25ES6ClassesTransformationsELb0EE13visitChildrenERS2_PNS0_26ObjectTypeCallPropertyNodeE = comdat any

$_ZN6hermes6ESTree24RecursiveVisitorDispatchINS_25ES6ClassesTransformationsELb0EE13visitChildrenERS2_PNS0_21ObjectTypeIndexerNodeE = comdat any

$_ZN6hermes6ESTree24RecursiveVisitorDispatchINS_25ES6ClassesTransformationsELb0EE13visitChildrenERS2_PNS0_32ObjectTypeMappedTypePropertyNodeE = comdat any

$_ZN6hermes6ESTree24RecursiveVisitorDispatchINS_25ES6ClassesTransformationsELb0EE13visitChildrenERS2_PNS0_12VarianceNodeE = comdat any

$_ZN6hermes6ESTree24RecursiveVisitorDispatchINS_25ES6ClassesTransformationsELb0EE13visitChildrenERS2_PNS0_28TypeParameterDeclarationNodeE = comdat any

$_ZN6hermes6ESTree24RecursiveVisitorDispatchINS_25ES6ClassesTransformationsELb0EE13visitChildrenERS2_PNS0_17TypeParameterNodeE = comdat any

$_ZN6hermes6ESTree24RecursiveVisitorDispatchINS_25ES6ClassesTransformationsELb0EE13visitChildrenERS2_PNS0_30TypeParameterInstantiationNodeE = comdat any

$_ZN6hermes6ESTree24RecursiveVisitorDispatchINS_25ES6ClassesTransformationsELb0EE13visitChildrenERS2_PNS0_22TypeCastExpressionNodeE = comdat any

$_ZN6hermes6ESTree24RecursiveVisitorDispatchINS_25ES6ClassesTransformationsELb0EE13visitChildrenERS2_PNS0_16AsExpressionNodeE = comdat any

$_ZN6hermes6ESTree24RecursiveVisitorDispatchINS_25ES6ClassesTransformationsELb0EE13visitChildrenERS2_PNS0_21InferredPredicateNodeE = comdat any

$_ZN6hermes6ESTree24RecursiveVisitorDispatchINS_25ES6ClassesTransformationsELb0EE13visitChildrenERS2_PNS0_21DeclaredPredicateNodeE = comdat any

$_ZN6hermes6ESTree24RecursiveVisitorDispatchINS_25ES6ClassesTransformationsELb0EE13visitChildrenERS2_PNS0_19EnumDeclarationNodeE = comdat any

$_ZN6hermes6ESTree24RecursiveVisitorDispatchINS_25ES6ClassesTransformationsELb0EE13visitChildrenERS2_PNS0_18EnumStringBodyNodeE = comdat any

$_ZN6hermes6ESTree24RecursiveVisitorDispatchINS_25ES6ClassesTransformationsELb0EE13visitChildrenERS2_PNS0_18EnumNumberBodyNodeE = comdat any

$_ZN6hermes6ESTree24RecursiveVisitorDispatchINS_25ES6ClassesTransformationsELb0EE13visitChildrenERS2_PNS0_19EnumBooleanBodyNodeE = comdat any

$_ZN6hermes6ESTree24RecursiveVisitorDispatchINS_25ES6ClassesTransformationsELb0EE13visitChildrenERS2_PNS0_18EnumSymbolBodyNodeE = comdat any

$_ZN6hermes6ESTree24RecursiveVisitorDispatchINS_25ES6ClassesTransformationsELb0EE13visitChildrenERS2_PNS0_23EnumDefaultedMemberNodeE = comdat any

$_ZN6hermes6ESTree24RecursiveVisitorDispatchINS_25ES6ClassesTransformationsELb0EE13visitChildrenERS2_PNS0_20EnumStringMemberNodeE = comdat any

$_ZN6hermes6ESTree24RecursiveVisitorDispatchINS_25ES6ClassesTransformationsELb0EE13visitChildrenERS2_PNS0_20EnumNumberMemberNodeE = comdat any

$_ZN6hermes6ESTree24RecursiveVisitorDispatchINS_25ES6ClassesTransformationsELb0EE13visitChildrenERS2_PNS0_21EnumBooleanMemberNodeE = comdat any

$_ZN6hermes6ESTree24RecursiveVisitorDispatchINS_25ES6ClassesTransformationsELb0EE13visitChildrenERS2_PNS0_22ComponentParameterNodeE = comdat any

$_ZN6hermes6ESTree24RecursiveVisitorDispatchINS_25ES6ClassesTransformationsELb0EE13visitChildrenERS2_PNS0_20TSTypeAnnotationNodeE = comdat any

$_ZN6hermes6ESTree24RecursiveVisitorDispatchINS_25ES6ClassesTransformationsELb0EE13visitChildrenERS2_PNS0_16TSAnyKeywordNodeE = comdat any

$_ZN6hermes6ESTree24RecursiveVisitorDispatchINS_25ES6ClassesTransformationsELb0EE13visitChildrenERS2_PNS0_19TSNumberKeywordNodeE = comdat any

$_ZN6hermes6ESTree24RecursiveVisitorDispatchINS_25ES6ClassesTransformationsELb0EE13visitChildrenERS2_PNS0_20TSBooleanKeywordNodeE = comdat any

$_ZN6hermes6ESTree24RecursiveVisitorDispatchINS_25ES6ClassesTransformationsELb0EE13visitChildrenERS2_PNS0_19TSStringKeywordNodeE = comdat any

$_ZN6hermes6ESTree24RecursiveVisitorDispatchINS_25ES6ClassesTransformationsELb0EE13visitChildrenERS2_PNS0_19TSSymbolKeywordNodeE = comdat any

$_ZN6hermes6ESTree24RecursiveVisitorDispatchINS_25ES6ClassesTransformationsELb0EE13visitChildrenERS2_PNS0_17TSVoidKeywordNodeE = comdat any

$_ZN6hermes6ESTree24RecursiveVisitorDispatchINS_25ES6ClassesTransformationsELb0EE13visitChildrenERS2_PNS0_22TSUndefinedKeywordNodeE = comdat any

$_ZN6hermes6ESTree24RecursiveVisitorDispatchINS_25ES6ClassesTransformationsELb0EE13visitChildrenERS2_PNS0_20TSUnknownKeywordNodeE = comdat any

$_ZN6hermes6ESTree24RecursiveVisitorDispatchINS_25ES6ClassesTransformationsELb0EE13visitChildrenERS2_PNS0_18TSNeverKeywordNodeE = comdat any

$_ZN6hermes6ESTree24RecursiveVisitorDispatchINS_25ES6ClassesTransformationsELb0EE13visitChildrenERS2_PNS0_19TSBigIntKeywordNodeE = comdat any

$_ZN6hermes6ESTree24RecursiveVisitorDispatchINS_25ES6ClassesTransformationsELb0EE13visitChildrenERS2_PNS0_14TSThisTypeNodeE = comdat any

$_ZN6hermes6ESTree24RecursiveVisitorDispatchINS_25ES6ClassesTransformationsELb0EE13visitChildrenERS2_PNS0_17TSLiteralTypeNodeE = comdat any

$_ZN6hermes6ESTree24RecursiveVisitorDispatchINS_25ES6ClassesTransformationsELb0EE13visitChildrenERS2_PNS0_23TSIndexedAccessTypeNodeE = comdat any

$_ZN6hermes6ESTree24RecursiveVisitorDispatchINS_25ES6ClassesTransformationsELb0EE13visitChildrenERS2_PNS0_15TSArrayTypeNodeE = comdat any

$_ZN6hermes6ESTree24RecursiveVisitorDispatchINS_25ES6ClassesTransformationsELb0EE13visitChildrenERS2_PNS0_19TSTypeReferenceNodeE = comdat any

$_ZN6hermes6ESTree24RecursiveVisitorDispatchINS_25ES6ClassesTransformationsELb0EE13visitChildrenERS2_PNS0_19TSQualifiedNameNodeE = comdat any

$_ZN6hermes6ESTree24RecursiveVisitorDispatchINS_25ES6ClassesTransformationsELb0EE13visitChildrenERS2_PNS0_18TSFunctionTypeNodeE = comdat any

$_ZN6hermes6ESTree24RecursiveVisitorDispatchINS_25ES6ClassesTransformationsELb0EE13visitChildrenERS2_PNS0_21TSConstructorTypeNodeE = comdat any

$_ZN6hermes6ESTree24RecursiveVisitorDispatchINS_25ES6ClassesTransformationsELb0EE13visitChildrenERS2_PNS0_19TSTypePredicateNodeE = comdat any

$_ZN6hermes6ESTree24RecursiveVisitorDispatchINS_25ES6ClassesTransformationsELb0EE13visitChildrenERS2_PNS0_15TSTupleTypeNodeE = comdat any

$_ZN6hermes6ESTree24RecursiveVisitorDispatchINS_25ES6ClassesTransformationsELb0EE13visitChildrenERS2_PNS0_19TSTypeAssertionNodeE = comdat any

$_ZN6hermes6ESTree24RecursiveVisitorDispatchINS_25ES6ClassesTransformationsELb0EE13visitChildrenERS2_PNS0_18TSAsExpressionNodeE = comdat any

$_ZN6hermes6ESTree24RecursiveVisitorDispatchINS_25ES6ClassesTransformationsELb0EE13visitChildrenERS2_PNS0_23TSParameterPropertyNodeE = comdat any

$_ZN6hermes6ESTree24RecursiveVisitorDispatchINS_25ES6ClassesTransformationsELb0EE13visitChildrenERS2_PNS0_26TSTypeAliasDeclarationNodeE = comdat any

$_ZN6hermes6ESTree24RecursiveVisitorDispatchINS_25ES6ClassesTransformationsELb0EE13visitChildrenERS2_PNS0_26TSInterfaceDeclarationNodeE = comdat any

$_ZN6hermes6ESTree24RecursiveVisitorDispatchINS_25ES6ClassesTransformationsELb0EE13visitChildrenERS2_PNS0_23TSInterfaceHeritageNodeE = comdat any

$_ZN6hermes6ESTree24RecursiveVisitorDispatchINS_25ES6ClassesTransformationsELb0EE13visitChildrenERS2_PNS0_19TSInterfaceBodyNodeE = comdat any

$_ZN6hermes6ESTree24RecursiveVisitorDispatchINS_25ES6ClassesTransformationsELb0EE13visitChildrenERS2_PNS0_21TSEnumDeclarationNodeE = comdat any

$_ZN6hermes6ESTree24RecursiveVisitorDispatchINS_25ES6ClassesTransformationsELb0EE13visitChildrenERS2_PNS0_16TSEnumMemberNodeE = comdat any

$_ZN6hermes6ESTree24RecursiveVisitorDispatchINS_25ES6ClassesTransformationsELb0EE13visitChildrenERS2_PNS0_23TSModuleDeclarationNodeE = comdat any

$_ZN6hermes6ESTree24RecursiveVisitorDispatchINS_25ES6ClassesTransformationsELb0EE13visitChildrenERS2_PNS0_17TSModuleBlockNodeE = comdat any

$_ZN6hermes6ESTree24RecursiveVisitorDispatchINS_25ES6ClassesTransformationsELb0EE13visitChildrenERS2_PNS0_18TSModuleMemberNodeE = comdat any

$_ZN6hermes6ESTree24RecursiveVisitorDispatchINS_25ES6ClassesTransformationsELb0EE13visitChildrenERS2_PNS0_30TSTypeParameterDeclarationNodeE = comdat any

$_ZN6hermes6ESTree24RecursiveVisitorDispatchINS_25ES6ClassesTransformationsELb0EE13visitChildrenERS2_PNS0_19TSTypeParameterNodeE = comdat any

$_ZN6hermes6ESTree24RecursiveVisitorDispatchINS_25ES6ClassesTransformationsELb0EE13visitChildrenERS2_PNS0_32TSTypeParameterInstantiationNodeE = comdat any

$_ZN6hermes6ESTree24RecursiveVisitorDispatchINS_25ES6ClassesTransformationsELb0EE13visitChildrenERS2_PNS0_15TSUnionTypeNodeE = comdat any

$_ZN6hermes6ESTree24RecursiveVisitorDispatchINS_25ES6ClassesTransformationsELb0EE13visitChildrenERS2_PNS0_22TSIntersectionTypeNodeE = comdat any

$_ZN6hermes6ESTree24RecursiveVisitorDispatchINS_25ES6ClassesTransformationsELb0EE13visitChildrenERS2_PNS0_15TSTypeQueryNodeE = comdat any

$_ZN6hermes6ESTree24RecursiveVisitorDispatchINS_25ES6ClassesTransformationsELb0EE13visitChildrenERS2_PNS0_21TSConditionalTypeNodeE = comdat any

$_ZN6hermes6ESTree24RecursiveVisitorDispatchINS_25ES6ClassesTransformationsELb0EE13visitChildrenERS2_PNS0_17TSTypeLiteralNodeE = comdat any

$_ZN6hermes6ESTree24RecursiveVisitorDispatchINS_25ES6ClassesTransformationsELb0EE13visitChildrenERS2_PNS0_23TSPropertySignatureNodeE = comdat any

$_ZN6hermes6ESTree24RecursiveVisitorDispatchINS_25ES6ClassesTransformationsELb0EE13visitChildrenERS2_PNS0_21TSMethodSignatureNodeE = comdat any

$_ZN6hermes6ESTree24RecursiveVisitorDispatchINS_25ES6ClassesTransformationsELb0EE13visitChildrenERS2_PNS0_20TSIndexSignatureNodeE = comdat any

$_ZN6hermes6ESTree24RecursiveVisitorDispatchINS_25ES6ClassesTransformationsELb0EE13visitChildrenERS2_PNS0_30TSCallSignatureDeclarationNodeE = comdat any

$_ZN6hermes6ESTree24RecursiveVisitorDispatchINS_25ES6ClassesTransformationsELb0EE13visitChildrenERS2_PNS0_15TSModifiersNodeE = comdat any

$_ZN6hermes6ESTree24RecursiveVisitorDispatchINS_25ES6ClassesTransformationsELb0EE13visitChildrenERS2_PNS0_18CoverEmptyArgsNodeE = comdat any

$_ZN6hermes6ESTree24RecursiveVisitorDispatchINS_25ES6ClassesTransformationsELb0EE13visitChildrenERS2_PNS0_22CoverTrailingCommaNodeE = comdat any

$_ZN6hermes6ESTree24RecursiveVisitorDispatchINS_25ES6ClassesTransformationsELb0EE13visitChildrenERS2_PNS0_20CoverInitializerNodeE = comdat any

$_ZN6hermes6ESTree24RecursiveVisitorDispatchINS_25ES6ClassesTransformationsELb0EE13visitChildrenERS2_PNS0_20CoverRestElementNodeE = comdat any

$_ZN6hermes6ESTree24RecursiveVisitorDispatchINS_25ES6ClassesTransformationsELb0EE13visitChildrenERS2_PNS0_24CoverTypedIdentifierNodeE = comdat any

$_ZN6hermes6ESTree24RecursiveVisitorDispatchINS_25ES6ClassesTransformationsELb0EE9postVisitEPN4llvh12simple_ilistINS0_4NodeEJEEENS0_11UnmodifiedTE = comdat any

$_ZN6hermes6ESTree24RecursiveVisitorDispatchINS_25ES6ClassesTransformationsELb0EE5visitERS2_RN4llvh12simple_ilistINS0_4NodeEJEEEPS7_ = comdat any

$_ZN4llvh12simple_ilistIN6hermes6ESTree4NodeEJEE5beginEv = comdat any

$_ZN4llvh12simple_ilistIN6hermes6ESTree4NodeEJEE3endEv = comdat any

$_ZN4llvhneERKNS_14ilist_iteratorINS_12ilist_detail12node_optionsIN6hermes6ESTree4NodeELb0ELb0EvEELb0ELb0EEES9_ = comdat any

$_ZN4llvh14ilist_iteratorINS_12ilist_detail12node_optionsIN6hermes6ESTree4NodeELb0ELb0EvEELb0ELb0EEppEi = comdat any

$_ZN4llvh12simple_ilistIN6hermes6ESTree4NodeEJEE5eraseENS_14ilist_iteratorINS_12ilist_detail12node_optionsIS3_Lb0ELb0EvEELb0ELb0EEE = comdat any

$_ZNK4llvh14ilist_iteratorINS_12ilist_detail12node_optionsIN6hermes6ESTree4NodeELb0ELb0EvEELb0ELb0EEdeEv = comdat any

$_ZSt17holds_alternativeIPN6hermes6ESTree4NodeEJNS1_11UnmodifiedTENS1_8RemovedTES3_EEbRKSt7variantIJDpT0_EE = comdat any

$_ZN4llvh12simple_ilistIN6hermes6ESTree4NodeEJEE6insertENS_14ilist_iteratorINS_12ilist_detail12node_optionsIS3_Lb0ELb0EvEELb0ELb0EEERS3_ = comdat any

$_ZSt3getIPN6hermes6ESTree4NodeEJNS1_11UnmodifiedTENS1_8RemovedTES3_EERT_RSt7variantIJDpT0_EE = comdat any

$_ZSt17holds_alternativeIN6hermes6ESTree11UnmodifiedTEJS2_NS1_8RemovedTEPNS1_4NodeEEEbRKSt7variantIJDpT0_EE = comdat any

$_ZN4llvh14ilist_iteratorINS_12ilist_detail12node_optionsIN6hermes6ESTree4NodeELb0ELb0EvEELb0ELb0EEC2ERNS_15ilist_node_implIS6_EE = comdat any

$_ZN4llvh14ilist_iteratorINS_12ilist_detail12node_optionsIN6hermes6ESTree4NodeELb0ELb0EvEELb0ELb0EEppEv = comdat any

$_ZN4llvh15ilist_node_implINS_12ilist_detail12node_optionsIN6hermes6ESTree4NodeELb0ELb0EvEEE7getNextEv = comdat any

$_ZNK4llvh15ilist_node_baseILb0EE7getNextEv = comdat any

$_ZN4llvh12simple_ilistIN6hermes6ESTree4NodeEJEE6removeERS3_ = comdat any

$_ZN4llvh10ilist_baseILb0EE6removeINS_15ilist_node_implINS_12ilist_detail12node_optionsIN6hermes6ESTree4NodeELb0ELb0EvEEEEEEvRT_ = comdat any

$_ZN4llvh12ilist_detail18SpecificNodeAccessINS0_12node_optionsIN6hermes6ESTree4NodeELb0ELb0EvEEE10getNodePtrEPS5_ = comdat any

$_ZN4llvh10ilist_baseILb0EE10removeImplERNS_15ilist_node_baseILb0EEE = comdat any

$_ZNK4llvh15ilist_node_baseILb0EE7getPrevEv = comdat any

$_ZN4llvh15ilist_node_baseILb0EE7setPrevEPS1_ = comdat any

$_ZN4llvh15ilist_node_baseILb0EE7setNextEPS1_ = comdat any

$_ZN4llvh12ilist_detail10NodeAccess10getNodePtrINS0_12node_optionsIN6hermes6ESTree4NodeELb0ELb0EvEEEEPNS_15ilist_node_implIT_EENS9_7pointerE = comdat any

$_ZN4llvh12ilist_detail18SpecificNodeAccessINS0_12node_optionsIN6hermes6ESTree4NodeELb0ELb0EvEEE11getValuePtrEPNS_15ilist_node_implIS6_EE = comdat any

$_ZN4llvh12ilist_detail10NodeAccess11getValuePtrINS0_12node_optionsIN6hermes6ESTree4NodeELb0ELb0EvEEEENT_7pointerEPNS_15ilist_node_implIS8_EE = comdat any

$_ZNKSt7variantIJN6hermes6ESTree11UnmodifiedTENS1_8RemovedTEPNS1_4NodeEEE5indexEv = comdat any

$_ZSt24__find_uniq_type_in_packIPN6hermes6ESTree4NodeEJNS1_11UnmodifiedTENS1_8RemovedTES3_EEmv = comdat any

$_ZN4llvh10ilist_baseILb0EE12insertBeforeINS_15ilist_node_implINS_12ilist_detail12node_optionsIN6hermes6ESTree4NodeELb0ELb0EvEEEEEEvRT_SC_ = comdat any

$_ZNK4llvh14ilist_iteratorINS_12ilist_detail12node_optionsIN6hermes6ESTree4NodeELb0ELb0EvEELb0ELb0EE10getNodePtrEv = comdat any

$_ZN4llvh14ilist_iteratorINS_12ilist_detail12node_optionsIN6hermes6ESTree4NodeELb0ELb0EvEELb0ELb0EEC2EPS5_ = comdat any

$_ZN4llvh10ilist_baseILb0EE16insertBeforeImplERNS_15ilist_node_baseILb0EEES4_ = comdat any

$_ZSt3getILm2EJN6hermes6ESTree11UnmodifiedTENS1_8RemovedTEPNS1_4NodeEEERNSt19variant_alternativeIXT_ESt7variantIJDpT0_EEE4typeERSA_ = comdat any

$_ZSt26__throw_bad_variant_accessb = comdat any

$_ZNKSt7variantIJN6hermes6ESTree11UnmodifiedTENS1_8RemovedTEPNS1_4NodeEEE22valueless_by_exceptionEv = comdat any

$_ZNSt8__detail9__variant5__getILm2ERSt7variantIJN6hermes6ESTree11UnmodifiedTENS4_8RemovedTEPNS4_4NodeEEEEEDcOT0_ = comdat any

$_ZSt26__throw_bad_variant_accessPKc = comdat any

$_ZNKSt8__detail9__variant16_Variant_storageILb1EJN6hermes6ESTree11UnmodifiedTENS3_8RemovedTEPNS3_4NodeEEE8_M_validEv = comdat any

$_ZNSt8__detail9__variant7__get_nILm2ERNS0_15_Variadic_unionIJN6hermes6ESTree11UnmodifiedTENS4_8RemovedTEPNS4_4NodeEEEEEEDcOT0_ = comdat any

$_ZNRSt8__detail9__variant14_UninitializedIPN6hermes6ESTree4NodeELb1EE6_M_getEv = comdat any

$_ZSt24__find_uniq_type_in_packIN6hermes6ESTree11UnmodifiedTEJS2_NS1_8RemovedTEPNS1_4NodeEEEmv = comdat any

$_ZN6hermes6ESTree24RecursiveVisitorDispatchINS_25ES6ClassesTransformationsELb0EE9postVisitEPPNS0_4NodeESt7variantIJNS0_11UnmodifiedTENS0_8RemovedTES5_EE = comdat any

$_ZN6hermes6ESTree24RecursiveVisitorDispatchINS_25ES6ClassesTransformationsELb0EE9postVisitEPbNS0_11UnmodifiedTE = comdat any

$_ZN6hermes6ESTree24RecursiveVisitorDispatchINS_25ES6ClassesTransformationsELb0EE5visitERS2_bPNS0_4NodeE = comdat any

$_ZSt17holds_alternativeIN6hermes6ESTree8RemovedTEJNS1_11UnmodifiedTES2_PNS1_4NodeEEEbRKSt7variantIJDpT0_EE = comdat any

$_ZSt24__find_uniq_type_in_packIN6hermes6ESTree8RemovedTEJNS1_11UnmodifiedTES2_PNS1_4NodeEEEmv = comdat any

$_ZN6hermes6ESTree24RecursiveVisitorDispatchINS_25ES6ClassesTransformationsELb0EE9postVisitEPPNS_12UniqueStringENS0_11UnmodifiedTE = comdat any

$_ZN6hermes6ESTree24RecursiveVisitorDispatchINS_25ES6ClassesTransformationsELb0EE5visitERS2_PNS_12UniqueStringEPNS0_4NodeE = comdat any

$_ZN6hermes6ESTree24RecursiveVisitorDispatchINS_25ES6ClassesTransformationsELb0EE9postVisitEPdNS0_11UnmodifiedTE = comdat any

$_ZN6hermes6ESTree24RecursiveVisitorDispatchINS_25ES6ClassesTransformationsELb0EE5visitERS2_RdPNS0_4NodeE = comdat any

$_ZN4llvh16cast_convert_valIN6hermes6ESTree9EmptyNodeEPNS2_4NodeES5_E4doitERKS5_ = comdat any

$_ZSt3getILm0EJN6hermes6ESTree11UnmodifiedTENS1_8RemovedTEPNS1_4NodeEEERNSt19variant_alternativeIXT_ESt7variantIJDpT0_EEE4typeERSA_ = comdat any

$_ZNSt7variantIJN6hermes6ESTree11UnmodifiedTENS1_8RemovedTEPNS1_4NodeEEE7emplaceILm0EJS2_EEENSt9enable_ifIX18is_constructible_vINSt9_Nth_typeIXT_EJS2_S3_S5_EE4typeEDpT0_EERSB_E4typeEDpOSC_ = comdat any

$_ZNSt8__detail9__variant5__getILm0ERSt7variantIJN6hermes6ESTree11UnmodifiedTENS4_8RemovedTEPNS4_4NodeEEEEEDcOT0_ = comdat any

$_ZNSt8__detail9__variant7__get_nILm0ERNS0_15_Variadic_unionIJN6hermes6ESTree11UnmodifiedTENS4_8RemovedTEPNS4_4NodeEEEEEEDcOT0_ = comdat any

$_ZNRSt8__detail9__variant14_UninitializedIN6hermes6ESTree11UnmodifiedTELb1EE6_M_getEv = comdat any

$_ZNSt8__detail9__variant9__emplaceILm0ELb1EJN6hermes6ESTree11UnmodifiedTENS3_8RemovedTEPNS3_4NodeEEJS4_EEEvRNS0_16_Variant_storageIXT0_EJDpT1_EEEDpOT2_ = comdat any

$_ZNSt8__detail9__variant16_Variant_storageILb1EJN6hermes6ESTree11UnmodifiedTENS3_8RemovedTEPNS3_4NodeEEE8_M_resetEv = comdat any

$_ZSt10_ConstructIN6hermes6ESTree11UnmodifiedTEJS2_EEvPT_DpOT0_ = comdat any

$_ZN4llvh16cast_convert_valIN6hermes6ESTree12MetadataNodeEPNS2_4NodeES5_E4doitERKS5_ = comdat any

$_ZN4llvh16cast_convert_valIN6hermes6ESTree11ProgramNodeEPNS2_4NodeES5_E4doitERKS5_ = comdat any

$_ZN4llvh16cast_convert_valIN6hermes6ESTree22FunctionExpressionNodeEPNS2_4NodeES5_E4doitERKS5_ = comdat any

$_ZN4llvh16cast_convert_valIN6hermes6ESTree27ArrowFunctionExpressionNodeEPNS2_4NodeES5_E4doitERKS5_ = comdat any

$_ZN4llvh16cast_convert_valIN6hermes6ESTree23FunctionDeclarationNodeEPNS2_4NodeES5_E4doitERKS5_ = comdat any

$_ZN4llvh16cast_convert_valIN6hermes6ESTree24ComponentDeclarationNodeEPNS2_4NodeES5_E4doitERKS5_ = comdat any

$_ZN4llvh16cast_convert_valIN6hermes6ESTree18WhileStatementNodeEPNS2_4NodeES5_E4doitERKS5_ = comdat any

$_ZN4llvh16cast_convert_valIN6hermes6ESTree20DoWhileStatementNodeEPNS2_4NodeES5_E4doitERKS5_ = comdat any

$_ZN4llvh16cast_convert_valIN6hermes6ESTree18ForInStatementNodeEPNS2_4NodeES5_E4doitERKS5_ = comdat any

$_ZN4llvh16cast_convert_valIN6hermes6ESTree18ForOfStatementNodeEPNS2_4NodeES5_E4doitERKS5_ = comdat any

$_ZN4llvh16cast_convert_valIN6hermes6ESTree16ForStatementNodeEPNS2_4NodeES5_E4doitERKS5_ = comdat any

$_ZN4llvh16cast_convert_valIN6hermes6ESTree21DebuggerStatementNodeEPNS2_4NodeES5_E4doitERKS5_ = comdat any

$_ZN4llvh16cast_convert_valIN6hermes6ESTree18EmptyStatementNodeEPNS2_4NodeES5_E4doitERKS5_ = comdat any

$_ZN4llvh16cast_convert_valIN6hermes6ESTree18BlockStatementNodeEPNS2_4NodeES5_E4doitERKS5_ = comdat any

$_ZN4llvh16cast_convert_valIN6hermes6ESTree18BreakStatementNodeEPNS2_4NodeES5_E4doitERKS5_ = comdat any

$_ZN4llvh16cast_convert_valIN6hermes6ESTree21ContinueStatementNodeEPNS2_4NodeES5_E4doitERKS5_ = comdat any

$_ZN4llvh16cast_convert_valIN6hermes6ESTree18ThrowStatementNodeEPNS2_4NodeES5_E4doitERKS5_ = comdat any

$_ZN4llvh16cast_convert_valIN6hermes6ESTree19ReturnStatementNodeEPNS2_4NodeES5_E4doitERKS5_ = comdat any

$_ZN4llvh16cast_convert_valIN6hermes6ESTree17WithStatementNodeEPNS2_4NodeES5_E4doitERKS5_ = comdat any

$_ZN4llvh16cast_convert_valIN6hermes6ESTree19SwitchStatementNodeEPNS2_4NodeES5_E4doitERKS5_ = comdat any

$_ZN4llvh16cast_convert_valIN6hermes6ESTree20LabeledStatementNodeEPNS2_4NodeES5_E4doitERKS5_ = comdat any

$_ZN4llvh16cast_convert_valIN6hermes6ESTree23ExpressionStatementNodeEPNS2_4NodeES5_E4doitERKS5_ = comdat any

$_ZN4llvh16cast_convert_valIN6hermes6ESTree16TryStatementNodeEPNS2_4NodeES5_E4doitERKS5_ = comdat any

$_ZN4llvh16cast_convert_valIN6hermes6ESTree15IfStatementNodeEPNS2_4NodeES5_E4doitERKS5_ = comdat any

$_ZN4llvh16cast_convert_valIN6hermes6ESTree15NullLiteralNodeEPNS2_4NodeES5_E4doitERKS5_ = comdat any

$_ZN4llvh16cast_convert_valIN6hermes6ESTree18BooleanLiteralNodeEPNS2_4NodeES5_E4doitERKS5_ = comdat any

$_ZN4llvh16cast_convert_valIN6hermes6ESTree17StringLiteralNodeEPNS2_4NodeES5_E4doitERKS5_ = comdat any

$_ZN4llvh16cast_convert_valIN6hermes6ESTree18NumericLiteralNodeEPNS2_4NodeES5_E4doitERKS5_ = comdat any

$_ZN4llvh16cast_convert_valIN6hermes6ESTree17RegExpLiteralNodeEPNS2_4NodeES5_E4doitERKS5_ = comdat any

$_ZN4llvh16cast_convert_valIN6hermes6ESTree17BigIntLiteralNodeEPNS2_4NodeES5_E4doitERKS5_ = comdat any

$_ZN4llvh16cast_convert_valIN6hermes6ESTree18ThisExpressionNodeEPNS2_4NodeES5_E4doitERKS5_ = comdat any

$_ZN4llvh16cast_convert_valIN6hermes6ESTree9SuperNodeEPNS2_4NodeES5_E4doitERKS5_ = comdat any

$_ZN4llvh16cast_convert_valIN6hermes6ESTree22SequenceExpressionNodeEPNS2_4NodeES5_E4doitERKS5_ = comdat any

$_ZN4llvh16cast_convert_valIN6hermes6ESTree20ObjectExpressionNodeEPNS2_4NodeES5_E4doitERKS5_ = comdat any

$_ZN4llvh16cast_convert_valIN6hermes6ESTree19ArrayExpressionNodeEPNS2_4NodeES5_E4doitERKS5_ = comdat any

$_ZN4llvh16cast_convert_valIN6hermes6ESTree17SpreadElementNodeEPNS2_4NodeES5_E4doitERKS5_ = comdat any

$_ZN4llvh16cast_convert_valIN6hermes6ESTree17NewExpressionNodeEPNS2_4NodeES5_E4doitERKS5_ = comdat any

$_ZN4llvh16cast_convert_valIN6hermes6ESTree19YieldExpressionNodeEPNS2_4NodeES5_E4doitERKS5_ = comdat any

$_ZN4llvh16cast_convert_valIN6hermes6ESTree19AwaitExpressionNodeEPNS2_4NodeES5_E4doitERKS5_ = comdat any

$_ZN4llvh16cast_convert_valIN6hermes6ESTree20ImportExpressionNodeEPNS2_4NodeES5_E4doitERKS5_ = comdat any

$_ZN6hermes25ES6ClassesTransformations5visitEPNS_6ESTree18CallExpressionNodeE = comdat any

$_ZNSt7variantIJN6hermes6ESTree11UnmodifiedTENS1_8RemovedTEPNS1_4NodeEEEC2IS5_vvS5_vEEOT_ = comdat any

$_ZN4llvh8dyn_castIN6hermes6ESTree20MemberExpressionNodeENS2_4NodeEEENS_10cast_rettyIT_PT0_E8ret_typeES8_ = comdat any

$_ZN6hermes25ES6ClassesTransformations9cloneNodeINS_6ESTree4NodeEEEPT_S5_ = comdat any

$_ZN6hermes25ES6ClassesTransformations21createTransformedNodeINS_6ESTree18ThisExpressionNodeEJEEEPT_PNS2_4NodeEDpOT0_ = comdat any

$_ZN6hermes25ES6ClassesTransformations18makeIdentifierNodeEPNS_6ESTree4NodeEN4llvh9StringRefE = comdat any

$_ZN6hermes25ES6ClassesTransformations21createTransformedNodeINS_6ESTree20MemberExpressionNodeEJRPNS2_4NodeERPNS2_14IdentifierNodeEbEEEPT_S5_DpOT0_ = comdat any

$_ZN6hermes25ES6ClassesTransformations21createTransformedNodeINS_6ESTree18CallExpressionNodeEJRPNS2_20MemberExpressionNodeEDnN4llvh12simple_ilistINS2_4NodeEJEEEEEEPT_PS9_DpOT0_ = comdat any

$_ZN6hermes6ESTree4NodenwEmRNS_7ContextEm = comdat any

$_ZN6hermes6ESTree18ThisExpressionNodeC2Ev = comdat any

$_ZN6hermes25ES6ClassesTransformations12copyLocationINS_6ESTree18ThisExpressionNodeEEEPT_PNS2_4NodeES5_ = comdat any

$_ZN6hermes7Context12allocateNodeEmm = comdat any

$_ZN6hermes6ESTree4NodeC2ENS0_8NodeKindE = comdat any

$_ZN4llvh10ilist_nodeIN6hermes6ESTree4NodeEJEEC2Ev = comdat any

$_ZN4llvh7SMRangeC2Ev = comdat any

$_ZN4llvh5SMLocC2Ev = comdat any

$_ZN4llvh15ilist_node_implINS_12ilist_detail12node_optionsIN6hermes6ESTree4NodeELb0ELb0EvEEEC2Ev = comdat any

$_ZN4llvh15ilist_node_baseILb0EEC2Ev = comdat any

$_ZN6hermes25ES6ClassesTransformations14doCopyLocationEPNS_6ESTree4NodeES3_ = comdat any

$_ZN6hermes6ESTree4Node11setStartLocEN4llvh5SMLocE = comdat any

$_ZNK6hermes6ESTree4Node11getStartLocEv = comdat any

$_ZN6hermes6ESTree4Node9setEndLocEN4llvh5SMLocE = comdat any

$_ZNK6hermes6ESTree4Node9getEndLocEv = comdat any

$_ZN6hermes6ESTree4Node11setDebugLocEN4llvh5SMLocE = comdat any

$_ZNK6hermes6ESTree4Node11getDebugLocEv = comdat any

$_ZN4llvh15SmallVectorImplIPN6hermes6ESTree4NodeEE6insertEPS4_RKS4_ = comdat any

$_ZN4llvh23SmallVectorTemplateBaseIPN6hermes6ESTree4NodeELb1EE9push_backERKS4_ = comdat any

$_ZNK4llvh15SmallVectorBase4sizeEv = comdat any

$_ZNK4llvh15SmallVectorBase8capacityEv = comdat any

$_ZN4llvh23SmallVectorTemplateBaseIPN6hermes6ESTree4NodeELb1EE4growEm = comdat any

$_ZN4llvh25SmallVectorTemplateCommonIPN6hermes6ESTree4NodeEvE4backEv = comdat any

$_ZSt13move_backwardIPPN6hermes6ESTree4NodeES4_ET0_T_S6_S5_ = comdat any

$_ZN4llvh15SmallVectorBase8set_sizeEm = comdat any

$_ZN4llvh25SmallVectorTemplateCommonIPN6hermes6ESTree4NodeEvE8grow_podEmm = comdat any

$_ZNK4llvh25SmallVectorTemplateCommonIPN6hermes6ESTree4NodeEvE10getFirstElEv = comdat any

$_ZSt22__copy_move_backward_aILb1EPPN6hermes6ESTree4NodeES4_ET1_T0_S6_S5_ = comdat any

$_ZSt12__miter_baseIPPN6hermes6ESTree4NodeEET_S5_ = comdat any

$_ZSt12__niter_wrapIPPN6hermes6ESTree4NodeEET_RKS5_S5_ = comdat any

$_ZSt23__copy_move_backward_a1ILb1EPPN6hermes6ESTree4NodeES4_ET1_T0_S6_S5_ = comdat any

$_ZSt12__niter_baseIPPN6hermes6ESTree4NodeEET_S5_ = comdat any

$_ZSt23__copy_move_backward_a2ILb1EPPN6hermes6ESTree4NodeES4_ET1_T0_S6_S5_ = comdat any

$_ZNSt20__copy_move_backwardILb1ELb1ESt26random_access_iterator_tagE13__copy_move_bIPN6hermes6ESTree4NodeEEEPT_PKS7_SA_S8_ = comdat any

$_ZN6hermes25ES6ClassesTransformations18makeIdentifierNodeEPNS_6ESTree4NodeEPNS_12UniqueStringE = comdat any

$_ZN6hermes25ES6ClassesTransformations21createTransformedNodeINS_6ESTree14IdentifierNodeEJRPNS_12UniqueStringEDnbEEEPT_PNS2_4NodeEDpOT0_ = comdat any

$_ZN6hermes6ESTree14IdentifierNodeC2EPNS_12UniqueStringEPNS0_4NodeEb = comdat any

$_ZN6hermes25ES6ClassesTransformations12copyLocationINS_6ESTree14IdentifierNodeEEEPT_PNS2_4NodeES5_ = comdat any

$_ZN6hermes6ESTree20MemberExpressionNodeC2EPNS0_4NodeES3_b = comdat any

$_ZN6hermes25ES6ClassesTransformations12copyLocationINS_6ESTree20MemberExpressionNodeEEEPT_PNS2_4NodeES5_ = comdat any

$_ZN6hermes6ESTree24MemberExpressionLikeNodeC2ENS0_8NodeKindE = comdat any

$_ZN6hermes6ESTree18CallExpressionNodeC2EPNS0_4NodeES3_ON4llvh12simple_ilistIS2_JEEE = comdat any

$_ZN6hermes25ES6ClassesTransformations12copyLocationINS_6ESTree18CallExpressionNodeEEEPT_PNS2_4NodeES5_ = comdat any

$_ZN6hermes6ESTree22CallExpressionLikeNodeC2ENS0_8NodeKindE = comdat any

$_ZN4llvh12simple_ilistIN6hermes6ESTree4NodeEJEEC2EOS4_ = comdat any

$_ZN4llvh14ilist_sentinelINS_12ilist_detail12node_optionsIN6hermes6ESTree4NodeELb0ELb0EvEEEC2Ev = comdat any

$_ZN4llvh12simple_ilistIN6hermes6ESTree4NodeEJEE6spliceENS_14ilist_iteratorINS_12ilist_detail12node_optionsIS3_Lb0ELb0EvEELb0ELb0EEERS4_ = comdat any

$_ZN4llvh15ilist_node_baseILb0EE18initializeSentinelEv = comdat any

$_ZN4llvh14ilist_sentinelINS_12ilist_detail12node_optionsIN6hermes6ESTree4NodeELb0ELb0EvEEE5resetEv = comdat any

$_ZN4llvh15ilist_node_implINS_12ilist_detail12node_optionsIN6hermes6ESTree4NodeELb0ELb0EvEEE7setPrevEPS7_ = comdat any

$_ZN4llvh15ilist_node_implINS_12ilist_detail12node_optionsIN6hermes6ESTree4NodeELb0ELb0EvEEE7setNextEPS7_ = comdat any

$_ZN4llvh12simple_ilistIN6hermes6ESTree4NodeEJEE6spliceENS_14ilist_iteratorINS_12ilist_detail12node_optionsIS3_Lb0ELb0EvEELb0ELb0EEERS4_S9_S9_ = comdat any

$_ZN4llvh10ilist_baseILb0EE14transferBeforeINS_15ilist_node_implINS_12ilist_detail12node_optionsIN6hermes6ESTree4NodeELb0ELb0EvEEEEEEvRT_SC_SC_ = comdat any

$_ZN4llvh10ilist_baseILb0EE18transferBeforeImplERNS_15ilist_node_baseILb0EEES4_S4_ = comdat any

$_ZN4llvh12simple_ilistIN6hermes6ESTree4NodeEJEEC2Ev = comdat any

$_ZN4llvh12simple_ilistIN6hermes6ESTree4NodeEJEE9push_backERS3_ = comdat any

$_ZN4llvh12cast_or_nullIN6hermes6ESTree4NodeES3_EENS_10cast_rettyIT_PT0_E8ret_typeES7_ = comdat any

$_ZN6hermes25ES6ClassesTransformations17cloneNodeInternalEPNS_6ESTree4NodeE = comdat any

$_ZN4llvh4castIN6hermes6ESTree4NodeES3_EENS_10cast_rettyIT_PT0_E8ret_typeES7_ = comdat any

$_ZN4llvh16cast_convert_valIN6hermes6ESTree4NodeEPS3_S4_E4doitERKS4_ = comdat any

$_ZN4llvh8dyn_castIN6hermes6ESTree14IdentifierNodeENS2_4NodeEEENS_10cast_rettyIT_PT0_E8ret_typeES8_ = comdat any

$_ZN6hermes25ES6ClassesTransformations21createTransformedNodeINS_6ESTree14IdentifierNodeEJRPNS_12UniqueStringEPNS2_4NodeERbEEEPT_S8_DpOT0_ = comdat any

$_ZN6hermes25ES6ClassesTransformations21createTransformedNodeINS_6ESTree20MemberExpressionNodeEJPNS2_4NodeES5_RbEEEPT_S5_DpOT0_ = comdat any

$_ZN4llvh3isaIN6hermes6ESTree14IdentifierNodeEPNS2_4NodeEEEbRKT0_ = comdat any

$_ZN4llvh13isa_impl_wrapIN6hermes6ESTree14IdentifierNodeEKPNS2_4NodeEPKS4_E4doitERS6_ = comdat any

$_ZN4llvh13isa_impl_wrapIN6hermes6ESTree14IdentifierNodeEPKNS2_4NodeES6_E4doitERKS6_ = comdat any

$_ZN4llvh13simplify_typeIKPN6hermes6ESTree4NodeEE18getSimplifiedValueERS5_ = comdat any

$_ZN4llvh11isa_impl_clIN6hermes6ESTree14IdentifierNodeEPKNS2_4NodeEE4doitES6_ = comdat any

$_ZN4llvh8isa_implIN6hermes6ESTree14IdentifierNodeENS2_4NodeEvE4doitERKS4_ = comdat any

$_ZN6hermes6ESTree14IdentifierNode7classofEPKNS0_4NodeE = comdat any

$_ZN4llvh13simplify_typeIPN6hermes6ESTree4NodeEE18getSimplifiedValueERS4_ = comdat any

$_ZN4llvh11SmallVectorIPN6hermes6ESTree4NodeELj8EEC2ERKS5_ = comdat any

$_ZN4llvh15SmallVectorImplIPN6hermes6ESTree4NodeEEC2Ej = comdat any

$_ZNK4llvh15SmallVectorBase5emptyEv = comdat any

$_ZN4llvh15SmallVectorImplIPN6hermes6ESTree4NodeEEaSERKS5_ = comdat any

$_ZN4llvh23SmallVectorTemplateBaseIPN6hermes6ESTree4NodeELb1EEC2Em = comdat any

$_ZN4llvh25SmallVectorTemplateCommonIPN6hermes6ESTree4NodeEvEC2Em = comdat any

$_ZN4llvh15SmallVectorBaseC2EPvm = comdat any

$_ZSt4copyIPKPN6hermes6ESTree4NodeEPS3_ET0_T_S8_S7_ = comdat any

$_ZN4llvh23SmallVectorTemplateBaseIPN6hermes6ESTree4NodeELb1EE13destroy_rangeEPS4_S6_ = comdat any

$_ZN4llvh23SmallVectorTemplateBaseIPN6hermes6ESTree4NodeELb1EE18uninitialized_copyIKS4_S4_EEvPT_S9_PT0_PNSt9enable_ifIXsr3std7is_sameINSt12remove_constIS8_E4typeESA_EE5valueEvE4typeE = comdat any

$_ZSt13__copy_move_aILb0EPKPN6hermes6ESTree4NodeEPS3_ET1_T0_S8_S7_ = comdat any

$_ZSt12__miter_baseIPKPN6hermes6ESTree4NodeEET_S6_ = comdat any

$_ZSt14__copy_move_a1ILb0EPKPN6hermes6ESTree4NodeEPS3_ET1_T0_S8_S7_ = comdat any

$_ZSt12__niter_baseIPKPN6hermes6ESTree4NodeEET_S6_ = comdat any

$_ZSt14__copy_move_a2ILb0EPKPN6hermes6ESTree4NodeEPS3_ET1_T0_S8_S7_ = comdat any

$_ZNSt11__copy_moveILb0ELb1ESt26random_access_iterator_tagE8__copy_mIPN6hermes6ESTree4NodeEEEPT_PKS7_SA_S8_ = comdat any

$_ZN4llvh11SmallVectorIPN6hermes6ESTree4NodeELj8EEC2Ev = comdat any

$_ZNSt7variantIJN6hermes6ESTree11UnmodifiedTENS1_8RemovedTEPNS1_4NodeEEEC2ILm2EJS5_ES5_vEESt16in_place_index_tIXT_EEDpOT0_ = comdat any

$_ZNSt8__detail9__variant13_Variant_baseIJN6hermes6ESTree11UnmodifiedTENS3_8RemovedTEPNS3_4NodeEEEC2ILm2EJS7_EEESt16in_place_index_tIXT_EEDpOT0_ = comdat any

$_ZNSt8__detail9__variant17_Move_assign_baseILb1EJN6hermes6ESTree11UnmodifiedTENS3_8RemovedTEPNS3_4NodeEEECI2NS0_16_Variant_storageILb1EJS4_S5_S7_EEEILm2EJS7_EEESt16in_place_index_tIXT_EEDpOT0_ = comdat any

$_ZNSt8__detail9__variant17_Copy_assign_baseILb1EJN6hermes6ESTree11UnmodifiedTENS3_8RemovedTEPNS3_4NodeEEECI2NS0_16_Variant_storageILb1EJS4_S5_S7_EEEILm2EJS7_EEESt16in_place_index_tIXT_EEDpOT0_ = comdat any

$_ZNSt8__detail9__variant15_Move_ctor_baseILb1EJN6hermes6ESTree11UnmodifiedTENS3_8RemovedTEPNS3_4NodeEEECI2NS0_16_Variant_storageILb1EJS4_S5_S7_EEEILm2EJS7_EEESt16in_place_index_tIXT_EEDpOT0_ = comdat any

$_ZNSt8__detail9__variant15_Copy_ctor_baseILb1EJN6hermes6ESTree11UnmodifiedTENS3_8RemovedTEPNS3_4NodeEEECI2NS0_16_Variant_storageILb1EJS4_S5_S7_EEEILm2EJS7_EEESt16in_place_index_tIXT_EEDpOT0_ = comdat any

$_ZNSt8__detail9__variant16_Variant_storageILb1EJN6hermes6ESTree11UnmodifiedTENS3_8RemovedTEPNS3_4NodeEEEC2ILm2EJS7_EEESt16in_place_index_tIXT_EEDpOT0_ = comdat any

$_ZNSt8__detail9__variant15_Variadic_unionIJN6hermes6ESTree11UnmodifiedTENS3_8RemovedTEPNS3_4NodeEEEC2ILm2EJS7_EEESt16in_place_index_tIXT_EEDpOT0_ = comdat any

$_ZNSt8__detail9__variant15_Variadic_unionIJN6hermes6ESTree8RemovedTEPNS3_4NodeEEEC2ILm1EJS6_EEESt16in_place_index_tIXT_EEDpOT0_ = comdat any

$_ZNSt8__detail9__variant15_Variadic_unionIJPN6hermes6ESTree4NodeEEEC2IJS5_EEESt16in_place_index_tILm0EEDpOT_ = comdat any

$_ZNSt8__detail9__variant14_UninitializedIPN6hermes6ESTree4NodeELb1EEC2IJS5_EEESt16in_place_index_tILm0EEDpOT_ = comdat any

$_ZN4llvh11SmallVectorIPN6hermes6ESTree4NodeELj8EED2Ev = comdat any

$_ZN4llvh15SmallVectorImplIPN6hermes6ESTree4NodeEED2Ev = comdat any

$_ZNK4llvh25SmallVectorTemplateCommonIPN6hermes6ESTree4NodeEvE7isSmallEv = comdat any

$_ZN4llvh3isaIN6hermes6ESTree20MemberExpressionNodeEPNS2_4NodeEEEbRKT0_ = comdat any

$_ZN4llvh13isa_impl_wrapIN6hermes6ESTree20MemberExpressionNodeEKPNS2_4NodeEPKS4_E4doitERS6_ = comdat any

$_ZN4llvh13isa_impl_wrapIN6hermes6ESTree20MemberExpressionNodeEPKNS2_4NodeES6_E4doitERKS6_ = comdat any

$_ZN4llvh11isa_impl_clIN6hermes6ESTree20MemberExpressionNodeEPKNS2_4NodeEE4doitES6_ = comdat any

$_ZN4llvh8isa_implIN6hermes6ESTree20MemberExpressionNodeENS2_4NodeEvE4doitERKS4_ = comdat any

$_ZN6hermes6ESTree20MemberExpressionNode7classofEPKNS0_4NodeE = comdat any

$_ZN6hermes25ES6ClassesTransformations21createTransformedNodeINS_6ESTree20MemberExpressionNodeEJPNS2_4NodeERPNS2_14IdentifierNodeEbEEEPT_S5_DpOT0_ = comdat any

$_ZN6hermes25ES6ClassesTransformations21createTransformedNodeINS_6ESTree20MemberExpressionNodeEJRPNS2_4NodeES6_bEEEPT_S5_DpOT0_ = comdat any

$_ZN4llvh16cast_convert_valIN6hermes6ESTree18CallExpressionNodeEPNS2_4NodeES5_E4doitERKS5_ = comdat any

$_ZN4llvh16cast_convert_valIN6hermes6ESTree26OptionalCallExpressionNodeEPNS2_4NodeES5_E4doitERKS5_ = comdat any

$_ZN4llvh16cast_convert_valIN6hermes6ESTree24AssignmentExpressionNodeEPNS2_4NodeES5_E4doitERKS5_ = comdat any

$_ZN4llvh16cast_convert_valIN6hermes6ESTree19UnaryExpressionNodeEPNS2_4NodeES5_E4doitERKS5_ = comdat any

$_ZN4llvh16cast_convert_valIN6hermes6ESTree20UpdateExpressionNodeEPNS2_4NodeES5_E4doitERKS5_ = comdat any

$_ZN6hermes25ES6ClassesTransformations5visitEPNS_6ESTree20MemberExpressionNodeE = comdat any

$_ZN6hermes25ES6ClassesTransformations22createGetSuperPropertyEPNS_6ESTree4NodeES3_S3_ = comdat any

$_ZN6hermes25ES6ClassesTransformations21createTransformedNodeINS_6ESTree20MemberExpressionNodeEJPNS2_14IdentifierNodeES5_bEEEPT_PNS2_4NodeEDpOT0_ = comdat any

$_ZN6hermes25ES6ClassesTransformations21createTransformedNodeINS_6ESTree20MemberExpressionNodeEJPNS2_4NodeEPNS2_14IdentifierNodeEbEEEPT_S5_DpOT0_ = comdat any

$_ZN6hermes25ES6ClassesTransformations21createTransformedNodeINS_6ESTree17StringLiteralNodeEJRPNS_12UniqueStringEEEEPT_PNS2_4NodeEDpOT0_ = comdat any

$_ZN6hermes6ESTree17StringLiteralNodeC2EPNS_12UniqueStringE = comdat any

$_ZN6hermes25ES6ClassesTransformations12copyLocationINS_6ESTree17StringLiteralNodeEEEPT_PNS2_4NodeES5_ = comdat any

$_ZN4llvh16cast_convert_valIN6hermes6ESTree20MemberExpressionNodeEPNS2_4NodeES5_E4doitERKS5_ = comdat any

$_ZN4llvh16cast_convert_valIN6hermes6ESTree28OptionalMemberExpressionNodeEPNS2_4NodeES5_E4doitERKS5_ = comdat any

$_ZN4llvh16cast_convert_valIN6hermes6ESTree21LogicalExpressionNodeEPNS2_4NodeES5_E4doitERKS5_ = comdat any

$_ZN4llvh16cast_convert_valIN6hermes6ESTree25ConditionalExpressionNodeEPNS2_4NodeES5_E4doitERKS5_ = comdat any

$_ZN4llvh16cast_convert_valIN6hermes6ESTree20BinaryExpressionNodeEPNS2_4NodeES5_E4doitERKS5_ = comdat any

$_ZN4llvh16cast_convert_valIN6hermes6ESTree13DirectiveNodeEPNS2_4NodeES5_E4doitERKS5_ = comdat any

$_ZN4llvh16cast_convert_valIN6hermes6ESTree20DirectiveLiteralNodeEPNS2_4NodeES5_E4doitERKS5_ = comdat any

$_ZN4llvh16cast_convert_valIN6hermes6ESTree14IdentifierNodeEPNS2_4NodeES5_E4doitERKS5_ = comdat any

$_ZN4llvh16cast_convert_valIN6hermes6ESTree15PrivateNameNodeEPNS2_4NodeES5_E4doitERKS5_ = comdat any

$_ZN4llvh16cast_convert_valIN6hermes6ESTree16MetaPropertyNodeEPNS2_4NodeES5_E4doitERKS5_ = comdat any

$_ZN4llvh16cast_convert_valIN6hermes6ESTree14SwitchCaseNodeEPNS2_4NodeES5_E4doitERKS5_ = comdat any

$_ZN4llvh16cast_convert_valIN6hermes6ESTree15CatchClauseNodeEPNS2_4NodeES5_E4doitERKS5_ = comdat any

$_ZN4llvh16cast_convert_valIN6hermes6ESTree22VariableDeclaratorNodeEPNS2_4NodeES5_E4doitERKS5_ = comdat any

$_ZN4llvh16cast_convert_valIN6hermes6ESTree23VariableDeclarationNodeEPNS2_4NodeES5_E4doitERKS5_ = comdat any

$_ZN4llvh16cast_convert_valIN6hermes6ESTree19TemplateLiteralNodeEPNS2_4NodeES5_E4doitERKS5_ = comdat any

$_ZN4llvh16cast_convert_valIN6hermes6ESTree28TaggedTemplateExpressionNodeEPNS2_4NodeES5_E4doitERKS5_ = comdat any

$_ZN4llvh16cast_convert_valIN6hermes6ESTree19TemplateElementNodeEPNS2_4NodeES5_E4doitERKS5_ = comdat any

$_ZN4llvh16cast_convert_valIN6hermes6ESTree12PropertyNodeEPNS2_4NodeES5_E4doitERKS5_ = comdat any

$_ZN6hermes25ES6ClassesTransformations5visitEPNS_6ESTree20ClassDeclarationNodeE = comdat any

$_ZN4llvh8dyn_castIN6hermes6ESTree13ClassBodyNodeENS2_4NodeEEENS_10cast_rettyIT_PT0_E8ret_typeES8_ = comdat any

$_ZN6hermes25ES6ClassesTransformations11createClassEPNS_6ESTree4NodeES3_PNS1_13ClassBodyNodeES3_ = comdat any

$_ZN6hermes25ES6ClassesTransformations22makeSingleVariableDeclEPNS_6ESTree4NodeES3_S3_ = comdat any

$_ZN6hermes25ES6ClassesTransformations14copyIdentifierEPNS_6ESTree4NodeE = comdat any

$_ZN4llvh3isaIN6hermes6ESTree13ClassBodyNodeEPNS2_4NodeEEEbRKT0_ = comdat any

$_ZN4llvh13isa_impl_wrapIN6hermes6ESTree13ClassBodyNodeEKPNS2_4NodeEPKS4_E4doitERS6_ = comdat any

$_ZN4llvh13isa_impl_wrapIN6hermes6ESTree13ClassBodyNodeEPKNS2_4NodeES6_E4doitERKS6_ = comdat any

$_ZN4llvh11isa_impl_clIN6hermes6ESTree13ClassBodyNodeEPKNS2_4NodeEE4doitES6_ = comdat any

$_ZN4llvh8isa_implIN6hermes6ESTree13ClassBodyNodeENS2_4NodeEvE4doitERKS4_ = comdat any

$_ZN6hermes6ESTree13ClassBodyNode7classofEPKNS0_4NodeE = comdat any

$_ZN6hermes6ESTree15NullLiteralNodeC2Ev = comdat any

$_ZN6hermes25ES6ClassesTransformations15createClassCtorEPNS_6ESTree4NodeEPNS1_13ClassBodyNodeES3_PNS1_20MethodDefinitionNodeE = comdat any

$_ZN6hermes25ES6ClassesTransformations11toStatementEPNS_6ESTree4NodeE = comdat any

$_ZN4llvh15SmallVectorImplIPN6hermes6ESTree4NodeEE12emplace_backIJRS4_EEEvDpOT_ = comdat any

$_ZN4llvh8dyn_castIN6hermes6ESTree20MethodDefinitionNodeENS2_4NodeEEENS_10cast_rettyIT_PT0_E8ret_typeES8_ = comdat any

$_ZN4llvh12DenseMapInfoIPN6hermes12UniqueStringEE11getEmptyKeyEv = comdat any

$_ZN4llvh3isaIN6hermes6ESTree20MethodDefinitionNodeEPNS2_4NodeEEEbRKT0_ = comdat any

$_ZN4llvh13isa_impl_wrapIN6hermes6ESTree20MethodDefinitionNodeEKPNS2_4NodeEPKS4_E4doitERS6_ = comdat any

$_ZN4llvh13isa_impl_wrapIN6hermes6ESTree20MethodDefinitionNodeEPKNS2_4NodeES6_E4doitERKS6_ = comdat any

$_ZN4llvh11isa_impl_clIN6hermes6ESTree20MethodDefinitionNodeEPKNS2_4NodeEE4doitES6_ = comdat any

$_ZN4llvh8isa_implIN6hermes6ESTree20MethodDefinitionNodeENS2_4NodeEvE4doitERKS4_ = comdat any

$_ZN6hermes6ESTree20MethodDefinitionNode7classofEPKNS0_4NodeE = comdat any

$_ZN4llvh12DenseMapInfoIPN6hermes12UniqueStringEE15getTombstoneKeyEv = comdat any

$_ZN4llvh12DenseMapInfoIPN6hermes12UniqueStringEE12getHashValueEPKS2_ = comdat any

$_ZN4llvh12hash_combineIJjbEEENS_9hash_codeEDpRKT_ = comdat any

$_ZN4llvh7hashing6detail29hash_combine_recursive_helperC2Ev = comdat any

$_ZN4llvh7hashing6detail29hash_combine_recursive_helper7combineIjJbEEENS_9hash_codeEmPcS5_RKT_DpRKT0_ = comdat any

$_ZN4llvh7hashing6detail18get_execution_seedEv = comdat any

$_ZN4llvh7hashing6detail29hash_combine_recursive_helper12combine_dataIjEEPcRmS4_S4_T_ = comdat any

$_ZN4llvh7hashing6detail17get_hashable_dataIjEENSt9enable_ifIXsr16is_hashable_dataIT_EE5valueES4_E4typeERKS4_ = comdat any

$_ZN4llvh7hashing6detail29hash_combine_recursive_helper7combineIbJEEENS_9hash_codeEmPcS5_RKT_DpRKT0_ = comdat any

$_ZN4llvh7hashing6detail17store_and_advanceIjEEbRPcS3_RKT_m = comdat any

$_ZN4llvh7hashing6detail10hash_state6createEPKcm = comdat any

$_ZN4llvh7hashing6detail10hash_state3mixEPKc = comdat any

$_ZN4llvh7hashing6detail13hash_16_bytesEmm = comdat any

$_ZN4llvh7hashing6detail6rotateEmm = comdat any

$_ZN4llvh7hashing6detail9shift_mixEm = comdat any

$_ZN4llvh7hashing6detail7fetch64EPKc = comdat any

$_ZN4llvh7hashing6detail10hash_state12mix_32_bytesEPKcRmS5_ = comdat any

$_ZSt4swapImENSt9enable_ifIXsr6__and_ISt6__not_ISt15__is_tuple_likeIT_EESt21is_move_constructibleIS3_ESt18is_move_assignableIS3_EEE5valueEvE4typeERS3_SC_ = comdat any

$_ZN4llvh7hashing6detail29hash_combine_recursive_helper12combine_dataIbEEPcRmS4_S4_T_ = comdat any

$_ZN4llvh7hashing6detail17get_hashable_dataIbEENSt9enable_ifIXsr16is_hashable_dataIT_EE5valueES4_E4typeERKS4_ = comdat any

$_ZN4llvh7hashing6detail29hash_combine_recursive_helper7combineEmPcS3_ = comdat any

$_ZN4llvh7hashing6detail17store_and_advanceIbEEbRPcS3_RKT_m = comdat any

$_ZN4llvh7hashing6detail10hash_shortEPKcmm = comdat any

$_ZN4llvh9hash_codeC2Em = comdat any

$_ZNSt3_V26rotateIPcEET_S2_S2_S2_ = comdat any

$_ZN4llvh7hashing6detail10hash_state8finalizeEm = comdat any

$_ZN4llvh7hashing6detail15hash_4to8_bytesEPKcmm = comdat any

$_ZN4llvh7hashing6detail16hash_9to16_bytesEPKcmm = comdat any

$_ZN4llvh7hashing6detail17hash_17to32_bytesEPKcmm = comdat any

$_ZN4llvh7hashing6detail17hash_33to64_bytesEPKcmm = comdat any

$_ZN4llvh7hashing6detail15hash_1to3_bytesEPKcmm = comdat any

$_ZN4llvh7hashing6detail7fetch32EPKc = comdat any

$_ZNSt3_V28__rotateIPcEET_S2_S2_S2_St26random_access_iterator_tag = comdat any

$_ZSt19__iterator_categoryIPcENSt15iterator_traitsIT_E17iterator_categoryERKS2_ = comdat any

$_ZSt11swap_rangesIPcS0_ET0_T_S2_S1_ = comdat any

$_ZSt4moveIPcS0_ET0_T_S2_S1_ = comdat any

$_ZSt9iter_swapIPcS0_EvT_T0_ = comdat any

$_ZSt4swapIlENSt9enable_ifIXsr6__and_ISt6__not_ISt15__is_tuple_likeIT_EESt21is_move_constructibleIS3_ESt18is_move_assignableIS3_EEE5valueEvE4typeERS3_SC_ = comdat any

$_ZSt13move_backwardIPcS0_ET0_T_S2_S1_ = comdat any

$_ZSt13__copy_move_aILb1EPcS0_ET1_T0_S2_S1_ = comdat any

$_ZSt12__miter_baseIPcET_S1_ = comdat any

$_ZSt14__copy_move_a1ILb1EPcS0_ET1_T0_S2_S1_ = comdat any

$_ZSt14__copy_move_a2ILb1EPcS0_ET1_T0_S2_S1_ = comdat any

$_ZNSt11__copy_moveILb1ELb1ESt26random_access_iterator_tagE8__copy_mIcEEPT_PKS3_S6_S4_ = comdat any

$_ZSt4swapIcENSt9enable_ifIXsr6__and_ISt6__not_ISt15__is_tuple_likeIT_EESt21is_move_constructibleIS3_ESt18is_move_assignableIS3_EEE5valueEvE4typeERS3_SC_ = comdat any

$_ZSt22__copy_move_backward_aILb1EPcS0_ET1_T0_S2_S1_ = comdat any

$_ZSt23__copy_move_backward_a1ILb1EPcS0_ET1_T0_S2_S1_ = comdat any

$_ZSt23__copy_move_backward_a2ILb1EPcS0_ET1_T0_S2_S1_ = comdat any

$_ZNSt20__copy_move_backwardILb1ELb1ESt26random_access_iterator_tagE13__copy_move_bIcEEPT_PKS3_S6_S4_ = comdat any

$_ZNK6hermes10IdentifiereqES0_ = comdat any

$_ZN4llvh8dyn_castIN6hermes6ESTree22FunctionExpressionNodeENS2_4NodeEEENS_10cast_rettyIT_PT0_E8ret_typeES8_ = comdat any

$_ZN4llvh12simple_ilistIN6hermes6ESTree4NodeEJEEaSEOS4_ = comdat any

$_ZN4llvh8dyn_castIN6hermes6ESTree18BlockStatementNodeENS2_4NodeEEENS_10cast_rettyIT_PT0_E8ret_typeES8_ = comdat any

$_ZN6hermes25ES6ClassesTransformations26appendPropertyInitializersEPNS_6ESTree13ClassBodyNodeERN4llvh12simple_ilistINS1_4NodeEJEEE = comdat any

$_ZN6hermes25ES6ClassesTransformations21createTransformedNodeINS_6ESTree17SpreadElementNodeEJPNS2_14IdentifierNodeEEEEPT_PNS2_4NodeEDpOT0_ = comdat any

$_ZN6hermes25ES6ClassesTransformations21createTransformedNodeINS_6ESTree18BlockStatementNodeEJN4llvh12simple_ilistINS2_4NodeEJEEEEEEPT_PS6_DpOT0_ = comdat any

$_ZN6hermes25ES6ClassesTransformations21createTransformedNodeINS_6ESTree23FunctionDeclarationNodeEJRPNS2_4NodeEN4llvh12simple_ilistIS4_JEEERPNS2_18BlockStatementNodeEDnDnDnbbEEEPT_S5_DpOT0_ = comdat any

$_ZN4llvh3isaIN6hermes6ESTree22FunctionExpressionNodeEPNS2_4NodeEEEbRKT0_ = comdat any

$_ZN4llvh13isa_impl_wrapIN6hermes6ESTree22FunctionExpressionNodeEKPNS2_4NodeEPKS4_E4doitERS6_ = comdat any

$_ZN4llvh13isa_impl_wrapIN6hermes6ESTree22FunctionExpressionNodeEPKNS2_4NodeES6_E4doitERKS6_ = comdat any

$_ZN4llvh11isa_impl_clIN6hermes6ESTree22FunctionExpressionNodeEPKNS2_4NodeEE4doitES6_ = comdat any

$_ZN4llvh8isa_implIN6hermes6ESTree22FunctionExpressionNodeENS2_4NodeEvE4doitERKS4_ = comdat any

$_ZN6hermes6ESTree22FunctionExpressionNode7classofEPKNS0_4NodeE = comdat any

$_ZN4llvh12simple_ilistIN6hermes6ESTree4NodeEJEE5clearEv = comdat any

$_ZN4llvh3isaIN6hermes6ESTree18BlockStatementNodeEPNS2_4NodeEEEbRKT0_ = comdat any

$_ZN4llvh13isa_impl_wrapIN6hermes6ESTree18BlockStatementNodeEKPNS2_4NodeEPKS4_E4doitERS6_ = comdat any

$_ZN4llvh13isa_impl_wrapIN6hermes6ESTree18BlockStatementNodeEPKNS2_4NodeES6_E4doitERKS6_ = comdat any

$_ZN4llvh11isa_impl_clIN6hermes6ESTree18BlockStatementNodeEPKNS2_4NodeEE4doitES6_ = comdat any

$_ZN4llvh8isa_implIN6hermes6ESTree18BlockStatementNodeENS2_4NodeEvE4doitERKS4_ = comdat any

$_ZN6hermes6ESTree18BlockStatementNode7classofEPKNS0_4NodeE = comdat any

$_ZN4llvh8dyn_castIN6hermes6ESTree23ExpressionStatementNodeENS2_4NodeEEENS_10cast_rettyIT_PT0_E8ret_typeES8_ = comdat any

$_ZN4llvh8dyn_castIN6hermes6ESTree22SequenceExpressionNodeENS2_4NodeEEENS_10cast_rettyIT_PT0_E8ret_typeES8_ = comdat any

$_ZN6hermes25ES6ClassesTransformations21createTransformedNodeINS_6ESTree23ExpressionStatementNodeEJRPNS2_4NodeERPNS_12UniqueStringEEEEPT_S5_DpOT0_ = comdat any

$_ZN4llvh3isaIN6hermes6ESTree23ExpressionStatementNodeEPNS2_4NodeEEEbRKT0_ = comdat any

$_ZN4llvh13isa_impl_wrapIN6hermes6ESTree23ExpressionStatementNodeEKPNS2_4NodeEPKS4_E4doitERS6_ = comdat any

$_ZN4llvh13isa_impl_wrapIN6hermes6ESTree23ExpressionStatementNodeEPKNS2_4NodeES6_E4doitERKS6_ = comdat any

$_ZN4llvh11isa_impl_clIN6hermes6ESTree23ExpressionStatementNodeEPKNS2_4NodeEE4doitES6_ = comdat any

$_ZN4llvh8isa_implIN6hermes6ESTree23ExpressionStatementNodeENS2_4NodeEvE4doitERKS4_ = comdat any

$_ZN6hermes6ESTree23ExpressionStatementNode7classofEPKNS0_4NodeE = comdat any

$_ZN4llvh3isaIN6hermes6ESTree22SequenceExpressionNodeEPNS2_4NodeEEEbRKT0_ = comdat any

$_ZN4llvh13isa_impl_wrapIN6hermes6ESTree22SequenceExpressionNodeEKPNS2_4NodeEPKS4_E4doitERS6_ = comdat any

$_ZN4llvh13isa_impl_wrapIN6hermes6ESTree22SequenceExpressionNodeEPKNS2_4NodeES6_E4doitERKS6_ = comdat any

$_ZN4llvh11isa_impl_clIN6hermes6ESTree22SequenceExpressionNodeEPKNS2_4NodeEE4doitES6_ = comdat any

$_ZN4llvh8isa_implIN6hermes6ESTree22SequenceExpressionNodeENS2_4NodeEvE4doitERKS4_ = comdat any

$_ZN6hermes6ESTree22SequenceExpressionNode7classofEPKNS0_4NodeE = comdat any

$_ZN6hermes6ESTree23ExpressionStatementNodeC2EPNS0_4NodeEPNS_12UniqueStringE = comdat any

$_ZN6hermes25ES6ClassesTransformations12copyLocationINS_6ESTree23ExpressionStatementNodeEEEPT_PNS2_4NodeES5_ = comdat any

$_ZN6hermes6ESTree13StatementNodeC2ENS0_8NodeKindE = comdat any

$_ZN4llvh8dyn_castIN6hermes6ESTree17ClassPropertyNodeENS2_4NodeEEENS_10cast_rettyIT_PT0_E8ret_typeES8_ = comdat any

$_ZN6hermes25ES6ClassesTransformations29createThisPropertyInitializerEPNS_6ESTree4NodeES3_S3_ = comdat any

$_ZN4llvh3isaIN6hermes6ESTree17ClassPropertyNodeEPNS2_4NodeEEEbRKT0_ = comdat any

$_ZN4llvh13isa_impl_wrapIN6hermes6ESTree17ClassPropertyNodeEKPNS2_4NodeEPKS4_E4doitERS6_ = comdat any

$_ZN4llvh13isa_impl_wrapIN6hermes6ESTree17ClassPropertyNodeEPKNS2_4NodeES6_E4doitERKS6_ = comdat any

$_ZN4llvh11isa_impl_clIN6hermes6ESTree17ClassPropertyNodeEPKNS2_4NodeEE4doitES6_ = comdat any

$_ZN4llvh8isa_implIN6hermes6ESTree17ClassPropertyNodeENS2_4NodeEvE4doitERKS4_ = comdat any

$_ZN6hermes6ESTree17ClassPropertyNode7classofEPKNS0_4NodeE = comdat any

$_ZN6hermes25ES6ClassesTransformations21createTransformedNodeINS_6ESTree20MemberExpressionNodeEJRPNS2_18ThisExpressionNodeERPNS2_4NodeEbEEEPT_S8_DpOT0_ = comdat any

$_ZN6hermes25ES6ClassesTransformations21createTransformedNodeINS_6ESTree24AssignmentExpressionNodeEJPNS_12UniqueStringERPNS2_20MemberExpressionNodeERPNS2_4NodeEEEEPT_SA_DpOT0_ = comdat any

$_ZN6hermes7Context14getStringTableEv = comdat any

$_ZN6hermes6ESTree24AssignmentExpressionNodeC2EPNS_12UniqueStringEPNS0_4NodeES5_ = comdat any

$_ZN6hermes25ES6ClassesTransformations12copyLocationINS_6ESTree24AssignmentExpressionNodeEEEPT_PNS2_4NodeES5_ = comdat any

$_ZN6hermes6ESTree17SpreadElementNodeC2EPNS0_4NodeE = comdat any

$_ZN6hermes25ES6ClassesTransformations12copyLocationINS_6ESTree17SpreadElementNodeEEEPT_PNS2_4NodeES5_ = comdat any

$_ZN6hermes6ESTree18BlockStatementNodeC2EON4llvh12simple_ilistINS0_4NodeEJEEE = comdat any

$_ZN6hermes25ES6ClassesTransformations12copyLocationINS_6ESTree18BlockStatementNodeEEEPT_PNS2_4NodeES5_ = comdat any

$_ZN6hermes6ESTree24BlockStatementDecorationC2Ev = comdat any

$_ZN6hermes6ESTree23FunctionDeclarationNodeC2EPNS0_4NodeEON4llvh12simple_ilistIS2_JEEES3_S3_S3_S3_bb = comdat any

$_ZN6hermes25ES6ClassesTransformations12copyLocationINS_6ESTree23FunctionDeclarationNodeEEEPT_PNS2_4NodeES5_ = comdat any

$_ZN6hermes6ESTree16FunctionLikeNodeC2ENS0_8NodeKindE = comdat any

$_ZN6hermes6ESTree22FunctionLikeDecorationC2Ev = comdat any

$_ZN6hermes25ES6ClassesTransformations21createTransformedNodeINS_6ESTree20MemberExpressionNodeEJRPNS2_14IdentifierNodeES6_bEEEPT_PNS2_4NodeEDpOT0_ = comdat any

$_ZNKSt16initializer_listIPN6hermes6ESTree4NodeEE5beginEv = comdat any

$_ZNKSt16initializer_listIPN6hermes6ESTree4NodeEE3endEv = comdat any

$_ZNKSt16initializer_listIPN6hermes6ESTree4NodeEE4sizeEv = comdat any

$_ZN6hermes25ES6ClassesTransformations21createTransformedNodeINS_6ESTree23ExpressionStatementNodeEJRPNS2_4NodeEDnEEEPT_S5_DpOT0_ = comdat any

$_ZN4llvh9StringRefC2Ev = comdat any

$_ZN6hermes25ES6ClassesTransformations17makeUndefinedNodeEPNS_6ESTree4NodeE = comdat any

$_ZN6hermes25ES6ClassesTransformations21createTransformedNodeINS_6ESTree19ReturnStatementNodeEJPNS2_14IdentifierNodeEEEEPT_PNS2_4NodeEDpOT0_ = comdat any

$_ZN6hermes25ES6ClassesTransformations21createTransformedNodeINS_6ESTree22FunctionExpressionNodeEJDnN4llvh12simple_ilistINS2_4NodeEJEEERPNS2_18BlockStatementNodeEDnDnDnbbEEEPT_PS6_DpOT0_ = comdat any

$_ZN6hermes25ES6ClassesTransformations21createTransformedNodeINS_6ESTree18CallExpressionNodeEJRPNS2_22FunctionExpressionNodeEDnN4llvh12simple_ilistINS2_4NodeEJEEEEEEPT_PS9_DpOT0_ = comdat any

$_ZN6hermes6ESTree19ReturnStatementNodeC2EPNS0_4NodeE = comdat any

$_ZN6hermes25ES6ClassesTransformations12copyLocationINS_6ESTree19ReturnStatementNodeEEEPT_PNS2_4NodeES5_ = comdat any

$_ZN6hermes6ESTree22FunctionExpressionNodeC2EPNS0_4NodeEON4llvh12simple_ilistIS2_JEEES3_S3_S3_S3_bb = comdat any

$_ZN6hermes25ES6ClassesTransformations12copyLocationINS_6ESTree22FunctionExpressionNodeEEEPT_PNS2_4NodeES5_ = comdat any

$_ZN6hermes25ES6ClassesTransformations21createTransformedNodeINS_6ESTree22VariableDeclaratorNodeEJRPNS2_4NodeES6_EEEPT_S5_DpOT0_ = comdat any

$_ZN6hermes25ES6ClassesTransformations21createTransformedNodeINS_6ESTree23VariableDeclarationNodeEJRKPNS_12UniqueStringEN4llvh12simple_ilistINS2_4NodeEJEEEEEEPT_PSA_DpOT0_ = comdat any

$_ZN6hermes6ESTree22VariableDeclaratorNodeC2EPNS0_4NodeES3_ = comdat any

$_ZN6hermes25ES6ClassesTransformations12copyLocationINS_6ESTree22VariableDeclaratorNodeEEEPT_PNS2_4NodeES5_ = comdat any

$_ZN6hermes6ESTree23VariableDeclarationNodeC2EPNS_12UniqueStringEON4llvh12simple_ilistINS0_4NodeEJEEE = comdat any

$_ZN6hermes25ES6ClassesTransformations12copyLocationINS_6ESTree23VariableDeclarationNodeEEEPT_PNS2_4NodeES5_ = comdat any

$_ZN4llvh16cast_convert_valIN6hermes6ESTree20ClassDeclarationNodeEPNS2_4NodeES5_E4doitERKS5_ = comdat any

$_ZN6hermes25ES6ClassesTransformations5visitEPNS_6ESTree19ClassExpressionNodeE = comdat any

$_ZN4llvh16cast_convert_valIN6hermes6ESTree19ClassExpressionNodeEPNS2_4NodeES5_E4doitERKS5_ = comdat any

$_ZN4llvh16cast_convert_valIN6hermes6ESTree13ClassBodyNodeEPNS2_4NodeES5_E4doitERKS5_ = comdat any

$_ZN4llvh16cast_convert_valIN6hermes6ESTree17ClassPropertyNodeEPNS2_4NodeES5_E4doitERKS5_ = comdat any

$_ZN4llvh16cast_convert_valIN6hermes6ESTree24ClassPrivatePropertyNodeEPNS2_4NodeES5_E4doitERKS5_ = comdat any

$_ZN4llvh16cast_convert_valIN6hermes6ESTree20MethodDefinitionNodeEPNS2_4NodeES5_E4doitERKS5_ = comdat any

$_ZN4llvh16cast_convert_valIN6hermes6ESTree21ImportDeclarationNodeEPNS2_4NodeES5_E4doitERKS5_ = comdat any

$_ZN4llvh16cast_convert_valIN6hermes6ESTree19ImportSpecifierNodeEPNS2_4NodeES5_E4doitERKS5_ = comdat any

$_ZN4llvh16cast_convert_valIN6hermes6ESTree26ImportDefaultSpecifierNodeEPNS2_4NodeES5_E4doitERKS5_ = comdat any

$_ZN4llvh16cast_convert_valIN6hermes6ESTree28ImportNamespaceSpecifierNodeEPNS2_4NodeES5_E4doitERKS5_ = comdat any

$_ZN4llvh16cast_convert_valIN6hermes6ESTree19ImportAttributeNodeEPNS2_4NodeES5_E4doitERKS5_ = comdat any

$_ZN4llvh16cast_convert_valIN6hermes6ESTree26ExportNamedDeclarationNodeEPNS2_4NodeES5_E4doitERKS5_ = comdat any

$_ZN4llvh16cast_convert_valIN6hermes6ESTree19ExportSpecifierNodeEPNS2_4NodeES5_E4doitERKS5_ = comdat any

$_ZN4llvh16cast_convert_valIN6hermes6ESTree28ExportNamespaceSpecifierNodeEPNS2_4NodeES5_E4doitERKS5_ = comdat any

$_ZN4llvh16cast_convert_valIN6hermes6ESTree28ExportDefaultDeclarationNodeEPNS2_4NodeES5_E4doitERKS5_ = comdat any

$_ZN4llvh16cast_convert_valIN6hermes6ESTree24ExportAllDeclarationNodeEPNS2_4NodeES5_E4doitERKS5_ = comdat any

$_ZN4llvh16cast_convert_valIN6hermes6ESTree17ObjectPatternNodeEPNS2_4NodeES5_E4doitERKS5_ = comdat any

$_ZN4llvh16cast_convert_valIN6hermes6ESTree16ArrayPatternNodeEPNS2_4NodeES5_E4doitERKS5_ = comdat any

$_ZN4llvh16cast_convert_valIN6hermes6ESTree15RestElementNodeEPNS2_4NodeES5_E4doitERKS5_ = comdat any

$_ZN4llvh16cast_convert_valIN6hermes6ESTree21AssignmentPatternNodeEPNS2_4NodeES5_E4doitERKS5_ = comdat any

$_ZN4llvh16cast_convert_valIN6hermes6ESTree17JSXIdentifierNodeEPNS2_4NodeES5_E4doitERKS5_ = comdat any

$_ZN4llvh16cast_convert_valIN6hermes6ESTree23JSXMemberExpressionNodeEPNS2_4NodeES5_E4doitERKS5_ = comdat any

$_ZN4llvh16cast_convert_valIN6hermes6ESTree21JSXNamespacedNameNodeEPNS2_4NodeES5_E4doitERKS5_ = comdat any

$_ZN4llvh16cast_convert_valIN6hermes6ESTree22JSXEmptyExpressionNodeEPNS2_4NodeES5_E4doitERKS5_ = comdat any

$_ZN4llvh16cast_convert_valIN6hermes6ESTree26JSXExpressionContainerNodeEPNS2_4NodeES5_E4doitERKS5_ = comdat any

$_ZN4llvh16cast_convert_valIN6hermes6ESTree18JSXSpreadChildNodeEPNS2_4NodeES5_E4doitERKS5_ = comdat any

$_ZN4llvh16cast_convert_valIN6hermes6ESTree21JSXOpeningElementNodeEPNS2_4NodeES5_E4doitERKS5_ = comdat any

$_ZN4llvh16cast_convert_valIN6hermes6ESTree21JSXClosingElementNodeEPNS2_4NodeES5_E4doitERKS5_ = comdat any

$_ZN4llvh16cast_convert_valIN6hermes6ESTree16JSXAttributeNodeEPNS2_4NodeES5_E4doitERKS5_ = comdat any

$_ZN4llvh16cast_convert_valIN6hermes6ESTree22JSXSpreadAttributeNodeEPNS2_4NodeES5_E4doitERKS5_ = comdat any

$_ZN4llvh16cast_convert_valIN6hermes6ESTree20JSXStringLiteralNodeEPNS2_4NodeES5_E4doitERKS5_ = comdat any

$_ZN4llvh16cast_convert_valIN6hermes6ESTree11JSXTextNodeEPNS2_4NodeES5_E4doitERKS5_ = comdat any

$_ZN4llvh16cast_convert_valIN6hermes6ESTree14JSXElementNodeEPNS2_4NodeES5_E4doitERKS5_ = comdat any

$_ZN4llvh16cast_convert_valIN6hermes6ESTree15JSXFragmentNodeEPNS2_4NodeES5_E4doitERKS5_ = comdat any

$_ZN4llvh16cast_convert_valIN6hermes6ESTree22JSXOpeningFragmentNodeEPNS2_4NodeES5_E4doitERKS5_ = comdat any

$_ZN4llvh16cast_convert_valIN6hermes6ESTree22JSXClosingFragmentNodeEPNS2_4NodeES5_E4doitERKS5_ = comdat any

$_ZN4llvh16cast_convert_valIN6hermes6ESTree24ExistsTypeAnnotationNodeEPNS2_4NodeES5_E4doitERKS5_ = comdat any

$_ZN4llvh16cast_convert_valIN6hermes6ESTree23EmptyTypeAnnotationNodeEPNS2_4NodeES5_E4doitERKS5_ = comdat any

$_ZN4llvh16cast_convert_valIN6hermes6ESTree24StringTypeAnnotationNodeEPNS2_4NodeES5_E4doitERKS5_ = comdat any

$_ZN4llvh16cast_convert_valIN6hermes6ESTree24NumberTypeAnnotationNodeEPNS2_4NodeES5_E4doitERKS5_ = comdat any

$_ZN4llvh16cast_convert_valIN6hermes6ESTree31StringLiteralTypeAnnotationNodeEPNS2_4NodeES5_E4doitERKS5_ = comdat any

$_ZN4llvh16cast_convert_valIN6hermes6ESTree31NumberLiteralTypeAnnotationNodeEPNS2_4NodeES5_E4doitERKS5_ = comdat any

$_ZN4llvh16cast_convert_valIN6hermes6ESTree31BigIntLiteralTypeAnnotationNodeEPNS2_4NodeES5_E4doitERKS5_ = comdat any

$_ZN4llvh16cast_convert_valIN6hermes6ESTree25BooleanTypeAnnotationNodeEPNS2_4NodeES5_E4doitERKS5_ = comdat any

$_ZN4llvh16cast_convert_valIN6hermes6ESTree32BooleanLiteralTypeAnnotationNodeEPNS2_4NodeES5_E4doitERKS5_ = comdat any

$_ZN4llvh16cast_convert_valIN6hermes6ESTree29NullLiteralTypeAnnotationNodeEPNS2_4NodeES5_E4doitERKS5_ = comdat any

$_ZN4llvh16cast_convert_valIN6hermes6ESTree24SymbolTypeAnnotationNodeEPNS2_4NodeES5_E4doitERKS5_ = comdat any

$_ZN4llvh16cast_convert_valIN6hermes6ESTree21AnyTypeAnnotationNodeEPNS2_4NodeES5_E4doitERKS5_ = comdat any

$_ZN4llvh16cast_convert_valIN6hermes6ESTree23MixedTypeAnnotationNodeEPNS2_4NodeES5_E4doitERKS5_ = comdat any

$_ZN4llvh16cast_convert_valIN6hermes6ESTree24BigIntTypeAnnotationNodeEPNS2_4NodeES5_E4doitERKS5_ = comdat any

$_ZN4llvh16cast_convert_valIN6hermes6ESTree22VoidTypeAnnotationNodeEPNS2_4NodeES5_E4doitERKS5_ = comdat any

$_ZN4llvh16cast_convert_valIN6hermes6ESTree26FunctionTypeAnnotationNodeEPNS2_4NodeES5_E4doitERKS5_ = comdat any

$_ZN4llvh16cast_convert_valIN6hermes6ESTree21FunctionTypeParamNodeEPNS2_4NodeES5_E4doitERKS5_ = comdat any

$_ZN4llvh16cast_convert_valIN6hermes6ESTree27ComponentTypeAnnotationNodeEPNS2_4NodeES5_E4doitERKS5_ = comdat any

$_ZN4llvh16cast_convert_valIN6hermes6ESTree26ComponentTypeParameterNodeEPNS2_4NodeES5_E4doitERKS5_ = comdat any

$_ZN4llvh16cast_convert_valIN6hermes6ESTree26NullableTypeAnnotationNodeEPNS2_4NodeES5_E4doitERKS5_ = comdat any

$_ZN4llvh16cast_convert_valIN6hermes6ESTree27QualifiedTypeIdentifierNodeEPNS2_4NodeES5_E4doitERKS5_ = comdat any

$_ZN4llvh16cast_convert_valIN6hermes6ESTree24TypeofTypeAnnotationNodeEPNS2_4NodeES5_E4doitERKS5_ = comdat any

$_ZN4llvh16cast_convert_valIN6hermes6ESTree23KeyofTypeAnnotationNodeEPNS2_4NodeES5_E4doitERKS5_ = comdat any

$_ZN4llvh16cast_convert_valIN6hermes6ESTree16TypeOperatorNodeEPNS2_4NodeES5_E4doitERKS5_ = comdat any

$_ZN4llvh16cast_convert_valIN6hermes6ESTree29QualifiedTypeofIdentifierNodeEPNS2_4NodeES5_E4doitERKS5_ = comdat any

$_ZN4llvh16cast_convert_valIN6hermes6ESTree23TupleTypeAnnotationNodeEPNS2_4NodeES5_E4doitERKS5_ = comdat any

$_ZN4llvh16cast_convert_valIN6hermes6ESTree26TupleTypeSpreadElementNodeEPNS2_4NodeES5_E4doitERKS5_ = comdat any

$_ZN4llvh16cast_convert_valIN6hermes6ESTree27TupleTypeLabeledElementNodeEPNS2_4NodeES5_E4doitERKS5_ = comdat any

$_ZN4llvh16cast_convert_valIN6hermes6ESTree23ArrayTypeAnnotationNodeEPNS2_4NodeES5_E4doitERKS5_ = comdat any

$_ZN4llvh16cast_convert_valIN6hermes6ESTree23InferTypeAnnotationNodeEPNS2_4NodeES5_E4doitERKS5_ = comdat any

$_ZN4llvh16cast_convert_valIN6hermes6ESTree23UnionTypeAnnotationNodeEPNS2_4NodeES5_E4doitERKS5_ = comdat any

$_ZN4llvh16cast_convert_valIN6hermes6ESTree30IntersectionTypeAnnotationNodeEPNS2_4NodeES5_E4doitERKS5_ = comdat any

$_ZN4llvh16cast_convert_valIN6hermes6ESTree25GenericTypeAnnotationNodeEPNS2_4NodeES5_E4doitERKS5_ = comdat any

$_ZN4llvh16cast_convert_valIN6hermes6ESTree21IndexedAccessTypeNodeEPNS2_4NodeES5_E4doitERKS5_ = comdat any

$_ZN4llvh16cast_convert_valIN6hermes6ESTree29OptionalIndexedAccessTypeNodeEPNS2_4NodeES5_E4doitERKS5_ = comdat any

$_ZN4llvh16cast_convert_valIN6hermes6ESTree29ConditionalTypeAnnotationNodeEPNS2_4NodeES5_E4doitERKS5_ = comdat any

$_ZN4llvh16cast_convert_valIN6hermes6ESTree17TypePredicateNodeEPNS2_4NodeES5_E4doitERKS5_ = comdat any

$_ZN4llvh16cast_convert_valIN6hermes6ESTree27InterfaceTypeAnnotationNodeEPNS2_4NodeES5_E4doitERKS5_ = comdat any

$_ZN4llvh16cast_convert_valIN6hermes6ESTree13TypeAliasNodeEPNS2_4NodeES5_E4doitERKS5_ = comdat any

$_ZN4llvh16cast_convert_valIN6hermes6ESTree14OpaqueTypeNodeEPNS2_4NodeES5_E4doitERKS5_ = comdat any

$_ZN4llvh16cast_convert_valIN6hermes6ESTree24InterfaceDeclarationNodeEPNS2_4NodeES5_E4doitERKS5_ = comdat any

$_ZN4llvh16cast_convert_valIN6hermes6ESTree20DeclareTypeAliasNodeEPNS2_4NodeES5_E4doitERKS5_ = comdat any

$_ZN4llvh16cast_convert_valIN6hermes6ESTree21DeclareOpaqueTypeNodeEPNS2_4NodeES5_E4doitERKS5_ = comdat any

$_ZN4llvh16cast_convert_valIN6hermes6ESTree20DeclareInterfaceNodeEPNS2_4NodeES5_E4doitERKS5_ = comdat any

$_ZN4llvh16cast_convert_valIN6hermes6ESTree16DeclareClassNodeEPNS2_4NodeES5_E4doitERKS5_ = comdat any

$_ZN4llvh16cast_convert_valIN6hermes6ESTree19DeclareFunctionNodeEPNS2_4NodeES5_E4doitERKS5_ = comdat any

$_ZN4llvh16cast_convert_valIN6hermes6ESTree20DeclareComponentNodeEPNS2_4NodeES5_E4doitERKS5_ = comdat any

$_ZN4llvh16cast_convert_valIN6hermes6ESTree19DeclareVariableNodeEPNS2_4NodeES5_E4doitERKS5_ = comdat any

$_ZN4llvh16cast_convert_valIN6hermes6ESTree15DeclareEnumNodeEPNS2_4NodeES5_E4doitERKS5_ = comdat any

$_ZN4llvh16cast_convert_valIN6hermes6ESTree28DeclareExportDeclarationNodeEPNS2_4NodeES5_E4doitERKS5_ = comdat any

$_ZN4llvh16cast_convert_valIN6hermes6ESTree31DeclareExportAllDeclarationNodeEPNS2_4NodeES5_E4doitERKS5_ = comdat any

$_ZN4llvh16cast_convert_valIN6hermes6ESTree17DeclareModuleNodeEPNS2_4NodeES5_E4doitERKS5_ = comdat any

$_ZN4llvh16cast_convert_valIN6hermes6ESTree24DeclareModuleExportsNodeEPNS2_4NodeES5_E4doitERKS5_ = comdat any

$_ZN4llvh16cast_convert_valIN6hermes6ESTree20InterfaceExtendsNodeEPNS2_4NodeES5_E4doitERKS5_ = comdat any

$_ZN4llvh16cast_convert_valIN6hermes6ESTree19ClassImplementsNodeEPNS2_4NodeES5_E4doitERKS5_ = comdat any

$_ZN4llvh16cast_convert_valIN6hermes6ESTree18TypeAnnotationNodeEPNS2_4NodeES5_E4doitERKS5_ = comdat any

$_ZN4llvh16cast_convert_valIN6hermes6ESTree24ObjectTypeAnnotationNodeEPNS2_4NodeES5_E4doitERKS5_ = comdat any

$_ZN4llvh16cast_convert_valIN6hermes6ESTree22ObjectTypePropertyNodeEPNS2_4NodeES5_E4doitERKS5_ = comdat any

$_ZN4llvh16cast_convert_valIN6hermes6ESTree28ObjectTypeSpreadPropertyNodeEPNS2_4NodeES5_E4doitERKS5_ = comdat any

$_ZN4llvh16cast_convert_valIN6hermes6ESTree26ObjectTypeInternalSlotNodeEPNS2_4NodeES5_E4doitERKS5_ = comdat any

$_ZN4llvh16cast_convert_valIN6hermes6ESTree26ObjectTypeCallPropertyNodeEPNS2_4NodeES5_E4doitERKS5_ = comdat any

$_ZN4llvh16cast_convert_valIN6hermes6ESTree21ObjectTypeIndexerNodeEPNS2_4NodeES5_E4doitERKS5_ = comdat any

$_ZN4llvh16cast_convert_valIN6hermes6ESTree32ObjectTypeMappedTypePropertyNodeEPNS2_4NodeES5_E4doitERKS5_ = comdat any

$_ZN4llvh16cast_convert_valIN6hermes6ESTree12VarianceNodeEPNS2_4NodeES5_E4doitERKS5_ = comdat any

$_ZN4llvh16cast_convert_valIN6hermes6ESTree28TypeParameterDeclarationNodeEPNS2_4NodeES5_E4doitERKS5_ = comdat any

$_ZN4llvh16cast_convert_valIN6hermes6ESTree17TypeParameterNodeEPNS2_4NodeES5_E4doitERKS5_ = comdat any

$_ZN4llvh16cast_convert_valIN6hermes6ESTree30TypeParameterInstantiationNodeEPNS2_4NodeES5_E4doitERKS5_ = comdat any

$_ZN4llvh16cast_convert_valIN6hermes6ESTree22TypeCastExpressionNodeEPNS2_4NodeES5_E4doitERKS5_ = comdat any

$_ZN4llvh16cast_convert_valIN6hermes6ESTree16AsExpressionNodeEPNS2_4NodeES5_E4doitERKS5_ = comdat any

$_ZN4llvh16cast_convert_valIN6hermes6ESTree21InferredPredicateNodeEPNS2_4NodeES5_E4doitERKS5_ = comdat any

$_ZN4llvh16cast_convert_valIN6hermes6ESTree21DeclaredPredicateNodeEPNS2_4NodeES5_E4doitERKS5_ = comdat any

$_ZN4llvh16cast_convert_valIN6hermes6ESTree19EnumDeclarationNodeEPNS2_4NodeES5_E4doitERKS5_ = comdat any

$_ZN4llvh16cast_convert_valIN6hermes6ESTree18EnumStringBodyNodeEPNS2_4NodeES5_E4doitERKS5_ = comdat any

$_ZN4llvh16cast_convert_valIN6hermes6ESTree18EnumNumberBodyNodeEPNS2_4NodeES5_E4doitERKS5_ = comdat any

$_ZN4llvh16cast_convert_valIN6hermes6ESTree19EnumBooleanBodyNodeEPNS2_4NodeES5_E4doitERKS5_ = comdat any

$_ZN4llvh16cast_convert_valIN6hermes6ESTree18EnumSymbolBodyNodeEPNS2_4NodeES5_E4doitERKS5_ = comdat any

$_ZN4llvh16cast_convert_valIN6hermes6ESTree23EnumDefaultedMemberNodeEPNS2_4NodeES5_E4doitERKS5_ = comdat any

$_ZN4llvh16cast_convert_valIN6hermes6ESTree20EnumStringMemberNodeEPNS2_4NodeES5_E4doitERKS5_ = comdat any

$_ZN4llvh16cast_convert_valIN6hermes6ESTree20EnumNumberMemberNodeEPNS2_4NodeES5_E4doitERKS5_ = comdat any

$_ZN4llvh16cast_convert_valIN6hermes6ESTree21EnumBooleanMemberNodeEPNS2_4NodeES5_E4doitERKS5_ = comdat any

$_ZN4llvh16cast_convert_valIN6hermes6ESTree22ComponentParameterNodeEPNS2_4NodeES5_E4doitERKS5_ = comdat any

$_ZN4llvh16cast_convert_valIN6hermes6ESTree20TSTypeAnnotationNodeEPNS2_4NodeES5_E4doitERKS5_ = comdat any

$_ZN4llvh16cast_convert_valIN6hermes6ESTree16TSAnyKeywordNodeEPNS2_4NodeES5_E4doitERKS5_ = comdat any

$_ZN4llvh16cast_convert_valIN6hermes6ESTree19TSNumberKeywordNodeEPNS2_4NodeES5_E4doitERKS5_ = comdat any

$_ZN4llvh16cast_convert_valIN6hermes6ESTree20TSBooleanKeywordNodeEPNS2_4NodeES5_E4doitERKS5_ = comdat any

$_ZN4llvh16cast_convert_valIN6hermes6ESTree19TSStringKeywordNodeEPNS2_4NodeES5_E4doitERKS5_ = comdat any

$_ZN4llvh16cast_convert_valIN6hermes6ESTree19TSSymbolKeywordNodeEPNS2_4NodeES5_E4doitERKS5_ = comdat any

$_ZN4llvh16cast_convert_valIN6hermes6ESTree17TSVoidKeywordNodeEPNS2_4NodeES5_E4doitERKS5_ = comdat any

$_ZN4llvh16cast_convert_valIN6hermes6ESTree22TSUndefinedKeywordNodeEPNS2_4NodeES5_E4doitERKS5_ = comdat any

$_ZN4llvh16cast_convert_valIN6hermes6ESTree20TSUnknownKeywordNodeEPNS2_4NodeES5_E4doitERKS5_ = comdat any

$_ZN4llvh16cast_convert_valIN6hermes6ESTree18TSNeverKeywordNodeEPNS2_4NodeES5_E4doitERKS5_ = comdat any

$_ZN4llvh16cast_convert_valIN6hermes6ESTree19TSBigIntKeywordNodeEPNS2_4NodeES5_E4doitERKS5_ = comdat any

$_ZN4llvh16cast_convert_valIN6hermes6ESTree14TSThisTypeNodeEPNS2_4NodeES5_E4doitERKS5_ = comdat any

$_ZN4llvh16cast_convert_valIN6hermes6ESTree17TSLiteralTypeNodeEPNS2_4NodeES5_E4doitERKS5_ = comdat any

$_ZN4llvh16cast_convert_valIN6hermes6ESTree23TSIndexedAccessTypeNodeEPNS2_4NodeES5_E4doitERKS5_ = comdat any

$_ZN4llvh16cast_convert_valIN6hermes6ESTree15TSArrayTypeNodeEPNS2_4NodeES5_E4doitERKS5_ = comdat any

$_ZN4llvh16cast_convert_valIN6hermes6ESTree19TSTypeReferenceNodeEPNS2_4NodeES5_E4doitERKS5_ = comdat any

$_ZN4llvh16cast_convert_valIN6hermes6ESTree19TSQualifiedNameNodeEPNS2_4NodeES5_E4doitERKS5_ = comdat any

$_ZN4llvh16cast_convert_valIN6hermes6ESTree18TSFunctionTypeNodeEPNS2_4NodeES5_E4doitERKS5_ = comdat any

$_ZN4llvh16cast_convert_valIN6hermes6ESTree21TSConstructorTypeNodeEPNS2_4NodeES5_E4doitERKS5_ = comdat any

$_ZN4llvh16cast_convert_valIN6hermes6ESTree19TSTypePredicateNodeEPNS2_4NodeES5_E4doitERKS5_ = comdat any

$_ZN4llvh16cast_convert_valIN6hermes6ESTree15TSTupleTypeNodeEPNS2_4NodeES5_E4doitERKS5_ = comdat any

$_ZN4llvh16cast_convert_valIN6hermes6ESTree19TSTypeAssertionNodeEPNS2_4NodeES5_E4doitERKS5_ = comdat any

$_ZN4llvh16cast_convert_valIN6hermes6ESTree18TSAsExpressionNodeEPNS2_4NodeES5_E4doitERKS5_ = comdat any

$_ZN4llvh16cast_convert_valIN6hermes6ESTree23TSParameterPropertyNodeEPNS2_4NodeES5_E4doitERKS5_ = comdat any

$_ZN4llvh16cast_convert_valIN6hermes6ESTree26TSTypeAliasDeclarationNodeEPNS2_4NodeES5_E4doitERKS5_ = comdat any

$_ZN4llvh16cast_convert_valIN6hermes6ESTree26TSInterfaceDeclarationNodeEPNS2_4NodeES5_E4doitERKS5_ = comdat any

$_ZN4llvh16cast_convert_valIN6hermes6ESTree23TSInterfaceHeritageNodeEPNS2_4NodeES5_E4doitERKS5_ = comdat any

$_ZN4llvh16cast_convert_valIN6hermes6ESTree19TSInterfaceBodyNodeEPNS2_4NodeES5_E4doitERKS5_ = comdat any

$_ZN4llvh16cast_convert_valIN6hermes6ESTree21TSEnumDeclarationNodeEPNS2_4NodeES5_E4doitERKS5_ = comdat any

$_ZN4llvh16cast_convert_valIN6hermes6ESTree16TSEnumMemberNodeEPNS2_4NodeES5_E4doitERKS5_ = comdat any

$_ZN4llvh16cast_convert_valIN6hermes6ESTree23TSModuleDeclarationNodeEPNS2_4NodeES5_E4doitERKS5_ = comdat any

$_ZN4llvh16cast_convert_valIN6hermes6ESTree17TSModuleBlockNodeEPNS2_4NodeES5_E4doitERKS5_ = comdat any

$_ZN4llvh16cast_convert_valIN6hermes6ESTree18TSModuleMemberNodeEPNS2_4NodeES5_E4doitERKS5_ = comdat any

$_ZN4llvh16cast_convert_valIN6hermes6ESTree30TSTypeParameterDeclarationNodeEPNS2_4NodeES5_E4doitERKS5_ = comdat any

$_ZN4llvh16cast_convert_valIN6hermes6ESTree19TSTypeParameterNodeEPNS2_4NodeES5_E4doitERKS5_ = comdat any

$_ZN4llvh16cast_convert_valIN6hermes6ESTree32TSTypeParameterInstantiationNodeEPNS2_4NodeES5_E4doitERKS5_ = comdat any

$_ZN4llvh16cast_convert_valIN6hermes6ESTree15TSUnionTypeNodeEPNS2_4NodeES5_E4doitERKS5_ = comdat any

$_ZN4llvh16cast_convert_valIN6hermes6ESTree22TSIntersectionTypeNodeEPNS2_4NodeES5_E4doitERKS5_ = comdat any

$_ZN4llvh16cast_convert_valIN6hermes6ESTree15TSTypeQueryNodeEPNS2_4NodeES5_E4doitERKS5_ = comdat any

$_ZN4llvh16cast_convert_valIN6hermes6ESTree21TSConditionalTypeNodeEPNS2_4NodeES5_E4doitERKS5_ = comdat any

$_ZN4llvh16cast_convert_valIN6hermes6ESTree17TSTypeLiteralNodeEPNS2_4NodeES5_E4doitERKS5_ = comdat any

$_ZN4llvh16cast_convert_valIN6hermes6ESTree23TSPropertySignatureNodeEPNS2_4NodeES5_E4doitERKS5_ = comdat any

$_ZN4llvh16cast_convert_valIN6hermes6ESTree21TSMethodSignatureNodeEPNS2_4NodeES5_E4doitERKS5_ = comdat any

$_ZN4llvh16cast_convert_valIN6hermes6ESTree20TSIndexSignatureNodeEPNS2_4NodeES5_E4doitERKS5_ = comdat any

$_ZN4llvh16cast_convert_valIN6hermes6ESTree30TSCallSignatureDeclarationNodeEPNS2_4NodeES5_E4doitERKS5_ = comdat any

$_ZN4llvh16cast_convert_valIN6hermes6ESTree15TSModifiersNodeEPNS2_4NodeES5_E4doitERKS5_ = comdat any

$_ZN4llvh16cast_convert_valIN6hermes6ESTree18CoverEmptyArgsNodeEPNS2_4NodeES5_E4doitERKS5_ = comdat any

$_ZN4llvh16cast_convert_valIN6hermes6ESTree22CoverTrailingCommaNodeEPNS2_4NodeES5_E4doitERKS5_ = comdat any

$_ZN4llvh16cast_convert_valIN6hermes6ESTree20CoverInitializerNodeEPNS2_4NodeES5_E4doitERKS5_ = comdat any

$_ZN4llvh16cast_convert_valIN6hermes6ESTree20CoverRestElementNodeEPNS2_4NodeES5_E4doitERKS5_ = comdat any

$_ZN4llvh16cast_convert_valIN6hermes6ESTree24CoverTypedIdentifierNodeEPNS2_4NodeES5_E4doitERKS5_ = comdat any

$_ZN6hermes6ESTree10UnmodifiedE = comdat any

$_ZSt14in_place_indexILm0EE = comdat any

$_ZSt14in_place_indexILm2EE = comdat any

$_ZSt14in_place_indexILm1EE = comdat any

$_ZZN4llvh7hashing6detail18get_execution_seedEvE4seed = comdat any

$_ZGVZN4llvh7hashing6detail18get_execution_seedEvE4seed = comdat any

@.str = private unnamed_addr constant [4 x i8] c"var\00", align 1
@.str.1 = private unnamed_addr constant [26 x i8] c"Allocation size overflow.\00", align 1
@_ZN6hermes6ESTree10UnmodifiedE = linkonce_odr hidden global %"struct.hermes::ESTree::UnmodifiedT" zeroinitializer, comdat, align 1
@_ZSt14in_place_indexILm0EE = linkonce_odr constant %"struct.std::in_place_index_t" zeroinitializer, comdat, align 1
@__const._ZSt24__find_uniq_type_in_packIPN6hermes6ESTree4NodeEJNS1_11UnmodifiedTENS1_8RemovedTES3_EEmv.__found = private unnamed_addr constant [3 x i8] c"\00\00\01", align 1
@.str.2 = private unnamed_addr constant [31 x i8] c"std::get: variant is valueless\00", align 1
@.str.3 = private unnamed_addr constant [34 x i8] c"std::get: wrong index for variant\00", align 1
@__const._ZSt24__find_uniq_type_in_packIN6hermes6ESTree11UnmodifiedTEJS2_NS1_8RemovedTEPNS1_4NodeEEEmv.__found = private unnamed_addr constant [3 x i8] c"\01\00\00", align 1
@__const._ZSt24__find_uniq_type_in_packIN6hermes6ESTree8RemovedTEJNS1_11UnmodifiedTES2_PNS1_4NodeEEEmv.__found = private unnamed_addr constant [3 x i8] c"\00\01\00", align 1
@.str.4 = private unnamed_addr constant [5 x i8] c"call\00", align 1
@_ZSt14in_place_indexILm2EE = linkonce_odr constant %"struct.std::in_place_index_t.49" zeroinitializer, comdat, align 1
@_ZSt14in_place_indexILm1EE = linkonce_odr constant %"struct.std::in_place_index_t.50" zeroinitializer, comdat, align 1
@.str.5 = private unnamed_addr constant [10 x i8] c"prototype\00", align 1
@.str.6 = private unnamed_addr constant [8 x i8] c"Reflect\00", align 1
@.str.7 = private unnamed_addr constant [4 x i8] c"get\00", align 1
@.str.8 = private unnamed_addr constant [12 x i8] c"__clsExpr__\00", align 1
@.str.9 = private unnamed_addr constant [10 x i8] c"__super__\00", align 1
@.str.10 = private unnamed_addr constant [12 x i8] c"defineClass\00", align 1
@.str.11 = private unnamed_addr constant [25 x i8] c"Invalid ES6 class member\00", align 1
@.str.12 = private unnamed_addr constant [12 x i8] c"constructor\00", align 1
@.str.13 = private unnamed_addr constant [7 x i8] c"method\00", align 1
@.str.14 = private unnamed_addr constant [4 x i8] c"set\00", align 1
@_ZZN4llvh7hashing6detail18get_execution_seedEvE4seed = linkonce_odr hidden global i64 0, comdat, align 8
@_ZGVZN4llvh7hashing6detail18get_execution_seedEvE4seed = linkonce_odr hidden global i64 0, comdat, align 8
@_ZN4llvh7hashing6detail19fixed_seed_overrideE = external global i64, align 8
@.str.15 = private unnamed_addr constant [10 x i8] c"arguments\00", align 1
@.str.16 = private unnamed_addr constant [2 x i8] c"=\00", align 1
@.str.17 = private unnamed_addr constant [18 x i8] c"HermesES6Internal\00", align 1
@.str.18 = private unnamed_addr constant [24 x i8] c"defineStaticClassMethod\00", align 1
@.str.19 = private unnamed_addr constant [18 x i8] c"defineClassMethod\00", align 1
@.str.20 = private unnamed_addr constant [26 x i8] c"defineStaticClassProperty\00", align 1
@.str.21 = private unnamed_addr constant [20 x i8] c"defineClassProperty\00", align 1
@.str.22 = private unnamed_addr constant [10 x i8] c"undefined\00", align 1

; Function Attrs: mustprogress nounwind uwtable
define hidden void @_ZN6hermes19transformES6ClassesERNS_7ContextEPNS_6ESTree4NodeE(ptr noundef nonnull align 8 dereferenceable(656) %context, ptr noundef %node) #0 {
entry:
  %context.addr = alloca ptr, align 8
  %node.addr = alloca ptr, align 8
  %transformations = alloca %"class.hermes::ES6ClassesTransformations", align 8
  store ptr %context, ptr %context.addr, align 8
  store ptr %node, ptr %node.addr, align 8
  %0 = load ptr, ptr %context.addr, align 8
  call void @_ZN6hermes25ES6ClassesTransformationsC2ERNS_7ContextE(ptr noundef nonnull align 8 dereferenceable(32) %transformations, ptr noundef nonnull align 8 dereferenceable(656) %0)
  %1 = load ptr, ptr %node.addr, align 8
  call void @_ZN6hermes6ESTree15visitESTreeNodeINS_25ES6ClassesTransformationsEEEvRT_PNS0_4NodeES6_(ptr noundef nonnull align 8 dereferenceable(32) %transformations, ptr noundef %1, ptr noundef null)
  ret void
}

; Function Attrs: mustprogress nounwind uwtable
define linkonce_odr hidden void @_ZN6hermes25ES6ClassesTransformationsC2ERNS_7ContextE(ptr noundef nonnull align 8 dereferenceable(32) %this, ptr noundef nonnull align 8 dereferenceable(656) %context) unnamed_addr #0 comdat align 2 {
entry:
  %this.addr.i = alloca ptr, align 8
  %Str.addr.i = alloca ptr, align 8
  %this.addr = alloca ptr, align 8
  %context.addr = alloca ptr, align 8
  %ref.tmp = alloca %"class.hermes::Identifier", align 8
  %agg.tmp = alloca %"class.llvh::StringRef", align 8
  store ptr %this, ptr %this.addr, align 8
  store ptr %context, ptr %context.addr, align 8
  %this1 = load ptr, ptr %this.addr, align 8
  %context_ = getelementptr inbounds %"class.hermes::ES6ClassesTransformations", ptr %this1, i32 0, i32 0
  %0 = load ptr, ptr %context.addr, align 8
  store ptr %0, ptr %context_, align 8
  %identVar_ = getelementptr inbounds %"class.hermes::ES6ClassesTransformations", ptr %this1, i32 0, i32 1
  %1 = load ptr, ptr %context.addr, align 8
  store ptr %agg.tmp, ptr %this.addr.i, align 8
  store ptr @.str, ptr %Str.addr.i, align 8
  %this1.i = load ptr, ptr %this.addr.i, align 8
  %2 = load ptr, ptr %Str.addr.i, align 8
  store ptr %2, ptr %this1.i, align 8
  %Length.i = getelementptr inbounds %"class.llvh::StringRef", ptr %this1.i, i32 0, i32 1
  %3 = load ptr, ptr %Str.addr.i, align 8
  %tobool.i = icmp ne ptr %3, null
  br i1 %tobool.i, label %cond.true.i, label %cond.false.i

cond.true.i:                                      ; preds = %entry
  %4 = load ptr, ptr %Str.addr.i, align 8
  %call.i = call i64 @strlen(ptr noundef %4) #11
  br label %_ZN4llvh9StringRefC2EPKc.exit

cond.false.i:                                     ; preds = %entry
  br label %_ZN4llvh9StringRefC2EPKc.exit

_ZN4llvh9StringRefC2EPKc.exit:                    ; preds = %cond.false.i, %cond.true.i
  %cond.i = phi i64 [ %call.i, %cond.true.i ], [ 0, %cond.false.i ]
  store i64 %cond.i, ptr %Length.i, align 8
  %5 = getelementptr inbounds { ptr, i64 }, ptr %agg.tmp, i32 0, i32 0
  %6 = load ptr, ptr %5, align 8
  %7 = getelementptr inbounds { ptr, i64 }, ptr %agg.tmp, i32 0, i32 1
  %8 = load i64, ptr %7, align 8
  %call = call ptr @_ZN6hermes7Context13getIdentifierEN4llvh9StringRefE(ptr noundef nonnull align 8 dereferenceable(656) %1, ptr %6, i64 %8)
  %coerce.dive = getelementptr inbounds %"class.hermes::Identifier", ptr %ref.tmp, i32 0, i32 0
  store ptr %call, ptr %coerce.dive, align 8
  %call2 = call noundef ptr @_ZNK6hermes10Identifier20getUnderlyingPointerEv(ptr noundef nonnull align 8 dereferenceable(8) %ref.tmp)
  store ptr %call2, ptr %identVar_, align 8
  %_currentProcessingClass = getelementptr inbounds %"class.hermes::ES6ClassesTransformations", ptr %this1, i32 0, i32 2
  store ptr null, ptr %_currentProcessingClass, align 8
  %_currentClassMember = getelementptr inbounds %"class.hermes::ES6ClassesTransformations", ptr %this1, i32 0, i32 3
  store ptr null, ptr %_currentClassMember, align 8
  ret void
}

; Function Attrs: mustprogress nounwind uwtable
define linkonce_odr hidden void @_ZN6hermes6ESTree15visitESTreeNodeINS_25ES6ClassesTransformationsEEEvRT_PNS0_4NodeES6_(ptr noundef nonnull align 8 dereferenceable(32) %v, ptr noundef %node, ptr noundef %parent) #0 comdat {
entry:
  %v.addr = alloca ptr, align 8
  %node.addr = alloca ptr, align 8
  %parent.addr = alloca ptr, align 8
  %coerce = alloca %"class.std::variant", align 8
  store ptr %v, ptr %v.addr, align 8
  store ptr %node, ptr %node.addr, align 8
  store ptr %parent, ptr %parent.addr, align 8
  %0 = load ptr, ptr %v.addr, align 8
  %1 = load ptr, ptr %node.addr, align 8
  %2 = load ptr, ptr %parent.addr, align 8
  %call = call { ptr, i8 } @_ZN6hermes6ESTree24RecursiveVisitorDispatchINS_25ES6ClassesTransformationsELb0EE5visitERS2_PNS0_4NodeES6_(ptr noundef nonnull align 8 dereferenceable(32) %0, ptr noundef %1, ptr noundef %2)
  %3 = getelementptr inbounds { ptr, i8 }, ptr %coerce, i32 0, i32 0
  %4 = extractvalue { ptr, i8 } %call, 0
  store ptr %4, ptr %3, align 8
  %5 = getelementptr inbounds { ptr, i8 }, ptr %coerce, i32 0, i32 1
  %6 = extractvalue { ptr, i8 } %call, 1
  store i8 %6, ptr %5, align 8
  ret void
}

; Function Attrs: mustprogress nounwind uwtable
define linkonce_odr hidden ptr @_ZN6hermes7Context13getIdentifierEN4llvh9StringRefE(ptr noundef nonnull align 8 dereferenceable(656) %this, ptr %str.coerce0, i64 %str.coerce1) #0 comdat align 2 {
entry:
  %retval = alloca %"class.hermes::Identifier", align 8
  %str = alloca %"class.llvh::StringRef", align 8
  %this.addr = alloca ptr, align 8
  %agg.tmp = alloca %"class.llvh::StringRef", align 8
  %0 = getelementptr inbounds { ptr, i64 }, ptr %str, i32 0, i32 0
  store ptr %str.coerce0, ptr %0, align 8
  %1 = getelementptr inbounds { ptr, i64 }, ptr %str, i32 0, i32 1
  store i64 %str.coerce1, ptr %1, align 8
  store ptr %this, ptr %this.addr, align 8
  %this1 = load ptr, ptr %this.addr, align 8
  %stringTable_ = getelementptr inbounds %"class.hermes::Context", ptr %this1, i32 0, i32 3
  call void @llvm.memcpy.p0.p0.i64(ptr align 8 %agg.tmp, ptr align 8 %str, i64 16, i1 false)
  %2 = getelementptr inbounds { ptr, i64 }, ptr %agg.tmp, i32 0, i32 0
  %3 = load ptr, ptr %2, align 8
  %4 = getelementptr inbounds { ptr, i64 }, ptr %agg.tmp, i32 0, i32 1
  %5 = load i64, ptr %4, align 8
  %call = call ptr @_ZN6hermes11StringTable13getIdentifierEN4llvh9StringRefE(ptr noundef nonnull align 8 dereferenceable(32) %stringTable_, ptr %3, i64 %5)
  %coerce.dive = getelementptr inbounds %"class.hermes::Identifier", ptr %retval, i32 0, i32 0
  store ptr %call, ptr %coerce.dive, align 8
  %coerce.dive2 = getelementptr inbounds %"class.hermes::Identifier", ptr %retval, i32 0, i32 0
  %6 = load ptr, ptr %coerce.dive2, align 8
  ret ptr %6
}

; Function Attrs: mustprogress nounwind uwtable
define linkonce_odr hidden noundef ptr @_ZNK6hermes10Identifier20getUnderlyingPointerEv(ptr noundef nonnull align 8 dereferenceable(8) %this) #0 comdat align 2 {
entry:
  %this.addr = alloca ptr, align 8
  store ptr %this, ptr %this.addr, align 8
  %this1 = load ptr, ptr %this.addr, align 8
  %ptr_ = getelementptr inbounds %"class.hermes::Identifier", ptr %this1, i32 0, i32 0
  %0 = load ptr, ptr %ptr_, align 8
  ret ptr %0
}

; Function Attrs: mustprogress nounwind uwtable
define linkonce_odr hidden ptr @_ZN6hermes11StringTable13getIdentifierEN4llvh9StringRefE(ptr noundef nonnull align 8 dereferenceable(32) %this, ptr %name.coerce0, i64 %name.coerce1) #0 comdat align 2 {
entry:
  %retval = alloca %"class.hermes::Identifier", align 8
  %name = alloca %"class.llvh::StringRef", align 8
  %this.addr = alloca ptr, align 8
  %agg.tmp = alloca %"class.llvh::StringRef", align 8
  %0 = getelementptr inbounds { ptr, i64 }, ptr %name, i32 0, i32 0
  store ptr %name.coerce0, ptr %0, align 8
  %1 = getelementptr inbounds { ptr, i64 }, ptr %name, i32 0, i32 1
  store i64 %name.coerce1, ptr %1, align 8
  store ptr %this, ptr %this.addr, align 8
  %this1 = load ptr, ptr %this.addr, align 8
  call void @llvm.memcpy.p0.p0.i64(ptr align 8 %agg.tmp, ptr align 8 %name, i64 16, i1 false)
  %2 = getelementptr inbounds { ptr, i64 }, ptr %agg.tmp, i32 0, i32 0
  %3 = load ptr, ptr %2, align 8
  %4 = getelementptr inbounds { ptr, i64 }, ptr %agg.tmp, i32 0, i32 1
  %5 = load i64, ptr %4, align 8
  %call = call noundef ptr @_ZN6hermes11StringTable9getStringEN4llvh9StringRefE(ptr noundef nonnull align 8 dereferenceable(32) %this1, ptr %3, i64 %5)
  %call2 = call ptr @_ZN6hermes10Identifier14getFromPointerEPNS_12UniqueStringE(ptr noundef %call)
  %coerce.dive = getelementptr inbounds %"class.hermes::Identifier", ptr %retval, i32 0, i32 0
  store ptr %call2, ptr %coerce.dive, align 8
  %coerce.dive3 = getelementptr inbounds %"class.hermes::Identifier", ptr %retval, i32 0, i32 0
  %6 = load ptr, ptr %coerce.dive3, align 8
  ret ptr %6
}

; Function Attrs: nocallback nofree nounwind willreturn memory(argmem: readwrite)
declare void @llvm.memcpy.p0.p0.i64(ptr noalias nocapture writeonly, ptr noalias nocapture readonly, i64, i1 immarg) #1

; Function Attrs: mustprogress nounwind uwtable
define linkonce_odr hidden ptr @_ZN6hermes10Identifier14getFromPointerEPNS_12UniqueStringE(ptr noundef %ptr) #0 comdat align 2 {
entry:
  %retval = alloca %"class.hermes::Identifier", align 8
  %ptr.addr = alloca ptr, align 8
  store ptr %ptr, ptr %ptr.addr, align 8
  %0 = load ptr, ptr %ptr.addr, align 8
  call void @_ZN6hermes10IdentifierC2EPNS_12UniqueStringE(ptr noundef nonnull align 8 dereferenceable(8) %retval, ptr noundef %0)
  %coerce.dive = getelementptr inbounds %"class.hermes::Identifier", ptr %retval, i32 0, i32 0
  %1 = load ptr, ptr %coerce.dive, align 8
  ret ptr %1
}

; Function Attrs: mustprogress nounwind uwtable
define linkonce_odr hidden noundef ptr @_ZN6hermes11StringTable9getStringEN4llvh9StringRefE(ptr noundef nonnull align 8 dereferenceable(32) %this, ptr %name.coerce0, i64 %name.coerce1) #0 comdat align 2 {
entry:
  %retval = alloca ptr, align 8
  %name = alloca %"class.llvh::StringRef", align 8
  %this.addr = alloca ptr, align 8
  %it = alloca %"class.llvh::DenseMapIterator", align 8
  %ref.tmp = alloca %"class.llvh::DenseMapIterator", align 8
  %str = alloca ptr, align 8
  %agg.tmp = alloca %"class.llvh::StringRef", align 8
  %agg.tmp8 = alloca %"class.llvh::StringRef", align 8
  %ref.tmp11 = alloca %"struct.std::pair", align 8
  %tmp = alloca %"struct.std::pair.27", align 8
  %0 = getelementptr inbounds { ptr, i64 }, ptr %name, i32 0, i32 0
  store ptr %name.coerce0, ptr %0, align 8
  %1 = getelementptr inbounds { ptr, i64 }, ptr %name, i32 0, i32 1
  store i64 %name.coerce1, ptr %1, align 8
  store ptr %this, ptr %this.addr, align 8
  %this1 = load ptr, ptr %this.addr, align 8
  %strMap_ = getelementptr inbounds %"class.hermes::StringTable", ptr %this1, i32 0, i32 1
  %call = call { ptr, ptr } @_ZN4llvh12DenseMapBaseINS_8DenseMapINS_9StringRefEPN6hermes12UniqueStringENS_12DenseMapInfoIS2_EENS_6detail12DenseMapPairIS2_S5_EEEES2_S5_S7_SA_E4findERKS2_(ptr noundef nonnull align 1 dereferenceable(1) %strMap_, ptr noundef nonnull align 8 dereferenceable(16) %name)
  %2 = getelementptr inbounds { ptr, ptr }, ptr %it, i32 0, i32 0
  %3 = extractvalue { ptr, ptr } %call, 0
  store ptr %3, ptr %2, align 8
  %4 = getelementptr inbounds { ptr, ptr }, ptr %it, i32 0, i32 1
  %5 = extractvalue { ptr, ptr } %call, 1
  store ptr %5, ptr %4, align 8
  %strMap_2 = getelementptr inbounds %"class.hermes::StringTable", ptr %this1, i32 0, i32 1
  %call3 = call { ptr, ptr } @_ZN4llvh12DenseMapBaseINS_8DenseMapINS_9StringRefEPN6hermes12UniqueStringENS_12DenseMapInfoIS2_EENS_6detail12DenseMapPairIS2_S5_EEEES2_S5_S7_SA_E3endEv(ptr noundef nonnull align 1 dereferenceable(1) %strMap_2)
  %6 = getelementptr inbounds { ptr, ptr }, ptr %ref.tmp, i32 0, i32 0
  %7 = extractvalue { ptr, ptr } %call3, 0
  store ptr %7, ptr %6, align 8
  %8 = getelementptr inbounds { ptr, ptr }, ptr %ref.tmp, i32 0, i32 1
  %9 = extractvalue { ptr, ptr } %call3, 1
  store ptr %9, ptr %8, align 8
  %call4 = call noundef zeroext i1 @_ZNK4llvh16DenseMapIteratorINS_9StringRefEPN6hermes12UniqueStringENS_12DenseMapInfoIS1_EENS_6detail12DenseMapPairIS1_S4_EELb0EEneERKSA_(ptr noundef nonnull align 8 dereferenceable(16) %it, ptr noundef nonnull align 8 dereferenceable(16) %ref.tmp)
  br i1 %call4, label %if.then, label %if.end

if.then:                                          ; preds = %entry
  %call5 = call noundef ptr @_ZNK4llvh16DenseMapIteratorINS_9StringRefEPN6hermes12UniqueStringENS_12DenseMapInfoIS1_EENS_6detail12DenseMapPairIS1_S4_EELb0EEptEv(ptr noundef nonnull align 8 dereferenceable(16) %it)
  %second = getelementptr inbounds %"struct.std::pair", ptr %call5, i32 0, i32 1
  %10 = load ptr, ptr %second, align 8
  store ptr %10, ptr %retval, align 8
  br label %return

if.end:                                           ; preds = %entry
  %allocator_ = getelementptr inbounds %"class.hermes::StringTable", ptr %this1, i32 0, i32 0
  %11 = load ptr, ptr %allocator_, align 8
  %call6 = call noundef ptr @_ZN6hermes28BacktrackingBumpPtrAllocator8AllocateINS_12UniqueStringEEEPT_mm(ptr noundef nonnull align 8 dereferenceable(32) %11, i64 noundef 1, i64 noundef 8)
  %allocator_7 = getelementptr inbounds %"class.hermes::StringTable", ptr %this1, i32 0, i32 0
  %12 = load ptr, ptr %allocator_7, align 8
  call void @llvm.memcpy.p0.p0.i64(ptr align 8 %agg.tmp8, ptr align 8 %name, i64 16, i1 false)
  %13 = getelementptr inbounds { ptr, i64 }, ptr %agg.tmp8, i32 0, i32 0
  %14 = load ptr, ptr %13, align 8
  %15 = getelementptr inbounds { ptr, i64 }, ptr %agg.tmp8, i32 0, i32 1
  %16 = load i64, ptr %15, align 8
  %call9 = call { ptr, i64 } @_ZN6hermes13zeroTerminateINS_28BacktrackingBumpPtrAllocatorEEEN4llvh9StringRefERT_S3_(ptr noundef nonnull align 8 dereferenceable(32) %12, ptr %14, i64 %16)
  %17 = getelementptr inbounds { ptr, i64 }, ptr %agg.tmp, i32 0, i32 0
  %18 = extractvalue { ptr, i64 } %call9, 0
  store ptr %18, ptr %17, align 8
  %19 = getelementptr inbounds { ptr, i64 }, ptr %agg.tmp, i32 0, i32 1
  %20 = extractvalue { ptr, i64 } %call9, 1
  store i64 %20, ptr %19, align 8
  %21 = getelementptr inbounds { ptr, i64 }, ptr %agg.tmp, i32 0, i32 0
  %22 = load ptr, ptr %21, align 8
  %23 = getelementptr inbounds { ptr, i64 }, ptr %agg.tmp, i32 0, i32 1
  %24 = load i64, ptr %23, align 8
  call void @_ZN6hermes12UniqueStringC2EN4llvh9StringRefE(ptr noundef nonnull align 8 dereferenceable(16) %call6, ptr %22, i64 %24)
  store ptr %call6, ptr %str, align 8
  %strMap_10 = getelementptr inbounds %"class.hermes::StringTable", ptr %this1, i32 0, i32 1
  %25 = load ptr, ptr %str, align 8
  %call12 = call noundef nonnull align 8 dereferenceable(16) ptr @_ZNK6hermes12UniqueString3strEv(ptr noundef nonnull align 8 dereferenceable(16) %25)
  call void @_ZNSt4pairIN4llvh9StringRefEPN6hermes12UniqueStringEEC2IRKS1_RS4_TnNSt9enable_ifIXaaclsr5_PCCPE22_MoveConstructiblePairIT_T0_EEclsr5_PCCPE30_ImplicitlyMoveConvertiblePairISB_SC_EEEbE4typeELb1EEEOSB_OSC_(ptr noundef nonnull align 8 dereferenceable(24) %ref.tmp11, ptr noundef nonnull align 8 dereferenceable(16) %call12, ptr noundef nonnull align 8 dereferenceable(8) %str)
  call void @_ZN4llvh12DenseMapBaseINS_8DenseMapINS_9StringRefEPN6hermes12UniqueStringENS_12DenseMapInfoIS2_EENS_6detail12DenseMapPairIS2_S5_EEEES2_S5_S7_SA_E6insertEOSt4pairIS2_S5_E(ptr sret(%"struct.std::pair.27") align 8 %tmp, ptr noundef nonnull align 1 dereferenceable(1) %strMap_10, ptr noundef nonnull align 8 dereferenceable(24) %ref.tmp11)
  %26 = load ptr, ptr %str, align 8
  store ptr %26, ptr %retval, align 8
  br label %return

return:                                           ; preds = %if.end, %if.then
  %27 = load ptr, ptr %retval, align 8
  ret ptr %27
}

; Function Attrs: mustprogress nounwind uwtable
define linkonce_odr hidden void @_ZN6hermes10IdentifierC2EPNS_12UniqueStringE(ptr noundef nonnull align 8 dereferenceable(8) %this, ptr noundef %ptr) unnamed_addr #0 comdat align 2 {
entry:
  %this.addr = alloca ptr, align 8
  %ptr.addr = alloca ptr, align 8
  store ptr %this, ptr %this.addr, align 8
  store ptr %ptr, ptr %ptr.addr, align 8
  %this1 = load ptr, ptr %this.addr, align 8
  %ptr_ = getelementptr inbounds %"class.hermes::Identifier", ptr %this1, i32 0, i32 0
  %0 = load ptr, ptr %ptr.addr, align 8
  store ptr %0, ptr %ptr_, align 8
  ret void
}

; Function Attrs: mustprogress nounwind uwtable
define linkonce_odr hidden { ptr, ptr } @_ZN4llvh12DenseMapBaseINS_8DenseMapINS_9StringRefEPN6hermes12UniqueStringENS_12DenseMapInfoIS2_EENS_6detail12DenseMapPairIS2_S5_EEEES2_S5_S7_SA_E4findERKS2_(ptr noundef nonnull align 1 dereferenceable(1) %this, ptr noundef nonnull align 8 dereferenceable(16) %Val) #0 comdat align 2 {
entry:
  %retval = alloca %"class.llvh::DenseMapIterator", align 8
  %this.addr = alloca ptr, align 8
  %Val.addr = alloca ptr, align 8
  %TheBucket = alloca ptr, align 8
  store ptr %this, ptr %this.addr, align 8
  store ptr %Val, ptr %Val.addr, align 8
  %this1 = load ptr, ptr %this.addr, align 8
  %0 = load ptr, ptr %Val.addr, align 8
  %call = call noundef zeroext i1 @_ZN4llvh12DenseMapBaseINS_8DenseMapINS_9StringRefEPN6hermes12UniqueStringENS_12DenseMapInfoIS2_EENS_6detail12DenseMapPairIS2_S5_EEEES2_S5_S7_SA_E15LookupBucketForIS2_EEbRKT_RPSA_(ptr noundef nonnull align 1 dereferenceable(1) %this1, ptr noundef nonnull align 8 dereferenceable(16) %0, ptr noundef nonnull align 8 dereferenceable(8) %TheBucket)
  br i1 %call, label %if.then, label %if.end

if.then:                                          ; preds = %entry
  %1 = load ptr, ptr %TheBucket, align 8
  %call2 = call noundef ptr @_ZN4llvh12DenseMapBaseINS_8DenseMapINS_9StringRefEPN6hermes12UniqueStringENS_12DenseMapInfoIS2_EENS_6detail12DenseMapPairIS2_S5_EEEES2_S5_S7_SA_E13getBucketsEndEv(ptr noundef nonnull align 1 dereferenceable(1) %this1)
  %call3 = call { ptr, ptr } @_ZN4llvh12DenseMapBaseINS_8DenseMapINS_9StringRefEPN6hermes12UniqueStringENS_12DenseMapInfoIS2_EENS_6detail12DenseMapPairIS2_S5_EEEES2_S5_S7_SA_E12makeIteratorEPSA_SD_RNS_14DebugEpochBaseEb(ptr noundef nonnull align 1 dereferenceable(1) %this1, ptr noundef %1, ptr noundef %call2, ptr noundef nonnull align 1 dereferenceable(1) %this1, i1 noundef zeroext true)
  %2 = getelementptr inbounds { ptr, ptr }, ptr %retval, i32 0, i32 0
  %3 = extractvalue { ptr, ptr } %call3, 0
  store ptr %3, ptr %2, align 8
  %4 = getelementptr inbounds { ptr, ptr }, ptr %retval, i32 0, i32 1
  %5 = extractvalue { ptr, ptr } %call3, 1
  store ptr %5, ptr %4, align 8
  br label %return

if.end:                                           ; preds = %entry
  %call4 = call { ptr, ptr } @_ZN4llvh12DenseMapBaseINS_8DenseMapINS_9StringRefEPN6hermes12UniqueStringENS_12DenseMapInfoIS2_EENS_6detail12DenseMapPairIS2_S5_EEEES2_S5_S7_SA_E3endEv(ptr noundef nonnull align 1 dereferenceable(1) %this1)
  %6 = getelementptr inbounds { ptr, ptr }, ptr %retval, i32 0, i32 0
  %7 = extractvalue { ptr, ptr } %call4, 0
  store ptr %7, ptr %6, align 8
  %8 = getelementptr inbounds { ptr, ptr }, ptr %retval, i32 0, i32 1
  %9 = extractvalue { ptr, ptr } %call4, 1
  store ptr %9, ptr %8, align 8
  br label %return

return:                                           ; preds = %if.end, %if.then
  %10 = load { ptr, ptr }, ptr %retval, align 8
  ret { ptr, ptr } %10
}

; Function Attrs: mustprogress nounwind uwtable
define linkonce_odr hidden noundef zeroext i1 @_ZNK4llvh16DenseMapIteratorINS_9StringRefEPN6hermes12UniqueStringENS_12DenseMapInfoIS1_EENS_6detail12DenseMapPairIS1_S4_EELb0EEneERKSA_(ptr noundef nonnull align 8 dereferenceable(16) %this, ptr noundef nonnull align 8 dereferenceable(16) %RHS) #0 comdat align 2 {
entry:
  %this.addr = alloca ptr, align 8
  %RHS.addr = alloca ptr, align 8
  store ptr %this, ptr %this.addr, align 8
  store ptr %RHS, ptr %RHS.addr, align 8
  %this1 = load ptr, ptr %this.addr, align 8
  %0 = load ptr, ptr %RHS.addr, align 8
  %call = call noundef zeroext i1 @_ZNK4llvh16DenseMapIteratorINS_9StringRefEPN6hermes12UniqueStringENS_12DenseMapInfoIS1_EENS_6detail12DenseMapPairIS1_S4_EELb0EEeqERKSA_(ptr noundef nonnull align 8 dereferenceable(16) %this1, ptr noundef nonnull align 8 dereferenceable(16) %0)
  %lnot = xor i1 %call, true
  ret i1 %lnot
}

; Function Attrs: mustprogress nounwind uwtable
define linkonce_odr hidden { ptr, ptr } @_ZN4llvh12DenseMapBaseINS_8DenseMapINS_9StringRefEPN6hermes12UniqueStringENS_12DenseMapInfoIS2_EENS_6detail12DenseMapPairIS2_S5_EEEES2_S5_S7_SA_E3endEv(ptr noundef nonnull align 1 dereferenceable(1) %this) #0 comdat align 2 {
entry:
  %retval = alloca %"class.llvh::DenseMapIterator", align 8
  %this.addr = alloca ptr, align 8
  store ptr %this, ptr %this.addr, align 8
  %this1 = load ptr, ptr %this.addr, align 8
  %call = call noundef ptr @_ZN4llvh12DenseMapBaseINS_8DenseMapINS_9StringRefEPN6hermes12UniqueStringENS_12DenseMapInfoIS2_EENS_6detail12DenseMapPairIS2_S5_EEEES2_S5_S7_SA_E13getBucketsEndEv(ptr noundef nonnull align 1 dereferenceable(1) %this1)
  %call2 = call noundef ptr @_ZN4llvh12DenseMapBaseINS_8DenseMapINS_9StringRefEPN6hermes12UniqueStringENS_12DenseMapInfoIS2_EENS_6detail12DenseMapPairIS2_S5_EEEES2_S5_S7_SA_E13getBucketsEndEv(ptr noundef nonnull align 1 dereferenceable(1) %this1)
  %call3 = call { ptr, ptr } @_ZN4llvh12DenseMapBaseINS_8DenseMapINS_9StringRefEPN6hermes12UniqueStringENS_12DenseMapInfoIS2_EENS_6detail12DenseMapPairIS2_S5_EEEES2_S5_S7_SA_E12makeIteratorEPSA_SD_RNS_14DebugEpochBaseEb(ptr noundef nonnull align 1 dereferenceable(1) %this1, ptr noundef %call, ptr noundef %call2, ptr noundef nonnull align 1 dereferenceable(1) %this1, i1 noundef zeroext true)
  %0 = getelementptr inbounds { ptr, ptr }, ptr %retval, i32 0, i32 0
  %1 = extractvalue { ptr, ptr } %call3, 0
  store ptr %1, ptr %0, align 8
  %2 = getelementptr inbounds { ptr, ptr }, ptr %retval, i32 0, i32 1
  %3 = extractvalue { ptr, ptr } %call3, 1
  store ptr %3, ptr %2, align 8
  %4 = load { ptr, ptr }, ptr %retval, align 8
  ret { ptr, ptr } %4
}

; Function Attrs: mustprogress nounwind uwtable
define linkonce_odr hidden noundef ptr @_ZNK4llvh16DenseMapIteratorINS_9StringRefEPN6hermes12UniqueStringENS_12DenseMapInfoIS1_EENS_6detail12DenseMapPairIS1_S4_EELb0EEptEv(ptr noundef nonnull align 8 dereferenceable(16) %this) #0 comdat align 2 {
entry:
  %retval = alloca ptr, align 8
  %this.addr = alloca ptr, align 8
  store ptr %this, ptr %this.addr, align 8
  %this1 = load ptr, ptr %this.addr, align 8
  %call = call noundef zeroext i1 @_ZN4llvh20shouldReverseIterateINS_9StringRefEEEbv()
  br i1 %call, label %if.then, label %if.end

if.then:                                          ; preds = %entry
  %Ptr = getelementptr inbounds %"class.llvh::DenseMapIterator", ptr %this1, i32 0, i32 0
  %0 = load ptr, ptr %Ptr, align 8
  %arrayidx = getelementptr inbounds %"struct.llvh::detail::DenseMapPair", ptr %0, i64 -1
  store ptr %arrayidx, ptr %retval, align 8
  br label %return

if.end:                                           ; preds = %entry
  %Ptr2 = getelementptr inbounds %"class.llvh::DenseMapIterator", ptr %this1, i32 0, i32 0
  %1 = load ptr, ptr %Ptr2, align 8
  store ptr %1, ptr %retval, align 8
  br label %return

return:                                           ; preds = %if.end, %if.then
  %2 = load ptr, ptr %retval, align 8
  ret ptr %2
}

; Function Attrs: mustprogress nounwind uwtable
define linkonce_odr hidden noundef ptr @_ZN6hermes28BacktrackingBumpPtrAllocator8AllocateINS_12UniqueStringEEEPT_mm(ptr noundef nonnull align 8 dereferenceable(32) %this, i64 noundef %num, i64 noundef %alignment) #0 comdat align 2 {
entry:
  %this.addr = alloca ptr, align 8
  %num.addr = alloca i64, align 8
  %alignment.addr = alloca i64, align 8
  %maxNum = alloca i64, align 8
  %size = alloca i64, align 8
  store ptr %this, ptr %this.addr, align 8
  store i64 %num, ptr %num.addr, align 8
  store i64 %alignment, ptr %alignment.addr, align 8
  %this1 = load ptr, ptr %this.addr, align 8
  store i64 1152921504606846975, ptr %maxNum, align 8
  %0 = load i64, ptr %num.addr, align 8
  %cmp = icmp ugt i64 %0, 1152921504606846975
  br i1 %cmp, label %if.then, label %if.end

if.then:                                          ; preds = %entry
  call void @_ZN6hermes12hermes_fatalEPKc(ptr noundef @.str.1) #12
  unreachable

if.end:                                           ; preds = %entry
  %1 = load i64, ptr %num.addr, align 8
  %mul = mul i64 16, %1
  store i64 %mul, ptr %size, align 8
  %2 = load i64, ptr %size, align 8
  %3 = load i64, ptr %alignment.addr, align 8
  %call = call noundef ptr @_ZN6hermes28BacktrackingBumpPtrAllocator8AllocateEmm(ptr noundef nonnull align 8 dereferenceable(32) %this1, i64 noundef %2, i64 noundef %3)
  ret ptr %call
}

; Function Attrs: mustprogress nounwind uwtable
define linkonce_odr hidden { ptr, i64 } @_ZN6hermes13zeroTerminateINS_28BacktrackingBumpPtrAllocatorEEEN4llvh9StringRefERT_S3_(ptr noundef nonnull align 8 dereferenceable(32) %allocator, ptr %str.coerce0, i64 %str.coerce1) #0 comdat {
entry:
  %this.addr.i9 = alloca ptr, align 8
  %this.addr.i6 = alloca ptr, align 8
  %this.addr.i = alloca ptr, align 8
  %data.addr.i = alloca ptr, align 8
  %length.addr.i = alloca i64, align 8
  %retval = alloca %"class.llvh::StringRef", align 8
  %str = alloca %"class.llvh::StringRef", align 8
  %allocator.addr = alloca ptr, align 8
  %s = alloca ptr, align 8
  %end = alloca ptr, align 8
  %0 = getelementptr inbounds { ptr, i64 }, ptr %str, i32 0, i32 0
  store ptr %str.coerce0, ptr %0, align 8
  %1 = getelementptr inbounds { ptr, i64 }, ptr %str, i32 0, i32 1
  store i64 %str.coerce1, ptr %1, align 8
  store ptr %allocator, ptr %allocator.addr, align 8
  %2 = load ptr, ptr %allocator.addr, align 8
  store ptr %str, ptr %this.addr.i9, align 8
  %this1.i10 = load ptr, ptr %this.addr.i9, align 8
  %Length.i11 = getelementptr inbounds %"class.llvh::StringRef", ptr %this1.i10, i32 0, i32 1
  %3 = load i64, ptr %Length.i11, align 8
  %add = add i64 %3, 1
  %call1 = call noundef ptr @_ZN6hermes28BacktrackingBumpPtrAllocator8AllocateIcEEPT_mm(ptr noundef nonnull align 8 dereferenceable(32) %2, i64 noundef %add, i64 noundef 8)
  store ptr %call1, ptr %s, align 8
  %call2 = call noundef ptr @_ZNK4llvh9StringRef5beginEv(ptr noundef nonnull align 8 dereferenceable(16) %str)
  %call3 = call noundef ptr @_ZNK4llvh9StringRef3endEv(ptr noundef nonnull align 8 dereferenceable(16) %str)
  %4 = load ptr, ptr %s, align 8
  %call4 = call noundef ptr @_ZSt4copyIPKcPcET0_T_S4_S3_(ptr noundef %call2, ptr noundef %call3, ptr noundef %4)
  store ptr %call4, ptr %end, align 8
  %5 = load ptr, ptr %end, align 8
  store i8 0, ptr %5, align 1
  %6 = load ptr, ptr %s, align 8
  store ptr %str, ptr %this.addr.i6, align 8
  %this1.i7 = load ptr, ptr %this.addr.i6, align 8
  %Length.i8 = getelementptr inbounds %"class.llvh::StringRef", ptr %this1.i7, i32 0, i32 1
  %7 = load i64, ptr %Length.i8, align 8
  store ptr %retval, ptr %this.addr.i, align 8
  store ptr %6, ptr %data.addr.i, align 8
  store i64 %7, ptr %length.addr.i, align 8
  %this1.i = load ptr, ptr %this.addr.i, align 8
  %8 = load ptr, ptr %data.addr.i, align 8
  store ptr %8, ptr %this1.i, align 8
  %Length.i = getelementptr inbounds %"class.llvh::StringRef", ptr %this1.i, i32 0, i32 1
  %9 = load i64, ptr %length.addr.i, align 8
  store i64 %9, ptr %Length.i, align 8
  %10 = load { ptr, i64 }, ptr %retval, align 8
  ret { ptr, i64 } %10
}

; Function Attrs: mustprogress nounwind uwtable
define linkonce_odr hidden void @_ZN6hermes12UniqueStringC2EN4llvh9StringRefE(ptr noundef nonnull align 8 dereferenceable(16) %this, ptr %str.coerce0, i64 %str.coerce1) unnamed_addr #0 comdat align 2 {
entry:
  %str = alloca %"class.llvh::StringRef", align 8
  %this.addr = alloca ptr, align 8
  %0 = getelementptr inbounds { ptr, i64 }, ptr %str, i32 0, i32 0
  store ptr %str.coerce0, ptr %0, align 8
  %1 = getelementptr inbounds { ptr, i64 }, ptr %str, i32 0, i32 1
  store i64 %str.coerce1, ptr %1, align 8
  store ptr %this, ptr %this.addr, align 8
  %this1 = load ptr, ptr %this.addr, align 8
  %str_ = getelementptr inbounds %"class.hermes::UniqueString", ptr %this1, i32 0, i32 0
  call void @llvm.memcpy.p0.p0.i64(ptr align 8 %str_, ptr align 8 %str, i64 16, i1 false)
  ret void
}

; Function Attrs: mustprogress nounwind uwtable
define linkonce_odr hidden void @_ZN4llvh12DenseMapBaseINS_8DenseMapINS_9StringRefEPN6hermes12UniqueStringENS_12DenseMapInfoIS2_EENS_6detail12DenseMapPairIS2_S5_EEEES2_S5_S7_SA_E6insertEOSt4pairIS2_S5_E(ptr noalias sret(%"struct.std::pair.27") align 8 %agg.result, ptr noundef nonnull align 1 dereferenceable(1) %this, ptr noundef nonnull align 8 dereferenceable(24) %KV) #0 comdat align 2 {
entry:
  %this.addr = alloca ptr, align 8
  %KV.addr = alloca ptr, align 8
  store ptr %this, ptr %this.addr, align 8
  store ptr %KV, ptr %KV.addr, align 8
  %this1 = load ptr, ptr %this.addr, align 8
  %0 = load ptr, ptr %KV.addr, align 8
  %first = getelementptr inbounds %"struct.std::pair", ptr %0, i32 0, i32 0
  %1 = load ptr, ptr %KV.addr, align 8
  %second = getelementptr inbounds %"struct.std::pair", ptr %1, i32 0, i32 1
  call void @_ZN4llvh12DenseMapBaseINS_8DenseMapINS_9StringRefEPN6hermes12UniqueStringENS_12DenseMapInfoIS2_EENS_6detail12DenseMapPairIS2_S5_EEEES2_S5_S7_SA_E11try_emplaceIJS5_EEESt4pairINS_16DenseMapIteratorIS2_S5_S7_SA_Lb0EEEbEOS2_DpOT_(ptr sret(%"struct.std::pair.27") align 8 %agg.result, ptr noundef nonnull align 1 dereferenceable(1) %this1, ptr noundef nonnull align 8 dereferenceable(16) %first, ptr noundef nonnull align 8 dereferenceable(8) %second)
  ret void
}

; Function Attrs: mustprogress nounwind uwtable
define linkonce_odr hidden noundef nonnull align 8 dereferenceable(16) ptr @_ZNK6hermes12UniqueString3strEv(ptr noundef nonnull align 8 dereferenceable(16) %this) #0 comdat align 2 {
entry:
  %this.addr = alloca ptr, align 8
  store ptr %this, ptr %this.addr, align 8
  %this1 = load ptr, ptr %this.addr, align 8
  %str_ = getelementptr inbounds %"class.hermes::UniqueString", ptr %this1, i32 0, i32 0
  ret ptr %str_
}

; Function Attrs: mustprogress nounwind uwtable
define linkonce_odr hidden void @_ZNSt4pairIN4llvh9StringRefEPN6hermes12UniqueStringEEC2IRKS1_RS4_TnNSt9enable_ifIXaaclsr5_PCCPE22_MoveConstructiblePairIT_T0_EEclsr5_PCCPE30_ImplicitlyMoveConvertiblePairISB_SC_EEEbE4typeELb1EEEOSB_OSC_(ptr noundef nonnull align 8 dereferenceable(24) %this, ptr noundef nonnull align 8 dereferenceable(16) %__x, ptr noundef nonnull align 8 dereferenceable(8) %__y) unnamed_addr #0 comdat align 2 {
entry:
  %this.addr = alloca ptr, align 8
  %__x.addr = alloca ptr, align 8
  %__y.addr = alloca ptr, align 8
  store ptr %this, ptr %this.addr, align 8
  store ptr %__x, ptr %__x.addr, align 8
  store ptr %__y, ptr %__y.addr, align 8
  %this1 = load ptr, ptr %this.addr, align 8
  %first = getelementptr inbounds %"struct.std::pair", ptr %this1, i32 0, i32 0
  %0 = load ptr, ptr %__x.addr, align 8
  call void @llvm.memcpy.p0.p0.i64(ptr align 8 %first, ptr align 8 %0, i64 16, i1 false)
  %second = getelementptr inbounds %"struct.std::pair", ptr %this1, i32 0, i32 1
  %1 = load ptr, ptr %__y.addr, align 8
  %2 = load ptr, ptr %1, align 8
  store ptr %2, ptr %second, align 8
  ret void
}

; Function Attrs: mustprogress nounwind uwtable
define linkonce_odr hidden noundef zeroext i1 @_ZN4llvh12DenseMapBaseINS_8DenseMapINS_9StringRefEPN6hermes12UniqueStringENS_12DenseMapInfoIS2_EENS_6detail12DenseMapPairIS2_S5_EEEES2_S5_S7_SA_E15LookupBucketForIS2_EEbRKT_RPSA_(ptr noundef nonnull align 1 dereferenceable(1) %this, ptr noundef nonnull align 8 dereferenceable(16) %Val, ptr noundef nonnull align 8 dereferenceable(8) %FoundBucket) #0 comdat align 2 {
entry:
  %this.addr = alloca ptr, align 8
  %Val.addr = alloca ptr, align 8
  %FoundBucket.addr = alloca ptr, align 8
  %ConstFoundBucket = alloca ptr, align 8
  %Result = alloca i8, align 1
  store ptr %this, ptr %this.addr, align 8
  store ptr %Val, ptr %Val.addr, align 8
  store ptr %FoundBucket, ptr %FoundBucket.addr, align 8
  %this1 = load ptr, ptr %this.addr, align 8
  %0 = load ptr, ptr %Val.addr, align 8
  %call = call noundef zeroext i1 @_ZNK4llvh12DenseMapBaseINS_8DenseMapINS_9StringRefEPN6hermes12UniqueStringENS_12DenseMapInfoIS2_EENS_6detail12DenseMapPairIS2_S5_EEEES2_S5_S7_SA_E15LookupBucketForIS2_EEbRKT_RPKSA_(ptr noundef nonnull align 1 dereferenceable(1) %this1, ptr noundef nonnull align 8 dereferenceable(16) %0, ptr noundef nonnull align 8 dereferenceable(8) %ConstFoundBucket)
  %frombool = zext i1 %call to i8
  store i8 %frombool, ptr %Result, align 1
  %1 = load ptr, ptr %ConstFoundBucket, align 8
  %2 = load ptr, ptr %FoundBucket.addr, align 8
  store ptr %1, ptr %2, align 8
  %3 = load i8, ptr %Result, align 1
  %tobool = trunc i8 %3 to i1
  ret i1 %tobool
}

; Function Attrs: mustprogress nounwind uwtable
define linkonce_odr hidden { ptr, ptr } @_ZN4llvh12DenseMapBaseINS_8DenseMapINS_9StringRefEPN6hermes12UniqueStringENS_12DenseMapInfoIS2_EENS_6detail12DenseMapPairIS2_S5_EEEES2_S5_S7_SA_E12makeIteratorEPSA_SD_RNS_14DebugEpochBaseEb(ptr noundef nonnull align 1 dereferenceable(1) %this, ptr noundef %P, ptr noundef %E, ptr noundef nonnull align 1 dereferenceable(1) %Epoch, i1 noundef zeroext %NoAdvance) #0 comdat align 2 {
entry:
  %retval = alloca %"class.llvh::DenseMapIterator", align 8
  %this.addr = alloca ptr, align 8
  %P.addr = alloca ptr, align 8
  %E.addr = alloca ptr, align 8
  %Epoch.addr = alloca ptr, align 8
  %NoAdvance.addr = alloca i8, align 1
  %B = alloca ptr, align 8
  store ptr %this, ptr %this.addr, align 8
  store ptr %P, ptr %P.addr, align 8
  store ptr %E, ptr %E.addr, align 8
  store ptr %Epoch, ptr %Epoch.addr, align 8
  %frombool = zext i1 %NoAdvance to i8
  store i8 %frombool, ptr %NoAdvance.addr, align 1
  %this1 = load ptr, ptr %this.addr, align 8
  %call = call noundef zeroext i1 @_ZN4llvh20shouldReverseIterateINS_9StringRefEEEbv()
  br i1 %call, label %if.then, label %if.end

if.then:                                          ; preds = %entry
  %0 = load ptr, ptr %P.addr, align 8
  %call2 = call noundef ptr @_ZN4llvh12DenseMapBaseINS_8DenseMapINS_9StringRefEPN6hermes12UniqueStringENS_12DenseMapInfoIS2_EENS_6detail12DenseMapPairIS2_S5_EEEES2_S5_S7_SA_E13getBucketsEndEv(ptr noundef nonnull align 1 dereferenceable(1) %this1)
  %cmp = icmp eq ptr %0, %call2
  br i1 %cmp, label %cond.true, label %cond.false

cond.true:                                        ; preds = %if.then
  %call3 = call noundef ptr @_ZN4llvh12DenseMapBaseINS_8DenseMapINS_9StringRefEPN6hermes12UniqueStringENS_12DenseMapInfoIS2_EENS_6detail12DenseMapPairIS2_S5_EEEES2_S5_S7_SA_E10getBucketsEv(ptr noundef nonnull align 1 dereferenceable(1) %this1)
  br label %cond.end

cond.false:                                       ; preds = %if.then
  %1 = load ptr, ptr %P.addr, align 8
  %add.ptr = getelementptr inbounds %"struct.llvh::detail::DenseMapPair", ptr %1, i64 1
  br label %cond.end

cond.end:                                         ; preds = %cond.false, %cond.true
  %cond = phi ptr [ %call3, %cond.true ], [ %add.ptr, %cond.false ]
  store ptr %cond, ptr %B, align 8
  %2 = load ptr, ptr %B, align 8
  %3 = load ptr, ptr %E.addr, align 8
  %4 = load ptr, ptr %Epoch.addr, align 8
  %5 = load i8, ptr %NoAdvance.addr, align 1
  %tobool = trunc i8 %5 to i1
  call void @_ZN4llvh16DenseMapIteratorINS_9StringRefEPN6hermes12UniqueStringENS_12DenseMapInfoIS1_EENS_6detail12DenseMapPairIS1_S4_EELb0EEC2EPS9_SB_RKNS_14DebugEpochBaseEb(ptr noundef nonnull align 8 dereferenceable(16) %retval, ptr noundef %2, ptr noundef %3, ptr noundef nonnull align 1 dereferenceable(1) %4, i1 noundef zeroext %tobool)
  br label %return

if.end:                                           ; preds = %entry
  %6 = load ptr, ptr %P.addr, align 8
  %7 = load ptr, ptr %E.addr, align 8
  %8 = load ptr, ptr %Epoch.addr, align 8
  %9 = load i8, ptr %NoAdvance.addr, align 1
  %tobool4 = trunc i8 %9 to i1
  call void @_ZN4llvh16DenseMapIteratorINS_9StringRefEPN6hermes12UniqueStringENS_12DenseMapInfoIS1_EENS_6detail12DenseMapPairIS1_S4_EELb0EEC2EPS9_SB_RKNS_14DebugEpochBaseEb(ptr noundef nonnull align 8 dereferenceable(16) %retval, ptr noundef %6, ptr noundef %7, ptr noundef nonnull align 1 dereferenceable(1) %8, i1 noundef zeroext %tobool4)
  br label %return

return:                                           ; preds = %if.end, %cond.end
  %10 = load { ptr, ptr }, ptr %retval, align 8
  ret { ptr, ptr } %10
}

; Function Attrs: mustprogress nounwind uwtable
define linkonce_odr hidden noundef ptr @_ZN4llvh12DenseMapBaseINS_8DenseMapINS_9StringRefEPN6hermes12UniqueStringENS_12DenseMapInfoIS2_EENS_6detail12DenseMapPairIS2_S5_EEEES2_S5_S7_SA_E13getBucketsEndEv(ptr noundef nonnull align 1 dereferenceable(1) %this) #0 comdat align 2 {
entry:
  %this.addr = alloca ptr, align 8
  store ptr %this, ptr %this.addr, align 8
  %this1 = load ptr, ptr %this.addr, align 8
  %call = call noundef ptr @_ZN4llvh12DenseMapBaseINS_8DenseMapINS_9StringRefEPN6hermes12UniqueStringENS_12DenseMapInfoIS2_EENS_6detail12DenseMapPairIS2_S5_EEEES2_S5_S7_SA_E10getBucketsEv(ptr noundef nonnull align 1 dereferenceable(1) %this1)
  %call2 = call noundef i32 @_ZNK4llvh12DenseMapBaseINS_8DenseMapINS_9StringRefEPN6hermes12UniqueStringENS_12DenseMapInfoIS2_EENS_6detail12DenseMapPairIS2_S5_EEEES2_S5_S7_SA_E13getNumBucketsEv(ptr noundef nonnull align 1 dereferenceable(1) %this1)
  %idx.ext = zext i32 %call2 to i64
  %add.ptr = getelementptr inbounds %"struct.llvh::detail::DenseMapPair", ptr %call, i64 %idx.ext
  ret ptr %add.ptr
}

; Function Attrs: mustprogress nounwind uwtable
define linkonce_odr hidden noundef zeroext i1 @_ZNK4llvh12DenseMapBaseINS_8DenseMapINS_9StringRefEPN6hermes12UniqueStringENS_12DenseMapInfoIS2_EENS_6detail12DenseMapPairIS2_S5_EEEES2_S5_S7_SA_E15LookupBucketForIS2_EEbRKT_RPKSA_(ptr noundef nonnull align 1 dereferenceable(1) %this, ptr noundef nonnull align 8 dereferenceable(16) %Val, ptr noundef nonnull align 8 dereferenceable(8) %FoundBucket) #0 comdat align 2 {
entry:
  %retval = alloca i1, align 1
  %this.addr = alloca ptr, align 8
  %Val.addr = alloca ptr, align 8
  %FoundBucket.addr = alloca ptr, align 8
  %BucketsPtr = alloca ptr, align 8
  %NumBuckets = alloca i32, align 4
  %FoundTombstone = alloca ptr, align 8
  %EmptyKey = alloca %"class.llvh::StringRef", align 8
  %TombstoneKey = alloca %"class.llvh::StringRef", align 8
  %BucketNo = alloca i32, align 4
  %ProbeAmt = alloca i32, align 4
  %ThisBucket = alloca ptr, align 8
  %agg.tmp = alloca %"class.llvh::StringRef", align 8
  %agg.tmp6 = alloca %"class.llvh::StringRef", align 8
  %agg.tmp11 = alloca %"class.llvh::StringRef", align 8
  %agg.tmp13 = alloca %"class.llvh::StringRef", align 8
  %agg.tmp17 = alloca %"class.llvh::StringRef", align 8
  %agg.tmp19 = alloca %"class.llvh::StringRef", align 8
  store ptr %this, ptr %this.addr, align 8
  store ptr %Val, ptr %Val.addr, align 8
  store ptr %FoundBucket, ptr %FoundBucket.addr, align 8
  %this1 = load ptr, ptr %this.addr, align 8
  %call = call noundef ptr @_ZNK4llvh12DenseMapBaseINS_8DenseMapINS_9StringRefEPN6hermes12UniqueStringENS_12DenseMapInfoIS2_EENS_6detail12DenseMapPairIS2_S5_EEEES2_S5_S7_SA_E10getBucketsEv(ptr noundef nonnull align 1 dereferenceable(1) %this1)
  store ptr %call, ptr %BucketsPtr, align 8
  %call2 = call noundef i32 @_ZNK4llvh12DenseMapBaseINS_8DenseMapINS_9StringRefEPN6hermes12UniqueStringENS_12DenseMapInfoIS2_EENS_6detail12DenseMapPairIS2_S5_EEEES2_S5_S7_SA_E13getNumBucketsEv(ptr noundef nonnull align 1 dereferenceable(1) %this1)
  store i32 %call2, ptr %NumBuckets, align 4
  %0 = load i32, ptr %NumBuckets, align 4
  %cmp = icmp eq i32 %0, 0
  br i1 %cmp, label %if.then, label %if.end

if.then:                                          ; preds = %entry
  %1 = load ptr, ptr %FoundBucket.addr, align 8
  store ptr null, ptr %1, align 8
  store i1 false, ptr %retval, align 1
  br label %return

if.end:                                           ; preds = %entry
  store ptr null, ptr %FoundTombstone, align 8
  %call3 = call { ptr, i64 } @_ZN4llvh12DenseMapBaseINS_8DenseMapINS_9StringRefEPN6hermes12UniqueStringENS_12DenseMapInfoIS2_EENS_6detail12DenseMapPairIS2_S5_EEEES2_S5_S7_SA_E11getEmptyKeyEv()
  %2 = getelementptr inbounds { ptr, i64 }, ptr %EmptyKey, i32 0, i32 0
  %3 = extractvalue { ptr, i64 } %call3, 0
  store ptr %3, ptr %2, align 8
  %4 = getelementptr inbounds { ptr, i64 }, ptr %EmptyKey, i32 0, i32 1
  %5 = extractvalue { ptr, i64 } %call3, 1
  store i64 %5, ptr %4, align 8
  %call4 = call { ptr, i64 } @_ZN4llvh12DenseMapBaseINS_8DenseMapINS_9StringRefEPN6hermes12UniqueStringENS_12DenseMapInfoIS2_EENS_6detail12DenseMapPairIS2_S5_EEEES2_S5_S7_SA_E15getTombstoneKeyEv()
  %6 = getelementptr inbounds { ptr, i64 }, ptr %TombstoneKey, i32 0, i32 0
  %7 = extractvalue { ptr, i64 } %call4, 0
  store ptr %7, ptr %6, align 8
  %8 = getelementptr inbounds { ptr, i64 }, ptr %TombstoneKey, i32 0, i32 1
  %9 = extractvalue { ptr, i64 } %call4, 1
  store i64 %9, ptr %8, align 8
  %10 = load ptr, ptr %Val.addr, align 8
  %call5 = call noundef i32 @_ZN4llvh12DenseMapBaseINS_8DenseMapINS_9StringRefEPN6hermes12UniqueStringENS_12DenseMapInfoIS2_EENS_6detail12DenseMapPairIS2_S5_EEEES2_S5_S7_SA_E12getHashValueERKS2_(ptr noundef nonnull align 8 dereferenceable(16) %10)
  %11 = load i32, ptr %NumBuckets, align 4
  %sub = sub i32 %11, 1
  %and = and i32 %call5, %sub
  store i32 %and, ptr %BucketNo, align 4
  store i32 1, ptr %ProbeAmt, align 4
  br label %while.body

while.body:                                       ; preds = %if.end23, %if.end
  %12 = load ptr, ptr %BucketsPtr, align 8
  %13 = load i32, ptr %BucketNo, align 4
  %idx.ext = zext i32 %13 to i64
  %add.ptr = getelementptr inbounds %"struct.llvh::detail::DenseMapPair", ptr %12, i64 %idx.ext
  store ptr %add.ptr, ptr %ThisBucket, align 8
  %14 = load ptr, ptr %Val.addr, align 8
  call void @llvm.memcpy.p0.p0.i64(ptr align 8 %agg.tmp, ptr align 8 %14, i64 16, i1 false)
  %15 = load ptr, ptr %ThisBucket, align 8
  %call7 = call noundef nonnull align 8 dereferenceable(16) ptr @_ZNK4llvh6detail12DenseMapPairINS_9StringRefEPN6hermes12UniqueStringEE8getFirstEv(ptr noundef nonnull align 8 dereferenceable(24) %15)
  call void @llvm.memcpy.p0.p0.i64(ptr align 8 %agg.tmp6, ptr align 8 %call7, i64 16, i1 false)
  %16 = getelementptr inbounds { ptr, i64 }, ptr %agg.tmp, i32 0, i32 0
  %17 = load ptr, ptr %16, align 8
  %18 = getelementptr inbounds { ptr, i64 }, ptr %agg.tmp, i32 0, i32 1
  %19 = load i64, ptr %18, align 8
  %20 = getelementptr inbounds { ptr, i64 }, ptr %agg.tmp6, i32 0, i32 0
  %21 = load ptr, ptr %20, align 8
  %22 = getelementptr inbounds { ptr, i64 }, ptr %agg.tmp6, i32 0, i32 1
  %23 = load i64, ptr %22, align 8
  %call8 = call noundef zeroext i1 @_ZN4llvh12DenseMapInfoINS_9StringRefEE7isEqualES1_S1_(ptr %17, i64 %19, ptr %21, i64 %23)
  br i1 %call8, label %if.then9, label %if.end10

if.then9:                                         ; preds = %while.body
  %24 = load ptr, ptr %ThisBucket, align 8
  %25 = load ptr, ptr %FoundBucket.addr, align 8
  store ptr %24, ptr %25, align 8
  store i1 true, ptr %retval, align 1
  br label %return

if.end10:                                         ; preds = %while.body
  %26 = load ptr, ptr %ThisBucket, align 8
  %call12 = call noundef nonnull align 8 dereferenceable(16) ptr @_ZNK4llvh6detail12DenseMapPairINS_9StringRefEPN6hermes12UniqueStringEE8getFirstEv(ptr noundef nonnull align 8 dereferenceable(24) %26)
  call void @llvm.memcpy.p0.p0.i64(ptr align 8 %agg.tmp11, ptr align 8 %call12, i64 16, i1 false)
  call void @llvm.memcpy.p0.p0.i64(ptr align 8 %agg.tmp13, ptr align 8 %EmptyKey, i64 16, i1 false)
  %27 = getelementptr inbounds { ptr, i64 }, ptr %agg.tmp11, i32 0, i32 0
  %28 = load ptr, ptr %27, align 8
  %29 = getelementptr inbounds { ptr, i64 }, ptr %agg.tmp11, i32 0, i32 1
  %30 = load i64, ptr %29, align 8
  %31 = getelementptr inbounds { ptr, i64 }, ptr %agg.tmp13, i32 0, i32 0
  %32 = load ptr, ptr %31, align 8
  %33 = getelementptr inbounds { ptr, i64 }, ptr %agg.tmp13, i32 0, i32 1
  %34 = load i64, ptr %33, align 8
  %call14 = call noundef zeroext i1 @_ZN4llvh12DenseMapInfoINS_9StringRefEE7isEqualES1_S1_(ptr %28, i64 %30, ptr %32, i64 %34)
  br i1 %call14, label %if.then15, label %if.end16

if.then15:                                        ; preds = %if.end10
  %35 = load ptr, ptr %FoundTombstone, align 8
  %tobool = icmp ne ptr %35, null
  br i1 %tobool, label %cond.true, label %cond.false

cond.true:                                        ; preds = %if.then15
  %36 = load ptr, ptr %FoundTombstone, align 8
  br label %cond.end

cond.false:                                       ; preds = %if.then15
  %37 = load ptr, ptr %ThisBucket, align 8
  br label %cond.end

cond.end:                                         ; preds = %cond.false, %cond.true
  %cond = phi ptr [ %36, %cond.true ], [ %37, %cond.false ]
  %38 = load ptr, ptr %FoundBucket.addr, align 8
  store ptr %cond, ptr %38, align 8
  store i1 false, ptr %retval, align 1
  br label %return

if.end16:                                         ; preds = %if.end10
  %39 = load ptr, ptr %ThisBucket, align 8
  %call18 = call noundef nonnull align 8 dereferenceable(16) ptr @_ZNK4llvh6detail12DenseMapPairINS_9StringRefEPN6hermes12UniqueStringEE8getFirstEv(ptr noundef nonnull align 8 dereferenceable(24) %39)
  call void @llvm.memcpy.p0.p0.i64(ptr align 8 %agg.tmp17, ptr align 8 %call18, i64 16, i1 false)
  call void @llvm.memcpy.p0.p0.i64(ptr align 8 %agg.tmp19, ptr align 8 %TombstoneKey, i64 16, i1 false)
  %40 = getelementptr inbounds { ptr, i64 }, ptr %agg.tmp17, i32 0, i32 0
  %41 = load ptr, ptr %40, align 8
  %42 = getelementptr inbounds { ptr, i64 }, ptr %agg.tmp17, i32 0, i32 1
  %43 = load i64, ptr %42, align 8
  %44 = getelementptr inbounds { ptr, i64 }, ptr %agg.tmp19, i32 0, i32 0
  %45 = load ptr, ptr %44, align 8
  %46 = getelementptr inbounds { ptr, i64 }, ptr %agg.tmp19, i32 0, i32 1
  %47 = load i64, ptr %46, align 8
  %call20 = call noundef zeroext i1 @_ZN4llvh12DenseMapInfoINS_9StringRefEE7isEqualES1_S1_(ptr %41, i64 %43, ptr %45, i64 %47)
  br i1 %call20, label %land.lhs.true, label %if.end23

land.lhs.true:                                    ; preds = %if.end16
  %48 = load ptr, ptr %FoundTombstone, align 8
  %tobool21 = icmp ne ptr %48, null
  br i1 %tobool21, label %if.end23, label %if.then22

if.then22:                                        ; preds = %land.lhs.true
  %49 = load ptr, ptr %ThisBucket, align 8
  store ptr %49, ptr %FoundTombstone, align 8
  br label %if.end23

if.end23:                                         ; preds = %if.then22, %land.lhs.true, %if.end16
  %50 = load i32, ptr %ProbeAmt, align 4
  %inc = add i32 %50, 1
  store i32 %inc, ptr %ProbeAmt, align 4
  %51 = load i32, ptr %BucketNo, align 4
  %add = add i32 %51, %50
  store i32 %add, ptr %BucketNo, align 4
  %52 = load i32, ptr %NumBuckets, align 4
  %sub24 = sub i32 %52, 1
  %53 = load i32, ptr %BucketNo, align 4
  %and25 = and i32 %53, %sub24
  store i32 %and25, ptr %BucketNo, align 4
  br label %while.body, !llvm.loop !4

return:                                           ; preds = %cond.end, %if.then9, %if.then
  %54 = load i1, ptr %retval, align 1
  ret i1 %54
}

; Function Attrs: mustprogress nounwind uwtable
define linkonce_odr hidden noundef ptr @_ZNK4llvh12DenseMapBaseINS_8DenseMapINS_9StringRefEPN6hermes12UniqueStringENS_12DenseMapInfoIS2_EENS_6detail12DenseMapPairIS2_S5_EEEES2_S5_S7_SA_E10getBucketsEv(ptr noundef nonnull align 1 dereferenceable(1) %this) #0 comdat align 2 {
entry:
  %this.addr = alloca ptr, align 8
  store ptr %this, ptr %this.addr, align 8
  %this1 = load ptr, ptr %this.addr, align 8
  %call = call noundef ptr @_ZNK4llvh8DenseMapINS_9StringRefEPN6hermes12UniqueStringENS_12DenseMapInfoIS1_EENS_6detail12DenseMapPairIS1_S4_EEE10getBucketsEv(ptr noundef nonnull align 8 dereferenceable(20) %this1)
  ret ptr %call
}

; Function Attrs: mustprogress nounwind uwtable
define linkonce_odr hidden noundef i32 @_ZNK4llvh12DenseMapBaseINS_8DenseMapINS_9StringRefEPN6hermes12UniqueStringENS_12DenseMapInfoIS2_EENS_6detail12DenseMapPairIS2_S5_EEEES2_S5_S7_SA_E13getNumBucketsEv(ptr noundef nonnull align 1 dereferenceable(1) %this) #0 comdat align 2 {
entry:
  %this.addr = alloca ptr, align 8
  store ptr %this, ptr %this.addr, align 8
  %this1 = load ptr, ptr %this.addr, align 8
  %call = call noundef i32 @_ZNK4llvh8DenseMapINS_9StringRefEPN6hermes12UniqueStringENS_12DenseMapInfoIS1_EENS_6detail12DenseMapPairIS1_S4_EEE13getNumBucketsEv(ptr noundef nonnull align 8 dereferenceable(20) %this1)
  ret i32 %call
}

; Function Attrs: mustprogress nounwind uwtable
define linkonce_odr hidden { ptr, i64 } @_ZN4llvh12DenseMapBaseINS_8DenseMapINS_9StringRefEPN6hermes12UniqueStringENS_12DenseMapInfoIS2_EENS_6detail12DenseMapPairIS2_S5_EEEES2_S5_S7_SA_E11getEmptyKeyEv() #0 comdat align 2 {
entry:
  %retval = alloca %"class.llvh::StringRef", align 8
  %call = call { ptr, i64 } @_ZN4llvh12DenseMapInfoINS_9StringRefEE11getEmptyKeyEv()
  %0 = getelementptr inbounds { ptr, i64 }, ptr %retval, i32 0, i32 0
  %1 = extractvalue { ptr, i64 } %call, 0
  store ptr %1, ptr %0, align 8
  %2 = getelementptr inbounds { ptr, i64 }, ptr %retval, i32 0, i32 1
  %3 = extractvalue { ptr, i64 } %call, 1
  store i64 %3, ptr %2, align 8
  %4 = load { ptr, i64 }, ptr %retval, align 8
  ret { ptr, i64 } %4
}

; Function Attrs: mustprogress nounwind uwtable
define linkonce_odr hidden { ptr, i64 } @_ZN4llvh12DenseMapBaseINS_8DenseMapINS_9StringRefEPN6hermes12UniqueStringENS_12DenseMapInfoIS2_EENS_6detail12DenseMapPairIS2_S5_EEEES2_S5_S7_SA_E15getTombstoneKeyEv() #0 comdat align 2 {
entry:
  %retval = alloca %"class.llvh::StringRef", align 8
  %call = call { ptr, i64 } @_ZN4llvh12DenseMapInfoINS_9StringRefEE15getTombstoneKeyEv()
  %0 = getelementptr inbounds { ptr, i64 }, ptr %retval, i32 0, i32 0
  %1 = extractvalue { ptr, i64 } %call, 0
  store ptr %1, ptr %0, align 8
  %2 = getelementptr inbounds { ptr, i64 }, ptr %retval, i32 0, i32 1
  %3 = extractvalue { ptr, i64 } %call, 1
  store i64 %3, ptr %2, align 8
  %4 = load { ptr, i64 }, ptr %retval, align 8
  ret { ptr, i64 } %4
}

; Function Attrs: mustprogress nounwind uwtable
define linkonce_odr hidden noundef i32 @_ZN4llvh12DenseMapBaseINS_8DenseMapINS_9StringRefEPN6hermes12UniqueStringENS_12DenseMapInfoIS2_EENS_6detail12DenseMapPairIS2_S5_EEEES2_S5_S7_SA_E12getHashValueERKS2_(ptr noundef nonnull align 8 dereferenceable(16) %Val) #0 comdat align 2 {
entry:
  %Val.addr = alloca ptr, align 8
  %agg.tmp = alloca %"class.llvh::StringRef", align 8
  store ptr %Val, ptr %Val.addr, align 8
  %0 = load ptr, ptr %Val.addr, align 8
  call void @llvm.memcpy.p0.p0.i64(ptr align 8 %agg.tmp, ptr align 8 %0, i64 16, i1 false)
  %1 = getelementptr inbounds { ptr, i64 }, ptr %agg.tmp, i32 0, i32 0
  %2 = load ptr, ptr %1, align 8
  %3 = getelementptr inbounds { ptr, i64 }, ptr %agg.tmp, i32 0, i32 1
  %4 = load i64, ptr %3, align 8
  %call = call noundef i32 @_ZN4llvh12DenseMapInfoINS_9StringRefEE12getHashValueES1_(ptr %2, i64 %4)
  ret i32 %call
}

; Function Attrs: mustprogress nounwind uwtable
define linkonce_odr hidden noundef zeroext i1 @_ZN4llvh12DenseMapInfoINS_9StringRefEE7isEqualES1_S1_(ptr %LHS.coerce0, i64 %LHS.coerce1, ptr %RHS.coerce0, i64 %RHS.coerce1) #0 comdat align 2 {
entry:
  %retval.i = alloca i32, align 4
  %Lhs.addr.i = alloca ptr, align 8
  %Rhs.addr.i = alloca ptr, align 8
  %Length.addr.i = alloca i64, align 8
  %RHS.i36 = alloca %"class.llvh::StringRef", align 8
  %this.addr.i37 = alloca ptr, align 8
  %LHS.i = alloca %"class.llvh::StringRef", align 8
  %RHS.i = alloca %"class.llvh::StringRef", align 8
  %agg.tmp.i = alloca %"class.llvh::StringRef", align 8
  %this.addr.i34 = alloca ptr, align 8
  %this.addr.i32 = alloca ptr, align 8
  %this.addr.i30 = alloca ptr, align 8
  %this.addr.i28 = alloca ptr, align 8
  %this.addr.i26 = alloca ptr, align 8
  %this.addr.i24 = alloca ptr, align 8
  %this.addr.i22 = alloca ptr, align 8
  %this.addr.i = alloca ptr, align 8
  %retval = alloca i1, align 1
  %LHS = alloca %"class.llvh::StringRef", align 8
  %RHS = alloca %"class.llvh::StringRef", align 8
  %ref.tmp = alloca %"class.llvh::StringRef", align 8
  %ref.tmp4 = alloca %"class.llvh::StringRef", align 8
  %ref.tmp9 = alloca %"class.llvh::StringRef", align 8
  %ref.tmp15 = alloca %"class.llvh::StringRef", align 8
  %agg.tmp = alloca %"class.llvh::StringRef", align 8
  %agg.tmp20 = alloca %"class.llvh::StringRef", align 8
  %0 = getelementptr inbounds { ptr, i64 }, ptr %LHS, i32 0, i32 0
  store ptr %LHS.coerce0, ptr %0, align 8
  %1 = getelementptr inbounds { ptr, i64 }, ptr %LHS, i32 0, i32 1
  store i64 %LHS.coerce1, ptr %1, align 8
  %2 = getelementptr inbounds { ptr, i64 }, ptr %RHS, i32 0, i32 0
  store ptr %RHS.coerce0, ptr %2, align 8
  %3 = getelementptr inbounds { ptr, i64 }, ptr %RHS, i32 0, i32 1
  store i64 %RHS.coerce1, ptr %3, align 8
  store ptr %RHS, ptr %this.addr.i34, align 8
  %this1.i35 = load ptr, ptr %this.addr.i34, align 8
  %4 = load ptr, ptr %this1.i35, align 8
  %call1 = call { ptr, i64 } @_ZN4llvh12DenseMapInfoINS_9StringRefEE11getEmptyKeyEv()
  %5 = getelementptr inbounds { ptr, i64 }, ptr %ref.tmp, i32 0, i32 0
  %6 = extractvalue { ptr, i64 } %call1, 0
  store ptr %6, ptr %5, align 8
  %7 = getelementptr inbounds { ptr, i64 }, ptr %ref.tmp, i32 0, i32 1
  %8 = extractvalue { ptr, i64 } %call1, 1
  store i64 %8, ptr %7, align 8
  store ptr %ref.tmp, ptr %this.addr.i32, align 8
  %this1.i33 = load ptr, ptr %this.addr.i32, align 8
  %9 = load ptr, ptr %this1.i33, align 8
  %cmp = icmp eq ptr %4, %9
  br i1 %cmp, label %if.then, label %if.end

if.then:                                          ; preds = %entry
  store ptr %LHS, ptr %this.addr.i30, align 8
  %this1.i31 = load ptr, ptr %this.addr.i30, align 8
  %10 = load ptr, ptr %this1.i31, align 8
  %call5 = call { ptr, i64 } @_ZN4llvh12DenseMapInfoINS_9StringRefEE11getEmptyKeyEv()
  %11 = getelementptr inbounds { ptr, i64 }, ptr %ref.tmp4, i32 0, i32 0
  %12 = extractvalue { ptr, i64 } %call5, 0
  store ptr %12, ptr %11, align 8
  %13 = getelementptr inbounds { ptr, i64 }, ptr %ref.tmp4, i32 0, i32 1
  %14 = extractvalue { ptr, i64 } %call5, 1
  store i64 %14, ptr %13, align 8
  store ptr %ref.tmp4, ptr %this.addr.i28, align 8
  %this1.i29 = load ptr, ptr %this.addr.i28, align 8
  %15 = load ptr, ptr %this1.i29, align 8
  %cmp7 = icmp eq ptr %10, %15
  store i1 %cmp7, ptr %retval, align 1
  br label %return

if.end:                                           ; preds = %entry
  store ptr %RHS, ptr %this.addr.i26, align 8
  %this1.i27 = load ptr, ptr %this.addr.i26, align 8
  %16 = load ptr, ptr %this1.i27, align 8
  %call10 = call { ptr, i64 } @_ZN4llvh12DenseMapInfoINS_9StringRefEE15getTombstoneKeyEv()
  %17 = getelementptr inbounds { ptr, i64 }, ptr %ref.tmp9, i32 0, i32 0
  %18 = extractvalue { ptr, i64 } %call10, 0
  store ptr %18, ptr %17, align 8
  %19 = getelementptr inbounds { ptr, i64 }, ptr %ref.tmp9, i32 0, i32 1
  %20 = extractvalue { ptr, i64 } %call10, 1
  store i64 %20, ptr %19, align 8
  store ptr %ref.tmp9, ptr %this.addr.i24, align 8
  %this1.i25 = load ptr, ptr %this.addr.i24, align 8
  %21 = load ptr, ptr %this1.i25, align 8
  %cmp12 = icmp eq ptr %16, %21
  br i1 %cmp12, label %if.then13, label %if.end19

if.then13:                                        ; preds = %if.end
  store ptr %LHS, ptr %this.addr.i22, align 8
  %this1.i23 = load ptr, ptr %this.addr.i22, align 8
  %22 = load ptr, ptr %this1.i23, align 8
  %call16 = call { ptr, i64 } @_ZN4llvh12DenseMapInfoINS_9StringRefEE15getTombstoneKeyEv()
  %23 = getelementptr inbounds { ptr, i64 }, ptr %ref.tmp15, i32 0, i32 0
  %24 = extractvalue { ptr, i64 } %call16, 0
  store ptr %24, ptr %23, align 8
  %25 = getelementptr inbounds { ptr, i64 }, ptr %ref.tmp15, i32 0, i32 1
  %26 = extractvalue { ptr, i64 } %call16, 1
  store i64 %26, ptr %25, align 8
  store ptr %ref.tmp15, ptr %this.addr.i, align 8
  %this1.i = load ptr, ptr %this.addr.i, align 8
  %27 = load ptr, ptr %this1.i, align 8
  %cmp18 = icmp eq ptr %22, %27
  store i1 %cmp18, ptr %retval, align 1
  br label %return

if.end19:                                         ; preds = %if.end
  call void @llvm.memcpy.p0.p0.i64(ptr align 8 %agg.tmp, ptr align 8 %LHS, i64 16, i1 false)
  call void @llvm.memcpy.p0.p0.i64(ptr align 8 %agg.tmp20, ptr align 8 %RHS, i64 16, i1 false)
  %28 = getelementptr inbounds { ptr, i64 }, ptr %agg.tmp, i32 0, i32 0
  %29 = load ptr, ptr %28, align 8
  %30 = getelementptr inbounds { ptr, i64 }, ptr %agg.tmp, i32 0, i32 1
  %31 = load i64, ptr %30, align 8
  %32 = getelementptr inbounds { ptr, i64 }, ptr %agg.tmp20, i32 0, i32 0
  %33 = load ptr, ptr %32, align 8
  %34 = getelementptr inbounds { ptr, i64 }, ptr %agg.tmp20, i32 0, i32 1
  %35 = load i64, ptr %34, align 8
  store ptr %29, ptr %LHS.i, align 8
  %36 = getelementptr inbounds { ptr, i64 }, ptr %LHS.i, i32 0, i32 1
  store i64 %31, ptr %36, align 8
  store ptr %33, ptr %RHS.i, align 8
  %37 = getelementptr inbounds { ptr, i64 }, ptr %RHS.i, i32 0, i32 1
  store i64 %35, ptr %37, align 8
  call void @llvm.memcpy.p0.p0.i64(ptr align 8 %agg.tmp.i, ptr align 8 %RHS.i, i64 16, i1 false)
  %38 = load ptr, ptr %agg.tmp.i, align 8
  %39 = getelementptr inbounds { ptr, i64 }, ptr %agg.tmp.i, i32 0, i32 1
  %40 = load i64, ptr %39, align 8
  store ptr %38, ptr %RHS.i36, align 8
  %41 = getelementptr inbounds { ptr, i64 }, ptr %RHS.i36, i32 0, i32 1
  store i64 %40, ptr %41, align 8
  store ptr %LHS.i, ptr %this.addr.i37, align 8
  %this1.i38 = load ptr, ptr %this.addr.i37, align 8
  %Length.i = getelementptr inbounds %"class.llvh::StringRef", ptr %this1.i38, i32 0, i32 1
  %42 = load i64, ptr %Length.i, align 8
  %Length2.i = getelementptr inbounds %"class.llvh::StringRef", ptr %RHS.i36, i32 0, i32 1
  %43 = load i64, ptr %Length2.i, align 8
  %cmp.i = icmp eq i64 %42, %43
  br i1 %cmp.i, label %land.rhs.i, label %_ZNK4llvh9StringRef6equalsES0_.exit

land.rhs.i:                                       ; preds = %if.end19
  %44 = load ptr, ptr %this1.i38, align 8
  %45 = load ptr, ptr %RHS.i36, align 8
  %Length4.i = getelementptr inbounds %"class.llvh::StringRef", ptr %RHS.i36, i32 0, i32 1
  %46 = load i64, ptr %Length4.i, align 8
  store ptr %44, ptr %Lhs.addr.i, align 8
  store ptr %45, ptr %Rhs.addr.i, align 8
  store i64 %46, ptr %Length.addr.i, align 8
  %47 = load i64, ptr %Length.addr.i, align 8
  %cmp.i40 = icmp eq i64 %47, 0
  br i1 %cmp.i40, label %if.then.i, label %if.end.i

if.then.i:                                        ; preds = %land.rhs.i
  store i32 0, ptr %retval.i, align 4
  br label %_ZN4llvh9StringRef13compareMemoryEPKcS2_m.exit

if.end.i:                                         ; preds = %land.rhs.i
  %48 = load ptr, ptr %Lhs.addr.i, align 8
  %49 = load ptr, ptr %Rhs.addr.i, align 8
  %50 = load i64, ptr %Length.addr.i, align 8
  %call.i = call i32 @memcmp(ptr noundef %48, ptr noundef %49, i64 noundef %50) #11
  store i32 %call.i, ptr %retval.i, align 4
  br label %_ZN4llvh9StringRef13compareMemoryEPKcS2_m.exit

_ZN4llvh9StringRef13compareMemoryEPKcS2_m.exit:   ; preds = %if.end.i, %if.then.i
  %51 = load i32, ptr %retval.i, align 4
  %cmp5.i = icmp eq i32 %51, 0
  br label %_ZNK4llvh9StringRef6equalsES0_.exit

_ZNK4llvh9StringRef6equalsES0_.exit:              ; preds = %_ZN4llvh9StringRef13compareMemoryEPKcS2_m.exit, %if.end19
  %52 = phi i1 [ false, %if.end19 ], [ %cmp5.i, %_ZN4llvh9StringRef13compareMemoryEPKcS2_m.exit ]
  store i1 %52, ptr %retval, align 1
  br label %return

return:                                           ; preds = %_ZNK4llvh9StringRef6equalsES0_.exit, %if.then13, %if.then
  %53 = load i1, ptr %retval, align 1
  ret i1 %53
}

; Function Attrs: mustprogress nounwind uwtable
define linkonce_odr hidden noundef nonnull align 8 dereferenceable(16) ptr @_ZNK4llvh6detail12DenseMapPairINS_9StringRefEPN6hermes12UniqueStringEE8getFirstEv(ptr noundef nonnull align 8 dereferenceable(24) %this) #0 comdat align 2 {
entry:
  %this.addr = alloca ptr, align 8
  store ptr %this, ptr %this.addr, align 8
  %this1 = load ptr, ptr %this.addr, align 8
  %first = getelementptr inbounds %"struct.std::pair", ptr %this1, i32 0, i32 0
  ret ptr %first
}

; Function Attrs: mustprogress nounwind uwtable
define linkonce_odr hidden noundef ptr @_ZNK4llvh8DenseMapINS_9StringRefEPN6hermes12UniqueStringENS_12DenseMapInfoIS1_EENS_6detail12DenseMapPairIS1_S4_EEE10getBucketsEv(ptr noundef nonnull align 8 dereferenceable(20) %this) #0 comdat align 2 {
entry:
  %this.addr = alloca ptr, align 8
  store ptr %this, ptr %this.addr, align 8
  %this1 = load ptr, ptr %this.addr, align 8
  %Buckets = getelementptr inbounds %"class.llvh::DenseMap", ptr %this1, i32 0, i32 0
  %0 = load ptr, ptr %Buckets, align 8
  ret ptr %0
}

; Function Attrs: mustprogress nounwind uwtable
define linkonce_odr hidden noundef i32 @_ZNK4llvh8DenseMapINS_9StringRefEPN6hermes12UniqueStringENS_12DenseMapInfoIS1_EENS_6detail12DenseMapPairIS1_S4_EEE13getNumBucketsEv(ptr noundef nonnull align 8 dereferenceable(20) %this) #0 comdat align 2 {
entry:
  %this.addr = alloca ptr, align 8
  store ptr %this, ptr %this.addr, align 8
  %this1 = load ptr, ptr %this.addr, align 8
  %NumBuckets = getelementptr inbounds %"class.llvh::DenseMap", ptr %this1, i32 0, i32 3
  %0 = load i32, ptr %NumBuckets, align 8
  ret i32 %0
}

; Function Attrs: mustprogress nounwind uwtable
define linkonce_odr hidden { ptr, i64 } @_ZN4llvh12DenseMapInfoINS_9StringRefEE11getEmptyKeyEv() #0 comdat align 2 {
entry:
  %this.addr.i = alloca ptr, align 8
  %data.addr.i = alloca ptr, align 8
  %length.addr.i = alloca i64, align 8
  %retval = alloca %"class.llvh::StringRef", align 8
  store ptr %retval, ptr %this.addr.i, align 8
  store ptr inttoptr (i64 -1 to ptr), ptr %data.addr.i, align 8
  store i64 0, ptr %length.addr.i, align 8
  %this1.i = load ptr, ptr %this.addr.i, align 8
  %0 = load ptr, ptr %data.addr.i, align 8
  store ptr %0, ptr %this1.i, align 8
  %Length.i = getelementptr inbounds %"class.llvh::StringRef", ptr %this1.i, i32 0, i32 1
  %1 = load i64, ptr %length.addr.i, align 8
  store i64 %1, ptr %Length.i, align 8
  %2 = load { ptr, i64 }, ptr %retval, align 8
  ret { ptr, i64 } %2
}

; Function Attrs: mustprogress nounwind uwtable
define linkonce_odr hidden { ptr, i64 } @_ZN4llvh12DenseMapInfoINS_9StringRefEE15getTombstoneKeyEv() #0 comdat align 2 {
entry:
  %this.addr.i = alloca ptr, align 8
  %data.addr.i = alloca ptr, align 8
  %length.addr.i = alloca i64, align 8
  %retval = alloca %"class.llvh::StringRef", align 8
  store ptr %retval, ptr %this.addr.i, align 8
  store ptr inttoptr (i64 -2 to ptr), ptr %data.addr.i, align 8
  store i64 0, ptr %length.addr.i, align 8
  %this1.i = load ptr, ptr %this.addr.i, align 8
  %0 = load ptr, ptr %data.addr.i, align 8
  store ptr %0, ptr %this1.i, align 8
  %Length.i = getelementptr inbounds %"class.llvh::StringRef", ptr %this1.i, i32 0, i32 1
  %1 = load i64, ptr %length.addr.i, align 8
  store i64 %1, ptr %Length.i, align 8
  %2 = load { ptr, i64 }, ptr %retval, align 8
  ret { ptr, i64 } %2
}

; Function Attrs: mustprogress nounwind uwtable
define linkonce_odr hidden noundef i32 @_ZN4llvh12DenseMapInfoINS_9StringRefEE12getHashValueES1_(ptr %Val.coerce0, i64 %Val.coerce1) #0 comdat align 2 {
entry:
  %Val = alloca %"class.llvh::StringRef", align 8
  %ref.tmp = alloca %"class.llvh::hash_code", align 8
  %agg.tmp = alloca %"class.llvh::StringRef", align 8
  %0 = getelementptr inbounds { ptr, i64 }, ptr %Val, i32 0, i32 0
  store ptr %Val.coerce0, ptr %0, align 8
  %1 = getelementptr inbounds { ptr, i64 }, ptr %Val, i32 0, i32 1
  store i64 %Val.coerce1, ptr %1, align 8
  call void @llvm.memcpy.p0.p0.i64(ptr align 8 %agg.tmp, ptr align 8 %Val, i64 16, i1 false)
  %2 = getelementptr inbounds { ptr, i64 }, ptr %agg.tmp, i32 0, i32 0
  %3 = load ptr, ptr %2, align 8
  %4 = getelementptr inbounds { ptr, i64 }, ptr %agg.tmp, i32 0, i32 1
  %5 = load i64, ptr %4, align 8
  %call = call i64 @_ZN4llvh10hash_valueENS_9StringRefE(ptr %3, i64 %5)
  %coerce.dive = getelementptr inbounds %"class.llvh::hash_code", ptr %ref.tmp, i32 0, i32 0
  store i64 %call, ptr %coerce.dive, align 8
  %call1 = call noundef i64 @_ZNK4llvh9hash_codecvmEv(ptr noundef nonnull align 8 dereferenceable(8) %ref.tmp)
  %conv = trunc i64 %call1 to i32
  ret i32 %conv
}

declare i64 @_ZN4llvh10hash_valueENS_9StringRefE(ptr, i64) #2

; Function Attrs: mustprogress nounwind uwtable
define linkonce_odr hidden noundef i64 @_ZNK4llvh9hash_codecvmEv(ptr noundef nonnull align 8 dereferenceable(8) %this) #0 comdat align 2 {
entry:
  %this.addr = alloca ptr, align 8
  store ptr %this, ptr %this.addr, align 8
  %this1 = load ptr, ptr %this.addr, align 8
  %value = getelementptr inbounds %"class.llvh::hash_code", ptr %this1, i32 0, i32 0
  %0 = load i64, ptr %value, align 8
  ret i64 %0
}

; Function Attrs: nounwind willreturn memory(read)
declare i32 @memcmp(ptr noundef, ptr noundef, i64 noundef) #3

; Function Attrs: mustprogress nounwind uwtable
define linkonce_odr hidden noundef zeroext i1 @_ZN4llvh20shouldReverseIterateINS_9StringRefEEEbv() #0 comdat {
entry:
  ret i1 false
}

; Function Attrs: mustprogress nounwind uwtable
define linkonce_odr hidden noundef ptr @_ZN4llvh12DenseMapBaseINS_8DenseMapINS_9StringRefEPN6hermes12UniqueStringENS_12DenseMapInfoIS2_EENS_6detail12DenseMapPairIS2_S5_EEEES2_S5_S7_SA_E10getBucketsEv(ptr noundef nonnull align 1 dereferenceable(1) %this) #0 comdat align 2 {
entry:
  %this.addr = alloca ptr, align 8
  store ptr %this, ptr %this.addr, align 8
  %this1 = load ptr, ptr %this.addr, align 8
  %call = call noundef ptr @_ZNK4llvh8DenseMapINS_9StringRefEPN6hermes12UniqueStringENS_12DenseMapInfoIS1_EENS_6detail12DenseMapPairIS1_S4_EEE10getBucketsEv(ptr noundef nonnull align 8 dereferenceable(20) %this1)
  ret ptr %call
}

; Function Attrs: mustprogress nounwind uwtable
define linkonce_odr hidden void @_ZN4llvh16DenseMapIteratorINS_9StringRefEPN6hermes12UniqueStringENS_12DenseMapInfoIS1_EENS_6detail12DenseMapPairIS1_S4_EELb0EEC2EPS9_SB_RKNS_14DebugEpochBaseEb(ptr noundef nonnull align 8 dereferenceable(16) %this, ptr noundef %Pos, ptr noundef %E, ptr noundef nonnull align 1 dereferenceable(1) %Epoch, i1 noundef zeroext %NoAdvance) unnamed_addr #0 comdat align 2 {
entry:
  %this.addr = alloca ptr, align 8
  %Pos.addr = alloca ptr, align 8
  %E.addr = alloca ptr, align 8
  %Epoch.addr = alloca ptr, align 8
  %NoAdvance.addr = alloca i8, align 1
  store ptr %this, ptr %this.addr, align 8
  store ptr %Pos, ptr %Pos.addr, align 8
  store ptr %E, ptr %E.addr, align 8
  store ptr %Epoch, ptr %Epoch.addr, align 8
  %frombool = zext i1 %NoAdvance to i8
  store i8 %frombool, ptr %NoAdvance.addr, align 1
  %this1 = load ptr, ptr %this.addr, align 8
  %0 = load ptr, ptr %Epoch.addr, align 8
  call void @_ZN4llvh14DebugEpochBase10HandleBaseC2EPKS0_(ptr noundef nonnull align 1 dereferenceable(1) %this1, ptr noundef %0)
  %Ptr = getelementptr inbounds %"class.llvh::DenseMapIterator", ptr %this1, i32 0, i32 0
  %1 = load ptr, ptr %Pos.addr, align 8
  store ptr %1, ptr %Ptr, align 8
  %End = getelementptr inbounds %"class.llvh::DenseMapIterator", ptr %this1, i32 0, i32 1
  %2 = load ptr, ptr %E.addr, align 8
  store ptr %2, ptr %End, align 8
  %3 = load i8, ptr %NoAdvance.addr, align 1
  %tobool = trunc i8 %3 to i1
  br i1 %tobool, label %if.then, label %if.end

if.then:                                          ; preds = %entry
  br label %return

if.end:                                           ; preds = %entry
  %call = call noundef zeroext i1 @_ZN4llvh20shouldReverseIterateINS_9StringRefEEEbv()
  br i1 %call, label %if.then2, label %if.end3

if.then2:                                         ; preds = %if.end
  call void @_ZN4llvh16DenseMapIteratorINS_9StringRefEPN6hermes12UniqueStringENS_12DenseMapInfoIS1_EENS_6detail12DenseMapPairIS1_S4_EELb0EE23RetreatPastEmptyBucketsEv(ptr noundef nonnull align 8 dereferenceable(16) %this1)
  br label %return

if.end3:                                          ; preds = %if.end
  call void @_ZN4llvh16DenseMapIteratorINS_9StringRefEPN6hermes12UniqueStringENS_12DenseMapInfoIS1_EENS_6detail12DenseMapPairIS1_S4_EELb0EE23AdvancePastEmptyBucketsEv(ptr noundef nonnull align 8 dereferenceable(16) %this1)
  br label %return

return:                                           ; preds = %if.end3, %if.then2, %if.then
  ret void
}

; Function Attrs: mustprogress nounwind uwtable
define linkonce_odr hidden void @_ZN4llvh14DebugEpochBase10HandleBaseC2EPKS0_(ptr noundef nonnull align 1 dereferenceable(1) %this, ptr noundef %0) unnamed_addr #0 comdat align 2 {
entry:
  %this.addr = alloca ptr, align 8
  %.addr = alloca ptr, align 8
  store ptr %this, ptr %this.addr, align 8
  store ptr %0, ptr %.addr, align 8
  ret void
}

; Function Attrs: mustprogress nounwind uwtable
define linkonce_odr hidden void @_ZN4llvh16DenseMapIteratorINS_9StringRefEPN6hermes12UniqueStringENS_12DenseMapInfoIS1_EENS_6detail12DenseMapPairIS1_S4_EELb0EE23RetreatPastEmptyBucketsEv(ptr noundef nonnull align 8 dereferenceable(16) %this) #0 comdat align 2 {
entry:
  %this.addr = alloca ptr, align 8
  %Empty = alloca %"class.llvh::StringRef", align 8
  %Tombstone = alloca %"class.llvh::StringRef", align 8
  %agg.tmp = alloca %"class.llvh::StringRef", align 8
  %agg.tmp5 = alloca %"class.llvh::StringRef", align 8
  %agg.tmp7 = alloca %"class.llvh::StringRef", align 8
  %agg.tmp11 = alloca %"class.llvh::StringRef", align 8
  store ptr %this, ptr %this.addr, align 8
  %this1 = load ptr, ptr %this.addr, align 8
  %call = call { ptr, i64 } @_ZN4llvh12DenseMapInfoINS_9StringRefEE11getEmptyKeyEv()
  %0 = getelementptr inbounds { ptr, i64 }, ptr %Empty, i32 0, i32 0
  %1 = extractvalue { ptr, i64 } %call, 0
  store ptr %1, ptr %0, align 8
  %2 = getelementptr inbounds { ptr, i64 }, ptr %Empty, i32 0, i32 1
  %3 = extractvalue { ptr, i64 } %call, 1
  store i64 %3, ptr %2, align 8
  %call2 = call { ptr, i64 } @_ZN4llvh12DenseMapInfoINS_9StringRefEE15getTombstoneKeyEv()
  %4 = getelementptr inbounds { ptr, i64 }, ptr %Tombstone, i32 0, i32 0
  %5 = extractvalue { ptr, i64 } %call2, 0
  store ptr %5, ptr %4, align 8
  %6 = getelementptr inbounds { ptr, i64 }, ptr %Tombstone, i32 0, i32 1
  %7 = extractvalue { ptr, i64 } %call2, 1
  store i64 %7, ptr %6, align 8
  br label %while.cond

while.cond:                                       ; preds = %while.body, %entry
  %Ptr = getelementptr inbounds %"class.llvh::DenseMapIterator", ptr %this1, i32 0, i32 0
  %8 = load ptr, ptr %Ptr, align 8
  %End = getelementptr inbounds %"class.llvh::DenseMapIterator", ptr %this1, i32 0, i32 1
  %9 = load ptr, ptr %End, align 8
  %cmp = icmp ne ptr %8, %9
  br i1 %cmp, label %land.rhs, label %land.end

land.rhs:                                         ; preds = %while.cond
  %Ptr3 = getelementptr inbounds %"class.llvh::DenseMapIterator", ptr %this1, i32 0, i32 0
  %10 = load ptr, ptr %Ptr3, align 8
  %arrayidx = getelementptr inbounds %"struct.llvh::detail::DenseMapPair", ptr %10, i64 -1
  %call4 = call noundef nonnull align 8 dereferenceable(16) ptr @_ZN4llvh6detail12DenseMapPairINS_9StringRefEPN6hermes12UniqueStringEE8getFirstEv(ptr noundef nonnull align 8 dereferenceable(24) %arrayidx)
  call void @llvm.memcpy.p0.p0.i64(ptr align 8 %agg.tmp, ptr align 8 %call4, i64 16, i1 false)
  call void @llvm.memcpy.p0.p0.i64(ptr align 8 %agg.tmp5, ptr align 8 %Empty, i64 16, i1 false)
  %11 = getelementptr inbounds { ptr, i64 }, ptr %agg.tmp, i32 0, i32 0
  %12 = load ptr, ptr %11, align 8
  %13 = getelementptr inbounds { ptr, i64 }, ptr %agg.tmp, i32 0, i32 1
  %14 = load i64, ptr %13, align 8
  %15 = getelementptr inbounds { ptr, i64 }, ptr %agg.tmp5, i32 0, i32 0
  %16 = load ptr, ptr %15, align 8
  %17 = getelementptr inbounds { ptr, i64 }, ptr %agg.tmp5, i32 0, i32 1
  %18 = load i64, ptr %17, align 8
  %call6 = call noundef zeroext i1 @_ZN4llvh12DenseMapInfoINS_9StringRefEE7isEqualES1_S1_(ptr %12, i64 %14, ptr %16, i64 %18)
  br i1 %call6, label %lor.end, label %lor.rhs

lor.rhs:                                          ; preds = %land.rhs
  %Ptr8 = getelementptr inbounds %"class.llvh::DenseMapIterator", ptr %this1, i32 0, i32 0
  %19 = load ptr, ptr %Ptr8, align 8
  %arrayidx9 = getelementptr inbounds %"struct.llvh::detail::DenseMapPair", ptr %19, i64 -1
  %call10 = call noundef nonnull align 8 dereferenceable(16) ptr @_ZN4llvh6detail12DenseMapPairINS_9StringRefEPN6hermes12UniqueStringEE8getFirstEv(ptr noundef nonnull align 8 dereferenceable(24) %arrayidx9)
  call void @llvm.memcpy.p0.p0.i64(ptr align 8 %agg.tmp7, ptr align 8 %call10, i64 16, i1 false)
  call void @llvm.memcpy.p0.p0.i64(ptr align 8 %agg.tmp11, ptr align 8 %Tombstone, i64 16, i1 false)
  %20 = getelementptr inbounds { ptr, i64 }, ptr %agg.tmp7, i32 0, i32 0
  %21 = load ptr, ptr %20, align 8
  %22 = getelementptr inbounds { ptr, i64 }, ptr %agg.tmp7, i32 0, i32 1
  %23 = load i64, ptr %22, align 8
  %24 = getelementptr inbounds { ptr, i64 }, ptr %agg.tmp11, i32 0, i32 0
  %25 = load ptr, ptr %24, align 8
  %26 = getelementptr inbounds { ptr, i64 }, ptr %agg.tmp11, i32 0, i32 1
  %27 = load i64, ptr %26, align 8
  %call12 = call noundef zeroext i1 @_ZN4llvh12DenseMapInfoINS_9StringRefEE7isEqualES1_S1_(ptr %21, i64 %23, ptr %25, i64 %27)
  br label %lor.end

lor.end:                                          ; preds = %lor.rhs, %land.rhs
  %28 = phi i1 [ true, %land.rhs ], [ %call12, %lor.rhs ]
  br label %land.end

land.end:                                         ; preds = %lor.end, %while.cond
  %29 = phi i1 [ false, %while.cond ], [ %28, %lor.end ]
  br i1 %29, label %while.body, label %while.end

while.body:                                       ; preds = %land.end
  %Ptr13 = getelementptr inbounds %"class.llvh::DenseMapIterator", ptr %this1, i32 0, i32 0
  %30 = load ptr, ptr %Ptr13, align 8
  %incdec.ptr = getelementptr inbounds %"struct.llvh::detail::DenseMapPair", ptr %30, i32 -1
  store ptr %incdec.ptr, ptr %Ptr13, align 8
  br label %while.cond, !llvm.loop !6

while.end:                                        ; preds = %land.end
  ret void
}

; Function Attrs: mustprogress nounwind uwtable
define linkonce_odr hidden void @_ZN4llvh16DenseMapIteratorINS_9StringRefEPN6hermes12UniqueStringENS_12DenseMapInfoIS1_EENS_6detail12DenseMapPairIS1_S4_EELb0EE23AdvancePastEmptyBucketsEv(ptr noundef nonnull align 8 dereferenceable(16) %this) #0 comdat align 2 {
entry:
  %this.addr = alloca ptr, align 8
  %Empty = alloca %"class.llvh::StringRef", align 8
  %Tombstone = alloca %"class.llvh::StringRef", align 8
  %agg.tmp = alloca %"class.llvh::StringRef", align 8
  %agg.tmp5 = alloca %"class.llvh::StringRef", align 8
  %agg.tmp7 = alloca %"class.llvh::StringRef", align 8
  %agg.tmp10 = alloca %"class.llvh::StringRef", align 8
  store ptr %this, ptr %this.addr, align 8
  %this1 = load ptr, ptr %this.addr, align 8
  %call = call { ptr, i64 } @_ZN4llvh12DenseMapInfoINS_9StringRefEE11getEmptyKeyEv()
  %0 = getelementptr inbounds { ptr, i64 }, ptr %Empty, i32 0, i32 0
  %1 = extractvalue { ptr, i64 } %call, 0
  store ptr %1, ptr %0, align 8
  %2 = getelementptr inbounds { ptr, i64 }, ptr %Empty, i32 0, i32 1
  %3 = extractvalue { ptr, i64 } %call, 1
  store i64 %3, ptr %2, align 8
  %call2 = call { ptr, i64 } @_ZN4llvh12DenseMapInfoINS_9StringRefEE15getTombstoneKeyEv()
  %4 = getelementptr inbounds { ptr, i64 }, ptr %Tombstone, i32 0, i32 0
  %5 = extractvalue { ptr, i64 } %call2, 0
  store ptr %5, ptr %4, align 8
  %6 = getelementptr inbounds { ptr, i64 }, ptr %Tombstone, i32 0, i32 1
  %7 = extractvalue { ptr, i64 } %call2, 1
  store i64 %7, ptr %6, align 8
  br label %while.cond

while.cond:                                       ; preds = %while.body, %entry
  %Ptr = getelementptr inbounds %"class.llvh::DenseMapIterator", ptr %this1, i32 0, i32 0
  %8 = load ptr, ptr %Ptr, align 8
  %End = getelementptr inbounds %"class.llvh::DenseMapIterator", ptr %this1, i32 0, i32 1
  %9 = load ptr, ptr %End, align 8
  %cmp = icmp ne ptr %8, %9
  br i1 %cmp, label %land.rhs, label %land.end

land.rhs:                                         ; preds = %while.cond
  %Ptr3 = getelementptr inbounds %"class.llvh::DenseMapIterator", ptr %this1, i32 0, i32 0
  %10 = load ptr, ptr %Ptr3, align 8
  %call4 = call noundef nonnull align 8 dereferenceable(16) ptr @_ZN4llvh6detail12DenseMapPairINS_9StringRefEPN6hermes12UniqueStringEE8getFirstEv(ptr noundef nonnull align 8 dereferenceable(24) %10)
  call void @llvm.memcpy.p0.p0.i64(ptr align 8 %agg.tmp, ptr align 8 %call4, i64 16, i1 false)
  call void @llvm.memcpy.p0.p0.i64(ptr align 8 %agg.tmp5, ptr align 8 %Empty, i64 16, i1 false)
  %11 = getelementptr inbounds { ptr, i64 }, ptr %agg.tmp, i32 0, i32 0
  %12 = load ptr, ptr %11, align 8
  %13 = getelementptr inbounds { ptr, i64 }, ptr %agg.tmp, i32 0, i32 1
  %14 = load i64, ptr %13, align 8
  %15 = getelementptr inbounds { ptr, i64 }, ptr %agg.tmp5, i32 0, i32 0
  %16 = load ptr, ptr %15, align 8
  %17 = getelementptr inbounds { ptr, i64 }, ptr %agg.tmp5, i32 0, i32 1
  %18 = load i64, ptr %17, align 8
  %call6 = call noundef zeroext i1 @_ZN4llvh12DenseMapInfoINS_9StringRefEE7isEqualES1_S1_(ptr %12, i64 %14, ptr %16, i64 %18)
  br i1 %call6, label %lor.end, label %lor.rhs

lor.rhs:                                          ; preds = %land.rhs
  %Ptr8 = getelementptr inbounds %"class.llvh::DenseMapIterator", ptr %this1, i32 0, i32 0
  %19 = load ptr, ptr %Ptr8, align 8
  %call9 = call noundef nonnull align 8 dereferenceable(16) ptr @_ZN4llvh6detail12DenseMapPairINS_9StringRefEPN6hermes12UniqueStringEE8getFirstEv(ptr noundef nonnull align 8 dereferenceable(24) %19)
  call void @llvm.memcpy.p0.p0.i64(ptr align 8 %agg.tmp7, ptr align 8 %call9, i64 16, i1 false)
  call void @llvm.memcpy.p0.p0.i64(ptr align 8 %agg.tmp10, ptr align 8 %Tombstone, i64 16, i1 false)
  %20 = getelementptr inbounds { ptr, i64 }, ptr %agg.tmp7, i32 0, i32 0
  %21 = load ptr, ptr %20, align 8
  %22 = getelementptr inbounds { ptr, i64 }, ptr %agg.tmp7, i32 0, i32 1
  %23 = load i64, ptr %22, align 8
  %24 = getelementptr inbounds { ptr, i64 }, ptr %agg.tmp10, i32 0, i32 0
  %25 = load ptr, ptr %24, align 8
  %26 = getelementptr inbounds { ptr, i64 }, ptr %agg.tmp10, i32 0, i32 1
  %27 = load i64, ptr %26, align 8
  %call11 = call noundef zeroext i1 @_ZN4llvh12DenseMapInfoINS_9StringRefEE7isEqualES1_S1_(ptr %21, i64 %23, ptr %25, i64 %27)
  br label %lor.end

lor.end:                                          ; preds = %lor.rhs, %land.rhs
  %28 = phi i1 [ true, %land.rhs ], [ %call11, %lor.rhs ]
  br label %land.end

land.end:                                         ; preds = %lor.end, %while.cond
  %29 = phi i1 [ false, %while.cond ], [ %28, %lor.end ]
  br i1 %29, label %while.body, label %while.end

while.body:                                       ; preds = %land.end
  %Ptr12 = getelementptr inbounds %"class.llvh::DenseMapIterator", ptr %this1, i32 0, i32 0
  %30 = load ptr, ptr %Ptr12, align 8
  %incdec.ptr = getelementptr inbounds %"struct.llvh::detail::DenseMapPair", ptr %30, i32 1
  store ptr %incdec.ptr, ptr %Ptr12, align 8
  br label %while.cond, !llvm.loop !7

while.end:                                        ; preds = %land.end
  ret void
}

; Function Attrs: mustprogress nounwind uwtable
define linkonce_odr hidden noundef nonnull align 8 dereferenceable(16) ptr @_ZN4llvh6detail12DenseMapPairINS_9StringRefEPN6hermes12UniqueStringEE8getFirstEv(ptr noundef nonnull align 8 dereferenceable(24) %this) #0 comdat align 2 {
entry:
  %this.addr = alloca ptr, align 8
  store ptr %this, ptr %this.addr, align 8
  %this1 = load ptr, ptr %this.addr, align 8
  %first = getelementptr inbounds %"struct.std::pair", ptr %this1, i32 0, i32 0
  ret ptr %first
}

; Function Attrs: mustprogress nounwind uwtable
define linkonce_odr hidden noundef zeroext i1 @_ZNK4llvh16DenseMapIteratorINS_9StringRefEPN6hermes12UniqueStringENS_12DenseMapInfoIS1_EENS_6detail12DenseMapPairIS1_S4_EELb0EEeqERKSA_(ptr noundef nonnull align 8 dereferenceable(16) %this, ptr noundef nonnull align 8 dereferenceable(16) %RHS) #0 comdat align 2 {
entry:
  %this.addr = alloca ptr, align 8
  %RHS.addr = alloca ptr, align 8
  store ptr %this, ptr %this.addr, align 8
  store ptr %RHS, ptr %RHS.addr, align 8
  %this1 = load ptr, ptr %this.addr, align 8
  %Ptr = getelementptr inbounds %"class.llvh::DenseMapIterator", ptr %this1, i32 0, i32 0
  %0 = load ptr, ptr %Ptr, align 8
  %1 = load ptr, ptr %RHS.addr, align 8
  %Ptr2 = getelementptr inbounds %"class.llvh::DenseMapIterator", ptr %1, i32 0, i32 0
  %2 = load ptr, ptr %Ptr2, align 8
  %cmp = icmp eq ptr %0, %2
  ret i1 %cmp
}

; Function Attrs: noreturn
declare void @_ZN6hermes12hermes_fatalEPKc(ptr noundef) #4

; Function Attrs: mustprogress nounwind uwtable
define linkonce_odr hidden noundef ptr @_ZN6hermes28BacktrackingBumpPtrAllocator8AllocateEmm(ptr noundef nonnull align 8 dereferenceable(32) %this, i64 noundef %size, i64 noundef %alignment) #0 comdat align 2 {
entry:
  %retval = alloca ptr, align 8
  %this.addr = alloca ptr, align 8
  %size.addr = alloca i64, align 8
  %alignment.addr = alloca i64, align 8
  %currentSlab = alloca i64, align 8
  %ptr = alloca ptr, align 8
  store ptr %this, ptr %this.addr, align 8
  store i64 %size, ptr %size.addr, align 8
  store i64 %alignment, ptr %alignment.addr, align 8
  %this1 = load ptr, ptr %this.addr, align 8
  %slabs_ = getelementptr inbounds %"class.hermes::BacktrackingBumpPtrAllocator", ptr %this1, i32 0, i32 0
  %state_ = getelementptr inbounds %"class.hermes::BacktrackingBumpPtrAllocator", ptr %this1, i32 0, i32 1
  %0 = load ptr, ptr %state_, align 8
  %slab = getelementptr inbounds %"class.hermes::BacktrackingBumpPtrAllocator::State", ptr %0, i32 0, i32 0
  %1 = load i32, ptr %slab, align 8
  %conv = zext i32 %1 to i64
  %call = call noundef nonnull align 8 dereferenceable(8) ptr @_ZNSt6vectorISt10unique_ptrIN6hermes28BacktrackingBumpPtrAllocator4SlabESt14default_deleteIS3_EESaIS6_EEixEm(ptr noundef nonnull align 8 dereferenceable(24) %slabs_, i64 noundef %conv) #10
  %call2 = call noundef ptr @_ZNKSt10unique_ptrIN6hermes28BacktrackingBumpPtrAllocator4SlabESt14default_deleteIS2_EE3getEv(ptr noundef nonnull align 8 dereferenceable(8) %call) #10
  %data = getelementptr inbounds %"struct.hermes::BacktrackingBumpPtrAllocator::Slab", ptr %call2, i32 0, i32 0
  %2 = ptrtoint ptr %data to i64
  store i64 %2, ptr %currentSlab, align 8
  %3 = load i64, ptr %currentSlab, align 8
  %state_3 = getelementptr inbounds %"class.hermes::BacktrackingBumpPtrAllocator", ptr %this1, i32 0, i32 1
  %4 = load ptr, ptr %state_3, align 8
  %offset = getelementptr inbounds %"class.hermes::BacktrackingBumpPtrAllocator::State", ptr %4, i32 0, i32 1
  %5 = load i64, ptr %offset, align 8
  %6 = load i64, ptr %alignment.addr, align 8
  %call4 = call noundef i64 @_ZN6hermes28BacktrackingBumpPtrAllocator11alignOffsetEmmm(i64 noundef %3, i64 noundef %5, i64 noundef %6)
  %state_5 = getelementptr inbounds %"class.hermes::BacktrackingBumpPtrAllocator", ptr %this1, i32 0, i32 1
  %7 = load ptr, ptr %state_5, align 8
  %offset6 = getelementptr inbounds %"class.hermes::BacktrackingBumpPtrAllocator::State", ptr %7, i32 0, i32 1
  store i64 %call4, ptr %offset6, align 8
  %8 = load i64, ptr %size.addr, align 8
  %cmp = icmp ugt i64 %8, 262144
  br i1 %cmp, label %lor.end, label %lor.rhs

lor.rhs:                                          ; preds = %entry
  %state_7 = getelementptr inbounds %"class.hermes::BacktrackingBumpPtrAllocator", ptr %this1, i32 0, i32 1
  %9 = load ptr, ptr %state_7, align 8
  %offset8 = getelementptr inbounds %"class.hermes::BacktrackingBumpPtrAllocator::State", ptr %9, i32 0, i32 1
  %10 = load i64, ptr %offset8, align 8
  %11 = load i64, ptr %size.addr, align 8
  %add = add i64 %10, %11
  %cmp9 = icmp ugt i64 %add, 262144
  br label %lor.end

lor.end:                                          ; preds = %lor.rhs, %entry
  %12 = phi i1 [ true, %entry ], [ %cmp9, %lor.rhs ]
  br i1 %12, label %if.then, label %if.end

if.then:                                          ; preds = %lor.end
  %13 = load i64, ptr %size.addr, align 8
  %14 = load i64, ptr %alignment.addr, align 8
  %call11 = call noundef ptr @_ZN6hermes28BacktrackingBumpPtrAllocator15allocateNewSlabEmm(ptr noundef nonnull align 8 dereferenceable(32) %this1, i64 noundef %13, i64 noundef %14)
  store ptr %call11, ptr %retval, align 8
  br label %return

if.end:                                           ; preds = %lor.end
  %15 = load i64, ptr %currentSlab, align 8
  %state_12 = getelementptr inbounds %"class.hermes::BacktrackingBumpPtrAllocator", ptr %this1, i32 0, i32 1
  %16 = load ptr, ptr %state_12, align 8
  %offset13 = getelementptr inbounds %"class.hermes::BacktrackingBumpPtrAllocator::State", ptr %16, i32 0, i32 1
  %17 = load i64, ptr %offset13, align 8
  %add14 = add i64 %15, %17
  %18 = inttoptr i64 %add14 to ptr
  store ptr %18, ptr %ptr, align 8
  %19 = load i64, ptr %size.addr, align 8
  %state_15 = getelementptr inbounds %"class.hermes::BacktrackingBumpPtrAllocator", ptr %this1, i32 0, i32 1
  %20 = load ptr, ptr %state_15, align 8
  %offset16 = getelementptr inbounds %"class.hermes::BacktrackingBumpPtrAllocator::State", ptr %20, i32 0, i32 1
  %21 = load i64, ptr %offset16, align 8
  %add17 = add i64 %21, %19
  store i64 %add17, ptr %offset16, align 8
  %22 = load ptr, ptr %ptr, align 8
  store ptr %22, ptr %retval, align 8
  br label %return

return:                                           ; preds = %if.end, %if.then
  %23 = load ptr, ptr %retval, align 8
  ret ptr %23
}

; Function Attrs: mustprogress nounwind uwtable
define linkonce_odr hidden noundef nonnull align 8 dereferenceable(8) ptr @_ZNSt6vectorISt10unique_ptrIN6hermes28BacktrackingBumpPtrAllocator4SlabESt14default_deleteIS3_EESaIS6_EEixEm(ptr noundef nonnull align 8 dereferenceable(24) %this, i64 noundef %__n) #0 comdat align 2 {
entry:
  %this.addr = alloca ptr, align 8
  %__n.addr = alloca i64, align 8
  store ptr %this, ptr %this.addr, align 8
  store i64 %__n, ptr %__n.addr, align 8
  %this1 = load ptr, ptr %this.addr, align 8
  %_M_impl = getelementptr inbounds %"struct.std::_Vector_base", ptr %this1, i32 0, i32 0
  %_M_start = getelementptr inbounds %"struct.std::_Vector_base<std::unique_ptr<hermes::BacktrackingBumpPtrAllocator::Slab>, std::allocator<std::unique_ptr<hermes::BacktrackingBumpPtrAllocator::Slab>>>::_Vector_impl_data", ptr %_M_impl, i32 0, i32 0
  %0 = load ptr, ptr %_M_start, align 8
  %1 = load i64, ptr %__n.addr, align 8
  %add.ptr = getelementptr inbounds %"class.std::unique_ptr.29", ptr %0, i64 %1
  ret ptr %add.ptr
}

; Function Attrs: mustprogress nounwind uwtable
define linkonce_odr hidden noundef ptr @_ZNKSt10unique_ptrIN6hermes28BacktrackingBumpPtrAllocator4SlabESt14default_deleteIS2_EE3getEv(ptr noundef nonnull align 8 dereferenceable(8) %this) #0 comdat align 2 {
entry:
  %this.addr = alloca ptr, align 8
  store ptr %this, ptr %this.addr, align 8
  %this1 = load ptr, ptr %this.addr, align 8
  %_M_t = getelementptr inbounds %"class.std::unique_ptr.29", ptr %this1, i32 0, i32 0
  %call = call noundef ptr @_ZNKSt15__uniq_ptr_implIN6hermes28BacktrackingBumpPtrAllocator4SlabESt14default_deleteIS2_EE6_M_ptrEv(ptr noundef nonnull align 8 dereferenceable(8) %_M_t) #10
  ret ptr %call
}

; Function Attrs: mustprogress nounwind uwtable
define linkonce_odr hidden noundef i64 @_ZN6hermes28BacktrackingBumpPtrAllocator11alignOffsetEmmm(i64 noundef %base, i64 noundef %offset, i64 noundef %alignment) #0 comdat align 2 {
entry:
  %base.addr = alloca i64, align 8
  %offset.addr = alloca i64, align 8
  %alignment.addr = alloca i64, align 8
  store i64 %base, ptr %base.addr, align 8
  store i64 %offset, ptr %offset.addr, align 8
  store i64 %alignment, ptr %alignment.addr, align 8
  %0 = load i64, ptr %base.addr, align 8
  %1 = load i64, ptr %offset.addr, align 8
  %add = add i64 %0, %1
  %2 = load i64, ptr %alignment.addr, align 8
  %call = call noundef i64 @_ZN4llvh7alignToEmmm(i64 noundef %add, i64 noundef %2, i64 noundef 0)
  %3 = load i64, ptr %base.addr, align 8
  %sub = sub i64 %call, %3
  ret i64 %sub
}

declare noundef ptr @_ZN6hermes28BacktrackingBumpPtrAllocator15allocateNewSlabEmm(ptr noundef nonnull align 8 dereferenceable(32), i64 noundef, i64 noundef) #2

; Function Attrs: mustprogress nounwind uwtable
define linkonce_odr hidden noundef ptr @_ZNKSt15__uniq_ptr_implIN6hermes28BacktrackingBumpPtrAllocator4SlabESt14default_deleteIS2_EE6_M_ptrEv(ptr noundef nonnull align 8 dereferenceable(8) %this) #0 comdat align 2 {
entry:
  %this.addr = alloca ptr, align 8
  store ptr %this, ptr %this.addr, align 8
  %this1 = load ptr, ptr %this.addr, align 8
  %_M_t = getelementptr inbounds %"class.std::__uniq_ptr_impl.31", ptr %this1, i32 0, i32 0
  %call = call noundef nonnull align 8 dereferenceable(8) ptr @_ZSt3getILm0EJPN6hermes28BacktrackingBumpPtrAllocator4SlabESt14default_deleteIS2_EEERKNSt13tuple_elementIXT_ESt5tupleIJDpT0_EEE4typeERKSA_(ptr noundef nonnull align 8 dereferenceable(8) %_M_t) #10
  %0 = load ptr, ptr %call, align 8
  ret ptr %0
}

; Function Attrs: mustprogress nounwind uwtable
define linkonce_odr hidden noundef nonnull align 8 dereferenceable(8) ptr @_ZSt3getILm0EJPN6hermes28BacktrackingBumpPtrAllocator4SlabESt14default_deleteIS2_EEERKNSt13tuple_elementIXT_ESt5tupleIJDpT0_EEE4typeERKSA_(ptr noundef nonnull align 8 dereferenceable(8) %__t) #0 comdat {
entry:
  %__t.addr = alloca ptr, align 8
  store ptr %__t, ptr %__t.addr, align 8
  %0 = load ptr, ptr %__t.addr, align 8
  %call = call noundef nonnull align 8 dereferenceable(8) ptr @_ZSt12__get_helperILm0EPN6hermes28BacktrackingBumpPtrAllocator4SlabEJSt14default_deleteIS2_EEERKT0_RKSt11_Tuple_implIXT_EJS6_DpT1_EE(ptr noundef nonnull align 8 dereferenceable(8) %0) #10
  ret ptr %call
}

; Function Attrs: mustprogress nounwind uwtable
define linkonce_odr hidden noundef nonnull align 8 dereferenceable(8) ptr @_ZSt12__get_helperILm0EPN6hermes28BacktrackingBumpPtrAllocator4SlabEJSt14default_deleteIS2_EEERKT0_RKSt11_Tuple_implIXT_EJS6_DpT1_EE(ptr noundef nonnull align 8 dereferenceable(8) %__t) #0 comdat {
entry:
  %__t.addr = alloca ptr, align 8
  store ptr %__t, ptr %__t.addr, align 8
  %0 = load ptr, ptr %__t.addr, align 8
  %call = call noundef nonnull align 8 dereferenceable(8) ptr @_ZNSt11_Tuple_implILm0EJPN6hermes28BacktrackingBumpPtrAllocator4SlabESt14default_deleteIS2_EEE7_M_headERKS6_(ptr noundef nonnull align 8 dereferenceable(8) %0) #10
  ret ptr %call
}

; Function Attrs: mustprogress nounwind uwtable
define linkonce_odr hidden noundef nonnull align 8 dereferenceable(8) ptr @_ZNSt11_Tuple_implILm0EJPN6hermes28BacktrackingBumpPtrAllocator4SlabESt14default_deleteIS2_EEE7_M_headERKS6_(ptr noundef nonnull align 8 dereferenceable(8) %__t) #0 comdat align 2 {
entry:
  %__t.addr = alloca ptr, align 8
  store ptr %__t, ptr %__t.addr, align 8
  %0 = load ptr, ptr %__t.addr, align 8
  %call = call noundef nonnull align 8 dereferenceable(8) ptr @_ZNSt10_Head_baseILm0EPN6hermes28BacktrackingBumpPtrAllocator4SlabELb0EE7_M_headERKS4_(ptr noundef nonnull align 8 dereferenceable(8) %0) #10
  ret ptr %call
}

; Function Attrs: mustprogress nounwind uwtable
define linkonce_odr hidden noundef nonnull align 8 dereferenceable(8) ptr @_ZNSt10_Head_baseILm0EPN6hermes28BacktrackingBumpPtrAllocator4SlabELb0EE7_M_headERKS4_(ptr noundef nonnull align 8 dereferenceable(8) %__b) #0 comdat align 2 {
entry:
  %__b.addr = alloca ptr, align 8
  store ptr %__b, ptr %__b.addr, align 8
  %0 = load ptr, ptr %__b.addr, align 8
  %_M_head_impl = getelementptr inbounds %"struct.std::_Head_base.36", ptr %0, i32 0, i32 0
  ret ptr %_M_head_impl
}

; Function Attrs: mustprogress nounwind uwtable
define linkonce_odr hidden noundef i64 @_ZN4llvh7alignToEmmm(i64 noundef %Value, i64 noundef %Align, i64 noundef %Skew) #0 comdat {
entry:
  %Value.addr = alloca i64, align 8
  %Align.addr = alloca i64, align 8
  %Skew.addr = alloca i64, align 8
  store i64 %Value, ptr %Value.addr, align 8
  store i64 %Align, ptr %Align.addr, align 8
  store i64 %Skew, ptr %Skew.addr, align 8
  %0 = load i64, ptr %Align.addr, align 8
  %1 = load i64, ptr %Skew.addr, align 8
  %rem = urem i64 %1, %0
  store i64 %rem, ptr %Skew.addr, align 8
  %2 = load i64, ptr %Value.addr, align 8
  %3 = load i64, ptr %Align.addr, align 8
  %add = add i64 %2, %3
  %sub = sub i64 %add, 1
  %4 = load i64, ptr %Skew.addr, align 8
  %sub1 = sub i64 %sub, %4
  %5 = load i64, ptr %Align.addr, align 8
  %div = udiv i64 %sub1, %5
  %6 = load i64, ptr %Align.addr, align 8
  %mul = mul i64 %div, %6
  %7 = load i64, ptr %Skew.addr, align 8
  %add2 = add i64 %mul, %7
  ret i64 %add2
}

; Function Attrs: mustprogress nounwind uwtable
define linkonce_odr hidden noundef ptr @_ZN6hermes28BacktrackingBumpPtrAllocator8AllocateIcEEPT_mm(ptr noundef nonnull align 8 dereferenceable(32) %this, i64 noundef %num, i64 noundef %alignment) #0 comdat align 2 {
entry:
  %this.addr = alloca ptr, align 8
  %num.addr = alloca i64, align 8
  %alignment.addr = alloca i64, align 8
  %maxNum = alloca i64, align 8
  %size = alloca i64, align 8
  store ptr %this, ptr %this.addr, align 8
  store i64 %num, ptr %num.addr, align 8
  store i64 %alignment, ptr %alignment.addr, align 8
  %this1 = load ptr, ptr %this.addr, align 8
  store i64 -1, ptr %maxNum, align 8
  %0 = load i64, ptr %num.addr, align 8
  %cmp = icmp ugt i64 %0, -1
  br i1 %cmp, label %if.then, label %if.end

if.then:                                          ; preds = %entry
  call void @_ZN6hermes12hermes_fatalEPKc(ptr noundef @.str.1) #12
  unreachable

if.end:                                           ; preds = %entry
  %1 = load i64, ptr %num.addr, align 8
  %mul = mul i64 1, %1
  store i64 %mul, ptr %size, align 8
  %2 = load i64, ptr %size, align 8
  %3 = load i64, ptr %alignment.addr, align 8
  %call = call noundef ptr @_ZN6hermes28BacktrackingBumpPtrAllocator8AllocateEmm(ptr noundef nonnull align 8 dereferenceable(32) %this1, i64 noundef %2, i64 noundef %3)
  ret ptr %call
}

; Function Attrs: mustprogress nounwind uwtable
define linkonce_odr noundef ptr @_ZSt4copyIPKcPcET0_T_S4_S3_(ptr noundef %__first, ptr noundef %__last, ptr noundef %__result) #0 comdat {
entry:
  %__first.addr = alloca ptr, align 8
  %__last.addr = alloca ptr, align 8
  %__result.addr = alloca ptr, align 8
  store ptr %__first, ptr %__first.addr, align 8
  store ptr %__last, ptr %__last.addr, align 8
  store ptr %__result, ptr %__result.addr, align 8
  %0 = load ptr, ptr %__first.addr, align 8
  %call = call noundef ptr @_ZSt12__miter_baseIPKcET_S2_(ptr noundef %0)
  %1 = load ptr, ptr %__last.addr, align 8
  %call1 = call noundef ptr @_ZSt12__miter_baseIPKcET_S2_(ptr noundef %1)
  %2 = load ptr, ptr %__result.addr, align 8
  %call2 = call noundef ptr @_ZSt13__copy_move_aILb0EPKcPcET1_T0_S4_S3_(ptr noundef %call, ptr noundef %call1, ptr noundef %2)
  ret ptr %call2
}

; Function Attrs: mustprogress nounwind uwtable
define linkonce_odr hidden noundef ptr @_ZNK4llvh9StringRef5beginEv(ptr noundef nonnull align 8 dereferenceable(16) %this) #0 comdat align 2 {
entry:
  %this.addr = alloca ptr, align 8
  store ptr %this, ptr %this.addr, align 8
  %this1 = load ptr, ptr %this.addr, align 8
  %Data = getelementptr inbounds %"class.llvh::StringRef", ptr %this1, i32 0, i32 0
  %0 = load ptr, ptr %Data, align 8
  ret ptr %0
}

; Function Attrs: mustprogress nounwind uwtable
define linkonce_odr hidden noundef ptr @_ZNK4llvh9StringRef3endEv(ptr noundef nonnull align 8 dereferenceable(16) %this) #0 comdat align 2 {
entry:
  %this.addr = alloca ptr, align 8
  store ptr %this, ptr %this.addr, align 8
  %this1 = load ptr, ptr %this.addr, align 8
  %Data = getelementptr inbounds %"class.llvh::StringRef", ptr %this1, i32 0, i32 0
  %0 = load ptr, ptr %Data, align 8
  %Length = getelementptr inbounds %"class.llvh::StringRef", ptr %this1, i32 0, i32 1
  %1 = load i64, ptr %Length, align 8
  %add.ptr = getelementptr inbounds i8, ptr %0, i64 %1
  ret ptr %add.ptr
}

; Function Attrs: mustprogress nounwind uwtable
define linkonce_odr noundef ptr @_ZSt13__copy_move_aILb0EPKcPcET1_T0_S4_S3_(ptr noundef %__first, ptr noundef %__last, ptr noundef %__result) #0 comdat {
entry:
  %__first.addr = alloca ptr, align 8
  %__last.addr = alloca ptr, align 8
  %__result.addr = alloca ptr, align 8
  store ptr %__first, ptr %__first.addr, align 8
  store ptr %__last, ptr %__last.addr, align 8
  store ptr %__result, ptr %__result.addr, align 8
  %0 = load ptr, ptr %__first.addr, align 8
  %call = call noundef ptr @_ZSt12__niter_baseIPKcET_S2_(ptr noundef %0) #10
  %1 = load ptr, ptr %__last.addr, align 8
  %call1 = call noundef ptr @_ZSt12__niter_baseIPKcET_S2_(ptr noundef %1) #10
  %2 = load ptr, ptr %__result.addr, align 8
  %call2 = call noundef ptr @_ZSt12__niter_baseIPcET_S1_(ptr noundef %2) #10
  %call3 = call noundef ptr @_ZSt14__copy_move_a1ILb0EPKcPcET1_T0_S4_S3_(ptr noundef %call, ptr noundef %call1, ptr noundef %call2)
  %call4 = call noundef ptr @_ZSt12__niter_wrapIPcET_RKS1_S1_(ptr noundef nonnull align 8 dereferenceable(8) %__result.addr, ptr noundef %call3)
  ret ptr %call4
}

; Function Attrs: mustprogress nounwind uwtable
define linkonce_odr noundef ptr @_ZSt12__miter_baseIPKcET_S2_(ptr noundef %__it) #0 comdat {
entry:
  %__it.addr = alloca ptr, align 8
  store ptr %__it, ptr %__it.addr, align 8
  %0 = load ptr, ptr %__it.addr, align 8
  ret ptr %0
}

; Function Attrs: mustprogress nounwind uwtable
define linkonce_odr noundef ptr @_ZSt12__niter_wrapIPcET_RKS1_S1_(ptr noundef nonnull align 8 dereferenceable(8) %0, ptr noundef %__res) #0 comdat {
entry:
  %.addr = alloca ptr, align 8
  %__res.addr = alloca ptr, align 8
  store ptr %0, ptr %.addr, align 8
  store ptr %__res, ptr %__res.addr, align 8
  %1 = load ptr, ptr %__res.addr, align 8
  ret ptr %1
}

; Function Attrs: mustprogress nounwind uwtable
define linkonce_odr noundef ptr @_ZSt14__copy_move_a1ILb0EPKcPcET1_T0_S4_S3_(ptr noundef %__first, ptr noundef %__last, ptr noundef %__result) #0 comdat {
entry:
  %__first.addr = alloca ptr, align 8
  %__last.addr = alloca ptr, align 8
  %__result.addr = alloca ptr, align 8
  store ptr %__first, ptr %__first.addr, align 8
  store ptr %__last, ptr %__last.addr, align 8
  store ptr %__result, ptr %__result.addr, align 8
  %0 = load ptr, ptr %__first.addr, align 8
  %1 = load ptr, ptr %__last.addr, align 8
  %2 = load ptr, ptr %__result.addr, align 8
  %call = call noundef ptr @_ZSt14__copy_move_a2ILb0EPKcPcET1_T0_S4_S3_(ptr noundef %0, ptr noundef %1, ptr noundef %2)
  ret ptr %call
}

; Function Attrs: mustprogress nounwind uwtable
define linkonce_odr noundef ptr @_ZSt12__niter_baseIPKcET_S2_(ptr noundef %__it) #0 comdat {
entry:
  %__it.addr = alloca ptr, align 8
  store ptr %__it, ptr %__it.addr, align 8
  %0 = load ptr, ptr %__it.addr, align 8
  ret ptr %0
}

; Function Attrs: mustprogress nounwind uwtable
define linkonce_odr noundef ptr @_ZSt12__niter_baseIPcET_S1_(ptr noundef %__it) #0 comdat {
entry:
  %__it.addr = alloca ptr, align 8
  store ptr %__it, ptr %__it.addr, align 8
  %0 = load ptr, ptr %__it.addr, align 8
  ret ptr %0
}

; Function Attrs: mustprogress nounwind uwtable
define linkonce_odr noundef ptr @_ZSt14__copy_move_a2ILb0EPKcPcET1_T0_S4_S3_(ptr noundef %__first, ptr noundef %__last, ptr noundef %__result) #0 comdat {
entry:
  %__first.addr = alloca ptr, align 8
  %__last.addr = alloca ptr, align 8
  %__result.addr = alloca ptr, align 8
  store ptr %__first, ptr %__first.addr, align 8
  store ptr %__last, ptr %__last.addr, align 8
  store ptr %__result, ptr %__result.addr, align 8
  %0 = load ptr, ptr %__first.addr, align 8
  %1 = load ptr, ptr %__last.addr, align 8
  %2 = load ptr, ptr %__result.addr, align 8
  %call = call noundef ptr @_ZNSt11__copy_moveILb0ELb1ESt26random_access_iterator_tagE8__copy_mIcEEPT_PKS3_S6_S4_(ptr noundef %0, ptr noundef %1, ptr noundef %2)
  ret ptr %call
}

; Function Attrs: mustprogress nounwind uwtable
define linkonce_odr noundef ptr @_ZNSt11__copy_moveILb0ELb1ESt26random_access_iterator_tagE8__copy_mIcEEPT_PKS3_S6_S4_(ptr noundef %__first, ptr noundef %__last, ptr noundef %__result) #0 comdat align 2 {
entry:
  %__first.addr = alloca ptr, align 8
  %__last.addr = alloca ptr, align 8
  %__result.addr = alloca ptr, align 8
  %_Num = alloca i64, align 8
  store ptr %__first, ptr %__first.addr, align 8
  store ptr %__last, ptr %__last.addr, align 8
  store ptr %__result, ptr %__result.addr, align 8
  %0 = load ptr, ptr %__last.addr, align 8
  %1 = load ptr, ptr %__first.addr, align 8
  %sub.ptr.lhs.cast = ptrtoint ptr %0 to i64
  %sub.ptr.rhs.cast = ptrtoint ptr %1 to i64
  %sub.ptr.sub = sub i64 %sub.ptr.lhs.cast, %sub.ptr.rhs.cast
  store i64 %sub.ptr.sub, ptr %_Num, align 8
  %2 = load i64, ptr %_Num, align 8
  %tobool = icmp ne i64 %2, 0
  br i1 %tobool, label %if.then, label %if.end

if.then:                                          ; preds = %entry
  %3 = load ptr, ptr %__result.addr, align 8
  %4 = load ptr, ptr %__first.addr, align 8
  %5 = load i64, ptr %_Num, align 8
  %mul = mul i64 1, %5
  call void @llvm.memmove.p0.p0.i64(ptr align 1 %3, ptr align 1 %4, i64 %mul, i1 false)
  br label %if.end

if.end:                                           ; preds = %if.then, %entry
  %6 = load ptr, ptr %__result.addr, align 8
  %7 = load i64, ptr %_Num, align 8
  %add.ptr = getelementptr inbounds i8, ptr %6, i64 %7
  ret ptr %add.ptr
}

; Function Attrs: nocallback nofree nounwind willreturn memory(argmem: readwrite)
declare void @llvm.memmove.p0.p0.i64(ptr nocapture writeonly, ptr nocapture readonly, i64, i1 immarg) #1

; Function Attrs: mustprogress nounwind uwtable
define linkonce_odr hidden void @_ZN4llvh12DenseMapBaseINS_8DenseMapINS_9StringRefEPN6hermes12UniqueStringENS_12DenseMapInfoIS2_EENS_6detail12DenseMapPairIS2_S5_EEEES2_S5_S7_SA_E11try_emplaceIJS5_EEESt4pairINS_16DenseMapIteratorIS2_S5_S7_SA_Lb0EEEbEOS2_DpOT_(ptr noalias sret(%"struct.std::pair.27") align 8 %agg.result, ptr noundef nonnull align 1 dereferenceable(1) %this, ptr noundef nonnull align 8 dereferenceable(16) %Key, ptr noundef nonnull align 8 dereferenceable(8) %Args) #0 comdat align 2 {
entry:
  %this.addr = alloca ptr, align 8
  %Key.addr = alloca ptr, align 8
  %Args.addr = alloca ptr, align 8
  %TheBucket = alloca ptr, align 8
  %ref.tmp = alloca %"class.llvh::DenseMapIterator", align 8
  %ref.tmp4 = alloca i8, align 1
  %ref.tmp6 = alloca %"class.llvh::DenseMapIterator", align 8
  %ref.tmp9 = alloca i8, align 1
  store ptr %this, ptr %this.addr, align 8
  store ptr %Key, ptr %Key.addr, align 8
  store ptr %Args, ptr %Args.addr, align 8
  %this1 = load ptr, ptr %this.addr, align 8
  %0 = load ptr, ptr %Key.addr, align 8
  %call = call noundef zeroext i1 @_ZN4llvh12DenseMapBaseINS_8DenseMapINS_9StringRefEPN6hermes12UniqueStringENS_12DenseMapInfoIS2_EENS_6detail12DenseMapPairIS2_S5_EEEES2_S5_S7_SA_E15LookupBucketForIS2_EEbRKT_RPSA_(ptr noundef nonnull align 1 dereferenceable(1) %this1, ptr noundef nonnull align 8 dereferenceable(16) %0, ptr noundef nonnull align 8 dereferenceable(8) %TheBucket)
  br i1 %call, label %if.then, label %if.end

if.then:                                          ; preds = %entry
  %1 = load ptr, ptr %TheBucket, align 8
  %call2 = call noundef ptr @_ZN4llvh12DenseMapBaseINS_8DenseMapINS_9StringRefEPN6hermes12UniqueStringENS_12DenseMapInfoIS2_EENS_6detail12DenseMapPairIS2_S5_EEEES2_S5_S7_SA_E13getBucketsEndEv(ptr noundef nonnull align 1 dereferenceable(1) %this1)
  %call3 = call { ptr, ptr } @_ZN4llvh12DenseMapBaseINS_8DenseMapINS_9StringRefEPN6hermes12UniqueStringENS_12DenseMapInfoIS2_EENS_6detail12DenseMapPairIS2_S5_EEEES2_S5_S7_SA_E12makeIteratorEPSA_SD_RNS_14DebugEpochBaseEb(ptr noundef nonnull align 1 dereferenceable(1) %this1, ptr noundef %1, ptr noundef %call2, ptr noundef nonnull align 1 dereferenceable(1) %this1, i1 noundef zeroext true)
  %2 = getelementptr inbounds { ptr, ptr }, ptr %ref.tmp, i32 0, i32 0
  %3 = extractvalue { ptr, ptr } %call3, 0
  store ptr %3, ptr %2, align 8
  %4 = getelementptr inbounds { ptr, ptr }, ptr %ref.tmp, i32 0, i32 1
  %5 = extractvalue { ptr, ptr } %call3, 1
  store ptr %5, ptr %4, align 8
  store i8 0, ptr %ref.tmp4, align 1
  call void @_ZSt9make_pairIN4llvh16DenseMapIteratorINS0_9StringRefEPN6hermes12UniqueStringENS0_12DenseMapInfoIS2_EENS0_6detail12DenseMapPairIS2_S5_EELb0EEEbESt4pairINSt25__strip_reference_wrapperINSt5decayIT_E4typeEE6__typeENSD_INSE_IT0_E4typeEE6__typeEEOSF_OSK_(ptr sret(%"struct.std::pair.27") align 8 %agg.result, ptr noundef nonnull align 8 dereferenceable(16) %ref.tmp, ptr noundef nonnull align 1 dereferenceable(1) %ref.tmp4)
  br label %return

if.end:                                           ; preds = %entry
  %6 = load ptr, ptr %TheBucket, align 8
  %7 = load ptr, ptr %Key.addr, align 8
  %8 = load ptr, ptr %Args.addr, align 8
  %call5 = call noundef ptr @_ZN4llvh12DenseMapBaseINS_8DenseMapINS_9StringRefEPN6hermes12UniqueStringENS_12DenseMapInfoIS2_EENS_6detail12DenseMapPairIS2_S5_EEEES2_S5_S7_SA_E16InsertIntoBucketIS2_JS5_EEEPSA_SE_OT_DpOT0_(ptr noundef nonnull align 1 dereferenceable(1) %this1, ptr noundef %6, ptr noundef nonnull align 8 dereferenceable(16) %7, ptr noundef nonnull align 8 dereferenceable(8) %8)
  store ptr %call5, ptr %TheBucket, align 8
  %9 = load ptr, ptr %TheBucket, align 8
  %call7 = call noundef ptr @_ZN4llvh12DenseMapBaseINS_8DenseMapINS_9StringRefEPN6hermes12UniqueStringENS_12DenseMapInfoIS2_EENS_6detail12DenseMapPairIS2_S5_EEEES2_S5_S7_SA_E13getBucketsEndEv(ptr noundef nonnull align 1 dereferenceable(1) %this1)
  %call8 = call { ptr, ptr } @_ZN4llvh12DenseMapBaseINS_8DenseMapINS_9StringRefEPN6hermes12UniqueStringENS_12DenseMapInfoIS2_EENS_6detail12DenseMapPairIS2_S5_EEEES2_S5_S7_SA_E12makeIteratorEPSA_SD_RNS_14DebugEpochBaseEb(ptr noundef nonnull align 1 dereferenceable(1) %this1, ptr noundef %9, ptr noundef %call7, ptr noundef nonnull align 1 dereferenceable(1) %this1, i1 noundef zeroext true)
  %10 = getelementptr inbounds { ptr, ptr }, ptr %ref.tmp6, i32 0, i32 0
  %11 = extractvalue { ptr, ptr } %call8, 0
  store ptr %11, ptr %10, align 8
  %12 = getelementptr inbounds { ptr, ptr }, ptr %ref.tmp6, i32 0, i32 1
  %13 = extractvalue { ptr, ptr } %call8, 1
  store ptr %13, ptr %12, align 8
  store i8 1, ptr %ref.tmp9, align 1
  call void @_ZSt9make_pairIN4llvh16DenseMapIteratorINS0_9StringRefEPN6hermes12UniqueStringENS0_12DenseMapInfoIS2_EENS0_6detail12DenseMapPairIS2_S5_EELb0EEEbESt4pairINSt25__strip_reference_wrapperINSt5decayIT_E4typeEE6__typeENSD_INSE_IT0_E4typeEE6__typeEEOSF_OSK_(ptr sret(%"struct.std::pair.27") align 8 %agg.result, ptr noundef nonnull align 8 dereferenceable(16) %ref.tmp6, ptr noundef nonnull align 1 dereferenceable(1) %ref.tmp9)
  br label %return

return:                                           ; preds = %if.end, %if.then
  ret void
}

; Function Attrs: mustprogress nounwind uwtable
define linkonce_odr hidden void @_ZSt9make_pairIN4llvh16DenseMapIteratorINS0_9StringRefEPN6hermes12UniqueStringENS0_12DenseMapInfoIS2_EENS0_6detail12DenseMapPairIS2_S5_EELb0EEEbESt4pairINSt25__strip_reference_wrapperINSt5decayIT_E4typeEE6__typeENSD_INSE_IT0_E4typeEE6__typeEEOSF_OSK_(ptr noalias sret(%"struct.std::pair.27") align 8 %agg.result, ptr noundef nonnull align 8 dereferenceable(16) %__x, ptr noundef nonnull align 1 dereferenceable(1) %__y) #0 comdat {
entry:
  %__x.addr = alloca ptr, align 8
  %__y.addr = alloca ptr, align 8
  store ptr %__x, ptr %__x.addr, align 8
  store ptr %__y, ptr %__y.addr, align 8
  %0 = load ptr, ptr %__x.addr, align 8
  %1 = load ptr, ptr %__y.addr, align 8
  call void @_ZNSt4pairIN4llvh16DenseMapIteratorINS0_9StringRefEPN6hermes12UniqueStringENS0_12DenseMapInfoIS2_EENS0_6detail12DenseMapPairIS2_S5_EELb0EEEbEC2ISB_bTnNSt9enable_ifIXaaclsr5_PCCPE22_MoveConstructiblePairIT_T0_EEclsr5_PCCPE30_ImplicitlyMoveConvertiblePairISF_SG_EEEbE4typeELb1EEEOSF_OSG_(ptr noundef nonnull align 8 dereferenceable(17) %agg.result, ptr noundef nonnull align 8 dereferenceable(16) %0, ptr noundef nonnull align 1 dereferenceable(1) %1)
  ret void
}

; Function Attrs: mustprogress nounwind uwtable
define linkonce_odr hidden noundef ptr @_ZN4llvh12DenseMapBaseINS_8DenseMapINS_9StringRefEPN6hermes12UniqueStringENS_12DenseMapInfoIS2_EENS_6detail12DenseMapPairIS2_S5_EEEES2_S5_S7_SA_E16InsertIntoBucketIS2_JS5_EEEPSA_SE_OT_DpOT0_(ptr noundef nonnull align 1 dereferenceable(1) %this, ptr noundef %TheBucket, ptr noundef nonnull align 8 dereferenceable(16) %Key, ptr noundef nonnull align 8 dereferenceable(8) %Values) #0 comdat align 2 {
entry:
  %this.addr = alloca ptr, align 8
  %TheBucket.addr = alloca ptr, align 8
  %Key.addr = alloca ptr, align 8
  %Values.addr = alloca ptr, align 8
  store ptr %this, ptr %this.addr, align 8
  store ptr %TheBucket, ptr %TheBucket.addr, align 8
  store ptr %Key, ptr %Key.addr, align 8
  store ptr %Values, ptr %Values.addr, align 8
  %this1 = load ptr, ptr %this.addr, align 8
  %0 = load ptr, ptr %Key.addr, align 8
  %1 = load ptr, ptr %Key.addr, align 8
  %2 = load ptr, ptr %TheBucket.addr, align 8
  %call = call noundef ptr @_ZN4llvh12DenseMapBaseINS_8DenseMapINS_9StringRefEPN6hermes12UniqueStringENS_12DenseMapInfoIS2_EENS_6detail12DenseMapPairIS2_S5_EEEES2_S5_S7_SA_E20InsertIntoBucketImplIS2_EEPSA_RKS2_RKT_SE_(ptr noundef nonnull align 1 dereferenceable(1) %this1, ptr noundef nonnull align 8 dereferenceable(16) %0, ptr noundef nonnull align 8 dereferenceable(16) %1, ptr noundef %2)
  store ptr %call, ptr %TheBucket.addr, align 8
  %3 = load ptr, ptr %Key.addr, align 8
  %4 = load ptr, ptr %TheBucket.addr, align 8
  %call2 = call noundef nonnull align 8 dereferenceable(16) ptr @_ZN4llvh6detail12DenseMapPairINS_9StringRefEPN6hermes12UniqueStringEE8getFirstEv(ptr noundef nonnull align 8 dereferenceable(24) %4)
  call void @llvm.memcpy.p0.p0.i64(ptr align 8 %call2, ptr align 8 %3, i64 16, i1 false)
  %5 = load ptr, ptr %TheBucket.addr, align 8
  %call3 = call noundef nonnull align 8 dereferenceable(8) ptr @_ZN4llvh6detail12DenseMapPairINS_9StringRefEPN6hermes12UniqueStringEE9getSecondEv(ptr noundef nonnull align 8 dereferenceable(24) %5)
  %6 = load ptr, ptr %Values.addr, align 8
  %7 = load ptr, ptr %6, align 8
  store ptr %7, ptr %call3, align 8
  %8 = load ptr, ptr %TheBucket.addr, align 8
  ret ptr %8
}

; Function Attrs: mustprogress nounwind uwtable
define linkonce_odr hidden void @_ZNSt4pairIN4llvh16DenseMapIteratorINS0_9StringRefEPN6hermes12UniqueStringENS0_12DenseMapInfoIS2_EENS0_6detail12DenseMapPairIS2_S5_EELb0EEEbEC2ISB_bTnNSt9enable_ifIXaaclsr5_PCCPE22_MoveConstructiblePairIT_T0_EEclsr5_PCCPE30_ImplicitlyMoveConvertiblePairISF_SG_EEEbE4typeELb1EEEOSF_OSG_(ptr noundef nonnull align 8 dereferenceable(17) %this, ptr noundef nonnull align 8 dereferenceable(16) %__x, ptr noundef nonnull align 1 dereferenceable(1) %__y) unnamed_addr #0 comdat align 2 {
entry:
  %this.addr = alloca ptr, align 8
  %__x.addr = alloca ptr, align 8
  %__y.addr = alloca ptr, align 8
  store ptr %this, ptr %this.addr, align 8
  store ptr %__x, ptr %__x.addr, align 8
  store ptr %__y, ptr %__y.addr, align 8
  %this1 = load ptr, ptr %this.addr, align 8
  %first = getelementptr inbounds %"struct.std::pair.27", ptr %this1, i32 0, i32 0
  %0 = load ptr, ptr %__x.addr, align 8
  call void @llvm.memcpy.p0.p0.i64(ptr align 8 %first, ptr align 8 %0, i64 16, i1 false)
  %second = getelementptr inbounds %"struct.std::pair.27", ptr %this1, i32 0, i32 1
  %1 = load ptr, ptr %__y.addr, align 8
  %2 = load i8, ptr %1, align 1
  %tobool = trunc i8 %2 to i1
  %frombool = zext i1 %tobool to i8
  store i8 %frombool, ptr %second, align 8
  ret void
}

; Function Attrs: mustprogress nounwind uwtable
define linkonce_odr hidden noundef ptr @_ZN4llvh12DenseMapBaseINS_8DenseMapINS_9StringRefEPN6hermes12UniqueStringENS_12DenseMapInfoIS2_EENS_6detail12DenseMapPairIS2_S5_EEEES2_S5_S7_SA_E20InsertIntoBucketImplIS2_EEPSA_RKS2_RKT_SE_(ptr noundef nonnull align 1 dereferenceable(1) %this, ptr noundef nonnull align 8 dereferenceable(16) %Key, ptr noundef nonnull align 8 dereferenceable(16) %Lookup, ptr noundef %TheBucket) #0 comdat align 2 {
entry:
  %this.addr = alloca ptr, align 8
  %Key.addr = alloca ptr, align 8
  %Lookup.addr = alloca ptr, align 8
  %TheBucket.addr = alloca ptr, align 8
  %NewNumEntries = alloca i32, align 4
  %NumBuckets = alloca i32, align 4
  %EmptyKey = alloca %"class.llvh::StringRef", align 8
  %agg.tmp = alloca %"class.llvh::StringRef", align 8
  %agg.tmp15 = alloca %"class.llvh::StringRef", align 8
  store ptr %this, ptr %this.addr, align 8
  store ptr %Key, ptr %Key.addr, align 8
  store ptr %Lookup, ptr %Lookup.addr, align 8
  store ptr %TheBucket, ptr %TheBucket.addr, align 8
  %this1 = load ptr, ptr %this.addr, align 8
  call void @_ZN4llvh14DebugEpochBase14incrementEpochEv(ptr noundef nonnull align 1 dereferenceable(1) %this1)
  %call = call noundef i32 @_ZNK4llvh12DenseMapBaseINS_8DenseMapINS_9StringRefEPN6hermes12UniqueStringENS_12DenseMapInfoIS2_EENS_6detail12DenseMapPairIS2_S5_EEEES2_S5_S7_SA_E13getNumEntriesEv(ptr noundef nonnull align 1 dereferenceable(1) %this1)
  %add = add i32 %call, 1
  store i32 %add, ptr %NewNumEntries, align 4
  %call2 = call noundef i32 @_ZNK4llvh12DenseMapBaseINS_8DenseMapINS_9StringRefEPN6hermes12UniqueStringENS_12DenseMapInfoIS2_EENS_6detail12DenseMapPairIS2_S5_EEEES2_S5_S7_SA_E13getNumBucketsEv(ptr noundef nonnull align 1 dereferenceable(1) %this1)
  store i32 %call2, ptr %NumBuckets, align 4
  %0 = load i32, ptr %NewNumEntries, align 4
  %mul = mul i32 %0, 4
  %1 = load i32, ptr %NumBuckets, align 4
  %mul3 = mul i32 %1, 3
  %cmp = icmp uge i32 %mul, %mul3
  br i1 %cmp, label %if.then, label %if.else

if.then:                                          ; preds = %entry
  %2 = load i32, ptr %NumBuckets, align 4
  %mul4 = mul i32 %2, 2
  call void @_ZN4llvh12DenseMapBaseINS_8DenseMapINS_9StringRefEPN6hermes12UniqueStringENS_12DenseMapInfoIS2_EENS_6detail12DenseMapPairIS2_S5_EEEES2_S5_S7_SA_E4growEj(ptr noundef nonnull align 1 dereferenceable(1) %this1, i32 noundef %mul4)
  %3 = load ptr, ptr %Lookup.addr, align 8
  %call5 = call noundef zeroext i1 @_ZN4llvh12DenseMapBaseINS_8DenseMapINS_9StringRefEPN6hermes12UniqueStringENS_12DenseMapInfoIS2_EENS_6detail12DenseMapPairIS2_S5_EEEES2_S5_S7_SA_E15LookupBucketForIS2_EEbRKT_RPSA_(ptr noundef nonnull align 1 dereferenceable(1) %this1, ptr noundef nonnull align 8 dereferenceable(16) %3, ptr noundef nonnull align 8 dereferenceable(8) %TheBucket.addr)
  %call6 = call noundef i32 @_ZNK4llvh12DenseMapBaseINS_8DenseMapINS_9StringRefEPN6hermes12UniqueStringENS_12DenseMapInfoIS2_EENS_6detail12DenseMapPairIS2_S5_EEEES2_S5_S7_SA_E13getNumBucketsEv(ptr noundef nonnull align 1 dereferenceable(1) %this1)
  store i32 %call6, ptr %NumBuckets, align 4
  br label %if.end12

if.else:                                          ; preds = %entry
  %4 = load i32, ptr %NumBuckets, align 4
  %5 = load i32, ptr %NewNumEntries, align 4
  %call7 = call noundef i32 @_ZNK4llvh12DenseMapBaseINS_8DenseMapINS_9StringRefEPN6hermes12UniqueStringENS_12DenseMapInfoIS2_EENS_6detail12DenseMapPairIS2_S5_EEEES2_S5_S7_SA_E16getNumTombstonesEv(ptr noundef nonnull align 1 dereferenceable(1) %this1)
  %add8 = add i32 %5, %call7
  %sub = sub i32 %4, %add8
  %6 = load i32, ptr %NumBuckets, align 4
  %div = udiv i32 %6, 8
  %cmp9 = icmp ule i32 %sub, %div
  br i1 %cmp9, label %if.then10, label %if.end

if.then10:                                        ; preds = %if.else
  %7 = load i32, ptr %NumBuckets, align 4
  call void @_ZN4llvh12DenseMapBaseINS_8DenseMapINS_9StringRefEPN6hermes12UniqueStringENS_12DenseMapInfoIS2_EENS_6detail12DenseMapPairIS2_S5_EEEES2_S5_S7_SA_E4growEj(ptr noundef nonnull align 1 dereferenceable(1) %this1, i32 noundef %7)
  %8 = load ptr, ptr %Lookup.addr, align 8
  %call11 = call noundef zeroext i1 @_ZN4llvh12DenseMapBaseINS_8DenseMapINS_9StringRefEPN6hermes12UniqueStringENS_12DenseMapInfoIS2_EENS_6detail12DenseMapPairIS2_S5_EEEES2_S5_S7_SA_E15LookupBucketForIS2_EEbRKT_RPSA_(ptr noundef nonnull align 1 dereferenceable(1) %this1, ptr noundef nonnull align 8 dereferenceable(16) %8, ptr noundef nonnull align 8 dereferenceable(8) %TheBucket.addr)
  br label %if.end

if.end:                                           ; preds = %if.then10, %if.else
  br label %if.end12

if.end12:                                         ; preds = %if.end, %if.then
  call void @_ZN4llvh12DenseMapBaseINS_8DenseMapINS_9StringRefEPN6hermes12UniqueStringENS_12DenseMapInfoIS2_EENS_6detail12DenseMapPairIS2_S5_EEEES2_S5_S7_SA_E19incrementNumEntriesEv(ptr noundef nonnull align 1 dereferenceable(1) %this1)
  %call13 = call { ptr, i64 } @_ZN4llvh12DenseMapBaseINS_8DenseMapINS_9StringRefEPN6hermes12UniqueStringENS_12DenseMapInfoIS2_EENS_6detail12DenseMapPairIS2_S5_EEEES2_S5_S7_SA_E11getEmptyKeyEv()
  %9 = getelementptr inbounds { ptr, i64 }, ptr %EmptyKey, i32 0, i32 0
  %10 = extractvalue { ptr, i64 } %call13, 0
  store ptr %10, ptr %9, align 8
  %11 = getelementptr inbounds { ptr, i64 }, ptr %EmptyKey, i32 0, i32 1
  %12 = extractvalue { ptr, i64 } %call13, 1
  store i64 %12, ptr %11, align 8
  %13 = load ptr, ptr %TheBucket.addr, align 8
  %call14 = call noundef nonnull align 8 dereferenceable(16) ptr @_ZN4llvh6detail12DenseMapPairINS_9StringRefEPN6hermes12UniqueStringEE8getFirstEv(ptr noundef nonnull align 8 dereferenceable(24) %13)
  call void @llvm.memcpy.p0.p0.i64(ptr align 8 %agg.tmp, ptr align 8 %call14, i64 16, i1 false)
  call void @llvm.memcpy.p0.p0.i64(ptr align 8 %agg.tmp15, ptr align 8 %EmptyKey, i64 16, i1 false)
  %14 = getelementptr inbounds { ptr, i64 }, ptr %agg.tmp, i32 0, i32 0
  %15 = load ptr, ptr %14, align 8
  %16 = getelementptr inbounds { ptr, i64 }, ptr %agg.tmp, i32 0, i32 1
  %17 = load i64, ptr %16, align 8
  %18 = getelementptr inbounds { ptr, i64 }, ptr %agg.tmp15, i32 0, i32 0
  %19 = load ptr, ptr %18, align 8
  %20 = getelementptr inbounds { ptr, i64 }, ptr %agg.tmp15, i32 0, i32 1
  %21 = load i64, ptr %20, align 8
  %call16 = call noundef zeroext i1 @_ZN4llvh12DenseMapInfoINS_9StringRefEE7isEqualES1_S1_(ptr %15, i64 %17, ptr %19, i64 %21)
  br i1 %call16, label %if.end18, label %if.then17

if.then17:                                        ; preds = %if.end12
  call void @_ZN4llvh12DenseMapBaseINS_8DenseMapINS_9StringRefEPN6hermes12UniqueStringENS_12DenseMapInfoIS2_EENS_6detail12DenseMapPairIS2_S5_EEEES2_S5_S7_SA_E22decrementNumTombstonesEv(ptr noundef nonnull align 1 dereferenceable(1) %this1)
  br label %if.end18

if.end18:                                         ; preds = %if.then17, %if.end12
  %22 = load ptr, ptr %TheBucket.addr, align 8
  ret ptr %22
}

; Function Attrs: mustprogress nounwind uwtable
define linkonce_odr hidden noundef nonnull align 8 dereferenceable(8) ptr @_ZN4llvh6detail12DenseMapPairINS_9StringRefEPN6hermes12UniqueStringEE9getSecondEv(ptr noundef nonnull align 8 dereferenceable(24) %this) #0 comdat align 2 {
entry:
  %this.addr = alloca ptr, align 8
  store ptr %this, ptr %this.addr, align 8
  %this1 = load ptr, ptr %this.addr, align 8
  %second = getelementptr inbounds %"struct.std::pair", ptr %this1, i32 0, i32 1
  ret ptr %second
}

; Function Attrs: mustprogress nounwind uwtable
define linkonce_odr hidden void @_ZN4llvh14DebugEpochBase14incrementEpochEv(ptr noundef nonnull align 1 dereferenceable(1) %this) #0 comdat align 2 {
entry:
  %this.addr = alloca ptr, align 8
  store ptr %this, ptr %this.addr, align 8
  ret void
}

; Function Attrs: mustprogress nounwind uwtable
define linkonce_odr hidden noundef i32 @_ZNK4llvh12DenseMapBaseINS_8DenseMapINS_9StringRefEPN6hermes12UniqueStringENS_12DenseMapInfoIS2_EENS_6detail12DenseMapPairIS2_S5_EEEES2_S5_S7_SA_E13getNumEntriesEv(ptr noundef nonnull align 1 dereferenceable(1) %this) #0 comdat align 2 {
entry:
  %this.addr = alloca ptr, align 8
  store ptr %this, ptr %this.addr, align 8
  %this1 = load ptr, ptr %this.addr, align 8
  %call = call noundef i32 @_ZNK4llvh8DenseMapINS_9StringRefEPN6hermes12UniqueStringENS_12DenseMapInfoIS1_EENS_6detail12DenseMapPairIS1_S4_EEE13getNumEntriesEv(ptr noundef nonnull align 8 dereferenceable(20) %this1)
  ret i32 %call
}

; Function Attrs: mustprogress nounwind uwtable
define linkonce_odr hidden void @_ZN4llvh12DenseMapBaseINS_8DenseMapINS_9StringRefEPN6hermes12UniqueStringENS_12DenseMapInfoIS2_EENS_6detail12DenseMapPairIS2_S5_EEEES2_S5_S7_SA_E4growEj(ptr noundef nonnull align 1 dereferenceable(1) %this, i32 noundef %AtLeast) #0 comdat align 2 {
entry:
  %this.addr = alloca ptr, align 8
  %AtLeast.addr = alloca i32, align 4
  store ptr %this, ptr %this.addr, align 8
  store i32 %AtLeast, ptr %AtLeast.addr, align 4
  %this1 = load ptr, ptr %this.addr, align 8
  %0 = load i32, ptr %AtLeast.addr, align 4
  call void @_ZN4llvh8DenseMapINS_9StringRefEPN6hermes12UniqueStringENS_12DenseMapInfoIS1_EENS_6detail12DenseMapPairIS1_S4_EEE4growEj(ptr noundef nonnull align 8 dereferenceable(20) %this1, i32 noundef %0)
  ret void
}

; Function Attrs: mustprogress nounwind uwtable
define linkonce_odr hidden noundef i32 @_ZNK4llvh12DenseMapBaseINS_8DenseMapINS_9StringRefEPN6hermes12UniqueStringENS_12DenseMapInfoIS2_EENS_6detail12DenseMapPairIS2_S5_EEEES2_S5_S7_SA_E16getNumTombstonesEv(ptr noundef nonnull align 1 dereferenceable(1) %this) #0 comdat align 2 {
entry:
  %this.addr = alloca ptr, align 8
  store ptr %this, ptr %this.addr, align 8
  %this1 = load ptr, ptr %this.addr, align 8
  %call = call noundef i32 @_ZNK4llvh8DenseMapINS_9StringRefEPN6hermes12UniqueStringENS_12DenseMapInfoIS1_EENS_6detail12DenseMapPairIS1_S4_EEE16getNumTombstonesEv(ptr noundef nonnull align 8 dereferenceable(20) %this1)
  ret i32 %call
}

; Function Attrs: mustprogress nounwind uwtable
define linkonce_odr hidden void @_ZN4llvh12DenseMapBaseINS_8DenseMapINS_9StringRefEPN6hermes12UniqueStringENS_12DenseMapInfoIS2_EENS_6detail12DenseMapPairIS2_S5_EEEES2_S5_S7_SA_E19incrementNumEntriesEv(ptr noundef nonnull align 1 dereferenceable(1) %this) #0 comdat align 2 {
entry:
  %this.addr = alloca ptr, align 8
  store ptr %this, ptr %this.addr, align 8
  %this1 = load ptr, ptr %this.addr, align 8
  %call = call noundef i32 @_ZNK4llvh12DenseMapBaseINS_8DenseMapINS_9StringRefEPN6hermes12UniqueStringENS_12DenseMapInfoIS2_EENS_6detail12DenseMapPairIS2_S5_EEEES2_S5_S7_SA_E13getNumEntriesEv(ptr noundef nonnull align 1 dereferenceable(1) %this1)
  %add = add i32 %call, 1
  call void @_ZN4llvh12DenseMapBaseINS_8DenseMapINS_9StringRefEPN6hermes12UniqueStringENS_12DenseMapInfoIS2_EENS_6detail12DenseMapPairIS2_S5_EEEES2_S5_S7_SA_E13setNumEntriesEj(ptr noundef nonnull align 1 dereferenceable(1) %this1, i32 noundef %add)
  ret void
}

; Function Attrs: mustprogress nounwind uwtable
define linkonce_odr hidden void @_ZN4llvh12DenseMapBaseINS_8DenseMapINS_9StringRefEPN6hermes12UniqueStringENS_12DenseMapInfoIS2_EENS_6detail12DenseMapPairIS2_S5_EEEES2_S5_S7_SA_E22decrementNumTombstonesEv(ptr noundef nonnull align 1 dereferenceable(1) %this) #0 comdat align 2 {
entry:
  %this.addr = alloca ptr, align 8
  store ptr %this, ptr %this.addr, align 8
  %this1 = load ptr, ptr %this.addr, align 8
  %call = call noundef i32 @_ZNK4llvh12DenseMapBaseINS_8DenseMapINS_9StringRefEPN6hermes12UniqueStringENS_12DenseMapInfoIS2_EENS_6detail12DenseMapPairIS2_S5_EEEES2_S5_S7_SA_E16getNumTombstonesEv(ptr noundef nonnull align 1 dereferenceable(1) %this1)
  %sub = sub i32 %call, 1
  call void @_ZN4llvh12DenseMapBaseINS_8DenseMapINS_9StringRefEPN6hermes12UniqueStringENS_12DenseMapInfoIS2_EENS_6detail12DenseMapPairIS2_S5_EEEES2_S5_S7_SA_E16setNumTombstonesEj(ptr noundef nonnull align 1 dereferenceable(1) %this1, i32 noundef %sub)
  ret void
}

; Function Attrs: mustprogress nounwind uwtable
define linkonce_odr hidden noundef i32 @_ZNK4llvh8DenseMapINS_9StringRefEPN6hermes12UniqueStringENS_12DenseMapInfoIS1_EENS_6detail12DenseMapPairIS1_S4_EEE13getNumEntriesEv(ptr noundef nonnull align 8 dereferenceable(20) %this) #0 comdat align 2 {
entry:
  %this.addr = alloca ptr, align 8
  store ptr %this, ptr %this.addr, align 8
  %this1 = load ptr, ptr %this.addr, align 8
  %NumEntries = getelementptr inbounds %"class.llvh::DenseMap", ptr %this1, i32 0, i32 1
  %0 = load i32, ptr %NumEntries, align 8
  ret i32 %0
}

; Function Attrs: mustprogress nounwind uwtable
define linkonce_odr hidden void @_ZN4llvh8DenseMapINS_9StringRefEPN6hermes12UniqueStringENS_12DenseMapInfoIS1_EENS_6detail12DenseMapPairIS1_S4_EEE4growEj(ptr noundef nonnull align 8 dereferenceable(20) %this, i32 noundef %AtLeast) #0 comdat align 2 {
entry:
  %this.addr = alloca ptr, align 8
  %AtLeast.addr = alloca i32, align 4
  %OldNumBuckets = alloca i32, align 4
  %OldBuckets = alloca ptr, align 8
  %ref.tmp = alloca i32, align 4
  %ref.tmp2 = alloca i32, align 4
  store ptr %this, ptr %this.addr, align 8
  store i32 %AtLeast, ptr %AtLeast.addr, align 4
  %this1 = load ptr, ptr %this.addr, align 8
  %NumBuckets = getelementptr inbounds %"class.llvh::DenseMap", ptr %this1, i32 0, i32 3
  %0 = load i32, ptr %NumBuckets, align 8
  store i32 %0, ptr %OldNumBuckets, align 4
  %Buckets = getelementptr inbounds %"class.llvh::DenseMap", ptr %this1, i32 0, i32 0
  %1 = load ptr, ptr %Buckets, align 8
  store ptr %1, ptr %OldBuckets, align 8
  store i32 64, ptr %ref.tmp, align 4
  %2 = load i32, ptr %AtLeast.addr, align 4
  %sub = sub i32 %2, 1
  %conv = zext i32 %sub to i64
  %call = call noundef i64 @_ZN4llvh12NextPowerOf2Em(i64 noundef %conv)
  %conv3 = trunc i64 %call to i32
  store i32 %conv3, ptr %ref.tmp2, align 4
  %call4 = call noundef nonnull align 4 dereferenceable(4) ptr @_ZSt3maxIjERKT_S2_S2_(ptr noundef nonnull align 4 dereferenceable(4) %ref.tmp, ptr noundef nonnull align 4 dereferenceable(4) %ref.tmp2)
  %3 = load i32, ptr %call4, align 4
  %call5 = call noundef zeroext i1 @_ZN4llvh8DenseMapINS_9StringRefEPN6hermes12UniqueStringENS_12DenseMapInfoIS1_EENS_6detail12DenseMapPairIS1_S4_EEE15allocateBucketsEj(ptr noundef nonnull align 8 dereferenceable(20) %this1, i32 noundef %3)
  %4 = load ptr, ptr %OldBuckets, align 8
  %tobool = icmp ne ptr %4, null
  br i1 %tobool, label %if.end, label %if.then

if.then:                                          ; preds = %entry
  call void @_ZN4llvh12DenseMapBaseINS_8DenseMapINS_9StringRefEPN6hermes12UniqueStringENS_12DenseMapInfoIS2_EENS_6detail12DenseMapPairIS2_S5_EEEES2_S5_S7_SA_E9initEmptyEv(ptr noundef nonnull align 1 dereferenceable(1) %this1)
  br label %return

if.end:                                           ; preds = %entry
  %5 = load ptr, ptr %OldBuckets, align 8
  %6 = load ptr, ptr %OldBuckets, align 8
  %7 = load i32, ptr %OldNumBuckets, align 4
  %idx.ext = zext i32 %7 to i64
  %add.ptr = getelementptr inbounds %"struct.llvh::detail::DenseMapPair", ptr %6, i64 %idx.ext
  call void @_ZN4llvh12DenseMapBaseINS_8DenseMapINS_9StringRefEPN6hermes12UniqueStringENS_12DenseMapInfoIS2_EENS_6detail12DenseMapPairIS2_S5_EEEES2_S5_S7_SA_E18moveFromOldBucketsEPSA_SD_(ptr noundef nonnull align 1 dereferenceable(1) %this1, ptr noundef %5, ptr noundef %add.ptr)
  %8 = load ptr, ptr %OldBuckets, align 8
  call void @_ZdlPv(ptr noundef %8) #10
  br label %return

return:                                           ; preds = %if.end, %if.then
  ret void
}

; Function Attrs: mustprogress nounwind uwtable
define linkonce_odr hidden noundef zeroext i1 @_ZN4llvh8DenseMapINS_9StringRefEPN6hermes12UniqueStringENS_12DenseMapInfoIS1_EENS_6detail12DenseMapPairIS1_S4_EEE15allocateBucketsEj(ptr noundef nonnull align 8 dereferenceable(20) %this, i32 noundef %Num) #0 comdat align 2 {
entry:
  %retval = alloca i1, align 1
  %this.addr = alloca ptr, align 8
  %Num.addr = alloca i32, align 4
  store ptr %this, ptr %this.addr, align 8
  store i32 %Num, ptr %Num.addr, align 4
  %this1 = load ptr, ptr %this.addr, align 8
  %0 = load i32, ptr %Num.addr, align 4
  %NumBuckets = getelementptr inbounds %"class.llvh::DenseMap", ptr %this1, i32 0, i32 3
  store i32 %0, ptr %NumBuckets, align 8
  %NumBuckets2 = getelementptr inbounds %"class.llvh::DenseMap", ptr %this1, i32 0, i32 3
  %1 = load i32, ptr %NumBuckets2, align 8
  %cmp = icmp eq i32 %1, 0
  br i1 %cmp, label %if.then, label %if.end

if.then:                                          ; preds = %entry
  %Buckets = getelementptr inbounds %"class.llvh::DenseMap", ptr %this1, i32 0, i32 0
  store ptr null, ptr %Buckets, align 8
  store i1 false, ptr %retval, align 1
  br label %return

if.end:                                           ; preds = %entry
  %NumBuckets3 = getelementptr inbounds %"class.llvh::DenseMap", ptr %this1, i32 0, i32 3
  %2 = load i32, ptr %NumBuckets3, align 8
  %conv = zext i32 %2 to i64
  %mul = mul i64 24, %conv
  %call = call noalias noundef nonnull ptr @_Znwm(i64 noundef %mul) #13
  %Buckets4 = getelementptr inbounds %"class.llvh::DenseMap", ptr %this1, i32 0, i32 0
  store ptr %call, ptr %Buckets4, align 8
  store i1 true, ptr %retval, align 1
  br label %return

return:                                           ; preds = %if.end, %if.then
  %3 = load i1, ptr %retval, align 1
  ret i1 %3
}

; Function Attrs: mustprogress nounwind uwtable
define linkonce_odr noundef nonnull align 4 dereferenceable(4) ptr @_ZSt3maxIjERKT_S2_S2_(ptr noundef nonnull align 4 dereferenceable(4) %__a, ptr noundef nonnull align 4 dereferenceable(4) %__b) #0 comdat {
entry:
  %retval = alloca ptr, align 8
  %__a.addr = alloca ptr, align 8
  %__b.addr = alloca ptr, align 8
  store ptr %__a, ptr %__a.addr, align 8
  store ptr %__b, ptr %__b.addr, align 8
  %0 = load ptr, ptr %__a.addr, align 8
  %1 = load i32, ptr %0, align 4
  %2 = load ptr, ptr %__b.addr, align 8
  %3 = load i32, ptr %2, align 4
  %cmp = icmp ult i32 %1, %3
  br i1 %cmp, label %if.then, label %if.end

if.then:                                          ; preds = %entry
  %4 = load ptr, ptr %__b.addr, align 8
  store ptr %4, ptr %retval, align 8
  br label %return

if.end:                                           ; preds = %entry
  %5 = load ptr, ptr %__a.addr, align 8
  store ptr %5, ptr %retval, align 8
  br label %return

return:                                           ; preds = %if.end, %if.then
  %6 = load ptr, ptr %retval, align 8
  ret ptr %6
}

; Function Attrs: mustprogress nounwind uwtable
define linkonce_odr hidden noundef i64 @_ZN4llvh12NextPowerOf2Em(i64 noundef %A) #0 comdat {
entry:
  %A.addr = alloca i64, align 8
  store i64 %A, ptr %A.addr, align 8
  %0 = load i64, ptr %A.addr, align 8
  %shr = lshr i64 %0, 1
  %1 = load i64, ptr %A.addr, align 8
  %or = or i64 %1, %shr
  store i64 %or, ptr %A.addr, align 8
  %2 = load i64, ptr %A.addr, align 8
  %shr1 = lshr i64 %2, 2
  %3 = load i64, ptr %A.addr, align 8
  %or2 = or i64 %3, %shr1
  store i64 %or2, ptr %A.addr, align 8
  %4 = load i64, ptr %A.addr, align 8
  %shr3 = lshr i64 %4, 4
  %5 = load i64, ptr %A.addr, align 8
  %or4 = or i64 %5, %shr3
  store i64 %or4, ptr %A.addr, align 8
  %6 = load i64, ptr %A.addr, align 8
  %shr5 = lshr i64 %6, 8
  %7 = load i64, ptr %A.addr, align 8
  %or6 = or i64 %7, %shr5
  store i64 %or6, ptr %A.addr, align 8
  %8 = load i64, ptr %A.addr, align 8
  %shr7 = lshr i64 %8, 16
  %9 = load i64, ptr %A.addr, align 8
  %or8 = or i64 %9, %shr7
  store i64 %or8, ptr %A.addr, align 8
  %10 = load i64, ptr %A.addr, align 8
  %shr9 = lshr i64 %10, 32
  %11 = load i64, ptr %A.addr, align 8
  %or10 = or i64 %11, %shr9
  store i64 %or10, ptr %A.addr, align 8
  %12 = load i64, ptr %A.addr, align 8
  %add = add i64 %12, 1
  ret i64 %add
}

; Function Attrs: mustprogress nounwind uwtable
define linkonce_odr hidden void @_ZN4llvh12DenseMapBaseINS_8DenseMapINS_9StringRefEPN6hermes12UniqueStringENS_12DenseMapInfoIS2_EENS_6detail12DenseMapPairIS2_S5_EEEES2_S5_S7_SA_E9initEmptyEv(ptr noundef nonnull align 1 dereferenceable(1) %this) #0 comdat align 2 {
entry:
  %this.addr = alloca ptr, align 8
  %EmptyKey = alloca %"class.llvh::StringRef", align 8
  %B = alloca ptr, align 8
  %E = alloca ptr, align 8
  store ptr %this, ptr %this.addr, align 8
  %this1 = load ptr, ptr %this.addr, align 8
  call void @_ZN4llvh12DenseMapBaseINS_8DenseMapINS_9StringRefEPN6hermes12UniqueStringENS_12DenseMapInfoIS2_EENS_6detail12DenseMapPairIS2_S5_EEEES2_S5_S7_SA_E13setNumEntriesEj(ptr noundef nonnull align 1 dereferenceable(1) %this1, i32 noundef 0)
  call void @_ZN4llvh12DenseMapBaseINS_8DenseMapINS_9StringRefEPN6hermes12UniqueStringENS_12DenseMapInfoIS2_EENS_6detail12DenseMapPairIS2_S5_EEEES2_S5_S7_SA_E16setNumTombstonesEj(ptr noundef nonnull align 1 dereferenceable(1) %this1, i32 noundef 0)
  %call = call { ptr, i64 } @_ZN4llvh12DenseMapBaseINS_8DenseMapINS_9StringRefEPN6hermes12UniqueStringENS_12DenseMapInfoIS2_EENS_6detail12DenseMapPairIS2_S5_EEEES2_S5_S7_SA_E11getEmptyKeyEv()
  %0 = getelementptr inbounds { ptr, i64 }, ptr %EmptyKey, i32 0, i32 0
  %1 = extractvalue { ptr, i64 } %call, 0
  store ptr %1, ptr %0, align 8
  %2 = getelementptr inbounds { ptr, i64 }, ptr %EmptyKey, i32 0, i32 1
  %3 = extractvalue { ptr, i64 } %call, 1
  store i64 %3, ptr %2, align 8
  %call2 = call noundef ptr @_ZN4llvh12DenseMapBaseINS_8DenseMapINS_9StringRefEPN6hermes12UniqueStringENS_12DenseMapInfoIS2_EENS_6detail12DenseMapPairIS2_S5_EEEES2_S5_S7_SA_E10getBucketsEv(ptr noundef nonnull align 1 dereferenceable(1) %this1)
  store ptr %call2, ptr %B, align 8
  %call3 = call noundef ptr @_ZN4llvh12DenseMapBaseINS_8DenseMapINS_9StringRefEPN6hermes12UniqueStringENS_12DenseMapInfoIS2_EENS_6detail12DenseMapPairIS2_S5_EEEES2_S5_S7_SA_E13getBucketsEndEv(ptr noundef nonnull align 1 dereferenceable(1) %this1)
  store ptr %call3, ptr %E, align 8
  br label %for.cond

for.cond:                                         ; preds = %for.inc, %entry
  %4 = load ptr, ptr %B, align 8
  %5 = load ptr, ptr %E, align 8
  %cmp = icmp ne ptr %4, %5
  br i1 %cmp, label %for.body, label %for.end

for.body:                                         ; preds = %for.cond
  %6 = load ptr, ptr %B, align 8
  %call4 = call noundef nonnull align 8 dereferenceable(16) ptr @_ZN4llvh6detail12DenseMapPairINS_9StringRefEPN6hermes12UniqueStringEE8getFirstEv(ptr noundef nonnull align 8 dereferenceable(24) %6)
  call void @llvm.memcpy.p0.p0.i64(ptr align 8 %call4, ptr align 8 %EmptyKey, i64 16, i1 false)
  br label %for.inc

for.inc:                                          ; preds = %for.body
  %7 = load ptr, ptr %B, align 8
  %incdec.ptr = getelementptr inbounds %"struct.llvh::detail::DenseMapPair", ptr %7, i32 1
  store ptr %incdec.ptr, ptr %B, align 8
  br label %for.cond, !llvm.loop !8

for.end:                                          ; preds = %for.cond
  ret void
}

; Function Attrs: mustprogress nounwind uwtable
define linkonce_odr hidden void @_ZN4llvh12DenseMapBaseINS_8DenseMapINS_9StringRefEPN6hermes12UniqueStringENS_12DenseMapInfoIS2_EENS_6detail12DenseMapPairIS2_S5_EEEES2_S5_S7_SA_E18moveFromOldBucketsEPSA_SD_(ptr noundef nonnull align 1 dereferenceable(1) %this, ptr noundef %OldBucketsBegin, ptr noundef %OldBucketsEnd) #0 comdat align 2 {
entry:
  %this.addr = alloca ptr, align 8
  %OldBucketsBegin.addr = alloca ptr, align 8
  %OldBucketsEnd.addr = alloca ptr, align 8
  %EmptyKey = alloca %"class.llvh::StringRef", align 8
  %TombstoneKey = alloca %"class.llvh::StringRef", align 8
  %B = alloca ptr, align 8
  %E = alloca ptr, align 8
  %agg.tmp = alloca %"class.llvh::StringRef", align 8
  %agg.tmp4 = alloca %"class.llvh::StringRef", align 8
  %agg.tmp6 = alloca %"class.llvh::StringRef", align 8
  %agg.tmp8 = alloca %"class.llvh::StringRef", align 8
  %DestBucket = alloca ptr, align 8
  %FoundVal = alloca i8, align 1
  store ptr %this, ptr %this.addr, align 8
  store ptr %OldBucketsBegin, ptr %OldBucketsBegin.addr, align 8
  store ptr %OldBucketsEnd, ptr %OldBucketsEnd.addr, align 8
  %this1 = load ptr, ptr %this.addr, align 8
  call void @_ZN4llvh12DenseMapBaseINS_8DenseMapINS_9StringRefEPN6hermes12UniqueStringENS_12DenseMapInfoIS2_EENS_6detail12DenseMapPairIS2_S5_EEEES2_S5_S7_SA_E9initEmptyEv(ptr noundef nonnull align 1 dereferenceable(1) %this1)
  %call = call { ptr, i64 } @_ZN4llvh12DenseMapBaseINS_8DenseMapINS_9StringRefEPN6hermes12UniqueStringENS_12DenseMapInfoIS2_EENS_6detail12DenseMapPairIS2_S5_EEEES2_S5_S7_SA_E11getEmptyKeyEv()
  %0 = getelementptr inbounds { ptr, i64 }, ptr %EmptyKey, i32 0, i32 0
  %1 = extractvalue { ptr, i64 } %call, 0
  store ptr %1, ptr %0, align 8
  %2 = getelementptr inbounds { ptr, i64 }, ptr %EmptyKey, i32 0, i32 1
  %3 = extractvalue { ptr, i64 } %call, 1
  store i64 %3, ptr %2, align 8
  %call2 = call { ptr, i64 } @_ZN4llvh12DenseMapBaseINS_8DenseMapINS_9StringRefEPN6hermes12UniqueStringENS_12DenseMapInfoIS2_EENS_6detail12DenseMapPairIS2_S5_EEEES2_S5_S7_SA_E15getTombstoneKeyEv()
  %4 = getelementptr inbounds { ptr, i64 }, ptr %TombstoneKey, i32 0, i32 0
  %5 = extractvalue { ptr, i64 } %call2, 0
  store ptr %5, ptr %4, align 8
  %6 = getelementptr inbounds { ptr, i64 }, ptr %TombstoneKey, i32 0, i32 1
  %7 = extractvalue { ptr, i64 } %call2, 1
  store i64 %7, ptr %6, align 8
  %8 = load ptr, ptr %OldBucketsBegin.addr, align 8
  store ptr %8, ptr %B, align 8
  %9 = load ptr, ptr %OldBucketsEnd.addr, align 8
  store ptr %9, ptr %E, align 8
  br label %for.cond

for.cond:                                         ; preds = %for.inc, %entry
  %10 = load ptr, ptr %B, align 8
  %11 = load ptr, ptr %E, align 8
  %cmp = icmp ne ptr %10, %11
  br i1 %cmp, label %for.body, label %for.end

for.body:                                         ; preds = %for.cond
  %12 = load ptr, ptr %B, align 8
  %call3 = call noundef nonnull align 8 dereferenceable(16) ptr @_ZN4llvh6detail12DenseMapPairINS_9StringRefEPN6hermes12UniqueStringEE8getFirstEv(ptr noundef nonnull align 8 dereferenceable(24) %12)
  call void @llvm.memcpy.p0.p0.i64(ptr align 8 %agg.tmp, ptr align 8 %call3, i64 16, i1 false)
  call void @llvm.memcpy.p0.p0.i64(ptr align 8 %agg.tmp4, ptr align 8 %EmptyKey, i64 16, i1 false)
  %13 = getelementptr inbounds { ptr, i64 }, ptr %agg.tmp, i32 0, i32 0
  %14 = load ptr, ptr %13, align 8
  %15 = getelementptr inbounds { ptr, i64 }, ptr %agg.tmp, i32 0, i32 1
  %16 = load i64, ptr %15, align 8
  %17 = getelementptr inbounds { ptr, i64 }, ptr %agg.tmp4, i32 0, i32 0
  %18 = load ptr, ptr %17, align 8
  %19 = getelementptr inbounds { ptr, i64 }, ptr %agg.tmp4, i32 0, i32 1
  %20 = load i64, ptr %19, align 8
  %call5 = call noundef zeroext i1 @_ZN4llvh12DenseMapInfoINS_9StringRefEE7isEqualES1_S1_(ptr %14, i64 %16, ptr %18, i64 %20)
  br i1 %call5, label %if.end, label %land.lhs.true

land.lhs.true:                                    ; preds = %for.body
  %21 = load ptr, ptr %B, align 8
  %call7 = call noundef nonnull align 8 dereferenceable(16) ptr @_ZN4llvh6detail12DenseMapPairINS_9StringRefEPN6hermes12UniqueStringEE8getFirstEv(ptr noundef nonnull align 8 dereferenceable(24) %21)
  call void @llvm.memcpy.p0.p0.i64(ptr align 8 %agg.tmp6, ptr align 8 %call7, i64 16, i1 false)
  call void @llvm.memcpy.p0.p0.i64(ptr align 8 %agg.tmp8, ptr align 8 %TombstoneKey, i64 16, i1 false)
  %22 = getelementptr inbounds { ptr, i64 }, ptr %agg.tmp6, i32 0, i32 0
  %23 = load ptr, ptr %22, align 8
  %24 = getelementptr inbounds { ptr, i64 }, ptr %agg.tmp6, i32 0, i32 1
  %25 = load i64, ptr %24, align 8
  %26 = getelementptr inbounds { ptr, i64 }, ptr %agg.tmp8, i32 0, i32 0
  %27 = load ptr, ptr %26, align 8
  %28 = getelementptr inbounds { ptr, i64 }, ptr %agg.tmp8, i32 0, i32 1
  %29 = load i64, ptr %28, align 8
  %call9 = call noundef zeroext i1 @_ZN4llvh12DenseMapInfoINS_9StringRefEE7isEqualES1_S1_(ptr %23, i64 %25, ptr %27, i64 %29)
  br i1 %call9, label %if.end, label %if.then

if.then:                                          ; preds = %land.lhs.true
  %30 = load ptr, ptr %B, align 8
  %call10 = call noundef nonnull align 8 dereferenceable(16) ptr @_ZN4llvh6detail12DenseMapPairINS_9StringRefEPN6hermes12UniqueStringEE8getFirstEv(ptr noundef nonnull align 8 dereferenceable(24) %30)
  %call11 = call noundef zeroext i1 @_ZN4llvh12DenseMapBaseINS_8DenseMapINS_9StringRefEPN6hermes12UniqueStringENS_12DenseMapInfoIS2_EENS_6detail12DenseMapPairIS2_S5_EEEES2_S5_S7_SA_E15LookupBucketForIS2_EEbRKT_RPSA_(ptr noundef nonnull align 1 dereferenceable(1) %this1, ptr noundef nonnull align 8 dereferenceable(16) %call10, ptr noundef nonnull align 8 dereferenceable(8) %DestBucket)
  %frombool = zext i1 %call11 to i8
  store i8 %frombool, ptr %FoundVal, align 1
  %31 = load ptr, ptr %B, align 8
  %call12 = call noundef nonnull align 8 dereferenceable(16) ptr @_ZN4llvh6detail12DenseMapPairINS_9StringRefEPN6hermes12UniqueStringEE8getFirstEv(ptr noundef nonnull align 8 dereferenceable(24) %31)
  %32 = load ptr, ptr %DestBucket, align 8
  %call13 = call noundef nonnull align 8 dereferenceable(16) ptr @_ZN4llvh6detail12DenseMapPairINS_9StringRefEPN6hermes12UniqueStringEE8getFirstEv(ptr noundef nonnull align 8 dereferenceable(24) %32)
  call void @llvm.memcpy.p0.p0.i64(ptr align 8 %call13, ptr align 8 %call12, i64 16, i1 false)
  %33 = load ptr, ptr %DestBucket, align 8
  %call14 = call noundef nonnull align 8 dereferenceable(8) ptr @_ZN4llvh6detail12DenseMapPairINS_9StringRefEPN6hermes12UniqueStringEE9getSecondEv(ptr noundef nonnull align 8 dereferenceable(24) %33)
  %34 = load ptr, ptr %B, align 8
  %call15 = call noundef nonnull align 8 dereferenceable(8) ptr @_ZN4llvh6detail12DenseMapPairINS_9StringRefEPN6hermes12UniqueStringEE9getSecondEv(ptr noundef nonnull align 8 dereferenceable(24) %34)
  %35 = load ptr, ptr %call15, align 8
  store ptr %35, ptr %call14, align 8
  call void @_ZN4llvh12DenseMapBaseINS_8DenseMapINS_9StringRefEPN6hermes12UniqueStringENS_12DenseMapInfoIS2_EENS_6detail12DenseMapPairIS2_S5_EEEES2_S5_S7_SA_E19incrementNumEntriesEv(ptr noundef nonnull align 1 dereferenceable(1) %this1)
  %36 = load ptr, ptr %B, align 8
  %call16 = call noundef nonnull align 8 dereferenceable(8) ptr @_ZN4llvh6detail12DenseMapPairINS_9StringRefEPN6hermes12UniqueStringEE9getSecondEv(ptr noundef nonnull align 8 dereferenceable(24) %36)
  br label %if.end

if.end:                                           ; preds = %if.then, %land.lhs.true, %for.body
  %37 = load ptr, ptr %B, align 8
  %call17 = call noundef nonnull align 8 dereferenceable(16) ptr @_ZN4llvh6detail12DenseMapPairINS_9StringRefEPN6hermes12UniqueStringEE8getFirstEv(ptr noundef nonnull align 8 dereferenceable(24) %37)
  br label %for.inc

for.inc:                                          ; preds = %if.end
  %38 = load ptr, ptr %B, align 8
  %incdec.ptr = getelementptr inbounds %"struct.llvh::detail::DenseMapPair", ptr %38, i32 1
  store ptr %incdec.ptr, ptr %B, align 8
  br label %for.cond, !llvm.loop !9

for.end:                                          ; preds = %for.cond
  ret void
}

; Function Attrs: nobuiltin nounwind
declare void @_ZdlPv(ptr noundef) #5

; Function Attrs: nobuiltin allocsize(0)
declare noundef nonnull ptr @_Znwm(i64 noundef) #6

; Function Attrs: mustprogress nounwind uwtable
define linkonce_odr hidden void @_ZN4llvh12DenseMapBaseINS_8DenseMapINS_9StringRefEPN6hermes12UniqueStringENS_12DenseMapInfoIS2_EENS_6detail12DenseMapPairIS2_S5_EEEES2_S5_S7_SA_E13setNumEntriesEj(ptr noundef nonnull align 1 dereferenceable(1) %this, i32 noundef %Num) #0 comdat align 2 {
entry:
  %this.addr = alloca ptr, align 8
  %Num.addr = alloca i32, align 4
  store ptr %this, ptr %this.addr, align 8
  store i32 %Num, ptr %Num.addr, align 4
  %this1 = load ptr, ptr %this.addr, align 8
  %0 = load i32, ptr %Num.addr, align 4
  call void @_ZN4llvh8DenseMapINS_9StringRefEPN6hermes12UniqueStringENS_12DenseMapInfoIS1_EENS_6detail12DenseMapPairIS1_S4_EEE13setNumEntriesEj(ptr noundef nonnull align 8 dereferenceable(20) %this1, i32 noundef %0)
  ret void
}

; Function Attrs: mustprogress nounwind uwtable
define linkonce_odr hidden void @_ZN4llvh12DenseMapBaseINS_8DenseMapINS_9StringRefEPN6hermes12UniqueStringENS_12DenseMapInfoIS2_EENS_6detail12DenseMapPairIS2_S5_EEEES2_S5_S7_SA_E16setNumTombstonesEj(ptr noundef nonnull align 1 dereferenceable(1) %this, i32 noundef %Num) #0 comdat align 2 {
entry:
  %this.addr = alloca ptr, align 8
  %Num.addr = alloca i32, align 4
  store ptr %this, ptr %this.addr, align 8
  store i32 %Num, ptr %Num.addr, align 4
  %this1 = load ptr, ptr %this.addr, align 8
  %0 = load i32, ptr %Num.addr, align 4
  call void @_ZN4llvh8DenseMapINS_9StringRefEPN6hermes12UniqueStringENS_12DenseMapInfoIS1_EENS_6detail12DenseMapPairIS1_S4_EEE16setNumTombstonesEj(ptr noundef nonnull align 8 dereferenceable(20) %this1, i32 noundef %0)
  ret void
}

; Function Attrs: mustprogress nounwind uwtable
define linkonce_odr hidden void @_ZN4llvh8DenseMapINS_9StringRefEPN6hermes12UniqueStringENS_12DenseMapInfoIS1_EENS_6detail12DenseMapPairIS1_S4_EEE13setNumEntriesEj(ptr noundef nonnull align 8 dereferenceable(20) %this, i32 noundef %Num) #0 comdat align 2 {
entry:
  %this.addr = alloca ptr, align 8
  %Num.addr = alloca i32, align 4
  store ptr %this, ptr %this.addr, align 8
  store i32 %Num, ptr %Num.addr, align 4
  %this1 = load ptr, ptr %this.addr, align 8
  %0 = load i32, ptr %Num.addr, align 4
  %NumEntries = getelementptr inbounds %"class.llvh::DenseMap", ptr %this1, i32 0, i32 1
  store i32 %0, ptr %NumEntries, align 8
  ret void
}

; Function Attrs: mustprogress nounwind uwtable
define linkonce_odr hidden void @_ZN4llvh8DenseMapINS_9StringRefEPN6hermes12UniqueStringENS_12DenseMapInfoIS1_EENS_6detail12DenseMapPairIS1_S4_EEE16setNumTombstonesEj(ptr noundef nonnull align 8 dereferenceable(20) %this, i32 noundef %Num) #0 comdat align 2 {
entry:
  %this.addr = alloca ptr, align 8
  %Num.addr = alloca i32, align 4
  store ptr %this, ptr %this.addr, align 8
  store i32 %Num, ptr %Num.addr, align 4
  %this1 = load ptr, ptr %this.addr, align 8
  %0 = load i32, ptr %Num.addr, align 4
  %NumTombstones = getelementptr inbounds %"class.llvh::DenseMap", ptr %this1, i32 0, i32 2
  store i32 %0, ptr %NumTombstones, align 4
  ret void
}

; Function Attrs: mustprogress nounwind uwtable
define linkonce_odr hidden noundef i32 @_ZNK4llvh8DenseMapINS_9StringRefEPN6hermes12UniqueStringENS_12DenseMapInfoIS1_EENS_6detail12DenseMapPairIS1_S4_EEE16getNumTombstonesEv(ptr noundef nonnull align 8 dereferenceable(20) %this) #0 comdat align 2 {
entry:
  %this.addr = alloca ptr, align 8
  store ptr %this, ptr %this.addr, align 8
  %this1 = load ptr, ptr %this.addr, align 8
  %NumTombstones = getelementptr inbounds %"class.llvh::DenseMap", ptr %this1, i32 0, i32 2
  %0 = load i32, ptr %NumTombstones, align 4
  ret i32 %0
}

; Function Attrs: nounwind willreturn memory(read)
declare i64 @strlen(ptr noundef) #3

; Function Attrs: mustprogress nounwind uwtable
define linkonce_odr hidden { ptr, i8 } @_ZN6hermes6ESTree24RecursiveVisitorDispatchINS_25ES6ClassesTransformationsELb0EE5visitERS2_PNS0_4NodeES6_(ptr noundef nonnull align 8 dereferenceable(32) %v, ptr noundef %node, ptr noundef %parent) #0 comdat align 2 {
entry:
  %retval = alloca %"class.std::variant", align 8
  %v.addr = alloca ptr, align 8
  %node.addr = alloca ptr, align 8
  %parent.addr = alloca ptr, align 8
  %ref.tmp = alloca %"struct.hermes::ESTree::UnmodifiedT", align 1
  %ref.tmp7 = alloca %"struct.hermes::ESTree::UnmodifiedT", align 1
  %ref.tmp12 = alloca %"struct.hermes::ESTree::UnmodifiedT", align 1
  %ref.tmp17 = alloca %"struct.hermes::ESTree::UnmodifiedT", align 1
  %ref.tmp22 = alloca %"struct.hermes::ESTree::UnmodifiedT", align 1
  %ref.tmp27 = alloca %"struct.hermes::ESTree::UnmodifiedT", align 1
  %ref.tmp32 = alloca %"struct.hermes::ESTree::UnmodifiedT", align 1
  %ref.tmp37 = alloca %"struct.hermes::ESTree::UnmodifiedT", align 1
  %ref.tmp42 = alloca %"struct.hermes::ESTree::UnmodifiedT", align 1
  %ref.tmp47 = alloca %"struct.hermes::ESTree::UnmodifiedT", align 1
  %ref.tmp52 = alloca %"struct.hermes::ESTree::UnmodifiedT", align 1
  %ref.tmp57 = alloca %"struct.hermes::ESTree::UnmodifiedT", align 1
  %ref.tmp62 = alloca %"struct.hermes::ESTree::UnmodifiedT", align 1
  %ref.tmp67 = alloca %"struct.hermes::ESTree::UnmodifiedT", align 1
  %ref.tmp72 = alloca %"struct.hermes::ESTree::UnmodifiedT", align 1
  %ref.tmp77 = alloca %"struct.hermes::ESTree::UnmodifiedT", align 1
  %ref.tmp82 = alloca %"struct.hermes::ESTree::UnmodifiedT", align 1
  %ref.tmp87 = alloca %"struct.hermes::ESTree::UnmodifiedT", align 1
  %ref.tmp92 = alloca %"struct.hermes::ESTree::UnmodifiedT", align 1
  %ref.tmp97 = alloca %"struct.hermes::ESTree::UnmodifiedT", align 1
  %ref.tmp102 = alloca %"struct.hermes::ESTree::UnmodifiedT", align 1
  %ref.tmp107 = alloca %"struct.hermes::ESTree::UnmodifiedT", align 1
  %ref.tmp112 = alloca %"struct.hermes::ESTree::UnmodifiedT", align 1
  %ref.tmp117 = alloca %"struct.hermes::ESTree::UnmodifiedT", align 1
  %ref.tmp122 = alloca %"struct.hermes::ESTree::UnmodifiedT", align 1
  %ref.tmp127 = alloca %"struct.hermes::ESTree::UnmodifiedT", align 1
  %ref.tmp132 = alloca %"struct.hermes::ESTree::UnmodifiedT", align 1
  %ref.tmp137 = alloca %"struct.hermes::ESTree::UnmodifiedT", align 1
  %ref.tmp142 = alloca %"struct.hermes::ESTree::UnmodifiedT", align 1
  %ref.tmp147 = alloca %"struct.hermes::ESTree::UnmodifiedT", align 1
  %ref.tmp152 = alloca %"struct.hermes::ESTree::UnmodifiedT", align 1
  %ref.tmp157 = alloca %"struct.hermes::ESTree::UnmodifiedT", align 1
  %ref.tmp162 = alloca %"struct.hermes::ESTree::UnmodifiedT", align 1
  %ref.tmp167 = alloca %"struct.hermes::ESTree::UnmodifiedT", align 1
  %ref.tmp172 = alloca %"struct.hermes::ESTree::UnmodifiedT", align 1
  %ref.tmp177 = alloca %"struct.hermes::ESTree::UnmodifiedT", align 1
  %ref.tmp182 = alloca %"struct.hermes::ESTree::UnmodifiedT", align 1
  %ref.tmp187 = alloca %"struct.hermes::ESTree::UnmodifiedT", align 1
  %ref.tmp192 = alloca %"struct.hermes::ESTree::UnmodifiedT", align 1
  %ref.tmp197 = alloca %"struct.hermes::ESTree::UnmodifiedT", align 1
  %ref.tmp202 = alloca %"struct.hermes::ESTree::UnmodifiedT", align 1
  %ref.tmp207 = alloca %"class.std::variant", align 8
  %ref.tmp211 = alloca %"struct.hermes::ESTree::UnmodifiedT", align 1
  %ref.tmp216 = alloca %"struct.hermes::ESTree::UnmodifiedT", align 1
  %ref.tmp221 = alloca %"struct.hermes::ESTree::UnmodifiedT", align 1
  %ref.tmp226 = alloca %"struct.hermes::ESTree::UnmodifiedT", align 1
  %ref.tmp231 = alloca %"class.std::variant", align 8
  %ref.tmp235 = alloca %"struct.hermes::ESTree::UnmodifiedT", align 1
  %ref.tmp240 = alloca %"struct.hermes::ESTree::UnmodifiedT", align 1
  %ref.tmp245 = alloca %"struct.hermes::ESTree::UnmodifiedT", align 1
  %ref.tmp250 = alloca %"struct.hermes::ESTree::UnmodifiedT", align 1
  %ref.tmp255 = alloca %"struct.hermes::ESTree::UnmodifiedT", align 1
  %ref.tmp260 = alloca %"struct.hermes::ESTree::UnmodifiedT", align 1
  %ref.tmp265 = alloca %"struct.hermes::ESTree::UnmodifiedT", align 1
  %ref.tmp270 = alloca %"struct.hermes::ESTree::UnmodifiedT", align 1
  %ref.tmp275 = alloca %"struct.hermes::ESTree::UnmodifiedT", align 1
  %ref.tmp280 = alloca %"struct.hermes::ESTree::UnmodifiedT", align 1
  %ref.tmp285 = alloca %"struct.hermes::ESTree::UnmodifiedT", align 1
  %ref.tmp290 = alloca %"struct.hermes::ESTree::UnmodifiedT", align 1
  %ref.tmp295 = alloca %"struct.hermes::ESTree::UnmodifiedT", align 1
  %ref.tmp300 = alloca %"struct.hermes::ESTree::UnmodifiedT", align 1
  %ref.tmp305 = alloca %"struct.hermes::ESTree::UnmodifiedT", align 1
  %ref.tmp310 = alloca %"struct.hermes::ESTree::UnmodifiedT", align 1
  %ref.tmp315 = alloca %"struct.hermes::ESTree::UnmodifiedT", align 1
  %ref.tmp320 = alloca %"class.std::variant", align 8
  %ref.tmp324 = alloca %"class.std::variant", align 8
  %ref.tmp328 = alloca %"struct.hermes::ESTree::UnmodifiedT", align 1
  %ref.tmp333 = alloca %"struct.hermes::ESTree::UnmodifiedT", align 1
  %ref.tmp338 = alloca %"struct.hermes::ESTree::UnmodifiedT", align 1
  %ref.tmp343 = alloca %"struct.hermes::ESTree::UnmodifiedT", align 1
  %ref.tmp348 = alloca %"struct.hermes::ESTree::UnmodifiedT", align 1
  %ref.tmp353 = alloca %"struct.hermes::ESTree::UnmodifiedT", align 1
  %ref.tmp358 = alloca %"struct.hermes::ESTree::UnmodifiedT", align 1
  %ref.tmp363 = alloca %"struct.hermes::ESTree::UnmodifiedT", align 1
  %ref.tmp368 = alloca %"struct.hermes::ESTree::UnmodifiedT", align 1
  %ref.tmp373 = alloca %"struct.hermes::ESTree::UnmodifiedT", align 1
  %ref.tmp378 = alloca %"struct.hermes::ESTree::UnmodifiedT", align 1
  %ref.tmp383 = alloca %"struct.hermes::ESTree::UnmodifiedT", align 1
  %ref.tmp388 = alloca %"struct.hermes::ESTree::UnmodifiedT", align 1
  %ref.tmp393 = alloca %"struct.hermes::ESTree::UnmodifiedT", align 1
  %ref.tmp398 = alloca %"struct.hermes::ESTree::UnmodifiedT", align 1
  %ref.tmp403 = alloca %"struct.hermes::ESTree::UnmodifiedT", align 1
  %ref.tmp408 = alloca %"struct.hermes::ESTree::UnmodifiedT", align 1
  %ref.tmp413 = alloca %"struct.hermes::ESTree::UnmodifiedT", align 1
  %ref.tmp418 = alloca %"struct.hermes::ESTree::UnmodifiedT", align 1
  %ref.tmp423 = alloca %"struct.hermes::ESTree::UnmodifiedT", align 1
  %ref.tmp428 = alloca %"struct.hermes::ESTree::UnmodifiedT", align 1
  %ref.tmp433 = alloca %"struct.hermes::ESTree::UnmodifiedT", align 1
  %ref.tmp438 = alloca %"struct.hermes::ESTree::UnmodifiedT", align 1
  %ref.tmp443 = alloca %"struct.hermes::ESTree::UnmodifiedT", align 1
  %ref.tmp448 = alloca %"struct.hermes::ESTree::UnmodifiedT", align 1
  %ref.tmp453 = alloca %"struct.hermes::ESTree::UnmodifiedT", align 1
  %ref.tmp458 = alloca %"struct.hermes::ESTree::UnmodifiedT", align 1
  %ref.tmp463 = alloca %"struct.hermes::ESTree::UnmodifiedT", align 1
  %ref.tmp468 = alloca %"struct.hermes::ESTree::UnmodifiedT", align 1
  %ref.tmp473 = alloca %"struct.hermes::ESTree::UnmodifiedT", align 1
  %ref.tmp478 = alloca %"struct.hermes::ESTree::UnmodifiedT", align 1
  %ref.tmp483 = alloca %"struct.hermes::ESTree::UnmodifiedT", align 1
  %ref.tmp488 = alloca %"struct.hermes::ESTree::UnmodifiedT", align 1
  %ref.tmp493 = alloca %"struct.hermes::ESTree::UnmodifiedT", align 1
  %ref.tmp498 = alloca %"struct.hermes::ESTree::UnmodifiedT", align 1
  %ref.tmp503 = alloca %"struct.hermes::ESTree::UnmodifiedT", align 1
  %ref.tmp508 = alloca %"struct.hermes::ESTree::UnmodifiedT", align 1
  %ref.tmp513 = alloca %"struct.hermes::ESTree::UnmodifiedT", align 1
  %ref.tmp518 = alloca %"struct.hermes::ESTree::UnmodifiedT", align 1
  %ref.tmp523 = alloca %"struct.hermes::ESTree::UnmodifiedT", align 1
  %ref.tmp528 = alloca %"struct.hermes::ESTree::UnmodifiedT", align 1
  %ref.tmp533 = alloca %"struct.hermes::ESTree::UnmodifiedT", align 1
  %ref.tmp538 = alloca %"struct.hermes::ESTree::UnmodifiedT", align 1
  %ref.tmp543 = alloca %"struct.hermes::ESTree::UnmodifiedT", align 1
  %ref.tmp548 = alloca %"struct.hermes::ESTree::UnmodifiedT", align 1
  %ref.tmp553 = alloca %"struct.hermes::ESTree::UnmodifiedT", align 1
  %ref.tmp558 = alloca %"struct.hermes::ESTree::UnmodifiedT", align 1
  %ref.tmp563 = alloca %"struct.hermes::ESTree::UnmodifiedT", align 1
  %ref.tmp568 = alloca %"struct.hermes::ESTree::UnmodifiedT", align 1
  %ref.tmp573 = alloca %"struct.hermes::ESTree::UnmodifiedT", align 1
  %ref.tmp578 = alloca %"struct.hermes::ESTree::UnmodifiedT", align 1
  %ref.tmp583 = alloca %"struct.hermes::ESTree::UnmodifiedT", align 1
  %ref.tmp588 = alloca %"struct.hermes::ESTree::UnmodifiedT", align 1
  %ref.tmp593 = alloca %"struct.hermes::ESTree::UnmodifiedT", align 1
  %ref.tmp598 = alloca %"struct.hermes::ESTree::UnmodifiedT", align 1
  %ref.tmp603 = alloca %"struct.hermes::ESTree::UnmodifiedT", align 1
  %ref.tmp608 = alloca %"struct.hermes::ESTree::UnmodifiedT", align 1
  %ref.tmp613 = alloca %"struct.hermes::ESTree::UnmodifiedT", align 1
  %ref.tmp618 = alloca %"struct.hermes::ESTree::UnmodifiedT", align 1
  %ref.tmp623 = alloca %"struct.hermes::ESTree::UnmodifiedT", align 1
  %ref.tmp628 = alloca %"struct.hermes::ESTree::UnmodifiedT", align 1
  %ref.tmp633 = alloca %"struct.hermes::ESTree::UnmodifiedT", align 1
  %ref.tmp638 = alloca %"struct.hermes::ESTree::UnmodifiedT", align 1
  %ref.tmp643 = alloca %"struct.hermes::ESTree::UnmodifiedT", align 1
  %ref.tmp648 = alloca %"struct.hermes::ESTree::UnmodifiedT", align 1
  %ref.tmp653 = alloca %"struct.hermes::ESTree::UnmodifiedT", align 1
  %ref.tmp658 = alloca %"struct.hermes::ESTree::UnmodifiedT", align 1
  %ref.tmp663 = alloca %"struct.hermes::ESTree::UnmodifiedT", align 1
  %ref.tmp668 = alloca %"struct.hermes::ESTree::UnmodifiedT", align 1
  %ref.tmp673 = alloca %"struct.hermes::ESTree::UnmodifiedT", align 1
  %ref.tmp678 = alloca %"struct.hermes::ESTree::UnmodifiedT", align 1
  %ref.tmp683 = alloca %"struct.hermes::ESTree::UnmodifiedT", align 1
  %ref.tmp688 = alloca %"struct.hermes::ESTree::UnmodifiedT", align 1
  %ref.tmp693 = alloca %"struct.hermes::ESTree::UnmodifiedT", align 1
  %ref.tmp698 = alloca %"struct.hermes::ESTree::UnmodifiedT", align 1
  %ref.tmp703 = alloca %"struct.hermes::ESTree::UnmodifiedT", align 1
  %ref.tmp708 = alloca %"struct.hermes::ESTree::UnmodifiedT", align 1
  %ref.tmp713 = alloca %"struct.hermes::ESTree::UnmodifiedT", align 1
  %ref.tmp718 = alloca %"struct.hermes::ESTree::UnmodifiedT", align 1
  %ref.tmp723 = alloca %"struct.hermes::ESTree::UnmodifiedT", align 1
  %ref.tmp728 = alloca %"struct.hermes::ESTree::UnmodifiedT", align 1
  %ref.tmp733 = alloca %"struct.hermes::ESTree::UnmodifiedT", align 1
  %ref.tmp738 = alloca %"struct.hermes::ESTree::UnmodifiedT", align 1
  %ref.tmp743 = alloca %"struct.hermes::ESTree::UnmodifiedT", align 1
  %ref.tmp748 = alloca %"struct.hermes::ESTree::UnmodifiedT", align 1
  %ref.tmp753 = alloca %"struct.hermes::ESTree::UnmodifiedT", align 1
  %ref.tmp758 = alloca %"struct.hermes::ESTree::UnmodifiedT", align 1
  %ref.tmp763 = alloca %"struct.hermes::ESTree::UnmodifiedT", align 1
  %ref.tmp768 = alloca %"struct.hermes::ESTree::UnmodifiedT", align 1
  %ref.tmp773 = alloca %"struct.hermes::ESTree::UnmodifiedT", align 1
  %ref.tmp778 = alloca %"struct.hermes::ESTree::UnmodifiedT", align 1
  %ref.tmp783 = alloca %"struct.hermes::ESTree::UnmodifiedT", align 1
  %ref.tmp788 = alloca %"struct.hermes::ESTree::UnmodifiedT", align 1
  %ref.tmp793 = alloca %"struct.hermes::ESTree::UnmodifiedT", align 1
  %ref.tmp798 = alloca %"struct.hermes::ESTree::UnmodifiedT", align 1
  %ref.tmp803 = alloca %"struct.hermes::ESTree::UnmodifiedT", align 1
  %ref.tmp808 = alloca %"struct.hermes::ESTree::UnmodifiedT", align 1
  %ref.tmp813 = alloca %"struct.hermes::ESTree::UnmodifiedT", align 1
  %ref.tmp818 = alloca %"struct.hermes::ESTree::UnmodifiedT", align 1
  %ref.tmp823 = alloca %"struct.hermes::ESTree::UnmodifiedT", align 1
  %ref.tmp828 = alloca %"struct.hermes::ESTree::UnmodifiedT", align 1
  %ref.tmp833 = alloca %"struct.hermes::ESTree::UnmodifiedT", align 1
  %ref.tmp838 = alloca %"struct.hermes::ESTree::UnmodifiedT", align 1
  %ref.tmp843 = alloca %"struct.hermes::ESTree::UnmodifiedT", align 1
  %ref.tmp848 = alloca %"struct.hermes::ESTree::UnmodifiedT", align 1
  %ref.tmp853 = alloca %"struct.hermes::ESTree::UnmodifiedT", align 1
  %ref.tmp858 = alloca %"struct.hermes::ESTree::UnmodifiedT", align 1
  %ref.tmp863 = alloca %"struct.hermes::ESTree::UnmodifiedT", align 1
  %ref.tmp868 = alloca %"struct.hermes::ESTree::UnmodifiedT", align 1
  %ref.tmp873 = alloca %"struct.hermes::ESTree::UnmodifiedT", align 1
  %ref.tmp878 = alloca %"struct.hermes::ESTree::UnmodifiedT", align 1
  %ref.tmp883 = alloca %"struct.hermes::ESTree::UnmodifiedT", align 1
  %ref.tmp888 = alloca %"struct.hermes::ESTree::UnmodifiedT", align 1
  %ref.tmp893 = alloca %"struct.hermes::ESTree::UnmodifiedT", align 1
  %ref.tmp898 = alloca %"struct.hermes::ESTree::UnmodifiedT", align 1
  %ref.tmp903 = alloca %"struct.hermes::ESTree::UnmodifiedT", align 1
  %ref.tmp908 = alloca %"struct.hermes::ESTree::UnmodifiedT", align 1
  %ref.tmp913 = alloca %"struct.hermes::ESTree::UnmodifiedT", align 1
  %ref.tmp918 = alloca %"struct.hermes::ESTree::UnmodifiedT", align 1
  %ref.tmp923 = alloca %"struct.hermes::ESTree::UnmodifiedT", align 1
  %ref.tmp928 = alloca %"struct.hermes::ESTree::UnmodifiedT", align 1
  %ref.tmp933 = alloca %"struct.hermes::ESTree::UnmodifiedT", align 1
  %ref.tmp938 = alloca %"struct.hermes::ESTree::UnmodifiedT", align 1
  %ref.tmp943 = alloca %"struct.hermes::ESTree::UnmodifiedT", align 1
  %ref.tmp948 = alloca %"struct.hermes::ESTree::UnmodifiedT", align 1
  %ref.tmp953 = alloca %"struct.hermes::ESTree::UnmodifiedT", align 1
  %ref.tmp958 = alloca %"struct.hermes::ESTree::UnmodifiedT", align 1
  %ref.tmp963 = alloca %"struct.hermes::ESTree::UnmodifiedT", align 1
  %ref.tmp968 = alloca %"struct.hermes::ESTree::UnmodifiedT", align 1
  %ref.tmp973 = alloca %"struct.hermes::ESTree::UnmodifiedT", align 1
  %ref.tmp978 = alloca %"struct.hermes::ESTree::UnmodifiedT", align 1
  %ref.tmp983 = alloca %"struct.hermes::ESTree::UnmodifiedT", align 1
  %ref.tmp988 = alloca %"struct.hermes::ESTree::UnmodifiedT", align 1
  %ref.tmp993 = alloca %"struct.hermes::ESTree::UnmodifiedT", align 1
  %ref.tmp998 = alloca %"struct.hermes::ESTree::UnmodifiedT", align 1
  %ref.tmp1003 = alloca %"struct.hermes::ESTree::UnmodifiedT", align 1
  %ref.tmp1008 = alloca %"struct.hermes::ESTree::UnmodifiedT", align 1
  %ref.tmp1013 = alloca %"struct.hermes::ESTree::UnmodifiedT", align 1
  %ref.tmp1018 = alloca %"struct.hermes::ESTree::UnmodifiedT", align 1
  %ref.tmp1023 = alloca %"struct.hermes::ESTree::UnmodifiedT", align 1
  %ref.tmp1028 = alloca %"struct.hermes::ESTree::UnmodifiedT", align 1
  %ref.tmp1033 = alloca %"struct.hermes::ESTree::UnmodifiedT", align 1
  %ref.tmp1038 = alloca %"struct.hermes::ESTree::UnmodifiedT", align 1
  %ref.tmp1043 = alloca %"struct.hermes::ESTree::UnmodifiedT", align 1
  %ref.tmp1048 = alloca %"struct.hermes::ESTree::UnmodifiedT", align 1
  %ref.tmp1053 = alloca %"struct.hermes::ESTree::UnmodifiedT", align 1
  %ref.tmp1058 = alloca %"struct.hermes::ESTree::UnmodifiedT", align 1
  %ref.tmp1063 = alloca %"struct.hermes::ESTree::UnmodifiedT", align 1
  %ref.tmp1068 = alloca %"struct.hermes::ESTree::UnmodifiedT", align 1
  %ref.tmp1073 = alloca %"struct.hermes::ESTree::UnmodifiedT", align 1
  %ref.tmp1078 = alloca %"struct.hermes::ESTree::UnmodifiedT", align 1
  %ref.tmp1083 = alloca %"struct.hermes::ESTree::UnmodifiedT", align 1
  %ref.tmp1088 = alloca %"struct.hermes::ESTree::UnmodifiedT", align 1
  %ref.tmp1093 = alloca %"struct.hermes::ESTree::UnmodifiedT", align 1
  %ref.tmp1098 = alloca %"struct.hermes::ESTree::UnmodifiedT", align 1
  %ref.tmp1103 = alloca %"struct.hermes::ESTree::UnmodifiedT", align 1
  %ref.tmp1108 = alloca %"struct.hermes::ESTree::UnmodifiedT", align 1
  %ref.tmp1113 = alloca %"struct.hermes::ESTree::UnmodifiedT", align 1
  %ref.tmp1118 = alloca %"struct.hermes::ESTree::UnmodifiedT", align 1
  %ref.tmp1123 = alloca %"struct.hermes::ESTree::UnmodifiedT", align 1
  %ref.tmp1128 = alloca %"struct.hermes::ESTree::UnmodifiedT", align 1
  %ref.tmp1133 = alloca %"struct.hermes::ESTree::UnmodifiedT", align 1
  %ref.tmp1138 = alloca %"struct.hermes::ESTree::UnmodifiedT", align 1
  %ref.tmp1143 = alloca %"struct.hermes::ESTree::UnmodifiedT", align 1
  %ref.tmp1148 = alloca %"struct.hermes::ESTree::UnmodifiedT", align 1
  %ref.tmp1153 = alloca %"struct.hermes::ESTree::UnmodifiedT", align 1
  store ptr %v, ptr %v.addr, align 8
  store ptr %node, ptr %node.addr, align 8
  store ptr %parent, ptr %parent.addr, align 8
  %0 = load ptr, ptr %node.addr, align 8
  %tobool = icmp ne ptr %0, null
  br i1 %tobool, label %if.end, label %if.then

if.then:                                          ; preds = %entry
  call void @_ZNSt7variantIJN6hermes6ESTree11UnmodifiedTENS1_8RemovedTEPNS1_4NodeEEEC2IRS2_vvS2_vEEOT_(ptr noundef nonnull align 8 dereferenceable(9) %retval, ptr noundef nonnull align 1 dereferenceable(1) @_ZN6hermes6ESTree10UnmodifiedE) #10
  br label %return

if.end:                                           ; preds = %entry
  %1 = load ptr, ptr %v.addr, align 8
  %2 = load ptr, ptr %node.addr, align 8
  %call = call noundef zeroext i1 @_ZN6hermes25ES6ClassesTransformations17incRecursionDepthEPNS_6ESTree4NodeE(ptr noundef nonnull align 8 dereferenceable(32) %1, ptr noundef %2)
  %lnot = xor i1 %call, true
  br i1 %lnot, label %if.then1, label %if.end2

if.then1:                                         ; preds = %if.end
  call void @_ZNSt7variantIJN6hermes6ESTree11UnmodifiedTENS1_8RemovedTEPNS1_4NodeEEEC2IRS2_vvS2_vEEOT_(ptr noundef nonnull align 8 dereferenceable(9) %retval, ptr noundef nonnull align 1 dereferenceable(1) @_ZN6hermes6ESTree10UnmodifiedE) #10
  br label %return

if.end2:                                          ; preds = %if.end
  call void @_ZNSt7variantIJN6hermes6ESTree11UnmodifiedTENS1_8RemovedTEPNS1_4NodeEEEC2Ev(ptr noundef nonnull align 8 dereferenceable(9) %retval) #10
  %3 = load ptr, ptr %node.addr, align 8
  %call3 = call noundef i32 @_ZNK6hermes6ESTree4Node7getKindEv(ptr noundef nonnull align 8 dereferenceable(48) %3)
  switch i32 %call3, label %sw.default [
    i32 0, label %sw.bb
    i32 1, label %sw.bb6
    i32 3, label %sw.bb11
    i32 4, label %sw.bb16
    i32 5, label %sw.bb21
    i32 6, label %sw.bb26
    i32 7, label %sw.bb31
    i32 11, label %sw.bb36
    i32 12, label %sw.bb41
    i32 13, label %sw.bb46
    i32 14, label %sw.bb51
    i32 15, label %sw.bb56
    i32 17, label %sw.bb61
    i32 18, label %sw.bb66
    i32 19, label %sw.bb71
    i32 20, label %sw.bb76
    i32 21, label %sw.bb81
    i32 22, label %sw.bb86
    i32 23, label %sw.bb91
    i32 24, label %sw.bb96
    i32 25, label %sw.bb101
    i32 26, label %sw.bb106
    i32 27, label %sw.bb111
    i32 28, label %sw.bb116
    i32 29, label %sw.bb121
    i32 31, label %sw.bb126
    i32 32, label %sw.bb131
    i32 33, label %sw.bb136
    i32 34, label %sw.bb141
    i32 35, label %sw.bb146
    i32 36, label %sw.bb151
    i32 37, label %sw.bb156
    i32 38, label %sw.bb161
    i32 39, label %sw.bb166
    i32 40, label %sw.bb171
    i32 41, label %sw.bb176
    i32 42, label %sw.bb181
    i32 43, label %sw.bb186
    i32 44, label %sw.bb191
    i32 45, label %sw.bb196
    i32 46, label %sw.bb201
    i32 48, label %sw.bb206
    i32 49, label %sw.bb210
    i32 51, label %sw.bb215
    i32 52, label %sw.bb220
    i32 53, label %sw.bb225
    i32 55, label %sw.bb230
    i32 56, label %sw.bb234
    i32 58, label %sw.bb239
    i32 59, label %sw.bb244
    i32 60, label %sw.bb249
    i32 61, label %sw.bb254
    i32 62, label %sw.bb259
    i32 63, label %sw.bb264
    i32 64, label %sw.bb269
    i32 65, label %sw.bb274
    i32 66, label %sw.bb279
    i32 67, label %sw.bb284
    i32 68, label %sw.bb289
    i32 69, label %sw.bb294
    i32 70, label %sw.bb299
    i32 71, label %sw.bb304
    i32 72, label %sw.bb309
    i32 73, label %sw.bb314
    i32 74, label %sw.bb319
    i32 75, label %sw.bb323
    i32 76, label %sw.bb327
    i32 77, label %sw.bb332
    i32 78, label %sw.bb337
    i32 79, label %sw.bb342
    i32 80, label %sw.bb347
    i32 81, label %sw.bb352
    i32 82, label %sw.bb357
    i32 83, label %sw.bb362
    i32 84, label %sw.bb367
    i32 85, label %sw.bb372
    i32 86, label %sw.bb377
    i32 87, label %sw.bb382
    i32 88, label %sw.bb387
    i32 89, label %sw.bb392
    i32 91, label %sw.bb397
    i32 92, label %sw.bb402
    i32 93, label %sw.bb407
    i32 94, label %sw.bb412
    i32 97, label %sw.bb417
    i32 98, label %sw.bb422
    i32 99, label %sw.bb427
    i32 100, label %sw.bb432
    i32 101, label %sw.bb437
    i32 102, label %sw.bb442
    i32 103, label %sw.bb447
    i32 104, label %sw.bb452
    i32 105, label %sw.bb457
    i32 106, label %sw.bb462
    i32 107, label %sw.bb467
    i32 108, label %sw.bb472
    i32 109, label %sw.bb477
    i32 110, label %sw.bb482
    i32 111, label %sw.bb487
    i32 112, label %sw.bb492
    i32 115, label %sw.bb497
    i32 116, label %sw.bb502
    i32 117, label %sw.bb507
    i32 118, label %sw.bb512
    i32 119, label %sw.bb517
    i32 120, label %sw.bb522
    i32 121, label %sw.bb527
    i32 122, label %sw.bb532
    i32 123, label %sw.bb537
    i32 124, label %sw.bb542
    i32 125, label %sw.bb547
    i32 126, label %sw.bb552
    i32 127, label %sw.bb557
    i32 128, label %sw.bb562
    i32 129, label %sw.bb567
    i32 130, label %sw.bb572
    i32 131, label %sw.bb577
    i32 132, label %sw.bb582
    i32 133, label %sw.bb587
    i32 134, label %sw.bb592
    i32 135, label %sw.bb597
    i32 136, label %sw.bb602
    i32 137, label %sw.bb607
    i32 138, label %sw.bb612
    i32 139, label %sw.bb617
    i32 140, label %sw.bb622
    i32 141, label %sw.bb627
    i32 142, label %sw.bb632
    i32 143, label %sw.bb637
    i32 144, label %sw.bb642
    i32 145, label %sw.bb647
    i32 146, label %sw.bb652
    i32 147, label %sw.bb657
    i32 148, label %sw.bb662
    i32 149, label %sw.bb667
    i32 150, label %sw.bb672
    i32 151, label %sw.bb677
    i32 152, label %sw.bb682
    i32 153, label %sw.bb687
    i32 154, label %sw.bb692
    i32 155, label %sw.bb697
    i32 156, label %sw.bb702
    i32 157, label %sw.bb707
    i32 158, label %sw.bb712
    i32 159, label %sw.bb717
    i32 160, label %sw.bb722
    i32 161, label %sw.bb727
    i32 162, label %sw.bb732
    i32 163, label %sw.bb737
    i32 164, label %sw.bb742
    i32 165, label %sw.bb747
    i32 166, label %sw.bb752
    i32 167, label %sw.bb757
    i32 168, label %sw.bb762
    i32 169, label %sw.bb767
    i32 170, label %sw.bb772
    i32 171, label %sw.bb777
    i32 172, label %sw.bb782
    i32 173, label %sw.bb787
    i32 174, label %sw.bb792
    i32 175, label %sw.bb797
    i32 176, label %sw.bb802
    i32 177, label %sw.bb807
    i32 178, label %sw.bb812
    i32 179, label %sw.bb817
    i32 180, label %sw.bb822
    i32 181, label %sw.bb827
    i32 182, label %sw.bb832
    i32 183, label %sw.bb837
    i32 184, label %sw.bb842
    i32 185, label %sw.bb847
    i32 186, label %sw.bb852
    i32 187, label %sw.bb857
    i32 188, label %sw.bb862
    i32 189, label %sw.bb867
    i32 190, label %sw.bb872
    i32 191, label %sw.bb877
    i32 192, label %sw.bb882
    i32 193, label %sw.bb887
    i32 194, label %sw.bb892
    i32 195, label %sw.bb897
    i32 198, label %sw.bb902
    i32 199, label %sw.bb907
    i32 200, label %sw.bb912
    i32 201, label %sw.bb917
    i32 202, label %sw.bb922
    i32 203, label %sw.bb927
    i32 204, label %sw.bb932
    i32 205, label %sw.bb937
    i32 206, label %sw.bb942
    i32 207, label %sw.bb947
    i32 208, label %sw.bb952
    i32 209, label %sw.bb957
    i32 210, label %sw.bb962
    i32 211, label %sw.bb967
    i32 212, label %sw.bb972
    i32 213, label %sw.bb977
    i32 214, label %sw.bb982
    i32 215, label %sw.bb987
    i32 216, label %sw.bb992
    i32 217, label %sw.bb997
    i32 218, label %sw.bb1002
    i32 219, label %sw.bb1007
    i32 220, label %sw.bb1012
    i32 221, label %sw.bb1017
    i32 222, label %sw.bb1022
    i32 223, label %sw.bb1027
    i32 224, label %sw.bb1032
    i32 225, label %sw.bb1037
    i32 226, label %sw.bb1042
    i32 227, label %sw.bb1047
    i32 228, label %sw.bb1052
    i32 229, label %sw.bb1057
    i32 230, label %sw.bb1062
    i32 231, label %sw.bb1067
    i32 232, label %sw.bb1072
    i32 233, label %sw.bb1077
    i32 234, label %sw.bb1082
    i32 235, label %sw.bb1087
    i32 236, label %sw.bb1092
    i32 237, label %sw.bb1097
    i32 238, label %sw.bb1102
    i32 239, label %sw.bb1107
    i32 240, label %sw.bb1112
    i32 241, label %sw.bb1117
    i32 242, label %sw.bb1122
    i32 243, label %sw.bb1127
    i32 246, label %sw.bb1132
    i32 247, label %sw.bb1137
    i32 248, label %sw.bb1142
    i32 249, label %sw.bb1147
    i32 250, label %sw.bb1152
  ]

sw.default:                                       ; preds = %if.end2
  unreachable

sw.bb:                                            ; preds = %if.end2
  %4 = load ptr, ptr %v.addr, align 8
  %5 = load ptr, ptr %node.addr, align 8
  %call4 = call noundef ptr @_ZN4llvh4castIN6hermes6ESTree9EmptyNodeENS2_4NodeEEENS_10cast_rettyIT_PT0_E8ret_typeES8_(ptr noundef %5)
  %6 = load ptr, ptr %parent.addr, align 8
  call void @_ZN6hermes6ESTree6detail11VisitCallerINS_25ES6ClassesTransformationsENS0_9EmptyNodeEvE4callERS3_PS4_PNS0_4NodeE(ptr noundef nonnull align 8 dereferenceable(32) %4, ptr noundef %call4, ptr noundef %6)
  %call5 = call noundef nonnull align 8 dereferenceable(9) ptr @_ZNSt7variantIJN6hermes6ESTree11UnmodifiedTENS1_8RemovedTEPNS1_4NodeEEEaSIS2_EENSt9enable_ifIXaaaa14__exactly_onceINSt9_Nth_typeIX16__accepted_indexIOT_EEJS2_S3_S5_EE4typeEE18is_constructible_vISD_SA_E15is_assignable_vIRSD_SA_EERS6_E4typeESB_(ptr noundef nonnull align 8 dereferenceable(9) %retval, ptr noundef nonnull align 1 dereferenceable(1) %ref.tmp) #10
  br label %sw.epilog

sw.bb6:                                           ; preds = %if.end2
  %7 = load ptr, ptr %v.addr, align 8
  %8 = load ptr, ptr %node.addr, align 8
  %call8 = call noundef ptr @_ZN4llvh4castIN6hermes6ESTree12MetadataNodeENS2_4NodeEEENS_10cast_rettyIT_PT0_E8ret_typeES8_(ptr noundef %8)
  %9 = load ptr, ptr %parent.addr, align 8
  call void @_ZN6hermes6ESTree6detail11VisitCallerINS_25ES6ClassesTransformationsENS0_12MetadataNodeEvE4callERS3_PS4_PNS0_4NodeE(ptr noundef nonnull align 8 dereferenceable(32) %7, ptr noundef %call8, ptr noundef %9)
  %call10 = call noundef nonnull align 8 dereferenceable(9) ptr @_ZNSt7variantIJN6hermes6ESTree11UnmodifiedTENS1_8RemovedTEPNS1_4NodeEEEaSIS2_EENSt9enable_ifIXaaaa14__exactly_onceINSt9_Nth_typeIX16__accepted_indexIOT_EEJS2_S3_S5_EE4typeEE18is_constructible_vISD_SA_E15is_assignable_vIRSD_SA_EERS6_E4typeESB_(ptr noundef nonnull align 8 dereferenceable(9) %retval, ptr noundef nonnull align 1 dereferenceable(1) %ref.tmp7) #10
  br label %sw.epilog

sw.bb11:                                          ; preds = %if.end2
  %10 = load ptr, ptr %v.addr, align 8
  %11 = load ptr, ptr %node.addr, align 8
  %call13 = call noundef ptr @_ZN4llvh4castIN6hermes6ESTree11ProgramNodeENS2_4NodeEEENS_10cast_rettyIT_PT0_E8ret_typeES8_(ptr noundef %11)
  %12 = load ptr, ptr %parent.addr, align 8
  call void @_ZN6hermes6ESTree6detail11VisitCallerINS_25ES6ClassesTransformationsENS0_11ProgramNodeEvE4callERS3_PS4_PNS0_4NodeE(ptr noundef nonnull align 8 dereferenceable(32) %10, ptr noundef %call13, ptr noundef %12)
  %call15 = call noundef nonnull align 8 dereferenceable(9) ptr @_ZNSt7variantIJN6hermes6ESTree11UnmodifiedTENS1_8RemovedTEPNS1_4NodeEEEaSIS2_EENSt9enable_ifIXaaaa14__exactly_onceINSt9_Nth_typeIX16__accepted_indexIOT_EEJS2_S3_S5_EE4typeEE18is_constructible_vISD_SA_E15is_assignable_vIRSD_SA_EERS6_E4typeESB_(ptr noundef nonnull align 8 dereferenceable(9) %retval, ptr noundef nonnull align 1 dereferenceable(1) %ref.tmp12) #10
  br label %sw.epilog

sw.bb16:                                          ; preds = %if.end2
  %13 = load ptr, ptr %v.addr, align 8
  %14 = load ptr, ptr %node.addr, align 8
  %call18 = call noundef ptr @_ZN4llvh4castIN6hermes6ESTree22FunctionExpressionNodeENS2_4NodeEEENS_10cast_rettyIT_PT0_E8ret_typeES8_(ptr noundef %14)
  %15 = load ptr, ptr %parent.addr, align 8
  call void @_ZN6hermes6ESTree6detail11VisitCallerINS_25ES6ClassesTransformationsENS0_22FunctionExpressionNodeEvE4callERS3_PS4_PNS0_4NodeE(ptr noundef nonnull align 8 dereferenceable(32) %13, ptr noundef %call18, ptr noundef %15)
  %call20 = call noundef nonnull align 8 dereferenceable(9) ptr @_ZNSt7variantIJN6hermes6ESTree11UnmodifiedTENS1_8RemovedTEPNS1_4NodeEEEaSIS2_EENSt9enable_ifIXaaaa14__exactly_onceINSt9_Nth_typeIX16__accepted_indexIOT_EEJS2_S3_S5_EE4typeEE18is_constructible_vISD_SA_E15is_assignable_vIRSD_SA_EERS6_E4typeESB_(ptr noundef nonnull align 8 dereferenceable(9) %retval, ptr noundef nonnull align 1 dereferenceable(1) %ref.tmp17) #10
  br label %sw.epilog

sw.bb21:                                          ; preds = %if.end2
  %16 = load ptr, ptr %v.addr, align 8
  %17 = load ptr, ptr %node.addr, align 8
  %call23 = call noundef ptr @_ZN4llvh4castIN6hermes6ESTree27ArrowFunctionExpressionNodeENS2_4NodeEEENS_10cast_rettyIT_PT0_E8ret_typeES8_(ptr noundef %17)
  %18 = load ptr, ptr %parent.addr, align 8
  call void @_ZN6hermes6ESTree6detail11VisitCallerINS_25ES6ClassesTransformationsENS0_27ArrowFunctionExpressionNodeEvE4callERS3_PS4_PNS0_4NodeE(ptr noundef nonnull align 8 dereferenceable(32) %16, ptr noundef %call23, ptr noundef %18)
  %call25 = call noundef nonnull align 8 dereferenceable(9) ptr @_ZNSt7variantIJN6hermes6ESTree11UnmodifiedTENS1_8RemovedTEPNS1_4NodeEEEaSIS2_EENSt9enable_ifIXaaaa14__exactly_onceINSt9_Nth_typeIX16__accepted_indexIOT_EEJS2_S3_S5_EE4typeEE18is_constructible_vISD_SA_E15is_assignable_vIRSD_SA_EERS6_E4typeESB_(ptr noundef nonnull align 8 dereferenceable(9) %retval, ptr noundef nonnull align 1 dereferenceable(1) %ref.tmp22) #10
  br label %sw.epilog

sw.bb26:                                          ; preds = %if.end2
  %19 = load ptr, ptr %v.addr, align 8
  %20 = load ptr, ptr %node.addr, align 8
  %call28 = call noundef ptr @_ZN4llvh4castIN6hermes6ESTree23FunctionDeclarationNodeENS2_4NodeEEENS_10cast_rettyIT_PT0_E8ret_typeES8_(ptr noundef %20)
  %21 = load ptr, ptr %parent.addr, align 8
  call void @_ZN6hermes6ESTree6detail11VisitCallerINS_25ES6ClassesTransformationsENS0_23FunctionDeclarationNodeEvE4callERS3_PS4_PNS0_4NodeE(ptr noundef nonnull align 8 dereferenceable(32) %19, ptr noundef %call28, ptr noundef %21)
  %call30 = call noundef nonnull align 8 dereferenceable(9) ptr @_ZNSt7variantIJN6hermes6ESTree11UnmodifiedTENS1_8RemovedTEPNS1_4NodeEEEaSIS2_EENSt9enable_ifIXaaaa14__exactly_onceINSt9_Nth_typeIX16__accepted_indexIOT_EEJS2_S3_S5_EE4typeEE18is_constructible_vISD_SA_E15is_assignable_vIRSD_SA_EERS6_E4typeESB_(ptr noundef nonnull align 8 dereferenceable(9) %retval, ptr noundef nonnull align 1 dereferenceable(1) %ref.tmp27) #10
  br label %sw.epilog

sw.bb31:                                          ; preds = %if.end2
  %22 = load ptr, ptr %v.addr, align 8
  %23 = load ptr, ptr %node.addr, align 8
  %call33 = call noundef ptr @_ZN4llvh4castIN6hermes6ESTree24ComponentDeclarationNodeENS2_4NodeEEENS_10cast_rettyIT_PT0_E8ret_typeES8_(ptr noundef %23)
  %24 = load ptr, ptr %parent.addr, align 8
  call void @_ZN6hermes6ESTree6detail11VisitCallerINS_25ES6ClassesTransformationsENS0_24ComponentDeclarationNodeEvE4callERS3_PS4_PNS0_4NodeE(ptr noundef nonnull align 8 dereferenceable(32) %22, ptr noundef %call33, ptr noundef %24)
  %call35 = call noundef nonnull align 8 dereferenceable(9) ptr @_ZNSt7variantIJN6hermes6ESTree11UnmodifiedTENS1_8RemovedTEPNS1_4NodeEEEaSIS2_EENSt9enable_ifIXaaaa14__exactly_onceINSt9_Nth_typeIX16__accepted_indexIOT_EEJS2_S3_S5_EE4typeEE18is_constructible_vISD_SA_E15is_assignable_vIRSD_SA_EERS6_E4typeESB_(ptr noundef nonnull align 8 dereferenceable(9) %retval, ptr noundef nonnull align 1 dereferenceable(1) %ref.tmp32) #10
  br label %sw.epilog

sw.bb36:                                          ; preds = %if.end2
  %25 = load ptr, ptr %v.addr, align 8
  %26 = load ptr, ptr %node.addr, align 8
  %call38 = call noundef ptr @_ZN4llvh4castIN6hermes6ESTree18WhileStatementNodeENS2_4NodeEEENS_10cast_rettyIT_PT0_E8ret_typeES8_(ptr noundef %26)
  %27 = load ptr, ptr %parent.addr, align 8
  call void @_ZN6hermes6ESTree6detail11VisitCallerINS_25ES6ClassesTransformationsENS0_18WhileStatementNodeEvE4callERS3_PS4_PNS0_4NodeE(ptr noundef nonnull align 8 dereferenceable(32) %25, ptr noundef %call38, ptr noundef %27)
  %call40 = call noundef nonnull align 8 dereferenceable(9) ptr @_ZNSt7variantIJN6hermes6ESTree11UnmodifiedTENS1_8RemovedTEPNS1_4NodeEEEaSIS2_EENSt9enable_ifIXaaaa14__exactly_onceINSt9_Nth_typeIX16__accepted_indexIOT_EEJS2_S3_S5_EE4typeEE18is_constructible_vISD_SA_E15is_assignable_vIRSD_SA_EERS6_E4typeESB_(ptr noundef nonnull align 8 dereferenceable(9) %retval, ptr noundef nonnull align 1 dereferenceable(1) %ref.tmp37) #10
  br label %sw.epilog

sw.bb41:                                          ; preds = %if.end2
  %28 = load ptr, ptr %v.addr, align 8
  %29 = load ptr, ptr %node.addr, align 8
  %call43 = call noundef ptr @_ZN4llvh4castIN6hermes6ESTree20DoWhileStatementNodeENS2_4NodeEEENS_10cast_rettyIT_PT0_E8ret_typeES8_(ptr noundef %29)
  %30 = load ptr, ptr %parent.addr, align 8
  call void @_ZN6hermes6ESTree6detail11VisitCallerINS_25ES6ClassesTransformationsENS0_20DoWhileStatementNodeEvE4callERS3_PS4_PNS0_4NodeE(ptr noundef nonnull align 8 dereferenceable(32) %28, ptr noundef %call43, ptr noundef %30)
  %call45 = call noundef nonnull align 8 dereferenceable(9) ptr @_ZNSt7variantIJN6hermes6ESTree11UnmodifiedTENS1_8RemovedTEPNS1_4NodeEEEaSIS2_EENSt9enable_ifIXaaaa14__exactly_onceINSt9_Nth_typeIX16__accepted_indexIOT_EEJS2_S3_S5_EE4typeEE18is_constructible_vISD_SA_E15is_assignable_vIRSD_SA_EERS6_E4typeESB_(ptr noundef nonnull align 8 dereferenceable(9) %retval, ptr noundef nonnull align 1 dereferenceable(1) %ref.tmp42) #10
  br label %sw.epilog

sw.bb46:                                          ; preds = %if.end2
  %31 = load ptr, ptr %v.addr, align 8
  %32 = load ptr, ptr %node.addr, align 8
  %call48 = call noundef ptr @_ZN4llvh4castIN6hermes6ESTree18ForInStatementNodeENS2_4NodeEEENS_10cast_rettyIT_PT0_E8ret_typeES8_(ptr noundef %32)
  %33 = load ptr, ptr %parent.addr, align 8
  call void @_ZN6hermes6ESTree6detail11VisitCallerINS_25ES6ClassesTransformationsENS0_18ForInStatementNodeEvE4callERS3_PS4_PNS0_4NodeE(ptr noundef nonnull align 8 dereferenceable(32) %31, ptr noundef %call48, ptr noundef %33)
  %call50 = call noundef nonnull align 8 dereferenceable(9) ptr @_ZNSt7variantIJN6hermes6ESTree11UnmodifiedTENS1_8RemovedTEPNS1_4NodeEEEaSIS2_EENSt9enable_ifIXaaaa14__exactly_onceINSt9_Nth_typeIX16__accepted_indexIOT_EEJS2_S3_S5_EE4typeEE18is_constructible_vISD_SA_E15is_assignable_vIRSD_SA_EERS6_E4typeESB_(ptr noundef nonnull align 8 dereferenceable(9) %retval, ptr noundef nonnull align 1 dereferenceable(1) %ref.tmp47) #10
  br label %sw.epilog

sw.bb51:                                          ; preds = %if.end2
  %34 = load ptr, ptr %v.addr, align 8
  %35 = load ptr, ptr %node.addr, align 8
  %call53 = call noundef ptr @_ZN4llvh4castIN6hermes6ESTree18ForOfStatementNodeENS2_4NodeEEENS_10cast_rettyIT_PT0_E8ret_typeES8_(ptr noundef %35)
  %36 = load ptr, ptr %parent.addr, align 8
  call void @_ZN6hermes6ESTree6detail11VisitCallerINS_25ES6ClassesTransformationsENS0_18ForOfStatementNodeEvE4callERS3_PS4_PNS0_4NodeE(ptr noundef nonnull align 8 dereferenceable(32) %34, ptr noundef %call53, ptr noundef %36)
  %call55 = call noundef nonnull align 8 dereferenceable(9) ptr @_ZNSt7variantIJN6hermes6ESTree11UnmodifiedTENS1_8RemovedTEPNS1_4NodeEEEaSIS2_EENSt9enable_ifIXaaaa14__exactly_onceINSt9_Nth_typeIX16__accepted_indexIOT_EEJS2_S3_S5_EE4typeEE18is_constructible_vISD_SA_E15is_assignable_vIRSD_SA_EERS6_E4typeESB_(ptr noundef nonnull align 8 dereferenceable(9) %retval, ptr noundef nonnull align 1 dereferenceable(1) %ref.tmp52) #10
  br label %sw.epilog

sw.bb56:                                          ; preds = %if.end2
  %37 = load ptr, ptr %v.addr, align 8
  %38 = load ptr, ptr %node.addr, align 8
  %call58 = call noundef ptr @_ZN4llvh4castIN6hermes6ESTree16ForStatementNodeENS2_4NodeEEENS_10cast_rettyIT_PT0_E8ret_typeES8_(ptr noundef %38)
  %39 = load ptr, ptr %parent.addr, align 8
  call void @_ZN6hermes6ESTree6detail11VisitCallerINS_25ES6ClassesTransformationsENS0_16ForStatementNodeEvE4callERS3_PS4_PNS0_4NodeE(ptr noundef nonnull align 8 dereferenceable(32) %37, ptr noundef %call58, ptr noundef %39)
  %call60 = call noundef nonnull align 8 dereferenceable(9) ptr @_ZNSt7variantIJN6hermes6ESTree11UnmodifiedTENS1_8RemovedTEPNS1_4NodeEEEaSIS2_EENSt9enable_ifIXaaaa14__exactly_onceINSt9_Nth_typeIX16__accepted_indexIOT_EEJS2_S3_S5_EE4typeEE18is_constructible_vISD_SA_E15is_assignable_vIRSD_SA_EERS6_E4typeESB_(ptr noundef nonnull align 8 dereferenceable(9) %retval, ptr noundef nonnull align 1 dereferenceable(1) %ref.tmp57) #10
  br label %sw.epilog

sw.bb61:                                          ; preds = %if.end2
  %40 = load ptr, ptr %v.addr, align 8
  %41 = load ptr, ptr %node.addr, align 8
  %call63 = call noundef ptr @_ZN4llvh4castIN6hermes6ESTree21DebuggerStatementNodeENS2_4NodeEEENS_10cast_rettyIT_PT0_E8ret_typeES8_(ptr noundef %41)
  %42 = load ptr, ptr %parent.addr, align 8
  call void @_ZN6hermes6ESTree6detail11VisitCallerINS_25ES6ClassesTransformationsENS0_21DebuggerStatementNodeEvE4callERS3_PS4_PNS0_4NodeE(ptr noundef nonnull align 8 dereferenceable(32) %40, ptr noundef %call63, ptr noundef %42)
  %call65 = call noundef nonnull align 8 dereferenceable(9) ptr @_ZNSt7variantIJN6hermes6ESTree11UnmodifiedTENS1_8RemovedTEPNS1_4NodeEEEaSIS2_EENSt9enable_ifIXaaaa14__exactly_onceINSt9_Nth_typeIX16__accepted_indexIOT_EEJS2_S3_S5_EE4typeEE18is_constructible_vISD_SA_E15is_assignable_vIRSD_SA_EERS6_E4typeESB_(ptr noundef nonnull align 8 dereferenceable(9) %retval, ptr noundef nonnull align 1 dereferenceable(1) %ref.tmp62) #10
  br label %sw.epilog

sw.bb66:                                          ; preds = %if.end2
  %43 = load ptr, ptr %v.addr, align 8
  %44 = load ptr, ptr %node.addr, align 8
  %call68 = call noundef ptr @_ZN4llvh4castIN6hermes6ESTree18EmptyStatementNodeENS2_4NodeEEENS_10cast_rettyIT_PT0_E8ret_typeES8_(ptr noundef %44)
  %45 = load ptr, ptr %parent.addr, align 8
  call void @_ZN6hermes6ESTree6detail11VisitCallerINS_25ES6ClassesTransformationsENS0_18EmptyStatementNodeEvE4callERS3_PS4_PNS0_4NodeE(ptr noundef nonnull align 8 dereferenceable(32) %43, ptr noundef %call68, ptr noundef %45)
  %call70 = call noundef nonnull align 8 dereferenceable(9) ptr @_ZNSt7variantIJN6hermes6ESTree11UnmodifiedTENS1_8RemovedTEPNS1_4NodeEEEaSIS2_EENSt9enable_ifIXaaaa14__exactly_onceINSt9_Nth_typeIX16__accepted_indexIOT_EEJS2_S3_S5_EE4typeEE18is_constructible_vISD_SA_E15is_assignable_vIRSD_SA_EERS6_E4typeESB_(ptr noundef nonnull align 8 dereferenceable(9) %retval, ptr noundef nonnull align 1 dereferenceable(1) %ref.tmp67) #10
  br label %sw.epilog

sw.bb71:                                          ; preds = %if.end2
  %46 = load ptr, ptr %v.addr, align 8
  %47 = load ptr, ptr %node.addr, align 8
  %call73 = call noundef ptr @_ZN4llvh4castIN6hermes6ESTree18BlockStatementNodeENS2_4NodeEEENS_10cast_rettyIT_PT0_E8ret_typeES8_(ptr noundef %47)
  %48 = load ptr, ptr %parent.addr, align 8
  call void @_ZN6hermes6ESTree6detail11VisitCallerINS_25ES6ClassesTransformationsENS0_18BlockStatementNodeEvE4callERS3_PS4_PNS0_4NodeE(ptr noundef nonnull align 8 dereferenceable(32) %46, ptr noundef %call73, ptr noundef %48)
  %call75 = call noundef nonnull align 8 dereferenceable(9) ptr @_ZNSt7variantIJN6hermes6ESTree11UnmodifiedTENS1_8RemovedTEPNS1_4NodeEEEaSIS2_EENSt9enable_ifIXaaaa14__exactly_onceINSt9_Nth_typeIX16__accepted_indexIOT_EEJS2_S3_S5_EE4typeEE18is_constructible_vISD_SA_E15is_assignable_vIRSD_SA_EERS6_E4typeESB_(ptr noundef nonnull align 8 dereferenceable(9) %retval, ptr noundef nonnull align 1 dereferenceable(1) %ref.tmp72) #10
  br label %sw.epilog

sw.bb76:                                          ; preds = %if.end2
  %49 = load ptr, ptr %v.addr, align 8
  %50 = load ptr, ptr %node.addr, align 8
  %call78 = call noundef ptr @_ZN4llvh4castIN6hermes6ESTree18BreakStatementNodeENS2_4NodeEEENS_10cast_rettyIT_PT0_E8ret_typeES8_(ptr noundef %50)
  %51 = load ptr, ptr %parent.addr, align 8
  call void @_ZN6hermes6ESTree6detail11VisitCallerINS_25ES6ClassesTransformationsENS0_18BreakStatementNodeEvE4callERS3_PS4_PNS0_4NodeE(ptr noundef nonnull align 8 dereferenceable(32) %49, ptr noundef %call78, ptr noundef %51)
  %call80 = call noundef nonnull align 8 dereferenceable(9) ptr @_ZNSt7variantIJN6hermes6ESTree11UnmodifiedTENS1_8RemovedTEPNS1_4NodeEEEaSIS2_EENSt9enable_ifIXaaaa14__exactly_onceINSt9_Nth_typeIX16__accepted_indexIOT_EEJS2_S3_S5_EE4typeEE18is_constructible_vISD_SA_E15is_assignable_vIRSD_SA_EERS6_E4typeESB_(ptr noundef nonnull align 8 dereferenceable(9) %retval, ptr noundef nonnull align 1 dereferenceable(1) %ref.tmp77) #10
  br label %sw.epilog

sw.bb81:                                          ; preds = %if.end2
  %52 = load ptr, ptr %v.addr, align 8
  %53 = load ptr, ptr %node.addr, align 8
  %call83 = call noundef ptr @_ZN4llvh4castIN6hermes6ESTree21ContinueStatementNodeENS2_4NodeEEENS_10cast_rettyIT_PT0_E8ret_typeES8_(ptr noundef %53)
  %54 = load ptr, ptr %parent.addr, align 8
  call void @_ZN6hermes6ESTree6detail11VisitCallerINS_25ES6ClassesTransformationsENS0_21ContinueStatementNodeEvE4callERS3_PS4_PNS0_4NodeE(ptr noundef nonnull align 8 dereferenceable(32) %52, ptr noundef %call83, ptr noundef %54)
  %call85 = call noundef nonnull align 8 dereferenceable(9) ptr @_ZNSt7variantIJN6hermes6ESTree11UnmodifiedTENS1_8RemovedTEPNS1_4NodeEEEaSIS2_EENSt9enable_ifIXaaaa14__exactly_onceINSt9_Nth_typeIX16__accepted_indexIOT_EEJS2_S3_S5_EE4typeEE18is_constructible_vISD_SA_E15is_assignable_vIRSD_SA_EERS6_E4typeESB_(ptr noundef nonnull align 8 dereferenceable(9) %retval, ptr noundef nonnull align 1 dereferenceable(1) %ref.tmp82) #10
  br label %sw.epilog

sw.bb86:                                          ; preds = %if.end2
  %55 = load ptr, ptr %v.addr, align 8
  %56 = load ptr, ptr %node.addr, align 8
  %call88 = call noundef ptr @_ZN4llvh4castIN6hermes6ESTree18ThrowStatementNodeENS2_4NodeEEENS_10cast_rettyIT_PT0_E8ret_typeES8_(ptr noundef %56)
  %57 = load ptr, ptr %parent.addr, align 8
  call void @_ZN6hermes6ESTree6detail11VisitCallerINS_25ES6ClassesTransformationsENS0_18ThrowStatementNodeEvE4callERS3_PS4_PNS0_4NodeE(ptr noundef nonnull align 8 dereferenceable(32) %55, ptr noundef %call88, ptr noundef %57)
  %call90 = call noundef nonnull align 8 dereferenceable(9) ptr @_ZNSt7variantIJN6hermes6ESTree11UnmodifiedTENS1_8RemovedTEPNS1_4NodeEEEaSIS2_EENSt9enable_ifIXaaaa14__exactly_onceINSt9_Nth_typeIX16__accepted_indexIOT_EEJS2_S3_S5_EE4typeEE18is_constructible_vISD_SA_E15is_assignable_vIRSD_SA_EERS6_E4typeESB_(ptr noundef nonnull align 8 dereferenceable(9) %retval, ptr noundef nonnull align 1 dereferenceable(1) %ref.tmp87) #10
  br label %sw.epilog

sw.bb91:                                          ; preds = %if.end2
  %58 = load ptr, ptr %v.addr, align 8
  %59 = load ptr, ptr %node.addr, align 8
  %call93 = call noundef ptr @_ZN4llvh4castIN6hermes6ESTree19ReturnStatementNodeENS2_4NodeEEENS_10cast_rettyIT_PT0_E8ret_typeES8_(ptr noundef %59)
  %60 = load ptr, ptr %parent.addr, align 8
  call void @_ZN6hermes6ESTree6detail11VisitCallerINS_25ES6ClassesTransformationsENS0_19ReturnStatementNodeEvE4callERS3_PS4_PNS0_4NodeE(ptr noundef nonnull align 8 dereferenceable(32) %58, ptr noundef %call93, ptr noundef %60)
  %call95 = call noundef nonnull align 8 dereferenceable(9) ptr @_ZNSt7variantIJN6hermes6ESTree11UnmodifiedTENS1_8RemovedTEPNS1_4NodeEEEaSIS2_EENSt9enable_ifIXaaaa14__exactly_onceINSt9_Nth_typeIX16__accepted_indexIOT_EEJS2_S3_S5_EE4typeEE18is_constructible_vISD_SA_E15is_assignable_vIRSD_SA_EERS6_E4typeESB_(ptr noundef nonnull align 8 dereferenceable(9) %retval, ptr noundef nonnull align 1 dereferenceable(1) %ref.tmp92) #10
  br label %sw.epilog

sw.bb96:                                          ; preds = %if.end2
  %61 = load ptr, ptr %v.addr, align 8
  %62 = load ptr, ptr %node.addr, align 8
  %call98 = call noundef ptr @_ZN4llvh4castIN6hermes6ESTree17WithStatementNodeENS2_4NodeEEENS_10cast_rettyIT_PT0_E8ret_typeES8_(ptr noundef %62)
  %63 = load ptr, ptr %parent.addr, align 8
  call void @_ZN6hermes6ESTree6detail11VisitCallerINS_25ES6ClassesTransformationsENS0_17WithStatementNodeEvE4callERS3_PS4_PNS0_4NodeE(ptr noundef nonnull align 8 dereferenceable(32) %61, ptr noundef %call98, ptr noundef %63)
  %call100 = call noundef nonnull align 8 dereferenceable(9) ptr @_ZNSt7variantIJN6hermes6ESTree11UnmodifiedTENS1_8RemovedTEPNS1_4NodeEEEaSIS2_EENSt9enable_ifIXaaaa14__exactly_onceINSt9_Nth_typeIX16__accepted_indexIOT_EEJS2_S3_S5_EE4typeEE18is_constructible_vISD_SA_E15is_assignable_vIRSD_SA_EERS6_E4typeESB_(ptr noundef nonnull align 8 dereferenceable(9) %retval, ptr noundef nonnull align 1 dereferenceable(1) %ref.tmp97) #10
  br label %sw.epilog

sw.bb101:                                         ; preds = %if.end2
  %64 = load ptr, ptr %v.addr, align 8
  %65 = load ptr, ptr %node.addr, align 8
  %call103 = call noundef ptr @_ZN4llvh4castIN6hermes6ESTree19SwitchStatementNodeENS2_4NodeEEENS_10cast_rettyIT_PT0_E8ret_typeES8_(ptr noundef %65)
  %66 = load ptr, ptr %parent.addr, align 8
  call void @_ZN6hermes6ESTree6detail11VisitCallerINS_25ES6ClassesTransformationsENS0_19SwitchStatementNodeEvE4callERS3_PS4_PNS0_4NodeE(ptr noundef nonnull align 8 dereferenceable(32) %64, ptr noundef %call103, ptr noundef %66)
  %call105 = call noundef nonnull align 8 dereferenceable(9) ptr @_ZNSt7variantIJN6hermes6ESTree11UnmodifiedTENS1_8RemovedTEPNS1_4NodeEEEaSIS2_EENSt9enable_ifIXaaaa14__exactly_onceINSt9_Nth_typeIX16__accepted_indexIOT_EEJS2_S3_S5_EE4typeEE18is_constructible_vISD_SA_E15is_assignable_vIRSD_SA_EERS6_E4typeESB_(ptr noundef nonnull align 8 dereferenceable(9) %retval, ptr noundef nonnull align 1 dereferenceable(1) %ref.tmp102) #10
  br label %sw.epilog

sw.bb106:                                         ; preds = %if.end2
  %67 = load ptr, ptr %v.addr, align 8
  %68 = load ptr, ptr %node.addr, align 8
  %call108 = call noundef ptr @_ZN4llvh4castIN6hermes6ESTree20LabeledStatementNodeENS2_4NodeEEENS_10cast_rettyIT_PT0_E8ret_typeES8_(ptr noundef %68)
  %69 = load ptr, ptr %parent.addr, align 8
  call void @_ZN6hermes6ESTree6detail11VisitCallerINS_25ES6ClassesTransformationsENS0_20LabeledStatementNodeEvE4callERS3_PS4_PNS0_4NodeE(ptr noundef nonnull align 8 dereferenceable(32) %67, ptr noundef %call108, ptr noundef %69)
  %call110 = call noundef nonnull align 8 dereferenceable(9) ptr @_ZNSt7variantIJN6hermes6ESTree11UnmodifiedTENS1_8RemovedTEPNS1_4NodeEEEaSIS2_EENSt9enable_ifIXaaaa14__exactly_onceINSt9_Nth_typeIX16__accepted_indexIOT_EEJS2_S3_S5_EE4typeEE18is_constructible_vISD_SA_E15is_assignable_vIRSD_SA_EERS6_E4typeESB_(ptr noundef nonnull align 8 dereferenceable(9) %retval, ptr noundef nonnull align 1 dereferenceable(1) %ref.tmp107) #10
  br label %sw.epilog

sw.bb111:                                         ; preds = %if.end2
  %70 = load ptr, ptr %v.addr, align 8
  %71 = load ptr, ptr %node.addr, align 8
  %call113 = call noundef ptr @_ZN4llvh4castIN6hermes6ESTree23ExpressionStatementNodeENS2_4NodeEEENS_10cast_rettyIT_PT0_E8ret_typeES8_(ptr noundef %71)
  %72 = load ptr, ptr %parent.addr, align 8
  call void @_ZN6hermes6ESTree6detail11VisitCallerINS_25ES6ClassesTransformationsENS0_23ExpressionStatementNodeEvE4callERS3_PS4_PNS0_4NodeE(ptr noundef nonnull align 8 dereferenceable(32) %70, ptr noundef %call113, ptr noundef %72)
  %call115 = call noundef nonnull align 8 dereferenceable(9) ptr @_ZNSt7variantIJN6hermes6ESTree11UnmodifiedTENS1_8RemovedTEPNS1_4NodeEEEaSIS2_EENSt9enable_ifIXaaaa14__exactly_onceINSt9_Nth_typeIX16__accepted_indexIOT_EEJS2_S3_S5_EE4typeEE18is_constructible_vISD_SA_E15is_assignable_vIRSD_SA_EERS6_E4typeESB_(ptr noundef nonnull align 8 dereferenceable(9) %retval, ptr noundef nonnull align 1 dereferenceable(1) %ref.tmp112) #10
  br label %sw.epilog

sw.bb116:                                         ; preds = %if.end2
  %73 = load ptr, ptr %v.addr, align 8
  %74 = load ptr, ptr %node.addr, align 8
  %call118 = call noundef ptr @_ZN4llvh4castIN6hermes6ESTree16TryStatementNodeENS2_4NodeEEENS_10cast_rettyIT_PT0_E8ret_typeES8_(ptr noundef %74)
  %75 = load ptr, ptr %parent.addr, align 8
  call void @_ZN6hermes6ESTree6detail11VisitCallerINS_25ES6ClassesTransformationsENS0_16TryStatementNodeEvE4callERS3_PS4_PNS0_4NodeE(ptr noundef nonnull align 8 dereferenceable(32) %73, ptr noundef %call118, ptr noundef %75)
  %call120 = call noundef nonnull align 8 dereferenceable(9) ptr @_ZNSt7variantIJN6hermes6ESTree11UnmodifiedTENS1_8RemovedTEPNS1_4NodeEEEaSIS2_EENSt9enable_ifIXaaaa14__exactly_onceINSt9_Nth_typeIX16__accepted_indexIOT_EEJS2_S3_S5_EE4typeEE18is_constructible_vISD_SA_E15is_assignable_vIRSD_SA_EERS6_E4typeESB_(ptr noundef nonnull align 8 dereferenceable(9) %retval, ptr noundef nonnull align 1 dereferenceable(1) %ref.tmp117) #10
  br label %sw.epilog

sw.bb121:                                         ; preds = %if.end2
  %76 = load ptr, ptr %v.addr, align 8
  %77 = load ptr, ptr %node.addr, align 8
  %call123 = call noundef ptr @_ZN4llvh4castIN6hermes6ESTree15IfStatementNodeENS2_4NodeEEENS_10cast_rettyIT_PT0_E8ret_typeES8_(ptr noundef %77)
  %78 = load ptr, ptr %parent.addr, align 8
  call void @_ZN6hermes6ESTree6detail11VisitCallerINS_25ES6ClassesTransformationsENS0_15IfStatementNodeEvE4callERS3_PS4_PNS0_4NodeE(ptr noundef nonnull align 8 dereferenceable(32) %76, ptr noundef %call123, ptr noundef %78)
  %call125 = call noundef nonnull align 8 dereferenceable(9) ptr @_ZNSt7variantIJN6hermes6ESTree11UnmodifiedTENS1_8RemovedTEPNS1_4NodeEEEaSIS2_EENSt9enable_ifIXaaaa14__exactly_onceINSt9_Nth_typeIX16__accepted_indexIOT_EEJS2_S3_S5_EE4typeEE18is_constructible_vISD_SA_E15is_assignable_vIRSD_SA_EERS6_E4typeESB_(ptr noundef nonnull align 8 dereferenceable(9) %retval, ptr noundef nonnull align 1 dereferenceable(1) %ref.tmp122) #10
  br label %sw.epilog

sw.bb126:                                         ; preds = %if.end2
  %79 = load ptr, ptr %v.addr, align 8
  %80 = load ptr, ptr %node.addr, align 8
  %call128 = call noundef ptr @_ZN4llvh4castIN6hermes6ESTree15NullLiteralNodeENS2_4NodeEEENS_10cast_rettyIT_PT0_E8ret_typeES8_(ptr noundef %80)
  %81 = load ptr, ptr %parent.addr, align 8
  call void @_ZN6hermes6ESTree6detail11VisitCallerINS_25ES6ClassesTransformationsENS0_15NullLiteralNodeEvE4callERS3_PS4_PNS0_4NodeE(ptr noundef nonnull align 8 dereferenceable(32) %79, ptr noundef %call128, ptr noundef %81)
  %call130 = call noundef nonnull align 8 dereferenceable(9) ptr @_ZNSt7variantIJN6hermes6ESTree11UnmodifiedTENS1_8RemovedTEPNS1_4NodeEEEaSIS2_EENSt9enable_ifIXaaaa14__exactly_onceINSt9_Nth_typeIX16__accepted_indexIOT_EEJS2_S3_S5_EE4typeEE18is_constructible_vISD_SA_E15is_assignable_vIRSD_SA_EERS6_E4typeESB_(ptr noundef nonnull align 8 dereferenceable(9) %retval, ptr noundef nonnull align 1 dereferenceable(1) %ref.tmp127) #10
  br label %sw.epilog

sw.bb131:                                         ; preds = %if.end2
  %82 = load ptr, ptr %v.addr, align 8
  %83 = load ptr, ptr %node.addr, align 8
  %call133 = call noundef ptr @_ZN4llvh4castIN6hermes6ESTree18BooleanLiteralNodeENS2_4NodeEEENS_10cast_rettyIT_PT0_E8ret_typeES8_(ptr noundef %83)
  %84 = load ptr, ptr %parent.addr, align 8
  call void @_ZN6hermes6ESTree6detail11VisitCallerINS_25ES6ClassesTransformationsENS0_18BooleanLiteralNodeEvE4callERS3_PS4_PNS0_4NodeE(ptr noundef nonnull align 8 dereferenceable(32) %82, ptr noundef %call133, ptr noundef %84)
  %call135 = call noundef nonnull align 8 dereferenceable(9) ptr @_ZNSt7variantIJN6hermes6ESTree11UnmodifiedTENS1_8RemovedTEPNS1_4NodeEEEaSIS2_EENSt9enable_ifIXaaaa14__exactly_onceINSt9_Nth_typeIX16__accepted_indexIOT_EEJS2_S3_S5_EE4typeEE18is_constructible_vISD_SA_E15is_assignable_vIRSD_SA_EERS6_E4typeESB_(ptr noundef nonnull align 8 dereferenceable(9) %retval, ptr noundef nonnull align 1 dereferenceable(1) %ref.tmp132) #10
  br label %sw.epilog

sw.bb136:                                         ; preds = %if.end2
  %85 = load ptr, ptr %v.addr, align 8
  %86 = load ptr, ptr %node.addr, align 8
  %call138 = call noundef ptr @_ZN4llvh4castIN6hermes6ESTree17StringLiteralNodeENS2_4NodeEEENS_10cast_rettyIT_PT0_E8ret_typeES8_(ptr noundef %86)
  %87 = load ptr, ptr %parent.addr, align 8
  call void @_ZN6hermes6ESTree6detail11VisitCallerINS_25ES6ClassesTransformationsENS0_17StringLiteralNodeEvE4callERS3_PS4_PNS0_4NodeE(ptr noundef nonnull align 8 dereferenceable(32) %85, ptr noundef %call138, ptr noundef %87)
  %call140 = call noundef nonnull align 8 dereferenceable(9) ptr @_ZNSt7variantIJN6hermes6ESTree11UnmodifiedTENS1_8RemovedTEPNS1_4NodeEEEaSIS2_EENSt9enable_ifIXaaaa14__exactly_onceINSt9_Nth_typeIX16__accepted_indexIOT_EEJS2_S3_S5_EE4typeEE18is_constructible_vISD_SA_E15is_assignable_vIRSD_SA_EERS6_E4typeESB_(ptr noundef nonnull align 8 dereferenceable(9) %retval, ptr noundef nonnull align 1 dereferenceable(1) %ref.tmp137) #10
  br label %sw.epilog

sw.bb141:                                         ; preds = %if.end2
  %88 = load ptr, ptr %v.addr, align 8
  %89 = load ptr, ptr %node.addr, align 8
  %call143 = call noundef ptr @_ZN4llvh4castIN6hermes6ESTree18NumericLiteralNodeENS2_4NodeEEENS_10cast_rettyIT_PT0_E8ret_typeES8_(ptr noundef %89)
  %90 = load ptr, ptr %parent.addr, align 8
  call void @_ZN6hermes6ESTree6detail11VisitCallerINS_25ES6ClassesTransformationsENS0_18NumericLiteralNodeEvE4callERS3_PS4_PNS0_4NodeE(ptr noundef nonnull align 8 dereferenceable(32) %88, ptr noundef %call143, ptr noundef %90)
  %call145 = call noundef nonnull align 8 dereferenceable(9) ptr @_ZNSt7variantIJN6hermes6ESTree11UnmodifiedTENS1_8RemovedTEPNS1_4NodeEEEaSIS2_EENSt9enable_ifIXaaaa14__exactly_onceINSt9_Nth_typeIX16__accepted_indexIOT_EEJS2_S3_S5_EE4typeEE18is_constructible_vISD_SA_E15is_assignable_vIRSD_SA_EERS6_E4typeESB_(ptr noundef nonnull align 8 dereferenceable(9) %retval, ptr noundef nonnull align 1 dereferenceable(1) %ref.tmp142) #10
  br label %sw.epilog

sw.bb146:                                         ; preds = %if.end2
  %91 = load ptr, ptr %v.addr, align 8
  %92 = load ptr, ptr %node.addr, align 8
  %call148 = call noundef ptr @_ZN4llvh4castIN6hermes6ESTree17RegExpLiteralNodeENS2_4NodeEEENS_10cast_rettyIT_PT0_E8ret_typeES8_(ptr noundef %92)
  %93 = load ptr, ptr %parent.addr, align 8
  call void @_ZN6hermes6ESTree6detail11VisitCallerINS_25ES6ClassesTransformationsENS0_17RegExpLiteralNodeEvE4callERS3_PS4_PNS0_4NodeE(ptr noundef nonnull align 8 dereferenceable(32) %91, ptr noundef %call148, ptr noundef %93)
  %call150 = call noundef nonnull align 8 dereferenceable(9) ptr @_ZNSt7variantIJN6hermes6ESTree11UnmodifiedTENS1_8RemovedTEPNS1_4NodeEEEaSIS2_EENSt9enable_ifIXaaaa14__exactly_onceINSt9_Nth_typeIX16__accepted_indexIOT_EEJS2_S3_S5_EE4typeEE18is_constructible_vISD_SA_E15is_assignable_vIRSD_SA_EERS6_E4typeESB_(ptr noundef nonnull align 8 dereferenceable(9) %retval, ptr noundef nonnull align 1 dereferenceable(1) %ref.tmp147) #10
  br label %sw.epilog

sw.bb151:                                         ; preds = %if.end2
  %94 = load ptr, ptr %v.addr, align 8
  %95 = load ptr, ptr %node.addr, align 8
  %call153 = call noundef ptr @_ZN4llvh4castIN6hermes6ESTree17BigIntLiteralNodeENS2_4NodeEEENS_10cast_rettyIT_PT0_E8ret_typeES8_(ptr noundef %95)
  %96 = load ptr, ptr %parent.addr, align 8
  call void @_ZN6hermes6ESTree6detail11VisitCallerINS_25ES6ClassesTransformationsENS0_17BigIntLiteralNodeEvE4callERS3_PS4_PNS0_4NodeE(ptr noundef nonnull align 8 dereferenceable(32) %94, ptr noundef %call153, ptr noundef %96)
  %call155 = call noundef nonnull align 8 dereferenceable(9) ptr @_ZNSt7variantIJN6hermes6ESTree11UnmodifiedTENS1_8RemovedTEPNS1_4NodeEEEaSIS2_EENSt9enable_ifIXaaaa14__exactly_onceINSt9_Nth_typeIX16__accepted_indexIOT_EEJS2_S3_S5_EE4typeEE18is_constructible_vISD_SA_E15is_assignable_vIRSD_SA_EERS6_E4typeESB_(ptr noundef nonnull align 8 dereferenceable(9) %retval, ptr noundef nonnull align 1 dereferenceable(1) %ref.tmp152) #10
  br label %sw.epilog

sw.bb156:                                         ; preds = %if.end2
  %97 = load ptr, ptr %v.addr, align 8
  %98 = load ptr, ptr %node.addr, align 8
  %call158 = call noundef ptr @_ZN4llvh4castIN6hermes6ESTree18ThisExpressionNodeENS2_4NodeEEENS_10cast_rettyIT_PT0_E8ret_typeES8_(ptr noundef %98)
  %99 = load ptr, ptr %parent.addr, align 8
  call void @_ZN6hermes6ESTree6detail11VisitCallerINS_25ES6ClassesTransformationsENS0_18ThisExpressionNodeEvE4callERS3_PS4_PNS0_4NodeE(ptr noundef nonnull align 8 dereferenceable(32) %97, ptr noundef %call158, ptr noundef %99)
  %call160 = call noundef nonnull align 8 dereferenceable(9) ptr @_ZNSt7variantIJN6hermes6ESTree11UnmodifiedTENS1_8RemovedTEPNS1_4NodeEEEaSIS2_EENSt9enable_ifIXaaaa14__exactly_onceINSt9_Nth_typeIX16__accepted_indexIOT_EEJS2_S3_S5_EE4typeEE18is_constructible_vISD_SA_E15is_assignable_vIRSD_SA_EERS6_E4typeESB_(ptr noundef nonnull align 8 dereferenceable(9) %retval, ptr noundef nonnull align 1 dereferenceable(1) %ref.tmp157) #10
  br label %sw.epilog

sw.bb161:                                         ; preds = %if.end2
  %100 = load ptr, ptr %v.addr, align 8
  %101 = load ptr, ptr %node.addr, align 8
  %call163 = call noundef ptr @_ZN4llvh4castIN6hermes6ESTree9SuperNodeENS2_4NodeEEENS_10cast_rettyIT_PT0_E8ret_typeES8_(ptr noundef %101)
  %102 = load ptr, ptr %parent.addr, align 8
  call void @_ZN6hermes6ESTree6detail11VisitCallerINS_25ES6ClassesTransformationsENS0_9SuperNodeEvE4callERS3_PS4_PNS0_4NodeE(ptr noundef nonnull align 8 dereferenceable(32) %100, ptr noundef %call163, ptr noundef %102)
  %call165 = call noundef nonnull align 8 dereferenceable(9) ptr @_ZNSt7variantIJN6hermes6ESTree11UnmodifiedTENS1_8RemovedTEPNS1_4NodeEEEaSIS2_EENSt9enable_ifIXaaaa14__exactly_onceINSt9_Nth_typeIX16__accepted_indexIOT_EEJS2_S3_S5_EE4typeEE18is_constructible_vISD_SA_E15is_assignable_vIRSD_SA_EERS6_E4typeESB_(ptr noundef nonnull align 8 dereferenceable(9) %retval, ptr noundef nonnull align 1 dereferenceable(1) %ref.tmp162) #10
  br label %sw.epilog

sw.bb166:                                         ; preds = %if.end2
  %103 = load ptr, ptr %v.addr, align 8
  %104 = load ptr, ptr %node.addr, align 8
  %call168 = call noundef ptr @_ZN4llvh4castIN6hermes6ESTree22SequenceExpressionNodeENS2_4NodeEEENS_10cast_rettyIT_PT0_E8ret_typeES8_(ptr noundef %104)
  %105 = load ptr, ptr %parent.addr, align 8
  call void @_ZN6hermes6ESTree6detail11VisitCallerINS_25ES6ClassesTransformationsENS0_22SequenceExpressionNodeEvE4callERS3_PS4_PNS0_4NodeE(ptr noundef nonnull align 8 dereferenceable(32) %103, ptr noundef %call168, ptr noundef %105)
  %call170 = call noundef nonnull align 8 dereferenceable(9) ptr @_ZNSt7variantIJN6hermes6ESTree11UnmodifiedTENS1_8RemovedTEPNS1_4NodeEEEaSIS2_EENSt9enable_ifIXaaaa14__exactly_onceINSt9_Nth_typeIX16__accepted_indexIOT_EEJS2_S3_S5_EE4typeEE18is_constructible_vISD_SA_E15is_assignable_vIRSD_SA_EERS6_E4typeESB_(ptr noundef nonnull align 8 dereferenceable(9) %retval, ptr noundef nonnull align 1 dereferenceable(1) %ref.tmp167) #10
  br label %sw.epilog

sw.bb171:                                         ; preds = %if.end2
  %106 = load ptr, ptr %v.addr, align 8
  %107 = load ptr, ptr %node.addr, align 8
  %call173 = call noundef ptr @_ZN4llvh4castIN6hermes6ESTree20ObjectExpressionNodeENS2_4NodeEEENS_10cast_rettyIT_PT0_E8ret_typeES8_(ptr noundef %107)
  %108 = load ptr, ptr %parent.addr, align 8
  call void @_ZN6hermes6ESTree6detail11VisitCallerINS_25ES6ClassesTransformationsENS0_20ObjectExpressionNodeEvE4callERS3_PS4_PNS0_4NodeE(ptr noundef nonnull align 8 dereferenceable(32) %106, ptr noundef %call173, ptr noundef %108)
  %call175 = call noundef nonnull align 8 dereferenceable(9) ptr @_ZNSt7variantIJN6hermes6ESTree11UnmodifiedTENS1_8RemovedTEPNS1_4NodeEEEaSIS2_EENSt9enable_ifIXaaaa14__exactly_onceINSt9_Nth_typeIX16__accepted_indexIOT_EEJS2_S3_S5_EE4typeEE18is_constructible_vISD_SA_E15is_assignable_vIRSD_SA_EERS6_E4typeESB_(ptr noundef nonnull align 8 dereferenceable(9) %retval, ptr noundef nonnull align 1 dereferenceable(1) %ref.tmp172) #10
  br label %sw.epilog

sw.bb176:                                         ; preds = %if.end2
  %109 = load ptr, ptr %v.addr, align 8
  %110 = load ptr, ptr %node.addr, align 8
  %call178 = call noundef ptr @_ZN4llvh4castIN6hermes6ESTree19ArrayExpressionNodeENS2_4NodeEEENS_10cast_rettyIT_PT0_E8ret_typeES8_(ptr noundef %110)
  %111 = load ptr, ptr %parent.addr, align 8
  call void @_ZN6hermes6ESTree6detail11VisitCallerINS_25ES6ClassesTransformationsENS0_19ArrayExpressionNodeEvE4callERS3_PS4_PNS0_4NodeE(ptr noundef nonnull align 8 dereferenceable(32) %109, ptr noundef %call178, ptr noundef %111)
  %call180 = call noundef nonnull align 8 dereferenceable(9) ptr @_ZNSt7variantIJN6hermes6ESTree11UnmodifiedTENS1_8RemovedTEPNS1_4NodeEEEaSIS2_EENSt9enable_ifIXaaaa14__exactly_onceINSt9_Nth_typeIX16__accepted_indexIOT_EEJS2_S3_S5_EE4typeEE18is_constructible_vISD_SA_E15is_assignable_vIRSD_SA_EERS6_E4typeESB_(ptr noundef nonnull align 8 dereferenceable(9) %retval, ptr noundef nonnull align 1 dereferenceable(1) %ref.tmp177) #10
  br label %sw.epilog

sw.bb181:                                         ; preds = %if.end2
  %112 = load ptr, ptr %v.addr, align 8
  %113 = load ptr, ptr %node.addr, align 8
  %call183 = call noundef ptr @_ZN4llvh4castIN6hermes6ESTree17SpreadElementNodeENS2_4NodeEEENS_10cast_rettyIT_PT0_E8ret_typeES8_(ptr noundef %113)
  %114 = load ptr, ptr %parent.addr, align 8
  call void @_ZN6hermes6ESTree6detail11VisitCallerINS_25ES6ClassesTransformationsENS0_17SpreadElementNodeEvE4callERS3_PS4_PNS0_4NodeE(ptr noundef nonnull align 8 dereferenceable(32) %112, ptr noundef %call183, ptr noundef %114)
  %call185 = call noundef nonnull align 8 dereferenceable(9) ptr @_ZNSt7variantIJN6hermes6ESTree11UnmodifiedTENS1_8RemovedTEPNS1_4NodeEEEaSIS2_EENSt9enable_ifIXaaaa14__exactly_onceINSt9_Nth_typeIX16__accepted_indexIOT_EEJS2_S3_S5_EE4typeEE18is_constructible_vISD_SA_E15is_assignable_vIRSD_SA_EERS6_E4typeESB_(ptr noundef nonnull align 8 dereferenceable(9) %retval, ptr noundef nonnull align 1 dereferenceable(1) %ref.tmp182) #10
  br label %sw.epilog

sw.bb186:                                         ; preds = %if.end2
  %115 = load ptr, ptr %v.addr, align 8
  %116 = load ptr, ptr %node.addr, align 8
  %call188 = call noundef ptr @_ZN4llvh4castIN6hermes6ESTree17NewExpressionNodeENS2_4NodeEEENS_10cast_rettyIT_PT0_E8ret_typeES8_(ptr noundef %116)
  %117 = load ptr, ptr %parent.addr, align 8
  call void @_ZN6hermes6ESTree6detail11VisitCallerINS_25ES6ClassesTransformationsENS0_17NewExpressionNodeEvE4callERS3_PS4_PNS0_4NodeE(ptr noundef nonnull align 8 dereferenceable(32) %115, ptr noundef %call188, ptr noundef %117)
  %call190 = call noundef nonnull align 8 dereferenceable(9) ptr @_ZNSt7variantIJN6hermes6ESTree11UnmodifiedTENS1_8RemovedTEPNS1_4NodeEEEaSIS2_EENSt9enable_ifIXaaaa14__exactly_onceINSt9_Nth_typeIX16__accepted_indexIOT_EEJS2_S3_S5_EE4typeEE18is_constructible_vISD_SA_E15is_assignable_vIRSD_SA_EERS6_E4typeESB_(ptr noundef nonnull align 8 dereferenceable(9) %retval, ptr noundef nonnull align 1 dereferenceable(1) %ref.tmp187) #10
  br label %sw.epilog

sw.bb191:                                         ; preds = %if.end2
  %118 = load ptr, ptr %v.addr, align 8
  %119 = load ptr, ptr %node.addr, align 8
  %call193 = call noundef ptr @_ZN4llvh4castIN6hermes6ESTree19YieldExpressionNodeENS2_4NodeEEENS_10cast_rettyIT_PT0_E8ret_typeES8_(ptr noundef %119)
  %120 = load ptr, ptr %parent.addr, align 8
  call void @_ZN6hermes6ESTree6detail11VisitCallerINS_25ES6ClassesTransformationsENS0_19YieldExpressionNodeEvE4callERS3_PS4_PNS0_4NodeE(ptr noundef nonnull align 8 dereferenceable(32) %118, ptr noundef %call193, ptr noundef %120)
  %call195 = call noundef nonnull align 8 dereferenceable(9) ptr @_ZNSt7variantIJN6hermes6ESTree11UnmodifiedTENS1_8RemovedTEPNS1_4NodeEEEaSIS2_EENSt9enable_ifIXaaaa14__exactly_onceINSt9_Nth_typeIX16__accepted_indexIOT_EEJS2_S3_S5_EE4typeEE18is_constructible_vISD_SA_E15is_assignable_vIRSD_SA_EERS6_E4typeESB_(ptr noundef nonnull align 8 dereferenceable(9) %retval, ptr noundef nonnull align 1 dereferenceable(1) %ref.tmp192) #10
  br label %sw.epilog

sw.bb196:                                         ; preds = %if.end2
  %121 = load ptr, ptr %v.addr, align 8
  %122 = load ptr, ptr %node.addr, align 8
  %call198 = call noundef ptr @_ZN4llvh4castIN6hermes6ESTree19AwaitExpressionNodeENS2_4NodeEEENS_10cast_rettyIT_PT0_E8ret_typeES8_(ptr noundef %122)
  %123 = load ptr, ptr %parent.addr, align 8
  call void @_ZN6hermes6ESTree6detail11VisitCallerINS_25ES6ClassesTransformationsENS0_19AwaitExpressionNodeEvE4callERS3_PS4_PNS0_4NodeE(ptr noundef nonnull align 8 dereferenceable(32) %121, ptr noundef %call198, ptr noundef %123)
  %call200 = call noundef nonnull align 8 dereferenceable(9) ptr @_ZNSt7variantIJN6hermes6ESTree11UnmodifiedTENS1_8RemovedTEPNS1_4NodeEEEaSIS2_EENSt9enable_ifIXaaaa14__exactly_onceINSt9_Nth_typeIX16__accepted_indexIOT_EEJS2_S3_S5_EE4typeEE18is_constructible_vISD_SA_E15is_assignable_vIRSD_SA_EERS6_E4typeESB_(ptr noundef nonnull align 8 dereferenceable(9) %retval, ptr noundef nonnull align 1 dereferenceable(1) %ref.tmp197) #10
  br label %sw.epilog

sw.bb201:                                         ; preds = %if.end2
  %124 = load ptr, ptr %v.addr, align 8
  %125 = load ptr, ptr %node.addr, align 8
  %call203 = call noundef ptr @_ZN4llvh4castIN6hermes6ESTree20ImportExpressionNodeENS2_4NodeEEENS_10cast_rettyIT_PT0_E8ret_typeES8_(ptr noundef %125)
  %126 = load ptr, ptr %parent.addr, align 8
  call void @_ZN6hermes6ESTree6detail11VisitCallerINS_25ES6ClassesTransformationsENS0_20ImportExpressionNodeEvE4callERS3_PS4_PNS0_4NodeE(ptr noundef nonnull align 8 dereferenceable(32) %124, ptr noundef %call203, ptr noundef %126)
  %call205 = call noundef nonnull align 8 dereferenceable(9) ptr @_ZNSt7variantIJN6hermes6ESTree11UnmodifiedTENS1_8RemovedTEPNS1_4NodeEEEaSIS2_EENSt9enable_ifIXaaaa14__exactly_onceINSt9_Nth_typeIX16__accepted_indexIOT_EEJS2_S3_S5_EE4typeEE18is_constructible_vISD_SA_E15is_assignable_vIRSD_SA_EERS6_E4typeESB_(ptr noundef nonnull align 8 dereferenceable(9) %retval, ptr noundef nonnull align 1 dereferenceable(1) %ref.tmp202) #10
  br label %sw.epilog

sw.bb206:                                         ; preds = %if.end2
  %127 = load ptr, ptr %v.addr, align 8
  %128 = load ptr, ptr %node.addr, align 8
  %call208 = call noundef ptr @_ZN4llvh4castIN6hermes6ESTree18CallExpressionNodeENS2_4NodeEEENS_10cast_rettyIT_PT0_E8ret_typeES8_(ptr noundef %128)
  %129 = load ptr, ptr %parent.addr, align 8
  %call209 = call { ptr, i8 } @_ZN6hermes6ESTree6detail11VisitCallerINS_25ES6ClassesTransformationsENS0_18CallExpressionNodeEvE4callERS3_PS4_PNS0_4NodeE(ptr noundef nonnull align 8 dereferenceable(32) %127, ptr noundef %call208, ptr noundef %129)
  %130 = getelementptr inbounds { ptr, i8 }, ptr %ref.tmp207, i32 0, i32 0
  %131 = extractvalue { ptr, i8 } %call209, 0
  store ptr %131, ptr %130, align 8
  %132 = getelementptr inbounds { ptr, i8 }, ptr %ref.tmp207, i32 0, i32 1
  %133 = extractvalue { ptr, i8 } %call209, 1
  store i8 %133, ptr %132, align 8
  call void @llvm.memcpy.p0.p0.i64(ptr align 8 %retval, ptr align 8 %ref.tmp207, i64 9, i1 false)
  br label %sw.epilog

sw.bb210:                                         ; preds = %if.end2
  %134 = load ptr, ptr %v.addr, align 8
  %135 = load ptr, ptr %node.addr, align 8
  %call212 = call noundef ptr @_ZN4llvh4castIN6hermes6ESTree26OptionalCallExpressionNodeENS2_4NodeEEENS_10cast_rettyIT_PT0_E8ret_typeES8_(ptr noundef %135)
  %136 = load ptr, ptr %parent.addr, align 8
  call void @_ZN6hermes6ESTree6detail11VisitCallerINS_25ES6ClassesTransformationsENS0_26OptionalCallExpressionNodeEvE4callERS3_PS4_PNS0_4NodeE(ptr noundef nonnull align 8 dereferenceable(32) %134, ptr noundef %call212, ptr noundef %136)
  %call214 = call noundef nonnull align 8 dereferenceable(9) ptr @_ZNSt7variantIJN6hermes6ESTree11UnmodifiedTENS1_8RemovedTEPNS1_4NodeEEEaSIS2_EENSt9enable_ifIXaaaa14__exactly_onceINSt9_Nth_typeIX16__accepted_indexIOT_EEJS2_S3_S5_EE4typeEE18is_constructible_vISD_SA_E15is_assignable_vIRSD_SA_EERS6_E4typeESB_(ptr noundef nonnull align 8 dereferenceable(9) %retval, ptr noundef nonnull align 1 dereferenceable(1) %ref.tmp211) #10
  br label %sw.epilog

sw.bb215:                                         ; preds = %if.end2
  %137 = load ptr, ptr %v.addr, align 8
  %138 = load ptr, ptr %node.addr, align 8
  %call217 = call noundef ptr @_ZN4llvh4castIN6hermes6ESTree24AssignmentExpressionNodeENS2_4NodeEEENS_10cast_rettyIT_PT0_E8ret_typeES8_(ptr noundef %138)
  %139 = load ptr, ptr %parent.addr, align 8
  call void @_ZN6hermes6ESTree6detail11VisitCallerINS_25ES6ClassesTransformationsENS0_24AssignmentExpressionNodeEvE4callERS3_PS4_PNS0_4NodeE(ptr noundef nonnull align 8 dereferenceable(32) %137, ptr noundef %call217, ptr noundef %139)
  %call219 = call noundef nonnull align 8 dereferenceable(9) ptr @_ZNSt7variantIJN6hermes6ESTree11UnmodifiedTENS1_8RemovedTEPNS1_4NodeEEEaSIS2_EENSt9enable_ifIXaaaa14__exactly_onceINSt9_Nth_typeIX16__accepted_indexIOT_EEJS2_S3_S5_EE4typeEE18is_constructible_vISD_SA_E15is_assignable_vIRSD_SA_EERS6_E4typeESB_(ptr noundef nonnull align 8 dereferenceable(9) %retval, ptr noundef nonnull align 1 dereferenceable(1) %ref.tmp216) #10
  br label %sw.epilog

sw.bb220:                                         ; preds = %if.end2
  %140 = load ptr, ptr %v.addr, align 8
  %141 = load ptr, ptr %node.addr, align 8
  %call222 = call noundef ptr @_ZN4llvh4castIN6hermes6ESTree19UnaryExpressionNodeENS2_4NodeEEENS_10cast_rettyIT_PT0_E8ret_typeES8_(ptr noundef %141)
  %142 = load ptr, ptr %parent.addr, align 8
  call void @_ZN6hermes6ESTree6detail11VisitCallerINS_25ES6ClassesTransformationsENS0_19UnaryExpressionNodeEvE4callERS3_PS4_PNS0_4NodeE(ptr noundef nonnull align 8 dereferenceable(32) %140, ptr noundef %call222, ptr noundef %142)
  %call224 = call noundef nonnull align 8 dereferenceable(9) ptr @_ZNSt7variantIJN6hermes6ESTree11UnmodifiedTENS1_8RemovedTEPNS1_4NodeEEEaSIS2_EENSt9enable_ifIXaaaa14__exactly_onceINSt9_Nth_typeIX16__accepted_indexIOT_EEJS2_S3_S5_EE4typeEE18is_constructible_vISD_SA_E15is_assignable_vIRSD_SA_EERS6_E4typeESB_(ptr noundef nonnull align 8 dereferenceable(9) %retval, ptr noundef nonnull align 1 dereferenceable(1) %ref.tmp221) #10
  br label %sw.epilog

sw.bb225:                                         ; preds = %if.end2
  %143 = load ptr, ptr %v.addr, align 8
  %144 = load ptr, ptr %node.addr, align 8
  %call227 = call noundef ptr @_ZN4llvh4castIN6hermes6ESTree20UpdateExpressionNodeENS2_4NodeEEENS_10cast_rettyIT_PT0_E8ret_typeES8_(ptr noundef %144)
  %145 = load ptr, ptr %parent.addr, align 8
  call void @_ZN6hermes6ESTree6detail11VisitCallerINS_25ES6ClassesTransformationsENS0_20UpdateExpressionNodeEvE4callERS3_PS4_PNS0_4NodeE(ptr noundef nonnull align 8 dereferenceable(32) %143, ptr noundef %call227, ptr noundef %145)
  %call229 = call noundef nonnull align 8 dereferenceable(9) ptr @_ZNSt7variantIJN6hermes6ESTree11UnmodifiedTENS1_8RemovedTEPNS1_4NodeEEEaSIS2_EENSt9enable_ifIXaaaa14__exactly_onceINSt9_Nth_typeIX16__accepted_indexIOT_EEJS2_S3_S5_EE4typeEE18is_constructible_vISD_SA_E15is_assignable_vIRSD_SA_EERS6_E4typeESB_(ptr noundef nonnull align 8 dereferenceable(9) %retval, ptr noundef nonnull align 1 dereferenceable(1) %ref.tmp226) #10
  br label %sw.epilog

sw.bb230:                                         ; preds = %if.end2
  %146 = load ptr, ptr %v.addr, align 8
  %147 = load ptr, ptr %node.addr, align 8
  %call232 = call noundef ptr @_ZN4llvh4castIN6hermes6ESTree20MemberExpressionNodeENS2_4NodeEEENS_10cast_rettyIT_PT0_E8ret_typeES8_(ptr noundef %147)
  %148 = load ptr, ptr %parent.addr, align 8
  %call233 = call { ptr, i8 } @_ZN6hermes6ESTree6detail11VisitCallerINS_25ES6ClassesTransformationsENS0_20MemberExpressionNodeEvE4callERS3_PS4_PNS0_4NodeE(ptr noundef nonnull align 8 dereferenceable(32) %146, ptr noundef %call232, ptr noundef %148)
  %149 = getelementptr inbounds { ptr, i8 }, ptr %ref.tmp231, i32 0, i32 0
  %150 = extractvalue { ptr, i8 } %call233, 0
  store ptr %150, ptr %149, align 8
  %151 = getelementptr inbounds { ptr, i8 }, ptr %ref.tmp231, i32 0, i32 1
  %152 = extractvalue { ptr, i8 } %call233, 1
  store i8 %152, ptr %151, align 8
  call void @llvm.memcpy.p0.p0.i64(ptr align 8 %retval, ptr align 8 %ref.tmp231, i64 9, i1 false)
  br label %sw.epilog

sw.bb234:                                         ; preds = %if.end2
  %153 = load ptr, ptr %v.addr, align 8
  %154 = load ptr, ptr %node.addr, align 8
  %call236 = call noundef ptr @_ZN4llvh4castIN6hermes6ESTree28OptionalMemberExpressionNodeENS2_4NodeEEENS_10cast_rettyIT_PT0_E8ret_typeES8_(ptr noundef %154)
  %155 = load ptr, ptr %parent.addr, align 8
  call void @_ZN6hermes6ESTree6detail11VisitCallerINS_25ES6ClassesTransformationsENS0_28OptionalMemberExpressionNodeEvE4callERS3_PS4_PNS0_4NodeE(ptr noundef nonnull align 8 dereferenceable(32) %153, ptr noundef %call236, ptr noundef %155)
  %call238 = call noundef nonnull align 8 dereferenceable(9) ptr @_ZNSt7variantIJN6hermes6ESTree11UnmodifiedTENS1_8RemovedTEPNS1_4NodeEEEaSIS2_EENSt9enable_ifIXaaaa14__exactly_onceINSt9_Nth_typeIX16__accepted_indexIOT_EEJS2_S3_S5_EE4typeEE18is_constructible_vISD_SA_E15is_assignable_vIRSD_SA_EERS6_E4typeESB_(ptr noundef nonnull align 8 dereferenceable(9) %retval, ptr noundef nonnull align 1 dereferenceable(1) %ref.tmp235) #10
  br label %sw.epilog

sw.bb239:                                         ; preds = %if.end2
  %156 = load ptr, ptr %v.addr, align 8
  %157 = load ptr, ptr %node.addr, align 8
  %call241 = call noundef ptr @_ZN4llvh4castIN6hermes6ESTree21LogicalExpressionNodeENS2_4NodeEEENS_10cast_rettyIT_PT0_E8ret_typeES8_(ptr noundef %157)
  %158 = load ptr, ptr %parent.addr, align 8
  call void @_ZN6hermes6ESTree6detail11VisitCallerINS_25ES6ClassesTransformationsENS0_21LogicalExpressionNodeEvE4callERS3_PS4_PNS0_4NodeE(ptr noundef nonnull align 8 dereferenceable(32) %156, ptr noundef %call241, ptr noundef %158)
  %call243 = call noundef nonnull align 8 dereferenceable(9) ptr @_ZNSt7variantIJN6hermes6ESTree11UnmodifiedTENS1_8RemovedTEPNS1_4NodeEEEaSIS2_EENSt9enable_ifIXaaaa14__exactly_onceINSt9_Nth_typeIX16__accepted_indexIOT_EEJS2_S3_S5_EE4typeEE18is_constructible_vISD_SA_E15is_assignable_vIRSD_SA_EERS6_E4typeESB_(ptr noundef nonnull align 8 dereferenceable(9) %retval, ptr noundef nonnull align 1 dereferenceable(1) %ref.tmp240) #10
  br label %sw.epilog

sw.bb244:                                         ; preds = %if.end2
  %159 = load ptr, ptr %v.addr, align 8
  %160 = load ptr, ptr %node.addr, align 8
  %call246 = call noundef ptr @_ZN4llvh4castIN6hermes6ESTree25ConditionalExpressionNodeENS2_4NodeEEENS_10cast_rettyIT_PT0_E8ret_typeES8_(ptr noundef %160)
  %161 = load ptr, ptr %parent.addr, align 8
  call void @_ZN6hermes6ESTree6detail11VisitCallerINS_25ES6ClassesTransformationsENS0_25ConditionalExpressionNodeEvE4callERS3_PS4_PNS0_4NodeE(ptr noundef nonnull align 8 dereferenceable(32) %159, ptr noundef %call246, ptr noundef %161)
  %call248 = call noundef nonnull align 8 dereferenceable(9) ptr @_ZNSt7variantIJN6hermes6ESTree11UnmodifiedTENS1_8RemovedTEPNS1_4NodeEEEaSIS2_EENSt9enable_ifIXaaaa14__exactly_onceINSt9_Nth_typeIX16__accepted_indexIOT_EEJS2_S3_S5_EE4typeEE18is_constructible_vISD_SA_E15is_assignable_vIRSD_SA_EERS6_E4typeESB_(ptr noundef nonnull align 8 dereferenceable(9) %retval, ptr noundef nonnull align 1 dereferenceable(1) %ref.tmp245) #10
  br label %sw.epilog

sw.bb249:                                         ; preds = %if.end2
  %162 = load ptr, ptr %v.addr, align 8
  %163 = load ptr, ptr %node.addr, align 8
  %call251 = call noundef ptr @_ZN4llvh4castIN6hermes6ESTree20BinaryExpressionNodeENS2_4NodeEEENS_10cast_rettyIT_PT0_E8ret_typeES8_(ptr noundef %163)
  %164 = load ptr, ptr %parent.addr, align 8
  call void @_ZN6hermes6ESTree6detail11VisitCallerINS_25ES6ClassesTransformationsENS0_20BinaryExpressionNodeEvE4callERS3_PS4_PNS0_4NodeE(ptr noundef nonnull align 8 dereferenceable(32) %162, ptr noundef %call251, ptr noundef %164)
  %call253 = call noundef nonnull align 8 dereferenceable(9) ptr @_ZNSt7variantIJN6hermes6ESTree11UnmodifiedTENS1_8RemovedTEPNS1_4NodeEEEaSIS2_EENSt9enable_ifIXaaaa14__exactly_onceINSt9_Nth_typeIX16__accepted_indexIOT_EEJS2_S3_S5_EE4typeEE18is_constructible_vISD_SA_E15is_assignable_vIRSD_SA_EERS6_E4typeESB_(ptr noundef nonnull align 8 dereferenceable(9) %retval, ptr noundef nonnull align 1 dereferenceable(1) %ref.tmp250) #10
  br label %sw.epilog

sw.bb254:                                         ; preds = %if.end2
  %165 = load ptr, ptr %v.addr, align 8
  %166 = load ptr, ptr %node.addr, align 8
  %call256 = call noundef ptr @_ZN4llvh4castIN6hermes6ESTree13DirectiveNodeENS2_4NodeEEENS_10cast_rettyIT_PT0_E8ret_typeES8_(ptr noundef %166)
  %167 = load ptr, ptr %parent.addr, align 8
  call void @_ZN6hermes6ESTree6detail11VisitCallerINS_25ES6ClassesTransformationsENS0_13DirectiveNodeEvE4callERS3_PS4_PNS0_4NodeE(ptr noundef nonnull align 8 dereferenceable(32) %165, ptr noundef %call256, ptr noundef %167)
  %call258 = call noundef nonnull align 8 dereferenceable(9) ptr @_ZNSt7variantIJN6hermes6ESTree11UnmodifiedTENS1_8RemovedTEPNS1_4NodeEEEaSIS2_EENSt9enable_ifIXaaaa14__exactly_onceINSt9_Nth_typeIX16__accepted_indexIOT_EEJS2_S3_S5_EE4typeEE18is_constructible_vISD_SA_E15is_assignable_vIRSD_SA_EERS6_E4typeESB_(ptr noundef nonnull align 8 dereferenceable(9) %retval, ptr noundef nonnull align 1 dereferenceable(1) %ref.tmp255) #10
  br label %sw.epilog

sw.bb259:                                         ; preds = %if.end2
  %168 = load ptr, ptr %v.addr, align 8
  %169 = load ptr, ptr %node.addr, align 8
  %call261 = call noundef ptr @_ZN4llvh4castIN6hermes6ESTree20DirectiveLiteralNodeENS2_4NodeEEENS_10cast_rettyIT_PT0_E8ret_typeES8_(ptr noundef %169)
  %170 = load ptr, ptr %parent.addr, align 8
  call void @_ZN6hermes6ESTree6detail11VisitCallerINS_25ES6ClassesTransformationsENS0_20DirectiveLiteralNodeEvE4callERS3_PS4_PNS0_4NodeE(ptr noundef nonnull align 8 dereferenceable(32) %168, ptr noundef %call261, ptr noundef %170)
  %call263 = call noundef nonnull align 8 dereferenceable(9) ptr @_ZNSt7variantIJN6hermes6ESTree11UnmodifiedTENS1_8RemovedTEPNS1_4NodeEEEaSIS2_EENSt9enable_ifIXaaaa14__exactly_onceINSt9_Nth_typeIX16__accepted_indexIOT_EEJS2_S3_S5_EE4typeEE18is_constructible_vISD_SA_E15is_assignable_vIRSD_SA_EERS6_E4typeESB_(ptr noundef nonnull align 8 dereferenceable(9) %retval, ptr noundef nonnull align 1 dereferenceable(1) %ref.tmp260) #10
  br label %sw.epilog

sw.bb264:                                         ; preds = %if.end2
  %171 = load ptr, ptr %v.addr, align 8
  %172 = load ptr, ptr %node.addr, align 8
  %call266 = call noundef ptr @_ZN4llvh4castIN6hermes6ESTree14IdentifierNodeENS2_4NodeEEENS_10cast_rettyIT_PT0_E8ret_typeES8_(ptr noundef %172)
  %173 = load ptr, ptr %parent.addr, align 8
  call void @_ZN6hermes6ESTree6detail11VisitCallerINS_25ES6ClassesTransformationsENS0_14IdentifierNodeEvE4callERS3_PS4_PNS0_4NodeE(ptr noundef nonnull align 8 dereferenceable(32) %171, ptr noundef %call266, ptr noundef %173)
  %call268 = call noundef nonnull align 8 dereferenceable(9) ptr @_ZNSt7variantIJN6hermes6ESTree11UnmodifiedTENS1_8RemovedTEPNS1_4NodeEEEaSIS2_EENSt9enable_ifIXaaaa14__exactly_onceINSt9_Nth_typeIX16__accepted_indexIOT_EEJS2_S3_S5_EE4typeEE18is_constructible_vISD_SA_E15is_assignable_vIRSD_SA_EERS6_E4typeESB_(ptr noundef nonnull align 8 dereferenceable(9) %retval, ptr noundef nonnull align 1 dereferenceable(1) %ref.tmp265) #10
  br label %sw.epilog

sw.bb269:                                         ; preds = %if.end2
  %174 = load ptr, ptr %v.addr, align 8
  %175 = load ptr, ptr %node.addr, align 8
  %call271 = call noundef ptr @_ZN4llvh4castIN6hermes6ESTree15PrivateNameNodeENS2_4NodeEEENS_10cast_rettyIT_PT0_E8ret_typeES8_(ptr noundef %175)
  %176 = load ptr, ptr %parent.addr, align 8
  call void @_ZN6hermes6ESTree6detail11VisitCallerINS_25ES6ClassesTransformationsENS0_15PrivateNameNodeEvE4callERS3_PS4_PNS0_4NodeE(ptr noundef nonnull align 8 dereferenceable(32) %174, ptr noundef %call271, ptr noundef %176)
  %call273 = call noundef nonnull align 8 dereferenceable(9) ptr @_ZNSt7variantIJN6hermes6ESTree11UnmodifiedTENS1_8RemovedTEPNS1_4NodeEEEaSIS2_EENSt9enable_ifIXaaaa14__exactly_onceINSt9_Nth_typeIX16__accepted_indexIOT_EEJS2_S3_S5_EE4typeEE18is_constructible_vISD_SA_E15is_assignable_vIRSD_SA_EERS6_E4typeESB_(ptr noundef nonnull align 8 dereferenceable(9) %retval, ptr noundef nonnull align 1 dereferenceable(1) %ref.tmp270) #10
  br label %sw.epilog

sw.bb274:                                         ; preds = %if.end2
  %177 = load ptr, ptr %v.addr, align 8
  %178 = load ptr, ptr %node.addr, align 8
  %call276 = call noundef ptr @_ZN4llvh4castIN6hermes6ESTree16MetaPropertyNodeENS2_4NodeEEENS_10cast_rettyIT_PT0_E8ret_typeES8_(ptr noundef %178)
  %179 = load ptr, ptr %parent.addr, align 8
  call void @_ZN6hermes6ESTree6detail11VisitCallerINS_25ES6ClassesTransformationsENS0_16MetaPropertyNodeEvE4callERS3_PS4_PNS0_4NodeE(ptr noundef nonnull align 8 dereferenceable(32) %177, ptr noundef %call276, ptr noundef %179)
  %call278 = call noundef nonnull align 8 dereferenceable(9) ptr @_ZNSt7variantIJN6hermes6ESTree11UnmodifiedTENS1_8RemovedTEPNS1_4NodeEEEaSIS2_EENSt9enable_ifIXaaaa14__exactly_onceINSt9_Nth_typeIX16__accepted_indexIOT_EEJS2_S3_S5_EE4typeEE18is_constructible_vISD_SA_E15is_assignable_vIRSD_SA_EERS6_E4typeESB_(ptr noundef nonnull align 8 dereferenceable(9) %retval, ptr noundef nonnull align 1 dereferenceable(1) %ref.tmp275) #10
  br label %sw.epilog

sw.bb279:                                         ; preds = %if.end2
  %180 = load ptr, ptr %v.addr, align 8
  %181 = load ptr, ptr %node.addr, align 8
  %call281 = call noundef ptr @_ZN4llvh4castIN6hermes6ESTree14SwitchCaseNodeENS2_4NodeEEENS_10cast_rettyIT_PT0_E8ret_typeES8_(ptr noundef %181)
  %182 = load ptr, ptr %parent.addr, align 8
  call void @_ZN6hermes6ESTree6detail11VisitCallerINS_25ES6ClassesTransformationsENS0_14SwitchCaseNodeEvE4callERS3_PS4_PNS0_4NodeE(ptr noundef nonnull align 8 dereferenceable(32) %180, ptr noundef %call281, ptr noundef %182)
  %call283 = call noundef nonnull align 8 dereferenceable(9) ptr @_ZNSt7variantIJN6hermes6ESTree11UnmodifiedTENS1_8RemovedTEPNS1_4NodeEEEaSIS2_EENSt9enable_ifIXaaaa14__exactly_onceINSt9_Nth_typeIX16__accepted_indexIOT_EEJS2_S3_S5_EE4typeEE18is_constructible_vISD_SA_E15is_assignable_vIRSD_SA_EERS6_E4typeESB_(ptr noundef nonnull align 8 dereferenceable(9) %retval, ptr noundef nonnull align 1 dereferenceable(1) %ref.tmp280) #10
  br label %sw.epilog

sw.bb284:                                         ; preds = %if.end2
  %183 = load ptr, ptr %v.addr, align 8
  %184 = load ptr, ptr %node.addr, align 8
  %call286 = call noundef ptr @_ZN4llvh4castIN6hermes6ESTree15CatchClauseNodeENS2_4NodeEEENS_10cast_rettyIT_PT0_E8ret_typeES8_(ptr noundef %184)
  %185 = load ptr, ptr %parent.addr, align 8
  call void @_ZN6hermes6ESTree6detail11VisitCallerINS_25ES6ClassesTransformationsENS0_15CatchClauseNodeEvE4callERS3_PS4_PNS0_4NodeE(ptr noundef nonnull align 8 dereferenceable(32) %183, ptr noundef %call286, ptr noundef %185)
  %call288 = call noundef nonnull align 8 dereferenceable(9) ptr @_ZNSt7variantIJN6hermes6ESTree11UnmodifiedTENS1_8RemovedTEPNS1_4NodeEEEaSIS2_EENSt9enable_ifIXaaaa14__exactly_onceINSt9_Nth_typeIX16__accepted_indexIOT_EEJS2_S3_S5_EE4typeEE18is_constructible_vISD_SA_E15is_assignable_vIRSD_SA_EERS6_E4typeESB_(ptr noundef nonnull align 8 dereferenceable(9) %retval, ptr noundef nonnull align 1 dereferenceable(1) %ref.tmp285) #10
  br label %sw.epilog

sw.bb289:                                         ; preds = %if.end2
  %186 = load ptr, ptr %v.addr, align 8
  %187 = load ptr, ptr %node.addr, align 8
  %call291 = call noundef ptr @_ZN4llvh4castIN6hermes6ESTree22VariableDeclaratorNodeENS2_4NodeEEENS_10cast_rettyIT_PT0_E8ret_typeES8_(ptr noundef %187)
  %188 = load ptr, ptr %parent.addr, align 8
  call void @_ZN6hermes6ESTree6detail11VisitCallerINS_25ES6ClassesTransformationsENS0_22VariableDeclaratorNodeEvE4callERS3_PS4_PNS0_4NodeE(ptr noundef nonnull align 8 dereferenceable(32) %186, ptr noundef %call291, ptr noundef %188)
  %call293 = call noundef nonnull align 8 dereferenceable(9) ptr @_ZNSt7variantIJN6hermes6ESTree11UnmodifiedTENS1_8RemovedTEPNS1_4NodeEEEaSIS2_EENSt9enable_ifIXaaaa14__exactly_onceINSt9_Nth_typeIX16__accepted_indexIOT_EEJS2_S3_S5_EE4typeEE18is_constructible_vISD_SA_E15is_assignable_vIRSD_SA_EERS6_E4typeESB_(ptr noundef nonnull align 8 dereferenceable(9) %retval, ptr noundef nonnull align 1 dereferenceable(1) %ref.tmp290) #10
  br label %sw.epilog

sw.bb294:                                         ; preds = %if.end2
  %189 = load ptr, ptr %v.addr, align 8
  %190 = load ptr, ptr %node.addr, align 8
  %call296 = call noundef ptr @_ZN4llvh4castIN6hermes6ESTree23VariableDeclarationNodeENS2_4NodeEEENS_10cast_rettyIT_PT0_E8ret_typeES8_(ptr noundef %190)
  %191 = load ptr, ptr %parent.addr, align 8
  call void @_ZN6hermes6ESTree6detail11VisitCallerINS_25ES6ClassesTransformationsENS0_23VariableDeclarationNodeEvE4callERS3_PS4_PNS0_4NodeE(ptr noundef nonnull align 8 dereferenceable(32) %189, ptr noundef %call296, ptr noundef %191)
  %call298 = call noundef nonnull align 8 dereferenceable(9) ptr @_ZNSt7variantIJN6hermes6ESTree11UnmodifiedTENS1_8RemovedTEPNS1_4NodeEEEaSIS2_EENSt9enable_ifIXaaaa14__exactly_onceINSt9_Nth_typeIX16__accepted_indexIOT_EEJS2_S3_S5_EE4typeEE18is_constructible_vISD_SA_E15is_assignable_vIRSD_SA_EERS6_E4typeESB_(ptr noundef nonnull align 8 dereferenceable(9) %retval, ptr noundef nonnull align 1 dereferenceable(1) %ref.tmp295) #10
  br label %sw.epilog

sw.bb299:                                         ; preds = %if.end2
  %192 = load ptr, ptr %v.addr, align 8
  %193 = load ptr, ptr %node.addr, align 8
  %call301 = call noundef ptr @_ZN4llvh4castIN6hermes6ESTree19TemplateLiteralNodeENS2_4NodeEEENS_10cast_rettyIT_PT0_E8ret_typeES8_(ptr noundef %193)
  %194 = load ptr, ptr %parent.addr, align 8
  call void @_ZN6hermes6ESTree6detail11VisitCallerINS_25ES6ClassesTransformationsENS0_19TemplateLiteralNodeEvE4callERS3_PS4_PNS0_4NodeE(ptr noundef nonnull align 8 dereferenceable(32) %192, ptr noundef %call301, ptr noundef %194)
  %call303 = call noundef nonnull align 8 dereferenceable(9) ptr @_ZNSt7variantIJN6hermes6ESTree11UnmodifiedTENS1_8RemovedTEPNS1_4NodeEEEaSIS2_EENSt9enable_ifIXaaaa14__exactly_onceINSt9_Nth_typeIX16__accepted_indexIOT_EEJS2_S3_S5_EE4typeEE18is_constructible_vISD_SA_E15is_assignable_vIRSD_SA_EERS6_E4typeESB_(ptr noundef nonnull align 8 dereferenceable(9) %retval, ptr noundef nonnull align 1 dereferenceable(1) %ref.tmp300) #10
  br label %sw.epilog

sw.bb304:                                         ; preds = %if.end2
  %195 = load ptr, ptr %v.addr, align 8
  %196 = load ptr, ptr %node.addr, align 8
  %call306 = call noundef ptr @_ZN4llvh4castIN6hermes6ESTree28TaggedTemplateExpressionNodeENS2_4NodeEEENS_10cast_rettyIT_PT0_E8ret_typeES8_(ptr noundef %196)
  %197 = load ptr, ptr %parent.addr, align 8
  call void @_ZN6hermes6ESTree6detail11VisitCallerINS_25ES6ClassesTransformationsENS0_28TaggedTemplateExpressionNodeEvE4callERS3_PS4_PNS0_4NodeE(ptr noundef nonnull align 8 dereferenceable(32) %195, ptr noundef %call306, ptr noundef %197)
  %call308 = call noundef nonnull align 8 dereferenceable(9) ptr @_ZNSt7variantIJN6hermes6ESTree11UnmodifiedTENS1_8RemovedTEPNS1_4NodeEEEaSIS2_EENSt9enable_ifIXaaaa14__exactly_onceINSt9_Nth_typeIX16__accepted_indexIOT_EEJS2_S3_S5_EE4typeEE18is_constructible_vISD_SA_E15is_assignable_vIRSD_SA_EERS6_E4typeESB_(ptr noundef nonnull align 8 dereferenceable(9) %retval, ptr noundef nonnull align 1 dereferenceable(1) %ref.tmp305) #10
  br label %sw.epilog

sw.bb309:                                         ; preds = %if.end2
  %198 = load ptr, ptr %v.addr, align 8
  %199 = load ptr, ptr %node.addr, align 8
  %call311 = call noundef ptr @_ZN4llvh4castIN6hermes6ESTree19TemplateElementNodeENS2_4NodeEEENS_10cast_rettyIT_PT0_E8ret_typeES8_(ptr noundef %199)
  %200 = load ptr, ptr %parent.addr, align 8
  call void @_ZN6hermes6ESTree6detail11VisitCallerINS_25ES6ClassesTransformationsENS0_19TemplateElementNodeEvE4callERS3_PS4_PNS0_4NodeE(ptr noundef nonnull align 8 dereferenceable(32) %198, ptr noundef %call311, ptr noundef %200)
  %call313 = call noundef nonnull align 8 dereferenceable(9) ptr @_ZNSt7variantIJN6hermes6ESTree11UnmodifiedTENS1_8RemovedTEPNS1_4NodeEEEaSIS2_EENSt9enable_ifIXaaaa14__exactly_onceINSt9_Nth_typeIX16__accepted_indexIOT_EEJS2_S3_S5_EE4typeEE18is_constructible_vISD_SA_E15is_assignable_vIRSD_SA_EERS6_E4typeESB_(ptr noundef nonnull align 8 dereferenceable(9) %retval, ptr noundef nonnull align 1 dereferenceable(1) %ref.tmp310) #10
  br label %sw.epilog

sw.bb314:                                         ; preds = %if.end2
  %201 = load ptr, ptr %v.addr, align 8
  %202 = load ptr, ptr %node.addr, align 8
  %call316 = call noundef ptr @_ZN4llvh4castIN6hermes6ESTree12PropertyNodeENS2_4NodeEEENS_10cast_rettyIT_PT0_E8ret_typeES8_(ptr noundef %202)
  %203 = load ptr, ptr %parent.addr, align 8
  call void @_ZN6hermes6ESTree6detail11VisitCallerINS_25ES6ClassesTransformationsENS0_12PropertyNodeEvE4callERS3_PS4_PNS0_4NodeE(ptr noundef nonnull align 8 dereferenceable(32) %201, ptr noundef %call316, ptr noundef %203)
  %call318 = call noundef nonnull align 8 dereferenceable(9) ptr @_ZNSt7variantIJN6hermes6ESTree11UnmodifiedTENS1_8RemovedTEPNS1_4NodeEEEaSIS2_EENSt9enable_ifIXaaaa14__exactly_onceINSt9_Nth_typeIX16__accepted_indexIOT_EEJS2_S3_S5_EE4typeEE18is_constructible_vISD_SA_E15is_assignable_vIRSD_SA_EERS6_E4typeESB_(ptr noundef nonnull align 8 dereferenceable(9) %retval, ptr noundef nonnull align 1 dereferenceable(1) %ref.tmp315) #10
  br label %sw.epilog

sw.bb319:                                         ; preds = %if.end2
  %204 = load ptr, ptr %v.addr, align 8
  %205 = load ptr, ptr %node.addr, align 8
  %call321 = call noundef ptr @_ZN4llvh4castIN6hermes6ESTree20ClassDeclarationNodeENS2_4NodeEEENS_10cast_rettyIT_PT0_E8ret_typeES8_(ptr noundef %205)
  %206 = load ptr, ptr %parent.addr, align 8
  %call322 = call { ptr, i8 } @_ZN6hermes6ESTree6detail11VisitCallerINS_25ES6ClassesTransformationsENS0_20ClassDeclarationNodeEvE4callERS3_PS4_PNS0_4NodeE(ptr noundef nonnull align 8 dereferenceable(32) %204, ptr noundef %call321, ptr noundef %206)
  %207 = getelementptr inbounds { ptr, i8 }, ptr %ref.tmp320, i32 0, i32 0
  %208 = extractvalue { ptr, i8 } %call322, 0
  store ptr %208, ptr %207, align 8
  %209 = getelementptr inbounds { ptr, i8 }, ptr %ref.tmp320, i32 0, i32 1
  %210 = extractvalue { ptr, i8 } %call322, 1
  store i8 %210, ptr %209, align 8
  call void @llvm.memcpy.p0.p0.i64(ptr align 8 %retval, ptr align 8 %ref.tmp320, i64 9, i1 false)
  br label %sw.epilog

sw.bb323:                                         ; preds = %if.end2
  %211 = load ptr, ptr %v.addr, align 8
  %212 = load ptr, ptr %node.addr, align 8
  %call325 = call noundef ptr @_ZN4llvh4castIN6hermes6ESTree19ClassExpressionNodeENS2_4NodeEEENS_10cast_rettyIT_PT0_E8ret_typeES8_(ptr noundef %212)
  %213 = load ptr, ptr %parent.addr, align 8
  %call326 = call { ptr, i8 } @_ZN6hermes6ESTree6detail11VisitCallerINS_25ES6ClassesTransformationsENS0_19ClassExpressionNodeEvE4callERS3_PS4_PNS0_4NodeE(ptr noundef nonnull align 8 dereferenceable(32) %211, ptr noundef %call325, ptr noundef %213)
  %214 = getelementptr inbounds { ptr, i8 }, ptr %ref.tmp324, i32 0, i32 0
  %215 = extractvalue { ptr, i8 } %call326, 0
  store ptr %215, ptr %214, align 8
  %216 = getelementptr inbounds { ptr, i8 }, ptr %ref.tmp324, i32 0, i32 1
  %217 = extractvalue { ptr, i8 } %call326, 1
  store i8 %217, ptr %216, align 8
  call void @llvm.memcpy.p0.p0.i64(ptr align 8 %retval, ptr align 8 %ref.tmp324, i64 9, i1 false)
  br label %sw.epilog

sw.bb327:                                         ; preds = %if.end2
  %218 = load ptr, ptr %v.addr, align 8
  %219 = load ptr, ptr %node.addr, align 8
  %call329 = call noundef ptr @_ZN4llvh4castIN6hermes6ESTree13ClassBodyNodeENS2_4NodeEEENS_10cast_rettyIT_PT0_E8ret_typeES8_(ptr noundef %219)
  %220 = load ptr, ptr %parent.addr, align 8
  call void @_ZN6hermes6ESTree6detail11VisitCallerINS_25ES6ClassesTransformationsENS0_13ClassBodyNodeEvE4callERS3_PS4_PNS0_4NodeE(ptr noundef nonnull align 8 dereferenceable(32) %218, ptr noundef %call329, ptr noundef %220)
  %call331 = call noundef nonnull align 8 dereferenceable(9) ptr @_ZNSt7variantIJN6hermes6ESTree11UnmodifiedTENS1_8RemovedTEPNS1_4NodeEEEaSIS2_EENSt9enable_ifIXaaaa14__exactly_onceINSt9_Nth_typeIX16__accepted_indexIOT_EEJS2_S3_S5_EE4typeEE18is_constructible_vISD_SA_E15is_assignable_vIRSD_SA_EERS6_E4typeESB_(ptr noundef nonnull align 8 dereferenceable(9) %retval, ptr noundef nonnull align 1 dereferenceable(1) %ref.tmp328) #10
  br label %sw.epilog

sw.bb332:                                         ; preds = %if.end2
  %221 = load ptr, ptr %v.addr, align 8
  %222 = load ptr, ptr %node.addr, align 8
  %call334 = call noundef ptr @_ZN4llvh4castIN6hermes6ESTree17ClassPropertyNodeENS2_4NodeEEENS_10cast_rettyIT_PT0_E8ret_typeES8_(ptr noundef %222)
  %223 = load ptr, ptr %parent.addr, align 8
  call void @_ZN6hermes6ESTree6detail11VisitCallerINS_25ES6ClassesTransformationsENS0_17ClassPropertyNodeEvE4callERS3_PS4_PNS0_4NodeE(ptr noundef nonnull align 8 dereferenceable(32) %221, ptr noundef %call334, ptr noundef %223)
  %call336 = call noundef nonnull align 8 dereferenceable(9) ptr @_ZNSt7variantIJN6hermes6ESTree11UnmodifiedTENS1_8RemovedTEPNS1_4NodeEEEaSIS2_EENSt9enable_ifIXaaaa14__exactly_onceINSt9_Nth_typeIX16__accepted_indexIOT_EEJS2_S3_S5_EE4typeEE18is_constructible_vISD_SA_E15is_assignable_vIRSD_SA_EERS6_E4typeESB_(ptr noundef nonnull align 8 dereferenceable(9) %retval, ptr noundef nonnull align 1 dereferenceable(1) %ref.tmp333) #10
  br label %sw.epilog

sw.bb337:                                         ; preds = %if.end2
  %224 = load ptr, ptr %v.addr, align 8
  %225 = load ptr, ptr %node.addr, align 8
  %call339 = call noundef ptr @_ZN4llvh4castIN6hermes6ESTree24ClassPrivatePropertyNodeENS2_4NodeEEENS_10cast_rettyIT_PT0_E8ret_typeES8_(ptr noundef %225)
  %226 = load ptr, ptr %parent.addr, align 8
  call void @_ZN6hermes6ESTree6detail11VisitCallerINS_25ES6ClassesTransformationsENS0_24ClassPrivatePropertyNodeEvE4callERS3_PS4_PNS0_4NodeE(ptr noundef nonnull align 8 dereferenceable(32) %224, ptr noundef %call339, ptr noundef %226)
  %call341 = call noundef nonnull align 8 dereferenceable(9) ptr @_ZNSt7variantIJN6hermes6ESTree11UnmodifiedTENS1_8RemovedTEPNS1_4NodeEEEaSIS2_EENSt9enable_ifIXaaaa14__exactly_onceINSt9_Nth_typeIX16__accepted_indexIOT_EEJS2_S3_S5_EE4typeEE18is_constructible_vISD_SA_E15is_assignable_vIRSD_SA_EERS6_E4typeESB_(ptr noundef nonnull align 8 dereferenceable(9) %retval, ptr noundef nonnull align 1 dereferenceable(1) %ref.tmp338) #10
  br label %sw.epilog

sw.bb342:                                         ; preds = %if.end2
  %227 = load ptr, ptr %v.addr, align 8
  %228 = load ptr, ptr %node.addr, align 8
  %call344 = call noundef ptr @_ZN4llvh4castIN6hermes6ESTree20MethodDefinitionNodeENS2_4NodeEEENS_10cast_rettyIT_PT0_E8ret_typeES8_(ptr noundef %228)
  %229 = load ptr, ptr %parent.addr, align 8
  call void @_ZN6hermes6ESTree6detail11VisitCallerINS_25ES6ClassesTransformationsENS0_20MethodDefinitionNodeEvE4callERS3_PS4_PNS0_4NodeE(ptr noundef nonnull align 8 dereferenceable(32) %227, ptr noundef %call344, ptr noundef %229)
  %call346 = call noundef nonnull align 8 dereferenceable(9) ptr @_ZNSt7variantIJN6hermes6ESTree11UnmodifiedTENS1_8RemovedTEPNS1_4NodeEEEaSIS2_EENSt9enable_ifIXaaaa14__exactly_onceINSt9_Nth_typeIX16__accepted_indexIOT_EEJS2_S3_S5_EE4typeEE18is_constructible_vISD_SA_E15is_assignable_vIRSD_SA_EERS6_E4typeESB_(ptr noundef nonnull align 8 dereferenceable(9) %retval, ptr noundef nonnull align 1 dereferenceable(1) %ref.tmp343) #10
  br label %sw.epilog

sw.bb347:                                         ; preds = %if.end2
  %230 = load ptr, ptr %v.addr, align 8
  %231 = load ptr, ptr %node.addr, align 8
  %call349 = call noundef ptr @_ZN4llvh4castIN6hermes6ESTree21ImportDeclarationNodeENS2_4NodeEEENS_10cast_rettyIT_PT0_E8ret_typeES8_(ptr noundef %231)
  %232 = load ptr, ptr %parent.addr, align 8
  call void @_ZN6hermes6ESTree6detail11VisitCallerINS_25ES6ClassesTransformationsENS0_21ImportDeclarationNodeEvE4callERS3_PS4_PNS0_4NodeE(ptr noundef nonnull align 8 dereferenceable(32) %230, ptr noundef %call349, ptr noundef %232)
  %call351 = call noundef nonnull align 8 dereferenceable(9) ptr @_ZNSt7variantIJN6hermes6ESTree11UnmodifiedTENS1_8RemovedTEPNS1_4NodeEEEaSIS2_EENSt9enable_ifIXaaaa14__exactly_onceINSt9_Nth_typeIX16__accepted_indexIOT_EEJS2_S3_S5_EE4typeEE18is_constructible_vISD_SA_E15is_assignable_vIRSD_SA_EERS6_E4typeESB_(ptr noundef nonnull align 8 dereferenceable(9) %retval, ptr noundef nonnull align 1 dereferenceable(1) %ref.tmp348) #10
  br label %sw.epilog

sw.bb352:                                         ; preds = %if.end2
  %233 = load ptr, ptr %v.addr, align 8
  %234 = load ptr, ptr %node.addr, align 8
  %call354 = call noundef ptr @_ZN4llvh4castIN6hermes6ESTree19ImportSpecifierNodeENS2_4NodeEEENS_10cast_rettyIT_PT0_E8ret_typeES8_(ptr noundef %234)
  %235 = load ptr, ptr %parent.addr, align 8
  call void @_ZN6hermes6ESTree6detail11VisitCallerINS_25ES6ClassesTransformationsENS0_19ImportSpecifierNodeEvE4callERS3_PS4_PNS0_4NodeE(ptr noundef nonnull align 8 dereferenceable(32) %233, ptr noundef %call354, ptr noundef %235)
  %call356 = call noundef nonnull align 8 dereferenceable(9) ptr @_ZNSt7variantIJN6hermes6ESTree11UnmodifiedTENS1_8RemovedTEPNS1_4NodeEEEaSIS2_EENSt9enable_ifIXaaaa14__exactly_onceINSt9_Nth_typeIX16__accepted_indexIOT_EEJS2_S3_S5_EE4typeEE18is_constructible_vISD_SA_E15is_assignable_vIRSD_SA_EERS6_E4typeESB_(ptr noundef nonnull align 8 dereferenceable(9) %retval, ptr noundef nonnull align 1 dereferenceable(1) %ref.tmp353) #10
  br label %sw.epilog

sw.bb357:                                         ; preds = %if.end2
  %236 = load ptr, ptr %v.addr, align 8
  %237 = load ptr, ptr %node.addr, align 8
  %call359 = call noundef ptr @_ZN4llvh4castIN6hermes6ESTree26ImportDefaultSpecifierNodeENS2_4NodeEEENS_10cast_rettyIT_PT0_E8ret_typeES8_(ptr noundef %237)
  %238 = load ptr, ptr %parent.addr, align 8
  call void @_ZN6hermes6ESTree6detail11VisitCallerINS_25ES6ClassesTransformationsENS0_26ImportDefaultSpecifierNodeEvE4callERS3_PS4_PNS0_4NodeE(ptr noundef nonnull align 8 dereferenceable(32) %236, ptr noundef %call359, ptr noundef %238)
  %call361 = call noundef nonnull align 8 dereferenceable(9) ptr @_ZNSt7variantIJN6hermes6ESTree11UnmodifiedTENS1_8RemovedTEPNS1_4NodeEEEaSIS2_EENSt9enable_ifIXaaaa14__exactly_onceINSt9_Nth_typeIX16__accepted_indexIOT_EEJS2_S3_S5_EE4typeEE18is_constructible_vISD_SA_E15is_assignable_vIRSD_SA_EERS6_E4typeESB_(ptr noundef nonnull align 8 dereferenceable(9) %retval, ptr noundef nonnull align 1 dereferenceable(1) %ref.tmp358) #10
  br label %sw.epilog

sw.bb362:                                         ; preds = %if.end2
  %239 = load ptr, ptr %v.addr, align 8
  %240 = load ptr, ptr %node.addr, align 8
  %call364 = call noundef ptr @_ZN4llvh4castIN6hermes6ESTree28ImportNamespaceSpecifierNodeENS2_4NodeEEENS_10cast_rettyIT_PT0_E8ret_typeES8_(ptr noundef %240)
  %241 = load ptr, ptr %parent.addr, align 8
  call void @_ZN6hermes6ESTree6detail11VisitCallerINS_25ES6ClassesTransformationsENS0_28ImportNamespaceSpecifierNodeEvE4callERS3_PS4_PNS0_4NodeE(ptr noundef nonnull align 8 dereferenceable(32) %239, ptr noundef %call364, ptr noundef %241)
  %call366 = call noundef nonnull align 8 dereferenceable(9) ptr @_ZNSt7variantIJN6hermes6ESTree11UnmodifiedTENS1_8RemovedTEPNS1_4NodeEEEaSIS2_EENSt9enable_ifIXaaaa14__exactly_onceINSt9_Nth_typeIX16__accepted_indexIOT_EEJS2_S3_S5_EE4typeEE18is_constructible_vISD_SA_E15is_assignable_vIRSD_SA_EERS6_E4typeESB_(ptr noundef nonnull align 8 dereferenceable(9) %retval, ptr noundef nonnull align 1 dereferenceable(1) %ref.tmp363) #10
  br label %sw.epilog

sw.bb367:                                         ; preds = %if.end2
  %242 = load ptr, ptr %v.addr, align 8
  %243 = load ptr, ptr %node.addr, align 8
  %call369 = call noundef ptr @_ZN4llvh4castIN6hermes6ESTree19ImportAttributeNodeENS2_4NodeEEENS_10cast_rettyIT_PT0_E8ret_typeES8_(ptr noundef %243)
  %244 = load ptr, ptr %parent.addr, align 8
  call void @_ZN6hermes6ESTree6detail11VisitCallerINS_25ES6ClassesTransformationsENS0_19ImportAttributeNodeEvE4callERS3_PS4_PNS0_4NodeE(ptr noundef nonnull align 8 dereferenceable(32) %242, ptr noundef %call369, ptr noundef %244)
  %call371 = call noundef nonnull align 8 dereferenceable(9) ptr @_ZNSt7variantIJN6hermes6ESTree11UnmodifiedTENS1_8RemovedTEPNS1_4NodeEEEaSIS2_EENSt9enable_ifIXaaaa14__exactly_onceINSt9_Nth_typeIX16__accepted_indexIOT_EEJS2_S3_S5_EE4typeEE18is_constructible_vISD_SA_E15is_assignable_vIRSD_SA_EERS6_E4typeESB_(ptr noundef nonnull align 8 dereferenceable(9) %retval, ptr noundef nonnull align 1 dereferenceable(1) %ref.tmp368) #10
  br label %sw.epilog

sw.bb372:                                         ; preds = %if.end2
  %245 = load ptr, ptr %v.addr, align 8
  %246 = load ptr, ptr %node.addr, align 8
  %call374 = call noundef ptr @_ZN4llvh4castIN6hermes6ESTree26ExportNamedDeclarationNodeENS2_4NodeEEENS_10cast_rettyIT_PT0_E8ret_typeES8_(ptr noundef %246)
  %247 = load ptr, ptr %parent.addr, align 8
  call void @_ZN6hermes6ESTree6detail11VisitCallerINS_25ES6ClassesTransformationsENS0_26ExportNamedDeclarationNodeEvE4callERS3_PS4_PNS0_4NodeE(ptr noundef nonnull align 8 dereferenceable(32) %245, ptr noundef %call374, ptr noundef %247)
  %call376 = call noundef nonnull align 8 dereferenceable(9) ptr @_ZNSt7variantIJN6hermes6ESTree11UnmodifiedTENS1_8RemovedTEPNS1_4NodeEEEaSIS2_EENSt9enable_ifIXaaaa14__exactly_onceINSt9_Nth_typeIX16__accepted_indexIOT_EEJS2_S3_S5_EE4typeEE18is_constructible_vISD_SA_E15is_assignable_vIRSD_SA_EERS6_E4typeESB_(ptr noundef nonnull align 8 dereferenceable(9) %retval, ptr noundef nonnull align 1 dereferenceable(1) %ref.tmp373) #10
  br label %sw.epilog

sw.bb377:                                         ; preds = %if.end2
  %248 = load ptr, ptr %v.addr, align 8
  %249 = load ptr, ptr %node.addr, align 8
  %call379 = call noundef ptr @_ZN4llvh4castIN6hermes6ESTree19ExportSpecifierNodeENS2_4NodeEEENS_10cast_rettyIT_PT0_E8ret_typeES8_(ptr noundef %249)
  %250 = load ptr, ptr %parent.addr, align 8
  call void @_ZN6hermes6ESTree6detail11VisitCallerINS_25ES6ClassesTransformationsENS0_19ExportSpecifierNodeEvE4callERS3_PS4_PNS0_4NodeE(ptr noundef nonnull align 8 dereferenceable(32) %248, ptr noundef %call379, ptr noundef %250)
  %call381 = call noundef nonnull align 8 dereferenceable(9) ptr @_ZNSt7variantIJN6hermes6ESTree11UnmodifiedTENS1_8RemovedTEPNS1_4NodeEEEaSIS2_EENSt9enable_ifIXaaaa14__exactly_onceINSt9_Nth_typeIX16__accepted_indexIOT_EEJS2_S3_S5_EE4typeEE18is_constructible_vISD_SA_E15is_assignable_vIRSD_SA_EERS6_E4typeESB_(ptr noundef nonnull align 8 dereferenceable(9) %retval, ptr noundef nonnull align 1 dereferenceable(1) %ref.tmp378) #10
  br label %sw.epilog

sw.bb382:                                         ; preds = %if.end2
  %251 = load ptr, ptr %v.addr, align 8
  %252 = load ptr, ptr %node.addr, align 8
  %call384 = call noundef ptr @_ZN4llvh4castIN6hermes6ESTree28ExportNamespaceSpecifierNodeENS2_4NodeEEENS_10cast_rettyIT_PT0_E8ret_typeES8_(ptr noundef %252)
  %253 = load ptr, ptr %parent.addr, align 8
  call void @_ZN6hermes6ESTree6detail11VisitCallerINS_25ES6ClassesTransformationsENS0_28ExportNamespaceSpecifierNodeEvE4callERS3_PS4_PNS0_4NodeE(ptr noundef nonnull align 8 dereferenceable(32) %251, ptr noundef %call384, ptr noundef %253)
  %call386 = call noundef nonnull align 8 dereferenceable(9) ptr @_ZNSt7variantIJN6hermes6ESTree11UnmodifiedTENS1_8RemovedTEPNS1_4NodeEEEaSIS2_EENSt9enable_ifIXaaaa14__exactly_onceINSt9_Nth_typeIX16__accepted_indexIOT_EEJS2_S3_S5_EE4typeEE18is_constructible_vISD_SA_E15is_assignable_vIRSD_SA_EERS6_E4typeESB_(ptr noundef nonnull align 8 dereferenceable(9) %retval, ptr noundef nonnull align 1 dereferenceable(1) %ref.tmp383) #10
  br label %sw.epilog

sw.bb387:                                         ; preds = %if.end2
  %254 = load ptr, ptr %v.addr, align 8
  %255 = load ptr, ptr %node.addr, align 8
  %call389 = call noundef ptr @_ZN4llvh4castIN6hermes6ESTree28ExportDefaultDeclarationNodeENS2_4NodeEEENS_10cast_rettyIT_PT0_E8ret_typeES8_(ptr noundef %255)
  %256 = load ptr, ptr %parent.addr, align 8
  call void @_ZN6hermes6ESTree6detail11VisitCallerINS_25ES6ClassesTransformationsENS0_28ExportDefaultDeclarationNodeEvE4callERS3_PS4_PNS0_4NodeE(ptr noundef nonnull align 8 dereferenceable(32) %254, ptr noundef %call389, ptr noundef %256)
  %call391 = call noundef nonnull align 8 dereferenceable(9) ptr @_ZNSt7variantIJN6hermes6ESTree11UnmodifiedTENS1_8RemovedTEPNS1_4NodeEEEaSIS2_EENSt9enable_ifIXaaaa14__exactly_onceINSt9_Nth_typeIX16__accepted_indexIOT_EEJS2_S3_S5_EE4typeEE18is_constructible_vISD_SA_E15is_assignable_vIRSD_SA_EERS6_E4typeESB_(ptr noundef nonnull align 8 dereferenceable(9) %retval, ptr noundef nonnull align 1 dereferenceable(1) %ref.tmp388) #10
  br label %sw.epilog

sw.bb392:                                         ; preds = %if.end2
  %257 = load ptr, ptr %v.addr, align 8
  %258 = load ptr, ptr %node.addr, align 8
  %call394 = call noundef ptr @_ZN4llvh4castIN6hermes6ESTree24ExportAllDeclarationNodeENS2_4NodeEEENS_10cast_rettyIT_PT0_E8ret_typeES8_(ptr noundef %258)
  %259 = load ptr, ptr %parent.addr, align 8
  call void @_ZN6hermes6ESTree6detail11VisitCallerINS_25ES6ClassesTransformationsENS0_24ExportAllDeclarationNodeEvE4callERS3_PS4_PNS0_4NodeE(ptr noundef nonnull align 8 dereferenceable(32) %257, ptr noundef %call394, ptr noundef %259)
  %call396 = call noundef nonnull align 8 dereferenceable(9) ptr @_ZNSt7variantIJN6hermes6ESTree11UnmodifiedTENS1_8RemovedTEPNS1_4NodeEEEaSIS2_EENSt9enable_ifIXaaaa14__exactly_onceINSt9_Nth_typeIX16__accepted_indexIOT_EEJS2_S3_S5_EE4typeEE18is_constructible_vISD_SA_E15is_assignable_vIRSD_SA_EERS6_E4typeESB_(ptr noundef nonnull align 8 dereferenceable(9) %retval, ptr noundef nonnull align 1 dereferenceable(1) %ref.tmp393) #10
  br label %sw.epilog

sw.bb397:                                         ; preds = %if.end2
  %260 = load ptr, ptr %v.addr, align 8
  %261 = load ptr, ptr %node.addr, align 8
  %call399 = call noundef ptr @_ZN4llvh4castIN6hermes6ESTree17ObjectPatternNodeENS2_4NodeEEENS_10cast_rettyIT_PT0_E8ret_typeES8_(ptr noundef %261)
  %262 = load ptr, ptr %parent.addr, align 8
  call void @_ZN6hermes6ESTree6detail11VisitCallerINS_25ES6ClassesTransformationsENS0_17ObjectPatternNodeEvE4callERS3_PS4_PNS0_4NodeE(ptr noundef nonnull align 8 dereferenceable(32) %260, ptr noundef %call399, ptr noundef %262)
  %call401 = call noundef nonnull align 8 dereferenceable(9) ptr @_ZNSt7variantIJN6hermes6ESTree11UnmodifiedTENS1_8RemovedTEPNS1_4NodeEEEaSIS2_EENSt9enable_ifIXaaaa14__exactly_onceINSt9_Nth_typeIX16__accepted_indexIOT_EEJS2_S3_S5_EE4typeEE18is_constructible_vISD_SA_E15is_assignable_vIRSD_SA_EERS6_E4typeESB_(ptr noundef nonnull align 8 dereferenceable(9) %retval, ptr noundef nonnull align 1 dereferenceable(1) %ref.tmp398) #10
  br label %sw.epilog

sw.bb402:                                         ; preds = %if.end2
  %263 = load ptr, ptr %v.addr, align 8
  %264 = load ptr, ptr %node.addr, align 8
  %call404 = call noundef ptr @_ZN4llvh4castIN6hermes6ESTree16ArrayPatternNodeENS2_4NodeEEENS_10cast_rettyIT_PT0_E8ret_typeES8_(ptr noundef %264)
  %265 = load ptr, ptr %parent.addr, align 8
  call void @_ZN6hermes6ESTree6detail11VisitCallerINS_25ES6ClassesTransformationsENS0_16ArrayPatternNodeEvE4callERS3_PS4_PNS0_4NodeE(ptr noundef nonnull align 8 dereferenceable(32) %263, ptr noundef %call404, ptr noundef %265)
  %call406 = call noundef nonnull align 8 dereferenceable(9) ptr @_ZNSt7variantIJN6hermes6ESTree11UnmodifiedTENS1_8RemovedTEPNS1_4NodeEEEaSIS2_EENSt9enable_ifIXaaaa14__exactly_onceINSt9_Nth_typeIX16__accepted_indexIOT_EEJS2_S3_S5_EE4typeEE18is_constructible_vISD_SA_E15is_assignable_vIRSD_SA_EERS6_E4typeESB_(ptr noundef nonnull align 8 dereferenceable(9) %retval, ptr noundef nonnull align 1 dereferenceable(1) %ref.tmp403) #10
  br label %sw.epilog

sw.bb407:                                         ; preds = %if.end2
  %266 = load ptr, ptr %v.addr, align 8
  %267 = load ptr, ptr %node.addr, align 8
  %call409 = call noundef ptr @_ZN4llvh4castIN6hermes6ESTree15RestElementNodeENS2_4NodeEEENS_10cast_rettyIT_PT0_E8ret_typeES8_(ptr noundef %267)
  %268 = load ptr, ptr %parent.addr, align 8
  call void @_ZN6hermes6ESTree6detail11VisitCallerINS_25ES6ClassesTransformationsENS0_15RestElementNodeEvE4callERS3_PS4_PNS0_4NodeE(ptr noundef nonnull align 8 dereferenceable(32) %266, ptr noundef %call409, ptr noundef %268)
  %call411 = call noundef nonnull align 8 dereferenceable(9) ptr @_ZNSt7variantIJN6hermes6ESTree11UnmodifiedTENS1_8RemovedTEPNS1_4NodeEEEaSIS2_EENSt9enable_ifIXaaaa14__exactly_onceINSt9_Nth_typeIX16__accepted_indexIOT_EEJS2_S3_S5_EE4typeEE18is_constructible_vISD_SA_E15is_assignable_vIRSD_SA_EERS6_E4typeESB_(ptr noundef nonnull align 8 dereferenceable(9) %retval, ptr noundef nonnull align 1 dereferenceable(1) %ref.tmp408) #10
  br label %sw.epilog

sw.bb412:                                         ; preds = %if.end2
  %269 = load ptr, ptr %v.addr, align 8
  %270 = load ptr, ptr %node.addr, align 8
  %call414 = call noundef ptr @_ZN4llvh4castIN6hermes6ESTree21AssignmentPatternNodeENS2_4NodeEEENS_10cast_rettyIT_PT0_E8ret_typeES8_(ptr noundef %270)
  %271 = load ptr, ptr %parent.addr, align 8
  call void @_ZN6hermes6ESTree6detail11VisitCallerINS_25ES6ClassesTransformationsENS0_21AssignmentPatternNodeEvE4callERS3_PS4_PNS0_4NodeE(ptr noundef nonnull align 8 dereferenceable(32) %269, ptr noundef %call414, ptr noundef %271)
  %call416 = call noundef nonnull align 8 dereferenceable(9) ptr @_ZNSt7variantIJN6hermes6ESTree11UnmodifiedTENS1_8RemovedTEPNS1_4NodeEEEaSIS2_EENSt9enable_ifIXaaaa14__exactly_onceINSt9_Nth_typeIX16__accepted_indexIOT_EEJS2_S3_S5_EE4typeEE18is_constructible_vISD_SA_E15is_assignable_vIRSD_SA_EERS6_E4typeESB_(ptr noundef nonnull align 8 dereferenceable(9) %retval, ptr noundef nonnull align 1 dereferenceable(1) %ref.tmp413) #10
  br label %sw.epilog

sw.bb417:                                         ; preds = %if.end2
  %272 = load ptr, ptr %v.addr, align 8
  %273 = load ptr, ptr %node.addr, align 8
  %call419 = call noundef ptr @_ZN4llvh4castIN6hermes6ESTree17JSXIdentifierNodeENS2_4NodeEEENS_10cast_rettyIT_PT0_E8ret_typeES8_(ptr noundef %273)
  %274 = load ptr, ptr %parent.addr, align 8
  call void @_ZN6hermes6ESTree6detail11VisitCallerINS_25ES6ClassesTransformationsENS0_17JSXIdentifierNodeEvE4callERS3_PS4_PNS0_4NodeE(ptr noundef nonnull align 8 dereferenceable(32) %272, ptr noundef %call419, ptr noundef %274)
  %call421 = call noundef nonnull align 8 dereferenceable(9) ptr @_ZNSt7variantIJN6hermes6ESTree11UnmodifiedTENS1_8RemovedTEPNS1_4NodeEEEaSIS2_EENSt9enable_ifIXaaaa14__exactly_onceINSt9_Nth_typeIX16__accepted_indexIOT_EEJS2_S3_S5_EE4typeEE18is_constructible_vISD_SA_E15is_assignable_vIRSD_SA_EERS6_E4typeESB_(ptr noundef nonnull align 8 dereferenceable(9) %retval, ptr noundef nonnull align 1 dereferenceable(1) %ref.tmp418) #10
  br label %sw.epilog

sw.bb422:                                         ; preds = %if.end2
  %275 = load ptr, ptr %v.addr, align 8
  %276 = load ptr, ptr %node.addr, align 8
  %call424 = call noundef ptr @_ZN4llvh4castIN6hermes6ESTree23JSXMemberExpressionNodeENS2_4NodeEEENS_10cast_rettyIT_PT0_E8ret_typeES8_(ptr noundef %276)
  %277 = load ptr, ptr %parent.addr, align 8
  call void @_ZN6hermes6ESTree6detail11VisitCallerINS_25ES6ClassesTransformationsENS0_23JSXMemberExpressionNodeEvE4callERS3_PS4_PNS0_4NodeE(ptr noundef nonnull align 8 dereferenceable(32) %275, ptr noundef %call424, ptr noundef %277)
  %call426 = call noundef nonnull align 8 dereferenceable(9) ptr @_ZNSt7variantIJN6hermes6ESTree11UnmodifiedTENS1_8RemovedTEPNS1_4NodeEEEaSIS2_EENSt9enable_ifIXaaaa14__exactly_onceINSt9_Nth_typeIX16__accepted_indexIOT_EEJS2_S3_S5_EE4typeEE18is_constructible_vISD_SA_E15is_assignable_vIRSD_SA_EERS6_E4typeESB_(ptr noundef nonnull align 8 dereferenceable(9) %retval, ptr noundef nonnull align 1 dereferenceable(1) %ref.tmp423) #10
  br label %sw.epilog

sw.bb427:                                         ; preds = %if.end2
  %278 = load ptr, ptr %v.addr, align 8
  %279 = load ptr, ptr %node.addr, align 8
  %call429 = call noundef ptr @_ZN4llvh4castIN6hermes6ESTree21JSXNamespacedNameNodeENS2_4NodeEEENS_10cast_rettyIT_PT0_E8ret_typeES8_(ptr noundef %279)
  %280 = load ptr, ptr %parent.addr, align 8
  call void @_ZN6hermes6ESTree6detail11VisitCallerINS_25ES6ClassesTransformationsENS0_21JSXNamespacedNameNodeEvE4callERS3_PS4_PNS0_4NodeE(ptr noundef nonnull align 8 dereferenceable(32) %278, ptr noundef %call429, ptr noundef %280)
  %call431 = call noundef nonnull align 8 dereferenceable(9) ptr @_ZNSt7variantIJN6hermes6ESTree11UnmodifiedTENS1_8RemovedTEPNS1_4NodeEEEaSIS2_EENSt9enable_ifIXaaaa14__exactly_onceINSt9_Nth_typeIX16__accepted_indexIOT_EEJS2_S3_S5_EE4typeEE18is_constructible_vISD_SA_E15is_assignable_vIRSD_SA_EERS6_E4typeESB_(ptr noundef nonnull align 8 dereferenceable(9) %retval, ptr noundef nonnull align 1 dereferenceable(1) %ref.tmp428) #10
  br label %sw.epilog

sw.bb432:                                         ; preds = %if.end2
  %281 = load ptr, ptr %v.addr, align 8
  %282 = load ptr, ptr %node.addr, align 8
  %call434 = call noundef ptr @_ZN4llvh4castIN6hermes6ESTree22JSXEmptyExpressionNodeENS2_4NodeEEENS_10cast_rettyIT_PT0_E8ret_typeES8_(ptr noundef %282)
  %283 = load ptr, ptr %parent.addr, align 8
  call void @_ZN6hermes6ESTree6detail11VisitCallerINS_25ES6ClassesTransformationsENS0_22JSXEmptyExpressionNodeEvE4callERS3_PS4_PNS0_4NodeE(ptr noundef nonnull align 8 dereferenceable(32) %281, ptr noundef %call434, ptr noundef %283)
  %call436 = call noundef nonnull align 8 dereferenceable(9) ptr @_ZNSt7variantIJN6hermes6ESTree11UnmodifiedTENS1_8RemovedTEPNS1_4NodeEEEaSIS2_EENSt9enable_ifIXaaaa14__exactly_onceINSt9_Nth_typeIX16__accepted_indexIOT_EEJS2_S3_S5_EE4typeEE18is_constructible_vISD_SA_E15is_assignable_vIRSD_SA_EERS6_E4typeESB_(ptr noundef nonnull align 8 dereferenceable(9) %retval, ptr noundef nonnull align 1 dereferenceable(1) %ref.tmp433) #10
  br label %sw.epilog

sw.bb437:                                         ; preds = %if.end2
  %284 = load ptr, ptr %v.addr, align 8
  %285 = load ptr, ptr %node.addr, align 8
  %call439 = call noundef ptr @_ZN4llvh4castIN6hermes6ESTree26JSXExpressionContainerNodeENS2_4NodeEEENS_10cast_rettyIT_PT0_E8ret_typeES8_(ptr noundef %285)
  %286 = load ptr, ptr %parent.addr, align 8
  call void @_ZN6hermes6ESTree6detail11VisitCallerINS_25ES6ClassesTransformationsENS0_26JSXExpressionContainerNodeEvE4callERS3_PS4_PNS0_4NodeE(ptr noundef nonnull align 8 dereferenceable(32) %284, ptr noundef %call439, ptr noundef %286)
  %call441 = call noundef nonnull align 8 dereferenceable(9) ptr @_ZNSt7variantIJN6hermes6ESTree11UnmodifiedTENS1_8RemovedTEPNS1_4NodeEEEaSIS2_EENSt9enable_ifIXaaaa14__exactly_onceINSt9_Nth_typeIX16__accepted_indexIOT_EEJS2_S3_S5_EE4typeEE18is_constructible_vISD_SA_E15is_assignable_vIRSD_SA_EERS6_E4typeESB_(ptr noundef nonnull align 8 dereferenceable(9) %retval, ptr noundef nonnull align 1 dereferenceable(1) %ref.tmp438) #10
  br label %sw.epilog

sw.bb442:                                         ; preds = %if.end2
  %287 = load ptr, ptr %v.addr, align 8
  %288 = load ptr, ptr %node.addr, align 8
  %call444 = call noundef ptr @_ZN4llvh4castIN6hermes6ESTree18JSXSpreadChildNodeENS2_4NodeEEENS_10cast_rettyIT_PT0_E8ret_typeES8_(ptr noundef %288)
  %289 = load ptr, ptr %parent.addr, align 8
  call void @_ZN6hermes6ESTree6detail11VisitCallerINS_25ES6ClassesTransformationsENS0_18JSXSpreadChildNodeEvE4callERS3_PS4_PNS0_4NodeE(ptr noundef nonnull align 8 dereferenceable(32) %287, ptr noundef %call444, ptr noundef %289)
  %call446 = call noundef nonnull align 8 dereferenceable(9) ptr @_ZNSt7variantIJN6hermes6ESTree11UnmodifiedTENS1_8RemovedTEPNS1_4NodeEEEaSIS2_EENSt9enable_ifIXaaaa14__exactly_onceINSt9_Nth_typeIX16__accepted_indexIOT_EEJS2_S3_S5_EE4typeEE18is_constructible_vISD_SA_E15is_assignable_vIRSD_SA_EERS6_E4typeESB_(ptr noundef nonnull align 8 dereferenceable(9) %retval, ptr noundef nonnull align 1 dereferenceable(1) %ref.tmp443) #10
  br label %sw.epilog

sw.bb447:                                         ; preds = %if.end2
  %290 = load ptr, ptr %v.addr, align 8
  %291 = load ptr, ptr %node.addr, align 8
  %call449 = call noundef ptr @_ZN4llvh4castIN6hermes6ESTree21JSXOpeningElementNodeENS2_4NodeEEENS_10cast_rettyIT_PT0_E8ret_typeES8_(ptr noundef %291)
  %292 = load ptr, ptr %parent.addr, align 8
  call void @_ZN6hermes6ESTree6detail11VisitCallerINS_25ES6ClassesTransformationsENS0_21JSXOpeningElementNodeEvE4callERS3_PS4_PNS0_4NodeE(ptr noundef nonnull align 8 dereferenceable(32) %290, ptr noundef %call449, ptr noundef %292)
  %call451 = call noundef nonnull align 8 dereferenceable(9) ptr @_ZNSt7variantIJN6hermes6ESTree11UnmodifiedTENS1_8RemovedTEPNS1_4NodeEEEaSIS2_EENSt9enable_ifIXaaaa14__exactly_onceINSt9_Nth_typeIX16__accepted_indexIOT_EEJS2_S3_S5_EE4typeEE18is_constructible_vISD_SA_E15is_assignable_vIRSD_SA_EERS6_E4typeESB_(ptr noundef nonnull align 8 dereferenceable(9) %retval, ptr noundef nonnull align 1 dereferenceable(1) %ref.tmp448) #10
  br label %sw.epilog

sw.bb452:                                         ; preds = %if.end2
  %293 = load ptr, ptr %v.addr, align 8
  %294 = load ptr, ptr %node.addr, align 8
  %call454 = call noundef ptr @_ZN4llvh4castIN6hermes6ESTree21JSXClosingElementNodeENS2_4NodeEEENS_10cast_rettyIT_PT0_E8ret_typeES8_(ptr noundef %294)
  %295 = load ptr, ptr %parent.addr, align 8
  call void @_ZN6hermes6ESTree6detail11VisitCallerINS_25ES6ClassesTransformationsENS0_21JSXClosingElementNodeEvE4callERS3_PS4_PNS0_4NodeE(ptr noundef nonnull align 8 dereferenceable(32) %293, ptr noundef %call454, ptr noundef %295)
  %call456 = call noundef nonnull align 8 dereferenceable(9) ptr @_ZNSt7variantIJN6hermes6ESTree11UnmodifiedTENS1_8RemovedTEPNS1_4NodeEEEaSIS2_EENSt9enable_ifIXaaaa14__exactly_onceINSt9_Nth_typeIX16__accepted_indexIOT_EEJS2_S3_S5_EE4typeEE18is_constructible_vISD_SA_E15is_assignable_vIRSD_SA_EERS6_E4typeESB_(ptr noundef nonnull align 8 dereferenceable(9) %retval, ptr noundef nonnull align 1 dereferenceable(1) %ref.tmp453) #10
  br label %sw.epilog

sw.bb457:                                         ; preds = %if.end2
  %296 = load ptr, ptr %v.addr, align 8
  %297 = load ptr, ptr %node.addr, align 8
  %call459 = call noundef ptr @_ZN4llvh4castIN6hermes6ESTree16JSXAttributeNodeENS2_4NodeEEENS_10cast_rettyIT_PT0_E8ret_typeES8_(ptr noundef %297)
  %298 = load ptr, ptr %parent.addr, align 8
  call void @_ZN6hermes6ESTree6detail11VisitCallerINS_25ES6ClassesTransformationsENS0_16JSXAttributeNodeEvE4callERS3_PS4_PNS0_4NodeE(ptr noundef nonnull align 8 dereferenceable(32) %296, ptr noundef %call459, ptr noundef %298)
  %call461 = call noundef nonnull align 8 dereferenceable(9) ptr @_ZNSt7variantIJN6hermes6ESTree11UnmodifiedTENS1_8RemovedTEPNS1_4NodeEEEaSIS2_EENSt9enable_ifIXaaaa14__exactly_onceINSt9_Nth_typeIX16__accepted_indexIOT_EEJS2_S3_S5_EE4typeEE18is_constructible_vISD_SA_E15is_assignable_vIRSD_SA_EERS6_E4typeESB_(ptr noundef nonnull align 8 dereferenceable(9) %retval, ptr noundef nonnull align 1 dereferenceable(1) %ref.tmp458) #10
  br label %sw.epilog

sw.bb462:                                         ; preds = %if.end2
  %299 = load ptr, ptr %v.addr, align 8
  %300 = load ptr, ptr %node.addr, align 8
  %call464 = call noundef ptr @_ZN4llvh4castIN6hermes6ESTree22JSXSpreadAttributeNodeENS2_4NodeEEENS_10cast_rettyIT_PT0_E8ret_typeES8_(ptr noundef %300)
  %301 = load ptr, ptr %parent.addr, align 8
  call void @_ZN6hermes6ESTree6detail11VisitCallerINS_25ES6ClassesTransformationsENS0_22JSXSpreadAttributeNodeEvE4callERS3_PS4_PNS0_4NodeE(ptr noundef nonnull align 8 dereferenceable(32) %299, ptr noundef %call464, ptr noundef %301)
  %call466 = call noundef nonnull align 8 dereferenceable(9) ptr @_ZNSt7variantIJN6hermes6ESTree11UnmodifiedTENS1_8RemovedTEPNS1_4NodeEEEaSIS2_EENSt9enable_ifIXaaaa14__exactly_onceINSt9_Nth_typeIX16__accepted_indexIOT_EEJS2_S3_S5_EE4typeEE18is_constructible_vISD_SA_E15is_assignable_vIRSD_SA_EERS6_E4typeESB_(ptr noundef nonnull align 8 dereferenceable(9) %retval, ptr noundef nonnull align 1 dereferenceable(1) %ref.tmp463) #10
  br label %sw.epilog

sw.bb467:                                         ; preds = %if.end2
  %302 = load ptr, ptr %v.addr, align 8
  %303 = load ptr, ptr %node.addr, align 8
  %call469 = call noundef ptr @_ZN4llvh4castIN6hermes6ESTree20JSXStringLiteralNodeENS2_4NodeEEENS_10cast_rettyIT_PT0_E8ret_typeES8_(ptr noundef %303)
  %304 = load ptr, ptr %parent.addr, align 8
  call void @_ZN6hermes6ESTree6detail11VisitCallerINS_25ES6ClassesTransformationsENS0_20JSXStringLiteralNodeEvE4callERS3_PS4_PNS0_4NodeE(ptr noundef nonnull align 8 dereferenceable(32) %302, ptr noundef %call469, ptr noundef %304)
  %call471 = call noundef nonnull align 8 dereferenceable(9) ptr @_ZNSt7variantIJN6hermes6ESTree11UnmodifiedTENS1_8RemovedTEPNS1_4NodeEEEaSIS2_EENSt9enable_ifIXaaaa14__exactly_onceINSt9_Nth_typeIX16__accepted_indexIOT_EEJS2_S3_S5_EE4typeEE18is_constructible_vISD_SA_E15is_assignable_vIRSD_SA_EERS6_E4typeESB_(ptr noundef nonnull align 8 dereferenceable(9) %retval, ptr noundef nonnull align 1 dereferenceable(1) %ref.tmp468) #10
  br label %sw.epilog

sw.bb472:                                         ; preds = %if.end2
  %305 = load ptr, ptr %v.addr, align 8
  %306 = load ptr, ptr %node.addr, align 8
  %call474 = call noundef ptr @_ZN4llvh4castIN6hermes6ESTree11JSXTextNodeENS2_4NodeEEENS_10cast_rettyIT_PT0_E8ret_typeES8_(ptr noundef %306)
  %307 = load ptr, ptr %parent.addr, align 8
  call void @_ZN6hermes6ESTree6detail11VisitCallerINS_25ES6ClassesTransformationsENS0_11JSXTextNodeEvE4callERS3_PS4_PNS0_4NodeE(ptr noundef nonnull align 8 dereferenceable(32) %305, ptr noundef %call474, ptr noundef %307)
  %call476 = call noundef nonnull align 8 dereferenceable(9) ptr @_ZNSt7variantIJN6hermes6ESTree11UnmodifiedTENS1_8RemovedTEPNS1_4NodeEEEaSIS2_EENSt9enable_ifIXaaaa14__exactly_onceINSt9_Nth_typeIX16__accepted_indexIOT_EEJS2_S3_S5_EE4typeEE18is_constructible_vISD_SA_E15is_assignable_vIRSD_SA_EERS6_E4typeESB_(ptr noundef nonnull align 8 dereferenceable(9) %retval, ptr noundef nonnull align 1 dereferenceable(1) %ref.tmp473) #10
  br label %sw.epilog

sw.bb477:                                         ; preds = %if.end2
  %308 = load ptr, ptr %v.addr, align 8
  %309 = load ptr, ptr %node.addr, align 8
  %call479 = call noundef ptr @_ZN4llvh4castIN6hermes6ESTree14JSXElementNodeENS2_4NodeEEENS_10cast_rettyIT_PT0_E8ret_typeES8_(ptr noundef %309)
  %310 = load ptr, ptr %parent.addr, align 8
  call void @_ZN6hermes6ESTree6detail11VisitCallerINS_25ES6ClassesTransformationsENS0_14JSXElementNodeEvE4callERS3_PS4_PNS0_4NodeE(ptr noundef nonnull align 8 dereferenceable(32) %308, ptr noundef %call479, ptr noundef %310)
  %call481 = call noundef nonnull align 8 dereferenceable(9) ptr @_ZNSt7variantIJN6hermes6ESTree11UnmodifiedTENS1_8RemovedTEPNS1_4NodeEEEaSIS2_EENSt9enable_ifIXaaaa14__exactly_onceINSt9_Nth_typeIX16__accepted_indexIOT_EEJS2_S3_S5_EE4typeEE18is_constructible_vISD_SA_E15is_assignable_vIRSD_SA_EERS6_E4typeESB_(ptr noundef nonnull align 8 dereferenceable(9) %retval, ptr noundef nonnull align 1 dereferenceable(1) %ref.tmp478) #10
  br label %sw.epilog

sw.bb482:                                         ; preds = %if.end2
  %311 = load ptr, ptr %v.addr, align 8
  %312 = load ptr, ptr %node.addr, align 8
  %call484 = call noundef ptr @_ZN4llvh4castIN6hermes6ESTree15JSXFragmentNodeENS2_4NodeEEENS_10cast_rettyIT_PT0_E8ret_typeES8_(ptr noundef %312)
  %313 = load ptr, ptr %parent.addr, align 8
  call void @_ZN6hermes6ESTree6detail11VisitCallerINS_25ES6ClassesTransformationsENS0_15JSXFragmentNodeEvE4callERS3_PS4_PNS0_4NodeE(ptr noundef nonnull align 8 dereferenceable(32) %311, ptr noundef %call484, ptr noundef %313)
  %call486 = call noundef nonnull align 8 dereferenceable(9) ptr @_ZNSt7variantIJN6hermes6ESTree11UnmodifiedTENS1_8RemovedTEPNS1_4NodeEEEaSIS2_EENSt9enable_ifIXaaaa14__exactly_onceINSt9_Nth_typeIX16__accepted_indexIOT_EEJS2_S3_S5_EE4typeEE18is_constructible_vISD_SA_E15is_assignable_vIRSD_SA_EERS6_E4typeESB_(ptr noundef nonnull align 8 dereferenceable(9) %retval, ptr noundef nonnull align 1 dereferenceable(1) %ref.tmp483) #10
  br label %sw.epilog

sw.bb487:                                         ; preds = %if.end2
  %314 = load ptr, ptr %v.addr, align 8
  %315 = load ptr, ptr %node.addr, align 8
  %call489 = call noundef ptr @_ZN4llvh4castIN6hermes6ESTree22JSXOpeningFragmentNodeENS2_4NodeEEENS_10cast_rettyIT_PT0_E8ret_typeES8_(ptr noundef %315)
  %316 = load ptr, ptr %parent.addr, align 8
  call void @_ZN6hermes6ESTree6detail11VisitCallerINS_25ES6ClassesTransformationsENS0_22JSXOpeningFragmentNodeEvE4callERS3_PS4_PNS0_4NodeE(ptr noundef nonnull align 8 dereferenceable(32) %314, ptr noundef %call489, ptr noundef %316)
  %call491 = call noundef nonnull align 8 dereferenceable(9) ptr @_ZNSt7variantIJN6hermes6ESTree11UnmodifiedTENS1_8RemovedTEPNS1_4NodeEEEaSIS2_EENSt9enable_ifIXaaaa14__exactly_onceINSt9_Nth_typeIX16__accepted_indexIOT_EEJS2_S3_S5_EE4typeEE18is_constructible_vISD_SA_E15is_assignable_vIRSD_SA_EERS6_E4typeESB_(ptr noundef nonnull align 8 dereferenceable(9) %retval, ptr noundef nonnull align 1 dereferenceable(1) %ref.tmp488) #10
  br label %sw.epilog

sw.bb492:                                         ; preds = %if.end2
  %317 = load ptr, ptr %v.addr, align 8
  %318 = load ptr, ptr %node.addr, align 8
  %call494 = call noundef ptr @_ZN4llvh4castIN6hermes6ESTree22JSXClosingFragmentNodeENS2_4NodeEEENS_10cast_rettyIT_PT0_E8ret_typeES8_(ptr noundef %318)
  %319 = load ptr, ptr %parent.addr, align 8
  call void @_ZN6hermes6ESTree6detail11VisitCallerINS_25ES6ClassesTransformationsENS0_22JSXClosingFragmentNodeEvE4callERS3_PS4_PNS0_4NodeE(ptr noundef nonnull align 8 dereferenceable(32) %317, ptr noundef %call494, ptr noundef %319)
  %call496 = call noundef nonnull align 8 dereferenceable(9) ptr @_ZNSt7variantIJN6hermes6ESTree11UnmodifiedTENS1_8RemovedTEPNS1_4NodeEEEaSIS2_EENSt9enable_ifIXaaaa14__exactly_onceINSt9_Nth_typeIX16__accepted_indexIOT_EEJS2_S3_S5_EE4typeEE18is_constructible_vISD_SA_E15is_assignable_vIRSD_SA_EERS6_E4typeESB_(ptr noundef nonnull align 8 dereferenceable(9) %retval, ptr noundef nonnull align 1 dereferenceable(1) %ref.tmp493) #10
  br label %sw.epilog

sw.bb497:                                         ; preds = %if.end2
  %320 = load ptr, ptr %v.addr, align 8
  %321 = load ptr, ptr %node.addr, align 8
  %call499 = call noundef ptr @_ZN4llvh4castIN6hermes6ESTree24ExistsTypeAnnotationNodeENS2_4NodeEEENS_10cast_rettyIT_PT0_E8ret_typeES8_(ptr noundef %321)
  %322 = load ptr, ptr %parent.addr, align 8
  call void @_ZN6hermes6ESTree6detail11VisitCallerINS_25ES6ClassesTransformationsENS0_24ExistsTypeAnnotationNodeEvE4callERS3_PS4_PNS0_4NodeE(ptr noundef nonnull align 8 dereferenceable(32) %320, ptr noundef %call499, ptr noundef %322)
  %call501 = call noundef nonnull align 8 dereferenceable(9) ptr @_ZNSt7variantIJN6hermes6ESTree11UnmodifiedTENS1_8RemovedTEPNS1_4NodeEEEaSIS2_EENSt9enable_ifIXaaaa14__exactly_onceINSt9_Nth_typeIX16__accepted_indexIOT_EEJS2_S3_S5_EE4typeEE18is_constructible_vISD_SA_E15is_assignable_vIRSD_SA_EERS6_E4typeESB_(ptr noundef nonnull align 8 dereferenceable(9) %retval, ptr noundef nonnull align 1 dereferenceable(1) %ref.tmp498) #10
  br label %sw.epilog

sw.bb502:                                         ; preds = %if.end2
  %323 = load ptr, ptr %v.addr, align 8
  %324 = load ptr, ptr %node.addr, align 8
  %call504 = call noundef ptr @_ZN4llvh4castIN6hermes6ESTree23EmptyTypeAnnotationNodeENS2_4NodeEEENS_10cast_rettyIT_PT0_E8ret_typeES8_(ptr noundef %324)
  %325 = load ptr, ptr %parent.addr, align 8
  call void @_ZN6hermes6ESTree6detail11VisitCallerINS_25ES6ClassesTransformationsENS0_23EmptyTypeAnnotationNodeEvE4callERS3_PS4_PNS0_4NodeE(ptr noundef nonnull align 8 dereferenceable(32) %323, ptr noundef %call504, ptr noundef %325)
  %call506 = call noundef nonnull align 8 dereferenceable(9) ptr @_ZNSt7variantIJN6hermes6ESTree11UnmodifiedTENS1_8RemovedTEPNS1_4NodeEEEaSIS2_EENSt9enable_ifIXaaaa14__exactly_onceINSt9_Nth_typeIX16__accepted_indexIOT_EEJS2_S3_S5_EE4typeEE18is_constructible_vISD_SA_E15is_assignable_vIRSD_SA_EERS6_E4typeESB_(ptr noundef nonnull align 8 dereferenceable(9) %retval, ptr noundef nonnull align 1 dereferenceable(1) %ref.tmp503) #10
  br label %sw.epilog

sw.bb507:                                         ; preds = %if.end2
  %326 = load ptr, ptr %v.addr, align 8
  %327 = load ptr, ptr %node.addr, align 8
  %call509 = call noundef ptr @_ZN4llvh4castIN6hermes6ESTree24StringTypeAnnotationNodeENS2_4NodeEEENS_10cast_rettyIT_PT0_E8ret_typeES8_(ptr noundef %327)
  %328 = load ptr, ptr %parent.addr, align 8
  call void @_ZN6hermes6ESTree6detail11VisitCallerINS_25ES6ClassesTransformationsENS0_24StringTypeAnnotationNodeEvE4callERS3_PS4_PNS0_4NodeE(ptr noundef nonnull align 8 dereferenceable(32) %326, ptr noundef %call509, ptr noundef %328)
  %call511 = call noundef nonnull align 8 dereferenceable(9) ptr @_ZNSt7variantIJN6hermes6ESTree11UnmodifiedTENS1_8RemovedTEPNS1_4NodeEEEaSIS2_EENSt9enable_ifIXaaaa14__exactly_onceINSt9_Nth_typeIX16__accepted_indexIOT_EEJS2_S3_S5_EE4typeEE18is_constructible_vISD_SA_E15is_assignable_vIRSD_SA_EERS6_E4typeESB_(ptr noundef nonnull align 8 dereferenceable(9) %retval, ptr noundef nonnull align 1 dereferenceable(1) %ref.tmp508) #10
  br label %sw.epilog

sw.bb512:                                         ; preds = %if.end2
  %329 = load ptr, ptr %v.addr, align 8
  %330 = load ptr, ptr %node.addr, align 8
  %call514 = call noundef ptr @_ZN4llvh4castIN6hermes6ESTree24NumberTypeAnnotationNodeENS2_4NodeEEENS_10cast_rettyIT_PT0_E8ret_typeES8_(ptr noundef %330)
  %331 = load ptr, ptr %parent.addr, align 8
  call void @_ZN6hermes6ESTree6detail11VisitCallerINS_25ES6ClassesTransformationsENS0_24NumberTypeAnnotationNodeEvE4callERS3_PS4_PNS0_4NodeE(ptr noundef nonnull align 8 dereferenceable(32) %329, ptr noundef %call514, ptr noundef %331)
  %call516 = call noundef nonnull align 8 dereferenceable(9) ptr @_ZNSt7variantIJN6hermes6ESTree11UnmodifiedTENS1_8RemovedTEPNS1_4NodeEEEaSIS2_EENSt9enable_ifIXaaaa14__exactly_onceINSt9_Nth_typeIX16__accepted_indexIOT_EEJS2_S3_S5_EE4typeEE18is_constructible_vISD_SA_E15is_assignable_vIRSD_SA_EERS6_E4typeESB_(ptr noundef nonnull align 8 dereferenceable(9) %retval, ptr noundef nonnull align 1 dereferenceable(1) %ref.tmp513) #10
  br label %sw.epilog

sw.bb517:                                         ; preds = %if.end2
  %332 = load ptr, ptr %v.addr, align 8
  %333 = load ptr, ptr %node.addr, align 8
  %call519 = call noundef ptr @_ZN4llvh4castIN6hermes6ESTree31StringLiteralTypeAnnotationNodeENS2_4NodeEEENS_10cast_rettyIT_PT0_E8ret_typeES8_(ptr noundef %333)
  %334 = load ptr, ptr %parent.addr, align 8
  call void @_ZN6hermes6ESTree6detail11VisitCallerINS_25ES6ClassesTransformationsENS0_31StringLiteralTypeAnnotationNodeEvE4callERS3_PS4_PNS0_4NodeE(ptr noundef nonnull align 8 dereferenceable(32) %332, ptr noundef %call519, ptr noundef %334)
  %call521 = call noundef nonnull align 8 dereferenceable(9) ptr @_ZNSt7variantIJN6hermes6ESTree11UnmodifiedTENS1_8RemovedTEPNS1_4NodeEEEaSIS2_EENSt9enable_ifIXaaaa14__exactly_onceINSt9_Nth_typeIX16__accepted_indexIOT_EEJS2_S3_S5_EE4typeEE18is_constructible_vISD_SA_E15is_assignable_vIRSD_SA_EERS6_E4typeESB_(ptr noundef nonnull align 8 dereferenceable(9) %retval, ptr noundef nonnull align 1 dereferenceable(1) %ref.tmp518) #10
  br label %sw.epilog

sw.bb522:                                         ; preds = %if.end2
  %335 = load ptr, ptr %v.addr, align 8
  %336 = load ptr, ptr %node.addr, align 8
  %call524 = call noundef ptr @_ZN4llvh4castIN6hermes6ESTree31NumberLiteralTypeAnnotationNodeENS2_4NodeEEENS_10cast_rettyIT_PT0_E8ret_typeES8_(ptr noundef %336)
  %337 = load ptr, ptr %parent.addr, align 8
  call void @_ZN6hermes6ESTree6detail11VisitCallerINS_25ES6ClassesTransformationsENS0_31NumberLiteralTypeAnnotationNodeEvE4callERS3_PS4_PNS0_4NodeE(ptr noundef nonnull align 8 dereferenceable(32) %335, ptr noundef %call524, ptr noundef %337)
  %call526 = call noundef nonnull align 8 dereferenceable(9) ptr @_ZNSt7variantIJN6hermes6ESTree11UnmodifiedTENS1_8RemovedTEPNS1_4NodeEEEaSIS2_EENSt9enable_ifIXaaaa14__exactly_onceINSt9_Nth_typeIX16__accepted_indexIOT_EEJS2_S3_S5_EE4typeEE18is_constructible_vISD_SA_E15is_assignable_vIRSD_SA_EERS6_E4typeESB_(ptr noundef nonnull align 8 dereferenceable(9) %retval, ptr noundef nonnull align 1 dereferenceable(1) %ref.tmp523) #10
  br label %sw.epilog

sw.bb527:                                         ; preds = %if.end2
  %338 = load ptr, ptr %v.addr, align 8
  %339 = load ptr, ptr %node.addr, align 8
  %call529 = call noundef ptr @_ZN4llvh4castIN6hermes6ESTree31BigIntLiteralTypeAnnotationNodeENS2_4NodeEEENS_10cast_rettyIT_PT0_E8ret_typeES8_(ptr noundef %339)
  %340 = load ptr, ptr %parent.addr, align 8
  call void @_ZN6hermes6ESTree6detail11VisitCallerINS_25ES6ClassesTransformationsENS0_31BigIntLiteralTypeAnnotationNodeEvE4callERS3_PS4_PNS0_4NodeE(ptr noundef nonnull align 8 dereferenceable(32) %338, ptr noundef %call529, ptr noundef %340)
  %call531 = call noundef nonnull align 8 dereferenceable(9) ptr @_ZNSt7variantIJN6hermes6ESTree11UnmodifiedTENS1_8RemovedTEPNS1_4NodeEEEaSIS2_EENSt9enable_ifIXaaaa14__exactly_onceINSt9_Nth_typeIX16__accepted_indexIOT_EEJS2_S3_S5_EE4typeEE18is_constructible_vISD_SA_E15is_assignable_vIRSD_SA_EERS6_E4typeESB_(ptr noundef nonnull align 8 dereferenceable(9) %retval, ptr noundef nonnull align 1 dereferenceable(1) %ref.tmp528) #10
  br label %sw.epilog

sw.bb532:                                         ; preds = %if.end2
  %341 = load ptr, ptr %v.addr, align 8
  %342 = load ptr, ptr %node.addr, align 8
  %call534 = call noundef ptr @_ZN4llvh4castIN6hermes6ESTree25BooleanTypeAnnotationNodeENS2_4NodeEEENS_10cast_rettyIT_PT0_E8ret_typeES8_(ptr noundef %342)
  %343 = load ptr, ptr %parent.addr, align 8
  call void @_ZN6hermes6ESTree6detail11VisitCallerINS_25ES6ClassesTransformationsENS0_25BooleanTypeAnnotationNodeEvE4callERS3_PS4_PNS0_4NodeE(ptr noundef nonnull align 8 dereferenceable(32) %341, ptr noundef %call534, ptr noundef %343)
  %call536 = call noundef nonnull align 8 dereferenceable(9) ptr @_ZNSt7variantIJN6hermes6ESTree11UnmodifiedTENS1_8RemovedTEPNS1_4NodeEEEaSIS2_EENSt9enable_ifIXaaaa14__exactly_onceINSt9_Nth_typeIX16__accepted_indexIOT_EEJS2_S3_S5_EE4typeEE18is_constructible_vISD_SA_E15is_assignable_vIRSD_SA_EERS6_E4typeESB_(ptr noundef nonnull align 8 dereferenceable(9) %retval, ptr noundef nonnull align 1 dereferenceable(1) %ref.tmp533) #10
  br label %sw.epilog

sw.bb537:                                         ; preds = %if.end2
  %344 = load ptr, ptr %v.addr, align 8
  %345 = load ptr, ptr %node.addr, align 8
  %call539 = call noundef ptr @_ZN4llvh4castIN6hermes6ESTree32BooleanLiteralTypeAnnotationNodeENS2_4NodeEEENS_10cast_rettyIT_PT0_E8ret_typeES8_(ptr noundef %345)
  %346 = load ptr, ptr %parent.addr, align 8
  call void @_ZN6hermes6ESTree6detail11VisitCallerINS_25ES6ClassesTransformationsENS0_32BooleanLiteralTypeAnnotationNodeEvE4callERS3_PS4_PNS0_4NodeE(ptr noundef nonnull align 8 dereferenceable(32) %344, ptr noundef %call539, ptr noundef %346)
  %call541 = call noundef nonnull align 8 dereferenceable(9) ptr @_ZNSt7variantIJN6hermes6ESTree11UnmodifiedTENS1_8RemovedTEPNS1_4NodeEEEaSIS2_EENSt9enable_ifIXaaaa14__exactly_onceINSt9_Nth_typeIX16__accepted_indexIOT_EEJS2_S3_S5_EE4typeEE18is_constructible_vISD_SA_E15is_assignable_vIRSD_SA_EERS6_E4typeESB_(ptr noundef nonnull align 8 dereferenceable(9) %retval, ptr noundef nonnull align 1 dereferenceable(1) %ref.tmp538) #10
  br label %sw.epilog

sw.bb542:                                         ; preds = %if.end2
  %347 = load ptr, ptr %v.addr, align 8
  %348 = load ptr, ptr %node.addr, align 8
  %call544 = call noundef ptr @_ZN4llvh4castIN6hermes6ESTree29NullLiteralTypeAnnotationNodeENS2_4NodeEEENS_10cast_rettyIT_PT0_E8ret_typeES8_(ptr noundef %348)
  %349 = load ptr, ptr %parent.addr, align 8
  call void @_ZN6hermes6ESTree6detail11VisitCallerINS_25ES6ClassesTransformationsENS0_29NullLiteralTypeAnnotationNodeEvE4callERS3_PS4_PNS0_4NodeE(ptr noundef nonnull align 8 dereferenceable(32) %347, ptr noundef %call544, ptr noundef %349)
  %call546 = call noundef nonnull align 8 dereferenceable(9) ptr @_ZNSt7variantIJN6hermes6ESTree11UnmodifiedTENS1_8RemovedTEPNS1_4NodeEEEaSIS2_EENSt9enable_ifIXaaaa14__exactly_onceINSt9_Nth_typeIX16__accepted_indexIOT_EEJS2_S3_S5_EE4typeEE18is_constructible_vISD_SA_E15is_assignable_vIRSD_SA_EERS6_E4typeESB_(ptr noundef nonnull align 8 dereferenceable(9) %retval, ptr noundef nonnull align 1 dereferenceable(1) %ref.tmp543) #10
  br label %sw.epilog

sw.bb547:                                         ; preds = %if.end2
  %350 = load ptr, ptr %v.addr, align 8
  %351 = load ptr, ptr %node.addr, align 8
  %call549 = call noundef ptr @_ZN4llvh4castIN6hermes6ESTree24SymbolTypeAnnotationNodeENS2_4NodeEEENS_10cast_rettyIT_PT0_E8ret_typeES8_(ptr noundef %351)
  %352 = load ptr, ptr %parent.addr, align 8
  call void @_ZN6hermes6ESTree6detail11VisitCallerINS_25ES6ClassesTransformationsENS0_24SymbolTypeAnnotationNodeEvE4callERS3_PS4_PNS0_4NodeE(ptr noundef nonnull align 8 dereferenceable(32) %350, ptr noundef %call549, ptr noundef %352)
  %call551 = call noundef nonnull align 8 dereferenceable(9) ptr @_ZNSt7variantIJN6hermes6ESTree11UnmodifiedTENS1_8RemovedTEPNS1_4NodeEEEaSIS2_EENSt9enable_ifIXaaaa14__exactly_onceINSt9_Nth_typeIX16__accepted_indexIOT_EEJS2_S3_S5_EE4typeEE18is_constructible_vISD_SA_E15is_assignable_vIRSD_SA_EERS6_E4typeESB_(ptr noundef nonnull align 8 dereferenceable(9) %retval, ptr noundef nonnull align 1 dereferenceable(1) %ref.tmp548) #10
  br label %sw.epilog

sw.bb552:                                         ; preds = %if.end2
  %353 = load ptr, ptr %v.addr, align 8
  %354 = load ptr, ptr %node.addr, align 8
  %call554 = call noundef ptr @_ZN4llvh4castIN6hermes6ESTree21AnyTypeAnnotationNodeENS2_4NodeEEENS_10cast_rettyIT_PT0_E8ret_typeES8_(ptr noundef %354)
  %355 = load ptr, ptr %parent.addr, align 8
  call void @_ZN6hermes6ESTree6detail11VisitCallerINS_25ES6ClassesTransformationsENS0_21AnyTypeAnnotationNodeEvE4callERS3_PS4_PNS0_4NodeE(ptr noundef nonnull align 8 dereferenceable(32) %353, ptr noundef %call554, ptr noundef %355)
  %call556 = call noundef nonnull align 8 dereferenceable(9) ptr @_ZNSt7variantIJN6hermes6ESTree11UnmodifiedTENS1_8RemovedTEPNS1_4NodeEEEaSIS2_EENSt9enable_ifIXaaaa14__exactly_onceINSt9_Nth_typeIX16__accepted_indexIOT_EEJS2_S3_S5_EE4typeEE18is_constructible_vISD_SA_E15is_assignable_vIRSD_SA_EERS6_E4typeESB_(ptr noundef nonnull align 8 dereferenceable(9) %retval, ptr noundef nonnull align 1 dereferenceable(1) %ref.tmp553) #10
  br label %sw.epilog

sw.bb557:                                         ; preds = %if.end2
  %356 = load ptr, ptr %v.addr, align 8
  %357 = load ptr, ptr %node.addr, align 8
  %call559 = call noundef ptr @_ZN4llvh4castIN6hermes6ESTree23MixedTypeAnnotationNodeENS2_4NodeEEENS_10cast_rettyIT_PT0_E8ret_typeES8_(ptr noundef %357)
  %358 = load ptr, ptr %parent.addr, align 8
  call void @_ZN6hermes6ESTree6detail11VisitCallerINS_25ES6ClassesTransformationsENS0_23MixedTypeAnnotationNodeEvE4callERS3_PS4_PNS0_4NodeE(ptr noundef nonnull align 8 dereferenceable(32) %356, ptr noundef %call559, ptr noundef %358)
  %call561 = call noundef nonnull align 8 dereferenceable(9) ptr @_ZNSt7variantIJN6hermes6ESTree11UnmodifiedTENS1_8RemovedTEPNS1_4NodeEEEaSIS2_EENSt9enable_ifIXaaaa14__exactly_onceINSt9_Nth_typeIX16__accepted_indexIOT_EEJS2_S3_S5_EE4typeEE18is_constructible_vISD_SA_E15is_assignable_vIRSD_SA_EERS6_E4typeESB_(ptr noundef nonnull align 8 dereferenceable(9) %retval, ptr noundef nonnull align 1 dereferenceable(1) %ref.tmp558) #10
  br label %sw.epilog

sw.bb562:                                         ; preds = %if.end2
  %359 = load ptr, ptr %v.addr, align 8
  %360 = load ptr, ptr %node.addr, align 8
  %call564 = call noundef ptr @_ZN4llvh4castIN6hermes6ESTree24BigIntTypeAnnotationNodeENS2_4NodeEEENS_10cast_rettyIT_PT0_E8ret_typeES8_(ptr noundef %360)
  %361 = load ptr, ptr %parent.addr, align 8
  call void @_ZN6hermes6ESTree6detail11VisitCallerINS_25ES6ClassesTransformationsENS0_24BigIntTypeAnnotationNodeEvE4callERS3_PS4_PNS0_4NodeE(ptr noundef nonnull align 8 dereferenceable(32) %359, ptr noundef %call564, ptr noundef %361)
  %call566 = call noundef nonnull align 8 dereferenceable(9) ptr @_ZNSt7variantIJN6hermes6ESTree11UnmodifiedTENS1_8RemovedTEPNS1_4NodeEEEaSIS2_EENSt9enable_ifIXaaaa14__exactly_onceINSt9_Nth_typeIX16__accepted_indexIOT_EEJS2_S3_S5_EE4typeEE18is_constructible_vISD_SA_E15is_assignable_vIRSD_SA_EERS6_E4typeESB_(ptr noundef nonnull align 8 dereferenceable(9) %retval, ptr noundef nonnull align 1 dereferenceable(1) %ref.tmp563) #10
  br label %sw.epilog

sw.bb567:                                         ; preds = %if.end2
  %362 = load ptr, ptr %v.addr, align 8
  %363 = load ptr, ptr %node.addr, align 8
  %call569 = call noundef ptr @_ZN4llvh4castIN6hermes6ESTree22VoidTypeAnnotationNodeENS2_4NodeEEENS_10cast_rettyIT_PT0_E8ret_typeES8_(ptr noundef %363)
  %364 = load ptr, ptr %parent.addr, align 8
  call void @_ZN6hermes6ESTree6detail11VisitCallerINS_25ES6ClassesTransformationsENS0_22VoidTypeAnnotationNodeEvE4callERS3_PS4_PNS0_4NodeE(ptr noundef nonnull align 8 dereferenceable(32) %362, ptr noundef %call569, ptr noundef %364)
  %call571 = call noundef nonnull align 8 dereferenceable(9) ptr @_ZNSt7variantIJN6hermes6ESTree11UnmodifiedTENS1_8RemovedTEPNS1_4NodeEEEaSIS2_EENSt9enable_ifIXaaaa14__exactly_onceINSt9_Nth_typeIX16__accepted_indexIOT_EEJS2_S3_S5_EE4typeEE18is_constructible_vISD_SA_E15is_assignable_vIRSD_SA_EERS6_E4typeESB_(ptr noundef nonnull align 8 dereferenceable(9) %retval, ptr noundef nonnull align 1 dereferenceable(1) %ref.tmp568) #10
  br label %sw.epilog

sw.bb572:                                         ; preds = %if.end2
  %365 = load ptr, ptr %v.addr, align 8
  %366 = load ptr, ptr %node.addr, align 8
  %call574 = call noundef ptr @_ZN4llvh4castIN6hermes6ESTree26FunctionTypeAnnotationNodeENS2_4NodeEEENS_10cast_rettyIT_PT0_E8ret_typeES8_(ptr noundef %366)
  %367 = load ptr, ptr %parent.addr, align 8
  call void @_ZN6hermes6ESTree6detail11VisitCallerINS_25ES6ClassesTransformationsENS0_26FunctionTypeAnnotationNodeEvE4callERS3_PS4_PNS0_4NodeE(ptr noundef nonnull align 8 dereferenceable(32) %365, ptr noundef %call574, ptr noundef %367)
  %call576 = call noundef nonnull align 8 dereferenceable(9) ptr @_ZNSt7variantIJN6hermes6ESTree11UnmodifiedTENS1_8RemovedTEPNS1_4NodeEEEaSIS2_EENSt9enable_ifIXaaaa14__exactly_onceINSt9_Nth_typeIX16__accepted_indexIOT_EEJS2_S3_S5_EE4typeEE18is_constructible_vISD_SA_E15is_assignable_vIRSD_SA_EERS6_E4typeESB_(ptr noundef nonnull align 8 dereferenceable(9) %retval, ptr noundef nonnull align 1 dereferenceable(1) %ref.tmp573) #10
  br label %sw.epilog

sw.bb577:                                         ; preds = %if.end2
  %368 = load ptr, ptr %v.addr, align 8
  %369 = load ptr, ptr %node.addr, align 8
  %call579 = call noundef ptr @_ZN4llvh4castIN6hermes6ESTree21FunctionTypeParamNodeENS2_4NodeEEENS_10cast_rettyIT_PT0_E8ret_typeES8_(ptr noundef %369)
  %370 = load ptr, ptr %parent.addr, align 8
  call void @_ZN6hermes6ESTree6detail11VisitCallerINS_25ES6ClassesTransformationsENS0_21FunctionTypeParamNodeEvE4callERS3_PS4_PNS0_4NodeE(ptr noundef nonnull align 8 dereferenceable(32) %368, ptr noundef %call579, ptr noundef %370)
  %call581 = call noundef nonnull align 8 dereferenceable(9) ptr @_ZNSt7variantIJN6hermes6ESTree11UnmodifiedTENS1_8RemovedTEPNS1_4NodeEEEaSIS2_EENSt9enable_ifIXaaaa14__exactly_onceINSt9_Nth_typeIX16__accepted_indexIOT_EEJS2_S3_S5_EE4typeEE18is_constructible_vISD_SA_E15is_assignable_vIRSD_SA_EERS6_E4typeESB_(ptr noundef nonnull align 8 dereferenceable(9) %retval, ptr noundef nonnull align 1 dereferenceable(1) %ref.tmp578) #10
  br label %sw.epilog

sw.bb582:                                         ; preds = %if.end2
  %371 = load ptr, ptr %v.addr, align 8
  %372 = load ptr, ptr %node.addr, align 8
  %call584 = call noundef ptr @_ZN4llvh4castIN6hermes6ESTree27ComponentTypeAnnotationNodeENS2_4NodeEEENS_10cast_rettyIT_PT0_E8ret_typeES8_(ptr noundef %372)
