target datalayout = "e-m:e-p270:32:32-p271:32:32-p272:64:64-i64:64-i128:128-f80:128-n8:16:32:64-S128"
target triple = "x86_64-unknown-linux-gnu"

%"struct.std::piecewise_construct_t" = type { i8 }
%"class.llvh::StringRef" = type { ptr, i64 }
%"class.llvh::SMLoc" = type { ptr }
%"class.llvh::Twine" = type <{ %"union.llvh::Twine::Child", %"union.llvh::Twine::Child", i8, i8, [6 x i8] }>
%"union.llvh::Twine::Child" = type { ptr }
%"class.llvh::ArrayRef" = type { ptr, i64 }
%"class.llvh::ArrayRef.24" = type { ptr, i64 }
%"struct.std::_Rb_tree_iterator" = type { ptr }
%"struct.std::pair" = type <{ %"class.llvh::StringRef", i32, [4 x i8] }>
%"struct.std::pair.25" = type { %"class.llvh::StringRef", i64 }
%"class.std::__cxx11::basic_string" = type { %"struct.std::__cxx11::basic_string<char>::_Alloc_hider", i64, %union.anon }
%"struct.std::__cxx11::basic_string<char>::_Alloc_hider" = type { ptr }
%union.anon = type { i64, [8 x i8] }
%"struct.llvh::FileCheckRequest" = type <{ %"class.std::vector", i8, [7 x i8], %"class.std::vector", %"class.std::vector", i8, i8, i8, i8, i8, i8, [2 x i8] }>
%"class.std::vector" = type { %"struct.std::_Vector_base" }
%"struct.std::_Vector_base" = type { %"struct.std::_Vector_base<std::__cxx11::basic_string<char>, std::allocator<std::__cxx11::basic_string<char>>>::_Vector_impl" }
%"struct.std::_Vector_base<std::__cxx11::basic_string<char>, std::allocator<std::__cxx11::basic_string<char>>>::_Vector_impl" = type { %"struct.std::_Vector_base<std::__cxx11::basic_string<char>, std::allocator<std::__cxx11::basic_string<char>>>::_Vector_impl_data" }
%"struct.std::_Vector_base<std::__cxx11::basic_string<char>, std::allocator<std::__cxx11::basic_string<char>>>::_Vector_impl_data" = type { ptr, ptr, ptr }
%"class.llvh::FileCheckPattern" = type { %"class.llvh::SMLoc", %"class.llvh::StringRef", %"class.std::__cxx11::basic_string", %"class.std::vector.3", %"class.std::map", i32, i32 }
%"class.std::vector.3" = type { %"struct.std::_Vector_base.4" }
%"struct.std::_Vector_base.4" = type { %"struct.std::_Vector_base<std::pair<llvh::StringRef, unsigned int>, std::allocator<std::pair<llvh::StringRef, unsigned int>>>::_Vector_impl" }
%"struct.std::_Vector_base<std::pair<llvh::StringRef, unsigned int>, std::allocator<std::pair<llvh::StringRef, unsigned int>>>::_Vector_impl" = type { %"struct.std::_Vector_base<std::pair<llvh::StringRef, unsigned int>, std::allocator<std::pair<llvh::StringRef, unsigned int>>>::_Vector_impl_data" }
%"struct.std::_Vector_base<std::pair<llvh::StringRef, unsigned int>, std::allocator<std::pair<llvh::StringRef, unsigned int>>>::_Vector_impl_data" = type { ptr, ptr, ptr }
%"class.std::map" = type { %"class.std::_Rb_tree" }
%"class.std::_Rb_tree" = type { %"struct.std::_Rb_tree<llvh::StringRef, std::pair<const llvh::StringRef, unsigned int>, std::_Select1st<std::pair<const llvh::StringRef, unsigned int>>, std::less<llvh::StringRef>>::_Rb_tree_impl" }
%"struct.std::_Rb_tree<llvh::StringRef, std::pair<const llvh::StringRef, unsigned int>, std::_Select1st<std::pair<const llvh::StringRef, unsigned int>>, std::less<llvh::StringRef>>::_Rb_tree_impl" = type { %"struct.std::_Rb_tree_key_compare", %"struct.std::_Rb_tree_header" }
%"struct.std::_Rb_tree_key_compare" = type { %"struct.std::less" }
%"struct.std::less" = type { i8 }
%"struct.std::_Rb_tree_header" = type { %"struct.std::_Rb_tree_node_base", i64 }
%"struct.std::_Rb_tree_node_base" = type { i32, ptr, ptr, ptr }
%"class.llvh::Regex" = type <{ ptr, i32, [4 x i8] }>
%"struct.std::_Rb_tree_const_iterator" = type { ptr }
%"class.std::tuple.104" = type { %"struct.std::_Tuple_impl.105" }
%"struct.std::_Tuple_impl.105" = type { %"struct.std::_Head_base.106" }
%"struct.std::_Head_base.106" = type { ptr }
%"class.std::tuple.107" = type { i8 }
%"struct.std::pair.29" = type <{ %"class.llvh::StringRef", i32, [4 x i8] }>
%"class.std::allocator.0" = type { i8 }
%"class.__gnu_cxx::__normal_iterator" = type { ptr }
%"class.llvh::StringMapIterator" = type { %"class.llvh::StringMapIterBase" }
%"class.llvh::StringMapIterBase" = type { ptr }
%"class.__gnu_cxx::__normal_iterator.28" = type { ptr }
%"class.__gnu_cxx::__normal_iterator.27" = type { ptr }
%"class.llvh::SmallVector" = type { %"class.llvh::SmallVectorImpl", %"struct.llvh::SmallVectorStorage" }
%"class.llvh::SmallVectorImpl" = type { %"class.llvh::SmallVectorTemplateBase" }
%"class.llvh::SmallVectorTemplateBase" = type { %"class.llvh::SmallVectorTemplateCommon" }
%"class.llvh::SmallVectorTemplateCommon" = type { %"class.llvh::SmallVectorBase" }
%"class.llvh::SmallVectorBase" = type { ptr, i32, i32 }
%"struct.llvh::SmallVectorStorage" = type { [4 x %"struct.llvh::AlignedCharArrayUnion"] }
%"struct.llvh::AlignedCharArrayUnion" = type { %"struct.llvh::AlignedCharArray" }
%"struct.llvh::AlignedCharArray" = type { [16 x i8] }
%"class.llvh::StringMapEntry" = type { %"class.llvh::StringMapEntryBase", %"class.llvh::StringRef" }
%"class.llvh::StringMapEntryBase" = type { i64 }
%"class.llvh::StringMapImpl" = type { ptr, i32, i32, i32, i32 }
%"struct.std::pair.78" = type <{ %"class.llvh::StringMapIterator", i8, [7 x i8] }>
%"struct.std::pair.32" = type { %"class.llvh::StringRef", %"class.llvh::StringRef" }
%"class.llvh::SMRange" = type { %"class.llvh::SMLoc", %"class.llvh::SMLoc" }
%"class.llvh::SmallString" = type { %"class.llvh::SmallVector.34" }
%"class.llvh::SmallVector.34" = type { %"class.llvh::SmallVectorImpl.35", %"struct.llvh::SmallVectorStorage.38" }
%"class.llvh::SmallVectorImpl.35" = type { %"class.llvh::SmallVectorTemplateBase.36" }
%"class.llvh::SmallVectorTemplateBase.36" = type { %"class.llvh::SmallVectorTemplateCommon.37" }
%"class.llvh::SmallVectorTemplateCommon.37" = type { %"class.llvh::SmallVectorBase" }
%"struct.llvh::SmallVectorStorage.38" = type { [256 x %"struct.llvh::AlignedCharArrayUnion.39"] }
%"struct.llvh::AlignedCharArrayUnion.39" = type { %"struct.llvh::AlignedCharArray.40" }
%"struct.llvh::AlignedCharArray.40" = type { [1 x i8] }
%"class.llvh::raw_svector_ostream" = type { %"class.llvh::raw_pwrite_stream.base", ptr }
%"class.llvh::raw_pwrite_stream.base" = type { %"class.llvh::raw_ostream.base" }
%"class.llvh::raw_ostream.base" = type <{ ptr, ptr, ptr, ptr, i32 }>
%"class.llvh::StringMapConstIterator" = type { %"class.llvh::StringMapIterBase.41" }
%"class.llvh::StringMapIterBase.41" = type { ptr }
%"class.std::initializer_list" = type { ptr, i64 }
%"class.llvh::FileCheck" = type { %"struct.llvh::FileCheckRequest" }
%"class.llvh::MemoryBuffer" = type { ptr, ptr, ptr }
%"class.std::vector.43" = type { %"struct.std::_Vector_base.44" }
%"struct.std::_Vector_base.44" = type { %"struct.std::_Vector_base<llvh::FileCheckPattern, std::allocator<llvh::FileCheckPattern>>::_Vector_impl" }
%"struct.std::_Vector_base<llvh::FileCheckPattern, std::allocator<llvh::FileCheckPattern>>::_Vector_impl" = type { %"struct.std::_Vector_base<llvh::FileCheckPattern, std::allocator<llvh::FileCheckPattern>>::_Vector_impl_data" }
%"struct.std::_Vector_base<llvh::FileCheckPattern, std::allocator<llvh::FileCheckPattern>>::_Vector_impl_data" = type { ptr, ptr, ptr }
%"class.__gnu_cxx::__normal_iterator.48" = type { ptr }
%"class.std::unique_ptr" = type { %"struct.std::__uniq_ptr_data" }
%"struct.std::__uniq_ptr_data" = type { %"class.std::__uniq_ptr_impl" }
%"class.std::__uniq_ptr_impl" = type { %"class.std::tuple" }
%"class.std::tuple" = type { %"struct.std::_Tuple_impl" }
%"struct.std::_Tuple_impl" = type { %"struct.std::_Head_base.50" }
%"struct.std::_Head_base.50" = type { ptr }
%"struct.llvh::FileCheckString" = type { %"class.llvh::FileCheckPattern", %"class.llvh::StringRef", %"class.llvh::SMLoc", %"class.std::vector.43" }
%"struct.llvh::SourceMgr::SrcBuffer" = type { %"class.std::unique_ptr", %"class.llvh::PointerUnion4", %"class.llvh::SMLoc" }
%"class.llvh::PointerUnion4" = type { %"class.llvh::PointerUnion" }
%"class.llvh::PointerUnion" = type { %"class.llvh::PointerIntPair" }
%"class.llvh::PointerIntPair" = type { i64 }
%"struct.std::pair.81" = type <{ %"struct.std::_Rb_tree_iterator.83", i8, [7 x i8] }>
%"struct.std::_Rb_tree_iterator.83" = type { ptr }
%"class.llvh::SourceMgr" = type { %"class.std::vector.11", %"class.std::map.16", i32, %"class.std::vector", ptr, ptr }
%"class.std::vector.11" = type { %"struct.std::_Vector_base.12" }
%"struct.std::_Vector_base.12" = type { %"struct.std::_Vector_base<llvh::SourceMgr::SrcBuffer, std::allocator<llvh::SourceMgr::SrcBuffer>>::_Vector_impl" }
%"struct.std::_Vector_base<llvh::SourceMgr::SrcBuffer, std::allocator<llvh::SourceMgr::SrcBuffer>>::_Vector_impl" = type { %"struct.std::_Vector_base<llvh::SourceMgr::SrcBuffer, std::allocator<llvh::SourceMgr::SrcBuffer>>::_Vector_impl_data" }
%"struct.std::_Vector_base<llvh::SourceMgr::SrcBuffer, std::allocator<llvh::SourceMgr::SrcBuffer>>::_Vector_impl_data" = type { ptr, ptr, ptr }
%"class.std::map.16" = type { %"class.std::_Rb_tree.17" }
%"class.std::_Rb_tree.17" = type { %"struct.std::_Rb_tree<const char *, std::pair<const char *const, unsigned int>, std::_Select1st<std::pair<const char *const, unsigned int>>, std::less<const char *>>::_Rb_tree_impl" }
%"struct.std::_Rb_tree<const char *, std::pair<const char *const, unsigned int>, std::_Select1st<std::pair<const char *const, unsigned int>>, std::less<const char *>>::_Rb_tree_impl" = type { %"struct.std::_Rb_tree_key_compare.21", %"struct.std::_Rb_tree_header" }
%"struct.std::_Rb_tree_key_compare.21" = type { %"struct.std::less.22" }
%"struct.std::less.22" = type { i8 }
%"class.__gnu_cxx::__normal_iterator.111" = type { ptr }
%"class.std::allocator.45" = type { i8 }
%"class.__gnu_cxx::__normal_iterator.65" = type { ptr }
%"class.llvh::SmallVector.96" = type { %"class.llvh::SmallVectorImpl", %"struct.llvh::SmallVectorStorage.97" }
%"struct.llvh::SmallVectorStorage.97" = type { [2 x %"struct.llvh::AlignedCharArrayUnion"] }
%"class.__gnu_cxx::__normal_iterator.112" = type { ptr }
%"class.__gnu_cxx::__normal_iterator.113" = type { ptr }
%"struct.std::_Vector_base.52" = type { %"struct.std::_Vector_base<llvh::FileCheckString, std::allocator<llvh::FileCheckString>>::_Vector_impl" }
%"struct.std::_Vector_base<llvh::FileCheckString, std::allocator<llvh::FileCheckString>>::_Vector_impl" = type { %"struct.std::_Vector_base<llvh::FileCheckString, std::allocator<llvh::FileCheckString>>::_Vector_impl_data" }
%"struct.std::_Vector_base<llvh::FileCheckString, std::allocator<llvh::FileCheckString>>::_Vector_impl_data" = type { ptr, ptr, ptr }
%"class.llvh::raw_ostream" = type <{ ptr, ptr, ptr, ptr, i32, [4 x i8] }>
%"class.std::vector.56" = type { %"struct.std::_Vector_base.57" }
%"struct.std::_Vector_base.57" = type { %"struct.std::_Vector_base<const llvh::FileCheckPattern *, std::allocator<const llvh::FileCheckPattern *>>::_Vector_impl" }
%"struct.std::_Vector_base<const llvh::FileCheckPattern *, std::allocator<const llvh::FileCheckPattern *>>::_Vector_impl" = type { %"struct.std::_Vector_base<const llvh::FileCheckPattern *, std::allocator<const llvh::FileCheckPattern *>>::_Vector_impl_data" }
%"struct.std::_Vector_base<const llvh::FileCheckPattern *, std::allocator<const llvh::FileCheckPattern *>>::_Vector_impl_data" = type { ptr, ptr, ptr }
%"class.std::__cxx11::list" = type { %"class.std::__cxx11::_List_base" }
%"class.std::__cxx11::_List_base" = type { %"struct.std::__cxx11::_List_base<MatchRange, std::allocator<MatchRange>>::_List_impl" }
%"struct.std::__cxx11::_List_base<MatchRange, std::allocator<MatchRange>>::_List_impl" = type { %"struct.std::__detail::_List_node_header" }
%"struct.std::__detail::_List_node_header" = type { %"struct.std::__detail::_List_node_base", i64 }
%"struct.std::__detail::_List_node_base" = type { ptr, ptr }
%"struct.std::_List_iterator" = type { ptr }
%struct.MatchRange = type { i64, i64 }
%"struct.std::_List_const_iterator" = type { ptr }
%"class.std::reverse_iterator" = type { %"struct.std::_List_iterator" }
%"class.__gnu_cxx::__normal_iterator.61" = type { ptr }
%"class.llvh::StringSet" = type { %"class.llvh::StringMap.base.67", [7 x i8] }
%"class.llvh::StringMap.base.67" = type <{ %"class.llvh::StringMapImpl", %"class.llvh::MallocAllocator" }>
%"class.llvh::MallocAllocator" = type { i8 }
%"struct.std::pair.68" = type <{ %"class.llvh::StringMapIterator.70", i8, [7 x i8] }>
%"class.llvh::StringMapIterator.70" = type { %"class.llvh::StringMapIterBase.71" }
%"class.llvh::StringMapIterBase.71" = type { ptr }
%"struct.std::pair.115" = type <{ %"class.llvh::StringRef", i8, [7 x i8] }>
%"class.llvh::SmallString.74" = type { %"class.llvh::SmallVector.75" }
%"class.llvh::SmallVector.75" = type { %"class.llvh::SmallVectorImpl.35", %"struct.llvh::SmallVectorStorage.76" }
%"struct.llvh::SmallVectorStorage.76" = type { [32 x %"struct.llvh::AlignedCharArrayUnion.39"] }
%"class.__gnu_cxx::__normal_iterator.118" = type { ptr }
%"class.llvh::ArrayRef.77" = type { ptr, i64 }
%"class.llvh::StringMap" = type <{ %"class.llvh::StringMapImpl", %"class.llvh::MallocAllocator", [7 x i8] }>
%"class.llvh::SmallVector.100" = type { %"class.llvh::SmallVectorImpl", %"struct.llvh::SmallVectorStorage.101" }
%"struct.llvh::SmallVectorStorage.101" = type { [16 x %"struct.llvh::AlignedCharArrayUnion"] }
%struct._Guard = type { ptr }
%"struct.std::pair.86" = type { ptr, ptr }
%"struct.std::_Rb_tree_const_iterator.91" = type { ptr }
%"struct.std::pair.88" = type <{ ptr, i32, [4 x i8] }>
%"class.__gnu_cxx::__normal_iterator.85" = type { ptr }
%"class.std::move_iterator" = type { ptr }
%"struct.std::_Select1st" = type { i8 }
%"struct.std::_Rb_tree_node" = type { %"struct.std::_Rb_tree_node_base", %"struct.__gnu_cxx::__aligned_membuf" }
%"struct.__gnu_cxx::__aligned_membuf" = type { [16 x i8] }
%"struct.std::_Rb_tree<const char *, std::pair<const char *const, unsigned int>, std::_Select1st<std::pair<const char *const, unsigned int>>, std::less<const char *>>::_Auto_node" = type { ptr, ptr }
%"struct.std::pair.92" = type { ptr, ptr }
%"struct.std::_Rb_tree_node.94" = type { %"struct.std::_Rb_tree_node_base", %"struct.__gnu_cxx::__aligned_membuf.95" }
%"struct.__gnu_cxx::__aligned_membuf.95" = type { [24 x i8] }
%"struct.std::_List_node" = type { %"struct.std::__detail::_List_node_base", %"struct.__gnu_cxx::__aligned_membuf.98" }
%"struct.__gnu_cxx::__aligned_membuf.98" = type { [16 x i8] }
%"class.llvh::StringMap.66" = type <{ %"class.llvh::StringMapImpl", %"class.llvh::MallocAllocator", [7 x i8] }>
%"struct.std::_Select1st.102" = type { i8 }
%"struct.std::_Rb_tree<llvh::StringRef, std::pair<const llvh::StringRef, unsigned int>, std::_Select1st<std::pair<const llvh::StringRef, unsigned int>>, std::less<llvh::StringRef>>::_Auto_node" = type { ptr, ptr }
%"class.__gnu_cxx::__normal_iterator.109" = type { ptr }
%struct._Guard.110 = type { ptr }
%"class.std::allocator.5" = type { i8 }
%"class.std::allocator.8" = type { i8 }
%"struct.std::_Rb_tree<llvh::StringRef, std::pair<const llvh::StringRef, unsigned int>, std::_Select1st<std::pair<const llvh::StringRef, unsigned int>>, std::less<llvh::StringRef>>::_Alloc_node" = type { ptr }
%"struct.std::_Rb_tree<llvh::StringRef, std::pair<const llvh::StringRef, unsigned int>, std::_Select1st<std::pair<const llvh::StringRef, unsigned int>>, std::less<llvh::StringRef>>::_Reuse_or_alloc_node" = type { ptr, ptr, ptr }
%"class.__gnu_cxx::__normal_iterator.114" = type { ptr }
%"struct.std::__allocated_ptr" = type { ptr, ptr }
%"class.llvh::StringMapEntry.99" = type <{ %"class.llvh::StringMapEntryBase", i8, [7 x i8] }>

$_ZN4llvh5SMLoc14getFromPointerEPKc = comdat any

$_ZNK4llvh9StringRef4backEv = comdat any

$_ZN4llvhplERKNS_5TwineES2_ = comdat any

$_ZN4llvhplEPKcRKNS_9StringRefE = comdat any

$_ZN4llvh5TwineC2EPKc = comdat any

$_ZN4llvh8ArrayRefINS_7SMRangeEEC2ENS_8NoneTypeE = comdat any

$_ZN4llvh8ArrayRefINS_7SMFixItEEC2ENS_8NoneTypeE = comdat any

$_ZNK4llvh9StringRefixEm = comdat any

$_ZStneRKSt17_Rb_tree_iteratorISt4pairIKN4llvh9StringRefEjEES7_ = comdat any

$_ZNSt3mapIN4llvh9StringRefEjSt4lessIS1_ESaISt4pairIKS1_jEEE4findERS5_ = comdat any

$_ZNSt3mapIN4llvh9StringRefEjSt4lessIS1_ESaISt4pairIKS1_jEEE3endEv = comdat any

$_ZNSt3mapIN4llvh9StringRefEjSt4lessIS1_ESaISt4pairIKS1_jEEEixERS5_ = comdat any

$_ZNSt6vectorISt4pairIN4llvh9StringRefEjESaIS3_EE9push_backEOS3_ = comdat any

$_ZSt9make_pairIRN4llvh9StringRefEmESt4pairINSt25__strip_reference_wrapperINSt5decayIT_E4typeEE6__typeENS4_INS5_IT0_E4typeEE6__typeEEOS6_OSB_ = comdat any

$_ZNSt4pairIN4llvh9StringRefEjEC2IS1_mTnNSt9enable_ifIXaaclsr6_PCCFPIT_T0_EE22_MoveConstructiblePairIS5_S6_EEclsr6_PCCFPIS5_S6_EE30_ImplicitlyMoveConvertiblePairIS5_S6_EEEbE4typeELb1EEEOS_IS5_S6_E = comdat any

$_ZSt3minImERKT_S2_S2_ = comdat any

$_ZStplIcSt11char_traitsIcESaIcEENSt7__cxx1112basic_stringIT_T0_T1_EEPKS5_RKS8_ = comdat any

$_ZN4llvh5TwineC2ERKNSt7__cxx1112basic_stringIcSt11char_traitsIcESaIcEEE = comdat any

$_ZNK4llvh9StringRef3strB5cxx11Ev = comdat any

$_ZStplIcSt11char_traitsIcESaIcEENSt7__cxx1112basic_stringIT_T0_T1_EEOS8_S9_ = comdat any

$_ZNSt7__cxx1112basic_stringIcSt11char_traitsIcESaIcEEC2IS3_EEPKcRKS3_ = comdat any

$_ZNSt7__cxx1112basic_stringIcSt11char_traitsIcESaIcEEC2IS3_EEmcRKS3_ = comdat any

$_ZNK4llvh9StringRef12getAsIntegerIiEENSt9enable_ifIXsr3std14numeric_limitsIT_EE9is_signedEbE4typeEjRS3_ = comdat any

$_ZN4llvh6itostrB5cxx11El = comdat any

$_ZNKSt6vectorISt4pairIN4llvh9StringRefEjESaIS3_EE5emptyEv = comdat any

$_ZNKSt6vectorISt4pairIN4llvh9StringRefEjESaIS3_EE5beginEv = comdat any

$_ZNKSt6vectorISt4pairIN4llvh9StringRefEjESaIS3_EE3endEv = comdat any

$_ZN9__gnu_cxxneIPKSt4pairIN4llvh9StringRefEjESt6vectorIS4_SaIS4_EEEEbRKNS_17__normal_iteratorIT_T0_EESF_ = comdat any

$_ZNK9__gnu_cxx17__normal_iteratorIPKSt4pairIN4llvh9StringRefEjESt6vectorIS4_SaIS4_EEEdeEv = comdat any

$_ZN4llvh9StringMapINS_9StringRefENS_15MallocAllocatorEE4findES1_ = comdat any

$_ZNK4llvh17StringMapIterBaseINS_17StringMapIteratorINS_9StringRefEEENS_14StringMapEntryIS2_EEEeqERKS3_ = comdat any

$_ZN4llvh9StringMapINS_9StringRefENS_15MallocAllocatorEE3endEv = comdat any

$_ZN4llvh20iterator_facade_baseINS_17StringMapIteratorINS_9StringRefEEESt20forward_iterator_tagNS_14StringMapEntryIS2_EElPS6_RS6_EptEv = comdat any

$_ZNSt7__cxx1112basic_stringIcSt11char_traitsIcESaIcEE6insertIN9__gnu_cxx17__normal_iteratorIPcS4_EEvEES9_NS7_IPKcS4_EET_SD_ = comdat any

$_ZNK9__gnu_cxx17__normal_iteratorIPcNSt7__cxx1112basic_stringIcSt11char_traitsIcESaIcEEEEplEl = comdat any

$_ZN9__gnu_cxx17__normal_iteratorIPKcNSt7__cxx1112basic_stringIcSt11char_traitsIcESaIcEEEEC2IPcvEERKNS0_IT_S8_EE = comdat any

$_ZN9__gnu_cxx17__normal_iteratorIPKSt4pairIN4llvh9StringRefEjESt6vectorIS4_SaIS4_EEEppEv = comdat any

$_ZN4llvh11SmallVectorINS_9StringRefELj4EEC2Ev = comdat any

$_ZNKSt3mapIN4llvh9StringRefEjSt4lessIS1_ESaISt4pairIKS1_jEEE5beginEv = comdat any

$_ZNKSt3mapIN4llvh9StringRefEjSt4lessIS1_ESaISt4pairIKS1_jEEE3endEv = comdat any

$_ZStneRKSt23_Rb_tree_const_iteratorISt4pairIKN4llvh9StringRefEjEES7_ = comdat any

$_ZNKSt23_Rb_tree_const_iteratorISt4pairIKN4llvh9StringRefEjEEdeEv = comdat any

$_ZN4llvh9StringMapINS_9StringRefENS_15MallocAllocatorEEixES1_ = comdat any

$_ZNSt23_Rb_tree_const_iteratorISt4pairIKN4llvh9StringRefEjEEppEv = comdat any

$_ZN4llvh11SmallVectorINS_9StringRefELj4EED2Ev = comdat any

$_ZNK4llvh9StringRef5splitEc = comdat any

$_ZN4llvh11SmallStringILj256EEC2Ev = comdat any

$_ZN4llvh19raw_svector_ostreamC2ERNS_15SmallVectorImplIcEE = comdat any

$_ZN4llvh11raw_ostreamlsEPKc = comdat any

$_ZNK4llvh9StringMapINS_9StringRefENS_15MallocAllocatorEE4findES1_ = comdat any

$_ZNK4llvh17StringMapIterBaseINS_22StringMapConstIteratorINS_9StringRefEEEKNS_14StringMapEntryIS2_EEEeqERKS3_ = comdat any

$_ZNK4llvh9StringMapINS_9StringRefENS_15MallocAllocatorEE3endEv = comdat any

$_ZN4llvh20iterator_facade_baseINS_22StringMapConstIteratorINS_9StringRefEEESt20forward_iterator_tagKNS_14StringMapEntryIS2_EElPS7_RS7_EptEv = comdat any

$_ZNK4llvh7SMRange7isValidEv = comdat any

$_ZN4llvh19raw_svector_ostream3strEv = comdat any

$_ZN4llvh5TwineC2ERKNS_9StringRefE = comdat any

$_ZN4llvh8ArrayRefINS_7SMRangeEEC2ERKSt16initializer_listIS1_E = comdat any

$_ZN4llvh19raw_svector_ostreamD2Ev = comdat any

$_ZN4llvh11SmallStringILj256EED2Ev = comdat any

$_ZN4llvh15SmallVectorImplIcE7reserveEm = comdat any

$_ZNK4llvh12MemoryBuffer13getBufferSizeEv = comdat any

$_ZNK4llvh12MemoryBuffer14getBufferStartEv = comdat any

$_ZNK4llvh12MemoryBuffer12getBufferEndEv = comdat any

$_ZN4llvh23SmallVectorTemplateBaseIcLb1EE9push_backERKc = comdat any

$_ZN4llvh25SmallVectorTemplateCommonIcvE4dataEv = comdat any

$_ZNK4llvh15SmallVectorBase4sizeEv = comdat any

$_ZNSt6vectorIN4llvh16FileCheckPatternESaIS1_EEC2Ev = comdat any

$_ZNSt6vectorINSt7__cxx1112basic_stringIcSt11char_traitsIcESaIcEEESaIS5_EE5beginEv = comdat any

$_ZNSt6vectorINSt7__cxx1112basic_stringIcSt11char_traitsIcESaIcEEESaIS5_EE3endEv = comdat any

$_ZN9__gnu_cxxneIPNSt7__cxx1112basic_stringIcSt11char_traitsIcESaIcEEESt6vectorIS6_SaIS6_EEEEbRKNS_17__normal_iteratorIT_T0_EESG_ = comdat any

$_ZNK9__gnu_cxx17__normal_iteratorIPNSt7__cxx1112basic_stringIcSt11char_traitsIcESaIcEEESt6vectorIS6_SaIS6_EEEdeEv = comdat any

$_ZStplIcSt11char_traitsIcESaIcEENSt7__cxx1112basic_stringIT_T0_T1_EEOS8_RKS8_ = comdat any

$_ZStplIcSt11char_traitsIcESaIcEENSt7__cxx1112basic_stringIT_T0_T1_EERKS8_SA_ = comdat any

$_ZNKSt10unique_ptrIN4llvh12MemoryBufferESt14default_deleteIS1_EEptEv = comdat any

$_ZNK4llvh12MemoryBuffer9getBufferEv = comdat any

$_ZN4llvh9SourceMgr18AddNewSourceBufferESt10unique_ptrINS_12MemoryBufferESt14default_deleteIS2_EENS_5SMLocE = comdat any

$_ZNSt10unique_ptrIN4llvh12MemoryBufferESt14default_deleteIS1_EEC2EOS4_ = comdat any

$_ZN4llvh5SMLocC2Ev = comdat any

$_ZNSt10unique_ptrIN4llvh12MemoryBufferESt14default_deleteIS1_EED2Ev = comdat any

$_ZNSt6vectorIN4llvh16FileCheckPatternESaIS1_EE9push_backEOS1_ = comdat any

$_ZN4llvh16FileCheckPatternC2ENS_5Check13FileCheckTypeE = comdat any

$_ZN4llvh16FileCheckPatternD2Ev = comdat any

$_ZNSt6vectorIN4llvh16FileCheckPatternESaIS1_EE4backEv = comdat any

$_ZN9__gnu_cxx17__normal_iteratorIPNSt7__cxx1112basic_stringIcSt11char_traitsIcESaIcEEESt6vectorIS6_SaIS6_EEEppEv = comdat any

$_ZNSt6vectorIN4llvh16FileCheckPatternESaIS1_EEC2ERKS3_ = comdat any

$_ZNK4llvh16FileCheckPattern11hasVariableEv = comdat any

$_ZNKSt6vectorIN4llvh15FileCheckStringESaIS1_EE5emptyEv = comdat any

$_ZNSt6vectorIN4llvh16FileCheckPatternESaIS1_EE9push_backERKS1_ = comdat any

$_ZNSt6vectorIN4llvh15FileCheckStringESaIS1_EE12emplace_backIJRNS0_16FileCheckPatternERNS0_9StringRefERNS0_5SMLocEEEERS1_DpOT_ = comdat any

$_ZSt4swapIN4llvh16FileCheckPatternESaIS1_EEvRSt6vectorIT_T0_ES7_ = comdat any

$_ZNSt6vectorIN4llvh15FileCheckStringESaIS1_EE4backEv = comdat any

$_ZNSt6vectorIN4llvh16FileCheckPatternESaIS1_EEaSERKS3_ = comdat any

$_ZNKSt6vectorIN4llvh16FileCheckPatternESaIS1_EE5emptyEv = comdat any

$_ZNSt6vectorIN4llvh15FileCheckStringESaIS1_EE12emplace_backIJNS0_16FileCheckPatternERNSt7__cxx1112basic_stringIcSt11char_traitsIcESaIcEEENS0_5SMLocEEEERS1_DpOT_ = comdat any

$_ZNKSt6vectorINSt7__cxx1112basic_stringIcSt11char_traitsIcESaIcEEESaIS5_EE4sizeEv = comdat any

$_ZN4llvh11raw_ostreamlsERKNSt7__cxx1112basic_stringIcSt11char_traitsIcESaIcEEE = comdat any

$_ZN4llvh11raw_ostreamlsEc = comdat any

$_ZNSt6vectorIN4llvh16FileCheckPatternESaIS1_EED2Ev = comdat any

$_ZNSt6vectorIPKN4llvh16FileCheckPatternESaIS3_EEC2Ev = comdat any

$_ZNSt6vectorIPKN4llvh16FileCheckPatternESaIS3_EED2Ev = comdat any

$_ZNK4llvh16FileCheckPattern10getCheckTyEv = comdat any

$_ZNK4llvh9StringRef3endEv = comdat any

$_ZN4llvhplERKNS_9StringRefEPKc = comdat any

$_ZNKSt6vectorIPKN4llvh16FileCheckPatternESaIS3_EE5beginEv = comdat any

$_ZNKSt6vectorIPKN4llvh16FileCheckPatternESaIS3_EE3endEv = comdat any

$_ZN9__gnu_cxxneIPKPKN4llvh16FileCheckPatternESt6vectorIS4_SaIS4_EEEEbRKNS_17__normal_iteratorIT_T0_EESF_ = comdat any

$_ZNK9__gnu_cxx17__normal_iteratorIPKPKN4llvh16FileCheckPatternESt6vectorIS4_SaIS4_EEEdeEv = comdat any

$_ZNK4llvh16FileCheckPattern6getLocEv = comdat any

$_ZN9__gnu_cxx17__normal_iteratorIPKPKN4llvh16FileCheckPatternESt6vectorIS4_SaIS4_EEEppEv = comdat any

$_ZNKSt6vectorIN4llvh16FileCheckPatternESaIS1_EE5beginEv = comdat any

$_ZNKSt6vectorIN4llvh16FileCheckPatternESaIS1_EE3endEv = comdat any

$_ZN9__gnu_cxxneIPKN4llvh16FileCheckPatternESt6vectorIS2_SaIS2_EEEEbRKNS_17__normal_iteratorIT_T0_EESD_ = comdat any

$_ZNK9__gnu_cxx17__normal_iteratorIPKN4llvh16FileCheckPatternESt6vectorIS2_SaIS2_EEEdeEv = comdat any

$_ZNSt6vectorIPKN4llvh16FileCheckPatternESaIS3_EE9push_backEOS3_ = comdat any

$_ZSt3maxImERKT_S2_S2_ = comdat any

$_ZN4llvh7SMRangeC2ENS_5SMLocES1_ = comdat any

$_ZN9__gnu_cxxeqIPKN4llvh16FileCheckPatternESt6vectorIS2_SaIS2_EEEEbRKNS_17__normal_iteratorIT_T0_EESD_ = comdat any

$_ZSt4nextIN9__gnu_cxx17__normal_iteratorIPKN4llvh16FileCheckPatternESt6vectorIS3_SaIS3_EEEEET_SA_NSt15iterator_traitsISA_E15difference_typeE = comdat any

$_ZNK9__gnu_cxx17__normal_iteratorIPKN4llvh16FileCheckPatternESt6vectorIS2_SaIS2_EEEptEv = comdat any

$_ZNKSt6vectorIPKN4llvh16FileCheckPatternESaIS3_EE5emptyEv = comdat any

$_ZNSt6vectorIPKN4llvh16FileCheckPatternESaIS3_EE5clearEv = comdat any

$_ZN9__gnu_cxx17__normal_iteratorIPKN4llvh16FileCheckPatternESt6vectorIS2_SaIS2_EEEppEv = comdat any

$_ZN4llvh9StringSetINS_15MallocAllocatorEEC2Ev = comdat any

$_ZN4llvh9StringSetINS_15MallocAllocatorEE6insertENS_9StringRefE = comdat any

$_ZN4llvh9StringSetINS_15MallocAllocatorEED2Ev = comdat any

$_ZNKSt6vectorINSt7__cxx1112basic_stringIcSt11char_traitsIcESaIcEEESaIS5_EE5emptyEv = comdat any

$_ZNSt6vectorINSt7__cxx1112basic_stringIcSt11char_traitsIcESaIcEEESaIS5_EE9push_backEOS5_ = comdat any

$_ZN4llvh11SmallStringILj32EEC2Ev = comdat any

$_ZNSt6vectorINSt7__cxx1112basic_stringIcSt11char_traitsIcESaIcEEESaIS5_EE5frontEv = comdat any

$_ZN4llvh11SmallStringILj32EE6appendENS_9StringRefE = comdat any

$_ZNK4llvh11SmallStringILj32EEcvNS_9StringRefEEv = comdat any

$_ZN4llvh11SmallStringILj32EED2Ev = comdat any

$_ZN4llvh9StringMapINS_9StringRefENS_15MallocAllocatorEEC2Ev = comdat any

$_ZN4llvh9StringMapINS_9StringRefENS_15MallocAllocatorEE6insertESt4pairIS1_S1_E = comdat any

$_ZNK4llvh8ArrayRefINS_15FileCheckStringEE4sizeEv = comdat any

$_ZN4llvh9StringRefC2Ev = comdat any

$_ZNK4llvh8ArrayRefINS_15FileCheckStringEEixEm = comdat any

$_ZN4llvh9StringMapINS_9StringRefENS_15MallocAllocatorEED2Ev = comdat any

$_ZNK4llvh5Twine6concatERKS0_ = comdat any

$_ZNK4llvh5Twine6isNullEv = comdat any

$_ZN4llvh5TwineC2ENS0_8NodeKindE = comdat any

$_ZNK4llvh5Twine7isEmptyEv = comdat any

$_ZNK4llvh5Twine7isUnaryEv = comdat any

$_ZNK4llvh5Twine10getLHSKindEv = comdat any

$_ZN4llvh5TwineC2ENS0_5ChildENS0_8NodeKindES1_S2_ = comdat any

$_ZNK4llvh5Twine10getRHSKindEv = comdat any

$_ZNK4llvh5Twine9isNullaryEv = comdat any

$_ZN4llvh5TwineC2EPKcRKNS_9StringRefE = comdat any

$_ZNSt4pairIN4llvh9StringRefEmEC2IRS1_mTnNSt9enable_ifIXaaclsr5_PCCPE22_MoveConstructiblePairIT_T0_EEclsr5_PCCPE30_ImplicitlyMoveConvertiblePairIS6_S7_EEEbE4typeELb1EEEOS6_OS7_ = comdat any

$_ZN4llvh6utostrB5cxx11Emb = comdat any

$_ZSt3endIcLm21EEPT_RAT0__S0_ = comdat any

$_ZNSt7__cxx1112basic_stringIcSt11char_traitsIcESaIcEEC2IPcvEET_S7_RKS3_ = comdat any

$_ZNSt7__cxx1112basic_stringIcSt11char_traitsIcESaIcEE12_M_constructIPcEEvT_S7_St20forward_iterator_tag = comdat any

$_ZSt19__iterator_categoryIPcENSt15iterator_traitsIT_E17iterator_categoryERKS2_ = comdat any

$_ZSt8distanceIPcENSt15iterator_traitsIT_E15difference_typeES2_S2_ = comdat any

$_ZZNSt7__cxx1112basic_stringIcSt11char_traitsIcESaIcEE12_M_constructIPcEEvT_S7_St20forward_iterator_tagEN6_GuardC2EPS4_ = comdat any

$_ZZNSt7__cxx1112basic_stringIcSt11char_traitsIcESaIcEE12_M_constructIPcEEvT_S7_St20forward_iterator_tagEN6_GuardD2Ev = comdat any

$_ZSt10__distanceIPcENSt15iterator_traitsIT_E15difference_typeES2_S2_St26random_access_iterator_tag = comdat any

$_ZNK4llvh9StringRef5splitES0_ = comdat any

$_ZSt9make_pairIRKN4llvh9StringRefES1_ESt4pairINSt25__strip_reference_wrapperINSt5decayIT_E4typeEE6__typeENS5_INS6_IT0_E4typeEE6__typeEEOS7_OSC_ = comdat any

$_ZSt9make_pairIN4llvh9StringRefES1_ESt4pairINSt25__strip_reference_wrapperINSt5decayIT_E4typeEE6__typeENS3_INS4_IT0_E4typeEE6__typeEEOS5_OSA_ = comdat any

$_ZNSt4pairIN4llvh9StringRefES1_EC2IRKS1_S1_TnNSt9enable_ifIXaaclsr5_PCCPE22_MoveConstructiblePairIT_T0_EEclsr5_PCCPE30_ImplicitlyMoveConvertiblePairIS7_S8_EEEbE4typeELb1EEEOS7_OS8_ = comdat any

$_ZNSt4pairIN4llvh9StringRefES1_EC2IS1_S1_TnNSt9enable_ifIXaaclsr5_PCCPE22_MoveConstructiblePairIT_T0_EEclsr5_PCCPE30_ImplicitlyMoveConvertiblePairIS5_S6_EEEbE4typeELb1EEEOS5_OS6_ = comdat any

$_ZN4llvh11SmallVectorIcLj256EEC2Ev = comdat any

$_ZN4llvh15SmallVectorImplIcEC2Ej = comdat any

$_ZN4llvh23SmallVectorTemplateBaseIcLb1EEC2Em = comdat any

$_ZN4llvh25SmallVectorTemplateCommonIcvEC2Em = comdat any

$_ZNK4llvh25SmallVectorTemplateCommonIcvE10getFirstElEv = comdat any

$_ZN4llvh15SmallVectorBaseC2EPvm = comdat any

$_ZN4llvh17raw_pwrite_streamC2Eb = comdat any

$_ZN4llvh11raw_ostream13SetUnbufferedEv = comdat any

$_ZN4llvh11raw_ostreamC2Eb = comdat any

$_ZN4llvh11raw_ostream5flushEv = comdat any

$_ZN4llvh11raw_ostreamlsENS_9StringRefE = comdat any

$_ZNK4llvh5SMLoc7isValidEv = comdat any

$_ZN4llvh17raw_pwrite_streamD2Ev = comdat any

$_ZN4llvh11SmallVectorIcLj256EED2Ev = comdat any

$_ZN4llvh23SmallVectorTemplateBaseIcLb1EE13destroy_rangeEPcS2_ = comdat any

$_ZN4llvh15SmallVectorImplIcED2Ev = comdat any

$_ZNK4llvh25SmallVectorTemplateCommonIcvE7isSmallEv = comdat any

$_ZNSt12_Vector_baseIN4llvh16FileCheckPatternESaIS1_EEC2Ev = comdat any

$_ZNSt12_Vector_baseIN4llvh16FileCheckPatternESaIS1_EE12_Vector_implC2Ev = comdat any

$_ZNSaIN4llvh16FileCheckPatternEEC2Ev = comdat any

$_ZNSt15__new_allocatorIN4llvh16FileCheckPatternEEC2Ev = comdat any

$_ZN4llvh9SourceMgr9SrcBufferC2Ev = comdat any

$_ZNSt10unique_ptrIN4llvh12MemoryBufferESt14default_deleteIS1_EEaSEOS4_ = comdat any

$_ZNSt6vectorIN4llvh9SourceMgr9SrcBufferESaIS2_EE9push_backEOS2_ = comdat any

$_ZNKSt6vectorIN4llvh9SourceMgr9SrcBufferESaIS2_EE4sizeEv = comdat any

$_ZNSt3mapIPKcjSt4lessIS1_ESaISt4pairIKS1_jEEE7emplaceIJRS1_RjEEES4_ISt17_Rb_tree_iteratorIS6_EbEDpOT_ = comdat any

$_ZNSt10unique_ptrIN4llvh12MemoryBufferESt14default_deleteIS1_EEC2IS3_vEEv = comdat any

$_ZN4llvh13PointerUnion4IPSt6vectorIhSaIhEEPS1_ItSaItEEPS1_IjSaIjEEPS1_ImSaImEEEC2Ev = comdat any

$_ZNSt15__uniq_ptr_dataIN4llvh12MemoryBufferESt14default_deleteIS1_ELb1ELb1EEC2Ev = comdat any

$_ZNSt15__uniq_ptr_implIN4llvh12MemoryBufferESt14default_deleteIS1_EEC2Ev = comdat any

$_ZNSt5tupleIJPN4llvh12MemoryBufferESt14default_deleteIS1_EEEC2ILb1ETnNSt9enable_ifIXclsr17_TupleConstraintsIXT_ES2_S4_EE37__is_implicitly_default_constructibleEEbE4typeELb1EEEv = comdat any

$_ZNSt11_Tuple_implILm0EJPN4llvh12MemoryBufferESt14default_deleteIS1_EEEC2Ev = comdat any

$_ZNSt11_Tuple_implILm1EJSt14default_deleteIN4llvh12MemoryBufferEEEEC2Ev = comdat any

$_ZNSt10_Head_baseILm0EPN4llvh12MemoryBufferELb0EEC2Ev = comdat any

$_ZNSt10_Head_baseILm1ESt14default_deleteIN4llvh12MemoryBufferEELb1EEC2Ev = comdat any

$_ZN4llvh12PointerUnionINS0_IPSt6vectorIhSaIhEEPS1_ItSaItEEEENS0_IPS1_IjSaIjEEPS1_ImSaImEEEEEC2Ev = comdat any

$_ZN4llvh14PointerIntPairIPvLj1EbNS_22PointerUnionUIntTraitsINS_12PointerUnionIPSt6vectorIhSaIhEEPS4_ItSaItEEEENS3_IPS4_IjSaIjEEPS4_ImSaImEEEEEENS_18PointerIntPairInfoIS1_Lj1ESJ_EEEC2Ev = comdat any

$_ZNSt15__uniq_ptr_dataIN4llvh12MemoryBufferESt14default_deleteIS1_ELb1ELb1EEaSEOS4_ = comdat any

$_ZNSt15__uniq_ptr_implIN4llvh12MemoryBufferESt14default_deleteIS1_EEaSEOS4_ = comdat any

$_ZNSt15__uniq_ptr_implIN4llvh12MemoryBufferESt14default_deleteIS1_EE5resetEPS1_ = comdat any

$_ZNSt15__uniq_ptr_implIN4llvh12MemoryBufferESt14default_deleteIS1_EE7releaseEv = comdat any

$_ZNSt15__uniq_ptr_implIN4llvh12MemoryBufferESt14default_deleteIS1_EE10_M_deleterEv = comdat any

$_ZNSt15__uniq_ptr_implIN4llvh12MemoryBufferESt14default_deleteIS1_EE6_M_ptrEv = comdat any

$_ZNKSt14default_deleteIN4llvh12MemoryBufferEEclEPS1_ = comdat any

$_ZSt3getILm0EJPN4llvh12MemoryBufferESt14default_deleteIS1_EEERNSt13tuple_elementIXT_ESt5tupleIJDpT0_EEE4typeERS9_ = comdat any

$_ZSt12__get_helperILm0EPN4llvh12MemoryBufferEJSt14default_deleteIS1_EEERT0_RSt11_Tuple_implIXT_EJS5_DpT1_EE = comdat any

$_ZNSt11_Tuple_implILm0EJPN4llvh12MemoryBufferESt14default_deleteIS1_EEE7_M_headERS5_ = comdat any

$_ZNSt10_Head_baseILm0EPN4llvh12MemoryBufferELb0EE7_M_headERS3_ = comdat any

$_ZSt3getILm1EJPN4llvh12MemoryBufferESt14default_deleteIS1_EEERNSt13tuple_elementIXT_ESt5tupleIJDpT0_EEE4typeERS9_ = comdat any

$_ZSt12__get_helperILm1ESt14default_deleteIN4llvh12MemoryBufferEEJEERT0_RSt11_Tuple_implIXT_EJS4_DpT1_EE = comdat any

$_ZNSt11_Tuple_implILm1EJSt14default_deleteIN4llvh12MemoryBufferEEEE7_M_headERS4_ = comdat any

$_ZNSt10_Head_baseILm1ESt14default_deleteIN4llvh12MemoryBufferEELb1EE7_M_headERS4_ = comdat any

$_ZNSt6vectorIN4llvh9SourceMgr9SrcBufferESaIS2_EE12emplace_backIJS2_EEERS2_DpOT_ = comdat any

$_ZNSt16allocator_traitsISaIN4llvh9SourceMgr9SrcBufferEEE9constructIS2_JS2_EEEvRS3_PT_DpOT0_ = comdat any

$_ZNSt6vectorIN4llvh9SourceMgr9SrcBufferESaIS2_EE17_M_realloc_insertIJS2_EEEvN9__gnu_cxx17__normal_iteratorIPS2_S4_EEDpOT_ = comdat any

$_ZNSt6vectorIN4llvh9SourceMgr9SrcBufferESaIS2_EE3endEv = comdat any

$_ZNSt6vectorIN4llvh9SourceMgr9SrcBufferESaIS2_EE4backEv = comdat any

$_ZNSt15__new_allocatorIN4llvh9SourceMgr9SrcBufferEE9constructIS2_JS2_EEEvPT_DpOT0_ = comdat any

$_ZNKSt6vectorIN4llvh9SourceMgr9SrcBufferESaIS2_EE12_M_check_lenEmPKc = comdat any

$_ZN9__gnu_cxxmiIPN4llvh9SourceMgr9SrcBufferESt6vectorIS3_SaIS3_EEEENS_17__normal_iteratorIT_T0_E15difference_typeERKSB_SE_ = comdat any

$_ZNSt6vectorIN4llvh9SourceMgr9SrcBufferESaIS2_EE5beginEv = comdat any

$_ZNSt12_Vector_baseIN4llvh9SourceMgr9SrcBufferESaIS2_EE11_M_allocateEm = comdat any

$_ZSt34__uninitialized_move_if_noexcept_aIPN4llvh9SourceMgr9SrcBufferES3_SaIS2_EET0_T_S6_S5_RT1_ = comdat any

$_ZNK9__gnu_cxx17__normal_iteratorIPN4llvh9SourceMgr9SrcBufferESt6vectorIS3_SaIS3_EEE4baseEv = comdat any

$_ZNSt12_Vector_baseIN4llvh9SourceMgr9SrcBufferESaIS2_EE19_M_get_Tp_allocatorEv = comdat any

$_ZSt8_DestroyIPN4llvh9SourceMgr9SrcBufferES2_EvT_S4_RSaIT0_E = comdat any

$_ZNSt12_Vector_baseIN4llvh9SourceMgr9SrcBufferESaIS2_EE13_M_deallocateEPS2_m = comdat any

$_ZNKSt6vectorIN4llvh9SourceMgr9SrcBufferESaIS2_EE8max_sizeEv = comdat any

$_ZNSt6vectorIN4llvh9SourceMgr9SrcBufferESaIS2_EE11_S_max_sizeERKS3_ = comdat any

$_ZNKSt12_Vector_baseIN4llvh9SourceMgr9SrcBufferESaIS2_EE19_M_get_Tp_allocatorEv = comdat any

$_ZNSt16allocator_traitsISaIN4llvh9SourceMgr9SrcBufferEEE8max_sizeERKS3_ = comdat any

$_ZNKSt15__new_allocatorIN4llvh9SourceMgr9SrcBufferEE8max_sizeEv = comdat any

$_ZNKSt15__new_allocatorIN4llvh9SourceMgr9SrcBufferEE11_M_max_sizeEv = comdat any

$_ZN9__gnu_cxx17__normal_iteratorIPN4llvh9SourceMgr9SrcBufferESt6vectorIS3_SaIS3_EEEC2ERKS4_ = comdat any

$_ZNSt16allocator_traitsISaIN4llvh9SourceMgr9SrcBufferEEE8allocateERS3_m = comdat any

$_ZNSt15__new_allocatorIN4llvh9SourceMgr9SrcBufferEE8allocateEmPKv = comdat any

$_ZSt22__uninitialized_copy_aISt13move_iteratorIPN4llvh9SourceMgr9SrcBufferEES4_S3_ET0_T_S7_S6_RSaIT1_E = comdat any

$_ZSt32__make_move_if_noexcept_iteratorIN4llvh9SourceMgr9SrcBufferESt13move_iteratorIPS2_EET0_PT_ = comdat any

$_ZSt18uninitialized_copyISt13move_iteratorIPN4llvh9SourceMgr9SrcBufferEES4_ET0_T_S7_S6_ = comdat any

$_ZNSt20__uninitialized_copyILb0EE13__uninit_copyISt13move_iteratorIPN4llvh9SourceMgr9SrcBufferEES6_EET0_T_S9_S8_ = comdat any

$_ZSt16__do_uninit_copyISt13move_iteratorIPN4llvh9SourceMgr9SrcBufferEES4_ET0_T_S7_S6_ = comdat any

$_ZStneIPN4llvh9SourceMgr9SrcBufferEEbRKSt13move_iteratorIT_ES8_ = comdat any

$_ZSt10_ConstructIN4llvh9SourceMgr9SrcBufferEJS2_EEvPT_DpOT0_ = comdat any

$_ZNKSt13move_iteratorIPN4llvh9SourceMgr9SrcBufferEEdeEv = comdat any

$_ZNSt13move_iteratorIPN4llvh9SourceMgr9SrcBufferEEppEv = comdat any

$_ZSteqIPN4llvh9SourceMgr9SrcBufferEEbRKSt13move_iteratorIT_ES8_ = comdat any

$_ZNKSt13move_iteratorIPN4llvh9SourceMgr9SrcBufferEE4baseEv = comdat any

$_ZNSt13move_iteratorIPN4llvh9SourceMgr9SrcBufferEEC2ES3_ = comdat any

$_ZSt8_DestroyIPN4llvh9SourceMgr9SrcBufferEEvT_S4_ = comdat any

$_ZNSt12_Destroy_auxILb0EE9__destroyIPN4llvh9SourceMgr9SrcBufferEEEvT_S6_ = comdat any

$_ZSt8_DestroyIN4llvh9SourceMgr9SrcBufferEEvPT_ = comdat any

$_ZNSt16allocator_traitsISaIN4llvh9SourceMgr9SrcBufferEEE10deallocateERS3_PS2_m = comdat any

$_ZNSt15__new_allocatorIN4llvh9SourceMgr9SrcBufferEE10deallocateEPS2_m = comdat any

$_ZNK9__gnu_cxx17__normal_iteratorIPN4llvh9SourceMgr9SrcBufferESt6vectorIS3_SaIS3_EEEmiEl = comdat any

$_ZNK9__gnu_cxx17__normal_iteratorIPN4llvh9SourceMgr9SrcBufferESt6vectorIS3_SaIS3_EEEdeEv = comdat any

$_ZNSt4pairIRPKcRjEC2IS2_S3_TnNSt9enable_ifIXaaclsr5_PCCPE18_ConstructiblePairIT_T0_EEclsr5_PCCPE26_ImplicitlyConvertiblePairIS7_S8_EEEbE4typeELb1EEES2_S3_ = comdat any

$_ZSt3getILm0ERPKcRjEONSt13tuple_elementIXT_ESt4pairIT0_T1_EE4typeEOS8_ = comdat any

$_ZSt3getILm1ERPKcRjEONSt13tuple_elementIXT_ESt4pairIT0_T1_EE4typeEOS8_ = comdat any

$_ZNSt3mapIPKcjSt4lessIS1_ESaISt4pairIKS1_jEEE11lower_boundERS5_ = comdat any

$_ZSteqRKSt17_Rb_tree_iteratorISt4pairIKPKcjEES7_ = comdat any

$_ZNSt3mapIPKcjSt4lessIS1_ESaISt4pairIKS1_jEEE3endEv = comdat any

$_ZNKSt3mapIPKcjSt4lessIS1_ESaISt4pairIKS1_jEEE8key_compEv = comdat any

$_ZNKSt4lessIPKcEclES1_S1_ = comdat any

$_ZNKSt17_Rb_tree_iteratorISt4pairIKPKcjEEdeEv = comdat any

$_ZNSt3mapIPKcjSt4lessIS1_ESaISt4pairIKS1_jEEE12emplace_hintIJRS1_RjEEESt17_Rb_tree_iteratorIS6_ESt23_Rb_tree_const_iteratorIS6_EDpOT_ = comdat any

$_ZNSt23_Rb_tree_const_iteratorISt4pairIKPKcjEEC2ERKSt17_Rb_tree_iteratorIS4_E = comdat any

$_ZNSt4pairISt17_Rb_tree_iteratorIS_IKPKcjEEbEC2IRS5_bTnNSt9enable_ifIXaaclsr5_PCCPE22_MoveConstructiblePairIT_T0_EEclsr5_PCCPE30_ImplicitlyMoveConvertiblePairISA_SB_EEEbE4typeELb1EEEOSA_OSB_ = comdat any

$_ZNSt10__pair_getILm0EE10__move_getIRPKcRjEEOT_OSt4pairIS6_T0_E = comdat any

$_ZNSt10__pair_getILm1EE10__move_getIRPKcRjEEOT0_OSt4pairIT_S6_E = comdat any

$_ZNSt8_Rb_treeIPKcSt4pairIKS1_jESt10_Select1stIS4_ESt4lessIS1_ESaIS4_EE11lower_boundERS3_ = comdat any

$_ZNSt8_Rb_treeIPKcSt4pairIKS1_jESt10_Select1stIS4_ESt4lessIS1_ESaIS4_EE14_M_lower_boundEPSt13_Rb_tree_nodeIS4_EPSt18_Rb_tree_node_baseRS3_ = comdat any

$_ZNSt8_Rb_treeIPKcSt4pairIKS1_jESt10_Select1stIS4_ESt4lessIS1_ESaIS4_EE8_M_beginEv = comdat any

$_ZNSt8_Rb_treeIPKcSt4pairIKS1_jESt10_Select1stIS4_ESt4lessIS1_ESaIS4_EE6_M_endEv = comdat any

$_ZNSt8_Rb_treeIPKcSt4pairIKS1_jESt10_Select1stIS4_ESt4lessIS1_ESaIS4_EE6_S_keyEPKSt13_Rb_tree_nodeIS4_E = comdat any

$_ZNSt8_Rb_treeIPKcSt4pairIKS1_jESt10_Select1stIS4_ESt4lessIS1_ESaIS4_EE7_S_leftEPSt18_Rb_tree_node_base = comdat any

$_ZNSt8_Rb_treeIPKcSt4pairIKS1_jESt10_Select1stIS4_ESt4lessIS1_ESaIS4_EE8_S_rightEPSt18_Rb_tree_node_base = comdat any

$_ZNSt17_Rb_tree_iteratorISt4pairIKPKcjEEC2EPSt18_Rb_tree_node_base = comdat any

$_ZNKSt10_Select1stISt4pairIKPKcjEEclERKS4_ = comdat any

$_ZNKSt13_Rb_tree_nodeISt4pairIKPKcjEE9_M_valptrEv = comdat any

$_ZNK9__gnu_cxx16__aligned_membufISt4pairIKPKcjEE6_M_ptrEv = comdat any

$_ZNK9__gnu_cxx16__aligned_membufISt4pairIKPKcjEE7_M_addrEv = comdat any

$_ZNKSt8_Rb_treeIPKcSt4pairIKS1_jESt10_Select1stIS4_ESt4lessIS1_ESaIS4_EE9_M_mbeginEv = comdat any

$_ZNSt8_Rb_treeIPKcSt4pairIKS1_jESt10_Select1stIS4_ESt4lessIS1_ESaIS4_EE3endEv = comdat any

$_ZNKSt8_Rb_treeIPKcSt4pairIKS1_jESt10_Select1stIS4_ESt4lessIS1_ESaIS4_EE8key_compEv = comdat any

$_ZNSt13_Rb_tree_nodeISt4pairIKPKcjEE9_M_valptrEv = comdat any

$_ZN9__gnu_cxx16__aligned_membufISt4pairIKPKcjEE6_M_ptrEv = comdat any

$_ZN9__gnu_cxx16__aligned_membufISt4pairIKPKcjEE7_M_addrEv = comdat any

$_ZNSt8_Rb_treeIPKcSt4pairIKS1_jESt10_Select1stIS4_ESt4lessIS1_ESaIS4_EE22_M_emplace_hint_uniqueIJRS1_RjEEESt17_Rb_tree_iteratorIS4_ESt23_Rb_tree_const_iteratorIS4_EDpOT_ = comdat any

$_ZNSt8_Rb_treeIPKcSt4pairIKS1_jESt10_Select1stIS4_ESt4lessIS1_ESaIS4_EE10_Auto_nodeC2IJRS1_RjEEERSA_DpOT_ = comdat any

$_ZNSt8_Rb_treeIPKcSt4pairIKS1_jESt10_Select1stIS4_ESt4lessIS1_ESaIS4_EE29_M_get_insert_hint_unique_posESt23_Rb_tree_const_iteratorIS4_ERS3_ = comdat any

$_ZNKSt8_Rb_treeIPKcSt4pairIKS1_jESt10_Select1stIS4_ESt4lessIS1_ESaIS4_EE10_Auto_node6_M_keyEv = comdat any

$_ZNSt8_Rb_treeIPKcSt4pairIKS1_jESt10_Select1stIS4_ESt4lessIS1_ESaIS4_EE10_Auto_node9_M_insertES2_IPSt18_Rb_tree_node_baseSD_E = comdat any

$_ZNSt8_Rb_treeIPKcSt4pairIKS1_jESt10_Select1stIS4_ESt4lessIS1_ESaIS4_EE10_Auto_nodeD2Ev = comdat any

$_ZNSt8_Rb_treeIPKcSt4pairIKS1_jESt10_Select1stIS4_ESt4lessIS1_ESaIS4_EE14_M_create_nodeIJRS1_RjEEEPSt13_Rb_tree_nodeIS4_EDpOT_ = comdat any

$_ZNSt8_Rb_treeIPKcSt4pairIKS1_jESt10_Select1stIS4_ESt4lessIS1_ESaIS4_EE11_M_get_nodeEv = comdat any

$_ZNSt8_Rb_treeIPKcSt4pairIKS1_jESt10_Select1stIS4_ESt4lessIS1_ESaIS4_EE17_M_construct_nodeIJRS1_RjEEEvPSt13_Rb_tree_nodeIS4_EDpOT_ = comdat any

$_ZNSt16allocator_traitsISaISt13_Rb_tree_nodeISt4pairIKPKcjEEEE8allocateERS7_m = comdat any

$_ZNSt8_Rb_treeIPKcSt4pairIKS1_jESt10_Select1stIS4_ESt4lessIS1_ESaIS4_EE21_M_get_Node_allocatorEv = comdat any

$_ZNSt15__new_allocatorISt13_Rb_tree_nodeISt4pairIKPKcjEEE8allocateEmPKv = comdat any

$_ZNKSt15__new_allocatorISt13_Rb_tree_nodeISt4pairIKPKcjEEE11_M_max_sizeEv = comdat any

$_ZNSt16allocator_traitsISaISt13_Rb_tree_nodeISt4pairIKPKcjEEEE9constructIS5_JRS3_RjEEEvRS7_PT_DpOT0_ = comdat any

$_ZNSt15__new_allocatorISt13_Rb_tree_nodeISt4pairIKPKcjEEE9constructIS5_JRS3_RjEEEvPT_DpOT0_ = comdat any

$_ZNSt4pairIKPKcjEC2IRS1_RjTnNSt9enable_ifIXaaclsr5_PCCPE22_MoveConstructiblePairIT_T0_EEclsr5_PCCPE30_ImplicitlyMoveConvertiblePairIS8_S9_EEEbE4typeELb1EEEOS8_OS9_ = comdat any

$_ZNKSt23_Rb_tree_const_iteratorISt4pairIKPKcjEE13_M_const_castEv = comdat any

$_ZNKSt8_Rb_treeIPKcSt4pairIKS1_jESt10_Select1stIS4_ESt4lessIS1_ESaIS4_EE4sizeEv = comdat any

$_ZNSt8_Rb_treeIPKcSt4pairIKS1_jESt10_Select1stIS4_ESt4lessIS1_ESaIS4_EE6_S_keyEPKSt18_Rb_tree_node_base = comdat any

$_ZNSt8_Rb_treeIPKcSt4pairIKS1_jESt10_Select1stIS4_ESt4lessIS1_ESaIS4_EE12_M_rightmostEv = comdat any

$_ZNSt4pairIPSt18_Rb_tree_node_baseS1_EC2IS1_S1_TnNSt9enable_ifIXaaclsr5_PCCPE18_ConstructiblePairIT_T0_EEclsr5_PCCPE26_ImplicitlyConvertiblePairIS5_S6_EEEbE4typeELb1EEERKS1_SA_ = comdat any

$_ZNSt8_Rb_treeIPKcSt4pairIKS1_jESt10_Select1stIS4_ESt4lessIS1_ESaIS4_EE24_M_get_insert_unique_posERS3_ = comdat any

$_ZNSt8_Rb_treeIPKcSt4pairIKS1_jESt10_Select1stIS4_ESt4lessIS1_ESaIS4_EE11_M_leftmostEv = comdat any

$_ZNSt4pairIPSt18_Rb_tree_node_baseS1_EC2IRS1_S4_TnNSt9enable_ifIXaaclsr5_PCCPE22_MoveConstructiblePairIT_T0_EEclsr5_PCCPE30_ImplicitlyMoveConvertiblePairIS6_S7_EEEbE4typeELb1EEEOS6_OS7_ = comdat any

$_ZNSt17_Rb_tree_iteratorISt4pairIKPKcjEEmmEv = comdat any

$_ZNSt17_Rb_tree_iteratorISt4pairIKPKcjEEppEv = comdat any

$_ZNSt8_Rb_treeIPKcSt4pairIKS1_jESt10_Select1stIS4_ESt4lessIS1_ESaIS4_EE5beginEv = comdat any

$_ZNSt4pairIPSt18_Rb_tree_node_baseS1_EC2IRPSt13_Rb_tree_nodeIS_IKPKcjEERS1_TnNSt9enable_ifIXaaclsr5_PCCPE22_MoveConstructiblePairIT_T0_EEclsr5_PCCPE30_ImplicitlyMoveConvertiblePairISE_SF_EEEbE4typeELb1EEEOSE_OSF_ = comdat any

$_ZNSt8_Rb_treeIPKcSt4pairIKS1_jESt10_Select1stIS4_ESt4lessIS1_ESaIS4_EE14_M_insert_nodeEPSt18_Rb_tree_node_baseSC_PSt13_Rb_tree_nodeIS4_E = comdat any

$_ZNSt8_Rb_treeIPKcSt4pairIKS1_jESt10_Select1stIS4_ESt4lessIS1_ESaIS4_EE12_M_drop_nodeEPSt13_Rb_tree_nodeIS4_E = comdat any

$_ZNSt8_Rb_treeIPKcSt4pairIKS1_jESt10_Select1stIS4_ESt4lessIS1_ESaIS4_EE15_M_destroy_nodeEPSt13_Rb_tree_nodeIS4_E = comdat any

$_ZNSt8_Rb_treeIPKcSt4pairIKS1_jESt10_Select1stIS4_ESt4lessIS1_ESaIS4_EE11_M_put_nodeEPSt13_Rb_tree_nodeIS4_E = comdat any

$_ZNSt16allocator_traitsISaISt13_Rb_tree_nodeISt4pairIKPKcjEEEE7destroyIS5_EEvRS7_PT_ = comdat any

$_ZNSt15__new_allocatorISt13_Rb_tree_nodeISt4pairIKPKcjEEE7destroyIS5_EEvPT_ = comdat any

$_ZNSt16allocator_traitsISaISt13_Rb_tree_nodeISt4pairIKPKcjEEEE10deallocateERS7_PS6_m = comdat any

$_ZNSt15__new_allocatorISt13_Rb_tree_nodeISt4pairIKPKcjEEE10deallocateEPS6_m = comdat any

$_ZNSt15__uniq_ptr_dataIN4llvh12MemoryBufferESt14default_deleteIS1_ELb1ELb1EEC2EOS4_ = comdat any

$_ZNSt15__uniq_ptr_implIN4llvh12MemoryBufferESt14default_deleteIS1_EEC2EOS4_ = comdat any

$_ZNSt5tupleIJPN4llvh12MemoryBufferESt14default_deleteIS1_EEEC2EOS5_ = comdat any

$_ZNSt11_Tuple_implILm0EJPN4llvh12MemoryBufferESt14default_deleteIS1_EEEC2EOS5_ = comdat any

$_ZNSt11_Tuple_implILm1EJSt14default_deleteIN4llvh12MemoryBufferEEEEC2EOS4_ = comdat any

$_ZNSt6vectorISt4pairIN4llvh9StringRefEjESaIS3_EEC2Ev = comdat any

$_ZNSt3mapIN4llvh9StringRefEjSt4lessIS1_ESaISt4pairIKS1_jEEEC2Ev = comdat any

$_ZNSt12_Vector_baseISt4pairIN4llvh9StringRefEjESaIS3_EEC2Ev = comdat any

$_ZNSt12_Vector_baseISt4pairIN4llvh9StringRefEjESaIS3_EE12_Vector_implC2Ev = comdat any

$_ZNSaISt4pairIN4llvh9StringRefEjEEC2Ev = comdat any

$_ZNSt12_Vector_baseISt4pairIN4llvh9StringRefEjESaIS3_EE17_Vector_impl_dataC2Ev = comdat any

$_ZNSt15__new_allocatorISt4pairIN4llvh9StringRefEjEEC2Ev = comdat any

$_ZNSt8_Rb_treeIN4llvh9StringRefESt4pairIKS1_jESt10_Select1stIS4_ESt4lessIS1_ESaIS4_EEC2Ev = comdat any

$_ZNSt8_Rb_treeIN4llvh9StringRefESt4pairIKS1_jESt10_Select1stIS4_ESt4lessIS1_ESaIS4_EE13_Rb_tree_implIS8_Lb1EEC2Ev = comdat any

$_ZNSaISt13_Rb_tree_nodeISt4pairIKN4llvh9StringRefEjEEEC2Ev = comdat any

$_ZNSt20_Rb_tree_key_compareISt4lessIN4llvh9StringRefEEEC2Ev = comdat any

$_ZNSt15_Rb_tree_headerC2Ev = comdat any

$_ZNSt15__new_allocatorISt13_Rb_tree_nodeISt4pairIKN4llvh9StringRefEjEEEC2Ev = comdat any

$_ZNSt15_Rb_tree_header8_M_resetEv = comdat any

$_ZNSt3mapIN4llvh9StringRefEjSt4lessIS1_ESaISt4pairIKS1_jEEED2Ev = comdat any

$_ZNSt6vectorISt4pairIN4llvh9StringRefEjESaIS3_EED2Ev = comdat any

$_ZNSt8_Rb_treeIN4llvh9StringRefESt4pairIKS1_jESt10_Select1stIS4_ESt4lessIS1_ESaIS4_EED2Ev = comdat any

$_ZNSt8_Rb_treeIN4llvh9StringRefESt4pairIKS1_jESt10_Select1stIS4_ESt4lessIS1_ESaIS4_EE8_M_eraseEPSt13_Rb_tree_nodeIS4_E = comdat any

$_ZNSt8_Rb_treeIN4llvh9StringRefESt4pairIKS1_jESt10_Select1stIS4_ESt4lessIS1_ESaIS4_EE8_M_beginEv = comdat any

$_ZNSt8_Rb_treeIN4llvh9StringRefESt4pairIKS1_jESt10_Select1stIS4_ESt4lessIS1_ESaIS4_EE13_Rb_tree_implIS8_Lb1EED2Ev = comdat any

$_ZNSt8_Rb_treeIN4llvh9StringRefESt4pairIKS1_jESt10_Select1stIS4_ESt4lessIS1_ESaIS4_EE8_S_rightEPSt18_Rb_tree_node_base = comdat any

$_ZNSt8_Rb_treeIN4llvh9StringRefESt4pairIKS1_jESt10_Select1stIS4_ESt4lessIS1_ESaIS4_EE7_S_leftEPSt18_Rb_tree_node_base = comdat any

$_ZNSt8_Rb_treeIN4llvh9StringRefESt4pairIKS1_jESt10_Select1stIS4_ESt4lessIS1_ESaIS4_EE12_M_drop_nodeEPSt13_Rb_tree_nodeIS4_E = comdat any

$_ZNSt8_Rb_treeIN4llvh9StringRefESt4pairIKS1_jESt10_Select1stIS4_ESt4lessIS1_ESaIS4_EE15_M_destroy_nodeEPSt13_Rb_tree_nodeIS4_E = comdat any

$_ZNSt8_Rb_treeIN4llvh9StringRefESt4pairIKS1_jESt10_Select1stIS4_ESt4lessIS1_ESaIS4_EE11_M_put_nodeEPSt13_Rb_tree_nodeIS4_E = comdat any

$_ZNSt16allocator_traitsISaISt13_Rb_tree_nodeISt4pairIKN4llvh9StringRefEjEEEE7destroyIS5_EEvRS7_PT_ = comdat any

$_ZNSt8_Rb_treeIN4llvh9StringRefESt4pairIKS1_jESt10_Select1stIS4_ESt4lessIS1_ESaIS4_EE21_M_get_Node_allocatorEv = comdat any

$_ZNSt13_Rb_tree_nodeISt4pairIKN4llvh9StringRefEjEE9_M_valptrEv = comdat any

$_ZNSt15__new_allocatorISt13_Rb_tree_nodeISt4pairIKN4llvh9StringRefEjEEE7destroyIS5_EEvPT_ = comdat any

$_ZN9__gnu_cxx16__aligned_membufISt4pairIKN4llvh9StringRefEjEE6_M_ptrEv = comdat any

$_ZN9__gnu_cxx16__aligned_membufISt4pairIKN4llvh9StringRefEjEE7_M_addrEv = comdat any

$_ZNSt16allocator_traitsISaISt13_Rb_tree_nodeISt4pairIKN4llvh9StringRefEjEEEE10deallocateERS7_PS6_m = comdat any

$_ZNSt15__new_allocatorISt13_Rb_tree_nodeISt4pairIKN4llvh9StringRefEjEEE10deallocateEPS6_m = comdat any

$_ZNKSt8_Rb_treeIN4llvh9StringRefESt4pairIKS1_jESt10_Select1stIS4_ESt4lessIS1_ESaIS4_EE9_M_mbeginEv = comdat any

$_ZNSt15__new_allocatorISt13_Rb_tree_nodeISt4pairIKN4llvh9StringRefEjEEED2Ev = comdat any

$_ZSt8_DestroyIPSt4pairIN4llvh9StringRefEjES3_EvT_S5_RSaIT0_E = comdat any

$_ZNSt12_Vector_baseISt4pairIN4llvh9StringRefEjESaIS3_EE19_M_get_Tp_allocatorEv = comdat any

$_ZNSt12_Vector_baseISt4pairIN4llvh9StringRefEjESaIS3_EED2Ev = comdat any

$_ZSt8_DestroyIPSt4pairIN4llvh9StringRefEjEEvT_S5_ = comdat any

$_ZNSt12_Destroy_auxILb1EE9__destroyIPSt4pairIN4llvh9StringRefEjEEEvT_S7_ = comdat any

$_ZNSt12_Vector_baseISt4pairIN4llvh9StringRefEjESaIS3_EE13_M_deallocateEPS3_m = comdat any

$_ZNSt12_Vector_baseISt4pairIN4llvh9StringRefEjESaIS3_EE12_Vector_implD2Ev = comdat any

$_ZNSt16allocator_traitsISaISt4pairIN4llvh9StringRefEjEEE10deallocateERS4_PS3_m = comdat any

$_ZNSt15__new_allocatorISt4pairIN4llvh9StringRefEjEE10deallocateEPS3_m = comdat any

$_ZNSt15__new_allocatorISt4pairIN4llvh9StringRefEjEED2Ev = comdat any

$_ZN4llvh11SmallVectorINS_9StringRefELj2EEC2Ev = comdat any

$_ZN4llvh15SmallVectorImplINS_9StringRefEE5clearEv = comdat any

$_ZNK4llvh9StringRef5countEc = comdat any

$_ZN4llvh11SmallVectorINS_9StringRefELj2EED2Ev = comdat any

$_ZN4llvh15SmallVectorImplINS_9StringRefEEC2Ej = comdat any

$_ZN4llvh23SmallVectorTemplateBaseINS_9StringRefELb1EEC2Em = comdat any

$_ZN4llvh25SmallVectorTemplateCommonINS_9StringRefEvEC2Em = comdat any

$_ZNK4llvh25SmallVectorTemplateCommonINS_9StringRefEvE10getFirstElEv = comdat any

$_ZN4llvh23SmallVectorTemplateBaseINS_9StringRefELb1EE13destroy_rangeEPS1_S3_ = comdat any

$_ZN4llvh15SmallVectorImplINS_9StringRefEED2Ev = comdat any

$_ZNK4llvh25SmallVectorTemplateCommonINS_9StringRefEvE7isSmallEv = comdat any

$_ZNKSt3mapIN4llvh9StringRefEjSt4lessIS1_ESaISt4pairIKS1_jEEE5emptyEv = comdat any

$_ZNKSt8_Rb_treeIN4llvh9StringRefESt4pairIKS1_jESt10_Select1stIS4_ESt4lessIS1_ESaIS4_EE5emptyEv = comdat any

$_ZNSt12_Vector_baseIPKN4llvh16FileCheckPatternESaIS3_EEC2Ev = comdat any

$_ZNSt12_Vector_baseIPKN4llvh16FileCheckPatternESaIS3_EE12_Vector_implC2Ev = comdat any

$_ZNSaIPKN4llvh16FileCheckPatternEEC2Ev = comdat any

$_ZNSt12_Vector_baseIPKN4llvh16FileCheckPatternESaIS3_EE17_Vector_impl_dataC2Ev = comdat any

$_ZNSt15__new_allocatorIPKN4llvh16FileCheckPatternEEC2Ev = comdat any

$_ZNK4llvh9StringRef5beginEv = comdat any

$_ZN4llvh5TwineC2ERKNS_9StringRefEPKc = comdat any

$_ZStplIcSt11char_traitsIcESaIcEENSt7__cxx1112basic_stringIT_T0_T1_EEOS8_PKS5_ = comdat any

$_ZN4llvh7SMRangeC2ENS_8NoneTypeE = comdat any

$_ZNK4llvh9StringRefcvNSt7__cxx1112basic_stringIcSt11char_traitsIcESaIcEEEEv = comdat any

$_ZNSt8__detail17_List_node_headerC2Ev = comdat any

$_ZNSt8__detail17_List_node_header7_M_initEv = comdat any

$_ZSt7advanceIN9__gnu_cxx17__normal_iteratorIPKN4llvh16FileCheckPatternESt6vectorIS3_SaIS3_EEEElEvRT_T0_ = comdat any

$_ZSt9__advanceIN9__gnu_cxx17__normal_iteratorIPKN4llvh16FileCheckPatternESt6vectorIS3_SaIS3_EEEElEvRT_T0_St26random_access_iterator_tag = comdat any

$_ZSt19__iterator_categoryIN9__gnu_cxx17__normal_iteratorIPKN4llvh16FileCheckPatternESt6vectorIS3_SaIS3_EEEEENSt15iterator_traitsIT_E17iterator_categoryERKSB_ = comdat any

$_ZN9__gnu_cxx17__normal_iteratorIPKN4llvh16FileCheckPatternESt6vectorIS2_SaIS2_EEEmmEv = comdat any

$_ZN9__gnu_cxx17__normal_iteratorIPKN4llvh16FileCheckPatternESt6vectorIS2_SaIS2_EEEpLEl = comdat any

$_ZN4llvh9StringMapIcNS_15MallocAllocatorEEC2Ev = comdat any

$_ZN4llvh13StringMapImplC2Ej = comdat any

$_ZN4llvh9StringMapIcNS_15MallocAllocatorEED2Ev = comdat any

$_ZNK4llvh13StringMapImpl5emptyEv = comdat any

$_ZN4llvh13StringMapImpl15getTombstoneValEv = comdat any

$_ZN4llvh14StringMapEntryIcE7DestroyINS_15MallocAllocatorEEEvRT_ = comdat any

$_ZNK4llvh18StringMapEntryBase12getKeyLengthEv = comdat any

$_ZN4llvh15MallocAllocator10DeallocateEPKvm = comdat any

$_ZN4llvh11SmallVectorIcLj32EEC2Ev = comdat any

$_ZN4llvh11SmallVectorIcLj32EED2Ev = comdat any

$_ZN4llvh11SmallVectorINS_9StringRefELj16EEC2Ev = comdat any

$_ZN4llvh9StringMapINS_9StringRefENS_15MallocAllocatorEE5beginEv = comdat any

$_ZNK4llvh20iterator_facade_baseINS_17StringMapIteratorINS_9StringRefEEESt20forward_iterator_tagNS_14StringMapEntryIS2_EElPS6_RS6_EneERKS3_ = comdat any

$_ZNK4llvh17StringMapIteratorINS_9StringRefEEdeEv = comdat any

$_ZNK4llvh14StringMapEntryINS_9StringRefEE5firstEv = comdat any

$_ZN4llvh23SmallVectorTemplateBaseINS_9StringRefELb1EE9push_backERKS1_ = comdat any

$_ZN4llvh17StringMapIterBaseINS_17StringMapIteratorINS_9StringRefEEENS_14StringMapEntryIS2_EEEppEv = comdat any

$_ZN4llvh9StringMapINS_9StringRefENS_15MallocAllocatorEE5eraseES1_ = comdat any

$_ZN4llvh11SmallVectorINS_9StringRefELj16EED2Ev = comdat any

$_ZN4llvh17StringMapIteratorINS_9StringRefEEC2EPPNS_18StringMapEntryBaseEb = comdat any

$_ZN4llvh17StringMapIterBaseINS_17StringMapIteratorINS_9StringRefEEENS_14StringMapEntryIS2_EEEC2EPPNS_18StringMapEntryBaseEb = comdat any

$_ZN4llvh17StringMapIterBaseINS_17StringMapIteratorINS_9StringRefEEENS_14StringMapEntryIS2_EEE23AdvancePastEmptyBucketsEv = comdat any

$_ZNK4llvh14StringMapEntryINS_9StringRefEE10getKeyDataEv = comdat any

$_ZNK4llvh15SmallVectorBase8capacityEv = comdat any

$_ZN4llvh23SmallVectorTemplateBaseINS_9StringRefELb1EE4growEm = comdat any

$_ZN4llvh15SmallVectorBase8set_sizeEm = comdat any

$_ZN4llvh25SmallVectorTemplateCommonINS_9StringRefEvE8grow_podEmm = comdat any

$_ZN4llvh9StringMapINS_9StringRefENS_15MallocAllocatorEE5eraseENS_17StringMapIteratorIS1_EE = comdat any

$_ZN4llvh9StringMapINS_9StringRefENS_15MallocAllocatorEE6removeEPNS_14StringMapEntryIS1_EE = comdat any

$_ZN4llvh14StringMapEntryINS_9StringRefEE7DestroyINS_15MallocAllocatorEEEvRT_ = comdat any

$_ZNKSt10unique_ptrIN4llvh12MemoryBufferESt14default_deleteIS1_EE3getEv = comdat any

$_ZNKSt15__uniq_ptr_implIN4llvh12MemoryBufferESt14default_deleteIS1_EE6_M_ptrEv = comdat any

$_ZSt3getILm0EJPN4llvh12MemoryBufferESt14default_deleteIS1_EEERKNSt13tuple_elementIXT_ESt5tupleIJDpT0_EEE4typeERKS9_ = comdat any

$_ZSt12__get_helperILm0EPN4llvh12MemoryBufferEJSt14default_deleteIS1_EEERKT0_RKSt11_Tuple_implIXT_EJS5_DpT1_EE = comdat any

$_ZNSt11_Tuple_implILm0EJPN4llvh12MemoryBufferESt14default_deleteIS1_EEE7_M_headERKS5_ = comdat any

$_ZNSt10_Head_baseILm0EPN4llvh12MemoryBufferELb0EE7_M_headERKS3_ = comdat any

$_ZNSt10unique_ptrIN4llvh12MemoryBufferESt14default_deleteIS1_EE11get_deleterEv = comdat any

$_ZN9__gnu_cxxeqIPKSt4pairIN4llvh9StringRefEjESt6vectorIS4_SaIS4_EEEEbRKNS_17__normal_iteratorIT_T0_EESF_ = comdat any

$_ZNK9__gnu_cxx17__normal_iteratorIPKSt4pairIN4llvh9StringRefEjESt6vectorIS4_SaIS4_EEE4baseEv = comdat any

$_ZSt8_DestroyIPN4llvh16FileCheckPatternES1_EvT_S3_RSaIT0_E = comdat any

$_ZNSt12_Vector_baseIN4llvh16FileCheckPatternESaIS1_EE19_M_get_Tp_allocatorEv = comdat any

$_ZNSt12_Vector_baseIN4llvh16FileCheckPatternESaIS1_EED2Ev = comdat any

$_ZSt8_DestroyIPN4llvh16FileCheckPatternEEvT_S3_ = comdat any

$_ZNSt12_Destroy_auxILb0EE9__destroyIPN4llvh16FileCheckPatternEEEvT_S5_ = comdat any

$_ZSt8_DestroyIN4llvh16FileCheckPatternEEvPT_ = comdat any

$_ZNSt12_Vector_baseIN4llvh16FileCheckPatternESaIS1_EE13_M_deallocateEPS1_m = comdat any

$_ZNSt12_Vector_baseIN4llvh16FileCheckPatternESaIS1_EE12_Vector_implD2Ev = comdat any

$_ZNSt16allocator_traitsISaIN4llvh16FileCheckPatternEEE10deallocateERS2_PS1_m = comdat any

$_ZNSt15__new_allocatorIN4llvh16FileCheckPatternEE10deallocateEPS1_m = comdat any

$_ZNSt15__new_allocatorIN4llvh16FileCheckPatternEED2Ev = comdat any

$_ZNSt8_Rb_treeIN4llvh9StringRefESt4pairIKS1_jESt10_Select1stIS4_ESt4lessIS1_ESaIS4_EE4findERS3_ = comdat any

$_ZNSt8_Rb_treeIN4llvh9StringRefESt4pairIKS1_jESt10_Select1stIS4_ESt4lessIS1_ESaIS4_EE14_M_lower_boundEPSt13_Rb_tree_nodeIS4_EPSt18_Rb_tree_node_baseRS3_ = comdat any

$_ZNSt8_Rb_treeIN4llvh9StringRefESt4pairIKS1_jESt10_Select1stIS4_ESt4lessIS1_ESaIS4_EE6_M_endEv = comdat any

$_ZSteqRKSt17_Rb_tree_iteratorISt4pairIKN4llvh9StringRefEjEES7_ = comdat any

$_ZNSt8_Rb_treeIN4llvh9StringRefESt4pairIKS1_jESt10_Select1stIS4_ESt4lessIS1_ESaIS4_EE3endEv = comdat any

$_ZNKSt4lessIN4llvh9StringRefEEclERKS1_S4_ = comdat any

$_ZNSt8_Rb_treeIN4llvh9StringRefESt4pairIKS1_jESt10_Select1stIS4_ESt4lessIS1_ESaIS4_EE6_S_keyEPKSt18_Rb_tree_node_base = comdat any

$_ZNSt8_Rb_treeIN4llvh9StringRefESt4pairIKS1_jESt10_Select1stIS4_ESt4lessIS1_ESaIS4_EE6_S_keyEPKSt13_Rb_tree_nodeIS4_E = comdat any

$_ZNSt17_Rb_tree_iteratorISt4pairIKN4llvh9StringRefEjEEC2EPSt18_Rb_tree_node_base = comdat any

$_ZNKSt10_Select1stISt4pairIKN4llvh9StringRefEjEEclERKS4_ = comdat any

$_ZNKSt13_Rb_tree_nodeISt4pairIKN4llvh9StringRefEjEE9_M_valptrEv = comdat any

$_ZNK9__gnu_cxx16__aligned_membufISt4pairIKN4llvh9StringRefEjEE6_M_ptrEv = comdat any

$_ZNK9__gnu_cxx16__aligned_membufISt4pairIKN4llvh9StringRefEjEE7_M_addrEv = comdat any

$_ZN4llvhltENS_9StringRefES0_ = comdat any

$_ZNSt3mapIN4llvh9StringRefEjSt4lessIS1_ESaISt4pairIKS1_jEEE11lower_boundERS5_ = comdat any

$_ZNKSt3mapIN4llvh9StringRefEjSt4lessIS1_ESaISt4pairIKS1_jEEE8key_compEv = comdat any

$_ZNKSt17_Rb_tree_iteratorISt4pairIKN4llvh9StringRefEjEEdeEv = comdat any

$_ZNSt8_Rb_treeIN4llvh9StringRefESt4pairIKS1_jESt10_Select1stIS4_ESt4lessIS1_ESaIS4_EE22_M_emplace_hint_uniqueIJRKSt21piecewise_construct_tSt5tupleIJRS3_EESF_IJEEEEESt17_Rb_tree_iteratorIS4_ESt23_Rb_tree_const_iteratorIS4_EDpOT_ = comdat any

$_ZNSt23_Rb_tree_const_iteratorISt4pairIKN4llvh9StringRefEjEEC2ERKSt17_Rb_tree_iteratorIS4_E = comdat any

$_ZNSt5tupleIJRKN4llvh9StringRefEEEC2ILb1ETnNSt9enable_ifIXclsr4_TCCIXT_EEE29__is_implicitly_constructibleIS3_EEEbE4typeELb1EEES3_ = comdat any

$_ZNSt8_Rb_treeIN4llvh9StringRefESt4pairIKS1_jESt10_Select1stIS4_ESt4lessIS1_ESaIS4_EE11lower_boundERS3_ = comdat any

$_ZNKSt8_Rb_treeIN4llvh9StringRefESt4pairIKS1_jESt10_Select1stIS4_ESt4lessIS1_ESaIS4_EE8key_compEv = comdat any

$_ZNSt8_Rb_treeIN4llvh9StringRefESt4pairIKS1_jESt10_Select1stIS4_ESt4lessIS1_ESaIS4_EE10_Auto_nodeC2IJRKSt21piecewise_construct_tSt5tupleIJRS3_EESG_IJEEEEERSA_DpOT_ = comdat any

$_ZNSt8_Rb_treeIN4llvh9StringRefESt4pairIKS1_jESt10_Select1stIS4_ESt4lessIS1_ESaIS4_EE29_M_get_insert_hint_unique_posESt23_Rb_tree_const_iteratorIS4_ERS3_ = comdat any

$_ZNKSt8_Rb_treeIN4llvh9StringRefESt4pairIKS1_jESt10_Select1stIS4_ESt4lessIS1_ESaIS4_EE10_Auto_node6_M_keyEv = comdat any

$_ZNSt8_Rb_treeIN4llvh9StringRefESt4pairIKS1_jESt10_Select1stIS4_ESt4lessIS1_ESaIS4_EE10_Auto_node9_M_insertES2_IPSt18_Rb_tree_node_baseSD_E = comdat any

$_ZNSt8_Rb_treeIN4llvh9StringRefESt4pairIKS1_jESt10_Select1stIS4_ESt4lessIS1_ESaIS4_EE10_Auto_nodeD2Ev = comdat any

$_ZNSt8_Rb_treeIN4llvh9StringRefESt4pairIKS1_jESt10_Select1stIS4_ESt4lessIS1_ESaIS4_EE14_M_create_nodeIJRKSt21piecewise_construct_tSt5tupleIJRS3_EESF_IJEEEEEPSt13_Rb_tree_nodeIS4_EDpOT_ = comdat any

$_ZNSt8_Rb_treeIN4llvh9StringRefESt4pairIKS1_jESt10_Select1stIS4_ESt4lessIS1_ESaIS4_EE11_M_get_nodeEv = comdat any

$_ZNSt8_Rb_treeIN4llvh9StringRefESt4pairIKS1_jESt10_Select1stIS4_ESt4lessIS1_ESaIS4_EE17_M_construct_nodeIJRKSt21piecewise_construct_tSt5tupleIJRS3_EESF_IJEEEEEvPSt13_Rb_tree_nodeIS4_EDpOT_ = comdat any

$_ZNSt16allocator_traitsISaISt13_Rb_tree_nodeISt4pairIKN4llvh9StringRefEjEEEE8allocateERS7_m = comdat any

$_ZNSt15__new_allocatorISt13_Rb_tree_nodeISt4pairIKN4llvh9StringRefEjEEE8allocateEmPKv = comdat any

$_ZNKSt15__new_allocatorISt13_Rb_tree_nodeISt4pairIKN4llvh9StringRefEjEEE11_M_max_sizeEv = comdat any

$_ZNSt16allocator_traitsISaISt13_Rb_tree_nodeISt4pairIKN4llvh9StringRefEjEEEE9constructIS5_JRKSt21piecewise_construct_tSt5tupleIJRS4_EESD_IJEEEEEvRS7_PT_DpOT0_ = comdat any

$_ZNSt15__new_allocatorISt13_Rb_tree_nodeISt4pairIKN4llvh9StringRefEjEEE9constructIS5_JRKSt21piecewise_construct_tSt5tupleIJRS4_EESC_IJEEEEEvPT_DpOT0_ = comdat any

$_ZNSt5tupleIJRKN4llvh9StringRefEEEC2EOS4_ = comdat any

$_ZNSt4pairIKN4llvh9StringRefEjEC2IJRS2_EJEEESt21piecewise_construct_tSt5tupleIJDpT_EES7_IJDpT0_EE = comdat any

$_ZNSt11_Tuple_implILm0EJRKN4llvh9StringRefEEEC2EOS4_ = comdat any

$_ZNSt4pairIKN4llvh9StringRefEjEC2IJRS2_EJLm0EEJETpTnmJEEERSt5tupleIJDpT_EERS6_IJDpT1_EESt12_Index_tupleIJXspT0_EEESF_IJXspT2_EEE = comdat any

$_ZSt3getILm0EJRKN4llvh9StringRefEEERNSt13tuple_elementIXT_ESt5tupleIJDpT0_EEE4typeERS8_ = comdat any

$_ZSt12__get_helperILm0ERKN4llvh9StringRefEJEERT0_RSt11_Tuple_implIXT_EJS4_DpT1_EE = comdat any

$_ZNSt11_Tuple_implILm0EJRKN4llvh9StringRefEEE7_M_headERS4_ = comdat any

$_ZNSt10_Head_baseILm0ERKN4llvh9StringRefELb0EE7_M_headERS4_ = comdat any

$_ZNKSt23_Rb_tree_const_iteratorISt4pairIKN4llvh9StringRefEjEE13_M_const_castEv = comdat any

$_ZNKSt8_Rb_treeIN4llvh9StringRefESt4pairIKS1_jESt10_Select1stIS4_ESt4lessIS1_ESaIS4_EE4sizeEv = comdat any

$_ZNSt8_Rb_treeIN4llvh9StringRefESt4pairIKS1_jESt10_Select1stIS4_ESt4lessIS1_ESaIS4_EE12_M_rightmostEv = comdat any

$_ZNSt8_Rb_treeIN4llvh9StringRefESt4pairIKS1_jESt10_Select1stIS4_ESt4lessIS1_ESaIS4_EE24_M_get_insert_unique_posERS3_ = comdat any

$_ZNSt8_Rb_treeIN4llvh9StringRefESt4pairIKS1_jESt10_Select1stIS4_ESt4lessIS1_ESaIS4_EE11_M_leftmostEv = comdat any

$_ZNSt17_Rb_tree_iteratorISt4pairIKN4llvh9StringRefEjEEmmEv = comdat any

$_ZNSt17_Rb_tree_iteratorISt4pairIKN4llvh9StringRefEjEEppEv = comdat any

$_ZNSt8_Rb_treeIN4llvh9StringRefESt4pairIKS1_jESt10_Select1stIS4_ESt4lessIS1_ESaIS4_EE5beginEv = comdat any

$_ZNSt4pairIPSt18_Rb_tree_node_baseS1_EC2IRPSt13_Rb_tree_nodeIS_IKN4llvh9StringRefEjEERS1_TnNSt9enable_ifIXaaclsr5_PCCPE22_MoveConstructiblePairIT_T0_EEclsr5_PCCPE30_ImplicitlyMoveConvertiblePairISE_SF_EEEbE4typeELb1EEEOSE_OSF_ = comdat any

$_ZNSt8_Rb_treeIN4llvh9StringRefESt4pairIKS1_jESt10_Select1stIS4_ESt4lessIS1_ESaIS4_EE14_M_insert_nodeEPSt18_Rb_tree_node_baseSC_PSt13_Rb_tree_nodeIS4_E = comdat any

$_ZNSt11_Tuple_implILm0EJRKN4llvh9StringRefEEEC2ES3_ = comdat any

$_ZNSt10_Head_baseILm0ERKN4llvh9StringRefELb0EEC2ES3_ = comdat any

$_ZNSt6vectorISt4pairIN4llvh9StringRefEjESaIS3_EE12emplace_backIJS3_EEERS3_DpOT_ = comdat any

$_ZNSt16allocator_traitsISaISt4pairIN4llvh9StringRefEjEEE9constructIS3_JS3_EEEvRS4_PT_DpOT0_ = comdat any

$_ZNSt6vectorISt4pairIN4llvh9StringRefEjESaIS3_EE17_M_realloc_insertIJS3_EEEvN9__gnu_cxx17__normal_iteratorIPS3_S5_EEDpOT_ = comdat any

$_ZNSt6vectorISt4pairIN4llvh9StringRefEjESaIS3_EE3endEv = comdat any

$_ZNSt6vectorISt4pairIN4llvh9StringRefEjESaIS3_EE4backEv = comdat any

$_ZNSt15__new_allocatorISt4pairIN4llvh9StringRefEjEE9constructIS3_JS3_EEEvPT_DpOT0_ = comdat any

$_ZNKSt6vectorISt4pairIN4llvh9StringRefEjESaIS3_EE12_M_check_lenEmPKc = comdat any

$_ZN9__gnu_cxxmiIPSt4pairIN4llvh9StringRefEjESt6vectorIS4_SaIS4_EEEENS_17__normal_iteratorIT_T0_E15difference_typeERKSC_SF_ = comdat any

$_ZNSt6vectorISt4pairIN4llvh9StringRefEjESaIS3_EE5beginEv = comdat any

$_ZNSt12_Vector_baseISt4pairIN4llvh9StringRefEjESaIS3_EE11_M_allocateEm = comdat any

$_ZNSt6vectorISt4pairIN4llvh9StringRefEjESaIS3_EE11_S_relocateEPS3_S6_S6_RS4_ = comdat any

$_ZNK9__gnu_cxx17__normal_iteratorIPSt4pairIN4llvh9StringRefEjESt6vectorIS4_SaIS4_EEE4baseEv = comdat any

$_ZNKSt6vectorISt4pairIN4llvh9StringRefEjESaIS3_EE8max_sizeEv = comdat any

$_ZNKSt6vectorISt4pairIN4llvh9StringRefEjESaIS3_EE4sizeEv = comdat any

$_ZNSt6vectorISt4pairIN4llvh9StringRefEjESaIS3_EE11_S_max_sizeERKS4_ = comdat any

$_ZNKSt12_Vector_baseISt4pairIN4llvh9StringRefEjESaIS3_EE19_M_get_Tp_allocatorEv = comdat any

$_ZNSt16allocator_traitsISaISt4pairIN4llvh9StringRefEjEEE8max_sizeERKS4_ = comdat any

$_ZNKSt15__new_allocatorISt4pairIN4llvh9StringRefEjEE8max_sizeEv = comdat any

$_ZNKSt15__new_allocatorISt4pairIN4llvh9StringRefEjEE11_M_max_sizeEv = comdat any

$_ZN9__gnu_cxx17__normal_iteratorIPSt4pairIN4llvh9StringRefEjESt6vectorIS4_SaIS4_EEEC2ERKS5_ = comdat any

$_ZNSt16allocator_traitsISaISt4pairIN4llvh9StringRefEjEEE8allocateERS4_m = comdat any

$_ZNSt15__new_allocatorISt4pairIN4llvh9StringRefEjEE8allocateEmPKv = comdat any

$_ZSt12__relocate_aIPSt4pairIN4llvh9StringRefEjES4_SaIS3_EET0_T_S7_S6_RT1_ = comdat any

$_ZSt14__relocate_a_1IPSt4pairIN4llvh9StringRefEjES4_SaIS3_EET0_T_S7_S6_RT1_ = comdat any

$_ZSt12__niter_baseIPSt4pairIN4llvh9StringRefEjEET_S5_ = comdat any

$_ZSt19__relocate_object_aISt4pairIN4llvh9StringRefEjES3_SaIS3_EEvPT_PT0_RT1_ = comdat any

$_ZNSt16allocator_traitsISaISt4pairIN4llvh9StringRefEjEEE7destroyIS3_EEvRS4_PT_ = comdat any

$_ZNSt15__new_allocatorISt4pairIN4llvh9StringRefEjEE7destroyIS3_EEvPT_ = comdat any

$_ZNK9__gnu_cxx17__normal_iteratorIPSt4pairIN4llvh9StringRefEjESt6vectorIS4_SaIS4_EEEmiEl = comdat any

$_ZNK9__gnu_cxx17__normal_iteratorIPSt4pairIN4llvh9StringRefEjESt6vectorIS4_SaIS4_EEEdeEv = comdat any

$_ZNSt11char_traitsIcE6lengthEPKc = comdat any

$_ZN9__gnu_cxx14__alloc_traitsISaIcEcE17_S_select_on_copyERKS1_ = comdat any

$_ZNSt16allocator_traitsISaIcEE37select_on_container_copy_constructionERKS0_ = comdat any

$_ZNSt7__cxx1112basic_stringIcSt11char_traitsIcESaIcEE12_M_constructIPKcEEvT_S8_St20forward_iterator_tag = comdat any

$_ZSt8distanceIPKcENSt15iterator_traitsIT_E15difference_typeES3_S3_ = comdat any

$_ZZNSt7__cxx1112basic_stringIcSt11char_traitsIcESaIcEE12_M_constructIPKcEEvT_S8_St20forward_iterator_tagEN6_GuardC2EPS4_ = comdat any

$_ZZNSt7__cxx1112basic_stringIcSt11char_traitsIcESaIcEE12_M_constructIPKcEEvT_S8_St20forward_iterator_tagEN6_GuardD2Ev = comdat any

$_ZSt10__distanceIPKcENSt15iterator_traitsIT_E15difference_typeES3_S3_St26random_access_iterator_tag = comdat any

$_ZSt19__iterator_categoryIPKcENSt15iterator_traitsIT_E17iterator_categoryERKS3_ = comdat any

$_ZN9__gnu_cxx17__normal_iteratorIPKSt4pairIN4llvh9StringRefEjESt6vectorIS4_SaIS4_EEEC2ERKS6_ = comdat any

$_ZN9__gnu_cxx17__normal_iteratorIPcNSt7__cxx1112basic_stringIcSt11char_traitsIcESaIcEEEEC2ERKS1_ = comdat any

$_ZN9__gnu_cxxmiIPKcPcNSt7__cxx1112basic_stringIcSt11char_traitsIcESaIcEEEEEDTmicldtfp_4baseEcldtfp0_4baseEERKNS_17__normal_iteratorIT_T1_EERKNSB_IT0_SD_EE = comdat any

$_ZNK9__gnu_cxx17__normal_iteratorIPKcNSt7__cxx1112basic_stringIcSt11char_traitsIcESaIcEEEE4baseEv = comdat any

$_ZNK9__gnu_cxx17__normal_iteratorIPcNSt7__cxx1112basic_stringIcSt11char_traitsIcESaIcEEEE4baseEv = comdat any

$_ZNKSt8_Rb_treeIN4llvh9StringRefESt4pairIKS1_jESt10_Select1stIS4_ESt4lessIS1_ESaIS4_EE5beginEv = comdat any

$_ZNSt23_Rb_tree_const_iteratorISt4pairIKN4llvh9StringRefEjEEC2EPKSt18_Rb_tree_node_base = comdat any

$_ZNKSt8_Rb_treeIN4llvh9StringRefESt4pairIKS1_jESt10_Select1stIS4_ESt4lessIS1_ESaIS4_EE3endEv = comdat any

$_ZN4llvh9StringMapINS_9StringRefENS_15MallocAllocatorEE11try_emplaceIJEEESt4pairINS_17StringMapIteratorIS1_EEbES1_DpOT_ = comdat any

$_ZSt9make_pairIN4llvh17StringMapIteratorINS0_9StringRefEEEbESt4pairINSt25__strip_reference_wrapperINSt5decayIT_E4typeEE6__typeENS5_INS6_IT0_E4typeEE6__typeEEOS7_OSC_ = comdat any

$_ZN4llvh14StringMapEntryINS_9StringRefEE6CreateINS_15MallocAllocatorEJEEEPS2_S1_RT_DpOT0_ = comdat any

$_ZNSt4pairIN4llvh17StringMapIteratorINS0_9StringRefEEEbEC2IS3_bTnNSt9enable_ifIXaaclsr5_PCCPE22_MoveConstructiblePairIT_T0_EEclsr5_PCCPE30_ImplicitlyMoveConvertiblePairIS7_S8_EEEbE4typeELb1EEEOS7_OS8_ = comdat any

$_ZN4llvh15MallocAllocator8AllocateEmm = comdat any

$_ZN4llvh14StringMapEntryINS_9StringRefEEC2Em = comdat any

$_ZN4llvh11safe_mallocEm = comdat any

$_ZN4llvh18StringMapEntryBaseC2Em = comdat any

$_ZN4llvh22StringMapConstIteratorINS_9StringRefEEC2EPPNS_18StringMapEntryBaseEb = comdat any

$_ZN4llvh17StringMapIterBaseINS_22StringMapConstIteratorINS_9StringRefEEEKNS_14StringMapEntryIS2_EEEC2EPPNS_18StringMapEntryBaseEb = comdat any

$_ZN4llvh17StringMapIterBaseINS_22StringMapConstIteratorINS_9StringRefEEEKNS_14StringMapEntryIS2_EEE23AdvancePastEmptyBucketsEv = comdat any

$_ZNK4llvh22StringMapConstIteratorINS_9StringRefEEdeEv = comdat any

$_ZNKSt16initializer_listIN4llvh7SMRangeEE5beginEv = comdat any

$_ZNKSt16initializer_listIN4llvh7SMRangeEE3endEv = comdat any

$_ZNKSt16initializer_listIN4llvh7SMRangeEE4sizeEv = comdat any

$_ZN4llvh23SmallVectorTemplateBaseIcLb1EE4growEm = comdat any

$_ZN4llvh25SmallVectorTemplateCommonIcvE8grow_podEmm = comdat any

$_ZN9__gnu_cxx17__normal_iteratorIPNSt7__cxx1112basic_stringIcSt11char_traitsIcESaIcEEESt6vectorIS6_SaIS6_EEEC2ERKS7_ = comdat any

$_ZNK9__gnu_cxx17__normal_iteratorIPNSt7__cxx1112basic_stringIcSt11char_traitsIcESaIcEEESt6vectorIS6_SaIS6_EEE4baseEv = comdat any

$_ZNSt6vectorIN4llvh16FileCheckPatternESaIS1_EE12emplace_backIJS1_EEERS1_DpOT_ = comdat any

$_ZNSt16allocator_traitsISaIN4llvh16FileCheckPatternEEE9constructIS1_JS1_EEEvRS2_PT_DpOT0_ = comdat any

$_ZNSt6vectorIN4llvh16FileCheckPatternESaIS1_EE17_M_realloc_insertIJS1_EEEvN9__gnu_cxx17__normal_iteratorIPS1_S3_EEDpOT_ = comdat any

$_ZNSt6vectorIN4llvh16FileCheckPatternESaIS1_EE3endEv = comdat any

$_ZNSt15__new_allocatorIN4llvh16FileCheckPatternEE9constructIS1_JS1_EEEvPT_DpOT0_ = comdat any

$_ZN4llvh16FileCheckPatternC2EOS0_ = comdat any

$_ZNSt6vectorISt4pairIN4llvh9StringRefEjESaIS3_EEC2EOS5_ = comdat any

$_ZNSt3mapIN4llvh9StringRefEjSt4lessIS1_ESaISt4pairIKS1_jEEEC2EOS8_ = comdat any

$_ZNSt12_Vector_baseISt4pairIN4llvh9StringRefEjESaIS3_EEC2EOS5_ = comdat any

$_ZNSt12_Vector_baseISt4pairIN4llvh9StringRefEjESaIS3_EE12_Vector_implC2EOS6_ = comdat any

$_ZNSt12_Vector_baseISt4pairIN4llvh9StringRefEjESaIS3_EE17_Vector_impl_dataC2EOS6_ = comdat any

$_ZNSt15__new_allocatorISt4pairIN4llvh9StringRefEjEEC2ERKS4_ = comdat any

$_ZNSt8_Rb_treeIN4llvh9StringRefESt4pairIKS1_jESt10_Select1stIS4_ESt4lessIS1_ESaIS4_EEC2EOSA_ = comdat any

$_ZNSt8_Rb_treeIN4llvh9StringRefESt4pairIKS1_jESt10_Select1stIS4_ESt4lessIS1_ESaIS4_EE13_Rb_tree_implIS8_Lb1EEC2EOSC_ = comdat any

$_ZNSt20_Rb_tree_key_compareISt4lessIN4llvh9StringRefEEEC2EOS4_ = comdat any

$_ZNSt15_Rb_tree_headerC2EOS_ = comdat any

$_ZNSt15__new_allocatorISt13_Rb_tree_nodeISt4pairIKN4llvh9StringRefEjEEEC2ERKS7_ = comdat any

$_ZNSt15_Rb_tree_header12_M_move_dataERS_ = comdat any

$_ZNKSt6vectorIN4llvh16FileCheckPatternESaIS1_EE12_M_check_lenEmPKc = comdat any

$_ZN9__gnu_cxxmiIPN4llvh16FileCheckPatternESt6vectorIS2_SaIS2_EEEENS_17__normal_iteratorIT_T0_E15difference_typeERKSA_SD_ = comdat any

$_ZNSt6vectorIN4llvh16FileCheckPatternESaIS1_EE5beginEv = comdat any

$_ZNSt12_Vector_baseIN4llvh16FileCheckPatternESaIS1_EE11_M_allocateEm = comdat any

$_ZNSt6vectorIN4llvh16FileCheckPatternESaIS1_EE11_S_relocateEPS1_S4_S4_RS2_ = comdat any

$_ZNK9__gnu_cxx17__normal_iteratorIPN4llvh16FileCheckPatternESt6vectorIS2_SaIS2_EEE4baseEv = comdat any

$_ZNKSt6vectorIN4llvh16FileCheckPatternESaIS1_EE8max_sizeEv = comdat any

$_ZNKSt6vectorIN4llvh16FileCheckPatternESaIS1_EE4sizeEv = comdat any

$_ZNSt6vectorIN4llvh16FileCheckPatternESaIS1_EE11_S_max_sizeERKS2_ = comdat any

$_ZNKSt12_Vector_baseIN4llvh16FileCheckPatternESaIS1_EE19_M_get_Tp_allocatorEv = comdat any

$_ZNSt16allocator_traitsISaIN4llvh16FileCheckPatternEEE8max_sizeERKS2_ = comdat any

$_ZNKSt15__new_allocatorIN4llvh16FileCheckPatternEE8max_sizeEv = comdat any

$_ZNKSt15__new_allocatorIN4llvh16FileCheckPatternEE11_M_max_sizeEv = comdat any

$_ZN9__gnu_cxx17__normal_iteratorIPN4llvh16FileCheckPatternESt6vectorIS2_SaIS2_EEEC2ERKS3_ = comdat any

$_ZNSt16allocator_traitsISaIN4llvh16FileCheckPatternEEE8allocateERS2_m = comdat any

$_ZNSt15__new_allocatorIN4llvh16FileCheckPatternEE8allocateEmPKv = comdat any

$_ZSt12__relocate_aIPN4llvh16FileCheckPatternES2_SaIS1_EET0_T_S5_S4_RT1_ = comdat any

$_ZSt14__relocate_a_1IPN4llvh16FileCheckPatternES2_SaIS1_EET0_T_S5_S4_RT1_ = comdat any

$_ZSt12__niter_baseIPN4llvh16FileCheckPatternEET_S3_ = comdat any

$_ZSt19__relocate_object_aIN4llvh16FileCheckPatternES1_SaIS1_EEvPT_PT0_RT1_ = comdat any

$_ZNSt16allocator_traitsISaIN4llvh16FileCheckPatternEEE7destroyIS1_EEvRS2_PT_ = comdat any

$_ZNSt15__new_allocatorIN4llvh16FileCheckPatternEE7destroyIS1_EEvPT_ = comdat any

$_ZNK9__gnu_cxx17__normal_iteratorIPN4llvh16FileCheckPatternESt6vectorIS2_SaIS2_EEEmiEl = comdat any

$_ZNK9__gnu_cxx17__normal_iteratorIPN4llvh16FileCheckPatternESt6vectorIS2_SaIS2_EEEdeEv = comdat any

$_ZN9__gnu_cxx14__alloc_traitsISaIN4llvh16FileCheckPatternEES2_E17_S_select_on_copyERKS3_ = comdat any

$_ZNSt12_Vector_baseIN4llvh16FileCheckPatternESaIS1_EEC2EmRKS2_ = comdat any

$_ZNSaIN4llvh16FileCheckPatternEED2Ev = comdat any

$_ZSt22__uninitialized_copy_aIN9__gnu_cxx17__normal_iteratorIPKN4llvh16FileCheckPatternESt6vectorIS3_SaIS3_EEEEPS3_S3_ET0_T_SC_SB_RSaIT1_E = comdat any

$_ZNSt16allocator_traitsISaIN4llvh16FileCheckPatternEEE37select_on_container_copy_constructionERKS2_ = comdat any

$_ZNSaIN4llvh16FileCheckPatternEEC2ERKS1_ = comdat any

$_ZNSt15__new_allocatorIN4llvh16FileCheckPatternEEC2ERKS2_ = comdat any

$_ZNSt12_Vector_baseIN4llvh16FileCheckPatternESaIS1_EE12_Vector_implC2ERKS2_ = comdat any

$_ZNSt12_Vector_baseIN4llvh16FileCheckPatternESaIS1_EE17_M_create_storageEm = comdat any

$_ZSt18uninitialized_copyIN9__gnu_cxx17__normal_iteratorIPKN4llvh16FileCheckPatternESt6vectorIS3_SaIS3_EEEEPS3_ET0_T_SC_SB_ = comdat any

$_ZNSt20__uninitialized_copyILb0EE13__uninit_copyIN9__gnu_cxx17__normal_iteratorIPKN4llvh16FileCheckPatternESt6vectorIS5_SaIS5_EEEEPS5_EET0_T_SE_SD_ = comdat any

$_ZSt16__do_uninit_copyIN9__gnu_cxx17__normal_iteratorIPKN4llvh16FileCheckPatternESt6vectorIS3_SaIS3_EEEEPS3_ET0_T_SC_SB_ = comdat any

$_ZSt10_ConstructIN4llvh16FileCheckPatternEJRKS1_EEvPT_DpOT0_ = comdat any

$_ZN4llvh16FileCheckPatternC2ERKS0_ = comdat any

$_ZNSt6vectorISt4pairIN4llvh9StringRefEjESaIS3_EEC2ERKS5_ = comdat any

$_ZNSt3mapIN4llvh9StringRefEjSt4lessIS1_ESaISt4pairIKS1_jEEEC2ERKS8_ = comdat any

$_ZN9__gnu_cxx14__alloc_traitsISaISt4pairIN4llvh9StringRefEjEES4_E17_S_select_on_copyERKS5_ = comdat any

$_ZNSt12_Vector_baseISt4pairIN4llvh9StringRefEjESaIS3_EEC2EmRKS4_ = comdat any

$_ZNSaISt4pairIN4llvh9StringRefEjEED2Ev = comdat any

$_ZSt22__uninitialized_copy_aIN9__gnu_cxx17__normal_iteratorIPKSt4pairIN4llvh9StringRefEjESt6vectorIS5_SaIS5_EEEEPS5_S5_ET0_T_SE_SD_RSaIT1_E = comdat any

$_ZNSt16allocator_traitsISaISt4pairIN4llvh9StringRefEjEEE37select_on_container_copy_constructionERKS4_ = comdat any

$_ZNSaISt4pairIN4llvh9StringRefEjEEC2ERKS3_ = comdat any

$_ZNSt12_Vector_baseISt4pairIN4llvh9StringRefEjESaIS3_EE12_Vector_implC2ERKS4_ = comdat any

$_ZNSt12_Vector_baseISt4pairIN4llvh9StringRefEjESaIS3_EE17_M_create_storageEm = comdat any

$_ZSt18uninitialized_copyIN9__gnu_cxx17__normal_iteratorIPKSt4pairIN4llvh9StringRefEjESt6vectorIS5_SaIS5_EEEEPS5_ET0_T_SE_SD_ = comdat any

$_ZNSt20__uninitialized_copyILb0EE13__uninit_copyIN9__gnu_cxx17__normal_iteratorIPKSt4pairIN4llvh9StringRefEjESt6vectorIS7_SaIS7_EEEEPS7_EET0_T_SG_SF_ = comdat any

$_ZSt16__do_uninit_copyIN9__gnu_cxx17__normal_iteratorIPKSt4pairIN4llvh9StringRefEjESt6vectorIS5_SaIS5_EEEEPS5_ET0_T_SE_SD_ = comdat any

$_ZSt10_ConstructISt4pairIN4llvh9StringRefEjEJRKS3_EEvPT_DpOT0_ = comdat any

$_ZNSt8_Rb_treeIN4llvh9StringRefESt4pairIKS1_jESt10_Select1stIS4_ESt4lessIS1_ESaIS4_EEC2ERKSA_ = comdat any

$_ZNSt8_Rb_treeIN4llvh9StringRefESt4pairIKS1_jESt10_Select1stIS4_ESt4lessIS1_ESaIS4_EE13_Rb_tree_implIS8_Lb1EEC2ERKSC_ = comdat any

$_ZNKSt8_Rb_treeIN4llvh9StringRefESt4pairIKS1_jESt10_Select1stIS4_ESt4lessIS1_ESaIS4_EE7_M_rootEv = comdat any

$_ZNSt8_Rb_treeIN4llvh9StringRefESt4pairIKS1_jESt10_Select1stIS4_ESt4lessIS1_ESaIS4_EE7_M_copyERKSA_ = comdat any

$_ZNSt8_Rb_treeIN4llvh9StringRefESt4pairIKS1_jESt10_Select1stIS4_ESt4lessIS1_ESaIS4_EE7_M_rootEv = comdat any

$_ZN9__gnu_cxx14__alloc_traitsISaISt13_Rb_tree_nodeISt4pairIKN4llvh9StringRefEjEEES7_E17_S_select_on_copyERKS8_ = comdat any

$_ZNSaISt13_Rb_tree_nodeISt4pairIKN4llvh9StringRefEjEEED2Ev = comdat any

$_ZNSt20_Rb_tree_key_compareISt4lessIN4llvh9StringRefEEEC2ERKS3_ = comdat any

$_ZNSt16allocator_traitsISaISt13_Rb_tree_nodeISt4pairIKN4llvh9StringRefEjEEEE37select_on_container_copy_constructionERKS7_ = comdat any

$_ZNSaISt13_Rb_tree_nodeISt4pairIKN4llvh9StringRefEjEEEC2ERKS6_ = comdat any

$_ZNSt8_Rb_treeIN4llvh9StringRefESt4pairIKS1_jESt10_Select1stIS4_ESt4lessIS1_ESaIS4_EE11_Alloc_nodeC2ERSA_ = comdat any

$_ZNSt8_Rb_treeIN4llvh9StringRefESt4pairIKS1_jESt10_Select1stIS4_ESt4lessIS1_ESaIS4_EE7_M_copyILb0ENSA_11_Alloc_nodeEEEPSt13_Rb_tree_nodeIS4_ERKSA_RT0_ = comdat any

$_ZNSt8_Rb_treeIN4llvh9StringRefESt4pairIKS1_jESt10_Select1stIS4_ESt4lessIS1_ESaIS4_EE7_M_copyILb0ENSA_11_Alloc_nodeEEEPSt13_Rb_tree_nodeIS4_ESF_PSt18_Rb_tree_node_baseRT0_ = comdat any

$_ZNSt8_Rb_treeIN4llvh9StringRefESt4pairIKS1_jESt10_Select1stIS4_ESt4lessIS1_ESaIS4_EE10_S_minimumEPSt18_Rb_tree_node_base = comdat any

$_ZNSt8_Rb_treeIN4llvh9StringRefESt4pairIKS1_jESt10_Select1stIS4_ESt4lessIS1_ESaIS4_EE10_S_maximumEPSt18_Rb_tree_node_base = comdat any

$_ZNSt8_Rb_treeIN4llvh9StringRefESt4pairIKS1_jESt10_Select1stIS4_ESt4lessIS1_ESaIS4_EE13_M_clone_nodeILb0ENSA_11_Alloc_nodeEEEPSt13_Rb_tree_nodeIS4_ESF_RT0_ = comdat any

$_ZNKSt8_Rb_treeIN4llvh9StringRefESt4pairIKS1_jESt10_Select1stIS4_ESt4lessIS1_ESaIS4_EE11_Alloc_nodeclIRKS4_EEPSt13_Rb_tree_nodeIS4_EOT_ = comdat any

$_ZNSt8_Rb_treeIN4llvh9StringRefESt4pairIKS1_jESt10_Select1stIS4_ESt4lessIS1_ESaIS4_EE14_M_create_nodeIJRKS4_EEEPSt13_Rb_tree_nodeIS4_EDpOT_ = comdat any

$_ZNSt8_Rb_treeIN4llvh9StringRefESt4pairIKS1_jESt10_Select1stIS4_ESt4lessIS1_ESaIS4_EE17_M_construct_nodeIJRKS4_EEEvPSt13_Rb_tree_nodeIS4_EDpOT_ = comdat any

$_ZNSt16allocator_traitsISaISt13_Rb_tree_nodeISt4pairIKN4llvh9StringRefEjEEEE9constructIS5_JRKS5_EEEvRS7_PT_DpOT0_ = comdat any

$_ZNSt15__new_allocatorISt13_Rb_tree_nodeISt4pairIKN4llvh9StringRefEjEEE9constructIS5_JRKS5_EEEvPT_DpOT0_ = comdat any

$_ZNSt18_Rb_tree_node_base10_S_minimumEPS_ = comdat any

$_ZNSt18_Rb_tree_node_base10_S_maximumEPS_ = comdat any

$_ZN9__gnu_cxxeqIPKN4llvh15FileCheckStringESt6vectorIS2_SaIS2_EEEEbRKNS_17__normal_iteratorIT_T0_EESD_ = comdat any

$_ZNKSt6vectorIN4llvh15FileCheckStringESaIS1_EE5beginEv = comdat any

$_ZNKSt6vectorIN4llvh15FileCheckStringESaIS1_EE3endEv = comdat any

$_ZNK9__gnu_cxx17__normal_iteratorIPKN4llvh15FileCheckStringESt6vectorIS2_SaIS2_EEE4baseEv = comdat any

$_ZN9__gnu_cxx17__normal_iteratorIPKN4llvh15FileCheckStringESt6vectorIS2_SaIS2_EEEC2ERKS4_ = comdat any

$_ZNSt16allocator_traitsISaIN4llvh16FileCheckPatternEEE9constructIS1_JRKS1_EEEvRS2_PT_DpOT0_ = comdat any

$_ZNSt6vectorIN4llvh16FileCheckPatternESaIS1_EE17_M_realloc_insertIJRKS1_EEEvN9__gnu_cxx17__normal_iteratorIPS1_S3_EEDpOT_ = comdat any

$_ZNSt15__new_allocatorIN4llvh16FileCheckPatternEE9constructIS1_JRKS1_EEEvPT_DpOT0_ = comdat any

$_ZNSt16allocator_traitsISaIN4llvh15FileCheckStringEEE9constructIS1_JRNS0_16FileCheckPatternERNS0_9StringRefERNS0_5SMLocEEEEvRS2_PT_DpOT0_ = comdat any

$_ZNSt6vectorIN4llvh15FileCheckStringESaIS1_EE17_M_realloc_insertIJRNS0_16FileCheckPatternERNS0_9StringRefERNS0_5SMLocEEEEvN9__gnu_cxx17__normal_iteratorIPS1_S3_EEDpOT_ = comdat any

$_ZNSt6vectorIN4llvh15FileCheckStringESaIS1_EE3endEv = comdat any

$_ZNSt15__new_allocatorIN4llvh15FileCheckStringEE9constructIS1_JRNS0_16FileCheckPatternERNS0_9StringRefERNS0_5SMLocEEEEvPT_DpOT0_ = comdat any

$_ZN4llvh15FileCheckStringC2ERKNS_16FileCheckPatternENS_9StringRefENS_5SMLocE = comdat any

$_ZNKSt6vectorIN4llvh15FileCheckStringESaIS1_EE12_M_check_lenEmPKc = comdat any

$_ZN9__gnu_cxxmiIPN4llvh15FileCheckStringESt6vectorIS2_SaIS2_EEEENS_17__normal_iteratorIT_T0_E15difference_typeERKSA_SD_ = comdat any

$_ZNSt6vectorIN4llvh15FileCheckStringESaIS1_EE5beginEv = comdat any

$_ZNSt12_Vector_baseIN4llvh15FileCheckStringESaIS1_EE11_M_allocateEm = comdat any

$_ZNSt6vectorIN4llvh15FileCheckStringESaIS1_EE11_S_relocateEPS1_S4_S4_RS2_ = comdat any

$_ZNK9__gnu_cxx17__normal_iteratorIPN4llvh15FileCheckStringESt6vectorIS2_SaIS2_EEE4baseEv = comdat any

$_ZNSt12_Vector_baseIN4llvh15FileCheckStringESaIS1_EE19_M_get_Tp_allocatorEv = comdat any

$_ZNSt12_Vector_baseIN4llvh15FileCheckStringESaIS1_EE13_M_deallocateEPS1_m = comdat any

$_ZNKSt6vectorIN4llvh15FileCheckStringESaIS1_EE8max_sizeEv = comdat any

$_ZNKSt6vectorIN4llvh15FileCheckStringESaIS1_EE4sizeEv = comdat any

$_ZNSt6vectorIN4llvh15FileCheckStringESaIS1_EE11_S_max_sizeERKS2_ = comdat any

$_ZNKSt12_Vector_baseIN4llvh15FileCheckStringESaIS1_EE19_M_get_Tp_allocatorEv = comdat any

$_ZNSt16allocator_traitsISaIN4llvh15FileCheckStringEEE8max_sizeERKS2_ = comdat any

$_ZNKSt15__new_allocatorIN4llvh15FileCheckStringEE8max_sizeEv = comdat any

$_ZNKSt15__new_allocatorIN4llvh15FileCheckStringEE11_M_max_sizeEv = comdat any

$_ZN9__gnu_cxx17__normal_iteratorIPN4llvh15FileCheckStringESt6vectorIS2_SaIS2_EEEC2ERKS3_ = comdat any

$_ZNSt16allocator_traitsISaIN4llvh15FileCheckStringEEE8allocateERS2_m = comdat any

$_ZNSt15__new_allocatorIN4llvh15FileCheckStringEE8allocateEmPKv = comdat any

$_ZSt12__relocate_aIPN4llvh15FileCheckStringES2_SaIS1_EET0_T_S5_S4_RT1_ = comdat any

$_ZSt14__relocate_a_1IPN4llvh15FileCheckStringES2_SaIS1_EET0_T_S5_S4_RT1_ = comdat any

$_ZSt12__niter_baseIPN4llvh15FileCheckStringEET_S3_ = comdat any

$_ZSt19__relocate_object_aIN4llvh15FileCheckStringES1_SaIS1_EEvPT_PT0_RT1_ = comdat any

$_ZNSt16allocator_traitsISaIN4llvh15FileCheckStringEEE9constructIS1_JS1_EEEvRS2_PT_DpOT0_ = comdat any

$_ZNSt16allocator_traitsISaIN4llvh15FileCheckStringEEE7destroyIS1_EEvRS2_PT_ = comdat any

$_ZNSt15__new_allocatorIN4llvh15FileCheckStringEE9constructIS1_JS1_EEEvPT_DpOT0_ = comdat any

$_ZN4llvh15FileCheckStringC2EOS0_ = comdat any

$_ZNSt6vectorIN4llvh16FileCheckPatternESaIS1_EEC2EOS3_ = comdat any

$_ZNSt12_Vector_baseIN4llvh16FileCheckPatternESaIS1_EEC2EOS3_ = comdat any

$_ZNSt12_Vector_baseIN4llvh16FileCheckPatternESaIS1_EE12_Vector_implC2EOS4_ = comdat any

$_ZNSt12_Vector_baseIN4llvh16FileCheckPatternESaIS1_EE17_Vector_impl_dataC2EOS4_ = comdat any

$_ZNSt15__new_allocatorIN4llvh15FileCheckStringEE7destroyIS1_EEvPT_ = comdat any

$_ZN4llvh15FileCheckStringD2Ev = comdat any

$_ZNSt16allocator_traitsISaIN4llvh15FileCheckStringEEE10deallocateERS2_PS1_m = comdat any

$_ZNSt15__new_allocatorIN4llvh15FileCheckStringEE10deallocateEPS1_m = comdat any

$_ZNK9__gnu_cxx17__normal_iteratorIPN4llvh15FileCheckStringESt6vectorIS2_SaIS2_EEEmiEl = comdat any

$_ZNK9__gnu_cxx17__normal_iteratorIPN4llvh15FileCheckStringESt6vectorIS2_SaIS2_EEEdeEv = comdat any

$_ZNSt6vectorIN4llvh16FileCheckPatternESaIS1_EE4swapERS3_ = comdat any

$_ZNSt12_Vector_baseIN4llvh16FileCheckPatternESaIS1_EE17_Vector_impl_data12_M_swap_dataERS4_ = comdat any

$_ZN9__gnu_cxx14__alloc_traitsISaIN4llvh16FileCheckPatternEES2_E10_S_on_swapERS3_S5_ = comdat any

$_ZNSt12_Vector_baseIN4llvh16FileCheckPatternESaIS1_EE17_Vector_impl_dataC2Ev = comdat any

$_ZNSt12_Vector_baseIN4llvh16FileCheckPatternESaIS1_EE17_Vector_impl_data12_M_copy_dataERKS4_ = comdat any

$_ZSt15__alloc_on_swapISaIN4llvh16FileCheckPatternEEEvRT_S4_ = comdat any

$_ZNKSt6vectorIN4llvh16FileCheckPatternESaIS1_EE8capacityEv = comdat any

$_ZNSt6vectorIN4llvh16FileCheckPatternESaIS1_EE20_M_allocate_and_copyIN9__gnu_cxx17__normal_iteratorIPKS1_S3_EEEEPS1_mT_SB_ = comdat any

$_ZSt8_DestroyIN9__gnu_cxx17__normal_iteratorIPN4llvh16FileCheckPatternESt6vectorIS3_SaIS3_EEEES3_EvT_S9_RSaIT0_E = comdat any

$_ZSt4copyIN9__gnu_cxx17__normal_iteratorIPKN4llvh16FileCheckPatternESt6vectorIS3_SaIS3_EEEENS1_IPS3_S8_EEET0_T_SD_SC_ = comdat any

$_ZSt4copyIPN4llvh16FileCheckPatternES2_ET0_T_S4_S3_ = comdat any

$_ZSt22__uninitialized_copy_aIPN4llvh16FileCheckPatternES2_S1_ET0_T_S4_S3_RSaIT1_E = comdat any

$_ZSt8_DestroyIN9__gnu_cxx17__normal_iteratorIPN4llvh16FileCheckPatternESt6vectorIS3_SaIS3_EEEEEvT_S9_ = comdat any

$_ZNSt12_Destroy_auxILb0EE9__destroyIN9__gnu_cxx17__normal_iteratorIPN4llvh16FileCheckPatternESt6vectorIS5_SaIS5_EEEEEEvT_SB_ = comdat any

$_ZN9__gnu_cxxneIPN4llvh16FileCheckPatternESt6vectorIS2_SaIS2_EEEEbRKNS_17__normal_iteratorIT_T0_EESC_ = comdat any

$_ZN9__gnu_cxx17__normal_iteratorIPN4llvh16FileCheckPatternESt6vectorIS2_SaIS2_EEEppEv = comdat any

$_ZSt13__copy_move_aILb0EN9__gnu_cxx17__normal_iteratorIPKN4llvh16FileCheckPatternESt6vectorIS3_SaIS3_EEEENS1_IPS3_S8_EEET1_T0_SD_SC_ = comdat any

$_ZSt12__miter_baseIN9__gnu_cxx17__normal_iteratorIPKN4llvh16FileCheckPatternESt6vectorIS3_SaIS3_EEEEET_SA_ = comdat any

$_ZSt12__niter_wrapIN9__gnu_cxx17__normal_iteratorIPN4llvh16FileCheckPatternESt6vectorIS3_SaIS3_EEEES4_ET_S9_T0_ = comdat any

$_ZSt14__copy_move_a1ILb0EPKN4llvh16FileCheckPatternEPS1_ET1_T0_S6_S5_ = comdat any

$_ZSt12__niter_baseIPKN4llvh16FileCheckPatternESt6vectorIS1_SaIS1_EEET_N9__gnu_cxx17__normal_iteratorIS7_T0_EE = comdat any

$_ZSt12__niter_baseIPN4llvh16FileCheckPatternESt6vectorIS1_SaIS1_EEET_N9__gnu_cxx17__normal_iteratorIS6_T0_EE = comdat any

$_ZNK9__gnu_cxx17__normal_iteratorIPN4llvh16FileCheckPatternESt6vectorIS2_SaIS2_EEEplEl = comdat any

$_ZSt14__copy_move_a2ILb0EPKN4llvh16FileCheckPatternEPS1_ET1_T0_S6_S5_ = comdat any

$_ZNSt11__copy_moveILb0ELb0ESt26random_access_iterator_tagE8__copy_mIPKN4llvh16FileCheckPatternEPS4_EET0_T_S9_S8_ = comdat any

$_ZN4llvh16FileCheckPatternaSERKS0_ = comdat any

$_ZNSt6vectorISt4pairIN4llvh9StringRefEjESaIS3_EEaSERKS5_ = comdat any

$_ZNSt3mapIN4llvh9StringRefEjSt4lessIS1_ESaISt4pairIKS1_jEEEaSERKS8_ = comdat any

$_ZNKSt6vectorISt4pairIN4llvh9StringRefEjESaIS3_EE8capacityEv = comdat any

$_ZNSt6vectorISt4pairIN4llvh9StringRefEjESaIS3_EE20_M_allocate_and_copyIN9__gnu_cxx17__normal_iteratorIPKS3_S5_EEEEPS3_mT_SD_ = comdat any

$_ZSt8_DestroyIN9__gnu_cxx17__normal_iteratorIPSt4pairIN4llvh9StringRefEjESt6vectorIS5_SaIS5_EEEES5_EvT_SB_RSaIT0_E = comdat any

$_ZSt4copyIN9__gnu_cxx17__normal_iteratorIPKSt4pairIN4llvh9StringRefEjESt6vectorIS5_SaIS5_EEEENS1_IPS5_SA_EEET0_T_SF_SE_ = comdat any

$_ZSt4copyIPSt4pairIN4llvh9StringRefEjES4_ET0_T_S6_S5_ = comdat any

$_ZSt22__uninitialized_copy_aIPSt4pairIN4llvh9StringRefEjES4_S3_ET0_T_S6_S5_RSaIT1_E = comdat any

$_ZSt8_DestroyIN9__gnu_cxx17__normal_iteratorIPSt4pairIN4llvh9StringRefEjESt6vectorIS5_SaIS5_EEEEEvT_SB_ = comdat any

$_ZNSt12_Destroy_auxILb1EE9__destroyIN9__gnu_cxx17__normal_iteratorIPSt4pairIN4llvh9StringRefEjESt6vectorIS7_SaIS7_EEEEEEvT_SD_ = comdat any

$_ZSt13__copy_move_aILb0EN9__gnu_cxx17__normal_iteratorIPKSt4pairIN4llvh9StringRefEjESt6vectorIS5_SaIS5_EEEENS1_IPS5_SA_EEET1_T0_SF_SE_ = comdat any

$_ZSt12__miter_baseIN9__gnu_cxx17__normal_iteratorIPKSt4pairIN4llvh9StringRefEjESt6vectorIS5_SaIS5_EEEEET_SC_ = comdat any

$_ZSt12__niter_wrapIN9__gnu_cxx17__normal_iteratorIPSt4pairIN4llvh9StringRefEjESt6vectorIS5_SaIS5_EEEES6_ET_SB_T0_ = comdat any

$_ZSt14__copy_move_a1ILb0EPKSt4pairIN4llvh9StringRefEjEPS3_ET1_T0_S8_S7_ = comdat any

$_ZSt12__niter_baseIPKSt4pairIN4llvh9StringRefEjESt6vectorIS3_SaIS3_EEET_N9__gnu_cxx17__normal_iteratorIS9_T0_EE = comdat any

$_ZSt12__niter_baseIPSt4pairIN4llvh9StringRefEjESt6vectorIS3_SaIS3_EEET_N9__gnu_cxx17__normal_iteratorIS8_T0_EE = comdat any

$_ZNK9__gnu_cxx17__normal_iteratorIPSt4pairIN4llvh9StringRefEjESt6vectorIS4_SaIS4_EEEplEl = comdat any

$_ZSt14__copy_move_a2ILb0EPKSt4pairIN4llvh9StringRefEjEPS3_ET1_T0_S8_S7_ = comdat any

$_ZNSt11__copy_moveILb0ELb0ESt26random_access_iterator_tagE8__copy_mIPKSt4pairIN4llvh9StringRefEjEPS6_EET0_T_SB_SA_ = comdat any

$_ZNSt4pairIN4llvh9StringRefEjEaSERKS2_ = comdat any

$_ZSt13__copy_move_aILb0EPSt4pairIN4llvh9StringRefEjES4_ET1_T0_S6_S5_ = comdat any

$_ZSt12__miter_baseIPSt4pairIN4llvh9StringRefEjEET_S5_ = comdat any

$_ZSt12__niter_wrapIPSt4pairIN4llvh9StringRefEjEET_RKS5_S5_ = comdat any

$_ZSt14__copy_move_a1ILb0EPSt4pairIN4llvh9StringRefEjES4_ET1_T0_S6_S5_ = comdat any

$_ZSt14__copy_move_a2ILb0EPSt4pairIN4llvh9StringRefEjES4_ET1_T0_S6_S5_ = comdat any

$_ZNSt11__copy_moveILb0ELb0ESt26random_access_iterator_tagE8__copy_mIPSt4pairIN4llvh9StringRefEjES7_EET0_T_S9_S8_ = comdat any

$_ZSt18uninitialized_copyIPSt4pairIN4llvh9StringRefEjES4_ET0_T_S6_S5_ = comdat any

$_ZNSt20__uninitialized_copyILb0EE13__uninit_copyIPSt4pairIN4llvh9StringRefEjES6_EET0_T_S8_S7_ = comdat any

$_ZSt16__do_uninit_copyIPSt4pairIN4llvh9StringRefEjES4_ET0_T_S6_S5_ = comdat any

$_ZSt10_ConstructISt4pairIN4llvh9StringRefEjEJRS3_EEvPT_DpOT0_ = comdat any

$_ZNSt8_Rb_treeIN4llvh9StringRefESt4pairIKS1_jESt10_Select1stIS4_ESt4lessIS1_ESaIS4_EEaSERKSA_ = comdat any

$_ZNSt8_Rb_treeIN4llvh9StringRefESt4pairIKS1_jESt10_Select1stIS4_ESt4lessIS1_ESaIS4_EE20_Reuse_or_alloc_nodeC2ERSA_ = comdat any

$_ZNSt8_Rb_treeIN4llvh9StringRefESt4pairIKS1_jESt10_Select1stIS4_ESt4lessIS1_ESaIS4_EE7_M_copyILb0ENSA_20_Reuse_or_alloc_nodeEEEPSt13_Rb_tree_nodeIS4_ERKSA_RT0_ = comdat any

$_ZNSt8_Rb_treeIN4llvh9StringRefESt4pairIKS1_jESt10_Select1stIS4_ESt4lessIS1_ESaIS4_EE20_Reuse_or_alloc_nodeD2Ev = comdat any

$_ZNSt8_Rb_treeIN4llvh9StringRefESt4pairIKS1_jESt10_Select1stIS4_ESt4lessIS1_ESaIS4_EE7_M_copyILb0ENSA_20_Reuse_or_alloc_nodeEEEPSt13_Rb_tree_nodeIS4_ESF_PSt18_Rb_tree_node_baseRT0_ = comdat any

$_ZNSt8_Rb_treeIN4llvh9StringRefESt4pairIKS1_jESt10_Select1stIS4_ESt4lessIS1_ESaIS4_EE13_M_clone_nodeILb0ENSA_20_Reuse_or_alloc_nodeEEEPSt13_Rb_tree_nodeIS4_ESF_RT0_ = comdat any

$_ZNSt8_Rb_treeIN4llvh9StringRefESt4pairIKS1_jESt10_Select1stIS4_ESt4lessIS1_ESaIS4_EE20_Reuse_or_alloc_nodeclIRKS4_EEPSt13_Rb_tree_nodeIS4_EOT_ = comdat any

$_ZNSt8_Rb_treeIN4llvh9StringRefESt4pairIKS1_jESt10_Select1stIS4_ESt4lessIS1_ESaIS4_EE20_Reuse_or_alloc_node10_M_extractEv = comdat any

$_ZNK9__gnu_cxx17__normal_iteratorIPKN4llvh16FileCheckPatternESt6vectorIS2_SaIS2_EEE4baseEv = comdat any

$_ZSt13__copy_move_aILb0EPN4llvh16FileCheckPatternES2_ET1_T0_S4_S3_ = comdat any

$_ZSt12__miter_baseIPN4llvh16FileCheckPatternEET_S3_ = comdat any

$_ZSt12__niter_wrapIPN4llvh16FileCheckPatternEET_RKS3_S3_ = comdat any

$_ZSt14__copy_move_a1ILb0EPN4llvh16FileCheckPatternES2_ET1_T0_S4_S3_ = comdat any

$_ZSt14__copy_move_a2ILb0EPN4llvh16FileCheckPatternES2_ET1_T0_S4_S3_ = comdat any

$_ZNSt11__copy_moveILb0ELb0ESt26random_access_iterator_tagE8__copy_mIPN4llvh16FileCheckPatternES5_EET0_T_S7_S6_ = comdat any

$_ZSt18uninitialized_copyIPN4llvh16FileCheckPatternES2_ET0_T_S4_S3_ = comdat any

$_ZNSt20__uninitialized_copyILb0EE13__uninit_copyIPN4llvh16FileCheckPatternES4_EET0_T_S6_S5_ = comdat any

$_ZSt16__do_uninit_copyIPN4llvh16FileCheckPatternES2_ET0_T_S4_S3_ = comdat any

$_ZSt10_ConstructIN4llvh16FileCheckPatternEJRS1_EEvPT_DpOT0_ = comdat any

$_ZNSt16allocator_traitsISaIN4llvh15FileCheckStringEEE9constructIS1_JNS0_16FileCheckPatternERNSt7__cxx1112basic_stringIcSt11char_traitsIcESaIcEEENS0_5SMLocEEEEvRS2_PT_DpOT0_ = comdat any

$_ZNSt6vectorIN4llvh15FileCheckStringESaIS1_EE17_M_realloc_insertIJNS0_16FileCheckPatternERNSt7__cxx1112basic_stringIcSt11char_traitsIcESaIcEEENS0_5SMLocEEEEvN9__gnu_cxx17__normal_iteratorIPS1_S3_EEDpOT_ = comdat any

$_ZNSt15__new_allocatorIN4llvh15FileCheckStringEE9constructIS1_JNS0_16FileCheckPatternERNSt7__cxx1112basic_stringIcSt11char_traitsIcESaIcEEENS0_5SMLocEEEEvPT_DpOT0_ = comdat any

$_ZSt8_DestroyIPPKN4llvh16FileCheckPatternES3_EvT_S5_RSaIT0_E = comdat any

$_ZNSt12_Vector_baseIPKN4llvh16FileCheckPatternESaIS3_EE19_M_get_Tp_allocatorEv = comdat any

$_ZNSt12_Vector_baseIPKN4llvh16FileCheckPatternESaIS3_EED2Ev = comdat any

$_ZSt8_DestroyIPPKN4llvh16FileCheckPatternEEvT_S5_ = comdat any

$_ZNSt12_Destroy_auxILb1EE9__destroyIPPKN4llvh16FileCheckPatternEEEvT_S7_ = comdat any

$_ZNSt12_Vector_baseIPKN4llvh16FileCheckPatternESaIS3_EE13_M_deallocateEPS3_m = comdat any

$_ZNSt12_Vector_baseIPKN4llvh16FileCheckPatternESaIS3_EE12_Vector_implD2Ev = comdat any

$_ZNSt16allocator_traitsISaIPKN4llvh16FileCheckPatternEEE10deallocateERS4_PS3_m = comdat any

$_ZNSt15__new_allocatorIPKN4llvh16FileCheckPatternEE10deallocateEPS3_m = comdat any

$_ZNSaIPKN4llvh16FileCheckPatternEED2Ev = comdat any

$_ZNSt15__new_allocatorIPKN4llvh16FileCheckPatternEED2Ev = comdat any

$_ZN9__gnu_cxx17__normal_iteratorIPKPKN4llvh16FileCheckPatternESt6vectorIS4_SaIS4_EEEC2ERKS6_ = comdat any

$_ZNK9__gnu_cxx17__normal_iteratorIPKPKN4llvh16FileCheckPatternESt6vectorIS4_SaIS4_EEE4baseEv = comdat any

$_ZN9__gnu_cxx17__normal_iteratorIPKN4llvh16FileCheckPatternESt6vectorIS2_SaIS2_EEEC2ERKS4_ = comdat any

$_ZNSt6vectorIPKN4llvh16FileCheckPatternESaIS3_EE12emplace_backIJS3_EEERS3_DpOT_ = comdat any

$_ZNSt16allocator_traitsISaIPKN4llvh16FileCheckPatternEEE9constructIS3_JS3_EEEvRS4_PT_DpOT0_ = comdat any

$_ZNSt6vectorIPKN4llvh16FileCheckPatternESaIS3_EE17_M_realloc_insertIJS3_EEEvN9__gnu_cxx17__normal_iteratorIPS3_S5_EEDpOT_ = comdat any

$_ZNSt6vectorIPKN4llvh16FileCheckPatternESaIS3_EE3endEv = comdat any

$_ZNSt6vectorIPKN4llvh16FileCheckPatternESaIS3_EE4backEv = comdat any

$_ZNSt15__new_allocatorIPKN4llvh16FileCheckPatternEE9constructIS3_JS3_EEEvPT_DpOT0_ = comdat any

$_ZNKSt6vectorIPKN4llvh16FileCheckPatternESaIS3_EE12_M_check_lenEmPKc = comdat any

$_ZN9__gnu_cxxmiIPPKN4llvh16FileCheckPatternESt6vectorIS4_SaIS4_EEEENS_17__normal_iteratorIT_T0_E15difference_typeERKSC_SF_ = comdat any

$_ZNSt6vectorIPKN4llvh16FileCheckPatternESaIS3_EE5beginEv = comdat any

$_ZNSt12_Vector_baseIPKN4llvh16FileCheckPatternESaIS3_EE11_M_allocateEm = comdat any

$_ZNSt6vectorIPKN4llvh16FileCheckPatternESaIS3_EE11_S_relocateEPS3_S6_S6_RS4_ = comdat any

$_ZNK9__gnu_cxx17__normal_iteratorIPPKN4llvh16FileCheckPatternESt6vectorIS4_SaIS4_EEE4baseEv = comdat any

$_ZNKSt6vectorIPKN4llvh16FileCheckPatternESaIS3_EE8max_sizeEv = comdat any

$_ZNKSt6vectorIPKN4llvh16FileCheckPatternESaIS3_EE4sizeEv = comdat any

$_ZNSt6vectorIPKN4llvh16FileCheckPatternESaIS3_EE11_S_max_sizeERKS4_ = comdat any

$_ZNKSt12_Vector_baseIPKN4llvh16FileCheckPatternESaIS3_EE19_M_get_Tp_allocatorEv = comdat any

$_ZNSt16allocator_traitsISaIPKN4llvh16FileCheckPatternEEE8max_sizeERKS4_ = comdat any

$_ZNKSt15__new_allocatorIPKN4llvh16FileCheckPatternEE8max_sizeEv = comdat any

$_ZNKSt15__new_allocatorIPKN4llvh16FileCheckPatternEE11_M_max_sizeEv = comdat any

$_ZN9__gnu_cxx17__normal_iteratorIPPKN4llvh16FileCheckPatternESt6vectorIS4_SaIS4_EEEC2ERKS5_ = comdat any

$_ZNSt16allocator_traitsISaIPKN4llvh16FileCheckPatternEEE8allocateERS4_m = comdat any

$_ZNSt15__new_allocatorIPKN4llvh16FileCheckPatternEE8allocateEmPKv = comdat any

$_ZSt12__relocate_aIPPKN4llvh16FileCheckPatternES4_SaIS3_EET0_T_S7_S6_RT1_ = comdat any

$_ZSt14__relocate_a_1IPKN4llvh16FileCheckPatternES3_ENSt9enable_ifIXsr3std24__is_bitwise_relocatableIT_EE5valueEPS5_E4typeES6_S6_S6_RSaIT0_E = comdat any

$_ZSt12__niter_baseIPPKN4llvh16FileCheckPatternEET_S5_ = comdat any

$_ZNK9__gnu_cxx17__normal_iteratorIPPKN4llvh16FileCheckPatternESt6vectorIS4_SaIS4_EEEmiEl = comdat any

$_ZNK9__gnu_cxx17__normal_iteratorIPPKN4llvh16FileCheckPatternESt6vectorIS4_SaIS4_EEEdeEv = comdat any

$_ZN9__gnu_cxxeqIPKPKN4llvh16FileCheckPatternESt6vectorIS4_SaIS4_EEEEbRKNS_17__normal_iteratorIT_T0_EESF_ = comdat any

$_ZNSt6vectorIPKN4llvh16FileCheckPatternESaIS3_EE15_M_erase_at_endEPS3_ = comdat any

$_ZN4llvh9StringMapIcNS_15MallocAllocatorEE6insertESt4pairINS_9StringRefEcE = comdat any

$_ZSt9make_pairIRN4llvh9StringRefEcESt4pairINSt25__strip_reference_wrapperINSt5decayIT_E4typeEE6__typeENS4_INS5_IT0_E4typeEE6__typeEEOS6_OSB_ = comdat any

$_ZN4llvh9StringMapIcNS_15MallocAllocatorEE11try_emplaceIJcEEESt4pairINS_17StringMapIteratorIcEEbENS_9StringRefEDpOT_ = comdat any

$_ZSt9make_pairIN4llvh17StringMapIteratorIcEEbESt4pairINSt25__strip_reference_wrapperINSt5decayIT_E4typeEE6__typeENS4_INS5_IT0_E4typeEE6__typeEEOS6_OSB_ = comdat any

$_ZN4llvh17StringMapIteratorIcEC2EPPNS_18StringMapEntryBaseEb = comdat any

$_ZN4llvh14StringMapEntryIcE6CreateINS_15MallocAllocatorEJcEEEPS1_NS_9StringRefERT_DpOT0_ = comdat any

$_ZNSt4pairIN4llvh17StringMapIteratorIcEEbEC2IS2_bTnNSt9enable_ifIXaaclsr5_PCCPE22_MoveConstructiblePairIT_T0_EEclsr5_PCCPE30_ImplicitlyMoveConvertiblePairIS6_S7_EEEbE4typeELb1EEEOS6_OS7_ = comdat any

$_ZN4llvh17StringMapIterBaseINS_17StringMapIteratorIcEENS_14StringMapEntryIcEEEC2EPPNS_18StringMapEntryBaseEb = comdat any

$_ZN4llvh17StringMapIterBaseINS_17StringMapIteratorIcEENS_14StringMapEntryIcEEE23AdvancePastEmptyBucketsEv = comdat any

$_ZN4llvh14StringMapEntryIcEC2IJcEEEmDpOT_ = comdat any

$_ZNK4llvh14StringMapEntryIcE10getKeyDataEv = comdat any

$_ZNSt4pairIN4llvh9StringRefEcEC2IRS1_cTnNSt9enable_ifIXaaclsr5_PCCPE22_MoveConstructiblePairIT_T0_EEclsr5_PCCPE30_ImplicitlyMoveConvertiblePairIS6_S7_EEEbE4typeELb1EEEOS6_OS7_ = comdat any

$_ZN9__gnu_cxxeqIPKNSt7__cxx1112basic_stringIcSt11char_traitsIcESaIcEEESt6vectorIS6_SaIS6_EEEEbRKNS_17__normal_iteratorIT_T0_EESH_ = comdat any

$_ZNKSt6vectorINSt7__cxx1112basic_stringIcSt11char_traitsIcESaIcEEESaIS5_EE5beginEv = comdat any

$_ZNKSt6vectorINSt7__cxx1112basic_stringIcSt11char_traitsIcESaIcEEESaIS5_EE3endEv = comdat any

$_ZNK9__gnu_cxx17__normal_iteratorIPKNSt7__cxx1112basic_stringIcSt11char_traitsIcESaIcEEESt6vectorIS6_SaIS6_EEE4baseEv = comdat any

$_ZN9__gnu_cxx17__normal_iteratorIPKNSt7__cxx1112basic_stringIcSt11char_traitsIcESaIcEEESt6vectorIS6_SaIS6_EEEC2ERKS8_ = comdat any

$_ZNSt6vectorINSt7__cxx1112basic_stringIcSt11char_traitsIcESaIcEEESaIS5_EE12emplace_backIJS5_EEERS5_DpOT_ = comdat any

$_ZNSt16allocator_traitsISaINSt7__cxx1112basic_stringIcSt11char_traitsIcESaIcEEEEE9constructIS5_JS5_EEEvRS6_PT_DpOT0_ = comdat any

$_ZNSt6vectorINSt7__cxx1112basic_stringIcSt11char_traitsIcESaIcEEESaIS5_EE17_M_realloc_insertIJS5_EEEvN9__gnu_cxx17__normal_iteratorIPS5_S7_EEDpOT_ = comdat any

$_ZNSt6vectorINSt7__cxx1112basic_stringIcSt11char_traitsIcESaIcEEESaIS5_EE4backEv = comdat any

$_ZNSt15__new_allocatorINSt7__cxx1112basic_stringIcSt11char_traitsIcESaIcEEEE9constructIS5_JS5_EEEvPT_DpOT0_ = comdat any

$_ZNKSt6vectorINSt7__cxx1112basic_stringIcSt11char_traitsIcESaIcEEESaIS5_EE12_M_check_lenEmPKc = comdat any

$_ZN9__gnu_cxxmiIPNSt7__cxx1112basic_stringIcSt11char_traitsIcESaIcEEESt6vectorIS6_SaIS6_EEEENS_17__normal_iteratorIT_T0_E15difference_typeERKSE_SH_ = comdat any

$_ZNSt12_Vector_baseINSt7__cxx1112basic_stringIcSt11char_traitsIcESaIcEEESaIS5_EE11_M_allocateEm = comdat any

$_ZNSt6vectorINSt7__cxx1112basic_stringIcSt11char_traitsIcESaIcEEESaIS5_EE11_S_relocateEPS5_S8_S8_RS6_ = comdat any

$_ZNSt12_Vector_baseINSt7__cxx1112basic_stringIcSt11char_traitsIcESaIcEEESaIS5_EE19_M_get_Tp_allocatorEv = comdat any

$_ZNSt12_Vector_baseINSt7__cxx1112basic_stringIcSt11char_traitsIcESaIcEEESaIS5_EE13_M_deallocateEPS5_m = comdat any

$_ZNKSt6vectorINSt7__cxx1112basic_stringIcSt11char_traitsIcESaIcEEESaIS5_EE8max_sizeEv = comdat any

$_ZNSt6vectorINSt7__cxx1112basic_stringIcSt11char_traitsIcESaIcEEESaIS5_EE11_S_max_sizeERKS6_ = comdat any

$_ZNKSt12_Vector_baseINSt7__cxx1112basic_stringIcSt11char_traitsIcESaIcEEESaIS5_EE19_M_get_Tp_allocatorEv = comdat any

$_ZNSt16allocator_traitsISaINSt7__cxx1112basic_stringIcSt11char_traitsIcESaIcEEEEE8max_sizeERKS6_ = comdat any

$_ZNKSt15__new_allocatorINSt7__cxx1112basic_stringIcSt11char_traitsIcESaIcEEEE8max_sizeEv = comdat any

$_ZNKSt15__new_allocatorINSt7__cxx1112basic_stringIcSt11char_traitsIcESaIcEEEE11_M_max_sizeEv = comdat any

$_ZNSt16allocator_traitsISaINSt7__cxx1112basic_stringIcSt11char_traitsIcESaIcEEEEE8allocateERS6_m = comdat any

$_ZNSt15__new_allocatorINSt7__cxx1112basic_stringIcSt11char_traitsIcESaIcEEEE8allocateEmPKv = comdat any

$_ZSt12__relocate_aIPNSt7__cxx1112basic_stringIcSt11char_traitsIcESaIcEEES6_SaIS5_EET0_T_S9_S8_RT1_ = comdat any

$_ZSt14__relocate_a_1IPNSt7__cxx1112basic_stringIcSt11char_traitsIcESaIcEEES6_SaIS5_EET0_T_S9_S8_RT1_ = comdat any

$_ZSt12__niter_baseIPNSt7__cxx1112basic_stringIcSt11char_traitsIcESaIcEEEET_S7_ = comdat any

$_ZSt19__relocate_object_aINSt7__cxx1112basic_stringIcSt11char_traitsIcESaIcEEES5_SaIS5_EEvPT_PT0_RT1_ = comdat any

$_ZNSt16allocator_traitsISaINSt7__cxx1112basic_stringIcSt11char_traitsIcESaIcEEEEE7destroyIS5_EEvRS6_PT_ = comdat any

$_ZNSt15__new_allocatorINSt7__cxx1112basic_stringIcSt11char_traitsIcESaIcEEEE7destroyIS5_EEvPT_ = comdat any

$_ZNSt16allocator_traitsISaINSt7__cxx1112basic_stringIcSt11char_traitsIcESaIcEEEEE10deallocateERS6_PS5_m = comdat any

$_ZNSt15__new_allocatorINSt7__cxx1112basic_stringIcSt11char_traitsIcESaIcEEEE10deallocateEPS5_m = comdat any

$_ZNK9__gnu_cxx17__normal_iteratorIPNSt7__cxx1112basic_stringIcSt11char_traitsIcESaIcEEESt6vectorIS6_SaIS6_EEEmiEl = comdat any

$_ZN4llvh15SmallVectorImplIcE6appendIPKcvEEvT_S5_ = comdat any

$_ZN4llvh23SmallVectorTemplateBaseIcLb1EE18uninitialized_copyIKccEEvPT_S5_PT0_PNSt9enable_ifIXsr3std7is_sameINSt12remove_constIS4_E4typeES6_EE5valueEvE4typeE = comdat any

$_ZNK4llvh11SmallStringILj32EE3strEv = comdat any

$_ZN4llvh9StringMapINS_9StringRefENS_15MallocAllocatorEE11try_emplaceIJS1_EEESt4pairINS_17StringMapIteratorIS1_EEbES1_DpOT_ = comdat any

$_ZN4llvh14StringMapEntryINS_9StringRefEE6CreateINS_15MallocAllocatorEJS1_EEEPS2_S1_RT_DpOT0_ = comdat any

$_ZN4llvh14StringMapEntryINS_9StringRefEEC2IJS1_EEEmDpOT_ = comdat any

$_ZSt19piecewise_construct = comdat any

@.str = private unnamed_addr constant [39 x i8] c"found empty check string with prefix '\00", align 1
@.str.1 = private unnamed_addr constant [3 x i8] c":'\00", align 1
@.str.2 = private unnamed_addr constant [59 x i8] c"found non-empty check string for empty check with prefix '\00", align 1
@.str.3 = private unnamed_addr constant [5 x i8] c"(\0A$)\00", align 1
@.str.4 = private unnamed_addr constant [3 x i8] c"{{\00", align 1
@.str.5 = private unnamed_addr constant [3 x i8] c"[[\00", align 1
@.str.6 = private unnamed_addr constant [3 x i8] c" *\00", align 1
@.str.7 = private unnamed_addr constant [3 x i8] c"}}\00", align 1
@.str.8 = private unnamed_addr constant [45 x i8] c"found start of regex string with no end '}}'\00", align 1
@.str.9 = private unnamed_addr constant [43 x i8] c"invalid named regex reference, no ]] found\00", align 1
@.str.10 = private unnamed_addr constant [40 x i8] c"invalid name in named regex: empty name\00", align 1
@.str.11 = private unnamed_addr constant [39 x i8] c"invalid name in named regex definition\00", align 1
@.str.12 = private unnamed_addr constant [28 x i8] c"invalid name in named regex\00", align 1
@.str.13 = private unnamed_addr constant [43 x i8] c"Can't back-reference more than 9 variables\00", align 1
@.str.14 = private unnamed_addr constant [16 x i8] c"invalid regex: \00", align 1
@.str.15 = private unnamed_addr constant [2 x i8] c"\\\00", align 1
@.str.16 = private unnamed_addr constant [6 x i8] c"@LINE\00", align 1
@.str.17 = private unnamed_addr constant [18 x i8] c"with expression \22\00", align 1
@.str.18 = private unnamed_addr constant [13 x i8] c"\22 equal to \22\00", align 1
@.str.19 = private unnamed_addr constant [2 x i8] c"\22\00", align 1
@.str.20 = private unnamed_addr constant [28 x i8] c"uses incorrect expression \22\00", align 1
@.str.21 = private unnamed_addr constant [26 x i8] c"uses undefined variable \22\00", align 1
@.str.22 = private unnamed_addr constant [16 x i8] c"with variable \22\00", align 1
@.str.23 = private unnamed_addr constant [29 x i8] c"possible intended match here\00", align 1
@.str.24 = private unnamed_addr constant [3 x i8] c"]]\00", align 1
@.str.25 = private unnamed_addr constant [39 x i8] c"missing closing \22]\22 for regex variable\00", align 1
@.str.26 = private unnamed_addr constant [22 x i8] c"-implicit-check-not='\00", align 1
@.str.27 = private unnamed_addr constant [2 x i8] c"'\00", align 1
@.str.28 = private unnamed_addr constant [13 x i8] c"command line\00", align 1
@.str.29 = private unnamed_addr constant [15 x i8] c"IMPLICIT-CHECK\00", align 1
@.str.30 = private unnamed_addr constant [35 x i8] c"unsupported -NOT combo on prefix '\00", align 1
@.str.31 = private unnamed_addr constant [3 x i8] c" \09\00", align 1
@.str.32 = private unnamed_addr constant [3 x i8] c"\0A\0D\00", align 1
@.str.33 = private unnamed_addr constant [8 x i8] c"found '\00", align 1
@.str.34 = private unnamed_addr constant [41 x i8] c"-LABEL:' with variable definition or use\00", align 1
@.str.35 = private unnamed_addr constant [5 x i8] c"NEXT\00", align 1
@.str.36 = private unnamed_addr constant [6 x i8] c"EMPTY\00", align 1
@.str.37 = private unnamed_addr constant [5 x i8] c"SAME\00", align 1
@.str.38 = private unnamed_addr constant [2 x i8] c"-\00", align 1
@.str.39 = private unnamed_addr constant [21 x i8] c"' without previous '\00", align 1
@.str.40 = private unnamed_addr constant [7 x i8] c": line\00", align 1
@.str.41 = private unnamed_addr constant [42 x i8] c"error: no check strings found with prefix\00", align 1
@.str.42 = private unnamed_addr constant [4 x i8] c"es \00", align 1
@.str.43 = private unnamed_addr constant [2 x i8] c" \00", align 1
@.str.44 = private unnamed_addr constant [4 x i8] c", '\00", align 1
@.str.45 = private unnamed_addr constant [7 x i8] c"-EMPTY\00", align 1
@.str.46 = private unnamed_addr constant [6 x i8] c"-NEXT\00", align 1
@.str.47 = private unnamed_addr constant [40 x i8] c": is on the same line as previous match\00", align 1
@.str.48 = private unnamed_addr constant [22 x i8] c"'next' match was here\00", align 1
@.str.49 = private unnamed_addr constant [26 x i8] c"previous match ended here\00", align 1
@.str.50 = private unnamed_addr constant [46 x i8] c": is not on the line after the previous match\00", align 1
@.str.51 = private unnamed_addr constant [47 x i8] c"non-matching line after previous match is here\00", align 1
@.str.52 = private unnamed_addr constant [53 x i8] c"-SAME: is not on the same line as the previous match\00", align 1
@.str.53 = private unnamed_addr constant [49 x i8] c"match discarded, overlaps earlier DAG match here\00", align 1
@.str.54 = private unnamed_addr constant [1 x i8] zeroinitializer, align 1
@.str.55 = private unnamed_addr constant [6 x i8] c"CHECK\00", align 1
@_ZTVN4llvh19raw_svector_ostreamE = external unnamed_addr constant { [14 x ptr] }, align 8
@_ZTVN4llvh17raw_pwrite_streamE = external unnamed_addr constant { [14 x ptr] }, align 8
@_ZTVN4llvh11raw_ostreamE = external unnamed_addr constant { [13 x ptr] }, align 8
@.str.56 = private unnamed_addr constant [26 x i8] c"vector::_M_realloc_insert\00", align 1
@.str.57 = private unnamed_addr constant [6 x i8] c"NEXT:\00", align 1
@.str.58 = private unnamed_addr constant [6 x i8] c"SAME:\00", align 1
@.str.59 = private unnamed_addr constant [5 x i8] c"NOT:\00", align 1
@.str.60 = private unnamed_addr constant [5 x i8] c"DAG:\00", align 1
@.str.61 = private unnamed_addr constant [7 x i8] c"LABEL:\00", align 1
@.str.62 = private unnamed_addr constant [7 x i8] c"EMPTY:\00", align 1
@.str.63 = private unnamed_addr constant [9 x i8] c"DAG-NOT:\00", align 1
@.str.64 = private unnamed_addr constant [9 x i8] c"NOT-DAG:\00", align 1
@.str.65 = private unnamed_addr constant [10 x i8] c"NEXT-NOT:\00", align 1
@.str.66 = private unnamed_addr constant [10 x i8] c"NOT-NEXT:\00", align 1
@.str.67 = private unnamed_addr constant [10 x i8] c"SAME-NOT:\00", align 1
@.str.68 = private unnamed_addr constant [10 x i8] c"NOT-SAME:\00", align 1
@.str.69 = private unnamed_addr constant [11 x i8] c"EMPTY-NOT:\00", align 1
@.str.70 = private unnamed_addr constant [11 x i8] c"NOT-EMPTY:\00", align 1
@.str.71 = private unnamed_addr constant [3 x i8] c": \00", align 1
@.str.72 = private unnamed_addr constant [9 x i8] c"expected\00", align 1
@.str.73 = private unnamed_addr constant [9 x i8] c"excluded\00", align 1
@.str.74 = private unnamed_addr constant [27 x i8] c" string not found in input\00", align 1
@.str.75 = private unnamed_addr constant [5 x i8] c" \09\0A\0D\00", align 1
@.str.76 = private unnamed_addr constant [19 x i8] c"scanning from here\00", align 1
@.str.77 = private unnamed_addr constant [8 x i8] c"invalid\00", align 1
@.str.78 = private unnamed_addr constant [6 x i8] c"-SAME\00", align 1
@.str.79 = private unnamed_addr constant [5 x i8] c"-NOT\00", align 1
@.str.80 = private unnamed_addr constant [5 x i8] c"-DAG\00", align 1
@.str.81 = private unnamed_addr constant [7 x i8] c"-LABEL\00", align 1
@.str.82 = private unnamed_addr constant [13 x i8] c"implicit EOF\00", align 1
@.str.83 = private unnamed_addr constant [8 x i8] c"bad NOT\00", align 1
@.str.84 = private unnamed_addr constant [23 x i8] c" string found in input\00", align 1
@.str.85 = private unnamed_addr constant [11 x i8] c"found here\00", align 1
@.str.86 = private unnamed_addr constant [17 x i8] c"^[a-zA-Z0-9_-]*$\00", align 1
@_ZSt19piecewise_construct = linkonce_odr constant %"struct.std::piecewise_construct_t" zeroinitializer, comdat, align 1
@.str.87 = private unnamed_addr constant [50 x i8] c"basic_string: construction from null is not valid\00", align 1
@.str.88 = private unnamed_addr constant [18 x i8] c"Allocation failed\00", align 1

; Function Attrs: mustprogress nounwind uwtable
define hidden noundef zeroext i1 @_ZN4llvh16FileCheckPattern12ParsePatternENS_9StringRefES1_RNS_9SourceMgrEjRKNS_16FileCheckRequestE(ptr noundef nonnull align 8 dereferenceable(136) %this, ptr %PatternStr.coerce0, i64 %PatternStr.coerce1, ptr %Prefix.coerce0, i64 %Prefix.coerce1, ptr noundef nonnull align 8 dereferenceable(120) %SM, i32 noundef %LineNumber, ptr noundef nonnull align 8 dereferenceable(86) %Req) #0 align 2 {
entry:
  %retval.i585 = alloca i32, align 4
  %Lhs.addr.i586 = alloca ptr, align 8
  %Rhs.addr.i587 = alloca ptr, align 8
  %Length.addr.i588 = alloca i64, align 8
  %retval.i580 = alloca i32, align 4
  %Lhs.addr.i = alloca ptr, align 8
  %Rhs.addr.i = alloca ptr, align 8
  %Length.addr.i = alloca i64, align 8
  %this.addr.i575 = alloca ptr, align 8
  %data.addr.i576 = alloca ptr, align 8
  %length.addr.i577 = alloca i64, align 8
  %this.addr.i570 = alloca ptr, align 8
  %data.addr.i571 = alloca ptr, align 8
  %length.addr.i572 = alloca i64, align 8
  %this.addr.i565 = alloca ptr, align 8
  %data.addr.i566 = alloca ptr, align 8
  %length.addr.i567 = alloca i64, align 8
  %this.addr.i560 = alloca ptr, align 8
  %data.addr.i561 = alloca ptr, align 8
  %length.addr.i562 = alloca i64, align 8
  %this.addr.i555 = alloca ptr, align 8
  %data.addr.i556 = alloca ptr, align 8
  %length.addr.i557 = alloca i64, align 8
  %this.addr.i550 = alloca ptr, align 8
  %data.addr.i551 = alloca ptr, align 8
  %length.addr.i552 = alloca i64, align 8
  %this.addr.i545 = alloca ptr, align 8
  %data.addr.i546 = alloca ptr, align 8
  %length.addr.i547 = alloca i64, align 8
  %this.addr.i540 = alloca ptr, align 8
  %data.addr.i541 = alloca ptr, align 8
  %length.addr.i542 = alloca i64, align 8
  %this.addr.i535 = alloca ptr, align 8
  %data.addr.i536 = alloca ptr, align 8
  %length.addr.i537 = alloca i64, align 8
  %this.addr.i532 = alloca ptr, align 8
  %data.addr.i = alloca ptr, align 8
  %length.addr.i = alloca i64, align 8
  %retval.i522 = alloca i64, align 8
  %this.addr.i523 = alloca ptr, align 8
  %C.addr.i = alloca i8, align 1
  %From.addr.i = alloca i64, align 8
  %FindBegin.i = alloca i64, align 8
  %P.i = alloca ptr, align 8
  %Prefix.i511 = alloca %"class.llvh::StringRef", align 8
  %this.addr.i512 = alloca ptr, align 8
  %Prefix.i = alloca %"class.llvh::StringRef", align 8
  %this.addr.i505 = alloca ptr, align 8
  %this.addr.i495 = alloca ptr, align 8
  %Str.addr.i496 = alloca ptr, align 8
  %this.addr.i485 = alloca ptr, align 8
  %Str.addr.i486 = alloca ptr, align 8
  %this.addr.i475 = alloca ptr, align 8
  %Str.addr.i476 = alloca ptr, align 8
  %this.addr.i465 = alloca ptr, align 8
  %Str.addr.i466 = alloca ptr, align 8
  %this.addr.i455 = alloca ptr, align 8
  %Str.addr.i456 = alloca ptr, align 8
  %this.addr.i445 = alloca ptr, align 8
  %Str.addr.i446 = alloca ptr, align 8
  %this.addr.i441 = alloca ptr, align 8
  %Str.addr.i = alloca ptr, align 8
  %this.addr.i438 = alloca ptr, align 8
  %this.addr.i435 = alloca ptr, align 8
  %this.addr.i432 = alloca ptr, align 8
  %retval.i420 = alloca %"class.llvh::StringRef", align 8
  %this.addr.i421 = alloca ptr, align 8
  %Start.addr.i422 = alloca i64, align 8
  %N.addr.i423 = alloca i64, align 8
  %ref.tmp.i424 = alloca i64, align 8
  %retval.i408 = alloca %"class.llvh::StringRef", align 8
  %this.addr.i409 = alloca ptr, align 8
  %Start.addr.i410 = alloca i64, align 8
  %N.addr.i411 = alloca i64, align 8
  %ref.tmp.i412 = alloca i64, align 8
  %retval.i396 = alloca %"class.llvh::StringRef", align 8
  %this.addr.i397 = alloca ptr, align 8
  %Start.addr.i398 = alloca i64, align 8
  %N.addr.i399 = alloca i64, align 8
  %ref.tmp.i400 = alloca i64, align 8
  %retval.i384 = alloca %"class.llvh::StringRef", align 8
  %this.addr.i385 = alloca ptr, align 8
  %Start.addr.i386 = alloca i64, align 8
  %N.addr.i387 = alloca i64, align 8
  %ref.tmp.i388 = alloca i64, align 8
  %retval.i372 = alloca %"class.llvh::StringRef", align 8
  %this.addr.i373 = alloca ptr, align 8
  %Start.addr.i374 = alloca i64, align 8
  %N.addr.i375 = alloca i64, align 8
  %ref.tmp.i376 = alloca i64, align 8
  %retval.i360 = alloca %"class.llvh::StringRef", align 8
  %this.addr.i361 = alloca ptr, align 8
  %Start.addr.i362 = alloca i64, align 8
  %N.addr.i363 = alloca i64, align 8
  %ref.tmp.i364 = alloca i64, align 8
  %retval.i348 = alloca %"class.llvh::StringRef", align 8
  %this.addr.i349 = alloca ptr, align 8
  %Start.addr.i350 = alloca i64, align 8
  %N.addr.i351 = alloca i64, align 8
  %ref.tmp.i352 = alloca i64, align 8
  %retval.i336 = alloca %"class.llvh::StringRef", align 8
  %this.addr.i337 = alloca ptr, align 8
  %Start.addr.i338 = alloca i64, align 8
  %N.addr.i339 = alloca i64, align 8
  %ref.tmp.i340 = alloca i64, align 8
  %retval.i324 = alloca %"class.llvh::StringRef", align 8
  %this.addr.i325 = alloca ptr, align 8
  %Start.addr.i326 = alloca i64, align 8
  %N.addr.i327 = alloca i64, align 8
  %ref.tmp.i328 = alloca i64, align 8
  %retval.i = alloca %"class.llvh::StringRef", align 8
  %this.addr.i321 = alloca ptr, align 8
  %Start.addr.i = alloca i64, align 8
  %N.addr.i = alloca i64, align 8
  %ref.tmp.i = alloca i64, align 8
  %this.addr.i317 = alloca ptr, align 8
  %this.addr.i313 = alloca ptr, align 8
  %this.addr.i309 = alloca ptr, align 8
  %this.addr.i305 = alloca ptr, align 8
  %this.addr.i303 = alloca ptr, align 8
  %this.addr.i301 = alloca ptr, align 8
  %this.addr.i299 = alloca ptr, align 8
  %this.addr.i297 = alloca ptr, align 8
  %this.addr.i295 = alloca ptr, align 8
  %this.addr.i293 = alloca ptr, align 8
  %this.addr.i291 = alloca ptr, align 8
  %this.addr.i289 = alloca ptr, align 8
  %this.addr.i = alloca ptr, align 8
  %retval = alloca i1, align 1
  %PatternStr = alloca %"class.llvh::StringRef", align 8
  %Prefix = alloca %"class.llvh::StringRef", align 8
  %this.addr = alloca ptr, align 8
  %SM.addr = alloca ptr, align 8
  %LineNumber.addr = alloca i32, align 4
  %Req.addr = alloca ptr, align 8
  %MatchFullLinesHere = alloca i8, align 1
  %ref.tmp = alloca %"class.llvh::SMLoc", align 8
  %ref.tmp15 = alloca %"class.llvh::StringRef", align 8
  %agg.tmp = alloca %"class.llvh::SMLoc", align 8
  %ref.tmp24 = alloca %"class.llvh::Twine", align 8
  %ref.tmp25 = alloca %"class.llvh::Twine", align 8
  %ref.tmp26 = alloca %"class.llvh::Twine", align 8
  %agg.tmp27 = alloca %"class.llvh::ArrayRef", align 8
  %agg.tmp28 = alloca %"class.llvh::ArrayRef.24", align 8
  %agg.tmp36 = alloca %"class.llvh::SMLoc", align 8
  %ref.tmp38 = alloca %"class.llvh::Twine", align 8
  %ref.tmp39 = alloca %"class.llvh::Twine", align 8
  %ref.tmp40 = alloca %"class.llvh::Twine", align 8
  %agg.tmp41 = alloca %"class.llvh::ArrayRef", align 8
  %agg.tmp42 = alloca %"class.llvh::ArrayRef.24", align 8
  %agg.tmp54 = alloca %"class.llvh::StringRef", align 8
  %agg.tmp58 = alloca %"class.llvh::StringRef", align 8
  %CurParen = alloca i32, align 4
  %agg.tmp77 = alloca %"class.llvh::StringRef", align 8
  %End = alloca i64, align 8
  %agg.tmp80 = alloca %"class.llvh::StringRef", align 8
  %agg.tmp84 = alloca %"class.llvh::SMLoc", align 8
  %ref.tmp88 = alloca %"class.llvh::Twine", align 8
  %agg.tmp89 = alloca %"class.llvh::ArrayRef", align 8
  %agg.tmp90 = alloca %"class.llvh::ArrayRef.24", align 8
  %agg.tmp95 = alloca %"class.llvh::StringRef", align 8
  %ref.tmp103 = alloca %"class.llvh::StringRef", align 8
  %agg.tmp106 = alloca %"class.llvh::StringRef", align 8
  %End109 = alloca i64, align 8
  %agg.tmp110 = alloca %"class.llvh::StringRef", align 8
  %agg.tmp115 = alloca %"class.llvh::SMLoc", align 8
  %ref.tmp119 = alloca %"class.llvh::Twine", align 8
  %agg.tmp120 = alloca %"class.llvh::ArrayRef", align 8
  %agg.tmp121 = alloca %"class.llvh::ArrayRef.24", align 8
  %MatchStr = alloca %"class.llvh::StringRef", align 8
  %ref.tmp125 = alloca %"class.llvh::StringRef", align 8
  %NameEnd = alloca i64, align 8
  %Name = alloca %"class.llvh::StringRef", align 8
  %agg.tmp132 = alloca %"class.llvh::SMLoc", align 8
  %ref.tmp136 = alloca %"class.llvh::Twine", align 8
  %agg.tmp137 = alloca %"class.llvh::ArrayRef", align 8
  %agg.tmp138 = alloca %"class.llvh::ArrayRef.24", align 8
  %IsExpression = alloca i8, align 1
  %i = alloca i32, align 4
  %e = alloca i32, align 4
  %agg.tmp159 = alloca %"class.llvh::SMLoc", align 8
  %ref.tmp163 = alloca %"class.llvh::Twine", align 8
  %agg.tmp164 = alloca %"class.llvh::ArrayRef", align 8
  %agg.tmp165 = alloca %"class.llvh::ArrayRef.24", align 8
  %agg.tmp193 = alloca %"class.llvh::SMLoc", align 8
  %ref.tmp197 = alloca %"class.llvh::Twine", align 8
  %agg.tmp198 = alloca %"class.llvh::ArrayRef", align 8
  %agg.tmp199 = alloca %"class.llvh::ArrayRef.24", align 8
  %agg.tmp208 = alloca %"class.llvh::SMLoc", align 8
  %ref.tmp212 = alloca %"class.llvh::Twine", align 8
  %agg.tmp213 = alloca %"class.llvh::ArrayRef", align 8
  %agg.tmp214 = alloca %"class.llvh::ArrayRef.24", align 8
  %ref.tmp219 = alloca %"struct.std::_Rb_tree_iterator", align 8
  %ref.tmp222 = alloca %"struct.std::_Rb_tree_iterator", align 8
  %VarParenNum = alloca i32, align 4
  %agg.tmp234 = alloca %"class.llvh::SMLoc", align 8
  %ref.tmp238 = alloca %"class.llvh::Twine", align 8
  %agg.tmp239 = alloca %"class.llvh::ArrayRef", align 8
  %agg.tmp240 = alloca %"class.llvh::ArrayRef.24", align 8
  %ref.tmp243 = alloca %"struct.std::pair", align 8
  %ref.tmp244 = alloca %"struct.std::pair.25", align 8
  %ref.tmp245 = alloca i64, align 8
  %agg.tmp255 = alloca %"class.llvh::StringRef", align 8
  %FixedMatchEnd = alloca i64, align 8
  %agg.tmp264 = alloca %"class.llvh::StringRef", align 8
  %ref.tmp266 = alloca i64, align 8
  %agg.tmp267 = alloca %"class.llvh::StringRef", align 8
  %ref.tmp270 = alloca %"class.std::__cxx11::basic_string", align 8
  %agg.tmp271 = alloca %"class.llvh::StringRef", align 8
  %ref.tmp275 = alloca %"class.llvh::StringRef", align 8
  %0 = getelementptr inbounds { ptr, i64 }, ptr %PatternStr, i32 0, i32 0
  store ptr %PatternStr.coerce0, ptr %0, align 8
  %1 = getelementptr inbounds { ptr, i64 }, ptr %PatternStr, i32 0, i32 1
  store i64 %PatternStr.coerce1, ptr %1, align 8
  %2 = getelementptr inbounds { ptr, i64 }, ptr %Prefix, i32 0, i32 0
  store ptr %Prefix.coerce0, ptr %2, align 8
  %3 = getelementptr inbounds { ptr, i64 }, ptr %Prefix, i32 0, i32 1
  store i64 %Prefix.coerce1, ptr %3, align 8
  store ptr %this, ptr %this.addr, align 8
  store ptr %SM, ptr %SM.addr, align 8
  store i32 %LineNumber, ptr %LineNumber.addr, align 4
  store ptr %Req, ptr %Req.addr, align 8
  %this1 = load ptr, ptr %this.addr, align 8
  %4 = load ptr, ptr %Req.addr, align 8
  %MatchFullLines = getelementptr inbounds %"struct.llvh::FileCheckRequest", ptr %4, i32 0, i32 6
  %5 = load i8, ptr %MatchFullLines, align 1
  %tobool = trunc i8 %5 to i1
  br i1 %tobool, label %land.rhs, label %land.end

land.rhs:                                         ; preds = %entry
  %CheckTy = getelementptr inbounds %"class.llvh::FileCheckPattern", ptr %this1, i32 0, i32 5
  %6 = load i32, ptr %CheckTy, align 8
  %cmp = icmp ne i32 %6, 4
  br label %land.end

land.end:                                         ; preds = %land.rhs, %entry
  %7 = phi i1 [ false, %entry ], [ %cmp, %land.rhs ]
  %frombool = zext i1 %7 to i8
  store i8 %frombool, ptr %MatchFullLinesHere, align 1
  %8 = load i32, ptr %LineNumber.addr, align 4
  %LineNumber2 = getelementptr inbounds %"class.llvh::FileCheckPattern", ptr %this1, i32 0, i32 6
  store i32 %8, ptr %LineNumber2, align 4
  store ptr %PatternStr, ptr %this.addr.i301, align 8
  %this1.i302 = load ptr, ptr %this.addr.i301, align 8
  %9 = load ptr, ptr %this1.i302, align 8
  %call3 = call ptr @_ZN4llvh5SMLoc14getFromPointerEPKc(ptr noundef %9)
  %coerce.dive = getelementptr inbounds %"class.llvh::SMLoc", ptr %ref.tmp, i32 0, i32 0
  store ptr %call3, ptr %coerce.dive, align 8
  %PatternLoc = getelementptr inbounds %"class.llvh::FileCheckPattern", ptr %this1, i32 0, i32 0
  call void @llvm.memcpy.p0.p0.i64(ptr align 8 %PatternLoc, ptr align 8 %ref.tmp, i64 8, i1 false)
  %10 = load ptr, ptr %Req.addr, align 8
  %NoCanonicalizeWhiteSpace = getelementptr inbounds %"struct.llvh::FileCheckRequest", ptr %10, i32 0, i32 1
  %11 = load i8, ptr %NoCanonicalizeWhiteSpace, align 8
  %tobool4 = trunc i8 %11 to i1
  br i1 %tobool4, label %land.lhs.true, label %if.then

land.lhs.true:                                    ; preds = %land.end
  %12 = load ptr, ptr %Req.addr, align 8
  %MatchFullLines5 = getelementptr inbounds %"struct.llvh::FileCheckRequest", ptr %12, i32 0, i32 6
  %13 = load i8, ptr %MatchFullLines5, align 1
  %tobool6 = trunc i8 %13 to i1
  br i1 %tobool6, label %if.end, label %if.then

if.then:                                          ; preds = %land.lhs.true, %land.end
  br label %while.cond

while.cond:                                       ; preds = %while.body, %if.then
  store ptr %PatternStr, ptr %this.addr.i317, align 8
  %this1.i318 = load ptr, ptr %this.addr.i317, align 8
  %Length.i319 = getelementptr inbounds %"class.llvh::StringRef", ptr %this1.i318, i32 0, i32 1
  %14 = load i64, ptr %Length.i319, align 8
  %cmp.i320 = icmp eq i64 %14, 0
  br i1 %cmp.i320, label %land.end14, label %land.rhs8

land.rhs8:                                        ; preds = %while.cond
  %call9 = call noundef signext i8 @_ZNK4llvh9StringRef4backEv(ptr noundef nonnull align 8 dereferenceable(16) %PatternStr)
  %conv = sext i8 %call9 to i32
  %cmp10 = icmp eq i32 %conv, 32
  br i1 %cmp10, label %lor.end, label %lor.rhs

lor.rhs:                                          ; preds = %land.rhs8
  %call11 = call noundef signext i8 @_ZNK4llvh9StringRef4backEv(ptr noundef nonnull align 8 dereferenceable(16) %PatternStr)
  %conv12 = sext i8 %call11 to i32
  %cmp13 = icmp eq i32 %conv12, 9
  br label %lor.end

lor.end:                                          ; preds = %lor.rhs, %land.rhs8
  %15 = phi i1 [ true, %land.rhs8 ], [ %cmp13, %lor.rhs ]
  br label %land.end14

land.end14:                                       ; preds = %lor.end, %while.cond
  %16 = phi i1 [ false, %while.cond ], [ %15, %lor.end ]
  br i1 %16, label %while.body, label %while.end

while.body:                                       ; preds = %land.end14
  store ptr %PatternStr, ptr %this.addr.i438, align 8
  %this1.i439 = load ptr, ptr %this.addr.i438, align 8
  %Length.i440 = getelementptr inbounds %"class.llvh::StringRef", ptr %this1.i439, i32 0, i32 1
  %17 = load i64, ptr %Length.i440, align 8
  %sub = sub i64 %17, 1
  store ptr %PatternStr, ptr %this.addr.i421, align 8
  store i64 0, ptr %Start.addr.i422, align 8
  store i64 %sub, ptr %N.addr.i423, align 8
  %this1.i425 = load ptr, ptr %this.addr.i421, align 8
  %Length.i426 = getelementptr inbounds %"class.llvh::StringRef", ptr %this1.i425, i32 0, i32 1
  %call.i427 = call noundef nonnull align 8 dereferenceable(8) ptr @_ZSt3minImERKT_S2_S2_(ptr noundef nonnull align 8 dereferenceable(8) %Start.addr.i422, ptr noundef nonnull align 8 dereferenceable(8) %Length.i426)
  %18 = load i64, ptr %call.i427, align 8
  store i64 %18, ptr %Start.addr.i422, align 8
  %19 = load ptr, ptr %this1.i425, align 8
  %20 = load i64, ptr %Start.addr.i422, align 8
  %add.ptr.i428 = getelementptr inbounds i8, ptr %19, i64 %20
  %Length2.i429 = getelementptr inbounds %"class.llvh::StringRef", ptr %this1.i425, i32 0, i32 1
  %21 = load i64, ptr %Length2.i429, align 8
  %22 = load i64, ptr %Start.addr.i422, align 8
  %sub.i430 = sub i64 %21, %22
  store i64 %sub.i430, ptr %ref.tmp.i424, align 8
  %call3.i431 = call noundef nonnull align 8 dereferenceable(8) ptr @_ZSt3minImERKT_S2_S2_(ptr noundef nonnull align 8 dereferenceable(8) %N.addr.i423, ptr noundef nonnull align 8 dereferenceable(8) %ref.tmp.i424)
  %23 = load i64, ptr %call3.i431, align 8
  store ptr %retval.i420, ptr %this.addr.i532, align 8
  store ptr %add.ptr.i428, ptr %data.addr.i, align 8
  store i64 %23, ptr %length.addr.i, align 8
  %this1.i533 = load ptr, ptr %this.addr.i532, align 8
  %24 = load ptr, ptr %data.addr.i, align 8
  store ptr %24, ptr %this1.i533, align 8
  %Length.i534 = getelementptr inbounds %"class.llvh::StringRef", ptr %this1.i533, i32 0, i32 1
  %25 = load i64, ptr %length.addr.i, align 8
  store i64 %25, ptr %Length.i534, align 8
  %26 = load { ptr, i64 }, ptr %retval.i420, align 8
  %27 = getelementptr inbounds { ptr, i64 }, ptr %ref.tmp15, i32 0, i32 0
  %28 = extractvalue { ptr, i64 } %26, 0
  store ptr %28, ptr %27, align 8
  %29 = getelementptr inbounds { ptr, i64 }, ptr %ref.tmp15, i32 0, i32 1
  %30 = extractvalue { ptr, i64 } %26, 1
  store i64 %30, ptr %29, align 8
  call void @llvm.memcpy.p0.p0.i64(ptr align 8 %PatternStr, ptr align 8 %ref.tmp15, i64 16, i1 false)
  br label %while.cond, !llvm.loop !4

while.end:                                        ; preds = %land.end14
  br label %if.end

if.end:                                           ; preds = %while.end, %land.lhs.true
  store ptr %PatternStr, ptr %this.addr.i313, align 8
  %this1.i314 = load ptr, ptr %this.addr.i313, align 8
  %Length.i315 = getelementptr inbounds %"class.llvh::StringRef", ptr %this1.i314, i32 0, i32 1
  %31 = load i64, ptr %Length.i315, align 8
  %cmp.i316 = icmp eq i64 %31, 0
  br i1 %cmp.i316, label %land.lhs.true19, label %if.end30

land.lhs.true19:                                  ; preds = %if.end
  %CheckTy20 = getelementptr inbounds %"class.llvh::FileCheckPattern", ptr %this1, i32 0, i32 5
  %32 = load i32, ptr %CheckTy20, align 8
  %cmp21 = icmp ne i32 %32, 7
  br i1 %cmp21, label %if.then22, label %if.end30

if.then22:                                        ; preds = %land.lhs.true19
  %33 = load ptr, ptr %SM.addr, align 8
  %PatternLoc23 = getelementptr inbounds %"class.llvh::FileCheckPattern", ptr %this1, i32 0, i32 0
  call void @llvm.memcpy.p0.p0.i64(ptr align 8 %agg.tmp, ptr align 8 %PatternLoc23, i64 8, i1 false)
  call void @_ZN4llvhplEPKcRKNS_9StringRefE(ptr sret(%"class.llvh::Twine") align 8 %ref.tmp25, ptr noundef @.str, ptr noundef nonnull align 8 dereferenceable(16) %Prefix)
  call void @_ZN4llvh5TwineC2EPKc(ptr noundef nonnull align 8 dereferenceable(18) %ref.tmp26, ptr noundef @.str.1)
  call void @_ZN4llvhplERKNS_5TwineES2_(ptr sret(%"class.llvh::Twine") align 8 %ref.tmp24, ptr noundef nonnull align 8 dereferenceable(18) %ref.tmp25, ptr noundef nonnull align 8 dereferenceable(18) %ref.tmp26)
  call void @_ZN4llvh8ArrayRefINS_7SMRangeEEC2ENS_8NoneTypeE(ptr noundef nonnull align 8 dereferenceable(16) %agg.tmp27, i32 noundef 1)
  call void @_ZN4llvh8ArrayRefINS_7SMFixItEEC2ENS_8NoneTypeE(ptr noundef nonnull align 8 dereferenceable(16) %agg.tmp28, i32 noundef 1)
  %coerce.dive29 = getelementptr inbounds %"class.llvh::SMLoc", ptr %agg.tmp, i32 0, i32 0
  %34 = load ptr, ptr %coerce.dive29, align 8
  %35 = getelementptr inbounds { ptr, i64 }, ptr %agg.tmp27, i32 0, i32 0
  %36 = load ptr, ptr %35, align 8
  %37 = getelementptr inbounds { ptr, i64 }, ptr %agg.tmp27, i32 0, i32 1
  %38 = load i64, ptr %37, align 8
  call void @_ZNK4llvh9SourceMgr12PrintMessageENS_5SMLocENS0_8DiagKindERKNS_5TwineENS_8ArrayRefINS_7SMRangeEEENS6_INS_7SMFixItEEEb(ptr noundef nonnull align 8 dereferenceable(120) %33, ptr %34, i32 noundef 0, ptr noundef nonnull align 8 dereferenceable(18) %ref.tmp24, ptr %36, i64 %38, ptr noundef byval(%"class.llvh::ArrayRef.24") align 8 %agg.tmp28, i1 noundef zeroext true)
  store i1 true, ptr %retval, align 1
  br label %return

if.end30:                                         ; preds = %land.lhs.true19, %if.end
  store ptr %PatternStr, ptr %this.addr.i309, align 8
  %this1.i310 = load ptr, ptr %this.addr.i309, align 8
  %Length.i311 = getelementptr inbounds %"class.llvh::StringRef", ptr %this1.i310, i32 0, i32 1
  %39 = load i64, ptr %Length.i311, align 8
  %cmp.i312 = icmp eq i64 %39, 0
  br i1 %cmp.i312, label %if.end44, label %land.lhs.true32

land.lhs.true32:                                  ; preds = %if.end30
  %CheckTy33 = getelementptr inbounds %"class.llvh::FileCheckPattern", ptr %this1, i32 0, i32 5
  %40 = load i32, ptr %CheckTy33, align 8
  %cmp34 = icmp eq i32 %40, 7
  br i1 %cmp34, label %if.then35, label %if.end44

if.then35:                                        ; preds = %land.lhs.true32
  %41 = load ptr, ptr %SM.addr, align 8
  %PatternLoc37 = getelementptr inbounds %"class.llvh::FileCheckPattern", ptr %this1, i32 0, i32 0
  call void @llvm.memcpy.p0.p0.i64(ptr align 8 %agg.tmp36, ptr align 8 %PatternLoc37, i64 8, i1 false)
  call void @_ZN4llvhplEPKcRKNS_9StringRefE(ptr sret(%"class.llvh::Twine") align 8 %ref.tmp39, ptr noundef @.str.2, ptr noundef nonnull align 8 dereferenceable(16) %Prefix)
  call void @_ZN4llvh5TwineC2EPKc(ptr noundef nonnull align 8 dereferenceable(18) %ref.tmp40, ptr noundef @.str.1)
  call void @_ZN4llvhplERKNS_5TwineES2_(ptr sret(%"class.llvh::Twine") align 8 %ref.tmp38, ptr noundef nonnull align 8 dereferenceable(18) %ref.tmp39, ptr noundef nonnull align 8 dereferenceable(18) %ref.tmp40)
  call void @_ZN4llvh8ArrayRefINS_7SMRangeEEC2ENS_8NoneTypeE(ptr noundef nonnull align 8 dereferenceable(16) %agg.tmp41, i32 noundef 1)
  call void @_ZN4llvh8ArrayRefINS_7SMFixItEEC2ENS_8NoneTypeE(ptr noundef nonnull align 8 dereferenceable(16) %agg.tmp42, i32 noundef 1)
  %coerce.dive43 = getelementptr inbounds %"class.llvh::SMLoc", ptr %agg.tmp36, i32 0, i32 0
  %42 = load ptr, ptr %coerce.dive43, align 8
  %43 = getelementptr inbounds { ptr, i64 }, ptr %agg.tmp41, i32 0, i32 0
  %44 = load ptr, ptr %43, align 8
  %45 = getelementptr inbounds { ptr, i64 }, ptr %agg.tmp41, i32 0, i32 1
  %46 = load i64, ptr %45, align 8
  call void @_ZNK4llvh9SourceMgr12PrintMessageENS_5SMLocENS0_8DiagKindERKNS_5TwineENS_8ArrayRefINS_7SMRangeEEENS6_INS_7SMFixItEEEb(ptr noundef nonnull align 8 dereferenceable(120) %41, ptr %42, i32 noundef 0, ptr noundef nonnull align 8 dereferenceable(18) %ref.tmp38, ptr %44, i64 %46, ptr noundef byval(%"class.llvh::ArrayRef.24") align 8 %agg.tmp42, i1 noundef zeroext true)
  store i1 true, ptr %retval, align 1
  br label %return

if.end44:                                         ; preds = %land.lhs.true32, %if.end30
  %CheckTy45 = getelementptr inbounds %"class.llvh::FileCheckPattern", ptr %this1, i32 0, i32 5
  %47 = load i32, ptr %CheckTy45, align 8
  %cmp46 = icmp eq i32 %47, 7
  br i1 %cmp46, label %if.then47, label %if.end49

if.then47:                                        ; preds = %if.end44
  %RegExStr = getelementptr inbounds %"class.llvh::FileCheckPattern", ptr %this1, i32 0, i32 2
  %call48 = call noundef nonnull align 8 dereferenceable(32) ptr @_ZNSt7__cxx1112basic_stringIcSt11char_traitsIcESaIcEEaSEPKc(ptr noundef nonnull align 8 dereferenceable(32) %RegExStr, ptr noundef @.str.3)
  store i1 false, ptr %retval, align 1
  br label %return

if.end49:                                         ; preds = %if.end44
  %48 = load i8, ptr %MatchFullLinesHere, align 1
  %tobool50 = trunc i8 %48 to i1
  br i1 %tobool50, label %if.end62, label %land.lhs.true51

land.lhs.true51:                                  ; preds = %if.end49
  store ptr %PatternStr, ptr %this.addr.i435, align 8
  %this1.i436 = load ptr, ptr %this.addr.i435, align 8
  %Length.i437 = getelementptr inbounds %"class.llvh::StringRef", ptr %this1.i436, i32 0, i32 1
  %49 = load i64, ptr %Length.i437, align 8
  %cmp53 = icmp ult i64 %49, 2
  br i1 %cmp53, label %if.then61, label %lor.lhs.false

lor.lhs.false:                                    ; preds = %land.lhs.true51
  store ptr %agg.tmp54, ptr %this.addr.i441, align 8
  store ptr @.str.4, ptr %Str.addr.i, align 8
  %this1.i442 = load ptr, ptr %this.addr.i441, align 8
  %50 = load ptr, ptr %Str.addr.i, align 8
  store ptr %50, ptr %this1.i442, align 8
  %Length.i443 = getelementptr inbounds %"class.llvh::StringRef", ptr %this1.i442, i32 0, i32 1
  %51 = load ptr, ptr %Str.addr.i, align 8
  %tobool.i = icmp ne ptr %51, null
  br i1 %tobool.i, label %cond.true.i, label %cond.false.i

cond.true.i:                                      ; preds = %lor.lhs.false
  %52 = load ptr, ptr %Str.addr.i, align 8
  %call.i444 = call i64 @strlen(ptr noundef %52) #12
  br label %_ZN4llvh9StringRefC2EPKc.exit

cond.false.i:                                     ; preds = %lor.lhs.false
  br label %_ZN4llvh9StringRefC2EPKc.exit

_ZN4llvh9StringRefC2EPKc.exit:                    ; preds = %cond.false.i, %cond.true.i
  %cond.i = phi i64 [ %call.i444, %cond.true.i ], [ 0, %cond.false.i ]
  store i64 %cond.i, ptr %Length.i443, align 8
  %53 = getelementptr inbounds { ptr, i64 }, ptr %agg.tmp54, i32 0, i32 0
  %54 = load ptr, ptr %53, align 8
  %55 = getelementptr inbounds { ptr, i64 }, ptr %agg.tmp54, i32 0, i32 1
  %56 = load i64, ptr %55, align 8
  %call55 = call noundef i64 @_ZNK4llvh9StringRef4findES0_m(ptr noundef nonnull align 8 dereferenceable(16) %PatternStr, ptr %54, i64 %56, i64 noundef 0)
  %cmp56 = icmp eq i64 %call55, -1
  br i1 %cmp56, label %land.lhs.true57, label %if.end62

land.lhs.true57:                                  ; preds = %_ZN4llvh9StringRefC2EPKc.exit
  store ptr %agg.tmp58, ptr %this.addr.i445, align 8
  store ptr @.str.5, ptr %Str.addr.i446, align 8
  %this1.i447 = load ptr, ptr %this.addr.i445, align 8
  %57 = load ptr, ptr %Str.addr.i446, align 8
  store ptr %57, ptr %this1.i447, align 8
  %Length.i448 = getelementptr inbounds %"class.llvh::StringRef", ptr %this1.i447, i32 0, i32 1
  %58 = load ptr, ptr %Str.addr.i446, align 8
  %tobool.i449 = icmp ne ptr %58, null
  br i1 %tobool.i449, label %cond.true.i452, label %cond.false.i450

cond.true.i452:                                   ; preds = %land.lhs.true57
  %59 = load ptr, ptr %Str.addr.i446, align 8
  %call.i453 = call i64 @strlen(ptr noundef %59) #12
  br label %_ZN4llvh9StringRefC2EPKc.exit454

cond.false.i450:                                  ; preds = %land.lhs.true57
  br label %_ZN4llvh9StringRefC2EPKc.exit454

_ZN4llvh9StringRefC2EPKc.exit454:                 ; preds = %cond.false.i450, %cond.true.i452
  %cond.i451 = phi i64 [ %call.i453, %cond.true.i452 ], [ 0, %cond.false.i450 ]
  store i64 %cond.i451, ptr %Length.i448, align 8
  %60 = getelementptr inbounds { ptr, i64 }, ptr %agg.tmp58, i32 0, i32 0
  %61 = load ptr, ptr %60, align 8
  %62 = getelementptr inbounds { ptr, i64 }, ptr %agg.tmp58, i32 0, i32 1
  %63 = load i64, ptr %62, align 8
  %call59 = call noundef i64 @_ZNK4llvh9StringRef4findES0_m(ptr noundef nonnull align 8 dereferenceable(16) %PatternStr, ptr %61, i64 %63, i64 noundef 0)
  %cmp60 = icmp eq i64 %call59, -1
  br i1 %cmp60, label %if.then61, label %if.end62

if.then61:                                        ; preds = %_ZN4llvh9StringRefC2EPKc.exit454, %land.lhs.true51
  %FixedStr = getelementptr inbounds %"class.llvh::FileCheckPattern", ptr %this1, i32 0, i32 1
  call void @llvm.memcpy.p0.p0.i64(ptr align 8 %FixedStr, ptr align 8 %PatternStr, i64 16, i1 false)
  store i1 false, ptr %retval, align 1
  br label %return

if.end62:                                         ; preds = %_ZN4llvh9StringRefC2EPKc.exit454, %_ZN4llvh9StringRefC2EPKc.exit, %if.end49
  %64 = load i8, ptr %MatchFullLinesHere, align 1
  %tobool63 = trunc i8 %64 to i1
  br i1 %tobool63, label %if.then64, label %if.end73

if.then64:                                        ; preds = %if.end62
  %RegExStr65 = getelementptr inbounds %"class.llvh::FileCheckPattern", ptr %this1, i32 0, i32 2
  %call66 = call noundef nonnull align 8 dereferenceable(32) ptr @_ZNSt7__cxx1112basic_stringIcSt11char_traitsIcESaIcEEpLEc(ptr noundef nonnull align 8 dereferenceable(32) %RegExStr65, i8 noundef signext 94)
  %65 = load ptr, ptr %Req.addr, align 8
  %NoCanonicalizeWhiteSpace67 = getelementptr inbounds %"struct.llvh::FileCheckRequest", ptr %65, i32 0, i32 1
  %66 = load i8, ptr %NoCanonicalizeWhiteSpace67, align 8
  %tobool68 = trunc i8 %66 to i1
  br i1 %tobool68, label %if.end72, label %if.then69

if.then69:                                        ; preds = %if.then64
  %RegExStr70 = getelementptr inbounds %"class.llvh::FileCheckPattern", ptr %this1, i32 0, i32 2
  %call71 = call noundef nonnull align 8 dereferenceable(32) ptr @_ZNSt7__cxx1112basic_stringIcSt11char_traitsIcESaIcEEpLEPKc(ptr noundef nonnull align 8 dereferenceable(32) %RegExStr70, ptr noundef @.str.6)
  br label %if.end72

if.end72:                                         ; preds = %if.then69, %if.then64
  br label %if.end73

if.end73:                                         ; preds = %if.end72, %if.end62
  store i32 1, ptr %CurParen, align 4
  br label %while.cond74

while.cond74:                                     ; preds = %_ZN4llvh9StringRefC2EPKc.exit504, %if.end248, %if.end100, %if.end73
  store ptr %PatternStr, ptr %this.addr.i305, align 8
  %this1.i306 = load ptr, ptr %this.addr.i305, align 8
  %Length.i307 = getelementptr inbounds %"class.llvh::StringRef", ptr %this1.i306, i32 0, i32 1
  %67 = load i64, ptr %Length.i307, align 8
  %cmp.i308 = icmp eq i64 %67, 0
  %lnot = xor i1 %cmp.i308, true
  br i1 %lnot, label %while.body76, label %while.end277

while.body76:                                     ; preds = %while.cond74
  store ptr %agg.tmp77, ptr %this.addr.i455, align 8
  store ptr @.str.4, ptr %Str.addr.i456, align 8
  %this1.i457 = load ptr, ptr %this.addr.i455, align 8
  %68 = load ptr, ptr %Str.addr.i456, align 8
  store ptr %68, ptr %this1.i457, align 8
  %Length.i458 = getelementptr inbounds %"class.llvh::StringRef", ptr %this1.i457, i32 0, i32 1
  %69 = load ptr, ptr %Str.addr.i456, align 8
  %tobool.i459 = icmp ne ptr %69, null
  br i1 %tobool.i459, label %cond.true.i462, label %cond.false.i460

cond.true.i462:                                   ; preds = %while.body76
  %70 = load ptr, ptr %Str.addr.i456, align 8
  %call.i463 = call i64 @strlen(ptr noundef %70) #12
  br label %_ZN4llvh9StringRefC2EPKc.exit464

cond.false.i460:                                  ; preds = %while.body76
  br label %_ZN4llvh9StringRefC2EPKc.exit464

_ZN4llvh9StringRefC2EPKc.exit464:                 ; preds = %cond.false.i460, %cond.true.i462
  %cond.i461 = phi i64 [ %call.i463, %cond.true.i462 ], [ 0, %cond.false.i460 ]
  store i64 %cond.i461, ptr %Length.i458, align 8
  %71 = getelementptr inbounds { ptr, i64 }, ptr %agg.tmp77, i32 0, i32 0
  %72 = load ptr, ptr %71, align 8
  %73 = getelementptr inbounds { ptr, i64 }, ptr %agg.tmp77, i32 0, i32 1
  %74 = load i64, ptr %73, align 8
  store ptr %72, ptr %Prefix.i511, align 8
  %75 = getelementptr inbounds { ptr, i64 }, ptr %Prefix.i511, i32 0, i32 1
  store i64 %74, ptr %75, align 8
  store ptr %PatternStr, ptr %this.addr.i512, align 8
  %this1.i513 = load ptr, ptr %this.addr.i512, align 8
  %Length.i514 = getelementptr inbounds %"class.llvh::StringRef", ptr %this1.i513, i32 0, i32 1
  %76 = load i64, ptr %Length.i514, align 8
  %Length2.i515 = getelementptr inbounds %"class.llvh::StringRef", ptr %Prefix.i511, i32 0, i32 1
  %77 = load i64, ptr %Length2.i515, align 8
  %cmp.i516 = icmp uge i64 %76, %77
  br i1 %cmp.i516, label %land.rhs.i517, label %_ZNK4llvh9StringRef10startswithES0_.exit521

land.rhs.i517:                                    ; preds = %_ZN4llvh9StringRefC2EPKc.exit464
  %78 = load ptr, ptr %this1.i513, align 8
  %79 = load ptr, ptr %Prefix.i511, align 8
  %Length4.i518 = getelementptr inbounds %"class.llvh::StringRef", ptr %Prefix.i511, i32 0, i32 1
  %80 = load i64, ptr %Length4.i518, align 8
  store ptr %78, ptr %Lhs.addr.i, align 8
  store ptr %79, ptr %Rhs.addr.i, align 8
  store i64 %80, ptr %Length.addr.i, align 8
  %81 = load i64, ptr %Length.addr.i, align 8
  %cmp.i581 = icmp eq i64 %81, 0
  br i1 %cmp.i581, label %if.then.i584, label %if.end.i582

if.then.i584:                                     ; preds = %land.rhs.i517
  store i32 0, ptr %retval.i580, align 4
  br label %_ZN4llvh9StringRef13compareMemoryEPKcS2_m.exit

if.end.i582:                                      ; preds = %land.rhs.i517
  %82 = load ptr, ptr %Lhs.addr.i, align 8
  %83 = load ptr, ptr %Rhs.addr.i, align 8
  %84 = load i64, ptr %Length.addr.i, align 8
  %call.i583 = call i32 @memcmp(ptr noundef %82, ptr noundef %83, i64 noundef %84) #12
  store i32 %call.i583, ptr %retval.i580, align 4
  br label %_ZN4llvh9StringRef13compareMemoryEPKcS2_m.exit

_ZN4llvh9StringRef13compareMemoryEPKcS2_m.exit:   ; preds = %if.end.i582, %if.then.i584
  %85 = load i32, ptr %retval.i580, align 4
  %cmp5.i520 = icmp eq i32 %85, 0
  br label %_ZNK4llvh9StringRef10startswithES0_.exit521

_ZNK4llvh9StringRef10startswithES0_.exit521:      ; preds = %_ZN4llvh9StringRef13compareMemoryEPKcS2_m.exit, %_ZN4llvh9StringRefC2EPKc.exit464
  %86 = phi i1 [ false, %_ZN4llvh9StringRefC2EPKc.exit464 ], [ %cmp5.i520, %_ZN4llvh9StringRef13compareMemoryEPKcS2_m.exit ]
  br i1 %86, label %if.then79, label %if.end105

if.then79:                                        ; preds = %_ZNK4llvh9StringRef10startswithES0_.exit521
  store ptr %agg.tmp80, ptr %this.addr.i465, align 8
  store ptr @.str.7, ptr %Str.addr.i466, align 8
  %this1.i467 = load ptr, ptr %this.addr.i465, align 8
  %87 = load ptr, ptr %Str.addr.i466, align 8
  store ptr %87, ptr %this1.i467, align 8
  %Length.i468 = getelementptr inbounds %"class.llvh::StringRef", ptr %this1.i467, i32 0, i32 1
  %88 = load ptr, ptr %Str.addr.i466, align 8
  %tobool.i469 = icmp ne ptr %88, null
  br i1 %tobool.i469, label %cond.true.i472, label %cond.false.i470

cond.true.i472:                                   ; preds = %if.then79
  %89 = load ptr, ptr %Str.addr.i466, align 8
  %call.i473 = call i64 @strlen(ptr noundef %89) #12
  br label %_ZN4llvh9StringRefC2EPKc.exit474

cond.false.i470:                                  ; preds = %if.then79
  br label %_ZN4llvh9StringRefC2EPKc.exit474

_ZN4llvh9StringRefC2EPKc.exit474:                 ; preds = %cond.false.i470, %cond.true.i472
  %cond.i471 = phi i64 [ %call.i473, %cond.true.i472 ], [ 0, %cond.false.i470 ]
  store i64 %cond.i471, ptr %Length.i468, align 8
  %90 = getelementptr inbounds { ptr, i64 }, ptr %agg.tmp80, i32 0, i32 0
  %91 = load ptr, ptr %90, align 8
  %92 = getelementptr inbounds { ptr, i64 }, ptr %agg.tmp80, i32 0, i32 1
  %93 = load i64, ptr %92, align 8
  %call81 = call noundef i64 @_ZNK4llvh9StringRef4findES0_m(ptr noundef nonnull align 8 dereferenceable(16) %PatternStr, ptr %91, i64 %93, i64 noundef 0)
  store i64 %call81, ptr %End, align 8
  %94 = load i64, ptr %End, align 8
  %cmp82 = icmp eq i64 %94, -1
  br i1 %cmp82, label %if.then83, label %if.end92

if.then83:                                        ; preds = %_ZN4llvh9StringRefC2EPKc.exit474
  %95 = load ptr, ptr %SM.addr, align 8
  store ptr %PatternStr, ptr %this.addr.i299, align 8
  %this1.i300 = load ptr, ptr %this.addr.i299, align 8
  %96 = load ptr, ptr %this1.i300, align 8
  %call86 = call ptr @_ZN4llvh5SMLoc14getFromPointerEPKc(ptr noundef %96)
  %coerce.dive87 = getelementptr inbounds %"class.llvh::SMLoc", ptr %agg.tmp84, i32 0, i32 0
  store ptr %call86, ptr %coerce.dive87, align 8
  call void @_ZN4llvh5TwineC2EPKc(ptr noundef nonnull align 8 dereferenceable(18) %ref.tmp88, ptr noundef @.str.8)
  call void @_ZN4llvh8ArrayRefINS_7SMRangeEEC2ENS_8NoneTypeE(ptr noundef nonnull align 8 dereferenceable(16) %agg.tmp89, i32 noundef 1)
  call void @_ZN4llvh8ArrayRefINS_7SMFixItEEC2ENS_8NoneTypeE(ptr noundef nonnull align 8 dereferenceable(16) %agg.tmp90, i32 noundef 1)
  %coerce.dive91 = getelementptr inbounds %"class.llvh::SMLoc", ptr %agg.tmp84, i32 0, i32 0
  %97 = load ptr, ptr %coerce.dive91, align 8
  %98 = getelementptr inbounds { ptr, i64 }, ptr %agg.tmp89, i32 0, i32 0
  %99 = load ptr, ptr %98, align 8
  %100 = getelementptr inbounds { ptr, i64 }, ptr %agg.tmp89, i32 0, i32 1
  %101 = load i64, ptr %100, align 8
  call void @_ZNK4llvh9SourceMgr12PrintMessageENS_5SMLocENS0_8DiagKindERKNS_5TwineENS_8ArrayRefINS_7SMRangeEEENS6_INS_7SMFixItEEEb(ptr noundef nonnull align 8 dereferenceable(120) %95, ptr %97, i32 noundef 0, ptr noundef nonnull align 8 dereferenceable(18) %ref.tmp88, ptr %99, i64 %101, ptr noundef byval(%"class.llvh::ArrayRef.24") align 8 %agg.tmp90, i1 noundef zeroext true)
  store i1 true, ptr %retval, align 1
  br label %return

if.end92:                                         ; preds = %_ZN4llvh9StringRefC2EPKc.exit474
  %RegExStr93 = getelementptr inbounds %"class.llvh::FileCheckPattern", ptr %this1, i32 0, i32 2
  %call94 = call noundef nonnull align 8 dereferenceable(32) ptr @_ZNSt7__cxx1112basic_stringIcSt11char_traitsIcESaIcEEpLEc(ptr noundef nonnull align 8 dereferenceable(32) %RegExStr93, i8 noundef signext 40)
  %102 = load i32, ptr %CurParen, align 4
  %inc = add i32 %102, 1
  store i32 %inc, ptr %CurParen, align 4
  %103 = load i64, ptr %End, align 8
  %sub96 = sub i64 %103, 2
  store ptr %PatternStr, ptr %this.addr.i409, align 8
  store i64 2, ptr %Start.addr.i410, align 8
  store i64 %sub96, ptr %N.addr.i411, align 8
  %this1.i413 = load ptr, ptr %this.addr.i409, align 8
  %Length.i414 = getelementptr inbounds %"class.llvh::StringRef", ptr %this1.i413, i32 0, i32 1
  %call.i415 = call noundef nonnull align 8 dereferenceable(8) ptr @_ZSt3minImERKT_S2_S2_(ptr noundef nonnull align 8 dereferenceable(8) %Start.addr.i410, ptr noundef nonnull align 8 dereferenceable(8) %Length.i414)
  %104 = load i64, ptr %call.i415, align 8
  store i64 %104, ptr %Start.addr.i410, align 8
  %105 = load ptr, ptr %this1.i413, align 8
  %106 = load i64, ptr %Start.addr.i410, align 8
  %add.ptr.i416 = getelementptr inbounds i8, ptr %105, i64 %106
  %Length2.i417 = getelementptr inbounds %"class.llvh::StringRef", ptr %this1.i413, i32 0, i32 1
  %107 = load i64, ptr %Length2.i417, align 8
  %108 = load i64, ptr %Start.addr.i410, align 8
  %sub.i418 = sub i64 %107, %108
  store i64 %sub.i418, ptr %ref.tmp.i412, align 8
  %call3.i419 = call noundef nonnull align 8 dereferenceable(8) ptr @_ZSt3minImERKT_S2_S2_(ptr noundef nonnull align 8 dereferenceable(8) %N.addr.i411, ptr noundef nonnull align 8 dereferenceable(8) %ref.tmp.i412)
  %109 = load i64, ptr %call3.i419, align 8
  store ptr %retval.i408, ptr %this.addr.i535, align 8
  store ptr %add.ptr.i416, ptr %data.addr.i536, align 8
  store i64 %109, ptr %length.addr.i537, align 8
  %this1.i538 = load ptr, ptr %this.addr.i535, align 8
  %110 = load ptr, ptr %data.addr.i536, align 8
  store ptr %110, ptr %this1.i538, align 8
  %Length.i539 = getelementptr inbounds %"class.llvh::StringRef", ptr %this1.i538, i32 0, i32 1
  %111 = load i64, ptr %length.addr.i537, align 8
  store i64 %111, ptr %Length.i539, align 8
  %112 = load { ptr, i64 }, ptr %retval.i408, align 8
  %113 = getelementptr inbounds { ptr, i64 }, ptr %agg.tmp95, i32 0, i32 0
  %114 = extractvalue { ptr, i64 } %112, 0
  store ptr %114, ptr %113, align 8
  %115 = getelementptr inbounds { ptr, i64 }, ptr %agg.tmp95, i32 0, i32 1
  %116 = extractvalue { ptr, i64 } %112, 1
  store i64 %116, ptr %115, align 8
  %117 = load ptr, ptr %SM.addr, align 8
  %118 = getelementptr inbounds { ptr, i64 }, ptr %agg.tmp95, i32 0, i32 0
  %119 = load ptr, ptr %118, align 8
  %120 = getelementptr inbounds { ptr, i64 }, ptr %agg.tmp95, i32 0, i32 1
  %121 = load i64, ptr %120, align 8
  %call98 = call noundef zeroext i1 @_ZN4llvh16FileCheckPattern15AddRegExToRegExENS_9StringRefERjRNS_9SourceMgrE(ptr noundef nonnull align 8 dereferenceable(136) %this1, ptr %119, i64 %121, ptr noundef nonnull align 4 dereferenceable(4) %CurParen, ptr noundef nonnull align 8 dereferenceable(120) %117)
  br i1 %call98, label %if.then99, label %if.end100

if.then99:                                        ; preds = %if.end92
  store i1 true, ptr %retval, align 1
  br label %return

if.end100:                                        ; preds = %if.end92
  %RegExStr101 = getelementptr inbounds %"class.llvh::FileCheckPattern", ptr %this1, i32 0, i32 2
  %call102 = call noundef nonnull align 8 dereferenceable(32) ptr @_ZNSt7__cxx1112basic_stringIcSt11char_traitsIcESaIcEEpLEc(ptr noundef nonnull align 8 dereferenceable(32) %RegExStr101, i8 noundef signext 41)
  %122 = load i64, ptr %End, align 8
  %add = add i64 %122, 2
  store ptr %PatternStr, ptr %this.addr.i397, align 8
  store i64 %add, ptr %Start.addr.i398, align 8
  store i64 -1, ptr %N.addr.i399, align 8
  %this1.i401 = load ptr, ptr %this.addr.i397, align 8
  %Length.i402 = getelementptr inbounds %"class.llvh::StringRef", ptr %this1.i401, i32 0, i32 1
  %call.i403 = call noundef nonnull align 8 dereferenceable(8) ptr @_ZSt3minImERKT_S2_S2_(ptr noundef nonnull align 8 dereferenceable(8) %Start.addr.i398, ptr noundef nonnull align 8 dereferenceable(8) %Length.i402)
  %123 = load i64, ptr %call.i403, align 8
  store i64 %123, ptr %Start.addr.i398, align 8
  %124 = load ptr, ptr %this1.i401, align 8
  %125 = load i64, ptr %Start.addr.i398, align 8
  %add.ptr.i404 = getelementptr inbounds i8, ptr %124, i64 %125
  %Length2.i405 = getelementptr inbounds %"class.llvh::StringRef", ptr %this1.i401, i32 0, i32 1
  %126 = load i64, ptr %Length2.i405, align 8
  %127 = load i64, ptr %Start.addr.i398, align 8
  %sub.i406 = sub i64 %126, %127
  store i64 %sub.i406, ptr %ref.tmp.i400, align 8
  %call3.i407 = call noundef nonnull align 8 dereferenceable(8) ptr @_ZSt3minImERKT_S2_S2_(ptr noundef nonnull align 8 dereferenceable(8) %N.addr.i399, ptr noundef nonnull align 8 dereferenceable(8) %ref.tmp.i400)
  %128 = load i64, ptr %call3.i407, align 8
  store ptr %retval.i396, ptr %this.addr.i540, align 8
  store ptr %add.ptr.i404, ptr %data.addr.i541, align 8
  store i64 %128, ptr %length.addr.i542, align 8
  %this1.i543 = load ptr, ptr %this.addr.i540, align 8
  %129 = load ptr, ptr %data.addr.i541, align 8
  store ptr %129, ptr %this1.i543, align 8
  %Length.i544 = getelementptr inbounds %"class.llvh::StringRef", ptr %this1.i543, i32 0, i32 1
  %130 = load i64, ptr %length.addr.i542, align 8
  store i64 %130, ptr %Length.i544, align 8
  %131 = load { ptr, i64 }, ptr %retval.i396, align 8
  %132 = getelementptr inbounds { ptr, i64 }, ptr %ref.tmp103, i32 0, i32 0
  %133 = extractvalue { ptr, i64 } %131, 0
  store ptr %133, ptr %132, align 8
  %134 = getelementptr inbounds { ptr, i64 }, ptr %ref.tmp103, i32 0, i32 1
  %135 = extractvalue { ptr, i64 } %131, 1
  store i64 %135, ptr %134, align 8
  call void @llvm.memcpy.p0.p0.i64(ptr align 8 %PatternStr, ptr align 8 %ref.tmp103, i64 16, i1 false)
  br label %while.cond74, !llvm.loop !6

if.end105:                                        ; preds = %_ZNK4llvh9StringRef10startswithES0_.exit521
  store ptr %agg.tmp106, ptr %this.addr.i475, align 8
  store ptr @.str.5, ptr %Str.addr.i476, align 8
  %this1.i477 = load ptr, ptr %this.addr.i475, align 8
  %136 = load ptr, ptr %Str.addr.i476, align 8
  store ptr %136, ptr %this1.i477, align 8
  %Length.i478 = getelementptr inbounds %"class.llvh::StringRef", ptr %this1.i477, i32 0, i32 1
  %137 = load ptr, ptr %Str.addr.i476, align 8
  %tobool.i479 = icmp ne ptr %137, null
  br i1 %tobool.i479, label %cond.true.i482, label %cond.false.i480

cond.true.i482:                                   ; preds = %if.end105
  %138 = load ptr, ptr %Str.addr.i476, align 8
  %call.i483 = call i64 @strlen(ptr noundef %138) #12
  br label %_ZN4llvh9StringRefC2EPKc.exit484

cond.false.i480:                                  ; preds = %if.end105
  br label %_ZN4llvh9StringRefC2EPKc.exit484

_ZN4llvh9StringRefC2EPKc.exit484:                 ; preds = %cond.false.i480, %cond.true.i482
  %cond.i481 = phi i64 [ %call.i483, %cond.true.i482 ], [ 0, %cond.false.i480 ]
  store i64 %cond.i481, ptr %Length.i478, align 8
  %139 = getelementptr inbounds { ptr, i64 }, ptr %agg.tmp106, i32 0, i32 0
  %140 = load ptr, ptr %139, align 8
  %141 = getelementptr inbounds { ptr, i64 }, ptr %agg.tmp106, i32 0, i32 1
  %142 = load i64, ptr %141, align 8
  store ptr %140, ptr %Prefix.i, align 8
  %143 = getelementptr inbounds { ptr, i64 }, ptr %Prefix.i, i32 0, i32 1
  store i64 %142, ptr %143, align 8
  store ptr %PatternStr, ptr %this.addr.i505, align 8
  %this1.i506 = load ptr, ptr %this.addr.i505, align 8
  %Length.i507 = getelementptr inbounds %"class.llvh::StringRef", ptr %this1.i506, i32 0, i32 1
  %144 = load i64, ptr %Length.i507, align 8
  %Length2.i508 = getelementptr inbounds %"class.llvh::StringRef", ptr %Prefix.i, i32 0, i32 1
  %145 = load i64, ptr %Length2.i508, align 8
  %cmp.i509 = icmp uge i64 %144, %145
  br i1 %cmp.i509, label %land.rhs.i, label %_ZNK4llvh9StringRef10startswithES0_.exit

land.rhs.i:                                       ; preds = %_ZN4llvh9StringRefC2EPKc.exit484
  %146 = load ptr, ptr %this1.i506, align 8
  %147 = load ptr, ptr %Prefix.i, align 8
  %Length4.i = getelementptr inbounds %"class.llvh::StringRef", ptr %Prefix.i, i32 0, i32 1
  %148 = load i64, ptr %Length4.i, align 8
  store ptr %146, ptr %Lhs.addr.i586, align 8
  store ptr %147, ptr %Rhs.addr.i587, align 8
  store i64 %148, ptr %Length.addr.i588, align 8
  %149 = load i64, ptr %Length.addr.i588, align 8
  %cmp.i589 = icmp eq i64 %149, 0
  br i1 %cmp.i589, label %if.then.i592, label %if.end.i590

if.then.i592:                                     ; preds = %land.rhs.i
  store i32 0, ptr %retval.i585, align 4
  br label %_ZN4llvh9StringRef13compareMemoryEPKcS2_m.exit593

if.end.i590:                                      ; preds = %land.rhs.i
  %150 = load ptr, ptr %Lhs.addr.i586, align 8
  %151 = load ptr, ptr %Rhs.addr.i587, align 8
  %152 = load i64, ptr %Length.addr.i588, align 8
  %call.i591 = call i32 @memcmp(ptr noundef %150, ptr noundef %151, i64 noundef %152) #12
  store i32 %call.i591, ptr %retval.i585, align 4
  br label %_ZN4llvh9StringRef13compareMemoryEPKcS2_m.exit593

_ZN4llvh9StringRef13compareMemoryEPKcS2_m.exit593: ; preds = %if.end.i590, %if.then.i592
  %153 = load i32, ptr %retval.i585, align 4
  %cmp5.i = icmp eq i32 %153, 0
  br label %_ZNK4llvh9StringRef10startswithES0_.exit

_ZNK4llvh9StringRef10startswithES0_.exit:         ; preds = %_ZN4llvh9StringRef13compareMemoryEPKcS2_m.exit593, %_ZN4llvh9StringRefC2EPKc.exit484
  %154 = phi i1 [ false, %_ZN4llvh9StringRefC2EPKc.exit484 ], [ %cmp5.i, %_ZN4llvh9StringRef13compareMemoryEPKcS2_m.exit593 ]
  br i1 %154, label %if.then108, label %if.end263

if.then108:                                       ; preds = %_ZNK4llvh9StringRef10startswithES0_.exit
  store ptr %PatternStr, ptr %this.addr.i385, align 8
  store i64 2, ptr %Start.addr.i386, align 8
  store i64 -1, ptr %N.addr.i387, align 8
  %this1.i389 = load ptr, ptr %this.addr.i385, align 8
  %Length.i390 = getelementptr inbounds %"class.llvh::StringRef", ptr %this1.i389, i32 0, i32 1
  %call.i391 = call noundef nonnull align 8 dereferenceable(8) ptr @_ZSt3minImERKT_S2_S2_(ptr noundef nonnull align 8 dereferenceable(8) %Start.addr.i386, ptr noundef nonnull align 8 dereferenceable(8) %Length.i390)
  %155 = load i64, ptr %call.i391, align 8
  store i64 %155, ptr %Start.addr.i386, align 8
  %156 = load ptr, ptr %this1.i389, align 8
  %157 = load i64, ptr %Start.addr.i386, align 8
  %add.ptr.i392 = getelementptr inbounds i8, ptr %156, i64 %157
  %Length2.i393 = getelementptr inbounds %"class.llvh::StringRef", ptr %this1.i389, i32 0, i32 1
  %158 = load i64, ptr %Length2.i393, align 8
  %159 = load i64, ptr %Start.addr.i386, align 8
  %sub.i394 = sub i64 %158, %159
  store i64 %sub.i394, ptr %ref.tmp.i388, align 8
  %call3.i395 = call noundef nonnull align 8 dereferenceable(8) ptr @_ZSt3minImERKT_S2_S2_(ptr noundef nonnull align 8 dereferenceable(8) %N.addr.i387, ptr noundef nonnull align 8 dereferenceable(8) %ref.tmp.i388)
  %160 = load i64, ptr %call3.i395, align 8
  store ptr %retval.i384, ptr %this.addr.i545, align 8
  store ptr %add.ptr.i392, ptr %data.addr.i546, align 8
  store i64 %160, ptr %length.addr.i547, align 8
  %this1.i548 = load ptr, ptr %this.addr.i545, align 8
  %161 = load ptr, ptr %data.addr.i546, align 8
  store ptr %161, ptr %this1.i548, align 8
  %Length.i549 = getelementptr inbounds %"class.llvh::StringRef", ptr %this1.i548, i32 0, i32 1
  %162 = load i64, ptr %length.addr.i547, align 8
  store i64 %162, ptr %Length.i549, align 8
  %163 = load { ptr, i64 }, ptr %retval.i384, align 8
  %164 = getelementptr inbounds { ptr, i64 }, ptr %agg.tmp110, i32 0, i32 0
  %165 = extractvalue { ptr, i64 } %163, 0
  store ptr %165, ptr %164, align 8
  %166 = getelementptr inbounds { ptr, i64 }, ptr %agg.tmp110, i32 0, i32 1
  %167 = extractvalue { ptr, i64 } %163, 1
  store i64 %167, ptr %166, align 8
  %168 = load ptr, ptr %SM.addr, align 8
  %169 = getelementptr inbounds { ptr, i64 }, ptr %agg.tmp110, i32 0, i32 0
  %170 = load ptr, ptr %169, align 8
  %171 = getelementptr inbounds { ptr, i64 }, ptr %agg.tmp110, i32 0, i32 1
  %172 = load i64, ptr %171, align 8
  %call112 = call noundef i64 @_ZN4llvh16FileCheckPattern15FindRegexVarEndENS_9StringRefERNS_9SourceMgrE(ptr noundef nonnull align 8 dereferenceable(136) %this1, ptr %170, i64 %172, ptr noundef nonnull align 8 dereferenceable(120) %168)
  store i64 %call112, ptr %End109, align 8
  %173 = load i64, ptr %End109, align 8
  %cmp113 = icmp eq i64 %173, -1
  br i1 %cmp113, label %if.then114, label %if.end123

if.then114:                                       ; preds = %if.then108
  %174 = load ptr, ptr %SM.addr, align 8
  store ptr %PatternStr, ptr %this.addr.i297, align 8
  %this1.i298 = load ptr, ptr %this.addr.i297, align 8
  %175 = load ptr, ptr %this1.i298, align 8
  %call117 = call ptr @_ZN4llvh5SMLoc14getFromPointerEPKc(ptr noundef %175)
  %coerce.dive118 = getelementptr inbounds %"class.llvh::SMLoc", ptr %agg.tmp115, i32 0, i32 0
  store ptr %call117, ptr %coerce.dive118, align 8
  call void @_ZN4llvh5TwineC2EPKc(ptr noundef nonnull align 8 dereferenceable(18) %ref.tmp119, ptr noundef @.str.9)
  call void @_ZN4llvh8ArrayRefINS_7SMRangeEEC2ENS_8NoneTypeE(ptr noundef nonnull align 8 dereferenceable(16) %agg.tmp120, i32 noundef 1)
  call void @_ZN4llvh8ArrayRefINS_7SMFixItEEC2ENS_8NoneTypeE(ptr noundef nonnull align 8 dereferenceable(16) %agg.tmp121, i32 noundef 1)
  %coerce.dive122 = getelementptr inbounds %"class.llvh::SMLoc", ptr %agg.tmp115, i32 0, i32 0
  %176 = load ptr, ptr %coerce.dive122, align 8
  %177 = getelementptr inbounds { ptr, i64 }, ptr %agg.tmp120, i32 0, i32 0
  %178 = load ptr, ptr %177, align 8
  %179 = getelementptr inbounds { ptr, i64 }, ptr %agg.tmp120, i32 0, i32 1
  %180 = load i64, ptr %179, align 8
  call void @_ZNK4llvh9SourceMgr12PrintMessageENS_5SMLocENS0_8DiagKindERKNS_5TwineENS_8ArrayRefINS_7SMRangeEEENS6_INS_7SMFixItEEEb(ptr noundef nonnull align 8 dereferenceable(120) %174, ptr %176, i32 noundef 0, ptr noundef nonnull align 8 dereferenceable(18) %ref.tmp119, ptr %178, i64 %180, ptr noundef byval(%"class.llvh::ArrayRef.24") align 8 %agg.tmp121, i1 noundef zeroext true)
  store i1 true, ptr %retval, align 1
  br label %return

if.end123:                                        ; preds = %if.then108
  %181 = load i64, ptr %End109, align 8
  store ptr %PatternStr, ptr %this.addr.i373, align 8
  store i64 2, ptr %Start.addr.i374, align 8
  store i64 %181, ptr %N.addr.i375, align 8
  %this1.i377 = load ptr, ptr %this.addr.i373, align 8
  %Length.i378 = getelementptr inbounds %"class.llvh::StringRef", ptr %this1.i377, i32 0, i32 1
  %call.i379 = call noundef nonnull align 8 dereferenceable(8) ptr @_ZSt3minImERKT_S2_S2_(ptr noundef nonnull align 8 dereferenceable(8) %Start.addr.i374, ptr noundef nonnull align 8 dereferenceable(8) %Length.i378)
  %182 = load i64, ptr %call.i379, align 8
  store i64 %182, ptr %Start.addr.i374, align 8
  %183 = load ptr, ptr %this1.i377, align 8
  %184 = load i64, ptr %Start.addr.i374, align 8
  %add.ptr.i380 = getelementptr inbounds i8, ptr %183, i64 %184
  %Length2.i381 = getelementptr inbounds %"class.llvh::StringRef", ptr %this1.i377, i32 0, i32 1
  %185 = load i64, ptr %Length2.i381, align 8
  %186 = load i64, ptr %Start.addr.i374, align 8
  %sub.i382 = sub i64 %185, %186
  store i64 %sub.i382, ptr %ref.tmp.i376, align 8
  %call3.i383 = call noundef nonnull align 8 dereferenceable(8) ptr @_ZSt3minImERKT_S2_S2_(ptr noundef nonnull align 8 dereferenceable(8) %N.addr.i375, ptr noundef nonnull align 8 dereferenceable(8) %ref.tmp.i376)
  %187 = load i64, ptr %call3.i383, align 8
  store ptr %retval.i372, ptr %this.addr.i550, align 8
  store ptr %add.ptr.i380, ptr %data.addr.i551, align 8
  store i64 %187, ptr %length.addr.i552, align 8
  %this1.i553 = load ptr, ptr %this.addr.i550, align 8
  %188 = load ptr, ptr %data.addr.i551, align 8
  store ptr %188, ptr %this1.i553, align 8
  %Length.i554 = getelementptr inbounds %"class.llvh::StringRef", ptr %this1.i553, i32 0, i32 1
  %189 = load i64, ptr %length.addr.i552, align 8
  store i64 %189, ptr %Length.i554, align 8
  %190 = load { ptr, i64 }, ptr %retval.i372, align 8
  %191 = getelementptr inbounds { ptr, i64 }, ptr %MatchStr, i32 0, i32 0
  %192 = extractvalue { ptr, i64 } %190, 0
  store ptr %192, ptr %191, align 8
  %193 = getelementptr inbounds { ptr, i64 }, ptr %MatchStr, i32 0, i32 1
  %194 = extractvalue { ptr, i64 } %190, 1
  store i64 %194, ptr %193, align 8
  %195 = load i64, ptr %End109, align 8
  %add126 = add i64 %195, 4
  store ptr %PatternStr, ptr %this.addr.i361, align 8
  store i64 %add126, ptr %Start.addr.i362, align 8
  store i64 -1, ptr %N.addr.i363, align 8
  %this1.i365 = load ptr, ptr %this.addr.i361, align 8
  %Length.i366 = getelementptr inbounds %"class.llvh::StringRef", ptr %this1.i365, i32 0, i32 1
  %call.i367 = call noundef nonnull align 8 dereferenceable(8) ptr @_ZSt3minImERKT_S2_S2_(ptr noundef nonnull align 8 dereferenceable(8) %Start.addr.i362, ptr noundef nonnull align 8 dereferenceable(8) %Length.i366)
  %196 = load i64, ptr %call.i367, align 8
  store i64 %196, ptr %Start.addr.i362, align 8
  %197 = load ptr, ptr %this1.i365, align 8
  %198 = load i64, ptr %Start.addr.i362, align 8
  %add.ptr.i368 = getelementptr inbounds i8, ptr %197, i64 %198
  %Length2.i369 = getelementptr inbounds %"class.llvh::StringRef", ptr %this1.i365, i32 0, i32 1
  %199 = load i64, ptr %Length2.i369, align 8
  %200 = load i64, ptr %Start.addr.i362, align 8
  %sub.i370 = sub i64 %199, %200
  store i64 %sub.i370, ptr %ref.tmp.i364, align 8
  %call3.i371 = call noundef nonnull align 8 dereferenceable(8) ptr @_ZSt3minImERKT_S2_S2_(ptr noundef nonnull align 8 dereferenceable(8) %N.addr.i363, ptr noundef nonnull align 8 dereferenceable(8) %ref.tmp.i364)
  %201 = load i64, ptr %call3.i371, align 8
  store ptr %retval.i360, ptr %this.addr.i555, align 8
  store ptr %add.ptr.i368, ptr %data.addr.i556, align 8
  store i64 %201, ptr %length.addr.i557, align 8
  %this1.i558 = load ptr, ptr %this.addr.i555, align 8
  %202 = load ptr, ptr %data.addr.i556, align 8
  store ptr %202, ptr %this1.i558, align 8
  %Length.i559 = getelementptr inbounds %"class.llvh::StringRef", ptr %this1.i558, i32 0, i32 1
  %203 = load i64, ptr %length.addr.i557, align 8
  store i64 %203, ptr %Length.i559, align 8
  %204 = load { ptr, i64 }, ptr %retval.i360, align 8
  %205 = getelementptr inbounds { ptr, i64 }, ptr %ref.tmp125, i32 0, i32 0
  %206 = extractvalue { ptr, i64 } %204, 0
  store ptr %206, ptr %205, align 8
  %207 = getelementptr inbounds { ptr, i64 }, ptr %ref.tmp125, i32 0, i32 1
  %208 = extractvalue { ptr, i64 } %204, 1
  store i64 %208, ptr %207, align 8
  call void @llvm.memcpy.p0.p0.i64(ptr align 8 %PatternStr, ptr align 8 %ref.tmp125, i64 16, i1 false)
  store ptr %MatchStr, ptr %this.addr.i523, align 8
  store i8 58, ptr %C.addr.i, align 1
  store i64 0, ptr %From.addr.i, align 8
  %this1.i524 = load ptr, ptr %this.addr.i523, align 8
  %Length.i525 = getelementptr inbounds %"class.llvh::StringRef", ptr %this1.i524, i32 0, i32 1
  %call.i526 = call noundef nonnull align 8 dereferenceable(8) ptr @_ZSt3minImERKT_S2_S2_(ptr noundef nonnull align 8 dereferenceable(8) %From.addr.i, ptr noundef nonnull align 8 dereferenceable(8) %Length.i525)
  %209 = load i64, ptr %call.i526, align 8
  store i64 %209, ptr %FindBegin.i, align 8
  %210 = load i64, ptr %FindBegin.i, align 8
  %Length2.i527 = getelementptr inbounds %"class.llvh::StringRef", ptr %this1.i524, i32 0, i32 1
  %211 = load i64, ptr %Length2.i527, align 8
  %cmp.i528 = icmp ult i64 %210, %211
  br i1 %cmp.i528, label %if.then.i, label %if.end7.i

if.then.i:                                        ; preds = %if.end123
  %212 = load ptr, ptr %this1.i524, align 8
  %213 = load i64, ptr %FindBegin.i, align 8
  %add.ptr.i529 = getelementptr inbounds i8, ptr %212, i64 %213
  %214 = load i8, ptr %C.addr.i, align 1
  %conv.i = sext i8 %214 to i32
  %Length3.i = getelementptr inbounds %"class.llvh::StringRef", ptr %this1.i524, i32 0, i32 1
  %215 = load i64, ptr %Length3.i, align 8
  %216 = load i64, ptr %FindBegin.i, align 8
  %sub.i530 = sub i64 %215, %216
  %call4.i = call noundef ptr @memchr(ptr noundef %add.ptr.i529, i32 noundef %conv.i, i64 noundef %sub.i530) #12
  store ptr %call4.i, ptr %P.i, align 8
  %217 = load ptr, ptr %P.i, align 8
  %tobool.i531 = icmp ne ptr %217, null
  br i1 %tobool.i531, label %if.then5.i, label %if.end.i

if.then5.i:                                       ; preds = %if.then.i
  %218 = load ptr, ptr %P.i, align 8
  %219 = load ptr, ptr %this1.i524, align 8
  %sub.ptr.lhs.cast.i = ptrtoint ptr %218 to i64
  %sub.ptr.rhs.cast.i = ptrtoint ptr %219 to i64
  %sub.ptr.sub.i = sub i64 %sub.ptr.lhs.cast.i, %sub.ptr.rhs.cast.i
  store i64 %sub.ptr.sub.i, ptr %retval.i522, align 8
  br label %_ZNK4llvh9StringRef4findEcm.exit

if.end.i:                                         ; preds = %if.then.i
  br label %if.end7.i

if.end7.i:                                        ; preds = %if.end.i, %if.end123
  store i64 -1, ptr %retval.i522, align 8
  br label %_ZNK4llvh9StringRef4findEcm.exit

_ZNK4llvh9StringRef4findEcm.exit:                 ; preds = %if.end7.i, %if.then5.i
  %220 = load i64, ptr %retval.i522, align 8
  store i64 %220, ptr %NameEnd, align 8
  %221 = load i64, ptr %NameEnd, align 8
  store ptr %MatchStr, ptr %this.addr.i349, align 8
  store i64 0, ptr %Start.addr.i350, align 8
  store i64 %221, ptr %N.addr.i351, align 8
  %this1.i353 = load ptr, ptr %this.addr.i349, align 8
  %Length.i354 = getelementptr inbounds %"class.llvh::StringRef", ptr %this1.i353, i32 0, i32 1
  %call.i355 = call noundef nonnull align 8 dereferenceable(8) ptr @_ZSt3minImERKT_S2_S2_(ptr noundef nonnull align 8 dereferenceable(8) %Start.addr.i350, ptr noundef nonnull align 8 dereferenceable(8) %Length.i354)
  %222 = load i64, ptr %call.i355, align 8
  store i64 %222, ptr %Start.addr.i350, align 8
  %223 = load ptr, ptr %this1.i353, align 8
  %224 = load i64, ptr %Start.addr.i350, align 8
  %add.ptr.i356 = getelementptr inbounds i8, ptr %223, i64 %224
  %Length2.i357 = getelementptr inbounds %"class.llvh::StringRef", ptr %this1.i353, i32 0, i32 1
  %225 = load i64, ptr %Length2.i357, align 8
  %226 = load i64, ptr %Start.addr.i350, align 8
  %sub.i358 = sub i64 %225, %226
  store i64 %sub.i358, ptr %ref.tmp.i352, align 8
  %call3.i359 = call noundef nonnull align 8 dereferenceable(8) ptr @_ZSt3minImERKT_S2_S2_(ptr noundef nonnull align 8 dereferenceable(8) %N.addr.i351, ptr noundef nonnull align 8 dereferenceable(8) %ref.tmp.i352)
  %227 = load i64, ptr %call3.i359, align 8
  store ptr %retval.i348, ptr %this.addr.i560, align 8
  store ptr %add.ptr.i356, ptr %data.addr.i561, align 8
  store i64 %227, ptr %length.addr.i562, align 8
  %this1.i563 = load ptr, ptr %this.addr.i560, align 8
  %228 = load ptr, ptr %data.addr.i561, align 8
  store ptr %228, ptr %this1.i563, align 8
  %Length.i564 = getelementptr inbounds %"class.llvh::StringRef", ptr %this1.i563, i32 0, i32 1
  %229 = load i64, ptr %length.addr.i562, align 8
  store i64 %229, ptr %Length.i564, align 8
  %230 = load { ptr, i64 }, ptr %retval.i348, align 8
  %231 = getelementptr inbounds { ptr, i64 }, ptr %Name, i32 0, i32 0
  %232 = extractvalue { ptr, i64 } %230, 0
  store ptr %232, ptr %231, align 8
  %233 = getelementptr inbounds { ptr, i64 }, ptr %Name, i32 0, i32 1
  %234 = extractvalue { ptr, i64 } %230, 1
  store i64 %234, ptr %233, align 8
  store ptr %Name, ptr %this.addr.i303, align 8
  %this1.i304 = load ptr, ptr %this.addr.i303, align 8
  %Length.i = getelementptr inbounds %"class.llvh::StringRef", ptr %this1.i304, i32 0, i32 1
  %235 = load i64, ptr %Length.i, align 8
  %cmp.i = icmp eq i64 %235, 0
  br i1 %cmp.i, label %if.then131, label %if.end140

if.then131:                                       ; preds = %_ZNK4llvh9StringRef4findEcm.exit
  %236 = load ptr, ptr %SM.addr, align 8
  store ptr %Name, ptr %this.addr.i295, align 8
  %this1.i296 = load ptr, ptr %this.addr.i295, align 8
  %237 = load ptr, ptr %this1.i296, align 8
  %call134 = call ptr @_ZN4llvh5SMLoc14getFromPointerEPKc(ptr noundef %237)
  %coerce.dive135 = getelementptr inbounds %"class.llvh::SMLoc", ptr %agg.tmp132, i32 0, i32 0
  store ptr %call134, ptr %coerce.dive135, align 8
  call void @_ZN4llvh5TwineC2EPKc(ptr noundef nonnull align 8 dereferenceable(18) %ref.tmp136, ptr noundef @.str.10)
  call void @_ZN4llvh8ArrayRefINS_7SMRangeEEC2ENS_8NoneTypeE(ptr noundef nonnull align 8 dereferenceable(16) %agg.tmp137, i32 noundef 1)
  call void @_ZN4llvh8ArrayRefINS_7SMFixItEEC2ENS_8NoneTypeE(ptr noundef nonnull align 8 dereferenceable(16) %agg.tmp138, i32 noundef 1)
  %coerce.dive139 = getelementptr inbounds %"class.llvh::SMLoc", ptr %agg.tmp132, i32 0, i32 0
  %238 = load ptr, ptr %coerce.dive139, align 8
  %239 = getelementptr inbounds { ptr, i64 }, ptr %agg.tmp137, i32 0, i32 0
  %240 = load ptr, ptr %239, align 8
  %241 = getelementptr inbounds { ptr, i64 }, ptr %agg.tmp137, i32 0, i32 1
  %242 = load i64, ptr %241, align 8
  call void @_ZNK4llvh9SourceMgr12PrintMessageENS_5SMLocENS0_8DiagKindERKNS_5TwineENS_8ArrayRefINS_7SMRangeEEENS6_INS_7SMFixItEEEb(ptr noundef nonnull align 8 dereferenceable(120) %236, ptr %238, i32 noundef 0, ptr noundef nonnull align 8 dereferenceable(18) %ref.tmp136, ptr %240, i64 %242, ptr noundef byval(%"class.llvh::ArrayRef.24") align 8 %agg.tmp138, i1 noundef zeroext true)
  store i1 true, ptr %retval, align 1
  br label %return

if.end140:                                        ; preds = %_ZNK4llvh9StringRef4findEcm.exit
  store i8 0, ptr %IsExpression, align 1
  store i32 0, ptr %i, align 4
  store ptr %Name, ptr %this.addr.i432, align 8
  %this1.i433 = load ptr, ptr %this.addr.i432, align 8
  %Length.i434 = getelementptr inbounds %"class.llvh::StringRef", ptr %this1.i433, i32 0, i32 1
  %243 = load i64, ptr %Length.i434, align 8
  %conv142 = trunc i64 %243 to i32
  store i32 %conv142, ptr %e, align 4
  br label %for.cond

for.cond:                                         ; preds = %for.inc, %if.end140
  %244 = load i32, ptr %i, align 4
  %245 = load i32, ptr %e, align 4
  %cmp143 = icmp ne i32 %244, %245
  br i1 %cmp143, label %for.body, label %for.end

for.body:                                         ; preds = %for.cond
  %246 = load i32, ptr %i, align 4
  %cmp144 = icmp eq i32 %246, 0
  br i1 %cmp144, label %if.then145, label %if.end169

if.then145:                                       ; preds = %for.body
  %247 = load i32, ptr %i, align 4
  %conv146 = zext i32 %247 to i64
  %call147 = call noundef signext i8 @_ZNK4llvh9StringRefixEm(ptr noundef nonnull align 8 dereferenceable(16) %Name, i64 noundef %conv146)
  %conv148 = sext i8 %call147 to i32
  %cmp149 = icmp eq i32 %conv148, 36
  br i1 %cmp149, label %if.then150, label %if.end151

if.then150:                                       ; preds = %if.then145
  br label %for.inc

if.end151:                                        ; preds = %if.then145
  %248 = load i32, ptr %i, align 4
  %conv152 = zext i32 %248 to i64
  %call153 = call noundef signext i8 @_ZNK4llvh9StringRefixEm(ptr noundef nonnull align 8 dereferenceable(16) %Name, i64 noundef %conv152)
  %conv154 = sext i8 %call153 to i32
  %cmp155 = icmp eq i32 %conv154, 64
  br i1 %cmp155, label %if.then156, label %if.end168

if.then156:                                       ; preds = %if.end151
  %249 = load i64, ptr %NameEnd, align 8
  %cmp157 = icmp ne i64 %249, -1
  br i1 %cmp157, label %if.then158, label %if.end167

if.then158:                                       ; preds = %if.then156
  %250 = load ptr, ptr %SM.addr, align 8
  store ptr %Name, ptr %this.addr.i293, align 8
  %this1.i294 = load ptr, ptr %this.addr.i293, align 8
  %251 = load ptr, ptr %this1.i294, align 8
  %call161 = call ptr @_ZN4llvh5SMLoc14getFromPointerEPKc(ptr noundef %251)
  %coerce.dive162 = getelementptr inbounds %"class.llvh::SMLoc", ptr %agg.tmp159, i32 0, i32 0
  store ptr %call161, ptr %coerce.dive162, align 8
  call void @_ZN4llvh5TwineC2EPKc(ptr noundef nonnull align 8 dereferenceable(18) %ref.tmp163, ptr noundef @.str.11)
  call void @_ZN4llvh8ArrayRefINS_7SMRangeEEC2ENS_8NoneTypeE(ptr noundef nonnull align 8 dereferenceable(16) %agg.tmp164, i32 noundef 1)
  call void @_ZN4llvh8ArrayRefINS_7SMFixItEEC2ENS_8NoneTypeE(ptr noundef nonnull align 8 dereferenceable(16) %agg.tmp165, i32 noundef 1)
  %coerce.dive166 = getelementptr inbounds %"class.llvh::SMLoc", ptr %agg.tmp159, i32 0, i32 0
  %252 = load ptr, ptr %coerce.dive166, align 8
  %253 = getelementptr inbounds { ptr, i64 }, ptr %agg.tmp164, i32 0, i32 0
  %254 = load ptr, ptr %253, align 8
  %255 = getelementptr inbounds { ptr, i64 }, ptr %agg.tmp164, i32 0, i32 1
  %256 = load i64, ptr %255, align 8
  call void @_ZNK4llvh9SourceMgr12PrintMessageENS_5SMLocENS0_8DiagKindERKNS_5TwineENS_8ArrayRefINS_7SMRangeEEENS6_INS_7SMFixItEEEb(ptr noundef nonnull align 8 dereferenceable(120) %250, ptr %252, i32 noundef 0, ptr noundef nonnull align 8 dereferenceable(18) %ref.tmp163, ptr %254, i64 %256, ptr noundef byval(%"class.llvh::ArrayRef.24") align 8 %agg.tmp165, i1 noundef zeroext true)
  store i1 true, ptr %retval, align 1
  br label %return

if.end167:                                        ; preds = %if.then156
  store i8 1, ptr %IsExpression, align 1
  br label %for.inc

if.end168:                                        ; preds = %if.end151
  br label %if.end169

if.end169:                                        ; preds = %if.end168, %for.body
  %257 = load i32, ptr %i, align 4
  %conv170 = zext i32 %257 to i64
  %call171 = call noundef signext i8 @_ZNK4llvh9StringRefixEm(ptr noundef nonnull align 8 dereferenceable(16) %Name, i64 noundef %conv170)
  %conv172 = sext i8 %call171 to i32
  %cmp173 = icmp ne i32 %conv172, 95
  br i1 %cmp173, label %land.lhs.true174, label %if.end201

land.lhs.true174:                                 ; preds = %if.end169
  %258 = load i32, ptr %i, align 4
  %conv175 = zext i32 %258 to i64
  %call176 = call noundef signext i8 @_ZNK4llvh9StringRefixEm(ptr noundef nonnull align 8 dereferenceable(16) %Name, i64 noundef %conv175)
  %conv177 = sext i8 %call176 to i32
  %call178 = call i32 @isalnum(i32 noundef %conv177) #12
  %tobool179 = icmp ne i32 %call178, 0
  br i1 %tobool179, label %if.end201, label %land.lhs.true180

land.lhs.true180:                                 ; preds = %land.lhs.true174
  %259 = load i8, ptr %IsExpression, align 1
  %tobool181 = trunc i8 %259 to i1
  br i1 %tobool181, label %lor.lhs.false182, label %if.then192

lor.lhs.false182:                                 ; preds = %land.lhs.true180
  %260 = load i32, ptr %i, align 4
  %conv183 = zext i32 %260 to i64
  %call184 = call noundef signext i8 @_ZNK4llvh9StringRefixEm(ptr noundef nonnull align 8 dereferenceable(16) %Name, i64 noundef %conv183)
  %conv185 = sext i8 %call184 to i32
  %cmp186 = icmp ne i32 %conv185, 43
  br i1 %cmp186, label %land.lhs.true187, label %if.end201

land.lhs.true187:                                 ; preds = %lor.lhs.false182
  %261 = load i32, ptr %i, align 4
  %conv188 = zext i32 %261 to i64
  %call189 = call noundef signext i8 @_ZNK4llvh9StringRefixEm(ptr noundef nonnull align 8 dereferenceable(16) %Name, i64 noundef %conv188)
  %conv190 = sext i8 %call189 to i32
  %cmp191 = icmp ne i32 %conv190, 45
  br i1 %cmp191, label %if.then192, label %if.end201

if.then192:                                       ; preds = %land.lhs.true187, %land.lhs.true180
  %262 = load ptr, ptr %SM.addr, align 8
  store ptr %Name, ptr %this.addr.i291, align 8
  %this1.i292 = load ptr, ptr %this.addr.i291, align 8
  %263 = load ptr, ptr %this1.i292, align 8
  %264 = load i32, ptr %i, align 4
  %idx.ext = zext i32 %264 to i64
  %add.ptr = getelementptr inbounds i8, ptr %263, i64 %idx.ext
  %call195 = call ptr @_ZN4llvh5SMLoc14getFromPointerEPKc(ptr noundef %add.ptr)
  %coerce.dive196 = getelementptr inbounds %"class.llvh::SMLoc", ptr %agg.tmp193, i32 0, i32 0
  store ptr %call195, ptr %coerce.dive196, align 8
  call void @_ZN4llvh5TwineC2EPKc(ptr noundef nonnull align 8 dereferenceable(18) %ref.tmp197, ptr noundef @.str.12)
  call void @_ZN4llvh8ArrayRefINS_7SMRangeEEC2ENS_8NoneTypeE(ptr noundef nonnull align 8 dereferenceable(16) %agg.tmp198, i32 noundef 1)
  call void @_ZN4llvh8ArrayRefINS_7SMFixItEEC2ENS_8NoneTypeE(ptr noundef nonnull align 8 dereferenceable(16) %agg.tmp199, i32 noundef 1)
  %coerce.dive200 = getelementptr inbounds %"class.llvh::SMLoc", ptr %agg.tmp193, i32 0, i32 0
  %265 = load ptr, ptr %coerce.dive200, align 8
  %266 = getelementptr inbounds { ptr, i64 }, ptr %agg.tmp198, i32 0, i32 0
  %267 = load ptr, ptr %266, align 8
  %268 = getelementptr inbounds { ptr, i64 }, ptr %agg.tmp198, i32 0, i32 1
  %269 = load i64, ptr %268, align 8
  call void @_ZNK4llvh9SourceMgr12PrintMessageENS_5SMLocENS0_8DiagKindERKNS_5TwineENS_8ArrayRefINS_7SMRangeEEENS6_INS_7SMFixItEEEb(ptr noundef nonnull align 8 dereferenceable(120) %262, ptr %265, i32 noundef 0, ptr noundef nonnull align 8 dereferenceable(18) %ref.tmp197, ptr %267, i64 %269, ptr noundef byval(%"class.llvh::ArrayRef.24") align 8 %agg.tmp199, i1 noundef zeroext true)
  store i1 true, ptr %retval, align 1
  br label %return

if.end201:                                        ; preds = %land.lhs.true187, %lor.lhs.false182, %land.lhs.true174, %if.end169
  br label %for.inc

for.inc:                                          ; preds = %if.end201, %if.end167, %if.then150
  %270 = load i32, ptr %i, align 4
  %inc202 = add i32 %270, 1
  store i32 %inc202, ptr %i, align 4
  br label %for.cond, !llvm.loop !7

for.end:                                          ; preds = %for.cond
  %call203 = call noundef signext i8 @_ZNK4llvh9StringRefixEm(ptr noundef nonnull align 8 dereferenceable(16) %Name, i64 noundef 0)
  %conv204 = zext i8 %call203 to i32
  %call205 = call i32 @isdigit(i32 noundef %conv204) #12
  %tobool206 = icmp ne i32 %call205, 0
  br i1 %tobool206, label %if.then207, label %if.end216

if.then207:                                       ; preds = %for.end
  %271 = load ptr, ptr %SM.addr, align 8
  store ptr %Name, ptr %this.addr.i289, align 8
  %this1.i290 = load ptr, ptr %this.addr.i289, align 8
  %272 = load ptr, ptr %this1.i290, align 8
  %call210 = call ptr @_ZN4llvh5SMLoc14getFromPointerEPKc(ptr noundef %272)
  %coerce.dive211 = getelementptr inbounds %"class.llvh::SMLoc", ptr %agg.tmp208, i32 0, i32 0
  store ptr %call210, ptr %coerce.dive211, align 8
  call void @_ZN4llvh5TwineC2EPKc(ptr noundef nonnull align 8 dereferenceable(18) %ref.tmp212, ptr noundef @.str.12)
  call void @_ZN4llvh8ArrayRefINS_7SMRangeEEC2ENS_8NoneTypeE(ptr noundef nonnull align 8 dereferenceable(16) %agg.tmp213, i32 noundef 1)
  call void @_ZN4llvh8ArrayRefINS_7SMFixItEEC2ENS_8NoneTypeE(ptr noundef nonnull align 8 dereferenceable(16) %agg.tmp214, i32 noundef 1)
  %coerce.dive215 = getelementptr inbounds %"class.llvh::SMLoc", ptr %agg.tmp208, i32 0, i32 0
  %273 = load ptr, ptr %coerce.dive215, align 8
  %274 = getelementptr inbounds { ptr, i64 }, ptr %agg.tmp213, i32 0, i32 0
  %275 = load ptr, ptr %274, align 8
  %276 = getelementptr inbounds { ptr, i64 }, ptr %agg.tmp213, i32 0, i32 1
  %277 = load i64, ptr %276, align 8
  call void @_ZNK4llvh9SourceMgr12PrintMessageENS_5SMLocENS0_8DiagKindERKNS_5TwineENS_8ArrayRefINS_7SMRangeEEENS6_INS_7SMFixItEEEb(ptr noundef nonnull align 8 dereferenceable(120) %271, ptr %273, i32 noundef 0, ptr noundef nonnull align 8 dereferenceable(18) %ref.tmp212, ptr %275, i64 %277, ptr noundef byval(%"class.llvh::ArrayRef.24") align 8 %agg.tmp214, i1 noundef zeroext true)
  store i1 true, ptr %retval, align 1
  br label %return

if.end216:                                        ; preds = %for.end
  %278 = load i64, ptr %NameEnd, align 8
  %cmp217 = icmp eq i64 %278, -1
  br i1 %cmp217, label %if.then218, label %if.end249

if.then218:                                       ; preds = %if.end216
  %VariableDefs = getelementptr inbounds %"class.llvh::FileCheckPattern", ptr %this1, i32 0, i32 4
  %call220 = call ptr @_ZNSt3mapIN4llvh9StringRefEjSt4lessIS1_ESaISt4pairIKS1_jEEE4findERS5_(ptr noundef nonnull align 8 dereferenceable(48) %VariableDefs, ptr noundef nonnull align 8 dereferenceable(16) %Name)
  %coerce.dive221 = getelementptr inbounds %"struct.std::_Rb_tree_iterator", ptr %ref.tmp219, i32 0, i32 0
  store ptr %call220, ptr %coerce.dive221, align 8
  %VariableDefs223 = getelementptr inbounds %"class.llvh::FileCheckPattern", ptr %this1, i32 0, i32 4
  %call224 = call ptr @_ZNSt3mapIN4llvh9StringRefEjSt4lessIS1_ESaISt4pairIKS1_jEEE3endEv(ptr noundef nonnull align 8 dereferenceable(48) %VariableDefs223) #13
  %coerce.dive225 = getelementptr inbounds %"struct.std::_Rb_tree_iterator", ptr %ref.tmp222, i32 0, i32 0
  store ptr %call224, ptr %coerce.dive225, align 8
  %call226 = call noundef zeroext i1 @_ZStneRKSt17_Rb_tree_iteratorISt4pairIKN4llvh9StringRefEjEES7_(ptr noundef nonnull align 8 dereferenceable(8) %ref.tmp219, ptr noundef nonnull align 8 dereferenceable(8) %ref.tmp222) #13
  br i1 %call226, label %if.then227, label %if.else

if.then227:                                       ; preds = %if.then218
  %VariableDefs228 = getelementptr inbounds %"class.llvh::FileCheckPattern", ptr %this1, i32 0, i32 4
  %call229 = call noundef nonnull align 4 dereferenceable(4) ptr @_ZNSt3mapIN4llvh9StringRefEjSt4lessIS1_ESaISt4pairIKS1_jEEEixERS5_(ptr noundef nonnull align 8 dereferenceable(48) %VariableDefs228, ptr noundef nonnull align 8 dereferenceable(16) %Name)
  %279 = load i32, ptr %call229, align 4
  store i32 %279, ptr %VarParenNum, align 4
  %280 = load i32, ptr %VarParenNum, align 4
  %cmp230 = icmp ult i32 %280, 1
  br i1 %cmp230, label %if.then233, label %lor.lhs.false231

lor.lhs.false231:                                 ; preds = %if.then227
  %281 = load i32, ptr %VarParenNum, align 4
  %cmp232 = icmp ugt i32 %281, 9
  br i1 %cmp232, label %if.then233, label %if.end242

if.then233:                                       ; preds = %lor.lhs.false231, %if.then227
  %282 = load ptr, ptr %SM.addr, align 8
  store ptr %Name, ptr %this.addr.i, align 8
  %this1.i = load ptr, ptr %this.addr.i, align 8
  %283 = load ptr, ptr %this1.i, align 8
  %call236 = call ptr @_ZN4llvh5SMLoc14getFromPointerEPKc(ptr noundef %283)
  %coerce.dive237 = getelementptr inbounds %"class.llvh::SMLoc", ptr %agg.tmp234, i32 0, i32 0
  store ptr %call236, ptr %coerce.dive237, align 8
  call void @_ZN4llvh5TwineC2EPKc(ptr noundef nonnull align 8 dereferenceable(18) %ref.tmp238, ptr noundef @.str.13)
  call void @_ZN4llvh8ArrayRefINS_7SMRangeEEC2ENS_8NoneTypeE(ptr noundef nonnull align 8 dereferenceable(16) %agg.tmp239, i32 noundef 1)
  call void @_ZN4llvh8ArrayRefINS_7SMFixItEEC2ENS_8NoneTypeE(ptr noundef nonnull align 8 dereferenceable(16) %agg.tmp240, i32 noundef 1)
  %coerce.dive241 = getelementptr inbounds %"class.llvh::SMLoc", ptr %agg.tmp234, i32 0, i32 0
  %284 = load ptr, ptr %coerce.dive241, align 8
  %285 = getelementptr inbounds { ptr, i64 }, ptr %agg.tmp239, i32 0, i32 0
  %286 = load ptr, ptr %285, align 8
  %287 = getelementptr inbounds { ptr, i64 }, ptr %agg.tmp239, i32 0, i32 1
  %288 = load i64, ptr %287, align 8
  call void @_ZNK4llvh9SourceMgr12PrintMessageENS_5SMLocENS0_8DiagKindERKNS_5TwineENS_8ArrayRefINS_7SMRangeEEENS6_INS_7SMFixItEEEb(ptr noundef nonnull align 8 dereferenceable(120) %282, ptr %284, i32 noundef 0, ptr noundef nonnull align 8 dereferenceable(18) %ref.tmp238, ptr %286, i64 %288, ptr noundef byval(%"class.llvh::ArrayRef.24") align 8 %agg.tmp240, i1 noundef zeroext true)
  store i1 true, ptr %retval, align 1
  br label %return

if.end242:                                        ; preds = %lor.lhs.false231
  %289 = load i32, ptr %VarParenNum, align 4
  call void @_ZN4llvh16FileCheckPattern17AddBackrefToRegExEj(ptr noundef nonnull align 8 dereferenceable(136) %this1, i32 noundef %289)
  br label %if.end248

if.else:                                          ; preds = %if.then218
  %VariableUses = getelementptr inbounds %"class.llvh::FileCheckPattern", ptr %this1, i32 0, i32 3
  %RegExStr246 = getelementptr inbounds %"class.llvh::FileCheckPattern", ptr %this1, i32 0, i32 2
  %call247 = call noundef i64 @_ZNKSt7__cxx1112basic_stringIcSt11char_traitsIcESaIcEE4sizeEv(ptr noundef nonnull align 8 dereferenceable(32) %RegExStr246) #13
  store i64 %call247, ptr %ref.tmp245, align 8
  call void @_ZSt9make_pairIRN4llvh9StringRefEmESt4pairINSt25__strip_reference_wrapperINSt5decayIT_E4typeEE6__typeENS4_INS5_IT0_E4typeEE6__typeEEOS6_OSB_(ptr sret(%"struct.std::pair.25") align 8 %ref.tmp244, ptr noundef nonnull align 8 dereferenceable(16) %Name, ptr noundef nonnull align 8 dereferenceable(8) %ref.tmp245)
  call void @_ZNSt4pairIN4llvh9StringRefEjEC2IS1_mTnNSt9enable_ifIXaaclsr6_PCCFPIT_T0_EE22_MoveConstructiblePairIS5_S6_EEclsr6_PCCFPIS5_S6_EE30_ImplicitlyMoveConvertiblePairIS5_S6_EEEbE4typeELb1EEEOS_IS5_S6_E(ptr noundef nonnull align 8 dereferenceable(20) %ref.tmp243, ptr noundef nonnull align 8 dereferenceable(24) %ref.tmp244)
  call void @_ZNSt6vectorISt4pairIN4llvh9StringRefEjESaIS3_EE9push_backEOS3_(ptr noundef nonnull align 8 dereferenceable(24) %VariableUses, ptr noundef nonnull align 8 dereferenceable(20) %ref.tmp243)
  br label %if.end248

if.end248:                                        ; preds = %if.else, %if.end242
  br label %while.cond74, !llvm.loop !6

if.end249:                                        ; preds = %if.end216
  %290 = load i32, ptr %CurParen, align 4
  %VariableDefs250 = getelementptr inbounds %"class.llvh::FileCheckPattern", ptr %this1, i32 0, i32 4
  %call251 = call noundef nonnull align 4 dereferenceable(4) ptr @_ZNSt3mapIN4llvh9StringRefEjSt4lessIS1_ESaISt4pairIKS1_jEEEixERS5_(ptr noundef nonnull align 8 dereferenceable(48) %VariableDefs250, ptr noundef nonnull align 8 dereferenceable(16) %Name)
  store i32 %290, ptr %call251, align 4
  %RegExStr252 = getelementptr inbounds %"class.llvh::FileCheckPattern", ptr %this1, i32 0, i32 2
  %call253 = call noundef nonnull align 8 dereferenceable(32) ptr @_ZNSt7__cxx1112basic_stringIcSt11char_traitsIcESaIcEEpLEc(ptr noundef nonnull align 8 dereferenceable(32) %RegExStr252, i8 noundef signext 40)
  %291 = load i32, ptr %CurParen, align 4
  %inc254 = add i32 %291, 1
  store i32 %inc254, ptr %CurParen, align 4
  %292 = load i64, ptr %NameEnd, align 8
  %add256 = add i64 %292, 1
  store ptr %MatchStr, ptr %this.addr.i337, align 8
  store i64 %add256, ptr %Start.addr.i338, align 8
  store i64 -1, ptr %N.addr.i339, align 8
  %this1.i341 = load ptr, ptr %this.addr.i337, align 8
  %Length.i342 = getelementptr inbounds %"class.llvh::StringRef", ptr %this1.i341, i32 0, i32 1
  %call.i343 = call noundef nonnull align 8 dereferenceable(8) ptr @_ZSt3minImERKT_S2_S2_(ptr noundef nonnull align 8 dereferenceable(8) %Start.addr.i338, ptr noundef nonnull align 8 dereferenceable(8) %Length.i342)
  %293 = load i64, ptr %call.i343, align 8
  store i64 %293, ptr %Start.addr.i338, align 8
  %294 = load ptr, ptr %this1.i341, align 8
  %295 = load i64, ptr %Start.addr.i338, align 8
  %add.ptr.i344 = getelementptr inbounds i8, ptr %294, i64 %295
  %Length2.i345 = getelementptr inbounds %"class.llvh::StringRef", ptr %this1.i341, i32 0, i32 1
  %296 = load i64, ptr %Length2.i345, align 8
  %297 = load i64, ptr %Start.addr.i338, align 8
  %sub.i346 = sub i64 %296, %297
  store i64 %sub.i346, ptr %ref.tmp.i340, align 8
  %call3.i347 = call noundef nonnull align 8 dereferenceable(8) ptr @_ZSt3minImERKT_S2_S2_(ptr noundef nonnull align 8 dereferenceable(8) %N.addr.i339, ptr noundef nonnull align 8 dereferenceable(8) %ref.tmp.i340)
  %298 = load i64, ptr %call3.i347, align 8
  store ptr %retval.i336, ptr %this.addr.i565, align 8
  store ptr %add.ptr.i344, ptr %data.addr.i566, align 8
  store i64 %298, ptr %length.addr.i567, align 8
  %this1.i568 = load ptr, ptr %this.addr.i565, align 8
  %299 = load ptr, ptr %data.addr.i566, align 8
  store ptr %299, ptr %this1.i568, align 8
  %Length.i569 = getelementptr inbounds %"class.llvh::StringRef", ptr %this1.i568, i32 0, i32 1
  %300 = load i64, ptr %length.addr.i567, align 8
  store i64 %300, ptr %Length.i569, align 8
  %301 = load { ptr, i64 }, ptr %retval.i336, align 8
  %302 = getelementptr inbounds { ptr, i64 }, ptr %agg.tmp255, i32 0, i32 0
  %303 = extractvalue { ptr, i64 } %301, 0
  store ptr %303, ptr %302, align 8
  %304 = getelementptr inbounds { ptr, i64 }, ptr %agg.tmp255, i32 0, i32 1
  %305 = extractvalue { ptr, i64 } %301, 1
  store i64 %305, ptr %304, align 8
  %306 = load ptr, ptr %SM.addr, align 8
  %307 = getelementptr inbounds { ptr, i64 }, ptr %agg.tmp255, i32 0, i32 0
  %308 = load ptr, ptr %307, align 8
  %309 = getelementptr inbounds { ptr, i64 }, ptr %agg.tmp255, i32 0, i32 1
  %310 = load i64, ptr %309, align 8
  %call258 = call noundef zeroext i1 @_ZN4llvh16FileCheckPattern15AddRegExToRegExENS_9StringRefERjRNS_9SourceMgrE(ptr noundef nonnull align 8 dereferenceable(136) %this1, ptr %308, i64 %310, ptr noundef nonnull align 4 dereferenceable(4) %CurParen, ptr noundef nonnull align 8 dereferenceable(120) %306)
  br i1 %call258, label %if.then259, label %if.end260

if.then259:                                       ; preds = %if.end249
  store i1 true, ptr %retval, align 1
  br label %return

if.end260:                                        ; preds = %if.end249
  %RegExStr261 = getelementptr inbounds %"class.llvh::FileCheckPattern", ptr %this1, i32 0, i32 2
  %call262 = call noundef nonnull align 8 dereferenceable(32) ptr @_ZNSt7__cxx1112basic_stringIcSt11char_traitsIcESaIcEEpLEc(ptr noundef nonnull align 8 dereferenceable(32) %RegExStr261, i8 noundef signext 41)
  br label %if.end263

if.end263:                                        ; preds = %if.end260, %_ZNK4llvh9StringRef10startswithES0_.exit
  store ptr %agg.tmp264, ptr %this.addr.i485, align 8
  store ptr @.str.4, ptr %Str.addr.i486, align 8
  %this1.i487 = load ptr, ptr %this.addr.i485, align 8
  %311 = load ptr, ptr %Str.addr.i486, align 8
  store ptr %311, ptr %this1.i487, align 8
  %Length.i488 = getelementptr inbounds %"class.llvh::StringRef", ptr %this1.i487, i32 0, i32 1
  %312 = load ptr, ptr %Str.addr.i486, align 8
  %tobool.i489 = icmp ne ptr %312, null
  br i1 %tobool.i489, label %cond.true.i492, label %cond.false.i490

cond.true.i492:                                   ; preds = %if.end263
  %313 = load ptr, ptr %Str.addr.i486, align 8
  %call.i493 = call i64 @strlen(ptr noundef %313) #12
  br label %_ZN4llvh9StringRefC2EPKc.exit494

cond.false.i490:                                  ; preds = %if.end263
  br label %_ZN4llvh9StringRefC2EPKc.exit494

_ZN4llvh9StringRefC2EPKc.exit494:                 ; preds = %cond.false.i490, %cond.true.i492
  %cond.i491 = phi i64 [ %call.i493, %cond.true.i492 ], [ 0, %cond.false.i490 ]
  store i64 %cond.i491, ptr %Length.i488, align 8
  %314 = getelementptr inbounds { ptr, i64 }, ptr %agg.tmp264, i32 0, i32 0
  %315 = load ptr, ptr %314, align 8
  %316 = getelementptr inbounds { ptr, i64 }, ptr %agg.tmp264, i32 0, i32 1
  %317 = load i64, ptr %316, align 8
  %call265 = call noundef i64 @_ZNK4llvh9StringRef4findES0_m(ptr noundef nonnull align 8 dereferenceable(16) %PatternStr, ptr %315, i64 %317, i64 noundef 0)
  store i64 %call265, ptr %FixedMatchEnd, align 8
  store ptr %agg.tmp267, ptr %this.addr.i495, align 8
  store ptr @.str.5, ptr %Str.addr.i496, align 8
  %this1.i497 = load ptr, ptr %this.addr.i495, align 8
  %318 = load ptr, ptr %Str.addr.i496, align 8
  store ptr %318, ptr %this1.i497, align 8
  %Length.i498 = getelementptr inbounds %"class.llvh::StringRef", ptr %this1.i497, i32 0, i32 1
  %319 = load ptr, ptr %Str.addr.i496, align 8
  %tobool.i499 = icmp ne ptr %319, null
  br i1 %tobool.i499, label %cond.true.i502, label %cond.false.i500

cond.true.i502:                                   ; preds = %_ZN4llvh9StringRefC2EPKc.exit494
  %320 = load ptr, ptr %Str.addr.i496, align 8
  %call.i503 = call i64 @strlen(ptr noundef %320) #12
  br label %_ZN4llvh9StringRefC2EPKc.exit504

cond.false.i500:                                  ; preds = %_ZN4llvh9StringRefC2EPKc.exit494
  br label %_ZN4llvh9StringRefC2EPKc.exit504

_ZN4llvh9StringRefC2EPKc.exit504:                 ; preds = %cond.false.i500, %cond.true.i502
  %cond.i501 = phi i64 [ %call.i503, %cond.true.i502 ], [ 0, %cond.false.i500 ]
  store i64 %cond.i501, ptr %Length.i498, align 8
  %321 = getelementptr inbounds { ptr, i64 }, ptr %agg.tmp267, i32 0, i32 0
  %322 = load ptr, ptr %321, align 8
  %323 = getelementptr inbounds { ptr, i64 }, ptr %agg.tmp267, i32 0, i32 1
  %324 = load i64, ptr %323, align 8
  %call268 = call noundef i64 @_ZNK4llvh9StringRef4findES0_m(ptr noundef nonnull align 8 dereferenceable(16) %PatternStr, ptr %322, i64 %324, i64 noundef 0)
  store i64 %call268, ptr %ref.tmp266, align 8
  %call269 = call noundef nonnull align 8 dereferenceable(8) ptr @_ZSt3minImERKT_S2_S2_(ptr noundef nonnull align 8 dereferenceable(8) %FixedMatchEnd, ptr noundef nonnull align 8 dereferenceable(8) %ref.tmp266)
  %325 = load i64, ptr %call269, align 8
  store i64 %325, ptr %FixedMatchEnd, align 8
  %326 = load i64, ptr %FixedMatchEnd, align 8
  store ptr %PatternStr, ptr %this.addr.i325, align 8
  store i64 0, ptr %Start.addr.i326, align 8
  store i64 %326, ptr %N.addr.i327, align 8
  %this1.i329 = load ptr, ptr %this.addr.i325, align 8
  %Length.i330 = getelementptr inbounds %"class.llvh::StringRef", ptr %this1.i329, i32 0, i32 1
  %call.i331 = call noundef nonnull align 8 dereferenceable(8) ptr @_ZSt3minImERKT_S2_S2_(ptr noundef nonnull align 8 dereferenceable(8) %Start.addr.i326, ptr noundef nonnull align 8 dereferenceable(8) %Length.i330)
  %327 = load i64, ptr %call.i331, align 8
  store i64 %327, ptr %Start.addr.i326, align 8
  %328 = load ptr, ptr %this1.i329, align 8
  %329 = load i64, ptr %Start.addr.i326, align 8
  %add.ptr.i332 = getelementptr inbounds i8, ptr %328, i64 %329
  %Length2.i333 = getelementptr inbounds %"class.llvh::StringRef", ptr %this1.i329, i32 0, i32 1
  %330 = load i64, ptr %Length2.i333, align 8
  %331 = load i64, ptr %Start.addr.i326, align 8
  %sub.i334 = sub i64 %330, %331
  store i64 %sub.i334, ptr %ref.tmp.i328, align 8
  %call3.i335 = call noundef nonnull align 8 dereferenceable(8) ptr @_ZSt3minImERKT_S2_S2_(ptr noundef nonnull align 8 dereferenceable(8) %N.addr.i327, ptr noundef nonnull align 8 dereferenceable(8) %ref.tmp.i328)
  %332 = load i64, ptr %call3.i335, align 8
  store ptr %retval.i324, ptr %this.addr.i570, align 8
  store ptr %add.ptr.i332, ptr %data.addr.i571, align 8
  store i64 %332, ptr %length.addr.i572, align 8
  %this1.i573 = load ptr, ptr %this.addr.i570, align 8
  %333 = load ptr, ptr %data.addr.i571, align 8
  store ptr %333, ptr %this1.i573, align 8
  %Length.i574 = getelementptr inbounds %"class.llvh::StringRef", ptr %this1.i573, i32 0, i32 1
  %334 = load i64, ptr %length.addr.i572, align 8
  store i64 %334, ptr %Length.i574, align 8
  %335 = load { ptr, i64 }, ptr %retval.i324, align 8
  %336 = getelementptr inbounds { ptr, i64 }, ptr %agg.tmp271, i32 0, i32 0
  %337 = extractvalue { ptr, i64 } %335, 0
  store ptr %337, ptr %336, align 8
  %338 = getelementptr inbounds { ptr, i64 }, ptr %agg.tmp271, i32 0, i32 1
  %339 = extractvalue { ptr, i64 } %335, 1
  store i64 %339, ptr %338, align 8
  %340 = getelementptr inbounds { ptr, i64 }, ptr %agg.tmp271, i32 0, i32 0
  %341 = load ptr, ptr %340, align 8
  %342 = getelementptr inbounds { ptr, i64 }, ptr %agg.tmp271, i32 0, i32 1
  %343 = load i64, ptr %342, align 8
  call void @_ZN4llvh5Regex6escapeB5cxx11ENS_9StringRefE(ptr sret(%"class.std::__cxx11::basic_string") align 8 %ref.tmp270, ptr %341, i64 %343)
  %RegExStr273 = getelementptr inbounds %"class.llvh::FileCheckPattern", ptr %this1, i32 0, i32 2
  %call274 = call noundef nonnull align 8 dereferenceable(32) ptr @_ZNSt7__cxx1112basic_stringIcSt11char_traitsIcESaIcEEpLERKS4_(ptr noundef nonnull align 8 dereferenceable(32) %RegExStr273, ptr noundef nonnull align 8 dereferenceable(32) %ref.tmp270)
  call void @_ZNSt7__cxx1112basic_stringIcSt11char_traitsIcESaIcEED1Ev(ptr noundef nonnull align 8 dereferenceable(32) %ref.tmp270) #13
  %344 = load i64, ptr %FixedMatchEnd, align 8
  store ptr %PatternStr, ptr %this.addr.i321, align 8
  store i64 %344, ptr %Start.addr.i, align 8
  store i64 -1, ptr %N.addr.i, align 8
  %this1.i322 = load ptr, ptr %this.addr.i321, align 8
  %Length.i323 = getelementptr inbounds %"class.llvh::StringRef", ptr %this1.i322, i32 0, i32 1
  %call.i = call noundef nonnull align 8 dereferenceable(8) ptr @_ZSt3minImERKT_S2_S2_(ptr noundef nonnull align 8 dereferenceable(8) %Start.addr.i, ptr noundef nonnull align 8 dereferenceable(8) %Length.i323)
  %345 = load i64, ptr %call.i, align 8
  store i64 %345, ptr %Start.addr.i, align 8
  %346 = load ptr, ptr %this1.i322, align 8
  %347 = load i64, ptr %Start.addr.i, align 8
  %add.ptr.i = getelementptr inbounds i8, ptr %346, i64 %347
  %Length2.i = getelementptr inbounds %"class.llvh::StringRef", ptr %this1.i322, i32 0, i32 1
  %348 = load i64, ptr %Length2.i, align 8
  %349 = load i64, ptr %Start.addr.i, align 8
  %sub.i = sub i64 %348, %349
  store i64 %sub.i, ptr %ref.tmp.i, align 8
  %call3.i = call noundef nonnull align 8 dereferenceable(8) ptr @_ZSt3minImERKT_S2_S2_(ptr noundef nonnull align 8 dereferenceable(8) %N.addr.i, ptr noundef nonnull align 8 dereferenceable(8) %ref.tmp.i)
  %350 = load i64, ptr %call3.i, align 8
  store ptr %retval.i, ptr %this.addr.i575, align 8
  store ptr %add.ptr.i, ptr %data.addr.i576, align 8
  store i64 %350, ptr %length.addr.i577, align 8
  %this1.i578 = load ptr, ptr %this.addr.i575, align 8
  %351 = load ptr, ptr %data.addr.i576, align 8
  store ptr %351, ptr %this1.i578, align 8
  %Length.i579 = getelementptr inbounds %"class.llvh::StringRef", ptr %this1.i578, i32 0, i32 1
  %352 = load i64, ptr %length.addr.i577, align 8
  store i64 %352, ptr %Length.i579, align 8
  %353 = load { ptr, i64 }, ptr %retval.i, align 8
  %354 = getelementptr inbounds { ptr, i64 }, ptr %ref.tmp275, i32 0, i32 0
  %355 = extractvalue { ptr, i64 } %353, 0
  store ptr %355, ptr %354, align 8
  %356 = getelementptr inbounds { ptr, i64 }, ptr %ref.tmp275, i32 0, i32 1
  %357 = extractvalue { ptr, i64 } %353, 1
  store i64 %357, ptr %356, align 8
  call void @llvm.memcpy.p0.p0.i64(ptr align 8 %PatternStr, ptr align 8 %ref.tmp275, i64 16, i1 false)
  br label %while.cond74, !llvm.loop !6

while.end277:                                     ; preds = %while.cond74
  %358 = load i8, ptr %MatchFullLinesHere, align 1
  %tobool278 = trunc i8 %358 to i1
  br i1 %tobool278, label %if.then279, label %if.end288

if.then279:                                       ; preds = %while.end277
  %359 = load ptr, ptr %Req.addr, align 8
  %NoCanonicalizeWhiteSpace280 = getelementptr inbounds %"struct.llvh::FileCheckRequest", ptr %359, i32 0, i32 1
  %360 = load i8, ptr %NoCanonicalizeWhiteSpace280, align 8
  %tobool281 = trunc i8 %360 to i1
  br i1 %tobool281, label %if.end285, label %if.then282

if.then282:                                       ; preds = %if.then279
  %RegExStr283 = getelementptr inbounds %"class.llvh::FileCheckPattern", ptr %this1, i32 0, i32 2
  %call284 = call noundef nonnull align 8 dereferenceable(32) ptr @_ZNSt7__cxx1112basic_stringIcSt11char_traitsIcESaIcEEpLEPKc(ptr noundef nonnull align 8 dereferenceable(32) %RegExStr283, ptr noundef @.str.6)
  br label %if.end285

if.end285:                                        ; preds = %if.then282, %if.then279
  %RegExStr286 = getelementptr inbounds %"class.llvh::FileCheckPattern", ptr %this1, i32 0, i32 2
  %call287 = call noundef nonnull align 8 dereferenceable(32) ptr @_ZNSt7__cxx1112basic_stringIcSt11char_traitsIcESaIcEEpLEc(ptr noundef nonnull align 8 dereferenceable(32) %RegExStr286, i8 noundef signext 36)
  br label %if.end288

if.end288:                                        ; preds = %if.end285, %while.end277
  store i1 false, ptr %retval, align 1
  br label %return

return:                                           ; preds = %if.end288, %if.then259, %if.then233, %if.then207, %if.then192, %if.then158, %if.then131, %if.then114, %if.then99, %if.then83, %if.then61, %if.then47, %if.then35, %if.then22
  %361 = load i1, ptr %retval, align 1
  ret i1 %361
}

; Function Attrs: mustprogress nounwind uwtable
define linkonce_odr hidden ptr @_ZN4llvh5SMLoc14getFromPointerEPKc(ptr noundef %Ptr) #0 comdat align 2 {
entry:
  %retval = alloca %"class.llvh::SMLoc", align 8
  %Ptr.addr = alloca ptr, align 8
  store ptr %Ptr, ptr %Ptr.addr, align 8
  call void @_ZN4llvh5SMLocC2Ev(ptr noundef nonnull align 8 dereferenceable(8) %retval) #13
  %0 = load ptr, ptr %Ptr.addr, align 8
  %Ptr1 = getelementptr inbounds %"class.llvh::SMLoc", ptr %retval, i32 0, i32 0
  store ptr %0, ptr %Ptr1, align 8
  %coerce.dive = getelementptr inbounds %"class.llvh::SMLoc", ptr %retval, i32 0, i32 0
  %1 = load ptr, ptr %coerce.dive, align 8
  ret ptr %1
}

; Function Attrs: nocallback nofree nounwind willreturn memory(argmem: readwrite)
declare void @llvm.memcpy.p0.p0.i64(ptr noalias nocapture writeonly, ptr noalias nocapture readonly, i64, i1 immarg) #1

; Function Attrs: mustprogress nounwind uwtable
define linkonce_odr hidden noundef signext i8 @_ZNK4llvh9StringRef4backEv(ptr noundef nonnull align 8 dereferenceable(16) %this) #0 comdat align 2 {
entry:
  %this.addr = alloca ptr, align 8
  store ptr %this, ptr %this.addr, align 8
  %this1 = load ptr, ptr %this.addr, align 8
  %Data = getelementptr inbounds %"class.llvh::StringRef", ptr %this1, i32 0, i32 0
  %0 = load ptr, ptr %Data, align 8
  %Length = getelementptr inbounds %"class.llvh::StringRef", ptr %this1, i32 0, i32 1
  %1 = load i64, ptr %Length, align 8
  %sub = sub i64 %1, 1
  %arrayidx = getelementptr inbounds i8, ptr %0, i64 %sub
  %2 = load i8, ptr %arrayidx, align 1
  ret i8 %2
}

declare void @_ZNK4llvh9SourceMgr12PrintMessageENS_5SMLocENS0_8DiagKindERKNS_5TwineENS_8ArrayRefINS_7SMRangeEEENS6_INS_7SMFixItEEEb(ptr noundef nonnull align 8 dereferenceable(120), ptr, i32 noundef, ptr noundef nonnull align 8 dereferenceable(18), ptr, i64, ptr noundef byval(%"class.llvh::ArrayRef.24") align 8, i1 noundef zeroext) #2

; Function Attrs: mustprogress nounwind uwtable
define linkonce_odr hidden void @_ZN4llvhplERKNS_5TwineES2_(ptr noalias sret(%"class.llvh::Twine") align 8 %agg.result, ptr noundef nonnull align 8 dereferenceable(18) %LHS, ptr noundef nonnull align 8 dereferenceable(18) %RHS) #0 comdat {
entry:
  %LHS.addr = alloca ptr, align 8
  %RHS.addr = alloca ptr, align 8
  store ptr %LHS, ptr %LHS.addr, align 8
  store ptr %RHS, ptr %RHS.addr, align 8
  %0 = load ptr, ptr %LHS.addr, align 8
  %1 = load ptr, ptr %RHS.addr, align 8
  call void @_ZNK4llvh5Twine6concatERKS0_(ptr sret(%"class.llvh::Twine") align 8 %agg.result, ptr noundef nonnull align 8 dereferenceable(18) %0, ptr noundef nonnull align 8 dereferenceable(18) %1)
  ret void
}

; Function Attrs: mustprogress nounwind uwtable
define linkonce_odr hidden void @_ZN4llvhplEPKcRKNS_9StringRefE(ptr noalias sret(%"class.llvh::Twine") align 8 %agg.result, ptr noundef %LHS, ptr noundef nonnull align 8 dereferenceable(16) %RHS) #0 comdat {
entry:
  %LHS.addr = alloca ptr, align 8
  %RHS.addr = alloca ptr, align 8
  store ptr %LHS, ptr %LHS.addr, align 8
  store ptr %RHS, ptr %RHS.addr, align 8
  %0 = load ptr, ptr %LHS.addr, align 8
  %1 = load ptr, ptr %RHS.addr, align 8
  call void @_ZN4llvh5TwineC2EPKcRKNS_9StringRefE(ptr noundef nonnull align 8 dereferenceable(18) %agg.result, ptr noundef %0, ptr noundef nonnull align 8 dereferenceable(16) %1)
  ret void
}

; Function Attrs: mustprogress nounwind uwtable
define linkonce_odr hidden void @_ZN4llvh5TwineC2EPKc(ptr noundef nonnull align 8 dereferenceable(18) %this, ptr noundef %Str) unnamed_addr #0 comdat align 2 {
entry:
  %this.addr = alloca ptr, align 8
  %Str.addr = alloca ptr, align 8
  store ptr %this, ptr %this.addr, align 8
  store ptr %Str, ptr %Str.addr, align 8
  %this1 = load ptr, ptr %this.addr, align 8
  %LHSKind = getelementptr inbounds %"class.llvh::Twine", ptr %this1, i32 0, i32 2
  store i8 1, ptr %LHSKind, align 8
  %RHSKind = getelementptr inbounds %"class.llvh::Twine", ptr %this1, i32 0, i32 3
  store i8 1, ptr %RHSKind, align 1
  %0 = load ptr, ptr %Str.addr, align 8
  %arrayidx = getelementptr inbounds i8, ptr %0, i64 0
  %1 = load i8, ptr %arrayidx, align 1
  %conv = sext i8 %1 to i32
  %cmp = icmp ne i32 %conv, 0
  br i1 %cmp, label %if.then, label %if.else

if.then:                                          ; preds = %entry
  %2 = load ptr, ptr %Str.addr, align 8
  %LHS2 = getelementptr inbounds %"class.llvh::Twine", ptr %this1, i32 0, i32 0
  store ptr %2, ptr %LHS2, align 8
  %LHSKind3 = getelementptr inbounds %"class.llvh::Twine", ptr %this1, i32 0, i32 2
  store i8 3, ptr %LHSKind3, align 8
  br label %if.end

if.else:                                          ; preds = %entry
  %LHSKind4 = getelementptr inbounds %"class.llvh::Twine", ptr %this1, i32 0, i32 2
  store i8 1, ptr %LHSKind4, align 8
  br label %if.end

if.end:                                           ; preds = %if.else, %if.then
  ret void
}

; Function Attrs: mustprogress nounwind uwtable
define linkonce_odr hidden void @_ZN4llvh8ArrayRefINS_7SMRangeEEC2ENS_8NoneTypeE(ptr noundef nonnull align 8 dereferenceable(16) %this, i32 noundef %0) unnamed_addr #0 comdat align 2 {
entry:
  %this.addr = alloca ptr, align 8
  %.addr = alloca i32, align 4
  store ptr %this, ptr %this.addr, align 8
  store i32 %0, ptr %.addr, align 4
  %this1 = load ptr, ptr %this.addr, align 8
  %Data = getelementptr inbounds %"class.llvh::ArrayRef", ptr %this1, i32 0, i32 0
  store ptr null, ptr %Data, align 8
  %Length = getelementptr inbounds %"class.llvh::ArrayRef", ptr %this1, i32 0, i32 1
  store i64 0, ptr %Length, align 8
  ret void
}

; Function Attrs: mustprogress nounwind uwtable
define linkonce_odr hidden void @_ZN4llvh8ArrayRefINS_7SMFixItEEC2ENS_8NoneTypeE(ptr noundef nonnull align 8 dereferenceable(16) %this, i32 noundef %0) unnamed_addr #0 comdat align 2 {
entry:
  %this.addr = alloca ptr, align 8
  %.addr = alloca i32, align 4
  store ptr %this, ptr %this.addr, align 8
  store i32 %0, ptr %.addr, align 4
  %this1 = load ptr, ptr %this.addr, align 8
  %Data = getelementptr inbounds %"class.llvh::ArrayRef.24", ptr %this1, i32 0, i32 0
  store ptr null, ptr %Data, align 8
  %Length = getelementptr inbounds %"class.llvh::ArrayRef.24", ptr %this1, i32 0, i32 1
  store i64 0, ptr %Length, align 8
  ret void
}

declare noundef nonnull align 8 dereferenceable(32) ptr @_ZNSt7__cxx1112basic_stringIcSt11char_traitsIcESaIcEEaSEPKc(ptr noundef nonnull align 8 dereferenceable(32), ptr noundef) #2

declare noundef i64 @_ZNK4llvh9StringRef4findES0_m(ptr noundef nonnull align 8 dereferenceable(16), ptr, i64, i64 noundef) #2

declare noundef nonnull align 8 dereferenceable(32) ptr @_ZNSt7__cxx1112basic_stringIcSt11char_traitsIcESaIcEEpLEc(ptr noundef nonnull align 8 dereferenceable(32), i8 noundef signext) #2

declare noundef nonnull align 8 dereferenceable(32) ptr @_ZNSt7__cxx1112basic_stringIcSt11char_traitsIcESaIcEEpLEPKc(ptr noundef nonnull align 8 dereferenceable(32), ptr noundef) #2

; Function Attrs: mustprogress nounwind uwtable
define hidden noundef zeroext i1 @_ZN4llvh16FileCheckPattern15AddRegExToRegExENS_9StringRefERjRNS_9SourceMgrE(ptr noundef nonnull align 8 dereferenceable(136) %this, ptr %RS.coerce0, i64 %RS.coerce1, ptr noundef nonnull align 4 dereferenceable(4) %CurParen, ptr noundef nonnull align 8 dereferenceable(120) %SM) #0 align 2 {
entry:
  %this.addr.i = alloca ptr, align 8
  %retval = alloca i1, align 1
  %RS = alloca %"class.llvh::StringRef", align 8
  %this.addr = alloca ptr, align 8
  %CurParen.addr = alloca ptr, align 8
  %SM.addr = alloca ptr, align 8
  %R = alloca %"class.llvh::Regex", align 8
  %agg.tmp = alloca %"class.llvh::StringRef", align 8
  %Error = alloca %"class.std::__cxx11::basic_string", align 8
  %agg.tmp2 = alloca %"class.llvh::SMLoc", align 8
  %ref.tmp = alloca %"class.llvh::Twine", align 8
  %ref.tmp5 = alloca %"class.std::__cxx11::basic_string", align 8
  %agg.tmp6 = alloca %"class.llvh::ArrayRef", align 8
  %agg.tmp7 = alloca %"class.llvh::ArrayRef.24", align 8
  %cleanup.dest.slot = alloca i32, align 4
  %ref.tmp9 = alloca %"class.std::__cxx11::basic_string", align 8
  %0 = getelementptr inbounds { ptr, i64 }, ptr %RS, i32 0, i32 0
  store ptr %RS.coerce0, ptr %0, align 8
  %1 = getelementptr inbounds { ptr, i64 }, ptr %RS, i32 0, i32 1
  store i64 %RS.coerce1, ptr %1, align 8
  store ptr %this, ptr %this.addr, align 8
  store ptr %CurParen, ptr %CurParen.addr, align 8
  store ptr %SM, ptr %SM.addr, align 8
  %this1 = load ptr, ptr %this.addr, align 8
  call void @llvm.memcpy.p0.p0.i64(ptr align 8 %agg.tmp, ptr align 8 %RS, i64 16, i1 false)
  %2 = getelementptr inbounds { ptr, i64 }, ptr %agg.tmp, i32 0, i32 0
  %3 = load ptr, ptr %2, align 8
  %4 = getelementptr inbounds { ptr, i64 }, ptr %agg.tmp, i32 0, i32 1
  %5 = load i64, ptr %4, align 8
  call void @_ZN4llvh5RegexC1ENS_9StringRefEj(ptr noundef nonnull align 8 dereferenceable(12) %R, ptr %3, i64 %5, i32 noundef 0)
  call void @_ZNSt7__cxx1112basic_stringIcSt11char_traitsIcESaIcEEC1Ev(ptr noundef nonnull align 8 dereferenceable(32) %Error) #13
  %call = call noundef zeroext i1 @_ZNK4llvh5Regex7isValidERNSt7__cxx1112basic_stringIcSt11char_traitsIcESaIcEEE(ptr noundef nonnull align 8 dereferenceable(12) %R, ptr noundef nonnull align 8 dereferenceable(32) %Error)
  br i1 %call, label %if.end, label %if.then

if.then:                                          ; preds = %entry
  %6 = load ptr, ptr %SM.addr, align 8
  store ptr %RS, ptr %this.addr.i, align 8
  %this1.i = load ptr, ptr %this.addr.i, align 8
  %7 = load ptr, ptr %this1.i, align 8
  %call4 = call ptr @_ZN4llvh5SMLoc14getFromPointerEPKc(ptr noundef %7)
  %coerce.dive = getelementptr inbounds %"class.llvh::SMLoc", ptr %agg.tmp2, i32 0, i32 0
  store ptr %call4, ptr %coerce.dive, align 8
  call void @_ZStplIcSt11char_traitsIcESaIcEENSt7__cxx1112basic_stringIT_T0_T1_EEPKS5_RKS8_(ptr sret(%"class.std::__cxx11::basic_string") align 8 %ref.tmp5, ptr noundef @.str.14, ptr noundef nonnull align 8 dereferenceable(32) %Error)
  call void @_ZN4llvh5TwineC2ERKNSt7__cxx1112basic_stringIcSt11char_traitsIcESaIcEEE(ptr noundef nonnull align 8 dereferenceable(18) %ref.tmp, ptr noundef nonnull align 8 dereferenceable(32) %ref.tmp5)
  call void @_ZN4llvh8ArrayRefINS_7SMRangeEEC2ENS_8NoneTypeE(ptr noundef nonnull align 8 dereferenceable(16) %agg.tmp6, i32 noundef 1)
  call void @_ZN4llvh8ArrayRefINS_7SMFixItEEC2ENS_8NoneTypeE(ptr noundef nonnull align 8 dereferenceable(16) %agg.tmp7, i32 noundef 1)
  %coerce.dive8 = getelementptr inbounds %"class.llvh::SMLoc", ptr %agg.tmp2, i32 0, i32 0
  %8 = load ptr, ptr %coerce.dive8, align 8
  %9 = getelementptr inbounds { ptr, i64 }, ptr %agg.tmp6, i32 0, i32 0
  %10 = load ptr, ptr %9, align 8
  %11 = getelementptr inbounds { ptr, i64 }, ptr %agg.tmp6, i32 0, i32 1
  %12 = load i64, ptr %11, align 8
  call void @_ZNK4llvh9SourceMgr12PrintMessageENS_5SMLocENS0_8DiagKindERKNS_5TwineENS_8ArrayRefINS_7SMRangeEEENS6_INS_7SMFixItEEEb(ptr noundef nonnull align 8 dereferenceable(120) %6, ptr %8, i32 noundef 0, ptr noundef nonnull align 8 dereferenceable(18) %ref.tmp, ptr %10, i64 %12, ptr noundef byval(%"class.llvh::ArrayRef.24") align 8 %agg.tmp7, i1 noundef zeroext true)
  call void @_ZNSt7__cxx1112basic_stringIcSt11char_traitsIcESaIcEED1Ev(ptr noundef nonnull align 8 dereferenceable(32) %ref.tmp5) #13
  store i1 true, ptr %retval, align 1
  store i32 1, ptr %cleanup.dest.slot, align 4
  br label %cleanup

if.end:                                           ; preds = %entry
  call void @_ZNK4llvh9StringRef3strB5cxx11Ev(ptr sret(%"class.std::__cxx11::basic_string") align 8 %ref.tmp9, ptr noundef nonnull align 8 dereferenceable(16) %RS)
  %RegExStr = getelementptr inbounds %"class.llvh::FileCheckPattern", ptr %this1, i32 0, i32 2
  %call10 = call noundef nonnull align 8 dereferenceable(32) ptr @_ZNSt7__cxx1112basic_stringIcSt11char_traitsIcESaIcEEpLERKS4_(ptr noundef nonnull align 8 dereferenceable(32) %RegExStr, ptr noundef nonnull align 8 dereferenceable(32) %ref.tmp9)
  call void @_ZNSt7__cxx1112basic_stringIcSt11char_traitsIcESaIcEED1Ev(ptr noundef nonnull align 8 dereferenceable(32) %ref.tmp9) #13
  %call11 = call noundef i32 @_ZNK4llvh5Regex13getNumMatchesEv(ptr noundef nonnull align 8 dereferenceable(12) %R)
  %13 = load ptr, ptr %CurParen.addr, align 8
  %14 = load i32, ptr %13, align 4
  %add = add i32 %14, %call11
  store i32 %add, ptr %13, align 4
  store i1 false, ptr %retval, align 1
  store i32 1, ptr %cleanup.dest.slot, align 4
  br label %cleanup

cleanup:                                          ; preds = %if.end, %if.then
  call void @_ZNSt7__cxx1112basic_stringIcSt11char_traitsIcESaIcEED1Ev(ptr noundef nonnull align 8 dereferenceable(32) %Error) #13
  call void @_ZN4llvh5RegexD1Ev(ptr noundef nonnull align 8 dereferenceable(12) %R) #13
  %15 = load i1, ptr %retval, align 1
  ret i1 %15
}

; Function Attrs: mustprogress nounwind uwtable
define hidden noundef i64 @_ZN4llvh16FileCheckPattern15FindRegexVarEndENS_9StringRefERNS_9SourceMgrE(ptr noundef nonnull align 8 dereferenceable(136) %this, ptr %Str.coerce0, i64 %Str.coerce1, ptr noundef nonnull align 8 dereferenceable(120) %SM) #0 align 2 {
entry:
  %retval.i59 = alloca i32, align 4
  %Lhs.addr.i = alloca ptr, align 8
  %Rhs.addr.i = alloca ptr, align 8
  %Length.addr.i = alloca i64, align 8
  %this.addr.i54 = alloca ptr, align 8
  %data.addr.i55 = alloca ptr, align 8
  %length.addr.i56 = alloca i64, align 8
  %this.addr.i51 = alloca ptr, align 8
  %data.addr.i = alloca ptr, align 8
  %length.addr.i = alloca i64, align 8
  %Prefix.i = alloca %"class.llvh::StringRef", align 8
  %this.addr.i45 = alloca ptr, align 8
  %this.addr.i41 = alloca ptr, align 8
  %Str.addr.i = alloca ptr, align 8
  %retval.i29 = alloca %"class.llvh::StringRef", align 8
  %this.addr.i30 = alloca ptr, align 8
  %Start.addr.i31 = alloca i64, align 8
  %N.addr.i32 = alloca i64, align 8
  %ref.tmp.i33 = alloca i64, align 8
  %retval.i = alloca %"class.llvh::StringRef", align 8
  %this.addr.i26 = alloca ptr, align 8
  %Start.addr.i = alloca i64, align 8
  %N.addr.i = alloca i64, align 8
  %ref.tmp.i = alloca i64, align 8
  %this.addr.i24 = alloca ptr, align 8
  %this.addr.i = alloca ptr, align 8
  %retval = alloca i64, align 8
  %Str = alloca %"class.llvh::StringRef", align 8
  %this.addr = alloca ptr, align 8
  %SM.addr = alloca ptr, align 8
  %Offset = alloca i64, align 8
  %BracketDepth = alloca i64, align 8
  %agg.tmp = alloca %"class.llvh::StringRef", align 8
  %ref.tmp = alloca %"class.llvh::StringRef", align 8
  %agg.tmp12 = alloca %"class.llvh::SMLoc", align 8
  %ref.tmp15 = alloca %"class.llvh::Twine", align 8
  %agg.tmp16 = alloca %"class.llvh::ArrayRef", align 8
  %agg.tmp17 = alloca %"class.llvh::ArrayRef.24", align 8
  %ref.tmp20 = alloca %"class.llvh::StringRef", align 8
  %0 = getelementptr inbounds { ptr, i64 }, ptr %Str, i32 0, i32 0
  store ptr %Str.coerce0, ptr %0, align 8
  %1 = getelementptr inbounds { ptr, i64 }, ptr %Str, i32 0, i32 1
  store i64 %Str.coerce1, ptr %1, align 8
  store ptr %this, ptr %this.addr, align 8
  store ptr %SM, ptr %SM.addr, align 8
  store i64 0, ptr %Offset, align 8
  store i64 0, ptr %BracketDepth, align 8
  br label %while.cond

while.cond:                                       ; preds = %if.end23, %entry
  store ptr %Str, ptr %this.addr.i24, align 8
  %this1.i25 = load ptr, ptr %this.addr.i24, align 8
  %Length.i = getelementptr inbounds %"class.llvh::StringRef", ptr %this1.i25, i32 0, i32 1
  %2 = load i64, ptr %Length.i, align 8
  %cmp.i = icmp eq i64 %2, 0
  %lnot = xor i1 %cmp.i, true
  br i1 %lnot, label %while.body, label %while.end

while.body:                                       ; preds = %while.cond
  store ptr %agg.tmp, ptr %this.addr.i41, align 8
  store ptr @.str.24, ptr %Str.addr.i, align 8
  %this1.i42 = load ptr, ptr %this.addr.i41, align 8
  %3 = load ptr, ptr %Str.addr.i, align 8
  store ptr %3, ptr %this1.i42, align 8
  %Length.i43 = getelementptr inbounds %"class.llvh::StringRef", ptr %this1.i42, i32 0, i32 1
  %4 = load ptr, ptr %Str.addr.i, align 8
  %tobool.i = icmp ne ptr %4, null
  br i1 %tobool.i, label %cond.true.i, label %cond.false.i

cond.true.i:                                      ; preds = %while.body
  %5 = load ptr, ptr %Str.addr.i, align 8
  %call.i44 = call i64 @strlen(ptr noundef %5) #12
  br label %_ZN4llvh9StringRefC2EPKc.exit

cond.false.i:                                     ; preds = %while.body
  br label %_ZN4llvh9StringRefC2EPKc.exit

_ZN4llvh9StringRefC2EPKc.exit:                    ; preds = %cond.false.i, %cond.true.i
  %cond.i = phi i64 [ %call.i44, %cond.true.i ], [ 0, %cond.false.i ]
  store i64 %cond.i, ptr %Length.i43, align 8
  %6 = getelementptr inbounds { ptr, i64 }, ptr %agg.tmp, i32 0, i32 0
  %7 = load ptr, ptr %6, align 8
  %8 = getelementptr inbounds { ptr, i64 }, ptr %agg.tmp, i32 0, i32 1
  %9 = load i64, ptr %8, align 8
  store ptr %7, ptr %Prefix.i, align 8
  %10 = getelementptr inbounds { ptr, i64 }, ptr %Prefix.i, i32 0, i32 1
  store i64 %9, ptr %10, align 8
  store ptr %Str, ptr %this.addr.i45, align 8
  %this1.i46 = load ptr, ptr %this.addr.i45, align 8
  %Length.i47 = getelementptr inbounds %"class.llvh::StringRef", ptr %this1.i46, i32 0, i32 1
  %11 = load i64, ptr %Length.i47, align 8
  %Length2.i48 = getelementptr inbounds %"class.llvh::StringRef", ptr %Prefix.i, i32 0, i32 1
  %12 = load i64, ptr %Length2.i48, align 8
  %cmp.i49 = icmp uge i64 %11, %12
  br i1 %cmp.i49, label %land.rhs.i, label %_ZNK4llvh9StringRef10startswithES0_.exit

land.rhs.i:                                       ; preds = %_ZN4llvh9StringRefC2EPKc.exit
  %13 = load ptr, ptr %this1.i46, align 8
  %14 = load ptr, ptr %Prefix.i, align 8
  %Length4.i = getelementptr inbounds %"class.llvh::StringRef", ptr %Prefix.i, i32 0, i32 1
  %15 = load i64, ptr %Length4.i, align 8
  store ptr %13, ptr %Lhs.addr.i, align 8
  store ptr %14, ptr %Rhs.addr.i, align 8
  store i64 %15, ptr %Length.addr.i, align 8
  %16 = load i64, ptr %Length.addr.i, align 8
  %cmp.i60 = icmp eq i64 %16, 0
  br i1 %cmp.i60, label %if.then.i, label %if.end.i

if.then.i:                                        ; preds = %land.rhs.i
  store i32 0, ptr %retval.i59, align 4
  br label %_ZN4llvh9StringRef13compareMemoryEPKcS2_m.exit

if.end.i:                                         ; preds = %land.rhs.i
  %17 = load ptr, ptr %Lhs.addr.i, align 8
  %18 = load ptr, ptr %Rhs.addr.i, align 8
  %19 = load i64, ptr %Length.addr.i, align 8
  %call.i61 = call i32 @memcmp(ptr noundef %17, ptr noundef %18, i64 noundef %19) #12
  store i32 %call.i61, ptr %retval.i59, align 4
  br label %_ZN4llvh9StringRef13compareMemoryEPKcS2_m.exit

_ZN4llvh9StringRef13compareMemoryEPKcS2_m.exit:   ; preds = %if.end.i, %if.then.i
  %20 = load i32, ptr %retval.i59, align 4
  %cmp5.i = icmp eq i32 %20, 0
  br label %_ZNK4llvh9StringRef10startswithES0_.exit

_ZNK4llvh9StringRef10startswithES0_.exit:         ; preds = %_ZN4llvh9StringRef13compareMemoryEPKcS2_m.exit, %_ZN4llvh9StringRefC2EPKc.exit
  %21 = phi i1 [ false, %_ZN4llvh9StringRefC2EPKc.exit ], [ %cmp5.i, %_ZN4llvh9StringRef13compareMemoryEPKcS2_m.exit ]
  br i1 %21, label %land.lhs.true, label %if.end

land.lhs.true:                                    ; preds = %_ZNK4llvh9StringRef10startswithES0_.exit
  %22 = load i64, ptr %BracketDepth, align 8
  %cmp = icmp eq i64 %22, 0
  br i1 %cmp, label %if.then, label %if.end

if.then:                                          ; preds = %land.lhs.true
  %23 = load i64, ptr %Offset, align 8
  store i64 %23, ptr %retval, align 8
  br label %return

if.end:                                           ; preds = %land.lhs.true, %_ZNK4llvh9StringRef10startswithES0_.exit
  %call3 = call noundef signext i8 @_ZNK4llvh9StringRefixEm(ptr noundef nonnull align 8 dereferenceable(16) %Str, i64 noundef 0)
  %conv = sext i8 %call3 to i32
  %cmp4 = icmp eq i32 %conv, 92
  br i1 %cmp4, label %if.then5, label %if.else

if.then5:                                         ; preds = %if.end
  store ptr %Str, ptr %this.addr.i30, align 8
  store i64 2, ptr %Start.addr.i31, align 8
  store i64 -1, ptr %N.addr.i32, align 8
  %this1.i34 = load ptr, ptr %this.addr.i30, align 8
  %Length.i35 = getelementptr inbounds %"class.llvh::StringRef", ptr %this1.i34, i32 0, i32 1
  %call.i36 = call noundef nonnull align 8 dereferenceable(8) ptr @_ZSt3minImERKT_S2_S2_(ptr noundef nonnull align 8 dereferenceable(8) %Start.addr.i31, ptr noundef nonnull align 8 dereferenceable(8) %Length.i35)
  %24 = load i64, ptr %call.i36, align 8
  store i64 %24, ptr %Start.addr.i31, align 8
  %25 = load ptr, ptr %this1.i34, align 8
  %26 = load i64, ptr %Start.addr.i31, align 8
  %add.ptr.i37 = getelementptr inbounds i8, ptr %25, i64 %26
  %Length2.i38 = getelementptr inbounds %"class.llvh::StringRef", ptr %this1.i34, i32 0, i32 1
  %27 = load i64, ptr %Length2.i38, align 8
  %28 = load i64, ptr %Start.addr.i31, align 8
  %sub.i39 = sub i64 %27, %28
  store i64 %sub.i39, ptr %ref.tmp.i33, align 8
  %call3.i40 = call noundef nonnull align 8 dereferenceable(8) ptr @_ZSt3minImERKT_S2_S2_(ptr noundef nonnull align 8 dereferenceable(8) %N.addr.i32, ptr noundef nonnull align 8 dereferenceable(8) %ref.tmp.i33)
  %29 = load i64, ptr %call3.i40, align 8
  store ptr %retval.i29, ptr %this.addr.i51, align 8
  store ptr %add.ptr.i37, ptr %data.addr.i, align 8
  store i64 %29, ptr %length.addr.i, align 8
  %this1.i52 = load ptr, ptr %this.addr.i51, align 8
  %30 = load ptr, ptr %data.addr.i, align 8
  store ptr %30, ptr %this1.i52, align 8
  %Length.i53 = getelementptr inbounds %"class.llvh::StringRef", ptr %this1.i52, i32 0, i32 1
  %31 = load i64, ptr %length.addr.i, align 8
  store i64 %31, ptr %Length.i53, align 8
  %32 = load { ptr, i64 }, ptr %retval.i29, align 8
  %33 = getelementptr inbounds { ptr, i64 }, ptr %ref.tmp, i32 0, i32 0
  %34 = extractvalue { ptr, i64 } %32, 0
  store ptr %34, ptr %33, align 8
  %35 = getelementptr inbounds { ptr, i64 }, ptr %ref.tmp, i32 0, i32 1
  %36 = extractvalue { ptr, i64 } %32, 1
  store i64 %36, ptr %35, align 8
  call void @llvm.memcpy.p0.p0.i64(ptr align 8 %Str, ptr align 8 %ref.tmp, i64 16, i1 false)
  %37 = load i64, ptr %Offset, align 8
  %add = add i64 %37, 2
  store i64 %add, ptr %Offset, align 8
  br label %if.end23

if.else:                                          ; preds = %if.end
  %call7 = call noundef signext i8 @_ZNK4llvh9StringRefixEm(ptr noundef nonnull align 8 dereferenceable(16) %Str, i64 noundef 0)
  %conv8 = sext i8 %call7 to i32
  switch i32 %conv8, label %sw.default [
    i32 91, label %sw.bb
    i32 93, label %sw.bb9
  ]

sw.default:                                       ; preds = %if.else
  br label %sw.epilog

sw.bb:                                            ; preds = %if.else
  %38 = load i64, ptr %BracketDepth, align 8
  %inc = add i64 %38, 1
  store i64 %inc, ptr %BracketDepth, align 8
  br label %sw.epilog

sw.bb9:                                           ; preds = %if.else
  %39 = load i64, ptr %BracketDepth, align 8
  %cmp10 = icmp eq i64 %39, 0
  br i1 %cmp10, label %if.then11, label %if.end19

if.then11:                                        ; preds = %sw.bb9
  %40 = load ptr, ptr %SM.addr, align 8
  store ptr %Str, ptr %this.addr.i, align 8
  %this1.i = load ptr, ptr %this.addr.i, align 8
  %41 = load ptr, ptr %this1.i, align 8
  %call14 = call ptr @_ZN4llvh5SMLoc14getFromPointerEPKc(ptr noundef %41)
  %coerce.dive = getelementptr inbounds %"class.llvh::SMLoc", ptr %agg.tmp12, i32 0, i32 0
  store ptr %call14, ptr %coerce.dive, align 8
  call void @_ZN4llvh5TwineC2EPKc(ptr noundef nonnull align 8 dereferenceable(18) %ref.tmp15, ptr noundef @.str.25)
  call void @_ZN4llvh8ArrayRefINS_7SMRangeEEC2ENS_8NoneTypeE(ptr noundef nonnull align 8 dereferenceable(16) %agg.tmp16, i32 noundef 1)
  call void @_ZN4llvh8ArrayRefINS_7SMFixItEEC2ENS_8NoneTypeE(ptr noundef nonnull align 8 dereferenceable(16) %agg.tmp17, i32 noundef 1)
  %coerce.dive18 = getelementptr inbounds %"class.llvh::SMLoc", ptr %agg.tmp12, i32 0, i32 0
  %42 = load ptr, ptr %coerce.dive18, align 8
  %43 = getelementptr inbounds { ptr, i64 }, ptr %agg.tmp16, i32 0, i32 0
  %44 = load ptr, ptr %43, align 8
  %45 = getelementptr inbounds { ptr, i64 }, ptr %agg.tmp16, i32 0, i32 1
  %46 = load i64, ptr %45, align 8
  call void @_ZNK4llvh9SourceMgr12PrintMessageENS_5SMLocENS0_8DiagKindERKNS_5TwineENS_8ArrayRefINS_7SMRangeEEENS6_INS_7SMFixItEEEb(ptr noundef nonnull align 8 dereferenceable(120) %40, ptr %42, i32 noundef 0, ptr noundef nonnull align 8 dereferenceable(18) %ref.tmp15, ptr %44, i64 %46, ptr noundef byval(%"class.llvh::ArrayRef.24") align 8 %agg.tmp17, i1 noundef zeroext true)
  call void @exit(i32 noundef 1) #14
  unreachable

if.end19:                                         ; preds = %sw.bb9
  %47 = load i64, ptr %BracketDepth, align 8
  %dec = add i64 %47, -1
  store i64 %dec, ptr %BracketDepth, align 8
  br label %sw.epilog

sw.epilog:                                        ; preds = %if.end19, %sw.bb, %sw.default
  store ptr %Str, ptr %this.addr.i26, align 8
  store i64 1, ptr %Start.addr.i, align 8
  store i64 -1, ptr %N.addr.i, align 8
  %this1.i27 = load ptr, ptr %this.addr.i26, align 8
  %Length.i28 = getelementptr inbounds %"class.llvh::StringRef", ptr %this1.i27, i32 0, i32 1
  %call.i = call noundef nonnull align 8 dereferenceable(8) ptr @_ZSt3minImERKT_S2_S2_(ptr noundef nonnull align 8 dereferenceable(8) %Start.addr.i, ptr noundef nonnull align 8 dereferenceable(8) %Length.i28)
  %48 = load i64, ptr %call.i, align 8
  store i64 %48, ptr %Start.addr.i, align 8
  %49 = load ptr, ptr %this1.i27, align 8
  %50 = load i64, ptr %Start.addr.i, align 8
  %add.ptr.i = getelementptr inbounds i8, ptr %49, i64 %50
  %Length2.i = getelementptr inbounds %"class.llvh::StringRef", ptr %this1.i27, i32 0, i32 1
  %51 = load i64, ptr %Length2.i, align 8
  %52 = load i64, ptr %Start.addr.i, align 8
  %sub.i = sub i64 %51, %52
  store i64 %sub.i, ptr %ref.tmp.i, align 8
  %call3.i = call noundef nonnull align 8 dereferenceable(8) ptr @_ZSt3minImERKT_S2_S2_(ptr noundef nonnull align 8 dereferenceable(8) %N.addr.i, ptr noundef nonnull align 8 dereferenceable(8) %ref.tmp.i)
  %53 = load i64, ptr %call3.i, align 8
  store ptr %retval.i, ptr %this.addr.i54, align 8
  store ptr %add.ptr.i, ptr %data.addr.i55, align 8
  store i64 %53, ptr %length.addr.i56, align 8
  %this1.i57 = load ptr, ptr %this.addr.i54, align 8
  %54 = load ptr, ptr %data.addr.i55, align 8
  store ptr %54, ptr %this1.i57, align 8
  %Length.i58 = getelementptr inbounds %"class.llvh::StringRef", ptr %this1.i57, i32 0, i32 1
  %55 = load i64, ptr %length.addr.i56, align 8
  store i64 %55, ptr %Length.i58, align 8
  %56 = load { ptr, i64 }, ptr %retval.i, align 8
  %57 = getelementptr inbounds { ptr, i64 }, ptr %ref.tmp20, i32 0, i32 0
  %58 = extractvalue { ptr, i64 } %56, 0
  store ptr %58, ptr %57, align 8
  %59 = getelementptr inbounds { ptr, i64 }, ptr %ref.tmp20, i32 0, i32 1
  %60 = extractvalue { ptr, i64 } %56, 1
  store i64 %60, ptr %59, align 8
  call void @llvm.memcpy.p0.p0.i64(ptr align 8 %Str, ptr align 8 %ref.tmp20, i64 16, i1 false)
  %61 = load i64, ptr %Offset, align 8
  %inc22 = add i64 %61, 1
  store i64 %inc22, ptr %Offset, align 8
  br label %if.end23

if.end23:                                         ; preds = %sw.epilog, %if.then5
  br label %while.cond, !llvm.loop !8

while.end:                                        ; preds = %while.cond
  store i64 -1, ptr %retval, align 8
  br label %return

return:                                           ; preds = %while.end, %if.then
  %62 = load i64, ptr %retval, align 8
  ret i64 %62
}

; Function Attrs: mustprogress nounwind uwtable
define linkonce_odr hidden noundef signext i8 @_ZNK4llvh9StringRefixEm(ptr noundef nonnull align 8 dereferenceable(16) %this, i64 noundef %Index) #0 comdat align 2 {
entry:
  %this.addr = alloca ptr, align 8
  %Index.addr = alloca i64, align 8
  store ptr %this, ptr %this.addr, align 8
  store i64 %Index, ptr %Index.addr, align 8
  %this1 = load ptr, ptr %this.addr, align 8
  %Data = getelementptr inbounds %"class.llvh::StringRef", ptr %this1, i32 0, i32 0
  %0 = load ptr, ptr %Data, align 8
  %1 = load i64, ptr %Index.addr, align 8
  %arrayidx = getelementptr inbounds i8, ptr %0, i64 %1
  %2 = load i8, ptr %arrayidx, align 1
  ret i8 %2
}

; Function Attrs: nounwind willreturn memory(read)
declare i32 @isalnum(i32 noundef) #3

; Function Attrs: nounwind willreturn memory(read)
declare i32 @isdigit(i32 noundef) #3

; Function Attrs: mustprogress nounwind uwtable
define linkonce_odr noundef zeroext i1 @_ZStneRKSt17_Rb_tree_iteratorISt4pairIKN4llvh9StringRefEjEES7_(ptr noundef nonnull align 8 dereferenceable(8) %__x, ptr noundef nonnull align 8 dereferenceable(8) %__y) #0 comdat {
entry:
  %__x.addr = alloca ptr, align 8
  %__y.addr = alloca ptr, align 8
  store ptr %__x, ptr %__x.addr, align 8
  store ptr %__y, ptr %__y.addr, align 8
  %0 = load ptr, ptr %__x.addr, align 8
  %_M_node = getelementptr inbounds %"struct.std::_Rb_tree_iterator", ptr %0, i32 0, i32 0
  %1 = load ptr, ptr %_M_node, align 8
  %2 = load ptr, ptr %__y.addr, align 8
  %_M_node1 = getelementptr inbounds %"struct.std::_Rb_tree_iterator", ptr %2, i32 0, i32 0
  %3 = load ptr, ptr %_M_node1, align 8
  %cmp = icmp ne ptr %1, %3
  ret i1 %cmp
}

; Function Attrs: mustprogress nounwind uwtable
define linkonce_odr hidden ptr @_ZNSt3mapIN4llvh9StringRefEjSt4lessIS1_ESaISt4pairIKS1_jEEE4findERS5_(ptr noundef nonnull align 8 dereferenceable(48) %this, ptr noundef nonnull align 8 dereferenceable(16) %__x) #0 comdat align 2 {
entry:
  %retval = alloca %"struct.std::_Rb_tree_iterator", align 8
  %this.addr = alloca ptr, align 8
  %__x.addr = alloca ptr, align 8
  store ptr %this, ptr %this.addr, align 8
  store ptr %__x, ptr %__x.addr, align 8
  %this1 = load ptr, ptr %this.addr, align 8
  %_M_t = getelementptr inbounds %"class.std::map", ptr %this1, i32 0, i32 0
  %0 = load ptr, ptr %__x.addr, align 8
  %call = call ptr @_ZNSt8_Rb_treeIN4llvh9StringRefESt4pairIKS1_jESt10_Select1stIS4_ESt4lessIS1_ESaIS4_EE4findERS3_(ptr noundef nonnull align 8 dereferenceable(48) %_M_t, ptr noundef nonnull align 8 dereferenceable(16) %0)
  %coerce.dive = getelementptr inbounds %"struct.std::_Rb_tree_iterator", ptr %retval, i32 0, i32 0
  store ptr %call, ptr %coerce.dive, align 8
  %coerce.dive2 = getelementptr inbounds %"struct.std::_Rb_tree_iterator", ptr %retval, i32 0, i32 0
  %1 = load ptr, ptr %coerce.dive2, align 8
  ret ptr %1
}

; Function Attrs: mustprogress nounwind uwtable
define linkonce_odr hidden ptr @_ZNSt3mapIN4llvh9StringRefEjSt4lessIS1_ESaISt4pairIKS1_jEEE3endEv(ptr noundef nonnull align 8 dereferenceable(48) %this) #0 comdat align 2 {
entry:
  %retval = alloca %"struct.std::_Rb_tree_iterator", align 8
  %this.addr = alloca ptr, align 8
  store ptr %this, ptr %this.addr, align 8
  %this1 = load ptr, ptr %this.addr, align 8
  %_M_t = getelementptr inbounds %"class.std::map", ptr %this1, i32 0, i32 0
  %call = call ptr @_ZNSt8_Rb_treeIN4llvh9StringRefESt4pairIKS1_jESt10_Select1stIS4_ESt4lessIS1_ESaIS4_EE3endEv(ptr noundef nonnull align 8 dereferenceable(48) %_M_t) #13
  %coerce.dive = getelementptr inbounds %"struct.std::_Rb_tree_iterator", ptr %retval, i32 0, i32 0
  store ptr %call, ptr %coerce.dive, align 8
  %coerce.dive2 = getelementptr inbounds %"struct.std::_Rb_tree_iterator", ptr %retval, i32 0, i32 0
  %0 = load ptr, ptr %coerce.dive2, align 8
  ret ptr %0
}

; Function Attrs: mustprogress nounwind uwtable
define linkonce_odr hidden noundef nonnull align 4 dereferenceable(4) ptr @_ZNSt3mapIN4llvh9StringRefEjSt4lessIS1_ESaISt4pairIKS1_jEEEixERS5_(ptr noundef nonnull align 8 dereferenceable(48) %this, ptr noundef nonnull align 8 dereferenceable(16) %__k) #0 comdat align 2 {
entry:
  %this.addr = alloca ptr, align 8
  %__k.addr = alloca ptr, align 8
  %__i = alloca %"struct.std::_Rb_tree_iterator", align 8
  %ref.tmp = alloca %"struct.std::_Rb_tree_iterator", align 8
  %ref.tmp5 = alloca %"struct.std::less", align 1
  %ref.tmp8 = alloca %"struct.std::_Rb_tree_iterator", align 8
  %agg.tmp = alloca %"struct.std::_Rb_tree_const_iterator", align 8
  %ref.tmp9 = alloca %"class.std::tuple.104", align 8
  %ref.tmp10 = alloca %"class.std::tuple.107", align 1
  store ptr %this, ptr %this.addr, align 8
  store ptr %__k, ptr %__k.addr, align 8
  %this1 = load ptr, ptr %this.addr, align 8
  %0 = load ptr, ptr %__k.addr, align 8
  %call = call ptr @_ZNSt3mapIN4llvh9StringRefEjSt4lessIS1_ESaISt4pairIKS1_jEEE11lower_boundERS5_(ptr noundef nonnull align 8 dereferenceable(48) %this1, ptr noundef nonnull align 8 dereferenceable(16) %0)
  %coerce.dive = getelementptr inbounds %"struct.std::_Rb_tree_iterator", ptr %__i, i32 0, i32 0
  store ptr %call, ptr %coerce.dive, align 8
  %call2 = call ptr @_ZNSt3mapIN4llvh9StringRefEjSt4lessIS1_ESaISt4pairIKS1_jEEE3endEv(ptr noundef nonnull align 8 dereferenceable(48) %this1) #13
  %coerce.dive3 = getelementptr inbounds %"struct.std::_Rb_tree_iterator", ptr %ref.tmp, i32 0, i32 0
  store ptr %call2, ptr %coerce.dive3, align 8
  %call4 = call noundef zeroext i1 @_ZSteqRKSt17_Rb_tree_iteratorISt4pairIKN4llvh9StringRefEjEES7_(ptr noundef nonnull align 8 dereferenceable(8) %__i, ptr noundef nonnull align 8 dereferenceable(8) %ref.tmp) #13
  br i1 %call4, label %lor.end, label %lor.rhs

lor.rhs:                                          ; preds = %entry
  call void @_ZNKSt3mapIN4llvh9StringRefEjSt4lessIS1_ESaISt4pairIKS1_jEEE8key_compEv(ptr noundef nonnull align 8 dereferenceable(48) %this1)
  %1 = load ptr, ptr %__k.addr, align 8
  %call6 = call noundef nonnull align 8 dereferenceable(20) ptr @_ZNKSt17_Rb_tree_iteratorISt4pairIKN4llvh9StringRefEjEEdeEv(ptr noundef nonnull align 8 dereferenceable(8) %__i) #13
  %first = getelementptr inbounds %"struct.std::pair.29", ptr %call6, i32 0, i32 0
  %call7 = call noundef zeroext i1 @_ZNKSt4lessIN4llvh9StringRefEEclERKS1_S4_(ptr noundef nonnull align 1 dereferenceable(1) %ref.tmp5, ptr noundef nonnull align 8 dereferenceable(16) %1, ptr noundef nonnull align 8 dereferenceable(16) %first)
  br label %lor.end

lor.end:                                          ; preds = %lor.rhs, %entry
  %2 = phi i1 [ true, %entry ], [ %call7, %lor.rhs ]
  br i1 %2, label %if.then, label %if.end

if.then:                                          ; preds = %lor.end
  %_M_t = getelementptr inbounds %"class.std::map", ptr %this1, i32 0, i32 0
  call void @_ZNSt23_Rb_tree_const_iteratorISt4pairIKN4llvh9StringRefEjEEC2ERKSt17_Rb_tree_iteratorIS4_E(ptr noundef nonnull align 8 dereferenceable(8) %agg.tmp, ptr noundef nonnull align 8 dereferenceable(8) %__i) #13
  %3 = load ptr, ptr %__k.addr, align 8
  call void @_ZNSt5tupleIJRKN4llvh9StringRefEEEC2ILb1ETnNSt9enable_ifIXclsr4_TCCIXT_EEE29__is_implicitly_constructibleIS3_EEEbE4typeELb1EEES3_(ptr noundef nonnull align 8 dereferenceable(8) %ref.tmp9, ptr noundef nonnull align 8 dereferenceable(16) %3) #13
  %coerce.dive11 = getelementptr inbounds %"struct.std::_Rb_tree_const_iterator", ptr %agg.tmp, i32 0, i32 0
  %4 = load ptr, ptr %coerce.dive11, align 8
  %call12 = call ptr @_ZNSt8_Rb_treeIN4llvh9StringRefESt4pairIKS1_jESt10_Select1stIS4_ESt4lessIS1_ESaIS4_EE22_M_emplace_hint_uniqueIJRKSt21piecewise_construct_tSt5tupleIJRS3_EESF_IJEEEEESt17_Rb_tree_iteratorIS4_ESt23_Rb_tree_const_iteratorIS4_EDpOT_(ptr noundef nonnull align 8 dereferenceable(48) %_M_t, ptr %4, ptr noundef nonnull align 1 dereferenceable(1) @_ZSt19piecewise_construct, ptr noundef nonnull align 8 dereferenceable(8) %ref.tmp9, ptr noundef nonnull align 1 dereferenceable(1) %ref.tmp10)
  %coerce.dive13 = getelementptr inbounds %"struct.std::_Rb_tree_iterator", ptr %ref.tmp8, i32 0, i32 0
  store ptr %call12, ptr %coerce.dive13, align 8
  call void @llvm.memcpy.p0.p0.i64(ptr align 8 %__i, ptr align 8 %ref.tmp8, i64 8, i1 false)
  br label %if.end

if.end:                                           ; preds = %if.then, %lor.end
  %call14 = call noundef nonnull align 8 dereferenceable(20) ptr @_ZNKSt17_Rb_tree_iteratorISt4pairIKN4llvh9StringRefEjEEdeEv(ptr noundef nonnull align 8 dereferenceable(8) %__i) #13
  %second = getelementptr inbounds %"struct.std::pair.29", ptr %call14, i32 0, i32 1
  ret ptr %second
}

; Function Attrs: mustprogress nounwind uwtable
define hidden void @_ZN4llvh16FileCheckPattern17AddBackrefToRegExEj(ptr noundef nonnull align 8 dereferenceable(136) %this, i32 noundef %BackrefNum) #0 align 2 {
entry:
  %this.addr = alloca ptr, align 8
  %BackrefNum.addr = alloca i32, align 4
  %Backref = alloca %"class.std::__cxx11::basic_string", align 8
  %ref.tmp = alloca %"class.std::__cxx11::basic_string", align 8
  %ref.tmp2 = alloca %"class.std::allocator.0", align 1
  %ref.tmp3 = alloca %"class.std::__cxx11::basic_string", align 8
  %ref.tmp4 = alloca %"class.std::allocator.0", align 1
  store ptr %this, ptr %this.addr, align 8
  store i32 %BackrefNum, ptr %BackrefNum.addr, align 4
  %this1 = load ptr, ptr %this.addr, align 8
  call void @_ZNSaIcEC1Ev(ptr noundef nonnull align 1 dereferenceable(1) %ref.tmp2) #13
  call void @_ZNSt7__cxx1112basic_stringIcSt11char_traitsIcESaIcEEC2IS3_EEPKcRKS3_(ptr noundef nonnull align 8 dereferenceable(32) %ref.tmp, ptr noundef @.str.15, ptr noundef nonnull align 1 dereferenceable(1) %ref.tmp2)
  %0 = load i32, ptr %BackrefNum.addr, align 4
  %add = add i32 48, %0
  %conv = trunc i32 %add to i8
  call void @_ZNSaIcEC1Ev(ptr noundef nonnull align 1 dereferenceable(1) %ref.tmp4) #13
  call void @_ZNSt7__cxx1112basic_stringIcSt11char_traitsIcESaIcEEC2IS3_EEmcRKS3_(ptr noundef nonnull align 8 dereferenceable(32) %ref.tmp3, i64 noundef 1, i8 noundef signext %conv, ptr noundef nonnull align 1 dereferenceable(1) %ref.tmp4)
  call void @_ZStplIcSt11char_traitsIcESaIcEENSt7__cxx1112basic_stringIT_T0_T1_EEOS8_S9_(ptr sret(%"class.std::__cxx11::basic_string") align 8 %Backref, ptr noundef nonnull align 8 dereferenceable(32) %ref.tmp, ptr noundef nonnull align 8 dereferenceable(32) %ref.tmp3)
  call void @_ZNSt7__cxx1112basic_stringIcSt11char_traitsIcESaIcEED1Ev(ptr noundef nonnull align 8 dereferenceable(32) %ref.tmp3) #13
  call void @_ZNSaIcED1Ev(ptr noundef nonnull align 1 dereferenceable(1) %ref.tmp4) #13
  call void @_ZNSt7__cxx1112basic_stringIcSt11char_traitsIcESaIcEED1Ev(ptr noundef nonnull align 8 dereferenceable(32) %ref.tmp) #13
  call void @_ZNSaIcED1Ev(ptr noundef nonnull align 1 dereferenceable(1) %ref.tmp2) #13
  %RegExStr = getelementptr inbounds %"class.llvh::FileCheckPattern", ptr %this1, i32 0, i32 2
  %call = call noundef nonnull align 8 dereferenceable(32) ptr @_ZNSt7__cxx1112basic_stringIcSt11char_traitsIcESaIcEEpLERKS4_(ptr noundef nonnull align 8 dereferenceable(32) %RegExStr, ptr noundef nonnull align 8 dereferenceable(32) %Backref)
  call void @_ZNSt7__cxx1112basic_stringIcSt11char_traitsIcESaIcEED1Ev(ptr noundef nonnull align 8 dereferenceable(32) %Backref) #13
  ret void
}

; Function Attrs: mustprogress nounwind uwtable
define linkonce_odr hidden void @_ZNSt6vectorISt4pairIN4llvh9StringRefEjESaIS3_EE9push_backEOS3_(ptr noundef nonnull align 8 dereferenceable(24) %this, ptr noundef nonnull align 8 dereferenceable(20) %__x) #0 comdat align 2 {
entry:
  %this.addr = alloca ptr, align 8
  %__x.addr = alloca ptr, align 8
  store ptr %this, ptr %this.addr, align 8
  store ptr %__x, ptr %__x.addr, align 8
  %this1 = load ptr, ptr %this.addr, align 8
  %0 = load ptr, ptr %__x.addr, align 8
  %call = call noundef nonnull align 8 dereferenceable(20) ptr @_ZNSt6vectorISt4pairIN4llvh9StringRefEjESaIS3_EE12emplace_backIJS3_EEERS3_DpOT_(ptr noundef nonnull align 8 dereferenceable(24) %this1, ptr noundef nonnull align 8 dereferenceable(20) %0)
  ret void
}

; Function Attrs: mustprogress nounwind uwtable
define linkonce_odr hidden void @_ZSt9make_pairIRN4llvh9StringRefEmESt4pairINSt25__strip_reference_wrapperINSt5decayIT_E4typeEE6__typeENS4_INS5_IT0_E4typeEE6__typeEEOS6_OSB_(ptr noalias sret(%"struct.std::pair.25") align 8 %agg.result, ptr noundef nonnull align 8 dereferenceable(16) %__x, ptr noundef nonnull align 8 dereferenceable(8) %__y) #0 comdat {
entry:
  %__x.addr = alloca ptr, align 8
  %__y.addr = alloca ptr, align 8
  store ptr %__x, ptr %__x.addr, align 8
  store ptr %__y, ptr %__y.addr, align 8
  %0 = load ptr, ptr %__x.addr, align 8
  %1 = load ptr, ptr %__y.addr, align 8
  call void @_ZNSt4pairIN4llvh9StringRefEmEC2IRS1_mTnNSt9enable_ifIXaaclsr5_PCCPE22_MoveConstructiblePairIT_T0_EEclsr5_PCCPE30_ImplicitlyMoveConvertiblePairIS6_S7_EEEbE4typeELb1EEEOS6_OS7_(ptr noundef nonnull align 8 dereferenceable(24) %agg.result, ptr noundef nonnull align 8 dereferenceable(16) %0, ptr noundef nonnull align 8 dereferenceable(8) %1)
  ret void
}

; Function Attrs: nounwind
declare noundef i64 @_ZNKSt7__cxx1112basic_stringIcSt11char_traitsIcESaIcEE4sizeEv(ptr noundef nonnull align 8 dereferenceable(32)) #4

; Function Attrs: mustprogress nounwind uwtable
define linkonce_odr hidden void @_ZNSt4pairIN4llvh9StringRefEjEC2IS1_mTnNSt9enable_ifIXaaclsr6_PCCFPIT_T0_EE22_MoveConstructiblePairIS5_S6_EEclsr6_PCCFPIS5_S6_EE30_ImplicitlyMoveConvertiblePairIS5_S6_EEEbE4typeELb1EEEOS_IS5_S6_E(ptr noundef nonnull align 8 dereferenceable(20) %this, ptr noundef nonnull align 8 dereferenceable(24) %__p) unnamed_addr #0 comdat align 2 {
entry:
  %this.addr = alloca ptr, align 8
  %__p.addr = alloca ptr, align 8
  store ptr %this, ptr %this.addr, align 8
  store ptr %__p, ptr %__p.addr, align 8
  %this1 = load ptr, ptr %this.addr, align 8
  %first = getelementptr inbounds %"struct.std::pair", ptr %this1, i32 0, i32 0
  %0 = load ptr, ptr %__p.addr, align 8
  %first2 = getelementptr inbounds %"struct.std::pair.25", ptr %0, i32 0, i32 0
  call void @llvm.memcpy.p0.p0.i64(ptr align 8 %first, ptr align 8 %first2, i64 16, i1 false)
  %second = getelementptr inbounds %"struct.std::pair", ptr %this1, i32 0, i32 1
  %1 = load ptr, ptr %__p.addr, align 8
  %second3 = getelementptr inbounds %"struct.std::pair.25", ptr %1, i32 0, i32 1
  %2 = load i64, ptr %second3, align 8
  %conv = trunc i64 %2 to i32
  store i32 %conv, ptr %second, align 8
  ret void
}

; Function Attrs: mustprogress nounwind uwtable
define linkonce_odr noundef nonnull align 8 dereferenceable(8) ptr @_ZSt3minImERKT_S2_S2_(ptr noundef nonnull align 8 dereferenceable(8) %__a, ptr noundef nonnull align 8 dereferenceable(8) %__b) #0 comdat {
entry:
  %retval = alloca ptr, align 8
  %__a.addr = alloca ptr, align 8
  %__b.addr = alloca ptr, align 8
  store ptr %__a, ptr %__a.addr, align 8
  store ptr %__b, ptr %__b.addr, align 8
  %0 = load ptr, ptr %__b.addr, align 8
  %1 = load i64, ptr %0, align 8
  %2 = load ptr, ptr %__a.addr, align 8
  %3 = load i64, ptr %2, align 8
  %cmp = icmp ult i64 %1, %3
  br i1 %cmp, label %if.then, label %if.end

if.then:                                          ; preds = %entry
  %4 = load ptr, ptr %__b.addr, align 8
  store ptr %4, ptr %retval, align 8
  br label %return

if.end:                                           ; preds = %entry
  %5 = load ptr, ptr %__a.addr, align 8
  store ptr %5, ptr %retval, align 8
  br label %return

return:                                           ; preds = %if.end, %if.then
  %6 = load ptr, ptr %retval, align 8
  ret ptr %6
}

declare void @_ZN4llvh5Regex6escapeB5cxx11ENS_9StringRefE(ptr sret(%"class.std::__cxx11::basic_string") align 8, ptr, i64) #2

declare noundef nonnull align 8 dereferenceable(32) ptr @_ZNSt7__cxx1112basic_stringIcSt11char_traitsIcESaIcEEpLERKS4_(ptr noundef nonnull align 8 dereferenceable(32), ptr noundef nonnull align 8 dereferenceable(32)) #2

; Function Attrs: nounwind
declare void @_ZNSt7__cxx1112basic_stringIcSt11char_traitsIcESaIcEED1Ev(ptr noundef nonnull align 8 dereferenceable(32)) unnamed_addr #4

declare void @_ZN4llvh5RegexC1ENS_9StringRefEj(ptr noundef nonnull align 8 dereferenceable(12), ptr, i64, i32 noundef) unnamed_addr #2

; Function Attrs: nounwind
declare void @_ZNSt7__cxx1112basic_stringIcSt11char_traitsIcESaIcEEC1Ev(ptr noundef nonnull align 8 dereferenceable(32)) unnamed_addr #4

declare noundef zeroext i1 @_ZNK4llvh5Regex7isValidERNSt7__cxx1112basic_stringIcSt11char_traitsIcESaIcEEE(ptr noundef nonnull align 8 dereferenceable(12), ptr noundef nonnull align 8 dereferenceable(32)) #2

; Function Attrs: mustprogress nounwind uwtable
define linkonce_odr void @_ZStplIcSt11char_traitsIcESaIcEENSt7__cxx1112basic_stringIT_T0_T1_EEPKS5_RKS8_(ptr noalias sret(%"class.std::__cxx11::basic_string") align 8 %agg.result, ptr noundef %__lhs, ptr noundef nonnull align 8 dereferenceable(32) %__rhs) #0 comdat {
entry:
  %result.ptr = alloca ptr, align 8
  %__lhs.addr = alloca ptr, align 8
  %__rhs.addr = alloca ptr, align 8
  %__len = alloca i64, align 8
  %nrvo = alloca i1, align 1
  %ref.tmp = alloca %"class.std::allocator.0", align 1
  %ref.tmp1 = alloca %"class.std::allocator.0", align 1
  store ptr %agg.result, ptr %result.ptr, align 8
  store ptr %__lhs, ptr %__lhs.addr, align 8
  store ptr %__rhs, ptr %__rhs.addr, align 8
  %0 = load ptr, ptr %__lhs.addr, align 8
  %call = call noundef i64 @_ZNSt11char_traitsIcE6lengthEPKc(ptr noundef %0)
  store i64 %call, ptr %__len, align 8
  store i1 false, ptr %nrvo, align 1
  %1 = load ptr, ptr %__rhs.addr, align 8
  call void @_ZNKSt7__cxx1112basic_stringIcSt11char_traitsIcESaIcEE13get_allocatorEv(ptr sret(%"class.std::allocator.0") align 1 %ref.tmp1, ptr noundef nonnull align 8 dereferenceable(32) %1) #13
  call void @_ZN9__gnu_cxx14__alloc_traitsISaIcEcE17_S_select_on_copyERKS1_(ptr sret(%"class.std::allocator.0") align 1 %ref.tmp, ptr noundef nonnull align 1 dereferenceable(1) %ref.tmp1)
  call void @_ZNSt7__cxx1112basic_stringIcSt11char_traitsIcESaIcEEC1ERKS3_(ptr noundef nonnull align 8 dereferenceable(32) %agg.result, ptr noundef nonnull align 1 dereferenceable(1) %ref.tmp) #13
  call void @_ZNSaIcED1Ev(ptr noundef nonnull align 1 dereferenceable(1) %ref.tmp) #13
  call void @_ZNSaIcED1Ev(ptr noundef nonnull align 1 dereferenceable(1) %ref.tmp1) #13
  %2 = load i64, ptr %__len, align 8
  %3 = load ptr, ptr %__rhs.addr, align 8
  %call2 = call noundef i64 @_ZNKSt7__cxx1112basic_stringIcSt11char_traitsIcESaIcEE4sizeEv(ptr noundef nonnull align 8 dereferenceable(32) %3) #13
  %add = add i64 %2, %call2
  call void @_ZNSt7__cxx1112basic_stringIcSt11char_traitsIcESaIcEE7reserveEm(ptr noundef nonnull align 8 dereferenceable(32) %agg.result, i64 noundef %add)
  %4 = load ptr, ptr %__lhs.addr, align 8
  %5 = load i64, ptr %__len, align 8
  %call3 = call noundef nonnull align 8 dereferenceable(32) ptr @_ZNSt7__cxx1112basic_stringIcSt11char_traitsIcESaIcEE6appendEPKcm(ptr noundef nonnull align 8 dereferenceable(32) %agg.result, ptr noundef %4, i64 noundef %5)
  %6 = load ptr, ptr %__rhs.addr, align 8
  %call4 = call noundef nonnull align 8 dereferenceable(32) ptr @_ZNSt7__cxx1112basic_stringIcSt11char_traitsIcESaIcEE6appendERKS4_(ptr noundef nonnull align 8 dereferenceable(32) %agg.result, ptr noundef nonnull align 8 dereferenceable(32) %6)
  store i1 true, ptr %nrvo, align 1
  %nrvo.val = load i1, ptr %nrvo, align 1
  br i1 %nrvo.val, label %nrvo.skipdtor, label %nrvo.unused

nrvo.unused:                                      ; preds = %entry
  call void @_ZNSt7__cxx1112basic_stringIcSt11char_traitsIcESaIcEED1Ev(ptr noundef nonnull align 8 dereferenceable(32) %agg.result) #13
  br label %nrvo.skipdtor

nrvo.skipdtor:                                    ; preds = %nrvo.unused, %entry
  ret void
}

; Function Attrs: mustprogress nounwind uwtable
define linkonce_odr hidden void @_ZN4llvh5TwineC2ERKNSt7__cxx1112basic_stringIcSt11char_traitsIcESaIcEEE(ptr noundef nonnull align 8 dereferenceable(18) %this, ptr noundef nonnull align 8 dereferenceable(32) %Str) unnamed_addr #0 comdat align 2 {
entry:
  %this.addr = alloca ptr, align 8
  %Str.addr = alloca ptr, align 8
  store ptr %this, ptr %this.addr, align 8
  store ptr %Str, ptr %Str.addr, align 8
  %this1 = load ptr, ptr %this.addr, align 8
  %LHSKind = getelementptr inbounds %"class.llvh::Twine", ptr %this1, i32 0, i32 2
  store i8 4, ptr %LHSKind, align 8
  %RHSKind = getelementptr inbounds %"class.llvh::Twine", ptr %this1, i32 0, i32 3
  store i8 1, ptr %RHSKind, align 1
  %0 = load ptr, ptr %Str.addr, align 8
  %LHS2 = getelementptr inbounds %"class.llvh::Twine", ptr %this1, i32 0, i32 0
  store ptr %0, ptr %LHS2, align 8
  ret void
}

; Function Attrs: mustprogress nounwind uwtable
define linkonce_odr hidden void @_ZNK4llvh9StringRef3strB5cxx11Ev(ptr noalias sret(%"class.std::__cxx11::basic_string") align 8 %agg.result, ptr noundef nonnull align 8 dereferenceable(16) %this) #0 comdat align 2 {
entry:
  %result.ptr = alloca ptr, align 8
  %this.addr = alloca ptr, align 8
  %ref.tmp = alloca %"class.std::allocator.0", align 1
  store ptr %agg.result, ptr %result.ptr, align 8
  store ptr %this, ptr %this.addr, align 8
  %this1 = load ptr, ptr %this.addr, align 8
  %Data = getelementptr inbounds %"class.llvh::StringRef", ptr %this1, i32 0, i32 0
  %0 = load ptr, ptr %Data, align 8
  %tobool = icmp ne ptr %0, null
  br i1 %tobool, label %if.end, label %if.then

if.then:                                          ; preds = %entry
  call void @_ZNSt7__cxx1112basic_stringIcSt11char_traitsIcESaIcEEC1Ev(ptr noundef nonnull align 8 dereferenceable(32) %agg.result) #13
  br label %return

if.end:                                           ; preds = %entry
  %Data2 = getelementptr inbounds %"class.llvh::StringRef", ptr %this1, i32 0, i32 0
  %1 = load ptr, ptr %Data2, align 8
  %Length = getelementptr inbounds %"class.llvh::StringRef", ptr %this1, i32 0, i32 1
  %2 = load i64, ptr %Length, align 8
  call void @_ZNSaIcEC1Ev(ptr noundef nonnull align 1 dereferenceable(1) %ref.tmp) #13
  call void @_ZNSt7__cxx1112basic_stringIcSt11char_traitsIcESaIcEEC1EPKcmRKS3_(ptr noundef nonnull align 8 dereferenceable(32) %agg.result, ptr noundef %1, i64 noundef %2, ptr noundef nonnull align 1 dereferenceable(1) %ref.tmp)
  call void @_ZNSaIcED1Ev(ptr noundef nonnull align 1 dereferenceable(1) %ref.tmp) #13
  br label %return

return:                                           ; preds = %if.end, %if.then
  ret void
}

declare noundef i32 @_ZNK4llvh5Regex13getNumMatchesEv(ptr noundef nonnull align 8 dereferenceable(12)) #2

; Function Attrs: nounwind
declare void @_ZN4llvh5RegexD1Ev(ptr noundef nonnull align 8 dereferenceable(12)) unnamed_addr #4

; Function Attrs: mustprogress nounwind uwtable
define linkonce_odr void @_ZStplIcSt11char_traitsIcESaIcEENSt7__cxx1112basic_stringIT_T0_T1_EEOS8_S9_(ptr noalias sret(%"class.std::__cxx11::basic_string") align 8 %agg.result, ptr noundef nonnull align 8 dereferenceable(32) %__lhs, ptr noundef nonnull align 8 dereferenceable(32) %__rhs) #0 comdat {
entry:
  %result.ptr = alloca ptr, align 8
  %__lhs.addr = alloca ptr, align 8
  %__rhs.addr = alloca ptr, align 8
  %__use_rhs = alloca i8, align 1
  %__size = alloca i64, align 8
  store ptr %agg.result, ptr %result.ptr, align 8
  store ptr %__lhs, ptr %__lhs.addr, align 8
  store ptr %__rhs, ptr %__rhs.addr, align 8
  store i8 0, ptr %__use_rhs, align 1
  store i8 1, ptr %__use_rhs, align 1
  %0 = load i8, ptr %__use_rhs, align 1
  %tobool = trunc i8 %0 to i1
  br i1 %tobool, label %if.then, label %if.end7

if.then:                                          ; preds = %entry
  %1 = load ptr, ptr %__lhs.addr, align 8
  %call = call noundef i64 @_ZNKSt7__cxx1112basic_stringIcSt11char_traitsIcESaIcEE4sizeEv(ptr noundef nonnull align 8 dereferenceable(32) %1) #13
  %2 = load ptr, ptr %__rhs.addr, align 8
  %call1 = call noundef i64 @_ZNKSt7__cxx1112basic_stringIcSt11char_traitsIcESaIcEE4sizeEv(ptr noundef nonnull align 8 dereferenceable(32) %2) #13
  %add = add i64 %call, %call1
  store i64 %add, ptr %__size, align 8
  %3 = load i64, ptr %__size, align 8
  %4 = load ptr, ptr %__lhs.addr, align 8
  %call2 = call noundef i64 @_ZNKSt7__cxx1112basic_stringIcSt11char_traitsIcESaIcEE8capacityEv(ptr noundef nonnull align 8 dereferenceable(32) %4) #13
  %cmp = icmp ugt i64 %3, %call2
  br i1 %cmp, label %land.lhs.true, label %if.end

land.lhs.true:                                    ; preds = %if.then
  %5 = load i64, ptr %__size, align 8
  %6 = load ptr, ptr %__rhs.addr, align 8
  %call3 = call noundef i64 @_ZNKSt7__cxx1112basic_stringIcSt11char_traitsIcESaIcEE8capacityEv(ptr noundef nonnull align 8 dereferenceable(32) %6) #13
  %cmp4 = icmp ule i64 %5, %call3
  br i1 %cmp4, label %if.then5, label %if.end

if.then5:                                         ; preds = %land.lhs.true
  %7 = load ptr, ptr %__rhs.addr, align 8
  %8 = load ptr, ptr %__lhs.addr, align 8
  %call6 = call noundef nonnull align 8 dereferenceable(32) ptr @_ZNSt7__cxx1112basic_stringIcSt11char_traitsIcESaIcEE6insertEmRKS4_(ptr noundef nonnull align 8 dereferenceable(32) %7, i64 noundef 0, ptr noundef nonnull align 8 dereferenceable(32) %8)
  call void @_ZNSt7__cxx1112basic_stringIcSt11char_traitsIcESaIcEEC1EOS4_(ptr noundef nonnull align 8 dereferenceable(32) %agg.result, ptr noundef nonnull align 8 dereferenceable(32) %call6) #13
  br label %return

if.end:                                           ; preds = %land.lhs.true, %if.then
  br label %if.end7

if.end7:                                          ; preds = %if.end, %entry
  %9 = load ptr, ptr %__lhs.addr, align 8
  %10 = load ptr, ptr %__rhs.addr, align 8
  %call8 = call noundef nonnull align 8 dereferenceable(32) ptr @_ZNSt7__cxx1112basic_stringIcSt11char_traitsIcESaIcEE6appendERKS4_(ptr noundef nonnull align 8 dereferenceable(32) %9, ptr noundef nonnull align 8 dereferenceable(32) %10)
  call void @_ZNSt7__cxx1112basic_stringIcSt11char_traitsIcESaIcEEC1EOS4_(ptr noundef nonnull align 8 dereferenceable(32) %agg.result, ptr noundef nonnull align 8 dereferenceable(32) %call8) #13
  br label %return

return:                                           ; preds = %if.end7, %if.then5
  ret void
}

; Function Attrs: nounwind
declare void @_ZNSaIcEC1Ev(ptr noundef nonnull align 1 dereferenceable(1)) unnamed_addr #4

; Function Attrs: mustprogress nounwind uwtable
define linkonce_odr void @_ZNSt7__cxx1112basic_stringIcSt11char_traitsIcESaIcEEC2IS3_EEPKcRKS3_(ptr noundef nonnull align 8 dereferenceable(32) %this, ptr noundef %__s, ptr noundef nonnull align 1 dereferenceable(1) %__a) unnamed_addr #0 comdat align 2 {
entry:
  %this.addr = alloca ptr, align 8
  %__s.addr = alloca ptr, align 8
  %__a.addr = alloca ptr, align 8
  %__end = alloca ptr, align 8
  store ptr %this, ptr %this.addr, align 8
  store ptr %__s, ptr %__s.addr, align 8
  store ptr %__a, ptr %__a.addr, align 8
  %this1 = load ptr, ptr %this.addr, align 8
  %_M_dataplus = getelementptr inbounds %"class.std::__cxx11::basic_string", ptr %this1, i32 0, i32 0
  %call = call noundef ptr @_ZNSt7__cxx1112basic_stringIcSt11char_traitsIcESaIcEE13_M_local_dataEv(ptr noundef nonnull align 8 dereferenceable(32) %this1)
  %0 = load ptr, ptr %__a.addr, align 8
  call void @_ZNSt7__cxx1112basic_stringIcSt11char_traitsIcESaIcEE12_Alloc_hiderC1EPcRKS3_(ptr noundef nonnull align 8 dereferenceable(8) %_M_dataplus, ptr noundef %call, ptr noundef nonnull align 1 dereferenceable(1) %0)
  %1 = load ptr, ptr %__s.addr, align 8
  %cmp = icmp eq ptr %1, null
  br i1 %cmp, label %if.then, label %if.end

if.then:                                          ; preds = %entry
  call void @_ZSt19__throw_logic_errorPKc(ptr noundef @.str.87) #15
  unreachable

if.end:                                           ; preds = %entry
  %2 = load ptr, ptr %__s.addr, align 8
  %3 = load ptr, ptr %__s.addr, align 8
  %call2 = call noundef i64 @_ZNSt11char_traitsIcE6lengthEPKc(ptr noundef %3)
  %add.ptr = getelementptr inbounds i8, ptr %2, i64 %call2
  store ptr %add.ptr, ptr %__end, align 8
  %4 = load ptr, ptr %__s.addr, align 8
  %5 = load ptr, ptr %__end, align 8
  call void @_ZNSt7__cxx1112basic_stringIcSt11char_traitsIcESaIcEE12_M_constructIPKcEEvT_S8_St20forward_iterator_tag(ptr noundef nonnull align 8 dereferenceable(32) %this1, ptr noundef %4, ptr noundef %5)
  ret void
}

; Function Attrs: mustprogress nounwind uwtable
define linkonce_odr void @_ZNSt7__cxx1112basic_stringIcSt11char_traitsIcESaIcEEC2IS3_EEmcRKS3_(ptr noundef nonnull align 8 dereferenceable(32) %this, i64 noundef %__n, i8 noundef signext %__c, ptr noundef nonnull align 1 dereferenceable(1) %__a) unnamed_addr #0 comdat align 2 {
entry:
  %this.addr = alloca ptr, align 8
  %__n.addr = alloca i64, align 8
  %__c.addr = alloca i8, align 1
  %__a.addr = alloca ptr, align 8
  store ptr %this, ptr %this.addr, align 8
  store i64 %__n, ptr %__n.addr, align 8
  store i8 %__c, ptr %__c.addr, align 1
  store ptr %__a, ptr %__a.addr, align 8
  %this1 = load ptr, ptr %this.addr, align 8
  %_M_dataplus = getelementptr inbounds %"class.std::__cxx11::basic_string", ptr %this1, i32 0, i32 0
  %call = call noundef ptr @_ZNSt7__cxx1112basic_stringIcSt11char_traitsIcESaIcEE13_M_local_dataEv(ptr noundef nonnull align 8 dereferenceable(32) %this1)
  %0 = load ptr, ptr %__a.addr, align 8
  call void @_ZNSt7__cxx1112basic_stringIcSt11char_traitsIcESaIcEE12_Alloc_hiderC1EPcRKS3_(ptr noundef nonnull align 8 dereferenceable(8) %_M_dataplus, ptr noundef %call, ptr noundef nonnull align 1 dereferenceable(1) %0)
  %1 = load i64, ptr %__n.addr, align 8
  %2 = load i8, ptr %__c.addr, align 1
  call void @_ZNSt7__cxx1112basic_stringIcSt11char_traitsIcESaIcEE12_M_constructEmc(ptr noundef nonnull align 8 dereferenceable(32) %this1, i64 noundef %1, i8 noundef signext %2)
  ret void
}

; Function Attrs: nounwind
declare void @_ZNSaIcED1Ev(ptr noundef nonnull align 1 dereferenceable(1)) unnamed_addr #4

; Function Attrs: mustprogress nounwind uwtable
define hidden noundef zeroext i1 @_ZNK4llvh16FileCheckPattern18EvaluateExpressionENS_9StringRefERNSt7__cxx1112basic_stringIcSt11char_traitsIcESaIcEEE(ptr noundef nonnull align 8 dereferenceable(136) %this, ptr %Expr.coerce0, i64 %Expr.coerce1, ptr noundef nonnull align 8 dereferenceable(32) %Value) #0 align 2 {
entry:
  %retval.i70 = alloca i32, align 4
  %Lhs.addr.i = alloca ptr, align 8
  %Rhs.addr.i = alloca ptr, align 8
  %Length.addr.i = alloca i64, align 8
  %this.addr.i65 = alloca ptr, align 8
  %data.addr.i66 = alloca ptr, align 8
  %length.addr.i67 = alloca i64, align 8
  %this.addr.i62 = alloca ptr, align 8
  %data.addr.i = alloca ptr, align 8
  %length.addr.i = alloca i64, align 8
  %Prefix.i = alloca %"class.llvh::StringRef", align 8
  %this.addr.i56 = alloca ptr, align 8
  %this.addr.i46 = alloca ptr, align 8
  %Str.addr.i47 = alloca ptr, align 8
  %this.addr.i42 = alloca ptr, align 8
  %Str.addr.i = alloca ptr, align 8
  %this.addr.i39 = alloca ptr, align 8
  %retval.i27 = alloca %"class.llvh::StringRef", align 8
  %this.addr.i28 = alloca ptr, align 8
  %Start.addr.i29 = alloca i64, align 8
  %N.addr.i30 = alloca i64, align 8
  %ref.tmp.i31 = alloca i64, align 8
  %retval.i = alloca %"class.llvh::StringRef", align 8
  %this.addr.i24 = alloca ptr, align 8
  %Start.addr.i = alloca i64, align 8
  %N.addr.i = alloca i64, align 8
  %ref.tmp.i = alloca i64, align 8
  %this.addr.i = alloca ptr, align 8
  %retval = alloca i1, align 1
  %Expr = alloca %"class.llvh::StringRef", align 8
  %this.addr = alloca ptr, align 8
  %Value.addr = alloca ptr, align 8
  %agg.tmp = alloca %"class.llvh::StringRef", align 8
  %ref.tmp = alloca %"class.llvh::StringRef", align 8
  %ref.tmp2 = alloca %"class.llvh::StringRef", align 8
  %Offset = alloca i32, align 4
  %ref.tmp9 = alloca %"class.llvh::StringRef", align 8
  %ref.tmp21 = alloca %"class.std::__cxx11::basic_string", align 8
  %0 = getelementptr inbounds { ptr, i64 }, ptr %Expr, i32 0, i32 0
  store ptr %Expr.coerce0, ptr %0, align 8
  %1 = getelementptr inbounds { ptr, i64 }, ptr %Expr, i32 0, i32 1
  store i64 %Expr.coerce1, ptr %1, align 8
  store ptr %this, ptr %this.addr, align 8
  store ptr %Value, ptr %Value.addr, align 8
  %this1 = load ptr, ptr %this.addr, align 8
  store ptr %agg.tmp, ptr %this.addr.i42, align 8
  store ptr @.str.16, ptr %Str.addr.i, align 8
  %this1.i43 = load ptr, ptr %this.addr.i42, align 8
  %2 = load ptr, ptr %Str.addr.i, align 8
  store ptr %2, ptr %this1.i43, align 8
  %Length.i44 = getelementptr inbounds %"class.llvh::StringRef", ptr %this1.i43, i32 0, i32 1
  %3 = load ptr, ptr %Str.addr.i, align 8
  %tobool.i = icmp ne ptr %3, null
  br i1 %tobool.i, label %cond.true.i, label %cond.false.i

cond.true.i:                                      ; preds = %entry
  %4 = load ptr, ptr %Str.addr.i, align 8
  %call.i45 = call i64 @strlen(ptr noundef %4) #12
  br label %_ZN4llvh9StringRefC2EPKc.exit

cond.false.i:                                     ; preds = %entry
  br label %_ZN4llvh9StringRefC2EPKc.exit

_ZN4llvh9StringRefC2EPKc.exit:                    ; preds = %cond.false.i, %cond.true.i
  %cond.i = phi i64 [ %call.i45, %cond.true.i ], [ 0, %cond.false.i ]
  store i64 %cond.i, ptr %Length.i44, align 8
  %5 = getelementptr inbounds { ptr, i64 }, ptr %agg.tmp, i32 0, i32 0
  %6 = load ptr, ptr %5, align 8
  %7 = getelementptr inbounds { ptr, i64 }, ptr %agg.tmp, i32 0, i32 1
  %8 = load i64, ptr %7, align 8
  store ptr %6, ptr %Prefix.i, align 8
  %9 = getelementptr inbounds { ptr, i64 }, ptr %Prefix.i, i32 0, i32 1
  store i64 %8, ptr %9, align 8
  store ptr %Expr, ptr %this.addr.i56, align 8
  %this1.i57 = load ptr, ptr %this.addr.i56, align 8
  %Length.i58 = getelementptr inbounds %"class.llvh::StringRef", ptr %this1.i57, i32 0, i32 1
  %10 = load i64, ptr %Length.i58, align 8
  %Length2.i59 = getelementptr inbounds %"class.llvh::StringRef", ptr %Prefix.i, i32 0, i32 1
  %11 = load i64, ptr %Length2.i59, align 8
  %cmp.i60 = icmp uge i64 %10, %11
  br i1 %cmp.i60, label %land.rhs.i, label %_ZNK4llvh9StringRef10startswithES0_.exit

land.rhs.i:                                       ; preds = %_ZN4llvh9StringRefC2EPKc.exit
  %12 = load ptr, ptr %this1.i57, align 8
  %13 = load ptr, ptr %Prefix.i, align 8
  %Length4.i = getelementptr inbounds %"class.llvh::StringRef", ptr %Prefix.i, i32 0, i32 1
  %14 = load i64, ptr %Length4.i, align 8
  store ptr %12, ptr %Lhs.addr.i, align 8
  store ptr %13, ptr %Rhs.addr.i, align 8
  store i64 %14, ptr %Length.addr.i, align 8
  %15 = load i64, ptr %Length.addr.i, align 8
  %cmp.i71 = icmp eq i64 %15, 0
  br i1 %cmp.i71, label %if.then.i, label %if.end.i

if.then.i:                                        ; preds = %land.rhs.i
  store i32 0, ptr %retval.i70, align 4
  br label %_ZN4llvh9StringRef13compareMemoryEPKcS2_m.exit

if.end.i:                                         ; preds = %land.rhs.i
  %16 = load ptr, ptr %Lhs.addr.i, align 8
  %17 = load ptr, ptr %Rhs.addr.i, align 8
  %18 = load i64, ptr %Length.addr.i, align 8
  %call.i72 = call i32 @memcmp(ptr noundef %16, ptr noundef %17, i64 noundef %18) #12
  store i32 %call.i72, ptr %retval.i70, align 4
  br label %_ZN4llvh9StringRef13compareMemoryEPKcS2_m.exit

_ZN4llvh9StringRef13compareMemoryEPKcS2_m.exit:   ; preds = %if.end.i, %if.then.i
  %19 = load i32, ptr %retval.i70, align 4
  %cmp5.i = icmp eq i32 %19, 0
  br label %_ZNK4llvh9StringRef10startswithES0_.exit

_ZNK4llvh9StringRef10startswithES0_.exit:         ; preds = %_ZN4llvh9StringRef13compareMemoryEPKcS2_m.exit, %_ZN4llvh9StringRefC2EPKc.exit
  %20 = phi i1 [ false, %_ZN4llvh9StringRefC2EPKc.exit ], [ %cmp5.i, %_ZN4llvh9StringRef13compareMemoryEPKcS2_m.exit ]
  br i1 %20, label %if.end, label %if.then

if.then:                                          ; preds = %_ZNK4llvh9StringRef10startswithES0_.exit
  store i1 false, ptr %retval, align 1
  br label %return

if.end:                                           ; preds = %_ZNK4llvh9StringRef10startswithES0_.exit
  store ptr %ref.tmp2, ptr %this.addr.i46, align 8
  store ptr @.str.16, ptr %Str.addr.i47, align 8
  %this1.i48 = load ptr, ptr %this.addr.i46, align 8
  %21 = load ptr, ptr %Str.addr.i47, align 8
  store ptr %21, ptr %this1.i48, align 8
  %Length.i49 = getelementptr inbounds %"class.llvh::StringRef", ptr %this1.i48, i32 0, i32 1
  %22 = load ptr, ptr %Str.addr.i47, align 8
  %tobool.i50 = icmp ne ptr %22, null
  br i1 %tobool.i50, label %cond.true.i53, label %cond.false.i51

cond.true.i53:                                    ; preds = %if.end
  %23 = load ptr, ptr %Str.addr.i47, align 8
  %call.i54 = call i64 @strlen(ptr noundef %23) #12
  br label %_ZN4llvh9StringRefC2EPKc.exit55

cond.false.i51:                                   ; preds = %if.end
  br label %_ZN4llvh9StringRefC2EPKc.exit55

_ZN4llvh9StringRefC2EPKc.exit55:                  ; preds = %cond.false.i51, %cond.true.i53
  %cond.i52 = phi i64 [ %call.i54, %cond.true.i53 ], [ 0, %cond.false.i51 ]
  store i64 %cond.i52, ptr %Length.i49, align 8
  store ptr %ref.tmp2, ptr %this.addr.i39, align 8
  %this1.i40 = load ptr, ptr %this.addr.i39, align 8
  %Length.i41 = getelementptr inbounds %"class.llvh::StringRef", ptr %this1.i40, i32 0, i32 1
  %24 = load i64, ptr %Length.i41, align 8
  store ptr %Expr, ptr %this.addr.i28, align 8
  store i64 %24, ptr %Start.addr.i29, align 8
  store i64 -1, ptr %N.addr.i30, align 8
  %this1.i32 = load ptr, ptr %this.addr.i28, align 8
  %Length.i33 = getelementptr inbounds %"class.llvh::StringRef", ptr %this1.i32, i32 0, i32 1
  %call.i34 = call noundef nonnull align 8 dereferenceable(8) ptr @_ZSt3minImERKT_S2_S2_(ptr noundef nonnull align 8 dereferenceable(8) %Start.addr.i29, ptr noundef nonnull align 8 dereferenceable(8) %Length.i33)
  %25 = load i64, ptr %call.i34, align 8
  store i64 %25, ptr %Start.addr.i29, align 8
  %26 = load ptr, ptr %this1.i32, align 8
  %27 = load i64, ptr %Start.addr.i29, align 8
  %add.ptr.i35 = getelementptr inbounds i8, ptr %26, i64 %27
  %Length2.i36 = getelementptr inbounds %"class.llvh::StringRef", ptr %this1.i32, i32 0, i32 1
  %28 = load i64, ptr %Length2.i36, align 8
  %29 = load i64, ptr %Start.addr.i29, align 8
  %sub.i37 = sub i64 %28, %29
  store i64 %sub.i37, ptr %ref.tmp.i31, align 8
  %call3.i38 = call noundef nonnull align 8 dereferenceable(8) ptr @_ZSt3minImERKT_S2_S2_(ptr noundef nonnull align 8 dereferenceable(8) %N.addr.i30, ptr noundef nonnull align 8 dereferenceable(8) %ref.tmp.i31)
  %30 = load i64, ptr %call3.i38, align 8
  store ptr %retval.i27, ptr %this.addr.i62, align 8
  store ptr %add.ptr.i35, ptr %data.addr.i, align 8
  store i64 %30, ptr %length.addr.i, align 8
  %this1.i63 = load ptr, ptr %this.addr.i62, align 8
  %31 = load ptr, ptr %data.addr.i, align 8
  store ptr %31, ptr %this1.i63, align 8
  %Length.i64 = getelementptr inbounds %"class.llvh::StringRef", ptr %this1.i63, i32 0, i32 1
  %32 = load i64, ptr %length.addr.i, align 8
  store i64 %32, ptr %Length.i64, align 8
  %33 = load { ptr, i64 }, ptr %retval.i27, align 8
  %34 = getelementptr inbounds { ptr, i64 }, ptr %ref.tmp, i32 0, i32 0
  %35 = extractvalue { ptr, i64 } %33, 0
  store ptr %35, ptr %34, align 8
  %36 = getelementptr inbounds { ptr, i64 }, ptr %ref.tmp, i32 0, i32 1
  %37 = extractvalue { ptr, i64 } %33, 1
  store i64 %37, ptr %36, align 8
  call void @llvm.memcpy.p0.p0.i64(ptr align 8 %Expr, ptr align 8 %ref.tmp, i64 16, i1 false)
  store i32 0, ptr %Offset, align 4
  store ptr %Expr, ptr %this.addr.i, align 8
  %this1.i = load ptr, ptr %this.addr.i, align 8
  %Length.i = getelementptr inbounds %"class.llvh::StringRef", ptr %this1.i, i32 0, i32 1
  %38 = load i64, ptr %Length.i, align 8
  %cmp.i = icmp eq i64 %38, 0
  br i1 %cmp.i, label %if.end20, label %if.then6

if.then6:                                         ; preds = %_ZN4llvh9StringRefC2EPKc.exit55
  %call7 = call noundef signext i8 @_ZNK4llvh9StringRefixEm(ptr noundef nonnull align 8 dereferenceable(16) %Expr, i64 noundef 0)
  %conv = sext i8 %call7 to i32
  %cmp = icmp eq i32 %conv, 43
  br i1 %cmp, label %if.then8, label %if.else

if.then8:                                         ; preds = %if.then6
  store ptr %Expr, ptr %this.addr.i24, align 8
  store i64 1, ptr %Start.addr.i, align 8
  store i64 -1, ptr %N.addr.i, align 8
  %this1.i25 = load ptr, ptr %this.addr.i24, align 8
  %Length.i26 = getelementptr inbounds %"class.llvh::StringRef", ptr %this1.i25, i32 0, i32 1
  %call.i = call noundef nonnull align 8 dereferenceable(8) ptr @_ZSt3minImERKT_S2_S2_(ptr noundef nonnull align 8 dereferenceable(8) %Start.addr.i, ptr noundef nonnull align 8 dereferenceable(8) %Length.i26)
  %39 = load i64, ptr %call.i, align 8
  store i64 %39, ptr %Start.addr.i, align 8
  %40 = load ptr, ptr %this1.i25, align 8
  %41 = load i64, ptr %Start.addr.i, align 8
  %add.ptr.i = getelementptr inbounds i8, ptr %40, i64 %41
  %Length2.i = getelementptr inbounds %"class.llvh::StringRef", ptr %this1.i25, i32 0, i32 1
  %42 = load i64, ptr %Length2.i, align 8
  %43 = load i64, ptr %Start.addr.i, align 8
  %sub.i = sub i64 %42, %43
  store i64 %sub.i, ptr %ref.tmp.i, align 8
  %call3.i = call noundef nonnull align 8 dereferenceable(8) ptr @_ZSt3minImERKT_S2_S2_(ptr noundef nonnull align 8 dereferenceable(8) %N.addr.i, ptr noundef nonnull align 8 dereferenceable(8) %ref.tmp.i)
  %44 = load i64, ptr %call3.i, align 8
  store ptr %retval.i, ptr %this.addr.i65, align 8
  store ptr %add.ptr.i, ptr %data.addr.i66, align 8
  store i64 %44, ptr %length.addr.i67, align 8
  %this1.i68 = load ptr, ptr %this.addr.i65, align 8
  %45 = load ptr, ptr %data.addr.i66, align 8
  store ptr %45, ptr %this1.i68, align 8
  %Length.i69 = getelementptr inbounds %"class.llvh::StringRef", ptr %this1.i68, i32 0, i32 1
  %46 = load i64, ptr %length.addr.i67, align 8
  store i64 %46, ptr %Length.i69, align 8
  %47 = load { ptr, i64 }, ptr %retval.i, align 8
  %48 = getelementptr inbounds { ptr, i64 }, ptr %ref.tmp9, i32 0, i32 0
  %49 = extractvalue { ptr, i64 } %47, 0
  store ptr %49, ptr %48, align 8
  %50 = getelementptr inbounds { ptr, i64 }, ptr %ref.tmp9, i32 0, i32 1
  %51 = extractvalue { ptr, i64 } %47, 1
  store i64 %51, ptr %50, align 8
  call void @llvm.memcpy.p0.p0.i64(ptr align 8 %Expr, ptr align 8 %ref.tmp9, i64 16, i1 false)
  br label %if.end16

if.else:                                          ; preds = %if.then6
  %call11 = call noundef signext i8 @_ZNK4llvh9StringRefixEm(ptr noundef nonnull align 8 dereferenceable(16) %Expr, i64 noundef 0)
  %conv12 = sext i8 %call11 to i32
  %cmp13 = icmp ne i32 %conv12, 45
  br i1 %cmp13, label %if.then14, label %if.end15

if.then14:                                        ; preds = %if.else
  store i1 false, ptr %retval, align 1
  br label %return

if.end15:                                         ; preds = %if.else
  br label %if.end16

if.end16:                                         ; preds = %if.end15, %if.then8
  %call17 = call noundef zeroext i1 @_ZNK4llvh9StringRef12getAsIntegerIiEENSt9enable_ifIXsr3std14numeric_limitsIT_EE9is_signedEbE4typeEjRS3_(ptr noundef nonnull align 8 dereferenceable(16) %Expr, i32 noundef 10, ptr noundef nonnull align 4 dereferenceable(4) %Offset)
  br i1 %call17, label %if.then18, label %if.end19

if.then18:                                        ; preds = %if.end16
  store i1 false, ptr %retval, align 1
  br label %return

if.end19:                                         ; preds = %if.end16
  br label %if.end20

if.end20:                                         ; preds = %if.end19, %_ZN4llvh9StringRefC2EPKc.exit55
  %LineNumber = getelementptr inbounds %"class.llvh::FileCheckPattern", ptr %this1, i32 0, i32 6
  %52 = load i32, ptr %LineNumber, align 4
  %53 = load i32, ptr %Offset, align 4
  %add = add i32 %52, %53
  %conv22 = zext i32 %add to i64
  call void @_ZN4llvh6itostrB5cxx11El(ptr sret(%"class.std::__cxx11::basic_string") align 8 %ref.tmp21, i64 noundef %conv22)
  %54 = load ptr, ptr %Value.addr, align 8
  %call23 = call noundef nonnull align 8 dereferenceable(32) ptr @_ZNSt7__cxx1112basic_stringIcSt11char_traitsIcESaIcEEaSEOS4_(ptr noundef nonnull align 8 dereferenceable(32) %54, ptr noundef nonnull align 8 dereferenceable(32) %ref.tmp21) #13
  call void @_ZNSt7__cxx1112basic_stringIcSt11char_traitsIcESaIcEED1Ev(ptr noundef nonnull align 8 dereferenceable(32) %ref.tmp21) #13
  store i1 true, ptr %retval, align 1
  br label %return

return:                                           ; preds = %if.end20, %if.then18, %if.then14, %if.then
  %55 = load i1, ptr %retval, align 1
  ret i1 %55
}

; Function Attrs: mustprogress nounwind uwtable
define linkonce_odr hidden noundef zeroext i1 @_ZNK4llvh9StringRef12getAsIntegerIiEENSt9enable_ifIXsr3std14numeric_limitsIT_EE9is_signedEbE4typeEjRS3_(ptr noundef nonnull align 8 dereferenceable(16) %this, i32 noundef %Radix, ptr noundef nonnull align 4 dereferenceable(4) %Result) #0 comdat align 2 {
entry:
  %retval = alloca i1, align 1
  %this.addr = alloca ptr, align 8
  %Radix.addr = alloca i32, align 4
  %Result.addr = alloca ptr, align 8
  %LLVal = alloca i64, align 8
  %agg.tmp = alloca %"class.llvh::StringRef", align 8
  store ptr %this, ptr %this.addr, align 8
  store i32 %Radix, ptr %Radix.addr, align 4
  store ptr %Result, ptr %Result.addr, align 8
  %this1 = load ptr, ptr %this.addr, align 8
  call void @llvm.memcpy.p0.p0.i64(ptr align 8 %agg.tmp, ptr align 8 %this1, i64 16, i1 false)
  %0 = load i32, ptr %Radix.addr, align 4
  %1 = getelementptr inbounds { ptr, i64 }, ptr %agg.tmp, i32 0, i32 0
  %2 = load ptr, ptr %1, align 8
  %3 = getelementptr inbounds { ptr, i64 }, ptr %agg.tmp, i32 0, i32 1
  %4 = load i64, ptr %3, align 8
  %call = call noundef zeroext i1 @_ZN4llvh18getAsSignedIntegerENS_9StringRefEjRx(ptr %2, i64 %4, i32 noundef %0, ptr noundef nonnull align 8 dereferenceable(8) %LLVal)
  br i1 %call, label %if.then, label %lor.lhs.false

lor.lhs.false:                                    ; preds = %entry
  %5 = load i64, ptr %LLVal, align 8
  %conv = trunc i64 %5 to i32
  %conv2 = sext i32 %conv to i64
  %6 = load i64, ptr %LLVal, align 8
  %cmp = icmp ne i64 %conv2, %6
  br i1 %cmp, label %if.then, label %if.end

if.then:                                          ; preds = %lor.lhs.false, %entry
  store i1 true, ptr %retval, align 1
  br label %return

if.end:                                           ; preds = %lor.lhs.false
  %7 = load i64, ptr %LLVal, align 8
  %conv3 = trunc i64 %7 to i32
  %8 = load ptr, ptr %Result.addr, align 8
  store i32 %conv3, ptr %8, align 4
  store i1 false, ptr %retval, align 1
  br label %return

return:                                           ; preds = %if.end, %if.then
  %9 = load i1, ptr %retval, align 1
  ret i1 %9
}

; Function Attrs: mustprogress nounwind uwtable
define linkonce_odr hidden void @_ZN4llvh6itostrB5cxx11El(ptr noalias sret(%"class.std::__cxx11::basic_string") align 8 %agg.result, i64 noundef %X) #0 comdat {
entry:
  %result.ptr = alloca ptr, align 8
  %X.addr = alloca i64, align 8
  store ptr %agg.result, ptr %result.ptr, align 8
  store i64 %X, ptr %X.addr, align 8
  %0 = load i64, ptr %X.addr, align 8
  %cmp = icmp slt i64 %0, 0
  br i1 %cmp, label %if.then, label %if.else

if.then:                                          ; preds = %entry
  %1 = load i64, ptr %X.addr, align 8
  %sub = sub nsw i64 0, %1
  call void @_ZN4llvh6utostrB5cxx11Emb(ptr sret(%"class.std::__cxx11::basic_string") align 8 %agg.result, i64 noundef %sub, i1 noundef zeroext true)
  br label %return

if.else:                                          ; preds = %entry
  %2 = load i64, ptr %X.addr, align 8
  call void @_ZN4llvh6utostrB5cxx11Emb(ptr sret(%"class.std::__cxx11::basic_string") align 8 %agg.result, i64 noundef %2, i1 noundef zeroext false)
  br label %return

return:                                           ; preds = %if.else, %if.then
  ret void
}

; Function Attrs: nounwind
declare noundef nonnull align 8 dereferenceable(32) ptr @_ZNSt7__cxx1112basic_stringIcSt11char_traitsIcESaIcEEaSEOS4_(ptr noundef nonnull align 8 dereferenceable(32), ptr noundef nonnull align 8 dereferenceable(32)) #4

; Function Attrs: mustprogress nounwind uwtable
define hidden noundef i64 @_ZNK4llvh16FileCheckPattern5MatchENS_9StringRefERmRNS_9StringMapIS1_NS_15MallocAllocatorEEE(ptr noundef nonnull align 8 dereferenceable(136) %this, ptr %Buffer.coerce0, i64 %Buffer.coerce1, ptr noundef nonnull align 8 dereferenceable(8) %MatchLen, ptr noundef nonnull align 8 dereferenceable(25) %VariableTable) #0 align 2 {
entry:
  %this.addr.i138 = alloca ptr, align 8
  %this.addr.i136 = alloca ptr, align 8
  %this.addr.i131 = alloca ptr, align 8
  %idx.addr.i132 = alloca i64, align 8
  %this.addr.i128 = alloca ptr, align 8
  %idx.addr.i = alloca i64, align 8
  %this.addr.i122 = alloca ptr, align 8
  %Str.addr.i123 = alloca ptr, align 8
  %this.addr.i119 = alloca ptr, align 8
  %Str.addr.i = alloca ptr, align 8
  %this.addr.i116 = alloca ptr, align 8
  %this.addr.i113 = alloca ptr, align 8
  %this.addr.i110 = alloca ptr, align 8
  %this.addr.i108 = alloca ptr, align 8
  %this.addr.i106 = alloca ptr, align 8
  %this.addr.i = alloca ptr, align 8
  %retval = alloca i64, align 8
  %Buffer = alloca %"class.llvh::StringRef", align 8
  %this.addr = alloca ptr, align 8
  %MatchLen.addr = alloca ptr, align 8
  %VariableTable.addr = alloca ptr, align 8
  %agg.tmp = alloca %"class.llvh::StringRef", align 8
  %RegExToMatch = alloca %"class.llvh::StringRef", align 8
  %TmpStr = alloca %"class.std::__cxx11::basic_string", align 8
  %InsertOffset = alloca i32, align 4
  %__range2 = alloca ptr, align 8
  %__begin2 = alloca %"class.__gnu_cxx::__normal_iterator", align 8
  %__end2 = alloca %"class.__gnu_cxx::__normal_iterator", align 8
  %VariableUse = alloca ptr, align 8
  %Value = alloca %"class.std::__cxx11::basic_string", align 8
  %agg.tmp22 = alloca %"class.llvh::StringRef", align 8
  %cleanup.dest.slot = alloca i32, align 4
  %it = alloca %"class.llvh::StringMapIterator", align 8
  %agg.tmp27 = alloca %"class.llvh::StringRef", align 8
  %ref.tmp = alloca %"class.llvh::StringMapIterator", align 8
  %ref.tmp38 = alloca %"class.std::__cxx11::basic_string", align 8
  %agg.tmp39 = alloca %"class.llvh::StringRef", align 8
  %agg.tmp43 = alloca %"class.__gnu_cxx::__normal_iterator.28", align 8
  %ref.tmp44 = alloca %"class.__gnu_cxx::__normal_iterator.27", align 8
  %ref.tmp45 = alloca %"class.__gnu_cxx::__normal_iterator.27", align 8
  %ref.tmp46 = alloca %"class.__gnu_cxx::__normal_iterator.27", align 8
  %agg.tmp56 = alloca %"class.__gnu_cxx::__normal_iterator.27", align 8
  %agg.tmp59 = alloca %"class.__gnu_cxx::__normal_iterator.27", align 8
  %coerce = alloca %"class.__gnu_cxx::__normal_iterator.27", align 8
  %ref.tmp71 = alloca %"class.llvh::StringRef", align 8
  %MatchInfo = alloca %"class.llvh::SmallVector", align 8
  %ref.tmp73 = alloca %"class.llvh::Regex", align 8
  %agg.tmp74 = alloca %"class.llvh::StringRef", align 8
  %agg.tmp75 = alloca %"class.llvh::StringRef", align 8
  %FullMatch = alloca %"class.llvh::StringRef", align 8
  %__range1 = alloca ptr, align 8
  %__begin1 = alloca %"struct.std::_Rb_tree_const_iterator", align 8
  %__end1 = alloca %"struct.std::_Rb_tree_const_iterator", align 8
  %VariableDef = alloca ptr, align 8
  %agg.tmp91 = alloca %"class.llvh::StringRef", align 8
  %MatchStartSkip = alloca i64, align 8
  %0 = getelementptr inbounds { ptr, i64 }, ptr %Buffer, i32 0, i32 0
  store ptr %Buffer.coerce0, ptr %0, align 8
  %1 = getelementptr inbounds { ptr, i64 }, ptr %Buffer, i32 0, i32 1
  store i64 %Buffer.coerce1, ptr %1, align 8
  store ptr %this, ptr %this.addr, align 8
  store ptr %MatchLen, ptr %MatchLen.addr, align 8
  store ptr %VariableTable, ptr %VariableTable.addr, align 8
  %this1 = load ptr, ptr %this.addr, align 8
  %CheckTy = getelementptr inbounds %"class.llvh::FileCheckPattern", ptr %this1, i32 0, i32 5
  %2 = load i32, ptr %CheckTy, align 8
  %cmp = icmp eq i32 %2, 8
  br i1 %cmp, label %if.then, label %if.end

if.then:                                          ; preds = %entry
  %3 = load ptr, ptr %MatchLen.addr, align 8
  store i64 0, ptr %3, align 8
  store ptr %Buffer, ptr %this.addr.i116, align 8
  %this1.i117 = load ptr, ptr %this.addr.i116, align 8
  %Length.i118 = getelementptr inbounds %"class.llvh::StringRef", ptr %this1.i117, i32 0, i32 1
  %4 = load i64, ptr %Length.i118, align 8
  store i64 %4, ptr %retval, align 8
  br label %return

if.end:                                           ; preds = %entry
  %FixedStr = getelementptr inbounds %"class.llvh::FileCheckPattern", ptr %this1, i32 0, i32 1
  store ptr %FixedStr, ptr %this.addr.i108, align 8
  %this1.i109 = load ptr, ptr %this.addr.i108, align 8
  %Length.i = getelementptr inbounds %"class.llvh::StringRef", ptr %this1.i109, i32 0, i32 1
  %5 = load i64, ptr %Length.i, align 8
  %cmp.i = icmp eq i64 %5, 0
  br i1 %cmp.i, label %if.end8, label %if.then3

if.then3:                                         ; preds = %if.end
  %FixedStr4 = getelementptr inbounds %"class.llvh::FileCheckPattern", ptr %this1, i32 0, i32 1
  store ptr %FixedStr4, ptr %this.addr.i113, align 8
  %this1.i114 = load ptr, ptr %this.addr.i113, align 8
  %Length.i115 = getelementptr inbounds %"class.llvh::StringRef", ptr %this1.i114, i32 0, i32 1
  %6 = load i64, ptr %Length.i115, align 8
  %7 = load ptr, ptr %MatchLen.addr, align 8
  store i64 %6, ptr %7, align 8
  %FixedStr6 = getelementptr inbounds %"class.llvh::FileCheckPattern", ptr %this1, i32 0, i32 1
  call void @llvm.memcpy.p0.p0.i64(ptr align 8 %agg.tmp, ptr align 8 %FixedStr6, i64 16, i1 false)
  %8 = getelementptr inbounds { ptr, i64 }, ptr %agg.tmp, i32 0, i32 0
  %9 = load ptr, ptr %8, align 8
  %10 = getelementptr inbounds { ptr, i64 }, ptr %agg.tmp, i32 0, i32 1
  %11 = load i64, ptr %10, align 8
  %call7 = call noundef i64 @_ZNK4llvh9StringRef4findES0_m(ptr noundef nonnull align 8 dereferenceable(16) %Buffer, ptr %9, i64 %11, i64 noundef 0)
  store i64 %call7, ptr %retval, align 8
  br label %return

if.end8:                                          ; preds = %if.end
  %RegExStr = getelementptr inbounds %"class.llvh::FileCheckPattern", ptr %this1, i32 0, i32 2
  store ptr %RegExToMatch, ptr %this.addr.i119, align 8
  store ptr %RegExStr, ptr %Str.addr.i, align 8
  %this1.i120 = load ptr, ptr %this.addr.i119, align 8
  %12 = load ptr, ptr %Str.addr.i, align 8
  %call.i = call noundef ptr @_ZNKSt7__cxx1112basic_stringIcSt11char_traitsIcESaIcEE4dataEv(ptr noundef nonnull align 8 dereferenceable(32) %12) #13
  store ptr %call.i, ptr %this1.i120, align 8
  %Length.i121 = getelementptr inbounds %"class.llvh::StringRef", ptr %this1.i120, i32 0, i32 1
  %13 = load ptr, ptr %Str.addr.i, align 8
  %call2.i = call noundef i64 @_ZNKSt7__cxx1112basic_stringIcSt11char_traitsIcESaIcEE6lengthEv(ptr noundef nonnull align 8 dereferenceable(32) %13) #13
  store i64 %call2.i, ptr %Length.i121, align 8
  call void @_ZNSt7__cxx1112basic_stringIcSt11char_traitsIcESaIcEEC1Ev(ptr noundef nonnull align 8 dereferenceable(32) %TmpStr) #13
  %VariableUses = getelementptr inbounds %"class.llvh::FileCheckPattern", ptr %this1, i32 0, i32 3
  %call9 = call noundef zeroext i1 @_ZNKSt6vectorISt4pairIN4llvh9StringRefEjESaIS3_EE5emptyEv(ptr noundef nonnull align 8 dereferenceable(24) %VariableUses) #13
  br i1 %call9, label %if.end72, label %if.then10

if.then10:                                        ; preds = %if.end8
  %RegExStr11 = getelementptr inbounds %"class.llvh::FileCheckPattern", ptr %this1, i32 0, i32 2
  %call12 = call noundef nonnull align 8 dereferenceable(32) ptr @_ZNSt7__cxx1112basic_stringIcSt11char_traitsIcESaIcEEaSERKS4_(ptr noundef nonnull align 8 dereferenceable(32) %TmpStr, ptr noundef nonnull align 8 dereferenceable(32) %RegExStr11)
  store i32 0, ptr %InsertOffset, align 4
  %VariableUses13 = getelementptr inbounds %"class.llvh::FileCheckPattern", ptr %this1, i32 0, i32 3
  store ptr %VariableUses13, ptr %__range2, align 8
  %14 = load ptr, ptr %__range2, align 8
  %call14 = call ptr @_ZNKSt6vectorISt4pairIN4llvh9StringRefEjESaIS3_EE5beginEv(ptr noundef nonnull align 8 dereferenceable(24) %14) #13
  %coerce.dive = getelementptr inbounds %"class.__gnu_cxx::__normal_iterator", ptr %__begin2, i32 0, i32 0
  store ptr %call14, ptr %coerce.dive, align 8
  %15 = load ptr, ptr %__range2, align 8
  %call15 = call ptr @_ZNKSt6vectorISt4pairIN4llvh9StringRefEjESaIS3_EE3endEv(ptr noundef nonnull align 8 dereferenceable(24) %15) #13
  %coerce.dive16 = getelementptr inbounds %"class.__gnu_cxx::__normal_iterator", ptr %__end2, i32 0, i32 0
  store ptr %call15, ptr %coerce.dive16, align 8
  br label %for.cond

for.cond:                                         ; preds = %for.inc, %if.then10
  %call17 = call noundef zeroext i1 @_ZN9__gnu_cxxneIPKSt4pairIN4llvh9StringRefEjESt6vectorIS4_SaIS4_EEEEbRKNS_17__normal_iteratorIT_T0_EESF_(ptr noundef nonnull align 8 dereferenceable(8) %__begin2, ptr noundef nonnull align 8 dereferenceable(8) %__end2) #13
  br i1 %call17, label %for.body, label %for.end

for.body:                                         ; preds = %for.cond
  %call18 = call noundef nonnull align 8 dereferenceable(20) ptr @_ZNK9__gnu_cxx17__normal_iteratorIPKSt4pairIN4llvh9StringRefEjESt6vectorIS4_SaIS4_EEEdeEv(ptr noundef nonnull align 8 dereferenceable(8) %__begin2) #13
  store ptr %call18, ptr %VariableUse, align 8
  call void @_ZNSt7__cxx1112basic_stringIcSt11char_traitsIcESaIcEEC1Ev(ptr noundef nonnull align 8 dereferenceable(32) %Value) #13
  %16 = load ptr, ptr %VariableUse, align 8
  %first = getelementptr inbounds %"struct.std::pair", ptr %16, i32 0, i32 0
  %call19 = call noundef signext i8 @_ZNK4llvh9StringRefixEm(ptr noundef nonnull align 8 dereferenceable(16) %first, i64 noundef 0)
  %conv = sext i8 %call19 to i32
  %cmp20 = icmp eq i32 %conv, 64
  br i1 %cmp20, label %if.then21, label %if.else

if.then21:                                        ; preds = %for.body
  %17 = load ptr, ptr %VariableUse, align 8
  %first23 = getelementptr inbounds %"struct.std::pair", ptr %17, i32 0, i32 0
  call void @llvm.memcpy.p0.p0.i64(ptr align 8 %agg.tmp22, ptr align 8 %first23, i64 16, i1 false)
  %18 = getelementptr inbounds { ptr, i64 }, ptr %agg.tmp22, i32 0, i32 0
  %19 = load ptr, ptr %18, align 8
  %20 = getelementptr inbounds { ptr, i64 }, ptr %agg.tmp22, i32 0, i32 1
  %21 = load i64, ptr %20, align 8
  %call24 = call noundef zeroext i1 @_ZNK4llvh16FileCheckPattern18EvaluateExpressionENS_9StringRefERNSt7__cxx1112basic_stringIcSt11char_traitsIcESaIcEEE(ptr noundef nonnull align 8 dereferenceable(136) %this1, ptr %19, i64 %21, ptr noundef nonnull align 8 dereferenceable(32) %Value)
  br i1 %call24, label %if.end26, label %if.then25

if.then25:                                        ; preds = %if.then21
  store i64 -1, ptr %retval, align 8
  store i32 1, ptr %cleanup.dest.slot, align 4
  br label %cleanup

if.end26:                                         ; preds = %if.then21
  br label %if.end42

if.else:                                          ; preds = %for.body
  %22 = load ptr, ptr %VariableTable.addr, align 8
  %23 = load ptr, ptr %VariableUse, align 8
  %first28 = getelementptr inbounds %"struct.std::pair", ptr %23, i32 0, i32 0
  call void @llvm.memcpy.p0.p0.i64(ptr align 8 %agg.tmp27, ptr align 8 %first28, i64 16, i1 false)
  %24 = getelementptr inbounds { ptr, i64 }, ptr %agg.tmp27, i32 0, i32 0
  %25 = load ptr, ptr %24, align 8
  %26 = getelementptr inbounds { ptr, i64 }, ptr %agg.tmp27, i32 0, i32 1
  %27 = load i64, ptr %26, align 8
  %call29 = call ptr @_ZN4llvh9StringMapINS_9StringRefENS_15MallocAllocatorEE4findES1_(ptr noundef nonnull align 8 dereferenceable(25) %22, ptr %25, i64 %27)
  %coerce.dive30 = getelementptr inbounds %"class.llvh::StringMapIterator", ptr %it, i32 0, i32 0
  %coerce.dive31 = getelementptr inbounds %"class.llvh::StringMapIterBase", ptr %coerce.dive30, i32 0, i32 0
  store ptr %call29, ptr %coerce.dive31, align 8
  %28 = load ptr, ptr %VariableTable.addr, align 8
  %call32 = call ptr @_ZN4llvh9StringMapINS_9StringRefENS_15MallocAllocatorEE3endEv(ptr noundef nonnull align 8 dereferenceable(25) %28)
  %coerce.dive33 = getelementptr inbounds %"class.llvh::StringMapIterator", ptr %ref.tmp, i32 0, i32 0
  %coerce.dive34 = getelementptr inbounds %"class.llvh::StringMapIterBase", ptr %coerce.dive33, i32 0, i32 0
  store ptr %call32, ptr %coerce.dive34, align 8
  %call35 = call noundef zeroext i1 @_ZNK4llvh17StringMapIterBaseINS_17StringMapIteratorINS_9StringRefEEENS_14StringMapEntryIS2_EEEeqERKS3_(ptr noundef nonnull align 8 dereferenceable(8) %it, ptr noundef nonnull align 8 dereferenceable(8) %ref.tmp)
  br i1 %call35, label %if.then36, label %if.end37

if.then36:                                        ; preds = %if.else
  store i64 -1, ptr %retval, align 8
  store i32 1, ptr %cleanup.dest.slot, align 4
  br label %cleanup

if.end37:                                         ; preds = %if.else
  %call40 = call noundef ptr @_ZN4llvh20iterator_facade_baseINS_17StringMapIteratorINS_9StringRefEEESt20forward_iterator_tagNS_14StringMapEntryIS2_EElPS6_RS6_EptEv(ptr noundef nonnull align 1 dereferenceable(1) %it)
  %second = getelementptr inbounds %"class.llvh::StringMapEntry", ptr %call40, i32 0, i32 1
  call void @llvm.memcpy.p0.p0.i64(ptr align 8 %agg.tmp39, ptr align 8 %second, i64 16, i1 false)
  %29 = getelementptr inbounds { ptr, i64 }, ptr %agg.tmp39, i32 0, i32 0
  %30 = load ptr, ptr %29, align 8
  %31 = getelementptr inbounds { ptr, i64 }, ptr %agg.tmp39, i32 0, i32 1
  %32 = load i64, ptr %31, align 8
  call void @_ZN4llvh5Regex6escapeB5cxx11ENS_9StringRefE(ptr sret(%"class.std::__cxx11::basic_string") align 8 %ref.tmp38, ptr %30, i64 %32)
  %call41 = call noundef nonnull align 8 dereferenceable(32) ptr @_ZNSt7__cxx1112basic_stringIcSt11char_traitsIcESaIcEEpLERKS4_(ptr noundef nonnull align 8 dereferenceable(32) %Value, ptr noundef nonnull align 8 dereferenceable(32) %ref.tmp38)
  call void @_ZNSt7__cxx1112basic_stringIcSt11char_traitsIcESaIcEED1Ev(ptr noundef nonnull align 8 dereferenceable(32) %ref.tmp38) #13
  br label %if.end42

if.end42:                                         ; preds = %if.end37, %if.end26
  %call47 = call ptr @_ZNSt7__cxx1112basic_stringIcSt11char_traitsIcESaIcEE5beginEv(ptr noundef nonnull align 8 dereferenceable(32) %TmpStr) #13
  %coerce.dive48 = getelementptr inbounds %"class.__gnu_cxx::__normal_iterator.27", ptr %ref.tmp46, i32 0, i32 0
  store ptr %call47, ptr %coerce.dive48, align 8
  %33 = load ptr, ptr %VariableUse, align 8
  %second49 = getelementptr inbounds %"struct.std::pair", ptr %33, i32 0, i32 1
  %34 = load i32, ptr %second49, align 8
  %conv50 = zext i32 %34 to i64
  %call51 = call ptr @_ZNK9__gnu_cxx17__normal_iteratorIPcNSt7__cxx1112basic_stringIcSt11char_traitsIcESaIcEEEEplEl(ptr noundef nonnull align 8 dereferenceable(8) %ref.tmp46, i64 noundef %conv50) #13
  %coerce.dive52 = getelementptr inbounds %"class.__gnu_cxx::__normal_iterator.27", ptr %ref.tmp45, i32 0, i32 0
  store ptr %call51, ptr %coerce.dive52, align 8
  %35 = load i32, ptr %InsertOffset, align 4
  %conv53 = zext i32 %35 to i64
  %call54 = call ptr @_ZNK9__gnu_cxx17__normal_iteratorIPcNSt7__cxx1112basic_stringIcSt11char_traitsIcESaIcEEEEplEl(ptr noundef nonnull align 8 dereferenceable(8) %ref.tmp45, i64 noundef %conv53) #13
  %coerce.dive55 = getelementptr inbounds %"class.__gnu_cxx::__normal_iterator.27", ptr %ref.tmp44, i32 0, i32 0
  store ptr %call54, ptr %coerce.dive55, align 8
  call void @_ZN9__gnu_cxx17__normal_iteratorIPKcNSt7__cxx1112basic_stringIcSt11char_traitsIcESaIcEEEEC2IPcvEERKNS0_IT_S8_EE(ptr noundef nonnull align 8 dereferenceable(8) %agg.tmp43, ptr noundef nonnull align 8 dereferenceable(8) %ref.tmp44) #13
  %call57 = call ptr @_ZNSt7__cxx1112basic_stringIcSt11char_traitsIcESaIcEE5beginEv(ptr noundef nonnull align 8 dereferenceable(32) %Value) #13
  %coerce.dive58 = getelementptr inbounds %"class.__gnu_cxx::__normal_iterator.27", ptr %agg.tmp56, i32 0, i32 0
  store ptr %call57, ptr %coerce.dive58, align 8
  %call60 = call ptr @_ZNSt7__cxx1112basic_stringIcSt11char_traitsIcESaIcEE3endEv(ptr noundef nonnull align 8 dereferenceable(32) %Value) #13
  %coerce.dive61 = getelementptr inbounds %"class.__gnu_cxx::__normal_iterator.27", ptr %agg.tmp59, i32 0, i32 0
  store ptr %call60, ptr %coerce.dive61, align 8
  %coerce.dive62 = getelementptr inbounds %"class.__gnu_cxx::__normal_iterator.28", ptr %agg.tmp43, i32 0, i32 0
  %36 = load ptr, ptr %coerce.dive62, align 8
  %coerce.dive63 = getelementptr inbounds %"class.__gnu_cxx::__normal_iterator.27", ptr %agg.tmp56, i32 0, i32 0
  %37 = load ptr, ptr %coerce.dive63, align 8
  %coerce.dive64 = getelementptr inbounds %"class.__gnu_cxx::__normal_iterator.27", ptr %agg.tmp59, i32 0, i32 0
  %38 = load ptr, ptr %coerce.dive64, align 8
  %call65 = call ptr @_ZNSt7__cxx1112basic_stringIcSt11char_traitsIcESaIcEE6insertIN9__gnu_cxx17__normal_iteratorIPcS4_EEvEES9_NS7_IPKcS4_EET_SD_(ptr noundef nonnull align 8 dereferenceable(32) %TmpStr, ptr %36, ptr %37, ptr %38)
  %coerce.dive66 = getelementptr inbounds %"class.__gnu_cxx::__normal_iterator.27", ptr %coerce, i32 0, i32 0
  store ptr %call65, ptr %coerce.dive66, align 8
  %call67 = call noundef i64 @_ZNKSt7__cxx1112basic_stringIcSt11char_traitsIcESaIcEE4sizeEv(ptr noundef nonnull align 8 dereferenceable(32) %Value) #13
  %39 = load i32, ptr %InsertOffset, align 4
  %conv68 = zext i32 %39 to i64
  %add = add i64 %conv68, %call67
  %conv69 = trunc i64 %add to i32
  store i32 %conv69, ptr %InsertOffset, align 4
  store i32 0, ptr %cleanup.dest.slot, align 4
  br label %cleanup

cleanup:                                          ; preds = %if.end42, %if.then36, %if.then25
  call void @_ZNSt7__cxx1112basic_stringIcSt11char_traitsIcESaIcEED1Ev(ptr noundef nonnull align 8 dereferenceable(32) %Value) #13
  %cleanup.dest = load i32, ptr %cleanup.dest.slot, align 4
  switch i32 %cleanup.dest, label %cleanup105 [
    i32 0, label %cleanup.cont
  ]

cleanup.cont:                                     ; preds = %cleanup
  br label %for.inc

for.inc:                                          ; preds = %cleanup.cont
  %call70 = call noundef nonnull align 8 dereferenceable(8) ptr @_ZN9__gnu_cxx17__normal_iteratorIPKSt4pairIN4llvh9StringRefEjESt6vectorIS4_SaIS4_EEEppEv(ptr noundef nonnull align 8 dereferenceable(8) %__begin2) #13
  br label %for.cond

for.end:                                          ; preds = %for.cond
  store ptr %ref.tmp71, ptr %this.addr.i122, align 8
  store ptr %TmpStr, ptr %Str.addr.i123, align 8
  %this1.i124 = load ptr, ptr %this.addr.i122, align 8
  %40 = load ptr, ptr %Str.addr.i123, align 8
  %call.i125 = call noundef ptr @_ZNKSt7__cxx1112basic_stringIcSt11char_traitsIcESaIcEE4dataEv(ptr noundef nonnull align 8 dereferenceable(32) %40) #13
  store ptr %call.i125, ptr %this1.i124, align 8
  %Length.i126 = getelementptr inbounds %"class.llvh::StringRef", ptr %this1.i124, i32 0, i32 1
  %41 = load ptr, ptr %Str.addr.i123, align 8
  %call2.i127 = call noundef i64 @_ZNKSt7__cxx1112basic_stringIcSt11char_traitsIcESaIcEE6lengthEv(ptr noundef nonnull align 8 dereferenceable(32) %41) #13
  store i64 %call2.i127, ptr %Length.i126, align 8
  call void @llvm.memcpy.p0.p0.i64(ptr align 8 %RegExToMatch, ptr align 8 %ref.tmp71, i64 16, i1 false)
  br label %if.end72

if.end72:                                         ; preds = %for.end, %if.end8
  call void @_ZN4llvh11SmallVectorINS_9StringRefELj4EEC2Ev(ptr noundef nonnull align 8 dereferenceable(80) %MatchInfo)
  call void @llvm.memcpy.p0.p0.i64(ptr align 8 %agg.tmp74, ptr align 8 %RegExToMatch, i64 16, i1 false)
  %42 = getelementptr inbounds { ptr, i64 }, ptr %agg.tmp74, i32 0, i32 0
  %43 = load ptr, ptr %42, align 8
  %44 = getelementptr inbounds { ptr, i64 }, ptr %agg.tmp74, i32 0, i32 1
  %45 = load i64, ptr %44, align 8
  call void @_ZN4llvh5RegexC1ENS_9StringRefEj(ptr noundef nonnull align 8 dereferenceable(12) %ref.tmp73, ptr %43, i64 %45, i32 noundef 2)
  call void @llvm.memcpy.p0.p0.i64(ptr align 8 %agg.tmp75, ptr align 8 %Buffer, i64 16, i1 false)
  %46 = getelementptr inbounds { ptr, i64 }, ptr %agg.tmp75, i32 0, i32 0
  %47 = load ptr, ptr %46, align 8
  %48 = getelementptr inbounds { ptr, i64 }, ptr %agg.tmp75, i32 0, i32 1
  %49 = load i64, ptr %48, align 8
  %call76 = call noundef zeroext i1 @_ZN4llvh5Regex5matchENS_9StringRefEPNS_15SmallVectorImplIS1_EE(ptr noundef nonnull align 8 dereferenceable(12) %ref.tmp73, ptr %47, i64 %49, ptr noundef %MatchInfo)
  %lnot = xor i1 %call76, true
  call void @_ZN4llvh5RegexD1Ev(ptr noundef nonnull align 8 dereferenceable(12) %ref.tmp73) #13
  br i1 %lnot, label %if.then77, label %if.end78

if.then77:                                        ; preds = %if.end72
  store i64 -1, ptr %retval, align 8
  store i32 1, ptr %cleanup.dest.slot, align 4
  br label %cleanup104

if.end78:                                         ; preds = %if.end72
  store ptr %MatchInfo, ptr %this.addr.i131, align 8
  store i64 0, ptr %idx.addr.i132, align 8
  %this1.i133 = load ptr, ptr %this.addr.i131, align 8
  store ptr %this1.i133, ptr %this.addr.i136, align 8
  %this1.i137 = load ptr, ptr %this.addr.i136, align 8
  %50 = load ptr, ptr %this1.i137, align 8
  %51 = load i64, ptr %idx.addr.i132, align 8
  %arrayidx.i135 = getelementptr inbounds %"class.llvh::StringRef", ptr %50, i64 %51
  call void @llvm.memcpy.p0.p0.i64(ptr align 8 %FullMatch, ptr align 8 %arrayidx.i135, i64 16, i1 false)
  %VariableDefs = getelementptr inbounds %"class.llvh::FileCheckPattern", ptr %this1, i32 0, i32 4
  store ptr %VariableDefs, ptr %__range1, align 8
  %52 = load ptr, ptr %__range1, align 8
  %call80 = call ptr @_ZNKSt3mapIN4llvh9StringRefEjSt4lessIS1_ESaISt4pairIKS1_jEEE5beginEv(ptr noundef nonnull align 8 dereferenceable(48) %52) #13
  %coerce.dive81 = getelementptr inbounds %"struct.std::_Rb_tree_const_iterator", ptr %__begin1, i32 0, i32 0
  store ptr %call80, ptr %coerce.dive81, align 8
  %53 = load ptr, ptr %__range1, align 8
  %call82 = call ptr @_ZNKSt3mapIN4llvh9StringRefEjSt4lessIS1_ESaISt4pairIKS1_jEEE3endEv(ptr noundef nonnull align 8 dereferenceable(48) %53) #13
  %coerce.dive83 = getelementptr inbounds %"struct.std::_Rb_tree_const_iterator", ptr %__end1, i32 0, i32 0
  store ptr %call82, ptr %coerce.dive83, align 8
  br label %for.cond84

for.cond84:                                       ; preds = %for.inc94, %if.end78
  %call85 = call noundef zeroext i1 @_ZStneRKSt23_Rb_tree_const_iteratorISt4pairIKN4llvh9StringRefEjEES7_(ptr noundef nonnull align 8 dereferenceable(8) %__begin1, ptr noundef nonnull align 8 dereferenceable(8) %__end1) #13
  br i1 %call85, label %for.body86, label %for.end96

for.body86:                                       ; preds = %for.cond84
  %call87 = call noundef nonnull align 8 dereferenceable(20) ptr @_ZNKSt23_Rb_tree_const_iteratorISt4pairIKN4llvh9StringRefEjEEdeEv(ptr noundef nonnull align 8 dereferenceable(8) %__begin1) #13
  store ptr %call87, ptr %VariableDef, align 8
  %54 = load ptr, ptr %VariableDef, align 8
  %second88 = getelementptr inbounds %"struct.std::pair.29", ptr %54, i32 0, i32 1
  %55 = load i32, ptr %second88, align 8
  %conv89 = zext i32 %55 to i64
  store ptr %MatchInfo, ptr %this.addr.i128, align 8
  store i64 %conv89, ptr %idx.addr.i, align 8
  %this1.i129 = load ptr, ptr %this.addr.i128, align 8
  store ptr %this1.i129, ptr %this.addr.i138, align 8
  %this1.i139 = load ptr, ptr %this.addr.i138, align 8
  %56 = load ptr, ptr %this1.i139, align 8
  %57 = load i64, ptr %idx.addr.i, align 8
  %arrayidx.i = getelementptr inbounds %"class.llvh::StringRef", ptr %56, i64 %57
  %58 = load ptr, ptr %VariableTable.addr, align 8
  %59 = load ptr, ptr %VariableDef, align 8
  %first92 = getelementptr inbounds %"struct.std::pair.29", ptr %59, i32 0, i32 0
  call void @llvm.memcpy.p0.p0.i64(ptr align 8 %agg.tmp91, ptr align 8 %first92, i64 16, i1 false)
  %60 = getelementptr inbounds { ptr, i64 }, ptr %agg.tmp91, i32 0, i32 0
  %61 = load ptr, ptr %60, align 8
  %62 = getelementptr inbounds { ptr, i64 }, ptr %agg.tmp91, i32 0, i32 1
  %63 = load i64, ptr %62, align 8
  %call93 = call noundef nonnull align 8 dereferenceable(16) ptr @_ZN4llvh9StringMapINS_9StringRefENS_15MallocAllocatorEEixES1_(ptr noundef nonnull align 8 dereferenceable(25) %58, ptr %61, i64 %63)
  call void @llvm.memcpy.p0.p0.i64(ptr align 8 %call93, ptr align 8 %arrayidx.i, i64 16, i1 false)
  br label %for.inc94

for.inc94:                                        ; preds = %for.body86
  %call95 = call noundef nonnull align 8 dereferenceable(8) ptr @_ZNSt23_Rb_tree_const_iteratorISt4pairIKN4llvh9StringRefEjEEppEv(ptr noundef nonnull align 8 dereferenceable(8) %__begin1) #13
  br label %for.cond84

for.end96:                                        ; preds = %for.cond84
  %CheckTy97 = getelementptr inbounds %"class.llvh::FileCheckPattern", ptr %this1, i32 0, i32 5
  %64 = load i32, ptr %CheckTy97, align 8
  %cmp98 = icmp eq i32 %64, 7
  %conv99 = zext i1 %cmp98 to i64
  store i64 %conv99, ptr %MatchStartSkip, align 8
  store ptr %FullMatch, ptr %this.addr.i110, align 8
  %this1.i111 = load ptr, ptr %this.addr.i110, align 8
  %Length.i112 = getelementptr inbounds %"class.llvh::StringRef", ptr %this1.i111, i32 0, i32 1
  %65 = load i64, ptr %Length.i112, align 8
  %66 = load i64, ptr %MatchStartSkip, align 8
  %sub = sub i64 %65, %66
  %67 = load ptr, ptr %MatchLen.addr, align 8
  store i64 %sub, ptr %67, align 8
  store ptr %FullMatch, ptr %this.addr.i106, align 8
  %this1.i107 = load ptr, ptr %this.addr.i106, align 8
  %68 = load ptr, ptr %this1.i107, align 8
  store ptr %Buffer, ptr %this.addr.i, align 8
  %this1.i = load ptr, ptr %this.addr.i, align 8
  %69 = load ptr, ptr %this1.i, align 8
  %sub.ptr.lhs.cast = ptrtoint ptr %68 to i64
  %sub.ptr.rhs.cast = ptrtoint ptr %69 to i64
  %sub.ptr.sub = sub i64 %sub.ptr.lhs.cast, %sub.ptr.rhs.cast
  %70 = load i64, ptr %MatchStartSkip, align 8
  %add103 = add i64 %sub.ptr.sub, %70
  store i64 %add103, ptr %retval, align 8
  store i32 1, ptr %cleanup.dest.slot, align 4
  br label %cleanup104

cleanup104:                                       ; preds = %for.end96, %if.then77
  call void @_ZN4llvh11SmallVectorINS_9StringRefELj4EED2Ev(ptr noundef nonnull align 8 dereferenceable(80) %MatchInfo) #13
  br label %cleanup105

cleanup105:                                       ; preds = %cleanup104, %cleanup
  call void @_ZNSt7__cxx1112basic_stringIcSt11char_traitsIcESaIcEED1Ev(ptr noundef nonnull align 8 dereferenceable(32) %TmpStr) #13
  br label %return

return:                                           ; preds = %cleanup105, %if.then3, %if.then
  %71 = load i64, ptr %retval, align 8
  ret i64 %71
}

; Function Attrs: mustprogress nounwind uwtable
define linkonce_odr hidden noundef zeroext i1 @_ZNKSt6vectorISt4pairIN4llvh9StringRefEjESaIS3_EE5emptyEv(ptr noundef nonnull align 8 dereferenceable(24) %this) #0 comdat align 2 {
entry:
  %this.addr = alloca ptr, align 8
  %ref.tmp = alloca %"class.__gnu_cxx::__normal_iterator", align 8
  %ref.tmp2 = alloca %"class.__gnu_cxx::__normal_iterator", align 8
  store ptr %this, ptr %this.addr, align 8
  %this1 = load ptr, ptr %this.addr, align 8
  %call = call ptr @_ZNKSt6vectorISt4pairIN4llvh9StringRefEjESaIS3_EE5beginEv(ptr noundef nonnull align 8 dereferenceable(24) %this1) #13
  %coerce.dive = getelementptr inbounds %"class.__gnu_cxx::__normal_iterator", ptr %ref.tmp, i32 0, i32 0
  store ptr %call, ptr %coerce.dive, align 8
  %call3 = call ptr @_ZNKSt6vectorISt4pairIN4llvh9StringRefEjESaIS3_EE3endEv(ptr noundef nonnull align 8 dereferenceable(24) %this1) #13
  %coerce.dive4 = getelementptr inbounds %"class.__gnu_cxx::__normal_iterator", ptr %ref.tmp2, i32 0, i32 0
  store ptr %call3, ptr %coerce.dive4, align 8
  %call5 = call noundef zeroext i1 @_ZN9__gnu_cxxeqIPKSt4pairIN4llvh9StringRefEjESt6vectorIS4_SaIS4_EEEEbRKNS_17__normal_iteratorIT_T0_EESF_(ptr noundef nonnull align 8 dereferenceable(8) %ref.tmp, ptr noundef nonnull align 8 dereferenceable(8) %ref.tmp2) #13
  ret i1 %call5
}

declare noundef nonnull align 8 dereferenceable(32) ptr @_ZNSt7__cxx1112basic_stringIcSt11char_traitsIcESaIcEEaSERKS4_(ptr noundef nonnull align 8 dereferenceable(32), ptr noundef nonnull align 8 dereferenceable(32)) #2

; Function Attrs: mustprogress nounwind uwtable
define linkonce_odr hidden ptr @_ZNKSt6vectorISt4pairIN4llvh9StringRefEjESaIS3_EE5beginEv(ptr noundef nonnull align 8 dereferenceable(24) %this) #0 comdat align 2 {
entry:
  %retval = alloca %"class.__gnu_cxx::__normal_iterator", align 8
  %this.addr = alloca ptr, align 8
  store ptr %this, ptr %this.addr, align 8
  %this1 = load ptr, ptr %this.addr, align 8
  %_M_impl = getelementptr inbounds %"struct.std::_Vector_base.4", ptr %this1, i32 0, i32 0
  %_M_start = getelementptr inbounds %"struct.std::_Vector_base<std::pair<llvh::StringRef, unsigned int>, std::allocator<std::pair<llvh::StringRef, unsigned int>>>::_Vector_impl_data", ptr %_M_impl, i32 0, i32 0
  call void @_ZN9__gnu_cxx17__normal_iteratorIPKSt4pairIN4llvh9StringRefEjESt6vectorIS4_SaIS4_EEEC2ERKS6_(ptr noundef nonnull align 8 dereferenceable(8) %retval, ptr noundef nonnull align 8 dereferenceable(8) %_M_start) #13
  %coerce.dive = getelementptr inbounds %"class.__gnu_cxx::__normal_iterator", ptr %retval, i32 0, i32 0
  %0 = load ptr, ptr %coerce.dive, align 8
  ret ptr %0
}

; Function Attrs: mustprogress nounwind uwtable
define linkonce_odr hidden ptr @_ZNKSt6vectorISt4pairIN4llvh9StringRefEjESaIS3_EE3endEv(ptr noundef nonnull align 8 dereferenceable(24) %this) #0 comdat align 2 {
entry:
  %retval = alloca %"class.__gnu_cxx::__normal_iterator", align 8
  %this.addr = alloca ptr, align 8
  store ptr %this, ptr %this.addr, align 8
  %this1 = load ptr, ptr %this.addr, align 8
  %_M_impl = getelementptr inbounds %"struct.std::_Vector_base.4", ptr %this1, i32 0, i32 0
  %_M_finish = getelementptr inbounds %"struct.std::_Vector_base<std::pair<llvh::StringRef, unsigned int>, std::allocator<std::pair<llvh::StringRef, unsigned int>>>::_Vector_impl_data", ptr %_M_impl, i32 0, i32 1
  call void @_ZN9__gnu_cxx17__normal_iteratorIPKSt4pairIN4llvh9StringRefEjESt6vectorIS4_SaIS4_EEEC2ERKS6_(ptr noundef nonnull align 8 dereferenceable(8) %retval, ptr noundef nonnull align 8 dereferenceable(8) %_M_finish) #13
  %coerce.dive = getelementptr inbounds %"class.__gnu_cxx::__normal_iterator", ptr %retval, i32 0, i32 0
  %0 = load ptr, ptr %coerce.dive, align 8
  ret ptr %0
}

; Function Attrs: mustprogress nounwind uwtable
define linkonce_odr hidden noundef zeroext i1 @_ZN9__gnu_cxxneIPKSt4pairIN4llvh9StringRefEjESt6vectorIS4_SaIS4_EEEEbRKNS_17__normal_iteratorIT_T0_EESF_(ptr noundef nonnull align 8 dereferenceable(8) %__lhs, ptr noundef nonnull align 8 dereferenceable(8) %__rhs) #0 comdat {
entry:
  %__lhs.addr = alloca ptr, align 8
  %__rhs.addr = alloca ptr, align 8
  store ptr %__lhs, ptr %__lhs.addr, align 8
  store ptr %__rhs, ptr %__rhs.addr, align 8
  %0 = load ptr, ptr %__lhs.addr, align 8
  %call = call noundef nonnull align 8 dereferenceable(8) ptr @_ZNK9__gnu_cxx17__normal_iteratorIPKSt4pairIN4llvh9StringRefEjESt6vectorIS4_SaIS4_EEE4baseEv(ptr noundef nonnull align 8 dereferenceable(8) %0) #13
  %1 = load ptr, ptr %call, align 8
  %2 = load ptr, ptr %__rhs.addr, align 8
  %call1 = call noundef nonnull align 8 dereferenceable(8) ptr @_ZNK9__gnu_cxx17__normal_iteratorIPKSt4pairIN4llvh9StringRefEjESt6vectorIS4_SaIS4_EEE4baseEv(ptr noundef nonnull align 8 dereferenceable(8) %2) #13
  %3 = load ptr, ptr %call1, align 8
  %cmp = icmp ne ptr %1, %3
  ret i1 %cmp
}

; Function Attrs: mustprogress nounwind uwtable
define linkonce_odr hidden noundef nonnull align 8 dereferenceable(20) ptr @_ZNK9__gnu_cxx17__normal_iteratorIPKSt4pairIN4llvh9StringRefEjESt6vectorIS4_SaIS4_EEEdeEv(ptr noundef nonnull align 8 dereferenceable(8) %this) #0 comdat align 2 {
entry:
  %this.addr = alloca ptr, align 8
  store ptr %this, ptr %this.addr, align 8
  %this1 = load ptr, ptr %this.addr, align 8
  %_M_current = getelementptr inbounds %"class.__gnu_cxx::__normal_iterator", ptr %this1, i32 0, i32 0
  %0 = load ptr, ptr %_M_current, align 8
  ret ptr %0
}

; Function Attrs: mustprogress nounwind uwtable
define linkonce_odr hidden ptr @_ZN4llvh9StringMapINS_9StringRefENS_15MallocAllocatorEE4findES1_(ptr noundef nonnull align 8 dereferenceable(25) %this, ptr %Key.coerce0, i64 %Key.coerce1) #0 comdat align 2 {
entry:
  %retval = alloca %"class.llvh::StringMapIterator", align 8
  %Key = alloca %"class.llvh::StringRef", align 8
  %this.addr = alloca ptr, align 8
  %Bucket = alloca i32, align 4
  %agg.tmp = alloca %"class.llvh::StringRef", align 8
  %0 = getelementptr inbounds { ptr, i64 }, ptr %Key, i32 0, i32 0
  store ptr %Key.coerce0, ptr %0, align 8
  %1 = getelementptr inbounds { ptr, i64 }, ptr %Key, i32 0, i32 1
  store i64 %Key.coerce1, ptr %1, align 8
  store ptr %this, ptr %this.addr, align 8
  %this1 = load ptr, ptr %this.addr, align 8
  call void @llvm.memcpy.p0.p0.i64(ptr align 8 %agg.tmp, ptr align 8 %Key, i64 16, i1 false)
  %2 = getelementptr inbounds { ptr, i64 }, ptr %agg.tmp, i32 0, i32 0
  %3 = load ptr, ptr %2, align 8
  %4 = getelementptr inbounds { ptr, i64 }, ptr %agg.tmp, i32 0, i32 1
  %5 = load i64, ptr %4, align 8
  %call = call noundef i32 @_ZNK4llvh13StringMapImpl7FindKeyENS_9StringRefE(ptr noundef nonnull align 8 dereferenceable(24) %this1, ptr %3, i64 %5)
  store i32 %call, ptr %Bucket, align 4
  %6 = load i32, ptr %Bucket, align 4
  %cmp = icmp eq i32 %6, -1
  br i1 %cmp, label %if.then, label %if.end

if.then:                                          ; preds = %entry
  %call2 = call ptr @_ZN4llvh9StringMapINS_9StringRefENS_15MallocAllocatorEE3endEv(ptr noundef nonnull align 8 dereferenceable(25) %this1)
  %coerce.dive = getelementptr inbounds %"class.llvh::StringMapIterator", ptr %retval, i32 0, i32 0
  %coerce.dive3 = getelementptr inbounds %"class.llvh::StringMapIterBase", ptr %coerce.dive, i32 0, i32 0
  store ptr %call2, ptr %coerce.dive3, align 8
  br label %return

if.end:                                           ; preds = %entry
  %TheTable = getelementptr inbounds %"class.llvh::StringMapImpl", ptr %this1, i32 0, i32 0
  %7 = load ptr, ptr %TheTable, align 8
  %8 = load i32, ptr %Bucket, align 4
  %idx.ext = sext i32 %8 to i64
  %add.ptr = getelementptr inbounds ptr, ptr %7, i64 %idx.ext
  call void @_ZN4llvh17StringMapIteratorINS_9StringRefEEC2EPPNS_18StringMapEntryBaseEb(ptr noundef nonnull align 8 dereferenceable(8) %retval, ptr noundef %add.ptr, i1 noundef zeroext true)
  br label %return

return:                                           ; preds = %if.end, %if.then
  %coerce.dive4 = getelementptr inbounds %"class.llvh::StringMapIterator", ptr %retval, i32 0, i32 0
  %coerce.dive5 = getelementptr inbounds %"class.llvh::StringMapIterBase", ptr %coerce.dive4, i32 0, i32 0
  %9 = load ptr, ptr %coerce.dive5, align 8
  ret ptr %9
}

; Function Attrs: mustprogress nounwind uwtable
define linkonce_odr hidden noundef zeroext i1 @_ZNK4llvh17StringMapIterBaseINS_17StringMapIteratorINS_9StringRefEEENS_14StringMapEntryIS2_EEEeqERKS3_(ptr noundef nonnull align 8 dereferenceable(8) %this, ptr noundef nonnull align 8 dereferenceable(8) %RHS) #0 comdat align 2 {
entry:
  %this.addr = alloca ptr, align 8
  %RHS.addr = alloca ptr, align 8
  store ptr %this, ptr %this.addr, align 8
  store ptr %RHS, ptr %RHS.addr, align 8
  %this1 = load ptr, ptr %this.addr, align 8
  %Ptr = getelementptr inbounds %"class.llvh::StringMapIterBase", ptr %this1, i32 0, i32 0
  %0 = load ptr, ptr %Ptr, align 8
  %1 = load ptr, ptr %RHS.addr, align 8
  %Ptr2 = getelementptr inbounds %"class.llvh::StringMapIterBase", ptr %1, i32 0, i32 0
  %2 = load ptr, ptr %Ptr2, align 8
  %cmp = icmp eq ptr %0, %2
  ret i1 %cmp
}

; Function Attrs: mustprogress nounwind uwtable
define linkonce_odr hidden ptr @_ZN4llvh9StringMapINS_9StringRefENS_15MallocAllocatorEE3endEv(ptr noundef nonnull align 8 dereferenceable(25) %this) #0 comdat align 2 {
entry:
  %retval = alloca %"class.llvh::StringMapIterator", align 8
  %this.addr = alloca ptr, align 8
  store ptr %this, ptr %this.addr, align 8
  %this1 = load ptr, ptr %this.addr, align 8
  %TheTable = getelementptr inbounds %"class.llvh::StringMapImpl", ptr %this1, i32 0, i32 0
  %0 = load ptr, ptr %TheTable, align 8
  %NumBuckets = getelementptr inbounds %"class.llvh::StringMapImpl", ptr %this1, i32 0, i32 1
  %1 = load i32, ptr %NumBuckets, align 8
  %idx.ext = zext i32 %1 to i64
  %add.ptr = getelementptr inbounds ptr, ptr %0, i64 %idx.ext
  call void @_ZN4llvh17StringMapIteratorINS_9StringRefEEC2EPPNS_18StringMapEntryBaseEb(ptr noundef nonnull align 8 dereferenceable(8) %retval, ptr noundef %add.ptr, i1 noundef zeroext true)
  %coerce.dive = getelementptr inbounds %"class.llvh::StringMapIterator", ptr %retval, i32 0, i32 0
  %coerce.dive2 = getelementptr inbounds %"class.llvh::StringMapIterBase", ptr %coerce.dive, i32 0, i32 0
  %2 = load ptr, ptr %coerce.dive2, align 8
  ret ptr %2
}

; Function Attrs: mustprogress nounwind uwtable
define linkonce_odr hidden noundef ptr @_ZN4llvh20iterator_facade_baseINS_17StringMapIteratorINS_9StringRefEEESt20forward_iterator_tagNS_14StringMapEntryIS2_EElPS6_RS6_EptEv(ptr noundef nonnull align 1 dereferenceable(1) %this) #0 comdat align 2 {
entry:
  %this.addr = alloca ptr, align 8
  store ptr %this, ptr %this.addr, align 8
  %this1 = load ptr, ptr %this.addr, align 8
  %call = call noundef nonnull align 8 dereferenceable(24) ptr @_ZNK4llvh17StringMapIteratorINS_9StringRefEEdeEv(ptr noundef nonnull align 8 dereferenceable(8) %this1)
  ret ptr %call
}

; Function Attrs: mustprogress nounwind uwtable
define linkonce_odr ptr @_ZNSt7__cxx1112basic_stringIcSt11char_traitsIcESaIcEE6insertIN9__gnu_cxx17__normal_iteratorIPcS4_EEvEES9_NS7_IPKcS4_EET_SD_(ptr noundef nonnull align 8 dereferenceable(32) %this, ptr %__p.coerce, ptr %__beg.coerce, ptr %__end.coerce) #0 comdat align 2 {
entry:
  %retval = alloca %"class.__gnu_cxx::__normal_iterator.27", align 8
  %__p = alloca %"class.__gnu_cxx::__normal_iterator.28", align 8
  %__beg = alloca %"class.__gnu_cxx::__normal_iterator.27", align 8
  %__end = alloca %"class.__gnu_cxx::__normal_iterator.27", align 8
  %this.addr = alloca ptr, align 8
  %__pos = alloca i64, align 8
  %ref.tmp = alloca %"class.__gnu_cxx::__normal_iterator.27", align 8
  %agg.tmp = alloca %"class.__gnu_cxx::__normal_iterator.28", align 8
  %agg.tmp6 = alloca %"class.__gnu_cxx::__normal_iterator.28", align 8
  %agg.tmp7 = alloca %"class.__gnu_cxx::__normal_iterator.27", align 8
  %agg.tmp8 = alloca %"class.__gnu_cxx::__normal_iterator.27", align 8
  %ref.tmp14 = alloca ptr, align 8
  %coerce.dive = getelementptr inbounds %"class.__gnu_cxx::__normal_iterator.28", ptr %__p, i32 0, i32 0
  store ptr %__p.coerce, ptr %coerce.dive, align 8
  %coerce.dive1 = getelementptr inbounds %"class.__gnu_cxx::__normal_iterator.27", ptr %__beg, i32 0, i32 0
  store ptr %__beg.coerce, ptr %coerce.dive1, align 8
  %coerce.dive2 = getelementptr inbounds %"class.__gnu_cxx::__normal_iterator.27", ptr %__end, i32 0, i32 0
  store ptr %__end.coerce, ptr %coerce.dive2, align 8
  store ptr %this, ptr %this.addr, align 8
  %this3 = load ptr, ptr %this.addr, align 8
  %call = call ptr @_ZNSt7__cxx1112basic_stringIcSt11char_traitsIcESaIcEE5beginEv(ptr noundef nonnull align 8 dereferenceable(32) %this3) #13
  %coerce.dive4 = getelementptr inbounds %"class.__gnu_cxx::__normal_iterator.27", ptr %ref.tmp, i32 0, i32 0
  store ptr %call, ptr %coerce.dive4, align 8
  %call5 = call noundef i64 @_ZN9__gnu_cxxmiIPKcPcNSt7__cxx1112basic_stringIcSt11char_traitsIcESaIcEEEEEDTmicldtfp_4baseEcldtfp0_4baseEERKNS_17__normal_iteratorIT_T1_EERKNSB_IT0_SD_EE(ptr noundef nonnull align 8 dereferenceable(8) %__p, ptr noundef nonnull align 8 dereferenceable(8) %ref.tmp) #13
  store i64 %call5, ptr %__pos, align 8
  call void @llvm.memcpy.p0.p0.i64(ptr align 8 %agg.tmp, ptr align 8 %__p, i64 8, i1 false)
  call void @llvm.memcpy.p0.p0.i64(ptr align 8 %agg.tmp6, ptr align 8 %__p, i64 8, i1 false)
  call void @llvm.memcpy.p0.p0.i64(ptr align 8 %agg.tmp7, ptr align 8 %__beg, i64 8, i1 false)
  call void @llvm.memcpy.p0.p0.i64(ptr align 8 %agg.tmp8, ptr align 8 %__end, i64 8, i1 false)
  %coerce.dive9 = getelementptr inbounds %"class.__gnu_cxx::__normal_iterator.28", ptr %agg.tmp, i32 0, i32 0
  %0 = load ptr, ptr %coerce.dive9, align 8
  %coerce.dive10 = getelementptr inbounds %"class.__gnu_cxx::__normal_iterator.28", ptr %agg.tmp6, i32 0, i32 0
  %1 = load ptr, ptr %coerce.dive10, align 8
  %coerce.dive11 = getelementptr inbounds %"class.__gnu_cxx::__normal_iterator.27", ptr %agg.tmp7, i32 0, i32 0
  %2 = load ptr, ptr %coerce.dive11, align 8
  %coerce.dive12 = getelementptr inbounds %"class.__gnu_cxx::__normal_iterator.27", ptr %agg.tmp8, i32 0, i32 0
  %3 = load ptr, ptr %coerce.dive12, align 8
  %call13 = call noundef nonnull align 8 dereferenceable(32) ptr @_ZNSt7__cxx1112basic_stringIcSt11char_traitsIcESaIcEE7replaceEN9__gnu_cxx17__normal_iteratorIPKcS4_EES9_NS6_IPcS4_EESB_(ptr noundef nonnull align 8 dereferenceable(32) %this3, ptr %0, ptr %1, ptr %2, ptr %3)
  %call15 = call noundef ptr @_ZNKSt7__cxx1112basic_stringIcSt11char_traitsIcESaIcEE7_M_dataEv(ptr noundef nonnull align 8 dereferenceable(32) %this3)
  %4 = load i64, ptr %__pos, align 8
  %add.ptr = getelementptr inbounds i8, ptr %call15, i64 %4
  store ptr %add.ptr, ptr %ref.tmp14, align 8
  call void @_ZN9__gnu_cxx17__normal_iteratorIPcNSt7__cxx1112basic_stringIcSt11char_traitsIcESaIcEEEEC2ERKS1_(ptr noundef nonnull align 8 dereferenceable(8) %retval, ptr noundef nonnull align 8 dereferenceable(8) %ref.tmp14) #13
  %coerce.dive16 = getelementptr inbounds %"class.__gnu_cxx::__normal_iterator.27", ptr %retval, i32 0, i32 0
  %5 = load ptr, ptr %coerce.dive16, align 8
  ret ptr %5
}

; Function Attrs: nounwind
declare ptr @_ZNSt7__cxx1112basic_stringIcSt11char_traitsIcESaIcEE5beginEv(ptr noundef nonnull align 8 dereferenceable(32)) #4

; Function Attrs: mustprogress nounwind uwtable
define linkonce_odr ptr @_ZNK9__gnu_cxx17__normal_iteratorIPcNSt7__cxx1112basic_stringIcSt11char_traitsIcESaIcEEEEplEl(ptr noundef nonnull align 8 dereferenceable(8) %this, i64 noundef %__n) #0 comdat align 2 {
entry:
  %retval = alloca %"class.__gnu_cxx::__normal_iterator.27", align 8
  %this.addr = alloca ptr, align 8
  %__n.addr = alloca i64, align 8
  %ref.tmp = alloca ptr, align 8
  store ptr %this, ptr %this.addr, align 8
  store i64 %__n, ptr %__n.addr, align 8
  %this1 = load ptr, ptr %this.addr, align 8
  %_M_current = getelementptr inbounds %"class.__gnu_cxx::__normal_iterator.27", ptr %this1, i32 0, i32 0
  %0 = load ptr, ptr %_M_current, align 8
  %1 = load i64, ptr %__n.addr, align 8
  %add.ptr = getelementptr inbounds i8, ptr %0, i64 %1
  store ptr %add.ptr, ptr %ref.tmp, align 8
  call void @_ZN9__gnu_cxx17__normal_iteratorIPcNSt7__cxx1112basic_stringIcSt11char_traitsIcESaIcEEEEC2ERKS1_(ptr noundef nonnull align 8 dereferenceable(8) %retval, ptr noundef nonnull align 8 dereferenceable(8) %ref.tmp) #13
  %coerce.dive = getelementptr inbounds %"class.__gnu_cxx::__normal_iterator.27", ptr %retval, i32 0, i32 0
  %2 = load ptr, ptr %coerce.dive, align 8
  ret ptr %2
}

; Function Attrs: mustprogress nounwind uwtable
define linkonce_odr void @_ZN9__gnu_cxx17__normal_iteratorIPKcNSt7__cxx1112basic_stringIcSt11char_traitsIcESaIcEEEEC2IPcvEERKNS0_IT_S8_EE(ptr noundef nonnull align 8 dereferenceable(8) %this, ptr noundef nonnull align 8 dereferenceable(8) %__i) unnamed_addr #0 comdat align 2 {
entry:
  %this.addr = alloca ptr, align 8
  %__i.addr = alloca ptr, align 8
  store ptr %this, ptr %this.addr, align 8
  store ptr %__i, ptr %__i.addr, align 8
  %this1 = load ptr, ptr %this.addr, align 8
  %_M_current = getelementptr inbounds %"class.__gnu_cxx::__normal_iterator.28", ptr %this1, i32 0, i32 0
  %0 = load ptr, ptr %__i.addr, align 8
  %call = call noundef nonnull align 8 dereferenceable(8) ptr @_ZNK9__gnu_cxx17__normal_iteratorIPcNSt7__cxx1112basic_stringIcSt11char_traitsIcESaIcEEEE4baseEv(ptr noundef nonnull align 8 dereferenceable(8) %0) #13
  %1 = load ptr, ptr %call, align 8
  store ptr %1, ptr %_M_current, align 8
  ret void
}

; Function Attrs: nounwind
declare ptr @_ZNSt7__cxx1112basic_stringIcSt11char_traitsIcESaIcEE3endEv(ptr noundef nonnull align 8 dereferenceable(32)) #4

; Function Attrs: mustprogress nounwind uwtable
define linkonce_odr hidden noundef nonnull align 8 dereferenceable(8) ptr @_ZN9__gnu_cxx17__normal_iteratorIPKSt4pairIN4llvh9StringRefEjESt6vectorIS4_SaIS4_EEEppEv(ptr noundef nonnull align 8 dereferenceable(8) %this) #0 comdat align 2 {
entry:
  %this.addr = alloca ptr, align 8
  store ptr %this, ptr %this.addr, align 8
  %this1 = load ptr, ptr %this.addr, align 8
  %_M_current = getelementptr inbounds %"class.__gnu_cxx::__normal_iterator", ptr %this1, i32 0, i32 0
  %0 = load ptr, ptr %_M_current, align 8
  %incdec.ptr = getelementptr inbounds %"struct.std::pair", ptr %0, i32 1
  store ptr %incdec.ptr, ptr %_M_current, align 8
  ret ptr %this1
}

; Function Attrs: mustprogress nounwind uwtable
define linkonce_odr hidden void @_ZN4llvh11SmallVectorINS_9StringRefELj4EEC2Ev(ptr noundef nonnull align 8 dereferenceable(80) %this) unnamed_addr #0 comdat align 2 {
entry:
  %this.addr = alloca ptr, align 8
  store ptr %this, ptr %this.addr, align 8
  %this1 = load ptr, ptr %this.addr, align 8
  call void @_ZN4llvh15SmallVectorImplINS_9StringRefEEC2Ej(ptr noundef nonnull align 8 dereferenceable(16) %this1, i32 noundef 4)
  ret void
}

declare noundef zeroext i1 @_ZN4llvh5Regex5matchENS_9StringRefEPNS_15SmallVectorImplIS1_EE(ptr noundef nonnull align 8 dereferenceable(12), ptr, i64, ptr noundef) #2

; Function Attrs: mustprogress nounwind uwtable
define linkonce_odr hidden ptr @_ZNKSt3mapIN4llvh9StringRefEjSt4lessIS1_ESaISt4pairIKS1_jEEE5beginEv(ptr noundef nonnull align 8 dereferenceable(48) %this) #0 comdat align 2 {
entry:
  %retval = alloca %"struct.std::_Rb_tree_const_iterator", align 8
  %this.addr = alloca ptr, align 8
  store ptr %this, ptr %this.addr, align 8
  %this1 = load ptr, ptr %this.addr, align 8
  %_M_t = getelementptr inbounds %"class.std::map", ptr %this1, i32 0, i32 0
  %call = call ptr @_ZNKSt8_Rb_treeIN4llvh9StringRefESt4pairIKS1_jESt10_Select1stIS4_ESt4lessIS1_ESaIS4_EE5beginEv(ptr noundef nonnull align 8 dereferenceable(48) %_M_t) #13
  %coerce.dive = getelementptr inbounds %"struct.std::_Rb_tree_const_iterator", ptr %retval, i32 0, i32 0
  store ptr %call, ptr %coerce.dive, align 8
  %coerce.dive2 = getelementptr inbounds %"struct.std::_Rb_tree_const_iterator", ptr %retval, i32 0, i32 0
  %0 = load ptr, ptr %coerce.dive2, align 8
  ret ptr %0
}

; Function Attrs: mustprogress nounwind uwtable
define linkonce_odr hidden ptr @_ZNKSt3mapIN4llvh9StringRefEjSt4lessIS1_ESaISt4pairIKS1_jEEE3endEv(ptr noundef nonnull align 8 dereferenceable(48) %this) #0 comdat align 2 {
entry:
  %retval = alloca %"struct.std::_Rb_tree_const_iterator", align 8
  %this.addr = alloca ptr, align 8
  store ptr %this, ptr %this.addr, align 8
  %this1 = load ptr, ptr %this.addr, align 8
  %_M_t = getelementptr inbounds %"class.std::map", ptr %this1, i32 0, i32 0
  %call = call ptr @_ZNKSt8_Rb_treeIN4llvh9StringRefESt4pairIKS1_jESt10_Select1stIS4_ESt4lessIS1_ESaIS4_EE3endEv(ptr noundef nonnull align 8 dereferenceable(48) %_M_t) #13
  %coerce.dive = getelementptr inbounds %"struct.std::_Rb_tree_const_iterator", ptr %retval, i32 0, i32 0
  store ptr %call, ptr %coerce.dive, align 8
  %coerce.dive2 = getelementptr inbounds %"struct.std::_Rb_tree_const_iterator", ptr %retval, i32 0, i32 0
  %0 = load ptr, ptr %coerce.dive2, align 8
  ret ptr %0
}

; Function Attrs: mustprogress nounwind uwtable
define linkonce_odr noundef zeroext i1 @_ZStneRKSt23_Rb_tree_const_iteratorISt4pairIKN4llvh9StringRefEjEES7_(ptr noundef nonnull align 8 dereferenceable(8) %__x, ptr noundef nonnull align 8 dereferenceable(8) %__y) #0 comdat {
entry:
  %__x.addr = alloca ptr, align 8
  %__y.addr = alloca ptr, align 8
  store ptr %__x, ptr %__x.addr, align 8
  store ptr %__y, ptr %__y.addr, align 8
  %0 = load ptr, ptr %__x.addr, align 8
  %_M_node = getelementptr inbounds %"struct.std::_Rb_tree_const_iterator", ptr %0, i32 0, i32 0
  %1 = load ptr, ptr %_M_node, align 8
  %2 = load ptr, ptr %__y.addr, align 8
  %_M_node1 = getelementptr inbounds %"struct.std::_Rb_tree_const_iterator", ptr %2, i32 0, i32 0
  %3 = load ptr, ptr %_M_node1, align 8
  %cmp = icmp ne ptr %1, %3
  ret i1 %cmp
}

; Function Attrs: mustprogress nounwind uwtable
define linkonce_odr hidden noundef nonnull align 8 dereferenceable(20) ptr @_ZNKSt23_Rb_tree_const_iteratorISt4pairIKN4llvh9StringRefEjEEdeEv(ptr noundef nonnull align 8 dereferenceable(8) %this) #0 comdat align 2 {
entry:
  %this.addr = alloca ptr, align 8
  store ptr %this, ptr %this.addr, align 8
  %this1 = load ptr, ptr %this.addr, align 8
  %_M_node = getelementptr inbounds %"struct.std::_Rb_tree_const_iterator", ptr %this1, i32 0, i32 0
  %0 = load ptr, ptr %_M_node, align 8
  %call = call noundef ptr @_ZNKSt13_Rb_tree_nodeISt4pairIKN4llvh9StringRefEjEE9_M_valptrEv(ptr noundef nonnull align 8 dereferenceable(56) %0)
  ret ptr %call
}

; Function Attrs: mustprogress nounwind uwtable
define linkonce_odr hidden noundef nonnull align 8 dereferenceable(16) ptr @_ZN4llvh9StringMapINS_9StringRefENS_15MallocAllocatorEEixES1_(ptr noundef nonnull align 8 dereferenceable(25) %this, ptr %Key.coerce0, i64 %Key.coerce1) #0 comdat align 2 {
entry:
  %Key = alloca %"class.llvh::StringRef", align 8
  %this.addr = alloca ptr, align 8
  %ref.tmp = alloca %"struct.std::pair.78", align 8
  %agg.tmp = alloca %"class.llvh::StringRef", align 8
  %0 = getelementptr inbounds { ptr, i64 }, ptr %Key, i32 0, i32 0
  store ptr %Key.coerce0, ptr %0, align 8
  %1 = getelementptr inbounds { ptr, i64 }, ptr %Key, i32 0, i32 1
  store i64 %Key.coerce1, ptr %1, align 8
  store ptr %this, ptr %this.addr, align 8
  %this1 = load ptr, ptr %this.addr, align 8
  call void @llvm.memcpy.p0.p0.i64(ptr align 8 %agg.tmp, ptr align 8 %Key, i64 16, i1 false)
  %2 = getelementptr inbounds { ptr, i64 }, ptr %agg.tmp, i32 0, i32 0
  %3 = load ptr, ptr %2, align 8
  %4 = getelementptr inbounds { ptr, i64 }, ptr %agg.tmp, i32 0, i32 1
  %5 = load i64, ptr %4, align 8
  %call = call { ptr, i8 } @_ZN4llvh9StringMapINS_9StringRefENS_15MallocAllocatorEE11try_emplaceIJEEESt4pairINS_17StringMapIteratorIS1_EEbES1_DpOT_(ptr noundef nonnull align 8 dereferenceable(25) %this1, ptr %3, i64 %5)
  %6 = getelementptr inbounds { ptr, i8 }, ptr %ref.tmp, i32 0, i32 0
  %7 = extractvalue { ptr, i8 } %call, 0
  store ptr %7, ptr %6, align 8
  %8 = getelementptr inbounds { ptr, i8 }, ptr %ref.tmp, i32 0, i32 1
  %9 = extractvalue { ptr, i8 } %call, 1
  store i8 %9, ptr %8, align 8
  %first = getelementptr inbounds %"struct.std::pair.78", ptr %ref.tmp, i32 0, i32 0
  %call2 = call noundef ptr @_ZN4llvh20iterator_facade_baseINS_17StringMapIteratorINS_9StringRefEEESt20forward_iterator_tagNS_14StringMapEntryIS2_EElPS6_RS6_EptEv(ptr noundef nonnull align 1 dereferenceable(1) %first)
  %second = getelementptr inbounds %"class.llvh::StringMapEntry", ptr %call2, i32 0, i32 1
  ret ptr %second
}

; Function Attrs: mustprogress nounwind uwtable
define linkonce_odr hidden noundef nonnull align 8 dereferenceable(8) ptr @_ZNSt23_Rb_tree_const_iteratorISt4pairIKN4llvh9StringRefEjEEppEv(ptr noundef nonnull align 8 dereferenceable(8) %this) #0 comdat align 2 {
entry:
  %this.addr = alloca ptr, align 8
  store ptr %this, ptr %this.addr, align 8
  %this1 = load ptr, ptr %this.addr, align 8
  %_M_node = getelementptr inbounds %"struct.std::_Rb_tree_const_iterator", ptr %this1, i32 0, i32 0
  %0 = load ptr, ptr %_M_node, align 8
  %call = call noundef ptr @_ZSt18_Rb_tree_incrementPKSt18_Rb_tree_node_base(ptr noundef %0) #12
  %_M_node2 = getelementptr inbounds %"struct.std::_Rb_tree_const_iterator", ptr %this1, i32 0, i32 0
  store ptr %call, ptr %_M_node2, align 8
  ret ptr %this1
}

; Function Attrs: mustprogress nounwind uwtable
define linkonce_odr hidden void @_ZN4llvh11SmallVectorINS_9StringRefELj4EED2Ev(ptr noundef nonnull align 8 dereferenceable(80) %this) unnamed_addr #0 comdat align 2 {
entry:
  %this.addr.i.i = alloca ptr, align 8
  %this.addr.i3 = alloca ptr, align 8
  %this.addr.i = alloca ptr, align 8
  %this.addr = alloca ptr, align 8
  store ptr %this, ptr %this.addr, align 8
  %this1 = load ptr, ptr %this.addr, align 8
  store ptr %this1, ptr %this.addr.i, align 8
  %this1.i = load ptr, ptr %this.addr.i, align 8
  %0 = load ptr, ptr %this1.i, align 8
  store ptr %this1, ptr %this.addr.i3, align 8
  %this1.i4 = load ptr, ptr %this.addr.i3, align 8
  store ptr %this1.i4, ptr %this.addr.i.i, align 8
  %this1.i.i = load ptr, ptr %this.addr.i.i, align 8
  %1 = load ptr, ptr %this1.i.i, align 8
  %call2.i = call noundef i64 @_ZNK4llvh15SmallVectorBase4sizeEv(ptr noundef nonnull align 8 dereferenceable(16) %this1.i4)
  %add.ptr.i = getelementptr inbounds %"class.llvh::StringRef", ptr %1, i64 %call2.i
  call void @_ZN4llvh23SmallVectorTemplateBaseINS_9StringRefELb1EE13destroy_rangeEPS1_S3_(ptr noundef %0, ptr noundef %add.ptr.i)
  call void @_ZN4llvh15SmallVectorImplINS_9StringRefEED2Ev(ptr noundef nonnull align 8 dereferenceable(16) %this1) #13
  ret void
}

; Function Attrs: mustprogress nounwind uwtable
define hidden noundef i32 @_ZNK4llvh16FileCheckPattern20ComputeMatchDistanceENS_9StringRefERKNS_9StringMapIS1_NS_15MallocAllocatorEEE(ptr noundef nonnull align 8 dereferenceable(136) %this, ptr %Buffer.coerce0, i64 %Buffer.coerce1, ptr noundef nonnull align 8 dereferenceable(25) %VariableTable) #0 align 2 {
entry:
  %this.addr.i16 = alloca ptr, align 8
  %data.addr.i = alloca ptr, align 8
  %length.addr.i = alloca i64, align 8
  %this.addr.i12 = alloca ptr, align 8
  %Str.addr.i = alloca ptr, align 8
  %this.addr.i9 = alloca ptr, align 8
  %retval.i = alloca %"class.llvh::StringRef", align 8
  %this.addr.i6 = alloca ptr, align 8
  %Start.addr.i = alloca i64, align 8
  %N.addr.i = alloca i64, align 8
  %ref.tmp.i = alloca i64, align 8
  %this.addr.i = alloca ptr, align 8
  %Buffer = alloca %"class.llvh::StringRef", align 8
  %this.addr = alloca ptr, align 8
  %VariableTable.addr = alloca ptr, align 8
  %ExampleString = alloca %"class.llvh::StringRef", align 8
  %ref.tmp = alloca %"class.llvh::StringRef", align 8
  %BufferPrefix = alloca %"class.llvh::StringRef", align 8
  %ref.tmp4 = alloca %"struct.std::pair.32", align 8
  %agg.tmp = alloca %"class.llvh::StringRef", align 8
  %0 = getelementptr inbounds { ptr, i64 }, ptr %Buffer, i32 0, i32 0
  store ptr %Buffer.coerce0, ptr %0, align 8
  %1 = getelementptr inbounds { ptr, i64 }, ptr %Buffer, i32 0, i32 1
  store i64 %Buffer.coerce1, ptr %1, align 8
  store ptr %this, ptr %this.addr, align 8
  store ptr %VariableTable, ptr %VariableTable.addr, align 8
  %this1 = load ptr, ptr %this.addr, align 8
  %FixedStr = getelementptr inbounds %"class.llvh::FileCheckPattern", ptr %this1, i32 0, i32 1
  call void @llvm.memcpy.p0.p0.i64(ptr align 8 %ExampleString, ptr align 8 %FixedStr, i64 16, i1 false)
  store ptr %ExampleString, ptr %this.addr.i, align 8
  %this1.i = load ptr, ptr %this.addr.i, align 8
  %Length.i = getelementptr inbounds %"class.llvh::StringRef", ptr %this1.i, i32 0, i32 1
  %2 = load i64, ptr %Length.i, align 8
  %cmp.i = icmp eq i64 %2, 0
  br i1 %cmp.i, label %if.then, label %if.end

if.then:                                          ; preds = %entry
  %RegExStr = getelementptr inbounds %"class.llvh::FileCheckPattern", ptr %this1, i32 0, i32 2
  store ptr %ref.tmp, ptr %this.addr.i12, align 8
  store ptr %RegExStr, ptr %Str.addr.i, align 8
  %this1.i13 = load ptr, ptr %this.addr.i12, align 8
  %3 = load ptr, ptr %Str.addr.i, align 8
  %call.i14 = call noundef ptr @_ZNKSt7__cxx1112basic_stringIcSt11char_traitsIcESaIcEE4dataEv(ptr noundef nonnull align 8 dereferenceable(32) %3) #13
  store ptr %call.i14, ptr %this1.i13, align 8
  %Length.i15 = getelementptr inbounds %"class.llvh::StringRef", ptr %this1.i13, i32 0, i32 1
  %4 = load ptr, ptr %Str.addr.i, align 8
  %call2.i = call noundef i64 @_ZNKSt7__cxx1112basic_stringIcSt11char_traitsIcESaIcEE6lengthEv(ptr noundef nonnull align 8 dereferenceable(32) %4) #13
  store i64 %call2.i, ptr %Length.i15, align 8
  call void @llvm.memcpy.p0.p0.i64(ptr align 8 %ExampleString, ptr align 8 %ref.tmp, i64 16, i1 false)
  br label %if.end

if.end:                                           ; preds = %if.then, %entry
  store ptr %ExampleString, ptr %this.addr.i9, align 8
  %this1.i10 = load ptr, ptr %this.addr.i9, align 8
  %Length.i11 = getelementptr inbounds %"class.llvh::StringRef", ptr %this1.i10, i32 0, i32 1
  %5 = load i64, ptr %Length.i11, align 8
  store ptr %Buffer, ptr %this.addr.i6, align 8
  store i64 0, ptr %Start.addr.i, align 8
  store i64 %5, ptr %N.addr.i, align 8
  %this1.i7 = load ptr, ptr %this.addr.i6, align 8
  %Length.i8 = getelementptr inbounds %"class.llvh::StringRef", ptr %this1.i7, i32 0, i32 1
  %call.i = call noundef nonnull align 8 dereferenceable(8) ptr @_ZSt3minImERKT_S2_S2_(ptr noundef nonnull align 8 dereferenceable(8) %Start.addr.i, ptr noundef nonnull align 8 dereferenceable(8) %Length.i8)
  %6 = load i64, ptr %call.i, align 8
  store i64 %6, ptr %Start.addr.i, align 8
  %7 = load ptr, ptr %this1.i7, align 8
  %8 = load i64, ptr %Start.addr.i, align 8
  %add.ptr.i = getelementptr inbounds i8, ptr %7, i64 %8
  %Length2.i = getelementptr inbounds %"class.llvh::StringRef", ptr %this1.i7, i32 0, i32 1
  %9 = load i64, ptr %Length2.i, align 8
  %10 = load i64, ptr %Start.addr.i, align 8
  %sub.i = sub i64 %9, %10
  store i64 %sub.i, ptr %ref.tmp.i, align 8
  %call3.i = call noundef nonnull align 8 dereferenceable(8) ptr @_ZSt3minImERKT_S2_S2_(ptr noundef nonnull align 8 dereferenceable(8) %N.addr.i, ptr noundef nonnull align 8 dereferenceable(8) %ref.tmp.i)
  %11 = load i64, ptr %call3.i, align 8
  store ptr %retval.i, ptr %this.addr.i16, align 8
  store ptr %add.ptr.i, ptr %data.addr.i, align 8
  store i64 %11, ptr %length.addr.i, align 8
  %this1.i17 = load ptr, ptr %this.addr.i16, align 8
  %12 = load ptr, ptr %data.addr.i, align 8
  store ptr %12, ptr %this1.i17, align 8
  %Length.i18 = getelementptr inbounds %"class.llvh::StringRef", ptr %this1.i17, i32 0, i32 1
  %13 = load i64, ptr %length.addr.i, align 8
  store i64 %13, ptr %Length.i18, align 8
  %14 = load { ptr, i64 }, ptr %retval.i, align 8
  %15 = getelementptr inbounds { ptr, i64 }, ptr %BufferPrefix, i32 0, i32 0
  %16 = extractvalue { ptr, i64 } %14, 0
  store ptr %16, ptr %15, align 8
  %17 = getelementptr inbounds { ptr, i64 }, ptr %BufferPrefix, i32 0, i32 1
  %18 = extractvalue { ptr, i64 } %14, 1
  store i64 %18, ptr %17, align 8
  call void @_ZNK4llvh9StringRef5splitEc(ptr sret(%"struct.std::pair.32") align 8 %ref.tmp4, ptr noundef nonnull align 8 dereferenceable(16) %BufferPrefix, i8 noundef signext 10)
  %first = getelementptr inbounds %"struct.std::pair.32", ptr %ref.tmp4, i32 0, i32 0
  call void @llvm.memcpy.p0.p0.i64(ptr align 8 %BufferPrefix, ptr align 8 %first, i64 16, i1 false)
  call void @llvm.memcpy.p0.p0.i64(ptr align 8 %agg.tmp, ptr align 8 %ExampleString, i64 16, i1 false)
  %19 = getelementptr inbounds { ptr, i64 }, ptr %agg.tmp, i32 0, i32 0
  %20 = load ptr, ptr %19, align 8
  %21 = getelementptr inbounds { ptr, i64 }, ptr %agg.tmp, i32 0, i32 1
  %22 = load i64, ptr %21, align 8
  %call5 = call noundef i32 @_ZNK4llvh9StringRef13edit_distanceES0_bj(ptr noundef nonnull align 8 dereferenceable(16) %BufferPrefix, ptr %20, i64 %22, i1 noundef zeroext true, i32 noundef 0)
  ret i32 %call5
}

; Function Attrs: mustprogress nounwind uwtable
define linkonce_odr hidden void @_ZNK4llvh9StringRef5splitEc(ptr noalias sret(%"struct.std::pair.32") align 8 %agg.result, ptr noundef nonnull align 8 dereferenceable(16) %this, i8 noundef signext %Separator) #0 comdat align 2 {
entry:
  %this.addr.i = alloca ptr, align 8
  %data.addr.i = alloca ptr, align 8
  %length.addr.i = alloca i64, align 8
  %this.addr = alloca ptr, align 8
  %Separator.addr = alloca i8, align 1
  %agg.tmp = alloca %"class.llvh::StringRef", align 8
  store ptr %this, ptr %this.addr, align 8
  store i8 %Separator, ptr %Separator.addr, align 1
  %this1 = load ptr, ptr %this.addr, align 8
  store ptr %agg.tmp, ptr %this.addr.i, align 8
  store ptr %Separator.addr, ptr %data.addr.i, align 8
  store i64 1, ptr %length.addr.i, align 8
  %this1.i = load ptr, ptr %this.addr.i, align 8
  %0 = load ptr, ptr %data.addr.i, align 8
  store ptr %0, ptr %this1.i, align 8
  %Length.i = getelementptr inbounds %"class.llvh::StringRef", ptr %this1.i, i32 0, i32 1
  %1 = load i64, ptr %length.addr.i, align 8
  store i64 %1, ptr %Length.i, align 8
  %2 = getelementptr inbounds { ptr, i64 }, ptr %agg.tmp, i32 0, i32 0
  %3 = load ptr, ptr %2, align 8
  %4 = getelementptr inbounds { ptr, i64 }, ptr %agg.tmp, i32 0, i32 1
  %5 = load i64, ptr %4, align 8
  call void @_ZNK4llvh9StringRef5splitES0_(ptr sret(%"struct.std::pair.32") align 8 %agg.result, ptr noundef nonnull align 8 dereferenceable(16) %this1, ptr %3, i64 %5)
  ret void
}

declare noundef i32 @_ZNK4llvh9StringRef13edit_distanceES0_bj(ptr noundef nonnull align 8 dereferenceable(16), ptr, i64, i1 noundef zeroext, i32 noundef) #2

; Function Attrs: mustprogress nounwind uwtable
define hidden void @_ZNK4llvh16FileCheckPattern17PrintVariableUsesERKNS_9SourceMgrENS_9StringRefERKNS_9StringMapIS4_NS_15MallocAllocatorEEENS_7SMRangeE(ptr noundef nonnull align 8 dereferenceable(136) %this, ptr noundef nonnull align 8 dereferenceable(120) %SM, ptr %Buffer.coerce0, i64 %Buffer.coerce1, ptr noundef nonnull align 8 dereferenceable(25) %VariableTable, ptr noundef byval(%"class.llvh::SMRange") align 8 %MatchRange) #0 align 2 {
entry:
  %this.addr.i73 = alloca ptr, align 8
  %Str.addr.i = alloca ptr, align 8
  %this.addr.i = alloca ptr, align 8
  %Buffer = alloca %"class.llvh::StringRef", align 8
  %this.addr = alloca ptr, align 8
  %SM.addr = alloca ptr, align 8
  %VariableTable.addr = alloca ptr, align 8
  %__range2 = alloca ptr, align 8
  %__begin2 = alloca %"class.__gnu_cxx::__normal_iterator", align 8
  %__end2 = alloca %"class.__gnu_cxx::__normal_iterator", align 8
  %VariableUse = alloca ptr, align 8
  %Msg = alloca %"class.llvh::SmallString", align 8
  %OS = alloca %"class.llvh::raw_svector_ostream", align 8
  %Var = alloca %"class.llvh::StringRef", align 8
  %Value = alloca %"class.std::__cxx11::basic_string", align 8
  %agg.tmp = alloca %"class.llvh::StringRef", align 8
  %agg.tmp13 = alloca %"class.llvh::StringRef", align 8
  %agg.tmp16 = alloca %"class.llvh::StringRef", align 8
  %agg.tmp20 = alloca %"class.llvh::StringRef", align 8
  %it = alloca %"class.llvh::StringMapConstIterator", align 8
  %agg.tmp24 = alloca %"class.llvh::StringRef", align 8
  %ref.tmp = alloca %"class.llvh::StringMapConstIterator", align 8
  %agg.tmp34 = alloca %"class.llvh::StringRef", align 8
  %agg.tmp39 = alloca %"class.llvh::StringRef", align 8
  %agg.tmp42 = alloca %"class.llvh::StringRef", align 8
  %agg.tmp50 = alloca %"class.llvh::SMLoc", align 8
  %ref.tmp51 = alloca %"class.llvh::Twine", align 8
  %ref.tmp52 = alloca %"class.llvh::StringRef", align 8
  %agg.tmp54 = alloca %"class.llvh::ArrayRef", align 8
  %ref.tmp55 = alloca %"class.std::initializer_list", align 8
  %ref.tmp56 = alloca [1 x %"class.llvh::SMRange"], align 8
  %agg.tmp57 = alloca %"class.llvh::ArrayRef.24", align 8
  %agg.tmp60 = alloca %"class.llvh::SMLoc", align 8
  %ref.tmp64 = alloca %"class.llvh::Twine", align 8
  %ref.tmp65 = alloca %"class.llvh::StringRef", align 8
  %agg.tmp67 = alloca %"class.llvh::ArrayRef", align 8
  %agg.tmp68 = alloca %"class.llvh::ArrayRef.24", align 8
  %0 = getelementptr inbounds { ptr, i64 }, ptr %Buffer, i32 0, i32 0
  store ptr %Buffer.coerce0, ptr %0, align 8
  %1 = getelementptr inbounds { ptr, i64 }, ptr %Buffer, i32 0, i32 1
  store i64 %Buffer.coerce1, ptr %1, align 8
  store ptr %this, ptr %this.addr, align 8
  store ptr %SM, ptr %SM.addr, align 8
  store ptr %VariableTable, ptr %VariableTable.addr, align 8
  %this1 = load ptr, ptr %this.addr, align 8
  %VariableUses = getelementptr inbounds %"class.llvh::FileCheckPattern", ptr %this1, i32 0, i32 3
  %call = call noundef zeroext i1 @_ZNKSt6vectorISt4pairIN4llvh9StringRefEjESaIS3_EE5emptyEv(ptr noundef nonnull align 8 dereferenceable(24) %VariableUses) #13
  br i1 %call, label %if.end72, label %if.then

if.then:                                          ; preds = %entry
  %VariableUses2 = getelementptr inbounds %"class.llvh::FileCheckPattern", ptr %this1, i32 0, i32 3
  store ptr %VariableUses2, ptr %__range2, align 8
  %2 = load ptr, ptr %__range2, align 8
  %call3 = call ptr @_ZNKSt6vectorISt4pairIN4llvh9StringRefEjESaIS3_EE5beginEv(ptr noundef nonnull align 8 dereferenceable(24) %2) #13
  %coerce.dive = getelementptr inbounds %"class.__gnu_cxx::__normal_iterator", ptr %__begin2, i32 0, i32 0
  store ptr %call3, ptr %coerce.dive, align 8
  %3 = load ptr, ptr %__range2, align 8
  %call4 = call ptr @_ZNKSt6vectorISt4pairIN4llvh9StringRefEjESaIS3_EE3endEv(ptr noundef nonnull align 8 dereferenceable(24) %3) #13
  %coerce.dive5 = getelementptr inbounds %"class.__gnu_cxx::__normal_iterator", ptr %__end2, i32 0, i32 0
  store ptr %call4, ptr %coerce.dive5, align 8
  br label %for.cond

for.cond:                                         ; preds = %for.inc, %if.then
  %call6 = call noundef zeroext i1 @_ZN9__gnu_cxxneIPKSt4pairIN4llvh9StringRefEjESt6vectorIS4_SaIS4_EEEEbRKNS_17__normal_iteratorIT_T0_EESF_(ptr noundef nonnull align 8 dereferenceable(8) %__begin2, ptr noundef nonnull align 8 dereferenceable(8) %__end2) #13
  br i1 %call6, label %for.body, label %for.end

for.body:                                         ; preds = %for.cond
  %call7 = call noundef nonnull align 8 dereferenceable(20) ptr @_ZNK9__gnu_cxx17__normal_iteratorIPKSt4pairIN4llvh9StringRefEjESt6vectorIS4_SaIS4_EEEdeEv(ptr noundef nonnull align 8 dereferenceable(8) %__begin2) #13
  store ptr %call7, ptr %VariableUse, align 8
  call void @_ZN4llvh11SmallStringILj256EEC2Ev(ptr noundef nonnull align 8 dereferenceable(272) %Msg)
  call void @_ZN4llvh19raw_svector_ostreamC2ERNS_15SmallVectorImplIcEE(ptr noundef nonnull align 8 dereferenceable(48) %OS, ptr noundef nonnull align 8 dereferenceable(16) %Msg)
  %4 = load ptr, ptr %VariableUse, align 8
  %first = getelementptr inbounds %"struct.std::pair", ptr %4, i32 0, i32 0
  call void @llvm.memcpy.p0.p0.i64(ptr align 8 %Var, ptr align 8 %first, i64 16, i1 false)
  %call8 = call noundef signext i8 @_ZNK4llvh9StringRefixEm(ptr noundef nonnull align 8 dereferenceable(16) %Var, i64 noundef 0)
  %conv = sext i8 %call8 to i32
  %cmp = icmp eq i32 %conv, 64
  br i1 %cmp, label %if.then9, label %if.else23

if.then9:                                         ; preds = %for.body
  call void @_ZNSt7__cxx1112basic_stringIcSt11char_traitsIcESaIcEEC1Ev(ptr noundef nonnull align 8 dereferenceable(32) %Value) #13
  call void @llvm.memcpy.p0.p0.i64(ptr align 8 %agg.tmp, ptr align 8 %Var, i64 16, i1 false)
  %5 = getelementptr inbounds { ptr, i64 }, ptr %agg.tmp, i32 0, i32 0
  %6 = load ptr, ptr %5, align 8
  %7 = getelementptr inbounds { ptr, i64 }, ptr %agg.tmp, i32 0, i32 1
  %8 = load i64, ptr %7, align 8
  %call10 = call noundef zeroext i1 @_ZNK4llvh16FileCheckPattern18EvaluateExpressionENS_9StringRefERNSt7__cxx1112basic_stringIcSt11char_traitsIcESaIcEEE(ptr noundef nonnull align 8 dereferenceable(136) %this1, ptr %6, i64 %8, ptr noundef nonnull align 8 dereferenceable(32) %Value)
  br i1 %call10, label %if.then11, label %if.else

if.then11:                                        ; preds = %if.then9
  %call12 = call noundef nonnull align 8 dereferenceable(36) ptr @_ZN4llvh11raw_ostreamlsEPKc(ptr noundef nonnull align 8 dereferenceable(36) %OS, ptr noundef @.str.17)
  call void @llvm.memcpy.p0.p0.i64(ptr align 8 %agg.tmp13, ptr align 8 %Var, i64 16, i1 false)
  %9 = getelementptr inbounds { ptr, i64 }, ptr %agg.tmp13, i32 0, i32 0
  %10 = load ptr, ptr %9, align 8
  %11 = getelementptr inbounds { ptr, i64 }, ptr %agg.tmp13, i32 0, i32 1
  %12 = load i64, ptr %11, align 8
  %call14 = call noundef nonnull align 8 dereferenceable(36) ptr @_ZN4llvh11raw_ostream13write_escapedENS_9StringRefEb(ptr noundef nonnull align 8 dereferenceable(36) %OS, ptr %10, i64 %12, i1 noundef zeroext false)
  %call15 = call noundef nonnull align 8 dereferenceable(36) ptr @_ZN4llvh11raw_ostreamlsEPKc(ptr noundef nonnull align 8 dereferenceable(36) %call14, ptr noundef @.str.18)
  store ptr %agg.tmp16, ptr %this.addr.i73, align 8
  store ptr %Value, ptr %Str.addr.i, align 8
  %this1.i74 = load ptr, ptr %this.addr.i73, align 8
  %13 = load ptr, ptr %Str.addr.i, align 8
  %call.i = call noundef ptr @_ZNKSt7__cxx1112basic_stringIcSt11char_traitsIcESaIcEE4dataEv(ptr noundef nonnull align 8 dereferenceable(32) %13) #13
  store ptr %call.i, ptr %this1.i74, align 8
  %Length.i = getelementptr inbounds %"class.llvh::StringRef", ptr %this1.i74, i32 0, i32 1
  %14 = load ptr, ptr %Str.addr.i, align 8
  %call2.i = call noundef i64 @_ZNKSt7__cxx1112basic_stringIcSt11char_traitsIcESaIcEE6lengthEv(ptr noundef nonnull align 8 dereferenceable(32) %14) #13
  store i64 %call2.i, ptr %Length.i, align 8
  %15 = getelementptr inbounds { ptr, i64 }, ptr %agg.tmp16, i32 0, i32 0
  %16 = load ptr, ptr %15, align 8
  %17 = getelementptr inbounds { ptr, i64 }, ptr %agg.tmp16, i32 0, i32 1
  %18 = load i64, ptr %17, align 8
  %call17 = call noundef nonnull align 8 dereferenceable(36) ptr @_ZN4llvh11raw_ostream13write_escapedENS_9StringRefEb(ptr noundef nonnull align 8 dereferenceable(36) %OS, ptr %16, i64 %18, i1 noundef zeroext false)
  %call18 = call noundef nonnull align 8 dereferenceable(36) ptr @_ZN4llvh11raw_ostreamlsEPKc(ptr noundef nonnull align 8 dereferenceable(36) %call17, ptr noundef @.str.19)
  br label %if.end

if.else:                                          ; preds = %if.then9
  %call19 = call noundef nonnull align 8 dereferenceable(36) ptr @_ZN4llvh11raw_ostreamlsEPKc(ptr noundef nonnull align 8 dereferenceable(36) %OS, ptr noundef @.str.20)
  call void @llvm.memcpy.p0.p0.i64(ptr align 8 %agg.tmp20, ptr align 8 %Var, i64 16, i1 false)
  %19 = getelementptr inbounds { ptr, i64 }, ptr %agg.tmp20, i32 0, i32 0
  %20 = load ptr, ptr %19, align 8
  %21 = getelementptr inbounds { ptr, i64 }, ptr %agg.tmp20, i32 0, i32 1
  %22 = load i64, ptr %21, align 8
  %call21 = call noundef nonnull align 8 dereferenceable(36) ptr @_ZN4llvh11raw_ostream13write_escapedENS_9StringRefEb(ptr noundef nonnull align 8 dereferenceable(36) %OS, ptr %20, i64 %22, i1 noundef zeroext false)
  %call22 = call noundef nonnull align 8 dereferenceable(36) ptr @_ZN4llvh11raw_ostreamlsEPKc(ptr noundef nonnull align 8 dereferenceable(36) %call21, ptr noundef @.str.19)
  br label %if.end

if.end:                                           ; preds = %if.else, %if.then11
  call void @_ZNSt7__cxx1112basic_stringIcSt11char_traitsIcESaIcEED1Ev(ptr noundef nonnull align 8 dereferenceable(32) %Value) #13
  br label %if.end47

if.else23:                                        ; preds = %for.body
  %23 = load ptr, ptr %VariableTable.addr, align 8
  call void @llvm.memcpy.p0.p0.i64(ptr align 8 %agg.tmp24, ptr align 8 %Var, i64 16, i1 false)
  %24 = getelementptr inbounds { ptr, i64 }, ptr %agg.tmp24, i32 0, i32 0
  %25 = load ptr, ptr %24, align 8
  %26 = getelementptr inbounds { ptr, i64 }, ptr %agg.tmp24, i32 0, i32 1
  %27 = load i64, ptr %26, align 8
  %call25 = call ptr @_ZNK4llvh9StringMapINS_9StringRefENS_15MallocAllocatorEE4findES1_(ptr noundef nonnull align 8 dereferenceable(25) %23, ptr %25, i64 %27)
  %coerce.dive26 = getelementptr inbounds %"class.llvh::StringMapConstIterator", ptr %it, i32 0, i32 0
  %coerce.dive27 = getelementptr inbounds %"class.llvh::StringMapIterBase.41", ptr %coerce.dive26, i32 0, i32 0
  store ptr %call25, ptr %coerce.dive27, align 8
  %28 = load ptr, ptr %VariableTable.addr, align 8
  %call28 = call ptr @_ZNK4llvh9StringMapINS_9StringRefENS_15MallocAllocatorEE3endEv(ptr noundef nonnull align 8 dereferenceable(25) %28)
  %coerce.dive29 = getelementptr inbounds %"class.llvh::StringMapConstIterator", ptr %ref.tmp, i32 0, i32 0
  %coerce.dive30 = getelementptr inbounds %"class.llvh::StringMapIterBase.41", ptr %coerce.dive29, i32 0, i32 0
  store ptr %call28, ptr %coerce.dive30, align 8
  %call31 = call noundef zeroext i1 @_ZNK4llvh17StringMapIterBaseINS_22StringMapConstIteratorINS_9StringRefEEEKNS_14StringMapEntryIS2_EEEeqERKS3_(ptr noundef nonnull align 8 dereferenceable(8) %it, ptr noundef nonnull align 8 dereferenceable(8) %ref.tmp)
  br i1 %call31, label %if.then32, label %if.else37

if.then32:                                        ; preds = %if.else23
  %call33 = call noundef nonnull align 8 dereferenceable(36) ptr @_ZN4llvh11raw_ostreamlsEPKc(ptr noundef nonnull align 8 dereferenceable(36) %OS, ptr noundef @.str.21)
  call void @llvm.memcpy.p0.p0.i64(ptr align 8 %agg.tmp34, ptr align 8 %Var, i64 16, i1 false)
  %29 = getelementptr inbounds { ptr, i64 }, ptr %agg.tmp34, i32 0, i32 0
  %30 = load ptr, ptr %29, align 8
  %31 = getelementptr inbounds { ptr, i64 }, ptr %agg.tmp34, i32 0, i32 1
  %32 = load i64, ptr %31, align 8
  %call35 = call noundef nonnull align 8 dereferenceable(36) ptr @_ZN4llvh11raw_ostream13write_escapedENS_9StringRefEb(ptr noundef nonnull align 8 dereferenceable(36) %OS, ptr %30, i64 %32, i1 noundef zeroext false)
  %call36 = call noundef nonnull align 8 dereferenceable(36) ptr @_ZN4llvh11raw_ostreamlsEPKc(ptr noundef nonnull align 8 dereferenceable(36) %call35, ptr noundef @.str.19)
  br label %if.end46

if.else37:                                        ; preds = %if.else23
  %call38 = call noundef nonnull align 8 dereferenceable(36) ptr @_ZN4llvh11raw_ostreamlsEPKc(ptr noundef nonnull align 8 dereferenceable(36) %OS, ptr noundef @.str.22)
  call void @llvm.memcpy.p0.p0.i64(ptr align 8 %agg.tmp39, ptr align 8 %Var, i64 16, i1 false)
  %33 = getelementptr inbounds { ptr, i64 }, ptr %agg.tmp39, i32 0, i32 0
  %34 = load ptr, ptr %33, align 8
  %35 = getelementptr inbounds { ptr, i64 }, ptr %agg.tmp39, i32 0, i32 1
  %36 = load i64, ptr %35, align 8
  %call40 = call noundef nonnull align 8 dereferenceable(36) ptr @_ZN4llvh11raw_ostream13write_escapedENS_9StringRefEb(ptr noundef nonnull align 8 dereferenceable(36) %OS, ptr %34, i64 %36, i1 noundef zeroext false)
  %call41 = call noundef nonnull align 8 dereferenceable(36) ptr @_ZN4llvh11raw_ostreamlsEPKc(ptr noundef nonnull align 8 dereferenceable(36) %call40, ptr noundef @.str.18)
  %call43 = call noundef ptr @_ZN4llvh20iterator_facade_baseINS_22StringMapConstIteratorINS_9StringRefEEESt20forward_iterator_tagKNS_14StringMapEntryIS2_EElPS7_RS7_EptEv(ptr noundef nonnull align 1 dereferenceable(1) %it)
  %second = getelementptr inbounds %"class.llvh::StringMapEntry", ptr %call43, i32 0, i32 1
  call void @llvm.memcpy.p0.p0.i64(ptr align 8 %agg.tmp42, ptr align 8 %second, i64 16, i1 false)
  %37 = getelementptr inbounds { ptr, i64 }, ptr %agg.tmp42, i32 0, i32 0
  %38 = load ptr, ptr %37, align 8
  %39 = getelementptr inbounds { ptr, i64 }, ptr %agg.tmp42, i32 0, i32 1
  %40 = load i64, ptr %39, align 8
  %call44 = call noundef nonnull align 8 dereferenceable(36) ptr @_ZN4llvh11raw_ostream13write_escapedENS_9StringRefEb(ptr noundef nonnull align 8 dereferenceable(36) %OS, ptr %38, i64 %40, i1 noundef zeroext false)
  %call45 = call noundef nonnull align 8 dereferenceable(36) ptr @_ZN4llvh11raw_ostreamlsEPKc(ptr noundef nonnull align 8 dereferenceable(36) %call44, ptr noundef @.str.19)
  br label %if.end46

if.end46:                                         ; preds = %if.else37, %if.then32
  br label %if.end47

if.end47:                                         ; preds = %if.end46, %if.end
  %call48 = call noundef zeroext i1 @_ZNK4llvh7SMRange7isValidEv(ptr noundef nonnull align 8 dereferenceable(16) %MatchRange)
  br i1 %call48, label %if.then49, label %if.else59

if.then49:                                        ; preds = %if.end47
  %41 = load ptr, ptr %SM.addr, align 8
  %Start = getelementptr inbounds %"class.llvh::SMRange", ptr %MatchRange, i32 0, i32 0
  call void @llvm.memcpy.p0.p0.i64(ptr align 8 %agg.tmp50, ptr align 8 %Start, i64 8, i1 false)
  %call53 = call { ptr, i64 } @_ZN4llvh19raw_svector_ostream3strEv(ptr noundef nonnull align 8 dereferenceable(48) %OS)
  %42 = getelementptr inbounds { ptr, i64 }, ptr %ref.tmp52, i32 0, i32 0
  %43 = extractvalue { ptr, i64 } %call53, 0
  store ptr %43, ptr %42, align 8
  %44 = getelementptr inbounds { ptr, i64 }, ptr %ref.tmp52, i32 0, i32 1
  %45 = extractvalue { ptr, i64 } %call53, 1
  store i64 %45, ptr %44, align 8
  call void @_ZN4llvh5TwineC2ERKNS_9StringRefE(ptr noundef nonnull align 8 dereferenceable(18) %ref.tmp51, ptr noundef nonnull align 8 dereferenceable(16) %ref.tmp52)
  %arrayinit.begin = getelementptr inbounds [1 x %"class.llvh::SMRange"], ptr %ref.tmp56, i64 0, i64 0
  call void @llvm.memcpy.p0.p0.i64(ptr align 8 %arrayinit.begin, ptr align 8 %MatchRange, i64 16, i1 false)
  %_M_array = getelementptr inbounds %"class.std::initializer_list", ptr %ref.tmp55, i32 0, i32 0
  %arraystart = getelementptr inbounds [1 x %"class.llvh::SMRange"], ptr %ref.tmp56, i64 0, i64 0
  store ptr %arraystart, ptr %_M_array, align 8
  %_M_len = getelementptr inbounds %"class.std::initializer_list", ptr %ref.tmp55, i32 0, i32 1
  store i64 1, ptr %_M_len, align 8
  call void @_ZN4llvh8ArrayRefINS_7SMRangeEEC2ERKSt16initializer_listIS1_E(ptr noundef nonnull align 8 dereferenceable(16) %agg.tmp54, ptr noundef nonnull align 8 dereferenceable(16) %ref.tmp55)
  call void @_ZN4llvh8ArrayRefINS_7SMFixItEEC2ENS_8NoneTypeE(ptr noundef nonnull align 8 dereferenceable(16) %agg.tmp57, i32 noundef 1)
  %coerce.dive58 = getelementptr inbounds %"class.llvh::SMLoc", ptr %agg.tmp50, i32 0, i32 0
  %46 = load ptr, ptr %coerce.dive58, align 8
  %47 = getelementptr inbounds { ptr, i64 }, ptr %agg.tmp54, i32 0, i32 0
  %48 = load ptr, ptr %47, align 8
  %49 = getelementptr inbounds { ptr, i64 }, ptr %agg.tmp54, i32 0, i32 1
  %50 = load i64, ptr %49, align 8
  call void @_ZNK4llvh9SourceMgr12PrintMessageENS_5SMLocENS0_8DiagKindERKNS_5TwineENS_8ArrayRefINS_7SMRangeEEENS6_INS_7SMFixItEEEb(ptr noundef nonnull align 8 dereferenceable(120) %41, ptr %46, i32 noundef 3, ptr noundef nonnull align 8 dereferenceable(18) %ref.tmp51, ptr %48, i64 %50, ptr noundef byval(%"class.llvh::ArrayRef.24") align 8 %agg.tmp57, i1 noundef zeroext true)
  br label %if.end70

if.else59:                                        ; preds = %if.end47
  %51 = load ptr, ptr %SM.addr, align 8
  store ptr %Buffer, ptr %this.addr.i, align 8
  %this1.i = load ptr, ptr %this.addr.i, align 8
  %52 = load ptr, ptr %this1.i, align 8
  %call62 = call ptr @_ZN4llvh5SMLoc14getFromPointerEPKc(ptr noundef %52)
  %coerce.dive63 = getelementptr inbounds %"class.llvh::SMLoc", ptr %agg.tmp60, i32 0, i32 0
  store ptr %call62, ptr %coerce.dive63, align 8
  %call66 = call { ptr, i64 } @_ZN4llvh19raw_svector_ostream3strEv(ptr noundef nonnull align 8 dereferenceable(48) %OS)
  %53 = getelementptr inbounds { ptr, i64 }, ptr %ref.tmp65, i32 0, i32 0
  %54 = extractvalue { ptr, i64 } %call66, 0
  store ptr %54, ptr %53, align 8
  %55 = getelementptr inbounds { ptr, i64 }, ptr %ref.tmp65, i32 0, i32 1
  %56 = extractvalue { ptr, i64 } %call66, 1
  store i64 %56, ptr %55, align 8
  call void @_ZN4llvh5TwineC2ERKNS_9StringRefE(ptr noundef nonnull align 8 dereferenceable(18) %ref.tmp64, ptr noundef nonnull align 8 dereferenceable(16) %ref.tmp65)
  call void @_ZN4llvh8ArrayRefINS_7SMRangeEEC2ENS_8NoneTypeE(ptr noundef nonnull align 8 dereferenceable(16) %agg.tmp67, i32 noundef 1)
  call void @_ZN4llvh8ArrayRefINS_7SMFixItEEC2ENS_8NoneTypeE(ptr noundef nonnull align 8 dereferenceable(16) %agg.tmp68, i32 noundef 1)
  %coerce.dive69 = getelementptr inbounds %"class.llvh::SMLoc", ptr %agg.tmp60, i32 0, i32 0
  %57 = load ptr, ptr %coerce.dive69, align 8
  %58 = getelementptr inbounds { ptr, i64 }, ptr %agg.tmp67, i32 0, i32 0
  %59 = load ptr, ptr %58, align 8
  %60 = getelementptr inbounds { ptr, i64 }, ptr %agg.tmp67, i32 0, i32 1
  %61 = load i64, ptr %60, align 8
  call void @_ZNK4llvh9SourceMgr12PrintMessageENS_5SMLocENS0_8DiagKindERKNS_5TwineENS_8ArrayRefINS_7SMRangeEEENS6_INS_7SMFixItEEEb(ptr noundef nonnull align 8 dereferenceable(120) %51, ptr %57, i32 noundef 3, ptr noundef nonnull align 8 dereferenceable(18) %ref.tmp64, ptr %59, i64 %61, ptr noundef byval(%"class.llvh::ArrayRef.24") align 8 %agg.tmp68, i1 noundef zeroext true)
  br label %if.end70

if.end70:                                         ; preds = %if.else59, %if.then49
  call void @_ZN4llvh19raw_svector_ostreamD2Ev(ptr noundef nonnull align 8 dereferenceable(48) %OS) #13
  call void @_ZN4llvh11SmallStringILj256EED2Ev(ptr noundef nonnull align 8 dereferenceable(272) %Msg) #13
  br label %for.inc

for.inc:                                          ; preds = %if.end70
  %call71 = call noundef nonnull align 8 dereferenceable(8) ptr @_ZN9__gnu_cxx17__normal_iteratorIPKSt4pairIN4llvh9StringRefEjESt6vectorIS4_SaIS4_EEEppEv(ptr noundef nonnull align 8 dereferenceable(8) %__begin2) #13
  br label %for.cond

for.end:                                          ; preds = %for.cond
  br label %if.end72

if.end72:                                         ; preds = %for.end, %entry
  ret void
}

; Function Attrs: mustprogress nounwind uwtable
define linkonce_odr hidden void @_ZN4llvh11SmallStringILj256EEC2Ev(ptr noundef nonnull align 8 dereferenceable(272) %this) unnamed_addr #0 comdat align 2 {
entry:
  %this.addr = alloca ptr, align 8
  store ptr %this, ptr %this.addr, align 8
  %this1 = load ptr, ptr %this.addr, align 8
  call void @_ZN4llvh11SmallVectorIcLj256EEC2Ev(ptr noundef nonnull align 8 dereferenceable(272) %this1)
  ret void
}

; Function Attrs: mustprogress nounwind uwtable
define linkonce_odr hidden void @_ZN4llvh19raw_svector_ostreamC2ERNS_15SmallVectorImplIcEE(ptr noundef nonnull align 8 dereferenceable(48) %this, ptr noundef nonnull align 8 dereferenceable(16) %O) unnamed_addr #0 comdat align 2 {
entry:
  %this.addr = alloca ptr, align 8
  %O.addr = alloca ptr, align 8
  store ptr %this, ptr %this.addr, align 8
  store ptr %O, ptr %O.addr, align 8
  %this1 = load ptr, ptr %this.addr, align 8
  call void @_ZN4llvh17raw_pwrite_streamC2Eb(ptr noundef nonnull align 8 dereferenceable(36) %this1, i1 noundef zeroext false)
  store ptr getelementptr inbounds ({ [14 x ptr] }, ptr @_ZTVN4llvh19raw_svector_ostreamE, i32 0, inrange i32 0, i32 2), ptr %this1, align 8
  %OS = getelementptr inbounds %"class.llvh::raw_svector_ostream", ptr %this1, i32 0, i32 1
  %0 = load ptr, ptr %O.addr, align 8
  store ptr %0, ptr %OS, align 8
  call void @_ZN4llvh11raw_ostream13SetUnbufferedEv(ptr noundef nonnull align 8 dereferenceable(36) %this1)
  ret void
}

; Function Attrs: mustprogress nounwind uwtable
define linkonce_odr hidden noundef nonnull align 8 dereferenceable(36) ptr @_ZN4llvh11raw_ostreamlsEPKc(ptr noundef nonnull align 8 dereferenceable(36) %this, ptr noundef %Str) #0 comdat align 2 {
entry:
  %this.addr.i = alloca ptr, align 8
  %Str.addr.i = alloca ptr, align 8
  %this.addr = alloca ptr, align 8
  %Str.addr = alloca ptr, align 8
  %agg.tmp = alloca %"class.llvh::StringRef", align 8
  store ptr %this, ptr %this.addr, align 8
  store ptr %Str, ptr %Str.addr, align 8
  %this1 = load ptr, ptr %this.addr, align 8
  %0 = load ptr, ptr %Str.addr, align 8
  store ptr %agg.tmp, ptr %this.addr.i, align 8
  store ptr %0, ptr %Str.addr.i, align 8
  %this1.i = load ptr, ptr %this.addr.i, align 8
  %1 = load ptr, ptr %Str.addr.i, align 8
  store ptr %1, ptr %this1.i, align 8
  %Length.i = getelementptr inbounds %"class.llvh::StringRef", ptr %this1.i, i32 0, i32 1
  %2 = load ptr, ptr %Str.addr.i, align 8
  %tobool.i = icmp ne ptr %2, null
  br i1 %tobool.i, label %cond.true.i, label %cond.false.i

cond.true.i:                                      ; preds = %entry
  %3 = load ptr, ptr %Str.addr.i, align 8
  %call.i = call i64 @strlen(ptr noundef %3) #12
  br label %_ZN4llvh9StringRefC2EPKc.exit

cond.false.i:                                     ; preds = %entry
  br label %_ZN4llvh9StringRefC2EPKc.exit

_ZN4llvh9StringRefC2EPKc.exit:                    ; preds = %cond.false.i, %cond.true.i
  %cond.i = phi i64 [ %call.i, %cond.true.i ], [ 0, %cond.false.i ]
  store i64 %cond.i, ptr %Length.i, align 8
  %4 = getelementptr inbounds { ptr, i64 }, ptr %agg.tmp, i32 0, i32 0
  %5 = load ptr, ptr %4, align 8
  %6 = getelementptr inbounds { ptr, i64 }, ptr %agg.tmp, i32 0, i32 1
  %7 = load i64, ptr %6, align 8
  %call = call noundef nonnull align 8 dereferenceable(36) ptr @_ZN4llvh11raw_ostreamlsENS_9StringRefE(ptr noundef nonnull align 8 dereferenceable(36) %this1, ptr %5, i64 %7)
  ret ptr %call
}

declare noundef nonnull align 8 dereferenceable(36) ptr @_ZN4llvh11raw_ostream13write_escapedENS_9StringRefEb(ptr noundef nonnull align 8 dereferenceable(36), ptr, i64, i1 noundef zeroext) #2

; Function Attrs: mustprogress nounwind uwtable
define linkonce_odr hidden ptr @_ZNK4llvh9StringMapINS_9StringRefENS_15MallocAllocatorEE4findES1_(ptr noundef nonnull align 8 dereferenceable(25) %this, ptr %Key.coerce0, i64 %Key.coerce1) #0 comdat align 2 {
entry:
  %retval = alloca %"class.llvh::StringMapConstIterator", align 8
  %Key = alloca %"class.llvh::StringRef", align 8
  %this.addr = alloca ptr, align 8
  %Bucket = alloca i32, align 4
  %agg.tmp = alloca %"class.llvh::StringRef", align 8
  %0 = getelementptr inbounds { ptr, i64 }, ptr %Key, i32 0, i32 0
  store ptr %Key.coerce0, ptr %0, align 8
  %1 = getelementptr inbounds { ptr, i64 }, ptr %Key, i32 0, i32 1
  store i64 %Key.coerce1, ptr %1, align 8
  store ptr %this, ptr %this.addr, align 8
  %this1 = load ptr, ptr %this.addr, align 8
  call void @llvm.memcpy.p0.p0.i64(ptr align 8 %agg.tmp, ptr align 8 %Key, i64 16, i1 false)
  %2 = getelementptr inbounds { ptr, i64 }, ptr %agg.tmp, i32 0, i32 0
  %3 = load ptr, ptr %2, align 8
  %4 = getelementptr inbounds { ptr, i64 }, ptr %agg.tmp, i32 0, i32 1
  %5 = load i64, ptr %4, align 8
  %call = call noundef i32 @_ZNK4llvh13StringMapImpl7FindKeyENS_9StringRefE(ptr noundef nonnull align 8 dereferenceable(24) %this1, ptr %3, i64 %5)
  store i32 %call, ptr %Bucket, align 4
  %6 = load i32, ptr %Bucket, align 4
  %cmp = icmp eq i32 %6, -1
  br i1 %cmp, label %if.then, label %if.end

if.then:                                          ; preds = %entry
  %call2 = call ptr @_ZNK4llvh9StringMapINS_9StringRefENS_15MallocAllocatorEE3endEv(ptr noundef nonnull align 8 dereferenceable(25) %this1)
  %coerce.dive = getelementptr inbounds %"class.llvh::StringMapConstIterator", ptr %retval, i32 0, i32 0
  %coerce.dive3 = getelementptr inbounds %"class.llvh::StringMapIterBase.41", ptr %coerce.dive, i32 0, i32 0
  store ptr %call2, ptr %coerce.dive3, align 8
  br label %return

if.end:                                           ; preds = %entry
  %TheTable = getelementptr inbounds %"class.llvh::StringMapImpl", ptr %this1, i32 0, i32 0
  %7 = load ptr, ptr %TheTable, align 8
  %8 = load i32, ptr %Bucket, align 4
  %idx.ext = sext i32 %8 to i64
  %add.ptr = getelementptr inbounds ptr, ptr %7, i64 %idx.ext
  call void @_ZN4llvh22StringMapConstIteratorINS_9StringRefEEC2EPPNS_18StringMapEntryBaseEb(ptr noundef nonnull align 8 dereferenceable(8) %retval, ptr noundef %add.ptr, i1 noundef zeroext true)
  br label %return

return:                                           ; preds = %if.end, %if.then
  %coerce.dive4 = getelementptr inbounds %"class.llvh::StringMapConstIterator", ptr %retval, i32 0, i32 0
  %coerce.dive5 = getelementptr inbounds %"class.llvh::StringMapIterBase.41", ptr %coerce.dive4, i32 0, i32 0
  %9 = load ptr, ptr %coerce.dive5, align 8
  ret ptr %9
}

; Function Attrs: mustprogress nounwind uwtable
define linkonce_odr hidden noundef zeroext i1 @_ZNK4llvh17StringMapIterBaseINS_22StringMapConstIteratorINS_9StringRefEEEKNS_14StringMapEntryIS2_EEEeqERKS3_(ptr noundef nonnull align 8 dereferenceable(8) %this, ptr noundef nonnull align 8 dereferenceable(8) %RHS) #0 comdat align 2 {
entry:
  %this.addr = alloca ptr, align 8
  %RHS.addr = alloca ptr, align 8
  store ptr %this, ptr %this.addr, align 8
  store ptr %RHS, ptr %RHS.addr, align 8
  %this1 = load ptr, ptr %this.addr, align 8
  %Ptr = getelementptr inbounds %"class.llvh::StringMapIterBase.41", ptr %this1, i32 0, i32 0
  %0 = load ptr, ptr %Ptr, align 8
  %1 = load ptr, ptr %RHS.addr, align 8
  %Ptr2 = getelementptr inbounds %"class.llvh::StringMapIterBase.41", ptr %1, i32 0, i32 0
  %2 = load ptr, ptr %Ptr2, align 8
  %cmp = icmp eq ptr %0, %2
  ret i1 %cmp
}

; Function Attrs: mustprogress nounwind uwtable
define linkonce_odr hidden ptr @_ZNK4llvh9StringMapINS_9StringRefENS_15MallocAllocatorEE3endEv(ptr noundef nonnull align 8 dereferenceable(25) %this) #0 comdat align 2 {
entry:
  %retval = alloca %"class.llvh::StringMapConstIterator", align 8
  %this.addr = alloca ptr, align 8
  store ptr %this, ptr %this.addr, align 8
  %this1 = load ptr, ptr %this.addr, align 8
  %TheTable = getelementptr inbounds %"class.llvh::StringMapImpl", ptr %this1, i32 0, i32 0
  %0 = load ptr, ptr %TheTable, align 8
  %NumBuckets = getelementptr inbounds %"class.llvh::StringMapImpl", ptr %this1, i32 0, i32 1
  %1 = load i32, ptr %NumBuckets, align 8
  %idx.ext = zext i32 %1 to i64
  %add.ptr = getelementptr inbounds ptr, ptr %0, i64 %idx.ext
  call void @_ZN4llvh22StringMapConstIteratorINS_9StringRefEEC2EPPNS_18StringMapEntryBaseEb(ptr noundef nonnull align 8 dereferenceable(8) %retval, ptr noundef %add.ptr, i1 noundef zeroext true)
  %coerce.dive = getelementptr inbounds %"class.llvh::StringMapConstIterator", ptr %retval, i32 0, i32 0
  %coerce.dive2 = getelementptr inbounds %"class.llvh::StringMapIterBase.41", ptr %coerce.dive, i32 0, i32 0
  %2 = load ptr, ptr %coerce.dive2, align 8
  ret ptr %2
}

; Function Attrs: mustprogress nounwind uwtable
define linkonce_odr hidden noundef ptr @_ZN4llvh20iterator_facade_baseINS_22StringMapConstIteratorINS_9StringRefEEESt20forward_iterator_tagKNS_14StringMapEntryIS2_EElPS7_RS7_EptEv(ptr noundef nonnull align 1 dereferenceable(1) %this) #0 comdat align 2 {
entry:
  %this.addr = alloca ptr, align 8
  store ptr %this, ptr %this.addr, align 8
  %this1 = load ptr, ptr %this.addr, align 8
  %call = call noundef nonnull align 8 dereferenceable(24) ptr @_ZNK4llvh22StringMapConstIteratorINS_9StringRefEEdeEv(ptr noundef nonnull align 8 dereferenceable(8) %this1)
  ret ptr %call
}

; Function Attrs: mustprogress nounwind uwtable
define linkonce_odr hidden noundef zeroext i1 @_ZNK4llvh7SMRange7isValidEv(ptr noundef nonnull align 8 dereferenceable(16) %this) #0 comdat align 2 {
entry:
  %this.addr = alloca ptr, align 8
  store ptr %this, ptr %this.addr, align 8
  %this1 = load ptr, ptr %this.addr, align 8
  %Start = getelementptr inbounds %"class.llvh::SMRange", ptr %this1, i32 0, i32 0
  %call = call noundef zeroext i1 @_ZNK4llvh5SMLoc7isValidEv(ptr noundef nonnull align 8 dereferenceable(8) %Start)
  ret i1 %call
}

; Function Attrs: mustprogress nounwind uwtable
define linkonce_odr hidden { ptr, i64 } @_ZN4llvh19raw_svector_ostream3strEv(ptr noundef nonnull align 8 dereferenceable(48) %this) #0 comdat align 2 {
entry:
  %this.addr.i = alloca ptr, align 8
  %data.addr.i = alloca ptr, align 8
  %length.addr.i = alloca i64, align 8
  %retval = alloca %"class.llvh::StringRef", align 8
  %this.addr = alloca ptr, align 8
  store ptr %this, ptr %this.addr, align 8
  %this1 = load ptr, ptr %this.addr, align 8
  %OS = getelementptr inbounds %"class.llvh::raw_svector_ostream", ptr %this1, i32 0, i32 1
  %0 = load ptr, ptr %OS, align 8
  %call = call noundef ptr @_ZN4llvh25SmallVectorTemplateCommonIcvE4dataEv(ptr noundef nonnull align 8 dereferenceable(16) %0)
  %OS2 = getelementptr inbounds %"class.llvh::raw_svector_ostream", ptr %this1, i32 0, i32 1
  %1 = load ptr, ptr %OS2, align 8
  %call3 = call noundef i64 @_ZNK4llvh15SmallVectorBase4sizeEv(ptr noundef nonnull align 8 dereferenceable(16) %1)
  store ptr %retval, ptr %this.addr.i, align 8
  store ptr %call, ptr %data.addr.i, align 8
  store i64 %call3, ptr %length.addr.i, align 8
  %this1.i = load ptr, ptr %this.addr.i, align 8
  %2 = load ptr, ptr %data.addr.i, align 8
  store ptr %2, ptr %this1.i, align 8
  %Length.i = getelementptr inbounds %"class.llvh::StringRef", ptr %this1.i, i32 0, i32 1
  %3 = load i64, ptr %length.addr.i, align 8
  store i64 %3, ptr %Length.i, align 8
  %4 = load { ptr, i64 }, ptr %retval, align 8
  ret { ptr, i64 } %4
}

; Function Attrs: mustprogress nounwind uwtable
define linkonce_odr hidden void @_ZN4llvh5TwineC2ERKNS_9StringRefE(ptr noundef nonnull align 8 dereferenceable(18) %this, ptr noundef nonnull align 8 dereferenceable(16) %Str) unnamed_addr #0 comdat align 2 {
entry:
  %this.addr = alloca ptr, align 8
  %Str.addr = alloca ptr, align 8
  store ptr %this, ptr %this.addr, align 8
  store ptr %Str, ptr %Str.addr, align 8
  %this1 = load ptr, ptr %this.addr, align 8
  %LHSKind = getelementptr inbounds %"class.llvh::Twine", ptr %this1, i32 0, i32 2
  store i8 5, ptr %LHSKind, align 8
  %RHSKind = getelementptr inbounds %"class.llvh::Twine", ptr %this1, i32 0, i32 3
  store i8 1, ptr %RHSKind, align 1
  %0 = load ptr, ptr %Str.addr, align 8
  %LHS2 = getelementptr inbounds %"class.llvh::Twine", ptr %this1, i32 0, i32 0
  store ptr %0, ptr %LHS2, align 8
  ret void
}

; Function Attrs: mustprogress nounwind uwtable
define linkonce_odr hidden void @_ZN4llvh8ArrayRefINS_7SMRangeEEC2ERKSt16initializer_listIS1_E(ptr noundef nonnull align 8 dereferenceable(16) %this, ptr noundef nonnull align 8 dereferenceable(16) %Vec) unnamed_addr #0 comdat align 2 {
entry:
  %this.addr = alloca ptr, align 8
  %Vec.addr = alloca ptr, align 8
  store ptr %this, ptr %this.addr, align 8
  store ptr %Vec, ptr %Vec.addr, align 8
  %this1 = load ptr, ptr %this.addr, align 8
  %Data = getelementptr inbounds %"class.llvh::ArrayRef", ptr %this1, i32 0, i32 0
  %0 = load ptr, ptr %Vec.addr, align 8
  %call = call noundef ptr @_ZNKSt16initializer_listIN4llvh7SMRangeEE5beginEv(ptr noundef nonnull align 8 dereferenceable(16) %0) #13
  %1 = load ptr, ptr %Vec.addr, align 8
  %call2 = call noundef ptr @_ZNKSt16initializer_listIN4llvh7SMRangeEE3endEv(ptr noundef nonnull align 8 dereferenceable(16) %1) #13
  %cmp = icmp eq ptr %call, %call2
  br i1 %cmp, label %cond.true, label %cond.false

cond.true:                                        ; preds = %entry
  br label %cond.end

cond.false:                                       ; preds = %entry
  %2 = load ptr, ptr %Vec.addr, align 8
  %call3 = call noundef ptr @_ZNKSt16initializer_listIN4llvh7SMRangeEE5beginEv(ptr noundef nonnull align 8 dereferenceable(16) %2) #13
  br label %cond.end

cond.end:                                         ; preds = %cond.false, %cond.true
  %cond = phi ptr [ null, %cond.true ], [ %call3, %cond.false ]
  store ptr %cond, ptr %Data, align 8
  %Length = getelementptr inbounds %"class.llvh::ArrayRef", ptr %this1, i32 0, i32 1
  %3 = load ptr, ptr %Vec.addr, align 8
  %call4 = call noundef i64 @_ZNKSt16initializer_listIN4llvh7SMRangeEE4sizeEv(ptr noundef nonnull align 8 dereferenceable(16) %3) #13
  store i64 %call4, ptr %Length, align 8
  ret void
}

; Function Attrs: mustprogress nounwind uwtable
define linkonce_odr hidden void @_ZN4llvh19raw_svector_ostreamD2Ev(ptr noundef nonnull align 8 dereferenceable(48) %this) unnamed_addr #0 comdat align 2 {
entry:
  %this.addr = alloca ptr, align 8
  store ptr %this, ptr %this.addr, align 8
  %this1 = load ptr, ptr %this.addr, align 8
  call void @_ZN4llvh17raw_pwrite_streamD2Ev(ptr noundef nonnull align 8 dereferenceable(36) %this1) #13
  ret void
}

; Function Attrs: mustprogress nounwind uwtable
define linkonce_odr hidden void @_ZN4llvh11SmallStringILj256EED2Ev(ptr noundef nonnull align 8 dereferenceable(272) %this) unnamed_addr #0 comdat align 2 {
entry:
  %this.addr = alloca ptr, align 8
  store ptr %this, ptr %this.addr, align 8
  %this1 = load ptr, ptr %this.addr, align 8
  call void @_ZN4llvh11SmallVectorIcLj256EED2Ev(ptr noundef nonnull align 8 dereferenceable(272) %this1) #13
  ret void
}

; Function Attrs: mustprogress nounwind uwtable
define hidden void @_ZNK4llvh16FileCheckPattern15PrintFuzzyMatchERKNS_9SourceMgrENS_9StringRefERKNS_9StringMapIS4_NS_15MallocAllocatorEEE(ptr noundef nonnull align 8 dereferenceable(136) %this, ptr noundef nonnull align 8 dereferenceable(120) %SM, ptr %Buffer.coerce0, i64 %Buffer.coerce1, ptr noundef nonnull align 8 dereferenceable(25) %VariableTable) #0 align 2 {
entry:
  %this.addr.i41 = alloca ptr, align 8
  %data.addr.i = alloca ptr, align 8
  %length.addr.i = alloca i64, align 8
  %this.addr.i38 = alloca ptr, align 8
  %retval.i = alloca %"class.llvh::StringRef", align 8
  %this.addr.i36 = alloca ptr, align 8
  %Start.addr.i = alloca i64, align 8
  %N.addr.i = alloca i64, align 8
  %ref.tmp.i = alloca i64, align 8
  %this.addr.i = alloca ptr, align 8
  %Buffer = alloca %"class.llvh::StringRef", align 8
  %this.addr = alloca ptr, align 8
  %SM.addr = alloca ptr, align 8
  %VariableTable.addr = alloca ptr, align 8
  %NumLinesForward = alloca i64, align 8
  %Best = alloca i64, align 8
  %BestQuality = alloca double, align 8
  %i = alloca i64, align 8
  %e = alloca i64, align 8
  %ref.tmp = alloca i64, align 8
  %ref.tmp2 = alloca i64, align 8
  %Distance = alloca i32, align 4
  %agg.tmp = alloca %"class.llvh::StringRef", align 8
  %Quality = alloca double, align 8
  %agg.tmp28 = alloca %"class.llvh::SMLoc", align 8
  %ref.tmp31 = alloca %"class.llvh::Twine", align 8
  %agg.tmp32 = alloca %"class.llvh::ArrayRef", align 8
  %agg.tmp33 = alloca %"class.llvh::ArrayRef.24", align 8
  %0 = getelementptr inbounds { ptr, i64 }, ptr %Buffer, i32 0, i32 0
  store ptr %Buffer.coerce0, ptr %0, align 8
  %1 = getelementptr inbounds { ptr, i64 }, ptr %Buffer, i32 0, i32 1
  store i64 %Buffer.coerce1, ptr %1, align 8
  store ptr %this, ptr %this.addr, align 8
  store ptr %SM, ptr %SM.addr, align 8
  store ptr %VariableTable, ptr %VariableTable.addr, align 8
  %this1 = load ptr, ptr %this.addr, align 8
  store i64 0, ptr %NumLinesForward, align 8
  store i64 -1, ptr %Best, align 8
  store double 0.000000e+00, ptr %BestQuality, align 8
  store i64 0, ptr %i, align 8
  store i64 4096, ptr %ref.tmp, align 8
  store ptr %Buffer, ptr %this.addr.i38, align 8
  %this1.i39 = load ptr, ptr %this.addr.i38, align 8
  %Length.i40 = getelementptr inbounds %"class.llvh::StringRef", ptr %this1.i39, i32 0, i32 1
  %2 = load i64, ptr %Length.i40, align 8
  store i64 %2, ptr %ref.tmp2, align 8
  %call3 = call noundef nonnull align 8 dereferenceable(8) ptr @_ZSt3minImERKT_S2_S2_(ptr noundef nonnull align 8 dereferenceable(8) %ref.tmp, ptr noundef nonnull align 8 dereferenceable(8) %ref.tmp2)
  %3 = load i64, ptr %call3, align 8
  store i64 %3, ptr %e, align 8
  br label %for.cond

for.cond:                                         ; preds = %for.inc, %entry
  %4 = load i64, ptr %i, align 8
  %5 = load i64, ptr %e, align 8
  %cmp = icmp ne i64 %4, %5
  br i1 %cmp, label %for.body, label %for.end

for.body:                                         ; preds = %for.cond
  %6 = load i64, ptr %i, align 8
  %call4 = call noundef signext i8 @_ZNK4llvh9StringRefixEm(ptr noundef nonnull align 8 dereferenceable(16) %Buffer, i64 noundef %6)
  %conv = sext i8 %call4 to i32
  %cmp5 = icmp eq i32 %conv, 10
  br i1 %cmp5, label %if.then, label %if.end

if.then:                                          ; preds = %for.body
  %7 = load i64, ptr %NumLinesForward, align 8
  %inc = add i64 %7, 1
  store i64 %inc, ptr %NumLinesForward, align 8
  br label %if.end

if.end:                                           ; preds = %if.then, %for.body
  %8 = load i64, ptr %i, align 8
  %call6 = call noundef signext i8 @_ZNK4llvh9StringRefixEm(ptr noundef nonnull align 8 dereferenceable(16) %Buffer, i64 noundef %8)
  %conv7 = sext i8 %call6 to i32
  %cmp8 = icmp eq i32 %conv7, 32
  br i1 %cmp8, label %if.then12, label %lor.lhs.false

lor.lhs.false:                                    ; preds = %if.end
  %9 = load i64, ptr %i, align 8
  %call9 = call noundef signext i8 @_ZNK4llvh9StringRefixEm(ptr noundef nonnull align 8 dereferenceable(16) %Buffer, i64 noundef %9)
  %conv10 = sext i8 %call9 to i32
  %cmp11 = icmp eq i32 %conv10, 9
  br i1 %cmp11, label %if.then12, label %if.end13

if.then12:                                        ; preds = %lor.lhs.false, %if.end
  br label %for.inc

if.end13:                                         ; preds = %lor.lhs.false
  %10 = load i64, ptr %i, align 8
  store ptr %Buffer, ptr %this.addr.i36, align 8
  store i64 %10, ptr %Start.addr.i, align 8
  store i64 -1, ptr %N.addr.i, align 8
  %this1.i37 = load ptr, ptr %this.addr.i36, align 8
  %Length.i = getelementptr inbounds %"class.llvh::StringRef", ptr %this1.i37, i32 0, i32 1
  %call.i = call noundef nonnull align 8 dereferenceable(8) ptr @_ZSt3minImERKT_S2_S2_(ptr noundef nonnull align 8 dereferenceable(8) %Start.addr.i, ptr noundef nonnull align 8 dereferenceable(8) %Length.i)
  %11 = load i64, ptr %call.i, align 8
  store i64 %11, ptr %Start.addr.i, align 8
  %12 = load ptr, ptr %this1.i37, align 8
  %13 = load i64, ptr %Start.addr.i, align 8
  %add.ptr.i = getelementptr inbounds i8, ptr %12, i64 %13
  %Length2.i = getelementptr inbounds %"class.llvh::StringRef", ptr %this1.i37, i32 0, i32 1
  %14 = load i64, ptr %Length2.i, align 8
  %15 = load i64, ptr %Start.addr.i, align 8
  %sub.i = sub i64 %14, %15
  store i64 %sub.i, ptr %ref.tmp.i, align 8
  %call3.i = call noundef nonnull align 8 dereferenceable(8) ptr @_ZSt3minImERKT_S2_S2_(ptr noundef nonnull align 8 dereferenceable(8) %N.addr.i, ptr noundef nonnull align 8 dereferenceable(8) %ref.tmp.i)
  %16 = load i64, ptr %call3.i, align 8
  store ptr %retval.i, ptr %this.addr.i41, align 8
  store ptr %add.ptr.i, ptr %data.addr.i, align 8
  store i64 %16, ptr %length.addr.i, align 8
  %this1.i42 = load ptr, ptr %this.addr.i41, align 8
  %17 = load ptr, ptr %data.addr.i, align 8
  store ptr %17, ptr %this1.i42, align 8
  %Length.i43 = getelementptr inbounds %"class.llvh::StringRef", ptr %this1.i42, i32 0, i32 1
  %18 = load i64, ptr %length.addr.i, align 8
  store i64 %18, ptr %Length.i43, align 8
  %19 = load { ptr, i64 }, ptr %retval.i, align 8
  %20 = getelementptr inbounds { ptr, i64 }, ptr %agg.tmp, i32 0, i32 0
  %21 = extractvalue { ptr, i64 } %19, 0
  store ptr %21, ptr %20, align 8
  %22 = getelementptr inbounds { ptr, i64 }, ptr %agg.tmp, i32 0, i32 1
  %23 = extractvalue { ptr, i64 } %19, 1
  store i64 %23, ptr %22, align 8
  %24 = load ptr, ptr %VariableTable.addr, align 8
  %25 = getelementptr inbounds { ptr, i64 }, ptr %agg.tmp, i32 0, i32 0
  %26 = load ptr, ptr %25, align 8
  %27 = getelementptr inbounds { ptr, i64 }, ptr %agg.tmp, i32 0, i32 1
  %28 = load i64, ptr %27, align 8
  %call15 = call noundef i32 @_ZNK4llvh16FileCheckPattern20ComputeMatchDistanceENS_9StringRefERKNS_9StringMapIS1_NS_15MallocAllocatorEEE(ptr noundef nonnull align 8 dereferenceable(136) %this1, ptr %26, i64 %28, ptr noundef nonnull align 8 dereferenceable(25) %24)
  store i32 %call15, ptr %Distance, align 4
  %29 = load i32, ptr %Distance, align 4
  %conv16 = uitofp i32 %29 to double
  %30 = load i64, ptr %NumLinesForward, align 8
  %conv17 = uitofp i64 %30 to double
  %div = fdiv double %conv17, 1.000000e+02
  %add = fadd double %conv16, %div
  store double %add, ptr %Quality, align 8
  %31 = load double, ptr %Quality, align 8
  %32 = load double, ptr %BestQuality, align 8
  %cmp18 = fcmp olt double %31, %32
  br i1 %cmp18, label %if.then21, label %lor.lhs.false19

lor.lhs.false19:                                  ; preds = %if.end13
  %33 = load i64, ptr %Best, align 8
  %cmp20 = icmp eq i64 %33, -1
  br i1 %cmp20, label %if.then21, label %if.end22

if.then21:                                        ; preds = %lor.lhs.false19, %if.end13
  %34 = load i64, ptr %i, align 8
  store i64 %34, ptr %Best, align 8
  %35 = load double, ptr %Quality, align 8
  store double %35, ptr %BestQuality, align 8
  br label %if.end22

if.end22:                                         ; preds = %if.then21, %lor.lhs.false19
  br label %for.inc

for.inc:                                          ; preds = %if.end22, %if.then12
  %36 = load i64, ptr %i, align 8
  %inc23 = add i64 %36, 1
  store i64 %inc23, ptr %i, align 8
  br label %for.cond, !llvm.loop !9

for.end:                                          ; preds = %for.cond
  %37 = load i64, ptr %Best, align 8
  %tobool = icmp ne i64 %37, 0
  br i1 %tobool, label %land.lhs.true, label %if.end35

land.lhs.true:                                    ; preds = %for.end
  %38 = load i64, ptr %Best, align 8
  %cmp24 = icmp ne i64 %38, -1
  br i1 %cmp24, label %land.lhs.true25, label %if.end35

land.lhs.true25:                                  ; preds = %land.lhs.true
  %39 = load double, ptr %BestQuality, align 8
  %cmp26 = fcmp olt double %39, 5.000000e+01
  br i1 %cmp26, label %if.then27, label %if.end35

if.then27:                                        ; preds = %land.lhs.true25
  %40 = load ptr, ptr %SM.addr, align 8
  store ptr %Buffer, ptr %this.addr.i, align 8
  %this1.i = load ptr, ptr %this.addr.i, align 8
  %41 = load ptr, ptr %this1.i, align 8
  %42 = load i64, ptr %Best, align 8
  %add.ptr = getelementptr inbounds i8, ptr %41, i64 %42
  %call30 = call ptr @_ZN4llvh5SMLoc14getFromPointerEPKc(ptr noundef %add.ptr)
  %coerce.dive = getelementptr inbounds %"class.llvh::SMLoc", ptr %agg.tmp28, i32 0, i32 0
  store ptr %call30, ptr %coerce.dive, align 8
  call void @_ZN4llvh5TwineC2EPKc(ptr noundef nonnull align 8 dereferenceable(18) %ref.tmp31, ptr noundef @.str.23)
  call void @_ZN4llvh8ArrayRefINS_7SMRangeEEC2ENS_8NoneTypeE(ptr noundef nonnull align 8 dereferenceable(16) %agg.tmp32, i32 noundef 1)
  call void @_ZN4llvh8ArrayRefINS_7SMFixItEEC2ENS_8NoneTypeE(ptr noundef nonnull align 8 dereferenceable(16) %agg.tmp33, i32 noundef 1)
  %coerce.dive34 = getelementptr inbounds %"class.llvh::SMLoc", ptr %agg.tmp28, i32 0, i32 0
  %43 = load ptr, ptr %coerce.dive34, align 8
  %44 = getelementptr inbounds { ptr, i64 }, ptr %agg.tmp32, i32 0, i32 0
  %45 = load ptr, ptr %44, align 8
  %46 = getelementptr inbounds { ptr, i64 }, ptr %agg.tmp32, i32 0, i32 1
  %47 = load i64, ptr %46, align 8
  call void @_ZNK4llvh9SourceMgr12PrintMessageENS_5SMLocENS0_8DiagKindERKNS_5TwineENS_8ArrayRefINS_7SMRangeEEENS6_INS_7SMFixItEEEb(ptr noundef nonnull align 8 dereferenceable(120) %40, ptr %43, i32 noundef 3, ptr noundef nonnull align 8 dereferenceable(18) %ref.tmp31, ptr %45, i64 %47, ptr noundef byval(%"class.llvh::ArrayRef.24") align 8 %agg.tmp33, i1 noundef zeroext true)
  br label %if.end35

if.end35:                                         ; preds = %if.then27, %land.lhs.true25, %land.lhs.true, %for.end
  ret void
}

; Function Attrs: noreturn nounwind
declare void @exit(i32 noundef) #5

; Function Attrs: mustprogress nounwind uwtable
define hidden { ptr, i64 } @_ZN4llvh9FileCheck16CanonicalizeFileERNS_12MemoryBufferERNS_15SmallVectorImplIcEE(ptr noundef nonnull align 8 dereferenceable(88) %this, ptr noundef nonnull align 8 dereferenceable(24) %MB, ptr noundef nonnull align 8 dereferenceable(16) %OutputBuffer) #0 align 2 {
entry:
  %this.addr.i = alloca ptr, align 8
  %data.addr.i = alloca ptr, align 8
  %length.addr.i = alloca i64, align 8
  %retval = alloca %"class.llvh::StringRef", align 8
  %this.addr = alloca ptr, align 8
  %MB.addr = alloca ptr, align 8
  %OutputBuffer.addr = alloca ptr, align 8
  %Ptr = alloca ptr, align 8
  %End = alloca ptr, align 8
  %ref.tmp = alloca i8, align 1
  %ref.tmp26 = alloca i8, align 1
  store ptr %this, ptr %this.addr, align 8
  store ptr %MB, ptr %MB.addr, align 8
  store ptr %OutputBuffer, ptr %OutputBuffer.addr, align 8
  %this1 = load ptr, ptr %this.addr, align 8
  %0 = load ptr, ptr %OutputBuffer.addr, align 8
  %1 = load ptr, ptr %MB.addr, align 8
  %call = call noundef i64 @_ZNK4llvh12MemoryBuffer13getBufferSizeEv(ptr noundef nonnull align 8 dereferenceable(24) %1)
  call void @_ZN4llvh15SmallVectorImplIcE7reserveEm(ptr noundef nonnull align 8 dereferenceable(16) %0, i64 noundef %call)
  %2 = load ptr, ptr %MB.addr, align 8
  %call2 = call noundef ptr @_ZNK4llvh12MemoryBuffer14getBufferStartEv(ptr noundef nonnull align 8 dereferenceable(24) %2)
  store ptr %call2, ptr %Ptr, align 8
  %3 = load ptr, ptr %MB.addr, align 8
  %call3 = call noundef ptr @_ZNK4llvh12MemoryBuffer12getBufferEndEv(ptr noundef nonnull align 8 dereferenceable(24) %3)
  store ptr %call3, ptr %End, align 8
  br label %for.cond

for.cond:                                         ; preds = %for.inc, %entry
  %4 = load ptr, ptr %Ptr, align 8
  %5 = load ptr, ptr %End, align 8
  %cmp = icmp ne ptr %4, %5
  br i1 %cmp, label %for.body, label %for.end

for.body:                                         ; preds = %for.cond
  %6 = load ptr, ptr %Ptr, align 8
  %7 = load ptr, ptr %End, align 8
  %add.ptr = getelementptr inbounds i8, ptr %7, i64 -2
  %cmp4 = icmp ule ptr %6, %add.ptr
  br i1 %cmp4, label %land.lhs.true, label %if.end

land.lhs.true:                                    ; preds = %for.body
  %8 = load ptr, ptr %Ptr, align 8
  %arrayidx = getelementptr inbounds i8, ptr %8, i64 0
  %9 = load i8, ptr %arrayidx, align 1
  %conv = sext i8 %9 to i32
  %cmp5 = icmp eq i32 %conv, 13
  br i1 %cmp5, label %land.lhs.true6, label %if.end

land.lhs.true6:                                   ; preds = %land.lhs.true
  %10 = load ptr, ptr %Ptr, align 8
  %arrayidx7 = getelementptr inbounds i8, ptr %10, i64 1
  %11 = load i8, ptr %arrayidx7, align 1
  %conv8 = sext i8 %11 to i32
  %cmp9 = icmp eq i32 %conv8, 10
  br i1 %cmp9, label %if.then, label %if.end

if.then:                                          ; preds = %land.lhs.true6
  br label %for.inc

if.end:                                           ; preds = %land.lhs.true6, %land.lhs.true, %for.body
  %Req = getelementptr inbounds %"class.llvh::FileCheck", ptr %this1, i32 0, i32 0
  %NoCanonicalizeWhiteSpace = getelementptr inbounds %"struct.llvh::FileCheckRequest", ptr %Req, i32 0, i32 1
  %12 = load i8, ptr %NoCanonicalizeWhiteSpace, align 8
  %tobool = trunc i8 %12 to i1
  br i1 %tobool, label %if.then15, label %lor.lhs.false

lor.lhs.false:                                    ; preds = %if.end
  %13 = load ptr, ptr %Ptr, align 8
  %14 = load i8, ptr %13, align 1
  %conv10 = sext i8 %14 to i32
  %cmp11 = icmp ne i32 %conv10, 32
  br i1 %cmp11, label %land.lhs.true12, label %if.end16

land.lhs.true12:                                  ; preds = %lor.lhs.false
  %15 = load ptr, ptr %Ptr, align 8
  %16 = load i8, ptr %15, align 1
  %conv13 = sext i8 %16 to i32
  %cmp14 = icmp ne i32 %conv13, 9
  br i1 %cmp14, label %if.then15, label %if.end16

if.then15:                                        ; preds = %land.lhs.true12, %if.end
  %17 = load ptr, ptr %OutputBuffer.addr, align 8
  %18 = load ptr, ptr %Ptr, align 8
  call void @_ZN4llvh23SmallVectorTemplateBaseIcLb1EE9push_backERKc(ptr noundef nonnull align 8 dereferenceable(16) %17, ptr noundef nonnull align 1 dereferenceable(1) %18)
  br label %for.inc

if.end16:                                         ; preds = %land.lhs.true12, %lor.lhs.false
  %19 = load ptr, ptr %OutputBuffer.addr, align 8
  store i8 32, ptr %ref.tmp, align 1
  call void @_ZN4llvh23SmallVectorTemplateBaseIcLb1EE9push_backERKc(ptr noundef nonnull align 8 dereferenceable(16) %19, ptr noundef nonnull align 1 dereferenceable(1) %ref.tmp)
  br label %while.cond

while.cond:                                       ; preds = %while.body, %if.end16
  %20 = load ptr, ptr %Ptr, align 8
  %add.ptr17 = getelementptr inbounds i8, ptr %20, i64 1
  %21 = load ptr, ptr %End, align 8
  %cmp18 = icmp ne ptr %add.ptr17, %21
  br i1 %cmp18, label %land.rhs, label %land.end

land.rhs:                                         ; preds = %while.cond
  %22 = load ptr, ptr %Ptr, align 8
  %arrayidx19 = getelementptr inbounds i8, ptr %22, i64 1
  %23 = load i8, ptr %arrayidx19, align 1
  %conv20 = sext i8 %23 to i32
  %cmp21 = icmp eq i32 %conv20, 32
  br i1 %cmp21, label %lor.end, label %lor.rhs

lor.rhs:                                          ; preds = %land.rhs
  %24 = load ptr, ptr %Ptr, align 8
  %arrayidx22 = getelementptr inbounds i8, ptr %24, i64 1
  %25 = load i8, ptr %arrayidx22, align 1
  %conv23 = sext i8 %25 to i32
  %cmp24 = icmp eq i32 %conv23, 9
  br label %lor.end

lor.end:                                          ; preds = %lor.rhs, %land.rhs
  %26 = phi i1 [ true, %land.rhs ], [ %cmp24, %lor.rhs ]
  br label %land.end

land.end:                                         ; preds = %lor.end, %while.cond
  %27 = phi i1 [ false, %while.cond ], [ %26, %lor.end ]
  br i1 %27, label %while.body, label %while.end

while.body:                                       ; preds = %land.end
  %28 = load ptr, ptr %Ptr, align 8
  %incdec.ptr = getelementptr inbounds i8, ptr %28, i32 1
  store ptr %incdec.ptr, ptr %Ptr, align 8
  br label %while.cond, !llvm.loop !10

while.end:                                        ; preds = %land.end
  br label %for.inc

for.inc:                                          ; preds = %while.end, %if.then15, %if.then
  %29 = load ptr, ptr %Ptr, align 8
  %incdec.ptr25 = getelementptr inbounds i8, ptr %29, i32 1
  store ptr %incdec.ptr25, ptr %Ptr, align 8
  br label %for.cond, !llvm.loop !11

for.end:                                          ; preds = %for.cond
  %30 = load ptr, ptr %OutputBuffer.addr, align 8
  store i8 0, ptr %ref.tmp26, align 1
  call void @_ZN4llvh23SmallVectorTemplateBaseIcLb1EE9push_backERKc(ptr noundef nonnull align 8 dereferenceable(16) %30, ptr noundef nonnull align 1 dereferenceable(1) %ref.tmp26)
  %31 = load ptr, ptr %OutputBuffer.addr, align 8
  %call27 = call noundef ptr @_ZN4llvh25SmallVectorTemplateCommonIcvE4dataEv(ptr noundef nonnull align 8 dereferenceable(16) %31)
  %32 = load ptr, ptr %OutputBuffer.addr, align 8
  %call28 = call noundef i64 @_ZNK4llvh15SmallVectorBase4sizeEv(ptr noundef nonnull align 8 dereferenceable(16) %32)
  %sub = sub i64 %call28, 1
  store ptr %retval, ptr %this.addr.i, align 8
  store ptr %call27, ptr %data.addr.i, align 8
  store i64 %sub, ptr %length.addr.i, align 8
  %this1.i = load ptr, ptr %this.addr.i, align 8
  %33 = load ptr, ptr %data.addr.i, align 8
  store ptr %33, ptr %this1.i, align 8
  %Length.i = getelementptr inbounds %"class.llvh::StringRef", ptr %this1.i, i32 0, i32 1
  %34 = load i64, ptr %length.addr.i, align 8
  store i64 %34, ptr %Length.i, align 8
  %35 = load { ptr, i64 }, ptr %retval, align 8
  ret { ptr, i64 } %35
}

; Function Attrs: mustprogress nounwind uwtable
define linkonce_odr hidden void @_ZN4llvh15SmallVectorImplIcE7reserveEm(ptr noundef nonnull align 8 dereferenceable(16) %this, i64 noundef %N) #0 comdat align 2 {
entry:
  %this.addr = alloca ptr, align 8
  %N.addr = alloca i64, align 8
  store ptr %this, ptr %this.addr, align 8
  store i64 %N, ptr %N.addr, align 8
  %this1 = load ptr, ptr %this.addr, align 8
  %call = call noundef i64 @_ZNK4llvh15SmallVectorBase8capacityEv(ptr noundef nonnull align 8 dereferenceable(16) %this1)
  %0 = load i64, ptr %N.addr, align 8
  %cmp = icmp ult i64 %call, %0
  br i1 %cmp, label %if.then, label %if.end

if.then:                                          ; preds = %entry
  %1 = load i64, ptr %N.addr, align 8
  call void @_ZN4llvh23SmallVectorTemplateBaseIcLb1EE4growEm(ptr noundef nonnull align 8 dereferenceable(16) %this1, i64 noundef %1)
  br label %if.end

if.end:                                           ; preds = %if.then, %entry
  ret void
}

; Function Attrs: mustprogress nounwind uwtable
define linkonce_odr hidden noundef i64 @_ZNK4llvh12MemoryBuffer13getBufferSizeEv(ptr noundef nonnull align 8 dereferenceable(24) %this) #0 comdat align 2 {
entry:
  %this.addr = alloca ptr, align 8
  store ptr %this, ptr %this.addr, align 8
  %this1 = load ptr, ptr %this.addr, align 8
  %BufferEnd = getelementptr inbounds %"class.llvh::MemoryBuffer", ptr %this1, i32 0, i32 2
  %0 = load ptr, ptr %BufferEnd, align 8
  %BufferStart = getelementptr inbounds %"class.llvh::MemoryBuffer", ptr %this1, i32 0, i32 1
  %1 = load ptr, ptr %BufferStart, align 8
  %sub.ptr.lhs.cast = ptrtoint ptr %0 to i64
  %sub.ptr.rhs.cast = ptrtoint ptr %1 to i64
  %sub.ptr.sub = sub i64 %sub.ptr.lhs.cast, %sub.ptr.rhs.cast
  ret i64 %sub.ptr.sub
}

; Function Attrs: mustprogress nounwind uwtable
define linkonce_odr hidden noundef ptr @_ZNK4llvh12MemoryBuffer14getBufferStartEv(ptr noundef nonnull align 8 dereferenceable(24) %this) #0 comdat align 2 {
entry:
  %this.addr = alloca ptr, align 8
  store ptr %this, ptr %this.addr, align 8
  %this1 = load ptr, ptr %this.addr, align 8
  %BufferStart = getelementptr inbounds %"class.llvh::MemoryBuffer", ptr %this1, i32 0, i32 1
  %0 = load ptr, ptr %BufferStart, align 8
  ret ptr %0
}

; Function Attrs: mustprogress nounwind uwtable
define linkonce_odr hidden noundef ptr @_ZNK4llvh12MemoryBuffer12getBufferEndEv(ptr noundef nonnull align 8 dereferenceable(24) %this) #0 comdat align 2 {
entry:
  %this.addr = alloca ptr, align 8
  store ptr %this, ptr %this.addr, align 8
  %this1 = load ptr, ptr %this.addr, align 8
  %BufferEnd = getelementptr inbounds %"class.llvh::MemoryBuffer", ptr %this1, i32 0, i32 2
  %0 = load ptr, ptr %BufferEnd, align 8
  ret ptr %0
}

; Function Attrs: mustprogress nounwind uwtable
define linkonce_odr hidden void @_ZN4llvh23SmallVectorTemplateBaseIcLb1EE9push_backERKc(ptr noundef nonnull align 8 dereferenceable(16) %this, ptr noundef nonnull align 1 dereferenceable(1) %Elt) #0 comdat align 2 {
entry:
  %this.addr.i.i = alloca ptr, align 8
  %this.addr.i = alloca ptr, align 8
  %this.addr = alloca ptr, align 8
  %Elt.addr = alloca ptr, align 8
  store ptr %this, ptr %this.addr, align 8
  store ptr %Elt, ptr %Elt.addr, align 8
  %this1 = load ptr, ptr %this.addr, align 8
  %call = call noundef i64 @_ZNK4llvh15SmallVectorBase4sizeEv(ptr noundef nonnull align 8 dereferenceable(16) %this1)
  %call2 = call noundef i64 @_ZNK4llvh15SmallVectorBase8capacityEv(ptr noundef nonnull align 8 dereferenceable(16) %this1)
  %cmp = icmp uge i64 %call, %call2
  br i1 %cmp, label %if.then, label %if.end

if.then:                                          ; preds = %entry
  call void @_ZN4llvh23SmallVectorTemplateBaseIcLb1EE4growEm(ptr noundef nonnull align 8 dereferenceable(16) %this1, i64 noundef 0)
  br label %if.end

if.end:                                           ; preds = %if.then, %entry
  store ptr %this1, ptr %this.addr.i, align 8
  %this1.i = load ptr, ptr %this.addr.i, align 8
  store ptr %this1.i, ptr %this.addr.i.i, align 8
  %this1.i.i = load ptr, ptr %this.addr.i.i, align 8
  %0 = load ptr, ptr %this1.i.i, align 8
  %call2.i = call noundef i64 @_ZNK4llvh15SmallVectorBase4sizeEv(ptr noundef nonnull align 8 dereferenceable(16) %this1.i)
  %add.ptr.i = getelementptr inbounds i8, ptr %0, i64 %call2.i
  %1 = load ptr, ptr %Elt.addr, align 8
  call void @llvm.memcpy.p0.p0.i64(ptr align 1 %add.ptr.i, ptr align 1 %1, i64 1, i1 false)
  %call4 = call noundef i64 @_ZNK4llvh15SmallVectorBase4sizeEv(ptr noundef nonnull align 8 dereferenceable(16) %this1)
  %add = add i64 %call4, 1
  call void @_ZN4llvh15SmallVectorBase8set_sizeEm(ptr noundef nonnull align 8 dereferenceable(16) %this1, i64 noundef %add)
  ret void
}

; Function Attrs: mustprogress nounwind uwtable
define linkonce_odr hidden noundef ptr @_ZN4llvh25SmallVectorTemplateCommonIcvE4dataEv(ptr noundef nonnull align 8 dereferenceable(16) %this) #0 comdat align 2 {
entry:
  %this.addr.i = alloca ptr, align 8
  %this.addr = alloca ptr, align 8
  store ptr %this, ptr %this.addr, align 8
  %this1 = load ptr, ptr %this.addr, align 8
  store ptr %this1, ptr %this.addr.i, align 8
  %this1.i = load ptr, ptr %this.addr.i, align 8
  %0 = load ptr, ptr %this1.i, align 8
  ret ptr %0
}

; Function Attrs: mustprogress nounwind uwtable
define linkonce_odr hidden noundef i64 @_ZNK4llvh15SmallVectorBase4sizeEv(ptr noundef nonnull align 8 dereferenceable(16) %this) #0 comdat align 2 {
entry:
  %this.addr = alloca ptr, align 8
  store ptr %this, ptr %this.addr, align 8
  %this1 = load ptr, ptr %this.addr, align 8
  %Size = getelementptr inbounds %"class.llvh::SmallVectorBase", ptr %this1, i32 0, i32 1
  %0 = load i32, ptr %Size, align 8
  %conv = zext i32 %0 to i64
  ret i64 %conv
}

; Function Attrs: mustprogress nounwind uwtable
define hidden noundef zeroext i1 @_ZN4llvh9FileCheck13ReadCheckFileERNS_9SourceMgrENS_9StringRefERNS_5RegexERSt6vectorINS_15FileCheckStringESaIS7_EE(ptr noundef nonnull align 8 dereferenceable(88) %this, ptr noundef nonnull align 8 dereferenceable(120) %SM, ptr %Buffer.coerce0, i64 %Buffer.coerce1, ptr noundef nonnull align 8 dereferenceable(12) %PrefixRE, ptr noundef nonnull align 8 dereferenceable(24) %CheckStrings) #0 align 2 {
entry:
  %this.addr.i2.i = alloca ptr, align 8
  %data.addr.i.i = alloca ptr, align 8
  %length.addr.i.i = alloca i64, align 8
  %retval.i.i = alloca %"class.llvh::StringRef", align 8
  %this.addr.i.i = alloca ptr, align 8
  %Start.addr.i.i = alloca i64, align 8
  %N.addr.i.i = alloca i64, align 8
  %ref.tmp.i.i = alloca i64, align 8
  %retval.i285 = alloca %"class.llvh::StringRef", align 8
  %this.addr.i286 = alloca ptr, align 8
  %N.addr.i287 = alloca i64, align 8
  %this.addr.i280 = alloca ptr, align 8
  %data.addr.i281 = alloca ptr, align 8
  %length.addr.i282 = alloca i64, align 8
  %this.addr.i275 = alloca ptr, align 8
  %data.addr.i276 = alloca ptr, align 8
  %length.addr.i277 = alloca i64, align 8
  %this.addr.i270 = alloca ptr, align 8
  %data.addr.i271 = alloca ptr, align 8
  %length.addr.i272 = alloca i64, align 8
  %this.addr.i267 = alloca ptr, align 8
  %data.addr.i = alloca ptr, align 8
  %length.addr.i = alloca i64, align 8
  %this.addr.i262 = alloca ptr, align 8
  %Str.addr.i263 = alloca ptr, align 8
  %this.addr.i252 = alloca ptr, align 8
  %Str.addr.i253 = alloca ptr, align 8
  %this.addr.i242 = alloca ptr, align 8
  %Str.addr.i243 = alloca ptr, align 8
  %this.addr.i232 = alloca ptr, align 8
  %Str.addr.i233 = alloca ptr, align 8
  %this.addr.i228 = alloca ptr, align 8
  %Str.addr.i = alloca ptr, align 8
  %this.addr.i225 = alloca ptr, align 8
  %retval.i213 = alloca %"class.llvh::StringRef", align 8
  %this.addr.i214 = alloca ptr, align 8
  %Start.addr.i215 = alloca i64, align 8
  %N.addr.i216 = alloca i64, align 8
  %ref.tmp.i217 = alloca i64, align 8
  %retval.i201 = alloca %"class.llvh::StringRef", align 8
  %this.addr.i202 = alloca ptr, align 8
  %Start.addr.i203 = alloca i64, align 8
  %N.addr.i204 = alloca i64, align 8
  %ref.tmp.i205 = alloca i64, align 8
  %retval.i189 = alloca %"class.llvh::StringRef", align 8
  %this.addr.i190 = alloca ptr, align 8
  %Start.addr.i191 = alloca i64, align 8
  %N.addr.i192 = alloca i64, align 8
  %ref.tmp.i193 = alloca i64, align 8
  %retval.i = alloca %"class.llvh::StringRef", align 8
  %this.addr.i186 = alloca ptr, align 8
  %Start.addr.i = alloca i64, align 8
  %N.addr.i = alloca i64, align 8
  %ref.tmp.i = alloca i64, align 8
  %this.addr.i184 = alloca ptr, align 8
  %this.addr.i182 = alloca ptr, align 8
  %this.addr.i180 = alloca ptr, align 8
  %this.addr.i178 = alloca ptr, align 8
  %this.addr.i = alloca ptr, align 8
  %retval = alloca i1, align 1
  %Buffer = alloca %"class.llvh::StringRef", align 8
  %this.addr = alloca ptr, align 8
  %SM.addr = alloca ptr, align 8
  %PrefixRE.addr = alloca ptr, align 8
  %CheckStrings.addr = alloca ptr, align 8
  %ImplicitNegativeChecks = alloca %"class.std::vector.43", align 8
  %__range1 = alloca ptr, align 8
  %__begin1 = alloca %"class.__gnu_cxx::__normal_iterator.48", align 8
  %__end1 = alloca %"class.__gnu_cxx::__normal_iterator.48", align 8
  %PatternString = alloca ptr, align 8
  %Prefix = alloca %"class.std::__cxx11::basic_string", align 8
  %ref.tmp = alloca %"class.std::allocator.0", align 1
  %Suffix = alloca %"class.std::__cxx11::basic_string", align 8
  %ref.tmp6 = alloca %"class.std::allocator.0", align 1
  %CmdLine = alloca %"class.std::unique_ptr", align 8
  %agg.tmp = alloca %"class.llvh::StringRef", align 8
  %ref.tmp7 = alloca %"class.std::__cxx11::basic_string", align 8
  %ref.tmp8 = alloca %"class.std::__cxx11::basic_string", align 8
  %ref.tmp9 = alloca %"class.llvh::Twine", align 8
  %PatternInBuffer = alloca %"class.llvh::StringRef", align 8
  %ref.tmp10 = alloca %"class.llvh::StringRef", align 8
  %agg.tmp16 = alloca %"class.std::unique_ptr", align 8
  %agg.tmp17 = alloca %"class.llvh::SMLoc", align 8
  %ref.tmp20 = alloca %"class.llvh::FileCheckPattern", align 8
  %agg.tmp22 = alloca %"class.llvh::StringRef", align 8
  %agg.tmp23 = alloca %"class.llvh::StringRef", align 8
  %DagNotMatches = alloca %"class.std::vector.43", align 8
  %LineNumber = alloca i32, align 4
  %CheckTy = alloca i32, align 4
  %UsedPrefix = alloca %"class.llvh::StringRef", align 8
  %UsedPrefixStart = alloca ptr, align 8
  %ref.tmp30 = alloca %"class.llvh::StringRef", align 8
  %agg.tmp35 = alloca %"class.llvh::SMLoc", align 8
  %ref.tmp39 = alloca %"class.llvh::Twine", align 8
  %ref.tmp40 = alloca %"class.llvh::Twine", align 8
  %ref.tmp41 = alloca %"class.llvh::Twine", align 8
  %agg.tmp42 = alloca %"class.llvh::ArrayRef", align 8
  %agg.tmp43 = alloca %"class.llvh::ArrayRef.24", align 8
  %cleanup.dest.slot = alloca i32, align 4
  %ref.tmp50 = alloca %"class.llvh::StringRef", align 8
  %agg.tmp51 = alloca %"class.llvh::StringRef", align 8
  %EOL = alloca i64, align 8
  %agg.tmp55 = alloca %"class.llvh::StringRef", align 8
  %PatternLoc = alloca %"class.llvh::SMLoc", align 8
  %P = alloca %"class.llvh::FileCheckPattern", align 8
  %agg.tmp60 = alloca %"class.llvh::StringRef", align 8
  %agg.tmp62 = alloca %"class.llvh::StringRef", align 8
  %agg.tmp71 = alloca %"class.llvh::SMLoc", align 8
  %ref.tmp74 = alloca %"class.llvh::Twine", align 8
  %ref.tmp75 = alloca %"class.llvh::Twine", align 8
  %ref.tmp76 = alloca %"class.llvh::Twine", align 8
  %agg.tmp77 = alloca %"class.llvh::ArrayRef", align 8
  %agg.tmp78 = alloca %"class.llvh::ArrayRef.24", align 8
  %ref.tmp81 = alloca %"class.llvh::StringRef", align 8
  %Type = alloca %"class.llvh::StringRef", align 8
  %agg.tmp93 = alloca %"class.llvh::SMLoc", align 8
  %ref.tmp96 = alloca %"class.llvh::Twine", align 8
  %ref.tmp97 = alloca %"class.llvh::Twine", align 8
  %ref.tmp98 = alloca %"class.llvh::Twine", align 8
  %ref.tmp99 = alloca %"class.llvh::Twine", align 8
  %ref.tmp100 = alloca %"class.llvh::Twine", align 8
  %ref.tmp101 = alloca %"class.llvh::Twine", align 8
  %ref.tmp102 = alloca %"class.llvh::Twine", align 8
  %ref.tmp103 = alloca %"class.llvh::Twine", align 8
  %ref.tmp104 = alloca %"class.llvh::Twine", align 8
  %ref.tmp105 = alloca %"class.llvh::Twine", align 8
  %ref.tmp106 = alloca %"class.llvh::Twine", align 8
  %agg.tmp107 = alloca %"class.llvh::ArrayRef", align 8
  %agg.tmp108 = alloca %"class.llvh::ArrayRef.24", align 8
  %ref.tmp121 = alloca %"class.llvh::FileCheckPattern", align 8
  %ref.tmp122 = alloca %"class.__gnu_cxx::__normal_iterator.48", align 8
  %ref.tmp127 = alloca %"class.llvh::SMLoc", align 8
  %I = alloca %"class.__gnu_cxx::__normal_iterator.48", align 8
  %E = alloca %"class.__gnu_cxx::__normal_iterator.48", align 8
  %0 = getelementptr inbounds { ptr, i64 }, ptr %Buffer, i32 0, i32 0
  store ptr %Buffer.coerce0, ptr %0, align 8
  %1 = getelementptr inbounds { ptr, i64 }, ptr %Buffer, i32 0, i32 1
  store i64 %Buffer.coerce1, ptr %1, align 8
  store ptr %this, ptr %this.addr, align 8
  store ptr %SM, ptr %SM.addr, align 8
  store ptr %PrefixRE, ptr %PrefixRE.addr, align 8
  store ptr %CheckStrings, ptr %CheckStrings.addr, align 8
  %this1 = load ptr, ptr %this.addr, align 8
  call void @_ZNSt6vectorIN4llvh16FileCheckPatternESaIS1_EEC2Ev(ptr noundef nonnull align 8 dereferenceable(24) %ImplicitNegativeChecks) #13
  %Req = getelementptr inbounds %"class.llvh::FileCheck", ptr %this1, i32 0, i32 0
  %ImplicitCheckNot = getelementptr inbounds %"struct.llvh::FileCheckRequest", ptr %Req, i32 0, i32 3
  store ptr %ImplicitCheckNot, ptr %__range1, align 8
  %2 = load ptr, ptr %__range1, align 8
  %call = call ptr @_ZNSt6vectorINSt7__cxx1112basic_stringIcSt11char_traitsIcESaIcEEESaIS5_EE5beginEv(ptr noundef nonnull align 8 dereferenceable(24) %2) #13
  %coerce.dive = getelementptr inbounds %"class.__gnu_cxx::__normal_iterator.48", ptr %__begin1, i32 0, i32 0
  store ptr %call, ptr %coerce.dive, align 8
  %3 = load ptr, ptr %__range1, align 8
  %call2 = call ptr @_ZNSt6vectorINSt7__cxx1112basic_stringIcSt11char_traitsIcESaIcEEESaIS5_EE3endEv(ptr noundef nonnull align 8 dereferenceable(24) %3) #13
  %coerce.dive3 = getelementptr inbounds %"class.__gnu_cxx::__normal_iterator.48", ptr %__end1, i32 0, i32 0
  store ptr %call2, ptr %coerce.dive3, align 8
  br label %for.cond

for.cond:                                         ; preds = %for.inc, %entry
  %call4 = call noundef zeroext i1 @_ZN9__gnu_cxxneIPNSt7__cxx1112basic_stringIcSt11char_traitsIcESaIcEEESt6vectorIS6_SaIS6_EEEEbRKNS_17__normal_iteratorIT_T0_EESG_(ptr noundef nonnull align 8 dereferenceable(8) %__begin1, ptr noundef nonnull align 8 dereferenceable(8) %__end1) #13
  br i1 %call4, label %for.body, label %for.end

for.body:                                         ; preds = %for.cond
  %call5 = call noundef nonnull align 8 dereferenceable(32) ptr @_ZNK9__gnu_cxx17__normal_iteratorIPNSt7__cxx1112basic_stringIcSt11char_traitsIcESaIcEEESt6vectorIS6_SaIS6_EEEdeEv(ptr noundef nonnull align 8 dereferenceable(8) %__begin1) #13
  store ptr %call5, ptr %PatternString, align 8
  call void @_ZNSaIcEC1Ev(ptr noundef nonnull align 1 dereferenceable(1) %ref.tmp) #13
  call void @_ZNSt7__cxx1112basic_stringIcSt11char_traitsIcESaIcEEC2IS3_EEPKcRKS3_(ptr noundef nonnull align 8 dereferenceable(32) %Prefix, ptr noundef @.str.26, ptr noundef nonnull align 1 dereferenceable(1) %ref.tmp)
  call void @_ZNSaIcED1Ev(ptr noundef nonnull align 1 dereferenceable(1) %ref.tmp) #13
  call void @_ZNSaIcEC1Ev(ptr noundef nonnull align 1 dereferenceable(1) %ref.tmp6) #13
  call void @_ZNSt7__cxx1112basic_stringIcSt11char_traitsIcESaIcEEC2IS3_EEPKcRKS3_(ptr noundef nonnull align 8 dereferenceable(32) %Suffix, ptr noundef @.str.27, ptr noundef nonnull align 1 dereferenceable(1) %ref.tmp6)
  call void @_ZNSaIcED1Ev(ptr noundef nonnull align 1 dereferenceable(1) %ref.tmp6) #13
  %4 = load ptr, ptr %PatternString, align 8
  call void @_ZStplIcSt11char_traitsIcESaIcEENSt7__cxx1112basic_stringIT_T0_T1_EERKS8_SA_(ptr sret(%"class.std::__cxx11::basic_string") align 8 %ref.tmp8, ptr noundef nonnull align 8 dereferenceable(32) %Prefix, ptr noundef nonnull align 8 dereferenceable(32) %4)
  call void @_ZStplIcSt11char_traitsIcESaIcEENSt7__cxx1112basic_stringIT_T0_T1_EEOS8_RKS8_(ptr sret(%"class.std::__cxx11::basic_string") align 8 %ref.tmp7, ptr noundef nonnull align 8 dereferenceable(32) %ref.tmp8, ptr noundef nonnull align 8 dereferenceable(32) %Suffix)
  store ptr %agg.tmp, ptr %this.addr.i262, align 8
  store ptr %ref.tmp7, ptr %Str.addr.i263, align 8
  %this1.i264 = load ptr, ptr %this.addr.i262, align 8
  %5 = load ptr, ptr %Str.addr.i263, align 8
  %call.i265 = call noundef ptr @_ZNKSt7__cxx1112basic_stringIcSt11char_traitsIcESaIcEE4dataEv(ptr noundef nonnull align 8 dereferenceable(32) %5) #13
  store ptr %call.i265, ptr %this1.i264, align 8
  %Length.i266 = getelementptr inbounds %"class.llvh::StringRef", ptr %this1.i264, i32 0, i32 1
  %6 = load ptr, ptr %Str.addr.i263, align 8
  %call2.i = call noundef i64 @_ZNKSt7__cxx1112basic_stringIcSt11char_traitsIcESaIcEE6lengthEv(ptr noundef nonnull align 8 dereferenceable(32) %6) #13
  store i64 %call2.i, ptr %Length.i266, align 8
  call void @_ZN4llvh5TwineC2EPKc(ptr noundef nonnull align 8 dereferenceable(18) %ref.tmp9, ptr noundef @.str.28)
  %7 = getelementptr inbounds { ptr, i64 }, ptr %agg.tmp, i32 0, i32 0
  %8 = load ptr, ptr %7, align 8
  %9 = getelementptr inbounds { ptr, i64 }, ptr %agg.tmp, i32 0, i32 1
  %10 = load i64, ptr %9, align 8
  call void @_ZN4llvh12MemoryBuffer16getMemBufferCopyENS_9StringRefERKNS_5TwineE(ptr sret(%"class.std::unique_ptr") align 8 %CmdLine, ptr %8, i64 %10, ptr noundef nonnull align 8 dereferenceable(18) %ref.tmp9)
  call void @_ZNSt7__cxx1112basic_stringIcSt11char_traitsIcESaIcEED1Ev(ptr noundef nonnull align 8 dereferenceable(32) %ref.tmp7) #13
  call void @_ZNSt7__cxx1112basic_stringIcSt11char_traitsIcESaIcEED1Ev(ptr noundef nonnull align 8 dereferenceable(32) %ref.tmp8) #13
  %call11 = call noundef ptr @_ZNKSt10unique_ptrIN4llvh12MemoryBufferESt14default_deleteIS1_EEptEv(ptr noundef nonnull align 8 dereferenceable(8) %CmdLine) #13
  %call12 = call { ptr, i64 } @_ZNK4llvh12MemoryBuffer9getBufferEv(ptr noundef nonnull align 8 dereferenceable(24) %call11)
  %11 = getelementptr inbounds { ptr, i64 }, ptr %ref.tmp10, i32 0, i32 0
  %12 = extractvalue { ptr, i64 } %call12, 0
  store ptr %12, ptr %11, align 8
  %13 = getelementptr inbounds { ptr, i64 }, ptr %ref.tmp10, i32 0, i32 1
  %14 = extractvalue { ptr, i64 } %call12, 1
  store i64 %14, ptr %13, align 8
  %call13 = call noundef i64 @_ZNKSt7__cxx1112basic_stringIcSt11char_traitsIcESaIcEE4sizeEv(ptr noundef nonnull align 8 dereferenceable(32) %Prefix) #13
  %15 = load ptr, ptr %PatternString, align 8
  %call14 = call noundef i64 @_ZNKSt7__cxx1112basic_stringIcSt11char_traitsIcESaIcEE4sizeEv(ptr noundef nonnull align 8 dereferenceable(32) %15) #13
  store ptr %ref.tmp10, ptr %this.addr.i214, align 8
  store i64 %call13, ptr %Start.addr.i215, align 8
  store i64 %call14, ptr %N.addr.i216, align 8
  %this1.i218 = load ptr, ptr %this.addr.i214, align 8
  %Length.i219 = getelementptr inbounds %"class.llvh::StringRef", ptr %this1.i218, i32 0, i32 1
  %call.i220 = call noundef nonnull align 8 dereferenceable(8) ptr @_ZSt3minImERKT_S2_S2_(ptr noundef nonnull align 8 dereferenceable(8) %Start.addr.i215, ptr noundef nonnull align 8 dereferenceable(8) %Length.i219)
  %16 = load i64, ptr %call.i220, align 8
  store i64 %16, ptr %Start.addr.i215, align 8
  %17 = load ptr, ptr %this1.i218, align 8
  %18 = load i64, ptr %Start.addr.i215, align 8
  %add.ptr.i221 = getelementptr inbounds i8, ptr %17, i64 %18
  %Length2.i222 = getelementptr inbounds %"class.llvh::StringRef", ptr %this1.i218, i32 0, i32 1
  %19 = load i64, ptr %Length2.i222, align 8
  %20 = load i64, ptr %Start.addr.i215, align 8
  %sub.i223 = sub i64 %19, %20
  store i64 %sub.i223, ptr %ref.tmp.i217, align 8
  %call3.i224 = call noundef nonnull align 8 dereferenceable(8) ptr @_ZSt3minImERKT_S2_S2_(ptr noundef nonnull align 8 dereferenceable(8) %N.addr.i216, ptr noundef nonnull align 8 dereferenceable(8) %ref.tmp.i217)
  %21 = load i64, ptr %call3.i224, align 8
  store ptr %retval.i213, ptr %this.addr.i267, align 8
  store ptr %add.ptr.i221, ptr %data.addr.i, align 8
  store i64 %21, ptr %length.addr.i, align 8
  %this1.i268 = load ptr, ptr %this.addr.i267, align 8
  %22 = load ptr, ptr %data.addr.i, align 8
  store ptr %22, ptr %this1.i268, align 8
  %Length.i269 = getelementptr inbounds %"class.llvh::StringRef", ptr %this1.i268, i32 0, i32 1
  %23 = load i64, ptr %length.addr.i, align 8
  store i64 %23, ptr %Length.i269, align 8
  %24 = load { ptr, i64 }, ptr %retval.i213, align 8
  %25 = getelementptr inbounds { ptr, i64 }, ptr %PatternInBuffer, i32 0, i32 0
  %26 = extractvalue { ptr, i64 } %24, 0
  store ptr %26, ptr %25, align 8
  %27 = getelementptr inbounds { ptr, i64 }, ptr %PatternInBuffer, i32 0, i32 1
  %28 = extractvalue { ptr, i64 } %24, 1
  store i64 %28, ptr %27, align 8
  %29 = load ptr, ptr %SM.addr, align 8
  call void @_ZNSt10unique_ptrIN4llvh12MemoryBufferESt14default_deleteIS1_EEC2EOS4_(ptr noundef nonnull align 8 dereferenceable(8) %agg.tmp16, ptr noundef nonnull align 8 dereferenceable(8) %CmdLine) #13
  call void @llvm.memset.p0.i64(ptr align 8 %agg.tmp17, i8 0, i64 8, i1 false)
  call void @_ZN4llvh5SMLocC2Ev(ptr noundef nonnull align 8 dereferenceable(8) %agg.tmp17) #13
  %coerce.dive18 = getelementptr inbounds %"class.llvh::SMLoc", ptr %agg.tmp17, i32 0, i32 0
  %30 = load ptr, ptr %coerce.dive18, align 8
  %call19 = call noundef i32 @_ZN4llvh9SourceMgr18AddNewSourceBufferESt10unique_ptrINS_12MemoryBufferESt14default_deleteIS2_EENS_5SMLocE(ptr noundef nonnull align 8 dereferenceable(120) %29, ptr noundef %agg.tmp16, ptr %30)
  call void @_ZNSt10unique_ptrIN4llvh12MemoryBufferESt14default_deleteIS1_EED2Ev(ptr noundef nonnull align 8 dereferenceable(8) %agg.tmp16) #13
  call void @_ZN4llvh16FileCheckPatternC2ENS_5Check13FileCheckTypeE(ptr noundef nonnull align 8 dereferenceable(136) %ref.tmp20, i32 noundef 4)
  call void @_ZNSt6vectorIN4llvh16FileCheckPatternESaIS1_EE9push_backEOS1_(ptr noundef nonnull align 8 dereferenceable(24) %ImplicitNegativeChecks, ptr noundef nonnull align 8 dereferenceable(136) %ref.tmp20)
  call void @_ZN4llvh16FileCheckPatternD2Ev(ptr noundef nonnull align 8 dereferenceable(136) %ref.tmp20) #13
  %call21 = call noundef nonnull align 8 dereferenceable(136) ptr @_ZNSt6vectorIN4llvh16FileCheckPatternESaIS1_EE4backEv(ptr noundef nonnull align 8 dereferenceable(24) %ImplicitNegativeChecks) #13
  call void @llvm.memcpy.p0.p0.i64(ptr align 8 %agg.tmp22, ptr align 8 %PatternInBuffer, i64 16, i1 false)
  store ptr %agg.tmp23, ptr %this.addr.i228, align 8
  store ptr @.str.29, ptr %Str.addr.i, align 8
  %this1.i229 = load ptr, ptr %this.addr.i228, align 8
  %31 = load ptr, ptr %Str.addr.i, align 8
  store ptr %31, ptr %this1.i229, align 8
  %Length.i230 = getelementptr inbounds %"class.llvh::StringRef", ptr %this1.i229, i32 0, i32 1
  %32 = load ptr, ptr %Str.addr.i, align 8
  %tobool.i = icmp ne ptr %32, null
  br i1 %tobool.i, label %cond.true.i, label %cond.false.i

cond.true.i:                                      ; preds = %for.body
  %33 = load ptr, ptr %Str.addr.i, align 8
  %call.i231 = call i64 @strlen(ptr noundef %33) #12
  br label %_ZN4llvh9StringRefC2EPKc.exit

cond.false.i:                                     ; preds = %for.body
  br label %_ZN4llvh9StringRefC2EPKc.exit

_ZN4llvh9StringRefC2EPKc.exit:                    ; preds = %cond.false.i, %cond.true.i
  %cond.i = phi i64 [ %call.i231, %cond.true.i ], [ 0, %cond.false.i ]
  store i64 %cond.i, ptr %Length.i230, align 8
  %34 = load ptr, ptr %SM.addr, align 8
  %Req24 = getelementptr inbounds %"class.llvh::FileCheck", ptr %this1, i32 0, i32 0
  %35 = getelementptr inbounds { ptr, i64 }, ptr %agg.tmp22, i32 0, i32 0
  %36 = load ptr, ptr %35, align 8
  %37 = getelementptr inbounds { ptr, i64 }, ptr %agg.tmp22, i32 0, i32 1
  %38 = load i64, ptr %37, align 8
  %39 = getelementptr inbounds { ptr, i64 }, ptr %agg.tmp23, i32 0, i32 0
  %40 = load ptr, ptr %39, align 8
  %41 = getelementptr inbounds { ptr, i64 }, ptr %agg.tmp23, i32 0, i32 1
  %42 = load i64, ptr %41, align 8
  %call25 = call noundef zeroext i1 @_ZN4llvh16FileCheckPattern12ParsePatternENS_9StringRefES1_RNS_9SourceMgrEjRKNS_16FileCheckRequestE(ptr noundef nonnull align 8 dereferenceable(136) %call21, ptr %36, i64 %38, ptr %40, i64 %42, ptr noundef nonnull align 8 dereferenceable(120) %34, i32 noundef 0, ptr noundef nonnull align 8 dereferenceable(86) %Req24)
  call void @_ZNSt10unique_ptrIN4llvh12MemoryBufferESt14default_deleteIS1_EED2Ev(ptr noundef nonnull align 8 dereferenceable(8) %CmdLine) #13
  call void @_ZNSt7__cxx1112basic_stringIcSt11char_traitsIcESaIcEED1Ev(ptr noundef nonnull align 8 dereferenceable(32) %Suffix) #13
  call void @_ZNSt7__cxx1112basic_stringIcSt11char_traitsIcESaIcEED1Ev(ptr noundef nonnull align 8 dereferenceable(32) %Prefix) #13
  br label %for.inc

for.inc:                                          ; preds = %_ZN4llvh9StringRefC2EPKc.exit
  %call26 = call noundef nonnull align 8 dereferenceable(8) ptr @_ZN9__gnu_cxx17__normal_iteratorIPNSt7__cxx1112basic_stringIcSt11char_traitsIcESaIcEEESt6vectorIS6_SaIS6_EEEppEv(ptr noundef nonnull align 8 dereferenceable(8) %__begin1) #13
  br label %for.cond

for.end:                                          ; preds = %for.cond
  call void @_ZNSt6vectorIN4llvh16FileCheckPatternESaIS1_EEC2ERKS3_(ptr noundef nonnull align 8 dereferenceable(24) %DagNotMatches, ptr noundef nonnull align 8 dereferenceable(24) %ImplicitNegativeChecks)
  store i32 1, ptr %LineNumber, align 4
  br label %while.cond

while.cond:                                       ; preds = %cleanup.cont, %cleanup, %for.end
  br label %while.body

while.body:                                       ; preds = %while.cond
  %43 = load ptr, ptr %PrefixRE.addr, align 8
  %call27 = call { ptr, i64 } @_ZL23FindFirstMatchingPrefixRN4llvh5RegexERNS_9StringRefERjRNS_5Check13FileCheckTypeE(ptr noundef nonnull align 8 dereferenceable(12) %43, ptr noundef nonnull align 8 dereferenceable(16) %Buffer, ptr noundef nonnull align 4 dereferenceable(4) %LineNumber, ptr noundef nonnull align 4 dereferenceable(4) %CheckTy)
  %44 = getelementptr inbounds { ptr, i64 }, ptr %UsedPrefix, i32 0, i32 0
  %45 = extractvalue { ptr, i64 } %call27, 0
  store ptr %45, ptr %44, align 8
  %46 = getelementptr inbounds { ptr, i64 }, ptr %UsedPrefix, i32 0, i32 1
  %47 = extractvalue { ptr, i64 } %call27, 1
  store i64 %47, ptr %46, align 8
  store ptr %UsedPrefix, ptr %this.addr.i184, align 8
  %this1.i185 = load ptr, ptr %this.addr.i184, align 8
  %Length.i = getelementptr inbounds %"class.llvh::StringRef", ptr %this1.i185, i32 0, i32 1
  %48 = load i64, ptr %Length.i, align 8
  %cmp.i = icmp eq i64 %48, 0
  br i1 %cmp.i, label %if.then, label %if.end

if.then:                                          ; preds = %while.body
  br label %while.end

if.end:                                           ; preds = %while.body
  store ptr %UsedPrefix, ptr %this.addr.i182, align 8
  %this1.i183 = load ptr, ptr %this.addr.i182, align 8
  %49 = load ptr, ptr %this1.i183, align 8
  store ptr %49, ptr %UsedPrefixStart, align 8
  store ptr %UsedPrefix, ptr %this.addr.i225, align 8
  %this1.i226 = load ptr, ptr %this.addr.i225, align 8
  %Length.i227 = getelementptr inbounds %"class.llvh::StringRef", ptr %this1.i226, i32 0, i32 1
  %50 = load i64, ptr %Length.i227, align 8
  %51 = load i32, ptr %CheckTy, align 4
  %call32 = call noundef i64 @_ZL13CheckTypeSizeN4llvh5Check13FileCheckTypeE(i32 noundef %51)
  %add = add i64 %50, %call32
  store ptr %Buffer, ptr %this.addr.i286, align 8
  store i64 %add, ptr %N.addr.i287, align 8
  %this1.i288 = load ptr, ptr %this.addr.i286, align 8
  %52 = load i64, ptr %N.addr.i287, align 8
  store ptr %this1.i288, ptr %this.addr.i.i, align 8
  store i64 %52, ptr %Start.addr.i.i, align 8
  store i64 -1, ptr %N.addr.i.i, align 8
  %this1.i.i = load ptr, ptr %this.addr.i.i, align 8
  %Length.i.i = getelementptr inbounds %"class.llvh::StringRef", ptr %this1.i.i, i32 0, i32 1
  %call.i.i = call noundef nonnull align 8 dereferenceable(8) ptr @_ZSt3minImERKT_S2_S2_(ptr noundef nonnull align 8 dereferenceable(8) %Start.addr.i.i, ptr noundef nonnull align 8 dereferenceable(8) %Length.i.i)
  %53 = load i64, ptr %call.i.i, align 8
  store i64 %53, ptr %Start.addr.i.i, align 8
  %54 = load ptr, ptr %this1.i.i, align 8
  %55 = load i64, ptr %Start.addr.i.i, align 8
  %add.ptr.i.i = getelementptr inbounds i8, ptr %54, i64 %55
  %Length2.i.i = getelementptr inbounds %"class.llvh::StringRef", ptr %this1.i.i, i32 0, i32 1
  %56 = load i64, ptr %Length2.i.i, align 8
  %57 = load i64, ptr %Start.addr.i.i, align 8
  %sub.i.i = sub i64 %56, %57
  store i64 %sub.i.i, ptr %ref.tmp.i.i, align 8
  %call3.i.i = call noundef nonnull align 8 dereferenceable(8) ptr @_ZSt3minImERKT_S2_S2_(ptr noundef nonnull align 8 dereferenceable(8) %N.addr.i.i, ptr noundef nonnull align 8 dereferenceable(8) %ref.tmp.i.i)
  %58 = load i64, ptr %call3.i.i, align 8
  store ptr %retval.i.i, ptr %this.addr.i2.i, align 8
  store ptr %add.ptr.i.i, ptr %data.addr.i.i, align 8
  store i64 %58, ptr %length.addr.i.i, align 8
  %this1.i3.i = load ptr, ptr %this.addr.i2.i, align 8
  %59 = load ptr, ptr %data.addr.i.i, align 8
  store ptr %59, ptr %this1.i3.i, align 8
  %Length.i4.i = getelementptr inbounds %"class.llvh::StringRef", ptr %this1.i3.i, i32 0, i32 1
  %60 = load i64, ptr %length.addr.i.i, align 8
  store i64 %60, ptr %Length.i4.i, align 8
  %61 = load { ptr, i64 }, ptr %retval.i.i, align 8
  %62 = extractvalue { ptr, i64 } %61, 0
  store ptr %62, ptr %retval.i285, align 8
  %63 = getelementptr inbounds { ptr, i64 }, ptr %retval.i285, i32 0, i32 1
  %64 = extractvalue { ptr, i64 } %61, 1
  store i64 %64, ptr %63, align 8
  %65 = load { ptr, i64 }, ptr %retval.i285, align 8
  %66 = getelementptr inbounds { ptr, i64 }, ptr %ref.tmp30, i32 0, i32 0
  %67 = extractvalue { ptr, i64 } %65, 0
  store ptr %67, ptr %66, align 8
  %68 = getelementptr inbounds { ptr, i64 }, ptr %ref.tmp30, i32 0, i32 1
  %69 = extractvalue { ptr, i64 } %65, 1
  store i64 %69, ptr %68, align 8
  call void @llvm.memcpy.p0.p0.i64(ptr align 8 %Buffer, ptr align 8 %ref.tmp30, i64 16, i1 false)
  %70 = load i32, ptr %CheckTy, align 4
  %cmp = icmp eq i32 %70, 9
  br i1 %cmp, label %if.then34, label %if.end45

if.then34:                                        ; preds = %if.end
  %71 = load ptr, ptr %SM.addr, align 8
  store ptr %Buffer, ptr %this.addr.i180, align 8
  %this1.i181 = load ptr, ptr %this.addr.i180, align 8
  %72 = load ptr, ptr %this1.i181, align 8
  %call37 = call ptr @_ZN4llvh5SMLoc14getFromPointerEPKc(ptr noundef %72)
  %coerce.dive38 = getelementptr inbounds %"class.llvh::SMLoc", ptr %agg.tmp35, i32 0, i32 0
  store ptr %call37, ptr %coerce.dive38, align 8
  call void @_ZN4llvhplEPKcRKNS_9StringRefE(ptr sret(%"class.llvh::Twine") align 8 %ref.tmp40, ptr noundef @.str.30, ptr noundef nonnull align 8 dereferenceable(16) %UsedPrefix)
  call void @_ZN4llvh5TwineC2EPKc(ptr noundef nonnull align 8 dereferenceable(18) %ref.tmp41, ptr noundef @.str.27)
  call void @_ZN4llvhplERKNS_5TwineES2_(ptr sret(%"class.llvh::Twine") align 8 %ref.tmp39, ptr noundef nonnull align 8 dereferenceable(18) %ref.tmp40, ptr noundef nonnull align 8 dereferenceable(18) %ref.tmp41)
  call void @_ZN4llvh8ArrayRefINS_7SMRangeEEC2ENS_8NoneTypeE(ptr noundef nonnull align 8 dereferenceable(16) %agg.tmp42, i32 noundef 1)
  call void @_ZN4llvh8ArrayRefINS_7SMFixItEEC2ENS_8NoneTypeE(ptr noundef nonnull align 8 dereferenceable(16) %agg.tmp43, i32 noundef 1)
  %coerce.dive44 = getelementptr inbounds %"class.llvh::SMLoc", ptr %agg.tmp35, i32 0, i32 0
  %73 = load ptr, ptr %coerce.dive44, align 8
  %74 = getelementptr inbounds { ptr, i64 }, ptr %agg.tmp42, i32 0, i32 0
  %75 = load ptr, ptr %74, align 8
  %76 = getelementptr inbounds { ptr, i64 }, ptr %agg.tmp42, i32 0, i32 1
  %77 = load i64, ptr %76, align 8
  call void @_ZNK4llvh9SourceMgr12PrintMessageENS_5SMLocENS0_8DiagKindERKNS_5TwineENS_8ArrayRefINS_7SMRangeEEENS6_INS_7SMFixItEEEb(ptr noundef nonnull align 8 dereferenceable(120) %71, ptr %73, i32 noundef 0, ptr noundef nonnull align 8 dereferenceable(18) %ref.tmp39, ptr %75, i64 %77, ptr noundef byval(%"class.llvh::ArrayRef.24") align 8 %agg.tmp43, i1 noundef zeroext true)
  store i1 true, ptr %retval, align 1
  store i32 1, ptr %cleanup.dest.slot, align 4
  br label %cleanup176

if.end45:                                         ; preds = %if.end
  %Req46 = getelementptr inbounds %"class.llvh::FileCheck", ptr %this1, i32 0, i32 0
  %NoCanonicalizeWhiteSpace = getelementptr inbounds %"struct.llvh::FileCheckRequest", ptr %Req46, i32 0, i32 1
  %78 = load i8, ptr %NoCanonicalizeWhiteSpace, align 8
  %tobool = trunc i8 %78 to i1
  br i1 %tobool, label %land.lhs.true, label %if.then49

land.lhs.true:                                    ; preds = %if.end45
  %Req47 = getelementptr inbounds %"class.llvh::FileCheck", ptr %this1, i32 0, i32 0
  %MatchFullLines = getelementptr inbounds %"struct.llvh::FileCheckRequest", ptr %Req47, i32 0, i32 6
  %79 = load i8, ptr %MatchFullLines, align 1
  %tobool48 = trunc i8 %79 to i1
  br i1 %tobool48, label %if.end54, label %if.then49

if.then49:                                        ; preds = %land.lhs.true, %if.end45
  store ptr %agg.tmp51, ptr %this.addr.i232, align 8
  store ptr @.str.31, ptr %Str.addr.i233, align 8
  %this1.i234 = load ptr, ptr %this.addr.i232, align 8
  %80 = load ptr, ptr %Str.addr.i233, align 8
  store ptr %80, ptr %this1.i234, align 8
  %Length.i235 = getelementptr inbounds %"class.llvh::StringRef", ptr %this1.i234, i32 0, i32 1
  %81 = load ptr, ptr %Str.addr.i233, align 8
  %tobool.i236 = icmp ne ptr %81, null
  br i1 %tobool.i236, label %cond.true.i239, label %cond.false.i237

cond.true.i239:                                   ; preds = %if.then49
  %82 = load ptr, ptr %Str.addr.i233, align 8
  %call.i240 = call i64 @strlen(ptr noundef %82) #12
  br label %_ZN4llvh9StringRefC2EPKc.exit241

cond.false.i237:                                  ; preds = %if.then49
  br label %_ZN4llvh9StringRefC2EPKc.exit241

_ZN4llvh9StringRefC2EPKc.exit241:                 ; preds = %cond.false.i237, %cond.true.i239
  %cond.i238 = phi i64 [ %call.i240, %cond.true.i239 ], [ 0, %cond.false.i237 ]
  store i64 %cond.i238, ptr %Length.i235, align 8
  %83 = getelementptr inbounds { ptr, i64 }, ptr %agg.tmp51, i32 0, i32 0
  %84 = load ptr, ptr %83, align 8
  %85 = getelementptr inbounds { ptr, i64 }, ptr %agg.tmp51, i32 0, i32 1
  %86 = load i64, ptr %85, align 8
  %call52 = call noundef i64 @_ZNK4llvh9StringRef17find_first_not_ofES0_m(ptr noundef nonnull align 8 dereferenceable(16) %Buffer, ptr %84, i64 %86, i64 noundef 0)
  store ptr %Buffer, ptr %this.addr.i202, align 8
  store i64 %call52, ptr %Start.addr.i203, align 8
  store i64 -1, ptr %N.addr.i204, align 8
  %this1.i206 = load ptr, ptr %this.addr.i202, align 8
  %Length.i207 = getelementptr inbounds %"class.llvh::StringRef", ptr %this1.i206, i32 0, i32 1
  %call.i208 = call noundef nonnull align 8 dereferenceable(8) ptr @_ZSt3minImERKT_S2_S2_(ptr noundef nonnull align 8 dereferenceable(8) %Start.addr.i203, ptr noundef nonnull align 8 dereferenceable(8) %Length.i207)
  %87 = load i64, ptr %call.i208, align 8
  store i64 %87, ptr %Start.addr.i203, align 8
  %88 = load ptr, ptr %this1.i206, align 8
  %89 = load i64, ptr %Start.addr.i203, align 8
  %add.ptr.i209 = getelementptr inbounds i8, ptr %88, i64 %89
  %Length2.i210 = getelementptr inbounds %"class.llvh::StringRef", ptr %this1.i206, i32 0, i32 1
  %90 = load i64, ptr %Length2.i210, align 8
  %91 = load i64, ptr %Start.addr.i203, align 8
  %sub.i211 = sub i64 %90, %91
  store i64 %sub.i211, ptr %ref.tmp.i205, align 8
  %call3.i212 = call noundef nonnull align 8 dereferenceable(8) ptr @_ZSt3minImERKT_S2_S2_(ptr noundef nonnull align 8 dereferenceable(8) %N.addr.i204, ptr noundef nonnull align 8 dereferenceable(8) %ref.tmp.i205)
  %92 = load i64, ptr %call3.i212, align 8
  store ptr %retval.i201, ptr %this.addr.i270, align 8
  store ptr %add.ptr.i209, ptr %data.addr.i271, align 8
  store i64 %92, ptr %length.addr.i272, align 8
  %this1.i273 = load ptr, ptr %this.addr.i270, align 8
  %93 = load ptr, ptr %data.addr.i271, align 8
  store ptr %93, ptr %this1.i273, align 8
  %Length.i274 = getelementptr inbounds %"class.llvh::StringRef", ptr %this1.i273, i32 0, i32 1
  %94 = load i64, ptr %length.addr.i272, align 8
  store i64 %94, ptr %Length.i274, align 8
  %95 = load { ptr, i64 }, ptr %retval.i201, align 8
  %96 = getelementptr inbounds { ptr, i64 }, ptr %ref.tmp50, i32 0, i32 0
  %97 = extractvalue { ptr, i64 } %95, 0
  store ptr %97, ptr %96, align 8
  %98 = getelementptr inbounds { ptr, i64 }, ptr %ref.tmp50, i32 0, i32 1
  %99 = extractvalue { ptr, i64 } %95, 1
  store i64 %99, ptr %98, align 8
  call void @llvm.memcpy.p0.p0.i64(ptr align 8 %Buffer, ptr align 8 %ref.tmp50, i64 16, i1 false)
  br label %if.end54

if.end54:                                         ; preds = %_ZN4llvh9StringRefC2EPKc.exit241, %land.lhs.true
  store ptr %agg.tmp55, ptr %this.addr.i242, align 8
  store ptr @.str.32, ptr %Str.addr.i243, align 8
  %this1.i244 = load ptr, ptr %this.addr.i242, align 8
  %100 = load ptr, ptr %Str.addr.i243, align 8
  store ptr %100, ptr %this1.i244, align 8
  %Length.i245 = getelementptr inbounds %"class.llvh::StringRef", ptr %this1.i244, i32 0, i32 1
  %101 = load ptr, ptr %Str.addr.i243, align 8
  %tobool.i246 = icmp ne ptr %101, null
  br i1 %tobool.i246, label %cond.true.i249, label %cond.false.i247

cond.true.i249:                                   ; preds = %if.end54
  %102 = load ptr, ptr %Str.addr.i243, align 8
  %call.i250 = call i64 @strlen(ptr noundef %102) #12
  br label %_ZN4llvh9StringRefC2EPKc.exit251

cond.false.i247:                                  ; preds = %if.end54
  br label %_ZN4llvh9StringRefC2EPKc.exit251

_ZN4llvh9StringRefC2EPKc.exit251:                 ; preds = %cond.false.i247, %cond.true.i249
  %cond.i248 = phi i64 [ %call.i250, %cond.true.i249 ], [ 0, %cond.false.i247 ]
  store i64 %cond.i248, ptr %Length.i245, align 8
  %103 = getelementptr inbounds { ptr, i64 }, ptr %agg.tmp55, i32 0, i32 0
  %104 = load ptr, ptr %103, align 8
  %105 = getelementptr inbounds { ptr, i64 }, ptr %agg.tmp55, i32 0, i32 1
  %106 = load i64, ptr %105, align 8
  %call56 = call noundef i64 @_ZNK4llvh9StringRef13find_first_ofES0_m(ptr noundef nonnull align 8 dereferenceable(16) %Buffer, ptr %104, i64 %106, i64 noundef 0)
  store i64 %call56, ptr %EOL, align 8
  store ptr %Buffer, ptr %this.addr.i178, align 8
  %this1.i179 = load ptr, ptr %this.addr.i178, align 8
  %107 = load ptr, ptr %this1.i179, align 8
  %call58 = call ptr @_ZN4llvh5SMLoc14getFromPointerEPKc(ptr noundef %107)
  %coerce.dive59 = getelementptr inbounds %"class.llvh::SMLoc", ptr %PatternLoc, i32 0, i32 0
  store ptr %call58, ptr %coerce.dive59, align 8
  %108 = load i32, ptr %CheckTy, align 4
  call void @_ZN4llvh16FileCheckPatternC2ENS_5Check13FileCheckTypeE(ptr noundef nonnull align 8 dereferenceable(136) %P, i32 noundef %108)
  %109 = load i64, ptr %EOL, align 8
  store ptr %Buffer, ptr %this.addr.i190, align 8
  store i64 0, ptr %Start.addr.i191, align 8
  store i64 %109, ptr %N.addr.i192, align 8
  %this1.i194 = load ptr, ptr %this.addr.i190, align 8
  %Length.i195 = getelementptr inbounds %"class.llvh::StringRef", ptr %this1.i194, i32 0, i32 1
  %call.i196 = call noundef nonnull align 8 dereferenceable(8) ptr @_ZSt3minImERKT_S2_S2_(ptr noundef nonnull align 8 dereferenceable(8) %Start.addr.i191, ptr noundef nonnull align 8 dereferenceable(8) %Length.i195)
  %110 = load i64, ptr %call.i196, align 8
  store i64 %110, ptr %Start.addr.i191, align 8
  %111 = load ptr, ptr %this1.i194, align 8
  %112 = load i64, ptr %Start.addr.i191, align 8
  %add.ptr.i197 = getelementptr inbounds i8, ptr %111, i64 %112
  %Length2.i198 = getelementptr inbounds %"class.llvh::StringRef", ptr %this1.i194, i32 0, i32 1
  %113 = load i64, ptr %Length2.i198, align 8
  %114 = load i64, ptr %Start.addr.i191, align 8
  %sub.i199 = sub i64 %113, %114
  store i64 %sub.i199, ptr %ref.tmp.i193, align 8
  %call3.i200 = call noundef nonnull align 8 dereferenceable(8) ptr @_ZSt3minImERKT_S2_S2_(ptr noundef nonnull align 8 dereferenceable(8) %N.addr.i192, ptr noundef nonnull align 8 dereferenceable(8) %ref.tmp.i193)
  %115 = load i64, ptr %call3.i200, align 8
  store ptr %retval.i189, ptr %this.addr.i275, align 8
  store ptr %add.ptr.i197, ptr %data.addr.i276, align 8
  store i64 %115, ptr %length.addr.i277, align 8
  %this1.i278 = load ptr, ptr %this.addr.i275, align 8
  %116 = load ptr, ptr %data.addr.i276, align 8
  store ptr %116, ptr %this1.i278, align 8
  %Length.i279 = getelementptr inbounds %"class.llvh::StringRef", ptr %this1.i278, i32 0, i32 1
  %117 = load i64, ptr %length.addr.i277, align 8
  store i64 %117, ptr %Length.i279, align 8
  %118 = load { ptr, i64 }, ptr %retval.i189, align 8
  %119 = getelementptr inbounds { ptr, i64 }, ptr %agg.tmp60, i32 0, i32 0
  %120 = extractvalue { ptr, i64 } %118, 0
  store ptr %120, ptr %119, align 8
  %121 = getelementptr inbounds { ptr, i64 }, ptr %agg.tmp60, i32 0, i32 1
  %122 = extractvalue { ptr, i64 } %118, 1
  store i64 %122, ptr %121, align 8
  call void @llvm.memcpy.p0.p0.i64(ptr align 8 %agg.tmp62, ptr align 8 %UsedPrefix, i64 16, i1 false)
  %123 = load ptr, ptr %SM.addr, align 8
  %124 = load i32, ptr %LineNumber, align 4
  %Req63 = getelementptr inbounds %"class.llvh::FileCheck", ptr %this1, i32 0, i32 0
  %125 = getelementptr inbounds { ptr, i64 }, ptr %agg.tmp60, i32 0, i32 0
  %126 = load ptr, ptr %125, align 8
  %127 = getelementptr inbounds { ptr, i64 }, ptr %agg.tmp60, i32 0, i32 1
  %128 = load i64, ptr %127, align 8
  %129 = getelementptr inbounds { ptr, i64 }, ptr %agg.tmp62, i32 0, i32 0
  %130 = load ptr, ptr %129, align 8
  %131 = getelementptr inbounds { ptr, i64 }, ptr %agg.tmp62, i32 0, i32 1
  %132 = load i64, ptr %131, align 8
  %call64 = call noundef zeroext i1 @_ZN4llvh16FileCheckPattern12ParsePatternENS_9StringRefES1_RNS_9SourceMgrEjRKNS_16FileCheckRequestE(ptr noundef nonnull align 8 dereferenceable(136) %P, ptr %126, i64 %128, ptr %130, i64 %132, ptr noundef nonnull align 8 dereferenceable(120) %123, i32 noundef %124, ptr noundef nonnull align 8 dereferenceable(86) %Req63)
  br i1 %call64, label %if.then65, label %if.end66

if.then65:                                        ; preds = %_ZN4llvh9StringRefC2EPKc.exit251
  store i1 true, ptr %retval, align 1
  store i32 1, ptr %cleanup.dest.slot, align 4
  br label %cleanup

if.end66:                                         ; preds = %_ZN4llvh9StringRefC2EPKc.exit251
  %133 = load i32, ptr %CheckTy, align 4
  %cmp67 = icmp eq i32 %133, 6
  br i1 %cmp67, label %land.lhs.true68, label %if.end80

land.lhs.true68:                                  ; preds = %if.end66
  %call69 = call noundef zeroext i1 @_ZNK4llvh16FileCheckPattern11hasVariableEv(ptr noundef nonnull align 8 dereferenceable(136) %P)
  br i1 %call69, label %if.then70, label %if.end80

if.then70:                                        ; preds = %land.lhs.true68
  %134 = load ptr, ptr %SM.addr, align 8
  %135 = load ptr, ptr %UsedPrefixStart, align 8
  %call72 = call ptr @_ZN4llvh5SMLoc14getFromPointerEPKc(ptr noundef %135)
  %coerce.dive73 = getelementptr inbounds %"class.llvh::SMLoc", ptr %agg.tmp71, i32 0, i32 0
  store ptr %call72, ptr %coerce.dive73, align 8
  call void @_ZN4llvhplEPKcRKNS_9StringRefE(ptr sret(%"class.llvh::Twine") align 8 %ref.tmp75, ptr noundef @.str.33, ptr noundef nonnull align 8 dereferenceable(16) %UsedPrefix)
  call void @_ZN4llvh5TwineC2EPKc(ptr noundef nonnull align 8 dereferenceable(18) %ref.tmp76, ptr noundef @.str.34)
  call void @_ZN4llvhplERKNS_5TwineES2_(ptr sret(%"class.llvh::Twine") align 8 %ref.tmp74, ptr noundef nonnull align 8 dereferenceable(18) %ref.tmp75, ptr noundef nonnull align 8 dereferenceable(18) %ref.tmp76)
  call void @_ZN4llvh8ArrayRefINS_7SMRangeEEC2ENS_8NoneTypeE(ptr noundef nonnull align 8 dereferenceable(16) %agg.tmp77, i32 noundef 1)
  call void @_ZN4llvh8ArrayRefINS_7SMFixItEEC2ENS_8NoneTypeE(ptr noundef nonnull align 8 dereferenceable(16) %agg.tmp78, i32 noundef 1)
  %coerce.dive79 = getelementptr inbounds %"class.llvh::SMLoc", ptr %agg.tmp71, i32 0, i32 0
  %136 = load ptr, ptr %coerce.dive79, align 8
  %137 = getelementptr inbounds { ptr, i64 }, ptr %agg.tmp77, i32 0, i32 0
  %138 = load ptr, ptr %137, align 8
  %139 = getelementptr inbounds { ptr, i64 }, ptr %agg.tmp77, i32 0, i32 1
  %140 = load i64, ptr %139, align 8
  call void @_ZNK4llvh9SourceMgr12PrintMessageENS_5SMLocENS0_8DiagKindERKNS_5TwineENS_8ArrayRefINS_7SMRangeEEENS6_INS_7SMFixItEEEb(ptr noundef nonnull align 8 dereferenceable(120) %134, ptr %136, i32 noundef 0, ptr noundef nonnull align 8 dereferenceable(18) %ref.tmp74, ptr %138, i64 %140, ptr noundef byval(%"class.llvh::ArrayRef.24") align 8 %agg.tmp78, i1 noundef zeroext true)
  store i1 true, ptr %retval, align 1
  store i32 1, ptr %cleanup.dest.slot, align 4
  br label %cleanup

if.end80:                                         ; preds = %land.lhs.true68, %if.end66
  %141 = load i64, ptr %EOL, align 8
  store ptr %Buffer, ptr %this.addr.i186, align 8
  store i64 %141, ptr %Start.addr.i, align 8
  store i64 -1, ptr %N.addr.i, align 8
  %this1.i187 = load ptr, ptr %this.addr.i186, align 8
  %Length.i188 = getelementptr inbounds %"class.llvh::StringRef", ptr %this1.i187, i32 0, i32 1
  %call.i = call noundef nonnull align 8 dereferenceable(8) ptr @_ZSt3minImERKT_S2_S2_(ptr noundef nonnull align 8 dereferenceable(8) %Start.addr.i, ptr noundef nonnull align 8 dereferenceable(8) %Length.i188)
  %142 = load i64, ptr %call.i, align 8
  store i64 %142, ptr %Start.addr.i, align 8
  %143 = load ptr, ptr %this1.i187, align 8
  %144 = load i64, ptr %Start.addr.i, align 8
  %add.ptr.i = getelementptr inbounds i8, ptr %143, i64 %144
  %Length2.i = getelementptr inbounds %"class.llvh::StringRef", ptr %this1.i187, i32 0, i32 1
  %145 = load i64, ptr %Length2.i, align 8
  %146 = load i64, ptr %Start.addr.i, align 8
  %sub.i = sub i64 %145, %146
  store i64 %sub.i, ptr %ref.tmp.i, align 8
  %call3.i = call noundef nonnull align 8 dereferenceable(8) ptr @_ZSt3minImERKT_S2_S2_(ptr noundef nonnull align 8 dereferenceable(8) %N.addr.i, ptr noundef nonnull align 8 dereferenceable(8) %ref.tmp.i)
  %147 = load i64, ptr %call3.i, align 8
  store ptr %retval.i, ptr %this.addr.i280, align 8
  store ptr %add.ptr.i, ptr %data.addr.i281, align 8
  store i64 %147, ptr %length.addr.i282, align 8
  %this1.i283 = load ptr, ptr %this.addr.i280, align 8
  %148 = load ptr, ptr %data.addr.i281, align 8
  store ptr %148, ptr %this1.i283, align 8
  %Length.i284 = getelementptr inbounds %"class.llvh::StringRef", ptr %this1.i283, i32 0, i32 1
  %149 = load i64, ptr %length.addr.i282, align 8
  store i64 %149, ptr %Length.i284, align 8
  %150 = load { ptr, i64 }, ptr %retval.i, align 8
  %151 = getelementptr inbounds { ptr, i64 }, ptr %ref.tmp81, i32 0, i32 0
  %152 = extractvalue { ptr, i64 } %150, 0
  store ptr %152, ptr %151, align 8
  %153 = getelementptr inbounds { ptr, i64 }, ptr %ref.tmp81, i32 0, i32 1
  %154 = extractvalue { ptr, i64 } %150, 1
  store i64 %154, ptr %153, align 8
  call void @llvm.memcpy.p0.p0.i64(ptr align 8 %Buffer, ptr align 8 %ref.tmp81, i64 16, i1 false)
  %155 = load i32, ptr %CheckTy, align 4
  %cmp83 = icmp eq i32 %155, 2
  br i1 %cmp83, label %land.lhs.true87, label %lor.lhs.false

lor.lhs.false:                                    ; preds = %if.end80
  %156 = load i32, ptr %CheckTy, align 4
  %cmp84 = icmp eq i32 %156, 3
  br i1 %cmp84, label %land.lhs.true87, label %lor.lhs.false85

lor.lhs.false85:                                  ; preds = %lor.lhs.false
  %157 = load i32, ptr %CheckTy, align 4
  %cmp86 = icmp eq i32 %157, 7
  br i1 %cmp86, label %land.lhs.true87, label %if.end110

land.lhs.true87:                                  ; preds = %lor.lhs.false85, %lor.lhs.false, %if.end80
  %158 = load ptr, ptr %CheckStrings.addr, align 8
  %call88 = call noundef zeroext i1 @_ZNKSt6vectorIN4llvh15FileCheckStringESaIS1_EE5emptyEv(ptr noundef nonnull align 8 dereferenceable(24) %158) #13
  br i1 %call88, label %if.then89, label %if.end110

if.then89:                                        ; preds = %land.lhs.true87
  %159 = load i32, ptr %CheckTy, align 4
  %cmp90 = icmp eq i32 %159, 2
  br i1 %cmp90, label %cond.true, label %cond.false

cond.true:                                        ; preds = %if.then89
  br label %cond.end

cond.false:                                       ; preds = %if.then89
  %160 = load i32, ptr %CheckTy, align 4
  %cmp91 = icmp eq i32 %160, 7
  %cond = select i1 %cmp91, ptr @.str.36, ptr @.str.37
  br label %cond.end

cond.end:                                         ; preds = %cond.false, %cond.true
  %cond92 = phi ptr [ @.str.35, %cond.true ], [ %cond, %cond.false ]
  store ptr %Type, ptr %this.addr.i252, align 8
  store ptr %cond92, ptr %Str.addr.i253, align 8
  %this1.i254 = load ptr, ptr %this.addr.i252, align 8
  %161 = load ptr, ptr %Str.addr.i253, align 8
  store ptr %161, ptr %this1.i254, align 8
  %Length.i255 = getelementptr inbounds %"class.llvh::StringRef", ptr %this1.i254, i32 0, i32 1
  %162 = load ptr, ptr %Str.addr.i253, align 8
  %tobool.i256 = icmp ne ptr %162, null
  br i1 %tobool.i256, label %cond.true.i259, label %cond.false.i257

cond.true.i259:                                   ; preds = %cond.end
  %163 = load ptr, ptr %Str.addr.i253, align 8
  %call.i260 = call i64 @strlen(ptr noundef %163) #12
  br label %_ZN4llvh9StringRefC2EPKc.exit261

cond.false.i257:                                  ; preds = %cond.end
  br label %_ZN4llvh9StringRefC2EPKc.exit261

_ZN4llvh9StringRefC2EPKc.exit261:                 ; preds = %cond.false.i257, %cond.true.i259
  %cond.i258 = phi i64 [ %call.i260, %cond.true.i259 ], [ 0, %cond.false.i257 ]
  store i64 %cond.i258, ptr %Length.i255, align 8
  %164 = load ptr, ptr %SM.addr, align 8
  %165 = load ptr, ptr %UsedPrefixStart, align 8
  %call94 = call ptr @_ZN4llvh5SMLoc14getFromPointerEPKc(ptr noundef %165)
  %coerce.dive95 = getelementptr inbounds %"class.llvh::SMLoc", ptr %agg.tmp93, i32 0, i32 0
  store ptr %call94, ptr %coerce.dive95, align 8
  call void @_ZN4llvhplEPKcRKNS_9StringRefE(ptr sret(%"class.llvh::Twine") align 8 %ref.tmp101, ptr noundef @.str.33, ptr noundef nonnull align 8 dereferenceable(16) %UsedPrefix)
  call void @_ZN4llvh5TwineC2EPKc(ptr noundef nonnull align 8 dereferenceable(18) %ref.tmp102, ptr noundef @.str.38)
  call void @_ZN4llvhplERKNS_5TwineES2_(ptr sret(%"class.llvh::Twine") align 8 %ref.tmp100, ptr noundef nonnull align 8 dereferenceable(18) %ref.tmp101, ptr noundef nonnull align 8 dereferenceable(18) %ref.tmp102)
  call void @_ZN4llvh5TwineC2ERKNS_9StringRefE(ptr noundef nonnull align 8 dereferenceable(18) %ref.tmp103, ptr noundef nonnull align 8 dereferenceable(16) %Type)
  call void @_ZN4llvhplERKNS_5TwineES2_(ptr sret(%"class.llvh::Twine") align 8 %ref.tmp99, ptr noundef nonnull align 8 dereferenceable(18) %ref.tmp100, ptr noundef nonnull align 8 dereferenceable(18) %ref.tmp103)
  call void @_ZN4llvh5TwineC2EPKc(ptr noundef nonnull align 8 dereferenceable(18) %ref.tmp104, ptr noundef @.str.39)
  call void @_ZN4llvhplERKNS_5TwineES2_(ptr sret(%"class.llvh::Twine") align 8 %ref.tmp98, ptr noundef nonnull align 8 dereferenceable(18) %ref.tmp99, ptr noundef nonnull align 8 dereferenceable(18) %ref.tmp104)
  call void @_ZN4llvh5TwineC2ERKNS_9StringRefE(ptr noundef nonnull align 8 dereferenceable(18) %ref.tmp105, ptr noundef nonnull align 8 dereferenceable(16) %UsedPrefix)
  call void @_ZN4llvhplERKNS_5TwineES2_(ptr sret(%"class.llvh::Twine") align 8 %ref.tmp97, ptr noundef nonnull align 8 dereferenceable(18) %ref.tmp98, ptr noundef nonnull align 8 dereferenceable(18) %ref.tmp105)
  call void @_ZN4llvh5TwineC2EPKc(ptr noundef nonnull align 8 dereferenceable(18) %ref.tmp106, ptr noundef @.str.40)
  call void @_ZN4llvhplERKNS_5TwineES2_(ptr sret(%"class.llvh::Twine") align 8 %ref.tmp96, ptr noundef nonnull align 8 dereferenceable(18) %ref.tmp97, ptr noundef nonnull align 8 dereferenceable(18) %ref.tmp106)
  call void @_ZN4llvh8ArrayRefINS_7SMRangeEEC2ENS_8NoneTypeE(ptr noundef nonnull align 8 dereferenceable(16) %agg.tmp107, i32 noundef 1)
  call void @_ZN4llvh8ArrayRefINS_7SMFixItEEC2ENS_8NoneTypeE(ptr noundef nonnull align 8 dereferenceable(16) %agg.tmp108, i32 noundef 1)
  %coerce.dive109 = getelementptr inbounds %"class.llvh::SMLoc", ptr %agg.tmp93, i32 0, i32 0
  %166 = load ptr, ptr %coerce.dive109, align 8
  %167 = getelementptr inbounds { ptr, i64 }, ptr %agg.tmp107, i32 0, i32 0
  %168 = load ptr, ptr %167, align 8
  %169 = getelementptr inbounds { ptr, i64 }, ptr %agg.tmp107, i32 0, i32 1
  %170 = load i64, ptr %169, align 8
  call void @_ZNK4llvh9SourceMgr12PrintMessageENS_5SMLocENS0_8DiagKindERKNS_5TwineENS_8ArrayRefINS_7SMRangeEEENS6_INS_7SMFixItEEEb(ptr noundef nonnull align 8 dereferenceable(120) %164, ptr %166, i32 noundef 0, ptr noundef nonnull align 8 dereferenceable(18) %ref.tmp96, ptr %168, i64 %170, ptr noundef byval(%"class.llvh::ArrayRef.24") align 8 %agg.tmp108, i1 noundef zeroext true)
  store i1 true, ptr %retval, align 1
  store i32 1, ptr %cleanup.dest.slot, align 4
  br label %cleanup

if.end110:                                        ; preds = %land.lhs.true87, %lor.lhs.false85
  %171 = load i32, ptr %CheckTy, align 4
  %cmp111 = icmp eq i32 %171, 5
  br i1 %cmp111, label %if.then114, label %lor.lhs.false112

lor.lhs.false112:                                 ; preds = %if.end110
  %172 = load i32, ptr %CheckTy, align 4
  %cmp113 = icmp eq i32 %172, 4
  br i1 %cmp113, label %if.then114, label %if.end115

if.then114:                                       ; preds = %lor.lhs.false112, %if.end110
  call void @_ZNSt6vectorIN4llvh16FileCheckPatternESaIS1_EE9push_backERKS1_(ptr noundef nonnull align 8 dereferenceable(24) %DagNotMatches, ptr noundef nonnull align 8 dereferenceable(136) %P)
  store i32 4, ptr %cleanup.dest.slot, align 4
  br label %cleanup, !llvm.loop !12

if.end115:                                        ; preds = %lor.lhs.false112
  %173 = load ptr, ptr %CheckStrings.addr, align 8
  %call116 = call noundef nonnull align 8 dereferenceable(184) ptr @_ZNSt6vectorIN4llvh15FileCheckStringESaIS1_EE12emplace_backIJRNS0_16FileCheckPatternERNS0_9StringRefERNS0_5SMLocEEEERS1_DpOT_(ptr noundef nonnull align 8 dereferenceable(24) %173, ptr noundef nonnull align 8 dereferenceable(136) %P, ptr noundef nonnull align 8 dereferenceable(16) %UsedPrefix, ptr noundef nonnull align 8 dereferenceable(8) %PatternLoc)
  %174 = load ptr, ptr %CheckStrings.addr, align 8
  %call117 = call noundef nonnull align 8 dereferenceable(184) ptr @_ZNSt6vectorIN4llvh15FileCheckStringESaIS1_EE4backEv(ptr noundef nonnull align 8 dereferenceable(24) %174) #13
  %DagNotStrings = getelementptr inbounds %"struct.llvh::FileCheckString", ptr %call117, i32 0, i32 3
  call void @_ZSt4swapIN4llvh16FileCheckPatternESaIS1_EEvRSt6vectorIT_T0_ES7_(ptr noundef nonnull align 8 dereferenceable(24) %DagNotMatches, ptr noundef nonnull align 8 dereferenceable(24) %DagNotStrings) #13
  %call118 = call noundef nonnull align 8 dereferenceable(24) ptr @_ZNSt6vectorIN4llvh16FileCheckPatternESaIS1_EEaSERKS3_(ptr noundef nonnull align 8 dereferenceable(24) %DagNotMatches, ptr noundef nonnull align 8 dereferenceable(24) %ImplicitNegativeChecks)
  store i32 0, ptr %cleanup.dest.slot, align 4
  br label %cleanup

cleanup:                                          ; preds = %if.end115, %if.then114, %_ZN4llvh9StringRefC2EPKc.exit261, %if.then70, %if.then65
  call void @_ZN4llvh16FileCheckPatternD2Ev(ptr noundef nonnull align 8 dereferenceable(136) %P) #13
  %cleanup.dest = load i32, ptr %cleanup.dest.slot, align 4
  switch i32 %cleanup.dest, label %cleanup176 [
    i32 0, label %cleanup.cont
    i32 4, label %while.cond
  ]

cleanup.cont:                                     ; preds = %cleanup
  br label %while.cond, !llvm.loop !12

while.end:                                        ; preds = %if.then
  %call119 = call noundef zeroext i1 @_ZNKSt6vectorIN4llvh16FileCheckPatternESaIS1_EE5emptyEv(ptr noundef nonnull align 8 dereferenceable(24) %DagNotMatches) #13
  br i1 %call119, label %if.end134, label %if.then120

if.then120:                                       ; preds = %while.end
  %175 = load ptr, ptr %CheckStrings.addr, align 8
  call void @_ZN4llvh16FileCheckPatternC2ENS_5Check13FileCheckTypeE(ptr noundef nonnull align 8 dereferenceable(136) %ref.tmp121, i32 noundef 8)
  %Req123 = getelementptr inbounds %"class.llvh::FileCheck", ptr %this1, i32 0, i32 0
  %CheckPrefixes = getelementptr inbounds %"struct.llvh::FileCheckRequest", ptr %Req123, i32 0, i32 0
  %call124 = call ptr @_ZNSt6vectorINSt7__cxx1112basic_stringIcSt11char_traitsIcESaIcEEESaIS5_EE5beginEv(ptr noundef nonnull align 8 dereferenceable(24) %CheckPrefixes) #13
  %coerce.dive125 = getelementptr inbounds %"class.__gnu_cxx::__normal_iterator.48", ptr %ref.tmp122, i32 0, i32 0
  store ptr %call124, ptr %coerce.dive125, align 8
  %call126 = call noundef nonnull align 8 dereferenceable(32) ptr @_ZNK9__gnu_cxx17__normal_iteratorIPNSt7__cxx1112basic_stringIcSt11char_traitsIcESaIcEEESt6vectorIS6_SaIS6_EEEdeEv(ptr noundef nonnull align 8 dereferenceable(8) %ref.tmp122) #13
  store ptr %Buffer, ptr %this.addr.i, align 8
  %this1.i = load ptr, ptr %this.addr.i, align 8
  %176 = load ptr, ptr %this1.i, align 8
  %call129 = call ptr @_ZN4llvh5SMLoc14getFromPointerEPKc(ptr noundef %176)
  %coerce.dive130 = getelementptr inbounds %"class.llvh::SMLoc", ptr %ref.tmp127, i32 0, i32 0
  store ptr %call129, ptr %coerce.dive130, align 8
  %call131 = call noundef nonnull align 8 dereferenceable(184) ptr @_ZNSt6vectorIN4llvh15FileCheckStringESaIS1_EE12emplace_backIJNS0_16FileCheckPatternERNSt7__cxx1112basic_stringIcSt11char_traitsIcESaIcEEENS0_5SMLocEEEERS1_DpOT_(ptr noundef nonnull align 8 dereferenceable(24) %175, ptr noundef nonnull align 8 dereferenceable(136) %ref.tmp121, ptr noundef nonnull align 8 dereferenceable(32) %call126, ptr noundef nonnull align 8 dereferenceable(8) %ref.tmp127)
  call void @_ZN4llvh16FileCheckPatternD2Ev(ptr noundef nonnull align 8 dereferenceable(136) %ref.tmp121) #13
  %177 = load ptr, ptr %CheckStrings.addr, align 8
  %call132 = call noundef nonnull align 8 dereferenceable(184) ptr @_ZNSt6vectorIN4llvh15FileCheckStringESaIS1_EE4backEv(ptr noundef nonnull align 8 dereferenceable(24) %177) #13
  %DagNotStrings133 = getelementptr inbounds %"struct.llvh::FileCheckString", ptr %call132, i32 0, i32 3
  call void @_ZSt4swapIN4llvh16FileCheckPatternESaIS1_EEvRSt6vectorIT_T0_ES7_(ptr noundef nonnull align 8 dereferenceable(24) %DagNotMatches, ptr noundef nonnull align 8 dereferenceable(24) %DagNotStrings133) #13
  br label %if.end134

if.end134:                                        ; preds = %if.then120, %while.end
  %178 = load ptr, ptr %CheckStrings.addr, align 8
  %call135 = call noundef zeroext i1 @_ZNKSt6vectorIN4llvh15FileCheckStringESaIS1_EE5emptyEv(ptr noundef nonnull align 8 dereferenceable(24) %178) #13
  br i1 %call135, label %if.then136, label %if.end175

if.then136:                                       ; preds = %if.end134
  %call137 = call noundef nonnull align 8 dereferenceable(36) ptr @_ZN4llvh4errsEv()
  %call138 = call noundef nonnull align 8 dereferenceable(36) ptr @_ZN4llvh11raw_ostreamlsEPKc(ptr noundef nonnull align 8 dereferenceable(36) %call137, ptr noundef @.str.41)
  %Req139 = getelementptr inbounds %"class.llvh::FileCheck", ptr %this1, i32 0, i32 0
  %CheckPrefixes140 = getelementptr inbounds %"struct.llvh::FileCheckRequest", ptr %Req139, i32 0, i32 0
  %call141 = call noundef i64 @_ZNKSt6vectorINSt7__cxx1112basic_stringIcSt11char_traitsIcESaIcEEESaIS5_EE4sizeEv(ptr noundef nonnull align 8 dereferenceable(24) %CheckPrefixes140) #13
  %cmp142 = icmp ugt i64 %call141, 1
  %cond143 = select i1 %cmp142, ptr @.str.42, ptr @.str.43
  %call144 = call noundef nonnull align 8 dereferenceable(36) ptr @_ZN4llvh11raw_ostreamlsEPKc(ptr noundef nonnull align 8 dereferenceable(36) %call138, ptr noundef %cond143)
  %Req145 = getelementptr inbounds %"class.llvh::FileCheck", ptr %this1, i32 0, i32 0
  %CheckPrefixes146 = getelementptr inbounds %"struct.llvh::FileCheckRequest", ptr %Req145, i32 0, i32 0
  %call147 = call ptr @_ZNSt6vectorINSt7__cxx1112basic_stringIcSt11char_traitsIcESaIcEEESaIS5_EE5beginEv(ptr noundef nonnull align 8 dereferenceable(24) %CheckPrefixes146) #13
  %coerce.dive148 = getelementptr inbounds %"class.__gnu_cxx::__normal_iterator.48", ptr %I, i32 0, i32 0
  store ptr %call147, ptr %coerce.dive148, align 8
  %Req149 = getelementptr inbounds %"class.llvh::FileCheck", ptr %this1, i32 0, i32 0
  %CheckPrefixes150 = getelementptr inbounds %"struct.llvh::FileCheckRequest", ptr %Req149, i32 0, i32 0
  %call151 = call ptr @_ZNSt6vectorINSt7__cxx1112basic_stringIcSt11char_traitsIcESaIcEEESaIS5_EE3endEv(ptr noundef nonnull align 8 dereferenceable(24) %CheckPrefixes150) #13
  %coerce.dive152 = getelementptr inbounds %"class.__gnu_cxx::__normal_iterator.48", ptr %E, i32 0, i32 0
  store ptr %call151, ptr %coerce.dive152, align 8
  %call153 = call noundef zeroext i1 @_ZN9__gnu_cxxneIPNSt7__cxx1112basic_stringIcSt11char_traitsIcESaIcEEESt6vectorIS6_SaIS6_EEEEbRKNS_17__normal_iteratorIT_T0_EESG_(ptr noundef nonnull align 8 dereferenceable(8) %I, ptr noundef nonnull align 8 dereferenceable(8) %E) #13
  br i1 %call153, label %if.then154, label %if.end161

if.then154:                                       ; preds = %if.then136
  %call155 = call noundef nonnull align 8 dereferenceable(36) ptr @_ZN4llvh4errsEv()
  %call156 = call noundef nonnull align 8 dereferenceable(36) ptr @_ZN4llvh11raw_ostreamlsEPKc(ptr noundef nonnull align 8 dereferenceable(36) %call155, ptr noundef @.str.27)
  %call157 = call noundef nonnull align 8 dereferenceable(32) ptr @_ZNK9__gnu_cxx17__normal_iteratorIPNSt7__cxx1112basic_stringIcSt11char_traitsIcESaIcEEESt6vectorIS6_SaIS6_EEEdeEv(ptr noundef nonnull align 8 dereferenceable(8) %I) #13
  %call158 = call noundef nonnull align 8 dereferenceable(36) ptr @_ZN4llvh11raw_ostreamlsERKNSt7__cxx1112basic_stringIcSt11char_traitsIcESaIcEEE(ptr noundef nonnull align 8 dereferenceable(36) %call156, ptr noundef nonnull align 8 dereferenceable(32) %call157)
  %call159 = call noundef nonnull align 8 dereferenceable(36) ptr @_ZN4llvh11raw_ostreamlsEPKc(ptr noundef nonnull align 8 dereferenceable(36) %call158, ptr noundef @.str.1)
  %call160 = call noundef nonnull align 8 dereferenceable(8) ptr @_ZN9__gnu_cxx17__normal_iteratorIPNSt7__cxx1112basic_stringIcSt11char_traitsIcESaIcEEESt6vectorIS6_SaIS6_EEEppEv(ptr noundef nonnull align 8 dereferenceable(8) %I) #13
  br label %if.end161

if.end161:                                        ; preds = %if.then154, %if.then136
  br label %for.cond162

for.cond162:                                      ; preds = %for.inc170, %if.end161
  %call163 = call noundef zeroext i1 @_ZN9__gnu_cxxneIPNSt7__cxx1112basic_stringIcSt11char_traitsIcESaIcEEESt6vectorIS6_SaIS6_EEEEbRKNS_17__normal_iteratorIT_T0_EESG_(ptr noundef nonnull align 8 dereferenceable(8) %I, ptr noundef nonnull align 8 dereferenceable(8) %E) #13
  br i1 %call163, label %for.body164, label %for.end172

for.body164:                                      ; preds = %for.cond162
  %call165 = call noundef nonnull align 8 dereferenceable(36) ptr @_ZN4llvh4errsEv()
  %call166 = call noundef nonnull align 8 dereferenceable(36) ptr @_ZN4llvh11raw_ostreamlsEPKc(ptr noundef nonnull align 8 dereferenceable(36) %call165, ptr noundef @.str.44)
  %call167 = call noundef nonnull align 8 dereferenceable(32) ptr @_ZNK9__gnu_cxx17__normal_iteratorIPNSt7__cxx1112basic_stringIcSt11char_traitsIcESaIcEEESt6vectorIS6_SaIS6_EEEdeEv(ptr noundef nonnull align 8 dereferenceable(8) %I) #13
  %call168 = call noundef nonnull align 8 dereferenceable(36) ptr @_ZN4llvh11raw_ostreamlsERKNSt7__cxx1112basic_stringIcSt11char_traitsIcESaIcEEE(ptr noundef nonnull align 8 dereferenceable(36) %call166, ptr noundef nonnull align 8 dereferenceable(32) %call167)
  %call169 = call noundef nonnull align 8 dereferenceable(36) ptr @_ZN4llvh11raw_ostreamlsEPKc(ptr noundef nonnull align 8 dereferenceable(36) %call168, ptr noundef @.str.1)
  br label %for.inc170

for.inc170:                                       ; preds = %for.body164
  %call171 = call noundef nonnull align 8 dereferenceable(8) ptr @_ZN9__gnu_cxx17__normal_iteratorIPNSt7__cxx1112basic_stringIcSt11char_traitsIcESaIcEEESt6vectorIS6_SaIS6_EEEppEv(ptr noundef nonnull align 8 dereferenceable(8) %I) #13
  br label %for.cond162, !llvm.loop !13

for.end172:                                       ; preds = %for.cond162
  %call173 = call noundef nonnull align 8 dereferenceable(36) ptr @_ZN4llvh4errsEv()
  %call174 = call noundef nonnull align 8 dereferenceable(36) ptr @_ZN4llvh11raw_ostreamlsEc(ptr noundef nonnull align 8 dereferenceable(36) %call173, i8 noundef signext 10)
  store i1 true, ptr %retval, align 1
  store i32 1, ptr %cleanup.dest.slot, align 4
  br label %cleanup176

if.end175:                                        ; preds = %if.end134
  store i1 false, ptr %retval, align 1
  store i32 1, ptr %cleanup.dest.slot, align 4
  br label %cleanup176

cleanup176:                                       ; preds = %if.end175, %for.end172, %cleanup, %if.then34
  call void @_ZNSt6vectorIN4llvh16FileCheckPatternESaIS1_EED2Ev(ptr noundef nonnull align 8 dereferenceable(24) %DagNotMatches) #13
  call void @_ZNSt6vectorIN4llvh16FileCheckPatternESaIS1_EED2Ev(ptr noundef nonnull align 8 dereferenceable(24) %ImplicitNegativeChecks) #13
  %179 = load i1, ptr %retval, align 1
  ret i1 %179
}

; Function Attrs: mustprogress nounwind uwtable
define linkonce_odr hidden void @_ZNSt6vectorIN4llvh16FileCheckPatternESaIS1_EEC2Ev(ptr noundef nonnull align 8 dereferenceable(24) %this) unnamed_addr #0 comdat align 2 {
entry:
  %this.addr = alloca ptr, align 8
  store ptr %this, ptr %this.addr, align 8
  %this1 = load ptr, ptr %this.addr, align 8
  call void @_ZNSt12_Vector_baseIN4llvh16FileCheckPatternESaIS1_EEC2Ev(ptr noundef nonnull align 8 dereferenceable(24) %this1) #13
  ret void
}

; Function Attrs: mustprogress nounwind uwtable
define linkonce_odr ptr @_ZNSt6vectorINSt7__cxx1112basic_stringIcSt11char_traitsIcESaIcEEESaIS5_EE5beginEv(ptr noundef nonnull align 8 dereferenceable(24) %this) #0 comdat align 2 {
entry:
  %retval = alloca %"class.__gnu_cxx::__normal_iterator.48", align 8
  %this.addr = alloca ptr, align 8
  store ptr %this, ptr %this.addr, align 8
  %this1 = load ptr, ptr %this.addr, align 8
  %_M_impl = getelementptr inbounds %"struct.std::_Vector_base", ptr %this1, i32 0, i32 0
  %_M_start = getelementptr inbounds %"struct.std::_Vector_base<std::__cxx11::basic_string<char>, std::allocator<std::__cxx11::basic_string<char>>>::_Vector_impl_data", ptr %_M_impl, i32 0, i32 0
  call void @_ZN9__gnu_cxx17__normal_iteratorIPNSt7__cxx1112basic_stringIcSt11char_traitsIcESaIcEEESt6vectorIS6_SaIS6_EEEC2ERKS7_(ptr noundef nonnull align 8 dereferenceable(8) %retval, ptr noundef nonnull align 8 dereferenceable(8) %_M_start) #13
  %coerce.dive = getelementptr inbounds %"class.__gnu_cxx::__normal_iterator.48", ptr %retval, i32 0, i32 0
  %0 = load ptr, ptr %coerce.dive, align 8
  ret ptr %0
}

; Function Attrs: mustprogress nounwind uwtable
define linkonce_odr ptr @_ZNSt6vectorINSt7__cxx1112basic_stringIcSt11char_traitsIcESaIcEEESaIS5_EE3endEv(ptr noundef nonnull align 8 dereferenceable(24) %this) #0 comdat align 2 {
entry:
  %retval = alloca %"class.__gnu_cxx::__normal_iterator.48", align 8
  %this.addr = alloca ptr, align 8
  store ptr %this, ptr %this.addr, align 8
  %this1 = load ptr, ptr %this.addr, align 8
  %_M_impl = getelementptr inbounds %"struct.std::_Vector_base", ptr %this1, i32 0, i32 0
  %_M_finish = getelementptr inbounds %"struct.std::_Vector_base<std::__cxx11::basic_string<char>, std::allocator<std::__cxx11::basic_string<char>>>::_Vector_impl_data", ptr %_M_impl, i32 0, i32 1
  call void @_ZN9__gnu_cxx17__normal_iteratorIPNSt7__cxx1112basic_stringIcSt11char_traitsIcESaIcEEESt6vectorIS6_SaIS6_EEEC2ERKS7_(ptr noundef nonnull align 8 dereferenceable(8) %retval, ptr noundef nonnull align 8 dereferenceable(8) %_M_finish) #13
  %coerce.dive = getelementptr inbounds %"class.__gnu_cxx::__normal_iterator.48", ptr %retval, i32 0, i32 0
  %0 = load ptr, ptr %coerce.dive, align 8
  ret ptr %0
}

; Function Attrs: mustprogress nounwind uwtable
define linkonce_odr noundef zeroext i1 @_ZN9__gnu_cxxneIPNSt7__cxx1112basic_stringIcSt11char_traitsIcESaIcEEESt6vectorIS6_SaIS6_EEEEbRKNS_17__normal_iteratorIT_T0_EESG_(ptr noundef nonnull align 8 dereferenceable(8) %__lhs, ptr noundef nonnull align 8 dereferenceable(8) %__rhs) #0 comdat {
entry:
  %__lhs.addr = alloca ptr, align 8
  %__rhs.addr = alloca ptr, align 8
  store ptr %__lhs, ptr %__lhs.addr, align 8
  store ptr %__rhs, ptr %__rhs.addr, align 8
  %0 = load ptr, ptr %__lhs.addr, align 8
  %call = call noundef nonnull align 8 dereferenceable(8) ptr @_ZNK9__gnu_cxx17__normal_iteratorIPNSt7__cxx1112basic_stringIcSt11char_traitsIcESaIcEEESt6vectorIS6_SaIS6_EEE4baseEv(ptr noundef nonnull align 8 dereferenceable(8) %0) #13
  %1 = load ptr, ptr %call, align 8
  %2 = load ptr, ptr %__rhs.addr, align 8
  %call1 = call noundef nonnull align 8 dereferenceable(8) ptr @_ZNK9__gnu_cxx17__normal_iteratorIPNSt7__cxx1112basic_stringIcSt11char_traitsIcESaIcEEESt6vectorIS6_SaIS6_EEE4baseEv(ptr noundef nonnull align 8 dereferenceable(8) %2) #13
  %3 = load ptr, ptr %call1, align 8
  %cmp = icmp ne ptr %1, %3
  ret i1 %cmp
}

; Function Attrs: mustprogress nounwind uwtable
define linkonce_odr noundef nonnull align 8 dereferenceable(32) ptr @_ZNK9__gnu_cxx17__normal_iteratorIPNSt7__cxx1112basic_stringIcSt11char_traitsIcESaIcEEESt6vectorIS6_SaIS6_EEEdeEv(ptr noundef nonnull align 8 dereferenceable(8) %this) #0 comdat align 2 {
entry:
  %this.addr = alloca ptr, align 8
  store ptr %this, ptr %this.addr, align 8
  %this1 = load ptr, ptr %this.addr, align 8
  %_M_current = getelementptr inbounds %"class.__gnu_cxx::__normal_iterator.48", ptr %this1, i32 0, i32 0
  %0 = load ptr, ptr %_M_current, align 8
  ret ptr %0
}

declare void @_ZN4llvh12MemoryBuffer16getMemBufferCopyENS_9StringRefERKNS_5TwineE(ptr sret(%"class.std::unique_ptr") align 8, ptr, i64, ptr noundef nonnull align 8 dereferenceable(18)) #2

; Function Attrs: mustprogress nounwind uwtable
define linkonce_odr void @_ZStplIcSt11char_traitsIcESaIcEENSt7__cxx1112basic_stringIT_T0_T1_EEOS8_RKS8_(ptr noalias sret(%"class.std::__cxx11::basic_string") align 8 %agg.result, ptr noundef nonnull align 8 dereferenceable(32) %__lhs, ptr noundef nonnull align 8 dereferenceable(32) %__rhs) #0 comdat {
entry:
  %result.ptr = alloca ptr, align 8
  %__lhs.addr = alloca ptr, align 8
  %__rhs.addr = alloca ptr, align 8
  store ptr %agg.result, ptr %result.ptr, align 8
  store ptr %__lhs, ptr %__lhs.addr, align 8
  store ptr %__rhs, ptr %__rhs.addr, align 8
  %0 = load ptr, ptr %__lhs.addr, align 8
  %1 = load ptr, ptr %__rhs.addr, align 8
  %call = call noundef nonnull align 8 dereferenceable(32) ptr @_ZNSt7__cxx1112basic_stringIcSt11char_traitsIcESaIcEE6appendERKS4_(ptr noundef nonnull align 8 dereferenceable(32) %0, ptr noundef nonnull align 8 dereferenceable(32) %1)
  call void @_ZNSt7__cxx1112basic_stringIcSt11char_traitsIcESaIcEEC1EOS4_(ptr noundef nonnull align 8 dereferenceable(32) %agg.result, ptr noundef nonnull align 8 dereferenceable(32) %call) #13
  ret void
}

; Function Attrs: mustprogress nounwind uwtable
define linkonce_odr void @_ZStplIcSt11char_traitsIcESaIcEENSt7__cxx1112basic_stringIT_T0_T1_EERKS8_SA_(ptr noalias sret(%"class.std::__cxx11::basic_string") align 8 %agg.result, ptr noundef nonnull align 8 dereferenceable(32) %__lhs, ptr noundef nonnull align 8 dereferenceable(32) %__rhs) #0 comdat {
entry:
  %result.ptr = alloca ptr, align 8
  %__lhs.addr = alloca ptr, align 8
  %__rhs.addr = alloca ptr, align 8
  %nrvo = alloca i1, align 1
  store ptr %agg.result, ptr %result.ptr, align 8
  store ptr %__lhs, ptr %__lhs.addr, align 8
  store ptr %__rhs, ptr %__rhs.addr, align 8
  store i1 false, ptr %nrvo, align 1
  %0 = load ptr, ptr %__lhs.addr, align 8
  call void @_ZNSt7__cxx1112basic_stringIcSt11char_traitsIcESaIcEEC1ERKS4_(ptr noundef nonnull align 8 dereferenceable(32) %agg.result, ptr noundef nonnull align 8 dereferenceable(32) %0)
  %1 = load ptr, ptr %__rhs.addr, align 8
  %call = call noundef nonnull align 8 dereferenceable(32) ptr @_ZNSt7__cxx1112basic_stringIcSt11char_traitsIcESaIcEE6appendERKS4_(ptr noundef nonnull align 8 dereferenceable(32) %agg.result, ptr noundef nonnull align 8 dereferenceable(32) %1)
  store i1 true, ptr %nrvo, align 1
  %nrvo.val = load i1, ptr %nrvo, align 1
  br i1 %nrvo.val, label %nrvo.skipdtor, label %nrvo.unused

nrvo.unused:                                      ; preds = %entry
  call void @_ZNSt7__cxx1112basic_stringIcSt11char_traitsIcESaIcEED1Ev(ptr noundef nonnull align 8 dereferenceable(32) %agg.result) #13
  br label %nrvo.skipdtor

nrvo.skipdtor:                                    ; preds = %nrvo.unused, %entry
  ret void
}

; Function Attrs: mustprogress nounwind uwtable
define linkonce_odr hidden noundef ptr @_ZNKSt10unique_ptrIN4llvh12MemoryBufferESt14default_deleteIS1_EEptEv(ptr noundef nonnull align 8 dereferenceable(8) %this) #0 comdat align 2 {
entry:
  %this.addr = alloca ptr, align 8
  store ptr %this, ptr %this.addr, align 8
  %this1 = load ptr, ptr %this.addr, align 8
  %call = call noundef ptr @_ZNKSt10unique_ptrIN4llvh12MemoryBufferESt14default_deleteIS1_EE3getEv(ptr noundef nonnull align 8 dereferenceable(8) %this1) #13
  ret ptr %call
}

; Function Attrs: mustprogress nounwind uwtable
define linkonce_odr hidden { ptr, i64 } @_ZNK4llvh12MemoryBuffer9getBufferEv(ptr noundef nonnull align 8 dereferenceable(24) %this) #0 comdat align 2 {
entry:
  %this.addr.i = alloca ptr, align 8
  %data.addr.i = alloca ptr, align 8
  %length.addr.i = alloca i64, align 8
  %retval = alloca %"class.llvh::StringRef", align 8
  %this.addr = alloca ptr, align 8
  store ptr %this, ptr %this.addr, align 8
  %this1 = load ptr, ptr %this.addr, align 8
  %BufferStart = getelementptr inbounds %"class.llvh::MemoryBuffer", ptr %this1, i32 0, i32 1
  %0 = load ptr, ptr %BufferStart, align 8
  %call = call noundef i64 @_ZNK4llvh12MemoryBuffer13getBufferSizeEv(ptr noundef nonnull align 8 dereferenceable(24) %this1)
  store ptr %retval, ptr %this.addr.i, align 8
  store ptr %0, ptr %data.addr.i, align 8
  store i64 %call, ptr %length.addr.i, align 8
  %this1.i = load ptr, ptr %this.addr.i, align 8
  %1 = load ptr, ptr %data.addr.i, align 8
  store ptr %1, ptr %this1.i, align 8
  %Length.i = getelementptr inbounds %"class.llvh::StringRef", ptr %this1.i, i32 0, i32 1
  %2 = load i64, ptr %length.addr.i, align 8
  store i64 %2, ptr %Length.i, align 8
  %3 = load { ptr, i64 }, ptr %retval, align 8
  ret { ptr, i64 } %3
}

; Function Attrs: mustprogress nounwind uwtable
define linkonce_odr hidden noundef i32 @_ZN4llvh9SourceMgr18AddNewSourceBufferESt10unique_ptrINS_12MemoryBufferESt14default_deleteIS2_EENS_5SMLocE(ptr noundef nonnull align 8 dereferenceable(120) %this, ptr noundef %F, ptr %IncludeLoc.coerce) #0 comdat align 2 {
entry:
  %IncludeLoc = alloca %"class.llvh::SMLoc", align 8
  %this.addr = alloca ptr, align 8
  %F.indirect_addr = alloca ptr, align 8
  %End = alloca ptr, align 8
  %NB = alloca %"struct.llvh::SourceMgr::SrcBuffer", align 8
  %BufId = alloca i32, align 4
  %coerce = alloca %"struct.std::pair.81", align 8
  %coerce.dive = getelementptr inbounds %"class.llvh::SMLoc", ptr %IncludeLoc, i32 0, i32 0
  store ptr %IncludeLoc.coerce, ptr %coerce.dive, align 8
  store ptr %this, ptr %this.addr, align 8
  store ptr %F, ptr %F.indirect_addr, align 8
  %this1 = load ptr, ptr %this.addr, align 8
  %call = call noundef ptr @_ZNKSt10unique_ptrIN4llvh12MemoryBufferESt14default_deleteIS1_EEptEv(ptr noundef nonnull align 8 dereferenceable(8) %F) #13
  %call2 = call noundef ptr @_ZNK4llvh12MemoryBuffer12getBufferEndEv(ptr noundef nonnull align 8 dereferenceable(24) %call)
  store ptr %call2, ptr %End, align 8
  call void @_ZN4llvh9SourceMgr9SrcBufferC2Ev(ptr noundef nonnull align 8 dereferenceable(24) %NB) #13
  %Buffer = getelementptr inbounds %"struct.llvh::SourceMgr::SrcBuffer", ptr %NB, i32 0, i32 0
  %call3 = call noundef nonnull align 8 dereferenceable(8) ptr @_ZNSt10unique_ptrIN4llvh12MemoryBufferESt14default_deleteIS1_EEaSEOS4_(ptr noundef nonnull align 8 dereferenceable(8) %Buffer, ptr noundef nonnull align 8 dereferenceable(8) %F) #13
  %IncludeLoc4 = getelementptr inbounds %"struct.llvh::SourceMgr::SrcBuffer", ptr %NB, i32 0, i32 2
  call void @llvm.memcpy.p0.p0.i64(ptr align 8 %IncludeLoc4, ptr align 8 %IncludeLoc, i64 8, i1 false)
  %Buffers = getelementptr inbounds %"class.llvh::SourceMgr", ptr %this1, i32 0, i32 0
  call void @_ZNSt6vectorIN4llvh9SourceMgr9SrcBufferESaIS2_EE9push_backEOS2_(ptr noundef nonnull align 8 dereferenceable(24) %Buffers, ptr noundef nonnull align 8 dereferenceable(24) %NB)
  %Buffers5 = getelementptr inbounds %"class.llvh::SourceMgr", ptr %this1, i32 0, i32 0
  %call6 = call noundef i64 @_ZNKSt6vectorIN4llvh9SourceMgr9SrcBufferESaIS2_EE4sizeEv(ptr noundef nonnull align 8 dereferenceable(24) %Buffers5) #13
  %conv = trunc i64 %call6 to i32
  store i32 %conv, ptr %BufId, align 4
  %BufferEnds = getelementptr inbounds %"class.llvh::SourceMgr", ptr %this1, i32 0, i32 1
  %call7 = call { ptr, i8 } @_ZNSt3mapIPKcjSt4lessIS1_ESaISt4pairIKS1_jEEE7emplaceIJRS1_RjEEES4_ISt17_Rb_tree_iteratorIS6_EbEDpOT_(ptr noundef nonnull align 8 dereferenceable(48) %BufferEnds, ptr noundef nonnull align 8 dereferenceable(8) %End, ptr noundef nonnull align 4 dereferenceable(4) %BufId)
  %0 = getelementptr inbounds { ptr, i8 }, ptr %coerce, i32 0, i32 0
  %1 = extractvalue { ptr, i8 } %call7, 0
  store ptr %1, ptr %0, align 8
  %2 = getelementptr inbounds { ptr, i8 }, ptr %coerce, i32 0, i32 1
  %3 = extractvalue { ptr, i8 } %call7, 1
  store i8 %3, ptr %2, align 8
  %4 = load i32, ptr %BufId, align 4
  call void @_ZN4llvh9SourceMgr9SrcBufferD1Ev(ptr noundef nonnull align 8 dereferenceable(24) %NB) #13
  ret i32 %4
}

; Function Attrs: mustprogress nounwind uwtable
define linkonce_odr hidden void @_ZNSt10unique_ptrIN4llvh12MemoryBufferESt14default_deleteIS1_EEC2EOS4_(ptr noundef nonnull align 8 dereferenceable(8) %this, ptr noundef nonnull align 8 dereferenceable(8) %0) unnamed_addr #0 comdat align 2 {
entry:
  %this.addr = alloca ptr, align 8
  %.addr = alloca ptr, align 8
  store ptr %this, ptr %this.addr, align 8
  store ptr %0, ptr %.addr, align 8
  %this1 = load ptr, ptr %this.addr, align 8
  %_M_t = getelementptr inbounds %"class.std::unique_ptr", ptr %this1, i32 0, i32 0
  %1 = load ptr, ptr %.addr, align 8
  %_M_t2 = getelementptr inbounds %"class.std::unique_ptr", ptr %1, i32 0, i32 0
  call void @_ZNSt15__uniq_ptr_dataIN4llvh12MemoryBufferESt14default_deleteIS1_ELb1ELb1EEC2EOS4_(ptr noundef nonnull align 8 dereferenceable(8) %_M_t, ptr noundef nonnull align 8 dereferenceable(8) %_M_t2) #13
  ret void
}

; Function Attrs: nocallback nofree nounwind willreturn memory(argmem: write)
declare void @llvm.memset.p0.i64(ptr nocapture writeonly, i8, i64, i1 immarg) #6

; Function Attrs: mustprogress nounwind uwtable
define linkonce_odr hidden void @_ZN4llvh5SMLocC2Ev(ptr noundef nonnull align 8 dereferenceable(8) %this) unnamed_addr #0 comdat align 2 {
entry:
  %this.addr = alloca ptr, align 8
  store ptr %this, ptr %this.addr, align 8
  %this1 = load ptr, ptr %this.addr, align 8
  %Ptr = getelementptr inbounds %"class.llvh::SMLoc", ptr %this1, i32 0, i32 0
  store ptr null, ptr %Ptr, align 8
  ret void
}

; Function Attrs: mustprogress nounwind uwtable
define linkonce_odr hidden void @_ZNSt10unique_ptrIN4llvh12MemoryBufferESt14default_deleteIS1_EED2Ev(ptr noundef nonnull align 8 dereferenceable(8) %this) unnamed_addr #0 comdat align 2 {
entry:
  %this.addr = alloca ptr, align 8
  %__ptr = alloca ptr, align 8
  store ptr %this, ptr %this.addr, align 8
  %this1 = load ptr, ptr %this.addr, align 8
  %_M_t = getelementptr inbounds %"class.std::unique_ptr", ptr %this1, i32 0, i32 0
  %call = call noundef nonnull align 8 dereferenceable(8) ptr @_ZNSt15__uniq_ptr_implIN4llvh12MemoryBufferESt14default_deleteIS1_EE6_M_ptrEv(ptr noundef nonnull align 8 dereferenceable(8) %_M_t) #13
  store ptr %call, ptr %__ptr, align 8
  %0 = load ptr, ptr %__ptr, align 8
  %1 = load ptr, ptr %0, align 8
  %cmp = icmp ne ptr %1, null
  br i1 %cmp, label %if.then, label %if.end

if.then:                                          ; preds = %entry
  %call2 = call noundef nonnull align 1 dereferenceable(1) ptr @_ZNSt10unique_ptrIN4llvh12MemoryBufferESt14default_deleteIS1_EE11get_deleterEv(ptr noundef nonnull align 8 dereferenceable(8) %this1) #13
  %2 = load ptr, ptr %__ptr, align 8
  %3 = load ptr, ptr %2, align 8
  call void @_ZNKSt14default_deleteIN4llvh12MemoryBufferEEclEPS1_(ptr noundef nonnull align 1 dereferenceable(1) %call2, ptr noundef %3)
  br label %if.end

if.end:                                           ; preds = %if.then, %entry
  %4 = load ptr, ptr %__ptr, align 8
  store ptr null, ptr %4, align 8
  ret void
}

; Function Attrs: mustprogress nounwind uwtable
define linkonce_odr hidden void @_ZNSt6vectorIN4llvh16FileCheckPatternESaIS1_EE9push_backEOS1_(ptr noundef nonnull align 8 dereferenceable(24) %this, ptr noundef nonnull align 8 dereferenceable(136) %__x) #0 comdat align 2 {
entry:
  %this.addr = alloca ptr, align 8
  %__x.addr = alloca ptr, align 8
  store ptr %this, ptr %this.addr, align 8
  store ptr %__x, ptr %__x.addr, align 8
  %this1 = load ptr, ptr %this.addr, align 8
  %0 = load ptr, ptr %__x.addr, align 8
  %call = call noundef nonnull align 8 dereferenceable(136) ptr @_ZNSt6vectorIN4llvh16FileCheckPatternESaIS1_EE12emplace_backIJS1_EEERS1_DpOT_(ptr noundef nonnull align 8 dereferenceable(24) %this1, ptr noundef nonnull align 8 dereferenceable(136) %0)
  ret void
}

; Function Attrs: mustprogress nounwind uwtable
define linkonce_odr hidden void @_ZN4llvh16FileCheckPatternC2ENS_5Check13FileCheckTypeE(ptr noundef nonnull align 8 dereferenceable(136) %this, i32 noundef %Ty) unnamed_addr #0 comdat align 2 {
entry:
  %this.addr = alloca ptr, align 8
  %Ty.addr = alloca i32, align 4
  store ptr %this, ptr %this.addr, align 8
  store i32 %Ty, ptr %Ty.addr, align 4
  %this1 = load ptr, ptr %this.addr, align 8
  %PatternLoc = getelementptr inbounds %"class.llvh::FileCheckPattern", ptr %this1, i32 0, i32 0
  call void @_ZN4llvh5SMLocC2Ev(ptr noundef nonnull align 8 dereferenceable(8) %PatternLoc) #13
  %FixedStr = getelementptr inbounds %"class.llvh::FileCheckPattern", ptr %this1, i32 0, i32 1
  call void @_ZN4llvh9StringRefC2Ev(ptr noundef nonnull align 8 dereferenceable(16) %FixedStr) #13
  %RegExStr = getelementptr inbounds %"class.llvh::FileCheckPattern", ptr %this1, i32 0, i32 2
  call void @_ZNSt7__cxx1112basic_stringIcSt11char_traitsIcESaIcEEC1Ev(ptr noundef nonnull align 8 dereferenceable(32) %RegExStr) #13
  %VariableUses = getelementptr inbounds %"class.llvh::FileCheckPattern", ptr %this1, i32 0, i32 3
  call void @_ZNSt6vectorISt4pairIN4llvh9StringRefEjESaIS3_EEC2Ev(ptr noundef nonnull align 8 dereferenceable(24) %VariableUses) #13
  %VariableDefs = getelementptr inbounds %"class.llvh::FileCheckPattern", ptr %this1, i32 0, i32 4
  call void @_ZNSt3mapIN4llvh9StringRefEjSt4lessIS1_ESaISt4pairIKS1_jEEEC2Ev(ptr noundef nonnull align 8 dereferenceable(48) %VariableDefs) #13
  %CheckTy = getelementptr inbounds %"class.llvh::FileCheckPattern", ptr %this1, i32 0, i32 5
  %0 = load i32, ptr %Ty.addr, align 4
  store i32 %0, ptr %CheckTy, align 8
  ret void
}

; Function Attrs: mustprogress nounwind uwtable
define linkonce_odr hidden void @_ZN4llvh16FileCheckPatternD2Ev(ptr noundef nonnull align 8 dereferenceable(136) %this) unnamed_addr #0 comdat align 2 {
entry:
  %this.addr = alloca ptr, align 8
  store ptr %this, ptr %this.addr, align 8
  %this1 = load ptr, ptr %this.addr, align 8
  %VariableDefs = getelementptr inbounds %"class.llvh::FileCheckPattern", ptr %this1, i32 0, i32 4
  call void @_ZNSt3mapIN4llvh9StringRefEjSt4lessIS1_ESaISt4pairIKS1_jEEED2Ev(ptr noundef nonnull align 8 dereferenceable(48) %VariableDefs) #13
  %VariableUses = getelementptr inbounds %"class.llvh::FileCheckPattern", ptr %this1, i32 0, i32 3
  call void @_ZNSt6vectorISt4pairIN4llvh9StringRefEjESaIS3_EED2Ev(ptr noundef nonnull align 8 dereferenceable(24) %VariableUses) #13
  %RegExStr = getelementptr inbounds %"class.llvh::FileCheckPattern", ptr %this1, i32 0, i32 2
  call void @_ZNSt7__cxx1112basic_stringIcSt11char_traitsIcESaIcEED1Ev(ptr noundef nonnull align 8 dereferenceable(32) %RegExStr) #13
  ret void
}

; Function Attrs: mustprogress nounwind uwtable
define linkonce_odr hidden noundef nonnull align 8 dereferenceable(136) ptr @_ZNSt6vectorIN4llvh16FileCheckPatternESaIS1_EE4backEv(ptr noundef nonnull align 8 dereferenceable(24) %this) #0 comdat align 2 {
entry:
  %this.addr = alloca ptr, align 8
  %ref.tmp = alloca %"class.__gnu_cxx::__normal_iterator.111", align 8
  %ref.tmp2 = alloca %"class.__gnu_cxx::__normal_iterator.111", align 8
  store ptr %this, ptr %this.addr, align 8
  %this1 = load ptr, ptr %this.addr, align 8
  %call = call ptr @_ZNSt6vectorIN4llvh16FileCheckPatternESaIS1_EE3endEv(ptr noundef nonnull align 8 dereferenceable(24) %this1) #13
  %coerce.dive = getelementptr inbounds %"class.__gnu_cxx::__normal_iterator.111", ptr %ref.tmp2, i32 0, i32 0
  store ptr %call, ptr %coerce.dive, align 8
  %call3 = call ptr @_ZNK9__gnu_cxx17__normal_iteratorIPN4llvh16FileCheckPatternESt6vectorIS2_SaIS2_EEEmiEl(ptr noundef nonnull align 8 dereferenceable(8) %ref.tmp2, i64 noundef 1) #13
  %coerce.dive4 = getelementptr inbounds %"class.__gnu_cxx::__normal_iterator.111", ptr %ref.tmp, i32 0, i32 0
  store ptr %call3, ptr %coerce.dive4, align 8
  %call5 = call noundef nonnull align 8 dereferenceable(136) ptr @_ZNK9__gnu_cxx17__normal_iteratorIPN4llvh16FileCheckPatternESt6vectorIS2_SaIS2_EEEdeEv(ptr noundef nonnull align 8 dereferenceable(8) %ref.tmp) #13
  ret ptr %call5
}

; Function Attrs: mustprogress nounwind uwtable
define linkonce_odr noundef nonnull align 8 dereferenceable(8) ptr @_ZN9__gnu_cxx17__normal_iteratorIPNSt7__cxx1112basic_stringIcSt11char_traitsIcESaIcEEESt6vectorIS6_SaIS6_EEEppEv(ptr noundef nonnull align 8 dereferenceable(8) %this) #0 comdat align 2 {
entry:
  %this.addr = alloca ptr, align 8
  store ptr %this, ptr %this.addr, align 8
  %this1 = load ptr, ptr %this.addr, align 8
  %_M_current = getelementptr inbounds %"class.__gnu_cxx::__normal_iterator.48", ptr %this1, i32 0, i32 0
  %0 = load ptr, ptr %_M_current, align 8
  %incdec.ptr = getelementptr inbounds %"class.std::__cxx11::basic_string", ptr %0, i32 1
  store ptr %incdec.ptr, ptr %_M_current, align 8
  ret ptr %this1
}

; Function Attrs: mustprogress nounwind uwtable
define linkonce_odr hidden void @_ZNSt6vectorIN4llvh16FileCheckPatternESaIS1_EEC2ERKS3_(ptr noundef nonnull align 8 dereferenceable(24) %this, ptr noundef nonnull align 8 dereferenceable(24) %__x) unnamed_addr #0 comdat align 2 {
entry:
  %this.addr = alloca ptr, align 8
  %__x.addr = alloca ptr, align 8
  %ref.tmp = alloca %"class.std::allocator.45", align 1
  %agg.tmp = alloca %"class.__gnu_cxx::__normal_iterator.65", align 8
  %agg.tmp4 = alloca %"class.__gnu_cxx::__normal_iterator.65", align 8
  store ptr %this, ptr %this.addr, align 8
  store ptr %__x, ptr %__x.addr, align 8
  %this1 = load ptr, ptr %this.addr, align 8
  %0 = load ptr, ptr %__x.addr, align 8
  %call = call noundef i64 @_ZNKSt6vectorIN4llvh16FileCheckPatternESaIS1_EE4sizeEv(ptr noundef nonnull align 8 dereferenceable(24) %0) #13
  %1 = load ptr, ptr %__x.addr, align 8
  %call2 = call noundef nonnull align 1 dereferenceable(1) ptr @_ZNKSt12_Vector_baseIN4llvh16FileCheckPatternESaIS1_EE19_M_get_Tp_allocatorEv(ptr noundef nonnull align 8 dereferenceable(24) %1) #13
  call void @_ZN9__gnu_cxx14__alloc_traitsISaIN4llvh16FileCheckPatternEES2_E17_S_select_on_copyERKS3_(ptr sret(%"class.std::allocator.45") align 1 %ref.tmp, ptr noundef nonnull align 1 dereferenceable(1) %call2)
  call void @_ZNSt12_Vector_baseIN4llvh16FileCheckPatternESaIS1_EEC2EmRKS2_(ptr noundef nonnull align 8 dereferenceable(24) %this1, i64 noundef %call, ptr noundef nonnull align 1 dereferenceable(1) %ref.tmp)
  call void @_ZNSaIN4llvh16FileCheckPatternEED2Ev(ptr noundef nonnull align 1 dereferenceable(1) %ref.tmp) #13
  %2 = load ptr, ptr %__x.addr, align 8
  %call3 = call ptr @_ZNKSt6vectorIN4llvh16FileCheckPatternESaIS1_EE5beginEv(ptr noundef nonnull align 8 dereferenceable(24) %2) #13
  %coerce.dive = getelementptr inbounds %"class.__gnu_cxx::__normal_iterator.65", ptr %agg.tmp, i32 0, i32 0
  store ptr %call3, ptr %coerce.dive, align 8
  %3 = load ptr, ptr %__x.addr, align 8
  %call5 = call ptr @_ZNKSt6vectorIN4llvh16FileCheckPatternESaIS1_EE3endEv(ptr noundef nonnull align 8 dereferenceable(24) %3) #13
  %coerce.dive6 = getelementptr inbounds %"class.__gnu_cxx::__normal_iterator.65", ptr %agg.tmp4, i32 0, i32 0
  store ptr %call5, ptr %coerce.dive6, align 8
  %_M_impl = getelementptr inbounds %"struct.std::_Vector_base.44", ptr %this1, i32 0, i32 0
  %_M_start = getelementptr inbounds %"struct.std::_Vector_base<llvh::FileCheckPattern, std::allocator<llvh::FileCheckPattern>>::_Vector_impl_data", ptr %_M_impl, i32 0, i32 0
  %4 = load ptr, ptr %_M_start, align 8
  %call7 = call noundef nonnull align 1 dereferenceable(1) ptr @_ZNSt12_Vector_baseIN4llvh16FileCheckPatternESaIS1_EE19_M_get_Tp_allocatorEv(ptr noundef nonnull align 8 dereferenceable(24) %this1) #13
  %coerce.dive8 = getelementptr inbounds %"class.__gnu_cxx::__normal_iterator.65", ptr %agg.tmp, i32 0, i32 0
  %5 = load ptr, ptr %coerce.dive8, align 8
  %coerce.dive9 = getelementptr inbounds %"class.__gnu_cxx::__normal_iterator.65", ptr %agg.tmp4, i32 0, i32 0
  %6 = load ptr, ptr %coerce.dive9, align 8
  %call10 = call noundef ptr @_ZSt22__uninitialized_copy_aIN9__gnu_cxx17__normal_iteratorIPKN4llvh16FileCheckPatternESt6vectorIS3_SaIS3_EEEEPS3_S3_ET0_T_SC_SB_RSaIT1_E(ptr %5, ptr %6, ptr noundef %4, ptr noundef nonnull align 1 dereferenceable(1) %call7)
  %_M_impl11 = getelementptr inbounds %"struct.std::_Vector_base.44", ptr %this1, i32 0, i32 0
  %_M_finish = getelementptr inbounds %"struct.std::_Vector_base<llvh::FileCheckPattern, std::allocator<llvh::FileCheckPattern>>::_Vector_impl_data", ptr %_M_impl11, i32 0, i32 1
  store ptr %call10, ptr %_M_finish, align 8
  ret void
}

; Function Attrs: mustprogress nounwind uwtable
define internal { ptr, i64 } @_ZL23FindFirstMatchingPrefixRN4llvh5RegexERNS_9StringRefERjRNS_5Check13FileCheckTypeE(ptr noundef nonnull align 8 dereferenceable(12) %PrefixRE, ptr noundef nonnull align 8 dereferenceable(16) %Buffer, ptr noundef nonnull align 4 dereferenceable(4) %LineNumber, ptr noundef nonnull align 4 dereferenceable(4) %CheckTy) #0 {
entry:
  %this.addr.i69 = alloca ptr, align 8
  %this.addr.i2.i48 = alloca ptr, align 8
  %data.addr.i.i49 = alloca ptr, align 8
  %length.addr.i.i50 = alloca i64, align 8
  %retval.i.i51 = alloca %"class.llvh::StringRef", align 8
  %this.addr.i.i52 = alloca ptr, align 8
  %Start.addr.i.i53 = alloca i64, align 8
  %N.addr.i.i54 = alloca i64, align 8
  %ref.tmp.i.i55 = alloca i64, align 8
  %retval.i56 = alloca %"class.llvh::StringRef", align 8
  %this.addr.i57 = alloca ptr, align 8
  %N.addr.i58 = alloca i64, align 8
  %this.addr.i2.i = alloca ptr, align 8
  %data.addr.i.i = alloca ptr, align 8
  %length.addr.i.i = alloca i64, align 8
  %retval.i.i = alloca %"class.llvh::StringRef", align 8
  %this.addr.i.i = alloca ptr, align 8
  %Start.addr.i.i = alloca i64, align 8
  %N.addr.i.i = alloca i64, align 8
  %ref.tmp.i.i = alloca i64, align 8
  %retval.i44 = alloca %"class.llvh::StringRef", align 8
  %this.addr.i45 = alloca ptr, align 8
  %N.addr.i46 = alloca i64, align 8
  %this.addr.i41 = alloca ptr, align 8
  %data.addr.i = alloca ptr, align 8
  %length.addr.i = alloca i64, align 8
  %this.addr.i38 = alloca ptr, align 8
  %idx.addr.i = alloca i64, align 8
  %this.addr.i35 = alloca ptr, align 8
  %retval.i = alloca %"class.llvh::StringRef", align 8
  %this.addr.i32 = alloca ptr, align 8
  %Start.addr.i = alloca i64, align 8
  %N.addr.i = alloca i64, align 8
  %ref.tmp.i = alloca i64, align 8
  %this.addr.i28 = alloca ptr, align 8
  %this.addr.i26 = alloca ptr, align 8
  %this.addr.i24 = alloca ptr, align 8
  %this.addr.i = alloca ptr, align 8
  %retval = alloca %"class.llvh::StringRef", align 8
  %PrefixRE.addr = alloca ptr, align 8
  %Buffer.addr = alloca ptr, align 8
  %LineNumber.addr = alloca ptr, align 8
  %CheckTy.addr = alloca ptr, align 8
  %Matches = alloca %"class.llvh::SmallVector.96", align 8
  %agg.tmp = alloca %"class.llvh::StringRef", align 8
  %cleanup.dest.slot = alloca i32, align 4
  %Loc = alloca i64, align 8
  %Skipped = alloca %"class.llvh::StringRef", align 8
  %ref.tmp = alloca %"class.llvh::StringRef", align 8
  %agg.tmp13 = alloca %"class.llvh::StringRef", align 8
  %agg.tmp14 = alloca %"class.llvh::StringRef", align 8
  %ref.tmp19 = alloca %"class.llvh::StringRef", align 8
  %agg.tmp20 = alloca %"class.llvh::StringRef", align 8
  store ptr %PrefixRE, ptr %PrefixRE.addr, align 8
  store ptr %Buffer, ptr %Buffer.addr, align 8
  store ptr %LineNumber, ptr %LineNumber.addr, align 8
  store ptr %CheckTy, ptr %CheckTy.addr, align 8
  call void @_ZN4llvh11SmallVectorINS_9StringRefELj2EEC2Ev(ptr noundef nonnull align 8 dereferenceable(48) %Matches)
  br label %while.cond

while.cond:                                       ; preds = %if.end18, %entry
  %0 = load ptr, ptr %Buffer.addr, align 8
  store ptr %0, ptr %this.addr.i28, align 8
  %this1.i29 = load ptr, ptr %this.addr.i28, align 8
  %Length.i30 = getelementptr inbounds %"class.llvh::StringRef", ptr %this1.i29, i32 0, i32 1
  %1 = load i64, ptr %Length.i30, align 8
  %cmp.i31 = icmp eq i64 %1, 0
  %lnot = xor i1 %cmp.i31, true
  br i1 %lnot, label %while.body, label %while.end

while.body:                                       ; preds = %while.cond
  %2 = load ptr, ptr %PrefixRE.addr, align 8
  %3 = load ptr, ptr %Buffer.addr, align 8
  call void @llvm.memcpy.p0.p0.i64(ptr align 8 %agg.tmp, ptr align 8 %3, i64 16, i1 false)
  %4 = getelementptr inbounds { ptr, i64 }, ptr %agg.tmp, i32 0, i32 0
  %5 = load ptr, ptr %4, align 8
  %6 = getelementptr inbounds { ptr, i64 }, ptr %agg.tmp, i32 0, i32 1
  %7 = load i64, ptr %6, align 8
  %call1 = call noundef zeroext i1 @_ZN4llvh5Regex5matchENS_9StringRefEPNS_15SmallVectorImplIS1_EE(ptr noundef nonnull align 8 dereferenceable(12) %2, ptr %5, i64 %7, ptr noundef %Matches)
  br i1 %call1, label %if.end, label %if.then

if.then:                                          ; preds = %while.body
  call void @llvm.memset.p0.i64(ptr align 8 %retval, i8 0, i64 16, i1 false)
  call void @_ZN4llvh9StringRefC2Ev(ptr noundef nonnull align 8 dereferenceable(16) %retval) #13
  store i32 1, ptr %cleanup.dest.slot, align 4
  br label %cleanup

if.end:                                           ; preds = %while.body
  store ptr %Matches, ptr %this.addr.i38, align 8
  store i64 0, ptr %idx.addr.i, align 8
  %this1.i39 = load ptr, ptr %this.addr.i38, align 8
  store ptr %this1.i39, ptr %this.addr.i69, align 8
  %this1.i70 = load ptr, ptr %this.addr.i69, align 8
  %8 = load ptr, ptr %this1.i70, align 8
  %9 = load i64, ptr %idx.addr.i, align 8
  %arrayidx.i = getelementptr inbounds %"class.llvh::StringRef", ptr %8, i64 %9
  call void @llvm.memcpy.p0.p0.i64(ptr align 8 %retval, ptr align 8 %arrayidx.i, i64 16, i1 false)
  call void @_ZN4llvh15SmallVectorImplINS_9StringRefEE5clearEv(ptr noundef nonnull align 8 dereferenceable(16) %Matches)
  store ptr %retval, ptr %this.addr.i24, align 8
  %this1.i25 = load ptr, ptr %this.addr.i24, align 8
  %10 = load ptr, ptr %this1.i25, align 8
  %11 = load ptr, ptr %Buffer.addr, align 8
  store ptr %11, ptr %this.addr.i, align 8
  %this1.i = load ptr, ptr %this.addr.i, align 8
  %12 = load ptr, ptr %this1.i, align 8
  %sub.ptr.lhs.cast = ptrtoint ptr %10 to i64
  %sub.ptr.rhs.cast = ptrtoint ptr %12 to i64
  %sub.ptr.sub = sub i64 %sub.ptr.lhs.cast, %sub.ptr.rhs.cast
  store i64 %sub.ptr.sub, ptr %Loc, align 8
  %13 = load ptr, ptr %Buffer.addr, align 8
  %14 = load i64, ptr %Loc, align 8
  store ptr %13, ptr %this.addr.i32, align 8
  store i64 0, ptr %Start.addr.i, align 8
  store i64 %14, ptr %N.addr.i, align 8
  %this1.i33 = load ptr, ptr %this.addr.i32, align 8
  %Length.i34 = getelementptr inbounds %"class.llvh::StringRef", ptr %this1.i33, i32 0, i32 1
  %call.i = call noundef nonnull align 8 dereferenceable(8) ptr @_ZSt3minImERKT_S2_S2_(ptr noundef nonnull align 8 dereferenceable(8) %Start.addr.i, ptr noundef nonnull align 8 dereferenceable(8) %Length.i34)
  %15 = load i64, ptr %call.i, align 8
  store i64 %15, ptr %Start.addr.i, align 8
  %16 = load ptr, ptr %this1.i33, align 8
  %17 = load i64, ptr %Start.addr.i, align 8
  %add.ptr.i = getelementptr inbounds i8, ptr %16, i64 %17
  %Length2.i = getelementptr inbounds %"class.llvh::StringRef", ptr %this1.i33, i32 0, i32 1
  %18 = load i64, ptr %Length2.i, align 8
  %19 = load i64, ptr %Start.addr.i, align 8
  %sub.i = sub i64 %18, %19
  store i64 %sub.i, ptr %ref.tmp.i, align 8
  %call3.i = call noundef nonnull align 8 dereferenceable(8) ptr @_ZSt3minImERKT_S2_S2_(ptr noundef nonnull align 8 dereferenceable(8) %N.addr.i, ptr noundef nonnull align 8 dereferenceable(8) %ref.tmp.i)
  %20 = load i64, ptr %call3.i, align 8
  store ptr %retval.i, ptr %this.addr.i41, align 8
  store ptr %add.ptr.i, ptr %data.addr.i, align 8
  store i64 %20, ptr %length.addr.i, align 8
  %this1.i42 = load ptr, ptr %this.addr.i41, align 8
  %21 = load ptr, ptr %data.addr.i, align 8
  store ptr %21, ptr %this1.i42, align 8
  %Length.i43 = getelementptr inbounds %"class.llvh::StringRef", ptr %this1.i42, i32 0, i32 1
  %22 = load i64, ptr %length.addr.i, align 8
  store i64 %22, ptr %Length.i43, align 8
  %23 = load { ptr, i64 }, ptr %retval.i, align 8
  %24 = getelementptr inbounds { ptr, i64 }, ptr %Skipped, i32 0, i32 0
  %25 = extractvalue { ptr, i64 } %23, 0
  store ptr %25, ptr %24, align 8
  %26 = getelementptr inbounds { ptr, i64 }, ptr %Skipped, i32 0, i32 1
  %27 = extractvalue { ptr, i64 } %23, 1
  store i64 %27, ptr %26, align 8
  %28 = load ptr, ptr %Buffer.addr, align 8
  %29 = load i64, ptr %Loc, align 8
  store ptr %28, ptr %this.addr.i57, align 8
  store i64 %29, ptr %N.addr.i58, align 8
  %this1.i59 = load ptr, ptr %this.addr.i57, align 8
  %30 = load i64, ptr %N.addr.i58, align 8
  store ptr %this1.i59, ptr %this.addr.i.i52, align 8
  store i64 %30, ptr %Start.addr.i.i53, align 8
  store i64 -1, ptr %N.addr.i.i54, align 8
  %this1.i.i60 = load ptr, ptr %this.addr.i.i52, align 8
  %Length.i.i61 = getelementptr inbounds %"class.llvh::StringRef", ptr %this1.i.i60, i32 0, i32 1
  %call.i.i62 = call noundef nonnull align 8 dereferenceable(8) ptr @_ZSt3minImERKT_S2_S2_(ptr noundef nonnull align 8 dereferenceable(8) %Start.addr.i.i53, ptr noundef nonnull align 8 dereferenceable(8) %Length.i.i61)
  %31 = load i64, ptr %call.i.i62, align 8
  store i64 %31, ptr %Start.addr.i.i53, align 8
  %32 = load ptr, ptr %this1.i.i60, align 8
  %33 = load i64, ptr %Start.addr.i.i53, align 8
  %add.ptr.i.i63 = getelementptr inbounds i8, ptr %32, i64 %33
  %Length2.i.i64 = getelementptr inbounds %"class.llvh::StringRef", ptr %this1.i.i60, i32 0, i32 1
  %34 = load i64, ptr %Length2.i.i64, align 8
  %35 = load i64, ptr %Start.addr.i.i53, align 8
  %sub.i.i65 = sub i64 %34, %35
  store i64 %sub.i.i65, ptr %ref.tmp.i.i55, align 8
  %call3.i.i66 = call noundef nonnull align 8 dereferenceable(8) ptr @_ZSt3minImERKT_S2_S2_(ptr noundef nonnull align 8 dereferenceable(8) %N.addr.i.i54, ptr noundef nonnull align 8 dereferenceable(8) %ref.tmp.i.i55)
  %36 = load i64, ptr %call3.i.i66, align 8
  store ptr %retval.i.i51, ptr %this.addr.i2.i48, align 8
  store ptr %add.ptr.i.i63, ptr %data.addr.i.i49, align 8
  store i64 %36, ptr %length.addr.i.i50, align 8
  %this1.i3.i67 = load ptr, ptr %this.addr.i2.i48, align 8
  %37 = load ptr, ptr %data.addr.i.i49, align 8
  store ptr %37, ptr %this1.i3.i67, align 8
  %Length.i4.i68 = getelementptr inbounds %"class.llvh::StringRef", ptr %this1.i3.i67, i32 0, i32 1
  %38 = load i64, ptr %length.addr.i.i50, align 8
  store i64 %38, ptr %Length.i4.i68, align 8
  %39 = load { ptr, i64 }, ptr %retval.i.i51, align 8
  %40 = extractvalue { ptr, i64 } %39, 0
  store ptr %40, ptr %retval.i56, align 8
  %41 = getelementptr inbounds { ptr, i64 }, ptr %retval.i56, i32 0, i32 1
  %42 = extractvalue { ptr, i64 } %39, 1
  store i64 %42, ptr %41, align 8
  %43 = load { ptr, i64 }, ptr %retval.i56, align 8
  %44 = getelementptr inbounds { ptr, i64 }, ptr %ref.tmp, i32 0, i32 0
  %45 = extractvalue { ptr, i64 } %43, 0
  store ptr %45, ptr %44, align 8
  %46 = getelementptr inbounds { ptr, i64 }, ptr %ref.tmp, i32 0, i32 1
  %47 = extractvalue { ptr, i64 } %43, 1
  store i64 %47, ptr %46, align 8
  %48 = load ptr, ptr %Buffer.addr, align 8
  call void @llvm.memcpy.p0.p0.i64(ptr align 8 %48, ptr align 8 %ref.tmp, i64 16, i1 false)
  %call7 = call noundef i64 @_ZNK4llvh9StringRef5countEc(ptr noundef nonnull align 8 dereferenceable(16) %Skipped, i8 noundef signext 10)
  %49 = load ptr, ptr %LineNumber.addr, align 8
  %50 = load i32, ptr %49, align 4
  %conv = zext i32 %50 to i64
  %add = add i64 %conv, %call7
  %conv8 = trunc i64 %add to i32
  store i32 %conv8, ptr %49, align 4
  store ptr %Skipped, ptr %this.addr.i26, align 8
  %this1.i27 = load ptr, ptr %this.addr.i26, align 8
  %Length.i = getelementptr inbounds %"class.llvh::StringRef", ptr %this1.i27, i32 0, i32 1
  %51 = load i64, ptr %Length.i, align 8
  %cmp.i = icmp eq i64 %51, 0
  br i1 %cmp.i, label %if.then12, label %lor.lhs.false

lor.lhs.false:                                    ; preds = %if.end
  %call10 = call noundef signext i8 @_ZNK4llvh9StringRef4backEv(ptr noundef nonnull align 8 dereferenceable(16) %Skipped)
  %call11 = call noundef zeroext i1 @_ZL12IsPartOfWordc(i8 noundef signext %call10)
  br i1 %call11, label %if.end18, label %if.then12

if.then12:                                        ; preds = %lor.lhs.false, %if.end
  %52 = load ptr, ptr %Buffer.addr, align 8
  call void @llvm.memcpy.p0.p0.i64(ptr align 8 %agg.tmp13, ptr align 8 %52, i64 16, i1 false)
  call void @llvm.memcpy.p0.p0.i64(ptr align 8 %agg.tmp14, ptr align 8 %retval, i64 16, i1 false)
  %53 = getelementptr inbounds { ptr, i64 }, ptr %agg.tmp13, i32 0, i32 0
  %54 = load ptr, ptr %53, align 8
  %55 = getelementptr inbounds { ptr, i64 }, ptr %agg.tmp13, i32 0, i32 1
  %56 = load i64, ptr %55, align 8
  %57 = getelementptr inbounds { ptr, i64 }, ptr %agg.tmp14, i32 0, i32 0
  %58 = load ptr, ptr %57, align 8
  %59 = getelementptr inbounds { ptr, i64 }, ptr %agg.tmp14, i32 0, i32 1
  %60 = load i64, ptr %59, align 8
  %call15 = call noundef i32 @_ZL13FindCheckTypeN4llvh9StringRefES0_(ptr %54, i64 %56, ptr %58, i64 %60)
  %61 = load ptr, ptr %CheckTy.addr, align 8
  store i32 %call15, ptr %61, align 4
  %62 = load ptr, ptr %CheckTy.addr, align 8
  %63 = load i32, ptr %62, align 4
  %cmp = icmp ne i32 %63, 0
  br i1 %cmp, label %if.then16, label %if.end17

if.then16:                                        ; preds = %if.then12
  store i32 1, ptr %cleanup.dest.slot, align 4
  br label %cleanup

if.end17:                                         ; preds = %if.then12
  br label %if.end18

if.end18:                                         ; preds = %if.end17, %lor.lhs.false
  %64 = load ptr, ptr %Buffer.addr, align 8
  %65 = load ptr, ptr %Buffer.addr, align 8
  call void @llvm.memcpy.p0.p0.i64(ptr align 8 %agg.tmp20, ptr align 8 %65, i64 16, i1 false)
  store ptr %retval, ptr %this.addr.i35, align 8
  %this1.i36 = load ptr, ptr %this.addr.i35, align 8
  %Length.i37 = getelementptr inbounds %"class.llvh::StringRef", ptr %this1.i36, i32 0, i32 1
  %66 = load i64, ptr %Length.i37, align 8
  %67 = getelementptr inbounds { ptr, i64 }, ptr %agg.tmp20, i32 0, i32 0
  %68 = load ptr, ptr %67, align 8
  %69 = getelementptr inbounds { ptr, i64 }, ptr %agg.tmp20, i32 0, i32 1
  %70 = load i64, ptr %69, align 8
  %call22 = call noundef i64 @_ZL8SkipWordN4llvh9StringRefEm(ptr %68, i64 %70, i64 noundef %66)
  store ptr %64, ptr %this.addr.i45, align 8
  store i64 %call22, ptr %N.addr.i46, align 8
  %this1.i47 = load ptr, ptr %this.addr.i45, align 8
  %71 = load i64, ptr %N.addr.i46, align 8
  store ptr %this1.i47, ptr %this.addr.i.i, align 8
  store i64 %71, ptr %Start.addr.i.i, align 8
  store i64 -1, ptr %N.addr.i.i, align 8
  %this1.i.i = load ptr, ptr %this.addr.i.i, align 8
  %Length.i.i = getelementptr inbounds %"class.llvh::StringRef", ptr %this1.i.i, i32 0, i32 1
  %call.i.i = call noundef nonnull align 8 dereferenceable(8) ptr @_ZSt3minImERKT_S2_S2_(ptr noundef nonnull align 8 dereferenceable(8) %Start.addr.i.i, ptr noundef nonnull align 8 dereferenceable(8) %Length.i.i)
  %72 = load i64, ptr %call.i.i, align 8
  store i64 %72, ptr %Start.addr.i.i, align 8
  %73 = load ptr, ptr %this1.i.i, align 8
  %74 = load i64, ptr %Start.addr.i.i, align 8
  %add.ptr.i.i = getelementptr inbounds i8, ptr %73, i64 %74
  %Length2.i.i = getelementptr inbounds %"class.llvh::StringRef", ptr %this1.i.i, i32 0, i32 1
  %75 = load i64, ptr %Length2.i.i, align 8
  %76 = load i64, ptr %Start.addr.i.i, align 8
  %sub.i.i = sub i64 %75, %76
  store i64 %sub.i.i, ptr %ref.tmp.i.i, align 8
  %call3.i.i = call noundef nonnull align 8 dereferenceable(8) ptr @_ZSt3minImERKT_S2_S2_(ptr noundef nonnull align 8 dereferenceable(8) %N.addr.i.i, ptr noundef nonnull align 8 dereferenceable(8) %ref.tmp.i.i)
  %77 = load i64, ptr %call3.i.i, align 8
  store ptr %retval.i.i, ptr %this.addr.i2.i, align 8
  store ptr %add.ptr.i.i, ptr %data.addr.i.i, align 8
  store i64 %77, ptr %length.addr.i.i, align 8
  %this1.i3.i = load ptr, ptr %this.addr.i2.i, align 8
  %78 = load ptr, ptr %data.addr.i.i, align 8
  store ptr %78, ptr %this1.i3.i, align 8
  %Length.i4.i = getelementptr inbounds %"class.llvh::StringRef", ptr %this1.i3.i, i32 0, i32 1
  %79 = load i64, ptr %length.addr.i.i, align 8
  store i64 %79, ptr %Length.i4.i, align 8
  %80 = load { ptr, i64 }, ptr %retval.i.i, align 8
  %81 = extractvalue { ptr, i64 } %80, 0
  store ptr %81, ptr %retval.i44, align 8
  %82 = getelementptr inbounds { ptr, i64 }, ptr %retval.i44, i32 0, i32 1
  %83 = extractvalue { ptr, i64 } %80, 1
  store i64 %83, ptr %82, align 8
  %84 = load { ptr, i64 }, ptr %retval.i44, align 8
  %85 = getelementptr inbounds { ptr, i64 }, ptr %ref.tmp19, i32 0, i32 0
  %86 = extractvalue { ptr, i64 } %84, 0
  store ptr %86, ptr %85, align 8
  %87 = getelementptr inbounds { ptr, i64 }, ptr %ref.tmp19, i32 0, i32 1
  %88 = extractvalue { ptr, i64 } %84, 1
  store i64 %88, ptr %87, align 8
  %89 = load ptr, ptr %Buffer.addr, align 8
  call void @llvm.memcpy.p0.p0.i64(ptr align 8 %89, ptr align 8 %ref.tmp19, i64 16, i1 false)
  br label %while.cond, !llvm.loop !14

