target datalayout = "e-m:e-p270:32:32-p271:32:32-p272:64:64-i64:64-i128:128-f80:128-n8:16:32:64-S128"
target triple = "x86_64-unknown-linux-gnu"

%"struct.std::piecewise_construct_t" = type { i8 }
%"struct.std::array.157" = type { [79 x %"struct.hermes::vm::Metadata"] }
%"struct.hermes::vm::Metadata" = type { %"struct.hermes::vm::Metadata::SlotOffsets", %"struct.std::array.159", ptr }
%"struct.hermes::vm::Metadata::SlotOffsets" = type { i8, i8, i8, i8, %"struct.std::array.158", %"class.hermes::OptValue" }
%"struct.std::array.158" = type { [8 x i8] }
%"class.hermes::OptValue" = type { %"struct.hermes::vm::Metadata::ArrayData", i8 }
%"struct.hermes::vm::Metadata::ArrayData" = type { i8, i8, i8, i8 }
%"struct.std::array.159" = type { [8 x ptr] }
%"struct.std::array.163" = type { [79 x ptr] }
%"class.hermes::vm::CompressedPointer" = type { %"class.hermes::vm::BasedPointer" }
%"class.hermes::vm::BasedPointer" = type { i32 }
%"class.hermes::vm::WeakAcceptorDefault" = type { %"struct.hermes::vm::WeakRefAcceptor", %"struct.hermes::vm::WeakRootAcceptor", ptr }
%"struct.hermes::vm::WeakRefAcceptor" = type { ptr }
%"struct.hermes::vm::WeakRootAcceptor" = type { %"struct.hermes::vm::RootSectionAcceptor" }
%"struct.hermes::vm::RootSectionAcceptor" = type { ptr }
%"class.hermes::vm::GCTripwireConfig" = type { i32, %"class.std::function.17" }
%"class.std::function.17" = type { %"class.std::_Function_base", ptr }
%"class.std::_Function_base" = type { %"union.std::_Any_data", ptr }
%"union.std::_Any_data" = type { %"union.std::_Nocopy_types" }
%"union.std::_Nocopy_types" = type { { i64, i64 } }
%"class.std::random_device" = type { %union.anon.22 }
%union.anon.22 = type { %"class.std::mersenne_twister_engine" }
%"class.std::mersenne_twister_engine" = type { [624 x i64], i64 }
%"class.hermes::vm::GCBase" = type <{ ptr, i32, [4 x i8], i64, %"class.hermes::vm::GCExecTrace", [7 x i8], ptr, ptr, %"class.std::shared_ptr", i32, [4 x i8], %"class.std::function", %"class.std::vector", i8, i8, i8, i8, [4 x i8], %"class.std::chrono::time_point", %"class.std::chrono::duration.0", i64, i64, %"struct.hermes::vm::GCBase::CumulativeHeapStats", %"class.std::__cxx11::basic_string", %"class.std::deque", ptr, %"class.std::recursive_mutex", %"class.hermes::vm::GCBase::IDTracker", [3 x i64], %"class.std::function.17", i32, i8, [3 x i8] }>
%"class.hermes::vm::GCExecTrace" = type { i8 }
%"class.std::shared_ptr" = type { %"class.std::__shared_ptr" }
%"class.std::__shared_ptr" = type { ptr, %"class.std::__shared_count" }
%"class.std::__shared_count" = type { ptr }
%"class.std::function" = type { %"class.std::_Function_base", ptr }
%"class.std::vector" = type { %"struct.std::_Vector_base" }
%"struct.std::_Vector_base" = type { %"struct.std::_Vector_base<hermes::vm::GCAnalyticsEvent, std::allocator<hermes::vm::GCAnalyticsEvent>>::_Vector_impl" }
%"struct.std::_Vector_base<hermes::vm::GCAnalyticsEvent, std::allocator<hermes::vm::GCAnalyticsEvent>>::_Vector_impl" = type { %"struct.std::_Vector_base<hermes::vm::GCAnalyticsEvent, std::allocator<hermes::vm::GCAnalyticsEvent>>::_Vector_impl_data" }
%"struct.std::_Vector_base<hermes::vm::GCAnalyticsEvent, std::allocator<hermes::vm::GCAnalyticsEvent>>::_Vector_impl_data" = type { ptr, ptr, ptr }
%"class.std::chrono::time_point" = type { %"class.std::chrono::duration" }
%"class.std::chrono::duration" = type { i64 }
%"class.std::chrono::duration.0" = type { i64 }
%"struct.hermes::vm::GCBase::CumulativeHeapStats" = type { i32, %"class.hermes::StatsAccumulator", %"class.hermes::StatsAccumulator", i32, %"class.hermes::StatsAccumulator.1", %"class.hermes::StatsAccumulator.1" }
%"class.hermes::StatsAccumulator" = type { i32, double, double, double, double }
%"class.hermes::StatsAccumulator.1" = type { i32, i64, i32, i32, double }
%"class.std::__cxx11::basic_string" = type { %"struct.std::__cxx11::basic_string<char>::_Alloc_hider", i64, %union.anon }
%"struct.std::__cxx11::basic_string<char>::_Alloc_hider" = type { ptr }
%union.anon = type { i64, [8 x i8] }
%"class.std::deque" = type { %"class.std::_Deque_base" }
%"class.std::_Deque_base" = type { %"struct.std::_Deque_base<hermes::vm::WeakRefSlot, std::allocator<hermes::vm::WeakRefSlot>>::_Deque_impl" }
%"struct.std::_Deque_base<hermes::vm::WeakRefSlot, std::allocator<hermes::vm::WeakRefSlot>>::_Deque_impl" = type { %"struct.std::_Deque_base<hermes::vm::WeakRefSlot, std::allocator<hermes::vm::WeakRefSlot>>::_Deque_impl_data" }
%"struct.std::_Deque_base<hermes::vm::WeakRefSlot, std::allocator<hermes::vm::WeakRefSlot>>::_Deque_impl_data" = type { ptr, i64, %"struct.std::_Deque_iterator", %"struct.std::_Deque_iterator" }
%"struct.std::_Deque_iterator" = type { ptr, ptr, ptr, ptr }
%"class.std::recursive_mutex" = type { %"class.std::__recursive_mutex_base" }
%"class.std::__recursive_mutex_base" = type { %union.pthread_mutex_t }
%union.pthread_mutex_t = type { %struct.__pthread_mutex_s }
%struct.__pthread_mutex_s = type { i32, i32, i32, i32, i32, i16, i16, %struct.__pthread_internal_list }
%struct.__pthread_internal_list = type { ptr, ptr }
%"class.hermes::vm::GCBase::IDTracker" = type { %"class.std::recursive_mutex", i32, [4 x i8], %"class.llvh::DenseMap", %"class.llvh::DenseMap", %"class.llvh::DenseMap.8", %"class.llvh::DenseMap.11", %"class.llvh::DenseMap", %"class.llvh::DenseMap.14" }
%"class.llvh::DenseMap.8" = type <{ ptr, i32, i32, i32, [4 x i8] }>
%"class.llvh::DenseMap.11" = type <{ ptr, i32, i32, i32, [4 x i8] }>
%"class.llvh::DenseMap" = type <{ ptr, i32, i32, i32, [4 x i8] }>
%"class.llvh::DenseMap.14" = type <{ ptr, i32, i32, i32, [4 x i8] }>
%"class.hermes::vm::GCConfig" = type { i32, i32, i32, double, i32, %"class.hermes::vm::GCSanitizeConfig", i8, i32, %"class.std::__cxx11::basic_string", %"class.hermes::vm::GCTripwireConfig", i8, i8, i8, i8, %"class.std::function", %"class.std::function.20" }
%"class.hermes::vm::GCSanitizeConfig" = type { double, i64 }
%"class.std::function.20" = type { %"class.std::_Function_base", ptr }
%"class.std::allocator.2" = type { i8 }
%"class.hermes::vm::GCBase::GCCycle" = type <{ ptr, %"class.std::__cxx11::basic_string", i8, [7 x i8] }>
%class.Ctx = type { %"class.hermes::vm::GCTripwireContext" }
%"class.hermes::vm::GCTripwireContext" = type { ptr }
%"class.hermes::JSONEmitter" = type { %"class.llvh::SmallVector", ptr, i8, i32 }
%"class.llvh::SmallVector" = type { %"class.llvh::SmallVectorImpl", %"struct.llvh::SmallVectorStorage" }
%"class.llvh::SmallVectorImpl" = type { %"class.llvh::SmallVectorTemplateBase" }
%"class.llvh::SmallVectorTemplateBase" = type { %"class.llvh::SmallVectorTemplateCommon" }
%"class.llvh::SmallVectorTemplateCommon" = type { %"class.llvh::SmallVectorBase" }
%"class.llvh::SmallVectorBase" = type { ptr, i32, i32 }
%"struct.llvh::SmallVectorStorage" = type { [8 x %"struct.llvh::AlignedCharArrayUnion"] }
%"struct.llvh::AlignedCharArrayUnion" = type { %"struct.llvh::AlignedCharArray" }
%"struct.llvh::AlignedCharArray" = type { [5 x i8] }
%"class.llvh::StringRef" = type { ptr, i64 }
%"struct.hermes::vm::GCBase::HeapInfo" = type { i32, i64, i64, i64, i32, i64, i64, i32, %"struct.hermes::vm::GCBase::CumulativeHeapStats", %"struct.hermes::vm::GCBase::CumulativeHeapStats" }
%"class.std::chrono::duration.23" = type { double }
%"struct.hermes::vm::DurationFormatObj" = type { double }
%"struct.hermes::vm::SizeFormatObj" = type { i64 }
%"class.__gnu_cxx::__normal_iterator" = type { ptr }
%"class.__gnu_cxx::__normal_iterator.30" = type { ptr }
%"struct.hermes::vm::GCAnalyticsEvent" = type { %"class.std::__cxx11::basic_string", %"class.std::__cxx11::basic_string", %"class.std::__cxx11::basic_string", %"class.std::__cxx11::basic_string", %"class.std::chrono::duration.24", %"class.std::chrono::duration.24", %"struct.hermes::vm::BeforeAndAfter", %"struct.hermes::vm::BeforeAndAfter", %"struct.hermes::vm::BeforeAndAfter", double, %"class.std::vector.25" }
%"class.std::chrono::duration.24" = type { i64 }
%"struct.hermes::vm::BeforeAndAfter" = type { i64, i64 }
%"class.std::vector.25" = type { %"struct.std::_Vector_base.26" }
%"struct.std::_Vector_base.26" = type { %"struct.std::_Vector_base<std::__cxx11::basic_string<char>, std::allocator<std::__cxx11::basic_string<char>>>::_Vector_impl" }
%"struct.std::_Vector_base<std::__cxx11::basic_string<char>, std::allocator<std::__cxx11::basic_string<char>>>::_Vector_impl" = type { %"struct.std::_Vector_base<std::__cxx11::basic_string<char>, std::allocator<std::__cxx11::basic_string<char>>>::_Vector_impl_data" }
%"struct.std::_Vector_base<std::__cxx11::basic_string<char>, std::allocator<std::__cxx11::basic_string<char>>>::_Vector_impl_data" = type { ptr, ptr, ptr }
%"class.std::error_code" = type { i32, ptr }
%"class.llvh::MutableArrayRef" = type { %"class.llvh::ArrayRef" }
%"class.llvh::ArrayRef" = type { ptr, i64 }
%"class.std::vector.31" = type { %"struct.std::_Vector_base.32" }
%"struct.std::_Vector_base.32" = type { %"struct.std::_Vector_base<hermes::vm::detail::WeakRefKey *, std::allocator<hermes::vm::detail::WeakRefKey *>>::_Vector_impl" }
%"struct.std::_Vector_base<hermes::vm::detail::WeakRefKey *, std::allocator<hermes::vm::detail::WeakRefKey *>>::_Vector_impl" = type { %"struct.std::_Vector_base<hermes::vm::detail::WeakRefKey *, std::allocator<hermes::vm::detail::WeakRefKey *>>::_Vector_impl_data" }
%"struct.std::_Vector_base<hermes::vm::detail::WeakRefKey *, std::allocator<hermes::vm::detail::WeakRefKey *>>::_Vector_impl_data" = type { ptr, ptr, ptr }
%"struct.hermes::vm::JSWeakMapImplBase::KeyIterator" = type { %"class.llvh::DenseMapIterator" }
%"class.llvh::DenseMapIterator" = type { ptr, ptr }
%"struct.std::pair.132" = type { %"struct.hermes::vm::detail::WeakRefKey", i32, [4 x i8] }
%"struct.hermes::vm::detail::WeakRefKey" = type <{ %"class.hermes::vm::WeakRef", i32, [4 x i8] }>
%"class.hermes::vm::WeakRef" = type { %"class.hermes::vm::WeakRefBase" }
%"class.hermes::vm::WeakRefBase" = type { ptr }
%"class.hermes::vm::WeakRefSlot" = type <{ %"union.hermes::vm::WeakRefSlot::WeakRootOrIndex", i32, [4 x i8] }>
%"union.hermes::vm::WeakRefSlot::WeakRootOrIndex" = type { ptr }
%"class.std::lock_guard" = type { ptr }
%"class.llvh::DenseMapIterator.100" = type { ptr, ptr }
%"struct.std::pair" = type { i32, i32 }
%"class.hermes::vm::SymbolID" = type { i32 }
%"class.llvh::DenseMapIterator.106" = type { ptr, ptr }
%"struct.std::pair.108" = type <{ ptr, i32, [4 x i8] }>
%"class.llvh::format_object" = type { %"class.llvh::format_object_base", %"class.std::tuple.97" }
%"class.llvh::format_object_base" = type { ptr, ptr }
%"class.std::tuple.97" = type { %"struct.std::_Tuple_impl.98" }
%"struct.std::_Tuple_impl.98" = type { %"struct.std::_Head_base.99" }
%"struct.std::_Head_base.99" = type { double }
%"struct.llvh::detail::DenseMapPair" = type { %"struct.std::pair" }
%"struct.std::pair.152" = type { i32, [4 x i8], %"class.llvh::SmallVector.101" }
%"class.llvh::SmallVector.101" = type <{ %"class.llvh::SmallVectorImpl.124", %"struct.llvh::SmallVectorStorage.127", [4 x i8] }>
%"class.llvh::SmallVectorImpl.124" = type { %"class.llvh::SmallVectorTemplateBase.125" }
%"class.llvh::SmallVectorTemplateBase.125" = type { %"class.llvh::SmallVectorTemplateCommon.126" }
%"class.llvh::SmallVectorTemplateCommon.126" = type { %"class.llvh::SmallVectorBase" }
%"struct.llvh::SmallVectorStorage.127" = type { [1 x %"struct.llvh::AlignedCharArrayUnion.113"] }
%"struct.llvh::AlignedCharArrayUnion.113" = type { %"struct.llvh::AlignedCharArray.103" }
%"struct.llvh::AlignedCharArray.103" = type { [4 x i8] }
%"struct.std::pair.147" = type <{ double, i32, [4 x i8] }>
%"class.llvh::Optional" = type { %"struct.llvh::optional_detail::OptionalStorage" }
%"struct.llvh::optional_detail::OptionalStorage" = type { %"struct.llvh::AlignedCharArrayUnion.102", i8, [3 x i8] }
%"struct.llvh::AlignedCharArrayUnion.102" = type { %"struct.llvh::AlignedCharArray.103" }
%"struct.std::pair.104" = type <{ %"class.llvh::DenseMapIterator.100", i8, [7 x i8] }>
%"struct.llvh::detail::DenseMapPair.107" = type { %"struct.std::pair.base.110", [4 x i8] }
%"struct.std::pair.base.110" = type <{ ptr, i32 }>
%"class.llvh::Optional.111" = type { %"struct.llvh::optional_detail::OptionalStorage.112" }
%"struct.llvh::optional_detail::OptionalStorage.112" = type { %"struct.llvh::AlignedCharArrayUnion.113", i8, [3 x i8] }
%"class.hermes::vm::HermesValue" = type { i64 }
%struct.HeapSizeDiagnosticAcceptor = type { %"struct.hermes::vm::RootAndSlotAcceptor", i64, i64, i64, i64, i64, i64, i64, i64, %struct.HeapSizeDiagnostic, ptr }
%"struct.hermes::vm::RootAndSlotAcceptor" = type { %"struct.hermes::vm::RootAcceptor", %"struct.hermes::vm::SlotAcceptor" }
%"struct.hermes::vm::RootAcceptor" = type { %"struct.hermes::vm::RootSectionAcceptor" }
%"struct.hermes::vm::SlotAcceptor" = type { ptr }
%struct.HeapSizeDiagnostic = type { i64, i64, %struct.DiagnosticStat }
%struct.DiagnosticStat = type { i64, i64, %"class.std::map" }
%"class.std::map" = type { %"class.std::_Rb_tree" }
%"class.std::_Rb_tree" = type { %"struct.std::_Rb_tree<std::__cxx11::basic_string<char>, std::pair<const std::__cxx11::basic_string<char>, DiagnosticStat>, std::_Select1st<std::pair<const std::__cxx11::basic_string<char>, DiagnosticStat>>, std::less<std::__cxx11::basic_string<char>>>::_Rb_tree_impl" }
%"struct.std::_Rb_tree<std::__cxx11::basic_string<char>, std::pair<const std::__cxx11::basic_string<char>, DiagnosticStat>, std::_Select1st<std::pair<const std::__cxx11::basic_string<char>, DiagnosticStat>>, std::less<std::__cxx11::basic_string<char>>>::_Rb_tree_impl" = type { %"struct.std::_Rb_tree_key_compare", %"struct.std::_Rb_tree_header" }
%"struct.std::_Rb_tree_key_compare" = type { %"struct.std::less" }
%"struct.std::less" = type { i8 }
%"struct.std::_Rb_tree_header" = type { %"struct.std::_Rb_tree_node_base", i64 }
%"struct.std::_Rb_tree_node_base" = type { i32, ptr, ptr, ptr }
%"struct.hermes::vm::DroppingAcceptor" = type { %"struct.hermes::vm::RootAndSlotAcceptorWithNames", ptr }
%"struct.hermes::vm::RootAndSlotAcceptorWithNames" = type { %"struct.hermes::vm::RootAndSlotAcceptor" }
%"struct.std::_Rb_tree_iterator" = type { ptr }
%"class.std::function.121" = type { %"class.std::_Function_base", ptr }
%class.anon = type { ptr, ptr }
%"struct.std::pair.119" = type { %"class.std::__cxx11::basic_string", %struct.DiagnosticStat }
%"class.std::_Sp_counted_base" = type { ptr, i32, i32 }
%"class.std::allocator.128" = type { i8 }
%struct._Guard = type { ptr }
%"class.llvh::raw_ostream" = type <{ ptr, ptr, ptr, ptr, i32, [4 x i8] }>
%"struct.hermes::JSONEmitter::State" = type { i8, i8, i8, i8, i8 }
%"struct.llvh::detail::DenseMapPair.131" = type { %"struct.std::pair.base.134", [4 x i8] }
%"struct.std::pair.base.134" = type { %"struct.hermes::vm::detail::WeakRefKey", i32 }
%"struct.std::_Rb_tree_const_iterator" = type { ptr }
%"class.std::tuple.136" = type { %"struct.std::_Tuple_impl.137" }
%"struct.std::_Tuple_impl.137" = type { %"struct.std::_Head_base.138" }
%"struct.std::_Head_base.138" = type { ptr }
%"class.std::tuple.139" = type { i8 }
%"struct.std::_Rb_tree<std::__cxx11::basic_string<char>, std::pair<const std::__cxx11::basic_string<char>, DiagnosticStat>, std::_Select1st<std::pair<const std::__cxx11::basic_string<char>, DiagnosticStat>>, std::less<std::__cxx11::basic_string<char>>>::_Auto_node" = type { ptr, ptr }
%"struct.std::pair.141" = type { ptr, ptr }
%"struct.std::_Select1st" = type { i8 }
%"struct.std::_Rb_tree_node" = type { %"struct.std::_Rb_tree_node_base", %"struct.__gnu_cxx::__aligned_membuf" }
%"struct.__gnu_cxx::__aligned_membuf" = type { [96 x i8] }
%"class.hermes::vm::HermesValue32" = type { i32 }
%"class.hermes::vm::BoxedDouble" = type { %"class.hermes::vm::GCCell", double }
%"class.hermes::vm::GCCell" = type { %union.anon.36 }
%union.anon.36 = type { %"class.hermes::vm::KindAndSize" }
%"class.hermes::vm::KindAndSize" = type { i32 }
%"struct.llvh::detail::DenseMapPair.146" = type { %"struct.std::pair.base.149", [4 x i8] }
%"struct.std::pair.base.149" = type <{ double, i32 }>
%"struct.llvh::detail::DenseMapPair.151" = type { %"struct.std::pair.152" }
%"class.std::allocator.27" = type { i8 }
%"class.__gnu_cxx::__normal_iterator.154" = type { ptr }
%"struct.llvh::validate_format_parameters" = type { i8 }
%"struct.std::hash" = type { i8 }
%"class.hermes::vm::StringPrimitive" = type { %"class.hermes::vm::VariableSizeRuntimeCell", i32 }
%"class.hermes::vm::VariableSizeRuntimeCell" = type { %"class.hermes::vm::GCCell" }
%"struct.hermes::vm::SlotVisitor" = type { ptr }
%"struct.hermes::vm::VTable" = type { i64, i32, i32, ptr, ptr, ptr, ptr }

$_ZN6hermes2vm19WeakAcceptorDefault10acceptWeakERNS0_12WeakRootBaseE = comdat any

$_ZNK6hermes2vm12WeakRootBase18getNoBarrierUnsafeERNS0_11PointerBaseE = comdat any

$_ZN6hermes2vm17CompressedPointer6encodeEPNS0_6GCCellERNS0_11PointerBaseE = comdat any

$_ZN6hermes2vm12WeakRootBaseaSENS0_17CompressedPointerE = comdat any

$_ZThn8_N6hermes2vm19WeakAcceptorDefault10acceptWeakERNS0_12WeakRootBaseE = comdat any

$_ZNSt10shared_ptrIN6hermes2vm12CrashManagerEEC2ERKS3_ = comdat any

$_ZNK6hermes2vm8GCConfig20getAnalyticsCallbackEv = comdat any

$_ZNSt6vectorIN6hermes2vm16GCAnalyticsEventESaIS2_EEC2Ev = comdat any

$_ZNK6hermes2vm8GCConfig20getShouldRecordStatsEv = comdat any

$_ZNSt6chrono10time_pointINS_3_V212steady_clockENS_8durationIlSt5ratioILl1ELl1000000000EEEEEC2Ev = comdat any

$_ZN6hermes2vm6GCBase19CumulativeHeapStatsC2Ev = comdat any

$_ZNK6hermes2vm8GCConfig7getNameB5cxx11Ev = comdat any

$_ZNSt5dequeIN6hermes2vm11WeakRefSlotESaIS2_EEC2Ev = comdat any

$_ZNSt15recursive_mutexC2Ev = comdat any

$_ZNK6hermes2vm8GCConfig17getTripwireConfigEv = comdat any

$_ZNK6hermes2vm16GCTripwireConfig11getCallbackEv = comdat any

$_ZN6hermes2vm16GCTripwireConfigD2Ev = comdat any

$_ZNK6hermes2vm16GCTripwireConfig8getLimitEv = comdat any

$_ZNSt13random_deviceC2Ev = comdat any

$_ZNSt13random_deviceclEv = comdat any

$_ZNSt13random_deviceD2Ev = comdat any

$_ZNK6hermes2vm6GCBase12getCallbacksEv = comdat any

$_ZNKSt8functionIFvRN6hermes2vm17GCTripwireContextEEEcvbEv = comdat any

$_ZNKSt8functionIFvRN6hermes2vm17GCTripwireContextEEEclES3_ = comdat any

$_ZN4llvh11raw_ostreamlsEPKc = comdat any

$_ZN6hermes11JSONEmitterC2ERN4llvh11raw_ostreamEb = comdat any

$_ZN6hermes11JSONEmitterD2Ev = comdat any

$_ZNKSt5dequeIN6hermes2vm11WeakRefSlotESaIS2_EE4sizeEv = comdat any

$_ZN6hermes11JSONEmitter12emitKeyValueIA7_cEEvN4llvh9StringRefERKT_ = comdat any

$_ZN6hermes11JSONEmitter12emitKeyValueIiEEvN4llvh9StringRefERKT_ = comdat any

$_ZNSt6chronomiINS_3_V212steady_clockENS_8durationIlSt5ratioILl1ELl1000000000EEEES6_EENSt11common_typeIJT0_T1_EE4typeERKNS_10time_pointIT_S8_EERKNSC_ISD_S9_EE = comdat any

$_ZNSt6chrono8durationIdSt5ratioILl1ELl1EEEC2IlS1_ILl1ELl1000000000EEvEERKNS0_IT_T0_EE = comdat any

$_ZNSt6chrono13duration_castINS_8durationIdSt5ratioILl1ELl1EEEElS2_ILl1ELl1000000EEEENSt9enable_ifIXsr13__is_durationIT_EE5valueES7_E4typeERKNS1_IT0_T1_EE = comdat any

$_ZNKSt6chrono8durationIdSt5ratioILl1ELl1EEE5countEv = comdat any

$_ZN6hermes2vm6GCBase8HeapInfoC2Ev = comdat any

$_ZN6hermes11JSONEmitter12emitKeyValueImEEvN4llvh9StringRefERKT_ = comdat any

$_ZN6hermes11JSONEmitter12emitKeyValueIjEEvN4llvh9StringRefERKT_ = comdat any

$_ZN6hermes11JSONEmitter12emitKeyValueIdEEvN4llvh9StringRefERKT_ = comdat any

$_ZN6hermes2vm10formatSecsEd = comdat any

$_ZNK6hermes16StatsAccumulatorIddE3sumEv = comdat any

$_ZN6hermes11JSONEmitter12emitKeyValueIlEEvN4llvh9StringRefERKT_ = comdat any

$_ZNK6hermes16StatsAccumulatorIddE7averageEv = comdat any

$_ZNK6hermes16StatsAccumulatorIddE3maxEv = comdat any

$_ZN6hermes2vm10formatSizeEm = comdat any

$_ZNSt6vectorIN6hermes2vm16GCAnalyticsEventESaIS2_EE5beginEv = comdat any

$_ZNSt6vectorIN6hermes2vm16GCAnalyticsEventESaIS2_EE3endEv = comdat any

$_ZN9__gnu_cxxneIPN6hermes2vm16GCAnalyticsEventESt6vectorIS3_SaIS3_EEEEbRKNS_17__normal_iteratorIT_T0_EESD_ = comdat any

$_ZNK9__gnu_cxx17__normal_iteratorIPN6hermes2vm16GCAnalyticsEventESt6vectorIS3_SaIS3_EEEdeEv = comdat any

$_ZN6hermes11JSONEmitter12emitKeyValueINSt7__cxx1112basic_stringIcSt11char_traitsIcESaIcEEEEEvN4llvh9StringRefERKT_ = comdat any

$_ZNKSt6chrono8durationIlSt5ratioILl1ELl1000EEE5countEv = comdat any

$_ZNKSt6vectorINSt7__cxx1112basic_stringIcSt11char_traitsIcESaIcEEESaIS5_EE5beginEv = comdat any

$_ZNKSt6vectorINSt7__cxx1112basic_stringIcSt11char_traitsIcESaIcEEESaIS5_EE3endEv = comdat any

$_ZN9__gnu_cxxneIPKNSt7__cxx1112basic_stringIcSt11char_traitsIcESaIcEEESt6vectorIS6_SaIS6_EEEEbRKNS_17__normal_iteratorIT_T0_EESH_ = comdat any

$_ZNK9__gnu_cxx17__normal_iteratorIPKNSt7__cxx1112basic_stringIcSt11char_traitsIcESaIcEEESt6vectorIS6_SaIS6_EEEdeEv = comdat any

$_ZN9__gnu_cxx17__normal_iteratorIPKNSt7__cxx1112basic_stringIcSt11char_traitsIcESaIcEEESt6vectorIS6_SaIS6_EEEppEv = comdat any

$_ZN9__gnu_cxx17__normal_iteratorIPN6hermes2vm16GCAnalyticsEventESt6vectorIS3_SaIS3_EEEppEv = comdat any

$_ZN6hermes16StatsAccumulatorIddE6recordEd = comdat any

$_ZNSt6chrono8durationIdSt5ratioILl1ELl1EEEC2IlS1_ILl1ELl1000EEvEERKNS0_IT_T0_EE = comdat any

$_ZN6hermes16StatsAccumulatorIjmE6recordEj = comdat any

$_ZNKSt8functionIFvRKN6hermes2vm16GCAnalyticsEventEEEcvbEv = comdat any

$_ZNKSt8functionIFvRKN6hermes2vm16GCAnalyticsEventEEEclES4_ = comdat any

$_ZNSt6vectorIN6hermes2vm16GCAnalyticsEventESaIS2_EE9push_backERKS2_ = comdat any

$_ZN4llvh15MutableArrayRefIcEC2ILm400EEERAT__c = comdat any

$_ZNKSt19__shared_ptr_accessIN6hermes2vm12CrashManagerELN9__gnu_cxx12_Lock_policyE2ELb0ELb0EEptEv = comdat any

$_ZNK4llvh15MutableArrayRefIcE4dataEv = comdat any

$_ZNK4llvh8ArrayRefIcE4sizeEv = comdat any

$_ZNKSt10error_code7messageB5cxx11Ev = comdat any

$_ZNKSt10error_code5valueEv = comdat any

$_ZNKSt10error_code8categoryEv = comdat any

$_ZNSt6vectorIPN6hermes2vm6detail10WeakRefKeyESaIS4_EEC2Ev = comdat any

$_ZN6hermes2vm17JSWeakMapImplBase11KeyIteratorneERKS2_ = comdat any

$_ZN6hermes2vm17JSWeakMapImplBase11KeyIteratorptEv = comdat any

$_ZNSt6vectorIPN6hermes2vm6detail10WeakRefKeyESaIS4_EE9push_backEOS4_ = comdat any

$_ZN6hermes2vm17JSWeakMapImplBase11KeyIteratordeEv = comdat any

$_ZN6hermes2vm17JSWeakMapImplBase11KeyIteratorppEi = comdat any

$_ZNSt6vectorIPN6hermes2vm6detail10WeakRefKeyESaIS4_EED2Ev = comdat any

$_ZNK6hermes2vm11WeakRefSlot8nextFreeEv = comdat any

$_ZN6hermes2vm11WeakRefSlot5resetENS0_17CompressedPointerE = comdat any

$_ZNSt5dequeIN6hermes2vm11WeakRefSlotESaIS2_EE9push_backEOS2_ = comdat any

$_ZN6hermes2vm11WeakRefSlotC2ENS0_17CompressedPointerE = comdat any

$_ZNSt5dequeIN6hermes2vm11WeakRefSlotESaIS2_EE4backEv = comdat any

$_ZN6hermes2vm17CompressedPointer13encodeNonNullEPNS0_6GCCellERNS0_11PointerBaseE = comdat any

$_ZN4llvh6formatIJdEEENS_13format_objectIJDpT_EEEPKcDpRKS2_ = comdat any

$_ZN6hermes2vm6GCBase9IDTracker8reservedENS2_16ReservedObjectIDE = comdat any

$_ZN4llvh8DenseMapIjjNS_12DenseMapInfoIjEENS_6detail12DenseMapPairIjjEEEC2Ej = comdat any

$_ZN4llvh8DenseMapIPKvjNS_12DenseMapInfoIS2_EENS_6detail12DenseMapPairIS2_jEEEC2Ej = comdat any

$_ZN4llvh8DenseMapIjNS_11SmallVectorIjLj1EEENS_12DenseMapInfoIjEENS_6detail12DenseMapPairIjS2_EEEC2Ej = comdat any

$_ZN4llvh8DenseMapIdjN6hermes2vm6GCBase9IDTracker16DoubleComparatorENS_6detail12DenseMapPairIdjEEEC2Ej = comdat any

$_ZNK6hermes2vm17CompressedPointereqERKS1_ = comdat any

$_ZNSt10lock_guardISt15recursive_mutexEC2ERS0_ = comdat any

$_ZN4llvh12DenseMapBaseINS_8DenseMapIjjNS_12DenseMapInfoIjEENS_6detail12DenseMapPairIjjEEEEjjS3_S6_E4findERKj = comdat any

$_ZNK6hermes2vm17CompressedPointer6getRawEv = comdat any

$_ZNK4llvh16DenseMapIteratorIjjNS_12DenseMapInfoIjEENS_6detail12DenseMapPairIjjEELb0EEeqERKS6_ = comdat any

$_ZN4llvh12DenseMapBaseINS_8DenseMapIjjNS_12DenseMapInfoIjEENS_6detail12DenseMapPairIjjEEEEjjS3_S6_E3endEv = comdat any

$_ZNK4llvh16DenseMapIteratorIjjNS_12DenseMapInfoIjEENS_6detail12DenseMapPairIjjEELb0EEptEv = comdat any

$_ZN4llvh12DenseMapBaseINS_8DenseMapIjjNS_12DenseMapInfoIjEENS_6detail12DenseMapPairIjjEEEEjjS3_S6_E5eraseENS_16DenseMapIteratorIjjS3_S6_Lb0EEE = comdat any

$_ZN4llvh12DenseMapBaseINS_8DenseMapIjjNS_12DenseMapInfoIjEENS_6detail12DenseMapPairIjjEEEEjjS3_S6_EixEOj = comdat any

$_ZNK4llvh16DenseMapIteratorIjjNS_12DenseMapInfoIjEENS_6detail12DenseMapPairIjjEELb0EEneERKS6_ = comdat any

$_ZNSt10lock_guardISt15recursive_mutexED2Ev = comdat any

$_ZN4llvh12DenseMapBaseINS_8DenseMapIjNS_11SmallVectorIjLj1EEENS_12DenseMapInfoIjEENS_6detail12DenseMapPairIjS3_EEEEjS3_S5_S8_EixERKj = comdat any

$_ZN4llvh12DenseMapBaseINS_8DenseMapIdjN6hermes2vm6GCBase9IDTracker16DoubleComparatorENS_6detail12DenseMapPairIdjEEEEdjS6_S9_EixERKd = comdat any

$_ZN6hermes2vm17CompressedPointer7fromRawEj = comdat any

$_ZN4llvh8OptionalIN6hermes2vm17CompressedPointerEEC2EOS3_ = comdat any

$_ZN4llvh12DenseMapBaseINS_8DenseMapIjjNS_12DenseMapInfoIjEENS_6detail12DenseMapPairIjjEEEEjjS3_S6_E5beginEv = comdat any

$_ZNK4llvh16DenseMapIteratorIjjNS_12DenseMapInfoIjEENS_6detail12DenseMapPairIjjEELb0EEdeEv = comdat any

$_ZN4llvh12DenseMapBaseINS_8DenseMapIjjNS_12DenseMapInfoIjEENS_6detail12DenseMapPairIjjEEEEjjS3_S6_E11try_emplaceIJRKjEEESt4pairINS_16DenseMapIteratorIjjS3_S6_Lb0EEEbESB_DpOT_ = comdat any

$_ZN4llvh16DenseMapIteratorIjjNS_12DenseMapInfoIjEENS_6detail12DenseMapPairIjjEELb0EEppEv = comdat any

$_ZN4llvh8OptionalIN6hermes2vm17CompressedPointerEEC2ENS_8NoneTypeE = comdat any

$_ZNK4llvh12DenseMapBaseINS_8DenseMapIPKvjNS_12DenseMapInfoIS3_EENS_6detail12DenseMapPairIS3_jEEEES3_jS5_S8_E5emptyEv = comdat any

$_ZNK4llvh12DenseMapBaseINS_8DenseMapIjjNS_12DenseMapInfoIjEENS_6detail12DenseMapPairIjjEEEEjjS3_S6_E5emptyEv = comdat any

$_ZNK4llvh12DenseMapBaseINS_8DenseMapIjjNS_12DenseMapInfoIjEENS_6detail12DenseMapPairIjjEEEEjjS3_S6_E5countERKj = comdat any

$_ZNK6hermes2vm8SymbolID14unsafeGetIndexEv = comdat any

$_ZN4llvh12DenseMapBaseINS_8DenseMapIPKvjNS_12DenseMapInfoIS3_EENS_6detail12DenseMapPairIS3_jEEEES3_jS5_S8_E4findES3_ = comdat any

$_ZNK4llvh16DenseMapIteratorIPKvjNS_12DenseMapInfoIS2_EENS_6detail12DenseMapPairIS2_jEELb0EEneERKS8_ = comdat any

$_ZN4llvh12DenseMapBaseINS_8DenseMapIPKvjNS_12DenseMapInfoIS3_EENS_6detail12DenseMapPairIS3_jEEEES3_jS5_S8_E3endEv = comdat any

$_ZNK4llvh16DenseMapIteratorIPKvjNS_12DenseMapInfoIS2_EENS_6detail12DenseMapPairIS2_jEELb0EEptEv = comdat any

$_ZN4llvh12DenseMapBaseINS_8DenseMapIPKvjNS_12DenseMapInfoIS3_EENS_6detail12DenseMapPairIS3_jEEEES3_jS5_S8_EixERKS3_ = comdat any

$_ZN4llvh12DenseMapBaseINS_8DenseMapIjjNS_12DenseMapInfoIjEENS_6detail12DenseMapPairIjjEEEEjjS3_S6_E5eraseERKj = comdat any

$_ZN4llvh12DenseMapBaseINS_8DenseMapIjNS_11SmallVectorIjLj1EEENS_12DenseMapInfoIjEENS_6detail12DenseMapPairIjS3_EEEEjS3_S5_S8_E5eraseERKj = comdat any

$_ZN4llvh12DenseMapBaseINS_8DenseMapIPKvjNS_12DenseMapInfoIS3_EENS_6detail12DenseMapPairIS3_jEEEES3_jS5_S8_E5eraseERKS3_ = comdat any

$_ZNSt14numeric_limitsIjE3maxEv = comdat any

$_ZNK6hermes2vm11HermesValue9isPointerEv = comdat any

$_ZNK6hermes2vm11HermesValue10getPointerEv = comdat any

$_ZN4llvh8OptionalIjEC2EOj = comdat any

$_ZNK6hermes2vm11HermesValue8isNumberEv = comdat any

$_ZNK6hermes2vm11HermesValue9getNumberEv = comdat any

$_ZNK6hermes2vm11HermesValue8isSymbolEv = comdat any

$_ZNK6hermes2vm11HermesValue9getSymbolEv = comdat any

$_ZNK6hermes2vm8SymbolID7isValidEv = comdat any

$_ZNK6hermes2vm11HermesValue11isUndefinedEv = comdat any

$_ZNK6hermes2vm11HermesValue6isNullEv = comdat any

$_ZNK6hermes2vm11HermesValue6isBoolEv = comdat any

$_ZNK6hermes2vm11HermesValue7getBoolEv = comdat any

$_ZN4llvh8OptionalIjEC2ENS_8NoneTypeE = comdat any

$_ZNK4llvh8OptionalIN6hermes2vm17CompressedPointerEEcvbEv = comdat any

$_ZN4llvh8OptionalIN6hermes2vm17CompressedPointerEEptEv = comdat any

$_ZNK6hermes2vm17CompressedPointer3getERNS0_11PointerBaseE = comdat any

$_ZNK6hermes2vm6GCBase14getPointerBaseEv = comdat any

$_ZN6hermes2vm6GCBase9markRootsERNS0_28RootAndSlotAcceptorWithNamesEb = comdat any

$_ZNSt8functionIFvPN6hermes2vm6GCCellEEED2Ev = comdat any

$_ZN6hermes2vm6GCBaseD2Ev = comdat any

$_ZN6hermes2vm6GCBaseD0Ev = comdat any

$_ZN6hermes2vm6GCBase10ttiReachedEv = comdat any

$_ZN6hermes2vm6GCBase25recordNumAllocatedObjectsEv = comdat any

$_ZNK6hermes2vm6GCBase21getPeakAllocatedBytesEv = comdat any

$_ZNK6hermes2vm6GCBase18getPeakLiveAfterGCEv = comdat any

$_ZNK6hermes2vm6GCBase10inYoungGenEPKv = comdat any

$_ZN6hermes2vm6GCBase22canAllocExternalMemoryEj = comdat any

$_ZNK6hermes2vm6GCBase25bytesAllocatedSinceLastGCEv = comdat any

$_ZN6hermes2vm19WeakAcceptorDefaultD2Ev = comdat any

$_ZN6hermes2vm19WeakAcceptorDefaultD0Ev = comdat any

$_ZThn8_N6hermes2vm19WeakAcceptorDefaultD1Ev = comdat any

$_ZThn8_N6hermes2vm19WeakAcceptorDefaultD0Ev = comdat any

$_ZN6hermes2vm19RootSectionAcceptor16beginRootSectionENS1_7SectionE = comdat any

$_ZN6hermes2vm19RootSectionAcceptor14endRootSectionEv = comdat any

$_ZN6hermes2vm17CompressedPointer20pointerToStorageTypeEPNS0_6GCCellERNS0_11PointerBaseE = comdat any

$_ZN6hermes2vm17CompressedPointerC2ENS0_12BasedPointerE = comdat any

$_ZNK6hermes2vm11PointerBase14pointerToBasedEPKv = comdat any

$_ZNK6hermes2vm11PointerBase21pointerToBasedNonNullEPKv = comdat any

$_ZN6hermes2vm12BasedPointerC2EDn = comdat any

$_ZN6hermes2vm12BasedPointerC2Ej = comdat any

$_ZN6hermes2vm17CompressedPointer12setNoBarrierES1_ = comdat any

$_ZNSt12__shared_ptrIN6hermes2vm12CrashManagerELN9__gnu_cxx12_Lock_policyE2EEC2ERKS5_ = comdat any

$_ZNSt14__shared_countILN9__gnu_cxx12_Lock_policyE2EEC2ERKS2_ = comdat any

$_ZNSt16_Sp_counted_baseILN9__gnu_cxx12_Lock_policyE2EE15_M_add_ref_copyEv = comdat any

$_ZNSt8functionIFvRKN6hermes2vm16GCAnalyticsEventEEEC2ERKS6_ = comdat any

$_ZNSt14_Function_baseC2Ev = comdat any

$_ZNSt12_Vector_baseIN6hermes2vm16GCAnalyticsEventESaIS2_EEC2Ev = comdat any

$_ZNSt12_Vector_baseIN6hermes2vm16GCAnalyticsEventESaIS2_EE12_Vector_implC2Ev = comdat any

$_ZNSaIN6hermes2vm16GCAnalyticsEventEEC2Ev = comdat any

$_ZNSt12_Vector_baseIN6hermes2vm16GCAnalyticsEventESaIS2_EE17_Vector_impl_dataC2Ev = comdat any

$_ZNSt15__new_allocatorIN6hermes2vm16GCAnalyticsEventEEC2Ev = comdat any

$_ZNSt6chrono8durationIlSt5ratioILl1ELl1000000000EEE4zeroEv = comdat any

$_ZNSt6chrono15duration_valuesIlE4zeroEv = comdat any

$_ZNSt6chrono8durationIlSt5ratioILl1ELl1000000000EEEC2IlvEERKT_ = comdat any

$_ZN6hermes16StatsAccumulatorIddEC2Ev = comdat any

$_ZN6hermes16StatsAccumulatorIjmEC2Ev = comdat any

$_ZNSt11_Deque_baseIN6hermes2vm11WeakRefSlotESaIS2_EEC2Ev = comdat any

$_ZNSt11_Deque_baseIN6hermes2vm11WeakRefSlotESaIS2_EE11_Deque_implC2Ev = comdat any

$_ZNSt11_Deque_baseIN6hermes2vm11WeakRefSlotESaIS2_EE17_M_initialize_mapEm = comdat any

$_ZNSaIN6hermes2vm11WeakRefSlotEEC2Ev = comdat any

$_ZNSt11_Deque_baseIN6hermes2vm11WeakRefSlotESaIS2_EE16_Deque_impl_dataC2Ev = comdat any

$_ZNSt15__new_allocatorIN6hermes2vm11WeakRefSlotEEC2Ev = comdat any

$_ZNSt15_Deque_iteratorIN6hermes2vm11WeakRefSlotERS2_PS2_EC2Ev = comdat any

$_ZSt16__deque_buf_sizem = comdat any

$_ZSt3maxImERKT_S2_S2_ = comdat any

$_ZNSt11_Deque_baseIN6hermes2vm11WeakRefSlotESaIS2_EE15_M_allocate_mapEm = comdat any

$_ZNSt11_Deque_baseIN6hermes2vm11WeakRefSlotESaIS2_EE15_M_create_nodesEPPS2_S6_ = comdat any

$_ZNSt15_Deque_iteratorIN6hermes2vm11WeakRefSlotERS2_PS2_E11_M_set_nodeEPS4_ = comdat any

$_ZNKSt11_Deque_baseIN6hermes2vm11WeakRefSlotESaIS2_EE20_M_get_map_allocatorEv = comdat any

$_ZNSt16allocator_traitsISaIPN6hermes2vm11WeakRefSlotEEE8allocateERS4_m = comdat any

$_ZNSaIPN6hermes2vm11WeakRefSlotEED2Ev = comdat any

$_ZNKSt11_Deque_baseIN6hermes2vm11WeakRefSlotESaIS2_EE19_M_get_Tp_allocatorEv = comdat any

$_ZNSaIPN6hermes2vm11WeakRefSlotEEC2IS1_EERKSaIT_E = comdat any

$_ZNSt15__new_allocatorIPN6hermes2vm11WeakRefSlotEEC2Ev = comdat any

$_ZNSt15__new_allocatorIPN6hermes2vm11WeakRefSlotEE8allocateEmPKv = comdat any

$_ZNKSt15__new_allocatorIPN6hermes2vm11WeakRefSlotEE11_M_max_sizeEv = comdat any

$_ZNSt15__new_allocatorIPN6hermes2vm11WeakRefSlotEED2Ev = comdat any

$_ZNSt11_Deque_baseIN6hermes2vm11WeakRefSlotESaIS2_EE16_M_allocate_nodeEv = comdat any

$_ZNSt16allocator_traitsISaIN6hermes2vm11WeakRefSlotEEE8allocateERS3_m = comdat any

$_ZNSt15__new_allocatorIN6hermes2vm11WeakRefSlotEE8allocateEmPKv = comdat any

$_ZNKSt15__new_allocatorIN6hermes2vm11WeakRefSlotEE11_M_max_sizeEv = comdat any

$_ZNSt15_Deque_iteratorIN6hermes2vm11WeakRefSlotERS2_PS2_E14_S_buffer_sizeEv = comdat any

$_ZNSt22__recursive_mutex_baseC2Ev = comdat any

$_ZN6hermes2vm16GCTripwireConfigC2ERKS1_ = comdat any

$_ZNSt8functionIFvRN6hermes2vm17GCTripwireContextEEEC2ERKS5_ = comdat any

$_ZNSt8functionIFvRN6hermes2vm17GCTripwireContextEEED2Ev = comdat any

$_ZNSt14_Function_baseD2Ev = comdat any

$_ZNSt7__cxx1112basic_stringIcSt11char_traitsIcESaIcEEC2IS3_EEPKcRKS3_ = comdat any

$_ZNSt11char_traitsIcE6lengthEPKc = comdat any

$_ZNSt7__cxx1112basic_stringIcSt11char_traitsIcESaIcEE12_M_constructIPKcEEvT_S8_St20forward_iterator_tag = comdat any

$_ZSt8distanceIPKcENSt15iterator_traitsIT_E15difference_typeES3_S3_ = comdat any

$_ZZNSt7__cxx1112basic_stringIcSt11char_traitsIcESaIcEE12_M_constructIPKcEEvT_S8_St20forward_iterator_tagEN6_GuardC2EPS4_ = comdat any

$_ZZNSt7__cxx1112basic_stringIcSt11char_traitsIcESaIcEE12_M_constructIPKcEEvT_S8_St20forward_iterator_tagEN6_GuardD2Ev = comdat any

$_ZSt10__distanceIPKcENSt15iterator_traitsIT_E15difference_typeES3_S3_St26random_access_iterator_tag = comdat any

$_ZSt19__iterator_categoryIPKcENSt15iterator_traitsIT_E17iterator_categoryERKS3_ = comdat any

$_ZN6hermes2vm17GCTripwireContextC2Ev = comdat any

$_ZNSt10error_codeC2EiRKNSt3_V214error_categoryE = comdat any

$_ZN4llvh11raw_ostreamlsENS_9StringRefE = comdat any

$_ZN4llvh11SmallVectorIN6hermes11JSONEmitter5StateELj8EEC2Ev = comdat any

$_ZN4llvh15SmallVectorImplIN6hermes11JSONEmitter5StateEEC2Ej = comdat any

$_ZN4llvh23SmallVectorTemplateBaseIN6hermes11JSONEmitter5StateELb1EEC2Em = comdat any

$_ZN4llvh25SmallVectorTemplateCommonIN6hermes11JSONEmitter5StateEvEC2Em = comdat any

$_ZNK4llvh25SmallVectorTemplateCommonIN6hermes11JSONEmitter5StateEvE10getFirstElEv = comdat any

$_ZN4llvh15SmallVectorBaseC2EPvm = comdat any

$_ZN4llvh11SmallVectorIN6hermes11JSONEmitter5StateELj8EED2Ev = comdat any

$_ZN4llvh23SmallVectorTemplateBaseIN6hermes11JSONEmitter5StateELb1EE13destroy_rangeEPS3_S5_ = comdat any

$_ZN4llvh15SmallVectorImplIN6hermes11JSONEmitter5StateEED2Ev = comdat any

$_ZNK4llvh15SmallVectorBase4sizeEv = comdat any

$_ZNK4llvh25SmallVectorTemplateCommonIN6hermes11JSONEmitter5StateEvE7isSmallEv = comdat any

$_ZNSt6chronomiIlSt5ratioILl1ELl1000000000EElS2_EENSt11common_typeIJNS_8durationIT_T0_EENS4_IT1_T2_EEEE4typeERKS7_RKSA_ = comdat any

$_ZNKSt6chrono10time_pointINS_3_V212steady_clockENS_8durationIlSt5ratioILl1ELl1000000000EEEEE16time_since_epochEv = comdat any

$_ZNKSt6chrono8durationIlSt5ratioILl1ELl1000000000EEE5countEv = comdat any

$_ZNSt6chrono13duration_castINS_8durationIdSt5ratioILl1ELl1EEEElS2_ILl1ELl1000000000EEEENSt9enable_ifIXsr13__is_durationIT_EE5valueES7_E4typeERKNS1_IT0_T1_EE = comdat any

$_ZNSt6chrono20__duration_cast_implINS_8durationIdSt5ratioILl1ELl1EEEES2_ILl1ELl1000000000EEdLb1ELb0EE6__castIlS5_EES4_RKNS1_IT_T0_EE = comdat any

$_ZNSt6chrono8durationIdSt5ratioILl1ELl1EEEC2IdvEERKT_ = comdat any

$_ZNSt6chrono20__duration_cast_implINS_8durationIdSt5ratioILl1ELl1EEEES2_ILl1ELl1000000EEdLb1ELb0EE6__castIlS5_EES4_RKNS1_IT_T0_EE = comdat any

$_ZNKSt6chrono8durationIlSt5ratioILl1ELl1000000EEE5countEv = comdat any

$_ZNSt6chrono13duration_castINS_8durationIdSt5ratioILl1ELl1EEEElS2_ILl1ELl1000EEEENSt9enable_ifIXsr13__is_durationIT_EE5valueES7_E4typeERKNS1_IT0_T1_EE = comdat any

$_ZNSt6chrono20__duration_cast_implINS_8durationIdSt5ratioILl1ELl1EEEES2_ILl1ELl1000EEdLb1ELb0EE6__castIlS5_EES4_RKNS1_IT_T0_EE = comdat any

$_ZN4llvh8ArrayRefIcEC2ILm400EEERAT__Kc = comdat any

$_ZNSt12_Vector_baseIPN6hermes2vm6detail10WeakRefKeyESaIS4_EEC2Ev = comdat any

$_ZNSt12_Vector_baseIPN6hermes2vm6detail10WeakRefKeyESaIS4_EE12_Vector_implC2Ev = comdat any

$_ZNSaIPN6hermes2vm6detail10WeakRefKeyEEC2Ev = comdat any

$_ZNSt12_Vector_baseIPN6hermes2vm6detail10WeakRefKeyESaIS4_EE17_Vector_impl_dataC2Ev = comdat any

$_ZNSt15__new_allocatorIPN6hermes2vm6detail10WeakRefKeyEEC2Ev = comdat any

$_ZNK4llvh16DenseMapIteratorIN6hermes2vm6detail10WeakRefKeyEjNS3_11WeakRefInfoENS_6detail12DenseMapPairIS4_jEELb0EEneERKS9_ = comdat any

$_ZNK4llvh16DenseMapIteratorIN6hermes2vm6detail10WeakRefKeyEjNS3_11WeakRefInfoENS_6detail12DenseMapPairIS4_jEELb0EEeqERKS9_ = comdat any

$_ZNK4llvh16DenseMapIteratorIN6hermes2vm6detail10WeakRefKeyEjNS3_11WeakRefInfoENS_6detail12DenseMapPairIS4_jEELb0EEptEv = comdat any

$_ZN4llvh20shouldReverseIterateIN6hermes2vm6detail10WeakRefKeyEEEbv = comdat any

$_ZN4llvh16DenseMapIteratorIN6hermes2vm6detail10WeakRefKeyEjNS3_11WeakRefInfoENS_6detail12DenseMapPairIS4_jEELb0EEppEi = comdat any

$_ZN4llvh16DenseMapIteratorIN6hermes2vm6detail10WeakRefKeyEjNS3_11WeakRefInfoENS_6detail12DenseMapPairIS4_jEELb0EEppEv = comdat any

$_ZN4llvh16DenseMapIteratorIN6hermes2vm6detail10WeakRefKeyEjNS3_11WeakRefInfoENS_6detail12DenseMapPairIS4_jEELb0EE23RetreatPastEmptyBucketsEv = comdat any

$_ZN4llvh16DenseMapIteratorIN6hermes2vm6detail10WeakRefKeyEjNS3_11WeakRefInfoENS_6detail12DenseMapPairIS4_jEELb0EE23AdvancePastEmptyBucketsEv = comdat any

$_ZN6hermes2vm6detail11WeakRefInfo11getEmptyKeyEv = comdat any

$_ZN6hermes2vm6detail11WeakRefInfo15getTombstoneKeyEv = comdat any

$_ZN6hermes2vm6detail11WeakRefInfo7isEqualERKNS1_10WeakRefKeyES5_ = comdat any

$_ZN4llvh6detail12DenseMapPairIN6hermes2vm6detail10WeakRefKeyEjE8getFirstEv = comdat any

$_ZN6hermes2vm7WeakRefINS0_8JSObjectEEC2EPNS0_11WeakRefSlotE = comdat any

$_ZN6hermes2vm6detail10WeakRefKeyC2ENS0_7WeakRefINS0_8JSObjectEEEj = comdat any

$_ZN6hermes2vm11WeakRefBaseC2EPNS0_11WeakRefSlotE = comdat any

$_ZNK6hermes2vm11WeakRefBase13unsafeGetSlotEv = comdat any

$_ZN6hermes2vm11WeakRefBase11isSlotValidEPKNS0_11WeakRefSlotE = comdat any

$_ZNK6hermes2vm11WeakRefSlot18getNoBarrierUnsafeEv = comdat any

$_ZNK6hermes2vm11WeakRefSlot8hasValueEv = comdat any

$_ZNK6hermes2vm17CompressedPointerneERKS1_ = comdat any

$_ZN6hermes2vm17CompressedPointerC2EDn = comdat any

$_ZNK6hermes2vm8WeakRootINS0_6GCCellEE18getNoBarrierUnsafeEv = comdat any

$_ZNK6hermes2vm12WeakRootBase18getNoBarrierUnsafeEv = comdat any

$_ZN6hermes2vm8WeakRootINS0_6GCCellEEaSENS0_17CompressedPointerE = comdat any

$_ZN6hermes2vm11WeakRefSlot15WeakRootOrIndexC2Ev = comdat any

$_ZN6hermes2vm17CompressedPointer27pointerToStorageTypeNonNullEPNS0_6GCCellERNS0_11PointerBaseE = comdat any

$_ZNK6hermes2vm12BasedPointereqES1_ = comdat any

$_ZN6hermes2vm17CompressedPointer16storageTypeToRawENS0_12BasedPointerE = comdat any

$_ZNK6hermes2vm12BasedPointer11getRawValueEv = comdat any

$_ZN6hermes2vm17CompressedPointerC2Ej = comdat any

$_ZN6hermes2vm17CompressedPointer16rawToStorageTypeEj = comdat any

$_ZN4llvh15optional_detail15OptionalStorageIN6hermes2vm17CompressedPointerELb1EEC2Ev = comdat any

$_ZNK6hermes2vm11HermesValue8isDoubleEv = comdat any

$_ZNK6hermes2vm11HermesValue9getDoubleEv = comdat any

$_ZN4llvh12BitsToDoubleEm = comdat any

$_ZNK6hermes2vm11HermesValue7getETagEv = comdat any

$_ZN6hermes2vm8SymbolID12unsafeCreateEj = comdat any

$_ZN6hermes2vm8SymbolIDC2Ej = comdat any

$_ZN4llvh15optional_detail15OptionalStorageIjLb1EEC2Ev = comdat any

$_ZN6hermes2vm17CompressedPointer20storageTypeToPointerENS0_12BasedPointerERNS0_11PointerBaseE = comdat any

$_ZNK6hermes2vm11PointerBase14basedToPointerENS0_12BasedPointerE = comdat any

$_ZNK6hermes2vm12BasedPointercvbEv = comdat any

$_ZNK6hermes2vm11PointerBase21basedToPointerNonNullENS0_12BasedPointerE = comdat any

$_ZN6hermes2vm19RootAndSlotAcceptorC2Ev = comdat any

$_ZN6hermes2vm12RootAcceptorC2Ev = comdat any

$_ZN6hermes2vm12SlotAcceptorC2Ev = comdat any

$_ZN6hermes2vm19RootAndSlotAcceptorD2Ev = comdat any

$_ZN6hermes2vm19RootAndSlotAcceptorD0Ev = comdat any

$_ZThn8_N6hermes2vm19RootAndSlotAcceptorD1Ev = comdat any

$_ZThn8_N6hermes2vm19RootAndSlotAcceptorD0Ev = comdat any

$_ZN6hermes2vm19RootSectionAcceptorC2Ev = comdat any

$_ZN6hermes2vm12RootAcceptorD2Ev = comdat any

$_ZN6hermes2vm12RootAcceptorD0Ev = comdat any

$_ZN6hermes2vm19RootSectionAcceptorD2Ev = comdat any

$_ZN6hermes2vm19RootSectionAcceptorD0Ev = comdat any

$_ZN6hermes2vm12SlotAcceptorD2Ev = comdat any

$_ZN6hermes2vm12SlotAcceptorD0Ev = comdat any

$_ZNSt20_Rb_tree_key_compareISt4lessINSt7__cxx1112basic_stringIcSt11char_traitsIcESaIcEEEEEC2Ev = comdat any

$_ZNSt15_Rb_tree_headerC2Ev = comdat any

$_ZNSt15_Rb_tree_header8_M_resetEv = comdat any

$_ZNKSt4lessINSt7__cxx1112basic_stringIcSt11char_traitsIcESaIcEEEEclERKS5_S8_ = comdat any

$_ZSt16forward_as_tupleIJNSt7__cxx1112basic_stringIcSt11char_traitsIcESaIcEEEEESt5tupleIJDpOT_EES9_ = comdat any

$_ZStltIcSt11char_traitsIcESaIcEEbRKNSt7__cxx1112basic_stringIT_T0_T1_EESA_ = comdat any

$_ZNSt5tupleIJONSt7__cxx1112basic_stringIcSt11char_traitsIcESaIcEEEEEC2EOS7_ = comdat any

$_ZNSt11_Tuple_implILm0EJONSt7__cxx1112basic_stringIcSt11char_traitsIcESaIcEEEEEC2EOS7_ = comdat any

$_ZSt3getILm0EJONSt7__cxx1112basic_stringIcSt11char_traitsIcESaIcEEEEERNSt13tuple_elementIXT_ESt5tupleIJDpT0_EEE4typeERSB_ = comdat any

$_ZSt12__get_helperILm0EONSt7__cxx1112basic_stringIcSt11char_traitsIcESaIcEEEJEERT0_RSt11_Tuple_implIXT_EJS7_DpT1_EE = comdat any

$_ZNSt11_Tuple_implILm0EJONSt7__cxx1112basic_stringIcSt11char_traitsIcESaIcEEEEE7_M_headERS7_ = comdat any

$_ZNSt10_Head_baseILm0EONSt7__cxx1112basic_stringIcSt11char_traitsIcESaIcEEELb0EE7_M_headERS7_ = comdat any

$_ZNSt4pairIPSt18_Rb_tree_node_baseS1_EC2IS1_S1_TnNSt9enable_ifIXaaclsr5_PCCPE18_ConstructiblePairIT_T0_EEclsr5_PCCPE26_ImplicitlyConvertiblePairIS5_S6_EEEbE4typeELb1EEERKS1_SA_ = comdat any

$_ZNSt4pairIPSt18_Rb_tree_node_baseS1_EC2IRS1_S4_TnNSt9enable_ifIXaaclsr5_PCCPE22_MoveConstructiblePairIT_T0_EEclsr5_PCCPE30_ImplicitlyMoveConvertiblePairIS6_S7_EEEbE4typeELb1EEEOS6_OS7_ = comdat any

$_ZNSt5tupleIJONSt7__cxx1112basic_stringIcSt11char_traitsIcESaIcEEEEEC2IJS5_ELb1ETnNSt9enable_ifIXclsr4_TCCIXT0_EEE29__is_implicitly_constructibleIDpT_EEEbE4typeELb1EEEDpOSA_ = comdat any

$_ZNSt11_Tuple_implILm0EJONSt7__cxx1112basic_stringIcSt11char_traitsIcESaIcEEEEEC2IS5_EEOT_ = comdat any

$_ZNSt10_Head_baseILm0EONSt7__cxx1112basic_stringIcSt11char_traitsIcESaIcEEELb0EEC2IS5_EEOT_ = comdat any

$_ZN4llvh9StringRefC2Ev = comdat any

$_ZNK4llvh9StringRefcvNSt7__cxx1112basic_stringIcSt11char_traitsIcESaIcEEEEv = comdat any

$_ZNK6hermes2vm11HermesValue8isStringEv = comdat any

$_ZNK6hermes2vm11HermesValue8isObjectEv = comdat any

$_ZNK6hermes2vm11HermesValue7isEmptyEv = comdat any

$_ZNK6hermes2vm11HermesValue13isNativeValueEv = comdat any

$_ZNK4llvh9StringRef3strB5cxx11Ev = comdat any

$_ZNK6hermes2vm11HermesValue6getTagEv = comdat any

$_ZNK6hermes2vm13HermesValue324toHVERNS0_11PointerBaseE = comdat any

$_ZNK6hermes2vm13HermesValue326getTagEv = comdat any

$_ZN6hermes2vm11HermesValue17encodeObjectValueEPv = comdat any

$_ZNK6hermes2vm13HermesValue3210getPointerERNS0_11PointerBaseE = comdat any

$_ZNK6hermes2vm13HermesValue329unboxToHVERNS0_11PointerBaseE = comdat any

$_ZN4llvh16maskTrailingOnesIjEET_j = comdat any

$_ZN6hermes2vm11HermesValue23encodeObjectValueUnsafeEPv = comdat any

$_ZN6hermes2vm11HermesValue15validatePointerEPKv = comdat any

$_ZN6hermes2vm11HermesValueC2EmNS1_3TagE = comdat any

$_ZNK6hermes2vm13HermesValue3210getPointerEv = comdat any

$_ZNK6hermes2vm17CompressedPointer10getNonNullERNS0_11PointerBaseE = comdat any

$_ZN4llvh15maskLeadingOnesIjEET_j = comdat any

$_ZNK6hermes2vm13HermesValue327getETagEv = comdat any

$_ZNK6hermes2vm13HermesValue329getObjectERNS0_11PointerBaseE = comdat any

$_ZN6hermes2vm11HermesValue17encodeBigIntValueEPKNS0_15BigIntPrimitiveE = comdat any

$_ZNK6hermes2vm13HermesValue329getBigIntERNS0_11PointerBaseE = comdat any

$_ZN6hermes2vm11HermesValue17encodeStringValueEPKNS0_15StringPrimitiveE = comdat any

$_ZNK6hermes2vm13HermesValue329getStringERNS0_11PointerBaseE = comdat any

$_ZN6hermes2vm11HermesValue26encodeUntrustedNumberValueEd = comdat any

$_ZN6hermes2vm6vmcastINS0_11BoxedDoubleEEEPT_PNS0_6GCCellE = comdat any

$_ZNK6hermes2vm11BoxedDouble3getEv = comdat any

$_ZN6hermes2vm11HermesValue24encodeTrustedNumberValueIiEENSt9enable_ifIXsr3std11is_integralIT_EE5valueES1_E4typeES4_ = comdat any

$_ZNK6hermes2vm13HermesValue3211getSmallIntEv = comdat any

$_ZN6hermes2vm11HermesValue17encodeSymbolValueENS0_8SymbolIDE = comdat any

$_ZNK6hermes2vm13HermesValue328getValueEv = comdat any

$_ZN6hermes2vm11HermesValue15encodeBoolValueEb = comdat any

$_ZNK6hermes2vm13HermesValue3212getETagValueEv = comdat any

$_ZN6hermes2vm11HermesValue20encodeUndefinedValueEv = comdat any

$_ZN6hermes2vm11HermesValue16encodeEmptyValueEv = comdat any

$_ZN6hermes2vm11HermesValue15encodeNullValueEv = comdat any

$_ZN6hermes2vm11HermesValue23encodeBigIntValueUnsafeEPKNS0_15BigIntPrimitiveE = comdat any

$_ZN6hermes2vm6vmcastINS0_15BigIntPrimitiveEEEPT_PNS0_6GCCellE = comdat any

$_ZN4llvh4castIN6hermes2vm15BigIntPrimitiveENS2_6GCCellEEENS_10cast_rettyIT_PT0_E8ret_typeES8_ = comdat any

$_ZN4llvh16cast_convert_valIN6hermes2vm15BigIntPrimitiveEPNS2_6GCCellES5_E4doitERKS5_ = comdat any

$_ZN6hermes2vm11HermesValue23encodeStringValueUnsafeEPKNS0_15StringPrimitiveE = comdat any

$_ZN6hermes2vm6vmcastINS0_15StringPrimitiveEEEPT_PNS0_6GCCellE = comdat any

$_ZN4llvh4castIN6hermes2vm15StringPrimitiveENS2_6GCCellEEENS_10cast_rettyIT_PT0_E8ret_typeES8_ = comdat any

$_ZN4llvh16cast_convert_valIN6hermes2vm15StringPrimitiveEPNS2_6GCCellES5_E4doitERKS5_ = comdat any

$_ZSt5isnand = comdat any

$_ZN6hermes2vm11HermesValue14encodeNaNValueEv = comdat any

$_ZN4llvh12DoubleToBitsEd = comdat any

$_ZN6hermes2vm11HermesValueC2Em = comdat any

$_ZNSt14numeric_limitsIdE9quiet_NaNEv = comdat any

$_ZN4llvh4castIN6hermes2vm11BoxedDoubleENS2_6GCCellEEENS_10cast_rettyIT_PT0_E8ret_typeES8_ = comdat any

$_ZN4llvh16cast_convert_valIN6hermes2vm11BoxedDoubleEPNS2_6GCCellES5_E4doitERKS5_ = comdat any

$_ZN6hermes2vm11HermesValue24encodeTrustedNumberValueEd = comdat any

$_ZNK6hermes2vm8SymbolID12unsafeGetRawEv = comdat any

$_ZN6hermes2vm11HermesValueC2EmNS1_4ETagE = comdat any

$_ZStplIcSt11char_traitsIcESaIcEENSt7__cxx1112basic_stringIT_T0_T1_EEOS8_PKS5_ = comdat any

$_ZNSt7__cxx1112basic_stringIcSt11char_traitsIcESaIcEEC2IS3_EEmcRKS3_ = comdat any

$_ZN6hermes2vm6GCBase9IDTrackerD2Ev = comdat any

$_ZNSt5dequeIN6hermes2vm11WeakRefSlotESaIS2_EED2Ev = comdat any

$_ZNSt6vectorIN6hermes2vm16GCAnalyticsEventESaIS2_EED2Ev = comdat any

$_ZNSt8functionIFvRKN6hermes2vm16GCAnalyticsEventEEED2Ev = comdat any

$_ZNSt10shared_ptrIN6hermes2vm12CrashManagerEED2Ev = comdat any

$_ZN4llvh8DenseMapIdjN6hermes2vm6GCBase9IDTracker16DoubleComparatorENS_6detail12DenseMapPairIdjEEED2Ev = comdat any

$_ZN4llvh8DenseMapIjjNS_12DenseMapInfoIjEENS_6detail12DenseMapPairIjjEEED2Ev = comdat any

$_ZN4llvh8DenseMapIjNS_11SmallVectorIjLj1EEENS_12DenseMapInfoIjEENS_6detail12DenseMapPairIjS2_EEED2Ev = comdat any

$_ZN4llvh8DenseMapIPKvjNS_12DenseMapInfoIS2_EENS_6detail12DenseMapPairIS2_jEEED2Ev = comdat any

$_ZN4llvh12DenseMapBaseINS_8DenseMapIdjN6hermes2vm6GCBase9IDTracker16DoubleComparatorENS_6detail12DenseMapPairIdjEEEEdjS6_S9_E10destroyAllEv = comdat any

$_ZNK4llvh12DenseMapBaseINS_8DenseMapIdjN6hermes2vm6GCBase9IDTracker16DoubleComparatorENS_6detail12DenseMapPairIdjEEEEdjS6_S9_E13getNumBucketsEv = comdat any

$_ZN4llvh12DenseMapBaseINS_8DenseMapIdjN6hermes2vm6GCBase9IDTracker16DoubleComparatorENS_6detail12DenseMapPairIdjEEEEdjS6_S9_E11getEmptyKeyEv = comdat any

$_ZN4llvh12DenseMapBaseINS_8DenseMapIdjN6hermes2vm6GCBase9IDTracker16DoubleComparatorENS_6detail12DenseMapPairIdjEEEEdjS6_S9_E15getTombstoneKeyEv = comdat any

$_ZN4llvh12DenseMapBaseINS_8DenseMapIdjN6hermes2vm6GCBase9IDTracker16DoubleComparatorENS_6detail12DenseMapPairIdjEEEEdjS6_S9_E10getBucketsEv = comdat any

$_ZN4llvh12DenseMapBaseINS_8DenseMapIdjN6hermes2vm6GCBase9IDTracker16DoubleComparatorENS_6detail12DenseMapPairIdjEEEEdjS6_S9_E13getBucketsEndEv = comdat any

$_ZN6hermes2vm6GCBase9IDTracker16DoubleComparator7isEqualEdd = comdat any

$_ZN4llvh6detail12DenseMapPairIdjE8getFirstEv = comdat any

$_ZN4llvh6detail12DenseMapPairIdjE9getSecondEv = comdat any

$_ZNK4llvh8DenseMapIdjN6hermes2vm6GCBase9IDTracker16DoubleComparatorENS_6detail12DenseMapPairIdjEEE13getNumBucketsEv = comdat any

$_ZN6hermes2vm6GCBase9IDTracker16DoubleComparator11getEmptyKeyEv = comdat any

$_ZNK6hermes2vm11HermesValue6getRawEv = comdat any

$_ZN6hermes2vm6GCBase9IDTracker16DoubleComparator15getTombstoneKeyEv = comdat any

$_ZNK4llvh8DenseMapIdjN6hermes2vm6GCBase9IDTracker16DoubleComparatorENS_6detail12DenseMapPairIdjEEE10getBucketsEv = comdat any

$_ZN4llvh12DenseMapBaseINS_8DenseMapIjjNS_12DenseMapInfoIjEENS_6detail12DenseMapPairIjjEEEEjjS3_S6_E10destroyAllEv = comdat any

$_ZNK4llvh12DenseMapBaseINS_8DenseMapIjjNS_12DenseMapInfoIjEENS_6detail12DenseMapPairIjjEEEEjjS3_S6_E13getNumBucketsEv = comdat any

$_ZN4llvh12DenseMapBaseINS_8DenseMapIjjNS_12DenseMapInfoIjEENS_6detail12DenseMapPairIjjEEEEjjS3_S6_E11getEmptyKeyEv = comdat any

$_ZN4llvh12DenseMapBaseINS_8DenseMapIjjNS_12DenseMapInfoIjEENS_6detail12DenseMapPairIjjEEEEjjS3_S6_E15getTombstoneKeyEv = comdat any

$_ZN4llvh12DenseMapBaseINS_8DenseMapIjjNS_12DenseMapInfoIjEENS_6detail12DenseMapPairIjjEEEEjjS3_S6_E10getBucketsEv = comdat any

$_ZN4llvh12DenseMapBaseINS_8DenseMapIjjNS_12DenseMapInfoIjEENS_6detail12DenseMapPairIjjEEEEjjS3_S6_E13getBucketsEndEv = comdat any

$_ZN4llvh12DenseMapInfoIjE7isEqualERKjS3_ = comdat any

$_ZN4llvh6detail12DenseMapPairIjjE8getFirstEv = comdat any

$_ZN4llvh6detail12DenseMapPairIjjE9getSecondEv = comdat any

$_ZNK4llvh8DenseMapIjjNS_12DenseMapInfoIjEENS_6detail12DenseMapPairIjjEEE13getNumBucketsEv = comdat any

$_ZN4llvh12DenseMapInfoIjE11getEmptyKeyEv = comdat any

$_ZN4llvh12DenseMapInfoIjE15getTombstoneKeyEv = comdat any

$_ZNK4llvh8DenseMapIjjNS_12DenseMapInfoIjEENS_6detail12DenseMapPairIjjEEE10getBucketsEv = comdat any

$_ZN4llvh12DenseMapBaseINS_8DenseMapIjNS_11SmallVectorIjLj1EEENS_12DenseMapInfoIjEENS_6detail12DenseMapPairIjS3_EEEEjS3_S5_S8_E10destroyAllEv = comdat any

$_ZNK4llvh12DenseMapBaseINS_8DenseMapIjNS_11SmallVectorIjLj1EEENS_12DenseMapInfoIjEENS_6detail12DenseMapPairIjS3_EEEEjS3_S5_S8_E13getNumBucketsEv = comdat any

$_ZN4llvh12DenseMapBaseINS_8DenseMapIjNS_11SmallVectorIjLj1EEENS_12DenseMapInfoIjEENS_6detail12DenseMapPairIjS3_EEEEjS3_S5_S8_E11getEmptyKeyEv = comdat any

$_ZN4llvh12DenseMapBaseINS_8DenseMapIjNS_11SmallVectorIjLj1EEENS_12DenseMapInfoIjEENS_6detail12DenseMapPairIjS3_EEEEjS3_S5_S8_E15getTombstoneKeyEv = comdat any

$_ZN4llvh12DenseMapBaseINS_8DenseMapIjNS_11SmallVectorIjLj1EEENS_12DenseMapInfoIjEENS_6detail12DenseMapPairIjS3_EEEEjS3_S5_S8_E10getBucketsEv = comdat any

$_ZN4llvh12DenseMapBaseINS_8DenseMapIjNS_11SmallVectorIjLj1EEENS_12DenseMapInfoIjEENS_6detail12DenseMapPairIjS3_EEEEjS3_S5_S8_E13getBucketsEndEv = comdat any

$_ZN4llvh6detail12DenseMapPairIjNS_11SmallVectorIjLj1EEEE8getFirstEv = comdat any

$_ZN4llvh6detail12DenseMapPairIjNS_11SmallVectorIjLj1EEEE9getSecondEv = comdat any

$_ZN4llvh11SmallVectorIjLj1EED2Ev = comdat any

$_ZNK4llvh8DenseMapIjNS_11SmallVectorIjLj1EEENS_12DenseMapInfoIjEENS_6detail12DenseMapPairIjS2_EEE13getNumBucketsEv = comdat any

$_ZNK4llvh8DenseMapIjNS_11SmallVectorIjLj1EEENS_12DenseMapInfoIjEENS_6detail12DenseMapPairIjS2_EEE10getBucketsEv = comdat any

$_ZN4llvh23SmallVectorTemplateBaseIjLb1EE13destroy_rangeEPjS2_ = comdat any

$_ZN4llvh15SmallVectorImplIjED2Ev = comdat any

$_ZNK4llvh25SmallVectorTemplateCommonIjvE7isSmallEv = comdat any

$_ZNK4llvh25SmallVectorTemplateCommonIjvE10getFirstElEv = comdat any

$_ZN4llvh12DenseMapBaseINS_8DenseMapIPKvjNS_12DenseMapInfoIS3_EENS_6detail12DenseMapPairIS3_jEEEES3_jS5_S8_E10destroyAllEv = comdat any

$_ZNK4llvh12DenseMapBaseINS_8DenseMapIPKvjNS_12DenseMapInfoIS3_EENS_6detail12DenseMapPairIS3_jEEEES3_jS5_S8_E13getNumBucketsEv = comdat any

$_ZN4llvh12DenseMapBaseINS_8DenseMapIPKvjNS_12DenseMapInfoIS3_EENS_6detail12DenseMapPairIS3_jEEEES3_jS5_S8_E11getEmptyKeyEv = comdat any

$_ZN4llvh12DenseMapBaseINS_8DenseMapIPKvjNS_12DenseMapInfoIS3_EENS_6detail12DenseMapPairIS3_jEEEES3_jS5_S8_E15getTombstoneKeyEv = comdat any

$_ZN4llvh12DenseMapBaseINS_8DenseMapIPKvjNS_12DenseMapInfoIS3_EENS_6detail12DenseMapPairIS3_jEEEES3_jS5_S8_E10getBucketsEv = comdat any

$_ZN4llvh12DenseMapBaseINS_8DenseMapIPKvjNS_12DenseMapInfoIS3_EENS_6detail12DenseMapPairIS3_jEEEES3_jS5_S8_E13getBucketsEndEv = comdat any

$_ZN4llvh12DenseMapInfoIPKvE7isEqualES2_S2_ = comdat any

$_ZN4llvh6detail12DenseMapPairIPKvjE8getFirstEv = comdat any

$_ZN4llvh6detail12DenseMapPairIPKvjE9getSecondEv = comdat any

$_ZNK4llvh8DenseMapIPKvjNS_12DenseMapInfoIS2_EENS_6detail12DenseMapPairIS2_jEEE13getNumBucketsEv = comdat any

$_ZN4llvh12DenseMapInfoIPKvE11getEmptyKeyEv = comdat any

$_ZN4llvh12DenseMapInfoIPKvE15getTombstoneKeyEv = comdat any

$_ZNK4llvh8DenseMapIPKvjNS_12DenseMapInfoIS2_EENS_6detail12DenseMapPairIS2_jEEE10getBucketsEv = comdat any

$_ZNSt5dequeIN6hermes2vm11WeakRefSlotESaIS2_EE15_M_destroy_dataESt15_Deque_iteratorIS2_RS2_PS2_ES8_RKS3_ = comdat any

$_ZNSt5dequeIN6hermes2vm11WeakRefSlotESaIS2_EE5beginEv = comdat any

$_ZNSt5dequeIN6hermes2vm11WeakRefSlotESaIS2_EE3endEv = comdat any

$_ZNSt11_Deque_baseIN6hermes2vm11WeakRefSlotESaIS2_EE19_M_get_Tp_allocatorEv = comdat any

$_ZNSt11_Deque_baseIN6hermes2vm11WeakRefSlotESaIS2_EED2Ev = comdat any

$_ZNSt15_Deque_iteratorIN6hermes2vm11WeakRefSlotERS2_PS2_EC2ERKS5_ = comdat any

$_ZNSt11_Deque_baseIN6hermes2vm11WeakRefSlotESaIS2_EE16_M_destroy_nodesEPPS2_S6_ = comdat any

$_ZNSt11_Deque_baseIN6hermes2vm11WeakRefSlotESaIS2_EE17_M_deallocate_mapEPPS2_m = comdat any

$_ZNSt11_Deque_baseIN6hermes2vm11WeakRefSlotESaIS2_EE11_Deque_implD2Ev = comdat any

$_ZNSt11_Deque_baseIN6hermes2vm11WeakRefSlotESaIS2_EE18_M_deallocate_nodeEPS2_ = comdat any

$_ZNSt16allocator_traitsISaIN6hermes2vm11WeakRefSlotEEE10deallocateERS3_PS2_m = comdat any

$_ZNSt15__new_allocatorIN6hermes2vm11WeakRefSlotEE10deallocateEPS2_m = comdat any

$_ZNSt16allocator_traitsISaIPN6hermes2vm11WeakRefSlotEEE10deallocateERS4_PS3_m = comdat any

$_ZNSt15__new_allocatorIPN6hermes2vm11WeakRefSlotEE10deallocateEPS3_m = comdat any

$_ZNSaIN6hermes2vm11WeakRefSlotEED2Ev = comdat any

$_ZNSt15__new_allocatorIN6hermes2vm11WeakRefSlotEED2Ev = comdat any

$_ZSt8_DestroyIPN6hermes2vm16GCAnalyticsEventES2_EvT_S4_RSaIT0_E = comdat any

$_ZNSt12_Vector_baseIN6hermes2vm16GCAnalyticsEventESaIS2_EE19_M_get_Tp_allocatorEv = comdat any

$_ZNSt12_Vector_baseIN6hermes2vm16GCAnalyticsEventESaIS2_EED2Ev = comdat any

$_ZSt8_DestroyIPN6hermes2vm16GCAnalyticsEventEEvT_S4_ = comdat any

$_ZNSt12_Destroy_auxILb0EE9__destroyIPN6hermes2vm16GCAnalyticsEventEEEvT_S6_ = comdat any

$_ZSt8_DestroyIN6hermes2vm16GCAnalyticsEventEEvPT_ = comdat any

$_ZN6hermes2vm16GCAnalyticsEventD2Ev = comdat any

$_ZNSt6vectorINSt7__cxx1112basic_stringIcSt11char_traitsIcESaIcEEESaIS5_EED2Ev = comdat any

$_ZSt8_DestroyIPNSt7__cxx1112basic_stringIcSt11char_traitsIcESaIcEEES5_EvT_S7_RSaIT0_E = comdat any

$_ZNSt12_Vector_baseINSt7__cxx1112basic_stringIcSt11char_traitsIcESaIcEEESaIS5_EE19_M_get_Tp_allocatorEv = comdat any

$_ZNSt12_Vector_baseINSt7__cxx1112basic_stringIcSt11char_traitsIcESaIcEEESaIS5_EED2Ev = comdat any

$_ZSt8_DestroyIPNSt7__cxx1112basic_stringIcSt11char_traitsIcESaIcEEEEvT_S7_ = comdat any

$_ZNSt12_Destroy_auxILb0EE9__destroyIPNSt7__cxx1112basic_stringIcSt11char_traitsIcESaIcEEEEEvT_S9_ = comdat any

$_ZSt8_DestroyINSt7__cxx1112basic_stringIcSt11char_traitsIcESaIcEEEEvPT_ = comdat any

$_ZNSt12_Vector_baseINSt7__cxx1112basic_stringIcSt11char_traitsIcESaIcEEESaIS5_EE13_M_deallocateEPS5_m = comdat any

$_ZNSt12_Vector_baseINSt7__cxx1112basic_stringIcSt11char_traitsIcESaIcEEESaIS5_EE12_Vector_implD2Ev = comdat any

$_ZNSt16allocator_traitsISaINSt7__cxx1112basic_stringIcSt11char_traitsIcESaIcEEEEE10deallocateERS6_PS5_m = comdat any

$_ZNSt15__new_allocatorINSt7__cxx1112basic_stringIcSt11char_traitsIcESaIcEEEE10deallocateEPS5_m = comdat any

$_ZNSt15__new_allocatorINSt7__cxx1112basic_stringIcSt11char_traitsIcESaIcEEEED2Ev = comdat any

$_ZNSt12_Vector_baseIN6hermes2vm16GCAnalyticsEventESaIS2_EE13_M_deallocateEPS2_m = comdat any

$_ZNSt12_Vector_baseIN6hermes2vm16GCAnalyticsEventESaIS2_EE12_Vector_implD2Ev = comdat any

$_ZNSt16allocator_traitsISaIN6hermes2vm16GCAnalyticsEventEEE10deallocateERS3_PS2_m = comdat any

$_ZNSt15__new_allocatorIN6hermes2vm16GCAnalyticsEventEE10deallocateEPS2_m = comdat any

$_ZNSaIN6hermes2vm16GCAnalyticsEventEED2Ev = comdat any

$_ZNSt15__new_allocatorIN6hermes2vm16GCAnalyticsEventEED2Ev = comdat any

$_ZNSt12__shared_ptrIN6hermes2vm12CrashManagerELN9__gnu_cxx12_Lock_policyE2EED2Ev = comdat any

$_ZNSt14__shared_countILN9__gnu_cxx12_Lock_policyE2EED2Ev = comdat any

$_ZNSt16_Sp_counted_baseILN9__gnu_cxx12_Lock_policyE2EE10_M_releaseEv = comdat any

$_ZNSt16_Sp_counted_baseILN9__gnu_cxx12_Lock_policyE2EE24_M_release_last_use_coldEv = comdat any

$_ZNSt16_Sp_counted_baseILN9__gnu_cxx12_Lock_policyE2EE19_M_release_last_useEv = comdat any

$_ZNK6hermes16StatsAccumulatorIjmE3maxEv = comdat any

$_ZN6hermes2vm16WeakRootAcceptorD2Ev = comdat any

$_ZN6hermes2vm15WeakRefAcceptorD2Ev = comdat any

$_ZNSt15recursive_mutex6unlockEv = comdat any

$_ZNSt15recursive_mutex4lockEv = comdat any

$_ZNKSt14_Function_base8_M_emptyEv = comdat any

$_ZStmiRKSt15_Deque_iteratorIN6hermes2vm11WeakRefSlotERS2_PS2_ES7_ = comdat any

$_ZN6hermes11JSONEmitter9emitValueEPKc = comdat any

$_ZN9__gnu_cxx17__normal_iteratorIPN6hermes2vm16GCAnalyticsEventESt6vectorIS3_SaIS3_EEEC2ERKS4_ = comdat any

$_ZNK9__gnu_cxx17__normal_iteratorIPN6hermes2vm16GCAnalyticsEventESt6vectorIS3_SaIS3_EEE4baseEv = comdat any

$_ZN9__gnu_cxx17__normal_iteratorIPKNSt7__cxx1112basic_stringIcSt11char_traitsIcESaIcEEESt6vectorIS6_SaIS6_EEEC2ERKS8_ = comdat any

$_ZNK9__gnu_cxx17__normal_iteratorIPKNSt7__cxx1112basic_stringIcSt11char_traitsIcESaIcEEESt6vectorIS6_SaIS6_EEE4baseEv = comdat any

$_ZSt3minIdERKT_S2_S2_ = comdat any

$_ZSt3maxIdERKT_S2_S2_ = comdat any

$_ZSt3minIjERKT_S2_S2_ = comdat any

$_ZSt3maxIjERKT_S2_S2_ = comdat any

$_ZNSt16allocator_traitsISaIN6hermes2vm16GCAnalyticsEventEEE9constructIS2_JRKS2_EEEvRS3_PT_DpOT0_ = comdat any

$_ZNSt6vectorIN6hermes2vm16GCAnalyticsEventESaIS2_EE17_M_realloc_insertIJRKS2_EEEvN9__gnu_cxx17__normal_iteratorIPS2_S4_EEDpOT_ = comdat any

$_ZNSt15__new_allocatorIN6hermes2vm16GCAnalyticsEventEE9constructIS2_JRKS2_EEEvPT_DpOT0_ = comdat any

$_ZN6hermes2vm16GCAnalyticsEventC2ERKS1_ = comdat any

$_ZNSt6vectorINSt7__cxx1112basic_stringIcSt11char_traitsIcESaIcEEESaIS5_EEC2ERKS7_ = comdat any

$_ZNKSt6vectorINSt7__cxx1112basic_stringIcSt11char_traitsIcESaIcEEESaIS5_EE4sizeEv = comdat any

$_ZN9__gnu_cxx14__alloc_traitsISaINSt7__cxx1112basic_stringIcSt11char_traitsIcESaIcEEEES6_E17_S_select_on_copyERKS7_ = comdat any

$_ZNKSt12_Vector_baseINSt7__cxx1112basic_stringIcSt11char_traitsIcESaIcEEESaIS5_EE19_M_get_Tp_allocatorEv = comdat any

$_ZNSt12_Vector_baseINSt7__cxx1112basic_stringIcSt11char_traitsIcESaIcEEESaIS5_EEC2EmRKS6_ = comdat any

$_ZNSaINSt7__cxx1112basic_stringIcSt11char_traitsIcESaIcEEEED2Ev = comdat any

$_ZSt22__uninitialized_copy_aIN9__gnu_cxx17__normal_iteratorIPKNSt7__cxx1112basic_stringIcSt11char_traitsIcESaIcEEESt6vectorIS7_SaIS7_EEEEPS7_S7_ET0_T_SG_SF_RSaIT1_E = comdat any

$_ZNSt16allocator_traitsISaINSt7__cxx1112basic_stringIcSt11char_traitsIcESaIcEEEEE37select_on_container_copy_constructionERKS6_ = comdat any

$_ZNSaINSt7__cxx1112basic_stringIcSt11char_traitsIcESaIcEEEEC2ERKS5_ = comdat any

$_ZNSt15__new_allocatorINSt7__cxx1112basic_stringIcSt11char_traitsIcESaIcEEEEC2ERKS6_ = comdat any

$_ZNSt12_Vector_baseINSt7__cxx1112basic_stringIcSt11char_traitsIcESaIcEEESaIS5_EE12_Vector_implC2ERKS6_ = comdat any

$_ZNSt12_Vector_baseINSt7__cxx1112basic_stringIcSt11char_traitsIcESaIcEEESaIS5_EE17_M_create_storageEm = comdat any

$_ZNSt12_Vector_baseINSt7__cxx1112basic_stringIcSt11char_traitsIcESaIcEEESaIS5_EE17_Vector_impl_dataC2Ev = comdat any

$_ZNSt12_Vector_baseINSt7__cxx1112basic_stringIcSt11char_traitsIcESaIcEEESaIS5_EE11_M_allocateEm = comdat any

$_ZNSt16allocator_traitsISaINSt7__cxx1112basic_stringIcSt11char_traitsIcESaIcEEEEE8allocateERS6_m = comdat any

$_ZNSt15__new_allocatorINSt7__cxx1112basic_stringIcSt11char_traitsIcESaIcEEEE8allocateEmPKv = comdat any

$_ZNKSt15__new_allocatorINSt7__cxx1112basic_stringIcSt11char_traitsIcESaIcEEEE11_M_max_sizeEv = comdat any

$_ZSt18uninitialized_copyIN9__gnu_cxx17__normal_iteratorIPKNSt7__cxx1112basic_stringIcSt11char_traitsIcESaIcEEESt6vectorIS7_SaIS7_EEEEPS7_ET0_T_SG_SF_ = comdat any

$_ZNSt20__uninitialized_copyILb0EE13__uninit_copyIN9__gnu_cxx17__normal_iteratorIPKNSt7__cxx1112basic_stringIcSt11char_traitsIcESaIcEEESt6vectorIS9_SaIS9_EEEEPS9_EET0_T_SI_SH_ = comdat any

$_ZSt16__do_uninit_copyIN9__gnu_cxx17__normal_iteratorIPKNSt7__cxx1112basic_stringIcSt11char_traitsIcESaIcEEESt6vectorIS7_SaIS7_EEEEPS7_ET0_T_SG_SF_ = comdat any

$_ZSt10_ConstructINSt7__cxx1112basic_stringIcSt11char_traitsIcESaIcEEEJRKS5_EEvPT_DpOT0_ = comdat any

$_ZNKSt6vectorIN6hermes2vm16GCAnalyticsEventESaIS2_EE12_M_check_lenEmPKc = comdat any

$_ZN9__gnu_cxxmiIPN6hermes2vm16GCAnalyticsEventESt6vectorIS3_SaIS3_EEEENS_17__normal_iteratorIT_T0_E15difference_typeERKSB_SE_ = comdat any

$_ZNSt12_Vector_baseIN6hermes2vm16GCAnalyticsEventESaIS2_EE11_M_allocateEm = comdat any

$_ZNSt6vectorIN6hermes2vm16GCAnalyticsEventESaIS2_EE11_S_relocateEPS2_S5_S5_RS3_ = comdat any

$_ZNKSt6vectorIN6hermes2vm16GCAnalyticsEventESaIS2_EE8max_sizeEv = comdat any

$_ZNKSt6vectorIN6hermes2vm16GCAnalyticsEventESaIS2_EE4sizeEv = comdat any

$_ZNSt6vectorIN6hermes2vm16GCAnalyticsEventESaIS2_EE11_S_max_sizeERKS3_ = comdat any

$_ZNKSt12_Vector_baseIN6hermes2vm16GCAnalyticsEventESaIS2_EE19_M_get_Tp_allocatorEv = comdat any

$_ZNSt16allocator_traitsISaIN6hermes2vm16GCAnalyticsEventEEE8max_sizeERKS3_ = comdat any

$_ZSt3minImERKT_S2_S2_ = comdat any

$_ZNKSt15__new_allocatorIN6hermes2vm16GCAnalyticsEventEE8max_sizeEv = comdat any

$_ZNKSt15__new_allocatorIN6hermes2vm16GCAnalyticsEventEE11_M_max_sizeEv = comdat any

$_ZNSt16allocator_traitsISaIN6hermes2vm16GCAnalyticsEventEEE8allocateERS3_m = comdat any

$_ZNSt15__new_allocatorIN6hermes2vm16GCAnalyticsEventEE8allocateEmPKv = comdat any

$_ZSt12__relocate_aIPN6hermes2vm16GCAnalyticsEventES3_SaIS2_EET0_T_S6_S5_RT1_ = comdat any

$_ZSt14__relocate_a_1IPN6hermes2vm16GCAnalyticsEventES3_SaIS2_EET0_T_S6_S5_RT1_ = comdat any

$_ZSt12__niter_baseIPN6hermes2vm16GCAnalyticsEventEET_S4_ = comdat any

$_ZSt19__relocate_object_aIN6hermes2vm16GCAnalyticsEventES2_SaIS2_EEvPT_PT0_RT1_ = comdat any

$_ZNSt16allocator_traitsISaIN6hermes2vm16GCAnalyticsEventEEE9constructIS2_JS2_EEEvRS3_PT_DpOT0_ = comdat any

$_ZNSt16allocator_traitsISaIN6hermes2vm16GCAnalyticsEventEEE7destroyIS2_EEvRS3_PT_ = comdat any

$_ZNSt15__new_allocatorIN6hermes2vm16GCAnalyticsEventEE9constructIS2_JS2_EEEvPT_DpOT0_ = comdat any

$_ZN6hermes2vm16GCAnalyticsEventC2EOS1_ = comdat any

$_ZNSt6vectorINSt7__cxx1112basic_stringIcSt11char_traitsIcESaIcEEESaIS5_EEC2EOS7_ = comdat any

$_ZNSt12_Vector_baseINSt7__cxx1112basic_stringIcSt11char_traitsIcESaIcEEESaIS5_EEC2EOS7_ = comdat any

$_ZNSt12_Vector_baseINSt7__cxx1112basic_stringIcSt11char_traitsIcESaIcEEESaIS5_EE12_Vector_implC2EOS8_ = comdat any

$_ZNSt12_Vector_baseINSt7__cxx1112basic_stringIcSt11char_traitsIcESaIcEEESaIS5_EE17_Vector_impl_dataC2EOS8_ = comdat any

$_ZNSt15__new_allocatorIN6hermes2vm16GCAnalyticsEventEE7destroyIS2_EEvPT_ = comdat any

$_ZNKSt19__shared_ptr_accessIN6hermes2vm12CrashManagerELN9__gnu_cxx12_Lock_policyE2ELb0ELb0EE6_M_getEv = comdat any

$_ZNKSt12__shared_ptrIN6hermes2vm12CrashManagerELN9__gnu_cxx12_Lock_policyE2EE3getEv = comdat any

$_ZNK4llvh8ArrayRefIcE4dataEv = comdat any

$_ZSt8_DestroyIPPN6hermes2vm6detail10WeakRefKeyES4_EvT_S6_RSaIT0_E = comdat any

$_ZNSt12_Vector_baseIPN6hermes2vm6detail10WeakRefKeyESaIS4_EE19_M_get_Tp_allocatorEv = comdat any

$_ZNSt12_Vector_baseIPN6hermes2vm6detail10WeakRefKeyESaIS4_EED2Ev = comdat any

$_ZSt8_DestroyIPPN6hermes2vm6detail10WeakRefKeyEEvT_S6_ = comdat any

$_ZNSt12_Destroy_auxILb1EE9__destroyIPPN6hermes2vm6detail10WeakRefKeyEEEvT_S8_ = comdat any

$_ZNSt12_Vector_baseIPN6hermes2vm6detail10WeakRefKeyESaIS4_EE13_M_deallocateEPS4_m = comdat any

$_ZNSt12_Vector_baseIPN6hermes2vm6detail10WeakRefKeyESaIS4_EE12_Vector_implD2Ev = comdat any

$_ZNSt16allocator_traitsISaIPN6hermes2vm6detail10WeakRefKeyEEE10deallocateERS5_PS4_m = comdat any

$_ZNSt15__new_allocatorIPN6hermes2vm6detail10WeakRefKeyEE10deallocateEPS4_m = comdat any

$_ZNSaIPN6hermes2vm6detail10WeakRefKeyEED2Ev = comdat any

$_ZNSt15__new_allocatorIPN6hermes2vm6detail10WeakRefKeyEED2Ev = comdat any

$_ZNSt6vectorIPN6hermes2vm6detail10WeakRefKeyESaIS4_EE12emplace_backIJS4_EEERS4_DpOT_ = comdat any

$_ZNSt16allocator_traitsISaIPN6hermes2vm6detail10WeakRefKeyEEE9constructIS4_JS4_EEEvRS5_PT_DpOT0_ = comdat any

$_ZNSt6vectorIPN6hermes2vm6detail10WeakRefKeyESaIS4_EE17_M_realloc_insertIJS4_EEEvN9__gnu_cxx17__normal_iteratorIPS4_S6_EEDpOT_ = comdat any

$_ZNSt6vectorIPN6hermes2vm6detail10WeakRefKeyESaIS4_EE3endEv = comdat any

$_ZNSt6vectorIPN6hermes2vm6detail10WeakRefKeyESaIS4_EE4backEv = comdat any

$_ZNSt15__new_allocatorIPN6hermes2vm6detail10WeakRefKeyEE9constructIS4_JS4_EEEvPT_DpOT0_ = comdat any

$_ZNKSt6vectorIPN6hermes2vm6detail10WeakRefKeyESaIS4_EE12_M_check_lenEmPKc = comdat any

$_ZN9__gnu_cxxmiIPPN6hermes2vm6detail10WeakRefKeyESt6vectorIS5_SaIS5_EEEENS_17__normal_iteratorIT_T0_E15difference_typeERKSD_SG_ = comdat any

$_ZNSt6vectorIPN6hermes2vm6detail10WeakRefKeyESaIS4_EE5beginEv = comdat any

$_ZNSt12_Vector_baseIPN6hermes2vm6detail10WeakRefKeyESaIS4_EE11_M_allocateEm = comdat any

$_ZNSt6vectorIPN6hermes2vm6detail10WeakRefKeyESaIS4_EE11_S_relocateEPS4_S7_S7_RS5_ = comdat any

$_ZNK9__gnu_cxx17__normal_iteratorIPPN6hermes2vm6detail10WeakRefKeyESt6vectorIS5_SaIS5_EEE4baseEv = comdat any

$_ZNKSt6vectorIPN6hermes2vm6detail10WeakRefKeyESaIS4_EE8max_sizeEv = comdat any

$_ZNKSt6vectorIPN6hermes2vm6detail10WeakRefKeyESaIS4_EE4sizeEv = comdat any

$_ZNSt6vectorIPN6hermes2vm6detail10WeakRefKeyESaIS4_EE11_S_max_sizeERKS5_ = comdat any

$_ZNKSt12_Vector_baseIPN6hermes2vm6detail10WeakRefKeyESaIS4_EE19_M_get_Tp_allocatorEv = comdat any

$_ZNSt16allocator_traitsISaIPN6hermes2vm6detail10WeakRefKeyEEE8max_sizeERKS5_ = comdat any

$_ZNKSt15__new_allocatorIPN6hermes2vm6detail10WeakRefKeyEE8max_sizeEv = comdat any

$_ZNKSt15__new_allocatorIPN6hermes2vm6detail10WeakRefKeyEE11_M_max_sizeEv = comdat any

$_ZN9__gnu_cxx17__normal_iteratorIPPN6hermes2vm6detail10WeakRefKeyESt6vectorIS5_SaIS5_EEEC2ERKS6_ = comdat any

$_ZNSt16allocator_traitsISaIPN6hermes2vm6detail10WeakRefKeyEEE8allocateERS5_m = comdat any

$_ZNSt15__new_allocatorIPN6hermes2vm6detail10WeakRefKeyEE8allocateEmPKv = comdat any

$_ZSt12__relocate_aIPPN6hermes2vm6detail10WeakRefKeyES5_SaIS4_EET0_T_S8_S7_RT1_ = comdat any

$_ZSt14__relocate_a_1IPN6hermes2vm6detail10WeakRefKeyES4_ENSt9enable_ifIXsr3std24__is_bitwise_relocatableIT_EE5valueEPS6_E4typeES7_S7_S7_RSaIT0_E = comdat any

$_ZSt12__niter_baseIPPN6hermes2vm6detail10WeakRefKeyEET_S6_ = comdat any

$_ZNK9__gnu_cxx17__normal_iteratorIPPN6hermes2vm6detail10WeakRefKeyESt6vectorIS5_SaIS5_EEEmiEl = comdat any

$_ZNK9__gnu_cxx17__normal_iteratorIPPN6hermes2vm6detail10WeakRefKeyESt6vectorIS5_SaIS5_EEEdeEv = comdat any

$_ZNSt5dequeIN6hermes2vm11WeakRefSlotESaIS2_EE12emplace_backIJS2_EEERS2_DpOT_ = comdat any

$_ZNSt16allocator_traitsISaIN6hermes2vm11WeakRefSlotEEE9constructIS2_JS2_EEEvRS3_PT_DpOT0_ = comdat any

$_ZNSt5dequeIN6hermes2vm11WeakRefSlotESaIS2_EE16_M_push_back_auxIJS2_EEEvDpOT_ = comdat any

$_ZNSt15__new_allocatorIN6hermes2vm11WeakRefSlotEE9constructIS2_JS2_EEEvPT_DpOT0_ = comdat any

$_ZNKSt5dequeIN6hermes2vm11WeakRefSlotESaIS2_EE8max_sizeEv = comdat any

$_ZNSt5dequeIN6hermes2vm11WeakRefSlotESaIS2_EE22_M_reserve_map_at_backEm = comdat any

$_ZNSt5dequeIN6hermes2vm11WeakRefSlotESaIS2_EE11_S_max_sizeERKS3_ = comdat any

$_ZNSt16allocator_traitsISaIN6hermes2vm11WeakRefSlotEEE8max_sizeERKS3_ = comdat any

$_ZNKSt15__new_allocatorIN6hermes2vm11WeakRefSlotEE8max_sizeEv = comdat any

$_ZNSt5dequeIN6hermes2vm11WeakRefSlotESaIS2_EE17_M_reallocate_mapEmb = comdat any

$_ZSt4copyIPPN6hermes2vm11WeakRefSlotES4_ET0_T_S6_S5_ = comdat any

$_ZSt13copy_backwardIPPN6hermes2vm11WeakRefSlotES4_ET0_T_S6_S5_ = comdat any

$_ZSt13__copy_move_aILb0EPPN6hermes2vm11WeakRefSlotES4_ET1_T0_S6_S5_ = comdat any

$_ZSt12__miter_baseIPPN6hermes2vm11WeakRefSlotEET_S5_ = comdat any

$_ZSt12__niter_wrapIPPN6hermes2vm11WeakRefSlotEET_RKS5_S5_ = comdat any

$_ZSt14__copy_move_a1ILb0EPPN6hermes2vm11WeakRefSlotES4_ET1_T0_S6_S5_ = comdat any

$_ZSt12__niter_baseIPPN6hermes2vm11WeakRefSlotEET_S5_ = comdat any

$_ZSt14__copy_move_a2ILb0EPPN6hermes2vm11WeakRefSlotES4_ET1_T0_S6_S5_ = comdat any

$_ZNSt11__copy_moveILb0ELb1ESt26random_access_iterator_tagE8__copy_mIPN6hermes2vm11WeakRefSlotEEEPT_PKS7_SA_S8_ = comdat any

$_ZSt22__copy_move_backward_aILb0EPPN6hermes2vm11WeakRefSlotES4_ET1_T0_S6_S5_ = comdat any

$_ZSt23__copy_move_backward_a1ILb0EPPN6hermes2vm11WeakRefSlotES4_ET1_T0_S6_S5_ = comdat any

$_ZSt23__copy_move_backward_a2ILb0EPPN6hermes2vm11WeakRefSlotES4_ET1_T0_S6_S5_ = comdat any

$_ZNSt20__copy_move_backwardILb0ELb1ESt26random_access_iterator_tagE13__copy_move_bIPN6hermes2vm11WeakRefSlotEEEPT_PKS7_SA_S8_ = comdat any

$_ZNSt15_Deque_iteratorIN6hermes2vm11WeakRefSlotERS2_PS2_EmmEv = comdat any

$_ZNKSt15_Deque_iteratorIN6hermes2vm11WeakRefSlotERS2_PS2_EdeEv = comdat any

$_ZN4llvh13format_objectIJdEEC2EPKcRKd = comdat any

$_ZN4llvh18format_object_baseC2EPKc = comdat any

$_ZNSt5tupleIJdEEC2ILb1ETnNSt9enable_ifIXclsr4_TCCIXT_EEE29__is_implicitly_constructibleIRKdEEEbE4typeELb1EEES4_ = comdat any

$_ZN4llvh26validate_format_parametersIJdEEC2Ev = comdat any

$_ZNK4llvh13format_objectIJdEE7snprintEPcj = comdat any

$_ZNSt11_Tuple_implILm0EJdEEC2ERKd = comdat any

$_ZNSt10_Head_baseILm0EdLb0EEC2ERKd = comdat any

$_ZNK4llvh13format_objectIJdEE13snprint_tupleIJLm0EEEEiPcjNS_14index_sequenceIJXspT_EEEE = comdat any

$_ZSt3getILm0EJdEERKNSt13tuple_elementIXT_ESt5tupleIJDpT0_EEE4typeERKS4_ = comdat any

$_ZSt12__get_helperILm0EdJEERKT0_RKSt11_Tuple_implIXT_EJS0_DpT1_EE = comdat any

$_ZNSt11_Tuple_implILm0EJdEE7_M_headERKS0_ = comdat any

$_ZNSt10_Head_baseILm0EdLb0EE7_M_headERKS0_ = comdat any

$_ZN4llvh8DenseMapIjjNS_12DenseMapInfoIjEENS_6detail12DenseMapPairIjjEEE4initEj = comdat any

$_ZN4llvh12DenseMapBaseINS_8DenseMapIjjNS_12DenseMapInfoIjEENS_6detail12DenseMapPairIjjEEEEjjS3_S6_E31getMinBucketToReserveForEntriesEj = comdat any

$_ZN4llvh8DenseMapIjjNS_12DenseMapInfoIjEENS_6detail12DenseMapPairIjjEEE15allocateBucketsEj = comdat any

$_ZN4llvh12DenseMapBaseINS_8DenseMapIjjNS_12DenseMapInfoIjEENS_6detail12DenseMapPairIjjEEEEjjS3_S6_E9initEmptyEv = comdat any

$_ZN4llvh12NextPowerOf2Em = comdat any

$_ZN4llvh12DenseMapBaseINS_8DenseMapIjjNS_12DenseMapInfoIjEENS_6detail12DenseMapPairIjjEEEEjjS3_S6_E13setNumEntriesEj = comdat any

$_ZN4llvh12DenseMapBaseINS_8DenseMapIjjNS_12DenseMapInfoIjEENS_6detail12DenseMapPairIjjEEEEjjS3_S6_E16setNumTombstonesEj = comdat any

$_ZN4llvh8DenseMapIjjNS_12DenseMapInfoIjEENS_6detail12DenseMapPairIjjEEE13setNumEntriesEj = comdat any

$_ZN4llvh8DenseMapIjjNS_12DenseMapInfoIjEENS_6detail12DenseMapPairIjjEEE16setNumTombstonesEj = comdat any

$_ZN4llvh8DenseMapIPKvjNS_12DenseMapInfoIS2_EENS_6detail12DenseMapPairIS2_jEEE4initEj = comdat any

$_ZN4llvh12DenseMapBaseINS_8DenseMapIPKvjNS_12DenseMapInfoIS3_EENS_6detail12DenseMapPairIS3_jEEEES3_jS5_S8_E31getMinBucketToReserveForEntriesEj = comdat any

$_ZN4llvh8DenseMapIPKvjNS_12DenseMapInfoIS2_EENS_6detail12DenseMapPairIS2_jEEE15allocateBucketsEj = comdat any

$_ZN4llvh12DenseMapBaseINS_8DenseMapIPKvjNS_12DenseMapInfoIS3_EENS_6detail12DenseMapPairIS3_jEEEES3_jS5_S8_E9initEmptyEv = comdat any

$_ZN4llvh12DenseMapBaseINS_8DenseMapIPKvjNS_12DenseMapInfoIS3_EENS_6detail12DenseMapPairIS3_jEEEES3_jS5_S8_E13setNumEntriesEj = comdat any

$_ZN4llvh12DenseMapBaseINS_8DenseMapIPKvjNS_12DenseMapInfoIS3_EENS_6detail12DenseMapPairIS3_jEEEES3_jS5_S8_E16setNumTombstonesEj = comdat any

$_ZN4llvh8DenseMapIPKvjNS_12DenseMapInfoIS2_EENS_6detail12DenseMapPairIS2_jEEE13setNumEntriesEj = comdat any

$_ZN4llvh8DenseMapIPKvjNS_12DenseMapInfoIS2_EENS_6detail12DenseMapPairIS2_jEEE16setNumTombstonesEj = comdat any

$_ZN4llvh8DenseMapIjNS_11SmallVectorIjLj1EEENS_12DenseMapInfoIjEENS_6detail12DenseMapPairIjS2_EEE4initEj = comdat any

$_ZN4llvh12DenseMapBaseINS_8DenseMapIjNS_11SmallVectorIjLj1EEENS_12DenseMapInfoIjEENS_6detail12DenseMapPairIjS3_EEEEjS3_S5_S8_E31getMinBucketToReserveForEntriesEj = comdat any

$_ZN4llvh8DenseMapIjNS_11SmallVectorIjLj1EEENS_12DenseMapInfoIjEENS_6detail12DenseMapPairIjS2_EEE15allocateBucketsEj = comdat any

$_ZN4llvh12DenseMapBaseINS_8DenseMapIjNS_11SmallVectorIjLj1EEENS_12DenseMapInfoIjEENS_6detail12DenseMapPairIjS3_EEEEjS3_S5_S8_E9initEmptyEv = comdat any

$_ZN4llvh12DenseMapBaseINS_8DenseMapIjNS_11SmallVectorIjLj1EEENS_12DenseMapInfoIjEENS_6detail12DenseMapPairIjS3_EEEEjS3_S5_S8_E13setNumEntriesEj = comdat any

$_ZN4llvh12DenseMapBaseINS_8DenseMapIjNS_11SmallVectorIjLj1EEENS_12DenseMapInfoIjEENS_6detail12DenseMapPairIjS3_EEEEjS3_S5_S8_E16setNumTombstonesEj = comdat any

$_ZN4llvh8DenseMapIjNS_11SmallVectorIjLj1EEENS_12DenseMapInfoIjEENS_6detail12DenseMapPairIjS2_EEE13setNumEntriesEj = comdat any

$_ZN4llvh8DenseMapIjNS_11SmallVectorIjLj1EEENS_12DenseMapInfoIjEENS_6detail12DenseMapPairIjS2_EEE16setNumTombstonesEj = comdat any

$_ZN4llvh8DenseMapIdjN6hermes2vm6GCBase9IDTracker16DoubleComparatorENS_6detail12DenseMapPairIdjEEE4initEj = comdat any

$_ZN4llvh12DenseMapBaseINS_8DenseMapIdjN6hermes2vm6GCBase9IDTracker16DoubleComparatorENS_6detail12DenseMapPairIdjEEEEdjS6_S9_E31getMinBucketToReserveForEntriesEj = comdat any

$_ZN4llvh8DenseMapIdjN6hermes2vm6GCBase9IDTracker16DoubleComparatorENS_6detail12DenseMapPairIdjEEE15allocateBucketsEj = comdat any

$_ZN4llvh12DenseMapBaseINS_8DenseMapIdjN6hermes2vm6GCBase9IDTracker16DoubleComparatorENS_6detail12DenseMapPairIdjEEEEdjS6_S9_E9initEmptyEv = comdat any

$_ZN4llvh12DenseMapBaseINS_8DenseMapIdjN6hermes2vm6GCBase9IDTracker16DoubleComparatorENS_6detail12DenseMapPairIdjEEEEdjS6_S9_E13setNumEntriesEj = comdat any

$_ZN4llvh12DenseMapBaseINS_8DenseMapIdjN6hermes2vm6GCBase9IDTracker16DoubleComparatorENS_6detail12DenseMapPairIdjEEEEdjS6_S9_E16setNumTombstonesEj = comdat any

$_ZN4llvh8DenseMapIdjN6hermes2vm6GCBase9IDTracker16DoubleComparatorENS_6detail12DenseMapPairIdjEEE13setNumEntriesEj = comdat any

$_ZN4llvh8DenseMapIdjN6hermes2vm6GCBase9IDTracker16DoubleComparatorENS_6detail12DenseMapPairIdjEEE16setNumTombstonesEj = comdat any

$_ZN4llvh12DenseMapBaseINS_8DenseMapIjjNS_12DenseMapInfoIjEENS_6detail12DenseMapPairIjjEEEEjjS3_S6_E15LookupBucketForIjEEbRKT_RPS6_ = comdat any

$_ZN4llvh12DenseMapBaseINS_8DenseMapIjjNS_12DenseMapInfoIjEENS_6detail12DenseMapPairIjjEEEEjjS3_S6_E12makeIteratorEPS6_S9_RNS_14DebugEpochBaseEb = comdat any

$_ZNK4llvh12DenseMapBaseINS_8DenseMapIjjNS_12DenseMapInfoIjEENS_6detail12DenseMapPairIjjEEEEjjS3_S6_E15LookupBucketForIjEEbRKT_RPKS6_ = comdat any

$_ZNK4llvh12DenseMapBaseINS_8DenseMapIjjNS_12DenseMapInfoIjEENS_6detail12DenseMapPairIjjEEEEjjS3_S6_E10getBucketsEv = comdat any

$_ZN4llvh12DenseMapBaseINS_8DenseMapIjjNS_12DenseMapInfoIjEENS_6detail12DenseMapPairIjjEEEEjjS3_S6_E12getHashValueERKj = comdat any

$_ZNK4llvh6detail12DenseMapPairIjjE8getFirstEv = comdat any

$_ZN4llvh12DenseMapInfoIjE12getHashValueERKj = comdat any

$_ZN4llvh20shouldReverseIterateIjEEbv = comdat any

$_ZN4llvh16DenseMapIteratorIjjNS_12DenseMapInfoIjEENS_6detail12DenseMapPairIjjEELb0EEC2EPS5_S7_RKNS_14DebugEpochBaseEb = comdat any

$_ZN4llvh14DebugEpochBase10HandleBaseC2EPKS0_ = comdat any

$_ZN4llvh16DenseMapIteratorIjjNS_12DenseMapInfoIjEENS_6detail12DenseMapPairIjjEELb0EE23RetreatPastEmptyBucketsEv = comdat any

$_ZN4llvh16DenseMapIteratorIjjNS_12DenseMapInfoIjEENS_6detail12DenseMapPairIjjEELb0EE23AdvancePastEmptyBucketsEv = comdat any

$_ZN4llvh12DenseMapBaseINS_8DenseMapIjjNS_12DenseMapInfoIjEENS_6detail12DenseMapPairIjjEEEEjjS3_S6_E19decrementNumEntriesEv = comdat any

$_ZN4llvh12DenseMapBaseINS_8DenseMapIjjNS_12DenseMapInfoIjEENS_6detail12DenseMapPairIjjEEEEjjS3_S6_E22incrementNumTombstonesEv = comdat any

$_ZNK4llvh12DenseMapBaseINS_8DenseMapIjjNS_12DenseMapInfoIjEENS_6detail12DenseMapPairIjjEEEEjjS3_S6_E13getNumEntriesEv = comdat any

$_ZNK4llvh8DenseMapIjjNS_12DenseMapInfoIjEENS_6detail12DenseMapPairIjjEEE13getNumEntriesEv = comdat any

$_ZNK4llvh12DenseMapBaseINS_8DenseMapIjjNS_12DenseMapInfoIjEENS_6detail12DenseMapPairIjjEEEEjjS3_S6_E16getNumTombstonesEv = comdat any

$_ZNK4llvh8DenseMapIjjNS_12DenseMapInfoIjEENS_6detail12DenseMapPairIjjEEE16getNumTombstonesEv = comdat any

$_ZN4llvh12DenseMapBaseINS_8DenseMapIjjNS_12DenseMapInfoIjEENS_6detail12DenseMapPairIjjEEEEjjS3_S6_E16FindAndConstructEOj = comdat any

$_ZN4llvh12DenseMapBaseINS_8DenseMapIjjNS_12DenseMapInfoIjEENS_6detail12DenseMapPairIjjEEEEjjS3_S6_E16InsertIntoBucketIjJEEEPS6_SA_OT_DpOT0_ = comdat any

$_ZN4llvh12DenseMapBaseINS_8DenseMapIjjNS_12DenseMapInfoIjEENS_6detail12DenseMapPairIjjEEEEjjS3_S6_E20InsertIntoBucketImplIjEEPS6_RKjRKT_SA_ = comdat any

$_ZN4llvh14DebugEpochBase14incrementEpochEv = comdat any

$_ZN4llvh12DenseMapBaseINS_8DenseMapIjjNS_12DenseMapInfoIjEENS_6detail12DenseMapPairIjjEEEEjjS3_S6_E4growEj = comdat any

$_ZN4llvh12DenseMapBaseINS_8DenseMapIjjNS_12DenseMapInfoIjEENS_6detail12DenseMapPairIjjEEEEjjS3_S6_E19incrementNumEntriesEv = comdat any

$_ZN4llvh12DenseMapBaseINS_8DenseMapIjjNS_12DenseMapInfoIjEENS_6detail12DenseMapPairIjjEEEEjjS3_S6_E22decrementNumTombstonesEv = comdat any

$_ZN4llvh8DenseMapIjjNS_12DenseMapInfoIjEENS_6detail12DenseMapPairIjjEEE4growEj = comdat any

$_ZN4llvh12DenseMapBaseINS_8DenseMapIjjNS_12DenseMapInfoIjEENS_6detail12DenseMapPairIjjEEEEjjS3_S6_E18moveFromOldBucketsEPS6_S9_ = comdat any

$_ZN4llvh12DenseMapBaseINS_8DenseMapIjNS_11SmallVectorIjLj1EEENS_12DenseMapInfoIjEENS_6detail12DenseMapPairIjS3_EEEEjS3_S5_S8_E16FindAndConstructERKj = comdat any

$_ZN4llvh12DenseMapBaseINS_8DenseMapIjNS_11SmallVectorIjLj1EEENS_12DenseMapInfoIjEENS_6detail12DenseMapPairIjS3_EEEEjS3_S5_S8_E15LookupBucketForIjEEbRKT_RPS8_ = comdat any

$_ZN4llvh12DenseMapBaseINS_8DenseMapIjNS_11SmallVectorIjLj1EEENS_12DenseMapInfoIjEENS_6detail12DenseMapPairIjS3_EEEEjS3_S5_S8_E16InsertIntoBucketIRKjJEEEPS8_SE_OT_DpOT0_ = comdat any

$_ZNK4llvh12DenseMapBaseINS_8DenseMapIjNS_11SmallVectorIjLj1EEENS_12DenseMapInfoIjEENS_6detail12DenseMapPairIjS3_EEEEjS3_S5_S8_E15LookupBucketForIjEEbRKT_RPKS8_ = comdat any

$_ZNK4llvh12DenseMapBaseINS_8DenseMapIjNS_11SmallVectorIjLj1EEENS_12DenseMapInfoIjEENS_6detail12DenseMapPairIjS3_EEEEjS3_S5_S8_E10getBucketsEv = comdat any

$_ZN4llvh12DenseMapBaseINS_8DenseMapIjNS_11SmallVectorIjLj1EEENS_12DenseMapInfoIjEENS_6detail12DenseMapPairIjS3_EEEEjS3_S5_S8_E12getHashValueERKj = comdat any

$_ZNK4llvh6detail12DenseMapPairIjNS_11SmallVectorIjLj1EEEE8getFirstEv = comdat any

$_ZN4llvh12DenseMapBaseINS_8DenseMapIjNS_11SmallVectorIjLj1EEENS_12DenseMapInfoIjEENS_6detail12DenseMapPairIjS3_EEEEjS3_S5_S8_E20InsertIntoBucketImplIjEEPS8_RKjRKT_SC_ = comdat any

$_ZN4llvh11SmallVectorIjLj1EEC2Ev = comdat any

$_ZNK4llvh12DenseMapBaseINS_8DenseMapIjNS_11SmallVectorIjLj1EEENS_12DenseMapInfoIjEENS_6detail12DenseMapPairIjS3_EEEEjS3_S5_S8_E13getNumEntriesEv = comdat any

$_ZN4llvh12DenseMapBaseINS_8DenseMapIjNS_11SmallVectorIjLj1EEENS_12DenseMapInfoIjEENS_6detail12DenseMapPairIjS3_EEEEjS3_S5_S8_E4growEj = comdat any

$_ZNK4llvh12DenseMapBaseINS_8DenseMapIjNS_11SmallVectorIjLj1EEENS_12DenseMapInfoIjEENS_6detail12DenseMapPairIjS3_EEEEjS3_S5_S8_E16getNumTombstonesEv = comdat any

$_ZN4llvh12DenseMapBaseINS_8DenseMapIjNS_11SmallVectorIjLj1EEENS_12DenseMapInfoIjEENS_6detail12DenseMapPairIjS3_EEEEjS3_S5_S8_E19incrementNumEntriesEv = comdat any

$_ZN4llvh12DenseMapBaseINS_8DenseMapIjNS_11SmallVectorIjLj1EEENS_12DenseMapInfoIjEENS_6detail12DenseMapPairIjS3_EEEEjS3_S5_S8_E22decrementNumTombstonesEv = comdat any

$_ZNK4llvh8DenseMapIjNS_11SmallVectorIjLj1EEENS_12DenseMapInfoIjEENS_6detail12DenseMapPairIjS2_EEE13getNumEntriesEv = comdat any

$_ZN4llvh8DenseMapIjNS_11SmallVectorIjLj1EEENS_12DenseMapInfoIjEENS_6detail12DenseMapPairIjS2_EEE4growEj = comdat any

$_ZN4llvh12DenseMapBaseINS_8DenseMapIjNS_11SmallVectorIjLj1EEENS_12DenseMapInfoIjEENS_6detail12DenseMapPairIjS3_EEEEjS3_S5_S8_E18moveFromOldBucketsEPS8_SB_ = comdat any

$_ZN4llvh11SmallVectorIjLj1EEC2EOS1_ = comdat any

$_ZN4llvh15SmallVectorImplIjEC2Ej = comdat any

$_ZNK4llvh15SmallVectorBase5emptyEv = comdat any

$_ZN4llvh15SmallVectorImplIjEaSEOS1_ = comdat any

$_ZN4llvh23SmallVectorTemplateBaseIjLb1EEC2Em = comdat any

$_ZN4llvh25SmallVectorTemplateCommonIjvEC2Em = comdat any

$_ZN4llvh25SmallVectorTemplateCommonIjvE12resetToSmallEv = comdat any

$_ZSt4moveIPjS0_ET0_T_S2_S1_ = comdat any

$_ZN4llvh15SmallVectorBase8set_sizeEm = comdat any

$_ZN4llvh15SmallVectorImplIjE5clearEv = comdat any

$_ZNK4llvh15SmallVectorBase8capacityEv = comdat any

$_ZN4llvh23SmallVectorTemplateBaseIjLb1EE4growEm = comdat any

$_ZN4llvh23SmallVectorTemplateBaseIjLb1EE18uninitialized_moveIPjS3_EEvT_S4_T0_ = comdat any

$_ZSt13__copy_move_aILb1EPjS0_ET1_T0_S2_S1_ = comdat any

$_ZSt12__miter_baseIPjET_S1_ = comdat any

$_ZSt12__niter_wrapIPjET_RKS1_S1_ = comdat any

$_ZSt14__copy_move_a1ILb1EPjS0_ET1_T0_S2_S1_ = comdat any

$_ZSt12__niter_baseIPjET_S1_ = comdat any

$_ZSt14__copy_move_a2ILb1EPjS0_ET1_T0_S2_S1_ = comdat any

$_ZNSt11__copy_moveILb1ELb1ESt26random_access_iterator_tagE8__copy_mIjEEPT_PKS3_S6_S4_ = comdat any

$_ZN4llvh25SmallVectorTemplateCommonIjvE8grow_podEmm = comdat any

$_ZN4llvh23SmallVectorTemplateBaseIjLb1EE18uninitialized_copyIjjEEvPT_S4_PT0_PNSt9enable_ifIXsr3std7is_sameINSt12remove_constIS3_E4typeES5_EE5valueEvE4typeE = comdat any

$_ZNK4llvh8DenseMapIjNS_11SmallVectorIjLj1EEENS_12DenseMapInfoIjEENS_6detail12DenseMapPairIjS2_EEE16getNumTombstonesEv = comdat any

$_ZN4llvh12DenseMapBaseINS_8DenseMapIdjN6hermes2vm6GCBase9IDTracker16DoubleComparatorENS_6detail12DenseMapPairIdjEEEEdjS6_S9_E16FindAndConstructERKd = comdat any

$_ZN4llvh12DenseMapBaseINS_8DenseMapIdjN6hermes2vm6GCBase9IDTracker16DoubleComparatorENS_6detail12DenseMapPairIdjEEEEdjS6_S9_E15LookupBucketForIdEEbRKT_RPS9_ = comdat any

$_ZN4llvh12DenseMapBaseINS_8DenseMapIdjN6hermes2vm6GCBase9IDTracker16DoubleComparatorENS_6detail12DenseMapPairIdjEEEEdjS6_S9_E16InsertIntoBucketIRKdJEEEPS9_SF_OT_DpOT0_ = comdat any

$_ZNK4llvh12DenseMapBaseINS_8DenseMapIdjN6hermes2vm6GCBase9IDTracker16DoubleComparatorENS_6detail12DenseMapPairIdjEEEEdjS6_S9_E15LookupBucketForIdEEbRKT_RPKS9_ = comdat any

$_ZNK4llvh12DenseMapBaseINS_8DenseMapIdjN6hermes2vm6GCBase9IDTracker16DoubleComparatorENS_6detail12DenseMapPairIdjEEEEdjS6_S9_E10getBucketsEv = comdat any

$_ZN4llvh12DenseMapBaseINS_8DenseMapIdjN6hermes2vm6GCBase9IDTracker16DoubleComparatorENS_6detail12DenseMapPairIdjEEEEdjS6_S9_E12getHashValueERKd = comdat any

$_ZNK4llvh6detail12DenseMapPairIdjE8getFirstEv = comdat any

$_ZN6hermes2vm6GCBase9IDTracker16DoubleComparator12getHashValueEd = comdat any

$_ZNKSt4hashImEclEm = comdat any

$_ZN4llvh12DenseMapBaseINS_8DenseMapIdjN6hermes2vm6GCBase9IDTracker16DoubleComparatorENS_6detail12DenseMapPairIdjEEEEdjS6_S9_E20InsertIntoBucketImplIdEEPS9_RKdRKT_SD_ = comdat any

$_ZNK4llvh12DenseMapBaseINS_8DenseMapIdjN6hermes2vm6GCBase9IDTracker16DoubleComparatorENS_6detail12DenseMapPairIdjEEEEdjS6_S9_E13getNumEntriesEv = comdat any

$_ZN4llvh12DenseMapBaseINS_8DenseMapIdjN6hermes2vm6GCBase9IDTracker16DoubleComparatorENS_6detail12DenseMapPairIdjEEEEdjS6_S9_E4growEj = comdat any

$_ZNK4llvh12DenseMapBaseINS_8DenseMapIdjN6hermes2vm6GCBase9IDTracker16DoubleComparatorENS_6detail12DenseMapPairIdjEEEEdjS6_S9_E16getNumTombstonesEv = comdat any

$_ZN4llvh12DenseMapBaseINS_8DenseMapIdjN6hermes2vm6GCBase9IDTracker16DoubleComparatorENS_6detail12DenseMapPairIdjEEEEdjS6_S9_E19incrementNumEntriesEv = comdat any

$_ZN4llvh12DenseMapBaseINS_8DenseMapIdjN6hermes2vm6GCBase9IDTracker16DoubleComparatorENS_6detail12DenseMapPairIdjEEEEdjS6_S9_E22decrementNumTombstonesEv = comdat any

$_ZNK4llvh8DenseMapIdjN6hermes2vm6GCBase9IDTracker16DoubleComparatorENS_6detail12DenseMapPairIdjEEE13getNumEntriesEv = comdat any

$_ZN4llvh8DenseMapIdjN6hermes2vm6GCBase9IDTracker16DoubleComparatorENS_6detail12DenseMapPairIdjEEE4growEj = comdat any

$_ZN4llvh12DenseMapBaseINS_8DenseMapIdjN6hermes2vm6GCBase9IDTracker16DoubleComparatorENS_6detail12DenseMapPairIdjEEEEdjS6_S9_E18moveFromOldBucketsEPS9_SC_ = comdat any

$_ZNK4llvh8DenseMapIdjN6hermes2vm6GCBase9IDTracker16DoubleComparatorENS_6detail12DenseMapPairIdjEEE16getNumTombstonesEv = comdat any

$_ZN4llvh15optional_detail15OptionalStorageIN6hermes2vm17CompressedPointerELb1EEC2ERKS4_ = comdat any

$_ZSt9make_pairIN4llvh16DenseMapIteratorIjjNS0_12DenseMapInfoIjEENS0_6detail12DenseMapPairIjjEELb0EEEbESt4pairINSt25__strip_reference_wrapperINSt5decayIT_E4typeEE6__typeENS9_INSA_IT0_E4typeEE6__typeEEOSB_OSG_ = comdat any

$_ZN4llvh12DenseMapBaseINS_8DenseMapIjjNS_12DenseMapInfoIjEENS_6detail12DenseMapPairIjjEEEEjjS3_S6_E16InsertIntoBucketIRKjJSB_EEEPS6_SC_OT_DpOT0_ = comdat any

$_ZNSt4pairIN4llvh16DenseMapIteratorIjjNS0_12DenseMapInfoIjEENS0_6detail12DenseMapPairIjjEELb0EEEbEC2IS7_bTnNSt9enable_ifIXaaclsr5_PCCPE22_MoveConstructiblePairIT_T0_EEclsr5_PCCPE30_ImplicitlyMoveConvertiblePairISB_SC_EEEbE4typeELb1EEEOSB_OSC_ = comdat any

$_ZNK4llvh12DenseMapBaseINS_8DenseMapIPKvjNS_12DenseMapInfoIS3_EENS_6detail12DenseMapPairIS3_jEEEES3_jS5_S8_E13getNumEntriesEv = comdat any

$_ZNK4llvh8DenseMapIPKvjNS_12DenseMapInfoIS2_EENS_6detail12DenseMapPairIS2_jEEE13getNumEntriesEv = comdat any

$_ZN4llvh12DenseMapBaseINS_8DenseMapIPKvjNS_12DenseMapInfoIS3_EENS_6detail12DenseMapPairIS3_jEEEES3_jS5_S8_E15LookupBucketForIS3_EEbRKT_RPS8_ = comdat any

$_ZN4llvh12DenseMapBaseINS_8DenseMapIPKvjNS_12DenseMapInfoIS3_EENS_6detail12DenseMapPairIS3_jEEEES3_jS5_S8_E12makeIteratorEPS8_SB_RNS_14DebugEpochBaseEb = comdat any

$_ZNK4llvh12DenseMapBaseINS_8DenseMapIPKvjNS_12DenseMapInfoIS3_EENS_6detail12DenseMapPairIS3_jEEEES3_jS5_S8_E15LookupBucketForIS3_EEbRKT_RPKS8_ = comdat any

$_ZNK4llvh12DenseMapBaseINS_8DenseMapIPKvjNS_12DenseMapInfoIS3_EENS_6detail12DenseMapPairIS3_jEEEES3_jS5_S8_E10getBucketsEv = comdat any

$_ZN4llvh12DenseMapBaseINS_8DenseMapIPKvjNS_12DenseMapInfoIS3_EENS_6detail12DenseMapPairIS3_jEEEES3_jS5_S8_E12getHashValueERKS3_ = comdat any

$_ZNK4llvh6detail12DenseMapPairIPKvjE8getFirstEv = comdat any

$_ZN4llvh12DenseMapInfoIPKvE12getHashValueES2_ = comdat any

$_ZN4llvh20shouldReverseIterateIPKvEEbv = comdat any

$_ZN4llvh16DenseMapIteratorIPKvjNS_12DenseMapInfoIS2_EENS_6detail12DenseMapPairIS2_jEELb0EEC2EPS7_S9_RKNS_14DebugEpochBaseEb = comdat any

$_ZN4llvh16DenseMapIteratorIPKvjNS_12DenseMapInfoIS2_EENS_6detail12DenseMapPairIS2_jEELb0EE23RetreatPastEmptyBucketsEv = comdat any

$_ZN4llvh16DenseMapIteratorIPKvjNS_12DenseMapInfoIS2_EENS_6detail12DenseMapPairIS2_jEELb0EE23AdvancePastEmptyBucketsEv = comdat any

$_ZNK4llvh16DenseMapIteratorIPKvjNS_12DenseMapInfoIS2_EENS_6detail12DenseMapPairIS2_jEELb0EEeqERKS8_ = comdat any

$_ZN4llvh12DenseMapBaseINS_8DenseMapIPKvjNS_12DenseMapInfoIS3_EENS_6detail12DenseMapPairIS3_jEEEES3_jS5_S8_E16FindAndConstructERKS3_ = comdat any

$_ZN4llvh12DenseMapBaseINS_8DenseMapIPKvjNS_12DenseMapInfoIS3_EENS_6detail12DenseMapPairIS3_jEEEES3_jS5_S8_E16InsertIntoBucketIRKS3_JEEEPS8_SE_OT_DpOT0_ = comdat any

$_ZN4llvh12DenseMapBaseINS_8DenseMapIPKvjNS_12DenseMapInfoIS3_EENS_6detail12DenseMapPairIS3_jEEEES3_jS5_S8_E20InsertIntoBucketImplIS3_EEPS8_RKS3_RKT_SC_ = comdat any

$_ZN4llvh12DenseMapBaseINS_8DenseMapIPKvjNS_12DenseMapInfoIS3_EENS_6detail12DenseMapPairIS3_jEEEES3_jS5_S8_E4growEj = comdat any

$_ZNK4llvh12DenseMapBaseINS_8DenseMapIPKvjNS_12DenseMapInfoIS3_EENS_6detail12DenseMapPairIS3_jEEEES3_jS5_S8_E16getNumTombstonesEv = comdat any

$_ZN4llvh12DenseMapBaseINS_8DenseMapIPKvjNS_12DenseMapInfoIS3_EENS_6detail12DenseMapPairIS3_jEEEES3_jS5_S8_E19incrementNumEntriesEv = comdat any

$_ZN4llvh12DenseMapBaseINS_8DenseMapIPKvjNS_12DenseMapInfoIS3_EENS_6detail12DenseMapPairIS3_jEEEES3_jS5_S8_E22decrementNumTombstonesEv = comdat any

$_ZN4llvh8DenseMapIPKvjNS_12DenseMapInfoIS2_EENS_6detail12DenseMapPairIS2_jEEE4growEj = comdat any

$_ZN4llvh12DenseMapBaseINS_8DenseMapIPKvjNS_12DenseMapInfoIS3_EENS_6detail12DenseMapPairIS3_jEEEES3_jS5_S8_E18moveFromOldBucketsEPS8_SB_ = comdat any

$_ZNK4llvh8DenseMapIPKvjNS_12DenseMapInfoIS2_EENS_6detail12DenseMapPairIS2_jEEE16getNumTombstonesEv = comdat any

$_ZN4llvh12DenseMapBaseINS_8DenseMapIjNS_11SmallVectorIjLj1EEENS_12DenseMapInfoIjEENS_6detail12DenseMapPairIjS3_EEEEjS3_S5_S8_E19decrementNumEntriesEv = comdat any

$_ZN4llvh12DenseMapBaseINS_8DenseMapIjNS_11SmallVectorIjLj1EEENS_12DenseMapInfoIjEENS_6detail12DenseMapPairIjS3_EEEEjS3_S5_S8_E22incrementNumTombstonesEv = comdat any

$_ZN4llvh12DenseMapBaseINS_8DenseMapIPKvjNS_12DenseMapInfoIS3_EENS_6detail12DenseMapPairIS3_jEEEES3_jS5_S8_E19decrementNumEntriesEv = comdat any

$_ZN4llvh12DenseMapBaseINS_8DenseMapIPKvjNS_12DenseMapInfoIS3_EENS_6detail12DenseMapPairIS3_jEEEES3_jS5_S8_E22incrementNumTombstonesEv = comdat any

$_ZN4llvh15optional_detail15OptionalStorageIjLb1EEC2ERKj = comdat any

$_ZN4llvh8OptionalIN6hermes2vm17CompressedPointerEE10getPointerEv = comdat any

$_ZN6hermes2vm28RootAndSlotAcceptorWithNamesC2Ev = comdat any

$_ZN6hermes2vm28RootAndSlotAcceptorWithNames6acceptERPNS0_6GCCellE = comdat any

$_ZN6hermes2vm28RootAndSlotAcceptorWithNames6acceptERNS0_17PinnedHermesValueE = comdat any

$_ZN6hermes2vm28RootAndSlotAcceptorWithNames14acceptNullableERNS0_17PinnedHermesValueE = comdat any

$_ZN6hermes2vm28RootAndSlotAcceptorWithNames6acceptERKNS0_12RootSymbolIDE = comdat any

$_ZN6hermes2vm28RootAndSlotAcceptorWithNames6acceptERNS0_13GCPointerBaseE = comdat any

$_ZN6hermes2vm28RootAndSlotAcceptorWithNames6acceptERNS0_17GCHermesValueBaseINS0_11HermesValueEEE = comdat any

$_ZN6hermes2vm28RootAndSlotAcceptorWithNames6acceptERNS0_17GCHermesValueBaseINS0_13HermesValue32EEE = comdat any

$_ZN6hermes2vm28RootAndSlotAcceptorWithNames6acceptERKNS0_10GCSymbolIDE = comdat any

$_ZN6hermes2vm28RootAndSlotAcceptorWithNames15provideSnapshotERKSt8functionIFvRNS0_12HeapSnapshotEEE = comdat any

$_ZThn8_N6hermes2vm28RootAndSlotAcceptorWithNames6acceptERNS0_13GCPointerBaseE = comdat any

$_ZThn8_N6hermes2vm28RootAndSlotAcceptorWithNames6acceptERNS0_17GCHermesValueBaseINS0_11HermesValueEEE = comdat any

$_ZThn8_N6hermes2vm28RootAndSlotAcceptorWithNames6acceptERNS0_17GCHermesValueBaseINS0_13HermesValue32EEE = comdat any

$_ZThn8_N6hermes2vm28RootAndSlotAcceptorWithNames6acceptERKNS0_10GCSymbolIDE = comdat any

$_ZN6hermes2vm28RootAndSlotAcceptorWithNamesD2Ev = comdat any

$_ZN6hermes2vm28RootAndSlotAcceptorWithNamesD0Ev = comdat any

$_ZThn8_N6hermes2vm28RootAndSlotAcceptorWithNamesD1Ev = comdat any

$_ZThn8_N6hermes2vm28RootAndSlotAcceptorWithNamesD0Ev = comdat any

$_ZNSt9_Any_data9_M_accessEv = comdat any

$_ZNK6hermes2vm6GCCell14isVariableSizeEv = comdat any

$_ZN6hermes2vm10dyn_vmcastINS0_15StringPrimitiveEEEPT_PNS0_6GCCellE = comdat any

$_ZN6hermes2vm25isBufferedStringPrimitiveEPKNS0_6GCCellE = comdat any

$_ZNK6hermes2vm15StringPrimitive7isASCIIEv = comdat any

$_ZNK6hermes2vm15StringPrimitive15getStringLengthEv = comdat any

$_ZStplIcSt11char_traitsIcESaIcEENSt7__cxx1112basic_stringIT_T0_T1_EEPKS5_OS8_ = comdat any

$_ZNSt7__cxx119to_stringEm = comdat any

$_ZNK6hermes2vm6GCCell7getKindEv = comdat any

$_ZNSt5arrayIN6hermes2vm8MetadataELm79EEixEm = comdat any

$_ZNK6hermes8OptValueINS_2vm8Metadata9ArrayDataEEcvbEv = comdat any

$_ZNK6hermes8OptValueINS_2vm8Metadata9ArrayDataEEdeEv = comdat any

$_ZNKSt5arrayIhLm8EEixEm = comdat any

$_ZNSt14__array_traitsIhLm8EE6_S_refERA8_Khm = comdat any

$_ZStanSt12memory_orderSt23__memory_order_modifier = comdat any

$_ZNK6hermes8OptValueINS_2vm8Metadata9ArrayDataEE8getValueEv = comdat any

$_ZNSt14__array_traitsIN6hermes2vm8MetadataELm79EE6_S_refERA79_KS2_m = comdat any

$_ZNK6hermes2vm11KindAndSize7getKindEv = comdat any

$_ZN6hermes2vm6GCCell14isVariableSizeEPKNS0_6VTableE = comdat any

$_ZNK6hermes2vm6GCCell5getVTEv = comdat any

$_ZNK6hermes2vm11KindAndSize5getVTEv = comdat any

$_ZNSt5arrayIPKN6hermes2vm6VTableELm79EEixEm = comdat any

$_ZNSt14__array_traitsIPKN6hermes2vm6VTableELm79EE6_S_refERA79_KS4_m = comdat any

$_ZN4llvh8dyn_castIN6hermes2vm15StringPrimitiveENS2_6GCCellEEENS_10cast_rettyIT_PT0_E8ret_typeES8_ = comdat any

$_ZN4llvh3isaIN6hermes2vm15StringPrimitiveEPNS2_6GCCellEEEbRKT0_ = comdat any

$_ZN4llvh13isa_impl_wrapIN6hermes2vm15StringPrimitiveEKPNS2_6GCCellEPKS4_E4doitERS6_ = comdat any

$_ZN4llvh13isa_impl_wrapIN6hermes2vm15StringPrimitiveEPKNS2_6GCCellES6_E4doitERKS6_ = comdat any

$_ZN4llvh13simplify_typeIKPN6hermes2vm6GCCellEE18getSimplifiedValueERS5_ = comdat any

$_ZN4llvh11isa_impl_clIN6hermes2vm15StringPrimitiveEPKNS2_6GCCellEE4doitES6_ = comdat any

$_ZN4llvh8isa_implIN6hermes2vm15StringPrimitiveENS2_6GCCellEvE4doitERKS4_ = comdat any

$_ZN6hermes2vm15StringPrimitive7classofEPKNS0_6GCCellE = comdat any

$_ZN6hermes2vm11kindInRangeENS0_8CellKindES1_S1_ = comdat any

$_ZN4llvh13simplify_typeIPN6hermes2vm6GCCellEE18getSimplifiedValueERS4_ = comdat any

$_ZNSt8__detail14__to_chars_lenImEEjT_i = comdat any

$_ZNSt8__detail18__to_chars_10_implImEEvPcjT_ = comdat any

$_ZNKSt9_Any_data9_M_accessEv = comdat any

$_ZNSt9_Any_data9_M_accessIPKSt9type_infoEERT_v = comdat any

$_ZTVN6hermes2vm19WeakAcceptorDefaultE = comdat any

$_ZTVN6hermes2vm19RootAndSlotAcceptorE = comdat any

$_ZTVN6hermes2vm12RootAcceptorE = comdat any

$_ZTVN6hermes2vm19RootSectionAcceptorE = comdat any

$_ZTVN6hermes2vm12SlotAcceptorE = comdat any

$_ZSt19piecewise_construct = comdat any

$_ZTVN4llvh13format_objectIJdEEE = comdat any

$_ZTVN6hermes2vm28RootAndSlotAcceptorWithNamesE = comdat any

$_ZZNSt8__detail18__to_chars_10_implImEEvPcjT_E8__digits = comdat any

@_ZN6hermes2vm6GCBase25kNaturalCauseForAnalyticsE = hidden constant [8 x i8] c"natural\00", align 1
@_ZN6hermes2vm6GCBase27kHandleSanCauseForAnalyticsE = hidden constant [11 x i8] c"handle-san\00", align 1
@_ZTVN6hermes2vm6GCBaseE = hidden unnamed_addr constant { [23 x ptr] } { [23 x ptr] [ptr null, ptr null, ptr @_ZN6hermes2vm6GCBaseD2Ev, ptr @_ZN6hermes2vm6GCBaseD0Ev, ptr @_ZN6hermes2vm6GCBase10ttiReachedEv, ptr @_ZN6hermes2vm6GCBase25recordNumAllocatedObjectsEv, ptr @_ZNK6hermes2vm6GCBase21getPeakAllocatedBytesEv, ptr @_ZNK6hermes2vm6GCBase18getPeakLiveAfterGCEv, ptr @_ZN6hermes2vm6GCBase11getHeapInfoERNS1_8HeapInfoE, ptr @_ZN6hermes2vm6GCBase25getHeapInfoWithMallocSizeERNS1_8HeapInfoE, ptr @__cxa_pure_virtual, ptr @_ZN6hermes2vm6GCBase4dumpERN4llvh11raw_ostreamEb, ptr @__cxa_pure_virtual, ptr @__cxa_pure_virtual, ptr @__cxa_pure_virtual, ptr @_ZNK6hermes2vm6GCBase10inYoungGenEPKv, ptr @_ZN6hermes2vm6GCBase22canAllocExternalMemoryEj, ptr @__cxa_pure_virtual, ptr @__cxa_pure_virtual, ptr @__cxa_pure_virtual, ptr @_ZNK6hermes2vm6GCBase25bytesAllocatedSinceLastGCEv, ptr @_ZN6hermes2vm6GCBase10printStatsERNS_11JSONEmitterE, ptr @_ZN6hermes2vm6GCBase9oomDetailEN4llvh15MutableArrayRefIcEESt10error_code] }, align 8
@.str = private unnamed_addr constant [11 x i8] c"GC stats:\0A\00", align 1
@.str.1 = private unnamed_addr constant [2 x i8] c"\0A\00", align 1
@.str.2 = private unnamed_addr constant [5 x i8] c"type\00", align 1
@.str.3 = private unnamed_addr constant [7 x i8] c"hermes\00", align 1
@.str.4 = private unnamed_addr constant [8 x i8] c"version\00", align 1
@.str.5 = private unnamed_addr constant [9 x i8] c"heapInfo\00", align 1
@.str.6 = private unnamed_addr constant [9 x i8] c"Peak RSS\00", align 1
@.str.7 = private unnamed_addr constant [12 x i8] c"Current RSS\00", align 1
@.str.8 = private unnamed_addr constant [14 x i8] c"Current Dirty\00", align 1
@.str.9 = private unnamed_addr constant [10 x i8] c"Heap size\00", align 1
@.str.10 = private unnamed_addr constant [16 x i8] c"Allocated bytes\00", align 1
@.str.11 = private unnamed_addr constant [16 x i8] c"Num collections\00", align 1
@.str.12 = private unnamed_addr constant [12 x i8] c"Malloc size\00", align 1
@.str.13 = private unnamed_addr constant [8 x i8] c"general\00", align 1
@.str.14 = private unnamed_addr constant [15 x i8] c"numCollections\00", align 1
@.str.15 = private unnamed_addr constant [10 x i8] c"totalTime\00", align 1
@.str.16 = private unnamed_addr constant [13 x i8] c"totalCPUTime\00", align 1
@.str.17 = private unnamed_addr constant [12 x i8] c"totalGCTime\00", align 1
@.str.18 = private unnamed_addr constant [13 x i8] c"volCtxSwitch\00", align 1
@.str.19 = private unnamed_addr constant [15 x i8] c"involCtxSwitch\00", align 1
@.str.20 = private unnamed_addr constant [11 x i8] c"avgGCPause\00", align 1
@.str.21 = private unnamed_addr constant [11 x i8] c"maxGCPause\00", align 1
@.str.22 = private unnamed_addr constant [15 x i8] c"totalGCCPUTime\00", align 1
@.str.23 = private unnamed_addr constant [14 x i8] c"avgGCCPUPause\00", align 1
@.str.24 = private unnamed_addr constant [14 x i8] c"maxGCCPUPause\00", align 1
@.str.25 = private unnamed_addr constant [14 x i8] c"finalHeapSize\00", align 1
@.str.26 = private unnamed_addr constant [19 x i8] c"peakAllocatedBytes\00", align 1
@.str.27 = private unnamed_addr constant [16 x i8] c"peakLiveAfterGC\00", align 1
@.str.28 = private unnamed_addr constant [20 x i8] c"totalAllocatedBytes\00", align 1
@.str.29 = private unnamed_addr constant [12 x i8] c"collections\00", align 1
@.str.30 = private unnamed_addr constant [19 x i8] c"runtimeDescription\00", align 1
@.str.31 = private unnamed_addr constant [7 x i8] c"gcKind\00", align 1
@.str.32 = private unnamed_addr constant [15 x i8] c"collectionType\00", align 1
@.str.33 = private unnamed_addr constant [6 x i8] c"cause\00", align 1
@.str.34 = private unnamed_addr constant [9 x i8] c"duration\00", align 1
@.str.35 = private unnamed_addr constant [12 x i8] c"cpuDuration\00", align 1
@.str.36 = private unnamed_addr constant [13 x i8] c"preAllocated\00", align 1
@.str.37 = private unnamed_addr constant [14 x i8] c"postAllocated\00", align 1
@.str.38 = private unnamed_addr constant [8 x i8] c"preSize\00", align 1
@.str.39 = private unnamed_addr constant [9 x i8] c"postSize\00", align 1
@.str.40 = private unnamed_addr constant [12 x i8] c"preExternal\00", align 1
@.str.41 = private unnamed_addr constant [13 x i8] c"postExternal\00", align 1
@.str.42 = private unnamed_addr constant [14 x i8] c"survivalRatio\00", align 1
@.str.43 = private unnamed_addr constant [5 x i8] c"tags\00", align 1
@.str.44 = private unnamed_addr constant [9 x i8] c"HermesGC\00", align 1
@.str.45 = private unnamed_addr constant [9 x i8] c"OOM: %s.\00", align 1
@.str.46 = private unnamed_addr constant [23 x i8] c"HermesGCOOMDetailBasic\00", align 1
@.str.47 = private unnamed_addr constant [4 x i8] c"OOM\00", align 1
@.str.48 = private unnamed_addr constant [130 x i8] c"[%.20s] reason = %.150s (%d from category: %.50s), numCollections = %u, heapSize = %lu, allocated = %lu, va = %lu, external = %lu\00", align 1
@.str.49 = private unnamed_addr constant [6 x i8] c"%5.3f\00", align 1
@.str.50 = private unnamed_addr constant [3 x i8] c" s\00", align 1
@.str.51 = private unnamed_addr constant [4 x i8] c" ms\00", align 1
@.str.52 = private unnamed_addr constant [4 x i8] c" us\00", align 1
@.str.53 = private unnamed_addr constant [10 x i8] c"%0.3f GiB\00", align 1
@.str.54 = private unnamed_addr constant [10 x i8] c"%0.3f MiB\00", align 1
@.str.55 = private unnamed_addr constant [10 x i8] c"%0.3f KiB\00", align 1
@.str.56 = private unnamed_addr constant [3 x i8] c" B\00", align 1
@.str.57 = private unnamed_addr constant [22 x i8] c"Ran out of object IDs\00", align 1
@.str.58 = private unnamed_addr constant [4 x i8] c"%s:\00", align 1
@.str.59 = private unnamed_addr constant [6 x i8] c"Roots\00", align 1
@.str.60 = private unnamed_addr constant [14 x i8] c"Heap contents\00", align 1
@_ZTVN6hermes2vm19WeakAcceptorDefaultE = linkonce_odr hidden unnamed_addr constant { [7 x ptr], [7 x ptr] } { [7 x ptr] [ptr null, ptr null, ptr @_ZN6hermes2vm19WeakAcceptorDefaultD2Ev, ptr @_ZN6hermes2vm19WeakAcceptorDefaultD0Ev, ptr @__cxa_pure_virtual, ptr @_ZN6hermes2vm19WeakAcceptorDefault10acceptWeakERNS0_12WeakRootBaseE, ptr @__cxa_pure_virtual], [7 x ptr] [ptr inttoptr (i64 -8 to ptr), ptr null, ptr @_ZThn8_N6hermes2vm19WeakAcceptorDefaultD1Ev, ptr @_ZThn8_N6hermes2vm19WeakAcceptorDefaultD0Ev, ptr @_ZN6hermes2vm19RootSectionAcceptor16beginRootSectionENS1_7SectionE, ptr @_ZN6hermes2vm19RootSectionAcceptor14endRootSectionEv, ptr @_ZThn8_N6hermes2vm19WeakAcceptorDefault10acceptWeakERNS0_12WeakRootBaseE] }, comdat, align 8
@__libc_single_threaded = external global i8, align 1
@.str.61 = private unnamed_addr constant [8 x i8] c"default\00", align 1
@.str.62 = private unnamed_addr constant [50 x i8] c"basic_string: construction from null is not valid\00", align 1
@_ZTVZN6hermes2vm6GCBase13checkTripwireEmE3Ctx = internal unnamed_addr constant { [6 x ptr] } { [6 x ptr] [ptr null, ptr null, ptr @_ZZN6hermes2vm6GCBase13checkTripwireEmEN3CtxD2Ev, ptr @_ZZN6hermes2vm6GCBase13checkTripwireEmEN3CtxD0Ev, ptr @_ZZN6hermes2vm6GCBase13checkTripwireEmEN3Ctx20createSnapshotToFileERKNSt7__cxx1112basic_stringIcSt11char_traitsIcESaIcEEE, ptr @_ZZN6hermes2vm6GCBase13checkTripwireEmEN3Ctx14createSnapshotERSo] }, align 8
@_ZTVN6hermes2vm17GCTripwireContextE = external unnamed_addr constant { [6 x ptr] }, align 8
@_ZTVZN6hermes2vm6GCBase20sizeDiagnosticCensusEmE26HeapSizeDiagnosticAcceptor = internal unnamed_addr constant { [14 x ptr], [8 x ptr] } { [14 x ptr] [ptr null, ptr null, ptr @_ZZN6hermes2vm6GCBase20sizeDiagnosticCensusEmEN26HeapSizeDiagnosticAcceptorD2Ev, ptr @_ZZN6hermes2vm6GCBase20sizeDiagnosticCensusEmEN26HeapSizeDiagnosticAcceptorD0Ev, ptr @_ZN6hermes2vm19RootSectionAcceptor16beginRootSectionENS1_7SectionE, ptr @_ZN6hermes2vm19RootSectionAcceptor14endRootSectionEv, ptr @_ZZN6hermes2vm6GCBase20sizeDiagnosticCensusEmEN26HeapSizeDiagnosticAcceptor6acceptERPNS0_6GCCellE, ptr @_ZZN6hermes2vm6GCBase20sizeDiagnosticCensusEmEN26HeapSizeDiagnosticAcceptor6acceptERNS0_17PinnedHermesValueE, ptr @_ZZN6hermes2vm6GCBase20sizeDiagnosticCensusEmEN26HeapSizeDiagnosticAcceptor14acceptNullableERNS0_17PinnedHermesValueE, ptr @_ZZN6hermes2vm6GCBase20sizeDiagnosticCensusEmEN26HeapSizeDiagnosticAcceptor6acceptERKNS0_12RootSymbolIDE, ptr @_ZZN6hermes2vm6GCBase20sizeDiagnosticCensusEmEN26HeapSizeDiagnosticAcceptor6acceptERNS0_13GCPointerBaseE, ptr @_ZZN6hermes2vm6GCBase20sizeDiagnosticCensusEmEN26HeapSizeDiagnosticAcceptor6acceptERNS0_17GCHermesValueBaseINS0_11HermesValueEEE, ptr @_ZZN6hermes2vm6GCBase20sizeDiagnosticCensusEmEN26HeapSizeDiagnosticAcceptor6acceptERNS0_17GCHermesValueBaseINS0_13HermesValue32EEE, ptr @_ZZN6hermes2vm6GCBase20sizeDiagnosticCensusEmEN26HeapSizeDiagnosticAcceptor6acceptERKNS0_10GCSymbolIDE], [8 x ptr] [ptr inttoptr (i64 -8 to ptr), ptr null, ptr @_ZThn8_ZN6hermes2vm6GCBase20sizeDiagnosticCensusEmEN26HeapSizeDiagnosticAcceptorD1Ev, ptr @_ZThn8_ZN6hermes2vm6GCBase20sizeDiagnosticCensusEmEN26HeapSizeDiagnosticAcceptorD0Ev, ptr @_ZThn8_ZN6hermes2vm6GCBase20sizeDiagnosticCensusEmEN26HeapSizeDiagnosticAcceptor6acceptERNS0_13GCPointerBaseE, ptr @_ZThn8_ZN6hermes2vm6GCBase20sizeDiagnosticCensusEmEN26HeapSizeDiagnosticAcceptor6acceptERNS0_17GCHermesValueBaseINS0_11HermesValueEEE, ptr @_ZThn8_ZN6hermes2vm6GCBase20sizeDiagnosticCensusEmEN26HeapSizeDiagnosticAcceptor6acceptERNS0_17GCHermesValueBaseINS0_13HermesValue32EEE, ptr @_ZThn8_ZN6hermes2vm6GCBase20sizeDiagnosticCensusEmEN26HeapSizeDiagnosticAcceptor6acceptERKNS0_10GCSymbolIDE] }, align 8
@_ZTVN6hermes2vm19RootAndSlotAcceptorE = linkonce_odr hidden unnamed_addr constant { [10 x ptr], [8 x ptr] } { [10 x ptr] [ptr null, ptr null, ptr @_ZN6hermes2vm19RootAndSlotAcceptorD2Ev, ptr @_ZN6hermes2vm19RootAndSlotAcceptorD0Ev, ptr @_ZN6hermes2vm19RootSectionAcceptor16beginRootSectionENS1_7SectionE, ptr @_ZN6hermes2vm19RootSectionAcceptor14endRootSectionEv, ptr @__cxa_pure_virtual, ptr @__cxa_pure_virtual, ptr @__cxa_pure_virtual, ptr @__cxa_pure_virtual], [8 x ptr] [ptr inttoptr (i64 -8 to ptr), ptr null, ptr @_ZThn8_N6hermes2vm19RootAndSlotAcceptorD1Ev, ptr @_ZThn8_N6hermes2vm19RootAndSlotAcceptorD0Ev, ptr @__cxa_pure_virtual, ptr @__cxa_pure_virtual, ptr @__cxa_pure_virtual, ptr @__cxa_pure_virtual] }, comdat, align 8
@_ZTVN6hermes2vm12RootAcceptorE = linkonce_odr hidden unnamed_addr constant { [10 x ptr] } { [10 x ptr] [ptr null, ptr null, ptr @_ZN6hermes2vm12RootAcceptorD2Ev, ptr @_ZN6hermes2vm12RootAcceptorD0Ev, ptr @_ZN6hermes2vm19RootSectionAcceptor16beginRootSectionENS1_7SectionE, ptr @_ZN6hermes2vm19RootSectionAcceptor14endRootSectionEv, ptr @__cxa_pure_virtual, ptr @__cxa_pure_virtual, ptr @__cxa_pure_virtual, ptr @__cxa_pure_virtual] }, comdat, align 8
@_ZTVN6hermes2vm19RootSectionAcceptorE = linkonce_odr hidden unnamed_addr constant { [6 x ptr] } { [6 x ptr] [ptr null, ptr null, ptr @_ZN6hermes2vm19RootSectionAcceptorD2Ev, ptr @_ZN6hermes2vm19RootSectionAcceptorD0Ev, ptr @_ZN6hermes2vm19RootSectionAcceptor16beginRootSectionENS1_7SectionE, ptr @_ZN6hermes2vm19RootSectionAcceptor14endRootSectionEv] }, comdat, align 8
@_ZTVN6hermes2vm12SlotAcceptorE = linkonce_odr hidden unnamed_addr constant { [8 x ptr] } { [8 x ptr] [ptr null, ptr null, ptr @_ZN6hermes2vm12SlotAcceptorD2Ev, ptr @_ZN6hermes2vm12SlotAcceptorD0Ev, ptr @__cxa_pure_virtual, ptr @__cxa_pure_virtual, ptr @__cxa_pure_virtual, ptr @__cxa_pure_virtual] }, comdat, align 8
@.str.63 = private unnamed_addr constant [8 x i8] c"Pointer\00", align 1
@_ZSt19piecewise_construct = linkonce_odr constant %"struct.std::piecewise_construct_t" zeroinitializer, comdat, align 1
@.str.64 = private unnamed_addr constant [12 x i8] c"HermesValue\00", align 1
@.str.65 = private unnamed_addr constant [5 x i8] c"Bool\00", align 1
@.str.66 = private unnamed_addr constant [7 x i8] c"Number\00", align 1
@.str.67 = private unnamed_addr constant [8 x i8] c"Doubles\00", align 1
@.str.68 = private unnamed_addr constant [5 x i8] c"Int8\00", align 1
@.str.69 = private unnamed_addr constant [6 x i8] c"Int16\00", align 1
@.str.70 = private unnamed_addr constant [6 x i8] c"Int24\00", align 1
@.str.71 = private unnamed_addr constant [6 x i8] c"Int32\00", align 1
@.str.72 = private unnamed_addr constant [14 x i8] c"StringPointer\00", align 1
@.str.73 = private unnamed_addr constant [7 x i8] c"Symbol\00", align 1
@.str.74 = private unnamed_addr constant [14 x i8] c"ObjectPointer\00", align 1
@.str.75 = private unnamed_addr constant [5 x i8] c"Null\00", align 1
@.str.76 = private unnamed_addr constant [10 x i8] c"Undefined\00", align 1
@.str.77 = private unnamed_addr constant [6 x i8] c"Empty\00", align 1
@.str.78 = private unnamed_addr constant [12 x i8] c"NativeValue\00", align 1
@.str.79 = private unnamed_addr constant [10 x i8] c"GCPointer\00", align 1
@.str.80 = private unnamed_addr constant [17 x i8] c"SmallHermesValue\00", align 1
@.str.81 = private unnamed_addr constant [1 x i8] zeroinitializer, align 1
@.str.82 = private unnamed_addr constant [19 x i8] c"Root size: %'7lu B\00", align 1
@_ZZZN6hermes2vm6GCBase20sizeDiagnosticCensusEmENK14DiagnosticStat14printBreakdownEmE7fmtBase = internal global ptr @.str.83, align 8
@.str.83 = private unnamed_addr constant [36 x i8] c"%-25s : %'10lu [%'10lu B | %4.1f%%]\00", align 1
@.str.84 = private unnamed_addr constant [6 x i8] c"Other\00", align 1
@.str.85 = private unnamed_addr constant [19 x i8] c"Heap size: %'7lu B\00", align 1
@.str.86 = private unnamed_addr constant [20 x i8] c"\09Total cells: %'7lu\00", align 1
@.str.87 = private unnamed_addr constant [32 x i8] c"\09Num variable size cells: %'7lu\00", align 1
@.str.88 = private unnamed_addr constant [26 x i8] c"vector::_M_realloc_insert\00", align 1
@.str.89 = private unnamed_addr constant [48 x i8] c"cannot create std::deque larger than max_size()\00", align 1
@_ZTVN4llvh13format_objectIJdEEE = linkonce_odr hidden unnamed_addr constant { [4 x ptr] } { [4 x ptr] [ptr null, ptr null, ptr @_ZN4llvh18format_object_base4homeEv, ptr @_ZNK4llvh13format_objectIJdEE7snprintEPcj] }, comdat, align 8
@_ZTVN4llvh18format_object_baseE = external unnamed_addr constant { [4 x ptr] }, align 8
@_ZTVN6hermes2vm16DroppingAcceptorIZNS0_6GCBase20sizeDiagnosticCensusEmE26HeapSizeDiagnosticAcceptorEE = internal unnamed_addr constant { [23 x ptr], [8 x ptr] } { [23 x ptr] [ptr null, ptr null, ptr @_ZN6hermes2vm16DroppingAcceptorIZNS0_6GCBase20sizeDiagnosticCensusEmE26HeapSizeDiagnosticAcceptorED2Ev, ptr @_ZN6hermes2vm16DroppingAcceptorIZNS0_6GCBase20sizeDiagnosticCensusEmE26HeapSizeDiagnosticAcceptorED0Ev, ptr @_ZN6hermes2vm19RootSectionAcceptor16beginRootSectionENS1_7SectionE, ptr @_ZN6hermes2vm19RootSectionAcceptor14endRootSectionEv, ptr @_ZN6hermes2vm28RootAndSlotAcceptorWithNames6acceptERPNS0_6GCCellE, ptr @_ZN6hermes2vm28RootAndSlotAcceptorWithNames6acceptERNS0_17PinnedHermesValueE, ptr @_ZN6hermes2vm28RootAndSlotAcceptorWithNames14acceptNullableERNS0_17PinnedHermesValueE, ptr @_ZN6hermes2vm28RootAndSlotAcceptorWithNames6acceptERKNS0_12RootSymbolIDE, ptr @_ZN6hermes2vm16DroppingAcceptorIZNS0_6GCBase20sizeDiagnosticCensusEmE26HeapSizeDiagnosticAcceptorE6acceptERPNS0_6GCCellEPKc, ptr @_ZN6hermes2vm16DroppingAcceptorIZNS0_6GCBase20sizeDiagnosticCensusEmE26HeapSizeDiagnosticAcceptorE6acceptERNS0_17PinnedHermesValueEPKc, ptr @_ZN6hermes2vm16DroppingAcceptorIZNS0_6GCBase20sizeDiagnosticCensusEmE26HeapSizeDiagnosticAcceptorE14acceptNullableERNS0_17PinnedHermesValueEPKc, ptr @_ZN6hermes2vm16DroppingAcceptorIZNS0_6GCBase20sizeDiagnosticCensusEmE26HeapSizeDiagnosticAcceptorE6acceptERKNS0_12RootSymbolIDEPKc, ptr @_ZN6hermes2vm28RootAndSlotAcceptorWithNames6acceptERNS0_13GCPointerBaseE, ptr @_ZN6hermes2vm16DroppingAcceptorIZNS0_6GCBase20sizeDiagnosticCensusEmE26HeapSizeDiagnosticAcceptorE6acceptERNS0_13GCPointerBaseEPKc, ptr @_ZN6hermes2vm28RootAndSlotAcceptorWithNames6acceptERNS0_17GCHermesValueBaseINS0_11HermesValueEEE, ptr @_ZN6hermes2vm16DroppingAcceptorIZNS0_6GCBase20sizeDiagnosticCensusEmE26HeapSizeDiagnosticAcceptorE6acceptERNS0_17GCHermesValueBaseINS0_11HermesValueEEEPKc, ptr @_ZN6hermes2vm28RootAndSlotAcceptorWithNames6acceptERNS0_17GCHermesValueBaseINS0_13HermesValue32EEE, ptr @_ZN6hermes2vm16DroppingAcceptorIZNS0_6GCBase20sizeDiagnosticCensusEmE26HeapSizeDiagnosticAcceptorE6acceptERNS0_17GCHermesValueBaseINS0_13HermesValue32EEEPKc, ptr @_ZN6hermes2vm28RootAndSlotAcceptorWithNames6acceptERKNS0_10GCSymbolIDE, ptr @_ZN6hermes2vm16DroppingAcceptorIZNS0_6GCBase20sizeDiagnosticCensusEmE26HeapSizeDiagnosticAcceptorE6acceptERKNS0_10GCSymbolIDEPKc, ptr @_ZN6hermes2vm28RootAndSlotAcceptorWithNames15provideSnapshotERKSt8functionIFvRNS0_12HeapSnapshotEEE], [8 x ptr] [ptr inttoptr (i64 -8 to ptr), ptr null, ptr @_ZThn8_N6hermes2vm16DroppingAcceptorIZNS0_6GCBase20sizeDiagnosticCensusEmE26HeapSizeDiagnosticAcceptorED1Ev, ptr @_ZThn8_N6hermes2vm16DroppingAcceptorIZNS0_6GCBase20sizeDiagnosticCensusEmE26HeapSizeDiagnosticAcceptorED0Ev, ptr @_ZThn8_N6hermes2vm28RootAndSlotAcceptorWithNames6acceptERNS0_13GCPointerBaseE, ptr @_ZThn8_N6hermes2vm28RootAndSlotAcceptorWithNames6acceptERNS0_17GCHermesValueBaseINS0_11HermesValueEEE, ptr @_ZThn8_N6hermes2vm28RootAndSlotAcceptorWithNames6acceptERNS0_17GCHermesValueBaseINS0_13HermesValue32EEE, ptr @_ZThn8_N6hermes2vm28RootAndSlotAcceptorWithNames6acceptERKNS0_10GCSymbolIDE] }, align 8
@_ZTVN6hermes2vm28RootAndSlotAcceptorWithNamesE = linkonce_odr hidden unnamed_addr constant { [23 x ptr], [8 x ptr] } { [23 x ptr] [ptr null, ptr null, ptr @_ZN6hermes2vm28RootAndSlotAcceptorWithNamesD2Ev, ptr @_ZN6hermes2vm28RootAndSlotAcceptorWithNamesD0Ev, ptr @_ZN6hermes2vm19RootSectionAcceptor16beginRootSectionENS1_7SectionE, ptr @_ZN6hermes2vm19RootSectionAcceptor14endRootSectionEv, ptr @_ZN6hermes2vm28RootAndSlotAcceptorWithNames6acceptERPNS0_6GCCellE, ptr @_ZN6hermes2vm28RootAndSlotAcceptorWithNames6acceptERNS0_17PinnedHermesValueE, ptr @_ZN6hermes2vm28RootAndSlotAcceptorWithNames14acceptNullableERNS0_17PinnedHermesValueE, ptr @_ZN6hermes2vm28RootAndSlotAcceptorWithNames6acceptERKNS0_12RootSymbolIDE, ptr @__cxa_pure_virtual, ptr @__cxa_pure_virtual, ptr @__cxa_pure_virtual, ptr @__cxa_pure_virtual, ptr @_ZN6hermes2vm28RootAndSlotAcceptorWithNames6acceptERNS0_13GCPointerBaseE, ptr @__cxa_pure_virtual, ptr @_ZN6hermes2vm28RootAndSlotAcceptorWithNames6acceptERNS0_17GCHermesValueBaseINS0_11HermesValueEEE, ptr @__cxa_pure_virtual, ptr @_ZN6hermes2vm28RootAndSlotAcceptorWithNames6acceptERNS0_17GCHermesValueBaseINS0_13HermesValue32EEE, ptr @__cxa_pure_virtual, ptr @_ZN6hermes2vm28RootAndSlotAcceptorWithNames6acceptERKNS0_10GCSymbolIDE, ptr @__cxa_pure_virtual, ptr @_ZN6hermes2vm28RootAndSlotAcceptorWithNames15provideSnapshotERKSt8functionIFvRNS0_12HeapSnapshotEEE], [8 x ptr] [ptr inttoptr (i64 -8 to ptr), ptr null, ptr @_ZThn8_N6hermes2vm28RootAndSlotAcceptorWithNamesD1Ev, ptr @_ZThn8_N6hermes2vm28RootAndSlotAcceptorWithNamesD0Ev, ptr @_ZThn8_N6hermes2vm28RootAndSlotAcceptorWithNames6acceptERNS0_13GCPointerBaseE, ptr @_ZThn8_N6hermes2vm28RootAndSlotAcceptorWithNames6acceptERNS0_17GCHermesValueBaseINS0_11HermesValueEEE, ptr @_ZThn8_N6hermes2vm28RootAndSlotAcceptorWithNames6acceptERNS0_17GCHermesValueBaseINS0_13HermesValue32EEE, ptr @_ZThn8_N6hermes2vm28RootAndSlotAcceptorWithNames6acceptERKNS0_10GCSymbolIDE] }, comdat, align 8
@.str.90 = private unnamed_addr constant [13 x i8] c"Cell headers\00", align 1
@.str.91 = private unnamed_addr constant [24 x i8] c"StringPrimitive (ASCII)\00", align 1
@.str.92 = private unnamed_addr constant [25 x i8] c"StringPrimitive (UTF-16)\00", align 1
@.str.93 = private unnamed_addr constant [23 x i8] c"StringPrimitive (size \00", align 1
@.str.94 = private unnamed_addr constant [2 x i8] c")\00", align 1
@_ZN6hermes2vm8Metadata13metadataTableE = external global %"struct.std::array.157", align 8
@_ZN6hermes2vm6VTable11vtableArrayE = external global %"struct.std::array.163", align 8
@_ZZNSt8__detail18__to_chars_10_implImEEvPcjT_E8__digits = linkonce_odr constant [201 x i8] c"00010203040506070809101112131415161718192021222324252627282930313233343536373839404142434445464748495051525354555657585960616263646566676869707172737475767778798081828384858687888990919293949596979899\00", comdat, align 16

@_ZN6hermes2vm6GCBase7GCCycleC1ERS1_NSt7__cxx1112basic_stringIcSt11char_traitsIcESaIcEEE = hidden unnamed_addr alias void (ptr, ptr, ptr), ptr @_ZN6hermes2vm6GCBase7GCCycleC2ERS1_NSt7__cxx1112basic_stringIcSt11char_traitsIcESaIcEEE
@_ZN6hermes2vm6GCBase7GCCycleD1Ev = hidden unnamed_addr alias void (ptr), ptr @_ZN6hermes2vm6GCBase7GCCycleD2Ev
@_ZN6hermes2vm6GCBase11GCCallbacksD1Ev = hidden unnamed_addr alias void (ptr), ptr @_ZN6hermes2vm6GCBase11GCCallbacksD2Ev
@_ZN6hermes2vm6GCBase9IDTrackerC1Ev = hidden unnamed_addr alias void (ptr), ptr @_ZN6hermes2vm6GCBase9IDTrackerC2Ev

; Function Attrs: mustprogress nounwind uwtable
define linkonce_odr hidden void @_ZN6hermes2vm19WeakAcceptorDefault10acceptWeakERNS0_12WeakRootBaseE(ptr noundef nonnull align 8 dereferenceable(24) %this, ptr noundef nonnull align 4 dereferenceable(4) %ptr) unnamed_addr #0 comdat align 2 {
entry:
  %this.addr = alloca ptr, align 8
  %ptr.addr = alloca ptr, align 8
  %p = alloca ptr, align 8
  %agg.tmp = alloca %"class.hermes::vm::CompressedPointer", align 4
  store ptr %this, ptr %this.addr, align 8
  store ptr %ptr, ptr %ptr.addr, align 8
  %this1 = load ptr, ptr %this.addr, align 8
  %0 = load ptr, ptr %ptr.addr, align 8
  %pointerBaseForWeakRoot_ = getelementptr inbounds %"class.hermes::vm::WeakAcceptorDefault", ptr %this1, i32 0, i32 2
  %1 = load ptr, ptr %pointerBaseForWeakRoot_, align 8
  %call = call noundef ptr @_ZNK6hermes2vm12WeakRootBase18getNoBarrierUnsafeERNS0_11PointerBaseE(ptr noundef nonnull align 4 dereferenceable(4) %0, ptr noundef nonnull align 1 dereferenceable(1) %1)
  store ptr %call, ptr %p, align 8
  %vtable = load ptr, ptr %this1, align 8
  %vfn = getelementptr inbounds ptr, ptr %vtable, i64 4
  %2 = load ptr, ptr %vfn, align 8
  call void %2(ptr noundef nonnull align 8 dereferenceable(24) %this1, ptr noundef nonnull align 8 dereferenceable(8) %p)
  %3 = load ptr, ptr %p, align 8
  %pointerBaseForWeakRoot_2 = getelementptr inbounds %"class.hermes::vm::WeakAcceptorDefault", ptr %this1, i32 0, i32 2
  %4 = load ptr, ptr %pointerBaseForWeakRoot_2, align 8
  %call3 = call i32 @_ZN6hermes2vm17CompressedPointer6encodeEPNS0_6GCCellERNS0_11PointerBaseE(ptr noundef %3, ptr noundef nonnull align 1 dereferenceable(1) %4)
  %coerce.dive = getelementptr inbounds %"class.hermes::vm::CompressedPointer", ptr %agg.tmp, i32 0, i32 0
  %coerce.dive4 = getelementptr inbounds %"class.hermes::vm::BasedPointer", ptr %coerce.dive, i32 0, i32 0
  store i32 %call3, ptr %coerce.dive4, align 4
  %5 = load ptr, ptr %ptr.addr, align 8
  %coerce.dive5 = getelementptr inbounds %"class.hermes::vm::CompressedPointer", ptr %agg.tmp, i32 0, i32 0
  %coerce.dive6 = getelementptr inbounds %"class.hermes::vm::BasedPointer", ptr %coerce.dive5, i32 0, i32 0
  %6 = load i32, ptr %coerce.dive6, align 4
  %call7 = call noundef nonnull align 4 dereferenceable(4) ptr @_ZN6hermes2vm12WeakRootBaseaSENS0_17CompressedPointerE(ptr noundef nonnull align 4 dereferenceable(4) %5, i32 %6)
  ret void
}

; Function Attrs: mustprogress nounwind uwtable
define linkonce_odr hidden noundef ptr @_ZNK6hermes2vm12WeakRootBase18getNoBarrierUnsafeERNS0_11PointerBaseE(ptr noundef nonnull align 4 dereferenceable(4) %this, ptr noundef nonnull align 1 dereferenceable(1) %base) #0 comdat align 2 {
entry:
  %this.addr = alloca ptr, align 8
  %base.addr = alloca ptr, align 8
  store ptr %this, ptr %this.addr, align 8
  store ptr %base, ptr %base.addr, align 8
  %this1 = load ptr, ptr %this.addr, align 8
  %0 = load ptr, ptr %base.addr, align 8
  %call = call noundef ptr @_ZNK6hermes2vm17CompressedPointer3getERNS0_11PointerBaseE(ptr noundef nonnull align 4 dereferenceable(4) %this1, ptr noundef nonnull align 1 dereferenceable(1) %0)
  ret ptr %call
}

; Function Attrs: mustprogress nounwind uwtable
define linkonce_odr hidden i32 @_ZN6hermes2vm17CompressedPointer6encodeEPNS0_6GCCellERNS0_11PointerBaseE(ptr noundef %ptr, ptr noundef nonnull align 1 dereferenceable(1) %base) #0 comdat align 2 {
entry:
  %retval = alloca %"class.hermes::vm::CompressedPointer", align 4
  %ptr.addr = alloca ptr, align 8
  %base.addr = alloca ptr, align 8
  %agg.tmp = alloca %"class.hermes::vm::BasedPointer", align 4
  store ptr %ptr, ptr %ptr.addr, align 8
  store ptr %base, ptr %base.addr, align 8
  %0 = load ptr, ptr %ptr.addr, align 8
  %1 = load ptr, ptr %base.addr, align 8
  %call = call i32 @_ZN6hermes2vm17CompressedPointer20pointerToStorageTypeEPNS0_6GCCellERNS0_11PointerBaseE(ptr noundef %0, ptr noundef nonnull align 1 dereferenceable(1) %1)
  %coerce.dive = getelementptr inbounds %"class.hermes::vm::BasedPointer", ptr %agg.tmp, i32 0, i32 0
  store i32 %call, ptr %coerce.dive, align 4
  %coerce.dive1 = getelementptr inbounds %"class.hermes::vm::BasedPointer", ptr %agg.tmp, i32 0, i32 0
  %2 = load i32, ptr %coerce.dive1, align 4
  call void @_ZN6hermes2vm17CompressedPointerC2ENS0_12BasedPointerE(ptr noundef nonnull align 4 dereferenceable(4) %retval, i32 %2)
  %coerce.dive2 = getelementptr inbounds %"class.hermes::vm::CompressedPointer", ptr %retval, i32 0, i32 0
  %coerce.dive3 = getelementptr inbounds %"class.hermes::vm::BasedPointer", ptr %coerce.dive2, i32 0, i32 0
  %3 = load i32, ptr %coerce.dive3, align 4
  ret i32 %3
}

; Function Attrs: mustprogress nounwind uwtable
define linkonce_odr hidden noundef nonnull align 4 dereferenceable(4) ptr @_ZN6hermes2vm12WeakRootBaseaSENS0_17CompressedPointerE(ptr noundef nonnull align 4 dereferenceable(4) %this, i32 %ptr.coerce) #0 comdat align 2 {
entry:
  %ptr = alloca %"class.hermes::vm::CompressedPointer", align 4
  %this.addr = alloca ptr, align 8
  %agg.tmp = alloca %"class.hermes::vm::CompressedPointer", align 4
  %coerce.dive = getelementptr inbounds %"class.hermes::vm::CompressedPointer", ptr %ptr, i32 0, i32 0
  %coerce.dive1 = getelementptr inbounds %"class.hermes::vm::BasedPointer", ptr %coerce.dive, i32 0, i32 0
  store i32 %ptr.coerce, ptr %coerce.dive1, align 4
  store ptr %this, ptr %this.addr, align 8
  %this2 = load ptr, ptr %this.addr, align 8
  call void @llvm.memcpy.p0.p0.i64(ptr align 4 %agg.tmp, ptr align 4 %ptr, i64 4, i1 false)
  %coerce.dive3 = getelementptr inbounds %"class.hermes::vm::CompressedPointer", ptr %agg.tmp, i32 0, i32 0
  %coerce.dive4 = getelementptr inbounds %"class.hermes::vm::BasedPointer", ptr %coerce.dive3, i32 0, i32 0
  %0 = load i32, ptr %coerce.dive4, align 4
  call void @_ZN6hermes2vm17CompressedPointer12setNoBarrierES1_(ptr noundef nonnull align 4 dereferenceable(4) %this2, i32 %0)
  ret ptr %this2
}

; Function Attrs: nounwind uwtable
define linkonce_odr hidden void @_ZThn8_N6hermes2vm19WeakAcceptorDefault10acceptWeakERNS0_12WeakRootBaseE(ptr noundef %this, ptr noundef nonnull align 4 dereferenceable(4) %ptr) unnamed_addr #1 comdat align 2 {
entry:
  %this.addr = alloca ptr, align 8
  %ptr.addr = alloca ptr, align 8
  store ptr %this, ptr %this.addr, align 8
  store ptr %ptr, ptr %ptr.addr, align 8
  %this1 = load ptr, ptr %this.addr, align 8
  %0 = getelementptr inbounds i8, ptr %this1, i64 -8
  %1 = load ptr, ptr %ptr.addr, align 8
  tail call void @_ZN6hermes2vm19WeakAcceptorDefault10acceptWeakERNS0_12WeakRootBaseE(ptr noundef nonnull align 8 dereferenceable(24) %0, ptr noundef nonnull align 4 dereferenceable(4) %1)
  ret void
}

; Function Attrs: mustprogress nounwind uwtable
define hidden void @_ZN6hermes2vm6GCBaseC2ERNS1_11GCCallbacksERNS0_11PointerBaseERKNS0_8GCConfigESt10shared_ptrINS0_12CrashManagerEENS1_8HeapKindE(ptr noundef nonnull align 8 dereferenceable(741) %this, ptr noundef nonnull align 8 dereferenceable(8) %gcCallbacks, ptr noundef nonnull align 1 dereferenceable(1) %pointerBase, ptr noundef nonnull align 8 dereferenceable(200) %gcConfig, ptr noundef %crashMgr, i32 noundef %kind) unnamed_addr #0 align 2 {
entry:
  %this.addr = alloca ptr, align 8
  %gcCallbacks.addr = alloca ptr, align 8
  %pointerBase.addr = alloca ptr, align 8
  %gcConfig.addr = alloca ptr, align 8
  %crashMgr.indirect_addr = alloca ptr, align 8
  %kind.addr = alloca i32, align 4
  %ref.tmp = alloca %"class.hermes::vm::GCTripwireConfig", align 8
  %ref.tmp2 = alloca %"class.hermes::vm::GCTripwireConfig", align 8
  %i = alloca i32, align 4
  %ref.tmp4 = alloca %"class.std::random_device", align 8
  %ref.tmp9 = alloca %"class.std::random_device", align 8
  store ptr %this, ptr %this.addr, align 8
  store ptr %gcCallbacks, ptr %gcCallbacks.addr, align 8
  store ptr %pointerBase, ptr %pointerBase.addr, align 8
  store ptr %gcConfig, ptr %gcConfig.addr, align 8
  store ptr %crashMgr, ptr %crashMgr.indirect_addr, align 8
  store i32 %kind, ptr %kind.addr, align 4
  %this1 = load ptr, ptr %this.addr, align 8
  store ptr getelementptr inbounds ({ [23 x ptr] }, ptr @_ZTVN6hermes2vm6GCBaseE, i32 0, inrange i32 0, i32 2), ptr %this1, align 8
  %numFinalizedObjects_ = getelementptr inbounds %"class.hermes::vm::GCBase", ptr %this1, i32 0, i32 1
  store i32 0, ptr %numFinalizedObjects_, align 8
  %totalAllocatedBytes_ = getelementptr inbounds %"class.hermes::vm::GCBase", ptr %this1, i32 0, i32 3
  store i64 0, ptr %totalAllocatedBytes_, align 8
  %gcCallbacks_ = getelementptr inbounds %"class.hermes::vm::GCBase", ptr %this1, i32 0, i32 6
  %0 = load ptr, ptr %gcCallbacks.addr, align 8
  store ptr %0, ptr %gcCallbacks_, align 8
  %pointerBase_ = getelementptr inbounds %"class.hermes::vm::GCBase", ptr %this1, i32 0, i32 7
  %1 = load ptr, ptr %pointerBase.addr, align 8
  store ptr %1, ptr %pointerBase_, align 8
  %crashMgr_ = getelementptr inbounds %"class.hermes::vm::GCBase", ptr %this1, i32 0, i32 8
  call void @_ZNSt10shared_ptrIN6hermes2vm12CrashManagerEEC2ERKS3_(ptr noundef nonnull align 8 dereferenceable(16) %crashMgr_, ptr noundef nonnull align 8 dereferenceable(16) %crashMgr) #14
  %heapKind_ = getelementptr inbounds %"class.hermes::vm::GCBase", ptr %this1, i32 0, i32 9
  %2 = load i32, ptr %kind.addr, align 4
  store i32 %2, ptr %heapKind_, align 8
  %analyticsCallback_ = getelementptr inbounds %"class.hermes::vm::GCBase", ptr %this1, i32 0, i32 11
  %3 = load ptr, ptr %gcConfig.addr, align 8
  call void @_ZNK6hermes2vm8GCConfig20getAnalyticsCallbackEv(ptr sret(%"class.std::function") align 8 %analyticsCallback_, ptr noundef nonnull align 8 dereferenceable(200) %3)
  %analyticsEvents_ = getelementptr inbounds %"class.hermes::vm::GCBase", ptr %this1, i32 0, i32 12
  call void @_ZNSt6vectorIN6hermes2vm16GCAnalyticsEventESaIS2_EEC2Ev(ptr noundef nonnull align 8 dereferenceable(24) %analyticsEvents_) #14
  %recordGcStats_ = getelementptr inbounds %"class.hermes::vm::GCBase", ptr %this1, i32 0, i32 13
  %4 = load ptr, ptr %gcConfig.addr, align 8
  %call = call noundef zeroext i1 @_ZNK6hermes2vm8GCConfig20getShouldRecordStatsEv(ptr noundef nonnull align 8 dereferenceable(200) %4)
  %frombool = zext i1 %call to i8
  store i8 %frombool, ptr %recordGcStats_, align 8
  %inGC_ = getelementptr inbounds %"class.hermes::vm::GCBase", ptr %this1, i32 0, i32 14
  store i8 0, ptr %inGC_, align 1
  %hasOOMed_ = getelementptr inbounds %"class.hermes::vm::GCBase", ptr %this1, i32 0, i32 15
  store i8 0, ptr %hasOOMed_, align 2
  %execStartTimeRecorded_ = getelementptr inbounds %"class.hermes::vm::GCBase", ptr %this1, i32 0, i32 16
  store i8 0, ptr %execStartTimeRecorded_, align 1
  %execStartTime_ = getelementptr inbounds %"class.hermes::vm::GCBase", ptr %this1, i32 0, i32 18
  call void @_ZNSt6chrono10time_pointINS_3_V212steady_clockENS_8durationIlSt5ratioILl1ELl1000000000EEEEEC2Ev(ptr noundef nonnull align 8 dereferenceable(8) %execStartTime_)
  %startNumVoluntaryContextSwitches_ = getelementptr inbounds %"class.hermes::vm::GCBase", ptr %this1, i32 0, i32 20
  store i64 0, ptr %startNumVoluntaryContextSwitches_, align 8
  %startNumInvoluntaryContextSwitches_ = getelementptr inbounds %"class.hermes::vm::GCBase", ptr %this1, i32 0, i32 21
  store i64 0, ptr %startNumInvoluntaryContextSwitches_, align 8
  %cumStats_ = getelementptr inbounds %"class.hermes::vm::GCBase", ptr %this1, i32 0, i32 22
  call void @_ZN6hermes2vm6GCBase19CumulativeHeapStatsC2Ev(ptr noundef nonnull align 8 dereferenceable(160) %cumStats_) #14
  %name_ = getelementptr inbounds %"class.hermes::vm::GCBase", ptr %this1, i32 0, i32 23
  %5 = load ptr, ptr %gcConfig.addr, align 8
  call void @_ZNK6hermes2vm8GCConfig7getNameB5cxx11Ev(ptr sret(%"class.std::__cxx11::basic_string") align 8 %name_, ptr noundef nonnull align 8 dereferenceable(200) %5)
  %weakSlots_ = getelementptr inbounds %"class.hermes::vm::GCBase", ptr %this1, i32 0, i32 24
  call void @_ZNSt5dequeIN6hermes2vm11WeakRefSlotESaIS2_EEC2Ev(ptr noundef nonnull align 8 dereferenceable(80) %weakSlots_)
  %firstFreeWeak_ = getelementptr inbounds %"class.hermes::vm::GCBase", ptr %this1, i32 0, i32 25
  store ptr null, ptr %firstFreeWeak_, align 8
  %weakRefMutex_ = getelementptr inbounds %"class.hermes::vm::GCBase", ptr %this1, i32 0, i32 26
  call void @_ZNSt15recursive_mutexC2Ev(ptr noundef nonnull align 8 dereferenceable(40) %weakRefMutex_) #14
  %idTracker_ = getelementptr inbounds %"class.hermes::vm::GCBase", ptr %this1, i32 0, i32 27
  call void @_ZN6hermes2vm6GCBase9IDTrackerC1Ev(ptr noundef nonnull align 8 dereferenceable(192) %idTracker_)
  %tripwireCallback_ = getelementptr inbounds %"class.hermes::vm::GCBase", ptr %this1, i32 0, i32 29
  %6 = load ptr, ptr %gcConfig.addr, align 8
  call void @_ZNK6hermes2vm8GCConfig17getTripwireConfigEv(ptr sret(%"class.hermes::vm::GCTripwireConfig") align 8 %ref.tmp, ptr noundef nonnull align 8 dereferenceable(200) %6)
  call void @_ZNK6hermes2vm16GCTripwireConfig11getCallbackEv(ptr sret(%"class.std::function.17") align 8 %tripwireCallback_, ptr noundef nonnull align 8 dereferenceable(40) %ref.tmp)
  call void @_ZN6hermes2vm16GCTripwireConfigD2Ev(ptr noundef nonnull align 8 dereferenceable(40) %ref.tmp) #14
  %tripwireLimit_ = getelementptr inbounds %"class.hermes::vm::GCBase", ptr %this1, i32 0, i32 30
  %7 = load ptr, ptr %gcConfig.addr, align 8
  call void @_ZNK6hermes2vm8GCConfig17getTripwireConfigEv(ptr sret(%"class.hermes::vm::GCTripwireConfig") align 8 %ref.tmp2, ptr noundef nonnull align 8 dereferenceable(200) %7)
  %call3 = call noundef i32 @_ZNK6hermes2vm16GCTripwireConfig8getLimitEv(ptr noundef nonnull align 8 dereferenceable(40) %ref.tmp2)
  call void @_ZN6hermes2vm16GCTripwireConfigD2Ev(ptr noundef nonnull align 8 dereferenceable(40) %ref.tmp2) #14
  store i32 %call3, ptr %tripwireLimit_, align 8
  %tripwireCalled_ = getelementptr inbounds %"class.hermes::vm::GCBase", ptr %this1, i32 0, i32 31
  store i8 0, ptr %tripwireCalled_, align 4
  store i32 0, ptr %i, align 4
  br label %for.cond

for.cond:                                         ; preds = %for.inc, %entry
  %8 = load i32, ptr %i, align 4
  %cmp = icmp ult i32 %8, 3
  br i1 %cmp, label %for.body, label %for.end

for.body:                                         ; preds = %for.cond
  call void @_ZNSt13random_deviceC2Ev(ptr noundef nonnull align 8 dereferenceable(5000) %ref.tmp4)
  %call5 = call noundef i32 @_ZNSt13random_deviceclEv(ptr noundef nonnull align 8 dereferenceable(5000) %ref.tmp4)
  %conv = zext i32 %call5 to i64
  %pointerEncryptionKey_ = getelementptr inbounds %"class.hermes::vm::GCBase", ptr %this1, i32 0, i32 28
  %9 = load i32, ptr %i, align 4
  %idxprom = zext i32 %9 to i64
  %arrayidx = getelementptr inbounds [3 x i64], ptr %pointerEncryptionKey_, i64 0, i64 %idxprom
  store i64 %conv, ptr %arrayidx, align 8
  call void @_ZNSt13random_deviceD2Ev(ptr noundef nonnull align 8 dereferenceable(5000) %ref.tmp4) #14
  %pointerEncryptionKey_6 = getelementptr inbounds %"class.hermes::vm::GCBase", ptr %this1, i32 0, i32 28
  %10 = load i32, ptr %i, align 4
  %idxprom7 = zext i32 %10 to i64
  %arrayidx8 = getelementptr inbounds [3 x i64], ptr %pointerEncryptionKey_6, i64 0, i64 %idxprom7
  %11 = load i64, ptr %arrayidx8, align 8
  %shl = shl i64 %11, 32
  call void @_ZNSt13random_deviceC2Ev(ptr noundef nonnull align 8 dereferenceable(5000) %ref.tmp9)
  %call10 = call noundef i32 @_ZNSt13random_deviceclEv(ptr noundef nonnull align 8 dereferenceable(5000) %ref.tmp9)
  %conv11 = zext i32 %call10 to i64
  %or = or i64 %shl, %conv11
  %pointerEncryptionKey_12 = getelementptr inbounds %"class.hermes::vm::GCBase", ptr %this1, i32 0, i32 28
  %12 = load i32, ptr %i, align 4
  %idxprom13 = zext i32 %12 to i64
  %arrayidx14 = getelementptr inbounds [3 x i64], ptr %pointerEncryptionKey_12, i64 0, i64 %idxprom13
  store i64 %or, ptr %arrayidx14, align 8
  call void @_ZNSt13random_deviceD2Ev(ptr noundef nonnull align 8 dereferenceable(5000) %ref.tmp9) #14
  br label %for.inc

for.inc:                                          ; preds = %for.body
  %13 = load i32, ptr %i, align 4
  %inc = add i32 %13, 1
  store i32 %inc, ptr %i, align 4
  br label %for.cond, !llvm.loop !4

for.end:                                          ; preds = %for.cond
  call void @_ZN6hermes2vm18buildMetadataTableEv()
  ret void
}

; Function Attrs: mustprogress nounwind uwtable
define linkonce_odr void @_ZNSt10shared_ptrIN6hermes2vm12CrashManagerEEC2ERKS3_(ptr noundef nonnull align 8 dereferenceable(16) %this, ptr noundef nonnull align 8 dereferenceable(16) %0) unnamed_addr #0 comdat align 2 {
entry:
  %this.addr = alloca ptr, align 8
  %.addr = alloca ptr, align 8
  store ptr %this, ptr %this.addr, align 8
  store ptr %0, ptr %.addr, align 8
  %this1 = load ptr, ptr %this.addr, align 8
  %1 = load ptr, ptr %.addr, align 8
  call void @_ZNSt12__shared_ptrIN6hermes2vm12CrashManagerELN9__gnu_cxx12_Lock_policyE2EEC2ERKS5_(ptr noundef nonnull align 8 dereferenceable(16) %this1, ptr noundef nonnull align 8 dereferenceable(16) %1) #14
  ret void
}

; Function Attrs: mustprogress nounwind uwtable
define linkonce_odr hidden void @_ZNK6hermes2vm8GCConfig20getAnalyticsCallbackEv(ptr noalias sret(%"class.std::function") align 8 %agg.result, ptr noundef nonnull align 8 dereferenceable(200) %this) #0 comdat align 2 {
entry:
  %result.ptr = alloca ptr, align 8
  %this.addr = alloca ptr, align 8
  store ptr %agg.result, ptr %result.ptr, align 8
  store ptr %this, ptr %this.addr, align 8
  %this1 = load ptr, ptr %this.addr, align 8
  %AnalyticsCallback_ = getelementptr inbounds %"class.hermes::vm::GCConfig", ptr %this1, i32 0, i32 14
  call void @_ZNSt8functionIFvRKN6hermes2vm16GCAnalyticsEventEEEC2ERKS6_(ptr noundef nonnull align 8 dereferenceable(32) %agg.result, ptr noundef nonnull align 8 dereferenceable(32) %AnalyticsCallback_)
  ret void
}

; Function Attrs: mustprogress nounwind uwtable
define linkonce_odr hidden void @_ZNSt6vectorIN6hermes2vm16GCAnalyticsEventESaIS2_EEC2Ev(ptr noundef nonnull align 8 dereferenceable(24) %this) unnamed_addr #0 comdat align 2 {
entry:
  %this.addr = alloca ptr, align 8
  store ptr %this, ptr %this.addr, align 8
  %this1 = load ptr, ptr %this.addr, align 8
  call void @_ZNSt12_Vector_baseIN6hermes2vm16GCAnalyticsEventESaIS2_EEC2Ev(ptr noundef nonnull align 8 dereferenceable(24) %this1) #14
  ret void
}

; Function Attrs: mustprogress nounwind uwtable
define linkonce_odr hidden noundef zeroext i1 @_ZNK6hermes2vm8GCConfig20getShouldRecordStatsEv(ptr noundef nonnull align 8 dereferenceable(200) %this) #0 comdat align 2 {
entry:
  %this.addr = alloca ptr, align 8
  store ptr %this, ptr %this.addr, align 8
  %this1 = load ptr, ptr %this.addr, align 8
  %ShouldRecordStats_ = getelementptr inbounds %"class.hermes::vm::GCConfig", ptr %this1, i32 0, i32 6
  %0 = load i8, ptr %ShouldRecordStats_, align 8
  %tobool = trunc i8 %0 to i1
  ret i1 %tobool
}

; Function Attrs: mustprogress nounwind uwtable
define linkonce_odr void @_ZNSt6chrono10time_pointINS_3_V212steady_clockENS_8durationIlSt5ratioILl1ELl1000000000EEEEEC2Ev(ptr noundef nonnull align 8 dereferenceable(8) %this) unnamed_addr #0 comdat align 2 {
entry:
  %this.addr = alloca ptr, align 8
  store ptr %this, ptr %this.addr, align 8
  %this1 = load ptr, ptr %this.addr, align 8
  %__d = getelementptr inbounds %"class.std::chrono::time_point", ptr %this1, i32 0, i32 0
  %call = call i64 @_ZNSt6chrono8durationIlSt5ratioILl1ELl1000000000EEE4zeroEv() #14
  %coerce.dive = getelementptr inbounds %"class.std::chrono::duration", ptr %__d, i32 0, i32 0
  store i64 %call, ptr %coerce.dive, align 8
  ret void
}

; Function Attrs: mustprogress nounwind uwtable
define linkonce_odr hidden void @_ZN6hermes2vm6GCBase19CumulativeHeapStatsC2Ev(ptr noundef nonnull align 8 dereferenceable(160) %this) unnamed_addr #0 comdat align 2 {
entry:
  %this.addr = alloca ptr, align 8
  store ptr %this, ptr %this.addr, align 8
  %this1 = load ptr, ptr %this.addr, align 8
  %numCollections = getelementptr inbounds %"struct.hermes::vm::GCBase::CumulativeHeapStats", ptr %this1, i32 0, i32 0
  store i32 0, ptr %numCollections, align 8
  %gcWallTime = getelementptr inbounds %"struct.hermes::vm::GCBase::CumulativeHeapStats", ptr %this1, i32 0, i32 1
  call void @_ZN6hermes16StatsAccumulatorIddEC2Ev(ptr noundef nonnull align 8 dereferenceable(40) %gcWallTime) #14
  %gcCPUTime = getelementptr inbounds %"struct.hermes::vm::GCBase::CumulativeHeapStats", ptr %this1, i32 0, i32 2
  call void @_ZN6hermes16StatsAccumulatorIddEC2Ev(ptr noundef nonnull align 8 dereferenceable(40) %gcCPUTime) #14
  %finalHeapSize = getelementptr inbounds %"struct.hermes::vm::GCBase::CumulativeHeapStats", ptr %this1, i32 0, i32 3
  store i32 0, ptr %finalHeapSize, align 8
  %usedBefore = getelementptr inbounds %"struct.hermes::vm::GCBase::CumulativeHeapStats", ptr %this1, i32 0, i32 4
  call void @_ZN6hermes16StatsAccumulatorIjmEC2Ev(ptr noundef nonnull align 8 dereferenceable(32) %usedBefore) #14
  %usedAfter = getelementptr inbounds %"struct.hermes::vm::GCBase::CumulativeHeapStats", ptr %this1, i32 0, i32 5
  call void @_ZN6hermes16StatsAccumulatorIjmEC2Ev(ptr noundef nonnull align 8 dereferenceable(32) %usedAfter) #14
  ret void
}

; Function Attrs: mustprogress nounwind uwtable
define linkonce_odr hidden void @_ZNK6hermes2vm8GCConfig7getNameB5cxx11Ev(ptr noalias sret(%"class.std::__cxx11::basic_string") align 8 %agg.result, ptr noundef nonnull align 8 dereferenceable(200) %this) #0 comdat align 2 {
entry:
  %result.ptr = alloca ptr, align 8
  %this.addr = alloca ptr, align 8
  store ptr %agg.result, ptr %result.ptr, align 8
  store ptr %this, ptr %this.addr, align 8
  %this1 = load ptr, ptr %this.addr, align 8
  %Name_ = getelementptr inbounds %"class.hermes::vm::GCConfig", ptr %this1, i32 0, i32 8
  call void @_ZNSt7__cxx1112basic_stringIcSt11char_traitsIcESaIcEEC1ERKS4_(ptr noundef nonnull align 8 dereferenceable(32) %agg.result, ptr noundef nonnull align 8 dereferenceable(32) %Name_)
  ret void
}

; Function Attrs: mustprogress nounwind uwtable
define linkonce_odr hidden void @_ZNSt5dequeIN6hermes2vm11WeakRefSlotESaIS2_EEC2Ev(ptr noundef nonnull align 8 dereferenceable(80) %this) unnamed_addr #0 comdat align 2 {
entry:
  %this.addr = alloca ptr, align 8
  store ptr %this, ptr %this.addr, align 8
  %this1 = load ptr, ptr %this.addr, align 8
  call void @_ZNSt11_Deque_baseIN6hermes2vm11WeakRefSlotESaIS2_EEC2Ev(ptr noundef nonnull align 8 dereferenceable(80) %this1)
  ret void
}

; Function Attrs: mustprogress nounwind uwtable
define linkonce_odr void @_ZNSt15recursive_mutexC2Ev(ptr noundef nonnull align 8 dereferenceable(40) %this) unnamed_addr #0 comdat align 2 {
entry:
  %this.addr = alloca ptr, align 8
  store ptr %this, ptr %this.addr, align 8
  %this1 = load ptr, ptr %this.addr, align 8
  call void @_ZNSt22__recursive_mutex_baseC2Ev(ptr noundef nonnull align 8 dereferenceable(40) %this1) #14
  ret void
}

; Function Attrs: mustprogress nounwind uwtable
define linkonce_odr hidden void @_ZNK6hermes2vm8GCConfig17getTripwireConfigEv(ptr noalias sret(%"class.hermes::vm::GCTripwireConfig") align 8 %agg.result, ptr noundef nonnull align 8 dereferenceable(200) %this) #0 comdat align 2 {
entry:
  %result.ptr = alloca ptr, align 8
  %this.addr = alloca ptr, align 8
  store ptr %agg.result, ptr %result.ptr, align 8
  store ptr %this, ptr %this.addr, align 8
  %this1 = load ptr, ptr %this.addr, align 8
  %TripwireConfig_ = getelementptr inbounds %"class.hermes::vm::GCConfig", ptr %this1, i32 0, i32 9
  call void @_ZN6hermes2vm16GCTripwireConfigC2ERKS1_(ptr noundef nonnull align 8 dereferenceable(40) %agg.result, ptr noundef nonnull align 8 dereferenceable(40) %TripwireConfig_)
  ret void
}

; Function Attrs: mustprogress nounwind uwtable
define linkonce_odr hidden void @_ZNK6hermes2vm16GCTripwireConfig11getCallbackEv(ptr noalias sret(%"class.std::function.17") align 8 %agg.result, ptr noundef nonnull align 8 dereferenceable(40) %this) #0 comdat align 2 {
entry:
  %result.ptr = alloca ptr, align 8
  %this.addr = alloca ptr, align 8
  store ptr %agg.result, ptr %result.ptr, align 8
  store ptr %this, ptr %this.addr, align 8
  %this1 = load ptr, ptr %this.addr, align 8
  %Callback_ = getelementptr inbounds %"class.hermes::vm::GCTripwireConfig", ptr %this1, i32 0, i32 1
  call void @_ZNSt8functionIFvRN6hermes2vm17GCTripwireContextEEEC2ERKS5_(ptr noundef nonnull align 8 dereferenceable(32) %agg.result, ptr noundef nonnull align 8 dereferenceable(32) %Callback_)
  ret void
}

; Function Attrs: mustprogress nounwind uwtable
define linkonce_odr hidden void @_ZN6hermes2vm16GCTripwireConfigD2Ev(ptr noundef nonnull align 8 dereferenceable(40) %this) unnamed_addr #0 comdat align 2 {
entry:
  %this.addr = alloca ptr, align 8
  store ptr %this, ptr %this.addr, align 8
  %this1 = load ptr, ptr %this.addr, align 8
  %Callback_ = getelementptr inbounds %"class.hermes::vm::GCTripwireConfig", ptr %this1, i32 0, i32 1
  call void @_ZNSt8functionIFvRN6hermes2vm17GCTripwireContextEEED2Ev(ptr noundef nonnull align 8 dereferenceable(32) %Callback_) #14
  ret void
}

; Function Attrs: mustprogress nounwind uwtable
define linkonce_odr hidden noundef i32 @_ZNK6hermes2vm16GCTripwireConfig8getLimitEv(ptr noundef nonnull align 8 dereferenceable(40) %this) #0 comdat align 2 {
entry:
  %this.addr = alloca ptr, align 8
  store ptr %this, ptr %this.addr, align 8
  %this1 = load ptr, ptr %this.addr, align 8
  %Limit_ = getelementptr inbounds %"class.hermes::vm::GCTripwireConfig", ptr %this1, i32 0, i32 0
  %0 = load i32, ptr %Limit_, align 8
  ret i32 %0
}

; Function Attrs: mustprogress nounwind uwtable
define linkonce_odr void @_ZNSt13random_deviceC2Ev(ptr noundef nonnull align 8 dereferenceable(5000) %this) unnamed_addr #0 comdat align 2 {
entry:
  %this.addr = alloca ptr, align 8
  %ref.tmp = alloca %"class.std::__cxx11::basic_string", align 8
  %ref.tmp2 = alloca %"class.std::allocator.2", align 1
  store ptr %this, ptr %this.addr, align 8
  %this1 = load ptr, ptr %this.addr, align 8
  call void @_ZNSaIcEC1Ev(ptr noundef nonnull align 1 dereferenceable(1) %ref.tmp2) #14
  call void @_ZNSt7__cxx1112basic_stringIcSt11char_traitsIcESaIcEEC2IS3_EEPKcRKS3_(ptr noundef nonnull align 8 dereferenceable(32) %ref.tmp, ptr noundef @.str.61, ptr noundef nonnull align 1 dereferenceable(1) %ref.tmp2)
  call void @_ZNSt13random_device7_M_initERKNSt7__cxx1112basic_stringIcSt11char_traitsIcESaIcEEE(ptr noundef nonnull align 8 dereferenceable(5000) %this1, ptr noundef nonnull align 8 dereferenceable(32) %ref.tmp)
  call void @_ZNSt7__cxx1112basic_stringIcSt11char_traitsIcESaIcEED1Ev(ptr noundef nonnull align 8 dereferenceable(32) %ref.tmp) #14
  call void @_ZNSaIcED1Ev(ptr noundef nonnull align 1 dereferenceable(1) %ref.tmp2) #14
  ret void
}

; Function Attrs: mustprogress nounwind uwtable
define linkonce_odr noundef i32 @_ZNSt13random_deviceclEv(ptr noundef nonnull align 8 dereferenceable(5000) %this) #0 comdat align 2 {
entry:
  %this.addr = alloca ptr, align 8
  store ptr %this, ptr %this.addr, align 8
  %this1 = load ptr, ptr %this.addr, align 8
  %call = call noundef i32 @_ZNSt13random_device9_M_getvalEv(ptr noundef nonnull align 8 dereferenceable(5000) %this1)
  ret i32 %call
}

; Function Attrs: mustprogress nounwind uwtable
define linkonce_odr void @_ZNSt13random_deviceD2Ev(ptr noundef nonnull align 8 dereferenceable(5000) %this) unnamed_addr #0 comdat align 2 {
entry:
  %this.addr = alloca ptr, align 8
  store ptr %this, ptr %this.addr, align 8
  %this1 = load ptr, ptr %this.addr, align 8
  call void @_ZNSt13random_device7_M_finiEv(ptr noundef nonnull align 8 dereferenceable(5000) %this1)
  ret void
}

declare void @_ZN6hermes2vm18buildMetadataTableEv() #2

; Function Attrs: mustprogress nounwind uwtable
define hidden void @_ZN6hermes2vm6GCBase7GCCycleC2ERS1_NSt7__cxx1112basic_stringIcSt11char_traitsIcESaIcEEE(ptr noundef nonnull align 8 dereferenceable(48) %this, ptr noundef nonnull align 8 dereferenceable(741) %gc, ptr noundef %extraInfo) unnamed_addr #0 align 2 {
entry:
  %this.addr = alloca ptr, align 8
  %gc.addr = alloca ptr, align 8
  %extraInfo.indirect_addr = alloca ptr, align 8
  store ptr %this, ptr %this.addr, align 8
  store ptr %gc, ptr %gc.addr, align 8
  store ptr %extraInfo, ptr %extraInfo.indirect_addr, align 8
  %this1 = load ptr, ptr %this.addr, align 8
  %gc_ = getelementptr inbounds %"class.hermes::vm::GCBase::GCCycle", ptr %this1, i32 0, i32 0
  %0 = load ptr, ptr %gc.addr, align 8
  store ptr %0, ptr %gc_, align 8
  %extraInfo_ = getelementptr inbounds %"class.hermes::vm::GCBase::GCCycle", ptr %this1, i32 0, i32 1
  call void @_ZNSt7__cxx1112basic_stringIcSt11char_traitsIcESaIcEEC1EOS4_(ptr noundef nonnull align 8 dereferenceable(32) %extraInfo_, ptr noundef nonnull align 8 dereferenceable(32) %extraInfo) #14
  %previousInGC_ = getelementptr inbounds %"class.hermes::vm::GCBase::GCCycle", ptr %this1, i32 0, i32 2
  %gc_2 = getelementptr inbounds %"class.hermes::vm::GCBase::GCCycle", ptr %this1, i32 0, i32 0
  %1 = load ptr, ptr %gc_2, align 8
  %inGC_ = getelementptr inbounds %"class.hermes::vm::GCBase", ptr %1, i32 0, i32 14
  %2 = load i8, ptr %inGC_, align 1
  %tobool = trunc i8 %2 to i1
  %frombool = zext i1 %tobool to i8
  store i8 %frombool, ptr %previousInGC_, align 8
  %previousInGC_3 = getelementptr inbounds %"class.hermes::vm::GCBase::GCCycle", ptr %this1, i32 0, i32 2
  %3 = load i8, ptr %previousInGC_3, align 8
  %tobool4 = trunc i8 %3 to i1
  br i1 %tobool4, label %if.end, label %if.then

if.then:                                          ; preds = %entry
  %gc_5 = getelementptr inbounds %"class.hermes::vm::GCBase::GCCycle", ptr %this1, i32 0, i32 0
  %4 = load ptr, ptr %gc_5, align 8
  %call = call noundef nonnull align 8 dereferenceable(8) ptr @_ZNK6hermes2vm6GCBase12getCallbacksEv(ptr noundef nonnull align 8 dereferenceable(741) %4)
  %extraInfo_6 = getelementptr inbounds %"class.hermes::vm::GCBase::GCCycle", ptr %this1, i32 0, i32 1
  %vtable = load ptr, ptr %call, align 8
  %vfn = getelementptr inbounds ptr, ptr %vtable, i64 13
  %5 = load ptr, ptr %vfn, align 8
  call void %5(ptr noundef nonnull align 8 dereferenceable(8) %call, i32 noundef 0, ptr noundef nonnull align 8 dereferenceable(32) %extraInfo_6)
  %gc_7 = getelementptr inbounds %"class.hermes::vm::GCBase::GCCycle", ptr %this1, i32 0, i32 0
  %6 = load ptr, ptr %gc_7, align 8
  %inGC_8 = getelementptr inbounds %"class.hermes::vm::GCBase", ptr %6, i32 0, i32 14
  store i8 1, ptr %inGC_8, align 1
  br label %if.end

if.end:                                           ; preds = %if.then, %entry
  ret void
}

; Function Attrs: nounwind
declare void @_ZNSt7__cxx1112basic_stringIcSt11char_traitsIcESaIcEEC1EOS4_(ptr noundef nonnull align 8 dereferenceable(32), ptr noundef nonnull align 8 dereferenceable(32)) unnamed_addr #3

; Function Attrs: mustprogress nounwind uwtable
define linkonce_odr hidden noundef nonnull align 8 dereferenceable(8) ptr @_ZNK6hermes2vm6GCBase12getCallbacksEv(ptr noundef nonnull align 8 dereferenceable(741) %this) #0 comdat align 2 {
entry:
  %this.addr = alloca ptr, align 8
  store ptr %this, ptr %this.addr, align 8
  %this1 = load ptr, ptr %this.addr, align 8
  %gcCallbacks_ = getelementptr inbounds %"class.hermes::vm::GCBase", ptr %this1, i32 0, i32 6
  %0 = load ptr, ptr %gcCallbacks_, align 8
  ret ptr %0
}

; Function Attrs: mustprogress nounwind uwtable
define hidden void @_ZN6hermes2vm6GCBase7GCCycleD2Ev(ptr noundef nonnull align 8 dereferenceable(48) %this) unnamed_addr #0 align 2 {
entry:
  %this.addr = alloca ptr, align 8
  store ptr %this, ptr %this.addr, align 8
  %this1 = load ptr, ptr %this.addr, align 8
  %previousInGC_ = getelementptr inbounds %"class.hermes::vm::GCBase::GCCycle", ptr %this1, i32 0, i32 2
  %0 = load i8, ptr %previousInGC_, align 8
  %tobool = trunc i8 %0 to i1
  br i1 %tobool, label %if.end, label %if.then

if.then:                                          ; preds = %entry
  %gc_ = getelementptr inbounds %"class.hermes::vm::GCBase::GCCycle", ptr %this1, i32 0, i32 0
  %1 = load ptr, ptr %gc_, align 8
  %inGC_ = getelementptr inbounds %"class.hermes::vm::GCBase", ptr %1, i32 0, i32 14
  store i8 0, ptr %inGC_, align 1
  %gc_2 = getelementptr inbounds %"class.hermes::vm::GCBase::GCCycle", ptr %this1, i32 0, i32 0
  %2 = load ptr, ptr %gc_2, align 8
  %call = call noundef nonnull align 8 dereferenceable(8) ptr @_ZNK6hermes2vm6GCBase12getCallbacksEv(ptr noundef nonnull align 8 dereferenceable(741) %2)
  %extraInfo_ = getelementptr inbounds %"class.hermes::vm::GCBase::GCCycle", ptr %this1, i32 0, i32 1
  %vtable = load ptr, ptr %call, align 8
  %vfn = getelementptr inbounds ptr, ptr %vtable, i64 13
  %3 = load ptr, ptr %vfn, align 8
  call void %3(ptr noundef nonnull align 8 dereferenceable(8) %call, i32 noundef 1, ptr noundef nonnull align 8 dereferenceable(32) %extraInfo_)
  br label %if.end

if.end:                                           ; preds = %if.then, %entry
  %extraInfo_3 = getelementptr inbounds %"class.hermes::vm::GCBase::GCCycle", ptr %this1, i32 0, i32 1
  call void @_ZNSt7__cxx1112basic_stringIcSt11char_traitsIcESaIcEED1Ev(ptr noundef nonnull align 8 dereferenceable(32) %extraInfo_3) #14
  ret void
}

; Function Attrs: nounwind
declare void @_ZNSt7__cxx1112basic_stringIcSt11char_traitsIcESaIcEED1Ev(ptr noundef nonnull align 8 dereferenceable(32)) unnamed_addr #3

; Function Attrs: mustprogress nounwind uwtable
define hidden void @_ZN6hermes2vm6GCBase18runtimeWillExecuteEv(ptr noundef nonnull align 8 dereferenceable(741) %this) #0 align 2 {
entry:
  %this.addr = alloca ptr, align 8
  %ref.tmp = alloca %"class.std::chrono::time_point", align 8
  %ref.tmp4 = alloca %"class.std::chrono::duration.0", align 8
  store ptr %this, ptr %this.addr, align 8
  %this1 = load ptr, ptr %this.addr, align 8
  %recordGcStats_ = getelementptr inbounds %"class.hermes::vm::GCBase", ptr %this1, i32 0, i32 13
  %0 = load i8, ptr %recordGcStats_, align 8
  %tobool = trunc i8 %0 to i1
  br i1 %tobool, label %land.lhs.true, label %if.end

land.lhs.true:                                    ; preds = %entry
  %execStartTimeRecorded_ = getelementptr inbounds %"class.hermes::vm::GCBase", ptr %this1, i32 0, i32 16
  %1 = load i8, ptr %execStartTimeRecorded_, align 1
  %tobool2 = trunc i8 %1 to i1
  br i1 %tobool2, label %if.end, label %if.then

if.then:                                          ; preds = %land.lhs.true
  %call = call i64 @_ZNSt6chrono3_V212steady_clock3nowEv() #14
  %coerce.dive = getelementptr inbounds %"class.std::chrono::time_point", ptr %ref.tmp, i32 0, i32 0
  %coerce.dive3 = getelementptr inbounds %"class.std::chrono::duration", ptr %coerce.dive, i32 0, i32 0
  store i64 %call, ptr %coerce.dive3, align 8
  %execStartTime_ = getelementptr inbounds %"class.hermes::vm::GCBase", ptr %this1, i32 0, i32 18
  call void @llvm.memcpy.p0.p0.i64(ptr align 8 %execStartTime_, ptr align 8 %ref.tmp, i64 8, i1 false)
  %call5 = call i64 @_ZN6hermes8oscompat15thread_cpu_timeEv()
  %coerce.dive6 = getelementptr inbounds %"class.std::chrono::duration.0", ptr %ref.tmp4, i32 0, i32 0
  store i64 %call5, ptr %coerce.dive6, align 8
  %execStartCPUTime_ = getelementptr inbounds %"class.hermes::vm::GCBase", ptr %this1, i32 0, i32 19
  call void @llvm.memcpy.p0.p0.i64(ptr align 8 %execStartCPUTime_, ptr align 8 %ref.tmp4, i64 8, i1 false)
  %startNumVoluntaryContextSwitches_ = getelementptr inbounds %"class.hermes::vm::GCBase", ptr %this1, i32 0, i32 20
  %startNumInvoluntaryContextSwitches_ = getelementptr inbounds %"class.hermes::vm::GCBase", ptr %this1, i32 0, i32 21
  %call7 = call noundef zeroext i1 @_ZN6hermes8oscompat20num_context_switchesERlS1_(ptr noundef nonnull align 8 dereferenceable(8) %startNumVoluntaryContextSwitches_, ptr noundef nonnull align 8 dereferenceable(8) %startNumInvoluntaryContextSwitches_)
  %execStartTimeRecorded_8 = getelementptr inbounds %"class.hermes::vm::GCBase", ptr %this1, i32 0, i32 16
  store i8 1, ptr %execStartTimeRecorded_8, align 1
  br label %if.end

if.end:                                           ; preds = %if.then, %land.lhs.true, %entry
  ret void
}

; Function Attrs: nounwind
declare i64 @_ZNSt6chrono3_V212steady_clock3nowEv() #3

; Function Attrs: nocallback nofree nounwind willreturn memory(argmem: readwrite)
declare void @llvm.memcpy.p0.p0.i64(ptr noalias nocapture writeonly, ptr noalias nocapture readonly, i64, i1 immarg) #4

declare i64 @_ZN6hermes8oscompat15thread_cpu_timeEv() #2

declare noundef zeroext i1 @_ZN6hermes8oscompat20num_context_switchesERlS1_(ptr noundef nonnull align 8 dereferenceable(8), ptr noundef nonnull align 8 dereferenceable(8)) #2

; Function Attrs: mustprogress nounwind uwtable
define hidden void @_ZN6hermes2vm6GCBase13checkTripwireEm(ptr noundef nonnull align 8 dereferenceable(741) %this, i64 noundef %dataSize) #0 align 2 {
entry:
  %this.addr = alloca ptr, align 8
  %dataSize.addr = alloca i64, align 8
  %ctx = alloca %class.Ctx, align 8
  store ptr %this, ptr %this.addr, align 8
  store i64 %dataSize, ptr %dataSize.addr, align 8
  %this1 = load ptr, ptr %this.addr, align 8
  %tripwireCallback_ = getelementptr inbounds %"class.hermes::vm::GCBase", ptr %this1, i32 0, i32 29
  %call = call noundef zeroext i1 @_ZNKSt8functionIFvRN6hermes2vm17GCTripwireContextEEEcvbEv(ptr noundef nonnull align 8 dereferenceable(32) %tripwireCallback_) #14
  %lnot = xor i1 %call, true
  br i1 %lnot, label %if.then, label %lor.lhs.false

lor.lhs.false:                                    ; preds = %entry
  %0 = load i64, ptr %dataSize.addr, align 8
  %tripwireLimit_ = getelementptr inbounds %"class.hermes::vm::GCBase", ptr %this1, i32 0, i32 30
  %1 = load i32, ptr %tripwireLimit_, align 8
  %conv = zext i32 %1 to i64
  %cmp = icmp ult i64 %0, %conv
  br i1 %cmp, label %if.then, label %lor.lhs.false3

lor.lhs.false3:                                   ; preds = %lor.lhs.false
  %tripwireCalled_ = getelementptr inbounds %"class.hermes::vm::GCBase", ptr %this1, i32 0, i32 31
  %2 = load i8, ptr %tripwireCalled_, align 4
  %tobool = trunc i8 %2 to i1
  br i1 %tobool, label %if.then, label %if.end

if.then:                                          ; preds = %lor.lhs.false3, %lor.lhs.false, %entry
  br label %return

if.end:                                           ; preds = %lor.lhs.false3
  call void @_ZZN6hermes2vm6GCBase13checkTripwireEmEN3CtxC2Ev(ptr noundef nonnull align 8 dereferenceable(8) %ctx) #14
  %tripwireCalled_4 = getelementptr inbounds %"class.hermes::vm::GCBase", ptr %this1, i32 0, i32 31
  store i8 1, ptr %tripwireCalled_4, align 4
  %tripwireCallback_5 = getelementptr inbounds %"class.hermes::vm::GCBase", ptr %this1, i32 0, i32 29
  call void @_ZNKSt8functionIFvRN6hermes2vm17GCTripwireContextEEEclES3_(ptr noundef nonnull align 8 dereferenceable(32) %tripwireCallback_5, ptr noundef nonnull align 8 dereferenceable(8) %ctx)
  call void @_ZZN6hermes2vm6GCBase13checkTripwireEmEN3CtxD2Ev(ptr noundef nonnull align 8 dereferenceable(8) %ctx) #14
  br label %return

return:                                           ; preds = %if.end, %if.then
  ret void
}

; Function Attrs: mustprogress nounwind uwtable
define linkonce_odr noundef zeroext i1 @_ZNKSt8functionIFvRN6hermes2vm17GCTripwireContextEEEcvbEv(ptr noundef nonnull align 8 dereferenceable(32) %this) #0 comdat align 2 {
entry:
  %this.addr = alloca ptr, align 8
  store ptr %this, ptr %this.addr, align 8
  %this1 = load ptr, ptr %this.addr, align 8
  %call = call noundef zeroext i1 @_ZNKSt14_Function_base8_M_emptyEv(ptr noundef nonnull align 8 dereferenceable(24) %this1)
  %lnot = xor i1 %call, true
  ret i1 %lnot
}

; Function Attrs: mustprogress nounwind uwtable
define internal void @_ZZN6hermes2vm6GCBase13checkTripwireEmEN3CtxC2Ev(ptr noundef nonnull align 8 dereferenceable(8) %this) unnamed_addr #0 align 2 {
entry:
  %this.addr = alloca ptr, align 8
  store ptr %this, ptr %this.addr, align 8
  %this1 = load ptr, ptr %this.addr, align 8
  call void @_ZN6hermes2vm17GCTripwireContextC2Ev(ptr noundef nonnull align 8 dereferenceable(8) %this1) #14
  store ptr getelementptr inbounds ({ [6 x ptr] }, ptr @_ZTVZN6hermes2vm6GCBase13checkTripwireEmE3Ctx, i32 0, inrange i32 0, i32 2), ptr %this1, align 8
  ret void
}

; Function Attrs: mustprogress nounwind uwtable
define linkonce_odr void @_ZNKSt8functionIFvRN6hermes2vm17GCTripwireContextEEEclES3_(ptr noundef nonnull align 8 dereferenceable(32) %this, ptr noundef nonnull align 8 dereferenceable(8) %__args) #0 comdat align 2 {
entry:
  %this.addr = alloca ptr, align 8
  %__args.addr = alloca ptr, align 8
  store ptr %this, ptr %this.addr, align 8
  store ptr %__args, ptr %__args.addr, align 8
  %this1 = load ptr, ptr %this.addr, align 8
  %call = call noundef zeroext i1 @_ZNKSt14_Function_base8_M_emptyEv(ptr noundef nonnull align 8 dereferenceable(24) %this1)
  br i1 %call, label %if.then, label %if.end

if.then:                                          ; preds = %entry
  call void @_ZSt25__throw_bad_function_callv() #15
  unreachable

if.end:                                           ; preds = %entry
  %_M_invoker = getelementptr inbounds %"class.std::function.17", ptr %this1, i32 0, i32 1
  %0 = load ptr, ptr %_M_invoker, align 8
  %_M_functor = getelementptr inbounds %"class.std::_Function_base", ptr %this1, i32 0, i32 0
  %1 = load ptr, ptr %__args.addr, align 8
  call void %0(ptr noundef nonnull align 8 dereferenceable(16) %_M_functor, ptr noundef nonnull align 8 dereferenceable(8) %1)
  ret void
}

; Function Attrs: mustprogress nounwind uwtable
define internal void @_ZZN6hermes2vm6GCBase13checkTripwireEmEN3CtxD2Ev(ptr noundef nonnull align 8 dereferenceable(8) %this) unnamed_addr #0 align 2 {
entry:
  %this.addr = alloca ptr, align 8
  store ptr %this, ptr %this.addr, align 8
  %this1 = load ptr, ptr %this.addr, align 8
  call void @_ZN6hermes2vm17GCTripwireContextD2Ev(ptr noundef nonnull align 8 dereferenceable(8) %this1) #14
  ret void
}

; Function Attrs: mustprogress nounwind uwtable
define hidden void @_ZN6hermes2vm6GCBase22printAllCollectedStatsERN4llvh11raw_ostreamE(ptr noundef nonnull align 8 dereferenceable(741) %this, ptr noundef nonnull align 8 dereferenceable(36) %os) #0 align 2 {
entry:
  %this.addr = alloca ptr, align 8
  %os.addr = alloca ptr, align 8
  %json = alloca %"class.hermes::JSONEmitter", align 8
  store ptr %this, ptr %this.addr, align 8
  store ptr %os, ptr %os.addr, align 8
  %this1 = load ptr, ptr %this.addr, align 8
  %recordGcStats_ = getelementptr inbounds %"class.hermes::vm::GCBase", ptr %this1, i32 0, i32 13
  %0 = load i8, ptr %recordGcStats_, align 8
  %tobool = trunc i8 %0 to i1
  br i1 %tobool, label %if.end, label %if.then

if.then:                                          ; preds = %entry
  br label %return

if.end:                                           ; preds = %entry
  %1 = load ptr, ptr %os.addr, align 8
  %vtable = load ptr, ptr %this1, align 8
  %vfn = getelementptr inbounds ptr, ptr %vtable, i64 9
  %2 = load ptr, ptr %vfn, align 8
  call void %2(ptr noundef nonnull align 8 dereferenceable(741) %this1, ptr noundef nonnull align 8 dereferenceable(36) %1, i1 noundef zeroext false)
  %3 = load ptr, ptr %os.addr, align 8
  %call = call noundef nonnull align 8 dereferenceable(36) ptr @_ZN4llvh11raw_ostreamlsEPKc(ptr noundef nonnull align 8 dereferenceable(36) %3, ptr noundef @.str)
  %4 = load ptr, ptr %os.addr, align 8
  call void @_ZN6hermes11JSONEmitterC2ERN4llvh11raw_ostreamEb(ptr noundef nonnull align 8 dereferenceable(72) %json, ptr noundef nonnull align 8 dereferenceable(36) %4, i1 noundef zeroext true)
  call void @_ZN6hermes11JSONEmitter8openDictEv(ptr noundef nonnull align 8 dereferenceable(72) %json)
  %vtable2 = load ptr, ptr %this1, align 8
  %vfn3 = getelementptr inbounds ptr, ptr %vtable2, i64 19
  %5 = load ptr, ptr %vfn3, align 8
  call void %5(ptr noundef nonnull align 8 dereferenceable(741) %this1, ptr noundef nonnull align 8 dereferenceable(72) %json)
  call void @_ZN6hermes11JSONEmitter9closeDictEv(ptr noundef nonnull align 8 dereferenceable(72) %json)
  %6 = load ptr, ptr %os.addr, align 8
  %call4 = call noundef nonnull align 8 dereferenceable(36) ptr @_ZN4llvh11raw_ostreamlsEPKc(ptr noundef nonnull align 8 dereferenceable(36) %6, ptr noundef @.str.1)
  call void @_ZN6hermes11JSONEmitterD2Ev(ptr noundef nonnull align 8 dereferenceable(72) %json) #14
  br label %return

return:                                           ; preds = %if.end, %if.then
  ret void
}

; Function Attrs: mustprogress nounwind uwtable
define linkonce_odr hidden noundef nonnull align 8 dereferenceable(36) ptr @_ZN4llvh11raw_ostreamlsEPKc(ptr noundef nonnull align 8 dereferenceable(36) %this, ptr noundef %Str) #0 comdat align 2 {
entry:
  %this.addr.i = alloca ptr, align 8
  %Str.addr.i = alloca ptr, align 8
  %this.addr = alloca ptr, align 8
  %Str.addr = alloca ptr, align 8
  %agg.tmp = alloca %"class.llvh::StringRef", align 8
  store ptr %this, ptr %this.addr, align 8
  store ptr %Str, ptr %Str.addr, align 8
  %this1 = load ptr, ptr %this.addr, align 8
  %0 = load ptr, ptr %Str.addr, align 8
  store ptr %agg.tmp, ptr %this.addr.i, align 8
  store ptr %0, ptr %Str.addr.i, align 8
  %this1.i = load ptr, ptr %this.addr.i, align 8
  %1 = load ptr, ptr %Str.addr.i, align 8
  store ptr %1, ptr %this1.i, align 8
  %Length.i = getelementptr inbounds %"class.llvh::StringRef", ptr %this1.i, i32 0, i32 1
  %2 = load ptr, ptr %Str.addr.i, align 8
  %tobool.i = icmp ne ptr %2, null
  br i1 %tobool.i, label %cond.true.i, label %cond.false.i

cond.true.i:                                      ; preds = %entry
  %3 = load ptr, ptr %Str.addr.i, align 8
  %call.i = call i64 @strlen(ptr noundef %3) #16
  br label %_ZN4llvh9StringRefC2EPKc.exit

cond.false.i:                                     ; preds = %entry
  br label %_ZN4llvh9StringRefC2EPKc.exit

_ZN4llvh9StringRefC2EPKc.exit:                    ; preds = %cond.false.i, %cond.true.i
  %cond.i = phi i64 [ %call.i, %cond.true.i ], [ 0, %cond.false.i ]
  store i64 %cond.i, ptr %Length.i, align 8
  %4 = getelementptr inbounds { ptr, i64 }, ptr %agg.tmp, i32 0, i32 0
  %5 = load ptr, ptr %4, align 8
  %6 = getelementptr inbounds { ptr, i64 }, ptr %agg.tmp, i32 0, i32 1
  %7 = load i64, ptr %6, align 8
  %call = call noundef nonnull align 8 dereferenceable(36) ptr @_ZN4llvh11raw_ostreamlsENS_9StringRefE(ptr noundef nonnull align 8 dereferenceable(36) %this1, ptr %5, i64 %7)
  ret ptr %call
}

; Function Attrs: mustprogress nounwind uwtable
define linkonce_odr hidden void @_ZN6hermes11JSONEmitterC2ERN4llvh11raw_ostreamEb(ptr noundef nonnull align 8 dereferenceable(72) %this, ptr noundef nonnull align 8 dereferenceable(36) %OS, i1 noundef zeroext %pretty) unnamed_addr #0 comdat align 2 {
entry:
  %this.addr = alloca ptr, align 8
  %OS.addr = alloca ptr, align 8
  %pretty.addr = alloca i8, align 1
  store ptr %this, ptr %this.addr, align 8
  store ptr %OS, ptr %OS.addr, align 8
  %frombool = zext i1 %pretty to i8
  store i8 %frombool, ptr %pretty.addr, align 1
  %this1 = load ptr, ptr %this.addr, align 8
  %states_ = getelementptr inbounds %"class.hermes::JSONEmitter", ptr %this1, i32 0, i32 0
  call void @_ZN4llvh11SmallVectorIN6hermes11JSONEmitter5StateELj8EEC2Ev(ptr noundef nonnull align 8 dereferenceable(56) %states_)
  %OS2 = getelementptr inbounds %"class.hermes::JSONEmitter", ptr %this1, i32 0, i32 1
  %0 = load ptr, ptr %OS.addr, align 8
  store ptr %0, ptr %OS2, align 8
  %pretty_ = getelementptr inbounds %"class.hermes::JSONEmitter", ptr %this1, i32 0, i32 2
  %1 = load i8, ptr %pretty.addr, align 1
  %tobool = trunc i8 %1 to i1
  %frombool3 = zext i1 %tobool to i8
  store i8 %frombool3, ptr %pretty_, align 8
  %indent_ = getelementptr inbounds %"class.hermes::JSONEmitter", ptr %this1, i32 0, i32 3
  store i32 0, ptr %indent_, align 4
  ret void
}

declare void @_ZN6hermes11JSONEmitter8openDictEv(ptr noundef nonnull align 8 dereferenceable(72)) #2

declare void @_ZN6hermes11JSONEmitter9closeDictEv(ptr noundef nonnull align 8 dereferenceable(72)) #2

; Function Attrs: mustprogress nounwind uwtable
define linkonce_odr hidden void @_ZN6hermes11JSONEmitterD2Ev(ptr noundef nonnull align 8 dereferenceable(72) %this) unnamed_addr #0 comdat align 2 {
entry:
  %this.addr = alloca ptr, align 8
  store ptr %this, ptr %this.addr, align 8
  %this1 = load ptr, ptr %this.addr, align 8
  %states_ = getelementptr inbounds %"class.hermes::JSONEmitter", ptr %this1, i32 0, i32 0
  call void @_ZN4llvh11SmallVectorIN6hermes11JSONEmitter5StateELj8EED2Ev(ptr noundef nonnull align 8 dereferenceable(56) %states_) #14
  ret void
}

; Function Attrs: mustprogress nounwind uwtable
define hidden void @_ZN6hermes2vm6GCBase11getHeapInfoERNS1_8HeapInfoE(ptr noundef nonnull align 8 dereferenceable(741) %this, ptr noundef nonnull align 8 dereferenceable(384) %info) unnamed_addr #0 align 2 {
entry:
  %this.addr = alloca ptr, align 8
  %info.addr = alloca ptr, align 8
  store ptr %this, ptr %this.addr, align 8
  store ptr %info, ptr %info.addr, align 8
  %this1 = load ptr, ptr %this.addr, align 8
  %cumStats_ = getelementptr inbounds %"class.hermes::vm::GCBase", ptr %this1, i32 0, i32 22
  %numCollections = getelementptr inbounds %"struct.hermes::vm::GCBase::CumulativeHeapStats", ptr %cumStats_, i32 0, i32 0
  %0 = load i32, ptr %numCollections, align 8
  %1 = load ptr, ptr %info.addr, align 8
  %numCollections2 = getelementptr inbounds %"struct.hermes::vm::GCBase::HeapInfo", ptr %1, i32 0, i32 0
  store i32 %0, ptr %numCollections2, align 8
  ret void
}

; Function Attrs: mustprogress nounwind uwtable
define hidden void @_ZN6hermes2vm6GCBase25getHeapInfoWithMallocSizeERNS1_8HeapInfoE(ptr noundef nonnull align 8 dereferenceable(741) %this, ptr noundef nonnull align 8 dereferenceable(384) %info) unnamed_addr #0 align 2 {
entry:
  %this.addr = alloca ptr, align 8
  %info.addr = alloca ptr, align 8
  store ptr %this, ptr %this.addr, align 8
  store ptr %info, ptr %info.addr, align 8
  %this1 = load ptr, ptr %this.addr, align 8
  %weakSlots_ = getelementptr inbounds %"class.hermes::vm::GCBase", ptr %this1, i32 0, i32 24
  %call = call noundef i64 @_ZNKSt5dequeIN6hermes2vm11WeakRefSlotESaIS2_EE4sizeEv(ptr noundef nonnull align 8 dereferenceable(80) %weakSlots_) #14
  %mul = mul i64 %call, 16
  %conv = trunc i64 %mul to i32
  %0 = load ptr, ptr %info.addr, align 8
  %mallocSizeEstimate = getelementptr inbounds %"struct.hermes::vm::GCBase::HeapInfo", ptr %0, i32 0, i32 4
  store i32 %conv, ptr %mallocSizeEstimate, align 8
  ret void
}

; Function Attrs: mustprogress nounwind uwtable
define linkonce_odr hidden noundef i64 @_ZNKSt5dequeIN6hermes2vm11WeakRefSlotESaIS2_EE4sizeEv(ptr noundef nonnull align 8 dereferenceable(80) %this) #0 comdat align 2 {
entry:
  %this.addr = alloca ptr, align 8
  store ptr %this, ptr %this.addr, align 8
  %this1 = load ptr, ptr %this.addr, align 8
  %_M_impl = getelementptr inbounds %"class.std::_Deque_base", ptr %this1, i32 0, i32 0
  %_M_finish = getelementptr inbounds %"struct.std::_Deque_base<hermes::vm::WeakRefSlot, std::allocator<hermes::vm::WeakRefSlot>>::_Deque_impl_data", ptr %_M_impl, i32 0, i32 3
  %_M_impl2 = getelementptr inbounds %"class.std::_Deque_base", ptr %this1, i32 0, i32 0
  %_M_start = getelementptr inbounds %"struct.std::_Deque_base<hermes::vm::WeakRefSlot, std::allocator<hermes::vm::WeakRefSlot>>::_Deque_impl_data", ptr %_M_impl2, i32 0, i32 2
  %call = call noundef i64 @_ZStmiRKSt15_Deque_iteratorIN6hermes2vm11WeakRefSlotERS2_PS2_ES7_(ptr noundef nonnull align 8 dereferenceable(32) %_M_finish, ptr noundef nonnull align 8 dereferenceable(32) %_M_start) #14
  ret i64 %call
}

; Function Attrs: mustprogress nounwind uwtable
define hidden void @_ZN6hermes2vm6GCBase4dumpERN4llvh11raw_ostreamEb(ptr noundef nonnull align 8 dereferenceable(741) %this, ptr noundef nonnull align 8 dereferenceable(36) %0, i1 noundef zeroext %1) unnamed_addr #0 align 2 {
entry:
  %this.addr = alloca ptr, align 8
  %.addr = alloca ptr, align 8
  %.addr1 = alloca i8, align 1
  store ptr %this, ptr %this.addr, align 8
  store ptr %0, ptr %.addr, align 8
  %frombool = zext i1 %1 to i8
  store i8 %frombool, ptr %.addr1, align 1
  ret void
}

; Function Attrs: mustprogress nounwind uwtable
define hidden void @_ZN6hermes2vm6GCBase10printStatsERNS_11JSONEmitterE(ptr noundef nonnull align 8 dereferenceable(741) %this, ptr noundef nonnull align 8 dereferenceable(72) %json) unnamed_addr #0 align 2 {
entry:
  %this.addr.i565 = alloca ptr, align 8
  %Str.addr.i566 = alloca ptr, align 8
  %this.addr.i555 = alloca ptr, align 8
  %Str.addr.i556 = alloca ptr, align 8
  %this.addr.i545 = alloca ptr, align 8
  %Str.addr.i546 = alloca ptr, align 8
  %this.addr.i535 = alloca ptr, align 8
  %Str.addr.i536 = alloca ptr, align 8
  %this.addr.i525 = alloca ptr, align 8
  %Str.addr.i526 = alloca ptr, align 8
  %this.addr.i515 = alloca ptr, align 8
  %Str.addr.i516 = alloca ptr, align 8
  %this.addr.i505 = alloca ptr, align 8
  %Str.addr.i506 = alloca ptr, align 8
  %this.addr.i495 = alloca ptr, align 8
  %Str.addr.i496 = alloca ptr, align 8
  %this.addr.i485 = alloca ptr, align 8
  %Str.addr.i486 = alloca ptr, align 8
  %this.addr.i475 = alloca ptr, align 8
  %Str.addr.i476 = alloca ptr, align 8
  %this.addr.i465 = alloca ptr, align 8
  %Str.addr.i466 = alloca ptr, align 8
  %this.addr.i455 = alloca ptr, align 8
  %Str.addr.i456 = alloca ptr, align 8
  %this.addr.i445 = alloca ptr, align 8
  %Str.addr.i446 = alloca ptr, align 8
  %this.addr.i435 = alloca ptr, align 8
  %Str.addr.i436 = alloca ptr, align 8
  %this.addr.i425 = alloca ptr, align 8
  %Str.addr.i426 = alloca ptr, align 8
  %this.addr.i415 = alloca ptr, align 8
  %Str.addr.i416 = alloca ptr, align 8
  %this.addr.i405 = alloca ptr, align 8
  %Str.addr.i406 = alloca ptr, align 8
  %this.addr.i395 = alloca ptr, align 8
  %Str.addr.i396 = alloca ptr, align 8
  %this.addr.i385 = alloca ptr, align 8
  %Str.addr.i386 = alloca ptr, align 8
  %this.addr.i375 = alloca ptr, align 8
  %Str.addr.i376 = alloca ptr, align 8
  %this.addr.i365 = alloca ptr, align 8
  %Str.addr.i366 = alloca ptr, align 8
  %this.addr.i355 = alloca ptr, align 8
  %Str.addr.i356 = alloca ptr, align 8
  %this.addr.i345 = alloca ptr, align 8
  %Str.addr.i346 = alloca ptr, align 8
  %this.addr.i335 = alloca ptr, align 8
  %Str.addr.i336 = alloca ptr, align 8
  %this.addr.i325 = alloca ptr, align 8
  %Str.addr.i326 = alloca ptr, align 8
  %this.addr.i315 = alloca ptr, align 8
  %Str.addr.i316 = alloca ptr, align 8
  %this.addr.i305 = alloca ptr, align 8
  %Str.addr.i306 = alloca ptr, align 8
  %this.addr.i295 = alloca ptr, align 8
  %Str.addr.i296 = alloca ptr, align 8
  %this.addr.i285 = alloca ptr, align 8
  %Str.addr.i286 = alloca ptr, align 8
  %this.addr.i275 = alloca ptr, align 8
  %Str.addr.i276 = alloca ptr, align 8
  %this.addr.i265 = alloca ptr, align 8
  %Str.addr.i266 = alloca ptr, align 8
  %this.addr.i255 = alloca ptr, align 8
  %Str.addr.i256 = alloca ptr, align 8
  %this.addr.i245 = alloca ptr, align 8
  %Str.addr.i246 = alloca ptr, align 8
  %this.addr.i235 = alloca ptr, align 8
  %Str.addr.i236 = alloca ptr, align 8
  %this.addr.i225 = alloca ptr, align 8
  %Str.addr.i226 = alloca ptr, align 8
  %this.addr.i215 = alloca ptr, align 8
  %Str.addr.i216 = alloca ptr, align 8
  %this.addr.i205 = alloca ptr, align 8
  %Str.addr.i206 = alloca ptr, align 8
  %this.addr.i195 = alloca ptr, align 8
  %Str.addr.i196 = alloca ptr, align 8
  %this.addr.i185 = alloca ptr, align 8
  %Str.addr.i186 = alloca ptr, align 8
  %this.addr.i175 = alloca ptr, align 8
  %Str.addr.i176 = alloca ptr, align 8
  %this.addr.i165 = alloca ptr, align 8
  %Str.addr.i166 = alloca ptr, align 8
  %this.addr.i = alloca ptr, align 8
  %Str.addr.i = alloca ptr, align 8
  %this.addr = alloca ptr, align 8
  %json.addr = alloca ptr, align 8
  %agg.tmp = alloca %"class.llvh::StringRef", align 8
  %agg.tmp2 = alloca %"class.llvh::StringRef", align 8
  %ref.tmp = alloca i32, align 4
  %elapsedTime = alloca %"class.std::chrono::duration.23", align 8
  %ref.tmp3 = alloca %"class.std::chrono::duration", align 8
  %ref.tmp4 = alloca %"class.std::chrono::time_point", align 8
  %elapsedCPUSeconds = alloca double, align 8
  %ref.tmp8 = alloca %"class.std::chrono::duration.23", align 8
  %ref.tmp9 = alloca %"class.std::chrono::duration.0", align 8
  %ref.tmp15 = alloca %"class.std::chrono::duration.23", align 8
  %info = alloca %"struct.hermes::vm::GCBase::HeapInfo", align 8
  %agg.tmp23 = alloca %"class.llvh::StringRef", align 8
  %agg.tmp24 = alloca %"class.llvh::StringRef", align 8
  %ref.tmp25 = alloca i64, align 8
  %agg.tmp27 = alloca %"class.llvh::StringRef", align 8
  %ref.tmp28 = alloca i64, align 8
  %agg.tmp30 = alloca %"class.llvh::StringRef", align 8
  %ref.tmp31 = alloca i64, align 8
  %agg.tmp33 = alloca %"class.llvh::StringRef", align 8
  %agg.tmp34 = alloca %"class.llvh::StringRef", align 8
  %agg.tmp35 = alloca %"class.llvh::StringRef", align 8
  %agg.tmp36 = alloca %"class.llvh::StringRef", align 8
  %vol = alloca i64, align 8
  %invol = alloca i64, align 8
  %agg.tmp40 = alloca %"class.llvh::StringRef", align 8
  %agg.tmp41 = alloca %"class.llvh::StringRef", align 8
  %agg.tmp43 = alloca %"class.llvh::StringRef", align 8
  %ref.tmp44 = alloca double, align 8
  %agg.tmp46 = alloca %"class.llvh::StringRef", align 8
  %agg.tmp47 = alloca %"class.llvh::StringRef", align 8
  %ref.tmp48 = alloca %"struct.hermes::vm::DurationFormatObj", align 8
  %agg.tmp53 = alloca %"class.llvh::StringRef", align 8
  %agg.tmp54 = alloca %"class.llvh::StringRef", align 8
  %agg.tmp55 = alloca %"class.llvh::StringRef", align 8
  %ref.tmp56 = alloca %"struct.hermes::vm::DurationFormatObj", align 8
  %agg.tmp63 = alloca %"class.llvh::StringRef", align 8
  %ref.tmp64 = alloca %"struct.hermes::vm::DurationFormatObj", align 8
  %agg.tmp71 = alloca %"class.llvh::StringRef", align 8
  %ref.tmp72 = alloca %"struct.hermes::vm::DurationFormatObj", align 8
  %agg.tmp78 = alloca %"class.llvh::StringRef", align 8
  %ref.tmp79 = alloca %"struct.hermes::vm::DurationFormatObj", align 8
  %agg.tmp86 = alloca %"class.llvh::StringRef", align 8
  %ref.tmp87 = alloca %"struct.hermes::vm::DurationFormatObj", align 8
  %agg.tmp94 = alloca %"class.llvh::StringRef", align 8
  %ref.tmp95 = alloca %"struct.hermes::vm::SizeFormatObj", align 8
  %agg.tmp99 = alloca %"class.llvh::StringRef", align 8
  %ref.tmp100 = alloca %"struct.hermes::vm::SizeFormatObj", align 8
  %agg.tmp107 = alloca %"class.llvh::StringRef", align 8
  %ref.tmp108 = alloca %"struct.hermes::vm::SizeFormatObj", align 8
  %agg.tmp115 = alloca %"class.llvh::StringRef", align 8
  %ref.tmp116 = alloca %"struct.hermes::vm::SizeFormatObj", align 8
  %agg.tmp120 = alloca %"class.llvh::StringRef", align 8
  %__range2 = alloca ptr, align 8
  %__begin2 = alloca %"class.__gnu_cxx::__normal_iterator", align 8
  %__end2 = alloca %"class.__gnu_cxx::__normal_iterator", align 8
  %event = alloca ptr, align 8
  %agg.tmp127 = alloca %"class.llvh::StringRef", align 8
  %agg.tmp128 = alloca %"class.llvh::StringRef", align 8
  %agg.tmp129 = alloca %"class.llvh::StringRef", align 8
  %agg.tmp130 = alloca %"class.llvh::StringRef", align 8
  %agg.tmp131 = alloca %"class.llvh::StringRef", align 8
  %ref.tmp132 = alloca i64, align 8
  %agg.tmp134 = alloca %"class.llvh::StringRef", align 8
  %ref.tmp135 = alloca i64, align 8
  %agg.tmp137 = alloca %"class.llvh::StringRef", align 8
  %agg.tmp138 = alloca %"class.llvh::StringRef", align 8
  %agg.tmp140 = alloca %"class.llvh::StringRef", align 8
  %agg.tmp142 = alloca %"class.llvh::StringRef", align 8
  %agg.tmp145 = alloca %"class.llvh::StringRef", align 8
  %agg.tmp147 = alloca %"class.llvh::StringRef", align 8
  %agg.tmp150 = alloca %"class.llvh::StringRef", align 8
  %agg.tmp151 = alloca %"class.llvh::StringRef", align 8
  %__range3 = alloca ptr, align 8
  %__begin3 = alloca %"class.__gnu_cxx::__normal_iterator.30", align 8
  %__end3 = alloca %"class.__gnu_cxx::__normal_iterator.30", align 8
  %tag = alloca ptr, align 8
  %agg.tmp160 = alloca %"class.llvh::StringRef", align 8
  store ptr %this, ptr %this.addr, align 8
  store ptr %json, ptr %json.addr, align 8
  %this1 = load ptr, ptr %this.addr, align 8
  %0 = load ptr, ptr %json.addr, align 8
  store ptr %agg.tmp, ptr %this.addr.i, align 8
  store ptr @.str.2, ptr %Str.addr.i, align 8
  %this1.i = load ptr, ptr %this.addr.i, align 8
  %1 = load ptr, ptr %Str.addr.i, align 8
  store ptr %1, ptr %this1.i, align 8
  %Length.i = getelementptr inbounds %"class.llvh::StringRef", ptr %this1.i, i32 0, i32 1
  %2 = load ptr, ptr %Str.addr.i, align 8
  %tobool.i = icmp ne ptr %2, null
  br i1 %tobool.i, label %cond.true.i, label %cond.false.i

cond.true.i:                                      ; preds = %entry
  %3 = load ptr, ptr %Str.addr.i, align 8
  %call.i = call i64 @strlen(ptr noundef %3) #16
  br label %_ZN4llvh9StringRefC2EPKc.exit

cond.false.i:                                     ; preds = %entry
  br label %_ZN4llvh9StringRefC2EPKc.exit

_ZN4llvh9StringRefC2EPKc.exit:                    ; preds = %cond.false.i, %cond.true.i
  %cond.i = phi i64 [ %call.i, %cond.true.i ], [ 0, %cond.false.i ]
  store i64 %cond.i, ptr %Length.i, align 8
  %4 = getelementptr inbounds { ptr, i64 }, ptr %agg.tmp, i32 0, i32 0
  %5 = load ptr, ptr %4, align 8
  %6 = getelementptr inbounds { ptr, i64 }, ptr %agg.tmp, i32 0, i32 1
  %7 = load i64, ptr %6, align 8
  call void @_ZN6hermes11JSONEmitter12emitKeyValueIA7_cEEvN4llvh9StringRefERKT_(ptr noundef nonnull align 8 dereferenceable(72) %0, ptr %5, i64 %7, ptr noundef nonnull align 1 dereferenceable(7) @.str.3)
  %8 = load ptr, ptr %json.addr, align 8
  store ptr %agg.tmp2, ptr %this.addr.i165, align 8
  store ptr @.str.4, ptr %Str.addr.i166, align 8
  %this1.i167 = load ptr, ptr %this.addr.i165, align 8
  %9 = load ptr, ptr %Str.addr.i166, align 8
  store ptr %9, ptr %this1.i167, align 8
  %Length.i168 = getelementptr inbounds %"class.llvh::StringRef", ptr %this1.i167, i32 0, i32 1
  %10 = load ptr, ptr %Str.addr.i166, align 8
  %tobool.i169 = icmp ne ptr %10, null
  br i1 %tobool.i169, label %cond.true.i172, label %cond.false.i170

cond.true.i172:                                   ; preds = %_ZN4llvh9StringRefC2EPKc.exit
  %11 = load ptr, ptr %Str.addr.i166, align 8
  %call.i173 = call i64 @strlen(ptr noundef %11) #16
  br label %_ZN4llvh9StringRefC2EPKc.exit174

cond.false.i170:                                  ; preds = %_ZN4llvh9StringRefC2EPKc.exit
  br label %_ZN4llvh9StringRefC2EPKc.exit174

_ZN4llvh9StringRefC2EPKc.exit174:                 ; preds = %cond.false.i170, %cond.true.i172
  %cond.i171 = phi i64 [ %call.i173, %cond.true.i172 ], [ 0, %cond.false.i170 ]
  store i64 %cond.i171, ptr %Length.i168, align 8
  store i32 0, ptr %ref.tmp, align 4
  %12 = getelementptr inbounds { ptr, i64 }, ptr %agg.tmp2, i32 0, i32 0
  %13 = load ptr, ptr %12, align 8
  %14 = getelementptr inbounds { ptr, i64 }, ptr %agg.tmp2, i32 0, i32 1
  %15 = load i64, ptr %14, align 8
  call void @_ZN6hermes11JSONEmitter12emitKeyValueIiEEvN4llvh9StringRefERKT_(ptr noundef nonnull align 8 dereferenceable(72) %8, ptr %13, i64 %15, ptr noundef nonnull align 4 dereferenceable(4) %ref.tmp)
  %gcCallbacks_ = getelementptr inbounds %"class.hermes::vm::GCBase", ptr %this1, i32 0, i32 6
  %16 = load ptr, ptr %gcCallbacks_, align 8
  %17 = load ptr, ptr %json.addr, align 8
  %vtable = load ptr, ptr %16, align 8
  %vfn = getelementptr inbounds ptr, ptr %vtable, i64 8
  %18 = load ptr, ptr %vfn, align 8
  call void %18(ptr noundef nonnull align 8 dereferenceable(8) %16, ptr noundef nonnull align 8 dereferenceable(72) %17)
  %call = call i64 @_ZNSt6chrono3_V212steady_clock3nowEv() #14
  %coerce.dive = getelementptr inbounds %"class.std::chrono::time_point", ptr %ref.tmp4, i32 0, i32 0
  %coerce.dive5 = getelementptr inbounds %"class.std::chrono::duration", ptr %coerce.dive, i32 0, i32 0
  store i64 %call, ptr %coerce.dive5, align 8
  %execStartTime_ = getelementptr inbounds %"class.hermes::vm::GCBase", ptr %this1, i32 0, i32 18
  %call6 = call i64 @_ZNSt6chronomiINS_3_V212steady_clockENS_8durationIlSt5ratioILl1ELl1000000000EEEES6_EENSt11common_typeIJT0_T1_EE4typeERKNS_10time_pointIT_S8_EERKNSC_ISD_S9_EE(ptr noundef nonnull align 8 dereferenceable(8) %ref.tmp4, ptr noundef nonnull align 8 dereferenceable(8) %execStartTime_)
  %coerce.dive7 = getelementptr inbounds %"class.std::chrono::duration", ptr %ref.tmp3, i32 0, i32 0
  store i64 %call6, ptr %coerce.dive7, align 8
  call void @_ZNSt6chrono8durationIdSt5ratioILl1ELl1EEEC2IlS1_ILl1ELl1000000000EEvEERKNS0_IT_T0_EE(ptr noundef nonnull align 8 dereferenceable(8) %elapsedTime, ptr noundef nonnull align 8 dereferenceable(8) %ref.tmp3)
  %call10 = call i64 @_ZN6hermes8oscompat15thread_cpu_timeEv()
  %coerce.dive11 = getelementptr inbounds %"class.std::chrono::duration.0", ptr %ref.tmp9, i32 0, i32 0
  store i64 %call10, ptr %coerce.dive11, align 8
  %call12 = call double @_ZNSt6chrono13duration_castINS_8durationIdSt5ratioILl1ELl1EEEElS2_ILl1ELl1000000EEEENSt9enable_ifIXsr13__is_durationIT_EE5valueES7_E4typeERKNS1_IT0_T1_EE(ptr noundef nonnull align 8 dereferenceable(8) %ref.tmp9)
  %coerce.dive13 = getelementptr inbounds %"class.std::chrono::duration.23", ptr %ref.tmp8, i32 0, i32 0
  store double %call12, ptr %coerce.dive13, align 8
  %call14 = call noundef double @_ZNKSt6chrono8durationIdSt5ratioILl1ELl1EEE5countEv(ptr noundef nonnull align 8 dereferenceable(8) %ref.tmp8)
  %execStartCPUTime_ = getelementptr inbounds %"class.hermes::vm::GCBase", ptr %this1, i32 0, i32 19
  %call16 = call double @_ZNSt6chrono13duration_castINS_8durationIdSt5ratioILl1ELl1EEEElS2_ILl1ELl1000000EEEENSt9enable_ifIXsr13__is_durationIT_EE5valueES7_E4typeERKNS1_IT0_T1_EE(ptr noundef nonnull align 8 dereferenceable(8) %execStartCPUTime_)
  %coerce.dive17 = getelementptr inbounds %"class.std::chrono::duration.23", ptr %ref.tmp15, i32 0, i32 0
  store double %call16, ptr %coerce.dive17, align 8
  %call18 = call noundef double @_ZNKSt6chrono8durationIdSt5ratioILl1ELl1EEE5countEv(ptr noundef nonnull align 8 dereferenceable(8) %ref.tmp15)
  %sub = fsub double %call14, %call18
  store double %sub, ptr %elapsedCPUSeconds, align 8
  call void @_ZN6hermes2vm6GCBase8HeapInfoC2Ev(ptr noundef nonnull align 8 dereferenceable(384) %info) #14
  %vtable19 = load ptr, ptr %this1, align 8
  %vfn20 = getelementptr inbounds ptr, ptr %vtable19, i64 7
  %19 = load ptr, ptr %vfn20, align 8
  call void %19(ptr noundef nonnull align 8 dereferenceable(741) %this1, ptr noundef nonnull align 8 dereferenceable(384) %info)
  %vtable21 = load ptr, ptr %this1, align 8
  %vfn22 = getelementptr inbounds ptr, ptr %vtable21, i64 6
  %20 = load ptr, ptr %vfn22, align 8
  call void %20(ptr noundef nonnull align 8 dereferenceable(741) %this1, ptr noundef nonnull align 8 dereferenceable(384) %info)
  %21 = load ptr, ptr %json.addr, align 8
  store ptr %agg.tmp23, ptr %this.addr.i175, align 8
  store ptr @.str.5, ptr %Str.addr.i176, align 8
  %this1.i177 = load ptr, ptr %this.addr.i175, align 8
  %22 = load ptr, ptr %Str.addr.i176, align 8
  store ptr %22, ptr %this1.i177, align 8
  %Length.i178 = getelementptr inbounds %"class.llvh::StringRef", ptr %this1.i177, i32 0, i32 1
  %23 = load ptr, ptr %Str.addr.i176, align 8
  %tobool.i179 = icmp ne ptr %23, null
  br i1 %tobool.i179, label %cond.true.i182, label %cond.false.i180

cond.true.i182:                                   ; preds = %_ZN4llvh9StringRefC2EPKc.exit174
  %24 = load ptr, ptr %Str.addr.i176, align 8
  %call.i183 = call i64 @strlen(ptr noundef %24) #16
  br label %_ZN4llvh9StringRefC2EPKc.exit184

cond.false.i180:                                  ; preds = %_ZN4llvh9StringRefC2EPKc.exit174
  br label %_ZN4llvh9StringRefC2EPKc.exit184

_ZN4llvh9StringRefC2EPKc.exit184:                 ; preds = %cond.false.i180, %cond.true.i182
  %cond.i181 = phi i64 [ %call.i183, %cond.true.i182 ], [ 0, %cond.false.i180 ]
  store i64 %cond.i181, ptr %Length.i178, align 8
  %25 = getelementptr inbounds { ptr, i64 }, ptr %agg.tmp23, i32 0, i32 0
  %26 = load ptr, ptr %25, align 8
  %27 = getelementptr inbounds { ptr, i64 }, ptr %agg.tmp23, i32 0, i32 1
  %28 = load i64, ptr %27, align 8
  call void @_ZN6hermes11JSONEmitter7emitKeyEN4llvh9StringRefE(ptr noundef nonnull align 8 dereferenceable(72) %21, ptr %26, i64 %28)
  %29 = load ptr, ptr %json.addr, align 8
  call void @_ZN6hermes11JSONEmitter8openDictEv(ptr noundef nonnull align 8 dereferenceable(72) %29)
  %30 = load ptr, ptr %json.addr, align 8
  store ptr %agg.tmp24, ptr %this.addr.i185, align 8
  store ptr @.str.6, ptr %Str.addr.i186, align 8
  %this1.i187 = load ptr, ptr %this.addr.i185, align 8
  %31 = load ptr, ptr %Str.addr.i186, align 8
  store ptr %31, ptr %this1.i187, align 8
  %Length.i188 = getelementptr inbounds %"class.llvh::StringRef", ptr %this1.i187, i32 0, i32 1
  %32 = load ptr, ptr %Str.addr.i186, align 8
  %tobool.i189 = icmp ne ptr %32, null
  br i1 %tobool.i189, label %cond.true.i192, label %cond.false.i190

cond.true.i192:                                   ; preds = %_ZN4llvh9StringRefC2EPKc.exit184
  %33 = load ptr, ptr %Str.addr.i186, align 8
  %call.i193 = call i64 @strlen(ptr noundef %33) #16
  br label %_ZN4llvh9StringRefC2EPKc.exit194

cond.false.i190:                                  ; preds = %_ZN4llvh9StringRefC2EPKc.exit184
  br label %_ZN4llvh9StringRefC2EPKc.exit194

_ZN4llvh9StringRefC2EPKc.exit194:                 ; preds = %cond.false.i190, %cond.true.i192
  %cond.i191 = phi i64 [ %call.i193, %cond.true.i192 ], [ 0, %cond.false.i190 ]
  store i64 %cond.i191, ptr %Length.i188, align 8
  %call26 = call noundef i64 @_ZN6hermes8oscompat8peak_rssEv()
  store i64 %call26, ptr %ref.tmp25, align 8
  %34 = getelementptr inbounds { ptr, i64 }, ptr %agg.tmp24, i32 0, i32 0
  %35 = load ptr, ptr %34, align 8
  %36 = getelementptr inbounds { ptr, i64 }, ptr %agg.tmp24, i32 0, i32 1
  %37 = load i64, ptr %36, align 8
  call void @_ZN6hermes11JSONEmitter12emitKeyValueImEEvN4llvh9StringRefERKT_(ptr noundef nonnull align 8 dereferenceable(72) %30, ptr %35, i64 %37, ptr noundef nonnull align 8 dereferenceable(8) %ref.tmp25)
  %38 = load ptr, ptr %json.addr, align 8
  store ptr %agg.tmp27, ptr %this.addr.i195, align 8
  store ptr @.str.7, ptr %Str.addr.i196, align 8
  %this1.i197 = load ptr, ptr %this.addr.i195, align 8
  %39 = load ptr, ptr %Str.addr.i196, align 8
  store ptr %39, ptr %this1.i197, align 8
  %Length.i198 = getelementptr inbounds %"class.llvh::StringRef", ptr %this1.i197, i32 0, i32 1
  %40 = load ptr, ptr %Str.addr.i196, align 8
  %tobool.i199 = icmp ne ptr %40, null
  br i1 %tobool.i199, label %cond.true.i202, label %cond.false.i200

cond.true.i202:                                   ; preds = %_ZN4llvh9StringRefC2EPKc.exit194
  %41 = load ptr, ptr %Str.addr.i196, align 8
  %call.i203 = call i64 @strlen(ptr noundef %41) #16
  br label %_ZN4llvh9StringRefC2EPKc.exit204

cond.false.i200:                                  ; preds = %_ZN4llvh9StringRefC2EPKc.exit194
  br label %_ZN4llvh9StringRefC2EPKc.exit204

_ZN4llvh9StringRefC2EPKc.exit204:                 ; preds = %cond.false.i200, %cond.true.i202
  %cond.i201 = phi i64 [ %call.i203, %cond.true.i202 ], [ 0, %cond.false.i200 ]
  store i64 %cond.i201, ptr %Length.i198, align 8
  %call29 = call noundef i64 @_ZN6hermes8oscompat11current_rssEv()
  store i64 %call29, ptr %ref.tmp28, align 8
  %42 = getelementptr inbounds { ptr, i64 }, ptr %agg.tmp27, i32 0, i32 0
  %43 = load ptr, ptr %42, align 8
  %44 = getelementptr inbounds { ptr, i64 }, ptr %agg.tmp27, i32 0, i32 1
  %45 = load i64, ptr %44, align 8
  call void @_ZN6hermes11JSONEmitter12emitKeyValueImEEvN4llvh9StringRefERKT_(ptr noundef nonnull align 8 dereferenceable(72) %38, ptr %43, i64 %45, ptr noundef nonnull align 8 dereferenceable(8) %ref.tmp28)
  %46 = load ptr, ptr %json.addr, align 8
  store ptr %agg.tmp30, ptr %this.addr.i205, align 8
  store ptr @.str.8, ptr %Str.addr.i206, align 8
  %this1.i207 = load ptr, ptr %this.addr.i205, align 8
  %47 = load ptr, ptr %Str.addr.i206, align 8
  store ptr %47, ptr %this1.i207, align 8
  %Length.i208 = getelementptr inbounds %"class.llvh::StringRef", ptr %this1.i207, i32 0, i32 1
  %48 = load ptr, ptr %Str.addr.i206, align 8
  %tobool.i209 = icmp ne ptr %48, null
  br i1 %tobool.i209, label %cond.true.i212, label %cond.false.i210

cond.true.i212:                                   ; preds = %_ZN4llvh9StringRefC2EPKc.exit204
  %49 = load ptr, ptr %Str.addr.i206, align 8
  %call.i213 = call i64 @strlen(ptr noundef %49) #16
  br label %_ZN4llvh9StringRefC2EPKc.exit214

cond.false.i210:                                  ; preds = %_ZN4llvh9StringRefC2EPKc.exit204
  br label %_ZN4llvh9StringRefC2EPKc.exit214

_ZN4llvh9StringRefC2EPKc.exit214:                 ; preds = %cond.false.i210, %cond.true.i212
  %cond.i211 = phi i64 [ %call.i213, %cond.true.i212 ], [ 0, %cond.false.i210 ]
  store i64 %cond.i211, ptr %Length.i208, align 8
  %call32 = call noundef i64 @_ZN6hermes8oscompat21current_private_dirtyEv()
  store i64 %call32, ptr %ref.tmp31, align 8
  %50 = getelementptr inbounds { ptr, i64 }, ptr %agg.tmp30, i32 0, i32 0
  %51 = load ptr, ptr %50, align 8
  %52 = getelementptr inbounds { ptr, i64 }, ptr %agg.tmp30, i32 0, i32 1
  %53 = load i64, ptr %52, align 8
  call void @_ZN6hermes11JSONEmitter12emitKeyValueImEEvN4llvh9StringRefERKT_(ptr noundef nonnull align 8 dereferenceable(72) %46, ptr %51, i64 %53, ptr noundef nonnull align 8 dereferenceable(8) %ref.tmp31)
  %54 = load ptr, ptr %json.addr, align 8
  store ptr %agg.tmp33, ptr %this.addr.i215, align 8
  store ptr @.str.9, ptr %Str.addr.i216, align 8
  %this1.i217 = load ptr, ptr %this.addr.i215, align 8
  %55 = load ptr, ptr %Str.addr.i216, align 8
  store ptr %55, ptr %this1.i217, align 8
  %Length.i218 = getelementptr inbounds %"class.llvh::StringRef", ptr %this1.i217, i32 0, i32 1
  %56 = load ptr, ptr %Str.addr.i216, align 8
  %tobool.i219 = icmp ne ptr %56, null
  br i1 %tobool.i219, label %cond.true.i222, label %cond.false.i220

cond.true.i222:                                   ; preds = %_ZN4llvh9StringRefC2EPKc.exit214
  %57 = load ptr, ptr %Str.addr.i216, align 8
  %call.i223 = call i64 @strlen(ptr noundef %57) #16
  br label %_ZN4llvh9StringRefC2EPKc.exit224

cond.false.i220:                                  ; preds = %_ZN4llvh9StringRefC2EPKc.exit214
  br label %_ZN4llvh9StringRefC2EPKc.exit224

_ZN4llvh9StringRefC2EPKc.exit224:                 ; preds = %cond.false.i220, %cond.true.i222
  %cond.i221 = phi i64 [ %call.i223, %cond.true.i222 ], [ 0, %cond.false.i220 ]
  store i64 %cond.i221, ptr %Length.i218, align 8
  %heapSize = getelementptr inbounds %"struct.hermes::vm::GCBase::HeapInfo", ptr %info, i32 0, i32 3
  %58 = getelementptr inbounds { ptr, i64 }, ptr %agg.tmp33, i32 0, i32 0
  %59 = load ptr, ptr %58, align 8
  %60 = getelementptr inbounds { ptr, i64 }, ptr %agg.tmp33, i32 0, i32 1
  %61 = load i64, ptr %60, align 8
  call void @_ZN6hermes11JSONEmitter12emitKeyValueImEEvN4llvh9StringRefERKT_(ptr noundef nonnull align 8 dereferenceable(72) %54, ptr %59, i64 %61, ptr noundef nonnull align 8 dereferenceable(8) %heapSize)
  %62 = load ptr, ptr %json.addr, align 8
  store ptr %agg.tmp34, ptr %this.addr.i225, align 8
  store ptr @.str.10, ptr %Str.addr.i226, align 8
  %this1.i227 = load ptr, ptr %this.addr.i225, align 8
  %63 = load ptr, ptr %Str.addr.i226, align 8
  store ptr %63, ptr %this1.i227, align 8
  %Length.i228 = getelementptr inbounds %"class.llvh::StringRef", ptr %this1.i227, i32 0, i32 1
  %64 = load ptr, ptr %Str.addr.i226, align 8
  %tobool.i229 = icmp ne ptr %64, null
  br i1 %tobool.i229, label %cond.true.i232, label %cond.false.i230

cond.true.i232:                                   ; preds = %_ZN4llvh9StringRefC2EPKc.exit224
  %65 = load ptr, ptr %Str.addr.i226, align 8
  %call.i233 = call i64 @strlen(ptr noundef %65) #16
  br label %_ZN4llvh9StringRefC2EPKc.exit234

cond.false.i230:                                  ; preds = %_ZN4llvh9StringRefC2EPKc.exit224
  br label %_ZN4llvh9StringRefC2EPKc.exit234

_ZN4llvh9StringRefC2EPKc.exit234:                 ; preds = %cond.false.i230, %cond.true.i232
  %cond.i231 = phi i64 [ %call.i233, %cond.true.i232 ], [ 0, %cond.false.i230 ]
  store i64 %cond.i231, ptr %Length.i228, align 8
  %allocatedBytes = getelementptr inbounds %"struct.hermes::vm::GCBase::HeapInfo", ptr %info, i32 0, i32 2
  %66 = getelementptr inbounds { ptr, i64 }, ptr %agg.tmp34, i32 0, i32 0
  %67 = load ptr, ptr %66, align 8
  %68 = getelementptr inbounds { ptr, i64 }, ptr %agg.tmp34, i32 0, i32 1
  %69 = load i64, ptr %68, align 8
  call void @_ZN6hermes11JSONEmitter12emitKeyValueImEEvN4llvh9StringRefERKT_(ptr noundef nonnull align 8 dereferenceable(72) %62, ptr %67, i64 %69, ptr noundef nonnull align 8 dereferenceable(8) %allocatedBytes)
  %70 = load ptr, ptr %json.addr, align 8
  store ptr %agg.tmp35, ptr %this.addr.i235, align 8
  store ptr @.str.11, ptr %Str.addr.i236, align 8
  %this1.i237 = load ptr, ptr %this.addr.i235, align 8
  %71 = load ptr, ptr %Str.addr.i236, align 8
  store ptr %71, ptr %this1.i237, align 8
  %Length.i238 = getelementptr inbounds %"class.llvh::StringRef", ptr %this1.i237, i32 0, i32 1
  %72 = load ptr, ptr %Str.addr.i236, align 8
  %tobool.i239 = icmp ne ptr %72, null
  br i1 %tobool.i239, label %cond.true.i242, label %cond.false.i240

cond.true.i242:                                   ; preds = %_ZN4llvh9StringRefC2EPKc.exit234
  %73 = load ptr, ptr %Str.addr.i236, align 8
  %call.i243 = call i64 @strlen(ptr noundef %73) #16
  br label %_ZN4llvh9StringRefC2EPKc.exit244

cond.false.i240:                                  ; preds = %_ZN4llvh9StringRefC2EPKc.exit234
  br label %_ZN4llvh9StringRefC2EPKc.exit244

_ZN4llvh9StringRefC2EPKc.exit244:                 ; preds = %cond.false.i240, %cond.true.i242
  %cond.i241 = phi i64 [ %call.i243, %cond.true.i242 ], [ 0, %cond.false.i240 ]
  store i64 %cond.i241, ptr %Length.i238, align 8
  %numCollections = getelementptr inbounds %"struct.hermes::vm::GCBase::HeapInfo", ptr %info, i32 0, i32 0
  %74 = getelementptr inbounds { ptr, i64 }, ptr %agg.tmp35, i32 0, i32 0
  %75 = load ptr, ptr %74, align 8
  %76 = getelementptr inbounds { ptr, i64 }, ptr %agg.tmp35, i32 0, i32 1
  %77 = load i64, ptr %76, align 8
  call void @_ZN6hermes11JSONEmitter12emitKeyValueIjEEvN4llvh9StringRefERKT_(ptr noundef nonnull align 8 dereferenceable(72) %70, ptr %75, i64 %77, ptr noundef nonnull align 4 dereferenceable(4) %numCollections)
  %78 = load ptr, ptr %json.addr, align 8
  store ptr %agg.tmp36, ptr %this.addr.i245, align 8
  store ptr @.str.12, ptr %Str.addr.i246, align 8
  %this1.i247 = load ptr, ptr %this.addr.i245, align 8
  %79 = load ptr, ptr %Str.addr.i246, align 8
  store ptr %79, ptr %this1.i247, align 8
  %Length.i248 = getelementptr inbounds %"class.llvh::StringRef", ptr %this1.i247, i32 0, i32 1
  %80 = load ptr, ptr %Str.addr.i246, align 8
  %tobool.i249 = icmp ne ptr %80, null
  br i1 %tobool.i249, label %cond.true.i252, label %cond.false.i250

cond.true.i252:                                   ; preds = %_ZN4llvh9StringRefC2EPKc.exit244
  %81 = load ptr, ptr %Str.addr.i246, align 8
  %call.i253 = call i64 @strlen(ptr noundef %81) #16
  br label %_ZN4llvh9StringRefC2EPKc.exit254

cond.false.i250:                                  ; preds = %_ZN4llvh9StringRefC2EPKc.exit244
  br label %_ZN4llvh9StringRefC2EPKc.exit254

_ZN4llvh9StringRefC2EPKc.exit254:                 ; preds = %cond.false.i250, %cond.true.i252
  %cond.i251 = phi i64 [ %call.i253, %cond.true.i252 ], [ 0, %cond.false.i250 ]
  store i64 %cond.i251, ptr %Length.i248, align 8
  %mallocSizeEstimate = getelementptr inbounds %"struct.hermes::vm::GCBase::HeapInfo", ptr %info, i32 0, i32 4
  %82 = getelementptr inbounds { ptr, i64 }, ptr %agg.tmp36, i32 0, i32 0
  %83 = load ptr, ptr %82, align 8
  %84 = getelementptr inbounds { ptr, i64 }, ptr %agg.tmp36, i32 0, i32 1
  %85 = load i64, ptr %84, align 8
  call void @_ZN6hermes11JSONEmitter12emitKeyValueIjEEvN4llvh9StringRefERKT_(ptr noundef nonnull align 8 dereferenceable(72) %78, ptr %83, i64 %85, ptr noundef nonnull align 4 dereferenceable(4) %mallocSizeEstimate)
  %86 = load ptr, ptr %json.addr, align 8
  call void @_ZN6hermes11JSONEmitter9closeDictEv(ptr noundef nonnull align 8 dereferenceable(72) %86)
  store i64 -1, ptr %vol, align 8
  store i64 -1, ptr %invol, align 8
  %call37 = call noundef zeroext i1 @_ZN6hermes8oscompat20num_context_switchesERlS1_(ptr noundef nonnull align 8 dereferenceable(8) %vol, ptr noundef nonnull align 8 dereferenceable(8) %invol)
  br i1 %call37, label %if.then, label %if.end

if.then:                                          ; preds = %_ZN4llvh9StringRefC2EPKc.exit254
  %startNumVoluntaryContextSwitches_ = getelementptr inbounds %"class.hermes::vm::GCBase", ptr %this1, i32 0, i32 20
  %87 = load i64, ptr %startNumVoluntaryContextSwitches_, align 8
  %88 = load i64, ptr %vol, align 8
  %sub38 = sub nsw i64 %88, %87
  store i64 %sub38, ptr %vol, align 8
  %startNumInvoluntaryContextSwitches_ = getelementptr inbounds %"class.hermes::vm::GCBase", ptr %this1, i32 0, i32 21
  %89 = load i64, ptr %startNumInvoluntaryContextSwitches_, align 8
  %90 = load i64, ptr %invol, align 8
  %sub39 = sub nsw i64 %90, %89
  store i64 %sub39, ptr %invol, align 8
  br label %if.end

if.end:                                           ; preds = %if.then, %_ZN4llvh9StringRefC2EPKc.exit254
  %91 = load ptr, ptr %json.addr, align 8
  store ptr %agg.tmp40, ptr %this.addr.i255, align 8
  store ptr @.str.13, ptr %Str.addr.i256, align 8
  %this1.i257 = load ptr, ptr %this.addr.i255, align 8
  %92 = load ptr, ptr %Str.addr.i256, align 8
  store ptr %92, ptr %this1.i257, align 8
  %Length.i258 = getelementptr inbounds %"class.llvh::StringRef", ptr %this1.i257, i32 0, i32 1
  %93 = load ptr, ptr %Str.addr.i256, align 8
  %tobool.i259 = icmp ne ptr %93, null
  br i1 %tobool.i259, label %cond.true.i262, label %cond.false.i260

cond.true.i262:                                   ; preds = %if.end
  %94 = load ptr, ptr %Str.addr.i256, align 8
  %call.i263 = call i64 @strlen(ptr noundef %94) #16
  br label %_ZN4llvh9StringRefC2EPKc.exit264

cond.false.i260:                                  ; preds = %if.end
  br label %_ZN4llvh9StringRefC2EPKc.exit264

_ZN4llvh9StringRefC2EPKc.exit264:                 ; preds = %cond.false.i260, %cond.true.i262
  %cond.i261 = phi i64 [ %call.i263, %cond.true.i262 ], [ 0, %cond.false.i260 ]
  store i64 %cond.i261, ptr %Length.i258, align 8
  %95 = getelementptr inbounds { ptr, i64 }, ptr %agg.tmp40, i32 0, i32 0
  %96 = load ptr, ptr %95, align 8
  %97 = getelementptr inbounds { ptr, i64 }, ptr %agg.tmp40, i32 0, i32 1
  %98 = load i64, ptr %97, align 8
  call void @_ZN6hermes11JSONEmitter7emitKeyEN4llvh9StringRefE(ptr noundef nonnull align 8 dereferenceable(72) %91, ptr %96, i64 %98)
  %99 = load ptr, ptr %json.addr, align 8
  call void @_ZN6hermes11JSONEmitter8openDictEv(ptr noundef nonnull align 8 dereferenceable(72) %99)
  %100 = load ptr, ptr %json.addr, align 8
  store ptr %agg.tmp41, ptr %this.addr.i265, align 8
  store ptr @.str.14, ptr %Str.addr.i266, align 8
  %this1.i267 = load ptr, ptr %this.addr.i265, align 8
  %101 = load ptr, ptr %Str.addr.i266, align 8
  store ptr %101, ptr %this1.i267, align 8
  %Length.i268 = getelementptr inbounds %"class.llvh::StringRef", ptr %this1.i267, i32 0, i32 1
  %102 = load ptr, ptr %Str.addr.i266, align 8
  %tobool.i269 = icmp ne ptr %102, null
  br i1 %tobool.i269, label %cond.true.i272, label %cond.false.i270

cond.true.i272:                                   ; preds = %_ZN4llvh9StringRefC2EPKc.exit264
  %103 = load ptr, ptr %Str.addr.i266, align 8
  %call.i273 = call i64 @strlen(ptr noundef %103) #16
  br label %_ZN4llvh9StringRefC2EPKc.exit274

cond.false.i270:                                  ; preds = %_ZN4llvh9StringRefC2EPKc.exit264
  br label %_ZN4llvh9StringRefC2EPKc.exit274

_ZN4llvh9StringRefC2EPKc.exit274:                 ; preds = %cond.false.i270, %cond.true.i272
  %cond.i271 = phi i64 [ %call.i273, %cond.true.i272 ], [ 0, %cond.false.i270 ]
  store i64 %cond.i271, ptr %Length.i268, align 8
  %cumStats_ = getelementptr inbounds %"class.hermes::vm::GCBase", ptr %this1, i32 0, i32 22
  %numCollections42 = getelementptr inbounds %"struct.hermes::vm::GCBase::CumulativeHeapStats", ptr %cumStats_, i32 0, i32 0
  %104 = getelementptr inbounds { ptr, i64 }, ptr %agg.tmp41, i32 0, i32 0
  %105 = load ptr, ptr %104, align 8
  %106 = getelementptr inbounds { ptr, i64 }, ptr %agg.tmp41, i32 0, i32 1
  %107 = load i64, ptr %106, align 8
  call void @_ZN6hermes11JSONEmitter12emitKeyValueIjEEvN4llvh9StringRefERKT_(ptr noundef nonnull align 8 dereferenceable(72) %100, ptr %105, i64 %107, ptr noundef nonnull align 4 dereferenceable(4) %numCollections42)
  %108 = load ptr, ptr %json.addr, align 8
  store ptr %agg.tmp43, ptr %this.addr.i275, align 8
  store ptr @.str.15, ptr %Str.addr.i276, align 8
  %this1.i277 = load ptr, ptr %this.addr.i275, align 8
  %109 = load ptr, ptr %Str.addr.i276, align 8
  store ptr %109, ptr %this1.i277, align 8
  %Length.i278 = getelementptr inbounds %"class.llvh::StringRef", ptr %this1.i277, i32 0, i32 1
  %110 = load ptr, ptr %Str.addr.i276, align 8
  %tobool.i279 = icmp ne ptr %110, null
  br i1 %tobool.i279, label %cond.true.i282, label %cond.false.i280

cond.true.i282:                                   ; preds = %_ZN4llvh9StringRefC2EPKc.exit274
  %111 = load ptr, ptr %Str.addr.i276, align 8
  %call.i283 = call i64 @strlen(ptr noundef %111) #16
  br label %_ZN4llvh9StringRefC2EPKc.exit284

cond.false.i280:                                  ; preds = %_ZN4llvh9StringRefC2EPKc.exit274
  br label %_ZN4llvh9StringRefC2EPKc.exit284

_ZN4llvh9StringRefC2EPKc.exit284:                 ; preds = %cond.false.i280, %cond.true.i282
  %cond.i281 = phi i64 [ %call.i283, %cond.true.i282 ], [ 0, %cond.false.i280 ]
  store i64 %cond.i281, ptr %Length.i278, align 8
  %call45 = call noundef double @_ZNKSt6chrono8durationIdSt5ratioILl1ELl1EEE5countEv(ptr noundef nonnull align 8 dereferenceable(8) %elapsedTime)
  store double %call45, ptr %ref.tmp44, align 8
  %112 = getelementptr inbounds { ptr, i64 }, ptr %agg.tmp43, i32 0, i32 0
  %113 = load ptr, ptr %112, align 8
  %114 = getelementptr inbounds { ptr, i64 }, ptr %agg.tmp43, i32 0, i32 1
  %115 = load i64, ptr %114, align 8
  call void @_ZN6hermes11JSONEmitter12emitKeyValueIdEEvN4llvh9StringRefERKT_(ptr noundef nonnull align 8 dereferenceable(72) %108, ptr %113, i64 %115, ptr noundef nonnull align 8 dereferenceable(8) %ref.tmp44)
  %116 = load ptr, ptr %json.addr, align 8
  store ptr %agg.tmp46, ptr %this.addr.i285, align 8
  store ptr @.str.16, ptr %Str.addr.i286, align 8
  %this1.i287 = load ptr, ptr %this.addr.i285, align 8
  %117 = load ptr, ptr %Str.addr.i286, align 8
  store ptr %117, ptr %this1.i287, align 8
  %Length.i288 = getelementptr inbounds %"class.llvh::StringRef", ptr %this1.i287, i32 0, i32 1
  %118 = load ptr, ptr %Str.addr.i286, align 8
  %tobool.i289 = icmp ne ptr %118, null
  br i1 %tobool.i289, label %cond.true.i292, label %cond.false.i290

cond.true.i292:                                   ; preds = %_ZN4llvh9StringRefC2EPKc.exit284
  %119 = load ptr, ptr %Str.addr.i286, align 8
  %call.i293 = call i64 @strlen(ptr noundef %119) #16
  br label %_ZN4llvh9StringRefC2EPKc.exit294

cond.false.i290:                                  ; preds = %_ZN4llvh9StringRefC2EPKc.exit284
  br label %_ZN4llvh9StringRefC2EPKc.exit294

_ZN4llvh9StringRefC2EPKc.exit294:                 ; preds = %cond.false.i290, %cond.true.i292
  %cond.i291 = phi i64 [ %call.i293, %cond.true.i292 ], [ 0, %cond.false.i290 ]
  store i64 %cond.i291, ptr %Length.i288, align 8
  %120 = getelementptr inbounds { ptr, i64 }, ptr %agg.tmp46, i32 0, i32 0
  %121 = load ptr, ptr %120, align 8
  %122 = getelementptr inbounds { ptr, i64 }, ptr %agg.tmp46, i32 0, i32 1
  %123 = load i64, ptr %122, align 8
  call void @_ZN6hermes11JSONEmitter12emitKeyValueIdEEvN4llvh9StringRefERKT_(ptr noundef nonnull align 8 dereferenceable(72) %116, ptr %121, i64 %123, ptr noundef nonnull align 8 dereferenceable(8) %elapsedCPUSeconds)
  %124 = load ptr, ptr %json.addr, align 8
  store ptr %agg.tmp47, ptr %this.addr.i295, align 8
  store ptr @.str.17, ptr %Str.addr.i296, align 8
  %this1.i297 = load ptr, ptr %this.addr.i295, align 8
  %125 = load ptr, ptr %Str.addr.i296, align 8
  store ptr %125, ptr %this1.i297, align 8
  %Length.i298 = getelementptr inbounds %"class.llvh::StringRef", ptr %this1.i297, i32 0, i32 1
  %126 = load ptr, ptr %Str.addr.i296, align 8
  %tobool.i299 = icmp ne ptr %126, null
  br i1 %tobool.i299, label %cond.true.i302, label %cond.false.i300

cond.true.i302:                                   ; preds = %_ZN4llvh9StringRefC2EPKc.exit294
  %127 = load ptr, ptr %Str.addr.i296, align 8
  %call.i303 = call i64 @strlen(ptr noundef %127) #16
  br label %_ZN4llvh9StringRefC2EPKc.exit304

cond.false.i300:                                  ; preds = %_ZN4llvh9StringRefC2EPKc.exit294
  br label %_ZN4llvh9StringRefC2EPKc.exit304

_ZN4llvh9StringRefC2EPKc.exit304:                 ; preds = %cond.false.i300, %cond.true.i302
  %cond.i301 = phi i64 [ %call.i303, %cond.true.i302 ], [ 0, %cond.false.i300 ]
  store i64 %cond.i301, ptr %Length.i298, align 8
  %cumStats_49 = getelementptr inbounds %"class.hermes::vm::GCBase", ptr %this1, i32 0, i32 22
  %gcWallTime = getelementptr inbounds %"struct.hermes::vm::GCBase::CumulativeHeapStats", ptr %cumStats_49, i32 0, i32 1
  %call50 = call noundef double @_ZNK6hermes16StatsAccumulatorIddE3sumEv(ptr noundef nonnull align 8 dereferenceable(40) %gcWallTime)
  %call51 = call double @_ZN6hermes2vm10formatSecsEd(double noundef %call50)
  %coerce.dive52 = getelementptr inbounds %"struct.hermes::vm::DurationFormatObj", ptr %ref.tmp48, i32 0, i32 0
  store double %call51, ptr %coerce.dive52, align 8
  %secs = getelementptr inbounds %"struct.hermes::vm::DurationFormatObj", ptr %ref.tmp48, i32 0, i32 0
  %128 = getelementptr inbounds { ptr, i64 }, ptr %agg.tmp47, i32 0, i32 0
  %129 = load ptr, ptr %128, align 8
  %130 = getelementptr inbounds { ptr, i64 }, ptr %agg.tmp47, i32 0, i32 1
  %131 = load i64, ptr %130, align 8
  call void @_ZN6hermes11JSONEmitter12emitKeyValueIdEEvN4llvh9StringRefERKT_(ptr noundef nonnull align 8 dereferenceable(72) %124, ptr %129, i64 %131, ptr noundef nonnull align 8 dereferenceable(8) %secs)
  %132 = load ptr, ptr %json.addr, align 8
  store ptr %agg.tmp53, ptr %this.addr.i305, align 8
  store ptr @.str.18, ptr %Str.addr.i306, align 8
  %this1.i307 = load ptr, ptr %this.addr.i305, align 8
  %133 = load ptr, ptr %Str.addr.i306, align 8
  store ptr %133, ptr %this1.i307, align 8
  %Length.i308 = getelementptr inbounds %"class.llvh::StringRef", ptr %this1.i307, i32 0, i32 1
  %134 = load ptr, ptr %Str.addr.i306, align 8
  %tobool.i309 = icmp ne ptr %134, null
  br i1 %tobool.i309, label %cond.true.i312, label %cond.false.i310

cond.true.i312:                                   ; preds = %_ZN4llvh9StringRefC2EPKc.exit304
  %135 = load ptr, ptr %Str.addr.i306, align 8
  %call.i313 = call i64 @strlen(ptr noundef %135) #16
  br label %_ZN4llvh9StringRefC2EPKc.exit314

cond.false.i310:                                  ; preds = %_ZN4llvh9StringRefC2EPKc.exit304
  br label %_ZN4llvh9StringRefC2EPKc.exit314

_ZN4llvh9StringRefC2EPKc.exit314:                 ; preds = %cond.false.i310, %cond.true.i312
  %cond.i311 = phi i64 [ %call.i313, %cond.true.i312 ], [ 0, %cond.false.i310 ]
  store i64 %cond.i311, ptr %Length.i308, align 8
  %136 = getelementptr inbounds { ptr, i64 }, ptr %agg.tmp53, i32 0, i32 0
  %137 = load ptr, ptr %136, align 8
  %138 = getelementptr inbounds { ptr, i64 }, ptr %agg.tmp53, i32 0, i32 1
  %139 = load i64, ptr %138, align 8
  call void @_ZN6hermes11JSONEmitter12emitKeyValueIlEEvN4llvh9StringRefERKT_(ptr noundef nonnull align 8 dereferenceable(72) %132, ptr %137, i64 %139, ptr noundef nonnull align 8 dereferenceable(8) %vol)
  %140 = load ptr, ptr %json.addr, align 8
  store ptr %agg.tmp54, ptr %this.addr.i315, align 8
  store ptr @.str.19, ptr %Str.addr.i316, align 8
  %this1.i317 = load ptr, ptr %this.addr.i315, align 8
  %141 = load ptr, ptr %Str.addr.i316, align 8
  store ptr %141, ptr %this1.i317, align 8
  %Length.i318 = getelementptr inbounds %"class.llvh::StringRef", ptr %this1.i317, i32 0, i32 1
  %142 = load ptr, ptr %Str.addr.i316, align 8
  %tobool.i319 = icmp ne ptr %142, null
  br i1 %tobool.i319, label %cond.true.i322, label %cond.false.i320

cond.true.i322:                                   ; preds = %_ZN4llvh9StringRefC2EPKc.exit314
  %143 = load ptr, ptr %Str.addr.i316, align 8
  %call.i323 = call i64 @strlen(ptr noundef %143) #16
  br label %_ZN4llvh9StringRefC2EPKc.exit324

cond.false.i320:                                  ; preds = %_ZN4llvh9StringRefC2EPKc.exit314
  br label %_ZN4llvh9StringRefC2EPKc.exit324

_ZN4llvh9StringRefC2EPKc.exit324:                 ; preds = %cond.false.i320, %cond.true.i322
  %cond.i321 = phi i64 [ %call.i323, %cond.true.i322 ], [ 0, %cond.false.i320 ]
  store i64 %cond.i321, ptr %Length.i318, align 8
  %144 = getelementptr inbounds { ptr, i64 }, ptr %agg.tmp54, i32 0, i32 0
  %145 = load ptr, ptr %144, align 8
  %146 = getelementptr inbounds { ptr, i64 }, ptr %agg.tmp54, i32 0, i32 1
  %147 = load i64, ptr %146, align 8
  call void @_ZN6hermes11JSONEmitter12emitKeyValueIlEEvN4llvh9StringRefERKT_(ptr noundef nonnull align 8 dereferenceable(72) %140, ptr %145, i64 %147, ptr noundef nonnull align 8 dereferenceable(8) %invol)
  %148 = load ptr, ptr %json.addr, align 8
  store ptr %agg.tmp55, ptr %this.addr.i325, align 8
  store ptr @.str.20, ptr %Str.addr.i326, align 8
  %this1.i327 = load ptr, ptr %this.addr.i325, align 8
  %149 = load ptr, ptr %Str.addr.i326, align 8
  store ptr %149, ptr %this1.i327, align 8
  %Length.i328 = getelementptr inbounds %"class.llvh::StringRef", ptr %this1.i327, i32 0, i32 1
  %150 = load ptr, ptr %Str.addr.i326, align 8
  %tobool.i329 = icmp ne ptr %150, null
  br i1 %tobool.i329, label %cond.true.i332, label %cond.false.i330

cond.true.i332:                                   ; preds = %_ZN4llvh9StringRefC2EPKc.exit324
  %151 = load ptr, ptr %Str.addr.i326, align 8
  %call.i333 = call i64 @strlen(ptr noundef %151) #16
  br label %_ZN4llvh9StringRefC2EPKc.exit334

cond.false.i330:                                  ; preds = %_ZN4llvh9StringRefC2EPKc.exit324
  br label %_ZN4llvh9StringRefC2EPKc.exit334

_ZN4llvh9StringRefC2EPKc.exit334:                 ; preds = %cond.false.i330, %cond.true.i332
  %cond.i331 = phi i64 [ %call.i333, %cond.true.i332 ], [ 0, %cond.false.i330 ]
  store i64 %cond.i331, ptr %Length.i328, align 8
  %cumStats_57 = getelementptr inbounds %"class.hermes::vm::GCBase", ptr %this1, i32 0, i32 22
  %gcWallTime58 = getelementptr inbounds %"struct.hermes::vm::GCBase::CumulativeHeapStats", ptr %cumStats_57, i32 0, i32 1
  %call59 = call noundef double @_ZNK6hermes16StatsAccumulatorIddE7averageEv(ptr noundef nonnull align 8 dereferenceable(40) %gcWallTime58)
  %call60 = call double @_ZN6hermes2vm10formatSecsEd(double noundef %call59)
  %coerce.dive61 = getelementptr inbounds %"struct.hermes::vm::DurationFormatObj", ptr %ref.tmp56, i32 0, i32 0
  store double %call60, ptr %coerce.dive61, align 8
  %secs62 = getelementptr inbounds %"struct.hermes::vm::DurationFormatObj", ptr %ref.tmp56, i32 0, i32 0
  %152 = getelementptr inbounds { ptr, i64 }, ptr %agg.tmp55, i32 0, i32 0
  %153 = load ptr, ptr %152, align 8
  %154 = getelementptr inbounds { ptr, i64 }, ptr %agg.tmp55, i32 0, i32 1
  %155 = load i64, ptr %154, align 8
  call void @_ZN6hermes11JSONEmitter12emitKeyValueIdEEvN4llvh9StringRefERKT_(ptr noundef nonnull align 8 dereferenceable(72) %148, ptr %153, i64 %155, ptr noundef nonnull align 8 dereferenceable(8) %secs62)
  %156 = load ptr, ptr %json.addr, align 8
  store ptr %agg.tmp63, ptr %this.addr.i335, align 8
  store ptr @.str.21, ptr %Str.addr.i336, align 8
  %this1.i337 = load ptr, ptr %this.addr.i335, align 8
  %157 = load ptr, ptr %Str.addr.i336, align 8
  store ptr %157, ptr %this1.i337, align 8
  %Length.i338 = getelementptr inbounds %"class.llvh::StringRef", ptr %this1.i337, i32 0, i32 1
  %158 = load ptr, ptr %Str.addr.i336, align 8
  %tobool.i339 = icmp ne ptr %158, null
  br i1 %tobool.i339, label %cond.true.i342, label %cond.false.i340

cond.true.i342:                                   ; preds = %_ZN4llvh9StringRefC2EPKc.exit334
  %159 = load ptr, ptr %Str.addr.i336, align 8
  %call.i343 = call i64 @strlen(ptr noundef %159) #16
  br label %_ZN4llvh9StringRefC2EPKc.exit344

cond.false.i340:                                  ; preds = %_ZN4llvh9StringRefC2EPKc.exit334
  br label %_ZN4llvh9StringRefC2EPKc.exit344

_ZN4llvh9StringRefC2EPKc.exit344:                 ; preds = %cond.false.i340, %cond.true.i342
  %cond.i341 = phi i64 [ %call.i343, %cond.true.i342 ], [ 0, %cond.false.i340 ]
  store i64 %cond.i341, ptr %Length.i338, align 8
  %cumStats_65 = getelementptr inbounds %"class.hermes::vm::GCBase", ptr %this1, i32 0, i32 22
  %gcWallTime66 = getelementptr inbounds %"struct.hermes::vm::GCBase::CumulativeHeapStats", ptr %cumStats_65, i32 0, i32 1
  %call67 = call noundef double @_ZNK6hermes16StatsAccumulatorIddE3maxEv(ptr noundef nonnull align 8 dereferenceable(40) %gcWallTime66)
  %call68 = call double @_ZN6hermes2vm10formatSecsEd(double noundef %call67)
  %coerce.dive69 = getelementptr inbounds %"struct.hermes::vm::DurationFormatObj", ptr %ref.tmp64, i32 0, i32 0
  store double %call68, ptr %coerce.dive69, align 8
  %secs70 = getelementptr inbounds %"struct.hermes::vm::DurationFormatObj", ptr %ref.tmp64, i32 0, i32 0
  %160 = getelementptr inbounds { ptr, i64 }, ptr %agg.tmp63, i32 0, i32 0
  %161 = load ptr, ptr %160, align 8
  %162 = getelementptr inbounds { ptr, i64 }, ptr %agg.tmp63, i32 0, i32 1
  %163 = load i64, ptr %162, align 8
  call void @_ZN6hermes11JSONEmitter12emitKeyValueIdEEvN4llvh9StringRefERKT_(ptr noundef nonnull align 8 dereferenceable(72) %156, ptr %161, i64 %163, ptr noundef nonnull align 8 dereferenceable(8) %secs70)
  %164 = load ptr, ptr %json.addr, align 8
  store ptr %agg.tmp71, ptr %this.addr.i345, align 8
  store ptr @.str.22, ptr %Str.addr.i346, align 8
  %this1.i347 = load ptr, ptr %this.addr.i345, align 8
  %165 = load ptr, ptr %Str.addr.i346, align 8
  store ptr %165, ptr %this1.i347, align 8
  %Length.i348 = getelementptr inbounds %"class.llvh::StringRef", ptr %this1.i347, i32 0, i32 1
  %166 = load ptr, ptr %Str.addr.i346, align 8
  %tobool.i349 = icmp ne ptr %166, null
  br i1 %tobool.i349, label %cond.true.i352, label %cond.false.i350

cond.true.i352:                                   ; preds = %_ZN4llvh9StringRefC2EPKc.exit344
  %167 = load ptr, ptr %Str.addr.i346, align 8
  %call.i353 = call i64 @strlen(ptr noundef %167) #16
  br label %_ZN4llvh9StringRefC2EPKc.exit354

cond.false.i350:                                  ; preds = %_ZN4llvh9StringRefC2EPKc.exit344
  br label %_ZN4llvh9StringRefC2EPKc.exit354

_ZN4llvh9StringRefC2EPKc.exit354:                 ; preds = %cond.false.i350, %cond.true.i352
  %cond.i351 = phi i64 [ %call.i353, %cond.true.i352 ], [ 0, %cond.false.i350 ]
  store i64 %cond.i351, ptr %Length.i348, align 8
  %cumStats_73 = getelementptr inbounds %"class.hermes::vm::GCBase", ptr %this1, i32 0, i32 22
  %gcCPUTime = getelementptr inbounds %"struct.hermes::vm::GCBase::CumulativeHeapStats", ptr %cumStats_73, i32 0, i32 2
  %call74 = call noundef double @_ZNK6hermes16StatsAccumulatorIddE3sumEv(ptr noundef nonnull align 8 dereferenceable(40) %gcCPUTime)
  %call75 = call double @_ZN6hermes2vm10formatSecsEd(double noundef %call74)
  %coerce.dive76 = getelementptr inbounds %"struct.hermes::vm::DurationFormatObj", ptr %ref.tmp72, i32 0, i32 0
  store double %call75, ptr %coerce.dive76, align 8
  %secs77 = getelementptr inbounds %"struct.hermes::vm::DurationFormatObj", ptr %ref.tmp72, i32 0, i32 0
  %168 = getelementptr inbounds { ptr, i64 }, ptr %agg.tmp71, i32 0, i32 0
  %169 = load ptr, ptr %168, align 8
  %170 = getelementptr inbounds { ptr, i64 }, ptr %agg.tmp71, i32 0, i32 1
  %171 = load i64, ptr %170, align 8
  call void @_ZN6hermes11JSONEmitter12emitKeyValueIdEEvN4llvh9StringRefERKT_(ptr noundef nonnull align 8 dereferenceable(72) %164, ptr %169, i64 %171, ptr noundef nonnull align 8 dereferenceable(8) %secs77)
  %172 = load ptr, ptr %json.addr, align 8
  store ptr %agg.tmp78, ptr %this.addr.i355, align 8
  store ptr @.str.23, ptr %Str.addr.i356, align 8
  %this1.i357 = load ptr, ptr %this.addr.i355, align 8
  %173 = load ptr, ptr %Str.addr.i356, align 8
  store ptr %173, ptr %this1.i357, align 8
  %Length.i358 = getelementptr inbounds %"class.llvh::StringRef", ptr %this1.i357, i32 0, i32 1
  %174 = load ptr, ptr %Str.addr.i356, align 8
  %tobool.i359 = icmp ne ptr %174, null
  br i1 %tobool.i359, label %cond.true.i362, label %cond.false.i360

cond.true.i362:                                   ; preds = %_ZN4llvh9StringRefC2EPKc.exit354
  %175 = load ptr, ptr %Str.addr.i356, align 8
  %call.i363 = call i64 @strlen(ptr noundef %175) #16
  br label %_ZN4llvh9StringRefC2EPKc.exit364

cond.false.i360:                                  ; preds = %_ZN4llvh9StringRefC2EPKc.exit354
  br label %_ZN4llvh9StringRefC2EPKc.exit364

_ZN4llvh9StringRefC2EPKc.exit364:                 ; preds = %cond.false.i360, %cond.true.i362
  %cond.i361 = phi i64 [ %call.i363, %cond.true.i362 ], [ 0, %cond.false.i360 ]
  store i64 %cond.i361, ptr %Length.i358, align 8
  %cumStats_80 = getelementptr inbounds %"class.hermes::vm::GCBase", ptr %this1, i32 0, i32 22
  %gcCPUTime81 = getelementptr inbounds %"struct.hermes::vm::GCBase::CumulativeHeapStats", ptr %cumStats_80, i32 0, i32 2
  %call82 = call noundef double @_ZNK6hermes16StatsAccumulatorIddE7averageEv(ptr noundef nonnull align 8 dereferenceable(40) %gcCPUTime81)
  %call83 = call double @_ZN6hermes2vm10formatSecsEd(double noundef %call82)
  %coerce.dive84 = getelementptr inbounds %"struct.hermes::vm::DurationFormatObj", ptr %ref.tmp79, i32 0, i32 0
  store double %call83, ptr %coerce.dive84, align 8
  %secs85 = getelementptr inbounds %"struct.hermes::vm::DurationFormatObj", ptr %ref.tmp79, i32 0, i32 0
  %176 = getelementptr inbounds { ptr, i64 }, ptr %agg.tmp78, i32 0, i32 0
  %177 = load ptr, ptr %176, align 8
  %178 = getelementptr inbounds { ptr, i64 }, ptr %agg.tmp78, i32 0, i32 1
  %179 = load i64, ptr %178, align 8
  call void @_ZN6hermes11JSONEmitter12emitKeyValueIdEEvN4llvh9StringRefERKT_(ptr noundef nonnull align 8 dereferenceable(72) %172, ptr %177, i64 %179, ptr noundef nonnull align 8 dereferenceable(8) %secs85)
  %180 = load ptr, ptr %json.addr, align 8
  store ptr %agg.tmp86, ptr %this.addr.i365, align 8
  store ptr @.str.24, ptr %Str.addr.i366, align 8
  %this1.i367 = load ptr, ptr %this.addr.i365, align 8
  %181 = load ptr, ptr %Str.addr.i366, align 8
  store ptr %181, ptr %this1.i367, align 8
  %Length.i368 = getelementptr inbounds %"class.llvh::StringRef", ptr %this1.i367, i32 0, i32 1
  %182 = load ptr, ptr %Str.addr.i366, align 8
  %tobool.i369 = icmp ne ptr %182, null
  br i1 %tobool.i369, label %cond.true.i372, label %cond.false.i370

cond.true.i372:                                   ; preds = %_ZN4llvh9StringRefC2EPKc.exit364
  %183 = load ptr, ptr %Str.addr.i366, align 8
  %call.i373 = call i64 @strlen(ptr noundef %183) #16
  br label %_ZN4llvh9StringRefC2EPKc.exit374

cond.false.i370:                                  ; preds = %_ZN4llvh9StringRefC2EPKc.exit364
  br label %_ZN4llvh9StringRefC2EPKc.exit374

_ZN4llvh9StringRefC2EPKc.exit374:                 ; preds = %cond.false.i370, %cond.true.i372
  %cond.i371 = phi i64 [ %call.i373, %cond.true.i372 ], [ 0, %cond.false.i370 ]
  store i64 %cond.i371, ptr %Length.i368, align 8
  %cumStats_88 = getelementptr inbounds %"class.hermes::vm::GCBase", ptr %this1, i32 0, i32 22
  %gcCPUTime89 = getelementptr inbounds %"struct.hermes::vm::GCBase::CumulativeHeapStats", ptr %cumStats_88, i32 0, i32 2
  %call90 = call noundef double @_ZNK6hermes16StatsAccumulatorIddE3maxEv(ptr noundef nonnull align 8 dereferenceable(40) %gcCPUTime89)
  %call91 = call double @_ZN6hermes2vm10formatSecsEd(double noundef %call90)
  %coerce.dive92 = getelementptr inbounds %"struct.hermes::vm::DurationFormatObj", ptr %ref.tmp87, i32 0, i32 0
  store double %call91, ptr %coerce.dive92, align 8
  %secs93 = getelementptr inbounds %"struct.hermes::vm::DurationFormatObj", ptr %ref.tmp87, i32 0, i32 0
  %184 = getelementptr inbounds { ptr, i64 }, ptr %agg.tmp86, i32 0, i32 0
  %185 = load ptr, ptr %184, align 8
  %186 = getelementptr inbounds { ptr, i64 }, ptr %agg.tmp86, i32 0, i32 1
  %187 = load i64, ptr %186, align 8
  call void @_ZN6hermes11JSONEmitter12emitKeyValueIdEEvN4llvh9StringRefERKT_(ptr noundef nonnull align 8 dereferenceable(72) %180, ptr %185, i64 %187, ptr noundef nonnull align 8 dereferenceable(8) %secs93)
  %188 = load ptr, ptr %json.addr, align 8
  store ptr %agg.tmp94, ptr %this.addr.i375, align 8
  store ptr @.str.25, ptr %Str.addr.i376, align 8
  %this1.i377 = load ptr, ptr %this.addr.i375, align 8
  %189 = load ptr, ptr %Str.addr.i376, align 8
  store ptr %189, ptr %this1.i377, align 8
  %Length.i378 = getelementptr inbounds %"class.llvh::StringRef", ptr %this1.i377, i32 0, i32 1
  %190 = load ptr, ptr %Str.addr.i376, align 8
  %tobool.i379 = icmp ne ptr %190, null
  br i1 %tobool.i379, label %cond.true.i382, label %cond.false.i380

cond.true.i382:                                   ; preds = %_ZN4llvh9StringRefC2EPKc.exit374
  %191 = load ptr, ptr %Str.addr.i376, align 8
  %call.i383 = call i64 @strlen(ptr noundef %191) #16
  br label %_ZN4llvh9StringRefC2EPKc.exit384

cond.false.i380:                                  ; preds = %_ZN4llvh9StringRefC2EPKc.exit374
  br label %_ZN4llvh9StringRefC2EPKc.exit384

_ZN4llvh9StringRefC2EPKc.exit384:                 ; preds = %cond.false.i380, %cond.true.i382
  %cond.i381 = phi i64 [ %call.i383, %cond.true.i382 ], [ 0, %cond.false.i380 ]
  store i64 %cond.i381, ptr %Length.i378, align 8
  %cumStats_96 = getelementptr inbounds %"class.hermes::vm::GCBase", ptr %this1, i32 0, i32 22
  %finalHeapSize = getelementptr inbounds %"struct.hermes::vm::GCBase::CumulativeHeapStats", ptr %cumStats_96, i32 0, i32 3
  %192 = load i32, ptr %finalHeapSize, align 8
  %conv = zext i32 %192 to i64
  %call97 = call i64 @_ZN6hermes2vm10formatSizeEm(i64 noundef %conv)
  %coerce.dive98 = getelementptr inbounds %"struct.hermes::vm::SizeFormatObj", ptr %ref.tmp95, i32 0, i32 0
  store i64 %call97, ptr %coerce.dive98, align 8
  %bytes = getelementptr inbounds %"struct.hermes::vm::SizeFormatObj", ptr %ref.tmp95, i32 0, i32 0
  %193 = getelementptr inbounds { ptr, i64 }, ptr %agg.tmp94, i32 0, i32 0
  %194 = load ptr, ptr %193, align 8
  %195 = getelementptr inbounds { ptr, i64 }, ptr %agg.tmp94, i32 0, i32 1
  %196 = load i64, ptr %195, align 8
  call void @_ZN6hermes11JSONEmitter12emitKeyValueImEEvN4llvh9StringRefERKT_(ptr noundef nonnull align 8 dereferenceable(72) %188, ptr %194, i64 %196, ptr noundef nonnull align 8 dereferenceable(8) %bytes)
  %197 = load ptr, ptr %json.addr, align 8
  store ptr %agg.tmp99, ptr %this.addr.i385, align 8
  store ptr @.str.26, ptr %Str.addr.i386, align 8
  %this1.i387 = load ptr, ptr %this.addr.i385, align 8
  %198 = load ptr, ptr %Str.addr.i386, align 8
  store ptr %198, ptr %this1.i387, align 8
  %Length.i388 = getelementptr inbounds %"class.llvh::StringRef", ptr %this1.i387, i32 0, i32 1
  %199 = load ptr, ptr %Str.addr.i386, align 8
  %tobool.i389 = icmp ne ptr %199, null
  br i1 %tobool.i389, label %cond.true.i392, label %cond.false.i390

cond.true.i392:                                   ; preds = %_ZN4llvh9StringRefC2EPKc.exit384
  %200 = load ptr, ptr %Str.addr.i386, align 8
  %call.i393 = call i64 @strlen(ptr noundef %200) #16
  br label %_ZN4llvh9StringRefC2EPKc.exit394

cond.false.i390:                                  ; preds = %_ZN4llvh9StringRefC2EPKc.exit384
  br label %_ZN4llvh9StringRefC2EPKc.exit394

_ZN4llvh9StringRefC2EPKc.exit394:                 ; preds = %cond.false.i390, %cond.true.i392
  %cond.i391 = phi i64 [ %call.i393, %cond.true.i392 ], [ 0, %cond.false.i390 ]
  store i64 %cond.i391, ptr %Length.i388, align 8
  %vtable101 = load ptr, ptr %this1, align 8
  %vfn102 = getelementptr inbounds ptr, ptr %vtable101, i64 4
  %201 = load ptr, ptr %vfn102, align 8
  %call103 = call noundef i64 %201(ptr noundef nonnull align 8 dereferenceable(741) %this1)
  %call104 = call i64 @_ZN6hermes2vm10formatSizeEm(i64 noundef %call103)
  %coerce.dive105 = getelementptr inbounds %"struct.hermes::vm::SizeFormatObj", ptr %ref.tmp100, i32 0, i32 0
  store i64 %call104, ptr %coerce.dive105, align 8
  %bytes106 = getelementptr inbounds %"struct.hermes::vm::SizeFormatObj", ptr %ref.tmp100, i32 0, i32 0
  %202 = getelementptr inbounds { ptr, i64 }, ptr %agg.tmp99, i32 0, i32 0
  %203 = load ptr, ptr %202, align 8
  %204 = getelementptr inbounds { ptr, i64 }, ptr %agg.tmp99, i32 0, i32 1
  %205 = load i64, ptr %204, align 8
  call void @_ZN6hermes11JSONEmitter12emitKeyValueImEEvN4llvh9StringRefERKT_(ptr noundef nonnull align 8 dereferenceable(72) %197, ptr %203, i64 %205, ptr noundef nonnull align 8 dereferenceable(8) %bytes106)
  %206 = load ptr, ptr %json.addr, align 8
  store ptr %agg.tmp107, ptr %this.addr.i395, align 8
  store ptr @.str.27, ptr %Str.addr.i396, align 8
  %this1.i397 = load ptr, ptr %this.addr.i395, align 8
  %207 = load ptr, ptr %Str.addr.i396, align 8
  store ptr %207, ptr %this1.i397, align 8
  %Length.i398 = getelementptr inbounds %"class.llvh::StringRef", ptr %this1.i397, i32 0, i32 1
  %208 = load ptr, ptr %Str.addr.i396, align 8
  %tobool.i399 = icmp ne ptr %208, null
  br i1 %tobool.i399, label %cond.true.i402, label %cond.false.i400

cond.true.i402:                                   ; preds = %_ZN4llvh9StringRefC2EPKc.exit394
  %209 = load ptr, ptr %Str.addr.i396, align 8
  %call.i403 = call i64 @strlen(ptr noundef %209) #16
  br label %_ZN4llvh9StringRefC2EPKc.exit404

cond.false.i400:                                  ; preds = %_ZN4llvh9StringRefC2EPKc.exit394
  br label %_ZN4llvh9StringRefC2EPKc.exit404

_ZN4llvh9StringRefC2EPKc.exit404:                 ; preds = %cond.false.i400, %cond.true.i402
  %cond.i401 = phi i64 [ %call.i403, %cond.true.i402 ], [ 0, %cond.false.i400 ]
  store i64 %cond.i401, ptr %Length.i398, align 8
  %vtable109 = load ptr, ptr %this1, align 8
  %vfn110 = getelementptr inbounds ptr, ptr %vtable109, i64 5
  %210 = load ptr, ptr %vfn110, align 8
  %call111 = call noundef i64 %210(ptr noundef nonnull align 8 dereferenceable(741) %this1)
  %call112 = call i64 @_ZN6hermes2vm10formatSizeEm(i64 noundef %call111)
  %coerce.dive113 = getelementptr inbounds %"struct.hermes::vm::SizeFormatObj", ptr %ref.tmp108, i32 0, i32 0
  store i64 %call112, ptr %coerce.dive113, align 8
  %bytes114 = getelementptr inbounds %"struct.hermes::vm::SizeFormatObj", ptr %ref.tmp108, i32 0, i32 0
  %211 = getelementptr inbounds { ptr, i64 }, ptr %agg.tmp107, i32 0, i32 0
  %212 = load ptr, ptr %211, align 8
  %213 = getelementptr inbounds { ptr, i64 }, ptr %agg.tmp107, i32 0, i32 1
  %214 = load i64, ptr %213, align 8
  call void @_ZN6hermes11JSONEmitter12emitKeyValueImEEvN4llvh9StringRefERKT_(ptr noundef nonnull align 8 dereferenceable(72) %206, ptr %212, i64 %214, ptr noundef nonnull align 8 dereferenceable(8) %bytes114)
  %215 = load ptr, ptr %json.addr, align 8
  store ptr %agg.tmp115, ptr %this.addr.i405, align 8
  store ptr @.str.28, ptr %Str.addr.i406, align 8
  %this1.i407 = load ptr, ptr %this.addr.i405, align 8
  %216 = load ptr, ptr %Str.addr.i406, align 8
  store ptr %216, ptr %this1.i407, align 8
  %Length.i408 = getelementptr inbounds %"class.llvh::StringRef", ptr %this1.i407, i32 0, i32 1
  %217 = load ptr, ptr %Str.addr.i406, align 8
  %tobool.i409 = icmp ne ptr %217, null
  br i1 %tobool.i409, label %cond.true.i412, label %cond.false.i410

cond.true.i412:                                   ; preds = %_ZN4llvh9StringRefC2EPKc.exit404
  %218 = load ptr, ptr %Str.addr.i406, align 8
  %call.i413 = call i64 @strlen(ptr noundef %218) #16
  br label %_ZN4llvh9StringRefC2EPKc.exit414

cond.false.i410:                                  ; preds = %_ZN4llvh9StringRefC2EPKc.exit404
  br label %_ZN4llvh9StringRefC2EPKc.exit414

_ZN4llvh9StringRefC2EPKc.exit414:                 ; preds = %cond.false.i410, %cond.true.i412
  %cond.i411 = phi i64 [ %call.i413, %cond.true.i412 ], [ 0, %cond.false.i410 ]
  store i64 %cond.i411, ptr %Length.i408, align 8
  %totalAllocatedBytes = getelementptr inbounds %"struct.hermes::vm::GCBase::HeapInfo", ptr %info, i32 0, i32 1
  %219 = load i64, ptr %totalAllocatedBytes, align 8
  %call117 = call i64 @_ZN6hermes2vm10formatSizeEm(i64 noundef %219)
  %coerce.dive118 = getelementptr inbounds %"struct.hermes::vm::SizeFormatObj", ptr %ref.tmp116, i32 0, i32 0
  store i64 %call117, ptr %coerce.dive118, align 8
  %bytes119 = getelementptr inbounds %"struct.hermes::vm::SizeFormatObj", ptr %ref.tmp116, i32 0, i32 0
  %220 = getelementptr inbounds { ptr, i64 }, ptr %agg.tmp115, i32 0, i32 0
  %221 = load ptr, ptr %220, align 8
  %222 = getelementptr inbounds { ptr, i64 }, ptr %agg.tmp115, i32 0, i32 1
  %223 = load i64, ptr %222, align 8
  call void @_ZN6hermes11JSONEmitter12emitKeyValueImEEvN4llvh9StringRefERKT_(ptr noundef nonnull align 8 dereferenceable(72) %215, ptr %221, i64 %223, ptr noundef nonnull align 8 dereferenceable(8) %bytes119)
  %224 = load ptr, ptr %json.addr, align 8
  call void @_ZN6hermes11JSONEmitter9closeDictEv(ptr noundef nonnull align 8 dereferenceable(72) %224)
  %225 = load ptr, ptr %json.addr, align 8
  store ptr %agg.tmp120, ptr %this.addr.i415, align 8
  store ptr @.str.29, ptr %Str.addr.i416, align 8
  %this1.i417 = load ptr, ptr %this.addr.i415, align 8
  %226 = load ptr, ptr %Str.addr.i416, align 8
  store ptr %226, ptr %this1.i417, align 8
  %Length.i418 = getelementptr inbounds %"class.llvh::StringRef", ptr %this1.i417, i32 0, i32 1
  %227 = load ptr, ptr %Str.addr.i416, align 8
  %tobool.i419 = icmp ne ptr %227, null
  br i1 %tobool.i419, label %cond.true.i422, label %cond.false.i420

cond.true.i422:                                   ; preds = %_ZN4llvh9StringRefC2EPKc.exit414
  %228 = load ptr, ptr %Str.addr.i416, align 8
  %call.i423 = call i64 @strlen(ptr noundef %228) #16
  br label %_ZN4llvh9StringRefC2EPKc.exit424

cond.false.i420:                                  ; preds = %_ZN4llvh9StringRefC2EPKc.exit414
  br label %_ZN4llvh9StringRefC2EPKc.exit424

_ZN4llvh9StringRefC2EPKc.exit424:                 ; preds = %cond.false.i420, %cond.true.i422
  %cond.i421 = phi i64 [ %call.i423, %cond.true.i422 ], [ 0, %cond.false.i420 ]
  store i64 %cond.i421, ptr %Length.i418, align 8
  %229 = getelementptr inbounds { ptr, i64 }, ptr %agg.tmp120, i32 0, i32 0
  %230 = load ptr, ptr %229, align 8
  %231 = getelementptr inbounds { ptr, i64 }, ptr %agg.tmp120, i32 0, i32 1
  %232 = load i64, ptr %231, align 8
  call void @_ZN6hermes11JSONEmitter7emitKeyEN4llvh9StringRefE(ptr noundef nonnull align 8 dereferenceable(72) %225, ptr %230, i64 %232)
  %233 = load ptr, ptr %json.addr, align 8
  call void @_ZN6hermes11JSONEmitter9openArrayEv(ptr noundef nonnull align 8 dereferenceable(72) %233)
  %analyticsEvents_ = getelementptr inbounds %"class.hermes::vm::GCBase", ptr %this1, i32 0, i32 12
  store ptr %analyticsEvents_, ptr %__range2, align 8
  %234 = load ptr, ptr %__range2, align 8
  %call121 = call ptr @_ZNSt6vectorIN6hermes2vm16GCAnalyticsEventESaIS2_EE5beginEv(ptr noundef nonnull align 8 dereferenceable(24) %234) #14
  %coerce.dive122 = getelementptr inbounds %"class.__gnu_cxx::__normal_iterator", ptr %__begin2, i32 0, i32 0
  store ptr %call121, ptr %coerce.dive122, align 8
  %235 = load ptr, ptr %__range2, align 8
  %call123 = call ptr @_ZNSt6vectorIN6hermes2vm16GCAnalyticsEventESaIS2_EE3endEv(ptr noundef nonnull align 8 dereferenceable(24) %235) #14
  %coerce.dive124 = getelementptr inbounds %"class.__gnu_cxx::__normal_iterator", ptr %__end2, i32 0, i32 0
  store ptr %call123, ptr %coerce.dive124, align 8
  br label %for.cond

for.cond:                                         ; preds = %for.inc162, %_ZN4llvh9StringRefC2EPKc.exit424
  %call125 = call noundef zeroext i1 @_ZN9__gnu_cxxneIPN6hermes2vm16GCAnalyticsEventESt6vectorIS3_SaIS3_EEEEbRKNS_17__normal_iteratorIT_T0_EESD_(ptr noundef nonnull align 8 dereferenceable(8) %__begin2, ptr noundef nonnull align 8 dereferenceable(8) %__end2) #14
  br i1 %call125, label %for.body, label %for.end164

for.body:                                         ; preds = %for.cond
  %call126 = call noundef nonnull align 8 dereferenceable(224) ptr @_ZNK9__gnu_cxx17__normal_iteratorIPN6hermes2vm16GCAnalyticsEventESt6vectorIS3_SaIS3_EEEdeEv(ptr noundef nonnull align 8 dereferenceable(8) %__begin2) #14
  store ptr %call126, ptr %event, align 8
  %236 = load ptr, ptr %json.addr, align 8
  call void @_ZN6hermes11JSONEmitter8openDictEv(ptr noundef nonnull align 8 dereferenceable(72) %236)
  %237 = load ptr, ptr %json.addr, align 8
  store ptr %agg.tmp127, ptr %this.addr.i425, align 8
  store ptr @.str.30, ptr %Str.addr.i426, align 8
  %this1.i427 = load ptr, ptr %this.addr.i425, align 8
  %238 = load ptr, ptr %Str.addr.i426, align 8
  store ptr %238, ptr %this1.i427, align 8
  %Length.i428 = getelementptr inbounds %"class.llvh::StringRef", ptr %this1.i427, i32 0, i32 1
  %239 = load ptr, ptr %Str.addr.i426, align 8
  %tobool.i429 = icmp ne ptr %239, null
  br i1 %tobool.i429, label %cond.true.i432, label %cond.false.i430

cond.true.i432:                                   ; preds = %for.body
  %240 = load ptr, ptr %Str.addr.i426, align 8
  %call.i433 = call i64 @strlen(ptr noundef %240) #16
  br label %_ZN4llvh9StringRefC2EPKc.exit434

cond.false.i430:                                  ; preds = %for.body
  br label %_ZN4llvh9StringRefC2EPKc.exit434

_ZN4llvh9StringRefC2EPKc.exit434:                 ; preds = %cond.false.i430, %cond.true.i432
  %cond.i431 = phi i64 [ %call.i433, %cond.true.i432 ], [ 0, %cond.false.i430 ]
  store i64 %cond.i431, ptr %Length.i428, align 8
  %241 = load ptr, ptr %event, align 8
  %runtimeDescription = getelementptr inbounds %"struct.hermes::vm::GCAnalyticsEvent", ptr %241, i32 0, i32 0
  %242 = getelementptr inbounds { ptr, i64 }, ptr %agg.tmp127, i32 0, i32 0
  %243 = load ptr, ptr %242, align 8
  %244 = getelementptr inbounds { ptr, i64 }, ptr %agg.tmp127, i32 0, i32 1
  %245 = load i64, ptr %244, align 8
  call void @_ZN6hermes11JSONEmitter12emitKeyValueINSt7__cxx1112basic_stringIcSt11char_traitsIcESaIcEEEEEvN4llvh9StringRefERKT_(ptr noundef nonnull align 8 dereferenceable(72) %237, ptr %243, i64 %245, ptr noundef nonnull align 8 dereferenceable(32) %runtimeDescription)
  %246 = load ptr, ptr %json.addr, align 8
  store ptr %agg.tmp128, ptr %this.addr.i435, align 8
  store ptr @.str.31, ptr %Str.addr.i436, align 8
  %this1.i437 = load ptr, ptr %this.addr.i435, align 8
  %247 = load ptr, ptr %Str.addr.i436, align 8
  store ptr %247, ptr %this1.i437, align 8
  %Length.i438 = getelementptr inbounds %"class.llvh::StringRef", ptr %this1.i437, i32 0, i32 1
  %248 = load ptr, ptr %Str.addr.i436, align 8
  %tobool.i439 = icmp ne ptr %248, null
  br i1 %tobool.i439, label %cond.true.i442, label %cond.false.i440

cond.true.i442:                                   ; preds = %_ZN4llvh9StringRefC2EPKc.exit434
  %249 = load ptr, ptr %Str.addr.i436, align 8
  %call.i443 = call i64 @strlen(ptr noundef %249) #16
  br label %_ZN4llvh9StringRefC2EPKc.exit444

cond.false.i440:                                  ; preds = %_ZN4llvh9StringRefC2EPKc.exit434
  br label %_ZN4llvh9StringRefC2EPKc.exit444

_ZN4llvh9StringRefC2EPKc.exit444:                 ; preds = %cond.false.i440, %cond.true.i442
  %cond.i441 = phi i64 [ %call.i443, %cond.true.i442 ], [ 0, %cond.false.i440 ]
  store i64 %cond.i441, ptr %Length.i438, align 8
  %250 = load ptr, ptr %event, align 8
  %gcKind = getelementptr inbounds %"struct.hermes::vm::GCAnalyticsEvent", ptr %250, i32 0, i32 1
  %251 = getelementptr inbounds { ptr, i64 }, ptr %agg.tmp128, i32 0, i32 0
  %252 = load ptr, ptr %251, align 8
  %253 = getelementptr inbounds { ptr, i64 }, ptr %agg.tmp128, i32 0, i32 1
  %254 = load i64, ptr %253, align 8
  call void @_ZN6hermes11JSONEmitter12emitKeyValueINSt7__cxx1112basic_stringIcSt11char_traitsIcESaIcEEEEEvN4llvh9StringRefERKT_(ptr noundef nonnull align 8 dereferenceable(72) %246, ptr %252, i64 %254, ptr noundef nonnull align 8 dereferenceable(32) %gcKind)
  %255 = load ptr, ptr %json.addr, align 8
  store ptr %agg.tmp129, ptr %this.addr.i445, align 8
  store ptr @.str.32, ptr %Str.addr.i446, align 8
  %this1.i447 = load ptr, ptr %this.addr.i445, align 8
  %256 = load ptr, ptr %Str.addr.i446, align 8
  store ptr %256, ptr %this1.i447, align 8
  %Length.i448 = getelementptr inbounds %"class.llvh::StringRef", ptr %this1.i447, i32 0, i32 1
  %257 = load ptr, ptr %Str.addr.i446, align 8
  %tobool.i449 = icmp ne ptr %257, null
  br i1 %tobool.i449, label %cond.true.i452, label %cond.false.i450

cond.true.i452:                                   ; preds = %_ZN4llvh9StringRefC2EPKc.exit444
  %258 = load ptr, ptr %Str.addr.i446, align 8
  %call.i453 = call i64 @strlen(ptr noundef %258) #16
  br label %_ZN4llvh9StringRefC2EPKc.exit454

cond.false.i450:                                  ; preds = %_ZN4llvh9StringRefC2EPKc.exit444
  br label %_ZN4llvh9StringRefC2EPKc.exit454

_ZN4llvh9StringRefC2EPKc.exit454:                 ; preds = %cond.false.i450, %cond.true.i452
  %cond.i451 = phi i64 [ %call.i453, %cond.true.i452 ], [ 0, %cond.false.i450 ]
  store i64 %cond.i451, ptr %Length.i448, align 8
  %259 = load ptr, ptr %event, align 8
  %collectionType = getelementptr inbounds %"struct.hermes::vm::GCAnalyticsEvent", ptr %259, i32 0, i32 2
  %260 = getelementptr inbounds { ptr, i64 }, ptr %agg.tmp129, i32 0, i32 0
  %261 = load ptr, ptr %260, align 8
  %262 = getelementptr inbounds { ptr, i64 }, ptr %agg.tmp129, i32 0, i32 1
  %263 = load i64, ptr %262, align 8
  call void @_ZN6hermes11JSONEmitter12emitKeyValueINSt7__cxx1112basic_stringIcSt11char_traitsIcESaIcEEEEEvN4llvh9StringRefERKT_(ptr noundef nonnull align 8 dereferenceable(72) %255, ptr %261, i64 %263, ptr noundef nonnull align 8 dereferenceable(32) %collectionType)
  %264 = load ptr, ptr %json.addr, align 8
  store ptr %agg.tmp130, ptr %this.addr.i455, align 8
  store ptr @.str.33, ptr %Str.addr.i456, align 8
  %this1.i457 = load ptr, ptr %this.addr.i455, align 8
  %265 = load ptr, ptr %Str.addr.i456, align 8
  store ptr %265, ptr %this1.i457, align 8
  %Length.i458 = getelementptr inbounds %"class.llvh::StringRef", ptr %this1.i457, i32 0, i32 1
  %266 = load ptr, ptr %Str.addr.i456, align 8
  %tobool.i459 = icmp ne ptr %266, null
  br i1 %tobool.i459, label %cond.true.i462, label %cond.false.i460

cond.true.i462:                                   ; preds = %_ZN4llvh9StringRefC2EPKc.exit454
  %267 = load ptr, ptr %Str.addr.i456, align 8
  %call.i463 = call i64 @strlen(ptr noundef %267) #16
  br label %_ZN4llvh9StringRefC2EPKc.exit464

cond.false.i460:                                  ; preds = %_ZN4llvh9StringRefC2EPKc.exit454
  br label %_ZN4llvh9StringRefC2EPKc.exit464

_ZN4llvh9StringRefC2EPKc.exit464:                 ; preds = %cond.false.i460, %cond.true.i462
  %cond.i461 = phi i64 [ %call.i463, %cond.true.i462 ], [ 0, %cond.false.i460 ]
  store i64 %cond.i461, ptr %Length.i458, align 8
  %268 = load ptr, ptr %event, align 8
  %cause = getelementptr inbounds %"struct.hermes::vm::GCAnalyticsEvent", ptr %268, i32 0, i32 3
  %269 = getelementptr inbounds { ptr, i64 }, ptr %agg.tmp130, i32 0, i32 0
  %270 = load ptr, ptr %269, align 8
  %271 = getelementptr inbounds { ptr, i64 }, ptr %agg.tmp130, i32 0, i32 1
  %272 = load i64, ptr %271, align 8
  call void @_ZN6hermes11JSONEmitter12emitKeyValueINSt7__cxx1112basic_stringIcSt11char_traitsIcESaIcEEEEEvN4llvh9StringRefERKT_(ptr noundef nonnull align 8 dereferenceable(72) %264, ptr %270, i64 %272, ptr noundef nonnull align 8 dereferenceable(32) %cause)
  %273 = load ptr, ptr %json.addr, align 8
  store ptr %agg.tmp131, ptr %this.addr.i465, align 8
  store ptr @.str.34, ptr %Str.addr.i466, align 8
  %this1.i467 = load ptr, ptr %this.addr.i465, align 8
  %274 = load ptr, ptr %Str.addr.i466, align 8
  store ptr %274, ptr %this1.i467, align 8
  %Length.i468 = getelementptr inbounds %"class.llvh::StringRef", ptr %this1.i467, i32 0, i32 1
  %275 = load ptr, ptr %Str.addr.i466, align 8
  %tobool.i469 = icmp ne ptr %275, null
  br i1 %tobool.i469, label %cond.true.i472, label %cond.false.i470

cond.true.i472:                                   ; preds = %_ZN4llvh9StringRefC2EPKc.exit464
  %276 = load ptr, ptr %Str.addr.i466, align 8
  %call.i473 = call i64 @strlen(ptr noundef %276) #16
  br label %_ZN4llvh9StringRefC2EPKc.exit474

cond.false.i470:                                  ; preds = %_ZN4llvh9StringRefC2EPKc.exit464
  br label %_ZN4llvh9StringRefC2EPKc.exit474

_ZN4llvh9StringRefC2EPKc.exit474:                 ; preds = %cond.false.i470, %cond.true.i472
  %cond.i471 = phi i64 [ %call.i473, %cond.true.i472 ], [ 0, %cond.false.i470 ]
  store i64 %cond.i471, ptr %Length.i468, align 8
  %277 = load ptr, ptr %event, align 8
  %duration = getelementptr inbounds %"struct.hermes::vm::GCAnalyticsEvent", ptr %277, i32 0, i32 4
  %call133 = call noundef i64 @_ZNKSt6chrono8durationIlSt5ratioILl1ELl1000EEE5countEv(ptr noundef nonnull align 8 dereferenceable(8) %duration)
  store i64 %call133, ptr %ref.tmp132, align 8
  %278 = getelementptr inbounds { ptr, i64 }, ptr %agg.tmp131, i32 0, i32 0
  %279 = load ptr, ptr %278, align 8
  %280 = getelementptr inbounds { ptr, i64 }, ptr %agg.tmp131, i32 0, i32 1
  %281 = load i64, ptr %280, align 8
  call void @_ZN6hermes11JSONEmitter12emitKeyValueIlEEvN4llvh9StringRefERKT_(ptr noundef nonnull align 8 dereferenceable(72) %273, ptr %279, i64 %281, ptr noundef nonnull align 8 dereferenceable(8) %ref.tmp132)
  %282 = load ptr, ptr %json.addr, align 8
  store ptr %agg.tmp134, ptr %this.addr.i475, align 8
  store ptr @.str.35, ptr %Str.addr.i476, align 8
  %this1.i477 = load ptr, ptr %this.addr.i475, align 8
  %283 = load ptr, ptr %Str.addr.i476, align 8
  store ptr %283, ptr %this1.i477, align 8
  %Length.i478 = getelementptr inbounds %"class.llvh::StringRef", ptr %this1.i477, i32 0, i32 1
  %284 = load ptr, ptr %Str.addr.i476, align 8
  %tobool.i479 = icmp ne ptr %284, null
  br i1 %tobool.i479, label %cond.true.i482, label %cond.false.i480

cond.true.i482:                                   ; preds = %_ZN4llvh9StringRefC2EPKc.exit474
  %285 = load ptr, ptr %Str.addr.i476, align 8
  %call.i483 = call i64 @strlen(ptr noundef %285) #16
  br label %_ZN4llvh9StringRefC2EPKc.exit484

cond.false.i480:                                  ; preds = %_ZN4llvh9StringRefC2EPKc.exit474
  br label %_ZN4llvh9StringRefC2EPKc.exit484

_ZN4llvh9StringRefC2EPKc.exit484:                 ; preds = %cond.false.i480, %cond.true.i482
  %cond.i481 = phi i64 [ %call.i483, %cond.true.i482 ], [ 0, %cond.false.i480 ]
  store i64 %cond.i481, ptr %Length.i478, align 8
  %286 = load ptr, ptr %event, align 8
  %cpuDuration = getelementptr inbounds %"struct.hermes::vm::GCAnalyticsEvent", ptr %286, i32 0, i32 5
  %call136 = call noundef i64 @_ZNKSt6chrono8durationIlSt5ratioILl1ELl1000EEE5countEv(ptr noundef nonnull align 8 dereferenceable(8) %cpuDuration)
  store i64 %call136, ptr %ref.tmp135, align 8
  %287 = getelementptr inbounds { ptr, i64 }, ptr %agg.tmp134, i32 0, i32 0
  %288 = load ptr, ptr %287, align 8
  %289 = getelementptr inbounds { ptr, i64 }, ptr %agg.tmp134, i32 0, i32 1
  %290 = load i64, ptr %289, align 8
  call void @_ZN6hermes11JSONEmitter12emitKeyValueIlEEvN4llvh9StringRefERKT_(ptr noundef nonnull align 8 dereferenceable(72) %282, ptr %288, i64 %290, ptr noundef nonnull align 8 dereferenceable(8) %ref.tmp135)
  %291 = load ptr, ptr %json.addr, align 8
  store ptr %agg.tmp137, ptr %this.addr.i485, align 8
  store ptr @.str.36, ptr %Str.addr.i486, align 8
  %this1.i487 = load ptr, ptr %this.addr.i485, align 8
  %292 = load ptr, ptr %Str.addr.i486, align 8
  store ptr %292, ptr %this1.i487, align 8
  %Length.i488 = getelementptr inbounds %"class.llvh::StringRef", ptr %this1.i487, i32 0, i32 1
  %293 = load ptr, ptr %Str.addr.i486, align 8
  %tobool.i489 = icmp ne ptr %293, null
  br i1 %tobool.i489, label %cond.true.i492, label %cond.false.i490

cond.true.i492:                                   ; preds = %_ZN4llvh9StringRefC2EPKc.exit484
  %294 = load ptr, ptr %Str.addr.i486, align 8
  %call.i493 = call i64 @strlen(ptr noundef %294) #16
  br label %_ZN4llvh9StringRefC2EPKc.exit494

cond.false.i490:                                  ; preds = %_ZN4llvh9StringRefC2EPKc.exit484
  br label %_ZN4llvh9StringRefC2EPKc.exit494

_ZN4llvh9StringRefC2EPKc.exit494:                 ; preds = %cond.false.i490, %cond.true.i492
  %cond.i491 = phi i64 [ %call.i493, %cond.true.i492 ], [ 0, %cond.false.i490 ]
  store i64 %cond.i491, ptr %Length.i488, align 8
  %295 = load ptr, ptr %event, align 8
  %allocated = getelementptr inbounds %"struct.hermes::vm::GCAnalyticsEvent", ptr %295, i32 0, i32 6
  %before = getelementptr inbounds %"struct.hermes::vm::BeforeAndAfter", ptr %allocated, i32 0, i32 0
  %296 = getelementptr inbounds { ptr, i64 }, ptr %agg.tmp137, i32 0, i32 0
  %297 = load ptr, ptr %296, align 8
  %298 = getelementptr inbounds { ptr, i64 }, ptr %agg.tmp137, i32 0, i32 1
  %299 = load i64, ptr %298, align 8
  call void @_ZN6hermes11JSONEmitter12emitKeyValueImEEvN4llvh9StringRefERKT_(ptr noundef nonnull align 8 dereferenceable(72) %291, ptr %297, i64 %299, ptr noundef nonnull align 8 dereferenceable(8) %before)
  %300 = load ptr, ptr %json.addr, align 8
  store ptr %agg.tmp138, ptr %this.addr.i495, align 8
  store ptr @.str.37, ptr %Str.addr.i496, align 8
  %this1.i497 = load ptr, ptr %this.addr.i495, align 8
  %301 = load ptr, ptr %Str.addr.i496, align 8
  store ptr %301, ptr %this1.i497, align 8
  %Length.i498 = getelementptr inbounds %"class.llvh::StringRef", ptr %this1.i497, i32 0, i32 1
  %302 = load ptr, ptr %Str.addr.i496, align 8
  %tobool.i499 = icmp ne ptr %302, null
  br i1 %tobool.i499, label %cond.true.i502, label %cond.false.i500

cond.true.i502:                                   ; preds = %_ZN4llvh9StringRefC2EPKc.exit494
  %303 = load ptr, ptr %Str.addr.i496, align 8
  %call.i503 = call i64 @strlen(ptr noundef %303) #16
  br label %_ZN4llvh9StringRefC2EPKc.exit504

cond.false.i500:                                  ; preds = %_ZN4llvh9StringRefC2EPKc.exit494
  br label %_ZN4llvh9StringRefC2EPKc.exit504

_ZN4llvh9StringRefC2EPKc.exit504:                 ; preds = %cond.false.i500, %cond.true.i502
  %cond.i501 = phi i64 [ %call.i503, %cond.true.i502 ], [ 0, %cond.false.i500 ]
  store i64 %cond.i501, ptr %Length.i498, align 8
  %304 = load ptr, ptr %event, align 8
  %allocated139 = getelementptr inbounds %"struct.hermes::vm::GCAnalyticsEvent", ptr %304, i32 0, i32 6
  %after = getelementptr inbounds %"struct.hermes::vm::BeforeAndAfter", ptr %allocated139, i32 0, i32 1
  %305 = getelementptr inbounds { ptr, i64 }, ptr %agg.tmp138, i32 0, i32 0
  %306 = load ptr, ptr %305, align 8
  %307 = getelementptr inbounds { ptr, i64 }, ptr %agg.tmp138, i32 0, i32 1
  %308 = load i64, ptr %307, align 8
  call void @_ZN6hermes11JSONEmitter12emitKeyValueImEEvN4llvh9StringRefERKT_(ptr noundef nonnull align 8 dereferenceable(72) %300, ptr %306, i64 %308, ptr noundef nonnull align 8 dereferenceable(8) %after)
  %309 = load ptr, ptr %json.addr, align 8
  store ptr %agg.tmp140, ptr %this.addr.i505, align 8
  store ptr @.str.38, ptr %Str.addr.i506, align 8
  %this1.i507 = load ptr, ptr %this.addr.i505, align 8
  %310 = load ptr, ptr %Str.addr.i506, align 8
  store ptr %310, ptr %this1.i507, align 8
  %Length.i508 = getelementptr inbounds %"class.llvh::StringRef", ptr %this1.i507, i32 0, i32 1
  %311 = load ptr, ptr %Str.addr.i506, align 8
  %tobool.i509 = icmp ne ptr %311, null
  br i1 %tobool.i509, label %cond.true.i512, label %cond.false.i510

cond.true.i512:                                   ; preds = %_ZN4llvh9StringRefC2EPKc.exit504
  %312 = load ptr, ptr %Str.addr.i506, align 8
  %call.i513 = call i64 @strlen(ptr noundef %312) #16
  br label %_ZN4llvh9StringRefC2EPKc.exit514

cond.false.i510:                                  ; preds = %_ZN4llvh9StringRefC2EPKc.exit504
  br label %_ZN4llvh9StringRefC2EPKc.exit514

_ZN4llvh9StringRefC2EPKc.exit514:                 ; preds = %cond.false.i510, %cond.true.i512
  %cond.i511 = phi i64 [ %call.i513, %cond.true.i512 ], [ 0, %cond.false.i510 ]
  store i64 %cond.i511, ptr %Length.i508, align 8
  %313 = load ptr, ptr %event, align 8
  %size = getelementptr inbounds %"struct.hermes::vm::GCAnalyticsEvent", ptr %313, i32 0, i32 7
  %before141 = getelementptr inbounds %"struct.hermes::vm::BeforeAndAfter", ptr %size, i32 0, i32 0
  %314 = getelementptr inbounds { ptr, i64 }, ptr %agg.tmp140, i32 0, i32 0
  %315 = load ptr, ptr %314, align 8
  %316 = getelementptr inbounds { ptr, i64 }, ptr %agg.tmp140, i32 0, i32 1
  %317 = load i64, ptr %316, align 8
  call void @_ZN6hermes11JSONEmitter12emitKeyValueImEEvN4llvh9StringRefERKT_(ptr noundef nonnull align 8 dereferenceable(72) %309, ptr %315, i64 %317, ptr noundef nonnull align 8 dereferenceable(8) %before141)
  %318 = load ptr, ptr %json.addr, align 8
  store ptr %agg.tmp142, ptr %this.addr.i515, align 8
  store ptr @.str.39, ptr %Str.addr.i516, align 8
  %this1.i517 = load ptr, ptr %this.addr.i515, align 8
  %319 = load ptr, ptr %Str.addr.i516, align 8
  store ptr %319, ptr %this1.i517, align 8
  %Length.i518 = getelementptr inbounds %"class.llvh::StringRef", ptr %this1.i517, i32 0, i32 1
  %320 = load ptr, ptr %Str.addr.i516, align 8
  %tobool.i519 = icmp ne ptr %320, null
  br i1 %tobool.i519, label %cond.true.i522, label %cond.false.i520

cond.true.i522:                                   ; preds = %_ZN4llvh9StringRefC2EPKc.exit514
  %321 = load ptr, ptr %Str.addr.i516, align 8
  %call.i523 = call i64 @strlen(ptr noundef %321) #16
  br label %_ZN4llvh9StringRefC2EPKc.exit524

cond.false.i520:                                  ; preds = %_ZN4llvh9StringRefC2EPKc.exit514
  br label %_ZN4llvh9StringRefC2EPKc.exit524

_ZN4llvh9StringRefC2EPKc.exit524:                 ; preds = %cond.false.i520, %cond.true.i522
  %cond.i521 = phi i64 [ %call.i523, %cond.true.i522 ], [ 0, %cond.false.i520 ]
  store i64 %cond.i521, ptr %Length.i518, align 8
  %322 = load ptr, ptr %event, align 8
  %size143 = getelementptr inbounds %"struct.hermes::vm::GCAnalyticsEvent", ptr %322, i32 0, i32 7
  %after144 = getelementptr inbounds %"struct.hermes::vm::BeforeAndAfter", ptr %size143, i32 0, i32 1
  %323 = getelementptr inbounds { ptr, i64 }, ptr %agg.tmp142, i32 0, i32 0
  %324 = load ptr, ptr %323, align 8
  %325 = getelementptr inbounds { ptr, i64 }, ptr %agg.tmp142, i32 0, i32 1
  %326 = load i64, ptr %325, align 8
  call void @_ZN6hermes11JSONEmitter12emitKeyValueImEEvN4llvh9StringRefERKT_(ptr noundef nonnull align 8 dereferenceable(72) %318, ptr %324, i64 %326, ptr noundef nonnull align 8 dereferenceable(8) %after144)
  %327 = load ptr, ptr %json.addr, align 8
  store ptr %agg.tmp145, ptr %this.addr.i525, align 8
  store ptr @.str.40, ptr %Str.addr.i526, align 8
  %this1.i527 = load ptr, ptr %this.addr.i525, align 8
  %328 = load ptr, ptr %Str.addr.i526, align 8
  store ptr %328, ptr %this1.i527, align 8
  %Length.i528 = getelementptr inbounds %"class.llvh::StringRef", ptr %this1.i527, i32 0, i32 1
  %329 = load ptr, ptr %Str.addr.i526, align 8
  %tobool.i529 = icmp ne ptr %329, null
  br i1 %tobool.i529, label %cond.true.i532, label %cond.false.i530

cond.true.i532:                                   ; preds = %_ZN4llvh9StringRefC2EPKc.exit524
  %330 = load ptr, ptr %Str.addr.i526, align 8
  %call.i533 = call i64 @strlen(ptr noundef %330) #16
  br label %_ZN4llvh9StringRefC2EPKc.exit534

cond.false.i530:                                  ; preds = %_ZN4llvh9StringRefC2EPKc.exit524
  br label %_ZN4llvh9StringRefC2EPKc.exit534

_ZN4llvh9StringRefC2EPKc.exit534:                 ; preds = %cond.false.i530, %cond.true.i532
  %cond.i531 = phi i64 [ %call.i533, %cond.true.i532 ], [ 0, %cond.false.i530 ]
  store i64 %cond.i531, ptr %Length.i528, align 8
  %331 = load ptr, ptr %event, align 8
  %external = getelementptr inbounds %"struct.hermes::vm::GCAnalyticsEvent", ptr %331, i32 0, i32 8
  %before146 = getelementptr inbounds %"struct.hermes::vm::BeforeAndAfter", ptr %external, i32 0, i32 0
  %332 = getelementptr inbounds { ptr, i64 }, ptr %agg.tmp145, i32 0, i32 0
  %333 = load ptr, ptr %332, align 8
  %334 = getelementptr inbounds { ptr, i64 }, ptr %agg.tmp145, i32 0, i32 1
  %335 = load i64, ptr %334, align 8
  call void @_ZN6hermes11JSONEmitter12emitKeyValueImEEvN4llvh9StringRefERKT_(ptr noundef nonnull align 8 dereferenceable(72) %327, ptr %333, i64 %335, ptr noundef nonnull align 8 dereferenceable(8) %before146)
  %336 = load ptr, ptr %json.addr, align 8
  store ptr %agg.tmp147, ptr %this.addr.i535, align 8
  store ptr @.str.41, ptr %Str.addr.i536, align 8
  %this1.i537 = load ptr, ptr %this.addr.i535, align 8
  %337 = load ptr, ptr %Str.addr.i536, align 8
  store ptr %337, ptr %this1.i537, align 8
  %Length.i538 = getelementptr inbounds %"class.llvh::StringRef", ptr %this1.i537, i32 0, i32 1
  %338 = load ptr, ptr %Str.addr.i536, align 8
  %tobool.i539 = icmp ne ptr %338, null
  br i1 %tobool.i539, label %cond.true.i542, label %cond.false.i540

cond.true.i542:                                   ; preds = %_ZN4llvh9StringRefC2EPKc.exit534
  %339 = load ptr, ptr %Str.addr.i536, align 8
  %call.i543 = call i64 @strlen(ptr noundef %339) #16
  br label %_ZN4llvh9StringRefC2EPKc.exit544

cond.false.i540:                                  ; preds = %_ZN4llvh9StringRefC2EPKc.exit534
  br label %_ZN4llvh9StringRefC2EPKc.exit544

_ZN4llvh9StringRefC2EPKc.exit544:                 ; preds = %cond.false.i540, %cond.true.i542
  %cond.i541 = phi i64 [ %call.i543, %cond.true.i542 ], [ 0, %cond.false.i540 ]
  store i64 %cond.i541, ptr %Length.i538, align 8
  %340 = load ptr, ptr %event, align 8
  %external148 = getelementptr inbounds %"struct.hermes::vm::GCAnalyticsEvent", ptr %340, i32 0, i32 8
  %after149 = getelementptr inbounds %"struct.hermes::vm::BeforeAndAfter", ptr %external148, i32 0, i32 1
  %341 = getelementptr inbounds { ptr, i64 }, ptr %agg.tmp147, i32 0, i32 0
  %342 = load ptr, ptr %341, align 8
  %343 = getelementptr inbounds { ptr, i64 }, ptr %agg.tmp147, i32 0, i32 1
  %344 = load i64, ptr %343, align 8
  call void @_ZN6hermes11JSONEmitter12emitKeyValueImEEvN4llvh9StringRefERKT_(ptr noundef nonnull align 8 dereferenceable(72) %336, ptr %342, i64 %344, ptr noundef nonnull align 8 dereferenceable(8) %after149)
  %345 = load ptr, ptr %json.addr, align 8
  store ptr %agg.tmp150, ptr %this.addr.i545, align 8
  store ptr @.str.42, ptr %Str.addr.i546, align 8
  %this1.i547 = load ptr, ptr %this.addr.i545, align 8
  %346 = load ptr, ptr %Str.addr.i546, align 8
  store ptr %346, ptr %this1.i547, align 8
  %Length.i548 = getelementptr inbounds %"class.llvh::StringRef", ptr %this1.i547, i32 0, i32 1
  %347 = load ptr, ptr %Str.addr.i546, align 8
  %tobool.i549 = icmp ne ptr %347, null
  br i1 %tobool.i549, label %cond.true.i552, label %cond.false.i550

cond.true.i552:                                   ; preds = %_ZN4llvh9StringRefC2EPKc.exit544
  %348 = load ptr, ptr %Str.addr.i546, align 8
  %call.i553 = call i64 @strlen(ptr noundef %348) #16
  br label %_ZN4llvh9StringRefC2EPKc.exit554

cond.false.i550:                                  ; preds = %_ZN4llvh9StringRefC2EPKc.exit544
  br label %_ZN4llvh9StringRefC2EPKc.exit554

_ZN4llvh9StringRefC2EPKc.exit554:                 ; preds = %cond.false.i550, %cond.true.i552
  %cond.i551 = phi i64 [ %call.i553, %cond.true.i552 ], [ 0, %cond.false.i550 ]
  store i64 %cond.i551, ptr %Length.i548, align 8
  %349 = load ptr, ptr %event, align 8
  %survivalRatio = getelementptr inbounds %"struct.hermes::vm::GCAnalyticsEvent", ptr %349, i32 0, i32 9
  %350 = getelementptr inbounds { ptr, i64 }, ptr %agg.tmp150, i32 0, i32 0
  %351 = load ptr, ptr %350, align 8
  %352 = getelementptr inbounds { ptr, i64 }, ptr %agg.tmp150, i32 0, i32 1
  %353 = load i64, ptr %352, align 8
  call void @_ZN6hermes11JSONEmitter12emitKeyValueIdEEvN4llvh9StringRefERKT_(ptr noundef nonnull align 8 dereferenceable(72) %345, ptr %351, i64 %353, ptr noundef nonnull align 8 dereferenceable(8) %survivalRatio)
  %354 = load ptr, ptr %json.addr, align 8
  store ptr %agg.tmp151, ptr %this.addr.i555, align 8
  store ptr @.str.43, ptr %Str.addr.i556, align 8
  %this1.i557 = load ptr, ptr %this.addr.i555, align 8
  %355 = load ptr, ptr %Str.addr.i556, align 8
  store ptr %355, ptr %this1.i557, align 8
  %Length.i558 = getelementptr inbounds %"class.llvh::StringRef", ptr %this1.i557, i32 0, i32 1
  %356 = load ptr, ptr %Str.addr.i556, align 8
  %tobool.i559 = icmp ne ptr %356, null
  br i1 %tobool.i559, label %cond.true.i562, label %cond.false.i560

cond.true.i562:                                   ; preds = %_ZN4llvh9StringRefC2EPKc.exit554
  %357 = load ptr, ptr %Str.addr.i556, align 8
  %call.i563 = call i64 @strlen(ptr noundef %357) #16
  br label %_ZN4llvh9StringRefC2EPKc.exit564

cond.false.i560:                                  ; preds = %_ZN4llvh9StringRefC2EPKc.exit554
  br label %_ZN4llvh9StringRefC2EPKc.exit564

_ZN4llvh9StringRefC2EPKc.exit564:                 ; preds = %cond.false.i560, %cond.true.i562
  %cond.i561 = phi i64 [ %call.i563, %cond.true.i562 ], [ 0, %cond.false.i560 ]
  store i64 %cond.i561, ptr %Length.i558, align 8
  %358 = getelementptr inbounds { ptr, i64 }, ptr %agg.tmp151, i32 0, i32 0
  %359 = load ptr, ptr %358, align 8
  %360 = getelementptr inbounds { ptr, i64 }, ptr %agg.tmp151, i32 0, i32 1
  %361 = load i64, ptr %360, align 8
  call void @_ZN6hermes11JSONEmitter7emitKeyEN4llvh9StringRefE(ptr noundef nonnull align 8 dereferenceable(72) %354, ptr %359, i64 %361)
  %362 = load ptr, ptr %json.addr, align 8
  call void @_ZN6hermes11JSONEmitter9openArrayEv(ptr noundef nonnull align 8 dereferenceable(72) %362)
  %363 = load ptr, ptr %event, align 8
  %tags = getelementptr inbounds %"struct.hermes::vm::GCAnalyticsEvent", ptr %363, i32 0, i32 10
  store ptr %tags, ptr %__range3, align 8
  %364 = load ptr, ptr %__range3, align 8
  %call152 = call ptr @_ZNKSt6vectorINSt7__cxx1112basic_stringIcSt11char_traitsIcESaIcEEESaIS5_EE5beginEv(ptr noundef nonnull align 8 dereferenceable(24) %364) #14
  %coerce.dive153 = getelementptr inbounds %"class.__gnu_cxx::__normal_iterator.30", ptr %__begin3, i32 0, i32 0
  store ptr %call152, ptr %coerce.dive153, align 8
  %365 = load ptr, ptr %__range3, align 8
  %call154 = call ptr @_ZNKSt6vectorINSt7__cxx1112basic_stringIcSt11char_traitsIcESaIcEEESaIS5_EE3endEv(ptr noundef nonnull align 8 dereferenceable(24) %365) #14
  %coerce.dive155 = getelementptr inbounds %"class.__gnu_cxx::__normal_iterator.30", ptr %__end3, i32 0, i32 0
  store ptr %call154, ptr %coerce.dive155, align 8
  br label %for.cond156

for.cond156:                                      ; preds = %for.inc, %_ZN4llvh9StringRefC2EPKc.exit564
  %call157 = call noundef zeroext i1 @_ZN9__gnu_cxxneIPKNSt7__cxx1112basic_stringIcSt11char_traitsIcESaIcEEESt6vectorIS6_SaIS6_EEEEbRKNS_17__normal_iteratorIT_T0_EESH_(ptr noundef nonnull align 8 dereferenceable(8) %__begin3, ptr noundef nonnull align 8 dereferenceable(8) %__end3) #14
  br i1 %call157, label %for.body158, label %for.end

for.body158:                                      ; preds = %for.cond156
  %call159 = call noundef nonnull align 8 dereferenceable(32) ptr @_ZNK9__gnu_cxx17__normal_iteratorIPKNSt7__cxx1112basic_stringIcSt11char_traitsIcESaIcEEESt6vectorIS6_SaIS6_EEEdeEv(ptr noundef nonnull align 8 dereferenceable(8) %__begin3) #14
  store ptr %call159, ptr %tag, align 8
  %366 = load ptr, ptr %json.addr, align 8
  %367 = load ptr, ptr %tag, align 8
  store ptr %agg.tmp160, ptr %this.addr.i565, align 8
  store ptr %367, ptr %Str.addr.i566, align 8
  %this1.i567 = load ptr, ptr %this.addr.i565, align 8
  %368 = load ptr, ptr %Str.addr.i566, align 8
  %call.i568 = call noundef ptr @_ZNKSt7__cxx1112basic_stringIcSt11char_traitsIcESaIcEE4dataEv(ptr noundef nonnull align 8 dereferenceable(32) %368) #14
  store ptr %call.i568, ptr %this1.i567, align 8
  %Length.i569 = getelementptr inbounds %"class.llvh::StringRef", ptr %this1.i567, i32 0, i32 1
  %369 = load ptr, ptr %Str.addr.i566, align 8
  %call2.i = call noundef i64 @_ZNKSt7__cxx1112basic_stringIcSt11char_traitsIcESaIcEE6lengthEv(ptr noundef nonnull align 8 dereferenceable(32) %369) #14
  store i64 %call2.i, ptr %Length.i569, align 8
  %370 = getelementptr inbounds { ptr, i64 }, ptr %agg.tmp160, i32 0, i32 0
  %371 = load ptr, ptr %370, align 8
  %372 = getelementptr inbounds { ptr, i64 }, ptr %agg.tmp160, i32 0, i32 1
  %373 = load i64, ptr %372, align 8
  call void @_ZN6hermes11JSONEmitter9emitValueEN4llvh9StringRefE(ptr noundef nonnull align 8 dereferenceable(72) %366, ptr %371, i64 %373)
  br label %for.inc

for.inc:                                          ; preds = %for.body158
  %call161 = call noundef nonnull align 8 dereferenceable(8) ptr @_ZN9__gnu_cxx17__normal_iteratorIPKNSt7__cxx1112basic_stringIcSt11char_traitsIcESaIcEEESt6vectorIS6_SaIS6_EEEppEv(ptr noundef nonnull align 8 dereferenceable(8) %__begin3) #14
  br label %for.cond156

for.end:                                          ; preds = %for.cond156
  %374 = load ptr, ptr %json.addr, align 8
  call void @_ZN6hermes11JSONEmitter10closeArrayEv(ptr noundef nonnull align 8 dereferenceable(72) %374)
  %375 = load ptr, ptr %json.addr, align 8
  call void @_ZN6hermes11JSONEmitter9closeDictEv(ptr noundef nonnull align 8 dereferenceable(72) %375)
  br label %for.inc162

for.inc162:                                       ; preds = %for.end
  %call163 = call noundef nonnull align 8 dereferenceable(8) ptr @_ZN9__gnu_cxx17__normal_iteratorIPN6hermes2vm16GCAnalyticsEventESt6vectorIS3_SaIS3_EEEppEv(ptr noundef nonnull align 8 dereferenceable(8) %__begin2) #14
  br label %for.cond

for.end164:                                       ; preds = %for.cond
  %376 = load ptr, ptr %json.addr, align 8
  call void @_ZN6hermes11JSONEmitter10closeArrayEv(ptr noundef nonnull align 8 dereferenceable(72) %376)
  ret void
}

; Function Attrs: mustprogress nounwind uwtable
define linkonce_odr hidden void @_ZN6hermes11JSONEmitter12emitKeyValueIA7_cEEvN4llvh9StringRefERKT_(ptr noundef nonnull align 8 dereferenceable(72) %this, ptr %key.coerce0, i64 %key.coerce1, ptr noundef nonnull align 1 dereferenceable(7) %val) #0 comdat align 2 {
entry:
  %key = alloca %"class.llvh::StringRef", align 8
  %this.addr = alloca ptr, align 8
  %val.addr = alloca ptr, align 8
  %agg.tmp = alloca %"class.llvh::StringRef", align 8
  %0 = getelementptr inbounds { ptr, i64 }, ptr %key, i32 0, i32 0
  store ptr %key.coerce0, ptr %0, align 8
  %1 = getelementptr inbounds { ptr, i64 }, ptr %key, i32 0, i32 1
  store i64 %key.coerce1, ptr %1, align 8
  store ptr %this, ptr %this.addr, align 8
  store ptr %val, ptr %val.addr, align 8
  %this1 = load ptr, ptr %this.addr, align 8
  call void @llvm.memcpy.p0.p0.i64(ptr align 8 %agg.tmp, ptr align 8 %key, i64 16, i1 false)
  %2 = getelementptr inbounds { ptr, i64 }, ptr %agg.tmp, i32 0, i32 0
  %3 = load ptr, ptr %2, align 8
  %4 = getelementptr inbounds { ptr, i64 }, ptr %agg.tmp, i32 0, i32 1
  %5 = load i64, ptr %4, align 8
  call void @_ZN6hermes11JSONEmitter7emitKeyEN4llvh9StringRefE(ptr noundef nonnull align 8 dereferenceable(72) %this1, ptr %3, i64 %5)
  %6 = load ptr, ptr %val.addr, align 8
  %arraydecay = getelementptr inbounds [7 x i8], ptr %6, i64 0, i64 0
  call void @_ZN6hermes11JSONEmitter9emitValueEPKc(ptr noundef nonnull align 8 dereferenceable(72) %this1, ptr noundef %arraydecay)
  ret void
}

; Function Attrs: mustprogress nounwind uwtable
define linkonce_odr hidden void @_ZN6hermes11JSONEmitter12emitKeyValueIiEEvN4llvh9StringRefERKT_(ptr noundef nonnull align 8 dereferenceable(72) %this, ptr %key.coerce0, i64 %key.coerce1, ptr noundef nonnull align 4 dereferenceable(4) %val) #0 comdat align 2 {
entry:
  %key = alloca %"class.llvh::StringRef", align 8
  %this.addr = alloca ptr, align 8
  %val.addr = alloca ptr, align 8
  %agg.tmp = alloca %"class.llvh::StringRef", align 8
  %0 = getelementptr inbounds { ptr, i64 }, ptr %key, i32 0, i32 0
  store ptr %key.coerce0, ptr %0, align 8
  %1 = getelementptr inbounds { ptr, i64 }, ptr %key, i32 0, i32 1
  store i64 %key.coerce1, ptr %1, align 8
  store ptr %this, ptr %this.addr, align 8
  store ptr %val, ptr %val.addr, align 8
  %this1 = load ptr, ptr %this.addr, align 8
  call void @llvm.memcpy.p0.p0.i64(ptr align 8 %agg.tmp, ptr align 8 %key, i64 16, i1 false)
  %2 = getelementptr inbounds { ptr, i64 }, ptr %agg.tmp, i32 0, i32 0
  %3 = load ptr, ptr %2, align 8
  %4 = getelementptr inbounds { ptr, i64 }, ptr %agg.tmp, i32 0, i32 1
  %5 = load i64, ptr %4, align 8
  call void @_ZN6hermes11JSONEmitter7emitKeyEN4llvh9StringRefE(ptr noundef nonnull align 8 dereferenceable(72) %this1, ptr %3, i64 %5)
  %6 = load ptr, ptr %val.addr, align 8
  %7 = load i32, ptr %6, align 4
  call void @_ZN6hermes11JSONEmitter9emitValueEi(ptr noundef nonnull align 8 dereferenceable(72) %this1, i32 noundef %7)
  ret void
}

; Function Attrs: mustprogress nounwind uwtable
define linkonce_odr i64 @_ZNSt6chronomiINS_3_V212steady_clockENS_8durationIlSt5ratioILl1ELl1000000000EEEES6_EENSt11common_typeIJT0_T1_EE4typeERKNS_10time_pointIT_S8_EERKNSC_ISD_S9_EE(ptr noundef nonnull align 8 dereferenceable(8) %__lhs, ptr noundef nonnull align 8 dereferenceable(8) %__rhs) #0 comdat {
entry:
  %retval = alloca %"class.std::chrono::duration", align 8
  %__lhs.addr = alloca ptr, align 8
  %__rhs.addr = alloca ptr, align 8
  %ref.tmp = alloca %"class.std::chrono::duration", align 8
  %ref.tmp1 = alloca %"class.std::chrono::duration", align 8
  store ptr %__lhs, ptr %__lhs.addr, align 8
  store ptr %__rhs, ptr %__rhs.addr, align 8
  %0 = load ptr, ptr %__lhs.addr, align 8
  %call = call i64 @_ZNKSt6chrono10time_pointINS_3_V212steady_clockENS_8durationIlSt5ratioILl1ELl1000000000EEEEE16time_since_epochEv(ptr noundef nonnull align 8 dereferenceable(8) %0)
  %coerce.dive = getelementptr inbounds %"class.std::chrono::duration", ptr %ref.tmp, i32 0, i32 0
  store i64 %call, ptr %coerce.dive, align 8
  %1 = load ptr, ptr %__rhs.addr, align 8
  %call2 = call i64 @_ZNKSt6chrono10time_pointINS_3_V212steady_clockENS_8durationIlSt5ratioILl1ELl1000000000EEEEE16time_since_epochEv(ptr noundef nonnull align 8 dereferenceable(8) %1)
  %coerce.dive3 = getelementptr inbounds %"class.std::chrono::duration", ptr %ref.tmp1, i32 0, i32 0
  store i64 %call2, ptr %coerce.dive3, align 8
  %call4 = call i64 @_ZNSt6chronomiIlSt5ratioILl1ELl1000000000EElS2_EENSt11common_typeIJNS_8durationIT_T0_EENS4_IT1_T2_EEEE4typeERKS7_RKSA_(ptr noundef nonnull align 8 dereferenceable(8) %ref.tmp, ptr noundef nonnull align 8 dereferenceable(8) %ref.tmp1)
  %coerce.dive5 = getelementptr inbounds %"class.std::chrono::duration", ptr %retval, i32 0, i32 0
  store i64 %call4, ptr %coerce.dive5, align 8
  %coerce.dive6 = getelementptr inbounds %"class.std::chrono::duration", ptr %retval, i32 0, i32 0
  %2 = load i64, ptr %coerce.dive6, align 8
  ret i64 %2
}

; Function Attrs: mustprogress nounwind uwtable
define linkonce_odr void @_ZNSt6chrono8durationIdSt5ratioILl1ELl1EEEC2IlS1_ILl1ELl1000000000EEvEERKNS0_IT_T0_EE(ptr noundef nonnull align 8 dereferenceable(8) %this, ptr noundef nonnull align 8 dereferenceable(8) %__d) unnamed_addr #0 comdat align 2 {
entry:
  %this.addr = alloca ptr, align 8
  %__d.addr = alloca ptr, align 8
  %ref.tmp = alloca %"class.std::chrono::duration.23", align 8
  store ptr %this, ptr %this.addr, align 8
  store ptr %__d, ptr %__d.addr, align 8
  %this1 = load ptr, ptr %this.addr, align 8
  %__r = getelementptr inbounds %"class.std::chrono::duration.23", ptr %this1, i32 0, i32 0
  %0 = load ptr, ptr %__d.addr, align 8
  %call = call double @_ZNSt6chrono13duration_castINS_8durationIdSt5ratioILl1ELl1EEEElS2_ILl1ELl1000000000EEEENSt9enable_ifIXsr13__is_durationIT_EE5valueES7_E4typeERKNS1_IT0_T1_EE(ptr noundef nonnull align 8 dereferenceable(8) %0)
  %coerce.dive = getelementptr inbounds %"class.std::chrono::duration.23", ptr %ref.tmp, i32 0, i32 0
  store double %call, ptr %coerce.dive, align 8
  %call2 = call noundef double @_ZNKSt6chrono8durationIdSt5ratioILl1ELl1EEE5countEv(ptr noundef nonnull align 8 dereferenceable(8) %ref.tmp)
  store double %call2, ptr %__r, align 8
  ret void
}

; Function Attrs: mustprogress nounwind uwtable
define linkonce_odr double @_ZNSt6chrono13duration_castINS_8durationIdSt5ratioILl1ELl1EEEElS2_ILl1ELl1000000EEEENSt9enable_ifIXsr13__is_durationIT_EE5valueES7_E4typeERKNS1_IT0_T1_EE(ptr noundef nonnull align 8 dereferenceable(8) %__d) #0 comdat {
entry:
  %retval = alloca %"class.std::chrono::duration.23", align 8
  %__d.addr = alloca ptr, align 8
  store ptr %__d, ptr %__d.addr, align 8
  %0 = load ptr, ptr %__d.addr, align 8
  %call = call double @_ZNSt6chrono20__duration_cast_implINS_8durationIdSt5ratioILl1ELl1EEEES2_ILl1ELl1000000EEdLb1ELb0EE6__castIlS5_EES4_RKNS1_IT_T0_EE(ptr noundef nonnull align 8 dereferenceable(8) %0)
  %coerce.dive = getelementptr inbounds %"class.std::chrono::duration.23", ptr %retval, i32 0, i32 0
  store double %call, ptr %coerce.dive, align 8
  %coerce.dive1 = getelementptr inbounds %"class.std::chrono::duration.23", ptr %retval, i32 0, i32 0
  %1 = load double, ptr %coerce.dive1, align 8
  ret double %1
}

; Function Attrs: mustprogress nounwind uwtable
define linkonce_odr noundef double @_ZNKSt6chrono8durationIdSt5ratioILl1ELl1EEE5countEv(ptr noundef nonnull align 8 dereferenceable(8) %this) #0 comdat align 2 {
entry:
  %this.addr = alloca ptr, align 8
  store ptr %this, ptr %this.addr, align 8
  %this1 = load ptr, ptr %this.addr, align 8
  %__r = getelementptr inbounds %"class.std::chrono::duration.23", ptr %this1, i32 0, i32 0
  %0 = load double, ptr %__r, align 8
  ret double %0
}

; Function Attrs: mustprogress nounwind uwtable
define linkonce_odr hidden void @_ZN6hermes2vm6GCBase8HeapInfoC2Ev(ptr noundef nonnull align 8 dereferenceable(384) %this) unnamed_addr #0 comdat align 2 {
entry:
  %this.addr = alloca ptr, align 8
  store ptr %this, ptr %this.addr, align 8
  %this1 = load ptr, ptr %this.addr, align 8
  %numCollections = getelementptr inbounds %"struct.hermes::vm::GCBase::HeapInfo", ptr %this1, i32 0, i32 0
  store i32 0, ptr %numCollections, align 8
  %totalAllocatedBytes = getelementptr inbounds %"struct.hermes::vm::GCBase::HeapInfo", ptr %this1, i32 0, i32 1
  store i64 0, ptr %totalAllocatedBytes, align 8
  %allocatedBytes = getelementptr inbounds %"struct.hermes::vm::GCBase::HeapInfo", ptr %this1, i32 0, i32 2
  store i64 0, ptr %allocatedBytes, align 8
  %heapSize = getelementptr inbounds %"struct.hermes::vm::GCBase::HeapInfo", ptr %this1, i32 0, i32 3
  store i64 0, ptr %heapSize, align 8
  %mallocSizeEstimate = getelementptr inbounds %"struct.hermes::vm::GCBase::HeapInfo", ptr %this1, i32 0, i32 4
  store i32 0, ptr %mallocSizeEstimate, align 8
  %va = getelementptr inbounds %"struct.hermes::vm::GCBase::HeapInfo", ptr %this1, i32 0, i32 5
  store i64 0, ptr %va, align 8
  %externalBytes = getelementptr inbounds %"struct.hermes::vm::GCBase::HeapInfo", ptr %this1, i32 0, i32 6
  store i64 0, ptr %externalBytes, align 8
  %numMarkStackOverflows = getelementptr inbounds %"struct.hermes::vm::GCBase::HeapInfo", ptr %this1, i32 0, i32 7
  store i32 0, ptr %numMarkStackOverflows, align 8
  %fullStats = getelementptr inbounds %"struct.hermes::vm::GCBase::HeapInfo", ptr %this1, i32 0, i32 8
  call void @_ZN6hermes2vm6GCBase19CumulativeHeapStatsC2Ev(ptr noundef nonnull align 8 dereferenceable(160) %fullStats) #14
  %youngGenStats = getelementptr inbounds %"struct.hermes::vm::GCBase::HeapInfo", ptr %this1, i32 0, i32 9
  call void @_ZN6hermes2vm6GCBase19CumulativeHeapStatsC2Ev(ptr noundef nonnull align 8 dereferenceable(160) %youngGenStats) #14
  ret void
}

declare void @_ZN6hermes11JSONEmitter7emitKeyEN4llvh9StringRefE(ptr noundef nonnull align 8 dereferenceable(72), ptr, i64) #2

; Function Attrs: mustprogress nounwind uwtable
define linkonce_odr hidden void @_ZN6hermes11JSONEmitter12emitKeyValueImEEvN4llvh9StringRefERKT_(ptr noundef nonnull align 8 dereferenceable(72) %this, ptr %key.coerce0, i64 %key.coerce1, ptr noundef nonnull align 8 dereferenceable(8) %val) #0 comdat align 2 {
entry:
  %key = alloca %"class.llvh::StringRef", align 8
  %this.addr = alloca ptr, align 8
  %val.addr = alloca ptr, align 8
  %agg.tmp = alloca %"class.llvh::StringRef", align 8
  %0 = getelementptr inbounds { ptr, i64 }, ptr %key, i32 0, i32 0
  store ptr %key.coerce0, ptr %0, align 8
  %1 = getelementptr inbounds { ptr, i64 }, ptr %key, i32 0, i32 1
  store i64 %key.coerce1, ptr %1, align 8
  store ptr %this, ptr %this.addr, align 8
  store ptr %val, ptr %val.addr, align 8
  %this1 = load ptr, ptr %this.addr, align 8
  call void @llvm.memcpy.p0.p0.i64(ptr align 8 %agg.tmp, ptr align 8 %key, i64 16, i1 false)
  %2 = getelementptr inbounds { ptr, i64 }, ptr %agg.tmp, i32 0, i32 0
  %3 = load ptr, ptr %2, align 8
  %4 = getelementptr inbounds { ptr, i64 }, ptr %agg.tmp, i32 0, i32 1
  %5 = load i64, ptr %4, align 8
  call void @_ZN6hermes11JSONEmitter7emitKeyEN4llvh9StringRefE(ptr noundef nonnull align 8 dereferenceable(72) %this1, ptr %3, i64 %5)
  %6 = load ptr, ptr %val.addr, align 8
  %7 = load i64, ptr %6, align 8
  call void @_ZN6hermes11JSONEmitter9emitValueEm(ptr noundef nonnull align 8 dereferenceable(72) %this1, i64 noundef %7)
  ret void
}

declare noundef i64 @_ZN6hermes8oscompat8peak_rssEv() #2

declare noundef i64 @_ZN6hermes8oscompat11current_rssEv() #2

declare noundef i64 @_ZN6hermes8oscompat21current_private_dirtyEv() #2

; Function Attrs: mustprogress nounwind uwtable
define linkonce_odr hidden void @_ZN6hermes11JSONEmitter12emitKeyValueIjEEvN4llvh9StringRefERKT_(ptr noundef nonnull align 8 dereferenceable(72) %this, ptr %key.coerce0, i64 %key.coerce1, ptr noundef nonnull align 4 dereferenceable(4) %val) #0 comdat align 2 {
entry:
  %key = alloca %"class.llvh::StringRef", align 8
  %this.addr = alloca ptr, align 8
  %val.addr = alloca ptr, align 8
  %agg.tmp = alloca %"class.llvh::StringRef", align 8
  %0 = getelementptr inbounds { ptr, i64 }, ptr %key, i32 0, i32 0
  store ptr %key.coerce0, ptr %0, align 8
  %1 = getelementptr inbounds { ptr, i64 }, ptr %key, i32 0, i32 1
  store i64 %key.coerce1, ptr %1, align 8
  store ptr %this, ptr %this.addr, align 8
  store ptr %val, ptr %val.addr, align 8
  %this1 = load ptr, ptr %this.addr, align 8
  call void @llvm.memcpy.p0.p0.i64(ptr align 8 %agg.tmp, ptr align 8 %key, i64 16, i1 false)
  %2 = getelementptr inbounds { ptr, i64 }, ptr %agg.tmp, i32 0, i32 0
  %3 = load ptr, ptr %2, align 8
  %4 = getelementptr inbounds { ptr, i64 }, ptr %agg.tmp, i32 0, i32 1
  %5 = load i64, ptr %4, align 8
  call void @_ZN6hermes11JSONEmitter7emitKeyEN4llvh9StringRefE(ptr noundef nonnull align 8 dereferenceable(72) %this1, ptr %3, i64 %5)
  %6 = load ptr, ptr %val.addr, align 8
  %7 = load i32, ptr %6, align 4
  call void @_ZN6hermes11JSONEmitter9emitValueEj(ptr noundef nonnull align 8 dereferenceable(72) %this1, i32 noundef %7)
  ret void
}

; Function Attrs: mustprogress nounwind uwtable
define linkonce_odr hidden void @_ZN6hermes11JSONEmitter12emitKeyValueIdEEvN4llvh9StringRefERKT_(ptr noundef nonnull align 8 dereferenceable(72) %this, ptr %key.coerce0, i64 %key.coerce1, ptr noundef nonnull align 8 dereferenceable(8) %val) #0 comdat align 2 {
entry:
  %key = alloca %"class.llvh::StringRef", align 8
  %this.addr = alloca ptr, align 8
  %val.addr = alloca ptr, align 8
  %agg.tmp = alloca %"class.llvh::StringRef", align 8
  %0 = getelementptr inbounds { ptr, i64 }, ptr %key, i32 0, i32 0
  store ptr %key.coerce0, ptr %0, align 8
  %1 = getelementptr inbounds { ptr, i64 }, ptr %key, i32 0, i32 1
  store i64 %key.coerce1, ptr %1, align 8
  store ptr %this, ptr %this.addr, align 8
  store ptr %val, ptr %val.addr, align 8
  %this1 = load ptr, ptr %this.addr, align 8
  call void @llvm.memcpy.p0.p0.i64(ptr align 8 %agg.tmp, ptr align 8 %key, i64 16, i1 false)
  %2 = getelementptr inbounds { ptr, i64 }, ptr %agg.tmp, i32 0, i32 0
  %3 = load ptr, ptr %2, align 8
  %4 = getelementptr inbounds { ptr, i64 }, ptr %agg.tmp, i32 0, i32 1
  %5 = load i64, ptr %4, align 8
  call void @_ZN6hermes11JSONEmitter7emitKeyEN4llvh9StringRefE(ptr noundef nonnull align 8 dereferenceable(72) %this1, ptr %3, i64 %5)
  %6 = load ptr, ptr %val.addr, align 8
  %7 = load double, ptr %6, align 8
  call void @_ZN6hermes11JSONEmitter9emitValueEd(ptr noundef nonnull align 8 dereferenceable(72) %this1, double noundef %7)
  ret void
}

; Function Attrs: mustprogress nounwind uwtable
define linkonce_odr hidden double @_ZN6hermes2vm10formatSecsEd(double noundef %secs) #0 comdat {
entry:
  %retval = alloca %"struct.hermes::vm::DurationFormatObj", align 8
  %secs.addr = alloca double, align 8
  store double %secs, ptr %secs.addr, align 8
  %secs1 = getelementptr inbounds %"struct.hermes::vm::DurationFormatObj", ptr %retval, i32 0, i32 0
  %0 = load double, ptr %secs.addr, align 8
  store double %0, ptr %secs1, align 8
  %coerce.dive = getelementptr inbounds %"struct.hermes::vm::DurationFormatObj", ptr %retval, i32 0, i32 0
  %1 = load double, ptr %coerce.dive, align 8
  ret double %1
}

; Function Attrs: mustprogress nounwind uwtable
define linkonce_odr hidden noundef double @_ZNK6hermes16StatsAccumulatorIddE3sumEv(ptr noundef nonnull align 8 dereferenceable(40) %this) #0 comdat align 2 {
entry:
  %this.addr = alloca ptr, align 8
  store ptr %this, ptr %this.addr, align 8
  %this1 = load ptr, ptr %this.addr, align 8
  %sum_ = getelementptr inbounds %"class.hermes::StatsAccumulator", ptr %this1, i32 0, i32 1
  %0 = load double, ptr %sum_, align 8
  ret double %0
}

; Function Attrs: mustprogress nounwind uwtable
define linkonce_odr hidden void @_ZN6hermes11JSONEmitter12emitKeyValueIlEEvN4llvh9StringRefERKT_(ptr noundef nonnull align 8 dereferenceable(72) %this, ptr %key.coerce0, i64 %key.coerce1, ptr noundef nonnull align 8 dereferenceable(8) %val) #0 comdat align 2 {
entry:
  %key = alloca %"class.llvh::StringRef", align 8
  %this.addr = alloca ptr, align 8
  %val.addr = alloca ptr, align 8
  %agg.tmp = alloca %"class.llvh::StringRef", align 8
  %0 = getelementptr inbounds { ptr, i64 }, ptr %key, i32 0, i32 0
  store ptr %key.coerce0, ptr %0, align 8
  %1 = getelementptr inbounds { ptr, i64 }, ptr %key, i32 0, i32 1
  store i64 %key.coerce1, ptr %1, align 8
  store ptr %this, ptr %this.addr, align 8
  store ptr %val, ptr %val.addr, align 8
  %this1 = load ptr, ptr %this.addr, align 8
  call void @llvm.memcpy.p0.p0.i64(ptr align 8 %agg.tmp, ptr align 8 %key, i64 16, i1 false)
  %2 = getelementptr inbounds { ptr, i64 }, ptr %agg.tmp, i32 0, i32 0
  %3 = load ptr, ptr %2, align 8
  %4 = getelementptr inbounds { ptr, i64 }, ptr %agg.tmp, i32 0, i32 1
  %5 = load i64, ptr %4, align 8
  call void @_ZN6hermes11JSONEmitter7emitKeyEN4llvh9StringRefE(ptr noundef nonnull align 8 dereferenceable(72) %this1, ptr %3, i64 %5)
  %6 = load ptr, ptr %val.addr, align 8
  %7 = load i64, ptr %6, align 8
  call void @_ZN6hermes11JSONEmitter9emitValueEl(ptr noundef nonnull align 8 dereferenceable(72) %this1, i64 noundef %7)
  ret void
}

; Function Attrs: mustprogress nounwind uwtable
define linkonce_odr hidden noundef double @_ZNK6hermes16StatsAccumulatorIddE7averageEv(ptr noundef nonnull align 8 dereferenceable(40) %this) #0 comdat align 2 {
entry:
  %this.addr = alloca ptr, align 8
  store ptr %this, ptr %this.addr, align 8
  %this1 = load ptr, ptr %this.addr, align 8
  %n_ = getelementptr inbounds %"class.hermes::StatsAccumulator", ptr %this1, i32 0, i32 0
  %0 = load i32, ptr %n_, align 8
  %cmp = icmp eq i32 %0, 0
  br i1 %cmp, label %cond.true, label %cond.false

cond.true:                                        ; preds = %entry
  br label %cond.end

cond.false:                                       ; preds = %entry
  %sum_ = getelementptr inbounds %"class.hermes::StatsAccumulator", ptr %this1, i32 0, i32 1
  %1 = load double, ptr %sum_, align 8
  %n_2 = getelementptr inbounds %"class.hermes::StatsAccumulator", ptr %this1, i32 0, i32 0
  %2 = load i32, ptr %n_2, align 8
  %conv = uitofp i32 %2 to double
  %div = fdiv double %1, %conv
  br label %cond.end

cond.end:                                         ; preds = %cond.false, %cond.true
  %cond = phi double [ 0.000000e+00, %cond.true ], [ %div, %cond.false ]
  ret double %cond
}

; Function Attrs: mustprogress nounwind uwtable
define linkonce_odr hidden noundef double @_ZNK6hermes16StatsAccumulatorIddE3maxEv(ptr noundef nonnull align 8 dereferenceable(40) %this) #0 comdat align 2 {
entry:
  %this.addr = alloca ptr, align 8
  store ptr %this, ptr %this.addr, align 8
  %this1 = load ptr, ptr %this.addr, align 8
  %max_ = getelementptr inbounds %"class.hermes::StatsAccumulator", ptr %this1, i32 0, i32 3
  %0 = load double, ptr %max_, align 8
  ret double %0
}

; Function Attrs: mustprogress nounwind uwtable
define linkonce_odr hidden i64 @_ZN6hermes2vm10formatSizeEm(i64 noundef %size) #0 comdat {
entry:
  %retval = alloca %"struct.hermes::vm::SizeFormatObj", align 8
  %size.addr = alloca i64, align 8
  store i64 %size, ptr %size.addr, align 8
  %bytes = getelementptr inbounds %"struct.hermes::vm::SizeFormatObj", ptr %retval, i32 0, i32 0
  %0 = load i64, ptr %size.addr, align 8
  store i64 %0, ptr %bytes, align 8
  %coerce.dive = getelementptr inbounds %"struct.hermes::vm::SizeFormatObj", ptr %retval, i32 0, i32 0
  %1 = load i64, ptr %coerce.dive, align 8
  ret i64 %1
}

declare void @_ZN6hermes11JSONEmitter9openArrayEv(ptr noundef nonnull align 8 dereferenceable(72)) #2

; Function Attrs: mustprogress nounwind uwtable
define linkonce_odr hidden ptr @_ZNSt6vectorIN6hermes2vm16GCAnalyticsEventESaIS2_EE5beginEv(ptr noundef nonnull align 8 dereferenceable(24) %this) #0 comdat align 2 {
entry:
  %retval = alloca %"class.__gnu_cxx::__normal_iterator", align 8
  %this.addr = alloca ptr, align 8
  store ptr %this, ptr %this.addr, align 8
  %this1 = load ptr, ptr %this.addr, align 8
  %_M_impl = getelementptr inbounds %"struct.std::_Vector_base", ptr %this1, i32 0, i32 0
  %_M_start = getelementptr inbounds %"struct.std::_Vector_base<hermes::vm::GCAnalyticsEvent, std::allocator<hermes::vm::GCAnalyticsEvent>>::_Vector_impl_data", ptr %_M_impl, i32 0, i32 0
  call void @_ZN9__gnu_cxx17__normal_iteratorIPN6hermes2vm16GCAnalyticsEventESt6vectorIS3_SaIS3_EEEC2ERKS4_(ptr noundef nonnull align 8 dereferenceable(8) %retval, ptr noundef nonnull align 8 dereferenceable(8) %_M_start) #14
  %coerce.dive = getelementptr inbounds %"class.__gnu_cxx::__normal_iterator", ptr %retval, i32 0, i32 0
  %0 = load ptr, ptr %coerce.dive, align 8
  ret ptr %0
}

; Function Attrs: mustprogress nounwind uwtable
define linkonce_odr hidden ptr @_ZNSt6vectorIN6hermes2vm16GCAnalyticsEventESaIS2_EE3endEv(ptr noundef nonnull align 8 dereferenceable(24) %this) #0 comdat align 2 {
entry:
  %retval = alloca %"class.__gnu_cxx::__normal_iterator", align 8
  %this.addr = alloca ptr, align 8
  store ptr %this, ptr %this.addr, align 8
  %this1 = load ptr, ptr %this.addr, align 8
  %_M_impl = getelementptr inbounds %"struct.std::_Vector_base", ptr %this1, i32 0, i32 0
  %_M_finish = getelementptr inbounds %"struct.std::_Vector_base<hermes::vm::GCAnalyticsEvent, std::allocator<hermes::vm::GCAnalyticsEvent>>::_Vector_impl_data", ptr %_M_impl, i32 0, i32 1
  call void @_ZN9__gnu_cxx17__normal_iteratorIPN6hermes2vm16GCAnalyticsEventESt6vectorIS3_SaIS3_EEEC2ERKS4_(ptr noundef nonnull align 8 dereferenceable(8) %retval, ptr noundef nonnull align 8 dereferenceable(8) %_M_finish) #14
  %coerce.dive = getelementptr inbounds %"class.__gnu_cxx::__normal_iterator", ptr %retval, i32 0, i32 0
  %0 = load ptr, ptr %coerce.dive, align 8
  ret ptr %0
}

; Function Attrs: mustprogress nounwind uwtable
define linkonce_odr hidden noundef zeroext i1 @_ZN9__gnu_cxxneIPN6hermes2vm16GCAnalyticsEventESt6vectorIS3_SaIS3_EEEEbRKNS_17__normal_iteratorIT_T0_EESD_(ptr noundef nonnull align 8 dereferenceable(8) %__lhs, ptr noundef nonnull align 8 dereferenceable(8) %__rhs) #0 comdat {
entry:
  %__lhs.addr = alloca ptr, align 8
  %__rhs.addr = alloca ptr, align 8
  store ptr %__lhs, ptr %__lhs.addr, align 8
  store ptr %__rhs, ptr %__rhs.addr, align 8
  %0 = load ptr, ptr %__lhs.addr, align 8
  %call = call noundef nonnull align 8 dereferenceable(8) ptr @_ZNK9__gnu_cxx17__normal_iteratorIPN6hermes2vm16GCAnalyticsEventESt6vectorIS3_SaIS3_EEE4baseEv(ptr noundef nonnull align 8 dereferenceable(8) %0) #14
  %1 = load ptr, ptr %call, align 8
  %2 = load ptr, ptr %__rhs.addr, align 8
  %call1 = call noundef nonnull align 8 dereferenceable(8) ptr @_ZNK9__gnu_cxx17__normal_iteratorIPN6hermes2vm16GCAnalyticsEventESt6vectorIS3_SaIS3_EEE4baseEv(ptr noundef nonnull align 8 dereferenceable(8) %2) #14
  %3 = load ptr, ptr %call1, align 8
  %cmp = icmp ne ptr %1, %3
  ret i1 %cmp
}

; Function Attrs: mustprogress nounwind uwtable
define linkonce_odr hidden noundef nonnull align 8 dereferenceable(224) ptr @_ZNK9__gnu_cxx17__normal_iteratorIPN6hermes2vm16GCAnalyticsEventESt6vectorIS3_SaIS3_EEEdeEv(ptr noundef nonnull align 8 dereferenceable(8) %this) #0 comdat align 2 {
entry:
  %this.addr = alloca ptr, align 8
  store ptr %this, ptr %this.addr, align 8
  %this1 = load ptr, ptr %this.addr, align 8
  %_M_current = getelementptr inbounds %"class.__gnu_cxx::__normal_iterator", ptr %this1, i32 0, i32 0
  %0 = load ptr, ptr %_M_current, align 8
  ret ptr %0
}

; Function Attrs: mustprogress nounwind uwtable
define linkonce_odr hidden void @_ZN6hermes11JSONEmitter12emitKeyValueINSt7__cxx1112basic_stringIcSt11char_traitsIcESaIcEEEEEvN4llvh9StringRefERKT_(ptr noundef nonnull align 8 dereferenceable(72) %this, ptr %key.coerce0, i64 %key.coerce1, ptr noundef nonnull align 8 dereferenceable(32) %val) #0 comdat align 2 {
entry:
  %this.addr.i = alloca ptr, align 8
  %Str.addr.i = alloca ptr, align 8
  %key = alloca %"class.llvh::StringRef", align 8
  %this.addr = alloca ptr, align 8
  %val.addr = alloca ptr, align 8
  %agg.tmp = alloca %"class.llvh::StringRef", align 8
  %agg.tmp2 = alloca %"class.llvh::StringRef", align 8
  %0 = getelementptr inbounds { ptr, i64 }, ptr %key, i32 0, i32 0
  store ptr %key.coerce0, ptr %0, align 8
  %1 = getelementptr inbounds { ptr, i64 }, ptr %key, i32 0, i32 1
  store i64 %key.coerce1, ptr %1, align 8
  store ptr %this, ptr %this.addr, align 8
  store ptr %val, ptr %val.addr, align 8
  %this1 = load ptr, ptr %this.addr, align 8
  call void @llvm.memcpy.p0.p0.i64(ptr align 8 %agg.tmp, ptr align 8 %key, i64 16, i1 false)
  %2 = getelementptr inbounds { ptr, i64 }, ptr %agg.tmp, i32 0, i32 0
  %3 = load ptr, ptr %2, align 8
  %4 = getelementptr inbounds { ptr, i64 }, ptr %agg.tmp, i32 0, i32 1
  %5 = load i64, ptr %4, align 8
  call void @_ZN6hermes11JSONEmitter7emitKeyEN4llvh9StringRefE(ptr noundef nonnull align 8 dereferenceable(72) %this1, ptr %3, i64 %5)
  %6 = load ptr, ptr %val.addr, align 8
  store ptr %agg.tmp2, ptr %this.addr.i, align 8
  store ptr %6, ptr %Str.addr.i, align 8
  %this1.i = load ptr, ptr %this.addr.i, align 8
  %7 = load ptr, ptr %Str.addr.i, align 8
  %call.i = call noundef ptr @_ZNKSt7__cxx1112basic_stringIcSt11char_traitsIcESaIcEE4dataEv(ptr noundef nonnull align 8 dereferenceable(32) %7) #14
  store ptr %call.i, ptr %this1.i, align 8
  %Length.i = getelementptr inbounds %"class.llvh::StringRef", ptr %this1.i, i32 0, i32 1
  %8 = load ptr, ptr %Str.addr.i, align 8
  %call2.i = call noundef i64 @_ZNKSt7__cxx1112basic_stringIcSt11char_traitsIcESaIcEE6lengthEv(ptr noundef nonnull align 8 dereferenceable(32) %8) #14
  store i64 %call2.i, ptr %Length.i, align 8
  %9 = getelementptr inbounds { ptr, i64 }, ptr %agg.tmp2, i32 0, i32 0
  %10 = load ptr, ptr %9, align 8
  %11 = getelementptr inbounds { ptr, i64 }, ptr %agg.tmp2, i32 0, i32 1
  %12 = load i64, ptr %11, align 8
  call void @_ZN6hermes11JSONEmitter9emitValueEN4llvh9StringRefE(ptr noundef nonnull align 8 dereferenceable(72) %this1, ptr %10, i64 %12)
  ret void
}

; Function Attrs: mustprogress nounwind uwtable
define linkonce_odr noundef i64 @_ZNKSt6chrono8durationIlSt5ratioILl1ELl1000EEE5countEv(ptr noundef nonnull align 8 dereferenceable(8) %this) #0 comdat align 2 {
entry:
  %this.addr = alloca ptr, align 8
  store ptr %this, ptr %this.addr, align 8
  %this1 = load ptr, ptr %this.addr, align 8
  %__r = getelementptr inbounds %"class.std::chrono::duration.24", ptr %this1, i32 0, i32 0
  %0 = load i64, ptr %__r, align 8
  ret i64 %0
}

; Function Attrs: mustprogress nounwind uwtable
define linkonce_odr ptr @_ZNKSt6vectorINSt7__cxx1112basic_stringIcSt11char_traitsIcESaIcEEESaIS5_EE5beginEv(ptr noundef nonnull align 8 dereferenceable(24) %this) #0 comdat align 2 {
entry:
  %retval = alloca %"class.__gnu_cxx::__normal_iterator.30", align 8
  %this.addr = alloca ptr, align 8
  store ptr %this, ptr %this.addr, align 8
  %this1 = load ptr, ptr %this.addr, align 8
  %_M_impl = getelementptr inbounds %"struct.std::_Vector_base.26", ptr %this1, i32 0, i32 0
  %_M_start = getelementptr inbounds %"struct.std::_Vector_base<std::__cxx11::basic_string<char>, std::allocator<std::__cxx11::basic_string<char>>>::_Vector_impl_data", ptr %_M_impl, i32 0, i32 0
  call void @_ZN9__gnu_cxx17__normal_iteratorIPKNSt7__cxx1112basic_stringIcSt11char_traitsIcESaIcEEESt6vectorIS6_SaIS6_EEEC2ERKS8_(ptr noundef nonnull align 8 dereferenceable(8) %retval, ptr noundef nonnull align 8 dereferenceable(8) %_M_start) #14
  %coerce.dive = getelementptr inbounds %"class.__gnu_cxx::__normal_iterator.30", ptr %retval, i32 0, i32 0
  %0 = load ptr, ptr %coerce.dive, align 8
  ret ptr %0
}

; Function Attrs: mustprogress nounwind uwtable
define linkonce_odr ptr @_ZNKSt6vectorINSt7__cxx1112basic_stringIcSt11char_traitsIcESaIcEEESaIS5_EE3endEv(ptr noundef nonnull align 8 dereferenceable(24) %this) #0 comdat align 2 {
entry:
  %retval = alloca %"class.__gnu_cxx::__normal_iterator.30", align 8
  %this.addr = alloca ptr, align 8
  store ptr %this, ptr %this.addr, align 8
  %this1 = load ptr, ptr %this.addr, align 8
  %_M_impl = getelementptr inbounds %"struct.std::_Vector_base.26", ptr %this1, i32 0, i32 0
  %_M_finish = getelementptr inbounds %"struct.std::_Vector_base<std::__cxx11::basic_string<char>, std::allocator<std::__cxx11::basic_string<char>>>::_Vector_impl_data", ptr %_M_impl, i32 0, i32 1
  call void @_ZN9__gnu_cxx17__normal_iteratorIPKNSt7__cxx1112basic_stringIcSt11char_traitsIcESaIcEEESt6vectorIS6_SaIS6_EEEC2ERKS8_(ptr noundef nonnull align 8 dereferenceable(8) %retval, ptr noundef nonnull align 8 dereferenceable(8) %_M_finish) #14
  %coerce.dive = getelementptr inbounds %"class.__gnu_cxx::__normal_iterator.30", ptr %retval, i32 0, i32 0
  %0 = load ptr, ptr %coerce.dive, align 8
  ret ptr %0
}

; Function Attrs: mustprogress nounwind uwtable
define linkonce_odr noundef zeroext i1 @_ZN9__gnu_cxxneIPKNSt7__cxx1112basic_stringIcSt11char_traitsIcESaIcEEESt6vectorIS6_SaIS6_EEEEbRKNS_17__normal_iteratorIT_T0_EESH_(ptr noundef nonnull align 8 dereferenceable(8) %__lhs, ptr noundef nonnull align 8 dereferenceable(8) %__rhs) #0 comdat {
entry:
  %__lhs.addr = alloca ptr, align 8
  %__rhs.addr = alloca ptr, align 8
  store ptr %__lhs, ptr %__lhs.addr, align 8
  store ptr %__rhs, ptr %__rhs.addr, align 8
  %0 = load ptr, ptr %__lhs.addr, align 8
  %call = call noundef nonnull align 8 dereferenceable(8) ptr @_ZNK9__gnu_cxx17__normal_iteratorIPKNSt7__cxx1112basic_stringIcSt11char_traitsIcESaIcEEESt6vectorIS6_SaIS6_EEE4baseEv(ptr noundef nonnull align 8 dereferenceable(8) %0) #14
  %1 = load ptr, ptr %call, align 8
  %2 = load ptr, ptr %__rhs.addr, align 8
  %call1 = call noundef nonnull align 8 dereferenceable(8) ptr @_ZNK9__gnu_cxx17__normal_iteratorIPKNSt7__cxx1112basic_stringIcSt11char_traitsIcESaIcEEESt6vectorIS6_SaIS6_EEE4baseEv(ptr noundef nonnull align 8 dereferenceable(8) %2) #14
  %3 = load ptr, ptr %call1, align 8
  %cmp = icmp ne ptr %1, %3
  ret i1 %cmp
}

; Function Attrs: mustprogress nounwind uwtable
define linkonce_odr noundef nonnull align 8 dereferenceable(32) ptr @_ZNK9__gnu_cxx17__normal_iteratorIPKNSt7__cxx1112basic_stringIcSt11char_traitsIcESaIcEEESt6vectorIS6_SaIS6_EEEdeEv(ptr noundef nonnull align 8 dereferenceable(8) %this) #0 comdat align 2 {
entry:
  %this.addr = alloca ptr, align 8
  store ptr %this, ptr %this.addr, align 8
  %this1 = load ptr, ptr %this.addr, align 8
  %_M_current = getelementptr inbounds %"class.__gnu_cxx::__normal_iterator.30", ptr %this1, i32 0, i32 0
  %0 = load ptr, ptr %_M_current, align 8
  ret ptr %0
}

declare void @_ZN6hermes11JSONEmitter9emitValueEN4llvh9StringRefE(ptr noundef nonnull align 8 dereferenceable(72), ptr, i64) #2

; Function Attrs: mustprogress nounwind uwtable
define linkonce_odr noundef nonnull align 8 dereferenceable(8) ptr @_ZN9__gnu_cxx17__normal_iteratorIPKNSt7__cxx1112basic_stringIcSt11char_traitsIcESaIcEEESt6vectorIS6_SaIS6_EEEppEv(ptr noundef nonnull align 8 dereferenceable(8) %this) #0 comdat align 2 {
entry:
  %this.addr = alloca ptr, align 8
  store ptr %this, ptr %this.addr, align 8
  %this1 = load ptr, ptr %this.addr, align 8
  %_M_current = getelementptr inbounds %"class.__gnu_cxx::__normal_iterator.30", ptr %this1, i32 0, i32 0
  %0 = load ptr, ptr %_M_current, align 8
  %incdec.ptr = getelementptr inbounds %"class.std::__cxx11::basic_string", ptr %0, i32 1
  store ptr %incdec.ptr, ptr %_M_current, align 8
  ret ptr %this1
}

declare void @_ZN6hermes11JSONEmitter10closeArrayEv(ptr noundef nonnull align 8 dereferenceable(72)) #2

; Function Attrs: mustprogress nounwind uwtable
define linkonce_odr hidden noundef nonnull align 8 dereferenceable(8) ptr @_ZN9__gnu_cxx17__normal_iteratorIPN6hermes2vm16GCAnalyticsEventESt6vectorIS3_SaIS3_EEEppEv(ptr noundef nonnull align 8 dereferenceable(8) %this) #0 comdat align 2 {
entry:
  %this.addr = alloca ptr, align 8
  store ptr %this, ptr %this.addr, align 8
  %this1 = load ptr, ptr %this.addr, align 8
  %_M_current = getelementptr inbounds %"class.__gnu_cxx::__normal_iterator", ptr %this1, i32 0, i32 0
  %0 = load ptr, ptr %_M_current, align 8
  %incdec.ptr = getelementptr inbounds %"struct.hermes::vm::GCAnalyticsEvent", ptr %0, i32 1
  store ptr %incdec.ptr, ptr %_M_current, align 8
  ret ptr %this1
}

; Function Attrs: mustprogress nounwind uwtable
define hidden void @_ZN6hermes2vm6GCBase13recordGCStatsERKNS0_16GCAnalyticsEventEPNS1_19CumulativeHeapStatsEb(ptr noundef nonnull align 8 dereferenceable(741) %this, ptr noundef nonnull align 8 dereferenceable(224) %event, ptr noundef %stats, i1 noundef zeroext %onMutator) #0 align 2 {
entry:
  %this.addr = alloca ptr, align 8
  %event.addr = alloca ptr, align 8
  %stats.addr = alloca ptr, align 8
  %onMutator.addr = alloca i8, align 1
  %ref.tmp = alloca %"class.std::chrono::duration.23", align 8
  %ref.tmp2 = alloca %"class.std::chrono::duration.23", align 8
  store ptr %this, ptr %this.addr, align 8
  store ptr %event, ptr %event.addr, align 8
  store ptr %stats, ptr %stats.addr, align 8
  %frombool = zext i1 %onMutator to i8
  store i8 %frombool, ptr %onMutator.addr, align 1
  %0 = load i8, ptr %onMutator.addr, align 1
  %tobool = trunc i8 %0 to i1
  br i1 %tobool, label %if.then, label %if.end

if.then:                                          ; preds = %entry
  %1 = load ptr, ptr %stats.addr, align 8
  %gcWallTime = getelementptr inbounds %"struct.hermes::vm::GCBase::CumulativeHeapStats", ptr %1, i32 0, i32 1
  %2 = load ptr, ptr %event.addr, align 8
  %duration = getelementptr inbounds %"struct.hermes::vm::GCAnalyticsEvent", ptr %2, i32 0, i32 4
  call void @_ZNSt6chrono8durationIdSt5ratioILl1ELl1EEEC2IlS1_ILl1ELl1000EEvEERKNS0_IT_T0_EE(ptr noundef nonnull align 8 dereferenceable(8) %ref.tmp, ptr noundef nonnull align 8 dereferenceable(8) %duration)
  %call = call noundef double @_ZNKSt6chrono8durationIdSt5ratioILl1ELl1EEE5countEv(ptr noundef nonnull align 8 dereferenceable(8) %ref.tmp)
  call void @_ZN6hermes16StatsAccumulatorIddE6recordEd(ptr noundef nonnull align 8 dereferenceable(40) %gcWallTime, double noundef %call)
  br label %if.end

if.end:                                           ; preds = %if.then, %entry
  %3 = load ptr, ptr %stats.addr, align 8
  %gcCPUTime = getelementptr inbounds %"struct.hermes::vm::GCBase::CumulativeHeapStats", ptr %3, i32 0, i32 2
  %4 = load ptr, ptr %event.addr, align 8
  %cpuDuration = getelementptr inbounds %"struct.hermes::vm::GCAnalyticsEvent", ptr %4, i32 0, i32 5
  call void @_ZNSt6chrono8durationIdSt5ratioILl1ELl1EEEC2IlS1_ILl1ELl1000EEvEERKNS0_IT_T0_EE(ptr noundef nonnull align 8 dereferenceable(8) %ref.tmp2, ptr noundef nonnull align 8 dereferenceable(8) %cpuDuration)
  %call3 = call noundef double @_ZNKSt6chrono8durationIdSt5ratioILl1ELl1EEE5countEv(ptr noundef nonnull align 8 dereferenceable(8) %ref.tmp2)
  call void @_ZN6hermes16StatsAccumulatorIddE6recordEd(ptr noundef nonnull align 8 dereferenceable(40) %gcCPUTime, double noundef %call3)
  %5 = load ptr, ptr %event.addr, align 8
  %size = getelementptr inbounds %"struct.hermes::vm::GCAnalyticsEvent", ptr %5, i32 0, i32 7
  %after = getelementptr inbounds %"struct.hermes::vm::BeforeAndAfter", ptr %size, i32 0, i32 1
  %6 = load i64, ptr %after, align 8
  %conv = trunc i64 %6 to i32
  %7 = load ptr, ptr %stats.addr, align 8
  %finalHeapSize = getelementptr inbounds %"struct.hermes::vm::GCBase::CumulativeHeapStats", ptr %7, i32 0, i32 3
  store i32 %conv, ptr %finalHeapSize, align 8
  %8 = load ptr, ptr %stats.addr, align 8
  %usedBefore = getelementptr inbounds %"struct.hermes::vm::GCBase::CumulativeHeapStats", ptr %8, i32 0, i32 4
  %9 = load ptr, ptr %event.addr, align 8
  %allocated = getelementptr inbounds %"struct.hermes::vm::GCAnalyticsEvent", ptr %9, i32 0, i32 6
  %before = getelementptr inbounds %"struct.hermes::vm::BeforeAndAfter", ptr %allocated, i32 0, i32 0
  %10 = load i64, ptr %before, align 8
  %conv4 = trunc i64 %10 to i32
  call void @_ZN6hermes16StatsAccumulatorIjmE6recordEj(ptr noundef nonnull align 8 dereferenceable(32) %usedBefore, i32 noundef %conv4)
  %11 = load ptr, ptr %stats.addr, align 8
  %usedAfter = getelementptr inbounds %"struct.hermes::vm::GCBase::CumulativeHeapStats", ptr %11, i32 0, i32 5
  %12 = load ptr, ptr %event.addr, align 8
  %allocated5 = getelementptr inbounds %"struct.hermes::vm::GCAnalyticsEvent", ptr %12, i32 0, i32 6
  %after6 = getelementptr inbounds %"struct.hermes::vm::BeforeAndAfter", ptr %allocated5, i32 0, i32 1
  %13 = load i64, ptr %after6, align 8
  %conv7 = trunc i64 %13 to i32
  call void @_ZN6hermes16StatsAccumulatorIjmE6recordEj(ptr noundef nonnull align 8 dereferenceable(32) %usedAfter, i32 noundef %conv7)
  %14 = load ptr, ptr %stats.addr, align 8
  %numCollections = getelementptr inbounds %"struct.hermes::vm::GCBase::CumulativeHeapStats", ptr %14, i32 0, i32 0
  %15 = load i32, ptr %numCollections, align 8
  %inc = add i32 %15, 1
  store i32 %inc, ptr %numCollections, align 8
  ret void
}

; Function Attrs: mustprogress nounwind uwtable
define linkonce_odr hidden void @_ZN6hermes16StatsAccumulatorIddE6recordEd(ptr noundef nonnull align 8 dereferenceable(40) %this, double noundef %value) #0 comdat align 2 {
entry:
  %this.addr = alloca ptr, align 8
  %value.addr = alloca double, align 8
  %valD = alloca double, align 8
  store ptr %this, ptr %this.addr, align 8
  store double %value, ptr %value.addr, align 8
  %this1 = load ptr, ptr %this.addr, align 8
  %n_ = getelementptr inbounds %"class.hermes::StatsAccumulator", ptr %this1, i32 0, i32 0
  %0 = load i32, ptr %n_, align 8
  %cmp = icmp eq i32 %0, 0
  br i1 %cmp, label %if.then, label %if.else

if.then:                                          ; preds = %entry
  %1 = load double, ptr %value.addr, align 8
  %min_ = getelementptr inbounds %"class.hermes::StatsAccumulator", ptr %this1, i32 0, i32 2
  store double %1, ptr %min_, align 8
  %2 = load double, ptr %value.addr, align 8
  %max_ = getelementptr inbounds %"class.hermes::StatsAccumulator", ptr %this1, i32 0, i32 3
  store double %2, ptr %max_, align 8
  br label %if.end

if.else:                                          ; preds = %entry
  %min_2 = getelementptr inbounds %"class.hermes::StatsAccumulator", ptr %this1, i32 0, i32 2
  %call = call noundef nonnull align 8 dereferenceable(8) ptr @_ZSt3minIdERKT_S2_S2_(ptr noundef nonnull align 8 dereferenceable(8) %min_2, ptr noundef nonnull align 8 dereferenceable(8) %value.addr)
  %3 = load double, ptr %call, align 8
  %min_3 = getelementptr inbounds %"class.hermes::StatsAccumulator", ptr %this1, i32 0, i32 2
  store double %3, ptr %min_3, align 8
  %max_4 = getelementptr inbounds %"class.hermes::StatsAccumulator", ptr %this1, i32 0, i32 3
  %call5 = call noundef nonnull align 8 dereferenceable(8) ptr @_ZSt3maxIdERKT_S2_S2_(ptr noundef nonnull align 8 dereferenceable(8) %max_4, ptr noundef nonnull align 8 dereferenceable(8) %value.addr)
  %4 = load double, ptr %call5, align 8
  %max_6 = getelementptr inbounds %"class.hermes::StatsAccumulator", ptr %this1, i32 0, i32 3
  store double %4, ptr %max_6, align 8
  br label %if.end

if.end:                                           ; preds = %if.else, %if.then
  %n_7 = getelementptr inbounds %"class.hermes::StatsAccumulator", ptr %this1, i32 0, i32 0
  %5 = load i32, ptr %n_7, align 8
  %inc = add i32 %5, 1
  store i32 %inc, ptr %n_7, align 8
  %6 = load double, ptr %value.addr, align 8
  %sum_ = getelementptr inbounds %"class.hermes::StatsAccumulator", ptr %this1, i32 0, i32 1
  %7 = load double, ptr %sum_, align 8
  %add = fadd double %7, %6
  store double %add, ptr %sum_, align 8
  %8 = load double, ptr %value.addr, align 8
  store double %8, ptr %valD, align 8
  %9 = load double, ptr %valD, align 8
  %10 = load double, ptr %valD, align 8
  %sumOfSquares_ = getelementptr inbounds %"class.hermes::StatsAccumulator", ptr %this1, i32 0, i32 4
  %11 = load double, ptr %sumOfSquares_, align 8
  %12 = call double @llvm.fmuladd.f64(double %9, double %10, double %11)
  store double %12, ptr %sumOfSquares_, align 8
  ret void
}

; Function Attrs: mustprogress nounwind uwtable
define linkonce_odr void @_ZNSt6chrono8durationIdSt5ratioILl1ELl1EEEC2IlS1_ILl1ELl1000EEvEERKNS0_IT_T0_EE(ptr noundef nonnull align 8 dereferenceable(8) %this, ptr noundef nonnull align 8 dereferenceable(8) %__d) unnamed_addr #0 comdat align 2 {
entry:
  %this.addr = alloca ptr, align 8
  %__d.addr = alloca ptr, align 8
  %ref.tmp = alloca %"class.std::chrono::duration.23", align 8
  store ptr %this, ptr %this.addr, align 8
  store ptr %__d, ptr %__d.addr, align 8
  %this1 = load ptr, ptr %this.addr, align 8
  %__r = getelementptr inbounds %"class.std::chrono::duration.23", ptr %this1, i32 0, i32 0
  %0 = load ptr, ptr %__d.addr, align 8
  %call = call double @_ZNSt6chrono13duration_castINS_8durationIdSt5ratioILl1ELl1EEEElS2_ILl1ELl1000EEEENSt9enable_ifIXsr13__is_durationIT_EE5valueES7_E4typeERKNS1_IT0_T1_EE(ptr noundef nonnull align 8 dereferenceable(8) %0)
  %coerce.dive = getelementptr inbounds %"class.std::chrono::duration.23", ptr %ref.tmp, i32 0, i32 0
  store double %call, ptr %coerce.dive, align 8
  %call2 = call noundef double @_ZNKSt6chrono8durationIdSt5ratioILl1ELl1EEE5countEv(ptr noundef nonnull align 8 dereferenceable(8) %ref.tmp)
  store double %call2, ptr %__r, align 8
  ret void
}

; Function Attrs: mustprogress nounwind uwtable
define linkonce_odr hidden void @_ZN6hermes16StatsAccumulatorIjmE6recordEj(ptr noundef nonnull align 8 dereferenceable(32) %this, i32 noundef %value) #0 comdat align 2 {
entry:
  %this.addr = alloca ptr, align 8
  %value.addr = alloca i32, align 4
  %valD = alloca double, align 8
  store ptr %this, ptr %this.addr, align 8
  store i32 %value, ptr %value.addr, align 4
  %this1 = load ptr, ptr %this.addr, align 8
  %n_ = getelementptr inbounds %"class.hermes::StatsAccumulator.1", ptr %this1, i32 0, i32 0
  %0 = load i32, ptr %n_, align 8
  %cmp = icmp eq i32 %0, 0
  br i1 %cmp, label %if.then, label %if.else

if.then:                                          ; preds = %entry
  %1 = load i32, ptr %value.addr, align 4
  %min_ = getelementptr inbounds %"class.hermes::StatsAccumulator.1", ptr %this1, i32 0, i32 2
  store i32 %1, ptr %min_, align 8
  %2 = load i32, ptr %value.addr, align 4
  %max_ = getelementptr inbounds %"class.hermes::StatsAccumulator.1", ptr %this1, i32 0, i32 3
  store i32 %2, ptr %max_, align 4
  br label %if.end

if.else:                                          ; preds = %entry
  %min_2 = getelementptr inbounds %"class.hermes::StatsAccumulator.1", ptr %this1, i32 0, i32 2
  %call = call noundef nonnull align 4 dereferenceable(4) ptr @_ZSt3minIjERKT_S2_S2_(ptr noundef nonnull align 4 dereferenceable(4) %min_2, ptr noundef nonnull align 4 dereferenceable(4) %value.addr)
  %3 = load i32, ptr %call, align 4
  %min_3 = getelementptr inbounds %"class.hermes::StatsAccumulator.1", ptr %this1, i32 0, i32 2
  store i32 %3, ptr %min_3, align 8
  %max_4 = getelementptr inbounds %"class.hermes::StatsAccumulator.1", ptr %this1, i32 0, i32 3
  %call5 = call noundef nonnull align 4 dereferenceable(4) ptr @_ZSt3maxIjERKT_S2_S2_(ptr noundef nonnull align 4 dereferenceable(4) %max_4, ptr noundef nonnull align 4 dereferenceable(4) %value.addr)
  %4 = load i32, ptr %call5, align 4
  %max_6 = getelementptr inbounds %"class.hermes::StatsAccumulator.1", ptr %this1, i32 0, i32 3
  store i32 %4, ptr %max_6, align 4
  br label %if.end

if.end:                                           ; preds = %if.else, %if.then
  %n_7 = getelementptr inbounds %"class.hermes::StatsAccumulator.1", ptr %this1, i32 0, i32 0
  %5 = load i32, ptr %n_7, align 8
  %inc = add i32 %5, 1
  store i32 %inc, ptr %n_7, align 8
  %6 = load i32, ptr %value.addr, align 4
  %conv = zext i32 %6 to i64
  %sum_ = getelementptr inbounds %"class.hermes::StatsAccumulator.1", ptr %this1, i32 0, i32 1
  %7 = load i64, ptr %sum_, align 8
  %add = add i64 %7, %conv
  store i64 %add, ptr %sum_, align 8
  %8 = load i32, ptr %value.addr, align 4
  %conv8 = uitofp i32 %8 to double
  store double %conv8, ptr %valD, align 8
  %9 = load double, ptr %valD, align 8
  %10 = load double, ptr %valD, align 8
  %sumOfSquares_ = getelementptr inbounds %"class.hermes::StatsAccumulator.1", ptr %this1, i32 0, i32 4
  %11 = load double, ptr %sumOfSquares_, align 8
  %12 = call double @llvm.fmuladd.f64(double %9, double %10, double %11)
  store double %12, ptr %sumOfSquares_, align 8
  ret void
}

; Function Attrs: mustprogress nounwind uwtable
define hidden void @_ZN6hermes2vm6GCBase13recordGCStatsERKNS0_16GCAnalyticsEventEb(ptr noundef nonnull align 8 dereferenceable(741) %this, ptr noundef nonnull align 8 dereferenceable(224) %event, i1 noundef zeroext %onMutator) #0 align 2 {
entry:
  %this.addr = alloca ptr, align 8
  %event.addr = alloca ptr, align 8
  %onMutator.addr = alloca i8, align 1
  store ptr %this, ptr %this.addr, align 8
  store ptr %event, ptr %event.addr, align 8
  %frombool = zext i1 %onMutator to i8
  store i8 %frombool, ptr %onMutator.addr, align 1
  %this1 = load ptr, ptr %this.addr, align 8
  %analyticsCallback_ = getelementptr inbounds %"class.hermes::vm::GCBase", ptr %this1, i32 0, i32 11
  %call = call noundef zeroext i1 @_ZNKSt8functionIFvRKN6hermes2vm16GCAnalyticsEventEEEcvbEv(ptr noundef nonnull align 8 dereferenceable(32) %analyticsCallback_) #14
  br i1 %call, label %if.then, label %if.end

if.then:                                          ; preds = %entry
  %analyticsCallback_2 = getelementptr inbounds %"class.hermes::vm::GCBase", ptr %this1, i32 0, i32 11
  %0 = load ptr, ptr %event.addr, align 8
  call void @_ZNKSt8functionIFvRKN6hermes2vm16GCAnalyticsEventEEEclES4_(ptr noundef nonnull align 8 dereferenceable(32) %analyticsCallback_2, ptr noundef nonnull align 8 dereferenceable(224) %0)
  br label %if.end

if.end:                                           ; preds = %if.then, %entry
  %recordGcStats_ = getelementptr inbounds %"class.hermes::vm::GCBase", ptr %this1, i32 0, i32 13
  %1 = load i8, ptr %recordGcStats_, align 8
  %tobool = trunc i8 %1 to i1
  br i1 %tobool, label %if.then3, label %if.end4

if.then3:                                         ; preds = %if.end
  %analyticsEvents_ = getelementptr inbounds %"class.hermes::vm::GCBase", ptr %this1, i32 0, i32 12
  %2 = load ptr, ptr %event.addr, align 8
  call void @_ZNSt6vectorIN6hermes2vm16GCAnalyticsEventESaIS2_EE9push_backERKS2_(ptr noundef nonnull align 8 dereferenceable(24) %analyticsEvents_, ptr noundef nonnull align 8 dereferenceable(224) %2)
  br label %if.end4

if.end4:                                          ; preds = %if.then3, %if.end
  %3 = load ptr, ptr %event.addr, align 8
  %cumStats_ = getelementptr inbounds %"class.hermes::vm::GCBase", ptr %this1, i32 0, i32 22
  %4 = load i8, ptr %onMutator.addr, align 1
  %tobool5 = trunc i8 %4 to i1
  call void @_ZN6hermes2vm6GCBase13recordGCStatsERKNS0_16GCAnalyticsEventEPNS1_19CumulativeHeapStatsEb(ptr noundef nonnull align 8 dereferenceable(741) %this1, ptr noundef nonnull align 8 dereferenceable(224) %3, ptr noundef %cumStats_, i1 noundef zeroext %tobool5)
  ret void
}

; Function Attrs: mustprogress nounwind uwtable
define linkonce_odr hidden noundef zeroext i1 @_ZNKSt8functionIFvRKN6hermes2vm16GCAnalyticsEventEEEcvbEv(ptr noundef nonnull align 8 dereferenceable(32) %this) #0 comdat align 2 {
entry:
  %this.addr = alloca ptr, align 8
  store ptr %this, ptr %this.addr, align 8
  %this1 = load ptr, ptr %this.addr, align 8
  %call = call noundef zeroext i1 @_ZNKSt14_Function_base8_M_emptyEv(ptr noundef nonnull align 8 dereferenceable(24) %this1)
  %lnot = xor i1 %call, true
  ret i1 %lnot
}

; Function Attrs: mustprogress nounwind uwtable
define linkonce_odr hidden void @_ZNKSt8functionIFvRKN6hermes2vm16GCAnalyticsEventEEEclES4_(ptr noundef nonnull align 8 dereferenceable(32) %this, ptr noundef nonnull align 8 dereferenceable(224) %__args) #0 comdat align 2 {
entry:
  %this.addr = alloca ptr, align 8
  %__args.addr = alloca ptr, align 8
  store ptr %this, ptr %this.addr, align 8
  store ptr %__args, ptr %__args.addr, align 8
  %this1 = load ptr, ptr %this.addr, align 8
  %call = call noundef zeroext i1 @_ZNKSt14_Function_base8_M_emptyEv(ptr noundef nonnull align 8 dereferenceable(24) %this1)
  br i1 %call, label %if.then, label %if.end

if.then:                                          ; preds = %entry
  call void @_ZSt25__throw_bad_function_callv() #15
  unreachable

if.end:                                           ; preds = %entry
  %_M_invoker = getelementptr inbounds %"class.std::function", ptr %this1, i32 0, i32 1
  %0 = load ptr, ptr %_M_invoker, align 8
  %_M_functor = getelementptr inbounds %"class.std::_Function_base", ptr %this1, i32 0, i32 0
  %1 = load ptr, ptr %__args.addr, align 8
  call void %0(ptr noundef nonnull align 8 dereferenceable(16) %_M_functor, ptr noundef nonnull align 8 dereferenceable(224) %1)
  ret void
}

; Function Attrs: mustprogress nounwind uwtable
define linkonce_odr hidden void @_ZNSt6vectorIN6hermes2vm16GCAnalyticsEventESaIS2_EE9push_backERKS2_(ptr noundef nonnull align 8 dereferenceable(24) %this, ptr noundef nonnull align 8 dereferenceable(224) %__x) #0 comdat align 2 {
entry:
  %this.addr = alloca ptr, align 8
  %__x.addr = alloca ptr, align 8
  %agg.tmp = alloca %"class.__gnu_cxx::__normal_iterator", align 8
  store ptr %this, ptr %this.addr, align 8
  store ptr %__x, ptr %__x.addr, align 8
  %this1 = load ptr, ptr %this.addr, align 8
  %_M_impl = getelementptr inbounds %"struct.std::_Vector_base", ptr %this1, i32 0, i32 0
  %_M_finish = getelementptr inbounds %"struct.std::_Vector_base<hermes::vm::GCAnalyticsEvent, std::allocator<hermes::vm::GCAnalyticsEvent>>::_Vector_impl_data", ptr %_M_impl, i32 0, i32 1
  %0 = load ptr, ptr %_M_finish, align 8
  %_M_impl2 = getelementptr inbounds %"struct.std::_Vector_base", ptr %this1, i32 0, i32 0
  %_M_end_of_storage = getelementptr inbounds %"struct.std::_Vector_base<hermes::vm::GCAnalyticsEvent, std::allocator<hermes::vm::GCAnalyticsEvent>>::_Vector_impl_data", ptr %_M_impl2, i32 0, i32 2
  %1 = load ptr, ptr %_M_end_of_storage, align 8
  %cmp = icmp ne ptr %0, %1
  br i1 %cmp, label %if.then, label %if.else

if.then:                                          ; preds = %entry
  %_M_impl3 = getelementptr inbounds %"struct.std::_Vector_base", ptr %this1, i32 0, i32 0
  %_M_impl4 = getelementptr inbounds %"struct.std::_Vector_base", ptr %this1, i32 0, i32 0
  %_M_finish5 = getelementptr inbounds %"struct.std::_Vector_base<hermes::vm::GCAnalyticsEvent, std::allocator<hermes::vm::GCAnalyticsEvent>>::_Vector_impl_data", ptr %_M_impl4, i32 0, i32 1
  %2 = load ptr, ptr %_M_finish5, align 8
  %3 = load ptr, ptr %__x.addr, align 8
  call void @_ZNSt16allocator_traitsISaIN6hermes2vm16GCAnalyticsEventEEE9constructIS2_JRKS2_EEEvRS3_PT_DpOT0_(ptr noundef nonnull align 1 dereferenceable(1) %_M_impl3, ptr noundef %2, ptr noundef nonnull align 8 dereferenceable(224) %3)
  %_M_impl6 = getelementptr inbounds %"struct.std::_Vector_base", ptr %this1, i32 0, i32 0
  %_M_finish7 = getelementptr inbounds %"struct.std::_Vector_base<hermes::vm::GCAnalyticsEvent, std::allocator<hermes::vm::GCAnalyticsEvent>>::_Vector_impl_data", ptr %_M_impl6, i32 0, i32 1
  %4 = load ptr, ptr %_M_finish7, align 8
  %incdec.ptr = getelementptr inbounds %"struct.hermes::vm::GCAnalyticsEvent", ptr %4, i32 1
  store ptr %incdec.ptr, ptr %_M_finish7, align 8
  br label %if.end

if.else:                                          ; preds = %entry
  %call = call ptr @_ZNSt6vectorIN6hermes2vm16GCAnalyticsEventESaIS2_EE3endEv(ptr noundef nonnull align 8 dereferenceable(24) %this1) #14
  %coerce.dive = getelementptr inbounds %"class.__gnu_cxx::__normal_iterator", ptr %agg.tmp, i32 0, i32 0
  store ptr %call, ptr %coerce.dive, align 8
  %5 = load ptr, ptr %__x.addr, align 8
  %coerce.dive8 = getelementptr inbounds %"class.__gnu_cxx::__normal_iterator", ptr %agg.tmp, i32 0, i32 0
  %6 = load ptr, ptr %coerce.dive8, align 8
  call void @_ZNSt6vectorIN6hermes2vm16GCAnalyticsEventESaIS2_EE17_M_realloc_insertIJRKS2_EEEvN9__gnu_cxx17__normal_iteratorIPS2_S4_EEDpOT_(ptr noundef nonnull align 8 dereferenceable(24) %this1, ptr %6, ptr noundef nonnull align 8 dereferenceable(224) %5)
  br label %if.end

if.end:                                           ; preds = %if.else, %if.then
  ret void
}

; Function Attrs: mustprogress noreturn nounwind uwtable
define hidden void @_ZN6hermes2vm6GCBase3oomESt10error_code(ptr noundef nonnull align 8 dereferenceable(741) %this, i32 %reason.coerce0, ptr %reason.coerce1) #5 align 2 {
entry:
  %this.addr.i = alloca ptr, align 8
  %Str.addr.i = alloca ptr, align 8
  %reason = alloca %"class.std::error_code", align 8
  %this.addr = alloca ptr, align 8
  %detailBuffer = alloca [400 x i8], align 16
  %agg.tmp = alloca %"class.llvh::MutableArrayRef", align 8
  %agg.tmp2 = alloca %"class.std::error_code", align 8
  %agg.tmp6 = alloca %"class.llvh::StringRef", align 8
  %agg.tmp7 = alloca %"class.std::error_code", align 8
  %0 = getelementptr inbounds { i32, ptr }, ptr %reason, i32 0, i32 0
  store i32 %reason.coerce0, ptr %0, align 8
  %1 = getelementptr inbounds { i32, ptr }, ptr %reason, i32 0, i32 1
  store ptr %reason.coerce1, ptr %1, align 8
  store ptr %this, ptr %this.addr, align 8
  %this1 = load ptr, ptr %this.addr, align 8
  %hasOOMed_ = getelementptr inbounds %"class.hermes::vm::GCBase", ptr %this1, i32 0, i32 15
  store i8 1, ptr %hasOOMed_, align 2
  call void @_ZN4llvh15MutableArrayRefIcEC2ILm400EEERAT__c(ptr noundef nonnull align 8 dereferenceable(16) %agg.tmp, ptr noundef nonnull align 1 dereferenceable(400) %detailBuffer)
  call void @llvm.memcpy.p0.p0.i64(ptr align 8 %agg.tmp2, ptr align 8 %reason, i64 16, i1 false)
  %2 = getelementptr inbounds { ptr, i64 }, ptr %agg.tmp, i32 0, i32 0
  %3 = load ptr, ptr %2, align 8
  %4 = getelementptr inbounds { ptr, i64 }, ptr %agg.tmp, i32 0, i32 1
  %5 = load i64, ptr %4, align 8
  %6 = getelementptr inbounds { i32, ptr }, ptr %agg.tmp2, i32 0, i32 0
  %7 = load i32, ptr %6, align 8
  %8 = getelementptr inbounds { i32, ptr }, ptr %agg.tmp2, i32 0, i32 1
  %9 = load ptr, ptr %8, align 8
  %vtable = load ptr, ptr %this1, align 8
  %vfn = getelementptr inbounds ptr, ptr %vtable, i64 20
  %10 = load ptr, ptr %vfn, align 8
  call void %10(ptr noundef nonnull align 8 dereferenceable(741) %this1, ptr %3, i64 %5, i32 %7, ptr %9)
  %arraydecay = getelementptr inbounds [400 x i8], ptr %detailBuffer, i64 0, i64 0
  call void (ptr, ptr, ...) @_ZN6hermes9hermesLogEPKcS1_z(ptr noundef @.str.44, ptr noundef @.str.45, ptr noundef %arraydecay)
  %crashMgr_ = getelementptr inbounds %"class.hermes::vm::GCBase", ptr %this1, i32 0, i32 8
  %call = call noundef ptr @_ZNKSt19__shared_ptr_accessIN6hermes2vm12CrashManagerELN9__gnu_cxx12_Lock_policyE2ELb0ELb0EEptEv(ptr noundef nonnull align 1 dereferenceable(1) %crashMgr_) #14
  %arraydecay3 = getelementptr inbounds [400 x i8], ptr %detailBuffer, i64 0, i64 0
  %vtable4 = load ptr, ptr %call, align 8
  %vfn5 = getelementptr inbounds ptr, ptr %vtable4, i64 2
  %11 = load ptr, ptr %vfn5, align 8
  call void %11(ptr noundef nonnull align 8 dereferenceable(8) %call, ptr noundef @.str.46, ptr noundef %arraydecay3)
  store ptr %agg.tmp6, ptr %this.addr.i, align 8
  store ptr @.str.47, ptr %Str.addr.i, align 8
  %this1.i = load ptr, ptr %this.addr.i, align 8
  %12 = load ptr, ptr %Str.addr.i, align 8
  store ptr %12, ptr %this1.i, align 8
  %Length.i = getelementptr inbounds %"class.llvh::StringRef", ptr %this1.i, i32 0, i32 1
  %13 = load ptr, ptr %Str.addr.i, align 8
  %tobool.i = icmp ne ptr %13, null
  br i1 %tobool.i, label %cond.true.i, label %cond.false.i

cond.true.i:                                      ; preds = %entry
  %14 = load ptr, ptr %Str.addr.i, align 8
  %call.i = call i64 @strlen(ptr noundef %14) #16
  br label %_ZN4llvh9StringRefC2EPKc.exit

cond.false.i:                                     ; preds = %entry
  br label %_ZN4llvh9StringRefC2EPKc.exit

_ZN4llvh9StringRefC2EPKc.exit:                    ; preds = %cond.false.i, %cond.true.i
  %cond.i = phi i64 [ %call.i, %cond.true.i ], [ 0, %cond.false.i ]
  store i64 %cond.i, ptr %Length.i, align 8
  call void @llvm.memcpy.p0.p0.i64(ptr align 8 %agg.tmp7, ptr align 8 %reason, i64 16, i1 false)
  %15 = getelementptr inbounds { ptr, i64 }, ptr %agg.tmp6, i32 0, i32 0
  %16 = load ptr, ptr %15, align 8
  %17 = getelementptr inbounds { ptr, i64 }, ptr %agg.tmp6, i32 0, i32 1
  %18 = load i64, ptr %17, align 8
  %19 = getelementptr inbounds { i32, ptr }, ptr %agg.tmp7, i32 0, i32 0
  %20 = load i32, ptr %19, align 8
  %21 = getelementptr inbounds { i32, ptr }, ptr %agg.tmp7, i32 0, i32 1
  %22 = load ptr, ptr %21, align 8
  call void @_ZN6hermes12hermes_fatalEN4llvh9StringRefESt10error_code(ptr %16, i64 %18, i32 %20, ptr %22) #15
  unreachable
}

; Function Attrs: mustprogress nounwind uwtable
define linkonce_odr hidden void @_ZN4llvh15MutableArrayRefIcEC2ILm400EEERAT__c(ptr noundef nonnull align 8 dereferenceable(16) %this, ptr noundef nonnull align 1 dereferenceable(400) %Arr) unnamed_addr #0 comdat align 2 {
entry:
  %this.addr = alloca ptr, align 8
  %Arr.addr = alloca ptr, align 8
  store ptr %this, ptr %this.addr, align 8
  store ptr %Arr, ptr %Arr.addr, align 8
  %this1 = load ptr, ptr %this.addr, align 8
  %0 = load ptr, ptr %Arr.addr, align 8
  call void @_ZN4llvh8ArrayRefIcEC2ILm400EEERAT__Kc(ptr noundef nonnull align 8 dereferenceable(16) %this1, ptr noundef nonnull align 1 dereferenceable(400) %0)
  ret void
}

declare void @_ZN6hermes9hermesLogEPKcS1_z(ptr noundef, ptr noundef, ...) #2

; Function Attrs: mustprogress nounwind uwtable
define linkonce_odr noundef ptr @_ZNKSt19__shared_ptr_accessIN6hermes2vm12CrashManagerELN9__gnu_cxx12_Lock_policyE2ELb0ELb0EEptEv(ptr noundef nonnull align 1 dereferenceable(1) %this) #0 comdat align 2 {
entry:
  %this.addr = alloca ptr, align 8
  store ptr %this, ptr %this.addr, align 8
  %this1 = load ptr, ptr %this.addr, align 8
  %call = call noundef ptr @_ZNKSt19__shared_ptr_accessIN6hermes2vm12CrashManagerELN9__gnu_cxx12_Lock_policyE2ELb0ELb0EE6_M_getEv(ptr noundef nonnull align 1 dereferenceable(1) %this1) #14
  ret ptr %call
}

; Function Attrs: noreturn
declare void @_ZN6hermes12hermes_fatalEN4llvh9StringRefESt10error_code(ptr, i64, i32, ptr) #6

; Function Attrs: mustprogress nounwind uwtable
define hidden void @_ZN6hermes2vm6GCBase9oomDetailEN4llvh15MutableArrayRefIcEESt10error_code(ptr noundef nonnull align 8 dereferenceable(741) %this, ptr %detailBuffer.coerce0, i64 %detailBuffer.coerce1, i32 %reason.coerce0, ptr %reason.coerce1) unnamed_addr #0 align 2 {
entry:
  %detailBuffer = alloca %"class.llvh::MutableArrayRef", align 8
  %reason = alloca %"class.std::error_code", align 8
  %this.addr = alloca ptr, align 8
  %heapInfo = alloca %"struct.hermes::vm::GCBase::HeapInfo", align 8
  %ref.tmp = alloca %"class.std::__cxx11::basic_string", align 8
  %0 = getelementptr inbounds { ptr, i64 }, ptr %detailBuffer, i32 0, i32 0
  store ptr %detailBuffer.coerce0, ptr %0, align 8
  %1 = getelementptr inbounds { ptr, i64 }, ptr %detailBuffer, i32 0, i32 1
  store i64 %detailBuffer.coerce1, ptr %1, align 8
  %2 = getelementptr inbounds { i32, ptr }, ptr %reason, i32 0, i32 0
  store i32 %reason.coerce0, ptr %2, align 8
  %3 = getelementptr inbounds { i32, ptr }, ptr %reason, i32 0, i32 1
  store ptr %reason.coerce1, ptr %3, align 8
  store ptr %this, ptr %this.addr, align 8
  %this1 = load ptr, ptr %this.addr, align 8
  call void @_ZN6hermes2vm6GCBase8HeapInfoC2Ev(ptr noundef nonnull align 8 dereferenceable(384) %heapInfo) #14
  %vtable = load ptr, ptr %this1, align 8
  %vfn = getelementptr inbounds ptr, ptr %vtable, i64 6
  %4 = load ptr, ptr %vfn, align 8
  call void %4(ptr noundef nonnull align 8 dereferenceable(741) %this1, ptr noundef nonnull align 8 dereferenceable(384) %heapInfo)
  %call = call noundef ptr @_ZNK4llvh15MutableArrayRefIcE4dataEv(ptr noundef nonnull align 8 dereferenceable(16) %detailBuffer)
  %call2 = call noundef i64 @_ZNK4llvh8ArrayRefIcE4sizeEv(ptr noundef nonnull align 8 dereferenceable(16) %detailBuffer)
  %name_ = getelementptr inbounds %"class.hermes::vm::GCBase", ptr %this1, i32 0, i32 23
  %call3 = call noundef ptr @_ZNKSt7__cxx1112basic_stringIcSt11char_traitsIcESaIcEE5c_strEv(ptr noundef nonnull align 8 dereferenceable(32) %name_) #14
  call void @_ZNKSt10error_code7messageB5cxx11Ev(ptr sret(%"class.std::__cxx11::basic_string") align 8 %ref.tmp, ptr noundef nonnull align 8 dereferenceable(16) %reason)
  %call4 = call noundef ptr @_ZNKSt7__cxx1112basic_stringIcSt11char_traitsIcESaIcEE5c_strEv(ptr noundef nonnull align 8 dereferenceable(32) %ref.tmp) #14
  %call5 = call noundef i32 @_ZNKSt10error_code5valueEv(ptr noundef nonnull align 8 dereferenceable(16) %reason) #14
  %call6 = call noundef nonnull align 8 dereferenceable(8) ptr @_ZNKSt10error_code8categoryEv(ptr noundef nonnull align 8 dereferenceable(16) %reason) #14
  %vtable7 = load ptr, ptr %call6, align 8
  %vfn8 = getelementptr inbounds ptr, ptr %vtable7, i64 2
  %5 = load ptr, ptr %vfn8, align 8
  %call9 = call noundef ptr %5(ptr noundef nonnull align 8 dereferenceable(8) %call6) #14
  %numCollections = getelementptr inbounds %"struct.hermes::vm::GCBase::HeapInfo", ptr %heapInfo, i32 0, i32 0
  %6 = load i32, ptr %numCollections, align 8
  %heapSize = getelementptr inbounds %"struct.hermes::vm::GCBase::HeapInfo", ptr %heapInfo, i32 0, i32 3
  %7 = load i64, ptr %heapSize, align 8
  %allocatedBytes = getelementptr inbounds %"struct.hermes::vm::GCBase::HeapInfo", ptr %heapInfo, i32 0, i32 2
  %8 = load i64, ptr %allocatedBytes, align 8
  %va = getelementptr inbounds %"struct.hermes::vm::GCBase::HeapInfo", ptr %heapInfo, i32 0, i32 5
  %9 = load i64, ptr %va, align 8
  %externalBytes = getelementptr inbounds %"struct.hermes::vm::GCBase::HeapInfo", ptr %heapInfo, i32 0, i32 6
  %10 = load i64, ptr %externalBytes, align 8
  %call10 = call i32 (ptr, i64, ptr, ...) @snprintf(ptr noundef %call, i64 noundef %call2, ptr noundef @.str.48, ptr noundef %call3, ptr noundef %call4, i32 noundef %call5, ptr noundef %call9, i32 noundef %6, i64 noundef %7, i64 noundef %8, i64 noundef %9, i64 noundef %10) #14
  call void @_ZNSt7__cxx1112basic_stringIcSt11char_traitsIcESaIcEED1Ev(ptr noundef nonnull align 8 dereferenceable(32) %ref.tmp) #14
  ret void
}

; Function Attrs: nounwind
declare i32 @snprintf(ptr noundef, i64 noundef, ptr noundef, ...) #3

; Function Attrs: mustprogress nounwind uwtable
define linkonce_odr hidden noundef ptr @_ZNK4llvh15MutableArrayRefIcE4dataEv(ptr noundef nonnull align 8 dereferenceable(16) %this) #0 comdat align 2 {
entry:
  %this.addr = alloca ptr, align 8
  store ptr %this, ptr %this.addr, align 8
  %this1 = load ptr, ptr %this.addr, align 8
  %call = call noundef ptr @_ZNK4llvh8ArrayRefIcE4dataEv(ptr noundef nonnull align 8 dereferenceable(16) %this1)
  ret ptr %call
}

; Function Attrs: mustprogress nounwind uwtable
define linkonce_odr hidden noundef i64 @_ZNK4llvh8ArrayRefIcE4sizeEv(ptr noundef nonnull align 8 dereferenceable(16) %this) #0 comdat align 2 {
entry:
  %this.addr = alloca ptr, align 8
  store ptr %this, ptr %this.addr, align 8
  %this1 = load ptr, ptr %this.addr, align 8
  %Length = getelementptr inbounds %"class.llvh::ArrayRef", ptr %this1, i32 0, i32 1
  %0 = load i64, ptr %Length, align 8
  ret i64 %0
}

; Function Attrs: nounwind
declare noundef ptr @_ZNKSt7__cxx1112basic_stringIcSt11char_traitsIcESaIcEE5c_strEv(ptr noundef nonnull align 8 dereferenceable(32)) #3

; Function Attrs: mustprogress nounwind uwtable
define linkonce_odr void @_ZNKSt10error_code7messageB5cxx11Ev(ptr noalias sret(%"class.std::__cxx11::basic_string") align 8 %agg.result, ptr noundef nonnull align 8 dereferenceable(16) %this) #0 comdat align 2 {
entry:
  %result.ptr = alloca ptr, align 8
  %this.addr = alloca ptr, align 8
  store ptr %agg.result, ptr %result.ptr, align 8
  store ptr %this, ptr %this.addr, align 8
  %this1 = load ptr, ptr %this.addr, align 8
  %call = call noundef nonnull align 8 dereferenceable(8) ptr @_ZNKSt10error_code8categoryEv(ptr noundef nonnull align 8 dereferenceable(16) %this1) #14
  %call2 = call noundef i32 @_ZNKSt10error_code5valueEv(ptr noundef nonnull align 8 dereferenceable(16) %this1) #14
  %vtable = load ptr, ptr %call, align 8
  %vfn = getelementptr inbounds ptr, ptr %vtable, i64 4
  %0 = load ptr, ptr %vfn, align 8
  call void %0(ptr sret(%"class.std::__cxx11::basic_string") align 8 %agg.result, ptr noundef nonnull align 8 dereferenceable(8) %call, i32 noundef %call2)
  ret void
}

; Function Attrs: mustprogress nounwind uwtable
define linkonce_odr noundef i32 @_ZNKSt10error_code5valueEv(ptr noundef nonnull align 8 dereferenceable(16) %this) #0 comdat align 2 {
entry:
  %this.addr = alloca ptr, align 8
  store ptr %this, ptr %this.addr, align 8
  %this1 = load ptr, ptr %this.addr, align 8
  %_M_value = getelementptr inbounds %"class.std::error_code", ptr %this1, i32 0, i32 0
  %0 = load i32, ptr %_M_value, align 8
  ret i32 %0
}

; Function Attrs: mustprogress nounwind uwtable
define linkonce_odr noundef nonnull align 8 dereferenceable(8) ptr @_ZNKSt10error_code8categoryEv(ptr noundef nonnull align 8 dereferenceable(16) %this) #0 comdat align 2 {
entry:
  %this.addr = alloca ptr, align 8
  store ptr %this, ptr %this.addr, align 8
  %this1 = load ptr, ptr %this.addr, align 8
  %_M_cat = getelementptr inbounds %"class.std::error_code", ptr %this1, i32 0, i32 1
  %0 = load ptr, ptr %_M_cat, align 8
  ret ptr %0
}

; Function Attrs: mustprogress nounwind uwtable
define hidden void @_ZN6hermes2vm6GCBase12buildKeyListERNS0_7HadesGCEPNS0_13JSWeakMapImplILNS0_8CellKindE51EEE(ptr noalias sret(%"class.std::vector.31") align 8 %agg.result, ptr noundef nonnull align 8 dereferenceable(8152) %gc, ptr noundef %weakMap) #0 align 2 {
entry:
  %result.ptr = alloca ptr, align 8
  %gc.addr = alloca ptr, align 8
  %weakMap.addr = alloca ptr, align 8
  %nrvo = alloca i1, align 1
  %iter = alloca %"struct.hermes::vm::JSWeakMapImplBase::KeyIterator", align 8
  %end = alloca %"struct.hermes::vm::JSWeakMapImplBase::KeyIterator", align 8
  %ref.tmp = alloca ptr, align 8
  store ptr %agg.result, ptr %result.ptr, align 8
  store ptr %gc, ptr %gc.addr, align 8
  store ptr %weakMap, ptr %weakMap.addr, align 8
  store i1 false, ptr %nrvo, align 1
  call void @_ZNSt6vectorIPN6hermes2vm6detail10WeakRefKeyESaIS4_EEC2Ev(ptr noundef nonnull align 8 dereferenceable(24) %agg.result) #14
  %0 = load ptr, ptr %weakMap.addr, align 8
  %call = call { ptr, ptr } @_ZN6hermes2vm17JSWeakMapImplBase10keys_beginEv(ptr noundef nonnull align 8 dereferenceable(61) %0)
  %coerce.dive = getelementptr inbounds %"struct.hermes::vm::JSWeakMapImplBase::KeyIterator", ptr %iter, i32 0, i32 0
  %1 = getelementptr inbounds { ptr, ptr }, ptr %coerce.dive, i32 0, i32 0
  %2 = extractvalue { ptr, ptr } %call, 0
  store ptr %2, ptr %1, align 8
  %3 = getelementptr inbounds { ptr, ptr }, ptr %coerce.dive, i32 0, i32 1
  %4 = extractvalue { ptr, ptr } %call, 1
  store ptr %4, ptr %3, align 8
  %5 = load ptr, ptr %weakMap.addr, align 8
  %call1 = call { ptr, ptr } @_ZN6hermes2vm17JSWeakMapImplBase8keys_endEv(ptr noundef nonnull align 8 dereferenceable(61) %5)
  %coerce.dive2 = getelementptr inbounds %"struct.hermes::vm::JSWeakMapImplBase::KeyIterator", ptr %end, i32 0, i32 0
  %6 = getelementptr inbounds { ptr, ptr }, ptr %coerce.dive2, i32 0, i32 0
  %7 = extractvalue { ptr, ptr } %call1, 0
  store ptr %7, ptr %6, align 8
  %8 = getelementptr inbounds { ptr, ptr }, ptr %coerce.dive2, i32 0, i32 1
  %9 = extractvalue { ptr, ptr } %call1, 1
  store ptr %9, ptr %8, align 8
  br label %for.cond

for.cond:                                         ; preds = %for.inc, %entry
  %call3 = call noundef zeroext i1 @_ZN6hermes2vm17JSWeakMapImplBase11KeyIteratorneERKS2_(ptr noundef nonnull align 8 dereferenceable(16) %iter, ptr noundef nonnull align 8 dereferenceable(16) %end)
  br i1 %call3, label %for.body, label %for.end

for.body:                                         ; preds = %for.cond
  %call4 = call noundef ptr @_ZN6hermes2vm17JSWeakMapImplBase11KeyIteratorptEv(ptr noundef nonnull align 8 dereferenceable(16) %iter)
  %10 = load ptr, ptr %gc.addr, align 8
  %call5 = call noundef ptr @_ZNK6hermes2vm6detail10WeakRefKey13getObjectInGCERNS0_7HadesGCE(ptr noundef nonnull align 8 dereferenceable(12) %call4, ptr noundef nonnull align 8 dereferenceable(8152) %10)
  %tobool = icmp ne ptr %call5, null
  br i1 %tobool, label %if.then, label %if.end

if.then:                                          ; preds = %for.body
  %call6 = call noundef nonnull align 8 dereferenceable(12) ptr @_ZN6hermes2vm17JSWeakMapImplBase11KeyIteratordeEv(ptr noundef nonnull align 8 dereferenceable(16) %iter)
  store ptr %call6, ptr %ref.tmp, align 8
  call void @_ZNSt6vectorIPN6hermes2vm6detail10WeakRefKeyESaIS4_EE9push_backEOS4_(ptr noundef nonnull align 8 dereferenceable(24) %agg.result, ptr noundef nonnull align 8 dereferenceable(8) %ref.tmp)
  br label %if.end

if.end:                                           ; preds = %if.then, %for.body
  br label %for.inc

for.inc:                                          ; preds = %if.end
  %call7 = call noundef nonnull align 8 dereferenceable(16) ptr @_ZN6hermes2vm17JSWeakMapImplBase11KeyIteratorppEi(ptr noundef nonnull align 8 dereferenceable(16) %iter, i32 noundef 0)
  br label %for.cond, !llvm.loop !6

for.end:                                          ; preds = %for.cond
  store i1 true, ptr %nrvo, align 1
  %nrvo.val = load i1, ptr %nrvo, align 1
  br i1 %nrvo.val, label %nrvo.skipdtor, label %nrvo.unused

nrvo.unused:                                      ; preds = %for.end
  call void @_ZNSt6vectorIPN6hermes2vm6detail10WeakRefKeyESaIS4_EED2Ev(ptr noundef nonnull align 8 dereferenceable(24) %agg.result) #14
  br label %nrvo.skipdtor

nrvo.skipdtor:                                    ; preds = %nrvo.unused, %for.end
  ret void
}

; Function Attrs: mustprogress nounwind uwtable
define linkonce_odr hidden void @_ZNSt6vectorIPN6hermes2vm6detail10WeakRefKeyESaIS4_EEC2Ev(ptr noundef nonnull align 8 dereferenceable(24) %this) unnamed_addr #0 comdat align 2 {
entry:
  %this.addr = alloca ptr, align 8
  store ptr %this, ptr %this.addr, align 8
  %this1 = load ptr, ptr %this.addr, align 8
  call void @_ZNSt12_Vector_baseIPN6hermes2vm6detail10WeakRefKeyESaIS4_EEC2Ev(ptr noundef nonnull align 8 dereferenceable(24) %this1) #14
  ret void
}

declare { ptr, ptr } @_ZN6hermes2vm17JSWeakMapImplBase10keys_beginEv(ptr noundef nonnull align 8 dereferenceable(61)) #2

declare { ptr, ptr } @_ZN6hermes2vm17JSWeakMapImplBase8keys_endEv(ptr noundef nonnull align 8 dereferenceable(61)) #2

; Function Attrs: mustprogress nounwind uwtable
define linkonce_odr hidden noundef zeroext i1 @_ZN6hermes2vm17JSWeakMapImplBase11KeyIteratorneERKS2_(ptr noundef nonnull align 8 dereferenceable(16) %this, ptr noundef nonnull align 8 dereferenceable(16) %other) #0 comdat align 2 {
entry:
  %this.addr = alloca ptr, align 8
  %other.addr = alloca ptr, align 8
  store ptr %this, ptr %this.addr, align 8
  store ptr %other, ptr %other.addr, align 8
  %this1 = load ptr, ptr %this.addr, align 8
  %mapIter = getelementptr inbounds %"struct.hermes::vm::JSWeakMapImplBase::KeyIterator", ptr %this1, i32 0, i32 0
  %0 = load ptr, ptr %other.addr, align 8
  %mapIter2 = getelementptr inbounds %"struct.hermes::vm::JSWeakMapImplBase::KeyIterator", ptr %0, i32 0, i32 0
  %call = call noundef zeroext i1 @_ZNK4llvh16DenseMapIteratorIN6hermes2vm6detail10WeakRefKeyEjNS3_11WeakRefInfoENS_6detail12DenseMapPairIS4_jEELb0EEneERKS9_(ptr noundef nonnull align 8 dereferenceable(16) %mapIter, ptr noundef nonnull align 8 dereferenceable(16) %mapIter2)
  ret i1 %call
}

; Function Attrs: mustprogress nounwind uwtable
define linkonce_odr hidden noundef ptr @_ZN6hermes2vm17JSWeakMapImplBase11KeyIteratorptEv(ptr noundef nonnull align 8 dereferenceable(16) %this) #0 comdat align 2 {
entry:
  %this.addr = alloca ptr, align 8
  store ptr %this, ptr %this.addr, align 8
  %this1 = load ptr, ptr %this.addr, align 8
  %mapIter = getelementptr inbounds %"struct.hermes::vm::JSWeakMapImplBase::KeyIterator", ptr %this1, i32 0, i32 0
  %call = call noundef ptr @_ZNK4llvh16DenseMapIteratorIN6hermes2vm6detail10WeakRefKeyEjNS3_11WeakRefInfoENS_6detail12DenseMapPairIS4_jEELb0EEptEv(ptr noundef nonnull align 8 dereferenceable(16) %mapIter)
  %first = getelementptr inbounds %"struct.std::pair.132", ptr %call, i32 0, i32 0
  ret ptr %first
}

declare noundef ptr @_ZNK6hermes2vm6detail10WeakRefKey13getObjectInGCERNS0_7HadesGCE(ptr noundef nonnull align 8 dereferenceable(12), ptr noundef nonnull align 8 dereferenceable(8152)) #2

; Function Attrs: mustprogress nounwind uwtable
define linkonce_odr hidden void @_ZNSt6vectorIPN6hermes2vm6detail10WeakRefKeyESaIS4_EE9push_backEOS4_(ptr noundef nonnull align 8 dereferenceable(24) %this, ptr noundef nonnull align 8 dereferenceable(8) %__x) #0 comdat align 2 {
entry:
  %this.addr = alloca ptr, align 8
  %__x.addr = alloca ptr, align 8
  store ptr %this, ptr %this.addr, align 8
  store ptr %__x, ptr %__x.addr, align 8
  %this1 = load ptr, ptr %this.addr, align 8
  %0 = load ptr, ptr %__x.addr, align 8
  %call = call noundef nonnull align 8 dereferenceable(8) ptr @_ZNSt6vectorIPN6hermes2vm6detail10WeakRefKeyESaIS4_EE12emplace_backIJS4_EEERS4_DpOT_(ptr noundef nonnull align 8 dereferenceable(24) %this1, ptr noundef nonnull align 8 dereferenceable(8) %0)
  ret void
}

; Function Attrs: mustprogress nounwind uwtable
define linkonce_odr hidden noundef nonnull align 8 dereferenceable(12) ptr @_ZN6hermes2vm17JSWeakMapImplBase11KeyIteratordeEv(ptr noundef nonnull align 8 dereferenceable(16) %this) #0 comdat align 2 {
entry:
  %this.addr = alloca ptr, align 8
  store ptr %this, ptr %this.addr, align 8
  %this1 = load ptr, ptr %this.addr, align 8
  %mapIter = getelementptr inbounds %"struct.hermes::vm::JSWeakMapImplBase::KeyIterator", ptr %this1, i32 0, i32 0
  %call = call noundef ptr @_ZNK4llvh16DenseMapIteratorIN6hermes2vm6detail10WeakRefKeyEjNS3_11WeakRefInfoENS_6detail12DenseMapPairIS4_jEELb0EEptEv(ptr noundef nonnull align 8 dereferenceable(16) %mapIter)
  %first = getelementptr inbounds %"struct.std::pair.132", ptr %call, i32 0, i32 0
  ret ptr %first
}

; Function Attrs: mustprogress nounwind uwtable
define linkonce_odr hidden noundef nonnull align 8 dereferenceable(16) ptr @_ZN6hermes2vm17JSWeakMapImplBase11KeyIteratorppEi(ptr noundef nonnull align 8 dereferenceable(16) %this, i32 noundef %0) #0 comdat align 2 {
entry:
  %this.addr = alloca ptr, align 8
  %.addr = alloca i32, align 4
  %coerce = alloca %"class.llvh::DenseMapIterator", align 8
  store ptr %this, ptr %this.addr, align 8
  store i32 %0, ptr %.addr, align 4
  %this1 = load ptr, ptr %this.addr, align 8
  %mapIter = getelementptr inbounds %"struct.hermes::vm::JSWeakMapImplBase::KeyIterator", ptr %this1, i32 0, i32 0
  %call = call { ptr, ptr } @_ZN4llvh16DenseMapIteratorIN6hermes2vm6detail10WeakRefKeyEjNS3_11WeakRefInfoENS_6detail12DenseMapPairIS4_jEELb0EEppEi(ptr noundef nonnull align 8 dereferenceable(16) %mapIter, i32 noundef 0)
  %1 = getelementptr inbounds { ptr, ptr }, ptr %coerce, i32 0, i32 0
  %2 = extractvalue { ptr, ptr } %call, 0
  store ptr %2, ptr %1, align 8
  %3 = getelementptr inbounds { ptr, ptr }, ptr %coerce, i32 0, i32 1
  %4 = extractvalue { ptr, ptr } %call, 1
  store ptr %4, ptr %3, align 8
  ret ptr %this1
}

; Function Attrs: mustprogress nounwind uwtable
define linkonce_odr hidden void @_ZNSt6vectorIPN6hermes2vm6detail10WeakRefKeyESaIS4_EED2Ev(ptr noundef nonnull align 8 dereferenceable(24) %this) unnamed_addr #0 comdat align 2 {
entry:
  %this.addr = alloca ptr, align 8
  store ptr %this, ptr %this.addr, align 8
  %this1 = load ptr, ptr %this.addr, align 8
  %_M_impl = getelementptr inbounds %"struct.std::_Vector_base.32", ptr %this1, i32 0, i32 0
  %_M_start = getelementptr inbounds %"struct.std::_Vector_base<hermes::vm::detail::WeakRefKey *, std::allocator<hermes::vm::detail::WeakRefKey *>>::_Vector_impl_data", ptr %_M_impl, i32 0, i32 0
  %0 = load ptr, ptr %_M_start, align 8
  %_M_impl2 = getelementptr inbounds %"struct.std::_Vector_base.32", ptr %this1, i32 0, i32 0
  %_M_finish = getelementptr inbounds %"struct.std::_Vector_base<hermes::vm::detail::WeakRefKey *, std::allocator<hermes::vm::detail::WeakRefKey *>>::_Vector_impl_data", ptr %_M_impl2, i32 0, i32 1
  %1 = load ptr, ptr %_M_finish, align 8
  %call = call noundef nonnull align 1 dereferenceable(1) ptr @_ZNSt12_Vector_baseIPN6hermes2vm6detail10WeakRefKeyESaIS4_EE19_M_get_Tp_allocatorEv(ptr noundef nonnull align 8 dereferenceable(24) %this1) #14
  call void @_ZSt8_DestroyIPPN6hermes2vm6detail10WeakRefKeyES4_EvT_S6_RSaIT0_E(ptr noundef %0, ptr noundef %1, ptr noundef nonnull align 1 dereferenceable(1) %call)
  call void @_ZNSt12_Vector_baseIPN6hermes2vm6detail10WeakRefKeyESaIS4_EED2Ev(ptr noundef nonnull align 8 dereferenceable(24) %this1) #14
  ret void
}

; Function Attrs: mustprogress nounwind uwtable
define hidden noundef ptr @_ZN6hermes2vm6GCBase13allocWeakSlotENS0_17CompressedPointerE(ptr noundef nonnull align 8 dereferenceable(741) %this, i32 %ptr.coerce) #0 align 2 {
entry:
  %retval = alloca ptr, align 8
  %ptr = alloca %"class.hermes::vm::CompressedPointer", align 4
  %this.addr = alloca ptr, align 8
  %slot = alloca ptr, align 8
  %agg.tmp = alloca %"class.hermes::vm::CompressedPointer", align 4
  %ref.tmp = alloca %"class.hermes::vm::WeakRefSlot", align 8
  %agg.tmp7 = alloca %"class.hermes::vm::CompressedPointer", align 4
  %coerce.dive = getelementptr inbounds %"class.hermes::vm::CompressedPointer", ptr %ptr, i32 0, i32 0
  %coerce.dive1 = getelementptr inbounds %"class.hermes::vm::BasedPointer", ptr %coerce.dive, i32 0, i32 0
  store i32 %ptr.coerce, ptr %coerce.dive1, align 4
  store ptr %this, ptr %this.addr, align 8
  %this2 = load ptr, ptr %this.addr, align 8
  %firstFreeWeak_ = getelementptr inbounds %"class.hermes::vm::GCBase", ptr %this2, i32 0, i32 25
  %0 = load ptr, ptr %firstFreeWeak_, align 8
  store ptr %0, ptr %slot, align 8
  %1 = load ptr, ptr %slot, align 8
  %tobool = icmp ne ptr %1, null
  br i1 %tobool, label %if.then, label %if.end

if.then:                                          ; preds = %entry
  %firstFreeWeak_3 = getelementptr inbounds %"class.hermes::vm::GCBase", ptr %this2, i32 0, i32 25
  %2 = load ptr, ptr %firstFreeWeak_3, align 8
  %call = call noundef ptr @_ZNK6hermes2vm11WeakRefSlot8nextFreeEv(ptr noundef nonnull align 8 dereferenceable(12) %2)
  %firstFreeWeak_4 = getelementptr inbounds %"class.hermes::vm::GCBase", ptr %this2, i32 0, i32 25
  store ptr %call, ptr %firstFreeWeak_4, align 8
  %3 = load ptr, ptr %slot, align 8
  call void @llvm.memcpy.p0.p0.i64(ptr align 4 %agg.tmp, ptr align 4 %ptr, i64 4, i1 false)
  %coerce.dive5 = getelementptr inbounds %"class.hermes::vm::CompressedPointer", ptr %agg.tmp, i32 0, i32 0
  %coerce.dive6 = getelementptr inbounds %"class.hermes::vm::BasedPointer", ptr %coerce.dive5, i32 0, i32 0
  %4 = load i32, ptr %coerce.dive6, align 4
  call void @_ZN6hermes2vm11WeakRefSlot5resetENS0_17CompressedPointerE(ptr noundef nonnull align 8 dereferenceable(12) %3, i32 %4)
  %5 = load ptr, ptr %slot, align 8
  store ptr %5, ptr %retval, align 8
  br label %return

if.end:                                           ; preds = %entry
  %weakSlots_ = getelementptr inbounds %"class.hermes::vm::GCBase", ptr %this2, i32 0, i32 24
  call void @llvm.memcpy.p0.p0.i64(ptr align 4 %agg.tmp7, ptr align 4 %ptr, i64 4, i1 false)
  %coerce.dive8 = getelementptr inbounds %"class.hermes::vm::CompressedPointer", ptr %agg.tmp7, i32 0, i32 0
  %coerce.dive9 = getelementptr inbounds %"class.hermes::vm::BasedPointer", ptr %coerce.dive8, i32 0, i32 0
  %6 = load i32, ptr %coerce.dive9, align 4
  call void @_ZN6hermes2vm11WeakRefSlotC2ENS0_17CompressedPointerE(ptr noundef nonnull align 8 dereferenceable(12) %ref.tmp, i32 %6)
  call void @_ZNSt5dequeIN6hermes2vm11WeakRefSlotESaIS2_EE9push_backEOS2_(ptr noundef nonnull align 8 dereferenceable(80) %weakSlots_, ptr noundef nonnull align 8 dereferenceable(12) %ref.tmp)
  %weakSlots_10 = getelementptr inbounds %"class.hermes::vm::GCBase", ptr %this2, i32 0, i32 24
  %call11 = call noundef nonnull align 8 dereferenceable(12) ptr @_ZNSt5dequeIN6hermes2vm11WeakRefSlotESaIS2_EE4backEv(ptr noundef nonnull align 8 dereferenceable(80) %weakSlots_10) #14
  store ptr %call11, ptr %retval, align 8
  br label %return

return:                                           ; preds = %if.end, %if.then
  %7 = load ptr, ptr %retval, align 8
  ret ptr %7
}

; Function Attrs: mustprogress nounwind uwtable
define linkonce_odr hidden noundef ptr @_ZNK6hermes2vm11WeakRefSlot8nextFreeEv(ptr noundef nonnull align 8 dereferenceable(12) %this) #0 comdat align 2 {
entry:
  %this.addr = alloca ptr, align 8
  store ptr %this, ptr %this.addr, align 8
  %this1 = load ptr, ptr %this.addr, align 8
  %value_ = getelementptr inbounds %"class.hermes::vm::WeakRefSlot", ptr %this1, i32 0, i32 0
  %0 = load ptr, ptr %value_, align 8
  ret ptr %0
}

; Function Attrs: mustprogress nounwind uwtable
define linkonce_odr hidden void @_ZN6hermes2vm11WeakRefSlot5resetENS0_17CompressedPointerE(ptr noundef nonnull align 8 dereferenceable(12) %this, i32 %ptr.coerce) #0 comdat align 2 {
entry:
  %ptr = alloca %"class.hermes::vm::CompressedPointer", align 4
  %this.addr = alloca ptr, align 8
  %agg.tmp = alloca %"class.hermes::vm::CompressedPointer", align 4
  %coerce.dive = getelementptr inbounds %"class.hermes::vm::CompressedPointer", ptr %ptr, i32 0, i32 0
  %coerce.dive1 = getelementptr inbounds %"class.hermes::vm::BasedPointer", ptr %coerce.dive, i32 0, i32 0
  store i32 %ptr.coerce, ptr %coerce.dive1, align 4
  store ptr %this, ptr %this.addr, align 8
  %this2 = load ptr, ptr %this.addr, align 8
  %state_ = getelementptr inbounds %"class.hermes::vm::WeakRefSlot", ptr %this2, i32 0, i32 1
  store i32 1, ptr %state_, align 8
  call void @llvm.memcpy.p0.p0.i64(ptr align 4 %agg.tmp, ptr align 4 %ptr, i64 4, i1 false)
  %value_ = getelementptr inbounds %"class.hermes::vm::WeakRefSlot", ptr %this2, i32 0, i32 0
  %coerce.dive3 = getelementptr inbounds %"class.hermes::vm::CompressedPointer", ptr %agg.tmp, i32 0, i32 0
  %coerce.dive4 = getelementptr inbounds %"class.hermes::vm::BasedPointer", ptr %coerce.dive3, i32 0, i32 0
  %0 = load i32, ptr %coerce.dive4, align 4
  %call = call noundef nonnull align 4 dereferenceable(4) ptr @_ZN6hermes2vm8WeakRootINS0_6GCCellEEaSENS0_17CompressedPointerE(ptr noundef nonnull align 4 dereferenceable(4) %value_, i32 %0)
  ret void
}

; Function Attrs: mustprogress nounwind uwtable
define linkonce_odr hidden void @_ZNSt5dequeIN6hermes2vm11WeakRefSlotESaIS2_EE9push_backEOS2_(ptr noundef nonnull align 8 dereferenceable(80) %this, ptr noundef nonnull align 8 dereferenceable(12) %__x) #0 comdat align 2 {
entry:
  %this.addr = alloca ptr, align 8
  %__x.addr = alloca ptr, align 8
  store ptr %this, ptr %this.addr, align 8
  store ptr %__x, ptr %__x.addr, align 8
  %this1 = load ptr, ptr %this.addr, align 8
  %0 = load ptr, ptr %__x.addr, align 8
  %call = call noundef nonnull align 8 dereferenceable(12) ptr @_ZNSt5dequeIN6hermes2vm11WeakRefSlotESaIS2_EE12emplace_backIJS2_EEERS2_DpOT_(ptr noundef nonnull align 8 dereferenceable(80) %this1, ptr noundef nonnull align 8 dereferenceable(12) %0)
  ret void
}

; Function Attrs: mustprogress nounwind uwtable
define linkonce_odr hidden void @_ZN6hermes2vm11WeakRefSlotC2ENS0_17CompressedPointerE(ptr noundef nonnull align 8 dereferenceable(12) %this, i32 %ptr.coerce) unnamed_addr #0 comdat align 2 {
entry:
  %ptr = alloca %"class.hermes::vm::CompressedPointer", align 4
  %this.addr = alloca ptr, align 8
  %agg.tmp = alloca %"class.hermes::vm::CompressedPointer", align 4
  %coerce.dive = getelementptr inbounds %"class.hermes::vm::CompressedPointer", ptr %ptr, i32 0, i32 0
  %coerce.dive1 = getelementptr inbounds %"class.hermes::vm::BasedPointer", ptr %coerce.dive, i32 0, i32 0
  store i32 %ptr.coerce, ptr %coerce.dive1, align 4
  store ptr %this, ptr %this.addr, align 8
  %this2 = load ptr, ptr %this.addr, align 8
  %value_ = getelementptr inbounds %"class.hermes::vm::WeakRefSlot", ptr %this2, i32 0, i32 0
  call void @_ZN6hermes2vm11WeakRefSlot15WeakRootOrIndexC2Ev(ptr noundef nonnull align 8 dereferenceable(8) %value_)
  call void @llvm.memcpy.p0.p0.i64(ptr align 4 %agg.tmp, ptr align 4 %ptr, i64 4, i1 false)
  %coerce.dive3 = getelementptr inbounds %"class.hermes::vm::CompressedPointer", ptr %agg.tmp, i32 0, i32 0
  %coerce.dive4 = getelementptr inbounds %"class.hermes::vm::BasedPointer", ptr %coerce.dive3, i32 0, i32 0
  %0 = load i32, ptr %coerce.dive4, align 4
  call void @_ZN6hermes2vm11WeakRefSlot5resetENS0_17CompressedPointerE(ptr noundef nonnull align 8 dereferenceable(12) %this2, i32 %0)
  ret void
}

; Function Attrs: mustprogress nounwind uwtable
define linkonce_odr hidden noundef nonnull align 8 dereferenceable(12) ptr @_ZNSt5dequeIN6hermes2vm11WeakRefSlotESaIS2_EE4backEv(ptr noundef nonnull align 8 dereferenceable(80) %this) #0 comdat align 2 {
entry:
  %this.addr = alloca ptr, align 8
  %__tmp = alloca %"struct.std::_Deque_iterator", align 8
  store ptr %this, ptr %this.addr, align 8
  %this1 = load ptr, ptr %this.addr, align 8
  call void @_ZNSt5dequeIN6hermes2vm11WeakRefSlotESaIS2_EE3endEv(ptr sret(%"struct.std::_Deque_iterator") align 8 %__tmp, ptr noundef nonnull align 8 dereferenceable(80) %this1) #14
  %call = call noundef nonnull align 8 dereferenceable(32) ptr @_ZNSt15_Deque_iteratorIN6hermes2vm11WeakRefSlotERS2_PS2_EmmEv(ptr noundef nonnull align 8 dereferenceable(32) %__tmp) #14
  %call2 = call noundef nonnull align 8 dereferenceable(12) ptr @_ZNKSt15_Deque_iteratorIN6hermes2vm11WeakRefSlotERS2_PS2_EdeEv(ptr noundef nonnull align 8 dereferenceable(32) %__tmp) #14
  ret ptr %call2
}

; Function Attrs: mustprogress nounwind uwtable
define hidden noundef i32 @_ZN6hermes2vm6GCBase11getObjectIDEPKNS0_6GCCellE(ptr noundef nonnull align 8 dereferenceable(741) %this, ptr noundef %cell) #0 align 2 {
entry:
  %this.addr = alloca ptr, align 8
  %cell.addr = alloca ptr, align 8
  %agg.tmp = alloca %"class.hermes::vm::CompressedPointer", align 4
  store ptr %this, ptr %this.addr, align 8
  store ptr %cell, ptr %cell.addr, align 8
  %this1 = load ptr, ptr %this.addr, align 8
  %0 = load ptr, ptr %cell.addr, align 8
  %pointerBase_ = getelementptr inbounds %"class.hermes::vm::GCBase", ptr %this1, i32 0, i32 7
  %1 = load ptr, ptr %pointerBase_, align 8
  %call = call i32 @_ZN6hermes2vm17CompressedPointer13encodeNonNullEPNS0_6GCCellERNS0_11PointerBaseE(ptr noundef %0, ptr noundef nonnull align 1 dereferenceable(1) %1)
  %coerce.dive = getelementptr inbounds %"class.hermes::vm::CompressedPointer", ptr %agg.tmp, i32 0, i32 0
  %coerce.dive2 = getelementptr inbounds %"class.hermes::vm::BasedPointer", ptr %coerce.dive, i32 0, i32 0
  store i32 %call, ptr %coerce.dive2, align 4
  %coerce.dive3 = getelementptr inbounds %"class.hermes::vm::CompressedPointer", ptr %agg.tmp, i32 0, i32 0
  %coerce.dive4 = getelementptr inbounds %"class.hermes::vm::BasedPointer", ptr %coerce.dive3, i32 0, i32 0
  %2 = load i32, ptr %coerce.dive4, align 4
  %call5 = call noundef i32 @_ZN6hermes2vm6GCBase11getObjectIDENS0_17CompressedPointerE(ptr noundef nonnull align 8 dereferenceable(741) %this1, i32 %2)
  ret i32 %call5
}

; Function Attrs: mustprogress nounwind uwtable
define hidden noundef i32 @_ZN6hermes2vm6GCBase11getObjectIDENS0_17CompressedPointerE(ptr noundef nonnull align 8 dereferenceable(741) %this, i32 %cell.coerce) #0 align 2 {
entry:
  %cell = alloca %"class.hermes::vm::CompressedPointer", align 4
  %this.addr = alloca ptr, align 8
  %agg.tmp = alloca %"class.hermes::vm::CompressedPointer", align 4
  %coerce.dive = getelementptr inbounds %"class.hermes::vm::CompressedPointer", ptr %cell, i32 0, i32 0
  %coerce.dive1 = getelementptr inbounds %"class.hermes::vm::BasedPointer", ptr %coerce.dive, i32 0, i32 0
  store i32 %cell.coerce, ptr %coerce.dive1, align 4
  store ptr %this, ptr %this.addr, align 8
  %this2 = load ptr, ptr %this.addr, align 8
  %idTracker_ = getelementptr inbounds %"class.hermes::vm::GCBase", ptr %this2, i32 0, i32 27
  call void @llvm.memcpy.p0.p0.i64(ptr align 4 %agg.tmp, ptr align 4 %cell, i64 4, i1 false)
  %coerce.dive3 = getelementptr inbounds %"class.hermes::vm::CompressedPointer", ptr %agg.tmp, i32 0, i32 0
  %coerce.dive4 = getelementptr inbounds %"class.hermes::vm::BasedPointer", ptr %coerce.dive3, i32 0, i32 0
  %0 = load i32, ptr %coerce.dive4, align 4
  %call = call noundef i32 @_ZN6hermes2vm6GCBase9IDTracker11getObjectIDENS0_17CompressedPointerE(ptr noundef nonnull align 8 dereferenceable(192) %idTracker_, i32 %0)
  ret i32 %call
}

; Function Attrs: mustprogress nounwind uwtable
define linkonce_odr hidden i32 @_ZN6hermes2vm17CompressedPointer13encodeNonNullEPNS0_6GCCellERNS0_11PointerBaseE(ptr noundef %ptr, ptr noundef nonnull align 1 dereferenceable(1) %base) #0 comdat align 2 {
entry:
  %retval = alloca %"class.hermes::vm::CompressedPointer", align 4
  %ptr.addr = alloca ptr, align 8
  %base.addr = alloca ptr, align 8
  %agg.tmp = alloca %"class.hermes::vm::BasedPointer", align 4
  store ptr %ptr, ptr %ptr.addr, align 8
  store ptr %base, ptr %base.addr, align 8
  %0 = load ptr, ptr %ptr.addr, align 8
  %1 = load ptr, ptr %base.addr, align 8
  %call = call i32 @_ZN6hermes2vm17CompressedPointer27pointerToStorageTypeNonNullEPNS0_6GCCellERNS0_11PointerBaseE(ptr noundef %0, ptr noundef nonnull align 1 dereferenceable(1) %1)
  %coerce.dive = getelementptr inbounds %"class.hermes::vm::BasedPointer", ptr %agg.tmp, i32 0, i32 0
  store i32 %call, ptr %coerce.dive, align 4
  %coerce.dive1 = getelementptr inbounds %"class.hermes::vm::BasedPointer", ptr %agg.tmp, i32 0, i32 0
  %2 = load i32, ptr %coerce.dive1, align 4
  call void @_ZN6hermes2vm17CompressedPointerC2ENS0_12BasedPointerE(ptr noundef nonnull align 4 dereferenceable(4) %retval, i32 %2)
  %coerce.dive2 = getelementptr inbounds %"class.hermes::vm::CompressedPointer", ptr %retval, i32 0, i32 0
  %coerce.dive3 = getelementptr inbounds %"class.hermes::vm::BasedPointer", ptr %coerce.dive2, i32 0, i32 0
  %3 = load i32, ptr %coerce.dive3, align 4
  ret i32 %3
}

; Function Attrs: mustprogress nounwind uwtable
define hidden noundef i32 @_ZN6hermes2vm6GCBase20getObjectIDMustExistEPKNS0_6GCCellE(ptr noundef nonnull align 8 dereferenceable(741) %this, ptr noundef %cell) #0 align 2 {
entry:
  %this.addr = alloca ptr, align 8
  %cell.addr = alloca ptr, align 8
  %agg.tmp = alloca %"class.hermes::vm::CompressedPointer", align 4
  store ptr %this, ptr %this.addr, align 8
  store ptr %cell, ptr %cell.addr, align 8
  %this1 = load ptr, ptr %this.addr, align 8
  %idTracker_ = getelementptr inbounds %"class.hermes::vm::GCBase", ptr %this1, i32 0, i32 27
  %0 = load ptr, ptr %cell.addr, align 8
  %pointerBase_ = getelementptr inbounds %"class.hermes::vm::GCBase", ptr %this1, i32 0, i32 7
  %1 = load ptr, ptr %pointerBase_, align 8
  %call = call i32 @_ZN6hermes2vm17CompressedPointer13encodeNonNullEPNS0_6GCCellERNS0_11PointerBaseE(ptr noundef %0, ptr noundef nonnull align 1 dereferenceable(1) %1)
  %coerce.dive = getelementptr inbounds %"class.hermes::vm::CompressedPointer", ptr %agg.tmp, i32 0, i32 0
  %coerce.dive2 = getelementptr inbounds %"class.hermes::vm::BasedPointer", ptr %coerce.dive, i32 0, i32 0
  store i32 %call, ptr %coerce.dive2, align 4
  %coerce.dive3 = getelementptr inbounds %"class.hermes::vm::CompressedPointer", ptr %agg.tmp, i32 0, i32 0
  %coerce.dive4 = getelementptr inbounds %"class.hermes::vm::BasedPointer", ptr %coerce.dive3, i32 0, i32 0
  %2 = load i32, ptr %coerce.dive4, align 4
  %call5 = call noundef i32 @_ZN6hermes2vm6GCBase9IDTracker20getObjectIDMustExistENS0_17CompressedPointerE(ptr noundef nonnull align 8 dereferenceable(192) %idTracker_, i32 %2)
  ret i32 %call5
}

; Function Attrs: mustprogress nounwind uwtable
define hidden noundef i32 @_ZN6hermes2vm6GCBase9IDTracker20getObjectIDMustExistENS0_17CompressedPointerE(ptr noundef nonnull align 8 dereferenceable(192) %this, i32 %cell.coerce) #0 align 2 {
entry:
  %cell = alloca %"class.hermes::vm::CompressedPointer", align 4
  %this.addr = alloca ptr, align 8
  %lk = alloca %"class.std::lock_guard", align 8
  %iter = alloca %"class.llvh::DenseMapIterator.100", align 8
  %ref.tmp = alloca i32, align 4
  %coerce.dive = getelementptr inbounds %"class.hermes::vm::CompressedPointer", ptr %cell, i32 0, i32 0
  %coerce.dive1 = getelementptr inbounds %"class.hermes::vm::BasedPointer", ptr %coerce.dive, i32 0, i32 0
  store i32 %cell.coerce, ptr %coerce.dive1, align 4
  store ptr %this, ptr %this.addr, align 8
  %this2 = load ptr, ptr %this.addr, align 8
  %mtx_ = getelementptr inbounds %"class.hermes::vm::GCBase::IDTracker", ptr %this2, i32 0, i32 0
  call void @_ZNSt10lock_guardISt15recursive_mutexEC2ERS0_(ptr noundef nonnull align 8 dereferenceable(8) %lk, ptr noundef nonnull align 8 dereferenceable(40) %mtx_)
  %objectIDMap_ = getelementptr inbounds %"class.hermes::vm::GCBase::IDTracker", ptr %this2, i32 0, i32 3
  %call = call noundef i32 @_ZNK6hermes2vm17CompressedPointer6getRawEv(ptr noundef nonnull align 4 dereferenceable(4) %cell)
  store i32 %call, ptr %ref.tmp, align 4
  %call3 = call { ptr, ptr } @_ZN4llvh12DenseMapBaseINS_8DenseMapIjjNS_12DenseMapInfoIjEENS_6detail12DenseMapPairIjjEEEEjjS3_S6_E4findERKj(ptr noundef nonnull align 1 dereferenceable(1) %objectIDMap_, ptr noundef nonnull align 4 dereferenceable(4) %ref.tmp)
  %0 = getelementptr inbounds { ptr, ptr }, ptr %iter, i32 0, i32 0
  %1 = extractvalue { ptr, ptr } %call3, 0
  store ptr %1, ptr %0, align 8
  %2 = getelementptr inbounds { ptr, ptr }, ptr %iter, i32 0, i32 1
  %3 = extractvalue { ptr, ptr } %call3, 1
  store ptr %3, ptr %2, align 8
  %call4 = call noundef ptr @_ZNK4llvh16DenseMapIteratorIjjNS_12DenseMapInfoIjEENS_6detail12DenseMapPairIjjEELb0EEptEv(ptr noundef nonnull align 8 dereferenceable(16) %iter)
  %second = getelementptr inbounds %"struct.std::pair", ptr %call4, i32 0, i32 1
  %4 = load i32, ptr %second, align 4
  call void @_ZNSt10lock_guardISt15recursive_mutexED2Ev(ptr noundef nonnull align 8 dereferenceable(8) %lk) #14
  ret i32 %4
}

; Function Attrs: mustprogress nounwind uwtable
define hidden noundef i32 @_ZN6hermes2vm6GCBase9IDTracker11getObjectIDENS0_17CompressedPointerE(ptr noundef nonnull align 8 dereferenceable(192) %this, i32 %cell.coerce) #0 align 2 {
entry:
  %retval = alloca i32, align 4
  %cell = alloca %"class.hermes::vm::CompressedPointer", align 4
  %this.addr = alloca ptr, align 8
  %lk = alloca %"class.std::lock_guard", align 8
  %iter = alloca %"class.llvh::DenseMapIterator.100", align 8
  %ref.tmp = alloca i32, align 4
  %ref.tmp4 = alloca %"class.llvh::DenseMapIterator.100", align 8
  %cleanup.dest.slot = alloca i32, align 4
  %objID = alloca i32, align 4
  %ref.tmp11 = alloca i32, align 4
  %coerce.dive = getelementptr inbounds %"class.hermes::vm::CompressedPointer", ptr %cell, i32 0, i32 0
  %coerce.dive1 = getelementptr inbounds %"class.hermes::vm::BasedPointer", ptr %coerce.dive, i32 0, i32 0
  store i32 %cell.coerce, ptr %coerce.dive1, align 4
  store ptr %this, ptr %this.addr, align 8
  %this2 = load ptr, ptr %this.addr, align 8
  %mtx_ = getelementptr inbounds %"class.hermes::vm::GCBase::IDTracker", ptr %this2, i32 0, i32 0
  call void @_ZNSt10lock_guardISt15recursive_mutexEC2ERS0_(ptr noundef nonnull align 8 dereferenceable(8) %lk, ptr noundef nonnull align 8 dereferenceable(40) %mtx_)
  %objectIDMap_ = getelementptr inbounds %"class.hermes::vm::GCBase::IDTracker", ptr %this2, i32 0, i32 3
  %call = call noundef i32 @_ZNK6hermes2vm17CompressedPointer6getRawEv(ptr noundef nonnull align 4 dereferenceable(4) %cell)
  store i32 %call, ptr %ref.tmp, align 4
  %call3 = call { ptr, ptr } @_ZN4llvh12DenseMapBaseINS_8DenseMapIjjNS_12DenseMapInfoIjEENS_6detail12DenseMapPairIjjEEEEjjS3_S6_E4findERKj(ptr noundef nonnull align 1 dereferenceable(1) %objectIDMap_, ptr noundef nonnull align 4 dereferenceable(4) %ref.tmp)
  %0 = getelementptr inbounds { ptr, ptr }, ptr %iter, i32 0, i32 0
  %1 = extractvalue { ptr, ptr } %call3, 0
  store ptr %1, ptr %0, align 8
  %2 = getelementptr inbounds { ptr, ptr }, ptr %iter, i32 0, i32 1
  %3 = extractvalue { ptr, ptr } %call3, 1
  store ptr %3, ptr %2, align 8
  %objectIDMap_5 = getelementptr inbounds %"class.hermes::vm::GCBase::IDTracker", ptr %this2, i32 0, i32 3
  %call6 = call { ptr, ptr } @_ZN4llvh12DenseMapBaseINS_8DenseMapIjjNS_12DenseMapInfoIjEENS_6detail12DenseMapPairIjjEEEEjjS3_S6_E3endEv(ptr noundef nonnull align 1 dereferenceable(1) %objectIDMap_5)
  %4 = getelementptr inbounds { ptr, ptr }, ptr %ref.tmp4, i32 0, i32 0
  %5 = extractvalue { ptr, ptr } %call6, 0
  store ptr %5, ptr %4, align 8
  %6 = getelementptr inbounds { ptr, ptr }, ptr %ref.tmp4, i32 0, i32 1
  %7 = extractvalue { ptr, ptr } %call6, 1
  store ptr %7, ptr %6, align 8
  %call7 = call noundef zeroext i1 @_ZNK4llvh16DenseMapIteratorIjjNS_12DenseMapInfoIjEENS_6detail12DenseMapPairIjjEELb0EEneERKS6_(ptr noundef nonnull align 8 dereferenceable(16) %iter, ptr noundef nonnull align 8 dereferenceable(16) %ref.tmp4)
  br i1 %call7, label %if.then, label %if.end

if.then:                                          ; preds = %entry
  %call8 = call noundef ptr @_ZNK4llvh16DenseMapIteratorIjjNS_12DenseMapInfoIjEENS_6detail12DenseMapPairIjjEELb0EEptEv(ptr noundef nonnull align 8 dereferenceable(16) %iter)
  %second = getelementptr inbounds %"struct.std::pair", ptr %call8, i32 0, i32 1
  %8 = load i32, ptr %second, align 4
  store i32 %8, ptr %retval, align 4
  store i32 1, ptr %cleanup.dest.slot, align 4
  br label %cleanup

if.end:                                           ; preds = %entry
  %call9 = call noundef i32 @_ZN6hermes2vm6GCBase9IDTracker12nextObjectIDEv(ptr noundef nonnull align 8 dereferenceable(192) %this2)
  store i32 %call9, ptr %objID, align 4
  %9 = load i32, ptr %objID, align 4
  %objectIDMap_10 = getelementptr inbounds %"class.hermes::vm::GCBase::IDTracker", ptr %this2, i32 0, i32 3
  %call12 = call noundef i32 @_ZNK6hermes2vm17CompressedPointer6getRawEv(ptr noundef nonnull align 4 dereferenceable(4) %cell)
  store i32 %call12, ptr %ref.tmp11, align 4
  %call13 = call noundef nonnull align 4 dereferenceable(4) ptr @_ZN4llvh12DenseMapBaseINS_8DenseMapIjjNS_12DenseMapInfoIjEENS_6detail12DenseMapPairIjjEEEEjjS3_S6_EixEOj(ptr noundef nonnull align 1 dereferenceable(1) %objectIDMap_10, ptr noundef nonnull align 4 dereferenceable(4) %ref.tmp11)
  store i32 %9, ptr %call13, align 4
  %10 = load i32, ptr %objID, align 4
  store i32 %10, ptr %retval, align 4
  store i32 1, ptr %cleanup.dest.slot, align 4
  br label %cleanup

cleanup:                                          ; preds = %if.end, %if.then
  call void @_ZNSt10lock_guardISt15recursive_mutexED2Ev(ptr noundef nonnull align 8 dereferenceable(8) %lk) #14
  %11 = load i32, ptr %retval, align 4
  ret i32 %11
}

; Function Attrs: mustprogress nounwind uwtable
define hidden noundef i32 @_ZN6hermes2vm6GCBase11getObjectIDENS0_8SymbolIDE(ptr noundef nonnull align 8 dereferenceable(741) %this, i32 %sym.coerce) #0 align 2 {
entry:
  %sym = alloca %"class.hermes::vm::SymbolID", align 4
  %this.addr = alloca ptr, align 8
  %agg.tmp = alloca %"class.hermes::vm::SymbolID", align 4
  %coerce.dive = getelementptr inbounds %"class.hermes::vm::SymbolID", ptr %sym, i32 0, i32 0
  store i32 %sym.coerce, ptr %coerce.dive, align 4
  store ptr %this, ptr %this.addr, align 8
  %this1 = load ptr, ptr %this.addr, align 8
  %idTracker_ = getelementptr inbounds %"class.hermes::vm::GCBase", ptr %this1, i32 0, i32 27
  call void @llvm.memcpy.p0.p0.i64(ptr align 4 %agg.tmp, ptr align 4 %sym, i64 4, i1 false)
  %coerce.dive2 = getelementptr inbounds %"class.hermes::vm::SymbolID", ptr %agg.tmp, i32 0, i32 0
  %0 = load i32, ptr %coerce.dive2, align 4
  %call = call noundef i32 @_ZN6hermes2vm6GCBase9IDTracker11getObjectIDENS0_8SymbolIDE(ptr noundef nonnull align 8 dereferenceable(192) %idTracker_, i32 %0)
  ret i32 %call
}

; Function Attrs: mustprogress nounwind uwtable
define hidden noundef i32 @_ZN6hermes2vm6GCBase9IDTracker11getObjectIDENS0_8SymbolIDE(ptr noundef nonnull align 8 dereferenceable(192) %this, i32 %sym.coerce) #0 align 2 {
entry:
  %retval = alloca i32, align 4
  %sym = alloca %"class.hermes::vm::SymbolID", align 4
  %this.addr = alloca ptr, align 8
  %lk = alloca %"class.std::lock_guard", align 8
  %iter = alloca %"class.llvh::DenseMapIterator.100", align 8
  %ref.tmp = alloca i32, align 4
  %ref.tmp3 = alloca %"class.llvh::DenseMapIterator.100", align 8
  %cleanup.dest.slot = alloca i32, align 4
  %symID = alloca i32, align 4
  %ref.tmp10 = alloca i32, align 4
  %coerce.dive = getelementptr inbounds %"class.hermes::vm::SymbolID", ptr %sym, i32 0, i32 0
  store i32 %sym.coerce, ptr %coerce.dive, align 4
  store ptr %this, ptr %this.addr, align 8
  %this1 = load ptr, ptr %this.addr, align 8
  %mtx_ = getelementptr inbounds %"class.hermes::vm::GCBase::IDTracker", ptr %this1, i32 0, i32 0
  call void @_ZNSt10lock_guardISt15recursive_mutexEC2ERS0_(ptr noundef nonnull align 8 dereferenceable(8) %lk, ptr noundef nonnull align 8 dereferenceable(40) %mtx_)
  %symbolIDMap_ = getelementptr inbounds %"class.hermes::vm::GCBase::IDTracker", ptr %this1, i32 0, i32 7
  %call = call noundef i32 @_ZNK6hermes2vm8SymbolID14unsafeGetIndexEv(ptr noundef nonnull align 4 dereferenceable(4) %sym)
  store i32 %call, ptr %ref.tmp, align 4
  %call2 = call { ptr, ptr } @_ZN4llvh12DenseMapBaseINS_8DenseMapIjjNS_12DenseMapInfoIjEENS_6detail12DenseMapPairIjjEEEEjjS3_S6_E4findERKj(ptr noundef nonnull align 1 dereferenceable(1) %symbolIDMap_, ptr noundef nonnull align 4 dereferenceable(4) %ref.tmp)
  %0 = getelementptr inbounds { ptr, ptr }, ptr %iter, i32 0, i32 0
  %1 = extractvalue { ptr, ptr } %call2, 0
  store ptr %1, ptr %0, align 8
  %2 = getelementptr inbounds { ptr, ptr }, ptr %iter, i32 0, i32 1
  %3 = extractvalue { ptr, ptr } %call2, 1
  store ptr %3, ptr %2, align 8
  %symbolIDMap_4 = getelementptr inbounds %"class.hermes::vm::GCBase::IDTracker", ptr %this1, i32 0, i32 7
  %call5 = call { ptr, ptr } @_ZN4llvh12DenseMapBaseINS_8DenseMapIjjNS_12DenseMapInfoIjEENS_6detail12DenseMapPairIjjEEEEjjS3_S6_E3endEv(ptr noundef nonnull align 1 dereferenceable(1) %symbolIDMap_4)
  %4 = getelementptr inbounds { ptr, ptr }, ptr %ref.tmp3, i32 0, i32 0
  %5 = extractvalue { ptr, ptr } %call5, 0
  store ptr %5, ptr %4, align 8
  %6 = getelementptr inbounds { ptr, ptr }, ptr %ref.tmp3, i32 0, i32 1
  %7 = extractvalue { ptr, ptr } %call5, 1
  store ptr %7, ptr %6, align 8
  %call6 = call noundef zeroext i1 @_ZNK4llvh16DenseMapIteratorIjjNS_12DenseMapInfoIjEENS_6detail12DenseMapPairIjjEELb0EEneERKS6_(ptr noundef nonnull align 8 dereferenceable(16) %iter, ptr noundef nonnull align 8 dereferenceable(16) %ref.tmp3)
  br i1 %call6, label %if.then, label %if.end

if.then:                                          ; preds = %entry
  %call7 = call noundef ptr @_ZNK4llvh16DenseMapIteratorIjjNS_12DenseMapInfoIjEENS_6detail12DenseMapPairIjjEELb0EEptEv(ptr noundef nonnull align 8 dereferenceable(16) %iter)
  %second = getelementptr inbounds %"struct.std::pair", ptr %call7, i32 0, i32 1
  %8 = load i32, ptr %second, align 4
  store i32 %8, ptr %retval, align 4
  store i32 1, ptr %cleanup.dest.slot, align 4
  br label %cleanup

if.end:                                           ; preds = %entry
  %call8 = call noundef i32 @_ZN6hermes2vm6GCBase9IDTracker12nextObjectIDEv(ptr noundef nonnull align 8 dereferenceable(192) %this1)
  store i32 %call8, ptr %symID, align 4
  %9 = load i32, ptr %symID, align 4
  %symbolIDMap_9 = getelementptr inbounds %"class.hermes::vm::GCBase::IDTracker", ptr %this1, i32 0, i32 7
  %call11 = call noundef i32 @_ZNK6hermes2vm8SymbolID14unsafeGetIndexEv(ptr noundef nonnull align 4 dereferenceable(4) %sym)
  store i32 %call11, ptr %ref.tmp10, align 4
  %call12 = call noundef nonnull align 4 dereferenceable(4) ptr @_ZN4llvh12DenseMapBaseINS_8DenseMapIjjNS_12DenseMapInfoIjEENS_6detail12DenseMapPairIjjEEEEjjS3_S6_EixEOj(ptr noundef nonnull align 1 dereferenceable(1) %symbolIDMap_9, ptr noundef nonnull align 4 dereferenceable(4) %ref.tmp10)
  store i32 %9, ptr %call12, align 4
  %10 = load i32, ptr %symID, align 4
  store i32 %10, ptr %retval, align 4
  store i32 1, ptr %cleanup.dest.slot, align 4
  br label %cleanup

cleanup:                                          ; preds = %if.end, %if.then
  call void @_ZNSt10lock_guardISt15recursive_mutexED2Ev(ptr noundef nonnull align 8 dereferenceable(8) %lk) #14
  %11 = load i32, ptr %retval, align 4
  ret i32 %11
}

; Function Attrs: mustprogress nounwind uwtable
define hidden noundef i32 @_ZN6hermes2vm6GCBase11getNativeIDEPKv(ptr noundef nonnull align 8 dereferenceable(741) %this, ptr noundef %mem) #0 align 2 {
entry:
  %this.addr = alloca ptr, align 8
  %mem.addr = alloca ptr, align 8
  store ptr %this, ptr %this.addr, align 8
  store ptr %mem, ptr %mem.addr, align 8
  %this1 = load ptr, ptr %this.addr, align 8
  %idTracker_ = getelementptr inbounds %"class.hermes::vm::GCBase", ptr %this1, i32 0, i32 27
  %0 = load ptr, ptr %mem.addr, align 8
  %call = call noundef i32 @_ZN6hermes2vm6GCBase9IDTracker11getNativeIDEPKv(ptr noundef nonnull align 8 dereferenceable(192) %idTracker_, ptr noundef %0)
  ret i32 %call
}

; Function Attrs: mustprogress nounwind uwtable
define hidden noundef i32 @_ZN6hermes2vm6GCBase9IDTracker11getNativeIDEPKv(ptr noundef nonnull align 8 dereferenceable(192) %this, ptr noundef %mem) #0 align 2 {
entry:
  %retval = alloca i32, align 4
  %this.addr = alloca ptr, align 8
  %mem.addr = alloca ptr, align 8
  %lk = alloca %"class.std::lock_guard", align 8
  %iter = alloca %"class.llvh::DenseMapIterator.106", align 8
  %ref.tmp = alloca %"class.llvh::DenseMapIterator.106", align 8
  %cleanup.dest.slot = alloca i32, align 4
  %objID = alloca i32, align 4
  store ptr %this, ptr %this.addr, align 8
  store ptr %mem, ptr %mem.addr, align 8
  %this1 = load ptr, ptr %this.addr, align 8
  %mtx_ = getelementptr inbounds %"class.hermes::vm::GCBase::IDTracker", ptr %this1, i32 0, i32 0
  call void @_ZNSt10lock_guardISt15recursive_mutexEC2ERS0_(ptr noundef nonnull align 8 dereferenceable(8) %lk, ptr noundef nonnull align 8 dereferenceable(40) %mtx_)
  %nativeIDMap_ = getelementptr inbounds %"class.hermes::vm::GCBase::IDTracker", ptr %this1, i32 0, i32 5
  %0 = load ptr, ptr %mem.addr, align 8
  %call = call { ptr, ptr } @_ZN4llvh12DenseMapBaseINS_8DenseMapIPKvjNS_12DenseMapInfoIS3_EENS_6detail12DenseMapPairIS3_jEEEES3_jS5_S8_E4findES3_(ptr noundef nonnull align 1 dereferenceable(1) %nativeIDMap_, ptr noundef %0)
  %1 = getelementptr inbounds { ptr, ptr }, ptr %iter, i32 0, i32 0
  %2 = extractvalue { ptr, ptr } %call, 0
  store ptr %2, ptr %1, align 8
  %3 = getelementptr inbounds { ptr, ptr }, ptr %iter, i32 0, i32 1
  %4 = extractvalue { ptr, ptr } %call, 1
  store ptr %4, ptr %3, align 8
  %nativeIDMap_2 = getelementptr inbounds %"class.hermes::vm::GCBase::IDTracker", ptr %this1, i32 0, i32 5
  %call3 = call { ptr, ptr } @_ZN4llvh12DenseMapBaseINS_8DenseMapIPKvjNS_12DenseMapInfoIS3_EENS_6detail12DenseMapPairIS3_jEEEES3_jS5_S8_E3endEv(ptr noundef nonnull align 1 dereferenceable(1) %nativeIDMap_2)
  %5 = getelementptr inbounds { ptr, ptr }, ptr %ref.tmp, i32 0, i32 0
  %6 = extractvalue { ptr, ptr } %call3, 0
  store ptr %6, ptr %5, align 8
  %7 = getelementptr inbounds { ptr, ptr }, ptr %ref.tmp, i32 0, i32 1
  %8 = extractvalue { ptr, ptr } %call3, 1
  store ptr %8, ptr %7, align 8
  %call4 = call noundef zeroext i1 @_ZNK4llvh16DenseMapIteratorIPKvjNS_12DenseMapInfoIS2_EENS_6detail12DenseMapPairIS2_jEELb0EEneERKS8_(ptr noundef nonnull align 8 dereferenceable(16) %iter, ptr noundef nonnull align 8 dereferenceable(16) %ref.tmp)
  br i1 %call4, label %if.then, label %if.end

if.then:                                          ; preds = %entry
  %call5 = call noundef ptr @_ZNK4llvh16DenseMapIteratorIPKvjNS_12DenseMapInfoIS2_EENS_6detail12DenseMapPairIS2_jEELb0EEptEv(ptr noundef nonnull align 8 dereferenceable(16) %iter)
  %second = getelementptr inbounds %"struct.std::pair.108", ptr %call5, i32 0, i32 1
  %9 = load i32, ptr %second, align 8
  store i32 %9, ptr %retval, align 4
  store i32 1, ptr %cleanup.dest.slot, align 4
  br label %cleanup

if.end:                                           ; preds = %entry
  %call6 = call noundef i32 @_ZN6hermes2vm6GCBase9IDTracker12nextNativeIDEv(ptr noundef nonnull align 8 dereferenceable(192) %this1)
  store i32 %call6, ptr %objID, align 4
  %10 = load i32, ptr %objID, align 4
  %nativeIDMap_7 = getelementptr inbounds %"class.hermes::vm::GCBase::IDTracker", ptr %this1, i32 0, i32 5
  %call8 = call noundef nonnull align 4 dereferenceable(4) ptr @_ZN4llvh12DenseMapBaseINS_8DenseMapIPKvjNS_12DenseMapInfoIS3_EENS_6detail12DenseMapPairIS3_jEEEES3_jS5_S8_EixERKS3_(ptr noundef nonnull align 1 dereferenceable(1) %nativeIDMap_7, ptr noundef nonnull align 8 dereferenceable(8) %mem.addr)
  store i32 %10, ptr %call8, align 4
  %11 = load i32, ptr %objID, align 4
  store i32 %11, ptr %retval, align 4
  store i32 1, ptr %cleanup.dest.slot, align 4
  br label %cleanup

cleanup:                                          ; preds = %if.end, %if.then
  call void @_ZNSt10lock_guardISt15recursive_mutexED2Ev(ptr noundef nonnull align 8 dereferenceable(8) %lk) #14
  %12 = load i32, ptr %retval, align 4
  ret i32 %12
}

; Function Attrs: mustprogress nounwind uwtable
define hidden noundef zeroext i1 @_ZN6hermes2vm6GCBase11hasObjectIDEPKNS0_6GCCellE(ptr noundef nonnull align 8 dereferenceable(741) %this, ptr noundef %cell) #0 align 2 {
entry:
  %this.addr = alloca ptr, align 8
  %cell.addr = alloca ptr, align 8
  %agg.tmp = alloca %"class.hermes::vm::CompressedPointer", align 4
  store ptr %this, ptr %this.addr, align 8
  store ptr %cell, ptr %cell.addr, align 8
  %this1 = load ptr, ptr %this.addr, align 8
  %idTracker_ = getelementptr inbounds %"class.hermes::vm::GCBase", ptr %this1, i32 0, i32 27
  %0 = load ptr, ptr %cell.addr, align 8
  %pointerBase_ = getelementptr inbounds %"class.hermes::vm::GCBase", ptr %this1, i32 0, i32 7
  %1 = load ptr, ptr %pointerBase_, align 8
  %call = call i32 @_ZN6hermes2vm17CompressedPointer13encodeNonNullEPNS0_6GCCellERNS0_11PointerBaseE(ptr noundef %0, ptr noundef nonnull align 1 dereferenceable(1) %1)
  %coerce.dive = getelementptr inbounds %"class.hermes::vm::CompressedPointer", ptr %agg.tmp, i32 0, i32 0
  %coerce.dive2 = getelementptr inbounds %"class.hermes::vm::BasedPointer", ptr %coerce.dive, i32 0, i32 0
  store i32 %call, ptr %coerce.dive2, align 4
  %coerce.dive3 = getelementptr inbounds %"class.hermes::vm::CompressedPointer", ptr %agg.tmp, i32 0, i32 0
  %coerce.dive4 = getelementptr inbounds %"class.hermes::vm::BasedPointer", ptr %coerce.dive3, i32 0, i32 0
  %2 = load i32, ptr %coerce.dive4, align 4
  %call5 = call noundef zeroext i1 @_ZN6hermes2vm6GCBase9IDTracker11hasObjectIDENS0_17CompressedPointerE(ptr noundef nonnull align 8 dereferenceable(192) %idTracker_, i32 %2)
  ret i1 %call5
}

; Function Attrs: mustprogress nounwind uwtable
define hidden noundef zeroext i1 @_ZN6hermes2vm6GCBase9IDTracker11hasObjectIDENS0_17CompressedPointerE(ptr noundef nonnull align 8 dereferenceable(192) %this, i32 %cell.coerce) #0 align 2 {
entry:
  %cell = alloca %"class.hermes::vm::CompressedPointer", align 4
  %this.addr = alloca ptr, align 8
  %lk = alloca %"class.std::lock_guard", align 8
  %ref.tmp = alloca i32, align 4
  %coerce.dive = getelementptr inbounds %"class.hermes::vm::CompressedPointer", ptr %cell, i32 0, i32 0
  %coerce.dive1 = getelementptr inbounds %"class.hermes::vm::BasedPointer", ptr %coerce.dive, i32 0, i32 0
  store i32 %cell.coerce, ptr %coerce.dive1, align 4
  store ptr %this, ptr %this.addr, align 8
  %this2 = load ptr, ptr %this.addr, align 8
  %mtx_ = getelementptr inbounds %"class.hermes::vm::GCBase::IDTracker", ptr %this2, i32 0, i32 0
  call void @_ZNSt10lock_guardISt15recursive_mutexEC2ERS0_(ptr noundef nonnull align 8 dereferenceable(8) %lk, ptr noundef nonnull align 8 dereferenceable(40) %mtx_)
  %objectIDMap_ = getelementptr inbounds %"class.hermes::vm::GCBase::IDTracker", ptr %this2, i32 0, i32 3
  %call = call noundef i32 @_ZNK6hermes2vm17CompressedPointer6getRawEv(ptr noundef nonnull align 4 dereferenceable(4) %cell)
  store i32 %call, ptr %ref.tmp, align 4
  %call3 = call noundef i32 @_ZNK4llvh12DenseMapBaseINS_8DenseMapIjjNS_12DenseMapInfoIjEENS_6detail12DenseMapPairIjjEEEEjjS3_S6_E5countERKj(ptr noundef nonnull align 1 dereferenceable(1) %objectIDMap_, ptr noundef nonnull align 4 dereferenceable(4) %ref.tmp)
  %tobool = icmp ne i32 %call3, 0
  call void @_ZNSt10lock_guardISt15recursive_mutexED2Ev(ptr noundef nonnull align 8 dereferenceable(8) %lk) #14
  ret i1 %tobool
}

; Function Attrs: mustprogress nounwind uwtable
define hidden void @_ZN6hermes2vm6GCBase8newAllocEPKNS0_6GCCellEj(ptr noundef nonnull align 8 dereferenceable(741) %this, ptr noundef %ptr, i32 noundef %sz) #0 align 2 {
entry:
  %this.addr = alloca ptr, align 8
  %ptr.addr = alloca ptr, align 8
  %sz.addr = alloca i32, align 4
  store ptr %this, ptr %this.addr, align 8
  store ptr %ptr, ptr %ptr.addr, align 8
  store i32 %sz, ptr %sz.addr, align 4
  ret void
}

; Function Attrs: mustprogress nounwind uwtable
define hidden void @_ZN6hermes2vm6GCBase10moveObjectEPKNS0_6GCCellEjS4_j(ptr noundef nonnull align 8 dereferenceable(741) %this, ptr noundef %oldPtr, i32 noundef %oldSize, ptr noundef %newPtr, i32 noundef %newSize) #0 align 2 {
entry:
  %this.addr = alloca ptr, align 8
  %oldPtr.addr = alloca ptr, align 8
  %oldSize.addr = alloca i32, align 4
  %newPtr.addr = alloca ptr, align 8
  %newSize.addr = alloca i32, align 4
  %agg.tmp = alloca %"class.hermes::vm::CompressedPointer", align 4
  %agg.tmp3 = alloca %"class.hermes::vm::CompressedPointer", align 4
  store ptr %this, ptr %this.addr, align 8
  store ptr %oldPtr, ptr %oldPtr.addr, align 8
  store i32 %oldSize, ptr %oldSize.addr, align 4
  store ptr %newPtr, ptr %newPtr.addr, align 8
  store i32 %newSize, ptr %newSize.addr, align 4
  %this1 = load ptr, ptr %this.addr, align 8
  %idTracker_ = getelementptr inbounds %"class.hermes::vm::GCBase", ptr %this1, i32 0, i32 27
  %0 = load ptr, ptr %oldPtr.addr, align 8
  %pointerBase_ = getelementptr inbounds %"class.hermes::vm::GCBase", ptr %this1, i32 0, i32 7
  %1 = load ptr, ptr %pointerBase_, align 8
  %call = call i32 @_ZN6hermes2vm17CompressedPointer13encodeNonNullEPNS0_6GCCellERNS0_11PointerBaseE(ptr noundef %0, ptr noundef nonnull align 1 dereferenceable(1) %1)
  %coerce.dive = getelementptr inbounds %"class.hermes::vm::CompressedPointer", ptr %agg.tmp, i32 0, i32 0
  %coerce.dive2 = getelementptr inbounds %"class.hermes::vm::BasedPointer", ptr %coerce.dive, i32 0, i32 0
  store i32 %call, ptr %coerce.dive2, align 4
  %2 = load ptr, ptr %newPtr.addr, align 8
  %pointerBase_4 = getelementptr inbounds %"class.hermes::vm::GCBase", ptr %this1, i32 0, i32 7
  %3 = load ptr, ptr %pointerBase_4, align 8
  %call5 = call i32 @_ZN6hermes2vm17CompressedPointer13encodeNonNullEPNS0_6GCCellERNS0_11PointerBaseE(ptr noundef %2, ptr noundef nonnull align 1 dereferenceable(1) %3)
  %coerce.dive6 = getelementptr inbounds %"class.hermes::vm::CompressedPointer", ptr %agg.tmp3, i32 0, i32 0
  %coerce.dive7 = getelementptr inbounds %"class.hermes::vm::BasedPointer", ptr %coerce.dive6, i32 0, i32 0
  store i32 %call5, ptr %coerce.dive7, align 4
  %coerce.dive8 = getelementptr inbounds %"class.hermes::vm::CompressedPointer", ptr %agg.tmp, i32 0, i32 0
  %coerce.dive9 = getelementptr inbounds %"class.hermes::vm::BasedPointer", ptr %coerce.dive8, i32 0, i32 0
  %4 = load i32, ptr %coerce.dive9, align 4
  %coerce.dive10 = getelementptr inbounds %"class.hermes::vm::CompressedPointer", ptr %agg.tmp3, i32 0, i32 0
  %coerce.dive11 = getelementptr inbounds %"class.hermes::vm::BasedPointer", ptr %coerce.dive10, i32 0, i32 0
  %5 = load i32, ptr %coerce.dive11, align 4
  call void @_ZN6hermes2vm6GCBase9IDTracker10moveObjectENS0_17CompressedPointerES3_(ptr noundef nonnull align 8 dereferenceable(192) %idTracker_, i32 %4, i32 %5)
  ret void
}

; Function Attrs: mustprogress nounwind uwtable
define hidden void @_ZN6hermes2vm6GCBase9IDTracker10moveObjectENS0_17CompressedPointerES3_(ptr noundef nonnull align 8 dereferenceable(192) %this, i32 %oldLocation.coerce, i32 %newLocation.coerce) #0 align 2 {
entry:
  %oldLocation = alloca %"class.hermes::vm::CompressedPointer", align 4
  %newLocation = alloca %"class.hermes::vm::CompressedPointer", align 4
  %this.addr = alloca ptr, align 8
  %lk = alloca %"class.std::lock_guard", align 8
  %old = alloca %"class.llvh::DenseMapIterator.100", align 8
  %ref.tmp = alloca i32, align 4
  %ref.tmp7 = alloca %"class.llvh::DenseMapIterator.100", align 8
  %cleanup.dest.slot = alloca i32, align 4
  %oldID = alloca i32, align 4
  %agg.tmp = alloca %"class.llvh::DenseMapIterator.100", align 8
  %ref.tmp16 = alloca i32, align 4
  %reverseMappingIt = alloca %"class.llvh::DenseMapIterator.100", align 8
  %ref.tmp20 = alloca %"class.llvh::DenseMapIterator.100", align 8
  %coerce.dive = getelementptr inbounds %"class.hermes::vm::CompressedPointer", ptr %oldLocation, i32 0, i32 0
  %coerce.dive1 = getelementptr inbounds %"class.hermes::vm::BasedPointer", ptr %coerce.dive, i32 0, i32 0
  store i32 %oldLocation.coerce, ptr %coerce.dive1, align 4
  %coerce.dive2 = getelementptr inbounds %"class.hermes::vm::CompressedPointer", ptr %newLocation, i32 0, i32 0
  %coerce.dive3 = getelementptr inbounds %"class.hermes::vm::BasedPointer", ptr %coerce.dive2, i32 0, i32 0
  store i32 %newLocation.coerce, ptr %coerce.dive3, align 4
  store ptr %this, ptr %this.addr, align 8
  %this4 = load ptr, ptr %this.addr, align 8
  %call = call noundef zeroext i1 @_ZNK6hermes2vm17CompressedPointereqERKS1_(ptr noundef nonnull align 4 dereferenceable(4) %oldLocation, ptr noundef nonnull align 4 dereferenceable(4) %newLocation)
  br i1 %call, label %if.then, label %if.end

if.then:                                          ; preds = %entry
  br label %cleanup.cont

if.end:                                           ; preds = %entry
  %mtx_ = getelementptr inbounds %"class.hermes::vm::GCBase::IDTracker", ptr %this4, i32 0, i32 0
  call void @_ZNSt10lock_guardISt15recursive_mutexEC2ERS0_(ptr noundef nonnull align 8 dereferenceable(8) %lk, ptr noundef nonnull align 8 dereferenceable(40) %mtx_)
  %objectIDMap_ = getelementptr inbounds %"class.hermes::vm::GCBase::IDTracker", ptr %this4, i32 0, i32 3
  %call5 = call noundef i32 @_ZNK6hermes2vm17CompressedPointer6getRawEv(ptr noundef nonnull align 4 dereferenceable(4) %oldLocation)
  store i32 %call5, ptr %ref.tmp, align 4
  %call6 = call { ptr, ptr } @_ZN4llvh12DenseMapBaseINS_8DenseMapIjjNS_12DenseMapInfoIjEENS_6detail12DenseMapPairIjjEEEEjjS3_S6_E4findERKj(ptr noundef nonnull align 1 dereferenceable(1) %objectIDMap_, ptr noundef nonnull align 4 dereferenceable(4) %ref.tmp)
  %0 = getelementptr inbounds { ptr, ptr }, ptr %old, i32 0, i32 0
  %1 = extractvalue { ptr, ptr } %call6, 0
  store ptr %1, ptr %0, align 8
  %2 = getelementptr inbounds { ptr, ptr }, ptr %old, i32 0, i32 1
  %3 = extractvalue { ptr, ptr } %call6, 1
  store ptr %3, ptr %2, align 8
  %objectIDMap_8 = getelementptr inbounds %"class.hermes::vm::GCBase::IDTracker", ptr %this4, i32 0, i32 3
  %call9 = call { ptr, ptr } @_ZN4llvh12DenseMapBaseINS_8DenseMapIjjNS_12DenseMapInfoIjEENS_6detail12DenseMapPairIjjEEEEjjS3_S6_E3endEv(ptr noundef nonnull align 1 dereferenceable(1) %objectIDMap_8)
  %4 = getelementptr inbounds { ptr, ptr }, ptr %ref.tmp7, i32 0, i32 0
  %5 = extractvalue { ptr, ptr } %call9, 0
  store ptr %5, ptr %4, align 8
  %6 = getelementptr inbounds { ptr, ptr }, ptr %ref.tmp7, i32 0, i32 1
  %7 = extractvalue { ptr, ptr } %call9, 1
  store ptr %7, ptr %6, align 8
  %call10 = call noundef zeroext i1 @_ZNK4llvh16DenseMapIteratorIjjNS_12DenseMapInfoIjEENS_6detail12DenseMapPairIjjEELb0EEeqERKS6_(ptr noundef nonnull align 8 dereferenceable(16) %old, ptr noundef nonnull align 8 dereferenceable(16) %ref.tmp7)
  br i1 %call10, label %if.then11, label %if.end12

if.then11:                                        ; preds = %if.end
  store i32 1, ptr %cleanup.dest.slot, align 4
  br label %cleanup

if.end12:                                         ; preds = %if.end
  %call13 = call noundef ptr @_ZNK4llvh16DenseMapIteratorIjjNS_12DenseMapInfoIjEENS_6detail12DenseMapPairIjjEELb0EEptEv(ptr noundef nonnull align 8 dereferenceable(16) %old)
  %second = getelementptr inbounds %"struct.std::pair", ptr %call13, i32 0, i32 1
  %8 = load i32, ptr %second, align 4
  store i32 %8, ptr %oldID, align 4
  %objectIDMap_14 = getelementptr inbounds %"class.hermes::vm::GCBase::IDTracker", ptr %this4, i32 0, i32 3
  call void @llvm.memcpy.p0.p0.i64(ptr align 8 %agg.tmp, ptr align 8 %old, i64 16, i1 false)
  %9 = getelementptr inbounds { ptr, ptr }, ptr %agg.tmp, i32 0, i32 0
  %10 = load ptr, ptr %9, align 8
  %11 = getelementptr inbounds { ptr, ptr }, ptr %agg.tmp, i32 0, i32 1
  %12 = load ptr, ptr %11, align 8
  call void @_ZN4llvh12DenseMapBaseINS_8DenseMapIjjNS_12DenseMapInfoIjEENS_6detail12DenseMapPairIjjEEEEjjS3_S6_E5eraseENS_16DenseMapIteratorIjjS3_S6_Lb0EEE(ptr noundef nonnull align 1 dereferenceable(1) %objectIDMap_14, ptr %10, ptr %12)
  %13 = load i32, ptr %oldID, align 4
  %objectIDMap_15 = getelementptr inbounds %"class.hermes::vm::GCBase::IDTracker", ptr %this4, i32 0, i32 3
  %call17 = call noundef i32 @_ZNK6hermes2vm17CompressedPointer6getRawEv(ptr noundef nonnull align 4 dereferenceable(4) %newLocation)
  store i32 %call17, ptr %ref.tmp16, align 4
  %call18 = call noundef nonnull align 4 dereferenceable(4) ptr @_ZN4llvh12DenseMapBaseINS_8DenseMapIjjNS_12DenseMapInfoIjEENS_6detail12DenseMapPairIjjEEEEjjS3_S6_EixEOj(ptr noundef nonnull align 1 dereferenceable(1) %objectIDMap_15, ptr noundef nonnull align 4 dereferenceable(4) %ref.tmp16)
  store i32 %13, ptr %call18, align 4
  %idObjectMap_ = getelementptr inbounds %"class.hermes::vm::GCBase::IDTracker", ptr %this4, i32 0, i32 4
  %call19 = call { ptr, ptr } @_ZN4llvh12DenseMapBaseINS_8DenseMapIjjNS_12DenseMapInfoIjEENS_6detail12DenseMapPairIjjEEEEjjS3_S6_E4findERKj(ptr noundef nonnull align 1 dereferenceable(1) %idObjectMap_, ptr noundef nonnull align 4 dereferenceable(4) %oldID)
  %14 = getelementptr inbounds { ptr, ptr }, ptr %reverseMappingIt, i32 0, i32 0
  %15 = extractvalue { ptr, ptr } %call19, 0
  store ptr %15, ptr %14, align 8
  %16 = getelementptr inbounds { ptr, ptr }, ptr %reverseMappingIt, i32 0, i32 1
  %17 = extractvalue { ptr, ptr } %call19, 1
  store ptr %17, ptr %16, align 8
  %idObjectMap_21 = getelementptr inbounds %"class.hermes::vm::GCBase::IDTracker", ptr %this4, i32 0, i32 4
  %call22 = call { ptr, ptr } @_ZN4llvh12DenseMapBaseINS_8DenseMapIjjNS_12DenseMapInfoIjEENS_6detail12DenseMapPairIjjEEEEjjS3_S6_E3endEv(ptr noundef nonnull align 1 dereferenceable(1) %idObjectMap_21)
  %18 = getelementptr inbounds { ptr, ptr }, ptr %ref.tmp20, i32 0, i32 0
  %19 = extractvalue { ptr, ptr } %call22, 0
  store ptr %19, ptr %18, align 8
  %20 = getelementptr inbounds { ptr, ptr }, ptr %ref.tmp20, i32 0, i32 1
  %21 = extractvalue { ptr, ptr } %call22, 1
  store ptr %21, ptr %20, align 8
  %call23 = call noundef zeroext i1 @_ZNK4llvh16DenseMapIteratorIjjNS_12DenseMapInfoIjEENS_6detail12DenseMapPairIjjEELb0EEneERKS6_(ptr noundef nonnull align 8 dereferenceable(16) %reverseMappingIt, ptr noundef nonnull align 8 dereferenceable(16) %ref.tmp20)
  br i1 %call23, label %if.then24, label %if.end28

if.then24:                                        ; preds = %if.end12
  %call25 = call noundef i32 @_ZNK6hermes2vm17CompressedPointer6getRawEv(ptr noundef nonnull align 4 dereferenceable(4) %newLocation)
  %call26 = call noundef ptr @_ZNK4llvh16DenseMapIteratorIjjNS_12DenseMapInfoIjEENS_6detail12DenseMapPairIjjEELb0EEptEv(ptr noundef nonnull align 8 dereferenceable(16) %reverseMappingIt)
  %second27 = getelementptr inbounds %"struct.std::pair", ptr %call26, i32 0, i32 1
  store i32 %call25, ptr %second27, align 4
  br label %if.end28

if.end28:                                         ; preds = %if.then24, %if.end12
  store i32 0, ptr %cleanup.dest.slot, align 4
  br label %cleanup

cleanup:                                          ; preds = %if.end28, %if.then11
  call void @_ZNSt10lock_guardISt15recursive_mutexED2Ev(ptr noundef nonnull align 8 dereferenceable(8) %lk) #14
  %cleanup.dest = load i32, ptr %cleanup.dest.slot, align 4
  switch i32 %cleanup.dest, label %unreachable [
    i32 0, label %cleanup.cont
    i32 1, label %cleanup.cont
  ]

cleanup.cont:                                     ; preds = %cleanup, %cleanup, %if.then
  ret void

unreachable:                                      ; preds = %cleanup
  unreachable
}

; Function Attrs: mustprogress nounwind uwtable
define hidden void @_ZN6hermes2vm6GCBase13untrackObjectEPKNS0_6GCCellEj(ptr noundef nonnull align 8 dereferenceable(741) %this, ptr noundef %cell, i32 noundef %sz) #0 align 2 {
entry:
  %this.addr = alloca ptr, align 8
  %cell.addr = alloca ptr, align 8
  %sz.addr = alloca i32, align 4
  %agg.tmp = alloca %"class.hermes::vm::CompressedPointer", align 4
  store ptr %this, ptr %this.addr, align 8
  store ptr %cell, ptr %cell.addr, align 8
  store i32 %sz, ptr %sz.addr, align 4
  %this1 = load ptr, ptr %this.addr, align 8
  %idTracker_ = getelementptr inbounds %"class.hermes::vm::GCBase", ptr %this1, i32 0, i32 27
  %0 = load ptr, ptr %cell.addr, align 8
  %pointerBase_ = getelementptr inbounds %"class.hermes::vm::GCBase", ptr %this1, i32 0, i32 7
  %1 = load ptr, ptr %pointerBase_, align 8
  %call = call i32 @_ZN6hermes2vm17CompressedPointer13encodeNonNullEPNS0_6GCCellERNS0_11PointerBaseE(ptr noundef %0, ptr noundef nonnull align 1 dereferenceable(1) %1)
  %coerce.dive = getelementptr inbounds %"class.hermes::vm::CompressedPointer", ptr %agg.tmp, i32 0, i32 0
  %coerce.dive2 = getelementptr inbounds %"class.hermes::vm::BasedPointer", ptr %coerce.dive, i32 0, i32 0
  store i32 %call, ptr %coerce.dive2, align 4
  %coerce.dive3 = getelementptr inbounds %"class.hermes::vm::CompressedPointer", ptr %agg.tmp, i32 0, i32 0
  %coerce.dive4 = getelementptr inbounds %"class.hermes::vm::BasedPointer", ptr %coerce.dive3, i32 0, i32 0
  %2 = load i32, ptr %coerce.dive4, align 4
  call void @_ZN6hermes2vm6GCBase9IDTracker13untrackObjectENS0_17CompressedPointerE(ptr noundef nonnull align 8 dereferenceable(192) %idTracker_, i32 %2)
  ret void
}

; Function Attrs: mustprogress nounwind uwtable
define hidden void @_ZN6hermes2vm6GCBase9IDTracker13untrackObjectENS0_17CompressedPointerE(ptr noundef nonnull align 8 dereferenceable(192) %this, i32 %cell.coerce) #0 align 2 {
entry:
  %cell = alloca %"class.hermes::vm::CompressedPointer", align 4
  %this.addr = alloca ptr, align 8
  %lk = alloca %"class.std::lock_guard", align 8
  %id = alloca i32, align 4
  %ref.tmp = alloca i32, align 4
  %ref.tmp5 = alloca i32, align 4
  %coerce.dive = getelementptr inbounds %"class.hermes::vm::CompressedPointer", ptr %cell, i32 0, i32 0
  %coerce.dive1 = getelementptr inbounds %"class.hermes::vm::BasedPointer", ptr %coerce.dive, i32 0, i32 0
  store i32 %cell.coerce, ptr %coerce.dive1, align 4
  store ptr %this, ptr %this.addr, align 8
  %this2 = load ptr, ptr %this.addr, align 8
  %mtx_ = getelementptr inbounds %"class.hermes::vm::GCBase::IDTracker", ptr %this2, i32 0, i32 0
  call void @_ZNSt10lock_guardISt15recursive_mutexEC2ERS0_(ptr noundef nonnull align 8 dereferenceable(8) %lk, ptr noundef nonnull align 8 dereferenceable(40) %mtx_)
  %objectIDMap_ = getelementptr inbounds %"class.hermes::vm::GCBase::IDTracker", ptr %this2, i32 0, i32 3
  %call = call noundef i32 @_ZNK6hermes2vm17CompressedPointer6getRawEv(ptr noundef nonnull align 4 dereferenceable(4) %cell)
  store i32 %call, ptr %ref.tmp, align 4
  %call3 = call noundef nonnull align 4 dereferenceable(4) ptr @_ZN4llvh12DenseMapBaseINS_8DenseMapIjjNS_12DenseMapInfoIjEENS_6detail12DenseMapPairIjjEEEEjjS3_S6_EixEOj(ptr noundef nonnull align 1 dereferenceable(1) %objectIDMap_, ptr noundef nonnull align 4 dereferenceable(4) %ref.tmp)
  %0 = load i32, ptr %call3, align 4
  store i32 %0, ptr %id, align 4
  %objectIDMap_4 = getelementptr inbounds %"class.hermes::vm::GCBase::IDTracker", ptr %this2, i32 0, i32 3
  %call6 = call noundef i32 @_ZNK6hermes2vm17CompressedPointer6getRawEv(ptr noundef nonnull align 4 dereferenceable(4) %cell)
  store i32 %call6, ptr %ref.tmp5, align 4
  %call7 = call noundef zeroext i1 @_ZN4llvh12DenseMapBaseINS_8DenseMapIjjNS_12DenseMapInfoIjEENS_6detail12DenseMapPairIjjEEEEjjS3_S6_E5eraseERKj(ptr noundef nonnull align 1 dereferenceable(1) %objectIDMap_4, ptr noundef nonnull align 4 dereferenceable(4) %ref.tmp5)
  %extraNativeIDs_ = getelementptr inbounds %"class.hermes::vm::GCBase::IDTracker", ptr %this2, i32 0, i32 6
  %call8 = call noundef zeroext i1 @_ZN4llvh12DenseMapBaseINS_8DenseMapIjNS_11SmallVectorIjLj1EEENS_12DenseMapInfoIjEENS_6detail12DenseMapPairIjS3_EEEEjS3_S5_S8_E5eraseERKj(ptr noundef nonnull align 1 dereferenceable(1) %extraNativeIDs_, ptr noundef nonnull align 4 dereferenceable(4) %id)
  %idObjectMap_ = getelementptr inbounds %"class.hermes::vm::GCBase::IDTracker", ptr %this2, i32 0, i32 4
  %call9 = call noundef zeroext i1 @_ZN4llvh12DenseMapBaseINS_8DenseMapIjjNS_12DenseMapInfoIjEENS_6detail12DenseMapPairIjjEEEEjjS3_S6_E5eraseERKj(ptr noundef nonnull align 1 dereferenceable(1) %idObjectMap_, ptr noundef nonnull align 4 dereferenceable(4) %id)
  call void @_ZNSt10lock_guardISt15recursive_mutexED2Ev(ptr noundef nonnull align 8 dereferenceable(8) %lk) #14
  ret void
}

; Function Attrs: mustprogress nounwind uwtable
define hidden noundef nonnull align 1 dereferenceable(1) ptr @_ZNK6hermes2vm6GCBase14getGCExecTraceEv(ptr noundef nonnull align 8 dereferenceable(741) %this) #0 align 2 {
entry:
  %this.addr = alloca ptr, align 8
  store ptr %this, ptr %this.addr, align 8
  %this1 = load ptr, ptr %this.addr, align 8
  %execTrace_ = getelementptr inbounds %"class.hermes::vm::GCBase", ptr %this1, i32 0, i32 4
  ret ptr %execTrace_
}

; Function Attrs: mustprogress nounwind uwtable
define hidden noundef nonnull align 8 dereferenceable(36) ptr @_ZN6hermes2vmlsERN4llvh11raw_ostreamERKNS0_17DurationFormatObjE(ptr noundef nonnull align 8 dereferenceable(36) %os, ptr noundef nonnull align 8 dereferenceable(8) %dfo) #0 {
entry:
  %os.addr = alloca ptr, align 8
  %dfo.addr = alloca ptr, align 8
  %ref.tmp = alloca %"class.llvh::format_object", align 8
  %ref.tmp6 = alloca %"class.llvh::format_object", align 8
  %ref.tmp7 = alloca double, align 8
  %ref.tmp12 = alloca %"class.llvh::format_object", align 8
  %ref.tmp13 = alloca double, align 8
  store ptr %os, ptr %os.addr, align 8
  store ptr %dfo, ptr %dfo.addr, align 8
  %0 = load ptr, ptr %dfo.addr, align 8
  %secs = getelementptr inbounds %"struct.hermes::vm::DurationFormatObj", ptr %0, i32 0, i32 0
  %1 = load double, ptr %secs, align 8
  %cmp = fcmp oge double %1, 1.000000e+00
  br i1 %cmp, label %if.then, label %if.else

if.then:                                          ; preds = %entry
  %2 = load ptr, ptr %os.addr, align 8
  %3 = load ptr, ptr %dfo.addr, align 8
  %secs1 = getelementptr inbounds %"struct.hermes::vm::DurationFormatObj", ptr %3, i32 0, i32 0
  call void @_ZN4llvh6formatIJdEEENS_13format_objectIJDpT_EEEPKcDpRKS2_(ptr sret(%"class.llvh::format_object") align 8 %ref.tmp, ptr noundef @.str.49, ptr noundef nonnull align 8 dereferenceable(8) %secs1)
  %call = call noundef nonnull align 8 dereferenceable(36) ptr @_ZN4llvh11raw_ostreamlsERKNS_18format_object_baseE(ptr noundef nonnull align 8 dereferenceable(36) %2, ptr noundef nonnull align 8 dereferenceable(16) %ref.tmp)
  %call2 = call noundef nonnull align 8 dereferenceable(36) ptr @_ZN4llvh11raw_ostreamlsEPKc(ptr noundef nonnull align 8 dereferenceable(36) %call, ptr noundef @.str.50)
  br label %if.end18

if.else:                                          ; preds = %entry
  %4 = load ptr, ptr %dfo.addr, align 8
  %secs3 = getelementptr inbounds %"struct.hermes::vm::DurationFormatObj", ptr %4, i32 0, i32 0
  %5 = load double, ptr %secs3, align 8
  %cmp4 = fcmp oge double %5, 1.000000e-03
  br i1 %cmp4, label %if.then5, label %if.else11

if.then5:                                         ; preds = %if.else
  %6 = load ptr, ptr %os.addr, align 8
  %7 = load ptr, ptr %dfo.addr, align 8
  %secs8 = getelementptr inbounds %"struct.hermes::vm::DurationFormatObj", ptr %7, i32 0, i32 0
  %8 = load double, ptr %secs8, align 8
  %mul = fmul double %8, 1.000000e+03
  store double %mul, ptr %ref.tmp7, align 8
  call void @_ZN4llvh6formatIJdEEENS_13format_objectIJDpT_EEEPKcDpRKS2_(ptr sret(%"class.llvh::format_object") align 8 %ref.tmp6, ptr noundef @.str.49, ptr noundef nonnull align 8 dereferenceable(8) %ref.tmp7)
  %call9 = call noundef nonnull align 8 dereferenceable(36) ptr @_ZN4llvh11raw_ostreamlsERKNS_18format_object_baseE(ptr noundef nonnull align 8 dereferenceable(36) %6, ptr noundef nonnull align 8 dereferenceable(16) %ref.tmp6)
  %call10 = call noundef nonnull align 8 dereferenceable(36) ptr @_ZN4llvh11raw_ostreamlsEPKc(ptr noundef nonnull align 8 dereferenceable(36) %call9, ptr noundef @.str.51)
  br label %if.end

if.else11:                                        ; preds = %if.else
  %9 = load ptr, ptr %os.addr, align 8
  %10 = load ptr, ptr %dfo.addr, align 8
  %secs14 = getelementptr inbounds %"struct.hermes::vm::DurationFormatObj", ptr %10, i32 0, i32 0
  %11 = load double, ptr %secs14, align 8
  %mul15 = fmul double %11, 1.000000e+06
  store double %mul15, ptr %ref.tmp13, align 8
  call void @_ZN4llvh6formatIJdEEENS_13format_objectIJDpT_EEEPKcDpRKS2_(ptr sret(%"class.llvh::format_object") align 8 %ref.tmp12, ptr noundef @.str.49, ptr noundef nonnull align 8 dereferenceable(8) %ref.tmp13)
  %call16 = call noundef nonnull align 8 dereferenceable(36) ptr @_ZN4llvh11raw_ostreamlsERKNS_18format_object_baseE(ptr noundef nonnull align 8 dereferenceable(36) %9, ptr noundef nonnull align 8 dereferenceable(16) %ref.tmp12)
  %call17 = call noundef nonnull align 8 dereferenceable(36) ptr @_ZN4llvh11raw_ostreamlsEPKc(ptr noundef nonnull align 8 dereferenceable(36) %call16, ptr noundef @.str.52)
  br label %if.end

if.end:                                           ; preds = %if.else11, %if.then5
  br label %if.end18

if.end18:                                         ; preds = %if.end, %if.then
  %12 = load ptr, ptr %os.addr, align 8
  ret ptr %12
}

declare noundef nonnull align 8 dereferenceable(36) ptr @_ZN4llvh11raw_ostreamlsERKNS_18format_object_baseE(ptr noundef nonnull align 8 dereferenceable(36), ptr noundef nonnull align 8 dereferenceable(16)) #2

; Function Attrs: mustprogress nounwind uwtable
define linkonce_odr hidden void @_ZN4llvh6formatIJdEEENS_13format_objectIJDpT_EEEPKcDpRKS2_(ptr noalias sret(%"class.llvh::format_object") align 8 %agg.result, ptr noundef %Fmt, ptr noundef nonnull align 8 dereferenceable(8) %Vals) #0 comdat {
entry:
  %result.ptr = alloca ptr, align 8
  %Fmt.addr = alloca ptr, align 8
  %Vals.addr = alloca ptr, align 8
  store ptr %agg.result, ptr %result.ptr, align 8
  store ptr %Fmt, ptr %Fmt.addr, align 8
  store ptr %Vals, ptr %Vals.addr, align 8
  %0 = load ptr, ptr %Fmt.addr, align 8
  %1 = load ptr, ptr %Vals.addr, align 8
  call void @_ZN4llvh13format_objectIJdEEC2EPKcRKd(ptr noundef nonnull align 8 dereferenceable(24) %agg.result, ptr noundef %0, ptr noundef nonnull align 8 dereferenceable(8) %1)
  ret void
}

; Function Attrs: mustprogress nounwind uwtable
define hidden noundef nonnull align 8 dereferenceable(36) ptr @_ZN6hermes2vmlsERN4llvh11raw_ostreamERKNS0_13SizeFormatObjE(ptr noundef nonnull align 8 dereferenceable(36) %os, ptr noundef nonnull align 8 dereferenceable(8) %sfo) #0 {
entry:
  %os.addr = alloca ptr, align 8
  %sfo.addr = alloca ptr, align 8
  %dblsize = alloca double, align 8
  %gbs = alloca double, align 8
  %ref.tmp = alloca %"class.llvh::format_object", align 8
  %mbs = alloca double, align 8
  %ref.tmp6 = alloca %"class.llvh::format_object", align 8
  %kbs = alloca double, align 8
  %ref.tmp13 = alloca %"class.llvh::format_object", align 8
  store ptr %os, ptr %os.addr, align 8
  store ptr %sfo, ptr %sfo.addr, align 8
  %0 = load ptr, ptr %sfo.addr, align 8
  %bytes = getelementptr inbounds %"struct.hermes::vm::SizeFormatObj", ptr %0, i32 0, i32 0
  %1 = load i64, ptr %bytes, align 8
  %conv = uitofp i64 %1 to double
  store double %conv, ptr %dblsize, align 8
  %2 = load ptr, ptr %sfo.addr, align 8
  %bytes1 = getelementptr inbounds %"struct.hermes::vm::SizeFormatObj", ptr %2, i32 0, i32 0
  %3 = load i64, ptr %bytes1, align 8
  %cmp = icmp uge i64 %3, 1073741824
  br i1 %cmp, label %if.then, label %if.else

if.then:                                          ; preds = %entry
  %4 = load double, ptr %dblsize, align 8
  %div = fdiv double %4, 0x41D0000000000000
  store double %div, ptr %gbs, align 8
  %5 = load ptr, ptr %os.addr, align 8
  call void @_ZN4llvh6formatIJdEEENS_13format_objectIJDpT_EEEPKcDpRKS2_(ptr sret(%"class.llvh::format_object") align 8 %ref.tmp, ptr noundef @.str.53, ptr noundef nonnull align 8 dereferenceable(8) %gbs)
  %call = call noundef nonnull align 8 dereferenceable(36) ptr @_ZN4llvh11raw_ostreamlsERKNS_18format_object_baseE(ptr noundef nonnull align 8 dereferenceable(36) %5, ptr noundef nonnull align 8 dereferenceable(16) %ref.tmp)
  br label %if.end20

if.else:                                          ; preds = %entry
  %6 = load ptr, ptr %sfo.addr, align 8
  %bytes2 = getelementptr inbounds %"struct.hermes::vm::SizeFormatObj", ptr %6, i32 0, i32 0
  %7 = load i64, ptr %bytes2, align 8
  %cmp3 = icmp uge i64 %7, 1048576
  br i1 %cmp3, label %if.then4, label %if.else8

if.then4:                                         ; preds = %if.else
  %8 = load double, ptr %dblsize, align 8
  %div5 = fdiv double %8, 0x4130000000000000
  store double %div5, ptr %mbs, align 8
  %9 = load ptr, ptr %os.addr, align 8
  call void @_ZN4llvh6formatIJdEEENS_13format_objectIJDpT_EEEPKcDpRKS2_(ptr sret(%"class.llvh::format_object") align 8 %ref.tmp6, ptr noundef @.str.54, ptr noundef nonnull align 8 dereferenceable(8) %mbs)
  %call7 = call noundef nonnull align 8 dereferenceable(36) ptr @_ZN4llvh11raw_ostreamlsERKNS_18format_object_baseE(ptr noundef nonnull align 8 dereferenceable(36) %9, ptr noundef nonnull align 8 dereferenceable(16) %ref.tmp6)
  br label %if.end19

if.else8:                                         ; preds = %if.else
  %10 = load ptr, ptr %sfo.addr, align 8
  %bytes9 = getelementptr inbounds %"struct.hermes::vm::SizeFormatObj", ptr %10, i32 0, i32 0
  %11 = load i64, ptr %bytes9, align 8
  %cmp10 = icmp uge i64 %11, 1024
  br i1 %cmp10, label %if.then11, label %if.else15

if.then11:                                        ; preds = %if.else8
  %12 = load double, ptr %dblsize, align 8
  %div12 = fdiv double %12, 1.024000e+03
  store double %div12, ptr %kbs, align 8
  %13 = load ptr, ptr %os.addr, align 8
  call void @_ZN4llvh6formatIJdEEENS_13format_objectIJDpT_EEEPKcDpRKS2_(ptr sret(%"class.llvh::format_object") align 8 %ref.tmp13, ptr noundef @.str.55, ptr noundef nonnull align 8 dereferenceable(8) %kbs)
  %call14 = call noundef nonnull align 8 dereferenceable(36) ptr @_ZN4llvh11raw_ostreamlsERKNS_18format_object_baseE(ptr noundef nonnull align 8 dereferenceable(36) %13, ptr noundef nonnull align 8 dereferenceable(16) %ref.tmp13)
  br label %if.end

if.else15:                                        ; preds = %if.else8
  %14 = load ptr, ptr %os.addr, align 8
  %15 = load ptr, ptr %sfo.addr, align 8
  %bytes16 = getelementptr inbounds %"struct.hermes::vm::SizeFormatObj", ptr %15, i32 0, i32 0
  %16 = load i64, ptr %bytes16, align 8
  %call17 = call noundef nonnull align 8 dereferenceable(36) ptr @_ZN4llvh11raw_ostreamlsEm(ptr noundef nonnull align 8 dereferenceable(36) %14, i64 noundef %16)
  %call18 = call noundef nonnull align 8 dereferenceable(36) ptr @_ZN4llvh11raw_ostreamlsEPKc(ptr noundef nonnull align 8 dereferenceable(36) %call17, ptr noundef @.str.56)
  br label %if.end

if.end:                                           ; preds = %if.else15, %if.then11
  br label %if.end19

if.end19:                                         ; preds = %if.end, %if.then4
  br label %if.end20

if.end20:                                         ; preds = %if.end19, %if.then
  %17 = load ptr, ptr %os.addr, align 8
  ret ptr %17
}

declare noundef nonnull align 8 dereferenceable(36) ptr @_ZN4llvh11raw_ostreamlsEm(ptr noundef nonnull align 8 dereferenceable(36), i64 noundef) #2

; Function Attrs: mustprogress nounwind uwtable
define hidden void @_ZN6hermes2vm6GCBase11GCCallbacksD2Ev(ptr noundef nonnull align 8 dereferenceable(8) %this) unnamed_addr #0 align 2 {
entry:
  %this.addr = alloca ptr, align 8
  store ptr %this, ptr %this.addr, align 8
  ret void
}

; Function Attrs: mustprogress nounwind uwtable
define hidden void @_ZN6hermes2vm6GCBase11GCCallbacksD0Ev(ptr noundef nonnull align 8 dereferenceable(8) %this) unnamed_addr #0 align 2 {
entry:
  %this.addr = alloca ptr, align 8
  store ptr %this, ptr %this.addr, align 8
  call void @llvm.trap() #17
  unreachable
}

; Function Attrs: cold noreturn nounwind memory(inaccessiblemem: write)
declare void @llvm.trap() #7

; Function Attrs: mustprogress nounwind uwtable
define hidden void @_ZN6hermes2vm6GCBase9IDTrackerC2Ev(ptr noundef nonnull align 8 dereferenceable(192) %this) unnamed_addr #0 align 2 {
entry:
  %this.addr = alloca ptr, align 8
  store ptr %this, ptr %this.addr, align 8
  %this1 = load ptr, ptr %this.addr, align 8
  %mtx_ = getelementptr inbounds %"class.hermes::vm::GCBase::IDTracker", ptr %this1, i32 0, i32 0
  call void @_ZNSt15recursive_mutexC2Ev(ptr noundef nonnull align 8 dereferenceable(40) %mtx_) #14
  %lastID_ = getelementptr inbounds %"class.hermes::vm::GCBase::IDTracker", ptr %this1, i32 0, i32 1
  %call = call noundef i32 @_ZN6hermes2vm6GCBase9IDTracker8reservedENS2_16ReservedObjectIDE(i32 noundef 29)
  store i32 %call, ptr %lastID_, align 8
  %objectIDMap_ = getelementptr inbounds %"class.hermes::vm::GCBase::IDTracker", ptr %this1, i32 0, i32 3
  call void @_ZN4llvh8DenseMapIjjNS_12DenseMapInfoIjEENS_6detail12DenseMapPairIjjEEEC2Ej(ptr noundef nonnull align 8 dereferenceable(20) %objectIDMap_, i32 noundef 0)
  %idObjectMap_ = getelementptr inbounds %"class.hermes::vm::GCBase::IDTracker", ptr %this1, i32 0, i32 4
  call void @_ZN4llvh8DenseMapIjjNS_12DenseMapInfoIjEENS_6detail12DenseMapPairIjjEEEC2Ej(ptr noundef nonnull align 8 dereferenceable(20) %idObjectMap_, i32 noundef 0)
  %nativeIDMap_ = getelementptr inbounds %"class.hermes::vm::GCBase::IDTracker", ptr %this1, i32 0, i32 5
  call void @_ZN4llvh8DenseMapIPKvjNS_12DenseMapInfoIS2_EENS_6detail12DenseMapPairIS2_jEEEC2Ej(ptr noundef nonnull align 8 dereferenceable(20) %nativeIDMap_, i32 noundef 0)
  %extraNativeIDs_ = getelementptr inbounds %"class.hermes::vm::GCBase::IDTracker", ptr %this1, i32 0, i32 6
  call void @_ZN4llvh8DenseMapIjNS_11SmallVectorIjLj1EEENS_12DenseMapInfoIjEENS_6detail12DenseMapPairIjS2_EEEC2Ej(ptr noundef nonnull align 8 dereferenceable(20) %extraNativeIDs_, i32 noundef 0)
  %symbolIDMap_ = getelementptr inbounds %"class.hermes::vm::GCBase::IDTracker", ptr %this1, i32 0, i32 7
  call void @_ZN4llvh8DenseMapIjjNS_12DenseMapInfoIjEENS_6detail12DenseMapPairIjjEEEC2Ej(ptr noundef nonnull align 8 dereferenceable(20) %symbolIDMap_, i32 noundef 0)
  %numberIDMap_ = getelementptr inbounds %"class.hermes::vm::GCBase::IDTracker", ptr %this1, i32 0, i32 8
  call void @_ZN4llvh8DenseMapIdjN6hermes2vm6GCBase9IDTracker16DoubleComparatorENS_6detail12DenseMapPairIdjEEEC2Ej(ptr noundef nonnull align 8 dereferenceable(20) %numberIDMap_, i32 noundef 0)
  ret void
}

; Function Attrs: mustprogress nounwind uwtable
define linkonce_odr hidden noundef i32 @_ZN6hermes2vm6GCBase9IDTracker8reservedENS2_16ReservedObjectIDE(i32 noundef %id) #0 comdat align 2 {
entry:
  %id.addr = alloca i32, align 4
  store i32 %id, ptr %id.addr, align 4
  %0 = load i32, ptr %id.addr, align 4
  %mul = mul i32 %0, 2
  %add = add i32 %mul, 1
  ret i32 %add
}

; Function Attrs: mustprogress nounwind uwtable
define linkonce_odr hidden void @_ZN4llvh8DenseMapIjjNS_12DenseMapInfoIjEENS_6detail12DenseMapPairIjjEEEC2Ej(ptr noundef nonnull align 8 dereferenceable(20) %this, i32 noundef %InitialReserve) unnamed_addr #0 comdat align 2 {
entry:
  %this.addr = alloca ptr, align 8
  %InitialReserve.addr = alloca i32, align 4
  store ptr %this, ptr %this.addr, align 8
  store i32 %InitialReserve, ptr %InitialReserve.addr, align 4
  %this1 = load ptr, ptr %this.addr, align 8
  %0 = load i32, ptr %InitialReserve.addr, align 4
  call void @_ZN4llvh8DenseMapIjjNS_12DenseMapInfoIjEENS_6detail12DenseMapPairIjjEEE4initEj(ptr noundef nonnull align 8 dereferenceable(20) %this1, i32 noundef %0)
  ret void
}

; Function Attrs: mustprogress nounwind uwtable
define linkonce_odr hidden void @_ZN4llvh8DenseMapIPKvjNS_12DenseMapInfoIS2_EENS_6detail12DenseMapPairIS2_jEEEC2Ej(ptr noundef nonnull align 8 dereferenceable(20) %this, i32 noundef %InitialReserve) unnamed_addr #0 comdat align 2 {
entry:
  %this.addr = alloca ptr, align 8
  %InitialReserve.addr = alloca i32, align 4
  store ptr %this, ptr %this.addr, align 8
  store i32 %InitialReserve, ptr %InitialReserve.addr, align 4
  %this1 = load ptr, ptr %this.addr, align 8
  %0 = load i32, ptr %InitialReserve.addr, align 4
  call void @_ZN4llvh8DenseMapIPKvjNS_12DenseMapInfoIS2_EENS_6detail12DenseMapPairIS2_jEEE4initEj(ptr noundef nonnull align 8 dereferenceable(20) %this1, i32 noundef %0)
  ret void
}

; Function Attrs: mustprogress nounwind uwtable
define linkonce_odr hidden void @_ZN4llvh8DenseMapIjNS_11SmallVectorIjLj1EEENS_12DenseMapInfoIjEENS_6detail12DenseMapPairIjS2_EEEC2Ej(ptr noundef nonnull align 8 dereferenceable(20) %this, i32 noundef %InitialReserve) unnamed_addr #0 comdat align 2 {
entry:
  %this.addr = alloca ptr, align 8
  %InitialReserve.addr = alloca i32, align 4
  store ptr %this, ptr %this.addr, align 8
  store i32 %InitialReserve, ptr %InitialReserve.addr, align 4
  %this1 = load ptr, ptr %this.addr, align 8
  %0 = load i32, ptr %InitialReserve.addr, align 4
  call void @_ZN4llvh8DenseMapIjNS_11SmallVectorIjLj1EEENS_12DenseMapInfoIjEENS_6detail12DenseMapPairIjS2_EEE4initEj(ptr noundef nonnull align 8 dereferenceable(20) %this1, i32 noundef %0)
  ret void
}

; Function Attrs: mustprogress nounwind uwtable
define linkonce_odr hidden void @_ZN4llvh8DenseMapIdjN6hermes2vm6GCBase9IDTracker16DoubleComparatorENS_6detail12DenseMapPairIdjEEEC2Ej(ptr noundef nonnull align 8 dereferenceable(20) %this, i32 noundef %InitialReserve) unnamed_addr #0 comdat align 2 {
entry:
  %this.addr = alloca ptr, align 8
  %InitialReserve.addr = alloca i32, align 4
  store ptr %this, ptr %this.addr, align 8
  store i32 %InitialReserve, ptr %InitialReserve.addr, align 4
  %this1 = load ptr, ptr %this.addr, align 8
  %0 = load i32, ptr %InitialReserve.addr, align 4
  call void @_ZN4llvh8DenseMapIdjN6hermes2vm6GCBase9IDTracker16DoubleComparatorENS_6detail12DenseMapPairIdjEEE4initEj(ptr noundef nonnull align 8 dereferenceable(20) %this1, i32 noundef %0)
  ret void
}

; Function Attrs: mustprogress nounwind uwtable
define linkonce_odr hidden noundef zeroext i1 @_ZNK6hermes2vm17CompressedPointereqERKS1_(ptr noundef nonnull align 4 dereferenceable(4) %this, ptr noundef nonnull align 4 dereferenceable(4) %other) #0 comdat align 2 {
entry:
  %this.addr = alloca ptr, align 8
  %other.addr = alloca ptr, align 8
  %agg.tmp = alloca %"class.hermes::vm::BasedPointer", align 4
  store ptr %this, ptr %this.addr, align 8
  store ptr %other, ptr %other.addr, align 8
  %this1 = load ptr, ptr %this.addr, align 8
  %ptr_ = getelementptr inbounds %"class.hermes::vm::CompressedPointer", ptr %this1, i32 0, i32 0
  %0 = load ptr, ptr %other.addr, align 8
  %ptr_2 = getelementptr inbounds %"class.hermes::vm::CompressedPointer", ptr %0, i32 0, i32 0
  call void @llvm.memcpy.p0.p0.i64(ptr align 4 %agg.tmp, ptr align 4 %ptr_2, i64 4, i1 false)
  %coerce.dive = getelementptr inbounds %"class.hermes::vm::BasedPointer", ptr %agg.tmp, i32 0, i32 0
  %1 = load i32, ptr %coerce.dive, align 4
  %call = call noundef zeroext i1 @_ZNK6hermes2vm12BasedPointereqES1_(ptr noundef nonnull align 4 dereferenceable(4) %ptr_, i32 %1)
  ret i1 %call
}

; Function Attrs: mustprogress nounwind uwtable
define linkonce_odr void @_ZNSt10lock_guardISt15recursive_mutexEC2ERS0_(ptr noundef nonnull align 8 dereferenceable(8) %this, ptr noundef nonnull align 8 dereferenceable(40) %__m) unnamed_addr #0 comdat align 2 {
entry:
  %this.addr = alloca ptr, align 8
  %__m.addr = alloca ptr, align 8
  store ptr %this, ptr %this.addr, align 8
  store ptr %__m, ptr %__m.addr, align 8
  %this1 = load ptr, ptr %this.addr, align 8
  %_M_device = getelementptr inbounds %"class.std::lock_guard", ptr %this1, i32 0, i32 0
  %0 = load ptr, ptr %__m.addr, align 8
  store ptr %0, ptr %_M_device, align 8
  %_M_device2 = getelementptr inbounds %"class.std::lock_guard", ptr %this1, i32 0, i32 0
  %1 = load ptr, ptr %_M_device2, align 8
  call void @_ZNSt15recursive_mutex4lockEv(ptr noundef nonnull align 8 dereferenceable(40) %1)
  ret void
}

; Function Attrs: mustprogress nounwind uwtable
define linkonce_odr hidden { ptr, ptr } @_ZN4llvh12DenseMapBaseINS_8DenseMapIjjNS_12DenseMapInfoIjEENS_6detail12DenseMapPairIjjEEEEjjS3_S6_E4findERKj(ptr noundef nonnull align 1 dereferenceable(1) %this, ptr noundef nonnull align 4 dereferenceable(4) %Val) #0 comdat align 2 {
entry:
  %retval = alloca %"class.llvh::DenseMapIterator.100", align 8
  %this.addr = alloca ptr, align 8
  %Val.addr = alloca ptr, align 8
  %TheBucket = alloca ptr, align 8
  store ptr %this, ptr %this.addr, align 8
  store ptr %Val, ptr %Val.addr, align 8
  %this1 = load ptr, ptr %this.addr, align 8
  %0 = load ptr, ptr %Val.addr, align 8
  %call = call noundef zeroext i1 @_ZN4llvh12DenseMapBaseINS_8DenseMapIjjNS_12DenseMapInfoIjEENS_6detail12DenseMapPairIjjEEEEjjS3_S6_E15LookupBucketForIjEEbRKT_RPS6_(ptr noundef nonnull align 1 dereferenceable(1) %this1, ptr noundef nonnull align 4 dereferenceable(4) %0, ptr noundef nonnull align 8 dereferenceable(8) %TheBucket)
  br i1 %call, label %if.then, label %if.end

if.then:                                          ; preds = %entry
  %1 = load ptr, ptr %TheBucket, align 8
  %call2 = call noundef ptr @_ZN4llvh12DenseMapBaseINS_8DenseMapIjjNS_12DenseMapInfoIjEENS_6detail12DenseMapPairIjjEEEEjjS3_S6_E13getBucketsEndEv(ptr noundef nonnull align 1 dereferenceable(1) %this1)
  %call3 = call { ptr, ptr } @_ZN4llvh12DenseMapBaseINS_8DenseMapIjjNS_12DenseMapInfoIjEENS_6detail12DenseMapPairIjjEEEEjjS3_S6_E12makeIteratorEPS6_S9_RNS_14DebugEpochBaseEb(ptr noundef nonnull align 1 dereferenceable(1) %this1, ptr noundef %1, ptr noundef %call2, ptr noundef nonnull align 1 dereferenceable(1) %this1, i1 noundef zeroext true)
  %2 = getelementptr inbounds { ptr, ptr }, ptr %retval, i32 0, i32 0
  %3 = extractvalue { ptr, ptr } %call3, 0
  store ptr %3, ptr %2, align 8
  %4 = getelementptr inbounds { ptr, ptr }, ptr %retval, i32 0, i32 1
  %5 = extractvalue { ptr, ptr } %call3, 1
  store ptr %5, ptr %4, align 8
  br label %return

if.end:                                           ; preds = %entry
  %call4 = call { ptr, ptr } @_ZN4llvh12DenseMapBaseINS_8DenseMapIjjNS_12DenseMapInfoIjEENS_6detail12DenseMapPairIjjEEEEjjS3_S6_E3endEv(ptr noundef nonnull align 1 dereferenceable(1) %this1)
  %6 = getelementptr inbounds { ptr, ptr }, ptr %retval, i32 0, i32 0
  %7 = extractvalue { ptr, ptr } %call4, 0
  store ptr %7, ptr %6, align 8
  %8 = getelementptr inbounds { ptr, ptr }, ptr %retval, i32 0, i32 1
  %9 = extractvalue { ptr, ptr } %call4, 1
  store ptr %9, ptr %8, align 8
  br label %return

return:                                           ; preds = %if.end, %if.then
  %10 = load { ptr, ptr }, ptr %retval, align 8
  ret { ptr, ptr } %10
}

; Function Attrs: mustprogress nounwind uwtable
define linkonce_odr hidden noundef i32 @_ZNK6hermes2vm17CompressedPointer6getRawEv(ptr noundef nonnull align 4 dereferenceable(4) %this) #0 comdat align 2 {
entry:
  %this.addr = alloca ptr, align 8
  %agg.tmp = alloca %"class.hermes::vm::BasedPointer", align 4
  store ptr %this, ptr %this.addr, align 8
  %this1 = load ptr, ptr %this.addr, align 8
  %ptr_ = getelementptr inbounds %"class.hermes::vm::CompressedPointer", ptr %this1, i32 0, i32 0
  call void @llvm.memcpy.p0.p0.i64(ptr align 4 %agg.tmp, ptr align 4 %ptr_, i64 4, i1 false)
  %coerce.dive = getelementptr inbounds %"class.hermes::vm::BasedPointer", ptr %agg.tmp, i32 0, i32 0
  %0 = load i32, ptr %coerce.dive, align 4
  %call = call noundef i32 @_ZN6hermes2vm17CompressedPointer16storageTypeToRawENS0_12BasedPointerE(i32 %0)
  ret i32 %call
}

; Function Attrs: mustprogress nounwind uwtable
define linkonce_odr hidden noundef zeroext i1 @_ZNK4llvh16DenseMapIteratorIjjNS_12DenseMapInfoIjEENS_6detail12DenseMapPairIjjEELb0EEeqERKS6_(ptr noundef nonnull align 8 dereferenceable(16) %this, ptr noundef nonnull align 8 dereferenceable(16) %RHS) #0 comdat align 2 {
entry:
  %this.addr = alloca ptr, align 8
  %RHS.addr = alloca ptr, align 8
  store ptr %this, ptr %this.addr, align 8
  store ptr %RHS, ptr %RHS.addr, align 8
  %this1 = load ptr, ptr %this.addr, align 8
  %Ptr = getelementptr inbounds %"class.llvh::DenseMapIterator.100", ptr %this1, i32 0, i32 0
  %0 = load ptr, ptr %Ptr, align 8
  %1 = load ptr, ptr %RHS.addr, align 8
  %Ptr2 = getelementptr inbounds %"class.llvh::DenseMapIterator.100", ptr %1, i32 0, i32 0
  %2 = load ptr, ptr %Ptr2, align 8
  %cmp = icmp eq ptr %0, %2
  ret i1 %cmp
}

; Function Attrs: mustprogress nounwind uwtable
define linkonce_odr hidden { ptr, ptr } @_ZN4llvh12DenseMapBaseINS_8DenseMapIjjNS_12DenseMapInfoIjEENS_6detail12DenseMapPairIjjEEEEjjS3_S6_E3endEv(ptr noundef nonnull align 1 dereferenceable(1) %this) #0 comdat align 2 {
entry:
  %retval = alloca %"class.llvh::DenseMapIterator.100", align 8
  %this.addr = alloca ptr, align 8
  store ptr %this, ptr %this.addr, align 8
  %this1 = load ptr, ptr %this.addr, align 8
  %call = call noundef ptr @_ZN4llvh12DenseMapBaseINS_8DenseMapIjjNS_12DenseMapInfoIjEENS_6detail12DenseMapPairIjjEEEEjjS3_S6_E13getBucketsEndEv(ptr noundef nonnull align 1 dereferenceable(1) %this1)
  %call2 = call noundef ptr @_ZN4llvh12DenseMapBaseINS_8DenseMapIjjNS_12DenseMapInfoIjEENS_6detail12DenseMapPairIjjEEEEjjS3_S6_E13getBucketsEndEv(ptr noundef nonnull align 1 dereferenceable(1) %this1)
  %call3 = call { ptr, ptr } @_ZN4llvh12DenseMapBaseINS_8DenseMapIjjNS_12DenseMapInfoIjEENS_6detail12DenseMapPairIjjEEEEjjS3_S6_E12makeIteratorEPS6_S9_RNS_14DebugEpochBaseEb(ptr noundef nonnull align 1 dereferenceable(1) %this1, ptr noundef %call, ptr noundef %call2, ptr noundef nonnull align 1 dereferenceable(1) %this1, i1 noundef zeroext true)
  %0 = getelementptr inbounds { ptr, ptr }, ptr %retval, i32 0, i32 0
  %1 = extractvalue { ptr, ptr } %call3, 0
  store ptr %1, ptr %0, align 8
  %2 = getelementptr inbounds { ptr, ptr }, ptr %retval, i32 0, i32 1
  %3 = extractvalue { ptr, ptr } %call3, 1
  store ptr %3, ptr %2, align 8
  %4 = load { ptr, ptr }, ptr %retval, align 8
  ret { ptr, ptr } %4
}

; Function Attrs: mustprogress nounwind uwtable
define linkonce_odr hidden noundef ptr @_ZNK4llvh16DenseMapIteratorIjjNS_12DenseMapInfoIjEENS_6detail12DenseMapPairIjjEELb0EEptEv(ptr noundef nonnull align 8 dereferenceable(16) %this) #0 comdat align 2 {
entry:
  %retval = alloca ptr, align 8
  %this.addr = alloca ptr, align 8
  store ptr %this, ptr %this.addr, align 8
  %this1 = load ptr, ptr %this.addr, align 8
  %call = call noundef zeroext i1 @_ZN4llvh20shouldReverseIterateIjEEbv()
  br i1 %call, label %if.then, label %if.end

if.then:                                          ; preds = %entry
  %Ptr = getelementptr inbounds %"class.llvh::DenseMapIterator.100", ptr %this1, i32 0, i32 0
  %0 = load ptr, ptr %Ptr, align 8
  %arrayidx = getelementptr inbounds %"struct.llvh::detail::DenseMapPair", ptr %0, i64 -1
  store ptr %arrayidx, ptr %retval, align 8
  br label %return

if.end:                                           ; preds = %entry
  %Ptr2 = getelementptr inbounds %"class.llvh::DenseMapIterator.100", ptr %this1, i32 0, i32 0
  %1 = load ptr, ptr %Ptr2, align 8
  store ptr %1, ptr %retval, align 8
  br label %return

return:                                           ; preds = %if.end, %if.then
  %2 = load ptr, ptr %retval, align 8
  ret ptr %2
}

; Function Attrs: mustprogress nounwind uwtable
define linkonce_odr hidden void @_ZN4llvh12DenseMapBaseINS_8DenseMapIjjNS_12DenseMapInfoIjEENS_6detail12DenseMapPairIjjEEEEjjS3_S6_E5eraseENS_16DenseMapIteratorIjjS3_S6_Lb0EEE(ptr noundef nonnull align 1 dereferenceable(1) %this, ptr %I.coerce0, ptr %I.coerce1) #0 comdat align 2 {
entry:
  %I = alloca %"class.llvh::DenseMapIterator.100", align 8
  %this.addr = alloca ptr, align 8
  %TheBucket = alloca ptr, align 8
  %0 = getelementptr inbounds { ptr, ptr }, ptr %I, i32 0, i32 0
  store ptr %I.coerce0, ptr %0, align 8
  %1 = getelementptr inbounds { ptr, ptr }, ptr %I, i32 0, i32 1
  store ptr %I.coerce1, ptr %1, align 8
  store ptr %this, ptr %this.addr, align 8
  %this1 = load ptr, ptr %this.addr, align 8
  %call = call noundef nonnull align 4 dereferenceable(8) ptr @_ZNK4llvh16DenseMapIteratorIjjNS_12DenseMapInfoIjEENS_6detail12DenseMapPairIjjEELb0EEdeEv(ptr noundef nonnull align 8 dereferenceable(16) %I)
  store ptr %call, ptr %TheBucket, align 8
  %2 = load ptr, ptr %TheBucket, align 8
  %call2 = call noundef nonnull align 4 dereferenceable(4) ptr @_ZN4llvh6detail12DenseMapPairIjjE9getSecondEv(ptr noundef nonnull align 4 dereferenceable(8) %2)
  %call3 = call noundef i32 @_ZN4llvh12DenseMapBaseINS_8DenseMapIjjNS_12DenseMapInfoIjEENS_6detail12DenseMapPairIjjEEEEjjS3_S6_E15getTombstoneKeyEv()
  %3 = load ptr, ptr %TheBucket, align 8
  %call4 = call noundef nonnull align 4 dereferenceable(4) ptr @_ZN4llvh6detail12DenseMapPairIjjE8getFirstEv(ptr noundef nonnull align 4 dereferenceable(8) %3)
  store i32 %call3, ptr %call4, align 4
  call void @_ZN4llvh12DenseMapBaseINS_8DenseMapIjjNS_12DenseMapInfoIjEENS_6detail12DenseMapPairIjjEEEEjjS3_S6_E19decrementNumEntriesEv(ptr noundef nonnull align 1 dereferenceable(1) %this1)
  call void @_ZN4llvh12DenseMapBaseINS_8DenseMapIjjNS_12DenseMapInfoIjEENS_6detail12DenseMapPairIjjEEEEjjS3_S6_E22incrementNumTombstonesEv(ptr noundef nonnull align 1 dereferenceable(1) %this1)
  ret void
}

; Function Attrs: mustprogress nounwind uwtable
define linkonce_odr hidden noundef nonnull align 4 dereferenceable(4) ptr @_ZN4llvh12DenseMapBaseINS_8DenseMapIjjNS_12DenseMapInfoIjEENS_6detail12DenseMapPairIjjEEEEjjS3_S6_EixEOj(ptr noundef nonnull align 1 dereferenceable(1) %this, ptr noundef nonnull align 4 dereferenceable(4) %Key) #0 comdat align 2 {
entry:
  %this.addr = alloca ptr, align 8
  %Key.addr = alloca ptr, align 8
  store ptr %this, ptr %this.addr, align 8
  store ptr %Key, ptr %Key.addr, align 8
  %this1 = load ptr, ptr %this.addr, align 8
  %0 = load ptr, ptr %Key.addr, align 8
  %call = call noundef nonnull align 4 dereferenceable(8) ptr @_ZN4llvh12DenseMapBaseINS_8DenseMapIjjNS_12DenseMapInfoIjEENS_6detail12DenseMapPairIjjEEEEjjS3_S6_E16FindAndConstructEOj(ptr noundef nonnull align 1 dereferenceable(1) %this1, ptr noundef nonnull align 4 dereferenceable(4) %0)
  %second = getelementptr inbounds %"struct.std::pair", ptr %call, i32 0, i32 1
  ret ptr %second
}

; Function Attrs: mustprogress nounwind uwtable
define linkonce_odr hidden noundef zeroext i1 @_ZNK4llvh16DenseMapIteratorIjjNS_12DenseMapInfoIjEENS_6detail12DenseMapPairIjjEELb0EEneERKS6_(ptr noundef nonnull align 8 dereferenceable(16) %this, ptr noundef nonnull align 8 dereferenceable(16) %RHS) #0 comdat align 2 {
entry:
  %this.addr = alloca ptr, align 8
  %RHS.addr = alloca ptr, align 8
  store ptr %this, ptr %this.addr, align 8
  store ptr %RHS, ptr %RHS.addr, align 8
  %this1 = load ptr, ptr %this.addr, align 8
  %0 = load ptr, ptr %RHS.addr, align 8
  %call = call noundef zeroext i1 @_ZNK4llvh16DenseMapIteratorIjjNS_12DenseMapInfoIjEENS_6detail12DenseMapPairIjjEELb0EEeqERKS6_(ptr noundef nonnull align 8 dereferenceable(16) %this1, ptr noundef nonnull align 8 dereferenceable(16) %0)
  %lnot = xor i1 %call, true
  ret i1 %lnot
}

; Function Attrs: mustprogress nounwind uwtable
define linkonce_odr void @_ZNSt10lock_guardISt15recursive_mutexED2Ev(ptr noundef nonnull align 8 dereferenceable(8) %this) unnamed_addr #0 comdat align 2 {
entry:
  %this.addr = alloca ptr, align 8
  store ptr %this, ptr %this.addr, align 8
  %this1 = load ptr, ptr %this.addr, align 8
  %_M_device = getelementptr inbounds %"class.std::lock_guard", ptr %this1, i32 0, i32 0
  %0 = load ptr, ptr %_M_device, align 8
  call void @_ZNSt15recursive_mutex6unlockEv(ptr noundef nonnull align 8 dereferenceable(40) %0)
  ret void
}

; Function Attrs: mustprogress nounwind uwtable
define hidden noundef nonnull align 1 ptr @_ZN6hermes2vm6GCBase9IDTracker17getExtraNativeIDsEj(ptr noundef nonnull align 8 dereferenceable(192) %this, i32 noundef %node) #0 align 2 {
entry:
  %this.addr = alloca ptr, align 8
  %node.addr = alloca i32, align 4
  %lk = alloca %"class.std::lock_guard", align 8
  store ptr %this, ptr %this.addr, align 8
  store i32 %node, ptr %node.addr, align 4
  %this1 = load ptr, ptr %this.addr, align 8
  %mtx_ = getelementptr inbounds %"class.hermes::vm::GCBase::IDTracker", ptr %this1, i32 0, i32 0
  call void @_ZNSt10lock_guardISt15recursive_mutexEC2ERS0_(ptr noundef nonnull align 8 dereferenceable(8) %lk, ptr noundef nonnull align 8 dereferenceable(40) %mtx_)
  %extraNativeIDs_ = getelementptr inbounds %"class.hermes::vm::GCBase::IDTracker", ptr %this1, i32 0, i32 6
  %call = call noundef nonnull align 1 ptr @_ZN4llvh12DenseMapBaseINS_8DenseMapIjNS_11SmallVectorIjLj1EEENS_12DenseMapInfoIjEENS_6detail12DenseMapPairIjS3_EEEEjS3_S5_S8_EixERKj(ptr noundef nonnull align 1 dereferenceable(1) %extraNativeIDs_, ptr noundef nonnull align 4 dereferenceable(4) %node.addr)
  call void @_ZNSt10lock_guardISt15recursive_mutexED2Ev(ptr noundef nonnull align 8 dereferenceable(8) %lk) #14
  ret ptr %call
}

; Function Attrs: mustprogress nounwind uwtable
define linkonce_odr hidden noundef nonnull align 1 ptr @_ZN4llvh12DenseMapBaseINS_8DenseMapIjNS_11SmallVectorIjLj1EEENS_12DenseMapInfoIjEENS_6detail12DenseMapPairIjS3_EEEEjS3_S5_S8_EixERKj(ptr noundef nonnull align 1 dereferenceable(1) %this, ptr noundef nonnull align 4 dereferenceable(4) %Key) #0 comdat align 2 {
entry:
  %this.addr = alloca ptr, align 8
  %Key.addr = alloca ptr, align 8
  store ptr %this, ptr %this.addr, align 8
  store ptr %Key, ptr %Key.addr, align 8
  %this1 = load ptr, ptr %this.addr, align 8
  %0 = load ptr, ptr %Key.addr, align 8
  %call = call noundef nonnull align 8 dereferenceable(32) ptr @_ZN4llvh12DenseMapBaseINS_8DenseMapIjNS_11SmallVectorIjLj1EEENS_12DenseMapInfoIjEENS_6detail12DenseMapPairIjS3_EEEEjS3_S5_S8_E16FindAndConstructERKj(ptr noundef nonnull align 1 dereferenceable(1) %this1, ptr noundef nonnull align 4 dereferenceable(4) %0)
  %second = getelementptr inbounds %"struct.std::pair.152", ptr %call, i32 0, i32 2
  ret ptr %second
}

; Function Attrs: mustprogress nounwind uwtable
define hidden noundef i32 @_ZN6hermes2vm6GCBase9IDTracker11getNumberIDEd(ptr noundef nonnull align 8 dereferenceable(192) %this, double noundef %num) #0 align 2 {
entry:
  %retval = alloca i32, align 4
  %this.addr = alloca ptr, align 8
  %num.addr = alloca double, align 8
  %lk = alloca %"class.std::lock_guard", align 8
  %numberRef = alloca ptr, align 8
  %cleanup.dest.slot = alloca i32, align 4
  store ptr %this, ptr %this.addr, align 8
  store double %num, ptr %num.addr, align 8
  %this1 = load ptr, ptr %this.addr, align 8
  %mtx_ = getelementptr inbounds %"class.hermes::vm::GCBase::IDTracker", ptr %this1, i32 0, i32 0
  call void @_ZNSt10lock_guardISt15recursive_mutexEC2ERS0_(ptr noundef nonnull align 8 dereferenceable(8) %lk, ptr noundef nonnull align 8 dereferenceable(40) %mtx_)
  %numberIDMap_ = getelementptr inbounds %"class.hermes::vm::GCBase::IDTracker", ptr %this1, i32 0, i32 8
  %call = call noundef nonnull align 4 dereferenceable(4) ptr @_ZN4llvh12DenseMapBaseINS_8DenseMapIdjN6hermes2vm6GCBase9IDTracker16DoubleComparatorENS_6detail12DenseMapPairIdjEEEEdjS6_S9_EixERKd(ptr noundef nonnull align 1 dereferenceable(1) %numberIDMap_, ptr noundef nonnull align 8 dereferenceable(8) %num.addr)
  store ptr %call, ptr %numberRef, align 8
  %0 = load ptr, ptr %numberRef, align 8
  %1 = load i32, ptr %0, align 4
  %cmp = icmp ne i32 %1, 0
  br i1 %cmp, label %if.then, label %if.end

if.then:                                          ; preds = %entry
  %2 = load ptr, ptr %numberRef, align 8
  %3 = load i32, ptr %2, align 4
  store i32 %3, ptr %retval, align 4
  store i32 1, ptr %cleanup.dest.slot, align 4
  br label %cleanup

if.end:                                           ; preds = %entry
  %call2 = call noundef i32 @_ZN6hermes2vm6GCBase9IDTracker12nextNumberIDEv(ptr noundef nonnull align 8 dereferenceable(192) %this1)
  %4 = load ptr, ptr %numberRef, align 8
  store i32 %call2, ptr %4, align 4
  store i32 %call2, ptr %retval, align 4
  store i32 1, ptr %cleanup.dest.slot, align 4
  br label %cleanup

cleanup:                                          ; preds = %if.end, %if.then
  call void @_ZNSt10lock_guardISt15recursive_mutexED2Ev(ptr noundef nonnull align 8 dereferenceable(8) %lk) #14
  %5 = load i32, ptr %retval, align 4
  ret i32 %5
}

; Function Attrs: mustprogress nounwind uwtable
define linkonce_odr hidden noundef nonnull align 4 dereferenceable(4) ptr @_ZN4llvh12DenseMapBaseINS_8DenseMapIdjN6hermes2vm6GCBase9IDTracker16DoubleComparatorENS_6detail12DenseMapPairIdjEEEEdjS6_S9_EixERKd(ptr noundef nonnull align 1 dereferenceable(1) %this, ptr noundef nonnull align 8 dereferenceable(8) %Key) #0 comdat align 2 {
entry:
  %this.addr = alloca ptr, align 8
  %Key.addr = alloca ptr, align 8
  store ptr %this, ptr %this.addr, align 8
  store ptr %Key, ptr %Key.addr, align 8
  %this1 = load ptr, ptr %this.addr, align 8
  %0 = load ptr, ptr %Key.addr, align 8
  %call = call noundef nonnull align 8 dereferenceable(12) ptr @_ZN4llvh12DenseMapBaseINS_8DenseMapIdjN6hermes2vm6GCBase9IDTracker16DoubleComparatorENS_6detail12DenseMapPairIdjEEEEdjS6_S9_E16FindAndConstructERKd(ptr noundef nonnull align 1 dereferenceable(1) %this1, ptr noundef nonnull align 8 dereferenceable(8) %0)
  %second = getelementptr inbounds %"struct.std::pair.147", ptr %call, i32 0, i32 1
  ret ptr %second
}

; Function Attrs: mustprogress nounwind uwtable
define hidden noundef i32 @_ZN6hermes2vm6GCBase9IDTracker12nextNumberIDEv(ptr noundef nonnull align 8 dereferenceable(192) %this) #0 align 2 {
entry:
  %this.addr = alloca ptr, align 8
  store ptr %this, ptr %this.addr, align 8
  %this1 = load ptr, ptr %this.addr, align 8
  %call = call noundef i32 @_ZN6hermes2vm6GCBase9IDTracker12nextObjectIDEv(ptr noundef nonnull align 8 dereferenceable(192) %this1)
  ret i32 %call
}

; Function Attrs: mustprogress nounwind uwtable
define hidden i64 @_ZN6hermes2vm6GCBase9IDTracker14getObjectForIDEj(ptr noundef nonnull align 8 dereferenceable(192) %this, i32 noundef %id) #0 align 2 {
entry:
  %retval = alloca %"class.llvh::Optional", align 4
  %this.addr = alloca ptr, align 8
  %id.addr = alloca i32, align 4
  %lk = alloca %"class.std::lock_guard", align 8
  %it = alloca %"class.llvh::DenseMapIterator.100", align 8
  %ref.tmp = alloca %"class.llvh::DenseMapIterator.100", align 8
  %ref.tmp5 = alloca %"class.hermes::vm::CompressedPointer", align 4
  %cleanup.dest.slot = alloca i32, align 4
  %__range2 = alloca ptr, align 8
  %__begin2 = alloca %"class.llvh::DenseMapIterator.100", align 8
  %__end2 = alloca %"class.llvh::DenseMapIterator.100", align 8
  %p = alloca ptr, align 8
  %itAndDidInsert = alloca %"struct.std::pair.104", align 8
  %ref.tmp17 = alloca %"class.hermes::vm::CompressedPointer", align 4
  store ptr %this, ptr %this.addr, align 8
  store i32 %id, ptr %id.addr, align 4
  %this1 = load ptr, ptr %this.addr, align 8
  %mtx_ = getelementptr inbounds %"class.hermes::vm::GCBase::IDTracker", ptr %this1, i32 0, i32 0
  call void @_ZNSt10lock_guardISt15recursive_mutexEC2ERS0_(ptr noundef nonnull align 8 dereferenceable(8) %lk, ptr noundef nonnull align 8 dereferenceable(40) %mtx_)
  %idObjectMap_ = getelementptr inbounds %"class.hermes::vm::GCBase::IDTracker", ptr %this1, i32 0, i32 4
  %call = call { ptr, ptr } @_ZN4llvh12DenseMapBaseINS_8DenseMapIjjNS_12DenseMapInfoIjEENS_6detail12DenseMapPairIjjEEEEjjS3_S6_E4findERKj(ptr noundef nonnull align 1 dereferenceable(1) %idObjectMap_, ptr noundef nonnull align 4 dereferenceable(4) %id.addr)
  %0 = getelementptr inbounds { ptr, ptr }, ptr %it, i32 0, i32 0
  %1 = extractvalue { ptr, ptr } %call, 0
  store ptr %1, ptr %0, align 8
  %2 = getelementptr inbounds { ptr, ptr }, ptr %it, i32 0, i32 1
  %3 = extractvalue { ptr, ptr } %call, 1
  store ptr %3, ptr %2, align 8
  %idObjectMap_2 = getelementptr inbounds %"class.hermes::vm::GCBase::IDTracker", ptr %this1, i32 0, i32 4
  %call3 = call { ptr, ptr } @_ZN4llvh12DenseMapBaseINS_8DenseMapIjjNS_12DenseMapInfoIjEENS_6detail12DenseMapPairIjjEEEEjjS3_S6_E3endEv(ptr noundef nonnull align 1 dereferenceable(1) %idObjectMap_2)
  %4 = getelementptr inbounds { ptr, ptr }, ptr %ref.tmp, i32 0, i32 0
  %5 = extractvalue { ptr, ptr } %call3, 0
  store ptr %5, ptr %4, align 8
  %6 = getelementptr inbounds { ptr, ptr }, ptr %ref.tmp, i32 0, i32 1
  %7 = extractvalue { ptr, ptr } %call3, 1
  store ptr %7, ptr %6, align 8
  %call4 = call noundef zeroext i1 @_ZNK4llvh16DenseMapIteratorIjjNS_12DenseMapInfoIjEENS_6detail12DenseMapPairIjjEELb0EEneERKS6_(ptr noundef nonnull align 8 dereferenceable(16) %it, ptr noundef nonnull align 8 dereferenceable(16) %ref.tmp)
  br i1 %call4, label %if.then, label %if.end

if.then:                                          ; preds = %entry
  %call6 = call noundef ptr @_ZNK4llvh16DenseMapIteratorIjjNS_12DenseMapInfoIjEENS_6detail12DenseMapPairIjjEELb0EEptEv(ptr noundef nonnull align 8 dereferenceable(16) %it)
  %second = getelementptr inbounds %"struct.std::pair", ptr %call6, i32 0, i32 1
  %8 = load i32, ptr %second, align 4
  %call7 = call i32 @_ZN6hermes2vm17CompressedPointer7fromRawEj(i32 noundef %8)
  %coerce.dive = getelementptr inbounds %"class.hermes::vm::CompressedPointer", ptr %ref.tmp5, i32 0, i32 0
  %coerce.dive8 = getelementptr inbounds %"class.hermes::vm::BasedPointer", ptr %coerce.dive, i32 0, i32 0
  store i32 %call7, ptr %coerce.dive8, align 4
  call void @_ZN4llvh8OptionalIN6hermes2vm17CompressedPointerEEC2EOS3_(ptr noundef nonnull align 4 dereferenceable(8) %retval, ptr noundef nonnull align 4 dereferenceable(4) %ref.tmp5)
  store i32 1, ptr %cleanup.dest.slot, align 4
  br label %cleanup

if.end:                                           ; preds = %entry
  %objectIDMap_ = getelementptr inbounds %"class.hermes::vm::GCBase::IDTracker", ptr %this1, i32 0, i32 3
  store ptr %objectIDMap_, ptr %__range2, align 8
  %9 = load ptr, ptr %__range2, align 8
  %call9 = call { ptr, ptr } @_ZN4llvh12DenseMapBaseINS_8DenseMapIjjNS_12DenseMapInfoIjEENS_6detail12DenseMapPairIjjEEEEjjS3_S6_E5beginEv(ptr noundef nonnull align 1 dereferenceable(1) %9)
  %10 = getelementptr inbounds { ptr, ptr }, ptr %__begin2, i32 0, i32 0
  %11 = extractvalue { ptr, ptr } %call9, 0
  store ptr %11, ptr %10, align 8
  %12 = getelementptr inbounds { ptr, ptr }, ptr %__begin2, i32 0, i32 1
  %13 = extractvalue { ptr, ptr } %call9, 1
  store ptr %13, ptr %12, align 8
  %14 = load ptr, ptr %__range2, align 8
  %call10 = call { ptr, ptr } @_ZN4llvh12DenseMapBaseINS_8DenseMapIjjNS_12DenseMapInfoIjEENS_6detail12DenseMapPairIjjEEEEjjS3_S6_E3endEv(ptr noundef nonnull align 1 dereferenceable(1) %14)
  %15 = getelementptr inbounds { ptr, ptr }, ptr %__end2, i32 0, i32 0
  %16 = extractvalue { ptr, ptr } %call10, 0
  store ptr %16, ptr %15, align 8
  %17 = getelementptr inbounds { ptr, ptr }, ptr %__end2, i32 0, i32 1
  %18 = extractvalue { ptr, ptr } %call10, 1
  store ptr %18, ptr %17, align 8
  br label %for.cond

for.cond:                                         ; preds = %for.inc, %if.end
  %call11 = call noundef zeroext i1 @_ZNK4llvh16DenseMapIteratorIjjNS_12DenseMapInfoIjEENS_6detail12DenseMapPairIjjEELb0EEneERKS6_(ptr noundef nonnull align 8 dereferenceable(16) %__begin2, ptr noundef nonnull align 8 dereferenceable(16) %__end2)
  br i1 %call11, label %for.body, label %for.end

for.body:                                         ; preds = %for.cond
  %call12 = call noundef nonnull align 4 dereferenceable(8) ptr @_ZNK4llvh16DenseMapIteratorIjjNS_12DenseMapInfoIjEENS_6detail12DenseMapPairIjjEELb0EEdeEv(ptr noundef nonnull align 8 dereferenceable(16) %__begin2)
  store ptr %call12, ptr %p, align 8
  %19 = load ptr, ptr %p, align 8
  %second13 = getelementptr inbounds %"struct.std::pair", ptr %19, i32 0, i32 1
  %20 = load i32, ptr %second13, align 4
  %21 = load i32, ptr %id.addr, align 4
  %cmp = icmp eq i32 %20, %21
  br i1 %cmp, label %if.then14, label %if.end24

if.then14:                                        ; preds = %for.body
  %idObjectMap_15 = getelementptr inbounds %"class.hermes::vm::GCBase::IDTracker", ptr %this1, i32 0, i32 4
  %22 = load ptr, ptr %p, align 8
  %second16 = getelementptr inbounds %"struct.std::pair", ptr %22, i32 0, i32 1
  %23 = load ptr, ptr %p, align 8
  %first = getelementptr inbounds %"struct.std::pair", ptr %23, i32 0, i32 0
  call void @_ZN4llvh12DenseMapBaseINS_8DenseMapIjjNS_12DenseMapInfoIjEENS_6detail12DenseMapPairIjjEEEEjjS3_S6_E11try_emplaceIJRKjEEESt4pairINS_16DenseMapIteratorIjjS3_S6_Lb0EEEbESB_DpOT_(ptr sret(%"struct.std::pair.104") align 8 %itAndDidInsert, ptr noundef nonnull align 1 dereferenceable(1) %idObjectMap_15, ptr noundef nonnull align 4 dereferenceable(4) %second16, ptr noundef nonnull align 4 dereferenceable(4) %first)
  %first18 = getelementptr inbounds %"struct.std::pair.104", ptr %itAndDidInsert, i32 0, i32 0
  %call19 = call noundef ptr @_ZNK4llvh16DenseMapIteratorIjjNS_12DenseMapInfoIjEENS_6detail12DenseMapPairIjjEELb0EEptEv(ptr noundef nonnull align 8 dereferenceable(16) %first18)
  %second20 = getelementptr inbounds %"struct.std::pair", ptr %call19, i32 0, i32 1
  %24 = load i32, ptr %second20, align 4
  %call21 = call i32 @_ZN6hermes2vm17CompressedPointer7fromRawEj(i32 noundef %24)
  %coerce.dive22 = getelementptr inbounds %"class.hermes::vm::CompressedPointer", ptr %ref.tmp17, i32 0, i32 0
  %coerce.dive23 = getelementptr inbounds %"class.hermes::vm::BasedPointer", ptr %coerce.dive22, i32 0, i32 0
  store i32 %call21, ptr %coerce.dive23, align 4
  call void @_ZN4llvh8OptionalIN6hermes2vm17CompressedPointerEEC2EOS3_(ptr noundef nonnull align 4 dereferenceable(8) %retval, ptr noundef nonnull align 4 dereferenceable(4) %ref.tmp17)
  store i32 1, ptr %cleanup.dest.slot, align 4
  br label %cleanup

if.end24:                                         ; preds = %for.body
  br label %for.inc

for.inc:                                          ; preds = %if.end24
  %call25 = call noundef nonnull align 8 dereferenceable(16) ptr @_ZN4llvh16DenseMapIteratorIjjNS_12DenseMapInfoIjEENS_6detail12DenseMapPairIjjEELb0EEppEv(ptr noundef nonnull align 8 dereferenceable(16) %__begin2)
  br label %for.cond

for.end:                                          ; preds = %for.cond
  call void @_ZN4llvh8OptionalIN6hermes2vm17CompressedPointerEEC2ENS_8NoneTypeE(ptr noundef nonnull align 4 dereferenceable(8) %retval, i32 noundef 1)
  store i32 1, ptr %cleanup.dest.slot, align 4
  br label %cleanup

cleanup:                                          ; preds = %for.end, %if.then14, %if.then
  call void @_ZNSt10lock_guardISt15recursive_mutexED2Ev(ptr noundef nonnull align 8 dereferenceable(8) %lk) #14
  %coerce.dive26 = getelementptr inbounds %"class.llvh::Optional", ptr %retval, i32 0, i32 0
  %25 = load i64, ptr %coerce.dive26, align 4
  ret i64 %25
}

; Function Attrs: mustprogress nounwind uwtable
define linkonce_odr hidden i32 @_ZN6hermes2vm17CompressedPointer7fromRawEj(i32 noundef %r) #0 comdat align 2 {
entry:
  %retval = alloca %"class.hermes::vm::CompressedPointer", align 4
  %r.addr = alloca i32, align 4
  store i32 %r, ptr %r.addr, align 4
  %0 = load i32, ptr %r.addr, align 4
  call void @_ZN6hermes2vm17CompressedPointerC2Ej(ptr noundef nonnull align 4 dereferenceable(4) %retval, i32 noundef %0)
  %coerce.dive = getelementptr inbounds %"class.hermes::vm::CompressedPointer", ptr %retval, i32 0, i32 0
  %coerce.dive1 = getelementptr inbounds %"class.hermes::vm::BasedPointer", ptr %coerce.dive, i32 0, i32 0
  %1 = load i32, ptr %coerce.dive1, align 4
  ret i32 %1
}

; Function Attrs: mustprogress nounwind uwtable
define linkonce_odr hidden void @_ZN4llvh8OptionalIN6hermes2vm17CompressedPointerEEC2EOS3_(ptr noundef nonnull align 4 dereferenceable(8) %this, ptr noundef nonnull align 4 dereferenceable(4) %y) unnamed_addr #0 comdat align 2 {
entry:
  %this.addr = alloca ptr, align 8
  %y.addr = alloca ptr, align 8
  store ptr %this, ptr %this.addr, align 8
  store ptr %y, ptr %y.addr, align 8
  %this1 = load ptr, ptr %this.addr, align 8
  %Storage = getelementptr inbounds %"class.llvh::Optional", ptr %this1, i32 0, i32 0
  %0 = load ptr, ptr %y.addr, align 8
  call void @_ZN4llvh15optional_detail15OptionalStorageIN6hermes2vm17CompressedPointerELb1EEC2ERKS4_(ptr noundef nonnull align 4 dereferenceable(5) %Storage, ptr noundef nonnull align 4 dereferenceable(4) %0)
  ret void
}

; Function Attrs: mustprogress nounwind uwtable
define linkonce_odr hidden { ptr, ptr } @_ZN4llvh12DenseMapBaseINS_8DenseMapIjjNS_12DenseMapInfoIjEENS_6detail12DenseMapPairIjjEEEEjjS3_S6_E5beginEv(ptr noundef nonnull align 1 dereferenceable(1) %this) #0 comdat align 2 {
entry:
  %retval = alloca %"class.llvh::DenseMapIterator.100", align 8
  %this.addr = alloca ptr, align 8
  store ptr %this, ptr %this.addr, align 8
  %this1 = load ptr, ptr %this.addr, align 8
  %call = call noundef zeroext i1 @_ZNK4llvh12DenseMapBaseINS_8DenseMapIjjNS_12DenseMapInfoIjEENS_6detail12DenseMapPairIjjEEEEjjS3_S6_E5emptyEv(ptr noundef nonnull align 1 dereferenceable(1) %this1)
  br i1 %call, label %if.then, label %if.end

if.then:                                          ; preds = %entry
  %call2 = call { ptr, ptr } @_ZN4llvh12DenseMapBaseINS_8DenseMapIjjNS_12DenseMapInfoIjEENS_6detail12DenseMapPairIjjEEEEjjS3_S6_E3endEv(ptr noundef nonnull align 1 dereferenceable(1) %this1)
  %0 = getelementptr inbounds { ptr, ptr }, ptr %retval, i32 0, i32 0
  %1 = extractvalue { ptr, ptr } %call2, 0
  store ptr %1, ptr %0, align 8
  %2 = getelementptr inbounds { ptr, ptr }, ptr %retval, i32 0, i32 1
  %3 = extractvalue { ptr, ptr } %call2, 1
  store ptr %3, ptr %2, align 8
  br label %return

if.end:                                           ; preds = %entry
  %call3 = call noundef zeroext i1 @_ZN4llvh20shouldReverseIterateIjEEbv()
  br i1 %call3, label %if.then4, label %if.end8

if.then4:                                         ; preds = %if.end
  %call5 = call noundef ptr @_ZN4llvh12DenseMapBaseINS_8DenseMapIjjNS_12DenseMapInfoIjEENS_6detail12DenseMapPairIjjEEEEjjS3_S6_E13getBucketsEndEv(ptr noundef nonnull align 1 dereferenceable(1) %this1)
  %add.ptr = getelementptr inbounds %"struct.llvh::detail::DenseMapPair", ptr %call5, i64 -1
  %call6 = call noundef ptr @_ZN4llvh12DenseMapBaseINS_8DenseMapIjjNS_12DenseMapInfoIjEENS_6detail12DenseMapPairIjjEEEEjjS3_S6_E10getBucketsEv(ptr noundef nonnull align 1 dereferenceable(1) %this1)
  %call7 = call { ptr, ptr } @_ZN4llvh12DenseMapBaseINS_8DenseMapIjjNS_12DenseMapInfoIjEENS_6detail12DenseMapPairIjjEEEEjjS3_S6_E12makeIteratorEPS6_S9_RNS_14DebugEpochBaseEb(ptr noundef nonnull align 1 dereferenceable(1) %this1, ptr noundef %add.ptr, ptr noundef %call6, ptr noundef nonnull align 1 dereferenceable(1) %this1, i1 noundef zeroext false)
  %4 = getelementptr inbounds { ptr, ptr }, ptr %retval, i32 0, i32 0
  %5 = extractvalue { ptr, ptr } %call7, 0
  store ptr %5, ptr %4, align 8
  %6 = getelementptr inbounds { ptr, ptr }, ptr %retval, i32 0, i32 1
  %7 = extractvalue { ptr, ptr } %call7, 1
  store ptr %7, ptr %6, align 8
  br label %return

if.end8:                                          ; preds = %if.end
  %call9 = call noundef ptr @_ZN4llvh12DenseMapBaseINS_8DenseMapIjjNS_12DenseMapInfoIjEENS_6detail12DenseMapPairIjjEEEEjjS3_S6_E10getBucketsEv(ptr noundef nonnull align 1 dereferenceable(1) %this1)
  %call10 = call noundef ptr @_ZN4llvh12DenseMapBaseINS_8DenseMapIjjNS_12DenseMapInfoIjEENS_6detail12DenseMapPairIjjEEEEjjS3_S6_E13getBucketsEndEv(ptr noundef nonnull align 1 dereferenceable(1) %this1)
  %call11 = call { ptr, ptr } @_ZN4llvh12DenseMapBaseINS_8DenseMapIjjNS_12DenseMapInfoIjEENS_6detail12DenseMapPairIjjEEEEjjS3_S6_E12makeIteratorEPS6_S9_RNS_14DebugEpochBaseEb(ptr noundef nonnull align 1 dereferenceable(1) %this1, ptr noundef %call9, ptr noundef %call10, ptr noundef nonnull align 1 dereferenceable(1) %this1, i1 noundef zeroext false)
  %8 = getelementptr inbounds { ptr, ptr }, ptr %retval, i32 0, i32 0
  %9 = extractvalue { ptr, ptr } %call11, 0
  store ptr %9, ptr %8, align 8
  %10 = getelementptr inbounds { ptr, ptr }, ptr %retval, i32 0, i32 1
  %11 = extractvalue { ptr, ptr } %call11, 1
  store ptr %11, ptr %10, align 8
  br label %return

return:                                           ; preds = %if.end8, %if.then4, %if.then
  %12 = load { ptr, ptr }, ptr %retval, align 8
  ret { ptr, ptr } %12
}

; Function Attrs: mustprogress nounwind uwtable
define linkonce_odr hidden noundef nonnull align 4 dereferenceable(8) ptr @_ZNK4llvh16DenseMapIteratorIjjNS_12DenseMapInfoIjEENS_6detail12DenseMapPairIjjEELb0EEdeEv(ptr noundef nonnull align 8 dereferenceable(16) %this) #0 comdat align 2 {
entry:
  %retval = alloca ptr, align 8
  %this.addr = alloca ptr, align 8
  store ptr %this, ptr %this.addr, align 8
  %this1 = load ptr, ptr %this.addr, align 8
  %call = call noundef zeroext i1 @_ZN4llvh20shouldReverseIterateIjEEbv()
  br i1 %call, label %if.then, label %if.end

if.then:                                          ; preds = %entry
  %Ptr = getelementptr inbounds %"class.llvh::DenseMapIterator.100", ptr %this1, i32 0, i32 0
  %0 = load ptr, ptr %Ptr, align 8
  %arrayidx = getelementptr inbounds %"struct.llvh::detail::DenseMapPair", ptr %0, i64 -1
  store ptr %arrayidx, ptr %retval, align 8
  br label %return

if.end:                                           ; preds = %entry
  %Ptr2 = getelementptr inbounds %"class.llvh::DenseMapIterator.100", ptr %this1, i32 0, i32 0
  %1 = load ptr, ptr %Ptr2, align 8
  store ptr %1, ptr %retval, align 8
  br label %return

return:                                           ; preds = %if.end, %if.then
  %2 = load ptr, ptr %retval, align 8
  ret ptr %2
}

; Function Attrs: mustprogress nounwind uwtable
define linkonce_odr hidden void @_ZN4llvh12DenseMapBaseINS_8DenseMapIjjNS_12DenseMapInfoIjEENS_6detail12DenseMapPairIjjEEEEjjS3_S6_E11try_emplaceIJRKjEEESt4pairINS_16DenseMapIteratorIjjS3_S6_Lb0EEEbESB_DpOT_(ptr noalias sret(%"struct.std::pair.104") align 8 %agg.result, ptr noundef nonnull align 1 dereferenceable(1) %this, ptr noundef nonnull align 4 dereferenceable(4) %Key, ptr noundef nonnull align 4 dereferenceable(4) %Args) #0 comdat align 2 {
entry:
  %this.addr = alloca ptr, align 8
  %Key.addr = alloca ptr, align 8
  %Args.addr = alloca ptr, align 8
  %TheBucket = alloca ptr, align 8
  %ref.tmp = alloca %"class.llvh::DenseMapIterator.100", align 8
  %ref.tmp4 = alloca i8, align 1
  %ref.tmp6 = alloca %"class.llvh::DenseMapIterator.100", align 8
  %ref.tmp9 = alloca i8, align 1
  store ptr %this, ptr %this.addr, align 8
  store ptr %Key, ptr %Key.addr, align 8
  store ptr %Args, ptr %Args.addr, align 8
  %this1 = load ptr, ptr %this.addr, align 8
  %0 = load ptr, ptr %Key.addr, align 8
  %call = call noundef zeroext i1 @_ZN4llvh12DenseMapBaseINS_8DenseMapIjjNS_12DenseMapInfoIjEENS_6detail12DenseMapPairIjjEEEEjjS3_S6_E15LookupBucketForIjEEbRKT_RPS6_(ptr noundef nonnull align 1 dereferenceable(1) %this1, ptr noundef nonnull align 4 dereferenceable(4) %0, ptr noundef nonnull align 8 dereferenceable(8) %TheBucket)
  br i1 %call, label %if.then, label %if.end

if.then:                                          ; preds = %entry
  %1 = load ptr, ptr %TheBucket, align 8
  %call2 = call noundef ptr @_ZN4llvh12DenseMapBaseINS_8DenseMapIjjNS_12DenseMapInfoIjEENS_6detail12DenseMapPairIjjEEEEjjS3_S6_E13getBucketsEndEv(ptr noundef nonnull align 1 dereferenceable(1) %this1)
  %call3 = call { ptr, ptr } @_ZN4llvh12DenseMapBaseINS_8DenseMapIjjNS_12DenseMapInfoIjEENS_6detail12DenseMapPairIjjEEEEjjS3_S6_E12makeIteratorEPS6_S9_RNS_14DebugEpochBaseEb(ptr noundef nonnull align 1 dereferenceable(1) %this1, ptr noundef %1, ptr noundef %call2, ptr noundef nonnull align 1 dereferenceable(1) %this1, i1 noundef zeroext true)
  %2 = getelementptr inbounds { ptr, ptr }, ptr %ref.tmp, i32 0, i32 0
  %3 = extractvalue { ptr, ptr } %call3, 0
  store ptr %3, ptr %2, align 8
  %4 = getelementptr inbounds { ptr, ptr }, ptr %ref.tmp, i32 0, i32 1
  %5 = extractvalue { ptr, ptr } %call3, 1
  store ptr %5, ptr %4, align 8
  store i8 0, ptr %ref.tmp4, align 1
  call void @_ZSt9make_pairIN4llvh16DenseMapIteratorIjjNS0_12DenseMapInfoIjEENS0_6detail12DenseMapPairIjjEELb0EEEbESt4pairINSt25__strip_reference_wrapperINSt5decayIT_E4typeEE6__typeENS9_INSA_IT0_E4typeEE6__typeEEOSB_OSG_(ptr sret(%"struct.std::pair.104") align 8 %agg.result, ptr noundef nonnull align 8 dereferenceable(16) %ref.tmp, ptr noundef nonnull align 1 dereferenceable(1) %ref.tmp4)
  br label %return

if.end:                                           ; preds = %entry
  %6 = load ptr, ptr %TheBucket, align 8
  %7 = load ptr, ptr %Key.addr, align 8
  %8 = load ptr, ptr %Args.addr, align 8
  %call5 = call noundef ptr @_ZN4llvh12DenseMapBaseINS_8DenseMapIjjNS_12DenseMapInfoIjEENS_6detail12DenseMapPairIjjEEEEjjS3_S6_E16InsertIntoBucketIRKjJSB_EEEPS6_SC_OT_DpOT0_(ptr noundef nonnull align 1 dereferenceable(1) %this1, ptr noundef %6, ptr noundef nonnull align 4 dereferenceable(4) %7, ptr noundef nonnull align 4 dereferenceable(4) %8)
  store ptr %call5, ptr %TheBucket, align 8
  %9 = load ptr, ptr %TheBucket, align 8
  %call7 = call noundef ptr @_ZN4llvh12DenseMapBaseINS_8DenseMapIjjNS_12DenseMapInfoIjEENS_6detail12DenseMapPairIjjEEEEjjS3_S6_E13getBucketsEndEv(ptr noundef nonnull align 1 dereferenceable(1) %this1)
  %call8 = call { ptr, ptr } @_ZN4llvh12DenseMapBaseINS_8DenseMapIjjNS_12DenseMapInfoIjEENS_6detail12DenseMapPairIjjEEEEjjS3_S6_E12makeIteratorEPS6_S9_RNS_14DebugEpochBaseEb(ptr noundef nonnull align 1 dereferenceable(1) %this1, ptr noundef %9, ptr noundef %call7, ptr noundef nonnull align 1 dereferenceable(1) %this1, i1 noundef zeroext true)
  %10 = getelementptr inbounds { ptr, ptr }, ptr %ref.tmp6, i32 0, i32 0
  %11 = extractvalue { ptr, ptr } %call8, 0
  store ptr %11, ptr %10, align 8
  %12 = getelementptr inbounds { ptr, ptr }, ptr %ref.tmp6, i32 0, i32 1
  %13 = extractvalue { ptr, ptr } %call8, 1
  store ptr %13, ptr %12, align 8
  store i8 1, ptr %ref.tmp9, align 1
  call void @_ZSt9make_pairIN4llvh16DenseMapIteratorIjjNS0_12DenseMapInfoIjEENS0_6detail12DenseMapPairIjjEELb0EEEbESt4pairINSt25__strip_reference_wrapperINSt5decayIT_E4typeEE6__typeENS9_INSA_IT0_E4typeEE6__typeEEOSB_OSG_(ptr sret(%"struct.std::pair.104") align 8 %agg.result, ptr noundef nonnull align 8 dereferenceable(16) %ref.tmp6, ptr noundef nonnull align 1 dereferenceable(1) %ref.tmp9)
  br label %return

return:                                           ; preds = %if.end, %if.then
  ret void
}

; Function Attrs: mustprogress nounwind uwtable
define linkonce_odr hidden noundef nonnull align 8 dereferenceable(16) ptr @_ZN4llvh16DenseMapIteratorIjjNS_12DenseMapInfoIjEENS_6detail12DenseMapPairIjjEELb0EEppEv(ptr noundef nonnull align 8 dereferenceable(16) %this) #0 comdat align 2 {
entry:
  %retval = alloca ptr, align 8
  %this.addr = alloca ptr, align 8
  store ptr %this, ptr %this.addr, align 8
  %this1 = load ptr, ptr %this.addr, align 8
  %call = call noundef zeroext i1 @_ZN4llvh20shouldReverseIterateIjEEbv()
  br i1 %call, label %if.then, label %if.end

if.then:                                          ; preds = %entry
  %Ptr = getelementptr inbounds %"class.llvh::DenseMapIterator.100", ptr %this1, i32 0, i32 0
  %0 = load ptr, ptr %Ptr, align 8
  %incdec.ptr = getelementptr inbounds %"struct.llvh::detail::DenseMapPair", ptr %0, i32 -1
  store ptr %incdec.ptr, ptr %Ptr, align 8
  call void @_ZN4llvh16DenseMapIteratorIjjNS_12DenseMapInfoIjEENS_6detail12DenseMapPairIjjEELb0EE23RetreatPastEmptyBucketsEv(ptr noundef nonnull align 8 dereferenceable(16) %this1)
  store ptr %this1, ptr %retval, align 8
  br label %return

if.end:                                           ; preds = %entry
  %Ptr2 = getelementptr inbounds %"class.llvh::DenseMapIterator.100", ptr %this1, i32 0, i32 0
  %1 = load ptr, ptr %Ptr2, align 8
  %incdec.ptr3 = getelementptr inbounds %"struct.llvh::detail::DenseMapPair", ptr %1, i32 1
  store ptr %incdec.ptr3, ptr %Ptr2, align 8
  call void @_ZN4llvh16DenseMapIteratorIjjNS_12DenseMapInfoIjEENS_6detail12DenseMapPairIjjEELb0EE23AdvancePastEmptyBucketsEv(ptr noundef nonnull align 8 dereferenceable(16) %this1)
  store ptr %this1, ptr %retval, align 8
  br label %return

return:                                           ; preds = %if.end, %if.then
  %2 = load ptr, ptr %retval, align 8
  ret ptr %2
}

; Function Attrs: mustprogress nounwind uwtable
define linkonce_odr hidden void @_ZN4llvh8OptionalIN6hermes2vm17CompressedPointerEEC2ENS_8NoneTypeE(ptr noundef nonnull align 4 dereferenceable(8) %this, i32 noundef %0) unnamed_addr #0 comdat align 2 {
entry:
  %this.addr = alloca ptr, align 8
  %.addr = alloca i32, align 4
  store ptr %this, ptr %this.addr, align 8
  store i32 %0, ptr %.addr, align 4
  %this1 = load ptr, ptr %this.addr, align 8
  %Storage = getelementptr inbounds %"class.llvh::Optional", ptr %this1, i32 0, i32 0
  call void @_ZN4llvh15optional_detail15OptionalStorageIN6hermes2vm17CompressedPointerELb1EEC2Ev(ptr noundef nonnull align 4 dereferenceable(5) %Storage) #14
  ret void
}

; Function Attrs: mustprogress nounwind uwtable
define hidden noundef zeroext i1 @_ZN6hermes2vm6GCBase9IDTracker12hasNativeIDsEv(ptr noundef nonnull align 8 dereferenceable(192) %this) #0 align 2 {
entry:
  %this.addr = alloca ptr, align 8
  %lk = alloca %"class.std::lock_guard", align 8
  store ptr %this, ptr %this.addr, align 8
  %this1 = load ptr, ptr %this.addr, align 8
  %mtx_ = getelementptr inbounds %"class.hermes::vm::GCBase::IDTracker", ptr %this1, i32 0, i32 0
  call void @_ZNSt10lock_guardISt15recursive_mutexEC2ERS0_(ptr noundef nonnull align 8 dereferenceable(8) %lk, ptr noundef nonnull align 8 dereferenceable(40) %mtx_)
  %nativeIDMap_ = getelementptr inbounds %"class.hermes::vm::GCBase::IDTracker", ptr %this1, i32 0, i32 5
  %call = call noundef zeroext i1 @_ZNK4llvh12DenseMapBaseINS_8DenseMapIPKvjNS_12DenseMapInfoIS3_EENS_6detail12DenseMapPairIS3_jEEEES3_jS5_S8_E5emptyEv(ptr noundef nonnull align 1 dereferenceable(1) %nativeIDMap_)
  %lnot = xor i1 %call, true
  call void @_ZNSt10lock_guardISt15recursive_mutexED2Ev(ptr noundef nonnull align 8 dereferenceable(8) %lk) #14
  ret i1 %lnot
}

; Function Attrs: mustprogress nounwind uwtable
define linkonce_odr hidden noundef zeroext i1 @_ZNK4llvh12DenseMapBaseINS_8DenseMapIPKvjNS_12DenseMapInfoIS3_EENS_6detail12DenseMapPairIS3_jEEEES3_jS5_S8_E5emptyEv(ptr noundef nonnull align 1 dereferenceable(1) %this) #0 comdat align 2 {
entry:
  %this.addr = alloca ptr, align 8
  store ptr %this, ptr %this.addr, align 8
  %this1 = load ptr, ptr %this.addr, align 8
  %call = call noundef i32 @_ZNK4llvh12DenseMapBaseINS_8DenseMapIPKvjNS_12DenseMapInfoIS3_EENS_6detail12DenseMapPairIS3_jEEEES3_jS5_S8_E13getNumEntriesEv(ptr noundef nonnull align 1 dereferenceable(1) %this1)
  %cmp = icmp eq i32 %call, 0
  ret i1 %cmp
}

; Function Attrs: mustprogress nounwind uwtable
define hidden noundef zeroext i1 @_ZN6hermes2vm6GCBase9IDTracker13isTrackingIDsEv(ptr noundef nonnull align 8 dereferenceable(192) %this) #0 align 2 {
entry:
  %this.addr = alloca ptr, align 8
  %lk = alloca %"class.std::lock_guard", align 8
  store ptr %this, ptr %this.addr, align 8
  %this1 = load ptr, ptr %this.addr, align 8
  %mtx_ = getelementptr inbounds %"class.hermes::vm::GCBase::IDTracker", ptr %this1, i32 0, i32 0
  call void @_ZNSt10lock_guardISt15recursive_mutexEC2ERS0_(ptr noundef nonnull align 8 dereferenceable(8) %lk, ptr noundef nonnull align 8 dereferenceable(40) %mtx_)
  %objectIDMap_ = getelementptr inbounds %"class.hermes::vm::GCBase::IDTracker", ptr %this1, i32 0, i32 3
  %call = call noundef zeroext i1 @_ZNK4llvh12DenseMapBaseINS_8DenseMapIjjNS_12DenseMapInfoIjEENS_6detail12DenseMapPairIjjEEEEjjS3_S6_E5emptyEv(ptr noundef nonnull align 1 dereferenceable(1) %objectIDMap_)
  %lnot = xor i1 %call, true
  call void @_ZNSt10lock_guardISt15recursive_mutexED2Ev(ptr noundef nonnull align 8 dereferenceable(8) %lk) #14
  ret i1 %lnot
}

; Function Attrs: mustprogress nounwind uwtable
define linkonce_odr hidden noundef zeroext i1 @_ZNK4llvh12DenseMapBaseINS_8DenseMapIjjNS_12DenseMapInfoIjEENS_6detail12DenseMapPairIjjEEEEjjS3_S6_E5emptyEv(ptr noundef nonnull align 1 dereferenceable(1) %this) #0 comdat align 2 {
entry:
  %this.addr = alloca ptr, align 8
  store ptr %this, ptr %this.addr, align 8
  %this1 = load ptr, ptr %this.addr, align 8
  %call = call noundef i32 @_ZNK4llvh12DenseMapBaseINS_8DenseMapIjjNS_12DenseMapInfoIjEENS_6detail12DenseMapPairIjjEEEEjjS3_S6_E13getNumEntriesEv(ptr noundef nonnull align 1 dereferenceable(1) %this1)
  %cmp = icmp eq i32 %call, 0
  ret i1 %cmp
}

; Function Attrs: mustprogress nounwind uwtable
define hidden noundef i32 @_ZN6hermes2vm6GCBase9IDTracker12nextObjectIDEv(ptr noundef nonnull align 8 dereferenceable(192) %this) #0 align 2 {
entry:
  %this.addr = alloca ptr, align 8
  store ptr %this, ptr %this.addr, align 8
  %this1 = load ptr, ptr %this.addr, align 8
  %lastID_ = getelementptr inbounds %"class.hermes::vm::GCBase::IDTracker", ptr %this1, i32 0, i32 1
  %0 = load i32, ptr %lastID_, align 8
  %call = call noundef i32 @_ZNSt14numeric_limitsIjE3maxEv() #14
  %sub = sub i32 %call, 2
  %cmp = icmp uge i32 %0, %sub
  br i1 %cmp, label %if.then, label %if.end

if.then:                                          ; preds = %entry
  call void @_ZN6hermes12hermes_fatalEPKc(ptr noundef @.str.57) #15
  unreachable

if.end:                                           ; preds = %entry
  %lastID_2 = getelementptr inbounds %"class.hermes::vm::GCBase::IDTracker", ptr %this1, i32 0, i32 1
  %1 = load i32, ptr %lastID_2, align 8
  %add = add i32 %1, 2
  store i32 %add, ptr %lastID_2, align 8
  ret i32 %add
}

; Function Attrs: mustprogress nounwind uwtable
define linkonce_odr hidden noundef i32 @_ZNK4llvh12DenseMapBaseINS_8DenseMapIjjNS_12DenseMapInfoIjEENS_6detail12DenseMapPairIjjEEEEjjS3_S6_E5countERKj(ptr noundef nonnull align 1 dereferenceable(1) %this, ptr noundef nonnull align 4 dereferenceable(4) %Val) #0 comdat align 2 {
entry:
  %this.addr = alloca ptr, align 8
  %Val.addr = alloca ptr, align 8
  %TheBucket = alloca ptr, align 8
  store ptr %this, ptr %this.addr, align 8
  store ptr %Val, ptr %Val.addr, align 8
  %this1 = load ptr, ptr %this.addr, align 8
  %0 = load ptr, ptr %Val.addr, align 8
  %call = call noundef zeroext i1 @_ZNK4llvh12DenseMapBaseINS_8DenseMapIjjNS_12DenseMapInfoIjEENS_6detail12DenseMapPairIjjEEEEjjS3_S6_E15LookupBucketForIjEEbRKT_RPKS6_(ptr noundef nonnull align 1 dereferenceable(1) %this1, ptr noundef nonnull align 4 dereferenceable(4) %0, ptr noundef nonnull align 8 dereferenceable(8) %TheBucket)
  %cond = select i1 %call, i32 1, i32 0
  ret i32 %cond
}

; Function Attrs: mustprogress nounwind uwtable
define linkonce_odr hidden noundef i32 @_ZNK6hermes2vm8SymbolID14unsafeGetIndexEv(ptr noundef nonnull align 4 dereferenceable(4) %this) #0 comdat align 2 {
entry:
  %this.addr = alloca ptr, align 8
  store ptr %this, ptr %this.addr, align 8
  %this1 = load ptr, ptr %this.addr, align 8
  %id_ = getelementptr inbounds %"class.hermes::vm::SymbolID", ptr %this1, i32 0, i32 0
  %0 = load i32, ptr %id_, align 4
  %and = and i32 %0, 268435455
  ret i32 %and
}

; Function Attrs: mustprogress nounwind uwtable
define linkonce_odr hidden { ptr, ptr } @_ZN4llvh12DenseMapBaseINS_8DenseMapIPKvjNS_12DenseMapInfoIS3_EENS_6detail12DenseMapPairIS3_jEEEES3_jS5_S8_E4findES3_(ptr noundef nonnull align 1 dereferenceable(1) %this, ptr noundef %Val) #0 comdat align 2 {
entry:
  %retval = alloca %"class.llvh::DenseMapIterator.106", align 8
  %this.addr = alloca ptr, align 8
  %Val.addr = alloca ptr, align 8
  %TheBucket = alloca ptr, align 8
  store ptr %this, ptr %this.addr, align 8
  store ptr %Val, ptr %Val.addr, align 8
  %this1 = load ptr, ptr %this.addr, align 8
  %call = call noundef zeroext i1 @_ZN4llvh12DenseMapBaseINS_8DenseMapIPKvjNS_12DenseMapInfoIS3_EENS_6detail12DenseMapPairIS3_jEEEES3_jS5_S8_E15LookupBucketForIS3_EEbRKT_RPS8_(ptr noundef nonnull align 1 dereferenceable(1) %this1, ptr noundef nonnull align 8 dereferenceable(8) %Val.addr, ptr noundef nonnull align 8 dereferenceable(8) %TheBucket)
  br i1 %call, label %if.then, label %if.end

if.then:                                          ; preds = %entry
  %0 = load ptr, ptr %TheBucket, align 8
  %call2 = call noundef ptr @_ZN4llvh12DenseMapBaseINS_8DenseMapIPKvjNS_12DenseMapInfoIS3_EENS_6detail12DenseMapPairIS3_jEEEES3_jS5_S8_E13getBucketsEndEv(ptr noundef nonnull align 1 dereferenceable(1) %this1)
  %call3 = call { ptr, ptr } @_ZN4llvh12DenseMapBaseINS_8DenseMapIPKvjNS_12DenseMapInfoIS3_EENS_6detail12DenseMapPairIS3_jEEEES3_jS5_S8_E12makeIteratorEPS8_SB_RNS_14DebugEpochBaseEb(ptr noundef nonnull align 1 dereferenceable(1) %this1, ptr noundef %0, ptr noundef %call2, ptr noundef nonnull align 1 dereferenceable(1) %this1, i1 noundef zeroext true)
  %1 = getelementptr inbounds { ptr, ptr }, ptr %retval, i32 0, i32 0
  %2 = extractvalue { ptr, ptr } %call3, 0
  store ptr %2, ptr %1, align 8
  %3 = getelementptr inbounds { ptr, ptr }, ptr %retval, i32 0, i32 1
  %4 = extractvalue { ptr, ptr } %call3, 1
  store ptr %4, ptr %3, align 8
  br label %return

if.end:                                           ; preds = %entry
  %call4 = call { ptr, ptr } @_ZN4llvh12DenseMapBaseINS_8DenseMapIPKvjNS_12DenseMapInfoIS3_EENS_6detail12DenseMapPairIS3_jEEEES3_jS5_S8_E3endEv(ptr noundef nonnull align 1 dereferenceable(1) %this1)
  %5 = getelementptr inbounds { ptr, ptr }, ptr %retval, i32 0, i32 0
  %6 = extractvalue { ptr, ptr } %call4, 0
  store ptr %6, ptr %5, align 8
  %7 = getelementptr inbounds { ptr, ptr }, ptr %retval, i32 0, i32 1
  %8 = extractvalue { ptr, ptr } %call4, 1
  store ptr %8, ptr %7, align 8
  br label %return

return:                                           ; preds = %if.end, %if.then
  %9 = load { ptr, ptr }, ptr %retval, align 8
  ret { ptr, ptr } %9
}

; Function Attrs: mustprogress nounwind uwtable
define linkonce_odr hidden noundef zeroext i1 @_ZNK4llvh16DenseMapIteratorIPKvjNS_12DenseMapInfoIS2_EENS_6detail12DenseMapPairIS2_jEELb0EEneERKS8_(ptr noundef nonnull align 8 dereferenceable(16) %this, ptr noundef nonnull align 8 dereferenceable(16) %RHS) #0 comdat align 2 {
entry:
  %this.addr = alloca ptr, align 8
  %RHS.addr = alloca ptr, align 8
  store ptr %this, ptr %this.addr, align 8
  store ptr %RHS, ptr %RHS.addr, align 8
  %this1 = load ptr, ptr %this.addr, align 8
  %0 = load ptr, ptr %RHS.addr, align 8
  %call = call noundef zeroext i1 @_ZNK4llvh16DenseMapIteratorIPKvjNS_12DenseMapInfoIS2_EENS_6detail12DenseMapPairIS2_jEELb0EEeqERKS8_(ptr noundef nonnull align 8 dereferenceable(16) %this1, ptr noundef nonnull align 8 dereferenceable(16) %0)
  %lnot = xor i1 %call, true
  ret i1 %lnot
}

; Function Attrs: mustprogress nounwind uwtable
define linkonce_odr hidden { ptr, ptr } @_ZN4llvh12DenseMapBaseINS_8DenseMapIPKvjNS_12DenseMapInfoIS3_EENS_6detail12DenseMapPairIS3_jEEEES3_jS5_S8_E3endEv(ptr noundef nonnull align 1 dereferenceable(1) %this) #0 comdat align 2 {
entry:
  %retval = alloca %"class.llvh::DenseMapIterator.106", align 8
  %this.addr = alloca ptr, align 8
  store ptr %this, ptr %this.addr, align 8
  %this1 = load ptr, ptr %this.addr, align 8
  %call = call noundef ptr @_ZN4llvh12DenseMapBaseINS_8DenseMapIPKvjNS_12DenseMapInfoIS3_EENS_6detail12DenseMapPairIS3_jEEEES3_jS5_S8_E13getBucketsEndEv(ptr noundef nonnull align 1 dereferenceable(1) %this1)
  %call2 = call noundef ptr @_ZN4llvh12DenseMapBaseINS_8DenseMapIPKvjNS_12DenseMapInfoIS3_EENS_6detail12DenseMapPairIS3_jEEEES3_jS5_S8_E13getBucketsEndEv(ptr noundef nonnull align 1 dereferenceable(1) %this1)
  %call3 = call { ptr, ptr } @_ZN4llvh12DenseMapBaseINS_8DenseMapIPKvjNS_12DenseMapInfoIS3_EENS_6detail12DenseMapPairIS3_jEEEES3_jS5_S8_E12makeIteratorEPS8_SB_RNS_14DebugEpochBaseEb(ptr noundef nonnull align 1 dereferenceable(1) %this1, ptr noundef %call, ptr noundef %call2, ptr noundef nonnull align 1 dereferenceable(1) %this1, i1 noundef zeroext true)
  %0 = getelementptr inbounds { ptr, ptr }, ptr %retval, i32 0, i32 0
  %1 = extractvalue { ptr, ptr } %call3, 0
  store ptr %1, ptr %0, align 8
  %2 = getelementptr inbounds { ptr, ptr }, ptr %retval, i32 0, i32 1
  %3 = extractvalue { ptr, ptr } %call3, 1
  store ptr %3, ptr %2, align 8
  %4 = load { ptr, ptr }, ptr %retval, align 8
  ret { ptr, ptr } %4
}

; Function Attrs: mustprogress nounwind uwtable
define linkonce_odr hidden noundef ptr @_ZNK4llvh16DenseMapIteratorIPKvjNS_12DenseMapInfoIS2_EENS_6detail12DenseMapPairIS2_jEELb0EEptEv(ptr noundef nonnull align 8 dereferenceable(16) %this) #0 comdat align 2 {
entry:
  %retval = alloca ptr, align 8
  %this.addr = alloca ptr, align 8
  store ptr %this, ptr %this.addr, align 8
  %this1 = load ptr, ptr %this.addr, align 8
  %call = call noundef zeroext i1 @_ZN4llvh20shouldReverseIterateIPKvEEbv()
  br i1 %call, label %if.then, label %if.end

if.then:                                          ; preds = %entry
  %Ptr = getelementptr inbounds %"class.llvh::DenseMapIterator.106", ptr %this1, i32 0, i32 0
  %0 = load ptr, ptr %Ptr, align 8
  %arrayidx = getelementptr inbounds %"struct.llvh::detail::DenseMapPair.107", ptr %0, i64 -1
  store ptr %arrayidx, ptr %retval, align 8
  br label %return

if.end:                                           ; preds = %entry
  %Ptr2 = getelementptr inbounds %"class.llvh::DenseMapIterator.106", ptr %this1, i32 0, i32 0
  %1 = load ptr, ptr %Ptr2, align 8
  store ptr %1, ptr %retval, align 8
  br label %return

return:                                           ; preds = %if.end, %if.then
  %2 = load ptr, ptr %retval, align 8
  ret ptr %2
}

; Function Attrs: mustprogress nounwind uwtable
define hidden noundef i32 @_ZN6hermes2vm6GCBase9IDTracker12nextNativeIDEv(ptr noundef nonnull align 8 dereferenceable(192) %this) #0 align 2 {
entry:
  %this.addr = alloca ptr, align 8
  %id = alloca i32, align 4
  store ptr %this, ptr %this.addr, align 8
  %this1 = load ptr, ptr %this.addr, align 8
  %call = call noundef i32 @_ZN6hermes2vm6GCBase9IDTracker12nextObjectIDEv(ptr noundef nonnull align 8 dereferenceable(192) %this1)
  store i32 %call, ptr %id, align 4
  %0 = load i32, ptr %id, align 4
  %sub = sub i32 %0, 1
  ret i32 %sub
}

; Function Attrs: mustprogress nounwind uwtable
define linkonce_odr hidden noundef nonnull align 4 dereferenceable(4) ptr @_ZN4llvh12DenseMapBaseINS_8DenseMapIPKvjNS_12DenseMapInfoIS3_EENS_6detail12DenseMapPairIS3_jEEEES3_jS5_S8_EixERKS3_(ptr noundef nonnull align 1 dereferenceable(1) %this, ptr noundef nonnull align 8 dereferenceable(8) %Key) #0 comdat align 2 {
entry:
  %this.addr = alloca ptr, align 8
  %Key.addr = alloca ptr, align 8
  store ptr %this, ptr %this.addr, align 8
  store ptr %Key, ptr %Key.addr, align 8
  %this1 = load ptr, ptr %this.addr, align 8
  %0 = load ptr, ptr %Key.addr, align 8
  %call = call noundef nonnull align 8 dereferenceable(12) ptr @_ZN4llvh12DenseMapBaseINS_8DenseMapIPKvjNS_12DenseMapInfoIS3_EENS_6detail12DenseMapPairIS3_jEEEES3_jS5_S8_E16FindAndConstructERKS3_(ptr noundef nonnull align 1 dereferenceable(1) %this1, ptr noundef nonnull align 8 dereferenceable(8) %0)
  %second = getelementptr inbounds %"struct.std::pair.108", ptr %call, i32 0, i32 1
  ret ptr %second
}

; Function Attrs: mustprogress nounwind uwtable
define linkonce_odr hidden noundef zeroext i1 @_ZN4llvh12DenseMapBaseINS_8DenseMapIjjNS_12DenseMapInfoIjEENS_6detail12DenseMapPairIjjEEEEjjS3_S6_E5eraseERKj(ptr noundef nonnull align 1 dereferenceable(1) %this, ptr noundef nonnull align 4 dereferenceable(4) %Val) #0 comdat align 2 {
entry:
  %retval = alloca i1, align 1
  %this.addr = alloca ptr, align 8
  %Val.addr = alloca ptr, align 8
  %TheBucket = alloca ptr, align 8
  store ptr %this, ptr %this.addr, align 8
  store ptr %Val, ptr %Val.addr, align 8
  %this1 = load ptr, ptr %this.addr, align 8
  %0 = load ptr, ptr %Val.addr, align 8
  %call = call noundef zeroext i1 @_ZN4llvh12DenseMapBaseINS_8DenseMapIjjNS_12DenseMapInfoIjEENS_6detail12DenseMapPairIjjEEEEjjS3_S6_E15LookupBucketForIjEEbRKT_RPS6_(ptr noundef nonnull align 1 dereferenceable(1) %this1, ptr noundef nonnull align 4 dereferenceable(4) %0, ptr noundef nonnull align 8 dereferenceable(8) %TheBucket)
  br i1 %call, label %if.end, label %if.then

if.then:                                          ; preds = %entry
  store i1 false, ptr %retval, align 1
  br label %return

if.end:                                           ; preds = %entry
  %1 = load ptr, ptr %TheBucket, align 8
  %call2 = call noundef nonnull align 4 dereferenceable(4) ptr @_ZN4llvh6detail12DenseMapPairIjjE9getSecondEv(ptr noundef nonnull align 4 dereferenceable(8) %1)
  %call3 = call noundef i32 @_ZN4llvh12DenseMapBaseINS_8DenseMapIjjNS_12DenseMapInfoIjEENS_6detail12DenseMapPairIjjEEEEjjS3_S6_E15getTombstoneKeyEv()
  %2 = load ptr, ptr %TheBucket, align 8
  %call4 = call noundef nonnull align 4 dereferenceable(4) ptr @_ZN4llvh6detail12DenseMapPairIjjE8getFirstEv(ptr noundef nonnull align 4 dereferenceable(8) %2)
  store i32 %call3, ptr %call4, align 4
  call void @_ZN4llvh12DenseMapBaseINS_8DenseMapIjjNS_12DenseMapInfoIjEENS_6detail12DenseMapPairIjjEEEEjjS3_S6_E19decrementNumEntriesEv(ptr noundef nonnull align 1 dereferenceable(1) %this1)
  call void @_ZN4llvh12DenseMapBaseINS_8DenseMapIjjNS_12DenseMapInfoIjEENS_6detail12DenseMapPairIjjEEEEjjS3_S6_E22incrementNumTombstonesEv(ptr noundef nonnull align 1 dereferenceable(1) %this1)
  store i1 true, ptr %retval, align 1
  br label %return

return:                                           ; preds = %if.end, %if.then
  %3 = load i1, ptr %retval, align 1
  ret i1 %3
}

; Function Attrs: mustprogress nounwind uwtable
define linkonce_odr hidden noundef zeroext i1 @_ZN4llvh12DenseMapBaseINS_8DenseMapIjNS_11SmallVectorIjLj1EEENS_12DenseMapInfoIjEENS_6detail12DenseMapPairIjS3_EEEEjS3_S5_S8_E5eraseERKj(ptr noundef nonnull align 1 dereferenceable(1) %this, ptr noundef nonnull align 4 dereferenceable(4) %Val) #0 comdat align 2 {
entry:
  %retval = alloca i1, align 1
  %this.addr = alloca ptr, align 8
  %Val.addr = alloca ptr, align 8
  %TheBucket = alloca ptr, align 8
  store ptr %this, ptr %this.addr, align 8
  store ptr %Val, ptr %Val.addr, align 8
  %this1 = load ptr, ptr %this.addr, align 8
  %0 = load ptr, ptr %Val.addr, align 8
  %call = call noundef zeroext i1 @_ZN4llvh12DenseMapBaseINS_8DenseMapIjNS_11SmallVectorIjLj1EEENS_12DenseMapInfoIjEENS_6detail12DenseMapPairIjS3_EEEEjS3_S5_S8_E15LookupBucketForIjEEbRKT_RPS8_(ptr noundef nonnull align 1 dereferenceable(1) %this1, ptr noundef nonnull align 4 dereferenceable(4) %0, ptr noundef nonnull align 8 dereferenceable(8) %TheBucket)
  br i1 %call, label %if.end, label %if.then

if.then:                                          ; preds = %entry
  store i1 false, ptr %retval, align 1
  br label %return

if.end:                                           ; preds = %entry
  %1 = load ptr, ptr %TheBucket, align 8
  %call2 = call noundef nonnull align 8 dereferenceable(20) ptr @_ZN4llvh6detail12DenseMapPairIjNS_11SmallVectorIjLj1EEEE9getSecondEv(ptr noundef nonnull align 8 dereferenceable(32) %1)
  call void @_ZN4llvh11SmallVectorIjLj1EED2Ev(ptr noundef nonnull align 8 dereferenceable(20) %call2) #14
  %call3 = call noundef i32 @_ZN4llvh12DenseMapBaseINS_8DenseMapIjNS_11SmallVectorIjLj1EEENS_12DenseMapInfoIjEENS_6detail12DenseMapPairIjS3_EEEEjS3_S5_S8_E15getTombstoneKeyEv()
  %2 = load ptr, ptr %TheBucket, align 8
  %call4 = call noundef nonnull align 4 dereferenceable(4) ptr @_ZN4llvh6detail12DenseMapPairIjNS_11SmallVectorIjLj1EEEE8getFirstEv(ptr noundef nonnull align 8 dereferenceable(32) %2)
  store i32 %call3, ptr %call4, align 4
  call void @_ZN4llvh12DenseMapBaseINS_8DenseMapIjNS_11SmallVectorIjLj1EEENS_12DenseMapInfoIjEENS_6detail12DenseMapPairIjS3_EEEEjS3_S5_S8_E19decrementNumEntriesEv(ptr noundef nonnull align 1 dereferenceable(1) %this1)
  call void @_ZN4llvh12DenseMapBaseINS_8DenseMapIjNS_11SmallVectorIjLj1EEENS_12DenseMapInfoIjEENS_6detail12DenseMapPairIjS3_EEEEjS3_S5_S8_E22incrementNumTombstonesEv(ptr noundef nonnull align 1 dereferenceable(1) %this1)
  store i1 true, ptr %retval, align 1
  br label %return

return:                                           ; preds = %if.end, %if.then
  %3 = load i1, ptr %retval, align 1
  ret i1 %3
}

; Function Attrs: mustprogress nounwind uwtable
define hidden void @_ZN6hermes2vm6GCBase9IDTracker13untrackNativeEPKv(ptr noundef nonnull align 8 dereferenceable(192) %this, ptr noundef %mem) #0 align 2 {
entry:
  %this.addr = alloca ptr, align 8
  %mem.addr = alloca ptr, align 8
  %lk = alloca %"class.std::lock_guard", align 8
  store ptr %this, ptr %this.addr, align 8
  store ptr %mem, ptr %mem.addr, align 8
  %this1 = load ptr, ptr %this.addr, align 8
  %mtx_ = getelementptr inbounds %"class.hermes::vm::GCBase::IDTracker", ptr %this1, i32 0, i32 0
  call void @_ZNSt10lock_guardISt15recursive_mutexEC2ERS0_(ptr noundef nonnull align 8 dereferenceable(8) %lk, ptr noundef nonnull align 8 dereferenceable(40) %mtx_)
  %nativeIDMap_ = getelementptr inbounds %"class.hermes::vm::GCBase::IDTracker", ptr %this1, i32 0, i32 5
  %call = call noundef zeroext i1 @_ZN4llvh12DenseMapBaseINS_8DenseMapIPKvjNS_12DenseMapInfoIS3_EENS_6detail12DenseMapPairIS3_jEEEES3_jS5_S8_E5eraseERKS3_(ptr noundef nonnull align 1 dereferenceable(1) %nativeIDMap_, ptr noundef nonnull align 8 dereferenceable(8) %mem.addr)
  call void @_ZNSt10lock_guardISt15recursive_mutexED2Ev(ptr noundef nonnull align 8 dereferenceable(8) %lk) #14
  ret void
}

; Function Attrs: mustprogress nounwind uwtable
define linkonce_odr hidden noundef zeroext i1 @_ZN4llvh12DenseMapBaseINS_8DenseMapIPKvjNS_12DenseMapInfoIS3_EENS_6detail12DenseMapPairIS3_jEEEES3_jS5_S8_E5eraseERKS3_(ptr noundef nonnull align 1 dereferenceable(1) %this, ptr noundef nonnull align 8 dereferenceable(8) %Val) #0 comdat align 2 {
entry:
  %retval = alloca i1, align 1
  %this.addr = alloca ptr, align 8
  %Val.addr = alloca ptr, align 8
  %TheBucket = alloca ptr, align 8
  store ptr %this, ptr %this.addr, align 8
  store ptr %Val, ptr %Val.addr, align 8
  %this1 = load ptr, ptr %this.addr, align 8
  %0 = load ptr, ptr %Val.addr, align 8
  %call = call noundef zeroext i1 @_ZN4llvh12DenseMapBaseINS_8DenseMapIPKvjNS_12DenseMapInfoIS3_EENS_6detail12DenseMapPairIS3_jEEEES3_jS5_S8_E15LookupBucketForIS3_EEbRKT_RPS8_(ptr noundef nonnull align 1 dereferenceable(1) %this1, ptr noundef nonnull align 8 dereferenceable(8) %0, ptr noundef nonnull align 8 dereferenceable(8) %TheBucket)
  br i1 %call, label %if.end, label %if.then

if.then:                                          ; preds = %entry
  store i1 false, ptr %retval, align 1
  br label %return

if.end:                                           ; preds = %entry
  %1 = load ptr, ptr %TheBucket, align 8
  %call2 = call noundef nonnull align 4 dereferenceable(4) ptr @_ZN4llvh6detail12DenseMapPairIPKvjE9getSecondEv(ptr noundef nonnull align 8 dereferenceable(12) %1)
  %call3 = call noundef ptr @_ZN4llvh12DenseMapBaseINS_8DenseMapIPKvjNS_12DenseMapInfoIS3_EENS_6detail12DenseMapPairIS3_jEEEES3_jS5_S8_E15getTombstoneKeyEv()
  %2 = load ptr, ptr %TheBucket, align 8
  %call4 = call noundef nonnull align 8 dereferenceable(8) ptr @_ZN4llvh6detail12DenseMapPairIPKvjE8getFirstEv(ptr noundef nonnull align 8 dereferenceable(12) %2)
  store ptr %call3, ptr %call4, align 8
  call void @_ZN4llvh12DenseMapBaseINS_8DenseMapIPKvjNS_12DenseMapInfoIS3_EENS_6detail12DenseMapPairIS3_jEEEES3_jS5_S8_E19decrementNumEntriesEv(ptr noundef nonnull align 1 dereferenceable(1) %this1)
  call void @_ZN4llvh12DenseMapBaseINS_8DenseMapIPKvjNS_12DenseMapInfoIS3_EENS_6detail12DenseMapPairIS3_jEEEES3_jS5_S8_E22incrementNumTombstonesEv(ptr noundef nonnull align 1 dereferenceable(1) %this1)
  store i1 true, ptr %retval, align 1
  br label %return

return:                                           ; preds = %if.end, %if.then
  %3 = load i1, ptr %retval, align 1
  ret i1 %3
}

; Function Attrs: mustprogress nounwind uwtable
define hidden void @_ZN6hermes2vm6GCBase9IDTracker13untrackSymbolEj(ptr noundef nonnull align 8 dereferenceable(192) %this, i32 noundef %symIdx) #0 align 2 {
entry:
  %this.addr = alloca ptr, align 8
  %symIdx.addr = alloca i32, align 4
  %lk = alloca %"class.std::lock_guard", align 8
  store ptr %this, ptr %this.addr, align 8
  store i32 %symIdx, ptr %symIdx.addr, align 4
  %this1 = load ptr, ptr %this.addr, align 8
  %mtx_ = getelementptr inbounds %"class.hermes::vm::GCBase::IDTracker", ptr %this1, i32 0, i32 0
  call void @_ZNSt10lock_guardISt15recursive_mutexEC2ERS0_(ptr noundef nonnull align 8 dereferenceable(8) %lk, ptr noundef nonnull align 8 dereferenceable(40) %mtx_)
  %symbolIDMap_ = getelementptr inbounds %"class.hermes::vm::GCBase::IDTracker", ptr %this1, i32 0, i32 7
  %call = call noundef zeroext i1 @_ZN4llvh12DenseMapBaseINS_8DenseMapIjjNS_12DenseMapInfoIjEENS_6detail12DenseMapPairIjjEEEEjjS3_S6_E5eraseERKj(ptr noundef nonnull align 1 dereferenceable(1) %symbolIDMap_, ptr noundef nonnull align 4 dereferenceable(4) %symIdx.addr)
  call void @_ZNSt10lock_guardISt15recursive_mutexED2Ev(ptr noundef nonnull align 8 dereferenceable(8) %lk) #14
  ret void
}

; Function Attrs: mustprogress nounwind uwtable
define hidden noundef i32 @_ZNK6hermes2vm6GCBase9IDTracker6lastIDEv(ptr noundef nonnull align 8 dereferenceable(192) %this) #0 align 2 {
entry:
  %this.addr = alloca ptr, align 8
  store ptr %this, ptr %this.addr, align 8
  %this1 = load ptr, ptr %this.addr, align 8
  %lastID_ = getelementptr inbounds %"class.hermes::vm::GCBase::IDTracker", ptr %this1, i32 0, i32 1
  %0 = load i32, ptr %lastID_, align 8
  ret i32 %0
}

; Function Attrs: mustprogress nounwind uwtable
define linkonce_odr noundef i32 @_ZNSt14numeric_limitsIjE3maxEv() #0 comdat align 2 {
entry:
  ret i32 -1
}

; Function Attrs: noreturn
declare void @_ZN6hermes12hermes_fatalEPKc(ptr noundef) #6

; Function Attrs: mustprogress nounwind uwtable
define hidden i64 @_ZN6hermes2vm6GCBase13getSnapshotIDENS0_11HermesValueE(ptr noundef nonnull align 8 dereferenceable(741) %this, i64 %val.coerce) #0 align 2 {
entry:
  %retval = alloca %"class.llvh::Optional.111", align 4
  %val = alloca %"class.hermes::vm::HermesValue", align 8
  %this.addr = alloca ptr, align 8
  %ref.tmp = alloca i32, align 4
  %ref.tmp10 = alloca i32, align 4
  %ref.tmp15 = alloca %"class.hermes::vm::SymbolID", align 4
  %ref.tmp20 = alloca i32, align 4
  %agg.tmp = alloca %"class.hermes::vm::SymbolID", align 4
  %ref.tmp29 = alloca i32, align 4
  %ref.tmp34 = alloca i32, align 4
  %ref.tmp39 = alloca i32, align 4
  %coerce.dive = getelementptr inbounds %"class.hermes::vm::HermesValue", ptr %val, i32 0, i32 0
  store i64 %val.coerce, ptr %coerce.dive, align 8
  store ptr %this, ptr %this.addr, align 8
  %this1 = load ptr, ptr %this.addr, align 8
  %call = call noundef zeroext i1 @_ZNK6hermes2vm11HermesValue9isPointerEv(ptr noundef nonnull align 8 dereferenceable(8) %val)
  br i1 %call, label %land.lhs.true, label %if.else

land.lhs.true:                                    ; preds = %entry
  %call2 = call noundef ptr @_ZNK6hermes2vm11HermesValue10getPointerEv(ptr noundef nonnull align 8 dereferenceable(8) %val)
  %tobool = icmp ne ptr %call2, null
  br i1 %tobool, label %if.then, label %if.else

if.then:                                          ; preds = %land.lhs.true
  %call3 = call noundef ptr @_ZNK6hermes2vm11HermesValue10getPointerEv(ptr noundef nonnull align 8 dereferenceable(8) %val)
  %tobool4 = icmp ne ptr %call3, null
  br i1 %tobool4, label %cond.true, label %cond.false

cond.true:                                        ; preds = %if.then
  %call5 = call noundef ptr @_ZNK6hermes2vm11HermesValue10getPointerEv(ptr noundef nonnull align 8 dereferenceable(8) %val)
  %call6 = call noundef i32 @_ZN6hermes2vm6GCBase11getObjectIDEPKNS0_6GCCellE(ptr noundef nonnull align 8 dereferenceable(741) %this1, ptr noundef %call5)
  br label %cond.end

cond.false:                                       ; preds = %if.then
  %call7 = call noundef i32 @_ZN6hermes2vm6GCBase9IDTracker8reservedENS2_16ReservedObjectIDE(i32 noundef 26)
  br label %cond.end

cond.end:                                         ; preds = %cond.false, %cond.true
  %cond = phi i32 [ %call6, %cond.true ], [ %call7, %cond.false ]
  store i32 %cond, ptr %ref.tmp, align 4
  call void @_ZN4llvh8OptionalIjEC2EOj(ptr noundef nonnull align 4 dereferenceable(8) %retval, ptr noundef nonnull align 4 dereferenceable(4) %ref.tmp)
  br label %return

if.else:                                          ; preds = %land.lhs.true, %entry
  %call8 = call noundef zeroext i1 @_ZNK6hermes2vm11HermesValue8isNumberEv(ptr noundef nonnull align 8 dereferenceable(8) %val)
  br i1 %call8, label %if.then9, label %if.else13

if.then9:                                         ; preds = %if.else
  %idTracker_ = getelementptr inbounds %"class.hermes::vm::GCBase", ptr %this1, i32 0, i32 27
  %call11 = call noundef double @_ZNK6hermes2vm11HermesValue9getNumberEv(ptr noundef nonnull align 8 dereferenceable(8) %val)
  %call12 = call noundef i32 @_ZN6hermes2vm6GCBase9IDTracker11getNumberIDEd(ptr noundef nonnull align 8 dereferenceable(192) %idTracker_, double noundef %call11)
  store i32 %call12, ptr %ref.tmp10, align 4
  call void @_ZN4llvh8OptionalIjEC2EOj(ptr noundef nonnull align 4 dereferenceable(8) %retval, ptr noundef nonnull align 4 dereferenceable(4) %ref.tmp10)
  br label %return

if.else13:                                        ; preds = %if.else
  %call14 = call noundef zeroext i1 @_ZNK6hermes2vm11HermesValue8isSymbolEv(ptr noundef nonnull align 8 dereferenceable(8) %val)
  br i1 %call14, label %land.rhs, label %land.end

land.rhs:                                         ; preds = %if.else13
  %call16 = call i32 @_ZNK6hermes2vm11HermesValue9getSymbolEv(ptr noundef nonnull align 8 dereferenceable(8) %val)
  %coerce.dive17 = getelementptr inbounds %"class.hermes::vm::SymbolID", ptr %ref.tmp15, i32 0, i32 0
  store i32 %call16, ptr %coerce.dive17, align 4
  %call18 = call noundef zeroext i1 @_ZNK6hermes2vm8SymbolID7isValidEv(ptr noundef nonnull align 4 dereferenceable(4) %ref.tmp15)
  br label %land.end

land.end:                                         ; preds = %land.rhs, %if.else13
  %0 = phi i1 [ false, %if.else13 ], [ %call18, %land.rhs ]
  br i1 %0, label %if.then19, label %if.else26

if.then19:                                        ; preds = %land.end
  %idTracker_21 = getelementptr inbounds %"class.hermes::vm::GCBase", ptr %this1, i32 0, i32 27
  %call22 = call i32 @_ZNK6hermes2vm11HermesValue9getSymbolEv(ptr noundef nonnull align 8 dereferenceable(8) %val)
  %coerce.dive23 = getelementptr inbounds %"class.hermes::vm::SymbolID", ptr %agg.tmp, i32 0, i32 0
  store i32 %call22, ptr %coerce.dive23, align 4
  %coerce.dive24 = getelementptr inbounds %"class.hermes::vm::SymbolID", ptr %agg.tmp, i32 0, i32 0
  %1 = load i32, ptr %coerce.dive24, align 4
  %call25 = call noundef i32 @_ZN6hermes2vm6GCBase9IDTracker11getObjectIDENS0_8SymbolIDE(ptr noundef nonnull align 8 dereferenceable(192) %idTracker_21, i32 %1)
  store i32 %call25, ptr %ref.tmp20, align 4
  call void @_ZN4llvh8OptionalIjEC2EOj(ptr noundef nonnull align 4 dereferenceable(8) %retval, ptr noundef nonnull align 4 dereferenceable(4) %ref.tmp20)
  br label %return

if.else26:                                        ; preds = %land.end
  %call27 = call noundef zeroext i1 @_ZNK6hermes2vm11HermesValue11isUndefinedEv(ptr noundef nonnull align 8 dereferenceable(8) %val)
  br i1 %call27, label %if.then28, label %if.else31

if.then28:                                        ; preds = %if.else26
  %call30 = call noundef i32 @_ZN6hermes2vm6GCBase9IDTracker8reservedENS2_16ReservedObjectIDE(i32 noundef 25)
  store i32 %call30, ptr %ref.tmp29, align 4
  call void @_ZN4llvh8OptionalIjEC2EOj(ptr noundef nonnull align 4 dereferenceable(8) %retval, ptr noundef nonnull align 4 dereferenceable(4) %ref.tmp29)
  br label %return

if.else31:                                        ; preds = %if.else26
  %call32 = call noundef zeroext i1 @_ZNK6hermes2vm11HermesValue6isNullEv(ptr noundef nonnull align 8 dereferenceable(8) %val)
  br i1 %call32, label %if.then33, label %if.else36

if.then33:                                        ; preds = %if.else31
  %call35 = call noundef i32 @_ZN6hermes2vm6GCBase9IDTracker8reservedENS2_16ReservedObjectIDE(i32 noundef 26)
  store i32 %call35, ptr %ref.tmp34, align 4
  call void @_ZN4llvh8OptionalIjEC2EOj(ptr noundef nonnull align 4 dereferenceable(8) %retval, ptr noundef nonnull align 4 dereferenceable(4) %ref.tmp34)
  br label %return

if.else36:                                        ; preds = %if.else31
  %call37 = call noundef zeroext i1 @_ZNK6hermes2vm11HermesValue6isBoolEv(ptr noundef nonnull align 8 dereferenceable(8) %val)
  br i1 %call37, label %if.then38, label %if.else44

if.then38:                                        ; preds = %if.else36
  %call40 = call noundef zeroext i1 @_ZNK6hermes2vm11HermesValue7getBoolEv(ptr noundef nonnull align 8 dereferenceable(8) %val)
  %call41 = call noundef i32 @_ZN6hermes2vm6GCBase9IDTracker8reservedENS2_16ReservedObjectIDE(i32 noundef 27)
  %call42 = call noundef i32 @_ZN6hermes2vm6GCBase9IDTracker8reservedENS2_16ReservedObjectIDE(i32 noundef 28)
  %cond43 = select i1 %call40, i32 %call41, i32 %call42
  store i32 %cond43, ptr %ref.tmp39, align 4
  call void @_ZN4llvh8OptionalIjEC2EOj(ptr noundef nonnull align 4 dereferenceable(8) %retval, ptr noundef nonnull align 4 dereferenceable(4) %ref.tmp39)
  br label %return

if.else44:                                        ; preds = %if.else36
  call void @_ZN4llvh8OptionalIjEC2ENS_8NoneTypeE(ptr noundef nonnull align 4 dereferenceable(8) %retval, i32 noundef 1)
  br label %return

return:                                           ; preds = %if.else44, %if.then38, %if.then33, %if.then28, %if.then19, %if.then9, %cond.end
  %coerce.dive45 = getelementptr inbounds %"class.llvh::Optional.111", ptr %retval, i32 0, i32 0
  %2 = load i64, ptr %coerce.dive45, align 4
  ret i64 %2
}

; Function Attrs: mustprogress nounwind uwtable
define linkonce_odr hidden noundef zeroext i1 @_ZNK6hermes2vm11HermesValue9isPointerEv(ptr noundef nonnull align 8 dereferenceable(8) %this) #0 comdat align 2 {
entry:
  %this.addr = alloca ptr, align 8
  store ptr %this, ptr %this.addr, align 8
  %this1 = load ptr, ptr %this.addr, align 8
  %raw_ = getelementptr inbounds %"class.hermes::vm::HermesValue", ptr %this1, i32 0, i32 0
  %0 = load i64, ptr %raw_, align 8
  %cmp = icmp uge i64 %0, -844424930131968
  ret i1 %cmp
}

; Function Attrs: mustprogress nounwind uwtable
define linkonce_odr hidden noundef ptr @_ZNK6hermes2vm11HermesValue10getPointerEv(ptr noundef nonnull align 8 dereferenceable(8) %this) #0 comdat align 2 {
entry:
  %this.addr = alloca ptr, align 8
  store ptr %this, ptr %this.addr, align 8
  %this1 = load ptr, ptr %this.addr, align 8
  %raw_ = getelementptr inbounds %"class.hermes::vm::HermesValue", ptr %this1, i32 0, i32 0
  %0 = load i64, ptr %raw_, align 8
  %and = and i64 %0, 281474976710655
  %1 = inttoptr i64 %and to ptr
  ret ptr %1
}

; Function Attrs: mustprogress nounwind uwtable
define linkonce_odr hidden void @_ZN4llvh8OptionalIjEC2EOj(ptr noundef nonnull align 4 dereferenceable(8) %this, ptr noundef nonnull align 4 dereferenceable(4) %y) unnamed_addr #0 comdat align 2 {
entry:
  %this.addr = alloca ptr, align 8
  %y.addr = alloca ptr, align 8
  store ptr %this, ptr %this.addr, align 8
  store ptr %y, ptr %y.addr, align 8
  %this1 = load ptr, ptr %this.addr, align 8
  %Storage = getelementptr inbounds %"class.llvh::Optional.111", ptr %this1, i32 0, i32 0
  %0 = load ptr, ptr %y.addr, align 8
  call void @_ZN4llvh15optional_detail15OptionalStorageIjLb1EEC2ERKj(ptr noundef nonnull align 4 dereferenceable(5) %Storage, ptr noundef nonnull align 4 dereferenceable(4) %0)
  ret void
}

; Function Attrs: mustprogress nounwind uwtable
define linkonce_odr hidden noundef zeroext i1 @_ZNK6hermes2vm11HermesValue8isNumberEv(ptr noundef nonnull align 8 dereferenceable(8) %this) #0 comdat align 2 {
entry:
  %this.addr = alloca ptr, align 8
  store ptr %this, ptr %this.addr, align 8
  %this1 = load ptr, ptr %this.addr, align 8
  %call = call noundef zeroext i1 @_ZNK6hermes2vm11HermesValue8isDoubleEv(ptr noundef nonnull align 8 dereferenceable(8) %this1)
  ret i1 %call
}

; Function Attrs: mustprogress nounwind uwtable
define linkonce_odr hidden noundef double @_ZNK6hermes2vm11HermesValue9getNumberEv(ptr noundef nonnull align 8 dereferenceable(8) %this) #0 comdat align 2 {
entry:
  %this.addr = alloca ptr, align 8
  store ptr %this, ptr %this.addr, align 8
  %this1 = load ptr, ptr %this.addr, align 8
  %call = call noundef double @_ZNK6hermes2vm11HermesValue9getDoubleEv(ptr noundef nonnull align 8 dereferenceable(8) %this1)
  ret double %call
}

; Function Attrs: mustprogress nounwind uwtable
define linkonce_odr hidden noundef zeroext i1 @_ZNK6hermes2vm11HermesValue8isSymbolEv(ptr noundef nonnull align 8 dereferenceable(8) %this) #0 comdat align 2 {
entry:
  %this.addr = alloca ptr, align 8
  store ptr %this, ptr %this.addr, align 8
  %this1 = load ptr, ptr %this.addr, align 8
  %call = call noundef i64 @_ZNK6hermes2vm11HermesValue7getETagEv(ptr noundef nonnull align 8 dereferenceable(8) %this1)
  %cmp = icmp eq i64 %call, -9
  ret i1 %cmp
}

; Function Attrs: mustprogress nounwind uwtable
define linkonce_odr hidden i32 @_ZNK6hermes2vm11HermesValue9getSymbolEv(ptr noundef nonnull align 8 dereferenceable(8) %this) #0 comdat align 2 {
entry:
  %retval = alloca %"class.hermes::vm::SymbolID", align 4
  %this.addr = alloca ptr, align 8
  store ptr %this, ptr %this.addr, align 8
  %this1 = load ptr, ptr %this.addr, align 8
  %raw_ = getelementptr inbounds %"class.hermes::vm::HermesValue", ptr %this1, i32 0, i32 0
  %0 = load i64, ptr %raw_, align 8
  %conv = trunc i64 %0 to i32
  %call = call i32 @_ZN6hermes2vm8SymbolID12unsafeCreateEj(i32 noundef %conv)
  %coerce.dive = getelementptr inbounds %"class.hermes::vm::SymbolID", ptr %retval, i32 0, i32 0
  store i32 %call, ptr %coerce.dive, align 4
  %coerce.dive2 = getelementptr inbounds %"class.hermes::vm::SymbolID", ptr %retval, i32 0, i32 0
  %1 = load i32, ptr %coerce.dive2, align 4
  ret i32 %1
}

; Function Attrs: mustprogress nounwind uwtable
define linkonce_odr hidden noundef zeroext i1 @_ZNK6hermes2vm8SymbolID7isValidEv(ptr noundef nonnull align 4 dereferenceable(4) %this) #0 comdat align 2 {
entry:
  %this.addr = alloca ptr, align 8
  store ptr %this, ptr %this.addr, align 8
  %this1 = load ptr, ptr %this.addr, align 8
  %id_ = getelementptr inbounds %"class.hermes::vm::SymbolID", ptr %this1, i32 0, i32 0
  %0 = load i32, ptr %id_, align 4
  %cmp = icmp ult i32 %0, 536870910
  ret i1 %cmp
}

; Function Attrs: mustprogress nounwind uwtable
define linkonce_odr hidden noundef zeroext i1 @_ZNK6hermes2vm11HermesValue11isUndefinedEv(ptr noundef nonnull align 8 dereferenceable(8) %this) #0 comdat align 2 {
entry:
  %this.addr = alloca ptr, align 8
  store ptr %this, ptr %this.addr, align 8
  %this1 = load ptr, ptr %this.addr, align 8
  %call = call noundef i64 @_ZNK6hermes2vm11HermesValue7getETagEv(ptr noundef nonnull align 8 dereferenceable(8) %this1)
  %cmp = icmp eq i64 %call, -12
  ret i1 %cmp
}

; Function Attrs: mustprogress nounwind uwtable
define linkonce_odr hidden noundef zeroext i1 @_ZNK6hermes2vm11HermesValue6isNullEv(ptr noundef nonnull align 8 dereferenceable(8) %this) #0 comdat align 2 {
entry:
  %this.addr = alloca ptr, align 8
  store ptr %this, ptr %this.addr, align 8
  %this1 = load ptr, ptr %this.addr, align 8
  %call = call noundef i64 @_ZNK6hermes2vm11HermesValue7getETagEv(ptr noundef nonnull align 8 dereferenceable(8) %this1)
  %cmp = icmp eq i64 %call, -11
  ret i1 %cmp
}

; Function Attrs: mustprogress nounwind uwtable
define linkonce_odr hidden noundef zeroext i1 @_ZNK6hermes2vm11HermesValue6isBoolEv(ptr noundef nonnull align 8 dereferenceable(8) %this) #0 comdat align 2 {
entry:
  %this.addr = alloca ptr, align 8
  store ptr %this, ptr %this.addr, align 8
  %this1 = load ptr, ptr %this.addr, align 8
  %call = call noundef i64 @_ZNK6hermes2vm11HermesValue7getETagEv(ptr noundef nonnull align 8 dereferenceable(8) %this1)
  %cmp = icmp eq i64 %call, -10
  ret i1 %cmp
}

; Function Attrs: mustprogress nounwind uwtable
define linkonce_odr hidden noundef zeroext i1 @_ZNK6hermes2vm11HermesValue7getBoolEv(ptr noundef nonnull align 8 dereferenceable(8) %this) #0 comdat align 2 {
entry:
  %this.addr = alloca ptr, align 8
  store ptr %this, ptr %this.addr, align 8
  %this1 = load ptr, ptr %this.addr, align 8
  %raw_ = getelementptr inbounds %"class.hermes::vm::HermesValue", ptr %this1, i32 0, i32 0
  %0 = load i64, ptr %raw_, align 8
  %and = and i64 %0, 1
  %tobool = icmp ne i64 %and, 0
  ret i1 %tobool
}

; Function Attrs: mustprogress nounwind uwtable
define linkonce_odr hidden void @_ZN4llvh8OptionalIjEC2ENS_8NoneTypeE(ptr noundef nonnull align 4 dereferenceable(8) %this, i32 noundef %0) unnamed_addr #0 comdat align 2 {
entry:
  %this.addr = alloca ptr, align 8
  %.addr = alloca i32, align 4
  store ptr %this, ptr %this.addr, align 8
  store i32 %0, ptr %.addr, align 4
  %this1 = load ptr, ptr %this.addr, align 8
  %Storage = getelementptr inbounds %"class.llvh::Optional.111", ptr %this1, i32 0, i32 0
  call void @_ZN4llvh15optional_detail15OptionalStorageIjLb1EEC2Ev(ptr noundef nonnull align 4 dereferenceable(5) %Storage) #14
  ret void
}

; Function Attrs: mustprogress nounwind uwtable
define hidden noundef ptr @_ZN6hermes2vm6GCBase14getObjectForIDEj(ptr noundef nonnull align 8 dereferenceable(741) %this, i32 noundef %id) #0 align 2 {
entry:
  %retval = alloca ptr, align 8
  %this.addr = alloca ptr, align 8
  %id.addr = alloca i32, align 4
  %ptr = alloca %"class.llvh::Optional", align 4
  store ptr %this, ptr %this.addr, align 8
  store i32 %id, ptr %id.addr, align 4
  %this1 = load ptr, ptr %this.addr, align 8
  %idTracker_ = getelementptr inbounds %"class.hermes::vm::GCBase", ptr %this1, i32 0, i32 27
  %0 = load i32, ptr %id.addr, align 4
  %call = call i64 @_ZN6hermes2vm6GCBase9IDTracker14getObjectForIDEj(ptr noundef nonnull align 8 dereferenceable(192) %idTracker_, i32 noundef %0)
  %coerce.dive = getelementptr inbounds %"class.llvh::Optional", ptr %ptr, i32 0, i32 0
  store i64 %call, ptr %coerce.dive, align 4
  %call2 = call noundef zeroext i1 @_ZNK4llvh8OptionalIN6hermes2vm17CompressedPointerEEcvbEv(ptr noundef nonnull align 4 dereferenceable(8) %ptr)
  br i1 %call2, label %if.then, label %if.end

if.then:                                          ; preds = %entry
  %call3 = call noundef ptr @_ZN4llvh8OptionalIN6hermes2vm17CompressedPointerEEptEv(ptr noundef nonnull align 4 dereferenceable(8) %ptr)
  %pointerBase_ = getelementptr inbounds %"class.hermes::vm::GCBase", ptr %this1, i32 0, i32 7
  %1 = load ptr, ptr %pointerBase_, align 8
  %call4 = call noundef ptr @_ZNK6hermes2vm17CompressedPointer3getERNS0_11PointerBaseE(ptr noundef nonnull align 4 dereferenceable(4) %call3, ptr noundef nonnull align 1 dereferenceable(1) %1)
  store ptr %call4, ptr %retval, align 8
  br label %return

if.end:                                           ; preds = %entry
  store ptr null, ptr %retval, align 8
  br label %return

return:                                           ; preds = %if.end, %if.then
  %2 = load ptr, ptr %retval, align 8
  ret ptr %2
}

; Function Attrs: mustprogress nounwind uwtable
define linkonce_odr hidden noundef zeroext i1 @_ZNK4llvh8OptionalIN6hermes2vm17CompressedPointerEEcvbEv(ptr noundef nonnull align 4 dereferenceable(8) %this) #0 comdat align 2 {
entry:
  %this.addr = alloca ptr, align 8
  store ptr %this, ptr %this.addr, align 8
  %this1 = load ptr, ptr %this.addr, align 8
  %Storage = getelementptr inbounds %"class.llvh::Optional", ptr %this1, i32 0, i32 0
  %hasVal = getelementptr inbounds %"struct.llvh::optional_detail::OptionalStorage", ptr %Storage, i32 0, i32 1
  %0 = load i8, ptr %hasVal, align 4
  %tobool = trunc i8 %0 to i1
  ret i1 %tobool
}

; Function Attrs: mustprogress nounwind uwtable
define linkonce_odr hidden noundef ptr @_ZN4llvh8OptionalIN6hermes2vm17CompressedPointerEEptEv(ptr noundef nonnull align 4 dereferenceable(8) %this) #0 comdat align 2 {
entry:
  %this.addr = alloca ptr, align 8
  store ptr %this, ptr %this.addr, align 8
  %this1 = load ptr, ptr %this.addr, align 8
  %call = call noundef ptr @_ZN4llvh8OptionalIN6hermes2vm17CompressedPointerEE10getPointerEv(ptr noundef nonnull align 4 dereferenceable(8) %this1)
  ret ptr %call
}

; Function Attrs: mustprogress nounwind uwtable
define linkonce_odr hidden noundef ptr @_ZNK6hermes2vm17CompressedPointer3getERNS0_11PointerBaseE(ptr noundef nonnull align 4 dereferenceable(4) %this, ptr noundef nonnull align 1 dereferenceable(1) %base) #0 comdat align 2 {
entry:
  %this.addr = alloca ptr, align 8
  %base.addr = alloca ptr, align 8
  %agg.tmp = alloca %"class.hermes::vm::BasedPointer", align 4
  store ptr %this, ptr %this.addr, align 8
  store ptr %base, ptr %base.addr, align 8
  %this1 = load ptr, ptr %this.addr, align 8
  %ptr_ = getelementptr inbounds %"class.hermes::vm::CompressedPointer", ptr %this1, i32 0, i32 0
  call void @llvm.memcpy.p0.p0.i64(ptr align 4 %agg.tmp, ptr align 4 %ptr_, i64 4, i1 false)
  %0 = load ptr, ptr %base.addr, align 8
  %coerce.dive = getelementptr inbounds %"class.hermes::vm::BasedPointer", ptr %agg.tmp, i32 0, i32 0
  %1 = load i32, ptr %coerce.dive, align 4
  %call = call noundef ptr @_ZN6hermes2vm17CompressedPointer20storageTypeToPointerENS0_12BasedPointerERNS0_11PointerBaseE(i32 %1, ptr noundef nonnull align 1 dereferenceable(1) %0)
  ret ptr %call
}

; Function Attrs: mustprogress nounwind uwtable
define hidden void @_ZN6hermes2vm6GCBase20sizeDiagnosticCensusEm(ptr noundef nonnull align 8 dereferenceable(741) %this, i64 noundef %allocatedBytes) #0 align 2 {
entry:
  %this.addr = alloca ptr, align 8
  %allocatedBytes.addr = alloca i64, align 8
  %rootAcceptor = alloca %struct.HeapSizeDiagnosticAcceptor, align 8
  %namedRootAcceptor = alloca %"struct.hermes::vm::DroppingAcceptor", align 8
  %__range2 = alloca ptr, align 8
  %__begin2 = alloca %"struct.std::_Rb_tree_iterator", align 8
  %__end2 = alloca %"struct.std::_Rb_tree_iterator", align 8
  %substat = alloca ptr, align 8
  %acceptor = alloca %struct.HeapSizeDiagnosticAcceptor, align 8
  %ref.tmp = alloca %"class.std::function.121", align 8
  %ref.tmp18 = alloca %class.anon, align 8
  %__range219 = alloca ptr, align 8
  %__begin223 = alloca %"struct.std::_Rb_tree_iterator", align 8
  %__end226 = alloca %"struct.std::_Rb_tree_iterator", align 8
  %substat32 = alloca ptr, align 8
  store ptr %this, ptr %this.addr, align 8
  store i64 %allocatedBytes, ptr %allocatedBytes.addr, align 8
  %this1 = load ptr, ptr %this.addr, align 8
  call void (ptr, ptr, ...) @_ZN6hermes9hermesLogEPKcS1_z(ptr noundef @.str.44, ptr noundef @.str.58, ptr noundef @.str.59)
  %call = call noundef nonnull align 1 dereferenceable(1) ptr @_ZNK6hermes2vm6GCBase14getPointerBaseEv(ptr noundef nonnull align 8 dereferenceable(741) %this1)
  call void @_ZZN6hermes2vm6GCBase20sizeDiagnosticCensusEmEN26HeapSizeDiagnosticAcceptorC2ERNS0_11PointerBaseE(ptr noundef nonnull align 8 dereferenceable(168) %rootAcceptor, ptr noundef nonnull align 1 dereferenceable(1) %call)
  call void @_ZN6hermes2vm16DroppingAcceptorIZNS0_6GCBase20sizeDiagnosticCensusEmE26HeapSizeDiagnosticAcceptorEC2ERS3_(ptr noundef nonnull align 8 dereferenceable(24) %namedRootAcceptor, ptr noundef nonnull align 8 dereferenceable(168) %rootAcceptor)
  call void @_ZN6hermes2vm6GCBase9markRootsERNS0_28RootAndSlotAcceptorWithNamesEb(ptr noundef nonnull align 8 dereferenceable(741) %this1, ptr noundef nonnull align 8 dereferenceable(16) %namedRootAcceptor, i1 noundef zeroext true)
  %diagnostic = getelementptr inbounds %struct.HeapSizeDiagnosticAcceptor, ptr %rootAcceptor, i32 0, i32 9
  %stats = getelementptr inbounds %struct.HeapSizeDiagnostic, ptr %diagnostic, i32 0, i32 2
  %breakdown = getelementptr inbounds %struct.DiagnosticStat, ptr %stats, i32 0, i32 2
