target datalayout = "e-m:e-p270:32:32-p271:32:32-p272:64:64-i64:64-i128:128-f80:128-n8:16:32:64-S128"
target triple = "x86_64-unknown-linux-gnu"

%"class.hermes::vm::PinnedHermesValue" = type { %"class.hermes::vm::HermesValue" }
%"class.hermes::vm::HermesValue" = type { i64 }
%"class.hermes::vm::JSError" = type <{ %"class.hermes::vm::JSObject", [4 x i8], %"class.std::unique_ptr", i64, %"class.hermes::vm::GCPointer.6", %"class.hermes::vm::GCPointer.6", i8, [7 x i8] }>
%"class.hermes::vm::JSObject" = type { %"class.hermes::vm::GCCell", %"struct.hermes::vm::ObjectFlags", %"class.hermes::vm::GCPointer", %"class.hermes::vm::GCPointer.5", %"class.hermes::vm::GCPointer.6" }
%"class.hermes::vm::GCCell" = type { %union.anon.4 }
%union.anon.4 = type { %"class.hermes::vm::KindAndSize" }
%"class.hermes::vm::KindAndSize" = type { i32 }
%"struct.hermes::vm::ObjectFlags" = type { i32 }
%"class.hermes::vm::GCPointer" = type { %"class.hermes::vm::GCPointerBase" }
%"class.hermes::vm::GCPointerBase" = type { %"class.hermes::vm::CompressedPointer" }
%"class.hermes::vm::CompressedPointer" = type { %"class.hermes::vm::BasedPointer" }
%"class.hermes::vm::BasedPointer" = type { i32 }
%"class.hermes::vm::GCPointer.5" = type { %"class.hermes::vm::GCPointerBase" }
%"class.std::unique_ptr" = type { %"struct.std::__uniq_ptr_data" }
%"struct.std::__uniq_ptr_data" = type { %"class.std::__uniq_ptr_impl" }
%"class.std::__uniq_ptr_impl" = type { %"class.std::tuple" }
%"class.std::tuple" = type { %"struct.std::_Tuple_impl" }
%"struct.std::_Tuple_impl" = type { %"struct.std::_Head_base.8" }
%"struct.std::_Head_base.8" = type { ptr }
%"class.hermes::vm::GCPointer.6" = type { %"class.hermes::vm::GCPointerBase" }
%"class.hermes::OptValue.2" = type <{ i32, i8, [3 x i8] }>
%"class.hermes::vm::Metadata::Builder" = type { ptr, %"class.std::map", %"class.std::map", %"class.std::map", %"class.std::map", %"class.hermes::OptValue.1", [3 x i8], %"class.hermes::OptValue.2", ptr }
%"class.std::map" = type { %"class.std::_Rb_tree" }
%"class.std::_Rb_tree" = type { %"struct.std::_Rb_tree<unsigned char, std::pair<const unsigned char, const char *>, std::_Select1st<std::pair<const unsigned char, const char *>>, std::less<unsigned char>>::_Rb_tree_impl" }
%"struct.std::_Rb_tree<unsigned char, std::pair<const unsigned char, const char *>, std::_Select1st<std::pair<const unsigned char, const char *>>, std::less<unsigned char>>::_Rb_tree_impl" = type { %"struct.std::_Rb_tree_key_compare", %"struct.std::_Rb_tree_header" }
%"struct.std::_Rb_tree_key_compare" = type { %"struct.std::less" }
%"struct.std::less" = type { i8 }
%"struct.std::_Rb_tree_header" = type { %"struct.std::_Rb_tree_node_base", i64 }
%"struct.std::_Rb_tree_node_base" = type { i32, ptr, ptr, ptr }
%"class.hermes::OptValue.1" = type { %"struct.hermes::vm::Metadata::ArrayData", i8 }
%"struct.hermes::vm::Metadata::ArrayData" = type { i8, i8, i8, i8 }
%"class.hermes::vm::CallResult.9" = type { %"class.hermes::vm::Handle.10" }
%"class.hermes::vm::Handle.10" = type { %"class.hermes::vm::HandleBase" }
%"class.hermes::vm::HandleBase" = type { ptr }
%"class.hermes::vm::Handle" = type { %"class.hermes::vm::HandleBase" }
%"struct.hermes::vm::NamedPropertyDescriptor" = type { %"struct.hermes::vm::PropertyDescriptor" }
%"struct.hermes::vm::PropertyDescriptor" = type { %union.anon.11, i32 }
%union.anon.11 = type { i32 }
%"class.hermes::vm::SymbolID" = type { i32 }
%"class.hermes::vm::HermesValue32" = type { i32 }
%"class.hermes::vm::TwineChar16" = type { %"union.hermes::vm::TwineChar16::Node", i32, %"union.hermes::vm::TwineChar16::Node", i32, i64, i64 }
%"union.hermes::vm::TwineChar16::Node" = type { ptr }
%"class.hermes::OptValue.306" = type <{ %"class.hermes::vm::DictPropertyMap::PropertyPos", i8, [3 x i8] }>
%"class.hermes::vm::DictPropertyMap::PropertyPos" = type { i32 }
%"class.llvh::StringRef" = type { ptr, i64 }
%"class.hermes::vm::CallResult.177" = type { i32, %"class.hermes::vm::HermesValue" }
%"class.hermes::vm::GCScope" = type <{ ptr, ptr, [128 x i8], %"class.llvh::SmallVector.178", ptr, ptr, i32, [4 x i8] }>
%"class.llvh::SmallVector.178" = type { %"class.llvh::SmallVectorImpl.179", %"struct.llvh::SmallVectorStorage.182" }
%"class.llvh::SmallVectorImpl.179" = type { %"class.llvh::SmallVectorTemplateBase.180" }
%"class.llvh::SmallVectorTemplateBase.180" = type { %"class.llvh::SmallVectorTemplateCommon.181" }
%"class.llvh::SmallVectorTemplateCommon.181" = type { %"class.llvh::SmallVectorBase" }
%"class.llvh::SmallVectorBase" = type { ptr, i32, i32 }
%"struct.llvh::SmallVectorStorage.182" = type { [4 x %"struct.llvh::AlignedCharArrayUnion.183"] }
%"struct.llvh::AlignedCharArrayUnion.183" = type { %"struct.llvh::AlignedCharArray.184" }
%"struct.llvh::AlignedCharArray.184" = type { [8 x i8] }
%"class.hermes::vm::ScopedNativeDepthReducer" = type <{ ptr, i8, [7 x i8] }>
%"class.hermes::vm::SmallXString" = type { %"class.llvh::SmallVector.185" }
%"class.llvh::SmallVector.185" = type { %"class.llvh::SmallVectorImpl.186", %"struct.llvh::SmallVectorStorage.189" }
%"class.llvh::SmallVectorImpl.186" = type { %"class.llvh::SmallVectorTemplateBase.187" }
%"class.llvh::SmallVectorTemplateBase.187" = type { %"class.llvh::SmallVectorTemplateCommon.188" }
%"class.llvh::SmallVectorTemplateCommon.188" = type { %"class.llvh::SmallVectorBase" }
%"struct.llvh::SmallVectorStorage.189" = type { [32 x %"struct.llvh::AlignedCharArrayUnion.190"] }
%"struct.llvh::AlignedCharArrayUnion.190" = type { %"struct.llvh::AlignedCharArray.191" }
%"struct.llvh::AlignedCharArray.191" = type { [2 x i8] }
%"class.hermes::vm::CallResult.192" = type { i32, %"class.hermes::vm::PseudoHandle.193" }
%"class.hermes::vm::PseudoHandle.193" = type { %"class.hermes::vm::HermesValue" }
%"union.hermes::vm::PropOpFlags" = type { i32 }
%"class.hermes::vm::MutableHandle" = type { %"class.hermes::vm::Handle.0" }
%"class.hermes::vm::Handle.0" = type { %"class.hermes::vm::HandleBase" }
%"class.hermes::vm::Handle.195" = type { %"class.hermes::vm::HandleBase" }
%"class.llvh::detail::scope_exit" = type <{ %class.anon, i8, [7 x i8] }>
%class.anon = type { ptr }
%"class.llvh::ArrayRef.196" = type { ptr, i64 }
%"union.hermes::vm::DefinePropertyFlags" = type { i32 }
%"class.hermes::vm::CallResult" = type { i16, [2 x i8] }
%"class.hermes::vm::Runtime" = type { %"class.hermes::vm::HandleRootOwner", %"struct.hermes::vm::GCBase::GCCallbacks", %"class.hermes::vm::PinnedHermesValue", %"class.hermes::vm::PinnedHermesValue", %"class.hermes::vm::PinnedHermesValue", %"class.hermes::vm::PinnedHermesValue", %"class.hermes::vm::PinnedHermesValue", %"class.hermes::vm::PinnedHermesValue", %"class.hermes::vm::PinnedHermesValue", %"class.hermes::vm::PinnedHermesValue", %"class.hermes::vm::PinnedHermesValue", %"class.hermes::vm::PinnedHermesValue", %"class.hermes::vm::PinnedHermesValue", %"class.hermes::vm::PinnedHermesValue", %"class.hermes::vm::PinnedHermesValue", %"class.hermes::vm::PinnedHermesValue", %"class.hermes::vm::PinnedHermesValue", %"class.hermes::vm::PinnedHermesValue", %"class.hermes::vm::PinnedHermesValue", %"class.hermes::vm::PinnedHermesValue", %"class.hermes::vm::PinnedHermesValue", %"class.hermes::vm::PinnedHermesValue", %"class.hermes::vm::PinnedHermesValue", %"class.hermes::vm::PinnedHermesValue", %"class.hermes::vm::PinnedHermesValue", %"class.hermes::vm::PinnedHermesValue", %"class.hermes::vm::PinnedHermesValue", %"class.hermes::vm::PinnedHermesValue", %"class.hermes::vm::PinnedHermesValue", %"class.hermes::vm::PinnedHermesValue", %"class.hermes::vm::PinnedHermesValue", %"class.hermes::vm::PinnedHermesValue", %"class.hermes::vm::PinnedHermesValue", %"class.hermes::vm::PinnedHermesValue", %"class.hermes::vm::PinnedHermesValue", %"class.hermes::vm::PinnedHermesValue", %"class.hermes::vm::PinnedHermesValue", %"class.hermes::vm::PinnedHermesValue", %"class.hermes::vm::PinnedHermesValue", %"class.hermes::vm::PinnedHermesValue", %"class.hermes::vm::PinnedHermesValue", %"class.hermes::vm::PinnedHermesValue", %"class.hermes::vm::PinnedHermesValue", %"class.hermes::vm::PinnedHermesValue", %"class.hermes::vm::PinnedHermesValue", %"class.hermes::vm::PinnedHermesValue", %"class.hermes::vm::PinnedHermesValue", %"class.hermes::vm::PinnedHermesValue", %"class.hermes::vm::PinnedHermesValue", %"class.hermes::vm::PinnedHermesValue", %"class.hermes::vm::PinnedHermesValue", %"class.hermes::vm::PinnedHermesValue", %"class.hermes::vm::PinnedHermesValue", %"class.hermes::vm::PinnedHermesValue", %"class.hermes::vm::PinnedHermesValue", %"class.hermes::vm::PinnedHermesValue", %"class.hermes::vm::PinnedHermesValue", %"class.hermes::vm::PinnedHermesValue", %"class.hermes::vm::PinnedHermesValue", %"class.hermes::vm::PinnedHermesValue", %"class.hermes::vm::PinnedHermesValue", %"class.hermes::vm::PinnedHermesValue", %"class.hermes::vm::PinnedHermesValue", %"class.hermes::vm::PinnedHermesValue", %"class.hermes::vm::PinnedHermesValue", %"class.hermes::vm::PinnedHermesValue", %"class.hermes::vm::PinnedHermesValue", %"class.hermes::vm::PinnedHermesValue", %"class.hermes::vm::PinnedHermesValue", %"class.hermes::vm::PinnedHermesValue", %"class.hermes::vm::PinnedHermesValue", %"class.hermes::vm::PinnedHermesValue", %"class.hermes::vm::PinnedHermesValue", %"class.hermes::vm::PinnedHermesValue", %"class.hermes::vm::PinnedHermesValue", %"class.hermes::vm::PinnedHermesValue", %"class.hermes::vm::PinnedHermesValue", %"class.hermes::vm::PinnedHermesValue", %"class.hermes::vm::PinnedHermesValue", %"class.hermes::vm::PinnedHermesValue", %"class.hermes::vm::PinnedHermesValue", %"class.hermes::vm::PinnedHermesValue", %"class.hermes::vm::PinnedHermesValue", %"class.hermes::vm::PinnedHermesValue", %"class.hermes::vm::PinnedHermesValue", %"class.hermes::vm::PinnedHermesValue", %"class.hermes::vm::PinnedHermesValue", %"class.hermes::vm::PinnedHermesValue", %"class.hermes::vm::PinnedHermesValue", %"class.hermes::vm::PinnedHermesValue", ptr, ptr, %"class.llvh::SmallVector", i8, i8, %"class.std::unique_ptr.12", %"class.std::shared_ptr", %"class.hermes::vm::GCStorage", %"class.std::vector.107", %"class.std::vector.112", %"class.std::vector.117", %"class.std::vector.117", i8, i8, i8, i8, i8, i8, i8, i8, i8, i8, i32, %"class.std::chrono::time_point", [17 x double], double, i32, [4 x i8], %"class.hermes::vm::IdentifierTable", %"class.hermes::vm::SymbolRegistry", %"class.std::unique_ptr.130", ptr, ptr, ptr, %"class.llvh::simple_ilist", %"class.hermes::vm::CrashTraceNoop", %"class.llvh::MutableArrayRef.138", ptr, ptr, ptr, %"class.std::shared_ptr.20", %"class.hermes::vm::StackFramePtrT", i32, %"struct.std::array.140", [1 x %"struct.hermes::vm::PropertyCacheEntry"], %"class.std::vector.141", %"class.std::vector.146", %"class.std::vector.151", i8, %"class.std::deque.156", i32, i32, %"class.std::unique_ptr.159", %"struct.std::atomic.167", %"class.std::vector.169", %"class.std::function.174", ptr }
%"class.hermes::vm::HandleRootOwner" = type { ptr, ptr }
%"struct.hermes::vm::GCBase::GCCallbacks" = type { ptr }
%"class.llvh::SmallVector" = type { %"class.llvh::SmallVectorImpl", %"struct.llvh::SmallVectorStorage" }
%"class.llvh::SmallVectorImpl" = type { %"class.llvh::SmallVectorTemplateBase" }
%"class.llvh::SmallVectorTemplateBase" = type { %"class.llvh::SmallVectorTemplateCommon" }
%"class.llvh::SmallVectorTemplateCommon" = type { %"class.llvh::SmallVectorBase" }
%"struct.llvh::SmallVectorStorage" = type { [4 x %"struct.llvh::AlignedCharArrayUnion"] }
%"struct.llvh::AlignedCharArrayUnion" = type { %"struct.llvh::AlignedCharArray" }
%"struct.llvh::AlignedCharArray" = type { [12 x i8] }
%"class.std::unique_ptr.12" = type { %"struct.std::__uniq_ptr_data.13" }
%"struct.std::__uniq_ptr_data.13" = type { %"class.std::__uniq_ptr_impl.14" }
%"class.std::__uniq_ptr_impl.14" = type { %"class.std::tuple.15" }
%"class.std::tuple.15" = type { %"struct.std::_Tuple_impl.16" }
%"struct.std::_Tuple_impl.16" = type { %"struct.std::_Head_base.19" }
%"struct.std::_Head_base.19" = type { ptr }
%"class.std::shared_ptr" = type { %"class.std::__shared_ptr" }
%"class.std::__shared_ptr" = type { ptr, %"class.std::__shared_count" }
%"class.std::__shared_count" = type { ptr }
%"class.hermes::vm::GCStorage" = type { %"class.hermes::vm::HadesGC" }
%"class.hermes::vm::HadesGC" = type { %"class.hermes::vm::GCBase.base", i64, i64, %"class.std::vector.47", %"class.std::shared_ptr.52", %"class.hermes::vm::HadesGC::HeapSegment", %"class.hermes::vm::AssignableCompressedPointer", %"class.std::vector.55", double, %"class.hermes::vm::HadesGC::OldGen", %"class.std::recursive_mutex", %"struct.std::atomic", %"class.std::_V2::condition_variable_any", i8, i8, %"class.std::unique_ptr.77", %"class.std::unique_ptr.85", %"class.std::future", i8, i8, i8, double, %"class.hermes::ExponentialMovingAverage", %"class.std::unique_ptr.96", %"class.std::unique_ptr.96", %"struct.hermes::vm::GCBase::CumulativeHeapStats", %"struct.hermes::vm::GCBase::CumulativeHeapStats", %"class.hermes::ExponentialMovingAverage", i64, %"struct.hermes::vm::HadesGC::CompacteeState", i64, %"struct.hermes::vm::HadesGC::NativeIDs" }
%"class.hermes::vm::GCBase.base" = type <{ ptr, i32, [4 x i8], i64, %"class.hermes::vm::GCExecTrace", [7 x i8], ptr, ptr, %"class.std::shared_ptr.20", i32, [4 x i8], %"class.std::function", %"class.std::vector", i8, i8, i8, i8, [4 x i8], %"class.std::chrono::time_point", %"class.std::chrono::duration.26", i64, i64, %"struct.hermes::vm::GCBase::CumulativeHeapStats", %"class.std::__cxx11::basic_string", %"class.std::deque", ptr, %"class.std::recursive_mutex", %"class.hermes::vm::GCBase::IDTracker", [3 x i64], %"class.std::function.44", i32, i8 }>
%"class.hermes::vm::GCExecTrace" = type { i8 }
%"class.std::function" = type { %"class.std::_Function_base", ptr }
%"class.std::_Function_base" = type { %"union.std::_Any_data", ptr }
%"union.std::_Any_data" = type { %"union.std::_Nocopy_types" }
%"union.std::_Nocopy_types" = type { { i64, i64 } }
%"class.std::vector" = type { %"struct.std::_Vector_base" }
%"struct.std::_Vector_base" = type { %"struct.std::_Vector_base<hermes::vm::GCAnalyticsEvent, std::allocator<hermes::vm::GCAnalyticsEvent>>::_Vector_impl" }
%"struct.std::_Vector_base<hermes::vm::GCAnalyticsEvent, std::allocator<hermes::vm::GCAnalyticsEvent>>::_Vector_impl" = type { %"struct.std::_Vector_base<hermes::vm::GCAnalyticsEvent, std::allocator<hermes::vm::GCAnalyticsEvent>>::_Vector_impl_data" }
%"struct.std::_Vector_base<hermes::vm::GCAnalyticsEvent, std::allocator<hermes::vm::GCAnalyticsEvent>>::_Vector_impl_data" = type { ptr, ptr, ptr }
%"class.std::chrono::duration.26" = type { i64 }
%"class.std::__cxx11::basic_string" = type { %"struct.std::__cxx11::basic_string<char>::_Alloc_hider", i64, %union.anon.31 }
%"struct.std::__cxx11::basic_string<char>::_Alloc_hider" = type { ptr }
%union.anon.31 = type { i64, [8 x i8] }
%"class.std::deque" = type { %"class.std::_Deque_base" }
%"class.std::_Deque_base" = type { %"struct.std::_Deque_base<hermes::vm::WeakRefSlot, std::allocator<hermes::vm::WeakRefSlot>>::_Deque_impl" }
%"struct.std::_Deque_base<hermes::vm::WeakRefSlot, std::allocator<hermes::vm::WeakRefSlot>>::_Deque_impl" = type { %"struct.std::_Deque_base<hermes::vm::WeakRefSlot, std::allocator<hermes::vm::WeakRefSlot>>::_Deque_impl_data" }
%"struct.std::_Deque_base<hermes::vm::WeakRefSlot, std::allocator<hermes::vm::WeakRefSlot>>::_Deque_impl_data" = type { ptr, i64, %"struct.std::_Deque_iterator", %"struct.std::_Deque_iterator" }
%"struct.std::_Deque_iterator" = type { ptr, ptr, ptr, ptr }
%"class.hermes::vm::GCBase::IDTracker" = type { %"class.std::recursive_mutex", i32, [4 x i8], %"class.llvh::DenseMap", %"class.llvh::DenseMap", %"class.llvh::DenseMap.35", %"class.llvh::DenseMap.38", %"class.llvh::DenseMap", %"class.llvh::DenseMap.41" }
%"class.llvh::DenseMap.35" = type <{ ptr, i32, i32, i32, [4 x i8] }>
%"class.llvh::DenseMap.38" = type <{ ptr, i32, i32, i32, [4 x i8] }>
%"class.llvh::DenseMap" = type <{ ptr, i32, i32, i32, [4 x i8] }>
%"class.llvh::DenseMap.41" = type <{ ptr, i32, i32, i32, [4 x i8] }>
%"class.std::function.44" = type { %"class.std::_Function_base", ptr }
%"class.std::vector.47" = type { %"struct.std::_Vector_base.48" }
%"struct.std::_Vector_base.48" = type { %"struct.std::_Vector_base<unsigned long, std::allocator<unsigned long>>::_Vector_impl" }
%"struct.std::_Vector_base<unsigned long, std::allocator<unsigned long>>::_Vector_impl" = type { %"struct.std::_Vector_base<unsigned long, std::allocator<unsigned long>>::_Vector_impl_data" }
%"struct.std::_Vector_base<unsigned long, std::allocator<unsigned long>>::_Vector_impl_data" = type { ptr, ptr, ptr }
%"class.std::shared_ptr.52" = type { %"class.std::__shared_ptr.53" }
%"class.std::__shared_ptr.53" = type { ptr, %"class.std::__shared_count" }
%"class.hermes::vm::HadesGC::HeapSegment" = type { %"class.hermes::vm::AlignedHeapSegment" }
%"class.hermes::vm::AlignedHeapSegment" = type { %"struct.hermes::vm::AlignedStorage", ptr, ptr }
%"struct.hermes::vm::AlignedStorage" = type { ptr, ptr }
%"class.hermes::vm::AssignableCompressedPointer" = type { %"class.hermes::vm::CompressedPointer" }
%"class.std::vector.55" = type { %"struct.std::_Vector_base.56" }
%"struct.std::_Vector_base.56" = type { %"struct.std::_Vector_base<hermes::vm::GCCell *, std::allocator<hermes::vm::GCCell *>>::_Vector_impl" }
%"struct.std::_Vector_base<hermes::vm::GCCell *, std::allocator<hermes::vm::GCCell *>>::_Vector_impl" = type { %"struct.std::_Vector_base<hermes::vm::GCCell *, std::allocator<hermes::vm::GCCell *>>::_Vector_impl_data" }
%"struct.std::_Vector_base<hermes::vm::GCCell *, std::allocator<hermes::vm::GCCell *>>::_Vector_impl_data" = type { ptr, ptr, ptr }
%"class.hermes::vm::HadesGC::OldGen" = type { ptr, %"class.std::deque.60", %"class.hermes::ExponentialMovingAverage", i64, i64, %"class.hermes::BitArray", %"class.std::deque.66", %"struct.std::array.72", %"struct.hermes::vm::HadesGC::OldGen::SweepIterator" }
%"class.std::deque.60" = type { %"class.std::_Deque_base.61" }
%"class.std::_Deque_base.61" = type { %"struct.std::_Deque_base<hermes::vm::HadesGC::HeapSegment, std::allocator<hermes::vm::HadesGC::HeapSegment>>::_Deque_impl" }
%"struct.std::_Deque_base<hermes::vm::HadesGC::HeapSegment, std::allocator<hermes::vm::HadesGC::HeapSegment>>::_Deque_impl" = type { %"struct.std::_Deque_base<hermes::vm::HadesGC::HeapSegment, std::allocator<hermes::vm::HadesGC::HeapSegment>>::_Deque_impl_data" }
%"struct.std::_Deque_base<hermes::vm::HadesGC::HeapSegment, std::allocator<hermes::vm::HadesGC::HeapSegment>>::_Deque_impl_data" = type { ptr, i64, %"struct.std::_Deque_iterator.65", %"struct.std::_Deque_iterator.65" }
%"struct.std::_Deque_iterator.65" = type { ptr, ptr, ptr, ptr }
%"class.hermes::BitArray" = type { %"struct.std::array" }
%"struct.std::array" = type { [5 x i64] }
%"class.std::deque.66" = type { %"class.std::_Deque_base.67" }
%"class.std::_Deque_base.67" = type { %"struct.std::_Deque_base<std::array<hermes::vm::HadesGC::OldGen::SegmentBucket, 267>, std::allocator<std::array<hermes::vm::HadesGC::OldGen::SegmentBucket, 267>>>::_Deque_impl" }
%"struct.std::_Deque_base<std::array<hermes::vm::HadesGC::OldGen::SegmentBucket, 267>, std::allocator<std::array<hermes::vm::HadesGC::OldGen::SegmentBucket, 267>>>::_Deque_impl" = type { %"struct.std::_Deque_base<std::array<hermes::vm::HadesGC::OldGen::SegmentBucket, 267>, std::allocator<std::array<hermes::vm::HadesGC::OldGen::SegmentBucket, 267>>>::_Deque_impl_data" }
%"struct.std::_Deque_base<std::array<hermes::vm::HadesGC::OldGen::SegmentBucket, 267>, std::allocator<std::array<hermes::vm::HadesGC::OldGen::SegmentBucket, 267>>>::_Deque_impl_data" = type { ptr, i64, %"struct.std::_Deque_iterator.71", %"struct.std::_Deque_iterator.71" }
%"struct.std::_Deque_iterator.71" = type { ptr, ptr, ptr, ptr }
%"struct.std::array.72" = type { [267 x %"struct.hermes::vm::HadesGC::OldGen::SegmentBucket"] }
%"struct.hermes::vm::HadesGC::OldGen::SegmentBucket" = type <{ ptr, ptr, %"class.hermes::vm::AssignableCompressedPointer", [4 x i8] }>
%"struct.hermes::vm::HadesGC::OldGen::SweepIterator" = type { i64, i64, i64 }
%"class.std::recursive_mutex" = type { %"class.std::__recursive_mutex_base" }
%"class.std::__recursive_mutex_base" = type { %union.pthread_mutex_t }
%union.pthread_mutex_t = type { %struct.__pthread_mutex_s }
%struct.__pthread_mutex_s = type { i32, i32, i32, i32, i32, i16, i16, %struct.__pthread_internal_list }
%struct.__pthread_internal_list = type { ptr, ptr }
%"struct.std::atomic" = type { %"struct.std::__atomic_base" }
%"struct.std::__atomic_base" = type { i8 }
%"class.std::_V2::condition_variable_any" = type { %"class.std::condition_variable", %"class.std::shared_ptr.74" }
%"class.std::condition_variable" = type { %"class.std::__condvar" }
%"class.std::__condvar" = type { %union.pthread_cond_t }
%union.pthread_cond_t = type { %struct.__pthread_cond_s }
%struct.__pthread_cond_s = type { %union.__atomic_wide_counter, %union.__atomic_wide_counter, [2 x i32], [2 x i32], i32, i32, [2 x i32] }
%union.__atomic_wide_counter = type { i64 }
%"class.std::shared_ptr.74" = type { %"class.std::__shared_ptr.75" }
%"class.std::__shared_ptr.75" = type { ptr, %"class.std::__shared_count" }
%"class.std::unique_ptr.77" = type { %"struct.std::__uniq_ptr_data.78" }
%"struct.std::__uniq_ptr_data.78" = type { %"class.std::__uniq_ptr_impl.79" }
%"class.std::__uniq_ptr_impl.79" = type { %"class.std::tuple.80" }
%"class.std::tuple.80" = type { %"struct.std::_Tuple_impl.81" }
%"struct.std::_Tuple_impl.81" = type { %"struct.std::_Head_base.84" }
%"struct.std::_Head_base.84" = type { ptr }
%"class.std::unique_ptr.85" = type { %"struct.std::__uniq_ptr_data.86" }
%"struct.std::__uniq_ptr_data.86" = type { %"class.std::__uniq_ptr_impl.87" }
%"class.std::__uniq_ptr_impl.87" = type { %"class.std::tuple.88" }
%"class.std::tuple.88" = type { %"struct.std::_Tuple_impl.89" }
%"struct.std::_Tuple_impl.89" = type { %"struct.std::_Head_base.92" }
%"struct.std::_Head_base.92" = type { ptr }
%"class.std::future" = type { %"class.std::__basic_future" }
%"class.std::__basic_future" = type { %"class.std::shared_ptr.93" }
%"class.std::shared_ptr.93" = type { %"class.std::__shared_ptr.94" }
%"class.std::__shared_ptr.94" = type { ptr, %"class.std::__shared_count" }
%"class.std::unique_ptr.96" = type { %"struct.std::__uniq_ptr_data.97" }
%"struct.std::__uniq_ptr_data.97" = type { %"class.std::__uniq_ptr_impl.98" }
%"class.std::__uniq_ptr_impl.98" = type { %"class.std::tuple.99" }
%"class.std::tuple.99" = type { %"struct.std::_Tuple_impl.100" }
%"struct.std::_Tuple_impl.100" = type { %"struct.std::_Head_base.103" }
%"struct.std::_Head_base.103" = type { ptr }
%"struct.hermes::vm::GCBase::CumulativeHeapStats" = type { i32, %"class.hermes::StatsAccumulator", %"class.hermes::StatsAccumulator", i32, %"class.hermes::StatsAccumulator.27", %"class.hermes::StatsAccumulator.27" }
%"class.hermes::StatsAccumulator" = type { i32, double, double, double, double }
%"class.hermes::StatsAccumulator.27" = type { i32, i64, i32, i32, double }
%"class.hermes::ExponentialMovingAverage" = type { double, double }
%"struct.hermes::vm::HadesGC::CompacteeState" = type { ptr, %"class.hermes::vm::AssignableCompressedPointer", ptr, %"class.hermes::vm::AssignableCompressedPointer", %"class.std::shared_ptr.104" }
%"class.std::shared_ptr.104" = type { %"class.std::__shared_ptr.105" }
%"class.std::__shared_ptr.105" = type { ptr, %"class.std::__shared_count" }
%"struct.hermes::vm::HadesGC::NativeIDs" = type { i32, i32 }
%"class.std::vector.107" = type { %"struct.std::_Vector_base.108" }
%"struct.std::_Vector_base.108" = type { %"struct.std::_Vector_base<std::function<void (hermes::vm::HadesGC *, hermes::vm::RootAcceptor &)>, std::allocator<std::function<void (hermes::vm::HadesGC *, hermes::vm::RootAcceptor &)>>>::_Vector_impl" }
%"struct.std::_Vector_base<std::function<void (hermes::vm::HadesGC *, hermes::vm::RootAcceptor &)>, std::allocator<std::function<void (hermes::vm::HadesGC *, hermes::vm::RootAcceptor &)>>>::_Vector_impl" = type { %"struct.std::_Vector_base<std::function<void (hermes::vm::HadesGC *, hermes::vm::RootAcceptor &)>, std::allocator<std::function<void (hermes::vm::HadesGC *, hermes::vm::RootAcceptor &)>>>::_Vector_impl_data" }
%"struct.std::_Vector_base<std::function<void (hermes::vm::HadesGC *, hermes::vm::RootAcceptor &)>, std::allocator<std::function<void (hermes::vm::HadesGC *, hermes::vm::RootAcceptor &)>>>::_Vector_impl_data" = type { ptr, ptr, ptr }
%"class.std::vector.112" = type { %"struct.std::_Vector_base.113" }
%"struct.std::_Vector_base.113" = type { %"struct.std::_Vector_base<std::function<void (hermes::vm::HadesGC *, hermes::vm::WeakRootAcceptor &)>, std::allocator<std::function<void (hermes::vm::HadesGC *, hermes::vm::WeakRootAcceptor &)>>>::_Vector_impl" }
%"struct.std::_Vector_base<std::function<void (hermes::vm::HadesGC *, hermes::vm::WeakRootAcceptor &)>, std::allocator<std::function<void (hermes::vm::HadesGC *, hermes::vm::WeakRootAcceptor &)>>>::_Vector_impl" = type { %"struct.std::_Vector_base<std::function<void (hermes::vm::HadesGC *, hermes::vm::WeakRootAcceptor &)>, std::allocator<std::function<void (hermes::vm::HadesGC *, hermes::vm::WeakRootAcceptor &)>>>::_Vector_impl_data" }
%"struct.std::_Vector_base<std::function<void (hermes::vm::HadesGC *, hermes::vm::WeakRootAcceptor &)>, std::allocator<std::function<void (hermes::vm::HadesGC *, hermes::vm::WeakRootAcceptor &)>>>::_Vector_impl_data" = type { ptr, ptr, ptr }
%"class.std::vector.117" = type { %"struct.std::_Vector_base.118" }
%"struct.std::_Vector_base.118" = type { %"struct.std::_Vector_base<std::function<void (hermes::vm::HeapSnapshot &)>, std::allocator<std::function<void (hermes::vm::HeapSnapshot &)>>>::_Vector_impl" }
%"struct.std::_Vector_base<std::function<void (hermes::vm::HeapSnapshot &)>, std::allocator<std::function<void (hermes::vm::HeapSnapshot &)>>>::_Vector_impl" = type { %"struct.std::_Vector_base<std::function<void (hermes::vm::HeapSnapshot &)>, std::allocator<std::function<void (hermes::vm::HeapSnapshot &)>>>::_Vector_impl_data" }
%"struct.std::_Vector_base<std::function<void (hermes::vm::HeapSnapshot &)>, std::allocator<std::function<void (hermes::vm::HeapSnapshot &)>>>::_Vector_impl_data" = type { ptr, ptr, ptr }
%"class.std::chrono::time_point" = type { %"class.std::chrono::duration" }
%"class.std::chrono::duration" = type { i64 }
%"class.hermes::vm::IdentifierTable" = type <{ %"class.hermes::vm::IdentifierTable::ConservativeVector", %"class.llvh::BitVector", %"class.hermes::vm::detail::IdentifierHashTable", i32, [4 x i8] }>
%"class.hermes::vm::IdentifierTable::ConservativeVector" = type { %"class.std::vector.122" }
%"class.std::vector.122" = type { %"struct.std::_Vector_base.123" }
%"struct.std::_Vector_base.123" = type { %"struct.std::_Vector_base<hermes::vm::IdentifierTable::LookupEntry, std::allocator<hermes::vm::IdentifierTable::LookupEntry>>::_Vector_impl" }
%"struct.std::_Vector_base<hermes::vm::IdentifierTable::LookupEntry, std::allocator<hermes::vm::IdentifierTable::LookupEntry>>::_Vector_impl" = type { %"struct.std::_Vector_base<hermes::vm::IdentifierTable::LookupEntry, std::allocator<hermes::vm::IdentifierTable::LookupEntry>>::_Vector_impl_data" }
%"struct.std::_Vector_base<hermes::vm::IdentifierTable::LookupEntry, std::allocator<hermes::vm::IdentifierTable::LookupEntry>>::_Vector_impl_data" = type { ptr, ptr, ptr }
%"class.llvh::BitVector" = type <{ %"class.llvh::MutableArrayRef", i32, [4 x i8] }>
%"class.llvh::MutableArrayRef" = type { %"class.llvh::ArrayRef" }
%"class.llvh::ArrayRef" = type { ptr, i64 }
%"class.hermes::vm::detail::IdentifierHashTable" = type { %"class.hermes::CompactTable", ptr, i32, i32 }
%"class.hermes::CompactTable" = type { %"class.hermes::CompactArray" }
%"class.hermes::CompactArray" = type { i32, i32, ptr }
%"class.hermes::vm::SymbolRegistry" = type { %"class.hermes::vm::PinnedHermesValue", %"class.llvh::DenseSet" }
%"class.llvh::DenseSet" = type { %"class.llvh::detail::DenseSetImpl" }
%"class.llvh::detail::DenseSetImpl" = type { %"class.llvh::DenseMap.127" }
%"class.llvh::DenseMap.127" = type <{ ptr, i32, i32, i32, [4 x i8] }>
%"class.std::unique_ptr.130" = type { %"struct.std::__uniq_ptr_data.131" }
%"struct.std::__uniq_ptr_data.131" = type { %"class.std::__uniq_ptr_impl.132" }
%"class.std::__uniq_ptr_impl.132" = type { %"class.std::tuple.133" }
%"class.std::tuple.133" = type { %"struct.std::_Tuple_impl.134" }
%"struct.std::_Tuple_impl.134" = type { %"struct.std::_Head_base.137" }
%"struct.std::_Head_base.137" = type { ptr }
%"class.llvh::simple_ilist" = type { %"class.llvh::ilist_sentinel" }
%"class.llvh::ilist_sentinel" = type { %"class.llvh::ilist_node_impl" }
%"class.llvh::ilist_node_impl" = type { %"class.llvh::ilist_node_base" }
%"class.llvh::ilist_node_base" = type { ptr, ptr }
%"class.hermes::vm::CrashTraceNoop" = type { i8 }
%"class.llvh::MutableArrayRef.138" = type { %"class.llvh::ArrayRef.139" }
%"class.llvh::ArrayRef.139" = type { ptr, i64 }
%"class.std::shared_ptr.20" = type { %"class.std::__shared_ptr.21" }
%"class.std::__shared_ptr.21" = type { ptr, %"class.std::__shared_count" }
%"class.hermes::vm::StackFramePtrT" = type { ptr }
%"struct.std::array.140" = type { [8 x %"class.hermes::vm::PinnedHermesValue"] }
%"struct.hermes::vm::PropertyCacheEntry" = type { %"class.hermes::vm::WeakRoot", i32 }
%"class.hermes::vm::WeakRoot" = type { %"class.hermes::vm::WeakRootBase" }
%"class.hermes::vm::WeakRootBase" = type { %"class.hermes::vm::CompressedPointer" }
%"class.std::vector.141" = type { %"struct.std::_Vector_base.142" }
%"struct.std::_Vector_base.142" = type { %"struct.std::_Vector_base<hermes::vm::PinnedHermesValue, std::allocator<hermes::vm::PinnedHermesValue>>::_Vector_impl" }
%"struct.std::_Vector_base<hermes::vm::PinnedHermesValue, std::allocator<hermes::vm::PinnedHermesValue>>::_Vector_impl" = type { %"struct.std::_Vector_base<hermes::vm::PinnedHermesValue, std::allocator<hermes::vm::PinnedHermesValue>>::_Vector_impl_data" }
%"struct.std::_Vector_base<hermes::vm::PinnedHermesValue, std::allocator<hermes::vm::PinnedHermesValue>>::_Vector_impl_data" = type { ptr, ptr, ptr }
%"class.std::vector.146" = type { %"struct.std::_Vector_base.147" }
%"struct.std::_Vector_base.147" = type { %"struct.std::_Vector_base<hermes::vm::JSObject *, std::allocator<hermes::vm::JSObject *>>::_Vector_impl" }
%"struct.std::_Vector_base<hermes::vm::JSObject *, std::allocator<hermes::vm::JSObject *>>::_Vector_impl" = type { %"struct.std::_Vector_base<hermes::vm::JSObject *, std::allocator<hermes::vm::JSObject *>>::_Vector_impl_data" }
%"struct.std::_Vector_base<hermes::vm::JSObject *, std::allocator<hermes::vm::JSObject *>>::_Vector_impl_data" = type { ptr, ptr, ptr }
%"class.std::vector.151" = type { %"struct.std::_Vector_base.152" }
%"struct.std::_Vector_base.152" = type { %"struct.std::_Vector_base<hermes::vm::Callable *, std::allocator<hermes::vm::Callable *>>::_Vector_impl" }
%"struct.std::_Vector_base<hermes::vm::Callable *, std::allocator<hermes::vm::Callable *>>::_Vector_impl" = type { %"struct.std::_Vector_base<hermes::vm::Callable *, std::allocator<hermes::vm::Callable *>>::_Vector_impl_data" }
%"struct.std::_Vector_base<hermes::vm::Callable *, std::allocator<hermes::vm::Callable *>>::_Vector_impl_data" = type { ptr, ptr, ptr }
%"class.std::deque.156" = type { %"class.std::_Deque_base.157" }
%"class.std::_Deque_base.157" = type { %"struct.std::_Deque_base<hermes::vm::Callable *, std::allocator<hermes::vm::Callable *>>::_Deque_impl" }
%"struct.std::_Deque_base<hermes::vm::Callable *, std::allocator<hermes::vm::Callable *>>::_Deque_impl" = type { %"struct.std::_Deque_base<hermes::vm::Callable *, std::allocator<hermes::vm::Callable *>>::_Deque_impl_data" }
%"struct.std::_Deque_base<hermes::vm::Callable *, std::allocator<hermes::vm::Callable *>>::_Deque_impl_data" = type { ptr, i64, %"struct.std::_Deque_iterator.158", %"struct.std::_Deque_iterator.158" }
%"struct.std::_Deque_iterator.158" = type { ptr, ptr, ptr, ptr }
%"class.std::unique_ptr.159" = type { %"struct.std::__uniq_ptr_data.160" }
%"struct.std::__uniq_ptr_data.160" = type { %"class.std::__uniq_ptr_impl.161" }
%"class.std::__uniq_ptr_impl.161" = type { %"class.std::tuple.162" }
%"class.std::tuple.162" = type { %"struct.std::_Tuple_impl.163" }
%"struct.std::_Tuple_impl.163" = type { %"struct.std::_Head_base.166" }
%"struct.std::_Head_base.166" = type { ptr }
%"struct.std::atomic.167" = type { %"struct.std::__atomic_base.168" }
%"struct.std::__atomic_base.168" = type { i8 }
%"class.std::vector.169" = type { %"struct.std::_Vector_base.170" }
%"struct.std::_Vector_base.170" = type { %"struct.std::_Vector_base<std::shared_ptr<hermes::hbc::BCProviderFromBuffer>, std::allocator<std::shared_ptr<hermes::hbc::BCProviderFromBuffer>>>::_Vector_impl" }
%"struct.std::_Vector_base<std::shared_ptr<hermes::hbc::BCProviderFromBuffer>, std::allocator<std::shared_ptr<hermes::hbc::BCProviderFromBuffer>>>::_Vector_impl" = type { %"struct.std::_Vector_base<std::shared_ptr<hermes::hbc::BCProviderFromBuffer>, std::allocator<std::shared_ptr<hermes::hbc::BCProviderFromBuffer>>>::_Vector_impl_data" }
%"struct.std::_Vector_base<std::shared_ptr<hermes::hbc::BCProviderFromBuffer>, std::allocator<std::shared_ptr<hermes::hbc::BCProviderFromBuffer>>>::_Vector_impl_data" = type { ptr, ptr, ptr }
%"class.std::function.174" = type { %"class.std::_Function_base", ptr }
%"class.std::initializer_list" = type { ptr, i64 }
%"class.hermes::vm::CallResult.303" = type { %"class.hermes::vm::Handle.304" }
%"class.hermes::vm::Handle.304" = type { %"class.hermes::vm::HandleBase" }
%"class.hermes::vm::GCScope::Marker" = type <{ ptr, i32, [4 x i8] }>
%"class.hermes::vm::Handle.305" = type { %"class.hermes::vm::HandleBase" }
%"class.hermes::vm::ScopedNativeDepthTracker" = type <{ ptr, i8, [7 x i8] }>
%"class.hermes::vm::CallResult.202" = type { %"class.hermes::vm::Handle.203" }
%"class.hermes::vm::Handle.203" = type { %"class.hermes::vm::HandleBase" }
%"class.llvh::DenseMap.293" = type <{ ptr, i32, i32, i32, [4 x i8] }>
%"class.hermes::OptValue.296" = type <{ %"class.hermes::vm::SymbolID", i8, [3 x i8] }>
%"class.hermes::OptValue.220" = type <{ %"struct.hermes::hbc::DebugSourceLocation", i8, [3 x i8] }>
%"struct.hermes::hbc::DebugSourceLocation" = type { i32, i32, i32, i32, i32, i32, i32, i32 }
%"struct.std::pair.298" = type <{ %"class.llvh::DenseMapIterator", i8, [7 x i8] }>
%"class.llvh::DenseMapIterator" = type { ptr, ptr }
%"struct.std::pair.300" = type <{ ptr, i32, [4 x i8] }>
%"struct.hermes::vm::StackTraceInfo" = type <{ ptr, i32, [4 x i8] }>
%"class.std::__cxx11::basic_string.311" = type { %"struct.std::__cxx11::basic_string<char16_t>::_Alloc_hider", i64, %union.anon.315 }
%"struct.std::__cxx11::basic_string<char16_t>::_Alloc_hider" = type { ptr }
%union.anon.315 = type { i64, [8 x i8] }
%"class.std::reverse_iterator" = type { ptr }
%"class.hermes::vm::NativeArgs" = type { %"class.std::reverse_iterator", i32, ptr }
%"class.hermes::vm::PseudoHandle.198" = type { ptr }
%"class.hermes::vm::Handle.199" = type { %"class.hermes::vm::HandleBase" }
%"class.hermes::vm::Handle.200" = type { %"class.hermes::vm::HandleBase" }
%"class.hermes::vm::Handle.201" = type { %"class.hermes::vm::HandleBase" }
%"class.hermes::vm::MutableHandle.204" = type { %"class.hermes::vm::Handle.203" }
%"class.hermes::vm::CallResult.205" = type { %"class.hermes::vm::PseudoHandle.206" }
%"class.hermes::vm::PseudoHandle.206" = type { ptr }
%"class.hermes::SafeUInt32" = type <{ i64, i32, [4 x i8] }>
%"class.hermes::vm::CallResult.207" = type { %"class.llvh::Optional" }
%"class.llvh::Optional" = type { %"struct.llvh::optional_detail::OptionalStorage" }
%"struct.llvh::optional_detail::OptionalStorage" = type { %"struct.llvh::AlignedCharArrayUnion.208", i8, [7 x i8] }
%"struct.llvh::AlignedCharArrayUnion.208" = type { %"struct.llvh::AlignedCharArray.209" }
%"struct.llvh::AlignedCharArray.209" = type { [24 x i8] }
%"class.hermes::vm::StringBuilder" = type { %"class.hermes::vm::MutableHandle.204", i32, ptr }
%"class.llvh::ArrayRef.210" = type { ptr, i64 }
%"class.hermes::vm::StringPrimitive" = type { %"class.hermes::vm::VariableSizeRuntimeCell", i32 }
%"class.hermes::vm::VariableSizeRuntimeCell" = type { %"class.hermes::vm::GCCell" }
%"class.llvh::iterator_range" = type { %"class.hermes::vm::StackFrameIteratorT", %"class.hermes::vm::StackFrameIteratorT" }
%"class.hermes::vm::StackFrameIteratorT" = type { %"class.hermes::vm::StackFramePtrT" }
%"class.hermes::vm::MutableHandle.216" = type { %"class.hermes::vm::Handle.217" }
%"class.hermes::vm::Handle.217" = type { %"class.hermes::vm::HandleBase" }
%class.anon.218 = type { ptr, ptr }
%"class.__gnu_cxx::__normal_iterator.359" = type { ptr }
%"struct.std::_Vector_base.212" = type { %"struct.std::_Vector_base<hermes::vm::StackTraceInfo, std::allocator<hermes::vm::StackTraceInfo>>::_Vector_impl" }
%"struct.std::_Vector_base<hermes::vm::StackTraceInfo, std::allocator<hermes::vm::StackTraceInfo>>::_Vector_impl" = type { %"struct.std::_Vector_base<hermes::vm::StackTraceInfo, std::allocator<hermes::vm::StackTraceInfo>>::_Vector_impl_data" }
%"struct.std::_Vector_base<hermes::vm::StackTraceInfo, std::allocator<hermes::vm::StackTraceInfo>>::_Vector_impl_data" = type { ptr, ptr, ptr }
%"class.hermes::vm::GCScopeMarkerRAII" = type { ptr, %"class.hermes::vm::GCScope::Marker" }
%"class.hermes::vm::Handle.342" = type { %"class.hermes::vm::HandleBase" }
%"struct.hermes::vm::PropertyFlags" = type { %union.anon }
%union.anon = type { %struct.anon }
%struct.anon = type { i16 }
%"class.hermes::vm::CodeBlock" = type <{ ptr, %"class.hermes::hbc::RuntimeFunctionHeader", ptr, i32, i32, i32, [4 x i8] }>
%"class.hermes::hbc::RuntimeFunctionHeader" = type { ptr }
%"class.hermes::vm::RuntimeModule" = type { %"class.llvh::ilist_node", ptr, %"class.std::vector.267", %"class.hermes::vm::WeakRoot.272", %"class.std::vector.273", %"class.std::shared_ptr.278", %"union.hermes::vm::RuntimeModuleFlags", %"class.std::__cxx11::basic_string", i32, [4 x i8], %"class.llvh::DenseMap.282", %"class.llvh::DenseMap.285" }
%"class.llvh::ilist_node" = type { %"class.llvh::ilist_node_impl" }
%"class.std::vector.267" = type { %"struct.std::_Vector_base.268" }
%"struct.std::_Vector_base.268" = type { %"struct.std::_Vector_base<hermes::vm::RootSymbolID, std::allocator<hermes::vm::RootSymbolID>>::_Vector_impl" }
%"struct.std::_Vector_base<hermes::vm::RootSymbolID, std::allocator<hermes::vm::RootSymbolID>>::_Vector_impl" = type { %"struct.std::_Vector_base<hermes::vm::RootSymbolID, std::allocator<hermes::vm::RootSymbolID>>::_Vector_impl_data" }
%"struct.std::_Vector_base<hermes::vm::RootSymbolID, std::allocator<hermes::vm::RootSymbolID>>::_Vector_impl_data" = type { ptr, ptr, ptr }
%"class.hermes::vm::WeakRoot.272" = type { %"class.hermes::vm::WeakRootBase" }
%"class.std::vector.273" = type { %"struct.std::_Vector_base.274" }
%"struct.std::_Vector_base.274" = type { %"struct.std::_Vector_base<hermes::vm::CodeBlock *, std::allocator<hermes::vm::CodeBlock *>>::_Vector_impl" }
%"struct.std::_Vector_base<hermes::vm::CodeBlock *, std::allocator<hermes::vm::CodeBlock *>>::_Vector_impl" = type { %"struct.std::_Vector_base<hermes::vm::CodeBlock *, std::allocator<hermes::vm::CodeBlock *>>::_Vector_impl_data" }
%"struct.std::_Vector_base<hermes::vm::CodeBlock *, std::allocator<hermes::vm::CodeBlock *>>::_Vector_impl_data" = type { ptr, ptr, ptr }
%"class.std::shared_ptr.278" = type { %"class.std::__shared_ptr.279" }
%"class.std::__shared_ptr.279" = type { ptr, %"class.std::__shared_count" }
%"union.hermes::vm::RuntimeModuleFlags" = type { %struct.anon.281 }
%struct.anon.281 = type { i8 }
%"class.llvh::DenseMap.282" = type <{ ptr, i32, i32, i32, [4 x i8] }>
%"class.llvh::DenseMap.285" = type <{ ptr, i32, i32, i32, [4 x i8] }>
%"class.hermes::hbc::BCProviderBase" = type { ptr, %"union.hermes::hbc::BytecodeOptions", i32, i32, i32, %"class.llvh::ArrayRef.241", %"class.llvh::ArrayRef.242", %"class.llvh::ArrayRef.239", %"class.llvh::ArrayRef.239", %"class.llvh::ArrayRef.239", %"class.llvh::ArrayRef.239", %"class.llvh::ArrayRef.243", %"class.llvh::ArrayRef.239", %"class.llvh::ArrayRef.244", %"class.llvh::ArrayRef.239", i32, %"class.llvh::ArrayRef.245", %"class.llvh::ArrayRef.245", %"class.llvh::ArrayRef.245", ptr, %"class.std::__cxx11::basic_string" }
%"union.hermes::hbc::BytecodeOptions" = type { %struct.anon.240 }
%struct.anon.240 = type { i8 }
%"class.llvh::ArrayRef.241" = type { ptr, i64 }
%"class.llvh::ArrayRef.242" = type { ptr, i64 }
%"class.llvh::ArrayRef.243" = type { ptr, i64 }
%"class.llvh::ArrayRef.244" = type { ptr, i64 }
%"class.llvh::ArrayRef.239" = type { ptr, i64 }
%"class.llvh::ArrayRef.245" = type { ptr, i64 }
%"class.hermes::vm::GCHermesValueBase" = type { %"class.hermes::vm::HermesValue32" }
%"struct.llvh::detail::DenseMapPair" = type { %"struct.std::pair.base.302", [4 x i8] }
%"struct.std::pair.base.302" = type <{ ptr, i32 }>
%"class.hermes::hbc::DebugInfo" = type { %"class.std::vector.222", %"class.std::vector.227", %"class.llvh::SmallVector.232", i32, i32, i32, %"class.hermes::hbc::StreamVector" }
%"class.std::vector.222" = type { %"struct.std::_Vector_base.223" }
%"struct.std::_Vector_base.223" = type { %"struct.std::_Vector_base<hermes::StringTableEntry, std::allocator<hermes::StringTableEntry>>::_Vector_impl" }
%"struct.std::_Vector_base<hermes::StringTableEntry, std::allocator<hermes::StringTableEntry>>::_Vector_impl" = type { %"struct.std::_Vector_base<hermes::StringTableEntry, std::allocator<hermes::StringTableEntry>>::_Vector_impl_data" }
%"struct.std::_Vector_base<hermes::StringTableEntry, std::allocator<hermes::StringTableEntry>>::_Vector_impl_data" = type { ptr, ptr, ptr }
%"class.std::vector.227" = type { %"struct.std::_Vector_base.228" }
%"struct.std::_Vector_base.228" = type { %"struct.std::_Vector_base<unsigned char, std::allocator<unsigned char>>::_Vector_impl" }
%"struct.std::_Vector_base<unsigned char, std::allocator<unsigned char>>::_Vector_impl" = type { %"struct.std::_Vector_base<unsigned char, std::allocator<unsigned char>>::_Vector_impl_data" }
%"struct.std::_Vector_base<unsigned char, std::allocator<unsigned char>>::_Vector_impl_data" = type { ptr, ptr, ptr }
%"class.llvh::SmallVector.232" = type <{ %"class.llvh::SmallVectorImpl.233", %"struct.llvh::SmallVectorStorage.236", [4 x i8] }>
%"class.llvh::SmallVectorImpl.233" = type { %"class.llvh::SmallVectorTemplateBase.234" }
%"class.llvh::SmallVectorTemplateBase.234" = type { %"class.llvh::SmallVectorTemplateCommon.235" }
%"class.llvh::SmallVectorTemplateCommon.235" = type { %"class.llvh::SmallVectorBase" }
%"struct.llvh::SmallVectorStorage.236" = type { [1 x %"struct.llvh::AlignedCharArrayUnion.237"] }
%"struct.llvh::AlignedCharArrayUnion.237" = type { %"struct.llvh::AlignedCharArray.238" }
%"struct.llvh::AlignedCharArray.238" = type { [12 x i8] }
%"class.hermes::hbc::StreamVector" = type { %"class.std::vector.227", %"class.llvh::ArrayRef.239" }
%"class.hermes::vm::PseudoHandle.308" = type { ptr }
%"class.hermes::vm::JSObjectAndDirectProps" = type { %"class.hermes::vm::JSObject", [5 x %"class.hermes::vm::GCHermesValueBase"] }
%"class.std::allocator.312" = type { i8 }
%struct._Guard = type { ptr }
%"class.hermes::vm::ExternalStringPrimitive" = type { %"class.hermes::vm::SymbolStringPrimitive", %"class.std::__cxx11::basic_string" }
%"class.hermes::vm::SymbolStringPrimitive" = type { %"class.hermes::vm::StringPrimitive", %"class.hermes::vm::SymbolID" }
%"class.hermes::vm::DynamicStringPrimitive" = type { %"class.hermes::vm::SymbolStringPrimitive" }
%"class.hermes::vm::DynamicStringPrimitive.320" = type { %"class.hermes::vm::StringPrimitive" }
%"class.hermes::vm::BufferedStringPrimitive" = type { %"class.hermes::vm::StringPrimitive", %"class.hermes::vm::GCHermesValueBase.324" }
%"class.hermes::vm::GCHermesValueBase.324" = type { %"class.hermes::vm::HermesValue" }
%"class.hermes::vm::ExternalStringPrimitive.327" = type { %"class.hermes::vm::SymbolStringPrimitive", %"class.std::__cxx11::basic_string.311" }
%"class.hermes::vm::DynamicStringPrimitive.328" = type { %"class.hermes::vm::SymbolStringPrimitive" }
%"class.hermes::vm::DynamicStringPrimitive.334" = type { %"class.hermes::vm::StringPrimitive" }
%"class.hermes::vm::BufferedStringPrimitive.341" = type { %"class.hermes::vm::StringPrimitive", %"class.hermes::vm::GCHermesValueBase.324" }
%"class.hermes::vm::ArrayStorageBase" = type { %"class.hermes::vm::VariableSizeRuntimeCell", %"struct.std::atomic.291" }
%"struct.std::atomic.291" = type { %"struct.std::__atomic_base.292" }
%"struct.std::__atomic_base.292" = type { i32 }
%class.anon.348 = type { i8 }
%"struct.hermes::vm::AllocResult" = type { ptr, i8 }
%"class.hermes::vm::BoxedDouble" = type { %"class.hermes::vm::GCCell", double }
%"class.hermes::StringTableEntry" = type { i32, i32 }
%"class.std::allocator.28" = type { i8 }
%"class.hermes::vm::JSFunction" = type <{ %"class.hermes::vm::Callable", %"class.hermes::vm::XorPtr", %"class.hermes::vm::GCPointer.357", [4 x i8] }>
%"class.hermes::vm::Callable" = type { %"class.hermes::vm::JSObject", %"class.hermes::vm::GCPointer.356" }
%"class.hermes::vm::GCPointer.356" = type { %"class.hermes::vm::GCPointerBase" }
%"class.hermes::vm::XorPtr" = type { i64 }
%"class.hermes::vm::GCPointer.357" = type { %"class.hermes::vm::GCPointerBase" }
%"class.hermes::vm::BoundFunction" = type { %"class.hermes::vm::Callable", %"class.hermes::vm::GCPointer.358", %"class.hermes::vm::GCPointer.343" }
%"class.hermes::vm::GCPointer.358" = type { %"class.hermes::vm::GCPointerBase" }
%"class.hermes::vm::GCPointer.343" = type { %"class.hermes::vm::GCPointerBase" }
%"class.hermes::vm::GCBase" = type <{ ptr, i32, [4 x i8], i64, %"class.hermes::vm::GCExecTrace", [7 x i8], ptr, ptr, %"class.std::shared_ptr.20", i32, [4 x i8], %"class.std::function", %"class.std::vector", i8, i8, i8, i8, [4 x i8], %"class.std::chrono::time_point", %"class.std::chrono::duration.26", i64, i64, %"struct.hermes::vm::GCBase::CumulativeHeapStats", %"class.std::__cxx11::basic_string", %"class.std::deque", ptr, %"class.std::recursive_mutex", %"class.hermes::vm::GCBase::IDTracker", [3 x i64], %"class.std::function.44", i32, i8, [3 x i8] }>
%"class.__gnu_cxx::__normal_iterator" = type { ptr }

$_ZN6hermes2vm8Metadata7Builder23addJSObjectOverlapSlotsEj = comdat any

$_ZN6hermes2vm8JSObject15numOverlapSlotsINS0_7JSErrorEEEjv = comdat any

$_ZN6hermes2vm8Metadata7Builder9setVTableEPKNS0_6VTableE = comdat any

$_ZNK6hermes2vm6HandleINS0_8JSObjectEEcvbEv = comdat any

$_ZN6hermes2vm23NamedPropertyDescriptorC2Ev = comdat any

$_ZN6hermes2vm8JSObject21getOwnNamedDescriptorENS0_6HandleIS1_EERNS0_7RuntimeENS0_8SymbolIDERNS0_23NamedPropertyDescriptorE = comdat any

$_ZN6hermes2vm10Predefined11getSymbolIDENS1_5IPropE = comdat any

$_ZN6hermes2vm8JSObject23getNamedSlotValueUnsafeEPS1_RNS0_11PointerBaseENS0_23NamedPropertyDescriptorE = comdat any

$_ZNK6hermes2vm6HandleINS0_8JSObjectEEdeEv = comdat any

$_ZN6hermes2vm15HandleRootOwner10makeHandleINS0_7JSErrorEEENS0_6HandleIT_EEPS5_ = comdat any

$_ZN6hermes2vm6vmcastINS0_7JSErrorEEEPT_PNS0_6GCCellE = comdat any

$_ZNK6hermes2vm13HermesValue329getObjectERNS0_11PointerBaseE = comdat any

$_ZN6hermes2vm10CallResultINS0_6HandleINS0_7JSErrorEEELNS0_6detail20CallResultSpecializeE4EEC2ES4_ = comdat any

$_ZN6hermes2vm5vmisaINS0_7JSErrorEEEbPNS0_6GCCellE = comdat any

$_ZN6hermes2vm6HandleINS0_7JSErrorEE6vmcastERKNS0_10HandleBaseE = comdat any

$_ZN6hermes2vm11TwineChar16C2EPKc = comdat any

$_ZN6hermes2vm10CallResultINS0_6HandleINS0_7JSErrorEEELNS0_6detail20CallResultSpecializeE4EEC2ENS0_15ExecutionStatusE = comdat any

$_ZN6hermes2vm7GCScopeC2ERNS0_15HandleRootOwnerEPKcj = comdat any

$_ZNK6hermes2vm10NativeArgs11dyncastThisINS0_8JSObjectEEENS0_6HandleIT_EEv = comdat any

$_ZN6hermes2vmeqINS0_6HandleINS0_7JSErrorEEEEEbRKNS0_10CallResultIT_Xsr6detail23GetCallResultSpecializeIS6_EE5valueEEENS0_15ExecutionStatusE = comdat any

$_ZN6hermes2vm10CallResultINS0_11HermesValueELNS0_6detail20CallResultSpecializeE2EEC2ENS0_15ExecutionStatusE = comdat any

$_ZN6hermes2vm10CallResultINS0_6HandleINS0_7JSErrorEEELNS0_6detail20CallResultSpecializeE4EEdeEv = comdat any

$_ZNK6hermes2vm6HandleINS0_7JSErrorEEptEv = comdat any

$_ZNKSt10unique_ptrISt6vectorIN6hermes2vm14StackTraceInfoESaIS3_EESt14default_deleteIS5_EEcvbEv = comdat any

$_ZN6hermes2vm11HermesValue17encodeStringValueEPKNS0_15StringPrimitiveE = comdat any

$_ZN6hermes2vm7Runtime19getPredefinedStringENS0_10Predefined3StrE = comdat any

$_ZN6hermes2vm10CallResultINS0_11HermesValueELNS0_6detail20CallResultSpecializeE2EEC2ES2_ = comdat any

$_ZN6hermes2vm24ScopedNativeDepthReducerC2ERNS0_7RuntimeE = comdat any

$_ZN6hermes2vm12SmallXStringIDsLj32EEC2Ev = comdat any

$_ZN6hermes2vm6HandleINS0_8JSObjectEE6vmcastEPKNS0_17PinnedHermesValueE = comdat any

$_ZN6hermes2vm8JSObject12getNamed_RJSENS0_6HandleIS1_EERNS0_7RuntimeENS0_8SymbolIDENS0_11PropOpFlagsEPNS0_18PropertyCacheEntryE = comdat any

$_ZN6hermes2vm10Predefined11getSymbolIDENS1_3StrE = comdat any

$_ZN6hermes2vm11PropOpFlagsC2Ev = comdat any

$_ZNK6hermes2vm11PropOpFlags16plusThrowOnErrorEv = comdat any

$_ZN6hermes2vmeqINS0_12PseudoHandleINS0_11HermesValueEEEEEbRKNS0_10CallResultIT_Xsr6detail23GetCallResultSpecializeIS6_EE5valueEEENS0_15ExecutionStatusE = comdat any

$_ZN6hermes2vm17HermesValueTraitsINS0_11HermesValueELb0EE12defaultValueEv = comdat any

$_ZN6hermes2vm13MutableHandleINS0_11HermesValueEEC2ERNS0_15HandleRootOwnerES2_ = comdat any

$_ZN6hermes2vm6HandleINS0_8CallableEE10dyn_vmcastERKNS0_10HandleBaseE = comdat any

$_ZN6hermes2vm15HandleRootOwner10makeHandleINS0_11HermesValueEEENS0_6HandleIT_EEONS0_12PseudoHandleIS5_EE = comdat any

$_ZN6hermes2vm10CallResultINS0_12PseudoHandleINS0_11HermesValueEEELNS0_6detail20CallResultSpecializeE5EEdeEv = comdat any

$_ZNK6hermes2vm6HandleINS0_8CallableEEcvbEv = comdat any

$_ZNK6hermes2vm7Runtime20formattingStackTraceEv = comdat any

$_ZN6hermes2vm7Runtime23setFormattingStackTraceEb = comdat any

$_ZN6hermes2vmeqINS0_11HermesValueEEEbRKNS0_10CallResultIT_Xsr6detail23GetCallResultSpecializeIS4_EE5valueEEENS0_15ExecutionStatusE = comdat any

$_ZN6hermes2vm15HandleRootOwner12getNullValueEv = comdat any

$_ZNK6hermes2vm10HandleBase14getHermesValueEv = comdat any

$_ZNK6hermes2vm10CallResultINS0_11HermesValueELNS0_6detail20CallResultSpecializeE2EEdeEv = comdat any

$_ZN6hermes2vm13MutableHandleINS0_11HermesValueEEaSEONS0_12PseudoHandleIS2_EE = comdat any

$_ZN6hermes2vm15StringPrimitive6createERNS0_7RuntimeEN4llvh8ArrayRefIDsEE = comdat any

$_ZN4llvh8ArrayRefIDsEC2IvEERKNS_25SmallVectorTemplateCommonIDsT_EE = comdat any

$_ZN6hermes2vm13MutableHandleINS0_11HermesValueEEaSES2_ = comdat any

$_ZN6hermes2vm7Runtime16clearThrownValueEv = comdat any

$_ZN6hermes2vm19DefinePropertyFlags24getNewNonEnumerableFlagsEv = comdat any

$_ZN6hermes2vmeqIbEEbRKNS0_10CallResultIT_Xsr6detail23GetCallResultSpecializeIS3_EE5valueEEENS0_15ExecutionStatusE = comdat any

$_ZN6hermes2vm8JSObject17defineOwnPropertyENS0_6HandleIS1_EERNS0_7RuntimeENS0_8SymbolIDENS0_19DefinePropertyFlagsENS2_INS0_11HermesValueEEENS0_11PropOpFlagsE = comdat any

$_ZNK6hermes2vm6HandleINS0_11HermesValueEEdeEv = comdat any

$_ZN6hermes2vm12SmallXStringIDsLj32EED2Ev = comdat any

$_ZN6hermes2vm24ScopedNativeDepthReducerD2Ev = comdat any

$_ZNK6hermes2vm10NativeArgs13getThisHandleEv = comdat any

$_ZN6hermes2vm15HandleRootOwner10makeHandleINS0_8JSObjectEEENS0_6HandleIT_EENS0_11HermesValueE = comdat any

$_ZNK6hermes2vm10CallResultINS0_11HermesValueELNS0_6detail20CallResultSpecializeE2EE8getValueEv = comdat any

$_ZNK6hermes2vm10NativeArgs12getArgHandleEj = comdat any

$_ZN6hermes2vm11HermesValue20encodeUndefinedValueEv = comdat any

$_ZN6hermes2vm7Runtime10makeAFixedINS0_7JSErrorELNS0_12HasFinalizerE1ELNS0_9LongLivedE0EJRS1_RNS0_6HandleINS0_8JSObjectEEENS7_INS0_11HiddenClassEEERbEEEPT_DpOT2_ = comdat any

$_ZN6hermes2vm7Runtime26getHiddenClassForPrototypeEPNS0_8JSObjectEj = comdat any

$_ZNK6hermes2vm11HermesValue11isUndefinedEv = comdat any

$_ZN6hermes2vm15HandleRootOwner14makeNullHandleINS0_8JSObjectEEENS0_6HandleIT_EEv = comdat any

$_ZN6hermes2vm6HandleINS0_8CallableEEC2INS0_14NativeFunctionEvEERKNS1_IT_EE = comdat any

$_ZN6hermes2vm17PinnedHermesValueaSERKNS0_11HermesValueE = comdat any

$_ZN6hermes2vm6HandleINS0_16PropertyAccessorEE6vmcastEPKNS0_17PinnedHermesValueE = comdat any

$_ZN6hermes2vm19DefinePropertyFlagsC2Ev = comdat any

$_ZN6hermes2vm6HandleINS0_11HermesValueEEC2INS0_16PropertyAccessorEvEERKNS1_IT_EE = comdat any

$_ZN6hermes2vm10CallResultINS0_6HandleINS0_15StringPrimitiveEEELNS0_6detail20CallResultSpecializeE4EEC2ENS0_15ExecutionStatusE = comdat any

$_ZN6hermes2vm16StringTraitsImplINS0_15StringPrimitiveEE12defaultValueEv = comdat any

$_ZN6hermes2vm13MutableHandleINS0_15StringPrimitiveEEC2ERNS0_15HandleRootOwnerEPS2_ = comdat any

$_ZNK6hermes2vm6HandleINS0_11HermesValueEEptEv = comdat any

$_ZN6hermes2vm13MutableHandleINS0_15StringPrimitiveEEaSEPS2_ = comdat any

$_ZN6hermes2vmeqINS0_12PseudoHandleINS0_15StringPrimitiveEEEEEbRKNS0_10CallResultIT_Xsr6detail23GetCallResultSpecializeIS6_EE5valueEEENS0_15ExecutionStatusE = comdat any

$_ZN6hermes2vm10CallResultINS0_12PseudoHandleINS0_15StringPrimitiveEEELNS0_6detail20CallResultSpecializeE6EEptEv = comdat any

$_ZNK6hermes2vm12PseudoHandleINS0_15StringPrimitiveEE3getEv = comdat any

$_ZNK6hermes2vm6HandleINS0_15StringPrimitiveEEptEv = comdat any

$_ZNK6hermes2vm15StringPrimitive15getStringLengthEv = comdat any

$_ZN6hermes2vm10CallResultINS0_6HandleINS0_15StringPrimitiveEEELNS0_6detail20CallResultSpecializeE4EEC2ES4_ = comdat any

$_ZN6hermes10SafeUInt32C2Ej = comdat any

$_ZN6hermes10SafeUInt323addEj = comdat any

$_ZN6hermes2vm13StringBuilder19createStringBuilderERNS0_7RuntimeENS_10SafeUInt32Eb = comdat any

$_ZN6hermes2vmeqINS0_13StringBuilderEEEbRKNS0_10CallResultIT_Xsr6detail23GetCallResultSpecializeIS4_EE5valueEEENS0_15ExecutionStatusE = comdat any

$_ZN6hermes2vm10CallResultINS0_13StringBuilderELNS0_6detail20CallResultSpecializeE0EEdeEv = comdat any

$_ZN6hermes2vm13StringBuilderC2EOS1_ = comdat any

$_ZN6hermes2vm13StringBuilder16appendStringPrimENS0_6HandleINS0_15StringPrimitiveEEE = comdat any

$_ZN6hermes2vm13StringBuilder14appendASCIIRefEN4llvh8ArrayRefIcEE = comdat any

$_ZN4llvh8ArrayRefIcEC2EPKcm = comdat any

$_ZNK6hermes2vm13StringBuilder18getStringPrimitiveEv = comdat any

$_ZN6hermes2vm10CallResultINS0_13StringBuilderELNS0_6detail20CallResultSpecializeE0EED2Ev = comdat any

$_ZN6hermes2vm6HandleINS0_15StringPrimitiveEE10dyn_vmcastERKNS0_10HandleBaseE = comdat any

$_ZNK6hermes2vm6HandleINS0_15StringPrimitiveEEcvbEv = comdat any

$_ZN6hermes2vm15HandleRootOwner10makeHandleINS0_15StringPrimitiveEEENS0_6HandleIT_EEONS0_12PseudoHandleIS5_EE = comdat any

$_ZN6hermes2vm10CallResultINS0_12PseudoHandleINS0_15StringPrimitiveEEELNS0_6detail20CallResultSpecializeE6EEdeEv = comdat any

$_ZN6hermes2vm6HandleINS0_8JSObjectEEC2INS0_7JSErrorEvEERKNS1_IT_EE = comdat any

$_ZN6hermes2vm6HandleINS0_11HermesValueEEC2INS0_15StringPrimitiveEvEERKNS1_IT_EE = comdat any

$_ZNK6hermes2vm10CallResultIbLNS0_6detail20CallResultSpecializeE1EE9getStatusEv = comdat any

$_ZN6hermes2vm7Runtime14getStackFramesEv = comdat any

$_ZNK4llvh14iterator_rangeIN6hermes2vm19StackFrameIteratorTILb0EEEE5beginEv = comdat any

$_ZNK6hermes2vm19StackFrameIteratorTILb0EEneES2_ = comdat any

$_ZNK4llvh14iterator_rangeIN6hermes2vm19StackFrameIteratorTILb0EEEE3endEv = comdat any

$_ZNK6hermes2vm19StackFrameIteratorTILb0EEptEv = comdat any

$_ZNK6hermes2vm14StackFramePtrTILb0EE18getCalleeCodeBlockERNS0_7RuntimeE = comdat any

$_ZNSt6vectorIN6hermes2vm14StackTraceInfoESaIS2_EEC2Ev = comdat any

$_ZNSt10unique_ptrISt6vectorIN6hermes2vm14StackTraceInfoESaIS3_EESt14default_deleteIS5_EEC2IS7_vEEPS5_ = comdat any

$_ZN6hermes2vm16ArrayStorageBaseINS0_13HermesValue32EE6createERNS0_7RuntimeEj = comdat any

$_ZN6hermes2vm15HandleRootOwner17makeMutableHandleINS0_16ArrayStorageBaseINS0_13HermesValue32EEEEENS0_13MutableHandleIT_EEPS7_ = comdat any

$_ZN6hermes2vm6vmcastINS0_16ArrayStorageBaseINS0_13HermesValue32EEEEEPT_NS0_11HermesValueE = comdat any

$_ZNKSt10unique_ptrISt6vectorIN6hermes2vm14StackTraceInfoESaIS3_EESt14default_deleteIS5_EEptEv = comdat any

$_ZNSt6vectorIN6hermes2vm14StackTraceInfoESaIS2_EE12emplace_backIJRPNS1_9CodeBlockEjEEERS2_DpOT_ = comdat any

$_ZNK6hermes2vm9CodeBlock11getOffsetOfEPKNS_4inst4InstE = comdat any

$_ZNSt6vectorIN6hermes2vm14StackTraceInfoESaIS2_EE12emplace_backIJDniEEERS2_DpOT_ = comdat any

$_ZNK6hermes2vm19StackFrameIteratorTILb0EEdeEv = comdat any

$_ZNK6hermes2vm14StackFramePtrTILb0EE17getSavedCodeBlockEv = comdat any

$_ZNK6hermes2vm14StackFramePtrTILb0EE10getSavedIPEv = comdat any

$_ZNK6hermes2vm14StackFramePtrTILb0EE16getPreviousFrameEv = comdat any

$_ZN6hermes2vm19StackFrameIteratorTILb0EEppEv = comdat any

$_ZN6hermes2vm9GCPointerINS0_16ArrayStorageBaseINS0_13HermesValue32EEEE3setERNS0_11PointerBaseEPS4_RNS0_7HadesGCE = comdat any

$_ZNK6hermes2vm6HandleINS0_16ArrayStorageBaseINS0_13HermesValue32EEEE3getEv = comdat any

$_ZN6hermes2vm7Runtime7getHeapEv = comdat any

$_ZNSt6vectorIN6hermes2vm14StackTraceInfoESaIS2_EE8pop_backEv = comdat any

$_ZNKSt6vectorIN6hermes2vm14StackTraceInfoESaIS2_EE4sizeEv = comdat any

$_ZNSt10unique_ptrISt6vectorIN6hermes2vm14StackTraceInfoESaIS3_EESt14default_deleteIS5_EEaSEOS8_ = comdat any

$_ZNK6hermes2vm6HandleINS0_16ArrayStorageBaseINS0_13HermesValue32EEEEdeEv = comdat any

$_ZNSt10unique_ptrISt6vectorIN6hermes2vm14StackTraceInfoESaIS3_EESt14default_deleteIS5_EED2Ev = comdat any

$_ZNK6hermes8OptValueIjE8hasValueEv = comdat any

$_ZN6hermes8OptValueINS_3hbc19DebugSourceLocationEEC2EN4llvh8NoneTypeE = comdat any

$_ZNK6hermes2vm9CodeBlock16getRuntimeModuleEv = comdat any

$_ZN6hermes2vm13RuntimeModule11getBytecodeEv = comdat any

$_ZNK6hermes3hbc14BCProviderBase12getDebugInfoEv = comdat any

$_ZNK6hermes8OptValueIjE8getValueEv = comdat any

$_ZN6hermes2vm7Runtime18getIdentifierTableEv = comdat any

$_ZNK6hermes2vm17CompressedPointercvbEv = comdat any

$_ZN6hermes2vm10dyn_vmcastINS0_15StringPrimitiveEEEPT_NS0_11HermesValueE = comdat any

$_ZNK6hermes2vm9GCPointerINS0_16ArrayStorageBaseINS0_13HermesValue32EEEE10getNonNullERNS0_11PointerBaseE = comdat any

$_ZNK6hermes2vm16ArrayStorageBaseINS0_13HermesValue32EE2atILNS3_6InlineE0EEES2_j = comdat any

$_ZNK6hermes2vm13HermesValue329unboxToHVERNS0_11PointerBaseE = comdat any

$_ZNSt6vectorIN6hermes2vm14StackTraceInfoESaIS2_EE2atEm = comdat any

$_ZN6hermes2vm15HandleRootOwner14makeNullHandleINS0_15StringPrimitiveEEENS0_6HandleIT_EEv = comdat any

$_ZN6hermes2vm24ScopedNativeDepthTrackerC2ERNS0_7RuntimeE = comdat any

$_ZNK6hermes2vm24ScopedNativeDepthTracker10overflowedEv = comdat any

$_ZN6hermes2vmeqINS0_6HandleINS0_15StringPrimitiveEEEEEbRKNS0_10CallResultIT_Xsr6detail23GetCallResultSpecializeIS6_EE5valueEEENS0_15ExecutionStatusE = comdat any

$_ZNK6hermes2vm7Runtime14getThrownValueEv = comdat any

$_ZNK6hermes2vm11HermesValue8isObjectEv = comdat any

$_ZN6hermes2vm12SmallXStringIDsLj32EE6appendEPKDs = comdat any

$_ZN6hermes2vm10CallResultINS0_6HandleINS0_15StringPrimitiveEEELNS0_6detail20CallResultSpecializeE4EEptEv = comdat any

$_ZNK6hermes2vm6HandleINS0_15StringPrimitiveEE3getEv = comdat any

$_ZN4llvh8DenseMapIPKN6hermes2vm9CodeBlockEjNS_12DenseMapInfoIS5_EENS_6detail12DenseMapPairIS5_jEEEC2Ej = comdat any

$_ZNK6hermes2vm7GCScope12createMarkerEv = comdat any

$_ZN6hermes2vm12SmallXStringIDsLj32EE6appendEN4llvh9StringRefE = comdat any

$_ZN6hermes2vm7GCScope13flushToMarkerENS1_6MarkerE = comdat any

$_ZN6hermes8OptValueINS_2vm8SymbolIDEEC2Ev = comdat any

$_ZNK6hermes8OptValueINS_3hbc19DebugSourceLocationEEcvbEv = comdat any

$_ZNK6hermes8OptValueINS_3hbc19DebugSourceLocationEEptEv = comdat any

$_ZN4llvh12DenseMapBaseINS_8DenseMapIPKN6hermes2vm9CodeBlockEjNS_12DenseMapInfoIS6_EENS_6detail12DenseMapPairIS6_jEEEES6_jS8_SB_E6insertEOSt4pairIS6_jE = comdat any

$_ZNSt4pairIPKN6hermes2vm9CodeBlockEjEC2IRKPS2_iTnNSt9enable_ifIXaaclsr5_PCCPE22_MoveConstructiblePairIT_T0_EEclsr5_PCCPE30_ImplicitlyMoveConvertiblePairISB_SC_EEEbE4typeELb1EEEOSB_OSC_ = comdat any

$_ZNK4llvh16DenseMapIteratorIPKN6hermes2vm9CodeBlockEjNS_12DenseMapInfoIS5_EENS_6detail12DenseMapPairIS5_jEELb0EEptEv = comdat any

$_ZNK6hermes3hbc14BCProviderBase12getSegmentIDEv = comdat any

$_ZNK6hermes3hbc9DebugInfo15getFilenameByIDB5cxx11Ej = comdat any

$_ZNK6hermes2vm13RuntimeModule12getSourceURLEv = comdat any

$_ZN4llvh23SmallVectorTemplateBaseIDsLb1EE9push_backERKDs = comdat any

$_ZN4llvh8DenseMapIPKN6hermes2vm9CodeBlockEjNS_12DenseMapInfoIS5_EENS_6detail12DenseMapPairIS5_jEEED2Ev = comdat any

$_ZN6hermes2vm24ScopedNativeDepthTrackerD2Ev = comdat any

$_ZN6hermes2vmeqINS0_6HandleINS0_7JSArrayEEEEEbRKNS0_10CallResultIT_Xsr6detail23GetCallResultSpecializeIS6_EE5valueEEENS0_15ExecutionStatusE = comdat any

$_ZN6hermes2vm10CallResultINS0_6HandleINS0_7JSArrayEEELNS0_6detail20CallResultSpecializeE4EEdeEv = comdat any

$_ZN6hermes2vm15HandleRootOwner10makeHandleENS0_11HermesValueE = comdat any

$_ZN6hermes2vm9ArrayImpl12setElementAtENS0_6HandleIS1_EERNS0_7RuntimeEjNS2_INS0_11HermesValueEEE = comdat any

$_ZN6hermes2vm6HandleINS0_9ArrayImplEEC2INS0_7JSArrayEvEERKNS1_IT_EE = comdat any

$_ZN6hermes2vm7JSArray17setLengthPropertyENS0_6HandleIS1_EERNS0_7RuntimeEjNS0_11PropOpFlagsE = comdat any

$_ZN6hermes2vm7JSErrorD2Ev = comdat any

$_ZNKSt10unique_ptrISt6vectorIN6hermes2vm14StackTraceInfoESaIS3_EESt14default_deleteIS5_EE3getEv = comdat any

$_ZNKSt6vectorIN6hermes2vm14StackTraceInfoESaIS2_EE8capacityEv = comdat any

$_ZNK6hermes8OptValueIjEcvbEv = comdat any

$_ZN6hermes8OptValueIjEC2ERKj = comdat any

$_ZN4llvh7alignToILm4EEEmm = comdat any

$_ZN6hermes2vm8JSObject17directPropsOffsetEv = comdat any

$_ZSt3minImERKT_S2_S2_ = comdat any

$_ZN6hermes2vm18PropertyDescriptorC2Ev = comdat any

$_ZN6hermes2vm8JSObject12findPropertyENS0_6HandleIS1_EERNS0_7RuntimeENS0_8SymbolIDERNS0_23NamedPropertyDescriptorE = comdat any

$_ZNK6hermes8OptValueINS_2vm15DictPropertyMap11PropertyPosEE8hasValueEv = comdat any

$_ZN6hermes2vm8JSObject12findPropertyENS0_6HandleIS1_EERNS0_7RuntimeENS0_8SymbolIDENS0_13PropertyFlagsERNS0_23NamedPropertyDescriptorE = comdat any

$_ZN6hermes2vm13PropertyFlags7invalidEv = comdat any

$_ZN6hermes2vm18createPseudoHandleINS0_11HiddenClassEEENS0_12PseudoHandleIT_EEPS4_ = comdat any

$_ZNK6hermes2vm6HandleINS0_8JSObjectEEptEv = comdat any

$_ZNK6hermes2vm9GCPointerINS0_11HiddenClassEE10getNonNullERNS0_11PointerBaseE = comdat any

$_ZN6hermes2vm12PseudoHandleINS0_11HiddenClassEE6createEPS2_ = comdat any

$_ZN6hermes2vm12PseudoHandleINS0_11HiddenClassEEC2EPS2_ = comdat any

$_ZN6hermes2vm17HermesValueTraitsINS0_8JSObjectELb1EE5arrowERKNS0_11HermesValueE = comdat any

$_ZNK6hermes2vm10HandleBase9handleRefEv = comdat any

$_ZN6hermes2vm17HermesValueTraitsINS0_8JSObjectELb1EE6decodeENS0_11HermesValueE = comdat any

$_ZNK6hermes2vm11HermesValue9getObjectEv = comdat any

$_ZNK6hermes2vm11HermesValue10getPointerEv = comdat any

$_ZN6hermes2vm6vmcastINS0_11HiddenClassEEEPT_PNS0_6GCCellE = comdat any

$_ZNK6hermes2vm17CompressedPointer10getNonNullERNS0_11PointerBaseE = comdat any

$_ZN4llvh4castIN6hermes2vm11HiddenClassENS2_6GCCellEEENS_10cast_rettyIT_PT0_E8ret_typeES8_ = comdat any

$_ZN4llvh16cast_convert_valIN6hermes2vm11HiddenClassEPNS2_6GCCellES5_E4doitERKS5_ = comdat any

$_ZNK6hermes2vm11PointerBase21basedToPointerNonNullENS0_12BasedPointerE = comdat any

$_ZNK6hermes2vm12BasedPointer11getRawValueEv = comdat any

$_ZN6hermes2vm13PropertyFlagsC2Ev = comdat any

$_ZN6hermes2vm8SymbolID22unsafeCreateNotUniquedEj = comdat any

$_ZN6hermes2vm8SymbolIDC2Ej = comdat any

$_ZN6hermes2vm8JSObject23getNamedSlotValueUnsafeILNS0_16ArrayStorageBaseINS0_13HermesValue32EE6InlineE0EEES4_PS1_RNS0_11PointerBaseEj = comdat any

$_ZN6hermes2vm8JSObject11directPropsEv = comdat any

$_ZN6hermes2vm17CompressedPointer7fromRawEj = comdat any

$_ZNK6hermes2vm17CompressedPointer3getERNS0_11PointerBaseE = comdat any

$_ZN6hermes2vm17CompressedPointerC2Ej = comdat any

$_ZN6hermes2vm17CompressedPointer16rawToStorageTypeEj = comdat any

$_ZN6hermes2vm12BasedPointerC2Ej = comdat any

$_ZN6hermes2vm17CompressedPointer20storageTypeToPointerENS0_12BasedPointerERNS0_11PointerBaseE = comdat any

$_ZNK6hermes2vm11PointerBase14basedToPointerENS0_12BasedPointerE = comdat any

$_ZNK6hermes2vm12BasedPointercvbEv = comdat any

$_ZN6hermes2vm11TwineChar16C2EN4llvh9StringRefE = comdat any

$_ZNK4llvh9StringRef5beginEv = comdat any

$_ZN4llvh11SmallVectorIPN6hermes2vm17PinnedHermesValueELj4EEC2ESt16initializer_listIS4_E = comdat any

$_ZN4llvh15SmallVectorImplIPN6hermes2vm17PinnedHermesValueEEC2Ej = comdat any

$_ZN4llvh15SmallVectorImplIPN6hermes2vm17PinnedHermesValueEE6assignESt16initializer_listIS4_E = comdat any

$_ZN4llvh23SmallVectorTemplateBaseIPN6hermes2vm17PinnedHermesValueELb1EEC2Em = comdat any

$_ZN4llvh25SmallVectorTemplateCommonIPN6hermes2vm17PinnedHermesValueEvEC2Em = comdat any

$_ZNK4llvh25SmallVectorTemplateCommonIPN6hermes2vm17PinnedHermesValueEvE10getFirstElEv = comdat any

$_ZN4llvh15SmallVectorBaseC2EPvm = comdat any

$_ZN4llvh15SmallVectorImplIPN6hermes2vm17PinnedHermesValueEE5clearEv = comdat any

$_ZN4llvh15SmallVectorImplIPN6hermes2vm17PinnedHermesValueEE6appendESt16initializer_listIS4_E = comdat any

$_ZN4llvh23SmallVectorTemplateBaseIPN6hermes2vm17PinnedHermesValueELb1EE13destroy_rangeEPS4_S6_ = comdat any

$_ZNK4llvh15SmallVectorBase4sizeEv = comdat any

$_ZN4llvh15SmallVectorImplIPN6hermes2vm17PinnedHermesValueEE6appendIPKS4_vEEvT_S9_ = comdat any

$_ZNKSt16initializer_listIPN6hermes2vm17PinnedHermesValueEE5beginEv = comdat any

$_ZNKSt16initializer_listIPN6hermes2vm17PinnedHermesValueEE3endEv = comdat any

$_ZSt8distanceIPKPN6hermes2vm17PinnedHermesValueEENSt15iterator_traitsIT_E15difference_typeES7_S7_ = comdat any

$_ZNK4llvh15SmallVectorBase8capacityEv = comdat any

$_ZN4llvh23SmallVectorTemplateBaseIPN6hermes2vm17PinnedHermesValueELb1EE4growEm = comdat any

$_ZN4llvh23SmallVectorTemplateBaseIPN6hermes2vm17PinnedHermesValueELb1EE18uninitialized_copyIKS4_S4_EEvPT_S9_PT0_PNSt9enable_ifIXsr3std7is_sameINSt12remove_constIS8_E4typeESA_EE5valueEvE4typeE = comdat any

$_ZN4llvh15SmallVectorBase8set_sizeEm = comdat any

$_ZSt10__distanceIPKPN6hermes2vm17PinnedHermesValueEENSt15iterator_traitsIT_E15difference_typeES7_S7_St26random_access_iterator_tag = comdat any

$_ZSt19__iterator_categoryIPKPN6hermes2vm17PinnedHermesValueEENSt15iterator_traitsIT_E17iterator_categoryERKS7_ = comdat any

$_ZN4llvh25SmallVectorTemplateCommonIPN6hermes2vm17PinnedHermesValueEvE8grow_podEmm = comdat any

$_ZNKSt16initializer_listIPN6hermes2vm17PinnedHermesValueEE4sizeEv = comdat any

$_ZN6hermes2vm11HermesValue23encodeStringValueUnsafeEPKNS0_15StringPrimitiveE = comdat any

$_ZN6hermes2vm11HermesValue15validatePointerEPKv = comdat any

$_ZN6hermes2vm11HermesValueC2EmNS1_3TagE = comdat any

$_ZN6hermes2vm7Runtime25getStringPrimFromSymbolIDENS0_8SymbolIDE = comdat any

$_ZN6hermes2vm6HandleINS0_11HermesValueEEC2INS0_8JSObjectEvEERKNS1_IT_EE = comdat any

$_ZN6hermes2vm8SymbolID12unsafeCreateEj = comdat any

$_ZN6hermes2vm10CallResultINS0_12PseudoHandleINS0_11HermesValueEEELNS0_6detail20CallResultSpecializeE5EE8getValueEv = comdat any

$_ZN6hermes2vm6HandleINS0_11HermesValueEEC2EPKNS0_17PinnedHermesValueE = comdat any

$_ZN6hermes2vm10HandleBaseC2EPKNS0_17PinnedHermesValueE = comdat any

$_ZN6hermes2vm15StringPrimitive16isExternalLengthEj = comdat any

$_ZNK4llvh8ArrayRefIDsE4sizeEv = comdat any

$_ZN6hermes2vm15StringPrimitive13arrayToStringIDsEENSt7__cxx1112basic_stringIT_St11char_traitsIS5_ESaIS5_EEEN4llvh8ArrayRefIS5_EE = comdat any

$_ZNSt7__cxx1112basic_stringIDsSt11char_traitsIDsESaIDsEED2Ev = comdat any

$_ZNK4llvh8ArrayRefIDsE5beginEv = comdat any

$_ZNK4llvh8ArrayRefIDsE3endEv = comdat any

$_ZNSaIDsEC2Ev = comdat any

$_ZNSt7__cxx1112basic_stringIDsSt11char_traitsIDsESaIDsEEC2IPKDsvEET_S8_RKS3_ = comdat any

$_ZNSaIDsED2Ev = comdat any

$_ZNSt15__new_allocatorIDsEC2Ev = comdat any

$_ZNSt7__cxx1112basic_stringIDsSt11char_traitsIDsESaIDsEE13_M_local_dataEv = comdat any

$_ZNSt7__cxx1112basic_stringIDsSt11char_traitsIDsESaIDsEE12_Alloc_hiderC2EPDsRKS3_ = comdat any

$_ZNSt7__cxx1112basic_stringIDsSt11char_traitsIDsESaIDsEE12_M_constructIPKDsEEvT_S8_St20forward_iterator_tag = comdat any

$_ZSt19__iterator_categoryIPKDsENSt15iterator_traitsIT_E17iterator_categoryERKS3_ = comdat any

$_ZNSt19__ptr_traits_ptr_toIPDsDsLb0EE10pointer_toERDs = comdat any

$_ZNSaIDsEC2ERKS_ = comdat any

$_ZNSt15__new_allocatorIDsEC2ERKS0_ = comdat any

$_ZSt8distanceIPKDsENSt15iterator_traitsIT_E15difference_typeES3_S3_ = comdat any

$_ZNSt7__cxx1112basic_stringIDsSt11char_traitsIDsESaIDsEE7_M_dataEPDs = comdat any

$_ZNSt7__cxx1112basic_stringIDsSt11char_traitsIDsESaIDsEE9_M_createERmm = comdat any

$_ZNSt7__cxx1112basic_stringIDsSt11char_traitsIDsESaIDsEE11_M_capacityEm = comdat any

$_ZZNSt7__cxx1112basic_stringIDsSt11char_traitsIDsESaIDsEE12_M_constructIPKDsEEvT_S8_St20forward_iterator_tagEN6_GuardC2EPS4_ = comdat any

$_ZNSt7__cxx1112basic_stringIDsSt11char_traitsIDsESaIDsEE13_S_copy_charsEPDsPKDsS7_ = comdat any

$_ZNKSt7__cxx1112basic_stringIDsSt11char_traitsIDsESaIDsEE7_M_dataEv = comdat any

$_ZNSt7__cxx1112basic_stringIDsSt11char_traitsIDsESaIDsEE13_M_set_lengthEm = comdat any

$_ZZNSt7__cxx1112basic_stringIDsSt11char_traitsIDsESaIDsEE12_M_constructIPKDsEEvT_S8_St20forward_iterator_tagEN6_GuardD2Ev = comdat any

$_ZSt10__distanceIPKDsENSt15iterator_traitsIT_E15difference_typeES3_S3_St26random_access_iterator_tag = comdat any

$_ZNKSt7__cxx1112basic_stringIDsSt11char_traitsIDsESaIDsEE8max_sizeEv = comdat any

$_ZNSt16allocator_traitsISaIDsEE8allocateERS0_m = comdat any

$_ZNSt7__cxx1112basic_stringIDsSt11char_traitsIDsESaIDsEE16_M_get_allocatorEv = comdat any

$_ZNSt16allocator_traitsISaIDsEE8max_sizeERKS0_ = comdat any

$_ZNKSt7__cxx1112basic_stringIDsSt11char_traitsIDsESaIDsEE16_M_get_allocatorEv = comdat any

$_ZNKSt15__new_allocatorIDsE8max_sizeEv = comdat any

$_ZNKSt15__new_allocatorIDsE11_M_max_sizeEv = comdat any

$_ZNSt15__new_allocatorIDsE8allocateEmPKv = comdat any

$_ZNSt7__cxx1112basic_stringIDsSt11char_traitsIDsESaIDsEE7_S_copyEPDsPKDsm = comdat any

$_ZNSt11char_traitsIDsE6assignERDsRKDs = comdat any

$_ZNSt11char_traitsIDsE4copyEPDsPKDsm = comdat any

$_ZNSt7__cxx1112basic_stringIDsSt11char_traitsIDsESaIDsEE9_M_lengthEm = comdat any

$_ZNSt7__cxx1112basic_stringIDsSt11char_traitsIDsESaIDsEE10_M_disposeEv = comdat any

$_ZNKSt7__cxx1112basic_stringIDsSt11char_traitsIDsESaIDsEE11_M_is_localEv = comdat any

$_ZNSt7__cxx1112basic_stringIDsSt11char_traitsIDsESaIDsEE10_M_destroyEm = comdat any

$_ZNKSt7__cxx1112basic_stringIDsSt11char_traitsIDsESaIDsEE13_M_local_dataEv = comdat any

$_ZNSt19__ptr_traits_ptr_toIPKDsS0_Lb0EE10pointer_toERS0_ = comdat any

$_ZNSt16allocator_traitsISaIDsEE10deallocateERS0_PDsm = comdat any

$_ZNSt15__new_allocatorIDsE10deallocateEPDsm = comdat any

$_ZNSt15__new_allocatorIDsED2Ev = comdat any

$_ZNSt7__cxx1112basic_stringIDsSt11char_traitsIDsESaIDsEE12_Alloc_hiderD2Ev = comdat any

$_ZN6hermes2vm11HermesValue16encodeEmptyValueEv = comdat any

$_ZN6hermes2vm11HermesValueC2EmNS1_4ETagE = comdat any

$_ZN4llvh11SmallVectorIDsLj32EED2Ev = comdat any

$_ZN4llvh23SmallVectorTemplateBaseIDsLb1EE13destroy_rangeEPDsS2_ = comdat any

$_ZN4llvh15SmallVectorImplIDsED2Ev = comdat any

$_ZNK4llvh25SmallVectorTemplateCommonIDsvE7isSmallEv = comdat any

$_ZNK4llvh25SmallVectorTemplateCommonIDsvE10getFirstElEv = comdat any

$_ZNK6hermes2vm10NativeArgs10getThisArgEv = comdat any

$_ZNK6hermes2vm10NativeArgs5beginEv = comdat any

$_ZNKSt16reverse_iteratorIPKN6hermes2vm17PinnedHermesValueEEixEl = comdat any

$_ZNSt16reverse_iteratorIPKN6hermes2vm17PinnedHermesValueEEC2ERKS5_ = comdat any

$_ZNKSt16reverse_iteratorIPKN6hermes2vm17PinnedHermesValueEEplEl = comdat any

$_ZNKSt16reverse_iteratorIPKN6hermes2vm17PinnedHermesValueEEdeEv = comdat any

$_ZNSt16reverse_iteratorIPKN6hermes2vm17PinnedHermesValueEEC2ES4_ = comdat any

$_ZN6hermes2vm15HandleRootOwner17getUndefinedValueEv = comdat any

$_ZNSt5arrayIN6hermes2vm17PinnedHermesValueELm8EEixEm = comdat any

$_ZN6hermes2vm6HandleINS0_11HiddenClassEE6vmcastEPKNS0_17PinnedHermesValueE = comdat any

$_ZNSt14__array_traitsIN6hermes2vm17PinnedHermesValueELm8EE6_S_refERA8_KS2_m = comdat any

$_ZN6hermes2vm15HermesValueCastINS0_11HiddenClassELb1EE11assertValidENS0_11HermesValueE = comdat any

$_ZN6hermes2vm6HandleINS0_11HiddenClassEEC2EPKNS0_17PinnedHermesValueEb = comdat any

$_ZNK6hermes2vm11HermesValue7getETagEv = comdat any

$_ZN6hermes2vm11HermesValue12setNoBarrierES1_ = comdat any

$_ZNK6hermes10SafeUInt3212isOverflowedEv = comdat any

$_ZN6hermes2vm10CallResultINS0_13StringBuilderELNS0_6detail20CallResultSpecializeE0EEC2ENS0_15ExecutionStatusE = comdat any

$_ZN6hermes2vm15StringPrimitive6createERNS0_7RuntimeEjb = comdat any

$_ZNK6hermes10SafeUInt32deEv = comdat any

$_ZNK6hermes2vm10CallResultINS0_11HermesValueELNS0_6detail20CallResultSpecializeE2EEptEv = comdat any

$_ZNK6hermes2vm11HermesValue9getStringEv = comdat any

$_ZN6hermes2vm13StringBuilderC2ERNS0_7RuntimeEPNS0_15StringPrimitiveE = comdat any

$_ZN6hermes2vm10CallResultINS0_13StringBuilderELNS0_6detail20CallResultSpecializeE0EEC2IS2_vEEOT_ = comdat any

$_ZN4llvh8OptionalIN6hermes2vm13StringBuilderEEC2ENS_8NoneTypeE = comdat any

$_ZN4llvh15optional_detail15OptionalStorageIN6hermes2vm13StringBuilderELb0EEC2Ev = comdat any

$_ZNK6hermes10SafeUInt323getEv = comdat any

$_ZN4llvh8OptionalIN6hermes2vm13StringBuilderEEC2EOS3_ = comdat any

$_ZN4llvh15optional_detail15OptionalStorageIN6hermes2vm13StringBuilderELb0EEC2EOS4_ = comdat any

$_ZN6hermes2vm13MutableHandleINS0_15StringPrimitiveEEC2EOS3_ = comdat any

$_ZN6hermes2vm13StringBuilder16appendStringPrimENS0_6HandleINS0_15StringPrimitiveEEEj = comdat any

$_ZNK6hermes2vm15StringPrimitive7isASCIIEv = comdat any

$_ZNK6hermes2vm15StringPrimitive18castToASCIIPointerEv = comdat any

$_ZN6hermes2vm13StringBuilder14appendUTF16RefEN4llvh8ArrayRefIDsEE = comdat any

$_ZNK6hermes2vm15StringPrimitive18castToUTF16PointerEv = comdat any

$_ZN4llvh8ArrayRefIDsEC2EPKDsm = comdat any

$_ZN6hermes2vm7Runtime23ignoreAllocationFailureINS0_11HermesValueEEET_NS0_10CallResultIS4_Xsr6detail23GetCallResultSpecializeIS4_EE5valueEEE = comdat any

$_ZNK6hermes2vm6GCCell7getKindEv = comdat any

$_ZNK6hermes2vm11KindAndSize7getKindEv = comdat any

$_ZNK6hermes2vm15StringPrimitive10isExternalEv = comdat any

$_ZN6hermes2vm6vmcastINS0_23ExternalStringPrimitiveIcEEEEPKT_PKNS0_6GCCellE = comdat any

$_ZNK6hermes2vm23ExternalStringPrimitiveIcE13getRawPointerEv = comdat any

$_ZN6hermes2vm5vmisaINS0_22DynamicStringPrimitiveIcLb1EEEEEbPKNS0_6GCCellE = comdat any

$_ZN6hermes2vm6vmcastINS0_22DynamicStringPrimitiveIcLb1EEEEEPKT_PKNS0_6GCCellE = comdat any

$_ZNK6hermes2vm22DynamicStringPrimitiveIcLb1EE13getRawPointerEv = comdat any

$_ZN6hermes2vm5vmisaINS0_22DynamicStringPrimitiveIcLb0EEEEEbPKNS0_6GCCellE = comdat any

$_ZN6hermes2vm6vmcastINS0_22DynamicStringPrimitiveIcLb0EEEEEPKT_PKNS0_6GCCellE = comdat any

$_ZNK6hermes2vm22DynamicStringPrimitiveIcLb0EE13getRawPointerEv = comdat any

$_ZN6hermes2vm6vmcastINS0_23BufferedStringPrimitiveIcEEEEPKT_PKNS0_6GCCellE = comdat any

$_ZNK6hermes2vm23BufferedStringPrimitiveIcE13getRawPointerEv = comdat any

$_ZN4llvh4castIN6hermes2vm23ExternalStringPrimitiveIcEEKNS2_6GCCellEEENS_10cast_rettyIT_PT0_E8ret_typeESA_ = comdat any

$_ZN4llvh16cast_convert_valIN6hermes2vm23ExternalStringPrimitiveIcEEPKNS2_6GCCellES7_E4doitERKS7_ = comdat any

$_ZN4llvh3isaIN6hermes2vm22DynamicStringPrimitiveIcLb1EEEPKNS2_6GCCellEEEbRKT0_ = comdat any

$_ZN4llvh13isa_impl_wrapIN6hermes2vm22DynamicStringPrimitiveIcLb1EEEKPKNS2_6GCCellES7_E4doitERS8_ = comdat any

$_ZN4llvh13isa_impl_wrapIN6hermes2vm22DynamicStringPrimitiveIcLb1EEEPKNS2_6GCCellES7_E4doitERKS7_ = comdat any

$_ZN4llvh13simplify_typeIKPKN6hermes2vm6GCCellEE18getSimplifiedValueERS6_ = comdat any

$_ZN4llvh11isa_impl_clIN6hermes2vm22DynamicStringPrimitiveIcLb1EEEPKNS2_6GCCellEE4doitES7_ = comdat any

$_ZN4llvh8isa_implIN6hermes2vm22DynamicStringPrimitiveIcLb1EEENS2_6GCCellEvE4doitERKS5_ = comdat any

$_ZN6hermes2vm22DynamicStringPrimitiveIcLb1EE7classofEPKNS0_6GCCellE = comdat any

$_ZN6hermes2vm22DynamicStringPrimitiveIcLb1EE11getCellKindEv = comdat any

$_ZN4llvh13simplify_typeIPKN6hermes2vm6GCCellEE18getSimplifiedValueERS5_ = comdat any

$_ZN4llvh4castIN6hermes2vm22DynamicStringPrimitiveIcLb1EEEKNS2_6GCCellEEENS_10cast_rettyIT_PT0_E8ret_typeESA_ = comdat any

$_ZN4llvh16cast_convert_valIN6hermes2vm22DynamicStringPrimitiveIcLb1EEEPKNS2_6GCCellES7_E4doitERKS7_ = comdat any

$_ZNK4llvh15TrailingObjectsIN6hermes2vm22DynamicStringPrimitiveIcLb1EEEJcEE18getTrailingObjectsIcEEPKT_v = comdat any

$_ZN4llvh15TrailingObjectsIN6hermes2vm22DynamicStringPrimitiveIcLb1EEEJcEE31verifyTrailingObjectsAssertionsEv = comdat any

$_ZN4llvh25trailing_objects_internal19TrailingObjectsImplILi1EN6hermes2vm22DynamicStringPrimitiveIcLb1EEENS_15TrailingObjectsIS5_JcEEES5_JcEE22getTrailingObjectsImplEPKS5_NS0_19TrailingObjectsBase13OverloadTokenIcEE = comdat any

$_ZN4llvh15TrailingObjectsIN6hermes2vm22DynamicStringPrimitiveIcLb1EEEJcEE22getTrailingObjectsImplEPKS4_NS_25trailing_objects_internal19TrailingObjectsBase13OverloadTokenIS4_EE = comdat any

$_ZN4llvh15TrailingObjectsIN6hermes2vm22DynamicStringPrimitiveIcLb1EEEJcEE22callNumTrailingObjectsEPKS4_NS_25trailing_objects_internal19TrailingObjectsBase13OverloadTokenIS4_EE = comdat any

$_ZN4llvh3isaIN6hermes2vm22DynamicStringPrimitiveIcLb0EEEPKNS2_6GCCellEEEbRKT0_ = comdat any

$_ZN4llvh13isa_impl_wrapIN6hermes2vm22DynamicStringPrimitiveIcLb0EEEKPKNS2_6GCCellES7_E4doitERS8_ = comdat any

$_ZN4llvh13isa_impl_wrapIN6hermes2vm22DynamicStringPrimitiveIcLb0EEEPKNS2_6GCCellES7_E4doitERKS7_ = comdat any

$_ZN4llvh11isa_impl_clIN6hermes2vm22DynamicStringPrimitiveIcLb0EEEPKNS2_6GCCellEE4doitES7_ = comdat any

$_ZN4llvh8isa_implIN6hermes2vm22DynamicStringPrimitiveIcLb0EEENS2_6GCCellEvE4doitERKS5_ = comdat any

$_ZN6hermes2vm22DynamicStringPrimitiveIcLb0EE7classofEPKNS0_6GCCellE = comdat any

$_ZN6hermes2vm22DynamicStringPrimitiveIcLb0EE11getCellKindEv = comdat any

$_ZN4llvh4castIN6hermes2vm22DynamicStringPrimitiveIcLb0EEEKNS2_6GCCellEEENS_10cast_rettyIT_PT0_E8ret_typeESA_ = comdat any

$_ZN4llvh16cast_convert_valIN6hermes2vm22DynamicStringPrimitiveIcLb0EEEPKNS2_6GCCellES7_E4doitERKS7_ = comdat any

$_ZNK4llvh15TrailingObjectsIN6hermes2vm22DynamicStringPrimitiveIcLb0EEEJcEE18getTrailingObjectsIcEEPKT_v = comdat any

$_ZN4llvh15TrailingObjectsIN6hermes2vm22DynamicStringPrimitiveIcLb0EEEJcEE31verifyTrailingObjectsAssertionsEv = comdat any

$_ZN4llvh25trailing_objects_internal19TrailingObjectsImplILi1EN6hermes2vm22DynamicStringPrimitiveIcLb0EEENS_15TrailingObjectsIS5_JcEEES5_JcEE22getTrailingObjectsImplEPKS5_NS0_19TrailingObjectsBase13OverloadTokenIcEE = comdat any

$_ZN4llvh15TrailingObjectsIN6hermes2vm22DynamicStringPrimitiveIcLb0EEEJcEE22getTrailingObjectsImplEPKS4_NS_25trailing_objects_internal19TrailingObjectsBase13OverloadTokenIS4_EE = comdat any

$_ZN4llvh15TrailingObjectsIN6hermes2vm22DynamicStringPrimitiveIcLb0EEEJcEE22callNumTrailingObjectsEPKS4_NS_25trailing_objects_internal19TrailingObjectsBase13OverloadTokenIS4_EE = comdat any

$_ZN4llvh4castIN6hermes2vm23BufferedStringPrimitiveIcEEKNS2_6GCCellEEENS_10cast_rettyIT_PT0_E8ret_typeESA_ = comdat any

$_ZN4llvh16cast_convert_valIN6hermes2vm23BufferedStringPrimitiveIcEEPKNS2_6GCCellES7_E4doitERKS7_ = comdat any

$_ZNK6hermes2vm23BufferedStringPrimitiveIcE15getConcatBufferEv = comdat any

$_ZN6hermes2vm6vmcastINS0_23ExternalStringPrimitiveIcEEEEPT_NS0_11HermesValueE = comdat any

$_ZN6hermes2vm6vmcastINS0_23ExternalStringPrimitiveIcEEEEPT_PNS0_6GCCellE = comdat any

$_ZN4llvh4castIN6hermes2vm23ExternalStringPrimitiveIcEENS2_6GCCellEEENS_10cast_rettyIT_PT0_E8ret_typeES9_ = comdat any

$_ZN4llvh16cast_convert_valIN6hermes2vm23ExternalStringPrimitiveIcEEPNS2_6GCCellES6_E4doitERKS6_ = comdat any

$_ZNK6hermes2vm6HandleINS0_15StringPrimitiveEEdeEv = comdat any

$_ZSt4copyIPKDsPDsET0_T_S4_S3_ = comdat any

$_ZNK4llvh8ArrayRefIDsE4dataEv = comdat any

$_ZN6hermes2vm15StringPrimitive26castToUTF16PointerForWriteEv = comdat any

$_ZSt13__copy_move_aILb0EPKDsPDsET1_T0_S4_S3_ = comdat any

$_ZSt12__miter_baseIPKDsET_S2_ = comdat any

$_ZSt12__niter_wrapIPDsET_RKS1_S1_ = comdat any

$_ZSt14__copy_move_a1ILb0EPKDsPDsET1_T0_S4_S3_ = comdat any

$_ZSt12__niter_baseIPKDsET_S2_ = comdat any

$_ZSt12__niter_baseIPDsET_S1_ = comdat any

$_ZSt14__copy_move_a2ILb0EPKDsPDsET1_T0_S4_S3_ = comdat any

$_ZNSt11__copy_moveILb0ELb1ESt26random_access_iterator_tagE8__copy_mIDsEEPT_PKS3_S6_S4_ = comdat any

$_ZN6hermes2vm6vmcastINS0_23ExternalStringPrimitiveIDsEEEEPT_PNS0_6GCCellE = comdat any

$_ZN6hermes2vm23ExternalStringPrimitiveIDsE21getRawPointerForWriteEv = comdat any

$_ZN6hermes2vm5vmisaINS0_22DynamicStringPrimitiveIDsLb1EEEEEbPNS0_6GCCellE = comdat any

$_ZN6hermes2vm6vmcastINS0_22DynamicStringPrimitiveIDsLb1EEEEEPT_PNS0_6GCCellE = comdat any

$_ZN6hermes2vm22DynamicStringPrimitiveIDsLb1EE21getRawPointerForWriteEv = comdat any

$_ZN6hermes2vm6vmcastINS0_22DynamicStringPrimitiveIDsLb0EEEEEPT_PNS0_6GCCellE = comdat any

$_ZN6hermes2vm22DynamicStringPrimitiveIDsLb0EE21getRawPointerForWriteEv = comdat any

$_ZN4llvh4castIN6hermes2vm23ExternalStringPrimitiveIDsEENS2_6GCCellEEENS_10cast_rettyIT_PT0_E8ret_typeES9_ = comdat any

$_ZN4llvh16cast_convert_valIN6hermes2vm23ExternalStringPrimitiveIDsEEPNS2_6GCCellES6_E4doitERKS6_ = comdat any

$_ZNSt7__cxx1112basic_stringIDsSt11char_traitsIDsESaIDsEEixEm = comdat any

$_ZN4llvh3isaIN6hermes2vm22DynamicStringPrimitiveIDsLb1EEEPNS2_6GCCellEEEbRKT0_ = comdat any

$_ZN4llvh13isa_impl_wrapIN6hermes2vm22DynamicStringPrimitiveIDsLb1EEEKPNS2_6GCCellEPKS5_E4doitERS7_ = comdat any

$_ZN4llvh13isa_impl_wrapIN6hermes2vm22DynamicStringPrimitiveIDsLb1EEEPKNS2_6GCCellES7_E4doitERKS7_ = comdat any

$_ZN4llvh13simplify_typeIKPN6hermes2vm6GCCellEE18getSimplifiedValueERS5_ = comdat any

$_ZN4llvh11isa_impl_clIN6hermes2vm22DynamicStringPrimitiveIDsLb1EEEPKNS2_6GCCellEE4doitES7_ = comdat any

$_ZN4llvh8isa_implIN6hermes2vm22DynamicStringPrimitiveIDsLb1EEENS2_6GCCellEvE4doitERKS5_ = comdat any

$_ZN6hermes2vm22DynamicStringPrimitiveIDsLb1EE7classofEPKNS0_6GCCellE = comdat any

$_ZN6hermes2vm22DynamicStringPrimitiveIDsLb1EE11getCellKindEv = comdat any

$_ZN4llvh13simplify_typeIPN6hermes2vm6GCCellEE18getSimplifiedValueERS4_ = comdat any

$_ZN4llvh4castIN6hermes2vm22DynamicStringPrimitiveIDsLb1EEENS2_6GCCellEEENS_10cast_rettyIT_PT0_E8ret_typeES9_ = comdat any

$_ZN4llvh16cast_convert_valIN6hermes2vm22DynamicStringPrimitiveIDsLb1EEEPNS2_6GCCellES6_E4doitERKS6_ = comdat any

$_ZN4llvh15TrailingObjectsIN6hermes2vm22DynamicStringPrimitiveIDsLb1EEEJDsEE18getTrailingObjectsIDsEEPT_v = comdat any

$_ZN4llvh15TrailingObjectsIN6hermes2vm22DynamicStringPrimitiveIDsLb1EEEJDsEE31verifyTrailingObjectsAssertionsEv = comdat any

$_ZN4llvh25trailing_objects_internal19TrailingObjectsImplILi2EN6hermes2vm22DynamicStringPrimitiveIDsLb1EEENS_15TrailingObjectsIS5_JDsEEES5_JDsEE22getTrailingObjectsImplEPS5_NS0_19TrailingObjectsBase13OverloadTokenIDsEE = comdat any

$_ZN4llvh15TrailingObjectsIN6hermes2vm22DynamicStringPrimitiveIDsLb1EEEJDsEE22getTrailingObjectsImplEPS4_NS_25trailing_objects_internal19TrailingObjectsBase13OverloadTokenIS4_EE = comdat any

$_ZN4llvh15TrailingObjectsIN6hermes2vm22DynamicStringPrimitiveIDsLb1EEEJDsEE22callNumTrailingObjectsEPKS4_NS_25trailing_objects_internal19TrailingObjectsBase13OverloadTokenIS4_EE = comdat any

$_ZN4llvh4castIN6hermes2vm22DynamicStringPrimitiveIDsLb0EEENS2_6GCCellEEENS_10cast_rettyIT_PT0_E8ret_typeES9_ = comdat any

$_ZN4llvh16cast_convert_valIN6hermes2vm22DynamicStringPrimitiveIDsLb0EEEPNS2_6GCCellES6_E4doitERKS6_ = comdat any

$_ZN4llvh15TrailingObjectsIN6hermes2vm22DynamicStringPrimitiveIDsLb0EEEJDsEE18getTrailingObjectsIDsEEPT_v = comdat any

$_ZN4llvh15TrailingObjectsIN6hermes2vm22DynamicStringPrimitiveIDsLb0EEEJDsEE31verifyTrailingObjectsAssertionsEv = comdat any

$_ZN4llvh25trailing_objects_internal19TrailingObjectsImplILi2EN6hermes2vm22DynamicStringPrimitiveIDsLb0EEENS_15TrailingObjectsIS5_JDsEEES5_JDsEE22getTrailingObjectsImplEPS5_NS0_19TrailingObjectsBase13OverloadTokenIDsEE = comdat any

$_ZN4llvh15TrailingObjectsIN6hermes2vm22DynamicStringPrimitiveIDsLb0EEEJDsEE22getTrailingObjectsImplEPS4_NS_25trailing_objects_internal19TrailingObjectsBase13OverloadTokenIS4_EE = comdat any

$_ZN4llvh15TrailingObjectsIN6hermes2vm22DynamicStringPrimitiveIDsLb0EEEJDsEE22callNumTrailingObjectsEPKS4_NS_25trailing_objects_internal19TrailingObjectsBase13OverloadTokenIS4_EE = comdat any

$_ZN6hermes2vm6vmcastINS0_23ExternalStringPrimitiveIDsEEEEPKT_PKNS0_6GCCellE = comdat any

$_ZNK6hermes2vm23ExternalStringPrimitiveIDsE13getRawPointerEv = comdat any

$_ZN6hermes2vm5vmisaINS0_22DynamicStringPrimitiveIDsLb1EEEEEbPKNS0_6GCCellE = comdat any

$_ZN6hermes2vm6vmcastINS0_22DynamicStringPrimitiveIDsLb1EEEEEPKT_PKNS0_6GCCellE = comdat any

$_ZNK6hermes2vm22DynamicStringPrimitiveIDsLb1EE13getRawPointerEv = comdat any

$_ZN6hermes2vm5vmisaINS0_22DynamicStringPrimitiveIDsLb0EEEEEbPKNS0_6GCCellE = comdat any

$_ZN6hermes2vm6vmcastINS0_22DynamicStringPrimitiveIDsLb0EEEEEPKT_PKNS0_6GCCellE = comdat any

$_ZNK6hermes2vm22DynamicStringPrimitiveIDsLb0EE13getRawPointerEv = comdat any

$_ZN6hermes2vm6vmcastINS0_23BufferedStringPrimitiveIDsEEEEPKT_PKNS0_6GCCellE = comdat any

$_ZNK6hermes2vm23BufferedStringPrimitiveIDsE13getRawPointerEv = comdat any

$_ZN4llvh4castIN6hermes2vm23ExternalStringPrimitiveIDsEEKNS2_6GCCellEEENS_10cast_rettyIT_PT0_E8ret_typeESA_ = comdat any

$_ZN4llvh16cast_convert_valIN6hermes2vm23ExternalStringPrimitiveIDsEEPKNS2_6GCCellES7_E4doitERKS7_ = comdat any

$_ZNKSt7__cxx1112basic_stringIDsSt11char_traitsIDsESaIDsEEixEm = comdat any

$_ZN4llvh3isaIN6hermes2vm22DynamicStringPrimitiveIDsLb1EEEPKNS2_6GCCellEEEbRKT0_ = comdat any

$_ZN4llvh13isa_impl_wrapIN6hermes2vm22DynamicStringPrimitiveIDsLb1EEEKPKNS2_6GCCellES7_E4doitERS8_ = comdat any

$_ZN4llvh4castIN6hermes2vm22DynamicStringPrimitiveIDsLb1EEEKNS2_6GCCellEEENS_10cast_rettyIT_PT0_E8ret_typeESA_ = comdat any

$_ZN4llvh16cast_convert_valIN6hermes2vm22DynamicStringPrimitiveIDsLb1EEEPKNS2_6GCCellES7_E4doitERKS7_ = comdat any

$_ZNK4llvh15TrailingObjectsIN6hermes2vm22DynamicStringPrimitiveIDsLb1EEEJDsEE18getTrailingObjectsIDsEEPKT_v = comdat any

$_ZN4llvh25trailing_objects_internal19TrailingObjectsImplILi2EN6hermes2vm22DynamicStringPrimitiveIDsLb1EEENS_15TrailingObjectsIS5_JDsEEES5_JDsEE22getTrailingObjectsImplEPKS5_NS0_19TrailingObjectsBase13OverloadTokenIDsEE = comdat any

$_ZN4llvh15TrailingObjectsIN6hermes2vm22DynamicStringPrimitiveIDsLb1EEEJDsEE22getTrailingObjectsImplEPKS4_NS_25trailing_objects_internal19TrailingObjectsBase13OverloadTokenIS4_EE = comdat any

$_ZN4llvh3isaIN6hermes2vm22DynamicStringPrimitiveIDsLb0EEEPKNS2_6GCCellEEEbRKT0_ = comdat any

$_ZN4llvh13isa_impl_wrapIN6hermes2vm22DynamicStringPrimitiveIDsLb0EEEKPKNS2_6GCCellES7_E4doitERS8_ = comdat any

$_ZN4llvh13isa_impl_wrapIN6hermes2vm22DynamicStringPrimitiveIDsLb0EEEPKNS2_6GCCellES7_E4doitERKS7_ = comdat any

$_ZN4llvh11isa_impl_clIN6hermes2vm22DynamicStringPrimitiveIDsLb0EEEPKNS2_6GCCellEE4doitES7_ = comdat any

$_ZN4llvh8isa_implIN6hermes2vm22DynamicStringPrimitiveIDsLb0EEENS2_6GCCellEvE4doitERKS5_ = comdat any

$_ZN6hermes2vm22DynamicStringPrimitiveIDsLb0EE7classofEPKNS0_6GCCellE = comdat any

$_ZN6hermes2vm22DynamicStringPrimitiveIDsLb0EE11getCellKindEv = comdat any

$_ZN4llvh4castIN6hermes2vm22DynamicStringPrimitiveIDsLb0EEEKNS2_6GCCellEEENS_10cast_rettyIT_PT0_E8ret_typeESA_ = comdat any

$_ZN4llvh16cast_convert_valIN6hermes2vm22DynamicStringPrimitiveIDsLb0EEEPKNS2_6GCCellES7_E4doitERKS7_ = comdat any

$_ZNK4llvh15TrailingObjectsIN6hermes2vm22DynamicStringPrimitiveIDsLb0EEEJDsEE18getTrailingObjectsIDsEEPKT_v = comdat any

$_ZN4llvh25trailing_objects_internal19TrailingObjectsImplILi2EN6hermes2vm22DynamicStringPrimitiveIDsLb0EEENS_15TrailingObjectsIS5_JDsEEES5_JDsEE22getTrailingObjectsImplEPKS5_NS0_19TrailingObjectsBase13OverloadTokenIDsEE = comdat any

$_ZN4llvh15TrailingObjectsIN6hermes2vm22DynamicStringPrimitiveIDsLb0EEEJDsEE22getTrailingObjectsImplEPKS4_NS_25trailing_objects_internal19TrailingObjectsBase13OverloadTokenIS4_EE = comdat any

$_ZN4llvh4castIN6hermes2vm23BufferedStringPrimitiveIDsEEKNS2_6GCCellEEENS_10cast_rettyIT_PT0_E8ret_typeESA_ = comdat any

$_ZN4llvh16cast_convert_valIN6hermes2vm23BufferedStringPrimitiveIDsEEPKNS2_6GCCellES7_E4doitERKS7_ = comdat any

$_ZNK6hermes2vm23BufferedStringPrimitiveIDsE15getConcatBufferEv = comdat any

$_ZN6hermes2vm6vmcastINS0_23ExternalStringPrimitiveIDsEEEEPT_NS0_11HermesValueE = comdat any

$_ZSt4copyIPKcPcET0_T_S4_S3_ = comdat any

$_ZNK4llvh8ArrayRefIcE4dataEv = comdat any

$_ZNK4llvh8ArrayRefIcE4sizeEv = comdat any

$_ZN6hermes2vm15StringPrimitive26castToASCIIPointerForWriteEv = comdat any

$_ZSt4copyIPKcPDsET0_T_S4_S3_ = comdat any

$_ZSt13__copy_move_aILb0EPKcPcET1_T0_S4_S3_ = comdat any

$_ZSt12__miter_baseIPKcET_S2_ = comdat any

$_ZSt12__niter_wrapIPcET_RKS1_S1_ = comdat any

$_ZSt14__copy_move_a1ILb0EPKcPcET1_T0_S4_S3_ = comdat any

$_ZSt12__niter_baseIPKcET_S2_ = comdat any

$_ZSt12__niter_baseIPcET_S1_ = comdat any

$_ZSt14__copy_move_a2ILb0EPKcPcET1_T0_S4_S3_ = comdat any

$_ZNSt11__copy_moveILb0ELb1ESt26random_access_iterator_tagE8__copy_mIcEEPT_PKS3_S6_S4_ = comdat any

$_ZN6hermes2vm23ExternalStringPrimitiveIcE21getRawPointerForWriteEv = comdat any

$_ZN6hermes2vm5vmisaINS0_22DynamicStringPrimitiveIcLb1EEEEEbPNS0_6GCCellE = comdat any

$_ZN6hermes2vm6vmcastINS0_22DynamicStringPrimitiveIcLb1EEEEEPT_PNS0_6GCCellE = comdat any

$_ZN6hermes2vm22DynamicStringPrimitiveIcLb1EE21getRawPointerForWriteEv = comdat any

$_ZN6hermes2vm6vmcastINS0_22DynamicStringPrimitiveIcLb0EEEEEPT_PNS0_6GCCellE = comdat any

$_ZN6hermes2vm22DynamicStringPrimitiveIcLb0EE21getRawPointerForWriteEv = comdat any

$_ZN4llvh3isaIN6hermes2vm22DynamicStringPrimitiveIcLb1EEEPNS2_6GCCellEEEbRKT0_ = comdat any

$_ZN4llvh13isa_impl_wrapIN6hermes2vm22DynamicStringPrimitiveIcLb1EEEKPNS2_6GCCellEPKS5_E4doitERS7_ = comdat any

$_ZN4llvh4castIN6hermes2vm22DynamicStringPrimitiveIcLb1EEENS2_6GCCellEEENS_10cast_rettyIT_PT0_E8ret_typeES9_ = comdat any

$_ZN4llvh16cast_convert_valIN6hermes2vm22DynamicStringPrimitiveIcLb1EEEPNS2_6GCCellES6_E4doitERKS6_ = comdat any

$_ZN4llvh15TrailingObjectsIN6hermes2vm22DynamicStringPrimitiveIcLb1EEEJcEE18getTrailingObjectsIcEEPT_v = comdat any

$_ZN4llvh25trailing_objects_internal19TrailingObjectsImplILi1EN6hermes2vm22DynamicStringPrimitiveIcLb1EEENS_15TrailingObjectsIS5_JcEEES5_JcEE22getTrailingObjectsImplEPS5_NS0_19TrailingObjectsBase13OverloadTokenIcEE = comdat any

$_ZN4llvh15TrailingObjectsIN6hermes2vm22DynamicStringPrimitiveIcLb1EEEJcEE22getTrailingObjectsImplEPS4_NS_25trailing_objects_internal19TrailingObjectsBase13OverloadTokenIS4_EE = comdat any

$_ZN4llvh4castIN6hermes2vm22DynamicStringPrimitiveIcLb0EEENS2_6GCCellEEENS_10cast_rettyIT_PT0_E8ret_typeES9_ = comdat any

$_ZN4llvh16cast_convert_valIN6hermes2vm22DynamicStringPrimitiveIcLb0EEEPNS2_6GCCellES6_E4doitERKS6_ = comdat any

$_ZN4llvh15TrailingObjectsIN6hermes2vm22DynamicStringPrimitiveIcLb0EEEJcEE18getTrailingObjectsIcEEPT_v = comdat any

$_ZN4llvh25trailing_objects_internal19TrailingObjectsImplILi1EN6hermes2vm22DynamicStringPrimitiveIcLb0EEENS_15TrailingObjectsIS5_JcEEES5_JcEE22getTrailingObjectsImplEPS5_NS0_19TrailingObjectsBase13OverloadTokenIcEE = comdat any

$_ZN4llvh15TrailingObjectsIN6hermes2vm22DynamicStringPrimitiveIcLb0EEEJcEE22getTrailingObjectsImplEPS4_NS_25trailing_objects_internal19TrailingObjectsBase13OverloadTokenIS4_EE = comdat any

$_ZSt13__copy_move_aILb0EPKcPDsET1_T0_S4_S3_ = comdat any

$_ZSt14__copy_move_a1ILb0EPKcPDsET1_T0_S4_S3_ = comdat any

$_ZSt14__copy_move_a2ILb0EPKcPDsET1_T0_S4_S3_ = comdat any

$_ZNSt11__copy_moveILb0ELb0ESt26random_access_iterator_tagE8__copy_mIPKcPDsEET0_T_S7_S6_ = comdat any

$_ZN6hermes2vm6HandleINS0_15StringPrimitiveEE6vmcastERKNS0_10HandleBaseE = comdat any

$_ZN6hermes2vm15HermesValueCastINS0_15StringPrimitiveELb1EE11assertValidENS0_11HermesValueE = comdat any

$_ZN6hermes2vm6HandleINS0_15StringPrimitiveEEC2ERKNS0_10HandleBaseEb = comdat any

$_ZN4llvh8OptionalIN6hermes2vm13StringBuilderEED2Ev = comdat any

$_ZN4llvh15optional_detail15OptionalStorageIN6hermes2vm13StringBuilderELb0EED2Ev = comdat any

$_ZN4llvh15optional_detail15OptionalStorageIN6hermes2vm13StringBuilderELb0EE5resetEv = comdat any

$_ZN4llvh15optional_detail15OptionalStorageIN6hermes2vm13StringBuilderELb0EE10getPointerEv = comdat any

$_ZN6hermes2vm19StackFrameIteratorTILb0EEC2ENS0_14StackFramePtrTILb0EEE = comdat any

$_ZN6hermes2vm19StackFrameIteratorTILb0EEC2EPNS0_17PinnedHermesValueE = comdat any

$_ZN4llvh14iterator_rangeIN6hermes2vm19StackFrameIteratorTILb0EEEEC2ES4_S4_ = comdat any

$_ZNSt12_Vector_baseIN6hermes2vm14StackTraceInfoESaIS2_EEC2Ev = comdat any

$_ZNSt12_Vector_baseIN6hermes2vm14StackTraceInfoESaIS2_EE12_Vector_implC2Ev = comdat any

$_ZNSaIN6hermes2vm14StackTraceInfoEEC2Ev = comdat any

$_ZNSt12_Vector_baseIN6hermes2vm14StackTraceInfoESaIS2_EE17_Vector_impl_dataC2Ev = comdat any

$_ZNSt15__new_allocatorIN6hermes2vm14StackTraceInfoEEC2Ev = comdat any

$_ZNK6hermes2vm9CodeBlock5beginEv = comdat any

$_ZN6hermes2vm17GCScopeMarkerRAIIC2ERNS0_15HandleRootOwnerE = comdat any

$_ZN6hermes2vm13RuntimeModule9getDomainERNS0_7RuntimeE = comdat any

$_ZNK6hermes2vm6HandleINS0_16ArrayStorageBaseINS0_13HermesValue32EEEEptEv = comdat any

$_ZNK6hermes2vm16ArrayStorageBaseINS0_13HermesValue32EE4sizeEv = comdat any

$_ZN6hermes2vm6vmcastINS0_6DomainEEEPT_PNS0_6GCCellE = comdat any

$_ZNK6hermes2vm6HandleINS0_6DomainEE3getEv = comdat any

$_ZN6hermes2vm16ArrayStorageBaseINS0_13HermesValue32EE9push_backERNS0_13MutableHandleIS3_EERNS0_7RuntimeENS0_6HandleINS0_11HermesValueEEE = comdat any

$_ZN6hermes2vm6HandleINS0_11HermesValueEEC2INS0_6DomainEvEERKNS1_IT_EE = comdat any

$_ZN6hermes2vm17GCScopeMarkerRAIID2Ev = comdat any

$_ZN6hermes2vm15HandleRootOwner13getTopGCScopeEv = comdat any

$_ZN6hermes2vm15HandleRootOwner10makeHandleINS0_6DomainEEENS0_6HandleIT_EEPS5_ = comdat any

$_ZN6hermes2vm13RuntimeModule15getDomainUnsafeERNS0_7RuntimeE = comdat any

$_ZN6hermes2vm6HandleINS0_6DomainEEC2ERNS0_15HandleRootOwnerEPS2_ = comdat any

$_ZN6hermes2vm17HermesValueTraitsINS0_6DomainELb1EE6encodeEPS2_ = comdat any

$_ZN6hermes2vm10HandleBaseC2ERNS0_15HandleRootOwnerENS0_11HermesValueE = comdat any

$_ZN6hermes2vm11HermesValue23encodeObjectValueUnsafeEPv = comdat any

$_ZN6hermes2vm15HandleRootOwner20newPinnedHermesValueENS0_11HermesValueE = comdat any

$_ZN6hermes2vm15HandleRootOwner20newPinnedHermesValueEPNS0_7GCScopeENS0_11HermesValueE = comdat any

$_ZN6hermes2vm7GCScope20newPinnedHermesValueENS0_11HermesValueE = comdat any

$_ZN6hermes2vm17PinnedHermesValueC2ENS0_11HermesValueE = comdat any

$_ZNK6hermes2vm8WeakRootINS0_6DomainEE3getERNS0_11PointerBaseERNS0_7HadesGCE = comdat any

$_ZNK6hermes2vm12WeakRootBase3getERNS0_11PointerBaseERNS0_7HadesGCE = comdat any

$_ZNK6hermes2vm12WeakRootBase10getNonNullERNS0_11PointerBaseERNS0_7HadesGCE = comdat any

$_ZN6hermes2vm17HermesValueTraitsINS0_16ArrayStorageBaseINS0_13HermesValue32EEELb1EE5arrowERKNS0_11HermesValueE = comdat any

$_ZN6hermes2vm17HermesValueTraitsINS0_16ArrayStorageBaseINS0_13HermesValue32EEELb1EE6decodeENS0_11HermesValueE = comdat any

$_ZStanSt12memory_orderSt23__memory_order_modifier = comdat any

$_ZN4llvh4castIN6hermes2vm6DomainENS2_6GCCellEEENS_10cast_rettyIT_PT0_E8ret_typeES8_ = comdat any

$_ZN4llvh16cast_convert_valIN6hermes2vm6DomainEPNS2_6GCCellES5_E4doitERKS5_ = comdat any

$_ZN6hermes2vm17HermesValueTraitsINS0_6DomainELb1EE6decodeENS0_11HermesValueE = comdat any

$_ZN6hermes2vm13HermesValue3217encodeHermesValueENS0_11HermesValueERNS0_7RuntimeE = comdat any

$_ZNK6hermes2vm6HandleINS0_11HermesValueEE3getEv = comdat any

$_ZNK6hermes2vm16ArrayStorageBaseINS0_13HermesValue32EE8capacityEv = comdat any

$_ZN6hermes2vm16ArrayStorageBaseINS0_13HermesValue32EE4dataEv = comdat any

$_ZN6hermes2vm17GCHermesValueBaseINS0_13HermesValue32EEC2ISt17integral_constantIbLb1EEEES2_RNS0_7HadesGCE = comdat any

$_ZN6hermes2vm13HermesValue3216encodeEmptyValueEv = comdat any

$_ZN6hermes2vm13HermesValue3220encodeUndefinedValueEv = comdat any

$_ZN6hermes2vm13HermesValue3215encodeNullValueEv = comdat any

$_ZN6hermes2vm13HermesValue3215encodeBoolValueEb = comdat any

$_ZNK6hermes2vm11HermesValue7getBoolEv = comdat any

$_ZN6hermes2vm13HermesValue3217encodeSymbolValueENS0_8SymbolIDE = comdat any

$_ZNK6hermes2vm11HermesValue9getSymbolEv = comdat any

$_ZN6hermes2vm13HermesValue3217encodeStringValueEPNS0_15StringPrimitiveERNS0_11PointerBaseE = comdat any

$_ZN6hermes2vm13HermesValue3217encodeBigIntValueEPNS0_15BigIntPrimitiveERNS0_11PointerBaseE = comdat any

$_ZNK6hermes2vm11HermesValue9getBigIntEv = comdat any

$_ZN6hermes2vm13HermesValue3217encodeObjectValueEPNS0_6GCCellERNS0_11PointerBaseE = comdat any

$_ZN6hermes2vm13HermesValue3217encodeNumberValueEdRNS0_7RuntimeE = comdat any

$_ZNK6hermes2vm11HermesValue9getNumberEv = comdat any

$_ZN6hermes2vm13HermesValue3216fromETagAndValueENS1_4ETagEj = comdat any

$_ZN6hermes2vm13HermesValue327fromRawEj = comdat any

$_ZN6hermes2vm13HermesValue32C2Ej = comdat any

$_ZN6hermes2vm13HermesValue3215fromTagAndValueENS1_3TagEj = comdat any

$_ZNK6hermes2vm8SymbolID12unsafeGetRawEv = comdat any

$_ZN6hermes2vm13HermesValue3217encodePointerImplEPNS0_6GCCellENS1_3TagERNS0_11PointerBaseE = comdat any

$_ZN6hermes2vm13HermesValue3217encodePointerImplENS0_17CompressedPointerENS1_3TagE = comdat any

$_ZN6hermes2vm17CompressedPointer13encodeNonNullEPNS0_6GCCellERNS0_11PointerBaseE = comdat any

$_ZNK6hermes2vm17CompressedPointer6getRawEv = comdat any

$_ZN6hermes2vm13HermesValue3215validatePointerEj = comdat any

$_ZN6hermes2vm17CompressedPointer16storageTypeToRawENS0_12BasedPointerE = comdat any

$_ZN6hermes2vm17CompressedPointer27pointerToStorageTypeNonNullEPNS0_6GCCellERNS0_11PointerBaseE = comdat any

$_ZN6hermes2vm17CompressedPointerC2ENS0_12BasedPointerE = comdat any

$_ZNK6hermes2vm11PointerBase21pointerToBasedNonNullEPKv = comdat any

$_ZN6hermes2vm13HermesValue3211doubleToSmiEd = comdat any

$_ZN4llvh12DoubleToBitsEd = comdat any

$_ZN6hermes2vm11BoxedDouble6createEdRNS0_7RuntimeE = comdat any

$_ZZN6hermes2vm13HermesValue3211doubleToSmiEdENKUlT_E_clIdEEDaS2_ = comdat any

$_ZN4llvh12SignExtend32ILj29EEEij = comdat any

$_ZN6hermes2vm13HermesValue3214truncateDoubleEd = comdat any

$_ZN6hermes2vm7Runtime10makeAFixedINS0_11BoxedDoubleELNS0_12HasFinalizerE0ELNS0_9LongLivedE0EJRdEEEPT_DpOT2_ = comdat any

$_ZN6hermes2vm6GCBase10makeAFixedINS0_11BoxedDoubleELNS0_12HasFinalizerE0ELNS0_9LongLivedE0EJRdEEEPT_DpOT2_ = comdat any

$_ZN6hermes2vm6GCBase5makeAINS0_11BoxedDoubleELb1ELNS0_12HasFinalizerE0ELNS0_9LongLivedE0EJRdEEEPT_jDpOT3_ = comdat any

$_ZN6hermes2vm7HadesGC5makeAINS0_11BoxedDoubleELb1ELNS0_12HasFinalizerE0ELNS0_9LongLivedE0EJRdEEEPT_jDpOT3_ = comdat any

$_ZN6hermes2vm6GCBase13constructCellINS0_11BoxedDoubleEJRdEEEPT_PvjDpOT0_ = comdat any

$_ZN6hermes2vm7HadesGC9allocWorkILb1ELNS0_12HasFinalizerE0EEEPvj = comdat any

$_ZN6hermes2vm6GCCellnwEmPv = comdat any

$_ZN6hermes2vm11BoxedDoubleC2Ed = comdat any

$_ZN6hermes2vm6GCCell14setKindAndSizeENS0_11KindAndSizeE = comdat any

$_ZN6hermes2vm11KindAndSizeC2ENS0_8CellKindEm = comdat any

$_ZN6hermes2vm7HadesGC8youngGenEv = comdat any

$_ZN6hermes2vm18AlignedHeapSegment5allocEj = comdat any

$_ZNK6hermes2vm18AlignedHeapSegment12effectiveEndEv = comdat any

$_ZN6hermes2vm13heapAlignSizeEj = comdat any

$_ZN6hermes2vm6GCCell12cellSizeImplINS0_11BoxedDoubleEEEjv = comdat any

$_ZN4llvh7alignToILm8EEEmm = comdat any

$_ZNK6hermes2vm11HermesValue9getDoubleEv = comdat any

$_ZN4llvh12BitsToDoubleEm = comdat any

$_ZN6hermes2vm17HermesValueTraitsINS0_11HermesValueELb0EE6decodeES2_ = comdat any

$_ZN6hermes2vm16ArrayStorageBaseINS0_13HermesValue32EE25capacityForAllocationSizeEj = comdat any

$_ZNK6hermes2vm6GCCell16getAllocatedSizeEv = comdat any

$_ZN6hermes2vm16ArrayStorageBaseINS0_13HermesValue32EE14allocationSizeEj = comdat any

$_ZN4llvh15TrailingObjectsIN6hermes2vm16ArrayStorageBaseINS2_13HermesValue32EEEJNS2_17GCHermesValueBaseIS4_EEEE16totalSizeToAllocIJS7_EEENSt9enable_ifIXsr3std7is_sameINS8_3FooIJS7_EEENSB_IJDpT_EEEEE5valueEmE4typeEm = comdat any

$_ZN4llvh25trailing_objects_internal19TrailingObjectsImplILi4EN6hermes2vm16ArrayStorageBaseINS3_13HermesValue32EEENS_15TrailingObjectsIS6_JNS3_17GCHermesValueBaseIS5_EEEEES6_JS9_EE25additionalSizeToAllocImplEmm = comdat any

$_ZN4llvh25trailing_objects_internal19TrailingObjectsImplILi4EN6hermes2vm16ArrayStorageBaseINS3_13HermesValue32EEENS_15TrailingObjectsIS6_JNS3_17GCHermesValueBaseIS5_EEEEES9_JEE25additionalSizeToAllocImplEm = comdat any

$_ZNK6hermes2vm11KindAndSize7getSizeEv = comdat any

$_ZN4llvh15TrailingObjectsIN6hermes2vm16ArrayStorageBaseINS2_13HermesValue32EEEJNS2_17GCHermesValueBaseIS4_EEEE18getTrailingObjectsIS7_EEPT_v = comdat any

$_ZN4llvh15TrailingObjectsIN6hermes2vm16ArrayStorageBaseINS2_13HermesValue32EEEJNS2_17GCHermesValueBaseIS4_EEEE31verifyTrailingObjectsAssertionsEv = comdat any

$_ZN4llvh25trailing_objects_internal19TrailingObjectsImplILi4EN6hermes2vm16ArrayStorageBaseINS3_13HermesValue32EEENS_15TrailingObjectsIS6_JNS3_17GCHermesValueBaseIS5_EEEEES6_JS9_EE22getTrailingObjectsImplEPS6_NS0_19TrailingObjectsBase13OverloadTokenIS9_EE = comdat any

$_ZN4llvh15TrailingObjectsIN6hermes2vm16ArrayStorageBaseINS2_13HermesValue32EEEJNS2_17GCHermesValueBaseIS4_EEEE22getTrailingObjectsImplEPS5_NS_25trailing_objects_internal19TrailingObjectsBase13OverloadTokenIS5_EE = comdat any

$_ZN4llvh15TrailingObjectsIN6hermes2vm16ArrayStorageBaseINS2_13HermesValue32EEEJNS2_17GCHermesValueBaseIS4_EEEE22callNumTrailingObjectsEPKS5_NS_25trailing_objects_internal19TrailingObjectsBase13OverloadTokenIS5_EE = comdat any

$_ZN6hermes2vm7HadesGC23constructorWriteBarrierEPKNS0_17GCHermesValueBaseINS0_13HermesValue32EEES3_ = comdat any

$_ZNK6hermes2vm7HadesGC10inYoungGenEPKv = comdat any

$_ZNK6hermes2vm18AlignedHeapSegment6lowLimEv = comdat any

$_ZN6hermes2vm14AlignedStorage5startEPKv = comdat any

$_ZNK6hermes2vm14AlignedStorage6lowLimEv = comdat any

$_ZN6hermes2vm17GCScopeMarkerRAII5flushEv = comdat any

$_ZN6hermes2vm9GCStorage3getEv = comdat any

$_ZN6hermes2vm15HandleRootOwner14makeNullHandleINS0_16ArrayStorageBaseINS0_13HermesValue32EEEEENS0_6HandleIT_EEv = comdat any

$_ZN6hermes2vm13MutableHandleINS0_16ArrayStorageBaseINS0_13HermesValue32EEEEC2ERNS0_15HandleRootOwnerEPS4_ = comdat any

$_ZN6hermes2vm8JSObject28getNamedDescriptorPredefinedENS0_6HandleIS1_EERNS0_7RuntimeENS0_10Predefined3StrERNS0_23NamedPropertyDescriptorE = comdat any

$_ZN6hermes2vm6HandleINS0_8JSObjectEEC2INS0_8CallableEvEERKNS1_IT_EE = comdat any

$_ZNK6hermes2vm11HermesValue16getNativePointerIKNS0_9CodeBlockEEEPT_v = comdat any

$_ZNK6hermes2vm8SymbolID7isValidEv = comdat any

$_ZN6hermes2vm16ArrayStorageBaseINS0_13HermesValue32EE6resizeERNS0_13MutableHandleIS3_EERNS0_7RuntimeEj = comdat any

$_ZN6hermes2vm16ArrayStorageBaseINS0_13HermesValue32EE3setILNS3_6InlineE0EEEvjS2_RNS0_7HadesGCE = comdat any

$_ZN6hermes2vm6HandleINS0_16ArrayStorageBaseINS0_13HermesValue32EEEE14vmcast_or_nullEPKNS0_17PinnedHermesValueE = comdat any

$_ZN6hermes2vm14vmcast_or_nullINS0_16ArrayStorageBaseINS0_13HermesValue32EEEEEPT_NS0_11HermesValueE = comdat any

$_ZN6hermes2vm6HandleINS0_16ArrayStorageBaseINS0_13HermesValue32EEEEC2EPKNS0_17PinnedHermesValueEb = comdat any

$_ZN6hermes2vm14vmcast_or_nullINS0_16ArrayStorageBaseINS0_13HermesValue32EEEEEPT_PNS0_6GCCellE = comdat any

$_ZN6hermes2vm6HandleINS0_16ArrayStorageBaseINS0_13HermesValue32EEEEC2ERNS0_15HandleRootOwnerEPS4_ = comdat any

$_ZN6hermes2vm17HermesValueTraitsINS0_16ArrayStorageBaseINS0_13HermesValue32EEELb1EE6encodeEPS4_ = comdat any

$_ZN6hermes2vm17GCHermesValueBaseINS0_13HermesValue32EE3setISt17integral_constantIbLb1EEEEvS2_RNS0_7HadesGCE = comdat any

$_ZNK6hermes2vm13HermesValue329isPointerEv = comdat any

$_ZN6hermes2vm7HadesGC12writeBarrierEPKNS0_17GCHermesValueBaseINS0_13HermesValue32EEES3_ = comdat any

$_ZN6hermes2vm13HermesValue3212setNoBarrierES1_ = comdat any

$_ZNK6hermes2vm13HermesValue326getTagEv = comdat any

$_ZN4llvh16maskTrailingOnesIjEET_j = comdat any

$_ZNSt15__uniq_ptr_dataISt6vectorIN6hermes2vm14StackTraceInfoESaIS3_EESt14default_deleteIS5_ELb1ELb1EEaSEOS8_ = comdat any

$_ZNSt15__uniq_ptr_implISt6vectorIN6hermes2vm14StackTraceInfoESaIS3_EESt14default_deleteIS5_EEaSEOS8_ = comdat any

$_ZNSt15__uniq_ptr_implISt6vectorIN6hermes2vm14StackTraceInfoESaIS3_EESt14default_deleteIS5_EE5resetEPS5_ = comdat any

$_ZNSt15__uniq_ptr_implISt6vectorIN6hermes2vm14StackTraceInfoESaIS3_EESt14default_deleteIS5_EE7releaseEv = comdat any

$_ZNSt15__uniq_ptr_implISt6vectorIN6hermes2vm14StackTraceInfoESaIS3_EESt14default_deleteIS5_EE10_M_deleterEv = comdat any

$_ZNSt15__uniq_ptr_implISt6vectorIN6hermes2vm14StackTraceInfoESaIS3_EESt14default_deleteIS5_EE6_M_ptrEv = comdat any

$_ZNKSt14default_deleteISt6vectorIN6hermes2vm14StackTraceInfoESaIS3_EEEclEPS5_ = comdat any

$_ZSt3getILm0EJPSt6vectorIN6hermes2vm14StackTraceInfoESaIS3_EESt14default_deleteIS5_EEERNSt13tuple_elementIXT_ESt5tupleIJDpT0_EEE4typeERSD_ = comdat any

$_ZSt12__get_helperILm0EPSt6vectorIN6hermes2vm14StackTraceInfoESaIS3_EEJSt14default_deleteIS5_EEERT0_RSt11_Tuple_implIXT_EJS9_DpT1_EE = comdat any

$_ZNSt11_Tuple_implILm0EJPSt6vectorIN6hermes2vm14StackTraceInfoESaIS3_EESt14default_deleteIS5_EEE7_M_headERS9_ = comdat any

$_ZNSt10_Head_baseILm0EPSt6vectorIN6hermes2vm14StackTraceInfoESaIS3_EELb0EE7_M_headERS7_ = comdat any

$_ZNSt6vectorIN6hermes2vm14StackTraceInfoESaIS2_EED2Ev = comdat any

$_ZSt8_DestroyIPN6hermes2vm14StackTraceInfoES2_EvT_S4_RSaIT0_E = comdat any

$_ZNSt12_Vector_baseIN6hermes2vm14StackTraceInfoESaIS2_EE19_M_get_Tp_allocatorEv = comdat any

$_ZNSt12_Vector_baseIN6hermes2vm14StackTraceInfoESaIS2_EED2Ev = comdat any

$_ZSt8_DestroyIPN6hermes2vm14StackTraceInfoEEvT_S4_ = comdat any

$_ZNSt12_Destroy_auxILb1EE9__destroyIPN6hermes2vm14StackTraceInfoEEEvT_S6_ = comdat any

$_ZNSt12_Vector_baseIN6hermes2vm14StackTraceInfoESaIS2_EE13_M_deallocateEPS2_m = comdat any

$_ZNSt12_Vector_baseIN6hermes2vm14StackTraceInfoESaIS2_EE12_Vector_implD2Ev = comdat any

$_ZNSt16allocator_traitsISaIN6hermes2vm14StackTraceInfoEEE10deallocateERS3_PS2_m = comdat any

$_ZNSt15__new_allocatorIN6hermes2vm14StackTraceInfoEE10deallocateEPS2_m = comdat any

$_ZNSaIN6hermes2vm14StackTraceInfoEED2Ev = comdat any

$_ZNSt15__new_allocatorIN6hermes2vm14StackTraceInfoEED2Ev = comdat any

$_ZSt3getILm1EJPSt6vectorIN6hermes2vm14StackTraceInfoESaIS3_EESt14default_deleteIS5_EEERNSt13tuple_elementIXT_ESt5tupleIJDpT0_EEE4typeERSD_ = comdat any

$_ZSt12__get_helperILm1ESt14default_deleteISt6vectorIN6hermes2vm14StackTraceInfoESaIS4_EEEJEERT0_RSt11_Tuple_implIXT_EJS8_DpT1_EE = comdat any

$_ZNSt11_Tuple_implILm1EJSt14default_deleteISt6vectorIN6hermes2vm14StackTraceInfoESaIS4_EEEEE7_M_headERS8_ = comdat any

$_ZNSt10_Head_baseILm1ESt14default_deleteISt6vectorIN6hermes2vm14StackTraceInfoESaIS4_EEELb1EE7_M_headERS8_ = comdat any

$_ZNKSt12__shared_ptrIN6hermes3hbc20BCProviderFromBufferELN9__gnu_cxx12_Lock_policyE2EE3getEv = comdat any

$_ZNK6hermes2vm13HermesValue327getETagEv = comdat any

$_ZN6hermes2vm11HermesValue17encodeObjectValueEPv = comdat any

$_ZN6hermes2vm11HermesValue17encodeBigIntValueEPKNS0_15BigIntPrimitiveE = comdat any

$_ZNK6hermes2vm13HermesValue329getBigIntERNS0_11PointerBaseE = comdat any

$_ZNK6hermes2vm13HermesValue329getStringERNS0_11PointerBaseE = comdat any

$_ZN6hermes2vm11HermesValue26encodeUntrustedNumberValueEd = comdat any

$_ZN6hermes2vm6vmcastINS0_11BoxedDoubleEEEPT_PNS0_6GCCellE = comdat any

$_ZNK6hermes2vm13HermesValue3210getPointerERNS0_11PointerBaseE = comdat any

$_ZNK6hermes2vm11BoxedDouble3getEv = comdat any

$_ZN6hermes2vm11HermesValue24encodeTrustedNumberValueIiEENSt9enable_ifIXsr3std11is_integralIT_EE5valueES1_E4typeES4_ = comdat any

$_ZNK6hermes2vm13HermesValue3211getSmallIntEv = comdat any

$_ZN6hermes2vm11HermesValue17encodeSymbolValueENS0_8SymbolIDE = comdat any

$_ZNK6hermes2vm13HermesValue328getValueEv = comdat any

$_ZN6hermes2vm11HermesValue15encodeBoolValueEb = comdat any

$_ZNK6hermes2vm13HermesValue3212getETagValueEv = comdat any

$_ZN6hermes2vm11HermesValue15encodeNullValueEv = comdat any

$_ZN6hermes2vm11HermesValue23encodeBigIntValueUnsafeEPKNS0_15BigIntPrimitiveE = comdat any

$_ZN6hermes2vm6vmcastINS0_15BigIntPrimitiveEEEPT_PNS0_6GCCellE = comdat any

$_ZN4llvh4castIN6hermes2vm15BigIntPrimitiveENS2_6GCCellEEENS_10cast_rettyIT_PT0_E8ret_typeES8_ = comdat any

$_ZN4llvh16cast_convert_valIN6hermes2vm15BigIntPrimitiveEPNS2_6GCCellES5_E4doitERKS5_ = comdat any

$_ZN6hermes2vm6vmcastINS0_15StringPrimitiveEEEPT_PNS0_6GCCellE = comdat any

$_ZN4llvh4castIN6hermes2vm15StringPrimitiveENS2_6GCCellEEENS_10cast_rettyIT_PT0_E8ret_typeES8_ = comdat any

$_ZN4llvh16cast_convert_valIN6hermes2vm15StringPrimitiveEPNS2_6GCCellES5_E4doitERKS5_ = comdat any

$_ZSt5isnand = comdat any

$_ZN6hermes2vm11HermesValue14encodeNaNValueEv = comdat any

$_ZN6hermes2vm11HermesValueC2Em = comdat any

$_ZNSt14numeric_limitsIdE9quiet_NaNEv = comdat any

$_ZN4llvh4castIN6hermes2vm11BoxedDoubleENS2_6GCCellEEENS_10cast_rettyIT_PT0_E8ret_typeES8_ = comdat any

$_ZN4llvh16cast_convert_valIN6hermes2vm11BoxedDoubleEPNS2_6GCCellES5_E4doitERKS5_ = comdat any

$_ZNK6hermes2vm13HermesValue3210getPointerEv = comdat any

$_ZN4llvh15maskLeadingOnesIjEET_j = comdat any

$_ZN6hermes2vm11HermesValue24encodeTrustedNumberValueEd = comdat any

$_ZN6hermes2vm7Runtime24isNativeStackOverflowingEv = comdat any

$_ZNK6hermes2vm11HermesValue6getTagEv = comdat any

$_ZN6hermes2vm7GCScope6MarkerC2EPNS0_17PinnedHermesValueEj = comdat any

$_ZN6hermes2vm7GCScope27invalidateFreedHandleValuesEjPNS0_17PinnedHermesValueE = comdat any

$_ZNKSt6vectorIN6hermes16StringTableEntryESaIS1_EEixEm = comdat any

$_ZN4llvh8ArrayRefIhEC2ISaIhEEERKSt6vectorIhT_E = comdat any

$_ZNK4llvh9StringRef3strB5cxx11Ev = comdat any

$_ZNKSt6vectorIhSaIhEE4dataEv = comdat any

$_ZNKSt6vectorIhSaIhEE4sizeEv = comdat any

$_ZNKSt6vectorIhSaIhEE11_M_data_ptrIhEEPT_S4_ = comdat any

$_ZN6hermes2vm6HandleINS0_11HermesValueEEC2ERNS0_15HandleRootOwnerES2_ = comdat any

$_ZN6hermes2vm17HermesValueTraitsINS0_11HermesValueELb0EE6encodeES2_ = comdat any

$_ZN6hermes2vm6HandleINS0_8JSObjectEEC2INS0_9ArrayImplEvEERKNS1_IT_EE = comdat any

$_ZN6hermes2vm8JSObject12putNamed_RJSENS0_6HandleIS1_EERNS0_7RuntimeENS0_8SymbolIDENS2_INS0_11HermesValueEEENS0_11PropOpFlagsE = comdat any

$_ZN6hermes2vm6HandleINS0_8JSObjectEEC2INS0_7JSArrayEvEERKNS1_IT_EE = comdat any

$_ZN6hermes2vm11HermesValue24encodeTrustedNumberValueIjEENSt9enable_ifIXsr3std11is_integralIT_EE5valueES1_E4typeES4_ = comdat any

$_ZNK6hermes2vm6HandleINS0_8CallableEE3getEv = comdat any

$_ZN6hermes2vm10dyn_vmcastIKNS0_10JSFunctionEEEPKT_PKNS0_6GCCellE = comdat any

$_ZNK6hermes2vm10JSFunction12getCodeBlockERNS0_7RuntimeE = comdat any

$_ZN6hermes2vm10dyn_vmcastIKNS0_13BoundFunctionEEEPKT_PKNS0_6GCCellE = comdat any

$_ZNK6hermes2vm13BoundFunction9getTargetERNS0_7RuntimeE = comdat any

$_ZN6hermes2vm17HermesValueTraitsINS0_8CallableELb1EE6decodeENS0_11HermesValueE = comdat any

$_ZN4llvh8dyn_castIKN6hermes2vm10JSFunctionEKNS2_6GCCellEEENS_10cast_rettyIT_PT0_E8ret_typeESA_ = comdat any

$_ZN4llvh3isaIKN6hermes2vm10JSFunctionEPKNS2_6GCCellEEEbRKT0_ = comdat any

$_ZN4llvh4castIKN6hermes2vm10JSFunctionEKNS2_6GCCellEEENS_10cast_rettyIT_PT0_E8ret_typeESA_ = comdat any

$_ZN4llvh13isa_impl_wrapIKN6hermes2vm10JSFunctionEKPKNS2_6GCCellES7_E4doitERS8_ = comdat any

$_ZN4llvh13isa_impl_wrapIKN6hermes2vm10JSFunctionEPKNS2_6GCCellES7_E4doitERKS7_ = comdat any

$_ZN4llvh11isa_impl_clIKN6hermes2vm10JSFunctionEPKNS2_6GCCellEE4doitES7_ = comdat any

$_ZN4llvh8isa_implIKN6hermes2vm10JSFunctionENS2_6GCCellEvE4doitERKS5_ = comdat any

$_ZN6hermes2vm10JSFunction7classofEPKNS0_6GCCellE = comdat any

$_ZN6hermes2vm11kindInRangeENS0_8CellKindES1_S1_ = comdat any

$_ZN4llvh16cast_convert_valIKN6hermes2vm10JSFunctionEPKNS2_6GCCellES7_E4doitERKS7_ = comdat any

$_ZNK6hermes2vm6XorPtrINS0_9CodeBlockELNS0_11XorPtrKeyIDE1EE3getERNS0_7RuntimeE = comdat any

$_ZNK6hermes2vm6XorPtrINS0_9CodeBlockELNS0_11XorPtrKeyIDE1EE3getERNS0_7HadesGCE = comdat any

$_ZN4llvh8dyn_castIKN6hermes2vm13BoundFunctionEKNS2_6GCCellEEENS_10cast_rettyIT_PT0_E8ret_typeESA_ = comdat any

$_ZN4llvh3isaIKN6hermes2vm13BoundFunctionEPKNS2_6GCCellEEEbRKT0_ = comdat any

$_ZN4llvh4castIKN6hermes2vm13BoundFunctionEKNS2_6GCCellEEENS_10cast_rettyIT_PT0_E8ret_typeESA_ = comdat any

$_ZN4llvh13isa_impl_wrapIKN6hermes2vm13BoundFunctionEKPKNS2_6GCCellES7_E4doitERS8_ = comdat any

$_ZN4llvh13isa_impl_wrapIKN6hermes2vm13BoundFunctionEPKNS2_6GCCellES7_E4doitERKS7_ = comdat any

$_ZN4llvh11isa_impl_clIKN6hermes2vm13BoundFunctionEPKNS2_6GCCellEE4doitES7_ = comdat any

$_ZN4llvh8isa_implIKN6hermes2vm13BoundFunctionENS2_6GCCellEvE4doitERKS5_ = comdat any

$_ZN6hermes2vm13BoundFunction7classofEPKNS0_6GCCellE = comdat any

$_ZN4llvh16cast_convert_valIKN6hermes2vm13BoundFunctionEPKNS2_6GCCellES7_E4doitERKS7_ = comdat any

$_ZNK6hermes2vm9GCPointerINS0_8CallableEE3getERNS0_11PointerBaseE = comdat any

$_ZN6hermes2vm14vmcast_or_nullINS0_8CallableEEEPT_PNS0_6GCCellE = comdat any

$_ZNK6hermes2vm14StackFramePtrTILb0EE23getPreviousFramePointerEv = comdat any

$_ZNK6hermes2vm11HermesValue16getNativePointerINS0_17PinnedHermesValueEEEPT_v = comdat any

$_ZNK6hermes2vm10CallResultINS0_11HermesValueELNS0_6detail20CallResultSpecializeE2EE9getStatusEv = comdat any

$_ZN6hermes2vm17HermesValueTraitsINS0_11HermesValueELb0EE5arrowERKS2_ = comdat any

$_ZNK6hermes2vm10CallResultINS0_12PseudoHandleINS0_15StringPrimitiveEEELNS0_6detail20CallResultSpecializeE6EE9getStatusEv = comdat any

$_ZNK6hermes2vm12PseudoHandleINS0_15StringPrimitiveEE14unsafeGetValueEv = comdat any

$_ZN6hermes2vm10CallResultINS0_12PseudoHandleINS0_15StringPrimitiveEEELNS0_6detail20CallResultSpecializeE6EE8getValueEv = comdat any

$_ZN6hermes2vm6HandleINS0_15StringPrimitiveEEC2ERNS0_15HandleRootOwnerEPS2_ = comdat any

$_ZN6hermes2vm12PseudoHandleINS0_15StringPrimitiveEE10invalidateEv = comdat any

$_ZN6hermes2vm16StringTraitsImplINS0_15StringPrimitiveEE6encodeEPS2_ = comdat any

$_ZN4llvh23SmallVectorTemplateBaseIDsLb1EE4growEm = comdat any

$_ZN4llvh25SmallVectorTemplateCommonIDsvE8grow_podEmm = comdat any

$_ZN6hermes2vm16StringTraitsImplINS0_15StringPrimitiveEE5arrowERKNS0_11HermesValueE = comdat any

$_ZN6hermes2vm16StringTraitsImplINS0_15StringPrimitiveEE6decodeENS0_11HermesValueE = comdat any

$_ZN6hermes2vm6vmcastINS0_16ArrayStorageBaseINS0_13HermesValue32EEEEEPT_PNS0_6GCCellE = comdat any

$_ZN4llvh4castIN6hermes2vm16ArrayStorageBaseINS2_13HermesValue32EEENS2_6GCCellEEENS_10cast_rettyIT_PT0_E8ret_typeESA_ = comdat any

$_ZN4llvh16cast_convert_valIN6hermes2vm16ArrayStorageBaseINS2_13HermesValue32EEEPNS2_6GCCellES7_E4doitERKS7_ = comdat any

$_ZNK6hermes2vm12PseudoHandleINS0_11HermesValueEE3getEv = comdat any

$_ZN6hermes2vm12PseudoHandleINS0_11HermesValueEE10invalidateEv = comdat any

$_ZNKSt15__uniq_ptr_implISt6vectorIN6hermes2vm14StackTraceInfoESaIS3_EESt14default_deleteIS5_EE6_M_ptrEv = comdat any

$_ZSt3getILm0EJPSt6vectorIN6hermes2vm14StackTraceInfoESaIS3_EESt14default_deleteIS5_EEERKNSt13tuple_elementIXT_ESt5tupleIJDpT0_EEE4typeERKSD_ = comdat any

$_ZSt12__get_helperILm0EPSt6vectorIN6hermes2vm14StackTraceInfoESaIS3_EEJSt14default_deleteIS5_EEERKT0_RKSt11_Tuple_implIXT_EJS9_DpT1_EE = comdat any

$_ZNSt11_Tuple_implILm0EJPSt6vectorIN6hermes2vm14StackTraceInfoESaIS3_EESt14default_deleteIS5_EEE7_M_headERKS9_ = comdat any

$_ZNSt10_Head_baseILm0EPSt6vectorIN6hermes2vm14StackTraceInfoESaIS3_EELb0EE7_M_headERKS7_ = comdat any

$_ZNK6hermes2vm6HandleINS0_8JSObjectEE3getEv = comdat any

$_ZNSt10unique_ptrISt6vectorIN6hermes2vm14StackTraceInfoESaIS3_EESt14default_deleteIS5_EE11get_deleterEv = comdat any

$_ZNK6hermes2vm10CallResultINS0_12PseudoHandleINS0_11HermesValueEEELNS0_6detail20CallResultSpecializeE5EE9getStatusEv = comdat any

$_ZN6hermes2vm6HandleINS0_8JSObjectEE14vmcast_or_nullEPKNS0_17PinnedHermesValueE = comdat any

$_ZN6hermes2vm14vmcast_or_nullINS0_8JSObjectEEEPT_NS0_11HermesValueE = comdat any

$_ZN6hermes2vm6HandleINS0_8JSObjectEEC2EPKNS0_17PinnedHermesValueEb = comdat any

$_ZN6hermes2vm14vmcast_or_nullINS0_8JSObjectEEEPT_PNS0_6GCCellE = comdat any

$_ZN6hermes2vm15HermesValueCastINS0_8JSObjectELb1EE11assertValidENS0_11HermesValueE = comdat any

$_ZN6hermes2vm13MutableHandleINS0_15StringPrimitiveEE3setEPS2_ = comdat any

$_ZN6hermes2vm10HandleBase9handleRefEv = comdat any

$_ZNK6hermes2vm11HermesValue9isPointerEv = comdat any

$_ZN4llvh4castIN6hermes2vm7JSErrorENS2_6GCCellEEENS_10cast_rettyIT_PT0_E8ret_typeES8_ = comdat any

$_ZN4llvh16cast_convert_valIN6hermes2vm7JSErrorEPNS2_6GCCellES5_E4doitERKS5_ = comdat any

$_ZN6hermes2vm6HandleINS0_7JSErrorEEC2ERNS0_15HandleRootOwnerEPS2_ = comdat any

$_ZN6hermes2vm17HermesValueTraitsINS0_7JSErrorELb1EE6encodeEPS2_ = comdat any

$_ZN4llvh3isaIN6hermes2vm7JSErrorEPNS2_6GCCellEEEbRKT0_ = comdat any

$_ZN4llvh13isa_impl_wrapIN6hermes2vm7JSErrorEKPNS2_6GCCellEPKS4_E4doitERS6_ = comdat any

$_ZN4llvh13isa_impl_wrapIN6hermes2vm7JSErrorEPKNS2_6GCCellES6_E4doitERKS6_ = comdat any

$_ZN4llvh11isa_impl_clIN6hermes2vm7JSErrorEPKNS2_6GCCellEE4doitES6_ = comdat any

$_ZN4llvh8isa_implIN6hermes2vm7JSErrorENS2_6GCCellEvE4doitERKS4_ = comdat any

$_ZN6hermes2vm7JSError7classofEPKNS0_6GCCellE = comdat any

$_ZN6hermes2vm15HermesValueCastINS0_7JSErrorELb1EE11assertValidENS0_11HermesValueE = comdat any

$_ZN6hermes2vm6HandleINS0_7JSErrorEEC2ERKNS0_10HandleBaseEb = comdat any

$_ZN6hermes2vm6HandleINS0_7JSErrorEE12unsafeCreateEPKNS0_17PinnedHermesValueE = comdat any

$_ZN6hermes2vm6HandleINS0_7JSErrorEEC2EPKNS0_17PinnedHermesValueEb = comdat any

$_ZN6hermes2vm5vmisaINS0_8JSObjectEEEbNS0_11HermesValueE = comdat any

$_ZN4llvh3isaIN6hermes2vm8JSObjectEPNS2_6GCCellEEEbRKT0_ = comdat any

$_ZN4llvh13isa_impl_wrapIN6hermes2vm8JSObjectEKPNS2_6GCCellEPKS4_E4doitERS6_ = comdat any

$_ZN4llvh13isa_impl_wrapIN6hermes2vm8JSObjectEPKNS2_6GCCellES6_E4doitERKS6_ = comdat any

$_ZN4llvh11isa_impl_clIN6hermes2vm8JSObjectEPKNS2_6GCCellEE4doitES6_ = comdat any

$_ZN4llvh8isa_implIN6hermes2vm8JSObjectENS2_6GCCellEvE4doitERKS4_ = comdat any

$_ZN6hermes2vm8JSObject7classofEPKNS0_6GCCellE = comdat any

$_ZNK6hermes2vm10CallResultINS0_6HandleINS0_7JSErrorEEELNS0_6detail20CallResultSpecializeE4EE9getStatusEv = comdat any

$_ZNK6hermes2vm10HandleBase26unsafeGetPinnedHermesValueEv = comdat any

$_ZN6hermes2vm10CallResultINS0_6HandleINS0_7JSErrorEEELNS0_6detail20CallResultSpecializeE4EE8getValueEv = comdat any

$_ZN6hermes2vm17HermesValueTraitsINS0_7JSErrorELb1EE5arrowERKNS0_11HermesValueE = comdat any

$_ZN6hermes2vm17HermesValueTraitsINS0_7JSErrorELb1EE6decodeENS0_11HermesValueE = comdat any

$_ZN4llvh11SmallVectorIDsLj32EEC2Ev = comdat any

$_ZN4llvh15SmallVectorImplIDsEC2Ej = comdat any

$_ZN4llvh23SmallVectorTemplateBaseIDsLb1EEC2Em = comdat any

$_ZN4llvh25SmallVectorTemplateCommonIDsvEC2Em = comdat any

$_ZN6hermes2vm5vmisaINS0_8CallableEEEbNS0_11HermesValueE = comdat any

$_ZN6hermes2vm6HandleINS0_8CallableEEC2ERKNS0_10HandleBaseEb = comdat any

$_ZN6hermes2vm15HandleRootOwner14makeNullHandleINS0_8CallableEEENS0_6HandleIT_EEv = comdat any

$_ZN4llvh3isaIN6hermes2vm8CallableEPNS2_6GCCellEEEbRKT0_ = comdat any

$_ZN4llvh13isa_impl_wrapIN6hermes2vm8CallableEKPNS2_6GCCellEPKS4_E4doitERS6_ = comdat any

$_ZN4llvh13isa_impl_wrapIN6hermes2vm8CallableEPKNS2_6GCCellES6_E4doitERKS6_ = comdat any

$_ZN4llvh11isa_impl_clIN6hermes2vm8CallableEPKNS2_6GCCellEE4doitES6_ = comdat any

$_ZN4llvh8isa_implIN6hermes2vm8CallableENS2_6GCCellEvE4doitERKS4_ = comdat any

$_ZN6hermes2vm8Callable7classofEPKNS0_6GCCellE = comdat any

$_ZN6hermes2vm6HandleINS0_8CallableEE14vmcast_or_nullEPKNS0_17PinnedHermesValueE = comdat any

$_ZN6hermes2vm14vmcast_or_nullINS0_8CallableEEEPT_NS0_11HermesValueE = comdat any

$_ZN6hermes2vm6HandleINS0_8CallableEEC2EPKNS0_17PinnedHermesValueEb = comdat any

$_ZN6hermes2vm13MutableHandleINS0_11HermesValueEE3setES2_ = comdat any

$_ZNK4llvh25SmallVectorTemplateCommonIDsvE4dataEv = comdat any

$_ZN6hermes2vm6vmcastINS0_8JSObjectEEEPT_NS0_11HermesValueE = comdat any

$_ZN6hermes2vm6HandleINS0_8JSObjectEEC2ERNS0_15HandleRootOwnerEPS2_ = comdat any

$_ZN6hermes2vm6vmcastINS0_8JSObjectEEEPT_PNS0_6GCCellE = comdat any

$_ZN4llvh4castIN6hermes2vm8JSObjectENS2_6GCCellEEENS_10cast_rettyIT_PT0_E8ret_typeES8_ = comdat any

$_ZN4llvh16cast_convert_valIN6hermes2vm8JSObjectEPNS2_6GCCellES5_E4doitERKS5_ = comdat any

$_ZN6hermes2vm17HermesValueTraitsINS0_8JSObjectELb1EE6encodeEPS2_ = comdat any

$_ZN6hermes2vm6GCBase10makeAFixedINS0_7JSErrorELNS0_12HasFinalizerE1ELNS0_9LongLivedE0EJRNS0_7RuntimeERNS0_6HandleINS0_8JSObjectEEENS8_INS0_11HiddenClassEEERbEEEPT_DpOT2_ = comdat any

$_ZN6hermes2vm6GCBase5makeAINS0_7JSErrorELb1ELNS0_12HasFinalizerE1ELNS0_9LongLivedE0EJRNS0_7RuntimeERNS0_6HandleINS0_8JSObjectEEENS8_INS0_11HiddenClassEEERbEEEPT_jDpOT3_ = comdat any

$_ZN6hermes2vm7HadesGC5makeAINS0_7JSErrorELb1ELNS0_12HasFinalizerE1ELNS0_9LongLivedE0EJRNS0_7RuntimeERNS0_6HandleINS0_8JSObjectEEENS8_INS0_11HiddenClassEEERbEEEPT_jDpOT3_ = comdat any

$_ZN6hermes2vm6GCBase13constructCellINS0_7JSErrorEJRNS0_7RuntimeERNS0_6HandleINS0_8JSObjectEEENS6_INS0_11HiddenClassEEERbEEEPT_PvjDpOT0_ = comdat any

$_ZN6hermes2vm7HadesGC9allocWorkILb1ELNS0_12HasFinalizerE1EEEPvj = comdat any

$_ZN6hermes2vm7JSErrorC2ERNS0_7RuntimeENS0_6HandleINS0_8JSObjectEEENS4_INS0_11HiddenClassEEEb = comdat any

$_ZNK6hermes2vm6HandleINS0_11HiddenClassEEdeEv = comdat any

$_ZN6hermes2vm8JSObjectC2ERNS0_7RuntimeEPS1_PNS0_11HiddenClassE = comdat any

$_ZNSt10unique_ptrISt6vectorIN6hermes2vm14StackTraceInfoESaIS3_EESt14default_deleteIS5_EEC2IS7_vEEv = comdat any

$_ZN6hermes2vm9GCPointerINS0_16ArrayStorageBaseINS0_13HermesValue32EEEEC2Ev = comdat any

$_ZNK6hermes2vm6HandleINS0_11HiddenClassEE3getEv = comdat any

$_ZN6hermes2vm17HermesValueTraitsINS0_11HiddenClassELb1EE6decodeENS0_11HermesValueE = comdat any

$_ZN6hermes2vm8JSObjectC2INS0_13GCPointerBase10NoBarriersEEERNS0_7RuntimeEPS1_PNS0_11HiddenClassET_ = comdat any

$_ZN6hermes2vm11ObjectFlagsC2Ev = comdat any

$_ZN6hermes2vm9GCPointerINS0_8JSObjectEEC2INS0_13GCPointerBase10NoBarriersEEERNS0_11PointerBaseEPS2_RNS0_7HadesGCET_ = comdat any

$_ZN6hermes2vm9GCPointerINS0_11HiddenClassEEC2INS0_13GCPointerBase10NoBarriersEEERNS0_11PointerBaseEPS2_RNS0_7HadesGCET_ = comdat any

$_ZN6hermes2vm9GCPointerINS0_16ArrayStorageBaseINS0_13HermesValue32EEEEC2EDn = comdat any

$_ZN6hermes2vm13GCPointerBaseC2INS1_10NoBarriersEEERNS0_11PointerBaseEPNS0_6GCCellERNS0_7HadesGCET_ = comdat any

$_ZN6hermes2vm17CompressedPointer6encodeEPNS0_6GCCellERNS0_11PointerBaseE = comdat any

$_ZN6hermes2vm17CompressedPointer20pointerToStorageTypeEPNS0_6GCCellERNS0_11PointerBaseE = comdat any

$_ZNK6hermes2vm11PointerBase14pointerToBasedEPKv = comdat any

$_ZN6hermes2vm12BasedPointerC2EDn = comdat any

$_ZN6hermes2vm13GCPointerBaseC2EDn = comdat any

$_ZN6hermes2vm17CompressedPointerC2EDn = comdat any

$_ZNSt15__uniq_ptr_dataISt6vectorIN6hermes2vm14StackTraceInfoESaIS3_EESt14default_deleteIS5_ELb1ELb1EEC2Ev = comdat any

$_ZNSt15__uniq_ptr_implISt6vectorIN6hermes2vm14StackTraceInfoESaIS3_EESt14default_deleteIS5_EEC2Ev = comdat any

$_ZNSt5tupleIJPSt6vectorIN6hermes2vm14StackTraceInfoESaIS3_EESt14default_deleteIS5_EEEC2ILb1ETnNSt9enable_ifIXclsr17_TupleConstraintsIXT_ES6_S8_EE37__is_implicitly_default_constructibleEEbE4typeELb1EEEv = comdat any

$_ZNSt11_Tuple_implILm0EJPSt6vectorIN6hermes2vm14StackTraceInfoESaIS3_EESt14default_deleteIS5_EEEC2Ev = comdat any

$_ZNSt11_Tuple_implILm1EJSt14default_deleteISt6vectorIN6hermes2vm14StackTraceInfoESaIS4_EEEEEC2Ev = comdat any

$_ZNSt10_Head_baseILm0EPSt6vectorIN6hermes2vm14StackTraceInfoESaIS3_EELb0EEC2Ev = comdat any

$_ZNSt10_Head_baseILm1ESt14default_deleteISt6vectorIN6hermes2vm14StackTraceInfoESaIS4_EEELb1EEC2Ev = comdat any

$_ZNSt6vectorIPN6hermes2vm6GCCellESaIS3_EE12emplace_backIJS3_EEERS3_DpOT_ = comdat any

$_ZNSt16allocator_traitsISaIPN6hermes2vm6GCCellEEE9constructIS3_JS3_EEEvRS4_PT_DpOT0_ = comdat any

$_ZNSt6vectorIPN6hermes2vm6GCCellESaIS3_EE17_M_realloc_insertIJS3_EEEvN9__gnu_cxx17__normal_iteratorIPS3_S5_EEDpOT_ = comdat any

$_ZNSt6vectorIPN6hermes2vm6GCCellESaIS3_EE3endEv = comdat any

$_ZNSt6vectorIPN6hermes2vm6GCCellESaIS3_EE4backEv = comdat any

$_ZNSt15__new_allocatorIPN6hermes2vm6GCCellEE9constructIS3_JS3_EEEvPT_DpOT0_ = comdat any

$_ZNKSt6vectorIPN6hermes2vm6GCCellESaIS3_EE12_M_check_lenEmPKc = comdat any

$_ZN9__gnu_cxxmiIPPN6hermes2vm6GCCellESt6vectorIS4_SaIS4_EEEENS_17__normal_iteratorIT_T0_E15difference_typeERKSC_SF_ = comdat any

$_ZNSt6vectorIPN6hermes2vm6GCCellESaIS3_EE5beginEv = comdat any

$_ZNSt12_Vector_baseIPN6hermes2vm6GCCellESaIS3_EE11_M_allocateEm = comdat any

$_ZNSt6vectorIPN6hermes2vm6GCCellESaIS3_EE11_S_relocateEPS3_S6_S6_RS4_ = comdat any

$_ZNK9__gnu_cxx17__normal_iteratorIPPN6hermes2vm6GCCellESt6vectorIS4_SaIS4_EEE4baseEv = comdat any

$_ZNSt12_Vector_baseIPN6hermes2vm6GCCellESaIS3_EE19_M_get_Tp_allocatorEv = comdat any

$_ZNSt12_Vector_baseIPN6hermes2vm6GCCellESaIS3_EE13_M_deallocateEPS3_m = comdat any

$_ZNKSt6vectorIPN6hermes2vm6GCCellESaIS3_EE8max_sizeEv = comdat any

$_ZNKSt6vectorIPN6hermes2vm6GCCellESaIS3_EE4sizeEv = comdat any

$_ZSt3maxImERKT_S2_S2_ = comdat any

$_ZNSt6vectorIPN6hermes2vm6GCCellESaIS3_EE11_S_max_sizeERKS4_ = comdat any

$_ZNKSt12_Vector_baseIPN6hermes2vm6GCCellESaIS3_EE19_M_get_Tp_allocatorEv = comdat any

$_ZNSt16allocator_traitsISaIPN6hermes2vm6GCCellEEE8max_sizeERKS4_ = comdat any

$_ZNKSt15__new_allocatorIPN6hermes2vm6GCCellEE8max_sizeEv = comdat any

$_ZNKSt15__new_allocatorIPN6hermes2vm6GCCellEE11_M_max_sizeEv = comdat any

$_ZN9__gnu_cxx17__normal_iteratorIPPN6hermes2vm6GCCellESt6vectorIS4_SaIS4_EEEC2ERKS5_ = comdat any

$_ZNSt16allocator_traitsISaIPN6hermes2vm6GCCellEEE8allocateERS4_m = comdat any

$_ZNSt15__new_allocatorIPN6hermes2vm6GCCellEE8allocateEmPKv = comdat any

$_ZSt12__relocate_aIPPN6hermes2vm6GCCellES4_SaIS3_EET0_T_S7_S6_RT1_ = comdat any

$_ZSt14__relocate_a_1IPN6hermes2vm6GCCellES3_ENSt9enable_ifIXsr3std24__is_bitwise_relocatableIT_EE5valueEPS5_E4typeES6_S6_S6_RSaIT0_E = comdat any

$_ZSt12__niter_baseIPPN6hermes2vm6GCCellEET_S5_ = comdat any

$_ZNSt16allocator_traitsISaIPN6hermes2vm6GCCellEEE10deallocateERS4_PS3_m = comdat any

$_ZNSt15__new_allocatorIPN6hermes2vm6GCCellEE10deallocateEPS3_m = comdat any

$_ZNK9__gnu_cxx17__normal_iteratorIPPN6hermes2vm6GCCellESt6vectorIS4_SaIS4_EEEmiEl = comdat any

$_ZNK9__gnu_cxx17__normal_iteratorIPPN6hermes2vm6GCCellESt6vectorIS4_SaIS4_EEEdeEv = comdat any

$_ZN6hermes2vm8JSObject12cellSizeImplINS0_7JSErrorEEEjv = comdat any

$_ZN6hermes2vm18createPseudoHandleINS0_7JSErrorEEENS0_12PseudoHandleIT_EEPS4_ = comdat any

$_ZN6hermes2vm8JSObject21initDirectPropStorageINS0_7JSErrorEEEPT_RNS0_7RuntimeES5_ = comdat any

$_ZN6hermes2vm12PseudoHandleINS0_7JSErrorEE6createEPS2_ = comdat any

$_ZN6hermes2vm12PseudoHandleINS0_7JSErrorEEC2EPS2_ = comdat any

$_ZN6hermes2vm17GCHermesValueBaseINS0_13HermesValue32EE18uninitialized_fillIPS3_EEvT_S6_S2_RNS0_7HadesGCE = comdat any

$_ZN6hermes2vm17GCHermesValueBaseINS0_13HermesValue32EEC2ISt17integral_constantIbLb1EEEES2_RNS0_7HadesGCEDn = comdat any

$_ZN6hermes2vm15HermesValueCastINS0_16PropertyAccessorELb1EE11assertValidENS0_11HermesValueE = comdat any

$_ZN6hermes2vm6HandleINS0_16PropertyAccessorEEC2EPKNS0_17PinnedHermesValueEb = comdat any

$_ZN6hermes2vm6HandleINS0_15StringPrimitiveEE12unsafeCreateEPKNS0_17PinnedHermesValueE = comdat any

$_ZN6hermes2vm6HandleINS0_15StringPrimitiveEEC2EPKNS0_17PinnedHermesValueEb = comdat any

$_ZNK6hermes2vm10CallResultINS0_13StringBuilderELNS0_6detail20CallResultSpecializeE0EE9getStatusEv = comdat any

$_ZNK4llvh8OptionalIN6hermes2vm13StringBuilderEEcvbEv = comdat any

$_ZNR4llvh8OptionalIN6hermes2vm13StringBuilderEEdeEv = comdat any

$_ZN4llvh8OptionalIN6hermes2vm13StringBuilderEE10getPointerEv = comdat any

$_ZN6hermes2vm5vmisaINS0_15StringPrimitiveEEEbNS0_11HermesValueE = comdat any

$_ZN4llvh3isaIN6hermes2vm15StringPrimitiveEPNS2_6GCCellEEEbRKT0_ = comdat any

$_ZN4llvh13isa_impl_wrapIN6hermes2vm15StringPrimitiveEKPNS2_6GCCellEPKS4_E4doitERS6_ = comdat any

$_ZN4llvh13isa_impl_wrapIN6hermes2vm15StringPrimitiveEPKNS2_6GCCellES6_E4doitERKS6_ = comdat any

$_ZN4llvh11isa_impl_clIN6hermes2vm15StringPrimitiveEPKNS2_6GCCellEE4doitES6_ = comdat any

$_ZN4llvh8isa_implIN6hermes2vm15StringPrimitiveENS2_6GCCellEvE4doitERKS4_ = comdat any

$_ZN6hermes2vm15StringPrimitive7classofEPKNS0_6GCCellE = comdat any

$_ZN6hermes2vm16ArrayStorageBaseINS0_13HermesValue32EE11maxElementsEv = comdat any

$_ZN6hermes2vm7Runtime13makeAVariableINS0_16ArrayStorageBaseINS0_13HermesValue32EEELNS0_12HasFinalizerE0ELNS0_9LongLivedE0EJEEEPT_jDpOT2_ = comdat any

$_ZN6hermes2vm6GCBase17maxAllocationSizeEv = comdat any

$_ZSt3minIjERKT_S2_S2_ = comdat any

$_ZN6hermes2vm7HadesGC21maxAllocationSizeImplEv = comdat any

$_ZN6hermes2vm6GCCell7maxSizeEv = comdat any

$_ZN6hermes2vm18AlignedHeapSegment7maxSizeEv = comdat any

$_ZN6hermes2vm14AlignedStorage4sizeEv = comdat any

$_ZN6hermes2vm11KindAndSize7maxSizeEv = comdat any

$_ZN6hermes2vm6GCBase13makeAVariableINS0_16ArrayStorageBaseINS0_13HermesValue32EEELNS0_12HasFinalizerE0ELNS0_9LongLivedE0EJEEEPT_jDpOT2_ = comdat any

$_ZN6hermes2vm6GCBase5makeAINS0_16ArrayStorageBaseINS0_13HermesValue32EEELb0ELNS0_12HasFinalizerE0ELNS0_9LongLivedE0EJEEEPT_jDpOT3_ = comdat any

$_ZN6hermes2vm7HadesGC5makeAINS0_16ArrayStorageBaseINS0_13HermesValue32EEELb0ELNS0_12HasFinalizerE0ELNS0_9LongLivedE0EJEEEPT_jDpOT3_ = comdat any

$_ZN6hermes2vm6GCBase13constructCellINS0_16ArrayStorageBaseINS0_13HermesValue32EEEJEEEPT_PvjDpOT0_ = comdat any

$_ZN6hermes2vm7HadesGC9allocWorkILb0ELNS0_12HasFinalizerE0EEEPvj = comdat any

$_ZN6hermes2vm16ArrayStorageBaseINS0_13HermesValue32EEC2Ev = comdat any

$_ZNSt6atomicIjEC2Ej = comdat any

$_ZNSt13__atomic_baseIjEC2Ej = comdat any

$_ZN6hermes2vm10dyn_vmcastINS0_10JSFunctionEEEPT_NS0_11HermesValueE = comdat any

$_ZNK6hermes2vm11HermesValue16getNativePointerINS0_9CodeBlockEEEPT_v = comdat any

$_ZN6hermes2vm10dyn_vmcastINS0_10JSFunctionEEEPT_PNS0_6GCCellE = comdat any

$_ZN4llvh8dyn_castIN6hermes2vm10JSFunctionENS2_6GCCellEEENS_10cast_rettyIT_PT0_E8ret_typeES8_ = comdat any

$_ZN4llvh3isaIN6hermes2vm10JSFunctionEPNS2_6GCCellEEEbRKT0_ = comdat any

$_ZN4llvh4castIN6hermes2vm10JSFunctionENS2_6GCCellEEENS_10cast_rettyIT_PT0_E8ret_typeES8_ = comdat any

$_ZN4llvh13isa_impl_wrapIN6hermes2vm10JSFunctionEKPNS2_6GCCellEPKS4_E4doitERS6_ = comdat any

$_ZN4llvh13isa_impl_wrapIN6hermes2vm10JSFunctionEPKNS2_6GCCellES6_E4doitERKS6_ = comdat any

$_ZN4llvh11isa_impl_clIN6hermes2vm10JSFunctionEPKNS2_6GCCellEE4doitES6_ = comdat any

$_ZN4llvh8isa_implIN6hermes2vm10JSFunctionENS2_6GCCellEvE4doitERKS4_ = comdat any

$_ZN4llvh16cast_convert_valIN6hermes2vm10JSFunctionEPNS2_6GCCellES5_E4doitERKS5_ = comdat any

$_ZNSt15__uniq_ptr_dataISt6vectorIN6hermes2vm14StackTraceInfoESaIS3_EESt14default_deleteIS5_ELb1ELb1EECI2St15__uniq_ptr_implIS5_S7_EEPS5_ = comdat any

$_ZNSt15__uniq_ptr_implISt6vectorIN6hermes2vm14StackTraceInfoESaIS3_EESt14default_deleteIS5_EEC2EPS5_ = comdat any

$_ZNK6hermes2vm16ArrayStorageBaseINS0_13HermesValue32EE4dataEv = comdat any

$_ZNK4llvh15TrailingObjectsIN6hermes2vm16ArrayStorageBaseINS2_13HermesValue32EEEJNS2_17GCHermesValueBaseIS4_EEEE18getTrailingObjectsIS7_EEPKT_v = comdat any

$_ZN4llvh25trailing_objects_internal19TrailingObjectsImplILi4EN6hermes2vm16ArrayStorageBaseINS3_13HermesValue32EEENS_15TrailingObjectsIS6_JNS3_17GCHermesValueBaseIS5_EEEEES6_JS9_EE22getTrailingObjectsImplEPKS6_NS0_19TrailingObjectsBase13OverloadTokenIS9_EE = comdat any

$_ZN4llvh15TrailingObjectsIN6hermes2vm16ArrayStorageBaseINS2_13HermesValue32EEEJNS2_17GCHermesValueBaseIS4_EEEE22getTrailingObjectsImplEPKS5_NS_25trailing_objects_internal19TrailingObjectsBase13OverloadTokenIS5_EE = comdat any

$_ZNSt16allocator_traitsISaIN6hermes2vm14StackTraceInfoEEE9constructIS2_JRPNS1_9CodeBlockEjEEEvRS3_PT_DpOT0_ = comdat any

$_ZNSt6vectorIN6hermes2vm14StackTraceInfoESaIS2_EE17_M_realloc_insertIJRPNS1_9CodeBlockEjEEEvN9__gnu_cxx17__normal_iteratorIPS2_S4_EEDpOT_ = comdat any

$_ZNSt6vectorIN6hermes2vm14StackTraceInfoESaIS2_EE3endEv = comdat any

$_ZNSt6vectorIN6hermes2vm14StackTraceInfoESaIS2_EE4backEv = comdat any

$_ZNSt15__new_allocatorIN6hermes2vm14StackTraceInfoEE9constructIS2_JRPNS1_9CodeBlockEjEEEvPT_DpOT0_ = comdat any

$_ZN6hermes2vm14StackTraceInfoC2EPNS0_9CodeBlockEj = comdat any

$_ZNKSt6vectorIN6hermes2vm14StackTraceInfoESaIS2_EE12_M_check_lenEmPKc = comdat any

$_ZN9__gnu_cxxmiIPN6hermes2vm14StackTraceInfoESt6vectorIS3_SaIS3_EEEENS_17__normal_iteratorIT_T0_E15difference_typeERKSB_SE_ = comdat any

$_ZNSt6vectorIN6hermes2vm14StackTraceInfoESaIS2_EE5beginEv = comdat any

$_ZNSt12_Vector_baseIN6hermes2vm14StackTraceInfoESaIS2_EE11_M_allocateEm = comdat any

$_ZNSt6vectorIN6hermes2vm14StackTraceInfoESaIS2_EE11_S_relocateEPS2_S5_S5_RS3_ = comdat any

$_ZNK9__gnu_cxx17__normal_iteratorIPN6hermes2vm14StackTraceInfoESt6vectorIS3_SaIS3_EEE4baseEv = comdat any

$_ZNKSt6vectorIN6hermes2vm14StackTraceInfoESaIS2_EE8max_sizeEv = comdat any

$_ZNSt6vectorIN6hermes2vm14StackTraceInfoESaIS2_EE11_S_max_sizeERKS3_ = comdat any

$_ZNKSt12_Vector_baseIN6hermes2vm14StackTraceInfoESaIS2_EE19_M_get_Tp_allocatorEv = comdat any

$_ZNSt16allocator_traitsISaIN6hermes2vm14StackTraceInfoEEE8max_sizeERKS3_ = comdat any

$_ZNKSt15__new_allocatorIN6hermes2vm14StackTraceInfoEE8max_sizeEv = comdat any

$_ZNKSt15__new_allocatorIN6hermes2vm14StackTraceInfoEE11_M_max_sizeEv = comdat any

$_ZN9__gnu_cxx17__normal_iteratorIPN6hermes2vm14StackTraceInfoESt6vectorIS3_SaIS3_EEEC2ERKS4_ = comdat any

$_ZNSt16allocator_traitsISaIN6hermes2vm14StackTraceInfoEEE8allocateERS3_m = comdat any

$_ZNSt15__new_allocatorIN6hermes2vm14StackTraceInfoEE8allocateEmPKv = comdat any

$_ZSt12__relocate_aIPN6hermes2vm14StackTraceInfoES3_SaIS2_EET0_T_S6_S5_RT1_ = comdat any

$_ZSt14__relocate_a_1IPN6hermes2vm14StackTraceInfoES3_SaIS2_EET0_T_S6_S5_RT1_ = comdat any

$_ZSt12__niter_baseIPN6hermes2vm14StackTraceInfoEET_S4_ = comdat any

$_ZSt19__relocate_object_aIN6hermes2vm14StackTraceInfoES2_SaIS2_EEvPT_PT0_RT1_ = comdat any

$_ZNSt16allocator_traitsISaIN6hermes2vm14StackTraceInfoEEE9constructIS2_JS2_EEEvRS3_PT_DpOT0_ = comdat any

$_ZNSt16allocator_traitsISaIN6hermes2vm14StackTraceInfoEEE7destroyIS2_EEvRS3_PT_ = comdat any

$_ZNSt15__new_allocatorIN6hermes2vm14StackTraceInfoEE9constructIS2_JS2_EEEvPT_DpOT0_ = comdat any

$_ZNSt15__new_allocatorIN6hermes2vm14StackTraceInfoEE7destroyIS2_EEvPT_ = comdat any

$_ZNK9__gnu_cxx17__normal_iteratorIPN6hermes2vm14StackTraceInfoESt6vectorIS3_SaIS3_EEEmiEl = comdat any

$_ZNK9__gnu_cxx17__normal_iteratorIPN6hermes2vm14StackTraceInfoESt6vectorIS3_SaIS3_EEEdeEv = comdat any

$_ZNSt16allocator_traitsISaIN6hermes2vm14StackTraceInfoEEE9constructIS2_JDniEEEvRS3_PT_DpOT0_ = comdat any

$_ZNSt6vectorIN6hermes2vm14StackTraceInfoESaIS2_EE17_M_realloc_insertIJDniEEEvN9__gnu_cxx17__normal_iteratorIPS2_S4_EEDpOT_ = comdat any

$_ZNSt15__new_allocatorIN6hermes2vm14StackTraceInfoEE9constructIS2_JDniEEEvPT_DpOT0_ = comdat any

$_ZNK6hermes2vm11HermesValue16getNativePointerIKNS_4inst4InstEEEPT_v = comdat any

$_ZN6hermes2vm13GCPointerBase3setERNS0_11PointerBaseEPNS0_6GCCellERNS0_7HadesGCE = comdat any

$_ZN6hermes2vm7HadesGC12writeBarrierEPKNS0_13GCPointerBaseEPKNS0_6GCCellE = comdat any

$_ZN6hermes2vm17CompressedPointer12setNoBarrierES1_ = comdat any

$_ZN6hermes3hbc19DebugSourceLocationC2Ev = comdat any

$_ZN6hermes2vm10dyn_vmcastINS0_15StringPrimitiveEEEPT_PNS0_6GCCellE = comdat any

$_ZN4llvh8dyn_castIN6hermes2vm15StringPrimitiveENS2_6GCCellEEENS_10cast_rettyIT_PT0_E8ret_typeES8_ = comdat any

$_ZNKSt6vectorIN6hermes2vm14StackTraceInfoESaIS2_EE14_M_range_checkEm = comdat any

$_ZNSt6vectorIN6hermes2vm14StackTraceInfoESaIS2_EEixEm = comdat any

$_ZN6hermes2vm6HandleINS0_15StringPrimitiveEE14vmcast_or_nullEPKNS0_17PinnedHermesValueE = comdat any

$_ZN6hermes2vm14vmcast_or_nullINS0_15StringPrimitiveEEEPT_NS0_11HermesValueE = comdat any

$_ZN6hermes2vm14vmcast_or_nullINS0_15StringPrimitiveEEEPT_PNS0_6GCCellE = comdat any

$_ZNK6hermes2vm10CallResultINS0_6HandleINS0_15StringPrimitiveEEELNS0_6detail20CallResultSpecializeE4EE9getStatusEv = comdat any

$_ZN4llvh15SmallVectorImplIDsE6appendIPKDsvEEvT_S5_ = comdat any

$_ZNSt11char_traitsIDsE6lengthEPKDs = comdat any

$_ZN4llvh23SmallVectorTemplateBaseIDsLb1EE18uninitialized_copyIKDsDsEEvPT_S5_PT0_PNSt9enable_ifIXsr3std7is_sameINSt12remove_constIS4_E4typeES6_EE5valueEvE4typeE = comdat any

$_ZNSt11char_traitsIDsE2eqERKDsS2_ = comdat any

$_ZN6hermes2vm10CallResultINS0_6HandleINS0_15StringPrimitiveEEELNS0_6detail20CallResultSpecializeE4EE8getValueEv = comdat any

$_ZN4llvh8DenseMapIPKN6hermes2vm9CodeBlockEjNS_12DenseMapInfoIS5_EENS_6detail12DenseMapPairIS5_jEEE4initEj = comdat any

$_ZN4llvh12DenseMapBaseINS_8DenseMapIPKN6hermes2vm9CodeBlockEjNS_12DenseMapInfoIS6_EENS_6detail12DenseMapPairIS6_jEEEES6_jS8_SB_E31getMinBucketToReserveForEntriesEj = comdat any

$_ZN4llvh8DenseMapIPKN6hermes2vm9CodeBlockEjNS_12DenseMapInfoIS5_EENS_6detail12DenseMapPairIS5_jEEE15allocateBucketsEj = comdat any

$_ZN4llvh12DenseMapBaseINS_8DenseMapIPKN6hermes2vm9CodeBlockEjNS_12DenseMapInfoIS6_EENS_6detail12DenseMapPairIS6_jEEEES6_jS8_SB_E9initEmptyEv = comdat any

$_ZN4llvh12NextPowerOf2Em = comdat any

$_ZN4llvh12DenseMapBaseINS_8DenseMapIPKN6hermes2vm9CodeBlockEjNS_12DenseMapInfoIS6_EENS_6detail12DenseMapPairIS6_jEEEES6_jS8_SB_E13setNumEntriesEj = comdat any

$_ZN4llvh12DenseMapBaseINS_8DenseMapIPKN6hermes2vm9CodeBlockEjNS_12DenseMapInfoIS6_EENS_6detail12DenseMapPairIS6_jEEEES6_jS8_SB_E16setNumTombstonesEj = comdat any

$_ZN4llvh12DenseMapBaseINS_8DenseMapIPKN6hermes2vm9CodeBlockEjNS_12DenseMapInfoIS6_EENS_6detail12DenseMapPairIS6_jEEEES6_jS8_SB_E11getEmptyKeyEv = comdat any

$_ZN4llvh12DenseMapBaseINS_8DenseMapIPKN6hermes2vm9CodeBlockEjNS_12DenseMapInfoIS6_EENS_6detail12DenseMapPairIS6_jEEEES6_jS8_SB_E10getBucketsEv = comdat any

$_ZN4llvh12DenseMapBaseINS_8DenseMapIPKN6hermes2vm9CodeBlockEjNS_12DenseMapInfoIS6_EENS_6detail12DenseMapPairIS6_jEEEES6_jS8_SB_E13getBucketsEndEv = comdat any

$_ZN4llvh6detail12DenseMapPairIPKN6hermes2vm9CodeBlockEjE8getFirstEv = comdat any

$_ZN4llvh8DenseMapIPKN6hermes2vm9CodeBlockEjNS_12DenseMapInfoIS5_EENS_6detail12DenseMapPairIS5_jEEE13setNumEntriesEj = comdat any

$_ZN4llvh8DenseMapIPKN6hermes2vm9CodeBlockEjNS_12DenseMapInfoIS5_EENS_6detail12DenseMapPairIS5_jEEE16setNumTombstonesEj = comdat any

$_ZN4llvh12DenseMapInfoIPKN6hermes2vm9CodeBlockEE11getEmptyKeyEv = comdat any

$_ZNK4llvh8DenseMapIPKN6hermes2vm9CodeBlockEjNS_12DenseMapInfoIS5_EENS_6detail12DenseMapPairIS5_jEEE10getBucketsEv = comdat any

$_ZNK4llvh12DenseMapBaseINS_8DenseMapIPKN6hermes2vm9CodeBlockEjNS_12DenseMapInfoIS6_EENS_6detail12DenseMapPairIS6_jEEEES6_jS8_SB_E13getNumBucketsEv = comdat any

$_ZNK4llvh8DenseMapIPKN6hermes2vm9CodeBlockEjNS_12DenseMapInfoIS5_EENS_6detail12DenseMapPairIS5_jEEE13getNumBucketsEv = comdat any

$_ZN4llvh12DenseMapBaseINS_8DenseMapIPKN6hermes2vm9CodeBlockEjNS_12DenseMapInfoIS6_EENS_6detail12DenseMapPairIS6_jEEEES6_jS8_SB_E10destroyAllEv = comdat any

$_ZN4llvh12DenseMapBaseINS_8DenseMapIPKN6hermes2vm9CodeBlockEjNS_12DenseMapInfoIS6_EENS_6detail12DenseMapPairIS6_jEEEES6_jS8_SB_E15getTombstoneKeyEv = comdat any

$_ZN4llvh12DenseMapInfoIPKN6hermes2vm9CodeBlockEE7isEqualES5_S5_ = comdat any

$_ZN4llvh6detail12DenseMapPairIPKN6hermes2vm9CodeBlockEjE9getSecondEv = comdat any

$_ZN4llvh12DenseMapInfoIPKN6hermes2vm9CodeBlockEE15getTombstoneKeyEv = comdat any

$_ZN4llvh15SmallVectorImplIDsE6appendIPKhvEEvT_S5_ = comdat any

$_ZNK4llvh9StringRef11bytes_beginEv = comdat any

$_ZNK4llvh9StringRef9bytes_endEv = comdat any

$_ZSt8distanceIPKhENSt15iterator_traitsIT_E15difference_typeES3_S3_ = comdat any

$_ZN4llvh23SmallVectorTemplateBaseIDsLb1EE18uninitialized_copyIPKhPDsEEvT_S6_T0_ = comdat any

$_ZSt10__distanceIPKhENSt15iterator_traitsIT_E15difference_typeES3_S3_St26random_access_iterator_tag = comdat any

$_ZSt19__iterator_categoryIPKhENSt15iterator_traitsIT_E17iterator_categoryERKS3_ = comdat any

$_ZSt18uninitialized_copyIPKhPDsET0_T_S4_S3_ = comdat any

$_ZNSt20__uninitialized_copyILb1EE13__uninit_copyIPKhPDsEET0_T_S6_S5_ = comdat any

$_ZSt4copyIPKhPDsET0_T_S4_S3_ = comdat any

$_ZSt13__copy_move_aILb0EPKhPDsET1_T0_S4_S3_ = comdat any

$_ZSt12__miter_baseIPKhET_S2_ = comdat any

$_ZSt14__copy_move_a1ILb0EPKhPDsET1_T0_S4_S3_ = comdat any

$_ZSt12__niter_baseIPKhET_S2_ = comdat any

$_ZSt14__copy_move_a2ILb0EPKhPDsET1_T0_S4_S3_ = comdat any

$_ZNSt11__copy_moveILb0ELb0ESt26random_access_iterator_tagE8__copy_mIPKhPDsEET0_T_S7_S6_ = comdat any

$_ZNK4llvh9StringRef3endEv = comdat any

$_ZN6hermes2vm8SymbolIDC2Ev = comdat any

$_ZNK6hermes8OptValueINS_3hbc19DebugSourceLocationEE8getValueEv = comdat any

$_ZN4llvh12DenseMapBaseINS_8DenseMapIPKN6hermes2vm9CodeBlockEjNS_12DenseMapInfoIS6_EENS_6detail12DenseMapPairIS6_jEEEES6_jS8_SB_E11try_emplaceIJjEEESt4pairINS_16DenseMapIteratorIS6_jS8_SB_Lb0EEEbEOS6_DpOT_ = comdat any

$_ZN4llvh12DenseMapBaseINS_8DenseMapIPKN6hermes2vm9CodeBlockEjNS_12DenseMapInfoIS6_EENS_6detail12DenseMapPairIS6_jEEEES6_jS8_SB_E15LookupBucketForIS6_EEbRKT_RPSB_ = comdat any

$_ZSt9make_pairIN4llvh16DenseMapIteratorIPKN6hermes2vm9CodeBlockEjNS0_12DenseMapInfoIS6_EENS0_6detail12DenseMapPairIS6_jEELb0EEEbESt4pairINSt25__strip_reference_wrapperINSt5decayIT_E4typeEE6__typeENSE_INSF_IT0_E4typeEE6__typeEEOSG_OSL_ = comdat any

$_ZN4llvh12DenseMapBaseINS_8DenseMapIPKN6hermes2vm9CodeBlockEjNS_12DenseMapInfoIS6_EENS_6detail12DenseMapPairIS6_jEEEES6_jS8_SB_E12makeIteratorEPSB_SE_RNS_14DebugEpochBaseEb = comdat any

$_ZN4llvh12DenseMapBaseINS_8DenseMapIPKN6hermes2vm9CodeBlockEjNS_12DenseMapInfoIS6_EENS_6detail12DenseMapPairIS6_jEEEES6_jS8_SB_E16InsertIntoBucketIS6_JjEEEPSB_SF_OT_DpOT0_ = comdat any

$_ZNK4llvh12DenseMapBaseINS_8DenseMapIPKN6hermes2vm9CodeBlockEjNS_12DenseMapInfoIS6_EENS_6detail12DenseMapPairIS6_jEEEES6_jS8_SB_E15LookupBucketForIS6_EEbRKT_RPKSB_ = comdat any

$_ZNK4llvh12DenseMapBaseINS_8DenseMapIPKN6hermes2vm9CodeBlockEjNS_12DenseMapInfoIS6_EENS_6detail12DenseMapPairIS6_jEEEES6_jS8_SB_E10getBucketsEv = comdat any

$_ZN4llvh12DenseMapBaseINS_8DenseMapIPKN6hermes2vm9CodeBlockEjNS_12DenseMapInfoIS6_EENS_6detail12DenseMapPairIS6_jEEEES6_jS8_SB_E12getHashValueERKS6_ = comdat any

$_ZNK4llvh6detail12DenseMapPairIPKN6hermes2vm9CodeBlockEjE8getFirstEv = comdat any

$_ZN4llvh12DenseMapInfoIPKN6hermes2vm9CodeBlockEE12getHashValueES5_ = comdat any

$_ZNSt4pairIN4llvh16DenseMapIteratorIPKN6hermes2vm9CodeBlockEjNS0_12DenseMapInfoIS6_EENS0_6detail12DenseMapPairIS6_jEELb0EEEbEC2ISC_bTnNSt9enable_ifIXaaclsr5_PCCPE22_MoveConstructiblePairIT_T0_EEclsr5_PCCPE30_ImplicitlyMoveConvertiblePairISG_SH_EEEbE4typeELb1EEEOSG_OSH_ = comdat any

$_ZN4llvh20shouldReverseIterateIPKN6hermes2vm9CodeBlockEEEbv = comdat any

$_ZN4llvh16DenseMapIteratorIPKN6hermes2vm9CodeBlockEjNS_12DenseMapInfoIS5_EENS_6detail12DenseMapPairIS5_jEELb0EEC2EPSA_SC_RKNS_14DebugEpochBaseEb = comdat any

$_ZN4llvh14DebugEpochBase10HandleBaseC2EPKS0_ = comdat any

$_ZN4llvh16DenseMapIteratorIPKN6hermes2vm9CodeBlockEjNS_12DenseMapInfoIS5_EENS_6detail12DenseMapPairIS5_jEELb0EE23RetreatPastEmptyBucketsEv = comdat any

$_ZN4llvh16DenseMapIteratorIPKN6hermes2vm9CodeBlockEjNS_12DenseMapInfoIS5_EENS_6detail12DenseMapPairIS5_jEELb0EE23AdvancePastEmptyBucketsEv = comdat any

$_ZN4llvh12DenseMapBaseINS_8DenseMapIPKN6hermes2vm9CodeBlockEjNS_12DenseMapInfoIS6_EENS_6detail12DenseMapPairIS6_jEEEES6_jS8_SB_E20InsertIntoBucketImplIS6_EEPSB_RKS6_RKT_SF_ = comdat any

$_ZN4llvh14DebugEpochBase14incrementEpochEv = comdat any

$_ZNK4llvh12DenseMapBaseINS_8DenseMapIPKN6hermes2vm9CodeBlockEjNS_12DenseMapInfoIS6_EENS_6detail12DenseMapPairIS6_jEEEES6_jS8_SB_E13getNumEntriesEv = comdat any

$_ZN4llvh12DenseMapBaseINS_8DenseMapIPKN6hermes2vm9CodeBlockEjNS_12DenseMapInfoIS6_EENS_6detail12DenseMapPairIS6_jEEEES6_jS8_SB_E4growEj = comdat any

$_ZNK4llvh12DenseMapBaseINS_8DenseMapIPKN6hermes2vm9CodeBlockEjNS_12DenseMapInfoIS6_EENS_6detail12DenseMapPairIS6_jEEEES6_jS8_SB_E16getNumTombstonesEv = comdat any

$_ZN4llvh12DenseMapBaseINS_8DenseMapIPKN6hermes2vm9CodeBlockEjNS_12DenseMapInfoIS6_EENS_6detail12DenseMapPairIS6_jEEEES6_jS8_SB_E19incrementNumEntriesEv = comdat any

$_ZN4llvh12DenseMapBaseINS_8DenseMapIPKN6hermes2vm9CodeBlockEjNS_12DenseMapInfoIS6_EENS_6detail12DenseMapPairIS6_jEEEES6_jS8_SB_E22decrementNumTombstonesEv = comdat any

$_ZNK4llvh8DenseMapIPKN6hermes2vm9CodeBlockEjNS_12DenseMapInfoIS5_EENS_6detail12DenseMapPairIS5_jEEE13getNumEntriesEv = comdat any

$_ZN4llvh8DenseMapIPKN6hermes2vm9CodeBlockEjNS_12DenseMapInfoIS5_EENS_6detail12DenseMapPairIS5_jEEE4growEj = comdat any

$_ZSt3maxIjERKT_S2_S2_ = comdat any

$_ZN4llvh12DenseMapBaseINS_8DenseMapIPKN6hermes2vm9CodeBlockEjNS_12DenseMapInfoIS6_EENS_6detail12DenseMapPairIS6_jEEEES6_jS8_SB_E18moveFromOldBucketsEPSB_SE_ = comdat any

$_ZNK4llvh8DenseMapIPKN6hermes2vm9CodeBlockEjNS_12DenseMapInfoIS5_EENS_6detail12DenseMapPairIS5_jEEE16getNumTombstonesEv = comdat any

$_ZNK6hermes2vm10CallResultINS0_6HandleINS0_7JSArrayEEELNS0_6detail20CallResultSpecializeE4EE9getStatusEv = comdat any

$_ZN6hermes2vm10CallResultINS0_6HandleINS0_7JSArrayEEELNS0_6detail20CallResultSpecializeE4EE8getValueEv = comdat any

@_ZN6hermes2vm7JSError2vtE = hidden constant { i64, i32, i32, ptr, ptr, ptr, ptr, ptr, ptr, ptr, ptr, ptr, ptr, ptr } { i64 -47381121442796770, i32 29, i32 56, ptr @_ZN6hermes2vm7JSError13_finalizeImplEPNS0_6GCCellERNS0_7HadesGCE, ptr null, ptr @_ZN6hermes2vm7JSError15_mallocSizeImplEPNS0_6GCCellE, ptr null, ptr @_ZN6hermes2vm8JSObject23_getOwnIndexedRangeImplEPS1_RNS0_7RuntimeE, ptr @_ZN6hermes2vm8JSObject19_haveOwnIndexedImplEPS1_RNS0_7RuntimeEj, ptr @_ZN6hermes2vm8JSObject31_getOwnIndexedPropertyFlagsImplEPS1_RNS0_7RuntimeEj, ptr @_ZN6hermes2vm8JSObject18_getOwnIndexedImplENS0_12PseudoHandleIS1_EERNS0_7RuntimeEj, ptr @_ZN6hermes2vm8JSObject18_setOwnIndexedImplENS0_6HandleIS1_EERNS0_7RuntimeEjNS2_INS0_11HermesValueEEE, ptr @_ZN6hermes2vm8JSObject21_deleteOwnIndexedImplENS0_6HandleIS1_EERNS0_7RuntimeEj, ptr @_ZN6hermes2vm8JSObject23_checkAllOwnIndexedImplEPS1_RNS0_7RuntimeENS0_12ObjectVTable22CheckAllOwnIndexedModeE }, align 8
@.str = private unnamed_addr constant [10 x i8] c"funcNames\00", align 1
@.str.1 = private unnamed_addr constant [8 x i8] c"domains\00", align 1
@.str.2 = private unnamed_addr constant [51 x i8] c"Error.stack getter called with an invalid receiver\00", align 1
@.str.3 = private unnamed_addr constant [3 x i8] c": \00", align 1
@.str.4 = private unnamed_addr constant [8 x i16] [i16 60, i16 101, i16 114, i16 114, i16 111, i16 114, i16 62, i16 0], align 2
@.str.5 = private unnamed_addr constant [36 x i16] [i16 60, i16 119, i16 104, i16 105, i16 108, i16 101, i16 32, i16 99, i16 111, i16 110, i16 118, i16 101, i16 114, i16 116, i16 105, i16 110, i16 103, i16 32, i16 101, i16 114, i16 114, i16 111, i16 114, i16 32, i16 116, i16 111, i16 32, i16 115, i16 116, i16 114, i16 105, i16 110, i16 103, i16 58, i16 32, i16 0], align 2
@.str.6 = private unnamed_addr constant [2 x i16] [i16 62, i16 0], align 2
@_ZZN6hermes2vm7JSError29constructStackTraceString_RJSERNS0_7RuntimeENS0_6HandleIS1_EENS4_INS0_8JSObjectEEERNS0_12SmallXStringIDsLj32EEEE10PRINT_HEAD = internal constant i32 50, align 4
@_ZZN6hermes2vm7JSError29constructStackTraceString_RJSERNS0_7RuntimeENS0_6HandleIS1_EENS4_INS0_8JSObjectEEERNS0_12SmallXStringIDsLj32EEEE10PRINT_TAIL = internal constant i32 50, align 4
@.str.7 = private unnamed_addr constant [19 x i8] c"\0A    ... skipping \00", align 1
@.str.8 = private unnamed_addr constant [8 x i8] c" frames\00", align 1
@.str.9 = private unnamed_addr constant [9 x i16] [i16 10, i16 32, i16 32, i16 32, i16 32, i16 97, i16 116, i16 32, i16 0], align 2
@.str.10 = private unnamed_addr constant [10 x i16] [i16 97, i16 110, i16 111, i16 110, i16 121, i16 109, i16 111, i16 117, i16 115, i16 0], align 2
@.str.11 = private unnamed_addr constant [10 x i16] [i16 32, i16 40, i16 110, i16 97, i16 116, i16 105, i16 118, i16 101, i16 41, i16 0], align 2
@.str.12 = private unnamed_addr constant [3 x i16] [i16 32, i16 40, i16 0], align 2
@.str.13 = private unnamed_addr constant [12 x i16] [i16 97, i16 100, i16 100, i16 114, i16 101, i16 115, i16 115, i16 32, i16 97, i16 116, i16 32, i16 0], align 2
@.str.14 = private unnamed_addr constant [8 x i8] c"unknown\00", align 1
@_ZN6hermes2vm15HandleRootOwner10nullValue_E = external global %"class.hermes::vm::PinnedHermesValue", align 8
@.str.15 = private unnamed_addr constant [24 x i8] c"basic_string::_M_create\00", align 1
@_ZN6hermes2vm15HandleRootOwner15undefinedValue_E = external global %"class.hermes::vm::PinnedHermesValue", align 8
@.str.16 = private unnamed_addr constant [28 x i8] c"String length exceeds limit\00", align 1
@.str.17 = private unnamed_addr constant [34 x i8] c"Unhandled out of memory exception\00", align 1
@_ZN6hermes2vm15HandleRootOwner12nullPointer_E = external global %"class.hermes::vm::PinnedHermesValue", align 8
@.str.18 = private unnamed_addr constant [26 x i8] c"vector::_M_realloc_insert\00", align 1
@.str.19 = private unnamed_addr constant [74 x i8] c"vector::_M_range_check: __n (which is %zu) >= this->size() (which is %zu)\00", align 1

; Function Attrs: mustprogress nounwind uwtable
define hidden void @_ZN6hermes2vm7JSError13_finalizeImplEPNS0_6GCCellERNS0_7HadesGCE(ptr noundef %cell, ptr noundef nonnull align 8 dereferenceable(8152) %0) #0 align 2 {
entry:
  %cell.addr = alloca ptr, align 8
  %.addr = alloca ptr, align 8
  %self = alloca ptr, align 8
  store ptr %cell, ptr %cell.addr, align 8
  store ptr %0, ptr %.addr, align 8
  %1 = load ptr, ptr %cell.addr, align 8
  %call = call noundef ptr @_ZN6hermes2vm6vmcastINS0_7JSErrorEEEPT_PNS0_6GCCellE(ptr noundef %1)
  store ptr %call, ptr %self, align 8
  %2 = load ptr, ptr %self, align 8
  call void @_ZN6hermes2vm7JSErrorD2Ev(ptr noundef nonnull align 8 dereferenceable(56) %2) #10
  ret void
}

; Function Attrs: mustprogress nounwind uwtable
define hidden noundef i64 @_ZN6hermes2vm7JSError15_mallocSizeImplEPNS0_6GCCellE(ptr noundef %cell) #0 align 2 {
entry:
  %cell.addr = alloca ptr, align 8
  %self = alloca ptr, align 8
  %stacktrace = alloca ptr, align 8
  store ptr %cell, ptr %cell.addr, align 8
  %0 = load ptr, ptr %cell.addr, align 8
  %call = call noundef ptr @_ZN6hermes2vm6vmcastINS0_7JSErrorEEEPT_PNS0_6GCCellE(ptr noundef %0)
  store ptr %call, ptr %self, align 8
  %1 = load ptr, ptr %self, align 8
  %stacktrace_ = getelementptr inbounds %"class.hermes::vm::JSError", ptr %1, i32 0, i32 2
  %call1 = call noundef ptr @_ZNKSt10unique_ptrISt6vectorIN6hermes2vm14StackTraceInfoESaIS3_EESt14default_deleteIS5_EE3getEv(ptr noundef nonnull align 8 dereferenceable(8) %stacktrace_) #10
  store ptr %call1, ptr %stacktrace, align 8
  %2 = load ptr, ptr %stacktrace, align 8
  %tobool = icmp ne ptr %2, null
  br i1 %tobool, label %cond.true, label %cond.false

cond.true:                                        ; preds = %entry
  %3 = load ptr, ptr %stacktrace, align 8
  %call2 = call noundef i64 @_ZNKSt6vectorIN6hermes2vm14StackTraceInfoESaIS2_EE8capacityEv(ptr noundef nonnull align 8 dereferenceable(24) %3) #10
  %mul = mul i64 %call2, 16
  %add = add i64 24, %mul
  br label %cond.end

cond.false:                                       ; preds = %entry
  br label %cond.end

cond.end:                                         ; preds = %cond.false, %cond.true
  %cond = phi i64 [ %add, %cond.true ], [ 0, %cond.false ]
  ret i64 %cond
}

declare i64 @_ZN6hermes2vm8JSObject23_getOwnIndexedRangeImplEPS1_RNS0_7RuntimeE(ptr noundef, ptr noundef nonnull align 8 dereferenceable(9832)) #1

declare noundef zeroext i1 @_ZN6hermes2vm8JSObject19_haveOwnIndexedImplEPS1_RNS0_7RuntimeEj(ptr noundef, ptr noundef nonnull align 8 dereferenceable(9832), i32 noundef) #1

declare i32 @_ZN6hermes2vm8JSObject31_getOwnIndexedPropertyFlagsImplEPS1_RNS0_7RuntimeEj(ptr noundef, ptr noundef nonnull align 8 dereferenceable(9832), i32 noundef) #1

declare i64 @_ZN6hermes2vm8JSObject18_getOwnIndexedImplENS0_12PseudoHandleIS1_EERNS0_7RuntimeEj(ptr, ptr noundef nonnull align 8 dereferenceable(9832), i32 noundef) #1

declare i32 @_ZN6hermes2vm8JSObject18_setOwnIndexedImplENS0_6HandleIS1_EERNS0_7RuntimeEjNS2_INS0_11HermesValueEEE(ptr, ptr noundef nonnull align 8 dereferenceable(9832), i32 noundef, ptr) #1

declare noundef zeroext i1 @_ZN6hermes2vm8JSObject21_deleteOwnIndexedImplENS0_6HandleIS1_EERNS0_7RuntimeEj(ptr, ptr noundef nonnull align 8 dereferenceable(9832), i32 noundef) #1

declare noundef zeroext i1 @_ZN6hermes2vm8JSObject23_checkAllOwnIndexedImplEPS1_RNS0_7RuntimeENS0_12ObjectVTable22CheckAllOwnIndexedModeE(ptr noundef, ptr noundef nonnull align 8 dereferenceable(9832), i32 noundef) #1

; Function Attrs: mustprogress nounwind uwtable
define hidden void @_ZN6hermes2vm16JSErrorBuildMetaEPKNS0_6GCCellERNS0_8Metadata7BuilderE(ptr noundef %cell, ptr noundef nonnull align 8 dereferenceable(224) %mb) #0 {
entry:
  %cell.addr = alloca ptr, align 8
  %mb.addr = alloca ptr, align 8
  %self = alloca ptr, align 8
  store ptr %cell, ptr %cell.addr, align 8
  store ptr %mb, ptr %mb.addr, align 8
  %0 = load ptr, ptr %mb.addr, align 8
  %call = call noundef i32 @_ZN6hermes2vm8JSObject15numOverlapSlotsINS0_7JSErrorEEEjv()
  call void @_ZN6hermes2vm8Metadata7Builder23addJSObjectOverlapSlotsEj(ptr noundef nonnull align 8 dereferenceable(224) %0, i32 noundef %call)
  %1 = load ptr, ptr %cell.addr, align 8
  %2 = load ptr, ptr %mb.addr, align 8
  call void @_ZN6hermes2vm17JSObjectBuildMetaEPKNS0_6GCCellERNS0_8Metadata7BuilderE(ptr noundef %1, ptr noundef nonnull align 8 dereferenceable(224) %2)
  %3 = load ptr, ptr %cell.addr, align 8
  store ptr %3, ptr %self, align 8
  %4 = load ptr, ptr %mb.addr, align 8
  call void @_ZN6hermes2vm8Metadata7Builder9setVTableEPKNS0_6VTableE(ptr noundef nonnull align 8 dereferenceable(224) %4, ptr noundef @_ZN6hermes2vm7JSError2vtE)
  %5 = load ptr, ptr %mb.addr, align 8
  %6 = load ptr, ptr %self, align 8
  %funcNames_ = getelementptr inbounds %"class.hermes::vm::JSError", ptr %6, i32 0, i32 5
  call void @_ZN6hermes2vm8Metadata7Builder8addFieldEPKcPKNS0_13GCPointerBaseE(ptr noundef nonnull align 8 dereferenceable(224) %5, ptr noundef @.str, ptr noundef %funcNames_)
  %7 = load ptr, ptr %mb.addr, align 8
  %8 = load ptr, ptr %self, align 8
  %domains_ = getelementptr inbounds %"class.hermes::vm::JSError", ptr %8, i32 0, i32 4
  call void @_ZN6hermes2vm8Metadata7Builder8addFieldEPKcPKNS0_13GCPointerBaseE(ptr noundef nonnull align 8 dereferenceable(224) %7, ptr noundef @.str.1, ptr noundef %domains_)
  ret void
}

; Function Attrs: mustprogress nounwind uwtable
define linkonce_odr hidden void @_ZN6hermes2vm8Metadata7Builder23addJSObjectOverlapSlotsEj(ptr noundef nonnull align 8 dereferenceable(224) %this, i32 noundef %num) #0 comdat align 2 {
entry:
  %this.addr = alloca ptr, align 8
  %num.addr = alloca i32, align 4
  %ref.tmp = alloca %"class.hermes::OptValue.2", align 4
  store ptr %this, ptr %this.addr, align 8
  store i32 %num, ptr %num.addr, align 4
  %this1 = load ptr, ptr %this.addr, align 8
  %jsObjectOverlapSlots_ = getelementptr inbounds %"class.hermes::vm::Metadata::Builder", ptr %this1, i32 0, i32 7
  %call = call noundef zeroext i1 @_ZNK6hermes8OptValueIjEcvbEv(ptr noundef nonnull align 4 dereferenceable(5) %jsObjectOverlapSlots_)
  br i1 %call, label %if.else, label %if.then

if.then:                                          ; preds = %entry
  call void @_ZN6hermes8OptValueIjEC2ERKj(ptr noundef nonnull align 4 dereferenceable(5) %ref.tmp, ptr noundef nonnull align 4 dereferenceable(4) %num.addr)
  %jsObjectOverlapSlots_2 = getelementptr inbounds %"class.hermes::vm::Metadata::Builder", ptr %this1, i32 0, i32 7
  call void @llvm.memcpy.p0.p0.i64(ptr align 8 %jsObjectOverlapSlots_2, ptr align 4 %ref.tmp, i64 5, i1 false)
  br label %if.end

if.else:                                          ; preds = %entry
  br label %if.end

if.end:                                           ; preds = %if.else, %if.then
  ret void
}

; Function Attrs: mustprogress nounwind uwtable
define linkonce_odr hidden noundef i32 @_ZN6hermes2vm8JSObject15numOverlapSlotsINS0_7JSErrorEEEjv() #0 comdat align 2 {
entry:
  %aligned = alloca i64, align 8
  %excess = alloca i64, align 8
  %ref.tmp = alloca i64, align 8
  %call = call noundef i64 @_ZN4llvh7alignToILm4EEEmm(i64 noundef 56)
  store i64 %call, ptr %aligned, align 8
  %0 = load i64, ptr %aligned, align 8
  %call1 = call noundef i64 @_ZN6hermes2vm8JSObject17directPropsOffsetEv()
  %sub = sub i64 %0, %call1
  %div = udiv i64 %sub, 4
  store i64 %div, ptr %excess, align 8
  store i64 5, ptr %ref.tmp, align 8
  %call2 = call noundef nonnull align 8 dereferenceable(8) ptr @_ZSt3minImERKT_S2_S2_(ptr noundef nonnull align 8 dereferenceable(8) %excess, ptr noundef nonnull align 8 dereferenceable(8) %ref.tmp)
  %1 = load i64, ptr %call2, align 8
  %conv = trunc i64 %1 to i32
  ret i32 %conv
}

declare void @_ZN6hermes2vm17JSObjectBuildMetaEPKNS0_6GCCellERNS0_8Metadata7BuilderE(ptr noundef, ptr noundef nonnull align 8 dereferenceable(224)) #1

; Function Attrs: mustprogress nounwind uwtable
define linkonce_odr hidden void @_ZN6hermes2vm8Metadata7Builder9setVTableEPKNS0_6VTableE(ptr noundef nonnull align 8 dereferenceable(224) %this, ptr noundef %vtp) #0 comdat align 2 {
entry:
  %this.addr = alloca ptr, align 8
  %vtp.addr = alloca ptr, align 8
  store ptr %this, ptr %this.addr, align 8
  store ptr %vtp, ptr %vtp.addr, align 8
  %this1 = load ptr, ptr %this.addr, align 8
  %0 = load ptr, ptr %vtp.addr, align 8
  %vtp_ = getelementptr inbounds %"class.hermes::vm::Metadata::Builder", ptr %this1, i32 0, i32 8
  store ptr %0, ptr %vtp_, align 8
  ret void
}

declare void @_ZN6hermes2vm8Metadata7Builder8addFieldEPKcPKNS0_13GCPointerBaseE(ptr noundef nonnull align 8 dereferenceable(224), ptr noundef, ptr noundef) #1

; Function Attrs: mustprogress nounwind uwtable
define hidden ptr @_ZN6hermes2vm7JSError23getErrorFromStackTargetERNS0_7RuntimeENS0_6HandleINS0_8JSObjectEEE(ptr noundef nonnull align 8 dereferenceable(9832) %runtime, ptr %targetHandle.coerce) #0 align 2 {
entry:
  %retval = alloca %"class.hermes::vm::CallResult.9", align 8
  %targetHandle = alloca %"class.hermes::vm::Handle", align 8
  %runtime.addr = alloca ptr, align 8
  %desc = alloca %"struct.hermes::vm::NamedPropertyDescriptor", align 4
  %exists = alloca i8, align 1
  %agg.tmp = alloca %"class.hermes::vm::Handle", align 8
  %agg.tmp2 = alloca %"class.hermes::vm::SymbolID", align 4
  %sv = alloca %"class.hermes::vm::HermesValue32", align 4
  %agg.tmp11 = alloca %"struct.hermes::vm::NamedPropertyDescriptor", align 4
  %agg.tmp15 = alloca %"class.hermes::vm::Handle.10", align 8
  %agg.tmp26 = alloca %"class.hermes::vm::Handle.10", align 8
  %ref.tmp = alloca %"class.hermes::vm::TwineChar16", align 8
  %coerce.dive = getelementptr inbounds %"class.hermes::vm::Handle", ptr %targetHandle, i32 0, i32 0
  %coerce.dive1 = getelementptr inbounds %"class.hermes::vm::HandleBase", ptr %coerce.dive, i32 0, i32 0
  store ptr %targetHandle.coerce, ptr %coerce.dive1, align 8
  store ptr %runtime, ptr %runtime.addr, align 8
  %call = call noundef zeroext i1 @_ZNK6hermes2vm6HandleINS0_8JSObjectEEcvbEv(ptr noundef nonnull align 8 dereferenceable(8) %targetHandle)
  br i1 %call, label %if.then, label %if.end33

if.then:                                          ; preds = %entry
  call void @_ZN6hermes2vm23NamedPropertyDescriptorC2Ev(ptr noundef nonnull align 4 dereferenceable(8) %desc)
  call void @llvm.memcpy.p0.p0.i64(ptr align 8 %agg.tmp, ptr align 8 %targetHandle, i64 8, i1 false)
  %0 = load ptr, ptr %runtime.addr, align 8
  %call3 = call i32 @_ZN6hermes2vm10Predefined11getSymbolIDENS1_5IPropE(i32 noundef 8)
  %coerce.dive4 = getelementptr inbounds %"class.hermes::vm::SymbolID", ptr %agg.tmp2, i32 0, i32 0
  store i32 %call3, ptr %coerce.dive4, align 4
  %coerce.dive5 = getelementptr inbounds %"class.hermes::vm::Handle", ptr %agg.tmp, i32 0, i32 0
  %coerce.dive6 = getelementptr inbounds %"class.hermes::vm::HandleBase", ptr %coerce.dive5, i32 0, i32 0
  %1 = load ptr, ptr %coerce.dive6, align 8
  %coerce.dive7 = getelementptr inbounds %"class.hermes::vm::SymbolID", ptr %agg.tmp2, i32 0, i32 0
  %2 = load i32, ptr %coerce.dive7, align 4
  %call8 = call noundef zeroext i1 @_ZN6hermes2vm8JSObject21getOwnNamedDescriptorENS0_6HandleIS1_EERNS0_7RuntimeENS0_8SymbolIDERNS0_23NamedPropertyDescriptorE(ptr %1, ptr noundef nonnull align 8 dereferenceable(9832) %0, i32 %2, ptr noundef nonnull align 4 dereferenceable(8) %desc)
  %frombool = zext i1 %call8 to i8
  store i8 %frombool, ptr %exists, align 1
  %3 = load i8, ptr %exists, align 1
  %tobool = trunc i8 %3 to i1
  br i1 %tobool, label %if.then9, label %if.end

if.then9:                                         ; preds = %if.then
  %call10 = call noundef ptr @_ZNK6hermes2vm6HandleINS0_8JSObjectEEdeEv(ptr noundef nonnull align 8 dereferenceable(8) %targetHandle)
  %4 = load ptr, ptr %runtime.addr, align 8
  call void @llvm.memcpy.p0.p0.i64(ptr align 4 %agg.tmp11, ptr align 4 %desc, i64 8, i1 false)
  %coerce.dive12 = getelementptr inbounds %"struct.hermes::vm::NamedPropertyDescriptor", ptr %agg.tmp11, i32 0, i32 0
  %5 = load i64, ptr %coerce.dive12, align 4
  %call13 = call i32 @_ZN6hermes2vm8JSObject23getNamedSlotValueUnsafeEPS1_RNS0_11PointerBaseENS0_23NamedPropertyDescriptorE(ptr noundef %call10, ptr noundef nonnull align 1 dereferenceable(1) %4, i64 %5)
  %coerce.dive14 = getelementptr inbounds %"class.hermes::vm::HermesValue32", ptr %sv, i32 0, i32 0
  store i32 %call13, ptr %coerce.dive14, align 4
  %6 = load ptr, ptr %runtime.addr, align 8
  %7 = load ptr, ptr %runtime.addr, align 8
  %call16 = call noundef ptr @_ZNK6hermes2vm13HermesValue329getObjectERNS0_11PointerBaseE(ptr noundef nonnull align 4 dereferenceable(4) %sv, ptr noundef nonnull align 1 dereferenceable(1) %7)
  %call17 = call noundef ptr @_ZN6hermes2vm6vmcastINS0_7JSErrorEEEPT_PNS0_6GCCellE(ptr noundef %call16)
  %call18 = call ptr @_ZN6hermes2vm15HandleRootOwner10makeHandleINS0_7JSErrorEEENS0_6HandleIT_EEPS5_(ptr noundef nonnull align 8 dereferenceable(16) %6, ptr noundef %call17)
  %coerce.dive19 = getelementptr inbounds %"class.hermes::vm::Handle.10", ptr %agg.tmp15, i32 0, i32 0
  %coerce.dive20 = getelementptr inbounds %"class.hermes::vm::HandleBase", ptr %coerce.dive19, i32 0, i32 0
  store ptr %call18, ptr %coerce.dive20, align 8
  %coerce.dive21 = getelementptr inbounds %"class.hermes::vm::Handle.10", ptr %agg.tmp15, i32 0, i32 0
  %coerce.dive22 = getelementptr inbounds %"class.hermes::vm::HandleBase", ptr %coerce.dive21, i32 0, i32 0
  %8 = load ptr, ptr %coerce.dive22, align 8
  call void @_ZN6hermes2vm10CallResultINS0_6HandleINS0_7JSErrorEEELNS0_6detail20CallResultSpecializeE4EEC2ES4_(ptr noundef nonnull align 8 dereferenceable(8) %retval, ptr %8)
  br label %return

if.end:                                           ; preds = %if.then
  %call23 = call noundef ptr @_ZNK6hermes2vm6HandleINS0_8JSObjectEEdeEv(ptr noundef nonnull align 8 dereferenceable(8) %targetHandle)
  %call24 = call noundef zeroext i1 @_ZN6hermes2vm5vmisaINS0_7JSErrorEEEbPNS0_6GCCellE(ptr noundef %call23)
  br i1 %call24, label %if.then25, label %if.end32

if.then25:                                        ; preds = %if.end
  %call27 = call ptr @_ZN6hermes2vm6HandleINS0_7JSErrorEE6vmcastERKNS0_10HandleBaseE(ptr noundef nonnull align 8 dereferenceable(8) %targetHandle)
  %coerce.dive28 = getelementptr inbounds %"class.hermes::vm::Handle.10", ptr %agg.tmp26, i32 0, i32 0
  %coerce.dive29 = getelementptr inbounds %"class.hermes::vm::HandleBase", ptr %coerce.dive28, i32 0, i32 0
  store ptr %call27, ptr %coerce.dive29, align 8
  %coerce.dive30 = getelementptr inbounds %"class.hermes::vm::Handle.10", ptr %agg.tmp26, i32 0, i32 0
  %coerce.dive31 = getelementptr inbounds %"class.hermes::vm::HandleBase", ptr %coerce.dive30, i32 0, i32 0
  %9 = load ptr, ptr %coerce.dive31, align 8
  call void @_ZN6hermes2vm10CallResultINS0_6HandleINS0_7JSErrorEEELNS0_6detail20CallResultSpecializeE4EEC2ES4_(ptr noundef nonnull align 8 dereferenceable(8) %retval, ptr %9)
  br label %return

if.end32:                                         ; preds = %if.end
  br label %if.end33

if.end33:                                         ; preds = %if.end32, %entry
  %10 = load ptr, ptr %runtime.addr, align 8
  call void @_ZN6hermes2vm11TwineChar16C2EPKc(ptr noundef nonnull align 8 dereferenceable(48) %ref.tmp, ptr noundef @.str.2)
  %call34 = call noundef i32 @_ZN6hermes2vm7Runtime14raiseTypeErrorERKNS0_11TwineChar16E(ptr noundef nonnull align 8 dereferenceable(9832) %10, ptr noundef nonnull align 8 dereferenceable(48) %ref.tmp)
  call void @_ZN6hermes2vm10CallResultINS0_6HandleINS0_7JSErrorEEELNS0_6detail20CallResultSpecializeE4EEC2ENS0_15ExecutionStatusE(ptr noundef nonnull align 8 dereferenceable(8) %retval, i32 noundef %call34)
  br label %return

return:                                           ; preds = %if.end33, %if.then25, %if.then9
  %coerce.dive35 = getelementptr inbounds %"class.hermes::vm::CallResult.9", ptr %retval, i32 0, i32 0
  %coerce.dive36 = getelementptr inbounds %"class.hermes::vm::Handle.10", ptr %coerce.dive35, i32 0, i32 0
  %coerce.dive37 = getelementptr inbounds %"class.hermes::vm::HandleBase", ptr %coerce.dive36, i32 0, i32 0
  %11 = load ptr, ptr %coerce.dive37, align 8
  ret ptr %11
}

; Function Attrs: mustprogress nounwind uwtable
define linkonce_odr hidden noundef zeroext i1 @_ZNK6hermes2vm6HandleINS0_8JSObjectEEcvbEv(ptr noundef nonnull align 8 dereferenceable(8) %this) #0 comdat align 2 {
entry:
  %this.addr = alloca ptr, align 8
  store ptr %this, ptr %this.addr, align 8
  %this1 = load ptr, ptr %this.addr, align 8
  %call = call noundef ptr @_ZNK6hermes2vm10HandleBase9handleRefEv(ptr noundef nonnull align 8 dereferenceable(8) %this1)
  %call2 = call noundef zeroext i1 @_ZNK6hermes2vm11HermesValue9isPointerEv(ptr noundef nonnull align 8 dereferenceable(8) %call)
  br i1 %call2, label %land.rhs, label %land.end

land.rhs:                                         ; preds = %entry
  %call3 = call noundef ptr @_ZNK6hermes2vm10HandleBase9handleRefEv(ptr noundef nonnull align 8 dereferenceable(8) %this1)
  %call4 = call noundef ptr @_ZNK6hermes2vm11HermesValue10getPointerEv(ptr noundef nonnull align 8 dereferenceable(8) %call3)
  %tobool = icmp ne ptr %call4, null
  br label %land.end

land.end:                                         ; preds = %land.rhs, %entry
  %0 = phi i1 [ false, %entry ], [ %tobool, %land.rhs ]
  ret i1 %0
}

; Function Attrs: mustprogress nounwind uwtable
define linkonce_odr hidden void @_ZN6hermes2vm23NamedPropertyDescriptorC2Ev(ptr noundef nonnull align 4 dereferenceable(8) %this) unnamed_addr #0 comdat align 2 {
entry:
  %this.addr = alloca ptr, align 8
  store ptr %this, ptr %this.addr, align 8
  %this1 = load ptr, ptr %this.addr, align 8
  call void @_ZN6hermes2vm18PropertyDescriptorC2Ev(ptr noundef nonnull align 4 dereferenceable(8) %this1)
  ret void
}

; Function Attrs: mustprogress nounwind uwtable
define linkonce_odr hidden noundef zeroext i1 @_ZN6hermes2vm8JSObject21getOwnNamedDescriptorENS0_6HandleIS1_EERNS0_7RuntimeENS0_8SymbolIDERNS0_23NamedPropertyDescriptorE(ptr %selfHandle.coerce, ptr noundef nonnull align 8 dereferenceable(9832) %runtime, i32 %name.coerce, ptr noundef nonnull align 4 dereferenceable(8) %desc) #0 comdat align 2 {
entry:
  %selfHandle = alloca %"class.hermes::vm::Handle", align 8
  %name = alloca %"class.hermes::vm::SymbolID", align 4
  %runtime.addr = alloca ptr, align 8
  %desc.addr = alloca ptr, align 8
  %ref.tmp = alloca %"class.hermes::OptValue.306", align 4
  %agg.tmp = alloca %"class.hermes::vm::Handle", align 8
  %agg.tmp3 = alloca %"class.hermes::vm::SymbolID", align 4
  %coerce.dive = getelementptr inbounds %"class.hermes::vm::Handle", ptr %selfHandle, i32 0, i32 0
  %coerce.dive1 = getelementptr inbounds %"class.hermes::vm::HandleBase", ptr %coerce.dive, i32 0, i32 0
  store ptr %selfHandle.coerce, ptr %coerce.dive1, align 8
  %coerce.dive2 = getelementptr inbounds %"class.hermes::vm::SymbolID", ptr %name, i32 0, i32 0
  store i32 %name.coerce, ptr %coerce.dive2, align 4
  store ptr %runtime, ptr %runtime.addr, align 8
  store ptr %desc, ptr %desc.addr, align 8
  call void @llvm.memcpy.p0.p0.i64(ptr align 8 %agg.tmp, ptr align 8 %selfHandle, i64 8, i1 false)
  %0 = load ptr, ptr %runtime.addr, align 8
  call void @llvm.memcpy.p0.p0.i64(ptr align 4 %agg.tmp3, ptr align 4 %name, i64 4, i1 false)
  %1 = load ptr, ptr %desc.addr, align 8
  %coerce.dive4 = getelementptr inbounds %"class.hermes::vm::Handle", ptr %agg.tmp, i32 0, i32 0
  %coerce.dive5 = getelementptr inbounds %"class.hermes::vm::HandleBase", ptr %coerce.dive4, i32 0, i32 0
  %2 = load ptr, ptr %coerce.dive5, align 8
  %coerce.dive6 = getelementptr inbounds %"class.hermes::vm::SymbolID", ptr %agg.tmp3, i32 0, i32 0
  %3 = load i32, ptr %coerce.dive6, align 4
  %call = call i64 @_ZN6hermes2vm8JSObject12findPropertyENS0_6HandleIS1_EERNS0_7RuntimeENS0_8SymbolIDERNS0_23NamedPropertyDescriptorE(ptr %2, ptr noundef nonnull align 8 dereferenceable(9832) %0, i32 %3, ptr noundef nonnull align 4 dereferenceable(8) %1)
  store i64 %call, ptr %ref.tmp, align 4
  %call7 = call noundef zeroext i1 @_ZNK6hermes8OptValueINS_2vm15DictPropertyMap11PropertyPosEE8hasValueEv(ptr noundef nonnull align 4 dereferenceable(5) %ref.tmp)
  ret i1 %call7
}

; Function Attrs: nocallback nofree nounwind willreturn memory(argmem: readwrite)
declare void @llvm.memcpy.p0.p0.i64(ptr noalias nocapture writeonly, ptr noalias nocapture readonly, i64, i1 immarg) #2

; Function Attrs: mustprogress nounwind uwtable
define linkonce_odr hidden i32 @_ZN6hermes2vm10Predefined11getSymbolIDENS1_5IPropE(i32 noundef %predefined) #0 comdat {
entry:
  %retval = alloca %"class.hermes::vm::SymbolID", align 4
  %predefined.addr = alloca i32, align 4
  store i32 %predefined, ptr %predefined.addr, align 4
  %0 = load i32, ptr %predefined.addr, align 4
  %call = call i32 @_ZN6hermes2vm8SymbolID22unsafeCreateNotUniquedEj(i32 noundef %0)
  %coerce.dive = getelementptr inbounds %"class.hermes::vm::SymbolID", ptr %retval, i32 0, i32 0
  store i32 %call, ptr %coerce.dive, align 4
  %coerce.dive1 = getelementptr inbounds %"class.hermes::vm::SymbolID", ptr %retval, i32 0, i32 0
  %1 = load i32, ptr %coerce.dive1, align 4
  ret i32 %1
}

; Function Attrs: mustprogress nounwind uwtable
define linkonce_odr hidden i32 @_ZN6hermes2vm8JSObject23getNamedSlotValueUnsafeEPS1_RNS0_11PointerBaseENS0_23NamedPropertyDescriptorE(ptr noundef %self, ptr noundef nonnull align 1 dereferenceable(1) %runtime, i64 %desc.coerce) #0 comdat align 2 {
entry:
  %retval = alloca %"class.hermes::vm::HermesValue32", align 4
  %desc = alloca %"struct.hermes::vm::NamedPropertyDescriptor", align 4
  %self.addr = alloca ptr, align 8
  %runtime.addr = alloca ptr, align 8
  %coerce.dive = getelementptr inbounds %"struct.hermes::vm::NamedPropertyDescriptor", ptr %desc, i32 0, i32 0
  store i64 %desc.coerce, ptr %coerce.dive, align 4
  store ptr %self, ptr %self.addr, align 8
  store ptr %runtime, ptr %runtime.addr, align 8
  %0 = load ptr, ptr %self.addr, align 8
  %1 = load ptr, ptr %runtime.addr, align 8
  %slot = getelementptr inbounds %"struct.hermes::vm::PropertyDescriptor", ptr %desc, i32 0, i32 1
  %2 = load i32, ptr %slot, align 4
  %call = call i32 @_ZN6hermes2vm8JSObject23getNamedSlotValueUnsafeILNS0_16ArrayStorageBaseINS0_13HermesValue32EE6InlineE0EEES4_PS1_RNS0_11PointerBaseEj(ptr noundef %0, ptr noundef nonnull align 1 dereferenceable(1) %1, i32 noundef %2)
  %coerce.dive1 = getelementptr inbounds %"class.hermes::vm::HermesValue32", ptr %retval, i32 0, i32 0
  store i32 %call, ptr %coerce.dive1, align 4
  %coerce.dive2 = getelementptr inbounds %"class.hermes::vm::HermesValue32", ptr %retval, i32 0, i32 0
  %3 = load i32, ptr %coerce.dive2, align 4
  ret i32 %3
}

; Function Attrs: mustprogress nounwind uwtable
define linkonce_odr hidden noundef ptr @_ZNK6hermes2vm6HandleINS0_8JSObjectEEdeEv(ptr noundef nonnull align 8 dereferenceable(8) %this) #0 comdat align 2 {
entry:
  %this.addr = alloca ptr, align 8
  store ptr %this, ptr %this.addr, align 8
  %this1 = load ptr, ptr %this.addr, align 8
  %call = call noundef ptr @_ZNK6hermes2vm6HandleINS0_8JSObjectEE3getEv(ptr noundef nonnull align 8 dereferenceable(8) %this1)
  ret ptr %call
}

; Function Attrs: mustprogress nounwind uwtable
define linkonce_odr hidden ptr @_ZN6hermes2vm15HandleRootOwner10makeHandleINS0_7JSErrorEEENS0_6HandleIT_EEPS5_(ptr noundef nonnull align 8 dereferenceable(16) %this, ptr noundef %p) #0 comdat align 2 {
entry:
  %retval = alloca %"class.hermes::vm::Handle.10", align 8
  %this.addr = alloca ptr, align 8
  %p.addr = alloca ptr, align 8
  store ptr %this, ptr %this.addr, align 8
  store ptr %p, ptr %p.addr, align 8
  %this1 = load ptr, ptr %this.addr, align 8
  %0 = load ptr, ptr %p.addr, align 8
  call void @_ZN6hermes2vm6HandleINS0_7JSErrorEEC2ERNS0_15HandleRootOwnerEPS2_(ptr noundef nonnull align 8 dereferenceable(8) %retval, ptr noundef nonnull align 8 dereferenceable(16) %this1, ptr noundef %0)
  %coerce.dive = getelementptr inbounds %"class.hermes::vm::Handle.10", ptr %retval, i32 0, i32 0
  %coerce.dive2 = getelementptr inbounds %"class.hermes::vm::HandleBase", ptr %coerce.dive, i32 0, i32 0
  %1 = load ptr, ptr %coerce.dive2, align 8
  ret ptr %1
}

; Function Attrs: mustprogress nounwind uwtable
define linkonce_odr hidden noundef ptr @_ZN6hermes2vm6vmcastINS0_7JSErrorEEEPT_PNS0_6GCCellE(ptr noundef %cell) #0 comdat {
entry:
  %cell.addr = alloca ptr, align 8
  store ptr %cell, ptr %cell.addr, align 8
  %0 = load ptr, ptr %cell.addr, align 8
  %call = call noundef ptr @_ZN4llvh4castIN6hermes2vm7JSErrorENS2_6GCCellEEENS_10cast_rettyIT_PT0_E8ret_typeES8_(ptr noundef %0)
  ret ptr %call
}

; Function Attrs: mustprogress nounwind uwtable
define linkonce_odr hidden noundef ptr @_ZNK6hermes2vm13HermesValue329getObjectERNS0_11PointerBaseE(ptr noundef nonnull align 4 dereferenceable(4) %this, ptr noundef nonnull align 1 dereferenceable(1) %pb) #0 comdat align 2 {
entry:
  %this.addr = alloca ptr, align 8
  %pb.addr = alloca ptr, align 8
  %ref.tmp = alloca %"class.hermes::vm::CompressedPointer", align 4
  store ptr %this, ptr %this.addr, align 8
  store ptr %pb, ptr %pb.addr, align 8
  %this1 = load ptr, ptr %this.addr, align 8
  %raw_ = getelementptr inbounds %"class.hermes::vm::HermesValue32", ptr %this1, i32 0, i32 0
  %0 = load i32, ptr %raw_, align 4
  %call = call i32 @_ZN6hermes2vm17CompressedPointer7fromRawEj(i32 noundef %0)
  %coerce.dive = getelementptr inbounds %"class.hermes::vm::CompressedPointer", ptr %ref.tmp, i32 0, i32 0
  %coerce.dive2 = getelementptr inbounds %"class.hermes::vm::BasedPointer", ptr %coerce.dive, i32 0, i32 0
  store i32 %call, ptr %coerce.dive2, align 4
  %1 = load ptr, ptr %pb.addr, align 8
  %call3 = call noundef ptr @_ZNK6hermes2vm17CompressedPointer3getERNS0_11PointerBaseE(ptr noundef nonnull align 4 dereferenceable(4) %ref.tmp, ptr noundef nonnull align 1 dereferenceable(1) %1)
  ret ptr %call3
}

; Function Attrs: mustprogress nounwind uwtable
define linkonce_odr hidden void @_ZN6hermes2vm10CallResultINS0_6HandleINS0_7JSErrorEEELNS0_6detail20CallResultSpecializeE4EEC2ES4_(ptr noundef nonnull align 8 dereferenceable(8) %this, ptr %value.coerce) unnamed_addr #0 comdat align 2 {
entry:
  %value = alloca %"class.hermes::vm::Handle.10", align 8
  %this.addr = alloca ptr, align 8
  %coerce.dive = getelementptr inbounds %"class.hermes::vm::Handle.10", ptr %value, i32 0, i32 0
  %coerce.dive1 = getelementptr inbounds %"class.hermes::vm::HandleBase", ptr %coerce.dive, i32 0, i32 0
  store ptr %value.coerce, ptr %coerce.dive1, align 8
  store ptr %this, ptr %this.addr, align 8
  %this2 = load ptr, ptr %this.addr, align 8
  %valueOrStatus_ = getelementptr inbounds %"class.hermes::vm::CallResult.9", ptr %this2, i32 0, i32 0
  call void @llvm.memcpy.p0.p0.i64(ptr align 8 %valueOrStatus_, ptr align 8 %value, i64 8, i1 false)
  ret void
}

; Function Attrs: mustprogress nounwind uwtable
define linkonce_odr hidden noundef zeroext i1 @_ZN6hermes2vm5vmisaINS0_7JSErrorEEEbPNS0_6GCCellE(ptr noundef %cell) #0 comdat {
entry:
  %cell.addr = alloca ptr, align 8
  store ptr %cell, ptr %cell.addr, align 8
  %call = call noundef zeroext i1 @_ZN4llvh3isaIN6hermes2vm7JSErrorEPNS2_6GCCellEEEbRKT0_(ptr noundef nonnull align 8 dereferenceable(8) %cell.addr)
  ret i1 %call
}

; Function Attrs: mustprogress nounwind uwtable
define linkonce_odr hidden ptr @_ZN6hermes2vm6HandleINS0_7JSErrorEE6vmcastERKNS0_10HandleBaseE(ptr noundef nonnull align 8 dereferenceable(8) %other) #0 comdat align 2 {
entry:
  %retval = alloca %"class.hermes::vm::Handle.10", align 8
  %other.addr = alloca ptr, align 8
  %agg.tmp = alloca %"class.hermes::vm::HermesValue", align 8
  store ptr %other, ptr %other.addr, align 8
  %0 = load ptr, ptr %other.addr, align 8
  %call = call i64 @_ZNK6hermes2vm10HandleBase14getHermesValueEv(ptr noundef nonnull align 8 dereferenceable(8) %0)
  %coerce.dive = getelementptr inbounds %"class.hermes::vm::HermesValue", ptr %agg.tmp, i32 0, i32 0
  store i64 %call, ptr %coerce.dive, align 8
  %coerce.dive1 = getelementptr inbounds %"class.hermes::vm::HermesValue", ptr %agg.tmp, i32 0, i32 0
  %1 = load i64, ptr %coerce.dive1, align 8
  call void @_ZN6hermes2vm15HermesValueCastINS0_7JSErrorELb1EE11assertValidENS0_11HermesValueE(i64 %1)
  %2 = load ptr, ptr %other.addr, align 8
  call void @_ZN6hermes2vm6HandleINS0_7JSErrorEEC2ERKNS0_10HandleBaseEb(ptr noundef nonnull align 8 dereferenceable(8) %retval, ptr noundef nonnull align 8 dereferenceable(8) %2, i1 noundef zeroext true)
  %coerce.dive2 = getelementptr inbounds %"class.hermes::vm::Handle.10", ptr %retval, i32 0, i32 0
  %coerce.dive3 = getelementptr inbounds %"class.hermes::vm::HandleBase", ptr %coerce.dive2, i32 0, i32 0
  %3 = load ptr, ptr %coerce.dive3, align 8
  ret ptr %3
}

declare noundef i32 @_ZN6hermes2vm7Runtime14raiseTypeErrorERKNS0_11TwineChar16E(ptr noundef nonnull align 8 dereferenceable(9832), ptr noundef nonnull align 8 dereferenceable(48)) #1

; Function Attrs: mustprogress nounwind uwtable
define linkonce_odr hidden void @_ZN6hermes2vm11TwineChar16C2EPKc(ptr noundef nonnull align 8 dereferenceable(48) %this, ptr noundef %str) unnamed_addr #0 comdat align 2 {
entry:
  %this.addr.i = alloca ptr, align 8
  %Str.addr.i = alloca ptr, align 8
  %this.addr = alloca ptr, align 8
  %str.addr = alloca ptr, align 8
  %agg.tmp = alloca %"class.llvh::StringRef", align 8
  store ptr %this, ptr %this.addr, align 8
  store ptr %str, ptr %str.addr, align 8
  %this1 = load ptr, ptr %this.addr, align 8
  %0 = load ptr, ptr %str.addr, align 8
  store ptr %agg.tmp, ptr %this.addr.i, align 8
  store ptr %0, ptr %Str.addr.i, align 8
  %this1.i = load ptr, ptr %this.addr.i, align 8
  %1 = load ptr, ptr %Str.addr.i, align 8
  store ptr %1, ptr %this1.i, align 8
  %Length.i = getelementptr inbounds %"class.llvh::StringRef", ptr %this1.i, i32 0, i32 1
  %2 = load ptr, ptr %Str.addr.i, align 8
  %tobool.i = icmp ne ptr %2, null
  br i1 %tobool.i, label %cond.true.i, label %cond.false.i

cond.true.i:                                      ; preds = %entry
  %3 = load ptr, ptr %Str.addr.i, align 8
  %call.i = call i64 @strlen(ptr noundef %3) #11
  br label %_ZN4llvh9StringRefC2EPKc.exit

cond.false.i:                                     ; preds = %entry
  br label %_ZN4llvh9StringRefC2EPKc.exit

_ZN4llvh9StringRefC2EPKc.exit:                    ; preds = %cond.false.i, %cond.true.i
  %cond.i = phi i64 [ %call.i, %cond.true.i ], [ 0, %cond.false.i ]
  store i64 %cond.i, ptr %Length.i, align 8
  %4 = getelementptr inbounds { ptr, i64 }, ptr %agg.tmp, i32 0, i32 0
  %5 = load ptr, ptr %4, align 8
  %6 = getelementptr inbounds { ptr, i64 }, ptr %agg.tmp, i32 0, i32 1
  %7 = load i64, ptr %6, align 8
  call void @_ZN6hermes2vm11TwineChar16C2EN4llvh9StringRefE(ptr noundef nonnull align 8 dereferenceable(48) %this1, ptr %5, i64 %7)
  ret void
}

; Function Attrs: mustprogress nounwind uwtable
define linkonce_odr hidden void @_ZN6hermes2vm10CallResultINS0_6HandleINS0_7JSErrorEEELNS0_6detail20CallResultSpecializeE4EEC2ENS0_15ExecutionStatusE(ptr noundef nonnull align 8 dereferenceable(8) %this, i32 noundef %status) unnamed_addr #0 comdat align 2 {
entry:
  %this.addr = alloca ptr, align 8
  %status.addr = alloca i32, align 4
  store ptr %this, ptr %this.addr, align 8
  store i32 %status, ptr %status.addr, align 4
  %this1 = load ptr, ptr %this.addr, align 8
  %valueOrStatus_ = getelementptr inbounds %"class.hermes::vm::CallResult.9", ptr %this1, i32 0, i32 0
  %call = call ptr @_ZN6hermes2vm6HandleINS0_7JSErrorEE12unsafeCreateEPKNS0_17PinnedHermesValueE(ptr noundef inttoptr (i64 -1 to ptr))
  %coerce.dive = getelementptr inbounds %"class.hermes::vm::Handle.10", ptr %valueOrStatus_, i32 0, i32 0
  %coerce.dive2 = getelementptr inbounds %"class.hermes::vm::HandleBase", ptr %coerce.dive, i32 0, i32 0
  store ptr %call, ptr %coerce.dive2, align 8
  ret void
}

; Function Attrs: mustprogress nounwind uwtable
define hidden { i32, i64 } @_ZN6hermes2vm16errorStackGetterEPvRNS0_7RuntimeENS0_10NativeArgsE(ptr noundef %0, ptr noundef nonnull align 8 dereferenceable(9832) %runtime, ptr noundef %args) #0 {
entry:
  %retval = alloca %"class.hermes::vm::CallResult.177", align 8
  %.addr = alloca ptr, align 8
  %runtime.addr = alloca ptr, align 8
  %args.indirect_addr = alloca ptr, align 8
  %gcScope = alloca %"class.hermes::vm::GCScope", align 8
  %targetHandle = alloca %"class.hermes::vm::Handle", align 8
  %errorHandleRes = alloca %"class.hermes::vm::CallResult.9", align 8
  %agg.tmp = alloca %"class.hermes::vm::Handle", align 8
  %cleanup.dest.slot = alloca i32, align 4
  %errorHandle = alloca %"class.hermes::vm::Handle.10", align 8
  %agg.tmp13 = alloca %"class.hermes::vm::HermesValue", align 8
  %reducer = alloca %"class.hermes::vm::ScopedNativeDepthReducer", align 8
  %stack = alloca %"class.hermes::vm::SmallXString", align 8
  %errorCtor = alloca %"class.hermes::vm::Handle", align 8
  %prepareStackTraceRes = alloca %"class.hermes::vm::CallResult.192", align 8
  %agg.tmp22 = alloca %"class.hermes::vm::Handle", align 8
  %agg.tmp23 = alloca %"class.hermes::vm::SymbolID", align 4
  %agg.tmp26 = alloca %"union.hermes::vm::PropOpFlags", align 4
  %ref.tmp = alloca %"union.hermes::vm::PropOpFlags", align 4
  %stackTraceFormatted = alloca %"class.hermes::vm::MutableHandle", align 8
  %agg.tmp37 = alloca %"class.hermes::vm::HermesValue", align 8
  %prepareStackTrace = alloca %"class.hermes::vm::Handle.195", align 8
  %ref.tmp41 = alloca %"class.hermes::vm::Handle.0", align 8
  %recursionGuard = alloca ptr, align 8
  %ref.tmp52 = alloca %"class.llvh::detail::scope_exit", align 8
  %ref.tmp53 = alloca %class.anon, align 8
  %callSitesRes = alloca %"class.hermes::vm::CallResult.177", align 8
  %agg.tmp54 = alloca %"class.hermes::vm::Handle.10", align 8
  %prepareRes = alloca %"class.hermes::vm::CallResult.192", align 8
  %agg.tmp61 = alloca %"class.hermes::vm::Handle.195", align 8
  %agg.tmp62 = alloca %"class.hermes::vm::Handle.0", align 8
  %agg.tmp66 = alloca %"class.hermes::vm::HermesValue", align 8
  %agg.tmp69 = alloca %"class.hermes::vm::HermesValue", align 8
  %agg.tmp83 = alloca %"class.hermes::vm::Handle.10", align 8
  %agg.tmp84 = alloca %"class.hermes::vm::Handle", align 8
  %strRes = alloca %"class.hermes::vm::CallResult.177", align 8
  %agg.tmp92 = alloca %"class.llvh::ArrayRef.196", align 8
  %agg.tmp96 = alloca %"class.hermes::vm::HermesValue", align 8
  %agg.tmp103 = alloca %"class.hermes::vm::HermesValue", align 8
  %dpf = alloca %"union.hermes::vm::DefinePropertyFlags", align 4
  %ref.tmp111 = alloca %"class.hermes::vm::CallResult", align 4
  %agg.tmp112 = alloca %"class.hermes::vm::Handle", align 8
  %agg.tmp113 = alloca %"class.hermes::vm::SymbolID", align 4
  %agg.tmp116 = alloca %"union.hermes::vm::DefinePropertyFlags", align 4
  %agg.tmp117 = alloca %"class.hermes::vm::Handle.0", align 8
  %agg.tmp118 = alloca %"union.hermes::vm::PropOpFlags", align 4
  %agg.tmp130 = alloca %"class.hermes::vm::HermesValue", align 8
  store ptr %0, ptr %.addr, align 8
  store ptr %runtime, ptr %runtime.addr, align 8
  store ptr %args, ptr %args.indirect_addr, align 8
  %1 = load ptr, ptr %runtime.addr, align 8
  call void @_ZN6hermes2vm7GCScopeC2ERNS0_15HandleRootOwnerEPKcj(ptr noundef nonnull align 8 dereferenceable(212) %gcScope, ptr noundef nonnull align 8 dereferenceable(16) %1, ptr noundef null, i32 noundef 48)
  %call = call ptr @_ZNK6hermes2vm10NativeArgs11dyncastThisINS0_8JSObjectEEENS0_6HandleIT_EEv(ptr noundef nonnull align 8 dereferenceable(24) %args)
  %coerce.dive = getelementptr inbounds %"class.hermes::vm::Handle", ptr %targetHandle, i32 0, i32 0
  %coerce.dive1 = getelementptr inbounds %"class.hermes::vm::HandleBase", ptr %coerce.dive, i32 0, i32 0
  store ptr %call, ptr %coerce.dive1, align 8
  %2 = load ptr, ptr %runtime.addr, align 8
  call void @llvm.memcpy.p0.p0.i64(ptr align 8 %agg.tmp, ptr align 8 %targetHandle, i64 8, i1 false)
  %coerce.dive2 = getelementptr inbounds %"class.hermes::vm::Handle", ptr %agg.tmp, i32 0, i32 0
  %coerce.dive3 = getelementptr inbounds %"class.hermes::vm::HandleBase", ptr %coerce.dive2, i32 0, i32 0
  %3 = load ptr, ptr %coerce.dive3, align 8
  %call4 = call ptr @_ZN6hermes2vm7JSError23getErrorFromStackTargetERNS0_7RuntimeENS0_6HandleINS0_8JSObjectEEE(ptr noundef nonnull align 8 dereferenceable(9832) %2, ptr %3)
  %coerce.dive5 = getelementptr inbounds %"class.hermes::vm::CallResult.9", ptr %errorHandleRes, i32 0, i32 0
  %coerce.dive6 = getelementptr inbounds %"class.hermes::vm::Handle.10", ptr %coerce.dive5, i32 0, i32 0
  %coerce.dive7 = getelementptr inbounds %"class.hermes::vm::HandleBase", ptr %coerce.dive6, i32 0, i32 0
  store ptr %call4, ptr %coerce.dive7, align 8
  %call8 = call noundef zeroext i1 @_ZN6hermes2vmeqINS0_6HandleINS0_7JSErrorEEEEEbRKNS0_10CallResultIT_Xsr6detail23GetCallResultSpecializeIS6_EE5valueEEENS0_15ExecutionStatusE(ptr noundef nonnull align 8 dereferenceable(8) %errorHandleRes, i32 noundef 0)
  br i1 %call8, label %if.then, label %if.end

if.then:                                          ; preds = %entry
  call void @_ZN6hermes2vm10CallResultINS0_11HermesValueELNS0_6detail20CallResultSpecializeE2EEC2ENS0_15ExecutionStatusE(ptr noundef nonnull align 8 dereferenceable(16) %retval, i32 noundef 0)
  store i32 1, ptr %cleanup.dest.slot, align 4
  br label %cleanup136

if.end:                                           ; preds = %entry
  %call9 = call noundef nonnull align 8 dereferenceable(8) ptr @_ZN6hermes2vm10CallResultINS0_6HandleINS0_7JSErrorEEELNS0_6detail20CallResultSpecializeE4EEdeEv(ptr noundef nonnull align 8 dereferenceable(8) %errorHandleRes)
  call void @llvm.memcpy.p0.p0.i64(ptr align 8 %errorHandle, ptr align 8 %call9, i64 8, i1 false)
  %call10 = call noundef ptr @_ZNK6hermes2vm6HandleINS0_7JSErrorEEptEv(ptr noundef nonnull align 8 dereferenceable(8) %errorHandle)
  %stacktrace_ = getelementptr inbounds %"class.hermes::vm::JSError", ptr %call10, i32 0, i32 2
  %call11 = call noundef zeroext i1 @_ZNKSt10unique_ptrISt6vectorIN6hermes2vm14StackTraceInfoESaIS3_EESt14default_deleteIS5_EEcvbEv(ptr noundef nonnull align 8 dereferenceable(8) %stacktrace_) #10
  br i1 %call11, label %if.end18, label %if.then12

if.then12:                                        ; preds = %if.end
  %4 = load ptr, ptr %runtime.addr, align 8
  %call14 = call noundef ptr @_ZN6hermes2vm7Runtime19getPredefinedStringENS0_10Predefined3StrE(ptr noundef nonnull align 8 dereferenceable(9832) %4, i32 noundef 13)
  %call15 = call i64 @_ZN6hermes2vm11HermesValue17encodeStringValueEPKNS0_15StringPrimitiveE(ptr noundef %call14)
  %coerce.dive16 = getelementptr inbounds %"class.hermes::vm::HermesValue", ptr %agg.tmp13, i32 0, i32 0
  store i64 %call15, ptr %coerce.dive16, align 8
  %coerce.dive17 = getelementptr inbounds %"class.hermes::vm::HermesValue", ptr %agg.tmp13, i32 0, i32 0
  %5 = load i64, ptr %coerce.dive17, align 8
  call void @_ZN6hermes2vm10CallResultINS0_11HermesValueELNS0_6detail20CallResultSpecializeE2EEC2ES2_(ptr noundef nonnull align 8 dereferenceable(16) %retval, i64 %5)
  store i32 1, ptr %cleanup.dest.slot, align 4
  br label %cleanup136

if.end18:                                         ; preds = %if.end
  %6 = load ptr, ptr %runtime.addr, align 8
  call void @_ZN6hermes2vm24ScopedNativeDepthReducerC2ERNS0_7RuntimeE(ptr noundef nonnull align 8 dereferenceable(9) %reducer, ptr noundef nonnull align 8 dereferenceable(9832) %6)
  call void @_ZN6hermes2vm12SmallXStringIDsLj32EEC2Ev(ptr noundef nonnull align 8 dereferenceable(80) %stack)
  %7 = load ptr, ptr %runtime.addr, align 8
  %errorConstructor = getelementptr inbounds %"class.hermes::vm::Runtime", ptr %7, i32 0, i32 3
  %call19 = call ptr @_ZN6hermes2vm6HandleINS0_8JSObjectEE6vmcastEPKNS0_17PinnedHermesValueE(ptr noundef %errorConstructor)
  %coerce.dive20 = getelementptr inbounds %"class.hermes::vm::Handle", ptr %errorCtor, i32 0, i32 0
  %coerce.dive21 = getelementptr inbounds %"class.hermes::vm::HandleBase", ptr %coerce.dive20, i32 0, i32 0
  store ptr %call19, ptr %coerce.dive21, align 8
  call void @llvm.memcpy.p0.p0.i64(ptr align 8 %agg.tmp22, ptr align 8 %errorCtor, i64 8, i1 false)
  %8 = load ptr, ptr %runtime.addr, align 8
  %call24 = call i32 @_ZN6hermes2vm10Predefined11getSymbolIDENS1_3StrE(i32 noundef 143)
  %coerce.dive25 = getelementptr inbounds %"class.hermes::vm::SymbolID", ptr %agg.tmp23, i32 0, i32 0
  store i32 %call24, ptr %coerce.dive25, align 4
  call void @llvm.memset.p0.i64(ptr align 4 %ref.tmp, i8 0, i64 4, i1 false)
  call void @_ZN6hermes2vm11PropOpFlagsC2Ev(ptr noundef nonnull align 4 dereferenceable(4) %ref.tmp) #10
  %call27 = call i32 @_ZNK6hermes2vm11PropOpFlags16plusThrowOnErrorEv(ptr noundef nonnull align 4 dereferenceable(4) %ref.tmp)
  %coerce.dive28 = getelementptr inbounds %"union.hermes::vm::PropOpFlags", ptr %agg.tmp26, i32 0, i32 0
  store i32 %call27, ptr %coerce.dive28, align 4
  %coerce.dive29 = getelementptr inbounds %"class.hermes::vm::Handle", ptr %agg.tmp22, i32 0, i32 0
  %coerce.dive30 = getelementptr inbounds %"class.hermes::vm::HandleBase", ptr %coerce.dive29, i32 0, i32 0
  %9 = load ptr, ptr %coerce.dive30, align 8
  %coerce.dive31 = getelementptr inbounds %"class.hermes::vm::SymbolID", ptr %agg.tmp23, i32 0, i32 0
  %10 = load i32, ptr %coerce.dive31, align 4
  %coerce.dive32 = getelementptr inbounds %"union.hermes::vm::PropOpFlags", ptr %agg.tmp26, i32 0, i32 0
  %11 = load i32, ptr %coerce.dive32, align 4
  %call33 = call { i32, i64 } @_ZN6hermes2vm8JSObject12getNamed_RJSENS0_6HandleIS1_EERNS0_7RuntimeENS0_8SymbolIDENS0_11PropOpFlagsEPNS0_18PropertyCacheEntryE(ptr %9, ptr noundef nonnull align 8 dereferenceable(9832) %8, i32 %10, i32 %11, ptr noundef null)
  %12 = getelementptr inbounds { i32, i64 }, ptr %prepareStackTraceRes, i32 0, i32 0
  %13 = extractvalue { i32, i64 } %call33, 0
  store i32 %13, ptr %12, align 8
  %14 = getelementptr inbounds { i32, i64 }, ptr %prepareStackTraceRes, i32 0, i32 1
  %15 = extractvalue { i32, i64 } %call33, 1
  store i64 %15, ptr %14, align 8
  %call34 = call noundef zeroext i1 @_ZN6hermes2vmeqINS0_12PseudoHandleINS0_11HermesValueEEEEEbRKNS0_10CallResultIT_Xsr6detail23GetCallResultSpecializeIS6_EE5valueEEENS0_15ExecutionStatusE(ptr noundef nonnull align 8 dereferenceable(16) %prepareStackTraceRes, i32 noundef 0)
  br i1 %call34, label %if.then35, label %if.end36

if.then35:                                        ; preds = %if.end18
  call void @_ZN6hermes2vm10CallResultINS0_11HermesValueELNS0_6detail20CallResultSpecializeE2EEC2ENS0_15ExecutionStatusE(ptr noundef nonnull align 8 dereferenceable(16) %retval, i32 noundef 0)
  store i32 1, ptr %cleanup.dest.slot, align 4
  br label %cleanup134

if.end36:                                         ; preds = %if.end18
  %16 = load ptr, ptr %runtime.addr, align 8
  %call38 = call i64 @_ZN6hermes2vm17HermesValueTraitsINS0_11HermesValueELb0EE12defaultValueEv()
  %coerce.dive39 = getelementptr inbounds %"class.hermes::vm::HermesValue", ptr %agg.tmp37, i32 0, i32 0
  store i64 %call38, ptr %coerce.dive39, align 8
  %coerce.dive40 = getelementptr inbounds %"class.hermes::vm::HermesValue", ptr %agg.tmp37, i32 0, i32 0
  %17 = load i64, ptr %coerce.dive40, align 8
  call void @_ZN6hermes2vm13MutableHandleINS0_11HermesValueEEC2ERNS0_15HandleRootOwnerES2_(ptr noundef nonnull align 8 dereferenceable(8) %stackTraceFormatted, ptr noundef nonnull align 8 dereferenceable(16) %16, i64 %17)
  %18 = load ptr, ptr %runtime.addr, align 8
  %call42 = call noundef nonnull align 8 dereferenceable(8) ptr @_ZN6hermes2vm10CallResultINS0_12PseudoHandleINS0_11HermesValueEEELNS0_6detail20CallResultSpecializeE5EEdeEv(ptr noundef nonnull align 8 dereferenceable(16) %prepareStackTraceRes)
  %call43 = call ptr @_ZN6hermes2vm15HandleRootOwner10makeHandleINS0_11HermesValueEEENS0_6HandleIT_EEONS0_12PseudoHandleIS5_EE(ptr noundef nonnull align 8 dereferenceable(16) %18, ptr noundef nonnull align 8 dereferenceable(8) %call42)
  %coerce.dive44 = getelementptr inbounds %"class.hermes::vm::Handle.0", ptr %ref.tmp41, i32 0, i32 0
  %coerce.dive45 = getelementptr inbounds %"class.hermes::vm::HandleBase", ptr %coerce.dive44, i32 0, i32 0
  store ptr %call43, ptr %coerce.dive45, align 8
  %call46 = call ptr @_ZN6hermes2vm6HandleINS0_8CallableEE10dyn_vmcastERKNS0_10HandleBaseE(ptr noundef nonnull align 8 dereferenceable(8) %ref.tmp41)
  %coerce.dive47 = getelementptr inbounds %"class.hermes::vm::Handle.195", ptr %prepareStackTrace, i32 0, i32 0
  %coerce.dive48 = getelementptr inbounds %"class.hermes::vm::HandleBase", ptr %coerce.dive47, i32 0, i32 0
  store ptr %call46, ptr %coerce.dive48, align 8
  %call49 = call noundef zeroext i1 @_ZNK6hermes2vm6HandleINS0_8CallableEEcvbEv(ptr noundef nonnull align 8 dereferenceable(8) %prepareStackTrace)
  br i1 %call49, label %land.rhs, label %land.end

land.rhs:                                         ; preds = %if.end36
  %19 = load ptr, ptr %runtime.addr, align 8
  %call50 = call noundef zeroext i1 @_ZNK6hermes2vm7Runtime20formattingStackTraceEv(ptr noundef nonnull align 8 dereferenceable(9832) %19)
  %lnot = xor i1 %call50, true
  br label %land.end

land.end:                                         ; preds = %land.rhs, %if.end36
  %20 = phi i1 [ false, %if.end36 ], [ %lnot, %land.rhs ]
  br i1 %20, label %if.then51, label %if.else

if.then51:                                        ; preds = %land.end
  %21 = getelementptr inbounds %class.anon, ptr %ref.tmp53, i32 0, i32 0
  %22 = load ptr, ptr %runtime.addr, align 8
  store ptr %22, ptr %21, align 8
  call void @"_ZN4llvh15make_scope_exitIZN6hermes2vm16errorStackGetterEPvRNS2_7RuntimeENS2_10NativeArgsEE3$_0EENS_6detail10scope_exitINSt5decayIT_E4typeEEEOSB_"(ptr sret(%"class.llvh::detail::scope_exit") align 8 %ref.tmp52, ptr noundef nonnull align 8 dereferenceable(8) %ref.tmp53)
  store ptr %ref.tmp52, ptr %recursionGuard, align 8
  %23 = load ptr, ptr %runtime.addr, align 8
  call void @_ZN6hermes2vm7Runtime23setFormattingStackTraceEb(ptr noundef nonnull align 8 dereferenceable(9832) %23, i1 noundef zeroext true)
  %24 = load ptr, ptr %runtime.addr, align 8
  call void @llvm.memcpy.p0.p0.i64(ptr align 8 %agg.tmp54, ptr align 8 %errorHandle, i64 8, i1 false)
  %coerce.dive55 = getelementptr inbounds %"class.hermes::vm::Handle.10", ptr %agg.tmp54, i32 0, i32 0
  %coerce.dive56 = getelementptr inbounds %"class.hermes::vm::HandleBase", ptr %coerce.dive55, i32 0, i32 0
  %25 = load ptr, ptr %coerce.dive56, align 8
  %call57 = call { i32, i64 } @_ZN6hermes2vm7JSError23constructCallSitesArrayERNS0_7RuntimeENS0_6HandleIS1_EE(ptr noundef nonnull align 8 dereferenceable(9832) %24, ptr %25)
  %26 = getelementptr inbounds { i32, i64 }, ptr %callSitesRes, i32 0, i32 0
  %27 = extractvalue { i32, i64 } %call57, 0
  store i32 %27, ptr %26, align 8
  %28 = getelementptr inbounds { i32, i64 }, ptr %callSitesRes, i32 0, i32 1
  %29 = extractvalue { i32, i64 } %call57, 1
  store i64 %29, ptr %28, align 8
  %call58 = call noundef zeroext i1 @_ZN6hermes2vmeqINS0_11HermesValueEEEbRKNS0_10CallResultIT_Xsr6detail23GetCallResultSpecializeIS4_EE5valueEEENS0_15ExecutionStatusE(ptr noundef nonnull align 8 dereferenceable(16) %callSitesRes, i32 noundef 0)
  br i1 %call58, label %if.then59, label %if.end60

if.then59:                                        ; preds = %if.then51
  call void @_ZN6hermes2vm10CallResultINS0_11HermesValueELNS0_6detail20CallResultSpecializeE2EEC2ENS0_15ExecutionStatusE(ptr noundef nonnull align 8 dereferenceable(16) %retval, i32 noundef 0)
  store i32 1, ptr %cleanup.dest.slot, align 4
  br label %cleanup

if.end60:                                         ; preds = %if.then51
  call void @llvm.memcpy.p0.p0.i64(ptr align 8 %agg.tmp61, ptr align 8 %prepareStackTrace, i64 8, i1 false)
  %30 = load ptr, ptr %runtime.addr, align 8
  %call63 = call ptr @_ZN6hermes2vm15HandleRootOwner12getNullValueEv()
  %coerce.dive64 = getelementptr inbounds %"class.hermes::vm::Handle.0", ptr %agg.tmp62, i32 0, i32 0
  %coerce.dive65 = getelementptr inbounds %"class.hermes::vm::HandleBase", ptr %coerce.dive64, i32 0, i32 0
  store ptr %call63, ptr %coerce.dive65, align 8
  %call67 = call i64 @_ZNK6hermes2vm10HandleBase14getHermesValueEv(ptr noundef nonnull align 8 dereferenceable(8) %targetHandle)
  %coerce.dive68 = getelementptr inbounds %"class.hermes::vm::HermesValue", ptr %agg.tmp66, i32 0, i32 0
  store i64 %call67, ptr %coerce.dive68, align 8
  %call70 = call noundef nonnull align 8 dereferenceable(8) ptr @_ZNK6hermes2vm10CallResultINS0_11HermesValueELNS0_6detail20CallResultSpecializeE2EEdeEv(ptr noundef nonnull align 8 dereferenceable(16) %callSitesRes)
  call void @llvm.memcpy.p0.p0.i64(ptr align 8 %agg.tmp69, ptr align 8 %call70, i64 8, i1 false)
  %coerce.dive71 = getelementptr inbounds %"class.hermes::vm::Handle.195", ptr %agg.tmp61, i32 0, i32 0
  %coerce.dive72 = getelementptr inbounds %"class.hermes::vm::HandleBase", ptr %coerce.dive71, i32 0, i32 0
  %31 = load ptr, ptr %coerce.dive72, align 8
  %coerce.dive73 = getelementptr inbounds %"class.hermes::vm::Handle.0", ptr %agg.tmp62, i32 0, i32 0
  %coerce.dive74 = getelementptr inbounds %"class.hermes::vm::HandleBase", ptr %coerce.dive73, i32 0, i32 0
  %32 = load ptr, ptr %coerce.dive74, align 8
  %coerce.dive75 = getelementptr inbounds %"class.hermes::vm::HermesValue", ptr %agg.tmp66, i32 0, i32 0
  %33 = load i64, ptr %coerce.dive75, align 8
  %coerce.dive76 = getelementptr inbounds %"class.hermes::vm::HermesValue", ptr %agg.tmp69, i32 0, i32 0
  %34 = load i64, ptr %coerce.dive76, align 8
  %call77 = call { i32, i64 } @_ZN6hermes2vm8Callable12executeCall2ENS0_6HandleIS1_EERNS0_7RuntimeENS2_INS0_11HermesValueEEES6_S6_b(ptr %31, ptr noundef nonnull align 8 dereferenceable(9832) %30, ptr %32, i64 %33, i64 %34, i1 noundef zeroext false)
  %35 = getelementptr inbounds { i32, i64 }, ptr %prepareRes, i32 0, i32 0
  %36 = extractvalue { i32, i64 } %call77, 0
  store i32 %36, ptr %35, align 8
  %37 = getelementptr inbounds { i32, i64 }, ptr %prepareRes, i32 0, i32 1
  %38 = extractvalue { i32, i64 } %call77, 1
  store i64 %38, ptr %37, align 8
  %call78 = call noundef zeroext i1 @_ZN6hermes2vmeqINS0_12PseudoHandleINS0_11HermesValueEEEEEbRKNS0_10CallResultIT_Xsr6detail23GetCallResultSpecializeIS6_EE5valueEEENS0_15ExecutionStatusE(ptr noundef nonnull align 8 dereferenceable(16) %prepareRes, i32 noundef 0)
  br i1 %call78, label %if.then79, label %if.end80

if.then79:                                        ; preds = %if.end60
  call void @_ZN6hermes2vm10CallResultINS0_11HermesValueELNS0_6detail20CallResultSpecializeE2EEC2ENS0_15ExecutionStatusE(ptr noundef nonnull align 8 dereferenceable(16) %retval, i32 noundef 0)
  store i32 1, ptr %cleanup.dest.slot, align 4
  br label %cleanup

if.end80:                                         ; preds = %if.end60
  %call81 = call noundef nonnull align 8 dereferenceable(8) ptr @_ZN6hermes2vm10CallResultINS0_12PseudoHandleINS0_11HermesValueEEELNS0_6detail20CallResultSpecializeE5EEdeEv(ptr noundef nonnull align 8 dereferenceable(16) %prepareRes)
  %call82 = call noundef nonnull align 8 dereferenceable(8) ptr @_ZN6hermes2vm13MutableHandleINS0_11HermesValueEEaSEONS0_12PseudoHandleIS2_EE(ptr noundef nonnull align 8 dereferenceable(8) %stackTraceFormatted, ptr noundef nonnull align 8 dereferenceable(8) %call81)
  store i32 0, ptr %cleanup.dest.slot, align 4
  br label %cleanup

cleanup:                                          ; preds = %if.end80, %if.then79, %if.then59
  call void @"_ZN4llvh6detail10scope_exitIZN6hermes2vm16errorStackGetterEPvRNS3_7RuntimeENS3_10NativeArgsEE3$_0ED2Ev"(ptr noundef nonnull align 8 dereferenceable(9) %ref.tmp52) #10
  %cleanup.dest = load i32, ptr %cleanup.dest.slot, align 4
  switch i32 %cleanup.dest, label %cleanup134 [
    i32 0, label %cleanup.cont
  ]

cleanup.cont:                                     ; preds = %cleanup
  br label %if.end108

if.else:                                          ; preds = %land.end
  %39 = load ptr, ptr %runtime.addr, align 8
  call void @llvm.memcpy.p0.p0.i64(ptr align 8 %agg.tmp83, ptr align 8 %errorHandle, i64 8, i1 false)
  call void @llvm.memcpy.p0.p0.i64(ptr align 8 %agg.tmp84, ptr align 8 %targetHandle, i64 8, i1 false)
  %coerce.dive85 = getelementptr inbounds %"class.hermes::vm::Handle.10", ptr %agg.tmp83, i32 0, i32 0
  %coerce.dive86 = getelementptr inbounds %"class.hermes::vm::HandleBase", ptr %coerce.dive85, i32 0, i32 0
  %40 = load ptr, ptr %coerce.dive86, align 8
  %coerce.dive87 = getelementptr inbounds %"class.hermes::vm::Handle", ptr %agg.tmp84, i32 0, i32 0
  %coerce.dive88 = getelementptr inbounds %"class.hermes::vm::HandleBase", ptr %coerce.dive87, i32 0, i32 0
  %41 = load ptr, ptr %coerce.dive88, align 8
  %call89 = call noundef i32 @_ZN6hermes2vm7JSError29constructStackTraceString_RJSERNS0_7RuntimeENS0_6HandleIS1_EENS4_INS0_8JSObjectEEERNS0_12SmallXStringIDsLj32EEE(ptr noundef nonnull align 8 dereferenceable(9832) %39, ptr %40, ptr %41, ptr noundef nonnull align 8 dereferenceable(80) %stack)
  %cmp = icmp eq i32 %call89, 0
  br i1 %cmp, label %if.then90, label %if.end91

if.then90:                                        ; preds = %if.else
  call void @_ZN6hermes2vm10CallResultINS0_11HermesValueELNS0_6detail20CallResultSpecializeE2EEC2ENS0_15ExecutionStatusE(ptr noundef nonnull align 8 dereferenceable(16) %retval, i32 noundef 0)
  store i32 1, ptr %cleanup.dest.slot, align 4
  br label %cleanup134

if.end91:                                         ; preds = %if.else
  %42 = load ptr, ptr %runtime.addr, align 8
  call void @_ZN4llvh8ArrayRefIDsEC2IvEERKNS_25SmallVectorTemplateCommonIDsT_EE(ptr noundef nonnull align 8 dereferenceable(16) %agg.tmp92, ptr noundef nonnull align 8 dereferenceable(16) %stack)
  %43 = getelementptr inbounds { ptr, i64 }, ptr %agg.tmp92, i32 0, i32 0
  %44 = load ptr, ptr %43, align 8
  %45 = getelementptr inbounds { ptr, i64 }, ptr %agg.tmp92, i32 0, i32 1
  %46 = load i64, ptr %45, align 8
  %call93 = call { i32, i64 } @_ZN6hermes2vm15StringPrimitive6createERNS0_7RuntimeEN4llvh8ArrayRefIDsEE(ptr noundef nonnull align 8 dereferenceable(9832) %42, ptr %44, i64 %46)
  %47 = getelementptr inbounds { i32, i64 }, ptr %strRes, i32 0, i32 0
  %48 = extractvalue { i32, i64 } %call93, 0
  store i32 %48, ptr %47, align 8
  %49 = getelementptr inbounds { i32, i64 }, ptr %strRes, i32 0, i32 1
  %50 = extractvalue { i32, i64 } %call93, 1
  store i64 %50, ptr %49, align 8
  %call94 = call noundef zeroext i1 @_ZN6hermes2vmeqINS0_11HermesValueEEEbRKNS0_10CallResultIT_Xsr6detail23GetCallResultSpecializeIS4_EE5valueEEENS0_15ExecutionStatusE(ptr noundef nonnull align 8 dereferenceable(16) %strRes, i32 noundef 0)
  br i1 %call94, label %if.then95, label %if.else102

if.then95:                                        ; preds = %if.end91
  %51 = load ptr, ptr %runtime.addr, align 8
  %call97 = call noundef ptr @_ZN6hermes2vm7Runtime19getPredefinedStringENS0_10Predefined3StrE(ptr noundef nonnull align 8 dereferenceable(9832) %51, i32 noundef 141)
  %call98 = call i64 @_ZN6hermes2vm11HermesValue17encodeStringValueEPKNS0_15StringPrimitiveE(ptr noundef %call97)
  %coerce.dive99 = getelementptr inbounds %"class.hermes::vm::HermesValue", ptr %agg.tmp96, i32 0, i32 0
  store i64 %call98, ptr %coerce.dive99, align 8
  %coerce.dive100 = getelementptr inbounds %"class.hermes::vm::HermesValue", ptr %agg.tmp96, i32 0, i32 0
  %52 = load i64, ptr %coerce.dive100, align 8
  %call101 = call noundef nonnull align 8 dereferenceable(8) ptr @_ZN6hermes2vm13MutableHandleINS0_11HermesValueEEaSES2_(ptr noundef nonnull align 8 dereferenceable(8) %stackTraceFormatted, i64 %52)
  %53 = load ptr, ptr %runtime.addr, align 8
  call void @_ZN6hermes2vm7Runtime16clearThrownValueEv(ptr noundef nonnull align 8 dereferenceable(9832) %53)
  br label %if.end107

if.else102:                                       ; preds = %if.end91
  %call104 = call noundef nonnull align 8 dereferenceable(8) ptr @_ZNK6hermes2vm10CallResultINS0_11HermesValueELNS0_6detail20CallResultSpecializeE2EEdeEv(ptr noundef nonnull align 8 dereferenceable(16) %strRes)
  call void @llvm.memcpy.p0.p0.i64(ptr align 8 %agg.tmp103, ptr align 8 %call104, i64 8, i1 false)
  %coerce.dive105 = getelementptr inbounds %"class.hermes::vm::HermesValue", ptr %agg.tmp103, i32 0, i32 0
  %54 = load i64, ptr %coerce.dive105, align 8
  %call106 = call noundef nonnull align 8 dereferenceable(8) ptr @_ZN6hermes2vm13MutableHandleINS0_11HermesValueEEaSES2_(ptr noundef nonnull align 8 dereferenceable(8) %stackTraceFormatted, i64 %54)
  br label %if.end107

if.end107:                                        ; preds = %if.else102, %if.then95
  br label %if.end108

if.end108:                                        ; preds = %if.end107, %cleanup.cont
  %call109 = call i32 @_ZN6hermes2vm19DefinePropertyFlags24getNewNonEnumerableFlagsEv()
  %coerce.dive110 = getelementptr inbounds %"union.hermes::vm::DefinePropertyFlags", ptr %dpf, i32 0, i32 0
  store i32 %call109, ptr %coerce.dive110, align 4
  call void @llvm.memcpy.p0.p0.i64(ptr align 8 %agg.tmp112, ptr align 8 %targetHandle, i64 8, i1 false)
  %55 = load ptr, ptr %runtime.addr, align 8
  %call114 = call i32 @_ZN6hermes2vm10Predefined11getSymbolIDENS1_3StrE(i32 noundef 140)
  %coerce.dive115 = getelementptr inbounds %"class.hermes::vm::SymbolID", ptr %agg.tmp113, i32 0, i32 0
  store i32 %call114, ptr %coerce.dive115, align 4
  call void @llvm.memcpy.p0.p0.i64(ptr align 4 %agg.tmp116, ptr align 4 %dpf, i64 4, i1 false)
  call void @llvm.memcpy.p0.p0.i64(ptr align 8 %agg.tmp117, ptr align 8 %stackTraceFormatted, i64 8, i1 false)
  call void @llvm.memset.p0.i64(ptr align 4 %agg.tmp118, i8 0, i64 4, i1 false)
  call void @_ZN6hermes2vm11PropOpFlagsC2Ev(ptr noundef nonnull align 4 dereferenceable(4) %agg.tmp118) #10
  %coerce.dive119 = getelementptr inbounds %"class.hermes::vm::Handle", ptr %agg.tmp112, i32 0, i32 0
  %coerce.dive120 = getelementptr inbounds %"class.hermes::vm::HandleBase", ptr %coerce.dive119, i32 0, i32 0
  %56 = load ptr, ptr %coerce.dive120, align 8
  %coerce.dive121 = getelementptr inbounds %"class.hermes::vm::SymbolID", ptr %agg.tmp113, i32 0, i32 0
  %57 = load i32, ptr %coerce.dive121, align 4
  %coerce.dive122 = getelementptr inbounds %"union.hermes::vm::DefinePropertyFlags", ptr %agg.tmp116, i32 0, i32 0
  %58 = load i32, ptr %coerce.dive122, align 4
  %coerce.dive123 = getelementptr inbounds %"class.hermes::vm::Handle.0", ptr %agg.tmp117, i32 0, i32 0
  %coerce.dive124 = getelementptr inbounds %"class.hermes::vm::HandleBase", ptr %coerce.dive123, i32 0, i32 0
  %59 = load ptr, ptr %coerce.dive124, align 8
  %coerce.dive125 = getelementptr inbounds %"union.hermes::vm::PropOpFlags", ptr %agg.tmp118, i32 0, i32 0
  %60 = load i32, ptr %coerce.dive125, align 4
  %call126 = call i32 @_ZN6hermes2vm8JSObject17defineOwnPropertyENS0_6HandleIS1_EERNS0_7RuntimeENS0_8SymbolIDENS0_19DefinePropertyFlagsENS2_INS0_11HermesValueEEENS0_11PropOpFlagsE(ptr %56, ptr noundef nonnull align 8 dereferenceable(9832) %55, i32 %57, i32 %58, ptr %59, i32 %60)
  store i32 %call126, ptr %ref.tmp111, align 4
  %call127 = call noundef zeroext i1 @_ZN6hermes2vmeqIbEEbRKNS0_10CallResultIT_Xsr6detail23GetCallResultSpecializeIS3_EE5valueEEENS0_15ExecutionStatusE(ptr noundef nonnull align 4 dereferenceable(2) %ref.tmp111, i32 noundef 0)
  br i1 %call127, label %if.then128, label %if.end129

if.then128:                                       ; preds = %if.end108
  call void @_ZN6hermes2vm10CallResultINS0_11HermesValueELNS0_6detail20CallResultSpecializeE2EEC2ENS0_15ExecutionStatusE(ptr noundef nonnull align 8 dereferenceable(16) %retval, i32 noundef 0)
  store i32 1, ptr %cleanup.dest.slot, align 4
  br label %cleanup134

if.end129:                                        ; preds = %if.end108
  %call131 = call i64 @_ZNK6hermes2vm6HandleINS0_11HermesValueEEdeEv(ptr noundef nonnull align 8 dereferenceable(8) %stackTraceFormatted)
  %coerce.dive132 = getelementptr inbounds %"class.hermes::vm::HermesValue", ptr %agg.tmp130, i32 0, i32 0
  store i64 %call131, ptr %coerce.dive132, align 8
  %coerce.dive133 = getelementptr inbounds %"class.hermes::vm::HermesValue", ptr %agg.tmp130, i32 0, i32 0
  %61 = load i64, ptr %coerce.dive133, align 8
  call void @_ZN6hermes2vm10CallResultINS0_11HermesValueELNS0_6detail20CallResultSpecializeE2EEC2ES2_(ptr noundef nonnull align 8 dereferenceable(16) %retval, i64 %61)
  store i32 1, ptr %cleanup.dest.slot, align 4
  br label %cleanup134

cleanup134:                                       ; preds = %if.end129, %if.then128, %if.then90, %cleanup, %if.then35
  call void @_ZN6hermes2vm12SmallXStringIDsLj32EED2Ev(ptr noundef nonnull align 8 dereferenceable(80) %stack) #10
  call void @_ZN6hermes2vm24ScopedNativeDepthReducerD2Ev(ptr noundef nonnull align 8 dereferenceable(9) %reducer) #10
  br label %cleanup136

cleanup136:                                       ; preds = %cleanup134, %if.then12, %if.then
  call void @_ZN6hermes2vm7GCScopeD1Ev(ptr noundef nonnull align 8 dereferenceable(212) %gcScope) #10
  %62 = load { i32, i64 }, ptr %retval, align 8
  ret { i32, i64 } %62
}

; Function Attrs: mustprogress nounwind uwtable
define linkonce_odr hidden void @_ZN6hermes2vm7GCScopeC2ERNS0_15HandleRootOwnerEPKcj(ptr noundef nonnull align 8 dereferenceable(212) %this, ptr noundef nonnull align 8 dereferenceable(16) %runtime, ptr noundef %name, i32 noundef %handlesLimit) unnamed_addr #0 comdat align 2 {
entry:
  %this.addr = alloca ptr, align 8
  %runtime.addr = alloca ptr, align 8
  %name.addr = alloca ptr, align 8
  %handlesLimit.addr = alloca i32, align 4
  %agg.tmp = alloca %"class.std::initializer_list", align 8
  %ref.tmp = alloca [1 x ptr], align 8
  store ptr %this, ptr %this.addr, align 8
  store ptr %runtime, ptr %runtime.addr, align 8
  store ptr %name, ptr %name.addr, align 8
  store i32 %handlesLimit, ptr %handlesLimit.addr, align 4
  %this1 = load ptr, ptr %this.addr, align 8
  %runtime_ = getelementptr inbounds %"class.hermes::vm::GCScope", ptr %this1, i32 0, i32 0
  %0 = load ptr, ptr %runtime.addr, align 8
  store ptr %0, ptr %runtime_, align 8
  %prevScope_ = getelementptr inbounds %"class.hermes::vm::GCScope", ptr %this1, i32 0, i32 1
  %1 = load ptr, ptr %runtime.addr, align 8
  %topGCScope_ = getelementptr inbounds %"class.hermes::vm::HandleRootOwner", ptr %1, i32 0, i32 1
  %2 = load ptr, ptr %topGCScope_, align 8
  store ptr %2, ptr %prevScope_, align 8
  %chunks_ = getelementptr inbounds %"class.hermes::vm::GCScope", ptr %this1, i32 0, i32 3
  %arrayinit.begin = getelementptr inbounds [1 x ptr], ptr %ref.tmp, i64 0, i64 0
  %inlineStorage_ = getelementptr inbounds %"class.hermes::vm::GCScope", ptr %this1, i32 0, i32 2
  %arraydecay = getelementptr inbounds [128 x i8], ptr %inlineStorage_, i64 0, i64 0
  store ptr %arraydecay, ptr %arrayinit.begin, align 8
  %_M_array = getelementptr inbounds %"class.std::initializer_list", ptr %agg.tmp, i32 0, i32 0
  %arraystart = getelementptr inbounds [1 x ptr], ptr %ref.tmp, i64 0, i64 0
  store ptr %arraystart, ptr %_M_array, align 8
  %_M_len = getelementptr inbounds %"class.std::initializer_list", ptr %agg.tmp, i32 0, i32 1
  store i64 1, ptr %_M_len, align 8
  %3 = getelementptr inbounds { ptr, i64 }, ptr %agg.tmp, i32 0, i32 0
  %4 = load ptr, ptr %3, align 8
  %5 = getelementptr inbounds { ptr, i64 }, ptr %agg.tmp, i32 0, i32 1
  %6 = load i64, ptr %5, align 8
  call void @_ZN4llvh11SmallVectorIPN6hermes2vm17PinnedHermesValueELj4EEC2ESt16initializer_listIS4_E(ptr noundef nonnull align 8 dereferenceable(48) %chunks_, ptr %4, i64 %6)
  %next_ = getelementptr inbounds %"class.hermes::vm::GCScope", ptr %this1, i32 0, i32 4
  %inlineStorage_2 = getelementptr inbounds %"class.hermes::vm::GCScope", ptr %this1, i32 0, i32 2
  %arraydecay3 = getelementptr inbounds [128 x i8], ptr %inlineStorage_2, i64 0, i64 0
  store ptr %arraydecay3, ptr %next_, align 8
  %curChunkEnd_ = getelementptr inbounds %"class.hermes::vm::GCScope", ptr %this1, i32 0, i32 5
  %inlineStorage_4 = getelementptr inbounds %"class.hermes::vm::GCScope", ptr %this1, i32 0, i32 2
  %arraydecay5 = getelementptr inbounds [128 x i8], ptr %inlineStorage_4, i64 0, i64 0
  %add.ptr = getelementptr inbounds %"class.hermes::vm::PinnedHermesValue", ptr %arraydecay5, i64 16
  store ptr %add.ptr, ptr %curChunkEnd_, align 8
  %curChunkIndex_ = getelementptr inbounds %"class.hermes::vm::GCScope", ptr %this1, i32 0, i32 6
  store i32 0, ptr %curChunkIndex_, align 8
  %7 = load ptr, ptr %runtime.addr, align 8
  %topGCScope_6 = getelementptr inbounds %"class.hermes::vm::HandleRootOwner", ptr %7, i32 0, i32 1
  store ptr %this1, ptr %topGCScope_6, align 8
  ret void
}

; Function Attrs: mustprogress nounwind uwtable
define linkonce_odr hidden ptr @_ZNK6hermes2vm10NativeArgs11dyncastThisINS0_8JSObjectEEENS0_6HandleIT_EEv(ptr noundef nonnull align 8 dereferenceable(24) %this) #0 comdat align 2 {
entry:
  %retval = alloca %"class.hermes::vm::Handle", align 8
  %this.addr = alloca ptr, align 8
  %agg.tmp = alloca %"class.hermes::vm::HermesValue", align 8
  store ptr %this, ptr %this.addr, align 8
  %this1 = load ptr, ptr %this.addr, align 8
  %call = call noundef nonnull align 8 dereferenceable(8) ptr @_ZNK6hermes2vm10NativeArgs10getThisArgEv(ptr noundef nonnull align 8 dereferenceable(24) %this1)
  call void @llvm.memcpy.p0.p0.i64(ptr align 8 %agg.tmp, ptr align 8 %call, i64 8, i1 false)
  %coerce.dive = getelementptr inbounds %"class.hermes::vm::HermesValue", ptr %agg.tmp, i32 0, i32 0
  %0 = load i64, ptr %coerce.dive, align 8
  %call2 = call noundef zeroext i1 @_ZN6hermes2vm5vmisaINS0_8JSObjectEEEbNS0_11HermesValueE(i64 %0)
  br i1 %call2, label %cond.true, label %cond.false

cond.true:                                        ; preds = %entry
  %call3 = call noundef nonnull align 8 dereferenceable(8) ptr @_ZNK6hermes2vm10NativeArgs10getThisArgEv(ptr noundef nonnull align 8 dereferenceable(24) %this1)
  %call4 = call ptr @_ZN6hermes2vm6HandleINS0_8JSObjectEE6vmcastEPKNS0_17PinnedHermesValueE(ptr noundef %call3)
  %coerce.dive5 = getelementptr inbounds %"class.hermes::vm::Handle", ptr %retval, i32 0, i32 0
  %coerce.dive6 = getelementptr inbounds %"class.hermes::vm::HandleBase", ptr %coerce.dive5, i32 0, i32 0
  store ptr %call4, ptr %coerce.dive6, align 8
  br label %cond.end

cond.false:                                       ; preds = %entry
  %call7 = call ptr @_ZN6hermes2vm15HandleRootOwner14makeNullHandleINS0_8JSObjectEEENS0_6HandleIT_EEv()
  %coerce.dive8 = getelementptr inbounds %"class.hermes::vm::Handle", ptr %retval, i32 0, i32 0
  %coerce.dive9 = getelementptr inbounds %"class.hermes::vm::HandleBase", ptr %coerce.dive8, i32 0, i32 0
  store ptr %call7, ptr %coerce.dive9, align 8
  br label %cond.end

cond.end:                                         ; preds = %cond.false, %cond.true
  %coerce.dive10 = getelementptr inbounds %"class.hermes::vm::Handle", ptr %retval, i32 0, i32 0
  %coerce.dive11 = getelementptr inbounds %"class.hermes::vm::HandleBase", ptr %coerce.dive10, i32 0, i32 0
  %1 = load ptr, ptr %coerce.dive11, align 8
  ret ptr %1
}

; Function Attrs: mustprogress nounwind uwtable
define linkonce_odr hidden noundef zeroext i1 @_ZN6hermes2vmeqINS0_6HandleINS0_7JSErrorEEEEEbRKNS0_10CallResultIT_Xsr6detail23GetCallResultSpecializeIS6_EE5valueEEENS0_15ExecutionStatusE(ptr noundef nonnull align 8 dereferenceable(8) %lhs, i32 noundef %rhs) #0 comdat {
entry:
  %lhs.addr = alloca ptr, align 8
  %rhs.addr = alloca i32, align 4
  store ptr %lhs, ptr %lhs.addr, align 8
  store i32 %rhs, ptr %rhs.addr, align 4
  %0 = load ptr, ptr %lhs.addr, align 8
  %call = call noundef i32 @_ZNK6hermes2vm10CallResultINS0_6HandleINS0_7JSErrorEEELNS0_6detail20CallResultSpecializeE4EE9getStatusEv(ptr noundef nonnull align 8 dereferenceable(8) %0)
  %1 = load i32, ptr %rhs.addr, align 4
  %cmp = icmp eq i32 %call, %1
  ret i1 %cmp
}

; Function Attrs: mustprogress nounwind uwtable
define linkonce_odr hidden void @_ZN6hermes2vm10CallResultINS0_11HermesValueELNS0_6detail20CallResultSpecializeE2EEC2ENS0_15ExecutionStatusE(ptr noundef nonnull align 8 dereferenceable(16) %this, i32 noundef %status) unnamed_addr #0 comdat align 2 {
entry:
  %this.addr = alloca ptr, align 8
  %status.addr = alloca i32, align 4
  store ptr %this, ptr %this.addr, align 8
  store i32 %status, ptr %status.addr, align 4
  %this1 = load ptr, ptr %this.addr, align 8
  %status_ = getelementptr inbounds %"class.hermes::vm::CallResult.177", ptr %this1, i32 0, i32 0
  %0 = load i32, ptr %status.addr, align 4
  store i32 %0, ptr %status_, align 8
  ret void
}

; Function Attrs: mustprogress nounwind uwtable
define linkonce_odr hidden noundef nonnull align 8 dereferenceable(8) ptr @_ZN6hermes2vm10CallResultINS0_6HandleINS0_7JSErrorEEELNS0_6detail20CallResultSpecializeE4EEdeEv(ptr noundef nonnull align 8 dereferenceable(8) %this) #0 comdat align 2 {
entry:
  %this.addr = alloca ptr, align 8
  store ptr %this, ptr %this.addr, align 8
  %this1 = load ptr, ptr %this.addr, align 8
  %call = call noundef nonnull align 8 dereferenceable(8) ptr @_ZN6hermes2vm10CallResultINS0_6HandleINS0_7JSErrorEEELNS0_6detail20CallResultSpecializeE4EE8getValueEv(ptr noundef nonnull align 8 dereferenceable(8) %this1)
  ret ptr %call
}

; Function Attrs: mustprogress nounwind uwtable
define linkonce_odr hidden noundef ptr @_ZNK6hermes2vm6HandleINS0_7JSErrorEEptEv(ptr noundef nonnull align 8 dereferenceable(8) %this) #0 comdat align 2 {
entry:
  %this.addr = alloca ptr, align 8
  store ptr %this, ptr %this.addr, align 8
  %this1 = load ptr, ptr %this.addr, align 8
  %call = call noundef ptr @_ZNK6hermes2vm10HandleBase9handleRefEv(ptr noundef nonnull align 8 dereferenceable(8) %this1)
  %call2 = call noundef ptr @_ZN6hermes2vm17HermesValueTraitsINS0_7JSErrorELb1EE5arrowERKNS0_11HermesValueE(ptr noundef nonnull align 8 dereferenceable(8) %call)
  ret ptr %call2
}

; Function Attrs: mustprogress nounwind uwtable
define linkonce_odr hidden noundef zeroext i1 @_ZNKSt10unique_ptrISt6vectorIN6hermes2vm14StackTraceInfoESaIS3_EESt14default_deleteIS5_EEcvbEv(ptr noundef nonnull align 8 dereferenceable(8) %this) #0 comdat align 2 {
entry:
  %this.addr = alloca ptr, align 8
  store ptr %this, ptr %this.addr, align 8
  %this1 = load ptr, ptr %this.addr, align 8
  %call = call noundef ptr @_ZNKSt10unique_ptrISt6vectorIN6hermes2vm14StackTraceInfoESaIS3_EESt14default_deleteIS5_EE3getEv(ptr noundef nonnull align 8 dereferenceable(8) %this1) #10
  %cmp = icmp eq ptr %call, null
  %cond = select i1 %cmp, i1 false, i1 true
  ret i1 %cond
}

; Function Attrs: mustprogress nounwind uwtable
define linkonce_odr hidden i64 @_ZN6hermes2vm11HermesValue17encodeStringValueEPKNS0_15StringPrimitiveE(ptr noundef %val) #0 comdat align 2 {
entry:
  %retval = alloca %"class.hermes::vm::HermesValue", align 8
  %val.addr = alloca ptr, align 8
  store ptr %val, ptr %val.addr, align 8
  %0 = load ptr, ptr %val.addr, align 8
  %call = call i64 @_ZN6hermes2vm11HermesValue23encodeStringValueUnsafeEPKNS0_15StringPrimitiveE(ptr noundef %0)
  %coerce.dive = getelementptr inbounds %"class.hermes::vm::HermesValue", ptr %retval, i32 0, i32 0
  store i64 %call, ptr %coerce.dive, align 8
  %coerce.dive1 = getelementptr inbounds %"class.hermes::vm::HermesValue", ptr %retval, i32 0, i32 0
  %1 = load i64, ptr %coerce.dive1, align 8
  ret i64 %1
}

; Function Attrs: mustprogress nounwind uwtable
define linkonce_odr hidden noundef ptr @_ZN6hermes2vm7Runtime19getPredefinedStringENS0_10Predefined3StrE(ptr noundef nonnull align 8 dereferenceable(9832) %this, i32 noundef %predefined) #0 comdat align 2 {
entry:
  %this.addr = alloca ptr, align 8
  %predefined.addr = alloca i32, align 4
  %agg.tmp = alloca %"class.hermes::vm::SymbolID", align 4
  store ptr %this, ptr %this.addr, align 8
  store i32 %predefined, ptr %predefined.addr, align 4
  %this1 = load ptr, ptr %this.addr, align 8
  %0 = load i32, ptr %predefined.addr, align 4
  %call = call i32 @_ZN6hermes2vm10Predefined11getSymbolIDENS1_3StrE(i32 noundef %0)
  %coerce.dive = getelementptr inbounds %"class.hermes::vm::SymbolID", ptr %agg.tmp, i32 0, i32 0
  store i32 %call, ptr %coerce.dive, align 4
  %coerce.dive2 = getelementptr inbounds %"class.hermes::vm::SymbolID", ptr %agg.tmp, i32 0, i32 0
  %1 = load i32, ptr %coerce.dive2, align 4
  %call3 = call noundef ptr @_ZN6hermes2vm7Runtime25getStringPrimFromSymbolIDENS0_8SymbolIDE(ptr noundef nonnull align 8 dereferenceable(9832) %this1, i32 %1)
  ret ptr %call3
}

; Function Attrs: mustprogress nounwind uwtable
define linkonce_odr hidden void @_ZN6hermes2vm10CallResultINS0_11HermesValueELNS0_6detail20CallResultSpecializeE2EEC2ES2_(ptr noundef nonnull align 8 dereferenceable(16) %this, i64 %value.coerce) unnamed_addr #0 comdat align 2 {
entry:
  %value = alloca %"class.hermes::vm::HermesValue", align 8
  %this.addr = alloca ptr, align 8
  %coerce.dive = getelementptr inbounds %"class.hermes::vm::HermesValue", ptr %value, i32 0, i32 0
  store i64 %value.coerce, ptr %coerce.dive, align 8
  store ptr %this, ptr %this.addr, align 8
  %this1 = load ptr, ptr %this.addr, align 8
  %status_ = getelementptr inbounds %"class.hermes::vm::CallResult.177", ptr %this1, i32 0, i32 0
  store i32 1, ptr %status_, align 8
  %storage_2 = getelementptr inbounds %"class.hermes::vm::CallResult.177", ptr %this1, i32 0, i32 1
  call void @llvm.memcpy.p0.p0.i64(ptr align 8 %storage_2, ptr align 8 %value, i64 8, i1 false)
  ret void
}

; Function Attrs: mustprogress nounwind uwtable
define linkonce_odr hidden void @_ZN6hermes2vm24ScopedNativeDepthReducerC2ERNS0_7RuntimeE(ptr noundef nonnull align 8 dereferenceable(9) %this, ptr noundef nonnull align 8 dereferenceable(9832) %runtime) unnamed_addr #0 comdat align 2 {
entry:
  %this.addr = alloca ptr, align 8
  %runtime.addr = alloca ptr, align 8
  store ptr %this, ptr %this.addr, align 8
  store ptr %runtime, ptr %runtime.addr, align 8
  %this1 = load ptr, ptr %this.addr, align 8
  %runtime_ = getelementptr inbounds %"class.hermes::vm::ScopedNativeDepthReducer", ptr %this1, i32 0, i32 0
  %0 = load ptr, ptr %runtime.addr, align 8
  store ptr %0, ptr %runtime_, align 8
  %undo = getelementptr inbounds %"class.hermes::vm::ScopedNativeDepthReducer", ptr %this1, i32 0, i32 1
  store i8 0, ptr %undo, align 8
  %1 = load ptr, ptr %runtime.addr, align 8
  %nativeCallFrameDepth_ = getelementptr inbounds %"class.hermes::vm::Runtime", ptr %1, i32 0, i32 132
  %2 = load i32, ptr %nativeCallFrameDepth_, align 8
  %cmp = icmp uge i32 %2, 3
  br i1 %cmp, label %if.then, label %if.end

if.then:                                          ; preds = %entry
  %3 = load ptr, ptr %runtime.addr, align 8
  %nativeCallFrameDepth_2 = getelementptr inbounds %"class.hermes::vm::Runtime", ptr %3, i32 0, i32 132
  %4 = load i32, ptr %nativeCallFrameDepth_2, align 8
  %sub = sub i32 %4, 3
  store i32 %sub, ptr %nativeCallFrameDepth_2, align 8
  %undo3 = getelementptr inbounds %"class.hermes::vm::ScopedNativeDepthReducer", ptr %this1, i32 0, i32 1
  store i8 1, ptr %undo3, align 8
  br label %if.end

if.end:                                           ; preds = %if.then, %entry
  ret void
}

; Function Attrs: mustprogress nounwind uwtable
define linkonce_odr hidden void @_ZN6hermes2vm12SmallXStringIDsLj32EEC2Ev(ptr noundef nonnull align 8 dereferenceable(80) %this) unnamed_addr #0 comdat align 2 {
entry:
  %this.addr = alloca ptr, align 8
  store ptr %this, ptr %this.addr, align 8
  %this1 = load ptr, ptr %this.addr, align 8
  call void @_ZN4llvh11SmallVectorIDsLj32EEC2Ev(ptr noundef nonnull align 8 dereferenceable(80) %this1)
  ret void
}

; Function Attrs: mustprogress nounwind uwtable
define linkonce_odr hidden ptr @_ZN6hermes2vm6HandleINS0_8JSObjectEE6vmcastEPKNS0_17PinnedHermesValueE(ptr noundef %valueAddr) #0 comdat align 2 {
entry:
  %retval = alloca %"class.hermes::vm::Handle", align 8
  %valueAddr.addr = alloca ptr, align 8
  %agg.tmp = alloca %"class.hermes::vm::HermesValue", align 8
  store ptr %valueAddr, ptr %valueAddr.addr, align 8
  %0 = load ptr, ptr %valueAddr.addr, align 8
  call void @llvm.memcpy.p0.p0.i64(ptr align 8 %agg.tmp, ptr align 8 %0, i64 8, i1 false)
  %coerce.dive = getelementptr inbounds %"class.hermes::vm::HermesValue", ptr %agg.tmp, i32 0, i32 0
  %1 = load i64, ptr %coerce.dive, align 8
  call void @_ZN6hermes2vm15HermesValueCastINS0_8JSObjectELb1EE11assertValidENS0_11HermesValueE(i64 %1)
  %2 = load ptr, ptr %valueAddr.addr, align 8
  call void @_ZN6hermes2vm6HandleINS0_8JSObjectEEC2EPKNS0_17PinnedHermesValueEb(ptr noundef nonnull align 8 dereferenceable(8) %retval, ptr noundef %2, i1 noundef zeroext true)
  %coerce.dive1 = getelementptr inbounds %"class.hermes::vm::Handle", ptr %retval, i32 0, i32 0
  %coerce.dive2 = getelementptr inbounds %"class.hermes::vm::HandleBase", ptr %coerce.dive1, i32 0, i32 0
  %3 = load ptr, ptr %coerce.dive2, align 8
  ret ptr %3
}

; Function Attrs: mustprogress nounwind uwtable
define linkonce_odr hidden { i32, i64 } @_ZN6hermes2vm8JSObject12getNamed_RJSENS0_6HandleIS1_EERNS0_7RuntimeENS0_8SymbolIDENS0_11PropOpFlagsEPNS0_18PropertyCacheEntryE(ptr %selfHandle.coerce, ptr noundef nonnull align 8 dereferenceable(9832) %runtime, i32 %name.coerce, i32 %opFlags.coerce, ptr noundef %cacheEntry) #0 comdat align 2 {
entry:
  %retval = alloca %"class.hermes::vm::CallResult.192", align 8
  %selfHandle = alloca %"class.hermes::vm::Handle", align 8
  %name = alloca %"class.hermes::vm::SymbolID", align 4
  %opFlags = alloca %"union.hermes::vm::PropOpFlags", align 4
  %runtime.addr = alloca ptr, align 8
  %cacheEntry.addr = alloca ptr, align 8
  %agg.tmp = alloca %"class.hermes::vm::Handle", align 8
  %agg.tmp4 = alloca %"class.hermes::vm::SymbolID", align 4
  %agg.tmp5 = alloca %"class.hermes::vm::Handle.0", align 8
  %agg.tmp6 = alloca %"union.hermes::vm::PropOpFlags", align 4
  %coerce.dive = getelementptr inbounds %"class.hermes::vm::Handle", ptr %selfHandle, i32 0, i32 0
  %coerce.dive1 = getelementptr inbounds %"class.hermes::vm::HandleBase", ptr %coerce.dive, i32 0, i32 0
  store ptr %selfHandle.coerce, ptr %coerce.dive1, align 8
  %coerce.dive2 = getelementptr inbounds %"class.hermes::vm::SymbolID", ptr %name, i32 0, i32 0
  store i32 %name.coerce, ptr %coerce.dive2, align 4
  %coerce.dive3 = getelementptr inbounds %"union.hermes::vm::PropOpFlags", ptr %opFlags, i32 0, i32 0
  store i32 %opFlags.coerce, ptr %coerce.dive3, align 4
  store ptr %runtime, ptr %runtime.addr, align 8
  store ptr %cacheEntry, ptr %cacheEntry.addr, align 8
  call void @llvm.memcpy.p0.p0.i64(ptr align 8 %agg.tmp, ptr align 8 %selfHandle, i64 8, i1 false)
  %0 = load ptr, ptr %runtime.addr, align 8
  call void @llvm.memcpy.p0.p0.i64(ptr align 4 %agg.tmp4, ptr align 4 %name, i64 4, i1 false)
  call void @_ZN6hermes2vm6HandleINS0_11HermesValueEEC2INS0_8JSObjectEvEERKNS1_IT_EE(ptr noundef nonnull align 8 dereferenceable(8) %agg.tmp5, ptr noundef nonnull align 8 dereferenceable(8) %selfHandle)
  call void @llvm.memcpy.p0.p0.i64(ptr align 4 %agg.tmp6, ptr align 4 %opFlags, i64 4, i1 false)
  %1 = load ptr, ptr %cacheEntry.addr, align 8
  %coerce.dive7 = getelementptr inbounds %"class.hermes::vm::Handle", ptr %agg.tmp, i32 0, i32 0
  %coerce.dive8 = getelementptr inbounds %"class.hermes::vm::HandleBase", ptr %coerce.dive7, i32 0, i32 0
  %2 = load ptr, ptr %coerce.dive8, align 8
  %coerce.dive9 = getelementptr inbounds %"class.hermes::vm::SymbolID", ptr %agg.tmp4, i32 0, i32 0
  %3 = load i32, ptr %coerce.dive9, align 4
  %coerce.dive10 = getelementptr inbounds %"class.hermes::vm::Handle.0", ptr %agg.tmp5, i32 0, i32 0
  %coerce.dive11 = getelementptr inbounds %"class.hermes::vm::HandleBase", ptr %coerce.dive10, i32 0, i32 0
  %4 = load ptr, ptr %coerce.dive11, align 8
  %coerce.dive12 = getelementptr inbounds %"union.hermes::vm::PropOpFlags", ptr %agg.tmp6, i32 0, i32 0
  %5 = load i32, ptr %coerce.dive12, align 4
  %call = call { i32, i64 } @_ZN6hermes2vm8JSObject24getNamedWithReceiver_RJSENS0_6HandleIS1_EERNS0_7RuntimeENS0_8SymbolIDENS2_INS0_11HermesValueEEENS0_11PropOpFlagsEPNS0_18PropertyCacheEntryE(ptr %2, ptr noundef nonnull align 8 dereferenceable(9832) %0, i32 %3, ptr %4, i32 %5, ptr noundef %1)
  %6 = getelementptr inbounds { i32, i64 }, ptr %retval, i32 0, i32 0
  %7 = extractvalue { i32, i64 } %call, 0
  store i32 %7, ptr %6, align 8
  %8 = getelementptr inbounds { i32, i64 }, ptr %retval, i32 0, i32 1
  %9 = extractvalue { i32, i64 } %call, 1
  store i64 %9, ptr %8, align 8
  %10 = load { i32, i64 }, ptr %retval, align 8
  ret { i32, i64 } %10
}

; Function Attrs: mustprogress nounwind uwtable
define linkonce_odr hidden i32 @_ZN6hermes2vm10Predefined11getSymbolIDENS1_3StrE(i32 noundef %predefined) #0 comdat {
entry:
  %retval = alloca %"class.hermes::vm::SymbolID", align 4
  %predefined.addr = alloca i32, align 4
  store i32 %predefined, ptr %predefined.addr, align 4
  %0 = load i32, ptr %predefined.addr, align 4
  %call = call i32 @_ZN6hermes2vm8SymbolID12unsafeCreateEj(i32 noundef %0)
  %coerce.dive = getelementptr inbounds %"class.hermes::vm::SymbolID", ptr %retval, i32 0, i32 0
  store i32 %call, ptr %coerce.dive, align 4
  %coerce.dive1 = getelementptr inbounds %"class.hermes::vm::SymbolID", ptr %retval, i32 0, i32 0
  %1 = load i32, ptr %coerce.dive1, align 4
  ret i32 %1
}

; Function Attrs: nocallback nofree nounwind willreturn memory(argmem: write)
declare void @llvm.memset.p0.i64(ptr nocapture writeonly, i8, i64, i1 immarg) #3

; Function Attrs: mustprogress nounwind uwtable
define linkonce_odr hidden void @_ZN6hermes2vm11PropOpFlagsC2Ev(ptr noundef nonnull align 4 dereferenceable(4) %this) unnamed_addr #0 comdat align 2 {
entry:
  %this.addr = alloca ptr, align 8
  store ptr %this, ptr %this.addr, align 8
  %this1 = load ptr, ptr %this.addr, align 8
  store i32 0, ptr %this1, align 4
  ret void
}

; Function Attrs: mustprogress nounwind uwtable
define linkonce_odr hidden i32 @_ZNK6hermes2vm11PropOpFlags16plusThrowOnErrorEv(ptr noundef nonnull align 4 dereferenceable(4) %this) #0 comdat align 2 {
entry:
  %retval = alloca %"union.hermes::vm::PropOpFlags", align 4
  %this.addr = alloca ptr, align 8
  store ptr %this, ptr %this.addr, align 8
  %this1 = load ptr, ptr %this.addr, align 8
  call void @llvm.memcpy.p0.p0.i64(ptr align 4 %retval, ptr align 4 %this1, i64 4, i1 false)
  %bf.load = load i8, ptr %retval, align 4
  %bf.clear = and i8 %bf.load, -2
  %bf.set = or i8 %bf.clear, 1
  store i8 %bf.set, ptr %retval, align 4
  %coerce.dive = getelementptr inbounds %"union.hermes::vm::PropOpFlags", ptr %retval, i32 0, i32 0
  %0 = load i32, ptr %coerce.dive, align 4
  ret i32 %0
}

; Function Attrs: mustprogress nounwind uwtable
define linkonce_odr hidden noundef zeroext i1 @_ZN6hermes2vmeqINS0_12PseudoHandleINS0_11HermesValueEEEEEbRKNS0_10CallResultIT_Xsr6detail23GetCallResultSpecializeIS6_EE5valueEEENS0_15ExecutionStatusE(ptr noundef nonnull align 8 dereferenceable(16) %lhs, i32 noundef %rhs) #0 comdat {
entry:
  %lhs.addr = alloca ptr, align 8
  %rhs.addr = alloca i32, align 4
  store ptr %lhs, ptr %lhs.addr, align 8
  store i32 %rhs, ptr %rhs.addr, align 4
  %0 = load ptr, ptr %lhs.addr, align 8
  %call = call noundef i32 @_ZNK6hermes2vm10CallResultINS0_12PseudoHandleINS0_11HermesValueEEELNS0_6detail20CallResultSpecializeE5EE9getStatusEv(ptr noundef nonnull align 8 dereferenceable(16) %0)
  %1 = load i32, ptr %rhs.addr, align 4
  %cmp = icmp eq i32 %call, %1
  ret i1 %cmp
}

; Function Attrs: mustprogress nounwind uwtable
define linkonce_odr hidden i64 @_ZN6hermes2vm17HermesValueTraitsINS0_11HermesValueELb0EE12defaultValueEv() #0 comdat align 2 {
entry:
  %retval = alloca %"class.hermes::vm::HermesValue", align 8
  %call = call i64 @_ZN6hermes2vm11HermesValue20encodeUndefinedValueEv()
  %coerce.dive = getelementptr inbounds %"class.hermes::vm::HermesValue", ptr %retval, i32 0, i32 0
  store i64 %call, ptr %coerce.dive, align 8
  %coerce.dive1 = getelementptr inbounds %"class.hermes::vm::HermesValue", ptr %retval, i32 0, i32 0
  %0 = load i64, ptr %coerce.dive1, align 8
  ret i64 %0
}

; Function Attrs: mustprogress nounwind uwtable
define linkonce_odr hidden void @_ZN6hermes2vm13MutableHandleINS0_11HermesValueEEC2ERNS0_15HandleRootOwnerES2_(ptr noundef nonnull align 8 dereferenceable(8) %this, ptr noundef nonnull align 8 dereferenceable(16) %runtime, i64 %value.coerce) unnamed_addr #0 comdat align 2 {
entry:
  %value = alloca %"class.hermes::vm::HermesValue", align 8
  %this.addr = alloca ptr, align 8
  %runtime.addr = alloca ptr, align 8
  %agg.tmp = alloca %"class.hermes::vm::HermesValue", align 8
  %coerce.dive = getelementptr inbounds %"class.hermes::vm::HermesValue", ptr %value, i32 0, i32 0
  store i64 %value.coerce, ptr %coerce.dive, align 8
  store ptr %this, ptr %this.addr, align 8
  store ptr %runtime, ptr %runtime.addr, align 8
  %this1 = load ptr, ptr %this.addr, align 8
  %0 = load ptr, ptr %runtime.addr, align 8
  call void @llvm.memcpy.p0.p0.i64(ptr align 8 %agg.tmp, ptr align 8 %value, i64 8, i1 false)
  %coerce.dive2 = getelementptr inbounds %"class.hermes::vm::HermesValue", ptr %agg.tmp, i32 0, i32 0
  %1 = load i64, ptr %coerce.dive2, align 8
  call void @_ZN6hermes2vm6HandleINS0_11HermesValueEEC2ERNS0_15HandleRootOwnerES2_(ptr noundef nonnull align 8 dereferenceable(8) %this1, ptr noundef nonnull align 8 dereferenceable(16) %0, i64 %1)
  ret void
}

; Function Attrs: mustprogress nounwind uwtable
define linkonce_odr hidden ptr @_ZN6hermes2vm6HandleINS0_8CallableEE10dyn_vmcastERKNS0_10HandleBaseE(ptr noundef nonnull align 8 dereferenceable(8) %other) #0 comdat align 2 {
entry:
  %retval = alloca %"class.hermes::vm::Handle.195", align 8
  %other.addr = alloca ptr, align 8
  %agg.tmp = alloca %"class.hermes::vm::HermesValue", align 8
  store ptr %other, ptr %other.addr, align 8
  %0 = load ptr, ptr %other.addr, align 8
  %call = call i64 @_ZNK6hermes2vm10HandleBase14getHermesValueEv(ptr noundef nonnull align 8 dereferenceable(8) %0)
  %coerce.dive = getelementptr inbounds %"class.hermes::vm::HermesValue", ptr %agg.tmp, i32 0, i32 0
  store i64 %call, ptr %coerce.dive, align 8
  %coerce.dive1 = getelementptr inbounds %"class.hermes::vm::HermesValue", ptr %agg.tmp, i32 0, i32 0
  %1 = load i64, ptr %coerce.dive1, align 8
  %call2 = call noundef zeroext i1 @_ZN6hermes2vm5vmisaINS0_8CallableEEEbNS0_11HermesValueE(i64 %1)
  br i1 %call2, label %cond.true, label %cond.false

cond.true:                                        ; preds = %entry
  %2 = load ptr, ptr %other.addr, align 8
  call void @_ZN6hermes2vm6HandleINS0_8CallableEEC2ERKNS0_10HandleBaseEb(ptr noundef nonnull align 8 dereferenceable(8) %retval, ptr noundef nonnull align 8 dereferenceable(8) %2, i1 noundef zeroext true)
  br label %cond.end

cond.false:                                       ; preds = %entry
  %call3 = call ptr @_ZN6hermes2vm15HandleRootOwner14makeNullHandleINS0_8CallableEEENS0_6HandleIT_EEv()
  %coerce.dive4 = getelementptr inbounds %"class.hermes::vm::Handle.195", ptr %retval, i32 0, i32 0
  %coerce.dive5 = getelementptr inbounds %"class.hermes::vm::HandleBase", ptr %coerce.dive4, i32 0, i32 0
  store ptr %call3, ptr %coerce.dive5, align 8
  br label %cond.end

cond.end:                                         ; preds = %cond.false, %cond.true
  %coerce.dive6 = getelementptr inbounds %"class.hermes::vm::Handle.195", ptr %retval, i32 0, i32 0
  %coerce.dive7 = getelementptr inbounds %"class.hermes::vm::HandleBase", ptr %coerce.dive6, i32 0, i32 0
  %3 = load ptr, ptr %coerce.dive7, align 8
  ret ptr %3
}

; Function Attrs: mustprogress nounwind uwtable
define linkonce_odr hidden ptr @_ZN6hermes2vm15HandleRootOwner10makeHandleINS0_11HermesValueEEENS0_6HandleIT_EEONS0_12PseudoHandleIS5_EE(ptr noundef nonnull align 8 dereferenceable(16) %this, ptr noundef nonnull align 8 dereferenceable(8) %pseudo) #0 comdat align 2 {
entry:
  %retval = alloca %"class.hermes::vm::Handle.0", align 8
  %this.addr = alloca ptr, align 8
  %pseudo.addr = alloca ptr, align 8
  %agg.tmp = alloca %"class.hermes::vm::HermesValue", align 8
  store ptr %this, ptr %this.addr, align 8
  store ptr %pseudo, ptr %pseudo.addr, align 8
  %this1 = load ptr, ptr %this.addr, align 8
  %0 = load ptr, ptr %pseudo.addr, align 8
  %call = call i64 @_ZNK6hermes2vm12PseudoHandleINS0_11HermesValueEE3getEv(ptr noundef nonnull align 8 dereferenceable(8) %0)
  %coerce.dive = getelementptr inbounds %"class.hermes::vm::HermesValue", ptr %agg.tmp, i32 0, i32 0
  store i64 %call, ptr %coerce.dive, align 8
  %coerce.dive2 = getelementptr inbounds %"class.hermes::vm::HermesValue", ptr %agg.tmp, i32 0, i32 0
  %1 = load i64, ptr %coerce.dive2, align 8
  call void @_ZN6hermes2vm6HandleINS0_11HermesValueEEC2ERNS0_15HandleRootOwnerES2_(ptr noundef nonnull align 8 dereferenceable(8) %retval, ptr noundef nonnull align 8 dereferenceable(16) %this1, i64 %1)
  %2 = load ptr, ptr %pseudo.addr, align 8
  call void @_ZN6hermes2vm12PseudoHandleINS0_11HermesValueEE10invalidateEv(ptr noundef nonnull align 8 dereferenceable(8) %2)
  %coerce.dive3 = getelementptr inbounds %"class.hermes::vm::Handle.0", ptr %retval, i32 0, i32 0
  %coerce.dive4 = getelementptr inbounds %"class.hermes::vm::HandleBase", ptr %coerce.dive3, i32 0, i32 0
  %3 = load ptr, ptr %coerce.dive4, align 8
  ret ptr %3
}

; Function Attrs: mustprogress nounwind uwtable
define linkonce_odr hidden noundef nonnull align 8 dereferenceable(8) ptr @_ZN6hermes2vm10CallResultINS0_12PseudoHandleINS0_11HermesValueEEELNS0_6detail20CallResultSpecializeE5EEdeEv(ptr noundef nonnull align 8 dereferenceable(16) %this) #0 comdat align 2 {
entry:
  %this.addr = alloca ptr, align 8
  store ptr %this, ptr %this.addr, align 8
  %this1 = load ptr, ptr %this.addr, align 8
  %call = call noundef nonnull align 8 dereferenceable(8) ptr @_ZN6hermes2vm10CallResultINS0_12PseudoHandleINS0_11HermesValueEEELNS0_6detail20CallResultSpecializeE5EE8getValueEv(ptr noundef nonnull align 8 dereferenceable(16) %this1)
  ret ptr %call
}

; Function Attrs: mustprogress nounwind uwtable
define linkonce_odr hidden noundef zeroext i1 @_ZNK6hermes2vm6HandleINS0_8CallableEEcvbEv(ptr noundef nonnull align 8 dereferenceable(8) %this) #0 comdat align 2 {
entry:
  %this.addr = alloca ptr, align 8
  store ptr %this, ptr %this.addr, align 8
  %this1 = load ptr, ptr %this.addr, align 8
  %call = call noundef ptr @_ZNK6hermes2vm10HandleBase9handleRefEv(ptr noundef nonnull align 8 dereferenceable(8) %this1)
  %call2 = call noundef zeroext i1 @_ZNK6hermes2vm11HermesValue9isPointerEv(ptr noundef nonnull align 8 dereferenceable(8) %call)
  br i1 %call2, label %land.rhs, label %land.end

land.rhs:                                         ; preds = %entry
  %call3 = call noundef ptr @_ZNK6hermes2vm10HandleBase9handleRefEv(ptr noundef nonnull align 8 dereferenceable(8) %this1)
  %call4 = call noundef ptr @_ZNK6hermes2vm11HermesValue10getPointerEv(ptr noundef nonnull align 8 dereferenceable(8) %call3)
  %tobool = icmp ne ptr %call4, null
  br label %land.end

land.end:                                         ; preds = %land.rhs, %entry
  %0 = phi i1 [ false, %entry ], [ %tobool, %land.rhs ]
  ret i1 %0
}

; Function Attrs: mustprogress nounwind uwtable
define linkonce_odr hidden noundef zeroext i1 @_ZNK6hermes2vm7Runtime20formattingStackTraceEv(ptr noundef nonnull align 8 dereferenceable(9832) %this) #0 comdat align 2 {
entry:
  %this.addr = alloca ptr, align 8
  store ptr %this, ptr %this.addr, align 8
  %this1 = load ptr, ptr %this.addr, align 8
  %formattingStackTrace_ = getelementptr inbounds %"class.hermes::vm::Runtime", ptr %this1, i32 0, i32 111
  %0 = load i8, ptr %formattingStackTrace_, align 1
  %tobool = trunc i8 %0 to i1
  ret i1 %tobool
}

; Function Attrs: mustprogress nounwind uwtable
define internal void @"_ZN4llvh15make_scope_exitIZN6hermes2vm16errorStackGetterEPvRNS2_7RuntimeENS2_10NativeArgsEE3$_0EENS_6detail10scope_exitINSt5decayIT_E4typeEEEOSB_"(ptr noalias sret(%"class.llvh::detail::scope_exit") align 8 %agg.result, ptr noundef nonnull align 8 dereferenceable(8) %F) #0 {
entry:
  %result.ptr = alloca ptr, align 8
  %F.addr = alloca ptr, align 8
  store ptr %agg.result, ptr %result.ptr, align 8
  store ptr %F, ptr %F.addr, align 8
  %0 = load ptr, ptr %F.addr, align 8
  call void @"_ZN4llvh6detail10scope_exitIZN6hermes2vm16errorStackGetterEPvRNS3_7RuntimeENS3_10NativeArgsEE3$_0EC2IS8_EEOT_"(ptr noundef nonnull align 8 dereferenceable(9) %agg.result, ptr noundef nonnull align 8 dereferenceable(8) %0)
  ret void
}

; Function Attrs: mustprogress nounwind uwtable
define linkonce_odr hidden void @_ZN6hermes2vm7Runtime23setFormattingStackTraceEb(ptr noundef nonnull align 8 dereferenceable(9832) %this, i1 noundef zeroext %value) #0 comdat align 2 {
entry:
  %this.addr = alloca ptr, align 8
  %value.addr = alloca i8, align 1
  store ptr %this, ptr %this.addr, align 8
  %frombool = zext i1 %value to i8
  store i8 %frombool, ptr %value.addr, align 1
  %this1 = load ptr, ptr %this.addr, align 8
  %0 = load i8, ptr %value.addr, align 1
  %tobool = trunc i8 %0 to i1
  %formattingStackTrace_ = getelementptr inbounds %"class.hermes::vm::Runtime", ptr %this1, i32 0, i32 111
  %frombool2 = zext i1 %tobool to i8
  store i8 %frombool2, ptr %formattingStackTrace_, align 1
  ret void
}

; Function Attrs: mustprogress nounwind uwtable
define hidden { i32, i64 } @_ZN6hermes2vm7JSError23constructCallSitesArrayERNS0_7RuntimeENS0_6HandleIS1_EE(ptr noundef nonnull align 8 dereferenceable(9832) %runtime, ptr %selfHandle.coerce) #0 align 2 {
entry:
  %retval = alloca %"class.hermes::vm::CallResult.177", align 8
  %selfHandle = alloca %"class.hermes::vm::Handle.10", align 8
  %runtime.addr = alloca ptr, align 8
  %max = alloca i64, align 8
  %arrayRes = alloca %"class.hermes::vm::CallResult.303", align 8
  %array = alloca %"class.hermes::vm::Handle.304", align 8
  %agg.tmp = alloca %"class.hermes::vm::HermesValue", align 8
  %callSiteIndex = alloca i64, align 8
  %gcScope = alloca %"class.hermes::vm::GCScope", align 8
  %marker = alloca %"class.hermes::vm::GCScope::Marker", align 8
  %index = alloca i64, align 8
  %absIndex = alloca i64, align 8
  %callSiteRes = alloca %"class.hermes::vm::CallResult.177", align 8
  %agg.tmp26 = alloca %"class.hermes::vm::Handle.10", align 8
  %cleanup.dest.slot = alloca i32, align 4
  %callSite = alloca %"class.hermes::vm::Handle.0", align 8
  %agg.tmp34 = alloca %"class.hermes::vm::HermesValue", align 8
  %agg.tmp40 = alloca %"class.hermes::vm::Handle.305", align 8
  %agg.tmp42 = alloca %"class.hermes::vm::Handle.0", align 8
  %agg.tmp47 = alloca %"class.hermes::vm::GCScope::Marker", align 8
  %cr = alloca %"class.hermes::vm::CallResult", align 4
  %agg.tmp49 = alloca %"class.hermes::vm::Handle.304", align 8
  %agg.tmp51 = alloca %"union.hermes::vm::PropOpFlags", align 4
  %agg.tmp56 = alloca %"class.hermes::vm::HermesValue", align 8
  %coerce.dive = getelementptr inbounds %"class.hermes::vm::Handle.10", ptr %selfHandle, i32 0, i32 0
  %coerce.dive1 = getelementptr inbounds %"class.hermes::vm::HandleBase", ptr %coerce.dive, i32 0, i32 0
  store ptr %selfHandle.coerce, ptr %coerce.dive1, align 8
  store ptr %runtime, ptr %runtime.addr, align 8
  %call = call noundef ptr @_ZNK6hermes2vm6HandleINS0_7JSErrorEEptEv(ptr noundef nonnull align 8 dereferenceable(8) %selfHandle)
  %stacktrace_ = getelementptr inbounds %"class.hermes::vm::JSError", ptr %call, i32 0, i32 2
  %call2 = call noundef zeroext i1 @_ZNKSt10unique_ptrISt6vectorIN6hermes2vm14StackTraceInfoESaIS3_EESt14default_deleteIS5_EEcvbEv(ptr noundef nonnull align 8 dereferenceable(8) %stacktrace_) #10
  br i1 %call2, label %cond.true, label %cond.false

cond.true:                                        ; preds = %entry
  %call3 = call noundef ptr @_ZNK6hermes2vm6HandleINS0_7JSErrorEEptEv(ptr noundef nonnull align 8 dereferenceable(8) %selfHandle)
  %stacktrace_4 = getelementptr inbounds %"class.hermes::vm::JSError", ptr %call3, i32 0, i32 2
  %call5 = call noundef ptr @_ZNKSt10unique_ptrISt6vectorIN6hermes2vm14StackTraceInfoESaIS3_EESt14default_deleteIS5_EEptEv(ptr noundef nonnull align 8 dereferenceable(8) %stacktrace_4) #10
  %call6 = call noundef i64 @_ZNKSt6vectorIN6hermes2vm14StackTraceInfoESaIS2_EE4sizeEv(ptr noundef nonnull align 8 dereferenceable(24) %call5) #10
  %call7 = call noundef ptr @_ZNK6hermes2vm6HandleINS0_7JSErrorEEptEv(ptr noundef nonnull align 8 dereferenceable(8) %selfHandle)
  %firstExposedFrameIndex_ = getelementptr inbounds %"class.hermes::vm::JSError", ptr %call7, i32 0, i32 3
  %0 = load i64, ptr %firstExposedFrameIndex_, align 8
  %sub = sub i64 %call6, %0
  br label %cond.end

cond.false:                                       ; preds = %entry
  br label %cond.end

cond.end:                                         ; preds = %cond.false, %cond.true
  %cond = phi i64 [ %sub, %cond.true ], [ 0, %cond.false ]
  store i64 %cond, ptr %max, align 8
  %1 = load ptr, ptr %runtime.addr, align 8
  %2 = load i64, ptr %max, align 8
  %conv = trunc i64 %2 to i32
  %call8 = call ptr @_ZN6hermes2vm7JSArray6createERNS0_7RuntimeEjj(ptr noundef nonnull align 8 dereferenceable(9832) %1, i32 noundef %conv, i32 noundef 0)
  %coerce.dive9 = getelementptr inbounds %"class.hermes::vm::CallResult.303", ptr %arrayRes, i32 0, i32 0
  %coerce.dive10 = getelementptr inbounds %"class.hermes::vm::Handle.304", ptr %coerce.dive9, i32 0, i32 0
  %coerce.dive11 = getelementptr inbounds %"class.hermes::vm::HandleBase", ptr %coerce.dive10, i32 0, i32 0
  store ptr %call8, ptr %coerce.dive11, align 8
  %call12 = call noundef zeroext i1 @_ZN6hermes2vmeqINS0_6HandleINS0_7JSArrayEEEEEbRKNS0_10CallResultIT_Xsr6detail23GetCallResultSpecializeIS6_EE5valueEEENS0_15ExecutionStatusE(ptr noundef nonnull align 8 dereferenceable(8) %arrayRes, i32 noundef 0)
  br i1 %call12, label %if.then, label %if.end

if.then:                                          ; preds = %cond.end
  call void @_ZN6hermes2vm10CallResultINS0_11HermesValueELNS0_6detail20CallResultSpecializeE2EEC2ENS0_15ExecutionStatusE(ptr noundef nonnull align 8 dereferenceable(16) %retval, i32 noundef 0)
  br label %return

if.end:                                           ; preds = %cond.end
  %call14 = call noundef nonnull align 8 dereferenceable(8) ptr @_ZN6hermes2vm10CallResultINS0_6HandleINS0_7JSArrayEEELNS0_6detail20CallResultSpecializeE4EEdeEv(ptr noundef nonnull align 8 dereferenceable(8) %arrayRes)
  call void @llvm.memcpy.p0.p0.i64(ptr align 8 %array, ptr align 8 %call14, i64 8, i1 false)
  %call15 = call noundef ptr @_ZNK6hermes2vm6HandleINS0_7JSErrorEEptEv(ptr noundef nonnull align 8 dereferenceable(8) %selfHandle)
  %stacktrace_16 = getelementptr inbounds %"class.hermes::vm::JSError", ptr %call15, i32 0, i32 2
  %call17 = call noundef zeroext i1 @_ZNKSt10unique_ptrISt6vectorIN6hermes2vm14StackTraceInfoESaIS3_EESt14default_deleteIS5_EEcvbEv(ptr noundef nonnull align 8 dereferenceable(8) %stacktrace_16) #10
  br i1 %call17, label %if.end22, label %if.then18

if.then18:                                        ; preds = %if.end
  %call19 = call i64 @_ZNK6hermes2vm10HandleBase14getHermesValueEv(ptr noundef nonnull align 8 dereferenceable(8) %array)
  %coerce.dive20 = getelementptr inbounds %"class.hermes::vm::HermesValue", ptr %agg.tmp, i32 0, i32 0
  store i64 %call19, ptr %coerce.dive20, align 8
  %coerce.dive21 = getelementptr inbounds %"class.hermes::vm::HermesValue", ptr %agg.tmp, i32 0, i32 0
  %3 = load i64, ptr %coerce.dive21, align 8
  call void @_ZN6hermes2vm10CallResultINS0_11HermesValueELNS0_6detail20CallResultSpecializeE2EEC2ES2_(ptr noundef nonnull align 8 dereferenceable(16) %retval, i64 %3)
  br label %return

if.end22:                                         ; preds = %if.end
  store i64 0, ptr %callSiteIndex, align 8
  %4 = load ptr, ptr %runtime.addr, align 8
  call void @_ZN6hermes2vm7GCScopeC2ERNS0_15HandleRootOwnerEPKcj(ptr noundef nonnull align 8 dereferenceable(212) %gcScope, ptr noundef nonnull align 8 dereferenceable(16) %4, ptr noundef null, i32 noundef 48)
  %call23 = call { ptr, i32 } @_ZNK6hermes2vm7GCScope12createMarkerEv(ptr noundef nonnull align 8 dereferenceable(212) %gcScope)
  %5 = getelementptr inbounds { ptr, i32 }, ptr %marker, i32 0, i32 0
  %6 = extractvalue { ptr, i32 } %call23, 0
  store ptr %6, ptr %5, align 8
  %7 = getelementptr inbounds { ptr, i32 }, ptr %marker, i32 0, i32 1
  %8 = extractvalue { ptr, i32 } %call23, 1
  store i32 %8, ptr %7, align 8
  store i64 0, ptr %index, align 8
  br label %for.cond

for.cond:                                         ; preds = %for.inc, %if.end22
  %9 = load i64, ptr %index, align 8
  %10 = load i64, ptr %max, align 8
  %cmp = icmp ult i64 %9, %10
  br i1 %cmp, label %for.body, label %for.end

for.body:                                         ; preds = %for.cond
  %11 = load i64, ptr %index, align 8
  %call24 = call noundef ptr @_ZNK6hermes2vm6HandleINS0_7JSErrorEEptEv(ptr noundef nonnull align 8 dereferenceable(8) %selfHandle)
  %firstExposedFrameIndex_25 = getelementptr inbounds %"class.hermes::vm::JSError", ptr %call24, i32 0, i32 3
  %12 = load i64, ptr %firstExposedFrameIndex_25, align 8
  %add = add i64 %11, %12
  store i64 %add, ptr %absIndex, align 8
  %13 = load ptr, ptr %runtime.addr, align 8
  call void @llvm.memcpy.p0.p0.i64(ptr align 8 %agg.tmp26, ptr align 8 %selfHandle, i64 8, i1 false)
  %14 = load i64, ptr %absIndex, align 8
  %conv27 = trunc i64 %14 to i32
  %coerce.dive28 = getelementptr inbounds %"class.hermes::vm::Handle.10", ptr %agg.tmp26, i32 0, i32 0
  %coerce.dive29 = getelementptr inbounds %"class.hermes::vm::HandleBase", ptr %coerce.dive28, i32 0, i32 0
  %15 = load ptr, ptr %coerce.dive29, align 8
  %call30 = call { i32, i64 } @_ZN6hermes2vm10JSCallSite6createERNS0_7RuntimeENS0_6HandleINS0_7JSErrorEEEj(ptr noundef nonnull align 8 dereferenceable(9832) %13, ptr %15, i32 noundef %conv27)
  %16 = getelementptr inbounds { i32, i64 }, ptr %callSiteRes, i32 0, i32 0
  %17 = extractvalue { i32, i64 } %call30, 0
  store i32 %17, ptr %16, align 8
  %18 = getelementptr inbounds { i32, i64 }, ptr %callSiteRes, i32 0, i32 1
  %19 = extractvalue { i32, i64 } %call30, 1
  store i64 %19, ptr %18, align 8
  %call31 = call noundef zeroext i1 @_ZN6hermes2vmeqINS0_11HermesValueEEEbRKNS0_10CallResultIT_Xsr6detail23GetCallResultSpecializeIS4_EE5valueEEENS0_15ExecutionStatusE(ptr noundef nonnull align 8 dereferenceable(16) %callSiteRes, i32 noundef 0)
  br i1 %call31, label %if.then32, label %if.end33

if.then32:                                        ; preds = %for.body
  call void @_ZN6hermes2vm10CallResultINS0_11HermesValueELNS0_6detail20CallResultSpecializeE2EEC2ENS0_15ExecutionStatusE(ptr noundef nonnull align 8 dereferenceable(16) %retval, i32 noundef 0)
  store i32 1, ptr %cleanup.dest.slot, align 4
  br label %cleanup

if.end33:                                         ; preds = %for.body
  %20 = load ptr, ptr %runtime.addr, align 8
  %call35 = call noundef nonnull align 8 dereferenceable(8) ptr @_ZNK6hermes2vm10CallResultINS0_11HermesValueELNS0_6detail20CallResultSpecializeE2EEdeEv(ptr noundef nonnull align 8 dereferenceable(16) %callSiteRes)
  call void @llvm.memcpy.p0.p0.i64(ptr align 8 %agg.tmp34, ptr align 8 %call35, i64 8, i1 false)
  %coerce.dive36 = getelementptr inbounds %"class.hermes::vm::HermesValue", ptr %agg.tmp34, i32 0, i32 0
  %21 = load i64, ptr %coerce.dive36, align 8
  %call37 = call ptr @_ZN6hermes2vm15HandleRootOwner10makeHandleENS0_11HermesValueE(ptr noundef nonnull align 8 dereferenceable(16) %20, i64 %21)
  %coerce.dive38 = getelementptr inbounds %"class.hermes::vm::Handle.0", ptr %callSite, i32 0, i32 0
  %coerce.dive39 = getelementptr inbounds %"class.hermes::vm::HandleBase", ptr %coerce.dive38, i32 0, i32 0
  store ptr %call37, ptr %coerce.dive39, align 8
  call void @_ZN6hermes2vm6HandleINS0_9ArrayImplEEC2INS0_7JSArrayEvEERKNS1_IT_EE(ptr noundef nonnull align 8 dereferenceable(8) %agg.tmp40, ptr noundef nonnull align 8 dereferenceable(8) %array)
  %22 = load ptr, ptr %runtime.addr, align 8
  %23 = load i64, ptr %callSiteIndex, align 8
  %inc = add i64 %23, 1
  store i64 %inc, ptr %callSiteIndex, align 8
  %conv41 = trunc i64 %23 to i32
  call void @llvm.memcpy.p0.p0.i64(ptr align 8 %agg.tmp42, ptr align 8 %callSite, i64 8, i1 false)
  %coerce.dive43 = getelementptr inbounds %"class.hermes::vm::Handle.305", ptr %agg.tmp40, i32 0, i32 0
  %coerce.dive44 = getelementptr inbounds %"class.hermes::vm::HandleBase", ptr %coerce.dive43, i32 0, i32 0
  %24 = load ptr, ptr %coerce.dive44, align 8
  %coerce.dive45 = getelementptr inbounds %"class.hermes::vm::Handle.0", ptr %agg.tmp42, i32 0, i32 0
  %coerce.dive46 = getelementptr inbounds %"class.hermes::vm::HandleBase", ptr %coerce.dive45, i32 0, i32 0
  %25 = load ptr, ptr %coerce.dive46, align 8
  call void @_ZN6hermes2vm9ArrayImpl12setElementAtENS0_6HandleIS1_EERNS0_7RuntimeEjNS2_INS0_11HermesValueEEE(ptr %24, ptr noundef nonnull align 8 dereferenceable(9832) %22, i32 noundef %conv41, ptr %25)
  call void @llvm.memcpy.p0.p0.i64(ptr align 8 %agg.tmp47, ptr align 8 %marker, i64 16, i1 false)
  %26 = getelementptr inbounds { ptr, i32 }, ptr %agg.tmp47, i32 0, i32 0
  %27 = load ptr, ptr %26, align 8
  %28 = getelementptr inbounds { ptr, i32 }, ptr %agg.tmp47, i32 0, i32 1
  %29 = load i32, ptr %28, align 8
  call void @_ZN6hermes2vm7GCScope13flushToMarkerENS1_6MarkerE(ptr noundef nonnull align 8 dereferenceable(212) %gcScope, ptr %27, i32 %29)
  br label %for.inc

for.inc:                                          ; preds = %if.end33
  %30 = load i64, ptr %index, align 8
  %inc48 = add i64 %30, 1
  store i64 %inc48, ptr %index, align 8
  br label %for.cond, !llvm.loop !4

for.end:                                          ; preds = %for.cond
  call void @llvm.memcpy.p0.p0.i64(ptr align 8 %agg.tmp49, ptr align 8 %array, i64 8, i1 false)
  %31 = load ptr, ptr %runtime.addr, align 8
  %32 = load i64, ptr %callSiteIndex, align 8
  %conv50 = trunc i64 %32 to i32
  call void @llvm.memset.p0.i64(ptr align 4 %agg.tmp51, i8 0, i64 4, i1 false)
  call void @_ZN6hermes2vm11PropOpFlagsC2Ev(ptr noundef nonnull align 4 dereferenceable(4) %agg.tmp51) #10
  %coerce.dive52 = getelementptr inbounds %"class.hermes::vm::Handle.304", ptr %agg.tmp49, i32 0, i32 0
  %coerce.dive53 = getelementptr inbounds %"class.hermes::vm::HandleBase", ptr %coerce.dive52, i32 0, i32 0
  %33 = load ptr, ptr %coerce.dive53, align 8
  %coerce.dive54 = getelementptr inbounds %"union.hermes::vm::PropOpFlags", ptr %agg.tmp51, i32 0, i32 0
  %34 = load i32, ptr %coerce.dive54, align 4
  %call55 = call i32 @_ZN6hermes2vm7JSArray17setLengthPropertyENS0_6HandleIS1_EERNS0_7RuntimeEjNS0_11PropOpFlagsE(ptr %33, ptr noundef nonnull align 8 dereferenceable(9832) %31, i32 noundef %conv50, i32 %34)
  store i32 %call55, ptr %cr, align 4
  %call57 = call i64 @_ZNK6hermes2vm10HandleBase14getHermesValueEv(ptr noundef nonnull align 8 dereferenceable(8) %array)
  %coerce.dive58 = getelementptr inbounds %"class.hermes::vm::HermesValue", ptr %agg.tmp56, i32 0, i32 0
  store i64 %call57, ptr %coerce.dive58, align 8
  %coerce.dive59 = getelementptr inbounds %"class.hermes::vm::HermesValue", ptr %agg.tmp56, i32 0, i32 0
  %35 = load i64, ptr %coerce.dive59, align 8
  call void @_ZN6hermes2vm10CallResultINS0_11HermesValueELNS0_6detail20CallResultSpecializeE2EEC2ES2_(ptr noundef nonnull align 8 dereferenceable(16) %retval, i64 %35)
  store i32 1, ptr %cleanup.dest.slot, align 4
  br label %cleanup

cleanup:                                          ; preds = %for.end, %if.then32
  call void @_ZN6hermes2vm7GCScopeD1Ev(ptr noundef nonnull align 8 dereferenceable(212) %gcScope) #10
  br label %return

return:                                           ; preds = %cleanup, %if.then18, %if.then
  %36 = load { i32, i64 }, ptr %retval, align 8
  ret { i32, i64 } %36
}

; Function Attrs: mustprogress nounwind uwtable
define linkonce_odr hidden noundef zeroext i1 @_ZN6hermes2vmeqINS0_11HermesValueEEEbRKNS0_10CallResultIT_Xsr6detail23GetCallResultSpecializeIS4_EE5valueEEENS0_15ExecutionStatusE(ptr noundef nonnull align 8 dereferenceable(16) %lhs, i32 noundef %rhs) #0 comdat {
entry:
  %lhs.addr = alloca ptr, align 8
  %rhs.addr = alloca i32, align 4
  store ptr %lhs, ptr %lhs.addr, align 8
  store i32 %rhs, ptr %rhs.addr, align 4
  %0 = load ptr, ptr %lhs.addr, align 8
  %call = call noundef i32 @_ZNK6hermes2vm10CallResultINS0_11HermesValueELNS0_6detail20CallResultSpecializeE2EE9getStatusEv(ptr noundef nonnull align 8 dereferenceable(16) %0)
  %1 = load i32, ptr %rhs.addr, align 4
  %cmp = icmp eq i32 %call, %1
  ret i1 %cmp
}

declare { i32, i64 } @_ZN6hermes2vm8Callable12executeCall2ENS0_6HandleIS1_EERNS0_7RuntimeENS2_INS0_11HermesValueEEES6_S6_b(ptr, ptr noundef nonnull align 8 dereferenceable(9832), ptr, i64, i64, i1 noundef zeroext) #1

; Function Attrs: mustprogress nounwind uwtable
define linkonce_odr hidden ptr @_ZN6hermes2vm15HandleRootOwner12getNullValueEv() #0 comdat align 2 {
entry:
  %retval = alloca %"class.hermes::vm::Handle.0", align 8
  call void @_ZN6hermes2vm6HandleINS0_11HermesValueEEC2EPKNS0_17PinnedHermesValueE(ptr noundef nonnull align 8 dereferenceable(8) %retval, ptr noundef @_ZN6hermes2vm15HandleRootOwner10nullValue_E)
  %coerce.dive = getelementptr inbounds %"class.hermes::vm::Handle.0", ptr %retval, i32 0, i32 0
  %coerce.dive1 = getelementptr inbounds %"class.hermes::vm::HandleBase", ptr %coerce.dive, i32 0, i32 0
  %0 = load ptr, ptr %coerce.dive1, align 8
  ret ptr %0
}

; Function Attrs: mustprogress nounwind uwtable
define linkonce_odr hidden i64 @_ZNK6hermes2vm10HandleBase14getHermesValueEv(ptr noundef nonnull align 8 dereferenceable(8) %this) #0 comdat align 2 {
entry:
  %retval = alloca %"class.hermes::vm::HermesValue", align 8
  %this.addr = alloca ptr, align 8
  store ptr %this, ptr %this.addr, align 8
  %this1 = load ptr, ptr %this.addr, align 8
  %call = call noundef ptr @_ZNK6hermes2vm10HandleBase9handleRefEv(ptr noundef nonnull align 8 dereferenceable(8) %this1)
  call void @llvm.memcpy.p0.p0.i64(ptr align 8 %retval, ptr align 8 %call, i64 8, i1 false)
  %coerce.dive = getelementptr inbounds %"class.hermes::vm::HermesValue", ptr %retval, i32 0, i32 0
  %0 = load i64, ptr %coerce.dive, align 8
  ret i64 %0
}

; Function Attrs: mustprogress nounwind uwtable
define linkonce_odr hidden noundef nonnull align 8 dereferenceable(8) ptr @_ZNK6hermes2vm10CallResultINS0_11HermesValueELNS0_6detail20CallResultSpecializeE2EEdeEv(ptr noundef nonnull align 8 dereferenceable(16) %this) #0 comdat align 2 {
entry:
  %this.addr = alloca ptr, align 8
  store ptr %this, ptr %this.addr, align 8
  %this1 = load ptr, ptr %this.addr, align 8
  %call = call noundef nonnull align 8 dereferenceable(8) ptr @_ZNK6hermes2vm10CallResultINS0_11HermesValueELNS0_6detail20CallResultSpecializeE2EE8getValueEv(ptr noundef nonnull align 8 dereferenceable(16) %this1)
  ret ptr %call
}

; Function Attrs: mustprogress nounwind uwtable
define linkonce_odr hidden noundef nonnull align 8 dereferenceable(8) ptr @_ZN6hermes2vm13MutableHandleINS0_11HermesValueEEaSEONS0_12PseudoHandleIS2_EE(ptr noundef nonnull align 8 dereferenceable(8) %this, ptr noundef nonnull align 8 dereferenceable(8) %other) #0 comdat align 2 {
entry:
  %this.addr = alloca ptr, align 8
  %other.addr = alloca ptr, align 8
  %agg.tmp = alloca %"class.hermes::vm::HermesValue", align 8
  store ptr %this, ptr %this.addr, align 8
  store ptr %other, ptr %other.addr, align 8
  %this1 = load ptr, ptr %this.addr, align 8
  %0 = load ptr, ptr %other.addr, align 8
  %call = call i64 @_ZNK6hermes2vm12PseudoHandleINS0_11HermesValueEE3getEv(ptr noundef nonnull align 8 dereferenceable(8) %0)
  %coerce.dive = getelementptr inbounds %"class.hermes::vm::HermesValue", ptr %agg.tmp, i32 0, i32 0
  store i64 %call, ptr %coerce.dive, align 8
  %coerce.dive2 = getelementptr inbounds %"class.hermes::vm::HermesValue", ptr %agg.tmp, i32 0, i32 0
  %1 = load i64, ptr %coerce.dive2, align 8
  call void @_ZN6hermes2vm13MutableHandleINS0_11HermesValueEE3setES2_(ptr noundef nonnull align 8 dereferenceable(8) %this1, i64 %1)
  %2 = load ptr, ptr %other.addr, align 8
  call void @_ZN6hermes2vm12PseudoHandleINS0_11HermesValueEE10invalidateEv(ptr noundef nonnull align 8 dereferenceable(8) %2)
  ret ptr %this1
}

; Function Attrs: mustprogress nounwind uwtable
define internal void @"_ZN4llvh6detail10scope_exitIZN6hermes2vm16errorStackGetterEPvRNS3_7RuntimeENS3_10NativeArgsEE3$_0ED2Ev"(ptr noundef nonnull align 8 dereferenceable(9) %this) unnamed_addr #0 align 2 {
entry:
  %this.addr = alloca ptr, align 8
  store ptr %this, ptr %this.addr, align 8
  %this1 = load ptr, ptr %this.addr, align 8
  %Engaged = getelementptr inbounds %"class.llvh::detail::scope_exit", ptr %this1, i32 0, i32 1
  %0 = load i8, ptr %Engaged, align 8
  %tobool = trunc i8 %0 to i1
  br i1 %tobool, label %if.then, label %if.end

if.then:                                          ; preds = %entry
  %ExitFunction = getelementptr inbounds %"class.llvh::detail::scope_exit", ptr %this1, i32 0, i32 0
  call void @"_ZZN6hermes2vm16errorStackGetterEPvRNS0_7RuntimeENS0_10NativeArgsEENK3$_0clEv"(ptr noundef nonnull align 8 dereferenceable(8) %ExitFunction)
  br label %if.end

if.end:                                           ; preds = %if.then, %entry
  ret void
}

; Function Attrs: mustprogress nounwind uwtable
define hidden noundef i32 @_ZN6hermes2vm7JSError29constructStackTraceString_RJSERNS0_7RuntimeENS0_6HandleIS1_EENS4_INS0_8JSObjectEEERNS0_12SmallXStringIDsLj32EEE(ptr noundef nonnull align 8 dereferenceable(9832) %runtime, ptr %selfHandle.coerce, ptr %targetHandle.coerce, ptr noundef nonnull align 8 dereferenceable(80) %stack) #0 align 2 {
entry:
  %this.addr.i221 = alloca ptr, align 8
  %this.addr.i216 = alloca ptr, align 8
  %Str.addr.i217 = alloca ptr, align 8
  %this.addr.i206 = alloca ptr, align 8
  %Str.addr.i207 = alloca ptr, align 8
  %this.addr.i196 = alloca ptr, align 8
  %Str.addr.i197 = alloca ptr, align 8
  %this.addr.i186 = alloca ptr, align 8
  %Str.addr.i187 = alloca ptr, align 8
  %this.addr.i176 = alloca ptr, align 8
  %Str.addr.i177 = alloca ptr, align 8
  %this.addr.i166 = alloca ptr, align 8
  %Str.addr.i167 = alloca ptr, align 8
  %this.addr.i = alloca ptr, align 8
  %Str.addr.i = alloca ptr, align 8
  %retval = alloca i32, align 4
  %selfHandle = alloca %"class.hermes::vm::Handle.10", align 8
  %targetHandle = alloca %"class.hermes::vm::Handle", align 8
  %runtime.addr = alloca ptr, align 8
  %stack.addr = alloca ptr, align 8
  %depthTracker = alloca %"class.hermes::vm::ScopedNativeDepthTracker", align 8
  %cleanup.dest.slot = alloca i32, align 4
  %gcScope = alloca %"class.hermes::vm::GCScope", align 8
  %res = alloca %"class.hermes::vm::CallResult.202", align 8
  %agg.tmp = alloca %"class.hermes::vm::Handle", align 8
  %targetHandleToStringThrew = alloca i8, align 1
  %agg.tmp14 = alloca %"class.hermes::vm::HermesValue", align 8
  %thrownValue = alloca %"class.hermes::vm::HermesValue", align 8
  %ref.tmp = alloca %"class.hermes::vm::CallResult.202", align 8
  %agg.tmp24 = alloca %"class.hermes::vm::Handle", align 8
  %agg.tmp25 = alloca %"class.hermes::vm::HermesValue", align 8
  %agg.tmp41 = alloca %"class.hermes::vm::HermesValue", align 8
  %virtualOffsetCache = alloca %"class.llvh::DenseMap.293", align 8
  %marker = alloca %"class.hermes::vm::GCScope::Marker", align 8
  %index = alloca i64, align 8
  %max = alloca i64, align 8
  %buf = alloca [32 x i8], align 16
  %agg.tmp68 = alloca %"class.llvh::StringRef", align 8
  %agg.tmp73 = alloca %"class.llvh::StringRef", align 8
  %agg.tmp76 = alloca %"class.llvh::StringRef", align 8
  %absIndex = alloca i64, align 8
  %sti = alloca ptr, align 8
  %agg.tmp92 = alloca %"class.hermes::vm::GCScope::Marker", align 8
  %agg.tmp94 = alloca %"class.hermes::vm::Handle.10", align 8
  %lineNo = alloca i32, align 4
  %columnNo = alloca i32, align 4
  %fileName = alloca %"class.hermes::OptValue.296", align 4
  %isAddress = alloca i8, align 1
  %location = alloca %"class.hermes::OptValue.220", align 4
  %pair = alloca %"struct.std::pair.298", align 8
  %ref.tmp111 = alloca %"struct.std::pair.300", align 8
  %ref.tmp113 = alloca i32, align 4
  %virtualOffset = alloca ptr, align 8
  %runtimeModule = alloca ptr, align 8
  %agg.tmp138 = alloca %"class.llvh::StringRef", align 8
  %ref.tmp139 = alloca %"class.std::__cxx11::basic_string", align 8
  %sourceURL = alloca %"class.llvh::StringRef", align 8
  %agg.tmp146 = alloca %"class.llvh::StringRef", align 8
  %ref.tmp150 = alloca i16, align 2
  %agg.tmp154 = alloca %"class.llvh::StringRef", align 8
  %ref.tmp157 = alloca i16, align 2
  %agg.tmp161 = alloca %"class.llvh::StringRef", align 8
  %ref.tmp164 = alloca i16, align 2
  %coerce.dive = getelementptr inbounds %"class.hermes::vm::Handle.10", ptr %selfHandle, i32 0, i32 0
  %coerce.dive1 = getelementptr inbounds %"class.hermes::vm::HandleBase", ptr %coerce.dive, i32 0, i32 0
  store ptr %selfHandle.coerce, ptr %coerce.dive1, align 8
  %coerce.dive2 = getelementptr inbounds %"class.hermes::vm::Handle", ptr %targetHandle, i32 0, i32 0
  %coerce.dive3 = getelementptr inbounds %"class.hermes::vm::HandleBase", ptr %coerce.dive2, i32 0, i32 0
  store ptr %targetHandle.coerce, ptr %coerce.dive3, align 8
  store ptr %runtime, ptr %runtime.addr, align 8
  store ptr %stack, ptr %stack.addr, align 8
  %0 = load ptr, ptr %runtime.addr, align 8
  call void @_ZN6hermes2vm24ScopedNativeDepthTrackerC2ERNS0_7RuntimeE(ptr noundef nonnull align 8 dereferenceable(9) %depthTracker, ptr noundef nonnull align 8 dereferenceable(9832) %0)
  %call = call noundef zeroext i1 @_ZNK6hermes2vm24ScopedNativeDepthTracker10overflowedEv(ptr noundef nonnull align 8 dereferenceable(9) %depthTracker)
  br i1 %call, label %if.then, label %if.end

if.then:                                          ; preds = %entry
  %1 = load ptr, ptr %runtime.addr, align 8
  %call4 = call noundef i32 @_ZN6hermes2vm7Runtime18raiseStackOverflowENS1_17StackOverflowKindE(ptr noundef nonnull align 8 dereferenceable(9832) %1, i32 noundef 1)
  store i32 %call4, ptr %retval, align 4
  store i32 1, ptr %cleanup.dest.slot, align 4
  br label %cleanup165

if.end:                                           ; preds = %entry
  %2 = load ptr, ptr %runtime.addr, align 8
  call void @_ZN6hermes2vm7GCScopeC2ERNS0_15HandleRootOwnerEPKcj(ptr noundef nonnull align 8 dereferenceable(212) %gcScope, ptr noundef nonnull align 8 dereferenceable(16) %2, ptr noundef null, i32 noundef 48)
  call void @llvm.memcpy.p0.p0.i64(ptr align 8 %agg.tmp, ptr align 8 %targetHandle, i64 8, i1 false)
  %3 = load ptr, ptr %runtime.addr, align 8
  %coerce.dive5 = getelementptr inbounds %"class.hermes::vm::Handle", ptr %agg.tmp, i32 0, i32 0
  %coerce.dive6 = getelementptr inbounds %"class.hermes::vm::HandleBase", ptr %coerce.dive5, i32 0, i32 0
  %4 = load ptr, ptr %coerce.dive6, align 8
  %call7 = call ptr @_ZN6hermes2vm7JSError8toStringENS0_6HandleINS0_8JSObjectEEERNS0_7RuntimeE(ptr %4, ptr noundef nonnull align 8 dereferenceable(9832) %3)
  %coerce.dive8 = getelementptr inbounds %"class.hermes::vm::CallResult.202", ptr %res, i32 0, i32 0
  %coerce.dive9 = getelementptr inbounds %"class.hermes::vm::Handle.203", ptr %coerce.dive8, i32 0, i32 0
  %coerce.dive10 = getelementptr inbounds %"class.hermes::vm::HandleBase", ptr %coerce.dive9, i32 0, i32 0
  store ptr %call7, ptr %coerce.dive10, align 8
  %call11 = call noundef zeroext i1 @_ZN6hermes2vmeqINS0_6HandleINS0_15StringPrimitiveEEEEEbRKNS0_10CallResultIT_Xsr6detail23GetCallResultSpecializeIS6_EE5valueEEENS0_15ExecutionStatusE(ptr noundef nonnull align 8 dereferenceable(8) %res, i32 noundef 0)
  %frombool = zext i1 %call11 to i8
  store i8 %frombool, ptr %targetHandleToStringThrew, align 1
  %call12 = call noundef zeroext i1 @_ZN6hermes2vmeqINS0_6HandleINS0_15StringPrimitiveEEEEEbRKNS0_10CallResultIT_Xsr6detail23GetCallResultSpecializeIS6_EE5valueEEENS0_15ExecutionStatusE(ptr noundef nonnull align 8 dereferenceable(8) %res, i32 noundef 0)
  br i1 %call12, label %if.then13, label %if.end38

if.then13:                                        ; preds = %if.end
  %5 = load ptr, ptr %runtime.addr, align 8
  %call15 = call i64 @_ZNK6hermes2vm7Runtime14getThrownValueEv(ptr noundef nonnull align 8 dereferenceable(9832) %5)
  %coerce.dive16 = getelementptr inbounds %"class.hermes::vm::HermesValue", ptr %agg.tmp14, i32 0, i32 0
  store i64 %call15, ptr %coerce.dive16, align 8
  %coerce.dive17 = getelementptr inbounds %"class.hermes::vm::HermesValue", ptr %agg.tmp14, i32 0, i32 0
  %6 = load i64, ptr %coerce.dive17, align 8
  %call18 = call noundef zeroext i1 @_ZN6hermes2vm18isUncatchableErrorENS0_11HermesValueE(i64 %6)
  br i1 %call18, label %if.end37, label %if.then19

if.then19:                                        ; preds = %if.then13
  %7 = load ptr, ptr %runtime.addr, align 8
  %call20 = call i64 @_ZNK6hermes2vm7Runtime14getThrownValueEv(ptr noundef nonnull align 8 dereferenceable(9832) %7)
  %coerce.dive21 = getelementptr inbounds %"class.hermes::vm::HermesValue", ptr %thrownValue, i32 0, i32 0
  store i64 %call20, ptr %coerce.dive21, align 8
  %call22 = call noundef zeroext i1 @_ZNK6hermes2vm11HermesValue8isObjectEv(ptr noundef nonnull align 8 dereferenceable(8) %thrownValue)
  br i1 %call22, label %if.then23, label %if.end36

if.then23:                                        ; preds = %if.then19
  %8 = load ptr, ptr %runtime.addr, align 8
  call void @_ZN6hermes2vm7Runtime16clearThrownValueEv(ptr noundef nonnull align 8 dereferenceable(9832) %8)
  %9 = load ptr, ptr %runtime.addr, align 8
  call void @llvm.memcpy.p0.p0.i64(ptr align 8 %agg.tmp25, ptr align 8 %thrownValue, i64 8, i1 false)
  %coerce.dive26 = getelementptr inbounds %"class.hermes::vm::HermesValue", ptr %agg.tmp25, i32 0, i32 0
  %10 = load i64, ptr %coerce.dive26, align 8
  %call27 = call ptr @_ZN6hermes2vm15HandleRootOwner10makeHandleINS0_8JSObjectEEENS0_6HandleIT_EENS0_11HermesValueE(ptr noundef nonnull align 8 dereferenceable(16) %9, i64 %10)
  %coerce.dive28 = getelementptr inbounds %"class.hermes::vm::Handle", ptr %agg.tmp24, i32 0, i32 0
  %coerce.dive29 = getelementptr inbounds %"class.hermes::vm::HandleBase", ptr %coerce.dive28, i32 0, i32 0
  store ptr %call27, ptr %coerce.dive29, align 8
  %11 = load ptr, ptr %runtime.addr, align 8
  %coerce.dive30 = getelementptr inbounds %"class.hermes::vm::Handle", ptr %agg.tmp24, i32 0, i32 0
  %coerce.dive31 = getelementptr inbounds %"class.hermes::vm::HandleBase", ptr %coerce.dive30, i32 0, i32 0
  %12 = load ptr, ptr %coerce.dive31, align 8
  %call32 = call ptr @_ZN6hermes2vm7JSError8toStringENS0_6HandleINS0_8JSObjectEEERNS0_7RuntimeE(ptr %12, ptr noundef nonnull align 8 dereferenceable(9832) %11)
  %coerce.dive33 = getelementptr inbounds %"class.hermes::vm::CallResult.202", ptr %ref.tmp, i32 0, i32 0
  %coerce.dive34 = getelementptr inbounds %"class.hermes::vm::Handle.203", ptr %coerce.dive33, i32 0, i32 0
  %coerce.dive35 = getelementptr inbounds %"class.hermes::vm::HandleBase", ptr %coerce.dive34, i32 0, i32 0
  store ptr %call32, ptr %coerce.dive35, align 8
  call void @llvm.memcpy.p0.p0.i64(ptr align 8 %res, ptr align 8 %ref.tmp, i64 8, i1 false)
  br label %if.end36

if.end36:                                         ; preds = %if.then23, %if.then19
  br label %if.end37

if.end37:                                         ; preds = %if.end36, %if.then13
  br label %if.end38

if.end38:                                         ; preds = %if.end37, %if.end
  %call39 = call noundef zeroext i1 @_ZN6hermes2vmeqINS0_6HandleINS0_15StringPrimitiveEEEEEbRKNS0_10CallResultIT_Xsr6detail23GetCallResultSpecializeIS6_EE5valueEEENS0_15ExecutionStatusE(ptr noundef nonnull align 8 dereferenceable(8) %res, i32 noundef 0)
  br i1 %call39, label %if.then40, label %if.else

if.then40:                                        ; preds = %if.end38
  %13 = load ptr, ptr %runtime.addr, align 8
  %call42 = call i64 @_ZNK6hermes2vm7Runtime14getThrownValueEv(ptr noundef nonnull align 8 dereferenceable(9832) %13)
  %coerce.dive43 = getelementptr inbounds %"class.hermes::vm::HermesValue", ptr %agg.tmp41, i32 0, i32 0
  store i64 %call42, ptr %coerce.dive43, align 8
  %coerce.dive44 = getelementptr inbounds %"class.hermes::vm::HermesValue", ptr %agg.tmp41, i32 0, i32 0
  %14 = load i64, ptr %coerce.dive44, align 8
  %call45 = call noundef zeroext i1 @_ZN6hermes2vm18isUncatchableErrorENS0_11HermesValueE(i64 %14)
  br i1 %call45, label %if.then46, label %if.end47

if.then46:                                        ; preds = %if.then40
  store i32 0, ptr %retval, align 4
  store i32 1, ptr %cleanup.dest.slot, align 4
  br label %cleanup

if.end47:                                         ; preds = %if.then40
  %15 = load ptr, ptr %runtime.addr, align 8
  call void @_ZN6hermes2vm7Runtime16clearThrownValueEv(ptr noundef nonnull align 8 dereferenceable(9832) %15)
  %16 = load ptr, ptr %stack.addr, align 8
  %call48 = call noundef nonnull align 8 dereferenceable(80) ptr @_ZN6hermes2vm12SmallXStringIDsLj32EE6appendEPKDs(ptr noundef nonnull align 8 dereferenceable(80) %16, ptr noundef @.str.4)
  br label %if.end58

if.else:                                          ; preds = %if.end38
  %17 = load i8, ptr %targetHandleToStringThrew, align 1
  %tobool = trunc i8 %17 to i1
  br i1 %tobool, label %if.then49, label %if.end51

if.then49:                                        ; preds = %if.else
  %18 = load ptr, ptr %stack.addr, align 8
  %call50 = call noundef nonnull align 8 dereferenceable(80) ptr @_ZN6hermes2vm12SmallXStringIDsLj32EE6appendEPKDs(ptr noundef nonnull align 8 dereferenceable(80) %18, ptr noundef @.str.5)
  br label %if.end51

if.end51:                                         ; preds = %if.then49, %if.else
  %call52 = call noundef ptr @_ZN6hermes2vm10CallResultINS0_6HandleINS0_15StringPrimitiveEEELNS0_6detail20CallResultSpecializeE4EEptEv(ptr noundef nonnull align 8 dereferenceable(8) %res)
  %call53 = call noundef ptr @_ZNK6hermes2vm6HandleINS0_15StringPrimitiveEE3getEv(ptr noundef nonnull align 8 dereferenceable(8) %call52)
  %19 = load ptr, ptr %stack.addr, align 8
  call void @_ZNK6hermes2vm15StringPrimitive17appendUTF16StringERN4llvh15SmallVectorImplIDsEE(ptr noundef nonnull align 4 dereferenceable(8) %call53, ptr noundef nonnull align 8 dereferenceable(16) %19)
  %20 = load i8, ptr %targetHandleToStringThrew, align 1
  %tobool54 = trunc i8 %20 to i1
  br i1 %tobool54, label %if.then55, label %if.end57

if.then55:                                        ; preds = %if.end51
  %21 = load ptr, ptr %stack.addr, align 8
  %call56 = call noundef nonnull align 8 dereferenceable(80) ptr @_ZN6hermes2vm12SmallXStringIDsLj32EE6appendEPKDs(ptr noundef nonnull align 8 dereferenceable(80) %21, ptr noundef @.str.6)
  br label %if.end57

if.end57:                                         ; preds = %if.then55, %if.end51
  br label %if.end58

if.end58:                                         ; preds = %if.end57, %if.end47
  call void @_ZN4llvh8DenseMapIPKN6hermes2vm9CodeBlockEjNS_12DenseMapInfoIS5_EENS_6detail12DenseMapPairIS5_jEEEC2Ej(ptr noundef nonnull align 8 dereferenceable(20) %virtualOffsetCache, i32 noundef 0)
  %call59 = call { ptr, i32 } @_ZNK6hermes2vm7GCScope12createMarkerEv(ptr noundef nonnull align 8 dereferenceable(212) %gcScope)
  %22 = getelementptr inbounds { ptr, i32 }, ptr %marker, i32 0, i32 0
  %23 = extractvalue { ptr, i32 } %call59, 0
  store ptr %23, ptr %22, align 8
  %24 = getelementptr inbounds { ptr, i32 }, ptr %marker, i32 0, i32 1
  %25 = extractvalue { ptr, i32 } %call59, 1
  store i32 %25, ptr %24, align 8
  store i64 0, ptr %index, align 8
  %call60 = call noundef ptr @_ZNK6hermes2vm6HandleINS0_7JSErrorEEptEv(ptr noundef nonnull align 8 dereferenceable(8) %selfHandle)
  %stacktrace_ = getelementptr inbounds %"class.hermes::vm::JSError", ptr %call60, i32 0, i32 2
  %call61 = call noundef ptr @_ZNKSt10unique_ptrISt6vectorIN6hermes2vm14StackTraceInfoESaIS3_EESt14default_deleteIS5_EEptEv(ptr noundef nonnull align 8 dereferenceable(8) %stacktrace_) #10
  %call62 = call noundef i64 @_ZNKSt6vectorIN6hermes2vm14StackTraceInfoESaIS2_EE4sizeEv(ptr noundef nonnull align 8 dereferenceable(24) %call61) #10
  %call63 = call noundef ptr @_ZNK6hermes2vm6HandleINS0_7JSErrorEEptEv(ptr noundef nonnull align 8 dereferenceable(8) %selfHandle)
  %firstExposedFrameIndex_ = getelementptr inbounds %"class.hermes::vm::JSError", ptr %call63, i32 0, i32 3
  %26 = load i64, ptr %firstExposedFrameIndex_, align 8
  %sub = sub i64 %call62, %26
  store i64 %sub, ptr %max, align 8
  br label %for.cond

for.cond:                                         ; preds = %for.inc, %if.end58
  %27 = load i64, ptr %index, align 8
  %28 = load i64, ptr %max, align 8
  %cmp = icmp ult i64 %27, %28
  br i1 %cmp, label %for.body, label %for.end

for.body:                                         ; preds = %for.cond
  %29 = load i64, ptr %max, align 8
  %cmp64 = icmp ugt i64 %29, 100
  br i1 %cmp64, label %if.then65, label %if.end85

if.then65:                                        ; preds = %for.body
  %30 = load i64, ptr %index, align 8
  %cmp66 = icmp eq i64 %30, 50
  br i1 %cmp66, label %if.then67, label %if.end78

if.then67:                                        ; preds = %if.then65
  %31 = load ptr, ptr %stack.addr, align 8
  store ptr %agg.tmp68, ptr %this.addr.i, align 8
  store ptr @.str.7, ptr %Str.addr.i, align 8
  %this1.i = load ptr, ptr %this.addr.i, align 8
  %32 = load ptr, ptr %Str.addr.i, align 8
  store ptr %32, ptr %this1.i, align 8
  %Length.i = getelementptr inbounds %"class.llvh::StringRef", ptr %this1.i, i32 0, i32 1
  %33 = load ptr, ptr %Str.addr.i, align 8
  %tobool.i = icmp ne ptr %33, null
  br i1 %tobool.i, label %cond.true.i, label %cond.false.i

cond.true.i:                                      ; preds = %if.then67
  %34 = load ptr, ptr %Str.addr.i, align 8
  %call.i = call i64 @strlen(ptr noundef %34) #11
  br label %_ZN4llvh9StringRefC2EPKc.exit

cond.false.i:                                     ; preds = %if.then67
  br label %_ZN4llvh9StringRefC2EPKc.exit

_ZN4llvh9StringRefC2EPKc.exit:                    ; preds = %cond.false.i, %cond.true.i
  %cond.i = phi i64 [ %call.i, %cond.true.i ], [ 0, %cond.false.i ]
  store i64 %cond.i, ptr %Length.i, align 8
  %35 = getelementptr inbounds { ptr, i64 }, ptr %agg.tmp68, i32 0, i32 0
  %36 = load ptr, ptr %35, align 8
  %37 = getelementptr inbounds { ptr, i64 }, ptr %agg.tmp68, i32 0, i32 1
  %38 = load i64, ptr %37, align 8
  %call69 = call noundef nonnull align 8 dereferenceable(80) ptr @_ZN6hermes2vm12SmallXStringIDsLj32EE6appendEN4llvh9StringRefE(ptr noundef nonnull align 8 dereferenceable(80) %31, ptr %36, i64 %38)
  %39 = load i64, ptr %max, align 8
  %sub70 = sub i64 %39, 50
  %sub71 = sub i64 %sub70, 50
  %conv = uitofp i64 %sub71 to double
  %arraydecay = getelementptr inbounds [32 x i8], ptr %buf, i64 0, i64 0
  %call72 = call noundef i64 @_ZN6hermes14numberToStringEdPcm(double noundef %conv, ptr noundef %arraydecay, i64 noundef 32)
  %40 = load ptr, ptr %stack.addr, align 8
  %arraydecay74 = getelementptr inbounds [32 x i8], ptr %buf, i64 0, i64 0
  store ptr %agg.tmp73, ptr %this.addr.i166, align 8
  store ptr %arraydecay74, ptr %Str.addr.i167, align 8
  %this1.i168 = load ptr, ptr %this.addr.i166, align 8
  %41 = load ptr, ptr %Str.addr.i167, align 8
  store ptr %41, ptr %this1.i168, align 8
  %Length.i169 = getelementptr inbounds %"class.llvh::StringRef", ptr %this1.i168, i32 0, i32 1
  %42 = load ptr, ptr %Str.addr.i167, align 8
  %tobool.i170 = icmp ne ptr %42, null
  br i1 %tobool.i170, label %cond.true.i173, label %cond.false.i171

cond.true.i173:                                   ; preds = %_ZN4llvh9StringRefC2EPKc.exit
  %43 = load ptr, ptr %Str.addr.i167, align 8
  %call.i174 = call i64 @strlen(ptr noundef %43) #11
  br label %_ZN4llvh9StringRefC2EPKc.exit175

cond.false.i171:                                  ; preds = %_ZN4llvh9StringRefC2EPKc.exit
  br label %_ZN4llvh9StringRefC2EPKc.exit175

_ZN4llvh9StringRefC2EPKc.exit175:                 ; preds = %cond.false.i171, %cond.true.i173
  %cond.i172 = phi i64 [ %call.i174, %cond.true.i173 ], [ 0, %cond.false.i171 ]
  store i64 %cond.i172, ptr %Length.i169, align 8
  %44 = getelementptr inbounds { ptr, i64 }, ptr %agg.tmp73, i32 0, i32 0
  %45 = load ptr, ptr %44, align 8
  %46 = getelementptr inbounds { ptr, i64 }, ptr %agg.tmp73, i32 0, i32 1
  %47 = load i64, ptr %46, align 8
  %call75 = call noundef nonnull align 8 dereferenceable(80) ptr @_ZN6hermes2vm12SmallXStringIDsLj32EE6appendEN4llvh9StringRefE(ptr noundef nonnull align 8 dereferenceable(80) %40, ptr %45, i64 %47)
  %48 = load ptr, ptr %stack.addr, align 8
  store ptr %agg.tmp76, ptr %this.addr.i176, align 8
  store ptr @.str.8, ptr %Str.addr.i177, align 8
  %this1.i178 = load ptr, ptr %this.addr.i176, align 8
  %49 = load ptr, ptr %Str.addr.i177, align 8
  store ptr %49, ptr %this1.i178, align 8
  %Length.i179 = getelementptr inbounds %"class.llvh::StringRef", ptr %this1.i178, i32 0, i32 1
  %50 = load ptr, ptr %Str.addr.i177, align 8
  %tobool.i180 = icmp ne ptr %50, null
  br i1 %tobool.i180, label %cond.true.i183, label %cond.false.i181

cond.true.i183:                                   ; preds = %_ZN4llvh9StringRefC2EPKc.exit175
  %51 = load ptr, ptr %Str.addr.i177, align 8
  %call.i184 = call i64 @strlen(ptr noundef %51) #11
  br label %_ZN4llvh9StringRefC2EPKc.exit185

cond.false.i181:                                  ; preds = %_ZN4llvh9StringRefC2EPKc.exit175
  br label %_ZN4llvh9StringRefC2EPKc.exit185

_ZN4llvh9StringRefC2EPKc.exit185:                 ; preds = %cond.false.i181, %cond.true.i183
  %cond.i182 = phi i64 [ %call.i184, %cond.true.i183 ], [ 0, %cond.false.i181 ]
  store i64 %cond.i182, ptr %Length.i179, align 8
  %52 = getelementptr inbounds { ptr, i64 }, ptr %agg.tmp76, i32 0, i32 0
  %53 = load ptr, ptr %52, align 8
  %54 = getelementptr inbounds { ptr, i64 }, ptr %agg.tmp76, i32 0, i32 1
  %55 = load i64, ptr %54, align 8
  %call77 = call noundef nonnull align 8 dereferenceable(80) ptr @_ZN6hermes2vm12SmallXStringIDsLj32EE6appendEN4llvh9StringRefE(ptr noundef nonnull align 8 dereferenceable(80) %48, ptr %53, i64 %55)
  br label %for.inc

if.end78:                                         ; preds = %if.then65
  %56 = load i64, ptr %index, align 8
  %cmp79 = icmp ugt i64 %56, 50
  br i1 %cmp79, label %land.lhs.true, label %if.end84

land.lhs.true:                                    ; preds = %if.end78
  %57 = load i64, ptr %index, align 8
  %58 = load i64, ptr %max, align 8
  %sub80 = sub i64 %58, 50
  %cmp81 = icmp ult i64 %57, %sub80
  br i1 %cmp81, label %if.then82, label %if.end84

if.then82:                                        ; preds = %land.lhs.true
  %59 = load i64, ptr %max, align 8
  %sub83 = sub i64 %59, 50
  store i64 %sub83, ptr %index, align 8
  br label %if.end84

if.end84:                                         ; preds = %if.then82, %land.lhs.true, %if.end78
  br label %if.end85

if.end85:                                         ; preds = %if.end84, %for.body
  %60 = load i64, ptr %index, align 8
  %call86 = call noundef ptr @_ZNK6hermes2vm6HandleINS0_7JSErrorEEptEv(ptr noundef nonnull align 8 dereferenceable(8) %selfHandle)
  %firstExposedFrameIndex_87 = getelementptr inbounds %"class.hermes::vm::JSError", ptr %call86, i32 0, i32 3
  %61 = load i64, ptr %firstExposedFrameIndex_87, align 8
  %add = add i64 %60, %61
  store i64 %add, ptr %absIndex, align 8
  %call88 = call noundef ptr @_ZNK6hermes2vm6HandleINS0_7JSErrorEEptEv(ptr noundef nonnull align 8 dereferenceable(8) %selfHandle)
  %stacktrace_89 = getelementptr inbounds %"class.hermes::vm::JSError", ptr %call88, i32 0, i32 2
  %call90 = call noundef ptr @_ZNKSt10unique_ptrISt6vectorIN6hermes2vm14StackTraceInfoESaIS3_EESt14default_deleteIS5_EEptEv(ptr noundef nonnull align 8 dereferenceable(8) %stacktrace_89) #10
  %62 = load i64, ptr %absIndex, align 8
  %call91 = call noundef nonnull align 8 dereferenceable(12) ptr @_ZNSt6vectorIN6hermes2vm14StackTraceInfoESaIS2_EE2atEm(ptr noundef nonnull align 8 dereferenceable(24) %call90, i64 noundef %62)
  store ptr %call91, ptr %sti, align 8
  call void @llvm.memcpy.p0.p0.i64(ptr align 8 %agg.tmp92, ptr align 8 %marker, i64 16, i1 false)
  %63 = getelementptr inbounds { ptr, i32 }, ptr %agg.tmp92, i32 0, i32 0
  %64 = load ptr, ptr %63, align 8
  %65 = getelementptr inbounds { ptr, i32 }, ptr %agg.tmp92, i32 0, i32 1
  %66 = load i32, ptr %65, align 8
  call void @_ZN6hermes2vm7GCScope13flushToMarkerENS1_6MarkerE(ptr noundef nonnull align 8 dereferenceable(212) %gcScope, ptr %64, i32 %66)
  %67 = load ptr, ptr %stack.addr, align 8
  %call93 = call noundef nonnull align 8 dereferenceable(80) ptr @_ZN6hermes2vm12SmallXStringIDsLj32EE6appendEPKDs(ptr noundef nonnull align 8 dereferenceable(80) %67, ptr noundef @.str.9)
  %68 = load ptr, ptr %runtime.addr, align 8
  call void @llvm.memcpy.p0.p0.i64(ptr align 8 %agg.tmp94, ptr align 8 %selfHandle, i64 8, i1 false)
  %69 = load i64, ptr %absIndex, align 8
  %70 = load ptr, ptr %stack.addr, align 8
  %coerce.dive95 = getelementptr inbounds %"class.hermes::vm::Handle.10", ptr %agg.tmp94, i32 0, i32 0
  %coerce.dive96 = getelementptr inbounds %"class.hermes::vm::HandleBase", ptr %coerce.dive95, i32 0, i32 0
  %71 = load ptr, ptr %coerce.dive96, align 8
  %call97 = call noundef zeroext i1 @_ZN6hermes2vm7JSError25appendFunctionNameAtIndexERNS0_7RuntimeENS0_6HandleIS1_EEmRN4llvh15SmallVectorImplIDsEE(ptr noundef nonnull align 8 dereferenceable(9832) %68, ptr %71, i64 noundef %69, ptr noundef nonnull align 8 dereferenceable(16) %70)
  br i1 %call97, label %if.end100, label %if.then98

if.then98:                                        ; preds = %if.end85
  %72 = load ptr, ptr %stack.addr, align 8
  %call99 = call noundef nonnull align 8 dereferenceable(80) ptr @_ZN6hermes2vm12SmallXStringIDsLj32EE6appendEPKDs(ptr noundef nonnull align 8 dereferenceable(80) %72, ptr noundef @.str.10)
  br label %if.end100

if.end100:                                        ; preds = %if.then98, %if.end85
  %73 = load ptr, ptr %sti, align 8
  %codeBlock = getelementptr inbounds %"struct.hermes::vm::StackTraceInfo", ptr %73, i32 0, i32 0
  %74 = load ptr, ptr %codeBlock, align 8
  %tobool101 = icmp ne ptr %74, null
  br i1 %tobool101, label %if.end104, label %if.then102

if.then102:                                       ; preds = %if.end100
  %75 = load ptr, ptr %stack.addr, align 8
  %call103 = call noundef nonnull align 8 dereferenceable(80) ptr @_ZN6hermes2vm12SmallXStringIDsLj32EE6appendEPKDs(ptr noundef nonnull align 8 dereferenceable(80) %75, ptr noundef @.str.11)
  br label %for.inc

if.end104:                                        ; preds = %if.end100
  call void @_ZN6hermes8OptValueINS_2vm8SymbolIDEEC2Ev(ptr noundef nonnull align 4 dereferenceable(5) %fileName)
  store i8 0, ptr %isAddress, align 1
  %76 = load ptr, ptr %sti, align 8
  %codeBlock105 = getelementptr inbounds %"struct.hermes::vm::StackTraceInfo", ptr %76, i32 0, i32 0
  %77 = load ptr, ptr %codeBlock105, align 8
  %78 = load ptr, ptr %sti, align 8
  %bytecodeOffset = getelementptr inbounds %"struct.hermes::vm::StackTraceInfo", ptr %78, i32 0, i32 1
  %79 = load i32, ptr %bytecodeOffset, align 8
  call void @_ZN6hermes2vm7JSError12getDebugInfoEPNS0_9CodeBlockEj(ptr sret(%"class.hermes::OptValue.220") align 4 %location, ptr noundef %77, i32 noundef %79)
  %call106 = call noundef zeroext i1 @_ZNK6hermes8OptValueINS_3hbc19DebugSourceLocationEEcvbEv(ptr noundef nonnull align 4 dereferenceable(33) %location)
  br i1 %call106, label %if.then107, label %if.else110

if.then107:                                       ; preds = %if.end104
  %call108 = call noundef ptr @_ZNK6hermes8OptValueINS_3hbc19DebugSourceLocationEEptEv(ptr noundef nonnull align 4 dereferenceable(33) %location)
  %line = getelementptr inbounds %"struct.hermes::hbc::DebugSourceLocation", ptr %call108, i32 0, i32 3
  %80 = load i32, ptr %line, align 4
  store i32 %80, ptr %lineNo, align 4
  %call109 = call noundef ptr @_ZNK6hermes8OptValueINS_3hbc19DebugSourceLocationEEptEv(ptr noundef nonnull align 4 dereferenceable(33) %location)
  %column = getelementptr inbounds %"struct.hermes::hbc::DebugSourceLocation", ptr %call109, i32 0, i32 4
  %81 = load i32, ptr %column, align 4
  store i32 %81, ptr %columnNo, align 4
  br label %if.end128

if.else110:                                       ; preds = %if.end104
  %82 = load ptr, ptr %sti, align 8
  %codeBlock112 = getelementptr inbounds %"struct.hermes::vm::StackTraceInfo", ptr %82, i32 0, i32 0
  store i32 0, ptr %ref.tmp113, align 4
  call void @_ZNSt4pairIPKN6hermes2vm9CodeBlockEjEC2IRKPS2_iTnNSt9enable_ifIXaaclsr5_PCCPE22_MoveConstructiblePairIT_T0_EEclsr5_PCCPE30_ImplicitlyMoveConvertiblePairISB_SC_EEEbE4typeELb1EEEOSB_OSC_(ptr noundef nonnull align 8 dereferenceable(12) %ref.tmp111, ptr noundef nonnull align 8 dereferenceable(8) %codeBlock112, ptr noundef nonnull align 4 dereferenceable(4) %ref.tmp113)
  call void @_ZN4llvh12DenseMapBaseINS_8DenseMapIPKN6hermes2vm9CodeBlockEjNS_12DenseMapInfoIS6_EENS_6detail12DenseMapPairIS6_jEEEES6_jS8_SB_E6insertEOSt4pairIS6_jE(ptr sret(%"struct.std::pair.298") align 8 %pair, ptr noundef nonnull align 1 dereferenceable(1) %virtualOffsetCache, ptr noundef nonnull align 8 dereferenceable(12) %ref.tmp111)
  %first = getelementptr inbounds %"struct.std::pair.298", ptr %pair, i32 0, i32 0
  %call114 = call noundef ptr @_ZNK4llvh16DenseMapIteratorIPKN6hermes2vm9CodeBlockEjNS_12DenseMapInfoIS5_EENS_6detail12DenseMapPairIS5_jEELb0EEptEv(ptr noundef nonnull align 8 dereferenceable(16) %first)
  %second = getelementptr inbounds %"struct.std::pair.300", ptr %call114, i32 0, i32 1
  store ptr %second, ptr %virtualOffset, align 8
  %second115 = getelementptr inbounds %"struct.std::pair.298", ptr %pair, i32 0, i32 1
  %83 = load i8, ptr %second115, align 8
  %tobool116 = trunc i8 %83 to i1
  br i1 %tobool116, label %if.then117, label %if.end120

if.then117:                                       ; preds = %if.else110
  %84 = load ptr, ptr %sti, align 8
  %codeBlock118 = getelementptr inbounds %"struct.hermes::vm::StackTraceInfo", ptr %84, i32 0, i32 0
  %85 = load ptr, ptr %codeBlock118, align 8
  %call119 = call noundef i32 @_ZNK6hermes2vm9CodeBlock16getVirtualOffsetEv(ptr noundef nonnull align 8 dereferenceable(40) %85)
  %86 = load ptr, ptr %virtualOffset, align 8
  store i32 %call119, ptr %86, align 4
  br label %if.end120

if.end120:                                        ; preds = %if.then117, %if.else110
  %87 = load ptr, ptr %sti, align 8
  %codeBlock121 = getelementptr inbounds %"struct.hermes::vm::StackTraceInfo", ptr %87, i32 0, i32 0
  %88 = load ptr, ptr %codeBlock121, align 8
  %call122 = call noundef ptr @_ZNK6hermes2vm9CodeBlock16getRuntimeModuleEv(ptr noundef nonnull align 8 dereferenceable(40) %88)
  %call123 = call noundef ptr @_ZN6hermes2vm13RuntimeModule11getBytecodeEv(ptr noundef nonnull align 8 dereferenceable(192) %call122)
  %call124 = call noundef i32 @_ZNK6hermes3hbc14BCProviderBase12getSegmentIDEv(ptr noundef nonnull align 8 dereferenceable(280) %call123)
  %add125 = add i32 %call124, 1
  store i32 %add125, ptr %lineNo, align 4
  %89 = load ptr, ptr %sti, align 8
  %bytecodeOffset126 = getelementptr inbounds %"struct.hermes::vm::StackTraceInfo", ptr %89, i32 0, i32 1
  %90 = load i32, ptr %bytecodeOffset126, align 8
  %91 = load ptr, ptr %virtualOffset, align 8
  %92 = load i32, ptr %91, align 4
  %add127 = add i32 %90, %92
  store i32 %add127, ptr %columnNo, align 4
  store i8 1, ptr %isAddress, align 1
  br label %if.end128

if.end128:                                        ; preds = %if.end120, %if.then107
  %93 = load ptr, ptr %stack.addr, align 8
  %call129 = call noundef nonnull align 8 dereferenceable(80) ptr @_ZN6hermes2vm12SmallXStringIDsLj32EE6appendEPKDs(ptr noundef nonnull align 8 dereferenceable(80) %93, ptr noundef @.str.12)
  %94 = load i8, ptr %isAddress, align 1
  %tobool130 = trunc i8 %94 to i1
  br i1 %tobool130, label %if.then131, label %if.end133

if.then131:                                       ; preds = %if.end128
  %95 = load ptr, ptr %stack.addr, align 8
  %call132 = call noundef nonnull align 8 dereferenceable(80) ptr @_ZN6hermes2vm12SmallXStringIDsLj32EE6appendEPKDs(ptr noundef nonnull align 8 dereferenceable(80) %95, ptr noundef @.str.13)
  br label %if.end133

if.end133:                                        ; preds = %if.then131, %if.end128
  %96 = load ptr, ptr %sti, align 8
  %codeBlock134 = getelementptr inbounds %"struct.hermes::vm::StackTraceInfo", ptr %96, i32 0, i32 0
  %97 = load ptr, ptr %codeBlock134, align 8
  %call135 = call noundef ptr @_ZNK6hermes2vm9CodeBlock16getRuntimeModuleEv(ptr noundef nonnull align 8 dereferenceable(40) %97)
  store ptr %call135, ptr %runtimeModule, align 8
  %call136 = call noundef zeroext i1 @_ZNK6hermes8OptValueINS_3hbc19DebugSourceLocationEEcvbEv(ptr noundef nonnull align 4 dereferenceable(33) %location)
  br i1 %call136, label %if.then137, label %if.else144

if.then137:                                       ; preds = %if.end133
  %98 = load ptr, ptr %stack.addr, align 8
  %99 = load ptr, ptr %runtimeModule, align 8
  %call140 = call noundef ptr @_ZN6hermes2vm13RuntimeModule11getBytecodeEv(ptr noundef nonnull align 8 dereferenceable(192) %99)
  %call141 = call noundef ptr @_ZNK6hermes3hbc14BCProviderBase12getDebugInfoEv(ptr noundef nonnull align 8 dereferenceable(280) %call140)
  %call142 = call noundef ptr @_ZNK6hermes8OptValueINS_3hbc19DebugSourceLocationEEptEv(ptr noundef nonnull align 4 dereferenceable(33) %location)
  %filenameId = getelementptr inbounds %"struct.hermes::hbc::DebugSourceLocation", ptr %call142, i32 0, i32 1
  %100 = load i32, ptr %filenameId, align 4
  call void @_ZNK6hermes3hbc9DebugInfo15getFilenameByIDB5cxx11Ej(ptr sret(%"class.std::__cxx11::basic_string") align 8 %ref.tmp139, ptr noundef nonnull align 8 dereferenceable(136) %call141, i32 noundef %100)
  store ptr %agg.tmp138, ptr %this.addr.i216, align 8
  store ptr %ref.tmp139, ptr %Str.addr.i217, align 8
  %this1.i218 = load ptr, ptr %this.addr.i216, align 8
  %101 = load ptr, ptr %Str.addr.i217, align 8
  %call.i219 = call noundef ptr @_ZNKSt7__cxx1112basic_stringIcSt11char_traitsIcESaIcEE4dataEv(ptr noundef nonnull align 8 dereferenceable(32) %101) #10
  store ptr %call.i219, ptr %this1.i218, align 8
  %Length.i220 = getelementptr inbounds %"class.llvh::StringRef", ptr %this1.i218, i32 0, i32 1
  %102 = load ptr, ptr %Str.addr.i217, align 8
  %call2.i = call noundef i64 @_ZNKSt7__cxx1112basic_stringIcSt11char_traitsIcESaIcEE6lengthEv(ptr noundef nonnull align 8 dereferenceable(32) %102) #10
  store i64 %call2.i, ptr %Length.i220, align 8
  %103 = getelementptr inbounds { ptr, i64 }, ptr %agg.tmp138, i32 0, i32 0
  %104 = load ptr, ptr %103, align 8
  %105 = getelementptr inbounds { ptr, i64 }, ptr %agg.tmp138, i32 0, i32 1
  %106 = load i64, ptr %105, align 8
  %call143 = call noundef nonnull align 8 dereferenceable(80) ptr @_ZN6hermes2vm12SmallXStringIDsLj32EE6appendEN4llvh9StringRefE(ptr noundef nonnull align 8 dereferenceable(80) %98, ptr %104, i64 %106)
  call void @_ZNSt7__cxx1112basic_stringIcSt11char_traitsIcESaIcEED1Ev(ptr noundef nonnull align 8 dereferenceable(32) %ref.tmp139) #10
  br label %if.end149

if.else144:                                       ; preds = %if.end133
  %107 = load ptr, ptr %runtimeModule, align 8
  %call145 = call { ptr, i64 } @_ZNK6hermes2vm13RuntimeModule12getSourceURLEv(ptr noundef nonnull align 8 dereferenceable(192) %107)
  %108 = getelementptr inbounds { ptr, i64 }, ptr %sourceURL, i32 0, i32 0
  %109 = extractvalue { ptr, i64 } %call145, 0
  store ptr %109, ptr %108, align 8
  %110 = getelementptr inbounds { ptr, i64 }, ptr %sourceURL, i32 0, i32 1
  %111 = extractvalue { ptr, i64 } %call145, 1
  store i64 %111, ptr %110, align 8
  %112 = load ptr, ptr %stack.addr, align 8
  store ptr %sourceURL, ptr %this.addr.i221, align 8
  %this1.i222 = load ptr, ptr %this.addr.i221, align 8
  %Length.i223 = getelementptr inbounds %"class.llvh::StringRef", ptr %this1.i222, i32 0, i32 1
  %113 = load i64, ptr %Length.i223, align 8
  %cmp.i = icmp eq i64 %113, 0
  br i1 %cmp.i, label %cond.true, label %cond.false

cond.true:                                        ; preds = %if.else144
  store ptr %agg.tmp146, ptr %this.addr.i186, align 8
  store ptr @.str.14, ptr %Str.addr.i187, align 8
  %this1.i188 = load ptr, ptr %this.addr.i186, align 8
  %114 = load ptr, ptr %Str.addr.i187, align 8
  store ptr %114, ptr %this1.i188, align 8
  %Length.i189 = getelementptr inbounds %"class.llvh::StringRef", ptr %this1.i188, i32 0, i32 1
  %115 = load ptr, ptr %Str.addr.i187, align 8
  %tobool.i190 = icmp ne ptr %115, null
  br i1 %tobool.i190, label %cond.true.i193, label %cond.false.i191

cond.true.i193:                                   ; preds = %cond.true
  %116 = load ptr, ptr %Str.addr.i187, align 8
  %call.i194 = call i64 @strlen(ptr noundef %116) #11
  br label %_ZN4llvh9StringRefC2EPKc.exit195

cond.false.i191:                                  ; preds = %cond.true
  br label %_ZN4llvh9StringRefC2EPKc.exit195

_ZN4llvh9StringRefC2EPKc.exit195:                 ; preds = %cond.false.i191, %cond.true.i193
  %cond.i192 = phi i64 [ %call.i194, %cond.true.i193 ], [ 0, %cond.false.i191 ]
  store i64 %cond.i192, ptr %Length.i189, align 8
  br label %cond.end

cond.false:                                       ; preds = %if.else144
  call void @llvm.memcpy.p0.p0.i64(ptr align 8 %agg.tmp146, ptr align 8 %sourceURL, i64 16, i1 false)
  br label %cond.end

cond.end:                                         ; preds = %cond.false, %_ZN4llvh9StringRefC2EPKc.exit195
  %117 = getelementptr inbounds { ptr, i64 }, ptr %agg.tmp146, i32 0, i32 0
  %118 = load ptr, ptr %117, align 8
  %119 = getelementptr inbounds { ptr, i64 }, ptr %agg.tmp146, i32 0, i32 1
  %120 = load i64, ptr %119, align 8
  %call148 = call noundef nonnull align 8 dereferenceable(80) ptr @_ZN6hermes2vm12SmallXStringIDsLj32EE6appendEN4llvh9StringRefE(ptr noundef nonnull align 8 dereferenceable(80) %112, ptr %118, i64 %120)
  br label %if.end149

if.end149:                                        ; preds = %cond.end, %if.then137
  %121 = load ptr, ptr %stack.addr, align 8
  store i16 58, ptr %ref.tmp150, align 2
  call void @_ZN4llvh23SmallVectorTemplateBaseIDsLb1EE9push_backERKDs(ptr noundef nonnull align 8 dereferenceable(16) %121, ptr noundef nonnull align 2 dereferenceable(2) %ref.tmp150)
  %122 = load i32, ptr %lineNo, align 4
  %conv151 = sitofp i32 %122 to double
  %arraydecay152 = getelementptr inbounds [32 x i8], ptr %buf, i64 0, i64 0
  %call153 = call noundef i64 @_ZN6hermes14numberToStringEdPcm(double noundef %conv151, ptr noundef %arraydecay152, i64 noundef 32)
  %123 = load ptr, ptr %stack.addr, align 8
  %arraydecay155 = getelementptr inbounds [32 x i8], ptr %buf, i64 0, i64 0
  store ptr %agg.tmp154, ptr %this.addr.i196, align 8
  store ptr %arraydecay155, ptr %Str.addr.i197, align 8
  %this1.i198 = load ptr, ptr %this.addr.i196, align 8
  %124 = load ptr, ptr %Str.addr.i197, align 8
  store ptr %124, ptr %this1.i198, align 8
  %Length.i199 = getelementptr inbounds %"class.llvh::StringRef", ptr %this1.i198, i32 0, i32 1
  %125 = load ptr, ptr %Str.addr.i197, align 8
  %tobool.i200 = icmp ne ptr %125, null
  br i1 %tobool.i200, label %cond.true.i203, label %cond.false.i201

cond.true.i203:                                   ; preds = %if.end149
  %126 = load ptr, ptr %Str.addr.i197, align 8
  %call.i204 = call i64 @strlen(ptr noundef %126) #11
  br label %_ZN4llvh9StringRefC2EPKc.exit205

cond.false.i201:                                  ; preds = %if.end149
  br label %_ZN4llvh9StringRefC2EPKc.exit205

_ZN4llvh9StringRefC2EPKc.exit205:                 ; preds = %cond.false.i201, %cond.true.i203
  %cond.i202 = phi i64 [ %call.i204, %cond.true.i203 ], [ 0, %cond.false.i201 ]
  store i64 %cond.i202, ptr %Length.i199, align 8
  %127 = getelementptr inbounds { ptr, i64 }, ptr %agg.tmp154, i32 0, i32 0
  %128 = load ptr, ptr %127, align 8
  %129 = getelementptr inbounds { ptr, i64 }, ptr %agg.tmp154, i32 0, i32 1
  %130 = load i64, ptr %129, align 8
  %call156 = call noundef nonnull align 8 dereferenceable(80) ptr @_ZN6hermes2vm12SmallXStringIDsLj32EE6appendEN4llvh9StringRefE(ptr noundef nonnull align 8 dereferenceable(80) %123, ptr %128, i64 %130)
  %131 = load ptr, ptr %stack.addr, align 8
  store i16 58, ptr %ref.tmp157, align 2
  call void @_ZN4llvh23SmallVectorTemplateBaseIDsLb1EE9push_backERKDs(ptr noundef nonnull align 8 dereferenceable(16) %131, ptr noundef nonnull align 2 dereferenceable(2) %ref.tmp157)
  %132 = load i32, ptr %columnNo, align 4
  %conv158 = sitofp i32 %132 to double
  %arraydecay159 = getelementptr inbounds [32 x i8], ptr %buf, i64 0, i64 0
  %call160 = call noundef i64 @_ZN6hermes14numberToStringEdPcm(double noundef %conv158, ptr noundef %arraydecay159, i64 noundef 32)
  %133 = load ptr, ptr %stack.addr, align 8
  %arraydecay162 = getelementptr inbounds [32 x i8], ptr %buf, i64 0, i64 0
  store ptr %agg.tmp161, ptr %this.addr.i206, align 8
  store ptr %arraydecay162, ptr %Str.addr.i207, align 8
  %this1.i208 = load ptr, ptr %this.addr.i206, align 8
  %134 = load ptr, ptr %Str.addr.i207, align 8
  store ptr %134, ptr %this1.i208, align 8
  %Length.i209 = getelementptr inbounds %"class.llvh::StringRef", ptr %this1.i208, i32 0, i32 1
  %135 = load ptr, ptr %Str.addr.i207, align 8
  %tobool.i210 = icmp ne ptr %135, null
  br i1 %tobool.i210, label %cond.true.i213, label %cond.false.i211

cond.true.i213:                                   ; preds = %_ZN4llvh9StringRefC2EPKc.exit205
  %136 = load ptr, ptr %Str.addr.i207, align 8
  %call.i214 = call i64 @strlen(ptr noundef %136) #11
  br label %_ZN4llvh9StringRefC2EPKc.exit215

cond.false.i211:                                  ; preds = %_ZN4llvh9StringRefC2EPKc.exit205
  br label %_ZN4llvh9StringRefC2EPKc.exit215

_ZN4llvh9StringRefC2EPKc.exit215:                 ; preds = %cond.false.i211, %cond.true.i213
  %cond.i212 = phi i64 [ %call.i214, %cond.true.i213 ], [ 0, %cond.false.i211 ]
  store i64 %cond.i212, ptr %Length.i209, align 8
  %137 = getelementptr inbounds { ptr, i64 }, ptr %agg.tmp161, i32 0, i32 0
  %138 = load ptr, ptr %137, align 8
  %139 = getelementptr inbounds { ptr, i64 }, ptr %agg.tmp161, i32 0, i32 1
  %140 = load i64, ptr %139, align 8
  %call163 = call noundef nonnull align 8 dereferenceable(80) ptr @_ZN6hermes2vm12SmallXStringIDsLj32EE6appendEN4llvh9StringRefE(ptr noundef nonnull align 8 dereferenceable(80) %133, ptr %138, i64 %140)
  %141 = load ptr, ptr %stack.addr, align 8
  store i16 41, ptr %ref.tmp164, align 2
  call void @_ZN4llvh23SmallVectorTemplateBaseIDsLb1EE9push_backERKDs(ptr noundef nonnull align 8 dereferenceable(16) %141, ptr noundef nonnull align 2 dereferenceable(2) %ref.tmp164)
  br label %for.inc

for.inc:                                          ; preds = %_ZN4llvh9StringRefC2EPKc.exit215, %if.then102, %_ZN4llvh9StringRefC2EPKc.exit185
  %142 = load i64, ptr %index, align 8
  %inc = add i64 %142, 1
  store i64 %inc, ptr %index, align 8
  br label %for.cond, !llvm.loop !6

for.end:                                          ; preds = %for.cond
  store i32 1, ptr %retval, align 4
  store i32 1, ptr %cleanup.dest.slot, align 4
  call void @_ZN4llvh8DenseMapIPKN6hermes2vm9CodeBlockEjNS_12DenseMapInfoIS5_EENS_6detail12DenseMapPairIS5_jEEED2Ev(ptr noundef nonnull align 8 dereferenceable(20) %virtualOffsetCache) #10
  br label %cleanup

cleanup:                                          ; preds = %for.end, %if.then46
  call void @_ZN6hermes2vm7GCScopeD1Ev(ptr noundef nonnull align 8 dereferenceable(212) %gcScope) #10
  br label %cleanup165

cleanup165:                                       ; preds = %cleanup, %if.then
  call void @_ZN6hermes2vm24ScopedNativeDepthTrackerD2Ev(ptr noundef nonnull align 8 dereferenceable(9) %depthTracker) #10
  %143 = load i32, ptr %retval, align 4
  ret i32 %143
}

; Function Attrs: mustprogress nounwind uwtable
define linkonce_odr hidden { i32, i64 } @_ZN6hermes2vm15StringPrimitive6createERNS0_7RuntimeEN4llvh8ArrayRefIDsEE(ptr noundef nonnull align 8 dereferenceable(9832) %runtime, ptr %str.coerce0, i64 %str.coerce1) #0 comdat align 2 {
entry:
  %retval = alloca %"class.hermes::vm::CallResult.177", align 8
  %str = alloca %"class.llvh::ArrayRef.196", align 8
  %runtime.addr = alloca ptr, align 8
  %agg.tmp = alloca %"class.llvh::ArrayRef.196", align 8
  %ref.tmp = alloca %"class.std::__cxx11::basic_string.311", align 8
  %agg.tmp4 = alloca %"class.llvh::ArrayRef.196", align 8
  %0 = getelementptr inbounds { ptr, i64 }, ptr %str, i32 0, i32 0
  store ptr %str.coerce0, ptr %0, align 8
  %1 = getelementptr inbounds { ptr, i64 }, ptr %str, i32 0, i32 1
  store i64 %str.coerce1, ptr %1, align 8
  store ptr %runtime, ptr %runtime.addr, align 8
  %call = call noundef i64 @_ZNK4llvh8ArrayRefIDsE4sizeEv(ptr noundef nonnull align 8 dereferenceable(16) %str)
  %conv = trunc i64 %call to i32
  %call1 = call noundef zeroext i1 @_ZN6hermes2vm15StringPrimitive16isExternalLengthEj(i32 noundef %conv)
  %lnot = xor i1 %call1, true
  br i1 %lnot, label %if.then, label %if.else

if.then:                                          ; preds = %entry
  %2 = load ptr, ptr %runtime.addr, align 8
  call void @llvm.memcpy.p0.p0.i64(ptr align 8 %agg.tmp, ptr align 8 %str, i64 16, i1 false)
  %3 = getelementptr inbounds { ptr, i64 }, ptr %agg.tmp, i32 0, i32 0
  %4 = load ptr, ptr %3, align 8
  %5 = getelementptr inbounds { ptr, i64 }, ptr %agg.tmp, i32 0, i32 1
  %6 = load i64, ptr %5, align 8
  %call3 = call { i32, i64 } @_ZN6hermes2vm15StringPrimitive13createDynamicERNS0_7RuntimeEN4llvh8ArrayRefIDsEE(ptr noundef nonnull align 8 dereferenceable(9832) %2, ptr %4, i64 %6)
  %7 = getelementptr inbounds { i32, i64 }, ptr %retval, i32 0, i32 0
  %8 = extractvalue { i32, i64 } %call3, 0
  store i32 %8, ptr %7, align 8
  %9 = getelementptr inbounds { i32, i64 }, ptr %retval, i32 0, i32 1
  %10 = extractvalue { i32, i64 } %call3, 1
  store i64 %10, ptr %9, align 8
  br label %return

if.else:                                          ; preds = %entry
  %11 = load ptr, ptr %runtime.addr, align 8
  call void @llvm.memcpy.p0.p0.i64(ptr align 8 %agg.tmp4, ptr align 8 %str, i64 16, i1 false)
  %12 = getelementptr inbounds { ptr, i64 }, ptr %agg.tmp4, i32 0, i32 0
  %13 = load ptr, ptr %12, align 8
  %14 = getelementptr inbounds { ptr, i64 }, ptr %agg.tmp4, i32 0, i32 1
  %15 = load i64, ptr %14, align 8
  call void @_ZN6hermes2vm15StringPrimitive13arrayToStringIDsEENSt7__cxx1112basic_stringIT_St11char_traitsIS5_ESaIS5_EEEN4llvh8ArrayRefIS5_EE(ptr sret(%"class.std::__cxx11::basic_string.311") align 8 %ref.tmp, ptr %13, i64 %15)
  %call5 = call { i32, i64 } @_ZN6hermes2vm23ExternalStringPrimitiveIDsE6createINSt7__cxx1112basic_stringIDsSt11char_traitsIDsESaIDsEEEEENS0_10CallResultINS0_11HermesValueELNS0_6detail20CallResultSpecializeE2EEERNS0_7RuntimeEOT_(ptr noundef nonnull align 8 dereferenceable(9832) %11, ptr noundef nonnull align 8 dereferenceable(32) %ref.tmp)
  %16 = getelementptr inbounds { i32, i64 }, ptr %retval, i32 0, i32 0
  %17 = extractvalue { i32, i64 } %call5, 0
  store i32 %17, ptr %16, align 8
  %18 = getelementptr inbounds { i32, i64 }, ptr %retval, i32 0, i32 1
  %19 = extractvalue { i32, i64 } %call5, 1
  store i64 %19, ptr %18, align 8
  call void @_ZNSt7__cxx1112basic_stringIDsSt11char_traitsIDsESaIDsEED2Ev(ptr noundef nonnull align 8 dereferenceable(32) %ref.tmp) #10
  br label %return

return:                                           ; preds = %if.else, %if.then
  %20 = load { i32, i64 }, ptr %retval, align 8
  ret { i32, i64 } %20
}

; Function Attrs: mustprogress nounwind uwtable
define linkonce_odr hidden void @_ZN4llvh8ArrayRefIDsEC2IvEERKNS_25SmallVectorTemplateCommonIDsT_EE(ptr noundef nonnull align 8 dereferenceable(16) %this, ptr noundef nonnull align 8 dereferenceable(16) %Vec) unnamed_addr #0 comdat align 2 {
entry:
  %this.addr = alloca ptr, align 8
  %Vec.addr = alloca ptr, align 8
  store ptr %this, ptr %this.addr, align 8
  store ptr %Vec, ptr %Vec.addr, align 8
  %this1 = load ptr, ptr %this.addr, align 8
  %Data = getelementptr inbounds %"class.llvh::ArrayRef.196", ptr %this1, i32 0, i32 0
  %0 = load ptr, ptr %Vec.addr, align 8
  %call = call noundef ptr @_ZNK4llvh25SmallVectorTemplateCommonIDsvE4dataEv(ptr noundef nonnull align 8 dereferenceable(16) %0)
  store ptr %call, ptr %Data, align 8
  %Length = getelementptr inbounds %"class.llvh::ArrayRef.196", ptr %this1, i32 0, i32 1
  %1 = load ptr, ptr %Vec.addr, align 8
  %call2 = call noundef i64 @_ZNK4llvh15SmallVectorBase4sizeEv(ptr noundef nonnull align 8 dereferenceable(16) %1)
  store i64 %call2, ptr %Length, align 8
  ret void
}

; Function Attrs: mustprogress nounwind uwtable
define linkonce_odr hidden noundef nonnull align 8 dereferenceable(8) ptr @_ZN6hermes2vm13MutableHandleINS0_11HermesValueEEaSES2_(ptr noundef nonnull align 8 dereferenceable(8) %this, i64 %value.coerce) #0 comdat align 2 {
entry:
  %value = alloca %"class.hermes::vm::HermesValue", align 8
  %this.addr = alloca ptr, align 8
  %agg.tmp = alloca %"class.hermes::vm::HermesValue", align 8
  %coerce.dive = getelementptr inbounds %"class.hermes::vm::HermesValue", ptr %value, i32 0, i32 0
  store i64 %value.coerce, ptr %coerce.dive, align 8
  store ptr %this, ptr %this.addr, align 8
  %this1 = load ptr, ptr %this.addr, align 8
  call void @llvm.memcpy.p0.p0.i64(ptr align 8 %agg.tmp, ptr align 8 %value, i64 8, i1 false)
  %coerce.dive2 = getelementptr inbounds %"class.hermes::vm::HermesValue", ptr %agg.tmp, i32 0, i32 0
  %0 = load i64, ptr %coerce.dive2, align 8
  call void @_ZN6hermes2vm13MutableHandleINS0_11HermesValueEE3setES2_(ptr noundef nonnull align 8 dereferenceable(8) %this1, i64 %0)
  ret ptr %this1
}

; Function Attrs: mustprogress nounwind uwtable
define linkonce_odr hidden void @_ZN6hermes2vm7Runtime16clearThrownValueEv(ptr noundef nonnull align 8 dereferenceable(9832) %this) #0 comdat align 2 {
entry:
  %this.addr = alloca ptr, align 8
  %ref.tmp = alloca %"class.hermes::vm::HermesValue", align 8
  store ptr %this, ptr %this.addr, align 8
  %this1 = load ptr, ptr %this.addr, align 8
  %call = call i64 @_ZN6hermes2vm11HermesValue16encodeEmptyValueEv()
  %coerce.dive = getelementptr inbounds %"class.hermes::vm::HermesValue", ptr %ref.tmp, i32 0, i32 0
  store i64 %call, ptr %coerce.dive, align 8
  %thrownValue_ = getelementptr inbounds %"class.hermes::vm::Runtime", ptr %this1, i32 0, i32 87
  %call2 = call noundef nonnull align 8 dereferenceable(8) ptr @_ZN6hermes2vm17PinnedHermesValueaSERKNS0_11HermesValueE(ptr noundef nonnull align 8 dereferenceable(8) %thrownValue_, ptr noundef nonnull align 8 dereferenceable(8) %ref.tmp)
  ret void
}

; Function Attrs: mustprogress nounwind uwtable
define linkonce_odr hidden i32 @_ZN6hermes2vm19DefinePropertyFlags24getNewNonEnumerableFlagsEv() #0 comdat align 2 {
entry:
  %retval = alloca %"union.hermes::vm::DefinePropertyFlags", align 4
  call void @_ZN6hermes2vm19DefinePropertyFlagsC2Ev(ptr noundef nonnull align 4 dereferenceable(4) %retval)
  %bf.load = load i16, ptr %retval, align 4
  %bf.clear = and i16 %bf.load, -9
  %bf.set = or i16 %bf.clear, 8
  store i16 %bf.set, ptr %retval, align 4
  %bf.load1 = load i16, ptr %retval, align 4
  %bf.clear2 = and i16 %bf.load1, -2
  %bf.set3 = or i16 %bf.clear2, 0
  store i16 %bf.set3, ptr %retval, align 4
  %bf.load4 = load i16, ptr %retval, align 4
  %bf.clear5 = and i16 %bf.load4, -17
  %bf.set6 = or i16 %bf.clear5, 16
  store i16 %bf.set6, ptr %retval, align 4
  %bf.load7 = load i16, ptr %retval, align 4
  %bf.clear8 = and i16 %bf.load7, -3
  %bf.set9 = or i16 %bf.clear8, 2
  store i16 %bf.set9, ptr %retval, align 4
  %bf.load10 = load i16, ptr %retval, align 4
  %bf.clear11 = and i16 %bf.load10, -33
  %bf.set12 = or i16 %bf.clear11, 32
  store i16 %bf.set12, ptr %retval, align 4
  %bf.load13 = load i16, ptr %retval, align 4
  %bf.clear14 = and i16 %bf.load13, -5
  %bf.set15 = or i16 %bf.clear14, 4
  store i16 %bf.set15, ptr %retval, align 4
  %bf.load16 = load i16, ptr %retval, align 4
  %bf.clear17 = and i16 %bf.load16, -257
  %bf.set18 = or i16 %bf.clear17, 256
  store i16 %bf.set18, ptr %retval, align 4
  %coerce.dive = getelementptr inbounds %"union.hermes::vm::DefinePropertyFlags", ptr %retval, i32 0, i32 0
  %0 = load i32, ptr %coerce.dive, align 4
  ret i32 %0
}

; Function Attrs: mustprogress nounwind uwtable
define linkonce_odr hidden noundef zeroext i1 @_ZN6hermes2vmeqIbEEbRKNS0_10CallResultIT_Xsr6detail23GetCallResultSpecializeIS3_EE5valueEEENS0_15ExecutionStatusE(ptr noundef nonnull align 4 dereferenceable(2) %lhs, i32 noundef %rhs) #0 comdat {
entry:
  %lhs.addr = alloca ptr, align 8
  %rhs.addr = alloca i32, align 4
  store ptr %lhs, ptr %lhs.addr, align 8
  store i32 %rhs, ptr %rhs.addr, align 4
  %0 = load ptr, ptr %lhs.addr, align 8
  %call = call noundef i32 @_ZNK6hermes2vm10CallResultIbLNS0_6detail20CallResultSpecializeE1EE9getStatusEv(ptr noundef nonnull align 4 dereferenceable(2) %0)
  %1 = load i32, ptr %rhs.addr, align 4
  %cmp = icmp eq i32 %call, %1
  ret i1 %cmp
}

; Function Attrs: mustprogress nounwind uwtable
define linkonce_odr hidden i32 @_ZN6hermes2vm8JSObject17defineOwnPropertyENS0_6HandleIS1_EERNS0_7RuntimeENS0_8SymbolIDENS0_19DefinePropertyFlagsENS2_INS0_11HermesValueEEENS0_11PropOpFlagsE(ptr %selfHandle.coerce, ptr noundef nonnull align 8 dereferenceable(9832) %runtime, i32 %name.coerce, i32 %dpFlags.coerce, ptr %valueOrAccessor.coerce, i32 %opFlags.coerce) #0 comdat align 2 {
entry:
  %retval = alloca %"class.hermes::vm::CallResult", align 4
  %selfHandle = alloca %"class.hermes::vm::Handle", align 8
  %name = alloca %"class.hermes::vm::SymbolID", align 4
  %dpFlags = alloca %"union.hermes::vm::DefinePropertyFlags", align 4
  %valueOrAccessor = alloca %"class.hermes::vm::Handle.0", align 8
  %opFlags = alloca %"union.hermes::vm::PropOpFlags", align 4
  %runtime.addr = alloca ptr, align 8
  %agg.tmp = alloca %"class.hermes::vm::Handle", align 8
  %agg.tmp7 = alloca %"class.hermes::vm::SymbolID", align 4
  %agg.tmp8 = alloca %"union.hermes::vm::DefinePropertyFlags", align 4
  %agg.tmp9 = alloca %"class.hermes::vm::Handle.0", align 8
  %agg.tmp10 = alloca %"union.hermes::vm::PropOpFlags", align 4
  %coerce.dive = getelementptr inbounds %"class.hermes::vm::Handle", ptr %selfHandle, i32 0, i32 0
  %coerce.dive1 = getelementptr inbounds %"class.hermes::vm::HandleBase", ptr %coerce.dive, i32 0, i32 0
  store ptr %selfHandle.coerce, ptr %coerce.dive1, align 8
  %coerce.dive2 = getelementptr inbounds %"class.hermes::vm::SymbolID", ptr %name, i32 0, i32 0
  store i32 %name.coerce, ptr %coerce.dive2, align 4
  %coerce.dive3 = getelementptr inbounds %"union.hermes::vm::DefinePropertyFlags", ptr %dpFlags, i32 0, i32 0
  store i32 %dpFlags.coerce, ptr %coerce.dive3, align 4
  %coerce.dive4 = getelementptr inbounds %"class.hermes::vm::Handle.0", ptr %valueOrAccessor, i32 0, i32 0
  %coerce.dive5 = getelementptr inbounds %"class.hermes::vm::HandleBase", ptr %coerce.dive4, i32 0, i32 0
  store ptr %valueOrAccessor.coerce, ptr %coerce.dive5, align 8
  %coerce.dive6 = getelementptr inbounds %"union.hermes::vm::PropOpFlags", ptr %opFlags, i32 0, i32 0
  store i32 %opFlags.coerce, ptr %coerce.dive6, align 4
  store ptr %runtime, ptr %runtime.addr, align 8
  call void @llvm.memcpy.p0.p0.i64(ptr align 8 %agg.tmp, ptr align 8 %selfHandle, i64 8, i1 false)
  %0 = load ptr, ptr %runtime.addr, align 8
  call void @llvm.memcpy.p0.p0.i64(ptr align 4 %agg.tmp7, ptr align 4 %name, i64 4, i1 false)
  call void @llvm.memcpy.p0.p0.i64(ptr align 4 %agg.tmp8, ptr align 4 %dpFlags, i64 4, i1 false)
  call void @llvm.memcpy.p0.p0.i64(ptr align 8 %agg.tmp9, ptr align 8 %valueOrAccessor, i64 8, i1 false)
  call void @llvm.memcpy.p0.p0.i64(ptr align 4 %agg.tmp10, ptr align 4 %opFlags, i64 4, i1 false)
  %coerce.dive11 = getelementptr inbounds %"class.hermes::vm::Handle", ptr %agg.tmp, i32 0, i32 0
  %coerce.dive12 = getelementptr inbounds %"class.hermes::vm::HandleBase", ptr %coerce.dive11, i32 0, i32 0
  %1 = load ptr, ptr %coerce.dive12, align 8
  %coerce.dive13 = getelementptr inbounds %"class.hermes::vm::SymbolID", ptr %agg.tmp7, i32 0, i32 0
  %2 = load i32, ptr %coerce.dive13, align 4
  %coerce.dive14 = getelementptr inbounds %"union.hermes::vm::DefinePropertyFlags", ptr %agg.tmp8, i32 0, i32 0
  %3 = load i32, ptr %coerce.dive14, align 4
  %coerce.dive15 = getelementptr inbounds %"class.hermes::vm::Handle.0", ptr %agg.tmp9, i32 0, i32 0
  %coerce.dive16 = getelementptr inbounds %"class.hermes::vm::HandleBase", ptr %coerce.dive15, i32 0, i32 0
  %4 = load ptr, ptr %coerce.dive16, align 8
  %coerce.dive17 = getelementptr inbounds %"union.hermes::vm::PropOpFlags", ptr %agg.tmp10, i32 0, i32 0
  %5 = load i32, ptr %coerce.dive17, align 4
  %call = call i32 @_ZN6hermes2vm8JSObject25defineOwnPropertyInternalENS0_6HandleIS1_EERNS0_7RuntimeENS0_8SymbolIDENS0_19DefinePropertyFlagsENS2_INS0_11HermesValueEEENS0_11PropOpFlagsE(ptr %1, ptr noundef nonnull align 8 dereferenceable(9832) %0, i32 %2, i32 %3, ptr %4, i32 %5)
  store i32 %call, ptr %retval, align 4
  %6 = load i32, ptr %retval, align 4
  ret i32 %6
}

; Function Attrs: mustprogress nounwind uwtable
define linkonce_odr hidden i64 @_ZNK6hermes2vm6HandleINS0_11HermesValueEEdeEv(ptr noundef nonnull align 8 dereferenceable(8) %this) #0 comdat align 2 {
entry:
  %retval = alloca %"class.hermes::vm::HermesValue", align 8
  %this.addr = alloca ptr, align 8
  store ptr %this, ptr %this.addr, align 8
  %this1 = load ptr, ptr %this.addr, align 8
  %call = call i64 @_ZNK6hermes2vm6HandleINS0_11HermesValueEE3getEv(ptr noundef nonnull align 8 dereferenceable(8) %this1)
  %coerce.dive = getelementptr inbounds %"class.hermes::vm::HermesValue", ptr %retval, i32 0, i32 0
  store i64 %call, ptr %coerce.dive, align 8
  %coerce.dive2 = getelementptr inbounds %"class.hermes::vm::HermesValue", ptr %retval, i32 0, i32 0
  %0 = load i64, ptr %coerce.dive2, align 8
  ret i64 %0
}

; Function Attrs: mustprogress nounwind uwtable
define linkonce_odr hidden void @_ZN6hermes2vm12SmallXStringIDsLj32EED2Ev(ptr noundef nonnull align 8 dereferenceable(80) %this) unnamed_addr #0 comdat align 2 {
entry:
  %this.addr = alloca ptr, align 8
  store ptr %this, ptr %this.addr, align 8
  %this1 = load ptr, ptr %this.addr, align 8
  call void @_ZN4llvh11SmallVectorIDsLj32EED2Ev(ptr noundef nonnull align 8 dereferenceable(80) %this1) #10
  ret void
}

; Function Attrs: mustprogress nounwind uwtable
define linkonce_odr hidden void @_ZN6hermes2vm24ScopedNativeDepthReducerD2Ev(ptr noundef nonnull align 8 dereferenceable(9) %this) unnamed_addr #0 comdat align 2 {
entry:
  %this.addr = alloca ptr, align 8
  store ptr %this, ptr %this.addr, align 8
  %this1 = load ptr, ptr %this.addr, align 8
  %undo = getelementptr inbounds %"class.hermes::vm::ScopedNativeDepthReducer", ptr %this1, i32 0, i32 1
  %0 = load i8, ptr %undo, align 8
  %tobool = trunc i8 %0 to i1
  br i1 %tobool, label %if.then, label %if.end

if.then:                                          ; preds = %entry
  %runtime_ = getelementptr inbounds %"class.hermes::vm::ScopedNativeDepthReducer", ptr %this1, i32 0, i32 0
  %1 = load ptr, ptr %runtime_, align 8
  %nativeCallFrameDepth_ = getelementptr inbounds %"class.hermes::vm::Runtime", ptr %1, i32 0, i32 132
  %2 = load i32, ptr %nativeCallFrameDepth_, align 8
  %add = add i32 %2, 3
  store i32 %add, ptr %nativeCallFrameDepth_, align 8
  br label %if.end

if.end:                                           ; preds = %if.then, %entry
  ret void
}

; Function Attrs: nounwind
declare void @_ZN6hermes2vm7GCScopeD1Ev(ptr noundef nonnull align 8 dereferenceable(212)) unnamed_addr #4

; Function Attrs: mustprogress nounwind uwtable
define hidden { i32, i64 } @_ZN6hermes2vm16errorStackSetterEPvRNS0_7RuntimeENS0_10NativeArgsE(ptr noundef %0, ptr noundef nonnull align 8 dereferenceable(9832) %runtime, ptr noundef %args) #0 {
entry:
  %retval = alloca %"class.hermes::vm::CallResult.177", align 8
  %.addr = alloca ptr, align 8
  %runtime.addr = alloca ptr, align 8
  %args.indirect_addr = alloca ptr, align 8
  %res = alloca %"class.hermes::vm::CallResult.177", align 8
  %agg.tmp = alloca %"class.hermes::vm::Handle.0", align 8
  %selfHandle = alloca %"class.hermes::vm::Handle", align 8
  %agg.tmp6 = alloca %"class.hermes::vm::HermesValue", align 8
  %dpf = alloca %"union.hermes::vm::DefinePropertyFlags", align 4
  %ref.tmp = alloca %"class.hermes::vm::CallResult", align 4
  %agg.tmp14 = alloca %"class.hermes::vm::Handle", align 8
  %agg.tmp15 = alloca %"class.hermes::vm::SymbolID", align 4
  %agg.tmp18 = alloca %"union.hermes::vm::DefinePropertyFlags", align 4
  %agg.tmp19 = alloca %"class.hermes::vm::Handle.0", align 8
  %agg.tmp23 = alloca %"union.hermes::vm::PropOpFlags", align 4
  %agg.tmp35 = alloca %"class.hermes::vm::HermesValue", align 8
  store ptr %0, ptr %.addr, align 8
  store ptr %runtime, ptr %runtime.addr, align 8
  store ptr %args, ptr %args.indirect_addr, align 8
  %1 = load ptr, ptr %runtime.addr, align 8
  %call = call ptr @_ZNK6hermes2vm10NativeArgs13getThisHandleEv(ptr noundef nonnull align 8 dereferenceable(24) %args)
  %coerce.dive = getelementptr inbounds %"class.hermes::vm::Handle.0", ptr %agg.tmp, i32 0, i32 0
  %coerce.dive1 = getelementptr inbounds %"class.hermes::vm::HandleBase", ptr %coerce.dive, i32 0, i32 0
  store ptr %call, ptr %coerce.dive1, align 8
  %coerce.dive2 = getelementptr inbounds %"class.hermes::vm::Handle.0", ptr %agg.tmp, i32 0, i32 0
  %coerce.dive3 = getelementptr inbounds %"class.hermes::vm::HandleBase", ptr %coerce.dive2, i32 0, i32 0
  %2 = load ptr, ptr %coerce.dive3, align 8
  %call4 = call { i32, i64 } @_ZN6hermes2vm8toObjectERNS0_7RuntimeENS0_6HandleINS0_11HermesValueEEE(ptr noundef nonnull align 8 dereferenceable(9832) %1, ptr %2)
  %3 = getelementptr inbounds { i32, i64 }, ptr %res, i32 0, i32 0
  %4 = extractvalue { i32, i64 } %call4, 0
  store i32 %4, ptr %3, align 8
  %5 = getelementptr inbounds { i32, i64 }, ptr %res, i32 0, i32 1
  %6 = extractvalue { i32, i64 } %call4, 1
  store i64 %6, ptr %5, align 8
  %call5 = call noundef zeroext i1 @_ZN6hermes2vmeqINS0_11HermesValueEEEbRKNS0_10CallResultIT_Xsr6detail23GetCallResultSpecializeIS4_EE5valueEEENS0_15ExecutionStatusE(ptr noundef nonnull align 8 dereferenceable(16) %res, i32 noundef 0)
  br i1 %call5, label %if.then, label %if.end

if.then:                                          ; preds = %entry
  call void @_ZN6hermes2vm10CallResultINS0_11HermesValueELNS0_6detail20CallResultSpecializeE2EEC2ENS0_15ExecutionStatusE(ptr noundef nonnull align 8 dereferenceable(16) %retval, i32 noundef 0)
  br label %return

if.end:                                           ; preds = %entry
  %7 = load ptr, ptr %runtime.addr, align 8
  %call7 = call noundef nonnull align 8 dereferenceable(8) ptr @_ZNK6hermes2vm10CallResultINS0_11HermesValueELNS0_6detail20CallResultSpecializeE2EE8getValueEv(ptr noundef nonnull align 8 dereferenceable(16) %res)
  call void @llvm.memcpy.p0.p0.i64(ptr align 8 %agg.tmp6, ptr align 8 %call7, i64 8, i1 false)
  %coerce.dive8 = getelementptr inbounds %"class.hermes::vm::HermesValue", ptr %agg.tmp6, i32 0, i32 0
  %8 = load i64, ptr %coerce.dive8, align 8
  %call9 = call ptr @_ZN6hermes2vm15HandleRootOwner10makeHandleINS0_8JSObjectEEENS0_6HandleIT_EENS0_11HermesValueE(ptr noundef nonnull align 8 dereferenceable(16) %7, i64 %8)
  %coerce.dive10 = getelementptr inbounds %"class.hermes::vm::Handle", ptr %selfHandle, i32 0, i32 0
  %coerce.dive11 = getelementptr inbounds %"class.hermes::vm::HandleBase", ptr %coerce.dive10, i32 0, i32 0
  store ptr %call9, ptr %coerce.dive11, align 8
  %call12 = call i32 @_ZN6hermes2vm19DefinePropertyFlags24getNewNonEnumerableFlagsEv()
  %coerce.dive13 = getelementptr inbounds %"union.hermes::vm::DefinePropertyFlags", ptr %dpf, i32 0, i32 0
  store i32 %call12, ptr %coerce.dive13, align 4
  call void @llvm.memcpy.p0.p0.i64(ptr align 8 %agg.tmp14, ptr align 8 %selfHandle, i64 8, i1 false)
  %9 = load ptr, ptr %runtime.addr, align 8
  %call16 = call i32 @_ZN6hermes2vm10Predefined11getSymbolIDENS1_3StrE(i32 noundef 140)
  %coerce.dive17 = getelementptr inbounds %"class.hermes::vm::SymbolID", ptr %agg.tmp15, i32 0, i32 0
  store i32 %call16, ptr %coerce.dive17, align 4
  call void @llvm.memcpy.p0.p0.i64(ptr align 4 %agg.tmp18, ptr align 4 %dpf, i64 4, i1 false)
  %call20 = call ptr @_ZNK6hermes2vm10NativeArgs12getArgHandleEj(ptr noundef nonnull align 8 dereferenceable(24) %args, i32 noundef 0)
  %coerce.dive21 = getelementptr inbounds %"class.hermes::vm::Handle.0", ptr %agg.tmp19, i32 0, i32 0
  %coerce.dive22 = getelementptr inbounds %"class.hermes::vm::HandleBase", ptr %coerce.dive21, i32 0, i32 0
  store ptr %call20, ptr %coerce.dive22, align 8
  call void @llvm.memset.p0.i64(ptr align 4 %agg.tmp23, i8 0, i64 4, i1 false)
  call void @_ZN6hermes2vm11PropOpFlagsC2Ev(ptr noundef nonnull align 4 dereferenceable(4) %agg.tmp23) #10
  %coerce.dive24 = getelementptr inbounds %"class.hermes::vm::Handle", ptr %agg.tmp14, i32 0, i32 0
  %coerce.dive25 = getelementptr inbounds %"class.hermes::vm::HandleBase", ptr %coerce.dive24, i32 0, i32 0
  %10 = load ptr, ptr %coerce.dive25, align 8
  %coerce.dive26 = getelementptr inbounds %"class.hermes::vm::SymbolID", ptr %agg.tmp15, i32 0, i32 0
  %11 = load i32, ptr %coerce.dive26, align 4
  %coerce.dive27 = getelementptr inbounds %"union.hermes::vm::DefinePropertyFlags", ptr %agg.tmp18, i32 0, i32 0
  %12 = load i32, ptr %coerce.dive27, align 4
  %coerce.dive28 = getelementptr inbounds %"class.hermes::vm::Handle.0", ptr %agg.tmp19, i32 0, i32 0
  %coerce.dive29 = getelementptr inbounds %"class.hermes::vm::HandleBase", ptr %coerce.dive28, i32 0, i32 0
  %13 = load ptr, ptr %coerce.dive29, align 8
  %coerce.dive30 = getelementptr inbounds %"union.hermes::vm::PropOpFlags", ptr %agg.tmp23, i32 0, i32 0
  %14 = load i32, ptr %coerce.dive30, align 4
  %call31 = call i32 @_ZN6hermes2vm8JSObject17defineOwnPropertyENS0_6HandleIS1_EERNS0_7RuntimeENS0_8SymbolIDENS0_19DefinePropertyFlagsENS2_INS0_11HermesValueEEENS0_11PropOpFlagsE(ptr %10, ptr noundef nonnull align 8 dereferenceable(9832) %9, i32 %11, i32 %12, ptr %13, i32 %14)
  store i32 %call31, ptr %ref.tmp, align 4
  %call32 = call noundef zeroext i1 @_ZN6hermes2vmeqIbEEbRKNS0_10CallResultIT_Xsr6detail23GetCallResultSpecializeIS3_EE5valueEEENS0_15ExecutionStatusE(ptr noundef nonnull align 4 dereferenceable(2) %ref.tmp, i32 noundef 0)
  br i1 %call32, label %if.then33, label %if.end34

if.then33:                                        ; preds = %if.end
  call void @_ZN6hermes2vm10CallResultINS0_11HermesValueELNS0_6detail20CallResultSpecializeE2EEC2ENS0_15ExecutionStatusE(ptr noundef nonnull align 8 dereferenceable(16) %retval, i32 noundef 0)
  br label %return

if.end34:                                         ; preds = %if.end
  %call36 = call i64 @_ZN6hermes2vm11HermesValue20encodeUndefinedValueEv()
  %coerce.dive37 = getelementptr inbounds %"class.hermes::vm::HermesValue", ptr %agg.tmp35, i32 0, i32 0
  store i64 %call36, ptr %coerce.dive37, align 8
  %coerce.dive38 = getelementptr inbounds %"class.hermes::vm::HermesValue", ptr %agg.tmp35, i32 0, i32 0
  %15 = load i64, ptr %coerce.dive38, align 8
  call void @_ZN6hermes2vm10CallResultINS0_11HermesValueELNS0_6detail20CallResultSpecializeE2EEC2ES2_(ptr noundef nonnull align 8 dereferenceable(16) %retval, i64 %15)
  br label %return

return:                                           ; preds = %if.end34, %if.then33, %if.then
  %16 = load { i32, i64 }, ptr %retval, align 8
  ret { i32, i64 } %16
}

declare { i32, i64 } @_ZN6hermes2vm8toObjectERNS0_7RuntimeENS0_6HandleINS0_11HermesValueEEE(ptr noundef nonnull align 8 dereferenceable(9832), ptr) #1

; Function Attrs: mustprogress nounwind uwtable
define linkonce_odr hidden ptr @_ZNK6hermes2vm10NativeArgs13getThisHandleEv(ptr noundef nonnull align 8 dereferenceable(24) %this) #0 comdat align 2 {
entry:
  %retval = alloca %"class.hermes::vm::Handle.0", align 8
  %this.addr = alloca ptr, align 8
  store ptr %this, ptr %this.addr, align 8
  %this1 = load ptr, ptr %this.addr, align 8
  %call = call noundef nonnull align 8 dereferenceable(8) ptr @_ZNK6hermes2vm10NativeArgs10getThisArgEv(ptr noundef nonnull align 8 dereferenceable(24) %this1)
  call void @_ZN6hermes2vm6HandleINS0_11HermesValueEEC2EPKNS0_17PinnedHermesValueE(ptr noundef nonnull align 8 dereferenceable(8) %retval, ptr noundef %call)
  %coerce.dive = getelementptr inbounds %"class.hermes::vm::Handle.0", ptr %retval, i32 0, i32 0
  %coerce.dive2 = getelementptr inbounds %"class.hermes::vm::HandleBase", ptr %coerce.dive, i32 0, i32 0
  %0 = load ptr, ptr %coerce.dive2, align 8
  ret ptr %0
}

; Function Attrs: mustprogress nounwind uwtable
define linkonce_odr hidden ptr @_ZN6hermes2vm15HandleRootOwner10makeHandleINS0_8JSObjectEEENS0_6HandleIT_EENS0_11HermesValueE(ptr noundef nonnull align 8 dereferenceable(16) %this, i64 %value.coerce) #0 comdat align 2 {
entry:
  %retval = alloca %"class.hermes::vm::Handle", align 8
  %value = alloca %"class.hermes::vm::HermesValue", align 8
  %this.addr = alloca ptr, align 8
  %agg.tmp = alloca %"class.hermes::vm::HermesValue", align 8
  %coerce.dive = getelementptr inbounds %"class.hermes::vm::HermesValue", ptr %value, i32 0, i32 0
  store i64 %value.coerce, ptr %coerce.dive, align 8
  store ptr %this, ptr %this.addr, align 8
  %this1 = load ptr, ptr %this.addr, align 8
  call void @llvm.memcpy.p0.p0.i64(ptr align 8 %agg.tmp, ptr align 8 %value, i64 8, i1 false)
  %coerce.dive2 = getelementptr inbounds %"class.hermes::vm::HermesValue", ptr %agg.tmp, i32 0, i32 0
  %0 = load i64, ptr %coerce.dive2, align 8
  %call = call noundef ptr @_ZN6hermes2vm6vmcastINS0_8JSObjectEEEPT_NS0_11HermesValueE(i64 %0)
  call void @_ZN6hermes2vm6HandleINS0_8JSObjectEEC2ERNS0_15HandleRootOwnerEPS2_(ptr noundef nonnull align 8 dereferenceable(8) %retval, ptr noundef nonnull align 8 dereferenceable(16) %this1, ptr noundef %call)
  %coerce.dive3 = getelementptr inbounds %"class.hermes::vm::Handle", ptr %retval, i32 0, i32 0
  %coerce.dive4 = getelementptr inbounds %"class.hermes::vm::HandleBase", ptr %coerce.dive3, i32 0, i32 0
  %1 = load ptr, ptr %coerce.dive4, align 8
  ret ptr %1
}

; Function Attrs: mustprogress nounwind uwtable
define linkonce_odr hidden noundef nonnull align 8 dereferenceable(8) ptr @_ZNK6hermes2vm10CallResultINS0_11HermesValueELNS0_6detail20CallResultSpecializeE2EE8getValueEv(ptr noundef nonnull align 8 dereferenceable(16) %this) #0 comdat align 2 {
entry:
  %this.addr = alloca ptr, align 8
  store ptr %this, ptr %this.addr, align 8
  %this1 = load ptr, ptr %this.addr, align 8
  %storage_ = getelementptr inbounds %"class.hermes::vm::CallResult.177", ptr %this1, i32 0, i32 1
  ret ptr %storage_
}

; Function Attrs: mustprogress nounwind uwtable
define linkonce_odr hidden ptr @_ZNK6hermes2vm10NativeArgs12getArgHandleEj(ptr noundef nonnull align 8 dereferenceable(24) %this, i32 noundef %index) #0 comdat align 2 {
entry:
  %retval = alloca %"class.hermes::vm::Handle.0", align 8
  %this.addr = alloca ptr, align 8
  %index.addr = alloca i32, align 4
  %ref.tmp = alloca %"class.std::reverse_iterator", align 8
  store ptr %this, ptr %this.addr, align 8
  store i32 %index, ptr %index.addr, align 4
  %this1 = load ptr, ptr %this.addr, align 8
  %0 = load i32, ptr %index.addr, align 4
  %argCount_ = getelementptr inbounds %"class.hermes::vm::NativeArgs", ptr %this1, i32 0, i32 1
  %1 = load i32, ptr %argCount_, align 8
  %cmp = icmp ult i32 %0, %1
  br i1 %cmp, label %cond.true, label %cond.false

cond.true:                                        ; preds = %entry
  call void @_ZNK6hermes2vm10NativeArgs5beginEv(ptr sret(%"class.std::reverse_iterator") align 8 %ref.tmp, ptr noundef nonnull align 8 dereferenceable(24) %this1)
  %2 = load i32, ptr %index.addr, align 4
  %conv = zext i32 %2 to i64
  %call = call noundef nonnull align 8 dereferenceable(8) ptr @_ZNKSt16reverse_iteratorIPKN6hermes2vm17PinnedHermesValueEEixEl(ptr noundef nonnull align 8 dereferenceable(8) %ref.tmp, i64 noundef %conv)
  call void @_ZN6hermes2vm6HandleINS0_11HermesValueEEC2EPKNS0_17PinnedHermesValueE(ptr noundef nonnull align 8 dereferenceable(8) %retval, ptr noundef %call)
  br label %cond.end

cond.false:                                       ; preds = %entry
  %call2 = call ptr @_ZN6hermes2vm15HandleRootOwner17getUndefinedValueEv()
  %coerce.dive = getelementptr inbounds %"class.hermes::vm::Handle.0", ptr %retval, i32 0, i32 0
  %coerce.dive3 = getelementptr inbounds %"class.hermes::vm::HandleBase", ptr %coerce.dive, i32 0, i32 0
  store ptr %call2, ptr %coerce.dive3, align 8
  br label %cond.end

cond.end:                                         ; preds = %cond.false, %cond.true
  %coerce.dive4 = getelementptr inbounds %"class.hermes::vm::Handle.0", ptr %retval, i32 0, i32 0
  %coerce.dive5 = getelementptr inbounds %"class.hermes::vm::HandleBase", ptr %coerce.dive4, i32 0, i32 0
  %3 = load ptr, ptr %coerce.dive5, align 8
  ret ptr %3
}

; Function Attrs: mustprogress nounwind uwtable
define linkonce_odr hidden i64 @_ZN6hermes2vm11HermesValue20encodeUndefinedValueEv() #0 comdat align 2 {
entry:
  %retval = alloca %"class.hermes::vm::HermesValue", align 8
  call void @_ZN6hermes2vm11HermesValueC2EmNS1_4ETagE(ptr noundef nonnull align 8 dereferenceable(8) %retval, i64 noundef 0, i64 noundef -12)
  %coerce.dive = getelementptr inbounds %"class.hermes::vm::HermesValue", ptr %retval, i32 0, i32 0
  %0 = load i64, ptr %coerce.dive, align 8
  ret i64 %0
}

; Function Attrs: mustprogress nounwind uwtable
define hidden ptr @_ZN6hermes2vm7JSError6createERNS0_7RuntimeENS0_6HandleINS0_8JSObjectEEE(ptr noundef nonnull align 8 dereferenceable(9832) %runtime, ptr %parentHandle.coerce) #0 align 2 {
entry:
  %retval = alloca %"class.hermes::vm::PseudoHandle.198", align 8
  %parentHandle = alloca %"class.hermes::vm::Handle", align 8
  %runtime.addr = alloca ptr, align 8
  %agg.tmp = alloca %"class.hermes::vm::Handle", align 8
  %coerce.dive = getelementptr inbounds %"class.hermes::vm::Handle", ptr %parentHandle, i32 0, i32 0
  %coerce.dive1 = getelementptr inbounds %"class.hermes::vm::HandleBase", ptr %coerce.dive, i32 0, i32 0
  store ptr %parentHandle.coerce, ptr %coerce.dive1, align 8
  store ptr %runtime, ptr %runtime.addr, align 8
  %0 = load ptr, ptr %runtime.addr, align 8
  call void @llvm.memcpy.p0.p0.i64(ptr align 8 %agg.tmp, ptr align 8 %parentHandle, i64 8, i1 false)
  %coerce.dive2 = getelementptr inbounds %"class.hermes::vm::Handle", ptr %agg.tmp, i32 0, i32 0
  %coerce.dive3 = getelementptr inbounds %"class.hermes::vm::HandleBase", ptr %coerce.dive2, i32 0, i32 0
  %1 = load ptr, ptr %coerce.dive3, align 8
  %call = call ptr @_ZN6hermes2vm7JSError6createERNS0_7RuntimeENS0_6HandleINS0_8JSObjectEEEb(ptr noundef nonnull align 8 dereferenceable(9832) %0, ptr %1, i1 noundef zeroext true)
  %coerce.dive4 = getelementptr inbounds %"class.hermes::vm::PseudoHandle.198", ptr %retval, i32 0, i32 0
  store ptr %call, ptr %coerce.dive4, align 8
  %coerce.dive5 = getelementptr inbounds %"class.hermes::vm::PseudoHandle.198", ptr %retval, i32 0, i32 0
  %2 = load ptr, ptr %coerce.dive5, align 8
  ret ptr %2
}

; Function Attrs: mustprogress nounwind uwtable
define hidden ptr @_ZN6hermes2vm7JSError6createERNS0_7RuntimeENS0_6HandleINS0_8JSObjectEEEb(ptr noundef nonnull align 8 dereferenceable(9832) %runtime, ptr %parentHandle.coerce, i1 noundef zeroext %catchable) #0 align 2 {
entry:
  %retval = alloca %"class.hermes::vm::PseudoHandle.198", align 8
  %parentHandle = alloca %"class.hermes::vm::Handle", align 8
  %runtime.addr = alloca ptr, align 8
  %catchable.addr = alloca i8, align 1
  %cell = alloca ptr, align 8
  %ref.tmp = alloca %"class.hermes::vm::Handle.199", align 8
  %coerce.dive = getelementptr inbounds %"class.hermes::vm::Handle", ptr %parentHandle, i32 0, i32 0
  %coerce.dive1 = getelementptr inbounds %"class.hermes::vm::HandleBase", ptr %coerce.dive, i32 0, i32 0
  store ptr %parentHandle.coerce, ptr %coerce.dive1, align 8
  store ptr %runtime, ptr %runtime.addr, align 8
  %frombool = zext i1 %catchable to i8
  store i8 %frombool, ptr %catchable.addr, align 1
  %0 = load ptr, ptr %runtime.addr, align 8
  %1 = load ptr, ptr %runtime.addr, align 8
  %2 = load ptr, ptr %runtime.addr, align 8
  %call = call noundef ptr @_ZNK6hermes2vm6HandleINS0_8JSObjectEEdeEv(ptr noundef nonnull align 8 dereferenceable(8) %parentHandle)
  %call2 = call noundef i32 @_ZN6hermes2vm8JSObject15numOverlapSlotsINS0_7JSErrorEEEjv()
  %call3 = call ptr @_ZN6hermes2vm7Runtime26getHiddenClassForPrototypeEPNS0_8JSObjectEj(ptr noundef nonnull align 8 dereferenceable(9832) %2, ptr noundef %call, i32 noundef %call2)
  %coerce.dive4 = getelementptr inbounds %"class.hermes::vm::Handle.199", ptr %ref.tmp, i32 0, i32 0
  %coerce.dive5 = getelementptr inbounds %"class.hermes::vm::HandleBase", ptr %coerce.dive4, i32 0, i32 0
  store ptr %call3, ptr %coerce.dive5, align 8
  %call6 = call noundef ptr @_ZN6hermes2vm7Runtime10makeAFixedINS0_7JSErrorELNS0_12HasFinalizerE1ELNS0_9LongLivedE0EJRS1_RNS0_6HandleINS0_8JSObjectEEENS7_INS0_11HiddenClassEEERbEEEPT_DpOT2_(ptr noundef nonnull align 8 dereferenceable(9832) %0, ptr noundef nonnull align 8 dereferenceable(9832) %1, ptr noundef nonnull align 8 dereferenceable(8) %parentHandle, ptr noundef nonnull align 8 dereferenceable(8) %ref.tmp, ptr noundef nonnull align 1 dereferenceable(1) %catchable.addr)
  store ptr %call6, ptr %cell, align 8
  %3 = load ptr, ptr %runtime.addr, align 8
  %4 = load ptr, ptr %cell, align 8
  %call7 = call ptr @_ZN6hermes2vm12JSObjectInitL18initToPseudoHandleINS0_7JSErrorEEENS0_12PseudoHandleIT_EERNS0_7RuntimeEPS5_(ptr noundef nonnull align 8 dereferenceable(9832) %3, ptr noundef %4)
  %coerce.dive8 = getelementptr inbounds %"class.hermes::vm::PseudoHandle.198", ptr %retval, i32 0, i32 0
  store ptr %call7, ptr %coerce.dive8, align 8
  %coerce.dive9 = getelementptr inbounds %"class.hermes::vm::PseudoHandle.198", ptr %retval, i32 0, i32 0
  %5 = load ptr, ptr %coerce.dive9, align 8
  ret ptr %5
}

; Function Attrs: mustprogress nounwind uwtable
define hidden ptr @_ZN6hermes2vm7JSError17createUncatchableERNS0_7RuntimeENS0_6HandleINS0_8JSObjectEEE(ptr noundef nonnull align 8 dereferenceable(9832) %runtime, ptr %parentHandle.coerce) #0 align 2 {
entry:
  %retval = alloca %"class.hermes::vm::PseudoHandle.198", align 8
  %parentHandle = alloca %"class.hermes::vm::Handle", align 8
  %runtime.addr = alloca ptr, align 8
  %agg.tmp = alloca %"class.hermes::vm::Handle", align 8
  %coerce.dive = getelementptr inbounds %"class.hermes::vm::Handle", ptr %parentHandle, i32 0, i32 0
  %coerce.dive1 = getelementptr inbounds %"class.hermes::vm::HandleBase", ptr %coerce.dive, i32 0, i32 0
  store ptr %parentHandle.coerce, ptr %coerce.dive1, align 8
  store ptr %runtime, ptr %runtime.addr, align 8
  %0 = load ptr, ptr %runtime.addr, align 8
  call void @llvm.memcpy.p0.p0.i64(ptr align 8 %agg.tmp, ptr align 8 %parentHandle, i64 8, i1 false)
  %coerce.dive2 = getelementptr inbounds %"class.hermes::vm::Handle", ptr %agg.tmp, i32 0, i32 0
  %coerce.dive3 = getelementptr inbounds %"class.hermes::vm::HandleBase", ptr %coerce.dive2, i32 0, i32 0
  %1 = load ptr, ptr %coerce.dive3, align 8
  %call = call ptr @_ZN6hermes2vm7JSError6createERNS0_7RuntimeENS0_6HandleINS0_8JSObjectEEEb(ptr noundef nonnull align 8 dereferenceable(9832) %0, ptr %1, i1 noundef zeroext false)
  %coerce.dive4 = getelementptr inbounds %"class.hermes::vm::PseudoHandle.198", ptr %retval, i32 0, i32 0
  store ptr %call, ptr %coerce.dive4, align 8
  %coerce.dive5 = getelementptr inbounds %"class.hermes::vm::PseudoHandle.198", ptr %retval, i32 0, i32 0
  %2 = load ptr, ptr %coerce.dive5, align 8
  ret ptr %2
}

; Function Attrs: mustprogress nounwind uwtable
define linkonce_odr hidden noundef ptr @_ZN6hermes2vm7Runtime10makeAFixedINS0_7JSErrorELNS0_12HasFinalizerE1ELNS0_9LongLivedE0EJRS1_RNS0_6HandleINS0_8JSObjectEEENS7_INS0_11HiddenClassEEERbEEEPT_DpOT2_(ptr noundef nonnull align 8 dereferenceable(9832) %this, ptr noundef nonnull align 8 dereferenceable(9832) %args, ptr noundef nonnull align 8 dereferenceable(8) %args1, ptr noundef nonnull align 8 dereferenceable(8) %args3, ptr noundef nonnull align 1 dereferenceable(1) %args5) #0 comdat align 2 {
entry:
  %this.addr = alloca ptr, align 8
  %args.addr = alloca ptr, align 8
  %args.addr2 = alloca ptr, align 8
  %args.addr4 = alloca ptr, align 8
  %args.addr6 = alloca ptr, align 8
  store ptr %this, ptr %this.addr, align 8
  store ptr %args, ptr %args.addr, align 8
  store ptr %args1, ptr %args.addr2, align 8
  store ptr %args3, ptr %args.addr4, align 8
  store ptr %args5, ptr %args.addr6, align 8
  %this7 = load ptr, ptr %this.addr, align 8
  %call = call noundef nonnull align 8 dereferenceable(8152) ptr @_ZN6hermes2vm7Runtime7getHeapEv(ptr noundef nonnull align 8 dereferenceable(9832) %this7)
  %0 = load ptr, ptr %args.addr, align 8
  %1 = load ptr, ptr %args.addr2, align 8
  %2 = load ptr, ptr %args.addr4, align 8
  %3 = load ptr, ptr %args.addr6, align 8
  %call8 = call noundef ptr @_ZN6hermes2vm6GCBase10makeAFixedINS0_7JSErrorELNS0_12HasFinalizerE1ELNS0_9LongLivedE0EJRNS0_7RuntimeERNS0_6HandleINS0_8JSObjectEEENS8_INS0_11HiddenClassEEERbEEEPT_DpOT2_(ptr noundef nonnull align 8 dereferenceable(741) %call, ptr noundef nonnull align 8 dereferenceable(9832) %0, ptr noundef nonnull align 8 dereferenceable(8) %1, ptr noundef nonnull align 8 dereferenceable(8) %2, ptr noundef nonnull align 1 dereferenceable(1) %3)
  ret ptr %call8
}

; Function Attrs: mustprogress nounwind uwtable
define linkonce_odr hidden ptr @_ZN6hermes2vm7Runtime26getHiddenClassForPrototypeEPNS0_8JSObjectEj(ptr noundef nonnull align 8 dereferenceable(9832) %this, ptr noundef %proto, i32 noundef %reservedSlots) #0 comdat align 2 {
entry:
  %retval = alloca %"class.hermes::vm::Handle.199", align 8
  %this.addr = alloca ptr, align 8
  %proto.addr = alloca ptr, align 8
  %reservedSlots.addr = alloca i32, align 4
  %clazz = alloca ptr, align 8
  store ptr %this, ptr %this.addr, align 8
  store ptr %proto, ptr %proto.addr, align 8
  store i32 %reservedSlots, ptr %reservedSlots.addr, align 4
  %this1 = load ptr, ptr %this.addr, align 8
  %rootClazzes_ = getelementptr inbounds %"class.hermes::vm::Runtime", ptr %this1, i32 0, i32 133
  %0 = load i32, ptr %reservedSlots.addr, align 4
  %conv = zext i32 %0 to i64
  %call = call noundef nonnull align 8 dereferenceable(8) ptr @_ZNSt5arrayIN6hermes2vm17PinnedHermesValueELm8EEixEm(ptr noundef nonnull align 8 dereferenceable(64) %rootClazzes_, i64 noundef %conv) #10
  store ptr %call, ptr %clazz, align 8
  %1 = load ptr, ptr %clazz, align 8
  %call2 = call ptr @_ZN6hermes2vm6HandleINS0_11HiddenClassEE6vmcastEPKNS0_17PinnedHermesValueE(ptr noundef %1)
  %coerce.dive = getelementptr inbounds %"class.hermes::vm::Handle.199", ptr %retval, i32 0, i32 0
  %coerce.dive3 = getelementptr inbounds %"class.hermes::vm::HandleBase", ptr %coerce.dive, i32 0, i32 0
  store ptr %call2, ptr %coerce.dive3, align 8
  %coerce.dive4 = getelementptr inbounds %"class.hermes::vm::Handle.199", ptr %retval, i32 0, i32 0
  %coerce.dive5 = getelementptr inbounds %"class.hermes::vm::HandleBase", ptr %coerce.dive4, i32 0, i32 0
  %2 = load ptr, ptr %coerce.dive5, align 8
  ret ptr %2
}

; Function Attrs: mustprogress nounwind uwtable
define internal ptr @_ZN6hermes2vm12JSObjectInitL18initToPseudoHandleINS0_7JSErrorEEENS0_12PseudoHandleIT_EERNS0_7RuntimeEPS5_(ptr noundef nonnull align 8 dereferenceable(9832) %runtime, ptr noundef %obj) #0 {
entry:
  %retval = alloca %"class.hermes::vm::PseudoHandle.198", align 8
  %runtime.addr = alloca ptr, align 8
  %obj.addr = alloca ptr, align 8
  store ptr %runtime, ptr %runtime.addr, align 8
  store ptr %obj, ptr %obj.addr, align 8
  %0 = load ptr, ptr %runtime.addr, align 8
  %1 = load ptr, ptr %obj.addr, align 8
  %call = call noundef ptr @_ZN6hermes2vm8JSObject21initDirectPropStorageINS0_7JSErrorEEEPT_RNS0_7RuntimeES5_(ptr noundef nonnull align 8 dereferenceable(9832) %0, ptr noundef %1)
  %call1 = call ptr @_ZN6hermes2vm18createPseudoHandleINS0_7JSErrorEEENS0_12PseudoHandleIT_EEPS4_(ptr noundef %call)
  %coerce.dive = getelementptr inbounds %"class.hermes::vm::PseudoHandle.198", ptr %retval, i32 0, i32 0
  store ptr %call1, ptr %coerce.dive, align 8
  %coerce.dive2 = getelementptr inbounds %"class.hermes::vm::PseudoHandle.198", ptr %retval, i32 0, i32 0
  %2 = load ptr, ptr %coerce.dive2, align 8
  ret ptr %2
}

; Function Attrs: mustprogress nounwind uwtable
define hidden noundef i32 @_ZN6hermes2vm7JSError10setupStackENS0_6HandleINS0_8JSObjectEEERNS0_7RuntimeE(ptr %selfHandle.coerce, ptr noundef nonnull align 8 dereferenceable(9832) %runtime) #0 align 2 {
entry:
  %selfHandle = alloca %"class.hermes::vm::Handle", align 8
  %runtime.addr = alloca ptr, align 8
  %gcScope = alloca %"class.hermes::vm::GCScope", align 8
  %getter = alloca %"class.hermes::vm::Handle.200", align 8
  %agg.tmp = alloca %"class.hermes::vm::Handle", align 8
  %agg.tmp5 = alloca %"class.hermes::vm::SymbolID", align 4
  %agg.tmp8 = alloca %"class.hermes::vm::Handle", align 8
  %setter = alloca %"class.hermes::vm::Handle.200", align 8
  %agg.tmp20 = alloca %"class.hermes::vm::Handle", align 8
  %agg.tmp25 = alloca %"class.hermes::vm::SymbolID", align 4
  %agg.tmp28 = alloca %"class.hermes::vm::Handle", align 8
  %ref.tmp = alloca %"class.hermes::vm::HermesValue", align 8
  %agg.tmp41 = alloca %"class.hermes::vm::Handle.195", align 8
  %agg.tmp42 = alloca %"class.hermes::vm::Handle.195", align 8
  %accessor = alloca %"class.hermes::vm::Handle.201", align 8
  %dpf = alloca %"union.hermes::vm::DefinePropertyFlags", align 4
  %res = alloca %"class.hermes::vm::CallResult", align 4
  %agg.tmp70 = alloca %"class.hermes::vm::Handle", align 8
  %agg.tmp71 = alloca %"class.hermes::vm::SymbolID", align 4
  %agg.tmp74 = alloca %"union.hermes::vm::DefinePropertyFlags", align 4
  %agg.tmp75 = alloca %"class.hermes::vm::Handle.0", align 8
  %agg.tmp76 = alloca %"union.hermes::vm::PropOpFlags", align 4
  %coerce.dive = getelementptr inbounds %"class.hermes::vm::Handle", ptr %selfHandle, i32 0, i32 0
  %coerce.dive1 = getelementptr inbounds %"class.hermes::vm::HandleBase", ptr %coerce.dive, i32 0, i32 0
  store ptr %selfHandle.coerce, ptr %coerce.dive1, align 8
  store ptr %runtime, ptr %runtime.addr, align 8
  %0 = load ptr, ptr %runtime.addr, align 8
  %jsErrorStackAccessor = getelementptr inbounds %"class.hermes::vm::Runtime", ptr %0, i32 0, i32 83
  %call = call noundef zeroext i1 @_ZNK6hermes2vm11HermesValue11isUndefinedEv(ptr noundef nonnull align 8 dereferenceable(8) %jsErrorStackAccessor)
  br i1 %call, label %if.then, label %if.end

if.then:                                          ; preds = %entry
  %1 = load ptr, ptr %runtime.addr, align 8
  call void @_ZN6hermes2vm7GCScopeC2ERNS0_15HandleRootOwnerEPKcj(ptr noundef nonnull align 8 dereferenceable(212) %gcScope, ptr noundef nonnull align 8 dereferenceable(16) %1, ptr noundef null, i32 noundef 48)
  %2 = load ptr, ptr %runtime.addr, align 8
  %3 = load ptr, ptr %runtime.addr, align 8
  %functionPrototype = getelementptr inbounds %"class.hermes::vm::Runtime", ptr %3, i32 0, i32 24
  %call2 = call ptr @_ZN6hermes2vm6HandleINS0_8JSObjectEE6vmcastEPKNS0_17PinnedHermesValueE(ptr noundef %functionPrototype)
  %coerce.dive3 = getelementptr inbounds %"class.hermes::vm::Handle", ptr %agg.tmp, i32 0, i32 0
  %coerce.dive4 = getelementptr inbounds %"class.hermes::vm::HandleBase", ptr %coerce.dive3, i32 0, i32 0
  store ptr %call2, ptr %coerce.dive4, align 8
  %call6 = call i32 @_ZN6hermes2vm10Predefined11getSymbolIDENS1_3StrE(i32 noundef 13)
  %coerce.dive7 = getelementptr inbounds %"class.hermes::vm::SymbolID", ptr %agg.tmp5, i32 0, i32 0
  store i32 %call6, ptr %coerce.dive7, align 4
  %call9 = call ptr @_ZN6hermes2vm15HandleRootOwner14makeNullHandleINS0_8JSObjectEEENS0_6HandleIT_EEv()
  %coerce.dive10 = getelementptr inbounds %"class.hermes::vm::Handle", ptr %agg.tmp8, i32 0, i32 0
  %coerce.dive11 = getelementptr inbounds %"class.hermes::vm::HandleBase", ptr %coerce.dive10, i32 0, i32 0
  store ptr %call9, ptr %coerce.dive11, align 8
  %coerce.dive12 = getelementptr inbounds %"class.hermes::vm::Handle", ptr %agg.tmp, i32 0, i32 0
  %coerce.dive13 = getelementptr inbounds %"class.hermes::vm::HandleBase", ptr %coerce.dive12, i32 0, i32 0
  %4 = load ptr, ptr %coerce.dive13, align 8
  %coerce.dive14 = getelementptr inbounds %"class.hermes::vm::SymbolID", ptr %agg.tmp5, i32 0, i32 0
  %5 = load i32, ptr %coerce.dive14, align 4
  %coerce.dive15 = getelementptr inbounds %"class.hermes::vm::Handle", ptr %agg.tmp8, i32 0, i32 0
  %coerce.dive16 = getelementptr inbounds %"class.hermes::vm::HandleBase", ptr %coerce.dive15, i32 0, i32 0
  %6 = load ptr, ptr %coerce.dive16, align 8
  %coerce.val.pi = ptrtoint ptr %6 to i64
  %call17 = call ptr @_ZN6hermes2vm14NativeFunction6createERNS0_7RuntimeENS0_6HandleINS0_8JSObjectEEEPvPFNS0_10CallResultINS0_11HermesValueELNS0_6detail20CallResultSpecializeE2EEES7_S3_NS0_10NativeArgsEENS0_8SymbolIDEjS6_j(ptr noundef nonnull align 8 dereferenceable(9832) %2, ptr %4, ptr noundef null, ptr noundef @_ZN6hermes2vm16errorStackGetterEPvRNS0_7RuntimeENS0_10NativeArgsE, i32 %5, i32 noundef 0, i64 %coerce.val.pi, i32 noundef 0)
  %coerce.dive18 = getelementptr inbounds %"class.hermes::vm::Handle.200", ptr %getter, i32 0, i32 0
  %coerce.dive19 = getelementptr inbounds %"class.hermes::vm::HandleBase", ptr %coerce.dive18, i32 0, i32 0
  store ptr %call17, ptr %coerce.dive19, align 8
  %7 = load ptr, ptr %runtime.addr, align 8
  %8 = load ptr, ptr %runtime.addr, align 8
  %functionPrototype21 = getelementptr inbounds %"class.hermes::vm::Runtime", ptr %8, i32 0, i32 24
  %call22 = call ptr @_ZN6hermes2vm6HandleINS0_8JSObjectEE6vmcastEPKNS0_17PinnedHermesValueE(ptr noundef %functionPrototype21)
  %coerce.dive23 = getelementptr inbounds %"class.hermes::vm::Handle", ptr %agg.tmp20, i32 0, i32 0
  %coerce.dive24 = getelementptr inbounds %"class.hermes::vm::HandleBase", ptr %coerce.dive23, i32 0, i32 0
  store ptr %call22, ptr %coerce.dive24, align 8
  %call26 = call i32 @_ZN6hermes2vm10Predefined11getSymbolIDENS1_3StrE(i32 noundef 13)
  %coerce.dive27 = getelementptr inbounds %"class.hermes::vm::SymbolID", ptr %agg.tmp25, i32 0, i32 0
  store i32 %call26, ptr %coerce.dive27, align 4
  %call29 = call ptr @_ZN6hermes2vm15HandleRootOwner14makeNullHandleINS0_8JSObjectEEENS0_6HandleIT_EEv()
  %coerce.dive30 = getelementptr inbounds %"class.hermes::vm::Handle", ptr %agg.tmp28, i32 0, i32 0
  %coerce.dive31 = getelementptr inbounds %"class.hermes::vm::HandleBase", ptr %coerce.dive30, i32 0, i32 0
  store ptr %call29, ptr %coerce.dive31, align 8
  %coerce.dive32 = getelementptr inbounds %"class.hermes::vm::Handle", ptr %agg.tmp20, i32 0, i32 0
  %coerce.dive33 = getelementptr inbounds %"class.hermes::vm::HandleBase", ptr %coerce.dive32, i32 0, i32 0
  %9 = load ptr, ptr %coerce.dive33, align 8
  %coerce.dive34 = getelementptr inbounds %"class.hermes::vm::SymbolID", ptr %agg.tmp25, i32 0, i32 0
  %10 = load i32, ptr %coerce.dive34, align 4
  %coerce.dive35 = getelementptr inbounds %"class.hermes::vm::Handle", ptr %agg.tmp28, i32 0, i32 0
  %coerce.dive36 = getelementptr inbounds %"class.hermes::vm::HandleBase", ptr %coerce.dive35, i32 0, i32 0
  %11 = load ptr, ptr %coerce.dive36, align 8
  %coerce.val.pi37 = ptrtoint ptr %11 to i64
  %call38 = call ptr @_ZN6hermes2vm14NativeFunction6createERNS0_7RuntimeENS0_6HandleINS0_8JSObjectEEEPvPFNS0_10CallResultINS0_11HermesValueELNS0_6detail20CallResultSpecializeE2EEES7_S3_NS0_10NativeArgsEENS0_8SymbolIDEjS6_j(ptr noundef nonnull align 8 dereferenceable(9832) %7, ptr %9, ptr noundef null, ptr noundef @_ZN6hermes2vm16errorStackSetterEPvRNS0_7RuntimeENS0_10NativeArgsE, i32 %10, i32 noundef 1, i64 %coerce.val.pi37, i32 noundef 0)
  %coerce.dive39 = getelementptr inbounds %"class.hermes::vm::Handle.200", ptr %setter, i32 0, i32 0
  %coerce.dive40 = getelementptr inbounds %"class.hermes::vm::HandleBase", ptr %coerce.dive39, i32 0, i32 0
  store ptr %call38, ptr %coerce.dive40, align 8
  %12 = load ptr, ptr %runtime.addr, align 8
  call void @_ZN6hermes2vm6HandleINS0_8CallableEEC2INS0_14NativeFunctionEvEERKNS1_IT_EE(ptr noundef nonnull align 8 dereferenceable(8) %agg.tmp41, ptr noundef nonnull align 8 dereferenceable(8) %getter)
  call void @_ZN6hermes2vm6HandleINS0_8CallableEEC2INS0_14NativeFunctionEvEERKNS1_IT_EE(ptr noundef nonnull align 8 dereferenceable(8) %agg.tmp42, ptr noundef nonnull align 8 dereferenceable(8) %setter)
  %coerce.dive43 = getelementptr inbounds %"class.hermes::vm::Handle.195", ptr %agg.tmp41, i32 0, i32 0
  %coerce.dive44 = getelementptr inbounds %"class.hermes::vm::HandleBase", ptr %coerce.dive43, i32 0, i32 0
  %13 = load ptr, ptr %coerce.dive44, align 8
  %coerce.dive45 = getelementptr inbounds %"class.hermes::vm::Handle.195", ptr %agg.tmp42, i32 0, i32 0
  %coerce.dive46 = getelementptr inbounds %"class.hermes::vm::HandleBase", ptr %coerce.dive45, i32 0, i32 0
  %14 = load ptr, ptr %coerce.dive46, align 8
  %call47 = call i64 @_ZN6hermes2vm16PropertyAccessor6createERNS0_7RuntimeENS0_6HandleINS0_8CallableEEES6_(ptr noundef nonnull align 8 dereferenceable(9832) %12, ptr %13, ptr %14)
  %coerce.dive48 = getelementptr inbounds %"class.hermes::vm::HermesValue", ptr %ref.tmp, i32 0, i32 0
  store i64 %call47, ptr %coerce.dive48, align 8
  %15 = load ptr, ptr %runtime.addr, align 8
  %jsErrorStackAccessor49 = getelementptr inbounds %"class.hermes::vm::Runtime", ptr %15, i32 0, i32 83
  %call50 = call noundef nonnull align 8 dereferenceable(8) ptr @_ZN6hermes2vm17PinnedHermesValueaSERKNS0_11HermesValueE(ptr noundef nonnull align 8 dereferenceable(8) %jsErrorStackAccessor49, ptr noundef nonnull align 8 dereferenceable(8) %ref.tmp)
  call void @_ZN6hermes2vm7GCScopeD1Ev(ptr noundef nonnull align 8 dereferenceable(212) %gcScope) #10
  br label %if.end

if.end:                                           ; preds = %if.then, %entry
  %16 = load ptr, ptr %runtime.addr, align 8
  %jsErrorStackAccessor51 = getelementptr inbounds %"class.hermes::vm::Runtime", ptr %16, i32 0, i32 83
  %call52 = call ptr @_ZN6hermes2vm6HandleINS0_16PropertyAccessorEE6vmcastEPKNS0_17PinnedHermesValueE(ptr noundef %jsErrorStackAccessor51)
  %coerce.dive53 = getelementptr inbounds %"class.hermes::vm::Handle.201", ptr %accessor, i32 0, i32 0
  %coerce.dive54 = getelementptr inbounds %"class.hermes::vm::HandleBase", ptr %coerce.dive53, i32 0, i32 0
  store ptr %call52, ptr %coerce.dive54, align 8
  call void @_ZN6hermes2vm19DefinePropertyFlagsC2Ev(ptr noundef nonnull align 4 dereferenceable(4) %dpf)
  %bf.load = load i16, ptr %dpf, align 4
  %bf.clear = and i16 %bf.load, -9
  %bf.set = or i16 %bf.clear, 8
  store i16 %bf.set, ptr %dpf, align 4
  %bf.load55 = load i16, ptr %dpf, align 4
  %bf.clear56 = and i16 %bf.load55, -33
  %bf.set57 = or i16 %bf.clear56, 32
  store i16 %bf.set57, ptr %dpf, align 4
  %bf.load58 = load i16, ptr %dpf, align 4
  %bf.clear59 = and i16 %bf.load58, -65
  %bf.set60 = or i16 %bf.clear59, 64
  store i16 %bf.set60, ptr %dpf, align 4
  %bf.load61 = load i16, ptr %dpf, align 4
  %bf.clear62 = and i16 %bf.load61, -129
  %bf.set63 = or i16 %bf.clear62, 128
  store i16 %bf.set63, ptr %dpf, align 4
  %bf.load64 = load i16, ptr %dpf, align 4
  %bf.clear65 = and i16 %bf.load64, -2
  %bf.set66 = or i16 %bf.clear65, 0
  store i16 %bf.set66, ptr %dpf, align 4
  %bf.load67 = load i16, ptr %dpf, align 4
  %bf.clear68 = and i16 %bf.load67, -5
  %bf.set69 = or i16 %bf.clear68, 4
  store i16 %bf.set69, ptr %dpf, align 4
  call void @llvm.memcpy.p0.p0.i64(ptr align 8 %agg.tmp70, ptr align 8 %selfHandle, i64 8, i1 false)
  %17 = load ptr, ptr %runtime.addr, align 8
  %call72 = call i32 @_ZN6hermes2vm10Predefined11getSymbolIDENS1_3StrE(i32 noundef 140)
  %coerce.dive73 = getelementptr inbounds %"class.hermes::vm::SymbolID", ptr %agg.tmp71, i32 0, i32 0
  store i32 %call72, ptr %coerce.dive73, align 4
  call void @llvm.memcpy.p0.p0.i64(ptr align 4 %agg.tmp74, ptr align 4 %dpf, i64 4, i1 false)
  call void @_ZN6hermes2vm6HandleINS0_11HermesValueEEC2INS0_16PropertyAccessorEvEERKNS1_IT_EE(ptr noundef nonnull align 8 dereferenceable(8) %agg.tmp75, ptr noundef nonnull align 8 dereferenceable(8) %accessor)
  call void @llvm.memset.p0.i64(ptr align 4 %agg.tmp76, i8 0, i64 4, i1 false)
  call void @_ZN6hermes2vm11PropOpFlagsC2Ev(ptr noundef nonnull align 4 dereferenceable(4) %agg.tmp76) #10
  %coerce.dive77 = getelementptr inbounds %"class.hermes::vm::Handle", ptr %agg.tmp70, i32 0, i32 0
  %coerce.dive78 = getelementptr inbounds %"class.hermes::vm::HandleBase", ptr %coerce.dive77, i32 0, i32 0
  %18 = load ptr, ptr %coerce.dive78, align 8
  %coerce.dive79 = getelementptr inbounds %"class.hermes::vm::SymbolID", ptr %agg.tmp71, i32 0, i32 0
  %19 = load i32, ptr %coerce.dive79, align 4
  %coerce.dive80 = getelementptr inbounds %"union.hermes::vm::DefinePropertyFlags", ptr %agg.tmp74, i32 0, i32 0
  %20 = load i32, ptr %coerce.dive80, align 4
  %coerce.dive81 = getelementptr inbounds %"class.hermes::vm::Handle.0", ptr %agg.tmp75, i32 0, i32 0
  %coerce.dive82 = getelementptr inbounds %"class.hermes::vm::HandleBase", ptr %coerce.dive81, i32 0, i32 0
  %21 = load ptr, ptr %coerce.dive82, align 8
  %coerce.dive83 = getelementptr inbounds %"union.hermes::vm::PropOpFlags", ptr %agg.tmp76, i32 0, i32 0
  %22 = load i32, ptr %coerce.dive83, align 4
  %call84 = call i32 @_ZN6hermes2vm8JSObject17defineOwnPropertyENS0_6HandleIS1_EERNS0_7RuntimeENS0_8SymbolIDENS0_19DefinePropertyFlagsENS2_INS0_11HermesValueEEENS0_11PropOpFlagsE(ptr %18, ptr noundef nonnull align 8 dereferenceable(9832) %17, i32 %19, i32 %20, ptr %21, i32 %22)
  store i32 %call84, ptr %res, align 4
  %call85 = call noundef zeroext i1 @_ZN6hermes2vmeqIbEEbRKNS0_10CallResultIT_Xsr6detail23GetCallResultSpecializeIS3_EE5valueEEENS0_15ExecutionStatusE(ptr noundef nonnull align 4 dereferenceable(2) %res, i32 noundef 0)
  br i1 %call85, label %if.then86, label %if.end87

if.then86:                                        ; preds = %if.end
  %23 = load ptr, ptr %runtime.addr, align 8
  call void @_ZN6hermes2vm7Runtime16clearThrownValueEv(ptr noundef nonnull align 8 dereferenceable(9832) %23)
  br label %if.end87

if.end87:                                         ; preds = %if.then86, %if.end
  ret i32 1
}

; Function Attrs: mustprogress nounwind uwtable
define linkonce_odr hidden noundef zeroext i1 @_ZNK6hermes2vm11HermesValue11isUndefinedEv(ptr noundef nonnull align 8 dereferenceable(8) %this) #0 comdat align 2 {
entry:
  %this.addr = alloca ptr, align 8
  store ptr %this, ptr %this.addr, align 8
  %this1 = load ptr, ptr %this.addr, align 8
  %call = call noundef i64 @_ZNK6hermes2vm11HermesValue7getETagEv(ptr noundef nonnull align 8 dereferenceable(8) %this1)
  %cmp = icmp eq i64 %call, -12
  ret i1 %cmp
}

declare ptr @_ZN6hermes2vm14NativeFunction6createERNS0_7RuntimeENS0_6HandleINS0_8JSObjectEEEPvPFNS0_10CallResultINS0_11HermesValueELNS0_6detail20CallResultSpecializeE2EEES7_S3_NS0_10NativeArgsEENS0_8SymbolIDEjS6_j(ptr noundef nonnull align 8 dereferenceable(9832), ptr, ptr noundef, ptr noundef, i32, i32 noundef, i64, i32 noundef) #1

; Function Attrs: mustprogress nounwind uwtable
define linkonce_odr hidden ptr @_ZN6hermes2vm15HandleRootOwner14makeNullHandleINS0_8JSObjectEEENS0_6HandleIT_EEv() #0 comdat align 2 {
entry:
  %retval = alloca %"class.hermes::vm::Handle", align 8
  %call = call ptr @_ZN6hermes2vm6HandleINS0_8JSObjectEE14vmcast_or_nullEPKNS0_17PinnedHermesValueE(ptr noundef @_ZN6hermes2vm15HandleRootOwner12nullPointer_E)
  %coerce.dive = getelementptr inbounds %"class.hermes::vm::Handle", ptr %retval, i32 0, i32 0
  %coerce.dive1 = getelementptr inbounds %"class.hermes::vm::HandleBase", ptr %coerce.dive, i32 0, i32 0
  store ptr %call, ptr %coerce.dive1, align 8
  %coerce.dive2 = getelementptr inbounds %"class.hermes::vm::Handle", ptr %retval, i32 0, i32 0
  %coerce.dive3 = getelementptr inbounds %"class.hermes::vm::HandleBase", ptr %coerce.dive2, i32 0, i32 0
  %0 = load ptr, ptr %coerce.dive3, align 8
  ret ptr %0
}

declare i64 @_ZN6hermes2vm16PropertyAccessor6createERNS0_7RuntimeENS0_6HandleINS0_8CallableEEES6_(ptr noundef nonnull align 8 dereferenceable(9832), ptr, ptr) #1

; Function Attrs: mustprogress nounwind uwtable
define linkonce_odr hidden void @_ZN6hermes2vm6HandleINS0_8CallableEEC2INS0_14NativeFunctionEvEERKNS1_IT_EE(ptr noundef nonnull align 8 dereferenceable(8) %this, ptr noundef nonnull align 8 dereferenceable(8) %other) unnamed_addr #0 comdat align 2 {
entry:
  %this.addr = alloca ptr, align 8
  %other.addr = alloca ptr, align 8
  store ptr %this, ptr %this.addr, align 8
  store ptr %other, ptr %other.addr, align 8
  %this1 = load ptr, ptr %this.addr, align 8
  %0 = load ptr, ptr %other.addr, align 8
  call void @llvm.memcpy.p0.p0.i64(ptr align 8 %this1, ptr align 8 %0, i64 8, i1 false)
  ret void
}

; Function Attrs: mustprogress nounwind uwtable
define linkonce_odr hidden noundef nonnull align 8 dereferenceable(8) ptr @_ZN6hermes2vm17PinnedHermesValueaSERKNS0_11HermesValueE(ptr noundef nonnull align 8 dereferenceable(8) %this, ptr noundef nonnull align 8 dereferenceable(8) %hv) #0 comdat align 2 {
entry:
  %this.addr = alloca ptr, align 8
  %hv.addr = alloca ptr, align 8
  %agg.tmp = alloca %"class.hermes::vm::HermesValue", align 8
  store ptr %this, ptr %this.addr, align 8
  store ptr %hv, ptr %hv.addr, align 8
  %this1 = load ptr, ptr %this.addr, align 8
  %0 = load ptr, ptr %hv.addr, align 8
  call void @llvm.memcpy.p0.p0.i64(ptr align 8 %agg.tmp, ptr align 8 %0, i64 8, i1 false)
  %coerce.dive = getelementptr inbounds %"class.hermes::vm::HermesValue", ptr %agg.tmp, i32 0, i32 0
  %1 = load i64, ptr %coerce.dive, align 8
  call void @_ZN6hermes2vm11HermesValue12setNoBarrierES1_(ptr noundef nonnull align 8 dereferenceable(8) %this1, i64 %1)
  ret ptr %this1
}

; Function Attrs: mustprogress nounwind uwtable
define linkonce_odr hidden ptr @_ZN6hermes2vm6HandleINS0_16PropertyAccessorEE6vmcastEPKNS0_17PinnedHermesValueE(ptr noundef %valueAddr) #0 comdat align 2 {
entry:
  %retval = alloca %"class.hermes::vm::Handle.201", align 8
  %valueAddr.addr = alloca ptr, align 8
  %agg.tmp = alloca %"class.hermes::vm::HermesValue", align 8
  store ptr %valueAddr, ptr %valueAddr.addr, align 8
  %0 = load ptr, ptr %valueAddr.addr, align 8
  call void @llvm.memcpy.p0.p0.i64(ptr align 8 %agg.tmp, ptr align 8 %0, i64 8, i1 false)
  %coerce.dive = getelementptr inbounds %"class.hermes::vm::HermesValue", ptr %agg.tmp, i32 0, i32 0
  %1 = load i64, ptr %coerce.dive, align 8
  call void @_ZN6hermes2vm15HermesValueCastINS0_16PropertyAccessorELb1EE11assertValidENS0_11HermesValueE(i64 %1)
  %2 = load ptr, ptr %valueAddr.addr, align 8
  call void @_ZN6hermes2vm6HandleINS0_16PropertyAccessorEEC2EPKNS0_17PinnedHermesValueEb(ptr noundef nonnull align 8 dereferenceable(8) %retval, ptr noundef %2, i1 noundef zeroext true)
  %coerce.dive1 = getelementptr inbounds %"class.hermes::vm::Handle.201", ptr %retval, i32 0, i32 0
  %coerce.dive2 = getelementptr inbounds %"class.hermes::vm::HandleBase", ptr %coerce.dive1, i32 0, i32 0
  %3 = load ptr, ptr %coerce.dive2, align 8
  ret ptr %3
}

; Function Attrs: mustprogress nounwind uwtable
define linkonce_odr hidden void @_ZN6hermes2vm19DefinePropertyFlagsC2Ev(ptr noundef nonnull align 4 dereferenceable(4) %this) unnamed_addr #0 comdat align 2 {
entry:
  %this.addr = alloca ptr, align 8
  store ptr %this, ptr %this.addr, align 8
  %this1 = load ptr, ptr %this.addr, align 8
  store i32 0, ptr %this1, align 4
  ret void
}

; Function Attrs: mustprogress nounwind uwtable
define linkonce_odr hidden void @_ZN6hermes2vm6HandleINS0_11HermesValueEEC2INS0_16PropertyAccessorEvEERKNS1_IT_EE(ptr noundef nonnull align 8 dereferenceable(8) %this, ptr noundef nonnull align 8 dereferenceable(8) %other) unnamed_addr #0 comdat align 2 {
entry:
  %this.addr = alloca ptr, align 8
  %other.addr = alloca ptr, align 8
  store ptr %this, ptr %this.addr, align 8
  store ptr %other, ptr %other.addr, align 8
  %this1 = load ptr, ptr %this.addr, align 8
  %0 = load ptr, ptr %other.addr, align 8
  call void @llvm.memcpy.p0.p0.i64(ptr align 8 %this1, ptr align 8 %0, i64 8, i1 false)
  ret void
}

; Function Attrs: mustprogress nounwind uwtable
define hidden ptr @_ZN6hermes2vm7JSError8toStringENS0_6HandleINS0_8JSObjectEEERNS0_7RuntimeE(ptr %O.coerce, ptr noundef nonnull align 8 dereferenceable(9832) %runtime) #0 align 2 {
entry:
  %retval = alloca %"class.hermes::vm::CallResult.202", align 8
  %O = alloca %"class.hermes::vm::Handle", align 8
  %runtime.addr = alloca ptr, align 8
  %propRes = alloca %"class.hermes::vm::CallResult.192", align 8
  %agg.tmp = alloca %"class.hermes::vm::Handle", align 8
  %agg.tmp2 = alloca %"class.hermes::vm::SymbolID", align 4
  %agg.tmp4 = alloca %"union.hermes::vm::PropOpFlags", align 4
  %name = alloca %"class.hermes::vm::Handle.0", align 8
  %nameStr = alloca %"class.hermes::vm::MutableHandle.204", align 8
  %strRes = alloca %"class.hermes::vm::CallResult.205", align 8
  %agg.tmp21 = alloca %"class.hermes::vm::Handle.0", align 8
  %ref.tmp = alloca %"class.hermes::vm::CallResult.192", align 8
  %agg.tmp34 = alloca %"class.hermes::vm::Handle", align 8
  %agg.tmp35 = alloca %"class.hermes::vm::SymbolID", align 4
  %agg.tmp38 = alloca %"union.hermes::vm::PropOpFlags", align 4
  %msg = alloca %"class.hermes::vm::Handle.0", align 8
  %msgStr = alloca %"class.hermes::vm::MutableHandle.204", align 8
  %strRes58 = alloca %"class.hermes::vm::CallResult.205", align 8
  %agg.tmp59 = alloca %"class.hermes::vm::Handle.0", align 8
  %agg.tmp75 = alloca %"class.hermes::vm::Handle.203", align 8
  %agg.tmp83 = alloca %"class.hermes::vm::Handle.203", align 8
  %length = alloca %"class.hermes::SafeUInt32", align 8
  %builderRes = alloca %"class.hermes::vm::CallResult.207", align 8
  %agg.tmp91 = alloca %"class.hermes::SafeUInt32", align 8
  %cleanup.dest.slot = alloca i32, align 4
  %builder = alloca %"class.hermes::vm::StringBuilder", align 8
  %agg.tmp96 = alloca %"class.hermes::vm::Handle.203", align 8
  %agg.tmp99 = alloca %"class.llvh::ArrayRef.210", align 8
  %agg.tmp100 = alloca %"class.hermes::vm::Handle.203", align 8
  %agg.tmp103 = alloca %"class.hermes::vm::Handle.203", align 8
  %coerce.dive = getelementptr inbounds %"class.hermes::vm::Handle", ptr %O, i32 0, i32 0
  %coerce.dive1 = getelementptr inbounds %"class.hermes::vm::HandleBase", ptr %coerce.dive, i32 0, i32 0
  store ptr %O.coerce, ptr %coerce.dive1, align 8
  store ptr %runtime, ptr %runtime.addr, align 8
  call void @llvm.memcpy.p0.p0.i64(ptr align 8 %agg.tmp, ptr align 8 %O, i64 8, i1 false)
  %0 = load ptr, ptr %runtime.addr, align 8
  %call = call i32 @_ZN6hermes2vm10Predefined11getSymbolIDENS1_3StrE(i32 noundef 136)
  %coerce.dive3 = getelementptr inbounds %"class.hermes::vm::SymbolID", ptr %agg.tmp2, i32 0, i32 0
  store i32 %call, ptr %coerce.dive3, align 4
  call void @llvm.memset.p0.i64(ptr align 4 %agg.tmp4, i8 0, i64 4, i1 false)
  call void @_ZN6hermes2vm11PropOpFlagsC2Ev(ptr noundef nonnull align 4 dereferenceable(4) %agg.tmp4) #10
  %coerce.dive5 = getelementptr inbounds %"class.hermes::vm::Handle", ptr %agg.tmp, i32 0, i32 0
  %coerce.dive6 = getelementptr inbounds %"class.hermes::vm::HandleBase", ptr %coerce.dive5, i32 0, i32 0
  %1 = load ptr, ptr %coerce.dive6, align 8
  %coerce.dive7 = getelementptr inbounds %"class.hermes::vm::SymbolID", ptr %agg.tmp2, i32 0, i32 0
  %2 = load i32, ptr %coerce.dive7, align 4
  %coerce.dive8 = getelementptr inbounds %"union.hermes::vm::PropOpFlags", ptr %agg.tmp4, i32 0, i32 0
  %3 = load i32, ptr %coerce.dive8, align 4
  %call9 = call { i32, i64 } @_ZN6hermes2vm8JSObject12getNamed_RJSENS0_6HandleIS1_EERNS0_7RuntimeENS0_8SymbolIDENS0_11PropOpFlagsEPNS0_18PropertyCacheEntryE(ptr %1, ptr noundef nonnull align 8 dereferenceable(9832) %0, i32 %2, i32 %3, ptr noundef null)
  %4 = getelementptr inbounds { i32, i64 }, ptr %propRes, i32 0, i32 0
  %5 = extractvalue { i32, i64 } %call9, 0
  store i32 %5, ptr %4, align 8
  %6 = getelementptr inbounds { i32, i64 }, ptr %propRes, i32 0, i32 1
  %7 = extractvalue { i32, i64 } %call9, 1
  store i64 %7, ptr %6, align 8
  %call10 = call noundef zeroext i1 @_ZN6hermes2vmeqINS0_12PseudoHandleINS0_11HermesValueEEEEEbRKNS0_10CallResultIT_Xsr6detail23GetCallResultSpecializeIS6_EE5valueEEENS0_15ExecutionStatusE(ptr noundef nonnull align 8 dereferenceable(16) %propRes, i32 noundef 0)
  br i1 %call10, label %if.then, label %if.end

if.then:                                          ; preds = %entry
  call void @_ZN6hermes2vm10CallResultINS0_6HandleINS0_15StringPrimitiveEEELNS0_6detail20CallResultSpecializeE4EEC2ENS0_15ExecutionStatusE(ptr noundef nonnull align 8 dereferenceable(8) %retval, i32 noundef 0)
  br label %return

if.end:                                           ; preds = %entry
  %8 = load ptr, ptr %runtime.addr, align 8
  %call11 = call noundef nonnull align 8 dereferenceable(8) ptr @_ZN6hermes2vm10CallResultINS0_12PseudoHandleINS0_11HermesValueEEELNS0_6detail20CallResultSpecializeE5EEdeEv(ptr noundef nonnull align 8 dereferenceable(16) %propRes)
  %call12 = call ptr @_ZN6hermes2vm15HandleRootOwner10makeHandleINS0_11HermesValueEEENS0_6HandleIT_EEONS0_12PseudoHandleIS5_EE(ptr noundef nonnull align 8 dereferenceable(16) %8, ptr noundef nonnull align 8 dereferenceable(8) %call11)
  %coerce.dive13 = getelementptr inbounds %"class.hermes::vm::Handle.0", ptr %name, i32 0, i32 0
  %coerce.dive14 = getelementptr inbounds %"class.hermes::vm::HandleBase", ptr %coerce.dive13, i32 0, i32 0
  store ptr %call12, ptr %coerce.dive14, align 8
  %9 = load ptr, ptr %runtime.addr, align 8
  %call15 = call noundef ptr @_ZN6hermes2vm16StringTraitsImplINS0_15StringPrimitiveEE12defaultValueEv()
  call void @_ZN6hermes2vm13MutableHandleINS0_15StringPrimitiveEEC2ERNS0_15HandleRootOwnerEPS2_(ptr noundef nonnull align 8 dereferenceable(8) %nameStr, ptr noundef nonnull align 8 dereferenceable(16) %9, ptr noundef %call15)
  %call16 = call noundef ptr @_ZNK6hermes2vm6HandleINS0_11HermesValueEEptEv(ptr noundef nonnull align 8 dereferenceable(8) %name)
  %call17 = call noundef zeroext i1 @_ZNK6hermes2vm11HermesValue11isUndefinedEv(ptr noundef nonnull align 8 dereferenceable(8) %call16)
  br i1 %call17, label %if.then18, label %if.else

if.then18:                                        ; preds = %if.end
  %10 = load ptr, ptr %runtime.addr, align 8
  %call19 = call noundef ptr @_ZN6hermes2vm7Runtime19getPredefinedStringENS0_10Predefined3StrE(ptr noundef nonnull align 8 dereferenceable(9832) %10, i32 noundef 144)
  %call20 = call noundef nonnull align 8 dereferenceable(8) ptr @_ZN6hermes2vm13MutableHandleINS0_15StringPrimitiveEEaSEPS2_(ptr noundef nonnull align 8 dereferenceable(8) %nameStr, ptr noundef %call19)
  br label %if.end33

if.else:                                          ; preds = %if.end
  %11 = load ptr, ptr %runtime.addr, align 8
  call void @llvm.memcpy.p0.p0.i64(ptr align 8 %agg.tmp21, ptr align 8 %name, i64 8, i1 false)
  %coerce.dive22 = getelementptr inbounds %"class.hermes::vm::Handle.0", ptr %agg.tmp21, i32 0, i32 0
  %coerce.dive23 = getelementptr inbounds %"class.hermes::vm::HandleBase", ptr %coerce.dive22, i32 0, i32 0
  %12 = load ptr, ptr %coerce.dive23, align 8
  %call24 = call ptr @_ZN6hermes2vm12toString_RJSERNS0_7RuntimeENS0_6HandleINS0_11HermesValueEEE(ptr noundef nonnull align 8 dereferenceable(9832) %11, ptr %12)
  %coerce.dive25 = getelementptr inbounds %"class.hermes::vm::CallResult.205", ptr %strRes, i32 0, i32 0
  %coerce.dive26 = getelementptr inbounds %"class.hermes::vm::PseudoHandle.206", ptr %coerce.dive25, i32 0, i32 0
  store ptr %call24, ptr %coerce.dive26, align 8
  %call27 = call noundef zeroext i1 @_ZN6hermes2vmeqINS0_12PseudoHandleINS0_15StringPrimitiveEEEEEbRKNS0_10CallResultIT_Xsr6detail23GetCallResultSpecializeIS6_EE5valueEEENS0_15ExecutionStatusE(ptr noundef nonnull align 8 dereferenceable(8) %strRes, i32 noundef 0)
  br i1 %call27, label %if.then28, label %if.end29

if.then28:                                        ; preds = %if.else
  call void @_ZN6hermes2vm10CallResultINS0_6HandleINS0_15StringPrimitiveEEELNS0_6detail20CallResultSpecializeE4EEC2ENS0_15ExecutionStatusE(ptr noundef nonnull align 8 dereferenceable(8) %retval, i32 noundef 0)
  br label %return

if.end29:                                         ; preds = %if.else
  %call30 = call noundef ptr @_ZN6hermes2vm10CallResultINS0_12PseudoHandleINS0_15StringPrimitiveEEELNS0_6detail20CallResultSpecializeE6EEptEv(ptr noundef nonnull align 8 dereferenceable(8) %strRes)
  %call31 = call noundef ptr @_ZNK6hermes2vm12PseudoHandleINS0_15StringPrimitiveEE3getEv(ptr noundef nonnull align 8 dereferenceable(8) %call30)
  %call32 = call noundef nonnull align 8 dereferenceable(8) ptr @_ZN6hermes2vm13MutableHandleINS0_15StringPrimitiveEEaSEPS2_(ptr noundef nonnull align 8 dereferenceable(8) %nameStr, ptr noundef %call31)
  br label %if.end33

if.end33:                                         ; preds = %if.end29, %if.then18
  call void @llvm.memcpy.p0.p0.i64(ptr align 8 %agg.tmp34, ptr align 8 %O, i64 8, i1 false)
  %13 = load ptr, ptr %runtime.addr, align 8
  %call36 = call i32 @_ZN6hermes2vm10Predefined11getSymbolIDENS1_3StrE(i32 noundef 138)
  %coerce.dive37 = getelementptr inbounds %"class.hermes::vm::SymbolID", ptr %agg.tmp35, i32 0, i32 0
  store i32 %call36, ptr %coerce.dive37, align 4
  call void @llvm.memset.p0.i64(ptr align 4 %agg.tmp38, i8 0, i64 4, i1 false)
  call void @_ZN6hermes2vm11PropOpFlagsC2Ev(ptr noundef nonnull align 4 dereferenceable(4) %agg.tmp38) #10
  %coerce.dive39 = getelementptr inbounds %"class.hermes::vm::Handle", ptr %agg.tmp34, i32 0, i32 0
  %coerce.dive40 = getelementptr inbounds %"class.hermes::vm::HandleBase", ptr %coerce.dive39, i32 0, i32 0
  %14 = load ptr, ptr %coerce.dive40, align 8
  %coerce.dive41 = getelementptr inbounds %"class.hermes::vm::SymbolID", ptr %agg.tmp35, i32 0, i32 0
  %15 = load i32, ptr %coerce.dive41, align 4
  %coerce.dive42 = getelementptr inbounds %"union.hermes::vm::PropOpFlags", ptr %agg.tmp38, i32 0, i32 0
  %16 = load i32, ptr %coerce.dive42, align 4
  %call43 = call { i32, i64 } @_ZN6hermes2vm8JSObject12getNamed_RJSENS0_6HandleIS1_EERNS0_7RuntimeENS0_8SymbolIDENS0_11PropOpFlagsEPNS0_18PropertyCacheEntryE(ptr %14, ptr noundef nonnull align 8 dereferenceable(9832) %13, i32 %15, i32 %16, ptr noundef null)
  %17 = getelementptr inbounds { i32, i64 }, ptr %ref.tmp, i32 0, i32 0
  %18 = extractvalue { i32, i64 } %call43, 0
  store i32 %18, ptr %17, align 8
  %19 = getelementptr inbounds { i32, i64 }, ptr %ref.tmp, i32 0, i32 1
  %20 = extractvalue { i32, i64 } %call43, 1
  store i64 %20, ptr %19, align 8
  call void @llvm.memcpy.p0.p0.i64(ptr align 8 %propRes, ptr align 8 %ref.tmp, i64 16, i1 false)
  %call44 = call noundef zeroext i1 @_ZN6hermes2vmeqINS0_12PseudoHandleINS0_11HermesValueEEEEEbRKNS0_10CallResultIT_Xsr6detail23GetCallResultSpecializeIS6_EE5valueEEENS0_15ExecutionStatusE(ptr noundef nonnull align 8 dereferenceable(16) %propRes, i32 noundef 0)
  br i1 %call44, label %if.then45, label %if.end46

if.then45:                                        ; preds = %if.end33
  call void @_ZN6hermes2vm10CallResultINS0_6HandleINS0_15StringPrimitiveEEELNS0_6detail20CallResultSpecializeE4EEC2ENS0_15ExecutionStatusE(ptr noundef nonnull align 8 dereferenceable(8) %retval, i32 noundef 0)
  br label %return

if.end46:                                         ; preds = %if.end33
  %21 = load ptr, ptr %runtime.addr, align 8
  %call47 = call noundef nonnull align 8 dereferenceable(8) ptr @_ZN6hermes2vm10CallResultINS0_12PseudoHandleINS0_11HermesValueEEELNS0_6detail20CallResultSpecializeE5EEdeEv(ptr noundef nonnull align 8 dereferenceable(16) %propRes)
  %call48 = call ptr @_ZN6hermes2vm15HandleRootOwner10makeHandleINS0_11HermesValueEEENS0_6HandleIT_EEONS0_12PseudoHandleIS5_EE(ptr noundef nonnull align 8 dereferenceable(16) %21, ptr noundef nonnull align 8 dereferenceable(8) %call47)
  %coerce.dive49 = getelementptr inbounds %"class.hermes::vm::Handle.0", ptr %msg, i32 0, i32 0
  %coerce.dive50 = getelementptr inbounds %"class.hermes::vm::HandleBase", ptr %coerce.dive49, i32 0, i32 0
  store ptr %call48, ptr %coerce.dive50, align 8
  %22 = load ptr, ptr %runtime.addr, align 8
  %call51 = call noundef ptr @_ZN6hermes2vm16StringTraitsImplINS0_15StringPrimitiveEE12defaultValueEv()
  call void @_ZN6hermes2vm13MutableHandleINS0_15StringPrimitiveEEC2ERNS0_15HandleRootOwnerEPS2_(ptr noundef nonnull align 8 dereferenceable(8) %msgStr, ptr noundef nonnull align 8 dereferenceable(16) %22, ptr noundef %call51)
  %call52 = call noundef ptr @_ZNK6hermes2vm6HandleINS0_11HermesValueEEptEv(ptr noundef nonnull align 8 dereferenceable(8) %msg)
  %call53 = call noundef zeroext i1 @_ZNK6hermes2vm11HermesValue11isUndefinedEv(ptr noundef nonnull align 8 dereferenceable(8) %call52)
  br i1 %call53, label %if.then54, label %if.else57

if.then54:                                        ; preds = %if.end46
  %23 = load ptr, ptr %runtime.addr, align 8
  %call55 = call noundef ptr @_ZN6hermes2vm7Runtime19getPredefinedStringENS0_10Predefined3StrE(ptr noundef nonnull align 8 dereferenceable(9832) %23, i32 noundef 13)
  %call56 = call noundef nonnull align 8 dereferenceable(8) ptr @_ZN6hermes2vm13MutableHandleINS0_15StringPrimitiveEEaSEPS2_(ptr noundef nonnull align 8 dereferenceable(8) %msgStr, ptr noundef %call55)
  br label %if.end71

if.else57:                                        ; preds = %if.end46
  %24 = load ptr, ptr %runtime.addr, align 8
  call void @llvm.memcpy.p0.p0.i64(ptr align 8 %agg.tmp59, ptr align 8 %msg, i64 8, i1 false)
  %coerce.dive60 = getelementptr inbounds %"class.hermes::vm::Handle.0", ptr %agg.tmp59, i32 0, i32 0
  %coerce.dive61 = getelementptr inbounds %"class.hermes::vm::HandleBase", ptr %coerce.dive60, i32 0, i32 0
  %25 = load ptr, ptr %coerce.dive61, align 8
  %call62 = call ptr @_ZN6hermes2vm12toString_RJSERNS0_7RuntimeENS0_6HandleINS0_11HermesValueEEE(ptr noundef nonnull align 8 dereferenceable(9832) %24, ptr %25)
  %coerce.dive63 = getelementptr inbounds %"class.hermes::vm::CallResult.205", ptr %strRes58, i32 0, i32 0
  %coerce.dive64 = getelementptr inbounds %"class.hermes::vm::PseudoHandle.206", ptr %coerce.dive63, i32 0, i32 0
  store ptr %call62, ptr %coerce.dive64, align 8
  %call65 = call noundef zeroext i1 @_ZN6hermes2vmeqINS0_12PseudoHandleINS0_15StringPrimitiveEEEEEbRKNS0_10CallResultIT_Xsr6detail23GetCallResultSpecializeIS6_EE5valueEEENS0_15ExecutionStatusE(ptr noundef nonnull align 8 dereferenceable(8) %strRes58, i32 noundef 0)
  br i1 %call65, label %if.then66, label %if.end67

if.then66:                                        ; preds = %if.else57
  call void @_ZN6hermes2vm10CallResultINS0_6HandleINS0_15StringPrimitiveEEELNS0_6detail20CallResultSpecializeE4EEC2ENS0_15ExecutionStatusE(ptr noundef nonnull align 8 dereferenceable(8) %retval, i32 noundef 0)
  br label %return

if.end67:                                         ; preds = %if.else57
  %call68 = call noundef ptr @_ZN6hermes2vm10CallResultINS0_12PseudoHandleINS0_15StringPrimitiveEEELNS0_6detail20CallResultSpecializeE6EEptEv(ptr noundef nonnull align 8 dereferenceable(8) %strRes58)
  %call69 = call noundef ptr @_ZNK6hermes2vm12PseudoHandleINS0_15StringPrimitiveEE3getEv(ptr noundef nonnull align 8 dereferenceable(8) %call68)
  %call70 = call noundef nonnull align 8 dereferenceable(8) ptr @_ZN6hermes2vm13MutableHandleINS0_15StringPrimitiveEEaSEPS2_(ptr noundef nonnull align 8 dereferenceable(8) %msgStr, ptr noundef %call69)
  br label %if.end71

if.end71:                                         ; preds = %if.end67, %if.then54
  %call72 = call noundef ptr @_ZNK6hermes2vm6HandleINS0_15StringPrimitiveEEptEv(ptr noundef nonnull align 8 dereferenceable(8) %nameStr)
  %call73 = call noundef i32 @_ZNK6hermes2vm15StringPrimitive15getStringLengthEv(ptr noundef nonnull align 4 dereferenceable(8) %call72)
  %cmp = icmp eq i32 %call73, 0
  br i1 %cmp, label %if.then74, label %if.end78

if.then74:                                        ; preds = %if.end71
  call void @llvm.memcpy.p0.p0.i64(ptr align 8 %agg.tmp75, ptr align 8 %msgStr, i64 8, i1 false)
  %coerce.dive76 = getelementptr inbounds %"class.hermes::vm::Handle.203", ptr %agg.tmp75, i32 0, i32 0
  %coerce.dive77 = getelementptr inbounds %"class.hermes::vm::HandleBase", ptr %coerce.dive76, i32 0, i32 0
  %26 = load ptr, ptr %coerce.dive77, align 8
  call void @_ZN6hermes2vm10CallResultINS0_6HandleINS0_15StringPrimitiveEEELNS0_6detail20CallResultSpecializeE4EEC2ES4_(ptr noundef nonnull align 8 dereferenceable(8) %retval, ptr %26)
  br label %return

if.end78:                                         ; preds = %if.end71
  %call79 = call noundef ptr @_ZNK6hermes2vm6HandleINS0_15StringPrimitiveEEptEv(ptr noundef nonnull align 8 dereferenceable(8) %msgStr)
  %call80 = call noundef i32 @_ZNK6hermes2vm15StringPrimitive15getStringLengthEv(ptr noundef nonnull align 4 dereferenceable(8) %call79)
  %cmp81 = icmp eq i32 %call80, 0
  br i1 %cmp81, label %if.then82, label %if.end86

if.then82:                                        ; preds = %if.end78
  call void @llvm.memcpy.p0.p0.i64(ptr align 8 %agg.tmp83, ptr align 8 %nameStr, i64 8, i1 false)
  %coerce.dive84 = getelementptr inbounds %"class.hermes::vm::Handle.203", ptr %agg.tmp83, i32 0, i32 0
  %coerce.dive85 = getelementptr inbounds %"class.hermes::vm::HandleBase", ptr %coerce.dive84, i32 0, i32 0
  %27 = load ptr, ptr %coerce.dive85, align 8
  call void @_ZN6hermes2vm10CallResultINS0_6HandleINS0_15StringPrimitiveEEELNS0_6detail20CallResultSpecializeE4EEC2ES4_(ptr noundef nonnull align 8 dereferenceable(8) %retval, ptr %27)
  br label %return

if.end86:                                         ; preds = %if.end78
  %call87 = call noundef ptr @_ZNK6hermes2vm6HandleINS0_15StringPrimitiveEEptEv(ptr noundef nonnull align 8 dereferenceable(8) %nameStr)
  %call88 = call noundef i32 @_ZNK6hermes2vm15StringPrimitive15getStringLengthEv(ptr noundef nonnull align 4 dereferenceable(8) %call87)
  call void @_ZN6hermes10SafeUInt32C2Ej(ptr noundef nonnull align 8 dereferenceable(12) %length, i32 noundef %call88)
  call void @_ZN6hermes10SafeUInt323addEj(ptr noundef nonnull align 8 dereferenceable(12) %length, i32 noundef 2)
  %call89 = call noundef ptr @_ZNK6hermes2vm6HandleINS0_15StringPrimitiveEEptEv(ptr noundef nonnull align 8 dereferenceable(8) %msgStr)
  %call90 = call noundef i32 @_ZNK6hermes2vm15StringPrimitive15getStringLengthEv(ptr noundef nonnull align 4 dereferenceable(8) %call89)
  call void @_ZN6hermes10SafeUInt323addEj(ptr noundef nonnull align 8 dereferenceable(12) %length, i32 noundef %call90)
  %28 = load ptr, ptr %runtime.addr, align 8
  call void @llvm.memcpy.p0.p0.i64(ptr align 8 %agg.tmp91, ptr align 8 %length, i64 16, i1 false)
  %29 = getelementptr inbounds { i64, i32 }, ptr %agg.tmp91, i32 0, i32 0
  %30 = load i64, ptr %29, align 8
  %31 = getelementptr inbounds { i64, i32 }, ptr %agg.tmp91, i32 0, i32 1
  %32 = load i32, ptr %31, align 8
  call void @_ZN6hermes2vm13StringBuilder19createStringBuilderERNS0_7RuntimeENS_10SafeUInt32Eb(ptr sret(%"class.hermes::vm::CallResult.207") align 8 %builderRes, ptr noundef nonnull align 8 dereferenceable(9832) %28, i64 %30, i32 %32, i1 noundef zeroext false)
  %call92 = call noundef zeroext i1 @_ZN6hermes2vmeqINS0_13StringBuilderEEEbRKNS0_10CallResultIT_Xsr6detail23GetCallResultSpecializeIS4_EE5valueEEENS0_15ExecutionStatusE(ptr noundef nonnull align 8 dereferenceable(32) %builderRes, i32 noundef 0)
  br i1 %call92, label %if.then93, label %if.end94

if.then93:                                        ; preds = %if.end86
  call void @_ZN6hermes2vm10CallResultINS0_6HandleINS0_15StringPrimitiveEEELNS0_6detail20CallResultSpecializeE4EEC2ENS0_15ExecutionStatusE(ptr noundef nonnull align 8 dereferenceable(8) %retval, i32 noundef 0)
  store i32 1, ptr %cleanup.dest.slot, align 4
  br label %cleanup

if.end94:                                         ; preds = %if.end86
  %call95 = call noundef nonnull align 8 dereferenceable(24) ptr @_ZN6hermes2vm10CallResultINS0_13StringBuilderELNS0_6detail20CallResultSpecializeE0EEdeEv(ptr noundef nonnull align 8 dereferenceable(32) %builderRes)
  call void @_ZN6hermes2vm13StringBuilderC2EOS1_(ptr noundef nonnull align 8 dereferenceable(24) %builder, ptr noundef nonnull align 8 dereferenceable(24) %call95)
  call void @llvm.memcpy.p0.p0.i64(ptr align 8 %agg.tmp96, ptr align 8 %nameStr, i64 8, i1 false)
  %coerce.dive97 = getelementptr inbounds %"class.hermes::vm::Handle.203", ptr %agg.tmp96, i32 0, i32 0
  %coerce.dive98 = getelementptr inbounds %"class.hermes::vm::HandleBase", ptr %coerce.dive97, i32 0, i32 0
  %33 = load ptr, ptr %coerce.dive98, align 8
  call void @_ZN6hermes2vm13StringBuilder16appendStringPrimENS0_6HandleINS0_15StringPrimitiveEEE(ptr noundef nonnull align 8 dereferenceable(24) %builder, ptr %33)
  call void @_ZN4llvh8ArrayRefIcEC2EPKcm(ptr noundef nonnull align 8 dereferenceable(16) %agg.tmp99, ptr noundef @.str.3, i64 noundef 2)
  %34 = getelementptr inbounds { ptr, i64 }, ptr %agg.tmp99, i32 0, i32 0
  %35 = load ptr, ptr %34, align 8
  %36 = getelementptr inbounds { ptr, i64 }, ptr %agg.tmp99, i32 0, i32 1
  %37 = load i64, ptr %36, align 8
  call void @_ZN6hermes2vm13StringBuilder14appendASCIIRefEN4llvh8ArrayRefIcEE(ptr noundef nonnull align 8 dereferenceable(24) %builder, ptr %35, i64 %37)
  call void @llvm.memcpy.p0.p0.i64(ptr align 8 %agg.tmp100, ptr align 8 %msgStr, i64 8, i1 false)
  %coerce.dive101 = getelementptr inbounds %"class.hermes::vm::Handle.203", ptr %agg.tmp100, i32 0, i32 0
  %coerce.dive102 = getelementptr inbounds %"class.hermes::vm::HandleBase", ptr %coerce.dive101, i32 0, i32 0
  %38 = load ptr, ptr %coerce.dive102, align 8
  call void @_ZN6hermes2vm13StringBuilder16appendStringPrimENS0_6HandleINS0_15StringPrimitiveEEE(ptr noundef nonnull align 8 dereferenceable(24) %builder, ptr %38)
  %call104 = call ptr @_ZNK6hermes2vm13StringBuilder18getStringPrimitiveEv(ptr noundef nonnull align 8 dereferenceable(24) %builder)
  %coerce.dive105 = getelementptr inbounds %"class.hermes::vm::Handle.203", ptr %agg.tmp103, i32 0, i32 0
  %coerce.dive106 = getelementptr inbounds %"class.hermes::vm::HandleBase", ptr %coerce.dive105, i32 0, i32 0
  store ptr %call104, ptr %coerce.dive106, align 8
  %coerce.dive107 = getelementptr inbounds %"class.hermes::vm::Handle.203", ptr %agg.tmp103, i32 0, i32 0
  %coerce.dive108 = getelementptr inbounds %"class.hermes::vm::HandleBase", ptr %coerce.dive107, i32 0, i32 0
  %39 = load ptr, ptr %coerce.dive108, align 8
  call void @_ZN6hermes2vm10CallResultINS0_6HandleINS0_15StringPrimitiveEEELNS0_6detail20CallResultSpecializeE4EEC2ES4_(ptr noundef nonnull align 8 dereferenceable(8) %retval, ptr %39)
  store i32 1, ptr %cleanup.dest.slot, align 4
  br label %cleanup

cleanup:                                          ; preds = %if.end94, %if.then93
  call void @_ZN6hermes2vm10CallResultINS0_13StringBuilderELNS0_6detail20CallResultSpecializeE0EED2Ev(ptr noundef nonnull align 8 dereferenceable(32) %builderRes) #10
  br label %return

return:                                           ; preds = %cleanup, %if.then82, %if.then74, %if.then66, %if.then45, %if.then28, %if.then
  %coerce.dive109 = getelementptr inbounds %"class.hermes::vm::CallResult.202", ptr %retval, i32 0, i32 0
  %coerce.dive110 = getelementptr inbounds %"class.hermes::vm::Handle.203", ptr %coerce.dive109, i32 0, i32 0
  %coerce.dive111 = getelementptr inbounds %"class.hermes::vm::HandleBase", ptr %coerce.dive110, i32 0, i32 0
  %40 = load ptr, ptr %coerce.dive111, align 8
  ret ptr %40
}

; Function Attrs: mustprogress nounwind uwtable
define linkonce_odr hidden void @_ZN6hermes2vm10CallResultINS0_6HandleINS0_15StringPrimitiveEEELNS0_6detail20CallResultSpecializeE4EEC2ENS0_15ExecutionStatusE(ptr noundef nonnull align 8 dereferenceable(8) %this, i32 noundef %status) unnamed_addr #0 comdat align 2 {
entry:
  %this.addr = alloca ptr, align 8
  %status.addr = alloca i32, align 4
  store ptr %this, ptr %this.addr, align 8
  store i32 %status, ptr %status.addr, align 4
  %this1 = load ptr, ptr %this.addr, align 8
  %valueOrStatus_ = getelementptr inbounds %"class.hermes::vm::CallResult.202", ptr %this1, i32 0, i32 0
  %call = call ptr @_ZN6hermes2vm6HandleINS0_15StringPrimitiveEE12unsafeCreateEPKNS0_17PinnedHermesValueE(ptr noundef inttoptr (i64 -1 to ptr))
  %coerce.dive = getelementptr inbounds %"class.hermes::vm::Handle.203", ptr %valueOrStatus_, i32 0, i32 0
  %coerce.dive2 = getelementptr inbounds %"class.hermes::vm::HandleBase", ptr %coerce.dive, i32 0, i32 0
  store ptr %call, ptr %coerce.dive2, align 8
  ret void
}

; Function Attrs: mustprogress nounwind uwtable
define linkonce_odr hidden noundef ptr @_ZN6hermes2vm16StringTraitsImplINS0_15StringPrimitiveEE12defaultValueEv() #0 comdat align 2 {
entry:
  ret ptr null
}

; Function Attrs: mustprogress nounwind uwtable
define linkonce_odr hidden void @_ZN6hermes2vm13MutableHandleINS0_15StringPrimitiveEEC2ERNS0_15HandleRootOwnerEPS2_(ptr noundef nonnull align 8 dereferenceable(8) %this, ptr noundef nonnull align 8 dereferenceable(16) %runtime, ptr noundef %value) unnamed_addr #0 comdat align 2 {
entry:
  %this.addr = alloca ptr, align 8
  %runtime.addr = alloca ptr, align 8
  %value.addr = alloca ptr, align 8
  store ptr %this, ptr %this.addr, align 8
  store ptr %runtime, ptr %runtime.addr, align 8
  store ptr %value, ptr %value.addr, align 8
  %this1 = load ptr, ptr %this.addr, align 8
  %0 = load ptr, ptr %runtime.addr, align 8
  %1 = load ptr, ptr %value.addr, align 8
  call void @_ZN6hermes2vm6HandleINS0_15StringPrimitiveEEC2ERNS0_15HandleRootOwnerEPS2_(ptr noundef nonnull align 8 dereferenceable(8) %this1, ptr noundef nonnull align 8 dereferenceable(16) %0, ptr noundef %1)
  ret void
}

; Function Attrs: mustprogress nounwind uwtable
define linkonce_odr hidden noundef ptr @_ZNK6hermes2vm6HandleINS0_11HermesValueEEptEv(ptr noundef nonnull align 8 dereferenceable(8) %this) #0 comdat align 2 {
entry:
  %this.addr = alloca ptr, align 8
  store ptr %this, ptr %this.addr, align 8
  %this1 = load ptr, ptr %this.addr, align 8
  %call = call noundef ptr @_ZNK6hermes2vm10HandleBase9handleRefEv(ptr noundef nonnull align 8 dereferenceable(8) %this1)
  %call2 = call noundef ptr @_ZN6hermes2vm17HermesValueTraitsINS0_11HermesValueELb0EE5arrowERKS2_(ptr noundef nonnull align 8 dereferenceable(8) %call)
  ret ptr %call2
}

; Function Attrs: mustprogress nounwind uwtable
define linkonce_odr hidden noundef nonnull align 8 dereferenceable(8) ptr @_ZN6hermes2vm13MutableHandleINS0_15StringPrimitiveEEaSEPS2_(ptr noundef nonnull align 8 dereferenceable(8) %this, ptr noundef %value) #0 comdat align 2 {
entry:
  %this.addr = alloca ptr, align 8
  %value.addr = alloca ptr, align 8
  store ptr %this, ptr %this.addr, align 8
  store ptr %value, ptr %value.addr, align 8
  %this1 = load ptr, ptr %this.addr, align 8
  %0 = load ptr, ptr %value.addr, align 8
  call void @_ZN6hermes2vm13MutableHandleINS0_15StringPrimitiveEE3setEPS2_(ptr noundef nonnull align 8 dereferenceable(8) %this1, ptr noundef %0)
  ret ptr %this1
}

declare ptr @_ZN6hermes2vm12toString_RJSERNS0_7RuntimeENS0_6HandleINS0_11HermesValueEEE(ptr noundef nonnull align 8 dereferenceable(9832), ptr) #1

; Function Attrs: mustprogress nounwind uwtable
define linkonce_odr hidden noundef zeroext i1 @_ZN6hermes2vmeqINS0_12PseudoHandleINS0_15StringPrimitiveEEEEEbRKNS0_10CallResultIT_Xsr6detail23GetCallResultSpecializeIS6_EE5valueEEENS0_15ExecutionStatusE(ptr noundef nonnull align 8 dereferenceable(8) %lhs, i32 noundef %rhs) #0 comdat {
entry:
  %lhs.addr = alloca ptr, align 8
  %rhs.addr = alloca i32, align 4
  store ptr %lhs, ptr %lhs.addr, align 8
  store i32 %rhs, ptr %rhs.addr, align 4
  %0 = load ptr, ptr %lhs.addr, align 8
  %call = call noundef i32 @_ZNK6hermes2vm10CallResultINS0_12PseudoHandleINS0_15StringPrimitiveEEELNS0_6detail20CallResultSpecializeE6EE9getStatusEv(ptr noundef nonnull align 8 dereferenceable(8) %0)
  %1 = load i32, ptr %rhs.addr, align 4
  %cmp = icmp eq i32 %call, %1
  ret i1 %cmp
}

; Function Attrs: mustprogress nounwind uwtable
define linkonce_odr hidden noundef ptr @_ZN6hermes2vm10CallResultINS0_12PseudoHandleINS0_15StringPrimitiveEEELNS0_6detail20CallResultSpecializeE6EEptEv(ptr noundef nonnull align 8 dereferenceable(8) %this) #0 comdat align 2 {
entry:
  %this.addr = alloca ptr, align 8
  store ptr %this, ptr %this.addr, align 8
  %this1 = load ptr, ptr %this.addr, align 8
  %valueOrStatus_ = getelementptr inbounds %"class.hermes::vm::CallResult.205", ptr %this1, i32 0, i32 0
  ret ptr %valueOrStatus_
}

; Function Attrs: mustprogress nounwind uwtable
define linkonce_odr hidden noundef ptr @_ZNK6hermes2vm12PseudoHandleINS0_15StringPrimitiveEE3getEv(ptr noundef nonnull align 8 dereferenceable(8) %this) #0 comdat align 2 {
entry:
  %this.addr = alloca ptr, align 8
  store ptr %this, ptr %this.addr, align 8
  %this1 = load ptr, ptr %this.addr, align 8
  %value_ = getelementptr inbounds %"class.hermes::vm::PseudoHandle.206", ptr %this1, i32 0, i32 0
  %0 = load ptr, ptr %value_, align 8
  ret ptr %0
}

; Function Attrs: mustprogress nounwind uwtable
define linkonce_odr hidden noundef ptr @_ZNK6hermes2vm6HandleINS0_15StringPrimitiveEEptEv(ptr noundef nonnull align 8 dereferenceable(8) %this) #0 comdat align 2 {
entry:
  %this.addr = alloca ptr, align 8
  store ptr %this, ptr %this.addr, align 8
  %this1 = load ptr, ptr %this.addr, align 8
  %call = call noundef ptr @_ZNK6hermes2vm10HandleBase9handleRefEv(ptr noundef nonnull align 8 dereferenceable(8) %this1)
  %call2 = call noundef ptr @_ZN6hermes2vm16StringTraitsImplINS0_15StringPrimitiveEE5arrowERKNS0_11HermesValueE(ptr noundef nonnull align 8 dereferenceable(8) %call)
  ret ptr %call2
}

; Function Attrs: mustprogress nounwind uwtable
define linkonce_odr hidden noundef i32 @_ZNK6hermes2vm15StringPrimitive15getStringLengthEv(ptr noundef nonnull align 4 dereferenceable(8) %this) #0 comdat align 2 {
entry:
  %this.addr = alloca ptr, align 8
  store ptr %this, ptr %this.addr, align 8
  %this1 = load ptr, ptr %this.addr, align 8
  %lengthAndUniquedFlag_ = getelementptr inbounds %"class.hermes::vm::StringPrimitive", ptr %this1, i32 0, i32 1
  %0 = load i32, ptr %lengthAndUniquedFlag_, align 4
  %and = and i32 %0, 2147483647
  ret i32 %and
}

; Function Attrs: mustprogress nounwind uwtable
define linkonce_odr hidden void @_ZN6hermes2vm10CallResultINS0_6HandleINS0_15StringPrimitiveEEELNS0_6detail20CallResultSpecializeE4EEC2ES4_(ptr noundef nonnull align 8 dereferenceable(8) %this, ptr %value.coerce) unnamed_addr #0 comdat align 2 {
entry:
  %value = alloca %"class.hermes::vm::Handle.203", align 8
  %this.addr = alloca ptr, align 8
  %coerce.dive = getelementptr inbounds %"class.hermes::vm::Handle.203", ptr %value, i32 0, i32 0
  %coerce.dive1 = getelementptr inbounds %"class.hermes::vm::HandleBase", ptr %coerce.dive, i32 0, i32 0
  store ptr %value.coerce, ptr %coerce.dive1, align 8
  store ptr %this, ptr %this.addr, align 8
  %this2 = load ptr, ptr %this.addr, align 8
  %valueOrStatus_ = getelementptr inbounds %"class.hermes::vm::CallResult.202", ptr %this2, i32 0, i32 0
  call void @llvm.memcpy.p0.p0.i64(ptr align 8 %valueOrStatus_, ptr align 8 %value, i64 8, i1 false)
  ret void
}

; Function Attrs: mustprogress nounwind uwtable
define linkonce_odr hidden void @_ZN6hermes10SafeUInt32C2Ej(ptr noundef nonnull align 8 dereferenceable(12) %this, i32 noundef %value) unnamed_addr #0 comdat align 2 {
entry:
  %this.addr = alloca ptr, align 8
  %value.addr = alloca i32, align 4
  store ptr %this, ptr %this.addr, align 8
  store i32 %value, ptr %value.addr, align 4
  %this1 = load ptr, ptr %this.addr, align 8
  %value_ = getelementptr inbounds %"class.hermes::SafeUInt32", ptr %this1, i32 0, i32 0
  %0 = load i32, ptr %value.addr, align 4
  %conv = zext i32 %0 to i64
  store i64 %conv, ptr %value_, align 8
  %ors_ = getelementptr inbounds %"class.hermes::SafeUInt32", ptr %this1, i32 0, i32 1
  store i32 0, ptr %ors_, align 8
  ret void
}

; Function Attrs: mustprogress nounwind uwtable
define linkonce_odr hidden void @_ZN6hermes10SafeUInt323addEj(ptr noundef nonnull align 8 dereferenceable(12) %this, i32 noundef %n) #0 comdat align 2 {
entry:
  %this.addr = alloca ptr, align 8
  %n.addr = alloca i32, align 4
  store ptr %this, ptr %this.addr, align 8
  store i32 %n, ptr %n.addr, align 4
  %this1 = load ptr, ptr %this.addr, align 8
  %0 = load i32, ptr %n.addr, align 4
  %conv = zext i32 %0 to i64
  %value_ = getelementptr inbounds %"class.hermes::SafeUInt32", ptr %this1, i32 0, i32 0
  %1 = load i64, ptr %value_, align 8
  %add = add i64 %1, %conv
  store i64 %add, ptr %value_, align 8
  %value_2 = getelementptr inbounds %"class.hermes::SafeUInt32", ptr %this1, i32 0, i32 0
  %2 = load i64, ptr %value_2, align 8
  %shr = lshr i64 %2, 32
  %ors_ = getelementptr inbounds %"class.hermes::SafeUInt32", ptr %this1, i32 0, i32 1
  %3 = load i32, ptr %ors_, align 8
  %conv3 = zext i32 %3 to i64
  %or = or i64 %conv3, %shr
  %conv4 = trunc i64 %or to i32
  store i32 %conv4, ptr %ors_, align 8
  ret void
}

; Function Attrs: mustprogress nounwind uwtable
define linkonce_odr hidden void @_ZN6hermes2vm13StringBuilder19createStringBuilderERNS0_7RuntimeENS_10SafeUInt32Eb(ptr noalias sret(%"class.hermes::vm::CallResult.207") align 8 %agg.result, ptr noundef nonnull align 8 dereferenceable(9832) %runtime, i64 %length.coerce0, i32 %length.coerce1, i1 noundef zeroext %isASCII) #0 comdat align 2 {
entry:
  %result.ptr = alloca ptr, align 8
  %length = alloca %"class.hermes::SafeUInt32", align 8
  %runtime.addr = alloca ptr, align 8
  %isASCII.addr = alloca i8, align 1
  %ref.tmp = alloca %"class.hermes::vm::TwineChar16", align 8
  %crtRes = alloca %"class.hermes::vm::CallResult.177", align 8
  %ref.tmp7 = alloca %"class.hermes::vm::StringBuilder", align 8
  store ptr %agg.result, ptr %result.ptr, align 8
  %0 = getelementptr inbounds { i64, i32 }, ptr %length, i32 0, i32 0
  store i64 %length.coerce0, ptr %0, align 8
  %1 = getelementptr inbounds { i64, i32 }, ptr %length, i32 0, i32 1
  store i32 %length.coerce1, ptr %1, align 8
  store ptr %runtime, ptr %runtime.addr, align 8
  %frombool = zext i1 %isASCII to i8
  store i8 %frombool, ptr %isASCII.addr, align 1
  %call = call noundef zeroext i1 @_ZNK6hermes10SafeUInt3212isOverflowedEv(ptr noundef nonnull align 8 dereferenceable(12) %length)
  br i1 %call, label %if.then, label %if.end

if.then:                                          ; preds = %entry
  %2 = load ptr, ptr %runtime.addr, align 8
  call void @_ZN6hermes2vm11TwineChar16C2EPKc(ptr noundef nonnull align 8 dereferenceable(48) %ref.tmp, ptr noundef @.str.16)
  %call1 = call noundef i32 @_ZN6hermes2vm7Runtime15raiseRangeErrorERKNS0_11TwineChar16E(ptr noundef nonnull align 8 dereferenceable(9832) %2, ptr noundef nonnull align 8 dereferenceable(48) %ref.tmp)
  call void @_ZN6hermes2vm10CallResultINS0_13StringBuilderELNS0_6detail20CallResultSpecializeE0EEC2ENS0_15ExecutionStatusE(ptr noundef nonnull align 8 dereferenceable(32) %agg.result, i32 noundef %call1)
  br label %return

if.end:                                           ; preds = %entry
  %3 = load ptr, ptr %runtime.addr, align 8
  %call2 = call noundef i32 @_ZNK6hermes10SafeUInt32deEv(ptr noundef nonnull align 8 dereferenceable(12) %length)
  %4 = load i8, ptr %isASCII.addr, align 1
  %tobool = trunc i8 %4 to i1
  %call3 = call { i32, i64 } @_ZN6hermes2vm15StringPrimitive6createERNS0_7RuntimeEjb(ptr noundef nonnull align 8 dereferenceable(9832) %3, i32 noundef %call2, i1 noundef zeroext %tobool)
  %5 = getelementptr inbounds { i32, i64 }, ptr %crtRes, i32 0, i32 0
  %6 = extractvalue { i32, i64 } %call3, 0
  store i32 %6, ptr %5, align 8
  %7 = getelementptr inbounds { i32, i64 }, ptr %crtRes, i32 0, i32 1
  %8 = extractvalue { i32, i64 } %call3, 1
  store i64 %8, ptr %7, align 8
  %call4 = call noundef zeroext i1 @_ZN6hermes2vmeqINS0_11HermesValueEEEbRKNS0_10CallResultIT_Xsr6detail23GetCallResultSpecializeIS4_EE5valueEEENS0_15ExecutionStatusE(ptr noundef nonnull align 8 dereferenceable(16) %crtRes, i32 noundef 0)
  br i1 %call4, label %if.then5, label %if.end6

if.then5:                                         ; preds = %if.end
  call void @_ZN6hermes2vm10CallResultINS0_13StringBuilderELNS0_6detail20CallResultSpecializeE0EEC2ENS0_15ExecutionStatusE(ptr noundef nonnull align 8 dereferenceable(32) %agg.result, i32 noundef 0)
  br label %return

if.end6:                                          ; preds = %if.end
  %9 = load ptr, ptr %runtime.addr, align 8
  %call8 = call noundef ptr @_ZNK6hermes2vm10CallResultINS0_11HermesValueELNS0_6detail20CallResultSpecializeE2EEptEv(ptr noundef nonnull align 8 dereferenceable(16) %crtRes)
  %call9 = call noundef ptr @_ZNK6hermes2vm11HermesValue9getStringEv(ptr noundef nonnull align 8 dereferenceable(8) %call8)
  call void @_ZN6hermes2vm13StringBuilderC2ERNS0_7RuntimeEPNS0_15StringPrimitiveE(ptr noundef nonnull align 8 dereferenceable(24) %ref.tmp7, ptr noundef nonnull align 8 dereferenceable(9832) %9, ptr noundef %call9)
  call void @_ZN6hermes2vm10CallResultINS0_13StringBuilderELNS0_6detail20CallResultSpecializeE0EEC2IS2_vEEOT_(ptr noundef nonnull align 8 dereferenceable(32) %agg.result, ptr noundef nonnull align 8 dereferenceable(24) %ref.tmp7)
  br label %return

return:                                           ; preds = %if.end6, %if.then5, %if.then
  ret void
}

; Function Attrs: mustprogress nounwind uwtable
define linkonce_odr hidden noundef zeroext i1 @_ZN6hermes2vmeqINS0_13StringBuilderEEEbRKNS0_10CallResultIT_Xsr6detail23GetCallResultSpecializeIS4_EE5valueEEENS0_15ExecutionStatusE(ptr noundef nonnull align 8 dereferenceable(32) %lhs, i32 noundef %rhs) #0 comdat {
entry:
  %lhs.addr = alloca ptr, align 8
  %rhs.addr = alloca i32, align 4
  store ptr %lhs, ptr %lhs.addr, align 8
  store i32 %rhs, ptr %rhs.addr, align 4
  %0 = load ptr, ptr %lhs.addr, align 8
  %call = call noundef i32 @_ZNK6hermes2vm10CallResultINS0_13StringBuilderELNS0_6detail20CallResultSpecializeE0EE9getStatusEv(ptr noundef nonnull align 8 dereferenceable(32) %0)
  %1 = load i32, ptr %rhs.addr, align 4
  %cmp = icmp eq i32 %call, %1
  ret i1 %cmp
}

; Function Attrs: mustprogress nounwind uwtable
define linkonce_odr hidden noundef nonnull align 8 dereferenceable(24) ptr @_ZN6hermes2vm10CallResultINS0_13StringBuilderELNS0_6detail20CallResultSpecializeE0EEdeEv(ptr noundef nonnull align 8 dereferenceable(32) %this) #0 comdat align 2 {
entry:
  %this.addr = alloca ptr, align 8
  store ptr %this, ptr %this.addr, align 8
  %this1 = load ptr, ptr %this.addr, align 8
  %value_ = getelementptr inbounds %"class.hermes::vm::CallResult.207", ptr %this1, i32 0, i32 0
  %call = call noundef nonnull align 8 dereferenceable(24) ptr @_ZNR4llvh8OptionalIN6hermes2vm13StringBuilderEEdeEv(ptr noundef nonnull align 8 dereferenceable(32) %value_)
  ret ptr %call
}

; Function Attrs: mustprogress nounwind uwtable
define linkonce_odr hidden void @_ZN6hermes2vm13StringBuilderC2EOS1_(ptr noundef nonnull align 8 dereferenceable(24) %this, ptr noundef nonnull align 8 dereferenceable(24) %0) unnamed_addr #0 comdat align 2 {
entry:
  %this.addr = alloca ptr, align 8
  %.addr = alloca ptr, align 8
  store ptr %this, ptr %this.addr, align 8
  store ptr %0, ptr %.addr, align 8
  %this1 = load ptr, ptr %this.addr, align 8
  %strPrim_ = getelementptr inbounds %"class.hermes::vm::StringBuilder", ptr %this1, i32 0, i32 0
  %1 = load ptr, ptr %.addr, align 8
  %strPrim_2 = getelementptr inbounds %"class.hermes::vm::StringBuilder", ptr %1, i32 0, i32 0
  call void @_ZN6hermes2vm13MutableHandleINS0_15StringPrimitiveEEC2EOS3_(ptr noundef nonnull align 8 dereferenceable(8) %strPrim_, ptr noundef nonnull align 8 dereferenceable(8) %strPrim_2)
  %index_ = getelementptr inbounds %"class.hermes::vm::StringBuilder", ptr %this1, i32 0, i32 1
  %2 = load ptr, ptr %.addr, align 8
  %index_3 = getelementptr inbounds %"class.hermes::vm::StringBuilder", ptr %2, i32 0, i32 1
  call void @llvm.memcpy.p0.p0.i64(ptr align 8 %index_, ptr align 8 %index_3, i64 16, i1 false)
  ret void
}

; Function Attrs: mustprogress nounwind uwtable
define linkonce_odr hidden void @_ZN6hermes2vm13StringBuilder16appendStringPrimENS0_6HandleINS0_15StringPrimitiveEEE(ptr noundef nonnull align 8 dereferenceable(24) %this, ptr %other.coerce) #0 comdat align 2 {
entry:
  %other = alloca %"class.hermes::vm::Handle.203", align 8
  %this.addr = alloca ptr, align 8
  %agg.tmp = alloca %"class.hermes::vm::Handle.203", align 8
  %coerce.dive = getelementptr inbounds %"class.hermes::vm::Handle.203", ptr %other, i32 0, i32 0
  %coerce.dive1 = getelementptr inbounds %"class.hermes::vm::HandleBase", ptr %coerce.dive, i32 0, i32 0
  store ptr %other.coerce, ptr %coerce.dive1, align 8
  store ptr %this, ptr %this.addr, align 8
  %this2 = load ptr, ptr %this.addr, align 8
  call void @llvm.memcpy.p0.p0.i64(ptr align 8 %agg.tmp, ptr align 8 %other, i64 8, i1 false)
  %call = call noundef ptr @_ZNK6hermes2vm6HandleINS0_15StringPrimitiveEEptEv(ptr noundef nonnull align 8 dereferenceable(8) %other)
  %call3 = call noundef i32 @_ZNK6hermes2vm15StringPrimitive15getStringLengthEv(ptr noundef nonnull align 4 dereferenceable(8) %call)
  %coerce.dive4 = getelementptr inbounds %"class.hermes::vm::Handle.203", ptr %agg.tmp, i32 0, i32 0
  %coerce.dive5 = getelementptr inbounds %"class.hermes::vm::HandleBase", ptr %coerce.dive4, i32 0, i32 0
  %0 = load ptr, ptr %coerce.dive5, align 8
  call void @_ZN6hermes2vm13StringBuilder16appendStringPrimENS0_6HandleINS0_15StringPrimitiveEEEj(ptr noundef nonnull align 8 dereferenceable(24) %this2, ptr %0, i32 noundef %call3)
  ret void
}

; Function Attrs: mustprogress nounwind uwtable
define linkonce_odr hidden void @_ZN6hermes2vm13StringBuilder14appendASCIIRefEN4llvh8ArrayRefIcEE(ptr noundef nonnull align 8 dereferenceable(24) %this, ptr %ascii.coerce0, i64 %ascii.coerce1) #0 comdat align 2 {
entry:
  %ascii = alloca %"class.llvh::ArrayRef.210", align 8
  %this.addr = alloca ptr, align 8
  %0 = getelementptr inbounds { ptr, i64 }, ptr %ascii, i32 0, i32 0
  store ptr %ascii.coerce0, ptr %0, align 8
  %1 = getelementptr inbounds { ptr, i64 }, ptr %ascii, i32 0, i32 1
  store i64 %ascii.coerce1, ptr %1, align 8
  store ptr %this, ptr %this.addr, align 8
  %this1 = load ptr, ptr %this.addr, align 8
  %strPrim_ = getelementptr inbounds %"class.hermes::vm::StringBuilder", ptr %this1, i32 0, i32 0
  %call = call noundef ptr @_ZNK6hermes2vm6HandleINS0_15StringPrimitiveEEptEv(ptr noundef nonnull align 8 dereferenceable(8) %strPrim_)
  %call2 = call noundef zeroext i1 @_ZNK6hermes2vm15StringPrimitive7isASCIIEv(ptr noundef nonnull align 4 dereferenceable(8) %call)
  br i1 %call2, label %if.then, label %if.else

if.then:                                          ; preds = %entry
  %call3 = call noundef ptr @_ZNK4llvh8ArrayRefIcE4dataEv(ptr noundef nonnull align 8 dereferenceable(16) %ascii)
  %call4 = call noundef ptr @_ZNK4llvh8ArrayRefIcE4dataEv(ptr noundef nonnull align 8 dereferenceable(16) %ascii)
  %call5 = call noundef i64 @_ZNK4llvh8ArrayRefIcE4sizeEv(ptr noundef nonnull align 8 dereferenceable(16) %ascii)
  %add.ptr = getelementptr inbounds i8, ptr %call4, i64 %call5
  %strPrim_6 = getelementptr inbounds %"class.hermes::vm::StringBuilder", ptr %this1, i32 0, i32 0
  %call7 = call noundef ptr @_ZNK6hermes2vm6HandleINS0_15StringPrimitiveEEptEv(ptr noundef nonnull align 8 dereferenceable(8) %strPrim_6)
  %call8 = call noundef ptr @_ZN6hermes2vm15StringPrimitive26castToASCIIPointerForWriteEv(ptr noundef nonnull align 4 dereferenceable(8) %call7)
  %index_ = getelementptr inbounds %"class.hermes::vm::StringBuilder", ptr %this1, i32 0, i32 1
  %2 = load i32, ptr %index_, align 8
  %idx.ext = zext i32 %2 to i64
  %add.ptr9 = getelementptr inbounds i8, ptr %call8, i64 %idx.ext
  %call10 = call noundef ptr @_ZSt4copyIPKcPcET0_T_S4_S3_(ptr noundef %call3, ptr noundef %add.ptr, ptr noundef %add.ptr9)
  br label %if.end

if.else:                                          ; preds = %entry
  %call11 = call noundef ptr @_ZNK4llvh8ArrayRefIcE4dataEv(ptr noundef nonnull align 8 dereferenceable(16) %ascii)
  %call12 = call noundef ptr @_ZNK4llvh8ArrayRefIcE4dataEv(ptr noundef nonnull align 8 dereferenceable(16) %ascii)
  %call13 = call noundef i64 @_ZNK4llvh8ArrayRefIcE4sizeEv(ptr noundef nonnull align 8 dereferenceable(16) %ascii)
  %add.ptr14 = getelementptr inbounds i8, ptr %call12, i64 %call13
  %strPrim_15 = getelementptr inbounds %"class.hermes::vm::StringBuilder", ptr %this1, i32 0, i32 0
  %call16 = call noundef ptr @_ZNK6hermes2vm6HandleINS0_15StringPrimitiveEEptEv(ptr noundef nonnull align 8 dereferenceable(8) %strPrim_15)
  %call17 = call noundef ptr @_ZN6hermes2vm15StringPrimitive26castToUTF16PointerForWriteEv(ptr noundef nonnull align 4 dereferenceable(8) %call16)
  %index_18 = getelementptr inbounds %"class.hermes::vm::StringBuilder", ptr %this1, i32 0, i32 1
  %3 = load i32, ptr %index_18, align 8
  %idx.ext19 = zext i32 %3 to i64
  %add.ptr20 = getelementptr inbounds i16, ptr %call17, i64 %idx.ext19
  %call21 = call noundef ptr @_ZSt4copyIPKcPDsET0_T_S4_S3_(ptr noundef %call11, ptr noundef %add.ptr14, ptr noundef %add.ptr20)
  br label %if.end

if.end:                                           ; preds = %if.else, %if.then
  %call22 = call noundef i64 @_ZNK4llvh8ArrayRefIcE4sizeEv(ptr noundef nonnull align 8 dereferenceable(16) %ascii)
  %index_23 = getelementptr inbounds %"class.hermes::vm::StringBuilder", ptr %this1, i32 0, i32 1
  %4 = load i32, ptr %index_23, align 8
  %conv = zext i32 %4 to i64
  %add = add i64 %conv, %call22
  %conv24 = trunc i64 %add to i32
  store i32 %conv24, ptr %index_23, align 8
  ret void
}

; Function Attrs: mustprogress nounwind uwtable
define linkonce_odr hidden void @_ZN4llvh8ArrayRefIcEC2EPKcm(ptr noundef nonnull align 8 dereferenceable(16) %this, ptr noundef %data, i64 noundef %length) unnamed_addr #0 comdat align 2 {
entry:
  %this.addr = alloca ptr, align 8
  %data.addr = alloca ptr, align 8
  %length.addr = alloca i64, align 8
  store ptr %this, ptr %this.addr, align 8
  store ptr %data, ptr %data.addr, align 8
  store i64 %length, ptr %length.addr, align 8
  %this1 = load ptr, ptr %this.addr, align 8
  %Data = getelementptr inbounds %"class.llvh::ArrayRef.210", ptr %this1, i32 0, i32 0
  %0 = load ptr, ptr %data.addr, align 8
  store ptr %0, ptr %Data, align 8
  %Length = getelementptr inbounds %"class.llvh::ArrayRef.210", ptr %this1, i32 0, i32 1
  %1 = load i64, ptr %length.addr, align 8
  store i64 %1, ptr %Length, align 8
  ret void
}

; Function Attrs: mustprogress nounwind uwtable
define linkonce_odr hidden ptr @_ZNK6hermes2vm13StringBuilder18getStringPrimitiveEv(ptr noundef nonnull align 8 dereferenceable(24) %this) #0 comdat align 2 {
entry:
  %retval = alloca %"class.hermes::vm::Handle.203", align 8
  %this.addr = alloca ptr, align 8
  store ptr %this, ptr %this.addr, align 8
  %this1 = load ptr, ptr %this.addr, align 8
  %strPrim_ = getelementptr inbounds %"class.hermes::vm::StringBuilder", ptr %this1, i32 0, i32 0
  %call = call ptr @_ZN6hermes2vm6HandleINS0_15StringPrimitiveEE6vmcastERKNS0_10HandleBaseE(ptr noundef nonnull align 8 dereferenceable(8) %strPrim_)
  %coerce.dive = getelementptr inbounds %"class.hermes::vm::Handle.203", ptr %retval, i32 0, i32 0
  %coerce.dive2 = getelementptr inbounds %"class.hermes::vm::HandleBase", ptr %coerce.dive, i32 0, i32 0
  store ptr %call, ptr %coerce.dive2, align 8
  %coerce.dive3 = getelementptr inbounds %"class.hermes::vm::Handle.203", ptr %retval, i32 0, i32 0
  %coerce.dive4 = getelementptr inbounds %"class.hermes::vm::HandleBase", ptr %coerce.dive3, i32 0, i32 0
  %0 = load ptr, ptr %coerce.dive4, align 8
  ret ptr %0
}

; Function Attrs: mustprogress nounwind uwtable
define linkonce_odr hidden void @_ZN6hermes2vm10CallResultINS0_13StringBuilderELNS0_6detail20CallResultSpecializeE0EED2Ev(ptr noundef nonnull align 8 dereferenceable(32) %this) unnamed_addr #0 comdat align 2 {
entry:
  %this.addr = alloca ptr, align 8
  store ptr %this, ptr %this.addr, align 8
  %this1 = load ptr, ptr %this.addr, align 8
  %value_ = getelementptr inbounds %"class.hermes::vm::CallResult.207", ptr %this1, i32 0, i32 0
  call void @_ZN4llvh8OptionalIN6hermes2vm13StringBuilderEED2Ev(ptr noundef nonnull align 8 dereferenceable(32) %value_) #10
  ret void
}

; Function Attrs: mustprogress nounwind uwtable
define hidden noundef i32 @_ZN6hermes2vm7JSError10setMessageENS0_6HandleIS1_EERNS0_7RuntimeENS2_INS0_11HermesValueEEE(ptr %selfHandle.coerce, ptr noundef nonnull align 8 dereferenceable(9832) %runtime, ptr %message.coerce) #0 align 2 {
entry:
  %retval = alloca i32, align 4
  %selfHandle = alloca %"class.hermes::vm::Handle.10", align 8
  %message = alloca %"class.hermes::vm::Handle.0", align 8
  %runtime.addr = alloca ptr, align 8
  %stringMessage = alloca %"class.hermes::vm::Handle.203", align 8
  %strRes = alloca %"class.hermes::vm::CallResult.205", align 8
  %agg.tmp = alloca %"class.hermes::vm::Handle.0", align 8
  %ref.tmp = alloca %"class.hermes::vm::Handle.203", align 8
  %dpf = alloca %"union.hermes::vm::DefinePropertyFlags", align 4
  %ref.tmp21 = alloca %"class.hermes::vm::CallResult", align 4
  %agg.tmp22 = alloca %"class.hermes::vm::Handle", align 8
  %agg.tmp23 = alloca %"class.hermes::vm::SymbolID", align 4
  %agg.tmp26 = alloca %"union.hermes::vm::DefinePropertyFlags", align 4
  %agg.tmp27 = alloca %"class.hermes::vm::Handle.0", align 8
  %agg.tmp28 = alloca %"union.hermes::vm::PropOpFlags", align 4
  %coerce.dive = getelementptr inbounds %"class.hermes::vm::Handle.10", ptr %selfHandle, i32 0, i32 0
  %coerce.dive1 = getelementptr inbounds %"class.hermes::vm::HandleBase", ptr %coerce.dive, i32 0, i32 0
  store ptr %selfHandle.coerce, ptr %coerce.dive1, align 8
  %coerce.dive2 = getelementptr inbounds %"class.hermes::vm::Handle.0", ptr %message, i32 0, i32 0
  %coerce.dive3 = getelementptr inbounds %"class.hermes::vm::HandleBase", ptr %coerce.dive2, i32 0, i32 0
  store ptr %message.coerce, ptr %coerce.dive3, align 8
  store ptr %runtime, ptr %runtime.addr, align 8
  %call = call ptr @_ZN6hermes2vm6HandleINS0_15StringPrimitiveEE10dyn_vmcastERKNS0_10HandleBaseE(ptr noundef nonnull align 8 dereferenceable(8) %message)
  %coerce.dive4 = getelementptr inbounds %"class.hermes::vm::Handle.203", ptr %stringMessage, i32 0, i32 0
  %coerce.dive5 = getelementptr inbounds %"class.hermes::vm::HandleBase", ptr %coerce.dive4, i32 0, i32 0
  store ptr %call, ptr %coerce.dive5, align 8
  %call6 = call noundef zeroext i1 @_ZNK6hermes2vm6HandleINS0_15StringPrimitiveEEcvbEv(ptr noundef nonnull align 8 dereferenceable(8) %stringMessage)
  %lnot = xor i1 %call6, true
  br i1 %lnot, label %if.then, label %if.end18

if.then:                                          ; preds = %entry
  %0 = load ptr, ptr %runtime.addr, align 8
  call void @llvm.memcpy.p0.p0.i64(ptr align 8 %agg.tmp, ptr align 8 %message, i64 8, i1 false)
  %coerce.dive7 = getelementptr inbounds %"class.hermes::vm::Handle.0", ptr %agg.tmp, i32 0, i32 0
  %coerce.dive8 = getelementptr inbounds %"class.hermes::vm::HandleBase", ptr %coerce.dive7, i32 0, i32 0
  %1 = load ptr, ptr %coerce.dive8, align 8
  %call9 = call ptr @_ZN6hermes2vm12toString_RJSERNS0_7RuntimeENS0_6HandleINS0_11HermesValueEEE(ptr noundef nonnull align 8 dereferenceable(9832) %0, ptr %1)
  %coerce.dive10 = getelementptr inbounds %"class.hermes::vm::CallResult.205", ptr %strRes, i32 0, i32 0
  %coerce.dive11 = getelementptr inbounds %"class.hermes::vm::PseudoHandle.206", ptr %coerce.dive10, i32 0, i32 0
  store ptr %call9, ptr %coerce.dive11, align 8
  %call12 = call noundef zeroext i1 @_ZN6hermes2vmeqINS0_12PseudoHandleINS0_15StringPrimitiveEEEEEbRKNS0_10CallResultIT_Xsr6detail23GetCallResultSpecializeIS6_EE5valueEEENS0_15ExecutionStatusE(ptr noundef nonnull align 8 dereferenceable(8) %strRes, i32 noundef 0)
  br i1 %call12, label %if.then13, label %if.end

if.then13:                                        ; preds = %if.then
  store i32 0, ptr %retval, align 4
  br label %return

if.end:                                           ; preds = %if.then
  %2 = load ptr, ptr %runtime.addr, align 8
  %call14 = call noundef nonnull align 8 dereferenceable(8) ptr @_ZN6hermes2vm10CallResultINS0_12PseudoHandleINS0_15StringPrimitiveEEELNS0_6detail20CallResultSpecializeE6EEdeEv(ptr noundef nonnull align 8 dereferenceable(8) %strRes)
  %call15 = call ptr @_ZN6hermes2vm15HandleRootOwner10makeHandleINS0_15StringPrimitiveEEENS0_6HandleIT_EEONS0_12PseudoHandleIS5_EE(ptr noundef nonnull align 8 dereferenceable(16) %2, ptr noundef nonnull align 8 dereferenceable(8) %call14)
  %coerce.dive16 = getelementptr inbounds %"class.hermes::vm::Handle.203", ptr %ref.tmp, i32 0, i32 0
  %coerce.dive17 = getelementptr inbounds %"class.hermes::vm::HandleBase", ptr %coerce.dive16, i32 0, i32 0
  store ptr %call15, ptr %coerce.dive17, align 8
  call void @llvm.memcpy.p0.p0.i64(ptr align 8 %stringMessage, ptr align 8 %ref.tmp, i64 8, i1 false)
  br label %if.end18

if.end18:                                         ; preds = %if.end, %entry
  %call19 = call i32 @_ZN6hermes2vm19DefinePropertyFlags24getNewNonEnumerableFlagsEv()
  %coerce.dive20 = getelementptr inbounds %"union.hermes::vm::DefinePropertyFlags", ptr %dpf, i32 0, i32 0
  store i32 %call19, ptr %coerce.dive20, align 4
  call void @_ZN6hermes2vm6HandleINS0_8JSObjectEEC2INS0_7JSErrorEvEERKNS1_IT_EE(ptr noundef nonnull align 8 dereferenceable(8) %agg.tmp22, ptr noundef nonnull align 8 dereferenceable(8) %selfHandle)
  %3 = load ptr, ptr %runtime.addr, align 8
  %call24 = call i32 @_ZN6hermes2vm10Predefined11getSymbolIDENS1_3StrE(i32 noundef 138)
  %coerce.dive25 = getelementptr inbounds %"class.hermes::vm::SymbolID", ptr %agg.tmp23, i32 0, i32 0
  store i32 %call24, ptr %coerce.dive25, align 4
  call void @llvm.memcpy.p0.p0.i64(ptr align 4 %agg.tmp26, ptr align 4 %dpf, i64 4, i1 false)
  call void @_ZN6hermes2vm6HandleINS0_11HermesValueEEC2INS0_15StringPrimitiveEvEERKNS1_IT_EE(ptr noundef nonnull align 8 dereferenceable(8) %agg.tmp27, ptr noundef nonnull align 8 dereferenceable(8) %stringMessage)
  call void @llvm.memset.p0.i64(ptr align 4 %agg.tmp28, i8 0, i64 4, i1 false)
  call void @_ZN6hermes2vm11PropOpFlagsC2Ev(ptr noundef nonnull align 4 dereferenceable(4) %agg.tmp28) #10
  %coerce.dive29 = getelementptr inbounds %"class.hermes::vm::Handle", ptr %agg.tmp22, i32 0, i32 0
  %coerce.dive30 = getelementptr inbounds %"class.hermes::vm::HandleBase", ptr %coerce.dive29, i32 0, i32 0
  %4 = load ptr, ptr %coerce.dive30, align 8
  %coerce.dive31 = getelementptr inbounds %"class.hermes::vm::SymbolID", ptr %agg.tmp23, i32 0, i32 0
  %5 = load i32, ptr %coerce.dive31, align 4
  %coerce.dive32 = getelementptr inbounds %"union.hermes::vm::DefinePropertyFlags", ptr %agg.tmp26, i32 0, i32 0
  %6 = load i32, ptr %coerce.dive32, align 4
  %coerce.dive33 = getelementptr inbounds %"class.hermes::vm::Handle.0", ptr %agg.tmp27, i32 0, i32 0
  %coerce.dive34 = getelementptr inbounds %"class.hermes::vm::HandleBase", ptr %coerce.dive33, i32 0, i32 0
  %7 = load ptr, ptr %coerce.dive34, align 8
  %coerce.dive35 = getelementptr inbounds %"union.hermes::vm::PropOpFlags", ptr %agg.tmp28, i32 0, i32 0
  %8 = load i32, ptr %coerce.dive35, align 4
  %call36 = call i32 @_ZN6hermes2vm8JSObject17defineOwnPropertyENS0_6HandleIS1_EERNS0_7RuntimeENS0_8SymbolIDENS0_19DefinePropertyFlagsENS2_INS0_11HermesValueEEENS0_11PropOpFlagsE(ptr %4, ptr noundef nonnull align 8 dereferenceable(9832) %3, i32 %5, i32 %6, ptr %7, i32 %8)
  store i32 %call36, ptr %ref.tmp21, align 4
  %call37 = call noundef i32 @_ZNK6hermes2vm10CallResultIbLNS0_6detail20CallResultSpecializeE1EE9getStatusEv(ptr noundef nonnull align 4 dereferenceable(2) %ref.tmp21)
  store i32 %call37, ptr %retval, align 4
  br label %return

return:                                           ; preds = %if.end18, %if.then13
  %9 = load i32, ptr %retval, align 4
  ret i32 %9
}

; Function Attrs: mustprogress nounwind uwtable
define linkonce_odr hidden ptr @_ZN6hermes2vm6HandleINS0_15StringPrimitiveEE10dyn_vmcastERKNS0_10HandleBaseE(ptr noundef nonnull align 8 dereferenceable(8) %other) #0 comdat align 2 {
entry:
  %retval = alloca %"class.hermes::vm::Handle.203", align 8
  %other.addr = alloca ptr, align 8
  %agg.tmp = alloca %"class.hermes::vm::HermesValue", align 8
  store ptr %other, ptr %other.addr, align 8
  %0 = load ptr, ptr %other.addr, align 8
  %call = call i64 @_ZNK6hermes2vm10HandleBase14getHermesValueEv(ptr noundef nonnull align 8 dereferenceable(8) %0)
  %coerce.dive = getelementptr inbounds %"class.hermes::vm::HermesValue", ptr %agg.tmp, i32 0, i32 0
  store i64 %call, ptr %coerce.dive, align 8
  %coerce.dive1 = getelementptr inbounds %"class.hermes::vm::HermesValue", ptr %agg.tmp, i32 0, i32 0
  %1 = load i64, ptr %coerce.dive1, align 8
  %call2 = call noundef zeroext i1 @_ZN6hermes2vm5vmisaINS0_15StringPrimitiveEEEbNS0_11HermesValueE(i64 %1)
  br i1 %call2, label %cond.true, label %cond.false

cond.true:                                        ; preds = %entry
  %2 = load ptr, ptr %other.addr, align 8
  call void @_ZN6hermes2vm6HandleINS0_15StringPrimitiveEEC2ERKNS0_10HandleBaseEb(ptr noundef nonnull align 8 dereferenceable(8) %retval, ptr noundef nonnull align 8 dereferenceable(8) %2, i1 noundef zeroext true)
  br label %cond.end

cond.false:                                       ; preds = %entry
  %call3 = call ptr @_ZN6hermes2vm15HandleRootOwner14makeNullHandleINS0_15StringPrimitiveEEENS0_6HandleIT_EEv()
  %coerce.dive4 = getelementptr inbounds %"class.hermes::vm::Handle.203", ptr %retval, i32 0, i32 0
  %coerce.dive5 = getelementptr inbounds %"class.hermes::vm::HandleBase", ptr %coerce.dive4, i32 0, i32 0
  store ptr %call3, ptr %coerce.dive5, align 8
  br label %cond.end

cond.end:                                         ; preds = %cond.false, %cond.true
  %coerce.dive6 = getelementptr inbounds %"class.hermes::vm::Handle.203", ptr %retval, i32 0, i32 0
  %coerce.dive7 = getelementptr inbounds %"class.hermes::vm::HandleBase", ptr %coerce.dive6, i32 0, i32 0
  %3 = load ptr, ptr %coerce.dive7, align 8
  ret ptr %3
}

; Function Attrs: mustprogress nounwind uwtable
define linkonce_odr hidden noundef zeroext i1 @_ZNK6hermes2vm6HandleINS0_15StringPrimitiveEEcvbEv(ptr noundef nonnull align 8 dereferenceable(8) %this) #0 comdat align 2 {
entry:
  %this.addr = alloca ptr, align 8
  store ptr %this, ptr %this.addr, align 8
  %this1 = load ptr, ptr %this.addr, align 8
  %call = call noundef ptr @_ZNK6hermes2vm10HandleBase9handleRefEv(ptr noundef nonnull align 8 dereferenceable(8) %this1)
  %call2 = call noundef zeroext i1 @_ZNK6hermes2vm11HermesValue9isPointerEv(ptr noundef nonnull align 8 dereferenceable(8) %call)
  br i1 %call2, label %land.rhs, label %land.end

land.rhs:                                         ; preds = %entry
  %call3 = call noundef ptr @_ZNK6hermes2vm10HandleBase9handleRefEv(ptr noundef nonnull align 8 dereferenceable(8) %this1)
  %call4 = call noundef ptr @_ZNK6hermes2vm11HermesValue10getPointerEv(ptr noundef nonnull align 8 dereferenceable(8) %call3)
  %tobool = icmp ne ptr %call4, null
  br label %land.end

land.end:                                         ; preds = %land.rhs, %entry
  %0 = phi i1 [ false, %entry ], [ %tobool, %land.rhs ]
  ret i1 %0
}

; Function Attrs: mustprogress nounwind uwtable
define linkonce_odr hidden ptr @_ZN6hermes2vm15HandleRootOwner10makeHandleINS0_15StringPrimitiveEEENS0_6HandleIT_EEONS0_12PseudoHandleIS5_EE(ptr noundef nonnull align 8 dereferenceable(16) %this, ptr noundef nonnull align 8 dereferenceable(8) %pseudo) #0 comdat align 2 {
entry:
  %retval = alloca %"class.hermes::vm::Handle.203", align 8
  %this.addr = alloca ptr, align 8
  %pseudo.addr = alloca ptr, align 8
  store ptr %this, ptr %this.addr, align 8
  store ptr %pseudo, ptr %pseudo.addr, align 8
  %this1 = load ptr, ptr %this.addr, align 8
  %0 = load ptr, ptr %pseudo.addr, align 8
  %call = call noundef ptr @_ZNK6hermes2vm12PseudoHandleINS0_15StringPrimitiveEE3getEv(ptr noundef nonnull align 8 dereferenceable(8) %0)
  call void @_ZN6hermes2vm6HandleINS0_15StringPrimitiveEEC2ERNS0_15HandleRootOwnerEPS2_(ptr noundef nonnull align 8 dereferenceable(8) %retval, ptr noundef nonnull align 8 dereferenceable(16) %this1, ptr noundef %call)
  %1 = load ptr, ptr %pseudo.addr, align 8
  call void @_ZN6hermes2vm12PseudoHandleINS0_15StringPrimitiveEE10invalidateEv(ptr noundef nonnull align 8 dereferenceable(8) %1)
  %coerce.dive = getelementptr inbounds %"class.hermes::vm::Handle.203", ptr %retval, i32 0, i32 0
  %coerce.dive2 = getelementptr inbounds %"class.hermes::vm::HandleBase", ptr %coerce.dive, i32 0, i32 0
  %2 = load ptr, ptr %coerce.dive2, align 8
  ret ptr %2
}

; Function Attrs: mustprogress nounwind uwtable
define linkonce_odr hidden noundef nonnull align 8 dereferenceable(8) ptr @_ZN6hermes2vm10CallResultINS0_12PseudoHandleINS0_15StringPrimitiveEEELNS0_6detail20CallResultSpecializeE6EEdeEv(ptr noundef nonnull align 8 dereferenceable(8) %this) #0 comdat align 2 {
entry:
  %this.addr = alloca ptr, align 8
  store ptr %this, ptr %this.addr, align 8
  %this1 = load ptr, ptr %this.addr, align 8
  %call = call noundef nonnull align 8 dereferenceable(8) ptr @_ZN6hermes2vm10CallResultINS0_12PseudoHandleINS0_15StringPrimitiveEEELNS0_6detail20CallResultSpecializeE6EE8getValueEv(ptr noundef nonnull align 8 dereferenceable(8) %this1)
  ret ptr %call
}

; Function Attrs: mustprogress nounwind uwtable
define linkonce_odr hidden void @_ZN6hermes2vm6HandleINS0_8JSObjectEEC2INS0_7JSErrorEvEERKNS1_IT_EE(ptr noundef nonnull align 8 dereferenceable(8) %this, ptr noundef nonnull align 8 dereferenceable(8) %other) unnamed_addr #0 comdat align 2 {
entry:
  %this.addr = alloca ptr, align 8
  %other.addr = alloca ptr, align 8
  store ptr %this, ptr %this.addr, align 8
  store ptr %other, ptr %other.addr, align 8
  %this1 = load ptr, ptr %this.addr, align 8
  %0 = load ptr, ptr %other.addr, align 8
  call void @llvm.memcpy.p0.p0.i64(ptr align 8 %this1, ptr align 8 %0, i64 8, i1 false)
  ret void
}

; Function Attrs: mustprogress nounwind uwtable
define linkonce_odr hidden void @_ZN6hermes2vm6HandleINS0_11HermesValueEEC2INS0_15StringPrimitiveEvEERKNS1_IT_EE(ptr noundef nonnull align 8 dereferenceable(8) %this, ptr noundef nonnull align 8 dereferenceable(8) %other) unnamed_addr #0 comdat align 2 {
entry:
  %this.addr = alloca ptr, align 8
  %other.addr = alloca ptr, align 8
  store ptr %this, ptr %this.addr, align 8
  store ptr %other, ptr %other.addr, align 8
  %this1 = load ptr, ptr %this.addr, align 8
  %0 = load ptr, ptr %other.addr, align 8
  call void @llvm.memcpy.p0.p0.i64(ptr align 8 %this1, ptr align 8 %0, i64 8, i1 false)
  ret void
}

; Function Attrs: mustprogress nounwind uwtable
define linkonce_odr hidden noundef i32 @_ZNK6hermes2vm10CallResultIbLNS0_6detail20CallResultSpecializeE1EE9getStatusEv(ptr noundef nonnull align 4 dereferenceable(2) %this) #0 comdat align 2 {
entry:
  %this.addr = alloca ptr, align 8
  store ptr %this, ptr %this.addr, align 8
  %this1 = load ptr, ptr %this.addr, align 8
  %bf.load = load i16, ptr %this1, align 4
  %bf.shl = shl i16 %bf.load, 8
  %bf.ashr = ashr i16 %bf.shl, 8
  %bf.cast = sext i16 %bf.ashr to i32
  ret i32 %bf.cast
}

; Function Attrs: mustprogress nounwind uwtable
define hidden noundef i32 @_ZN6hermes2vm7JSError16recordStackTraceENS0_6HandleIS1_EERNS0_7RuntimeEbPNS0_9CodeBlockEPKNS_4inst4InstE(ptr %selfHandle.coerce, ptr noundef nonnull align 8 dereferenceable(9832) %runtime, i1 noundef zeroext %skipTopFrame, ptr noundef %codeBlock, ptr noundef %ip) #0 align 2 {
entry:
  %o.i = alloca %"class.hermes::vm::StackFramePtrT", align 8
  %this.addr.i129 = alloca ptr, align 8
  %this.addr.i127 = alloca ptr, align 8
  %this.addr.i125 = alloca ptr, align 8
  %this.addr.i = alloca ptr, align 8
  %retval = alloca i32, align 4
  %selfHandle = alloca %"class.hermes::vm::Handle.10", align 8
  %runtime.addr = alloca ptr, align 8
  %skipTopFrame.addr = alloca i8, align 1
  %codeBlock.addr = alloca ptr, align 8
  %ip.addr = alloca ptr, align 8
  %frames = alloca %"class.llvh::iterator_range", align 8
  %ref.tmp = alloca %"class.hermes::vm::StackFrameIteratorT", align 8
  %agg.tmp = alloca %"class.hermes::vm::StackFrameIteratorT", align 8
  %ref.tmp15 = alloca %"class.hermes::vm::StackFramePtrT", align 8
  %ref.tmp16 = alloca %"class.hermes::vm::StackFrameIteratorT", align 8
  %stack = alloca %"class.std::unique_ptr", align 8
  %domainsRes = alloca %"class.hermes::vm::CallResult.177", align 8
  %cleanup.dest.slot = alloca i32, align 4
  %domains = alloca %"class.hermes::vm::MutableHandle.216", align 8
  %agg.tmp32 = alloca %"class.hermes::vm::HermesValue", align 8
  %addDomain = alloca %class.anon.218, align 8
  %ref.tmp41 = alloca i32, align 4
  %ref.tmp48 = alloca ptr, align 8
  %ref.tmp49 = alloca i32, align 4
  %framesEnd = alloca %"class.hermes::vm::StackFramePtrT", align 8
  %ref.tmp53 = alloca %"class.hermes::vm::StackFrameIteratorT", align 8
  %ref.tmp54 = alloca %"class.llvh::iterator_range", align 8
  %__range2 = alloca ptr, align 8
  %ref.tmp61 = alloca %"class.llvh::iterator_range", align 8
  %__begin2 = alloca %"class.hermes::vm::StackFrameIteratorT", align 8
  %__end2 = alloca %"class.hermes::vm::StackFrameIteratorT", align 8
  %agg.tmp69 = alloca %"class.hermes::vm::StackFrameIteratorT", align 8
  %cf = alloca %"class.hermes::vm::StackFramePtrT", align 8
  %savedCodeBlock = alloca ptr, align 8
  %savedIP = alloca ptr, align 8
  %prev = alloca %"class.hermes::vm::StackFramePtrT", align 8
  %agg.tmp80 = alloca %"class.hermes::vm::StackFramePtrT", align 8
  %parentCB = alloca ptr, align 8
  %ref.tmp95 = alloca i32, align 4
  %ref.tmp104 = alloca ptr, align 8
  %ref.tmp105 = alloca i32, align 4
  %funcNames = alloca %"class.hermes::vm::Handle.217", align 8
  %coerce.dive = getelementptr inbounds %"class.hermes::vm::Handle.10", ptr %selfHandle, i32 0, i32 0
  %coerce.dive1 = getelementptr inbounds %"class.hermes::vm::HandleBase", ptr %coerce.dive, i32 0, i32 0
  store ptr %selfHandle.coerce, ptr %coerce.dive1, align 8
  store ptr %runtime, ptr %runtime.addr, align 8
  %frombool = zext i1 %skipTopFrame to i8
  store i8 %frombool, ptr %skipTopFrame.addr, align 1
  store ptr %codeBlock, ptr %codeBlock.addr, align 8
  store ptr %ip, ptr %ip.addr, align 8
  %call = call noundef ptr @_ZNK6hermes2vm6HandleINS0_7JSErrorEEptEv(ptr noundef nonnull align 8 dereferenceable(8) %selfHandle)
  %stacktrace_ = getelementptr inbounds %"class.hermes::vm::JSError", ptr %call, i32 0, i32 2
  %call2 = call noundef zeroext i1 @_ZNKSt10unique_ptrISt6vectorIN6hermes2vm14StackTraceInfoESaIS3_EESt14default_deleteIS5_EEcvbEv(ptr noundef nonnull align 8 dereferenceable(8) %stacktrace_) #10
  br i1 %call2, label %if.then, label %if.end

if.then:                                          ; preds = %entry
  store i32 1, ptr %retval, align 4
  br label %return

if.end:                                           ; preds = %entry
  %0 = load ptr, ptr %runtime.addr, align 8
  %call3 = call { ptr, ptr } @_ZN6hermes2vm7Runtime14getStackFramesEv(ptr noundef nonnull align 8 dereferenceable(9832) %0)
  %1 = getelementptr inbounds { ptr, ptr }, ptr %frames, i32 0, i32 0
  %2 = extractvalue { ptr, ptr } %call3, 0
  store ptr %2, ptr %1, align 8
  %3 = getelementptr inbounds { ptr, ptr }, ptr %frames, i32 0, i32 1
  %4 = extractvalue { ptr, ptr } %call3, 1
  store ptr %4, ptr %3, align 8
  %5 = load i8, ptr %skipTopFrame.addr, align 1
  %tobool = trunc i8 %5 to i1
  br i1 %tobool, label %land.end, label %land.lhs.true

land.lhs.true:                                    ; preds = %if.end
  %6 = load ptr, ptr %codeBlock.addr, align 8
  %tobool4 = icmp ne ptr %6, null
  br i1 %tobool4, label %land.end, label %land.lhs.true5

land.lhs.true5:                                   ; preds = %land.lhs.true
  %call6 = call ptr @_ZNK4llvh14iterator_rangeIN6hermes2vm19StackFrameIteratorTILb0EEEE5beginEv(ptr noundef nonnull align 8 dereferenceable(16) %frames)
  %coerce.dive7 = getelementptr inbounds %"class.hermes::vm::StackFrameIteratorT", ptr %ref.tmp, i32 0, i32 0
  %coerce.dive8 = getelementptr inbounds %"class.hermes::vm::StackFramePtrT", ptr %coerce.dive7, i32 0, i32 0
  store ptr %call6, ptr %coerce.dive8, align 8
  %call9 = call ptr @_ZNK4llvh14iterator_rangeIN6hermes2vm19StackFrameIteratorTILb0EEEE3endEv(ptr noundef nonnull align 8 dereferenceable(16) %frames)
  %coerce.dive10 = getelementptr inbounds %"class.hermes::vm::StackFrameIteratorT", ptr %agg.tmp, i32 0, i32 0
  %coerce.dive11 = getelementptr inbounds %"class.hermes::vm::StackFramePtrT", ptr %coerce.dive10, i32 0, i32 0
  store ptr %call9, ptr %coerce.dive11, align 8
  %coerce.dive12 = getelementptr inbounds %"class.hermes::vm::StackFrameIteratorT", ptr %agg.tmp, i32 0, i32 0
  %coerce.dive13 = getelementptr inbounds %"class.hermes::vm::StackFramePtrT", ptr %coerce.dive12, i32 0, i32 0
  %7 = load ptr, ptr %coerce.dive13, align 8
  %call14 = call noundef zeroext i1 @_ZNK6hermes2vm19StackFrameIteratorTILb0EEneES2_(ptr noundef nonnull align 8 dereferenceable(8) %ref.tmp, ptr %7)
  br i1 %call14, label %land.rhs, label %land.end

land.rhs:                                         ; preds = %land.lhs.true5
  %call17 = call ptr @_ZNK4llvh14iterator_rangeIN6hermes2vm19StackFrameIteratorTILb0EEEE5beginEv(ptr noundef nonnull align 8 dereferenceable(16) %frames)
  %coerce.dive18 = getelementptr inbounds %"class.hermes::vm::StackFrameIteratorT", ptr %ref.tmp16, i32 0, i32 0
  %coerce.dive19 = getelementptr inbounds %"class.hermes::vm::StackFramePtrT", ptr %coerce.dive18, i32 0, i32 0
  store ptr %call17, ptr %coerce.dive19, align 8
  %call20 = call ptr @_ZNK6hermes2vm19StackFrameIteratorTILb0EEptEv(ptr noundef nonnull align 8 dereferenceable(8) %ref.tmp16)
  %coerce.dive21 = getelementptr inbounds %"class.hermes::vm::StackFramePtrT", ptr %ref.tmp15, i32 0, i32 0
  store ptr %call20, ptr %coerce.dive21, align 8
  store ptr %ref.tmp15, ptr %this.addr.i127, align 8
  %this1.i128 = load ptr, ptr %this.addr.i127, align 8
  %8 = load ptr, ptr %runtime.addr, align 8
  %call23 = call noundef ptr @_ZNK6hermes2vm14StackFramePtrTILb0EE18getCalleeCodeBlockERNS0_7RuntimeE(ptr noundef nonnull align 8 dereferenceable(8) %this1.i128, ptr noundef nonnull align 8 dereferenceable(9832) %8)
  %tobool24 = icmp ne ptr %call23, null
  br label %land.end

land.end:                                         ; preds = %land.rhs, %land.lhs.true5, %land.lhs.true, %if.end
  %9 = phi i1 [ false, %land.lhs.true5 ], [ false, %land.lhs.true ], [ false, %if.end ], [ %tobool24, %land.rhs ]
  br i1 %9, label %if.then25, label %if.end26

if.then25:                                        ; preds = %land.end
  store i32 1, ptr %retval, align 4
  br label %return

if.end26:                                         ; preds = %land.end
  %call27 = call noalias noundef nonnull ptr @_Znwm(i64 noundef 24) #12
  call void @llvm.memset.p0.i64(ptr align 16 %call27, i8 0, i64 24, i1 false)
  call void @_ZNSt6vectorIN6hermes2vm14StackTraceInfoESaIS2_EEC2Ev(ptr noundef nonnull align 8 dereferenceable(24) %call27) #10
  call void @_ZNSt10unique_ptrISt6vectorIN6hermes2vm14StackTraceInfoESaIS3_EESt14default_deleteIS5_EEC2IS7_vEEPS5_(ptr noundef nonnull align 8 dereferenceable(8) %stack, ptr noundef %call27) #10
  %10 = load ptr, ptr %runtime.addr, align 8
  %call28 = call { i32, i64 } @_ZN6hermes2vm16ArrayStorageBaseINS0_13HermesValue32EE6createERNS0_7RuntimeEj(ptr noundef nonnull align 8 dereferenceable(9832) %10, i32 noundef 1)
  %11 = getelementptr inbounds { i32, i64 }, ptr %domainsRes, i32 0, i32 0
  %12 = extractvalue { i32, i64 } %call28, 0
  store i32 %12, ptr %11, align 8
  %13 = getelementptr inbounds { i32, i64 }, ptr %domainsRes, i32 0, i32 1
  %14 = extractvalue { i32, i64 } %call28, 1
  store i64 %14, ptr %13, align 8
  %call29 = call noundef zeroext i1 @_ZN6hermes2vmeqINS0_11HermesValueEEEbRKNS0_10CallResultIT_Xsr6detail23GetCallResultSpecializeIS4_EE5valueEEENS0_15ExecutionStatusE(ptr noundef nonnull align 8 dereferenceable(16) %domainsRes, i32 noundef 0)
  br i1 %call29, label %if.then30, label %if.end31

if.then30:                                        ; preds = %if.end26
  store i32 0, ptr %retval, align 4
  store i32 1, ptr %cleanup.dest.slot, align 4
  br label %cleanup

if.end31:                                         ; preds = %if.end26
  %15 = load ptr, ptr %runtime.addr, align 8
  %call33 = call noundef nonnull align 8 dereferenceable(8) ptr @_ZNK6hermes2vm10CallResultINS0_11HermesValueELNS0_6detail20CallResultSpecializeE2EEdeEv(ptr noundef nonnull align 8 dereferenceable(16) %domainsRes)
  call void @llvm.memcpy.p0.p0.i64(ptr align 8 %agg.tmp32, ptr align 8 %call33, i64 8, i1 false)
  %coerce.dive34 = getelementptr inbounds %"class.hermes::vm::HermesValue", ptr %agg.tmp32, i32 0, i32 0
  %16 = load i64, ptr %coerce.dive34, align 8
  %call35 = call noundef ptr @_ZN6hermes2vm6vmcastINS0_16ArrayStorageBaseINS0_13HermesValue32EEEEEPT_NS0_11HermesValueE(i64 %16)
  call void @_ZN6hermes2vm15HandleRootOwner17makeMutableHandleINS0_16ArrayStorageBaseINS0_13HermesValue32EEEEENS0_13MutableHandleIT_EEPS7_(ptr sret(%"class.hermes::vm::MutableHandle.216") align 8 %domains, ptr noundef nonnull align 8 dereferenceable(16) %15, ptr noundef %call35)
  %17 = getelementptr inbounds %class.anon.218, ptr %addDomain, i32 0, i32 0
  store ptr %domains, ptr %17, align 8
  %18 = getelementptr inbounds %class.anon.218, ptr %addDomain, i32 0, i32 1
  %19 = load ptr, ptr %runtime.addr, align 8
  store ptr %19, ptr %18, align 8
  %20 = load i8, ptr %skipTopFrame.addr, align 1
  %tobool36 = trunc i8 %20 to i1
  br i1 %tobool36, label %if.end52, label %if.then37

if.then37:                                        ; preds = %if.end31
  %21 = load ptr, ptr %codeBlock.addr, align 8
  %tobool38 = icmp ne ptr %21, null
  br i1 %tobool38, label %if.then39, label %if.else

if.then39:                                        ; preds = %if.then37
  %call40 = call noundef ptr @_ZNKSt10unique_ptrISt6vectorIN6hermes2vm14StackTraceInfoESaIS3_EESt14default_deleteIS5_EEptEv(ptr noundef nonnull align 8 dereferenceable(8) %stack) #10
  %22 = load ptr, ptr %codeBlock.addr, align 8
  %23 = load ptr, ptr %ip.addr, align 8
  %call42 = call noundef i32 @_ZNK6hermes2vm9CodeBlock11getOffsetOfEPKNS_4inst4InstE(ptr noundef nonnull align 8 dereferenceable(40) %22, ptr noundef %23)
  store i32 %call42, ptr %ref.tmp41, align 4
  %call43 = call noundef nonnull align 8 dereferenceable(12) ptr @_ZNSt6vectorIN6hermes2vm14StackTraceInfoESaIS2_EE12emplace_backIJRPNS1_9CodeBlockEjEEERS2_DpOT_(ptr noundef nonnull align 8 dereferenceable(24) %call40, ptr noundef nonnull align 8 dereferenceable(8) %codeBlock.addr, ptr noundef nonnull align 4 dereferenceable(4) %ref.tmp41)
  %24 = load ptr, ptr %codeBlock.addr, align 8
  %call44 = call noundef i32 @"_ZZN6hermes2vm7JSError16recordStackTraceENS0_6HandleIS1_EERNS0_7RuntimeEbPNS0_9CodeBlockEPKNS_4inst4InstEENK3$_0clES7_"(ptr noundef nonnull align 8 dereferenceable(16) %addDomain, ptr noundef %24)
  %cmp = icmp eq i32 %call44, 0
  br i1 %cmp, label %if.then45, label %if.end46

if.then45:                                        ; preds = %if.then39
  store i32 0, ptr %retval, align 4
  store i32 1, ptr %cleanup.dest.slot, align 4
  br label %cleanup

if.end46:                                         ; preds = %if.then39
  br label %if.end51

if.else:                                          ; preds = %if.then37
  %call47 = call noundef ptr @_ZNKSt10unique_ptrISt6vectorIN6hermes2vm14StackTraceInfoESaIS3_EESt14default_deleteIS5_EEptEv(ptr noundef nonnull align 8 dereferenceable(8) %stack) #10
  store ptr null, ptr %ref.tmp48, align 8
  store i32 0, ptr %ref.tmp49, align 4
  %call50 = call noundef nonnull align 8 dereferenceable(12) ptr @_ZNSt6vectorIN6hermes2vm14StackTraceInfoESaIS2_EE12emplace_backIJDniEEERS2_DpOT_(ptr noundef nonnull align 8 dereferenceable(24) %call47, ptr noundef nonnull align 8 dereferenceable(8) %ref.tmp48, ptr noundef nonnull align 4 dereferenceable(4) %ref.tmp49)
  br label %if.end51

if.end51:                                         ; preds = %if.else, %if.end46
  br label %if.end52

if.end52:                                         ; preds = %if.end51, %if.end31
  %25 = load ptr, ptr %runtime.addr, align 8
  %call55 = call { ptr, ptr } @_ZN6hermes2vm7Runtime14getStackFramesEv(ptr noundef nonnull align 8 dereferenceable(9832) %25)
  %26 = getelementptr inbounds { ptr, ptr }, ptr %ref.tmp54, i32 0, i32 0
  %27 = extractvalue { ptr, ptr } %call55, 0
  store ptr %27, ptr %26, align 8
  %28 = getelementptr inbounds { ptr, ptr }, ptr %ref.tmp54, i32 0, i32 1
  %29 = extractvalue { ptr, ptr } %call55, 1
  store ptr %29, ptr %28, align 8
  %call56 = call ptr @_ZNK4llvh14iterator_rangeIN6hermes2vm19StackFrameIteratorTILb0EEEE3endEv(ptr noundef nonnull align 8 dereferenceable(16) %ref.tmp54)
  %coerce.dive57 = getelementptr inbounds %"class.hermes::vm::StackFrameIteratorT", ptr %ref.tmp53, i32 0, i32 0
  %coerce.dive58 = getelementptr inbounds %"class.hermes::vm::StackFramePtrT", ptr %coerce.dive57, i32 0, i32 0
  store ptr %call56, ptr %coerce.dive58, align 8
  %call59 = call ptr @_ZNK6hermes2vm19StackFrameIteratorTILb0EEdeEv(ptr noundef nonnull align 8 dereferenceable(8) %ref.tmp53)
  %coerce.dive60 = getelementptr inbounds %"class.hermes::vm::StackFramePtrT", ptr %framesEnd, i32 0, i32 0
  store ptr %call59, ptr %coerce.dive60, align 8
  %30 = load ptr, ptr %runtime.addr, align 8
  %call62 = call { ptr, ptr } @_ZN6hermes2vm7Runtime14getStackFramesEv(ptr noundef nonnull align 8 dereferenceable(9832) %30)
  %31 = getelementptr inbounds { ptr, ptr }, ptr %ref.tmp61, i32 0, i32 0
  %32 = extractvalue { ptr, ptr } %call62, 0
  store ptr %32, ptr %31, align 8
  %33 = getelementptr inbounds { ptr, ptr }, ptr %ref.tmp61, i32 0, i32 1
  %34 = extractvalue { ptr, ptr } %call62, 1
  store ptr %34, ptr %33, align 8
  store ptr %ref.tmp61, ptr %__range2, align 8
  %35 = load ptr, ptr %__range2, align 8
  %call63 = call ptr @_ZNK4llvh14iterator_rangeIN6hermes2vm19StackFrameIteratorTILb0EEEE5beginEv(ptr noundef nonnull align 8 dereferenceable(16) %35)
  %coerce.dive64 = getelementptr inbounds %"class.hermes::vm::StackFrameIteratorT", ptr %__begin2, i32 0, i32 0
  %coerce.dive65 = getelementptr inbounds %"class.hermes::vm::StackFramePtrT", ptr %coerce.dive64, i32 0, i32 0
  store ptr %call63, ptr %coerce.dive65, align 8
  %36 = load ptr, ptr %__range2, align 8
  %call66 = call ptr @_ZNK4llvh14iterator_rangeIN6hermes2vm19StackFrameIteratorTILb0EEEE3endEv(ptr noundef nonnull align 8 dereferenceable(16) %36)
  %coerce.dive67 = getelementptr inbounds %"class.hermes::vm::StackFrameIteratorT", ptr %__end2, i32 0, i32 0
  %coerce.dive68 = getelementptr inbounds %"class.hermes::vm::StackFramePtrT", ptr %coerce.dive67, i32 0, i32 0
  store ptr %call66, ptr %coerce.dive68, align 8
  br label %for.cond

for.cond:                                         ; preds = %for.inc, %if.end52
  call void @llvm.memcpy.p0.p0.i64(ptr align 8 %agg.tmp69, ptr align 8 %__end2, i64 8, i1 false)
  %coerce.dive70 = getelementptr inbounds %"class.hermes::vm::StackFrameIteratorT", ptr %agg.tmp69, i32 0, i32 0
  %coerce.dive71 = getelementptr inbounds %"class.hermes::vm::StackFramePtrT", ptr %coerce.dive70, i32 0, i32 0
  %37 = load ptr, ptr %coerce.dive71, align 8
  %call72 = call noundef zeroext i1 @_ZNK6hermes2vm19StackFrameIteratorTILb0EEneES2_(ptr noundef nonnull align 8 dereferenceable(8) %__begin2, ptr %37)
  br i1 %call72, label %for.body, label %for.end

for.body:                                         ; preds = %for.cond
  %call73 = call ptr @_ZNK6hermes2vm19StackFrameIteratorTILb0EEdeEv(ptr noundef nonnull align 8 dereferenceable(8) %__begin2)
  %coerce.dive74 = getelementptr inbounds %"class.hermes::vm::StackFramePtrT", ptr %cf, i32 0, i32 0
  store ptr %call73, ptr %coerce.dive74, align 8
  %call75 = call noundef ptr @_ZNK6hermes2vm14StackFramePtrTILb0EE17getSavedCodeBlockEv(ptr noundef nonnull align 8 dereferenceable(8) %cf)
  store ptr %call75, ptr %savedCodeBlock, align 8
  %call76 = call noundef ptr @_ZNK6hermes2vm14StackFramePtrTILb0EE10getSavedIPEv(ptr noundef nonnull align 8 dereferenceable(8) %cf)
  store ptr %call76, ptr %savedIP, align 8
  store ptr %cf, ptr %this.addr.i125, align 8
  %this1.i126 = load ptr, ptr %this.addr.i125, align 8
  %call78 = call ptr @_ZNK6hermes2vm14StackFramePtrTILb0EE16getPreviousFrameEv(ptr noundef nonnull align 8 dereferenceable(8) %this1.i126)
  %coerce.dive79 = getelementptr inbounds %"class.hermes::vm::StackFramePtrT", ptr %prev, i32 0, i32 0
  store ptr %call78, ptr %coerce.dive79, align 8
  call void @llvm.memcpy.p0.p0.i64(ptr align 8 %agg.tmp80, ptr align 8 %framesEnd, i64 8, i1 false)
  %coerce.dive81 = getelementptr inbounds %"class.hermes::vm::StackFramePtrT", ptr %agg.tmp80, i32 0, i32 0
  %38 = load ptr, ptr %coerce.dive81, align 8
  store ptr %38, ptr %o.i, align 8
  store ptr %prev, ptr %this.addr.i129, align 8
  %this1.i130 = load ptr, ptr %this.addr.i129, align 8
  %39 = load ptr, ptr %this1.i130, align 8
  %40 = load ptr, ptr %o.i, align 8
  %cmp.i = icmp ne ptr %39, %40
  br i1 %cmp.i, label %if.then83, label %if.end89

if.then83:                                        ; preds = %for.body
  store ptr %prev, ptr %this.addr.i, align 8
  %this1.i = load ptr, ptr %this.addr.i, align 8
  %41 = load ptr, ptr %runtime.addr, align 8
  %call85 = call noundef ptr @_ZNK6hermes2vm14StackFramePtrTILb0EE18getCalleeCodeBlockERNS0_7RuntimeE(ptr noundef nonnull align 8 dereferenceable(8) %this1.i, ptr noundef nonnull align 8 dereferenceable(9832) %41)
  store ptr %call85, ptr %parentCB, align 8
  %42 = load ptr, ptr %parentCB, align 8
  %tobool86 = icmp ne ptr %42, null
  br i1 %tobool86, label %if.then87, label %if.end88

if.then87:                                        ; preds = %if.then83
  %43 = load ptr, ptr %parentCB, align 8
  store ptr %43, ptr %savedCodeBlock, align 8
  br label %if.end88

if.end88:                                         ; preds = %if.then87, %if.then83
  br label %if.end89

if.end89:                                         ; preds = %if.end88, %for.body
  %44 = load ptr, ptr %savedCodeBlock, align 8
  %tobool90 = icmp ne ptr %44, null
  br i1 %tobool90, label %land.lhs.true91, label %if.else102

land.lhs.true91:                                  ; preds = %if.end89
  %45 = load ptr, ptr %savedIP, align 8
  %tobool92 = icmp ne ptr %45, null
  br i1 %tobool92, label %if.then93, label %if.else102

if.then93:                                        ; preds = %land.lhs.true91
  %call94 = call noundef ptr @_ZNKSt10unique_ptrISt6vectorIN6hermes2vm14StackTraceInfoESaIS3_EESt14default_deleteIS5_EEptEv(ptr noundef nonnull align 8 dereferenceable(8) %stack) #10
  %46 = load ptr, ptr %savedCodeBlock, align 8
  %47 = load ptr, ptr %savedIP, align 8
  %call96 = call noundef i32 @_ZNK6hermes2vm9CodeBlock11getOffsetOfEPKNS_4inst4InstE(ptr noundef nonnull align 8 dereferenceable(40) %46, ptr noundef %47)
  store i32 %call96, ptr %ref.tmp95, align 4
  %call97 = call noundef nonnull align 8 dereferenceable(12) ptr @_ZNSt6vectorIN6hermes2vm14StackTraceInfoESaIS2_EE12emplace_backIJRPNS1_9CodeBlockEjEEERS2_DpOT_(ptr noundef nonnull align 8 dereferenceable(24) %call94, ptr noundef nonnull align 8 dereferenceable(8) %savedCodeBlock, ptr noundef nonnull align 4 dereferenceable(4) %ref.tmp95)
  %48 = load ptr, ptr %savedCodeBlock, align 8
  %call98 = call noundef i32 @"_ZZN6hermes2vm7JSError16recordStackTraceENS0_6HandleIS1_EERNS0_7RuntimeEbPNS0_9CodeBlockEPKNS_4inst4InstEENK3$_0clES7_"(ptr noundef nonnull align 8 dereferenceable(16) %addDomain, ptr noundef %48)
  %cmp99 = icmp eq i32 %call98, 0
  br i1 %cmp99, label %if.then100, label %if.end101

if.then100:                                       ; preds = %if.then93
  store i32 0, ptr %retval, align 4
  store i32 1, ptr %cleanup.dest.slot, align 4
  br label %cleanup

if.end101:                                        ; preds = %if.then93
  br label %if.end107

if.else102:                                       ; preds = %land.lhs.true91, %if.end89
  %call103 = call noundef ptr @_ZNKSt10unique_ptrISt6vectorIN6hermes2vm14StackTraceInfoESaIS3_EESt14default_deleteIS5_EEptEv(ptr noundef nonnull align 8 dereferenceable(8) %stack) #10
  store ptr null, ptr %ref.tmp104, align 8
  store i32 0, ptr %ref.tmp105, align 4
  %call106 = call noundef nonnull align 8 dereferenceable(12) ptr @_ZNSt6vectorIN6hermes2vm14StackTraceInfoESaIS2_EE12emplace_backIJDniEEERS2_DpOT_(ptr noundef nonnull align 8 dereferenceable(24) %call103, ptr noundef nonnull align 8 dereferenceable(8) %ref.tmp104, ptr noundef nonnull align 4 dereferenceable(4) %ref.tmp105)
  br label %if.end107

if.end107:                                        ; preds = %if.else102, %if.end101
  br label %for.inc

for.inc:                                          ; preds = %if.end107
  %call108 = call noundef nonnull align 8 dereferenceable(8) ptr @_ZN6hermes2vm19StackFrameIteratorTILb0EEppEv(ptr noundef nonnull align 8 dereferenceable(8) %__begin2)
  br label %for.cond

for.end:                                          ; preds = %for.cond
  %call109 = call noundef ptr @_ZNK6hermes2vm6HandleINS0_7JSErrorEEptEv(ptr noundef nonnull align 8 dereferenceable(8) %selfHandle)
  %domains_ = getelementptr inbounds %"class.hermes::vm::JSError", ptr %call109, i32 0, i32 4
  %49 = load ptr, ptr %runtime.addr, align 8
  %call110 = call noundef ptr @_ZNK6hermes2vm6HandleINS0_16ArrayStorageBaseINS0_13HermesValue32EEEE3getEv(ptr noundef nonnull align 8 dereferenceable(8) %domains)
  %50 = load ptr, ptr %runtime.addr, align 8
  %call111 = call noundef nonnull align 8 dereferenceable(8152) ptr @_ZN6hermes2vm7Runtime7getHeapEv(ptr noundef nonnull align 8 dereferenceable(9832) %50)
  call void @_ZN6hermes2vm9GCPointerINS0_16ArrayStorageBaseINS0_13HermesValue32EEEE3setERNS0_11PointerBaseEPS4_RNS0_7HadesGCE(ptr noundef nonnull align 4 dereferenceable(4) %domains_, ptr noundef nonnull align 1 dereferenceable(1) %49, ptr noundef %call110, ptr noundef nonnull align 8 dereferenceable(8152) %call111)
  %call112 = call noundef ptr @_ZNKSt10unique_ptrISt6vectorIN6hermes2vm14StackTraceInfoESaIS3_EESt14default_deleteIS5_EEptEv(ptr noundef nonnull align 8 dereferenceable(8) %stack) #10
  call void @_ZNSt6vectorIN6hermes2vm14StackTraceInfoESaIS2_EE8pop_backEv(ptr noundef nonnull align 8 dereferenceable(24) %call112) #10
  %51 = load ptr, ptr %runtime.addr, align 8
  %52 = load i8, ptr %skipTopFrame.addr, align 1
  %tobool113 = trunc i8 %52 to i1
  %call114 = call noundef ptr @_ZNKSt10unique_ptrISt6vectorIN6hermes2vm14StackTraceInfoESaIS3_EESt14default_deleteIS5_EEptEv(ptr noundef nonnull align 8 dereferenceable(8) %stack) #10
  %call115 = call noundef i64 @_ZNKSt6vectorIN6hermes2vm14StackTraceInfoESaIS2_EE4sizeEv(ptr noundef nonnull align 8 dereferenceable(24) %call114) #10
  %call116 = call ptr @_ZN6hermes2vmL25getCallStackFunctionNamesERNS0_7RuntimeEbm(ptr noundef nonnull align 8 dereferenceable(9832) %51, i1 noundef zeroext %tobool113, i64 noundef %call115)
  %coerce.dive117 = getelementptr inbounds %"class.hermes::vm::Handle.217", ptr %funcNames, i32 0, i32 0
  %coerce.dive118 = getelementptr inbounds %"class.hermes::vm::HandleBase", ptr %coerce.dive117, i32 0, i32 0
  store ptr %call116, ptr %coerce.dive118, align 8
  %call119 = call noundef ptr @_ZNK6hermes2vm6HandleINS0_7JSErrorEEptEv(ptr noundef nonnull align 8 dereferenceable(8) %selfHandle)
  %stacktrace_120 = getelementptr inbounds %"class.hermes::vm::JSError", ptr %call119, i32 0, i32 2
  %call121 = call noundef nonnull align 8 dereferenceable(8) ptr @_ZNSt10unique_ptrISt6vectorIN6hermes2vm14StackTraceInfoESaIS3_EESt14default_deleteIS5_EEaSEOS8_(ptr noundef nonnull align 8 dereferenceable(8) %stacktrace_120, ptr noundef nonnull align 8 dereferenceable(8) %stack) #10
  %call122 = call noundef ptr @_ZNK6hermes2vm6HandleINS0_7JSErrorEEptEv(ptr noundef nonnull align 8 dereferenceable(8) %selfHandle)
  %funcNames_ = getelementptr inbounds %"class.hermes::vm::JSError", ptr %call122, i32 0, i32 5
  %53 = load ptr, ptr %runtime.addr, align 8
  %call123 = call noundef ptr @_ZNK6hermes2vm6HandleINS0_16ArrayStorageBaseINS0_13HermesValue32EEEEdeEv(ptr noundef nonnull align 8 dereferenceable(8) %funcNames)
  %54 = load ptr, ptr %runtime.addr, align 8
  %call124 = call noundef nonnull align 8 dereferenceable(8152) ptr @_ZN6hermes2vm7Runtime7getHeapEv(ptr noundef nonnull align 8 dereferenceable(9832) %54)
  call void @_ZN6hermes2vm9GCPointerINS0_16ArrayStorageBaseINS0_13HermesValue32EEEE3setERNS0_11PointerBaseEPS4_RNS0_7HadesGCE(ptr noundef nonnull align 4 dereferenceable(4) %funcNames_, ptr noundef nonnull align 1 dereferenceable(1) %53, ptr noundef %call123, ptr noundef nonnull align 8 dereferenceable(8152) %call124)
  store i32 1, ptr %retval, align 4
  store i32 1, ptr %cleanup.dest.slot, align 4
  br label %cleanup

cleanup:                                          ; preds = %for.end, %if.then100, %if.then45, %if.then30
  call void @_ZNSt10unique_ptrISt6vectorIN6hermes2vm14StackTraceInfoESaIS3_EESt14default_deleteIS5_EED2Ev(ptr noundef nonnull align 8 dereferenceable(8) %stack) #10
  br label %return

return:                                           ; preds = %cleanup, %if.then25, %if.then
  %55 = load i32, ptr %retval, align 4
  ret i32 %55
}

; Function Attrs: mustprogress nounwind uwtable
define linkonce_odr hidden { ptr, ptr } @_ZN6hermes2vm7Runtime14getStackFramesEv(ptr noundef nonnull align 8 dereferenceable(9832) %this) #0 comdat align 2 {
entry:
  %retval = alloca %"class.llvh::iterator_range", align 8
  %this.addr = alloca ptr, align 8
  %agg.tmp = alloca %"class.hermes::vm::StackFrameIteratorT", align 8
  %agg.tmp2 = alloca %"class.hermes::vm::StackFramePtrT", align 8
  %agg.tmp3 = alloca %"class.hermes::vm::StackFrameIteratorT", align 8
  store ptr %this, ptr %this.addr, align 8
  %this1 = load ptr, ptr %this.addr, align 8
  %currentFrame_ = getelementptr inbounds %"class.hermes::vm::Runtime", ptr %this1, i32 0, i32 131
  call void @llvm.memcpy.p0.p0.i64(ptr align 8 %agg.tmp2, ptr align 8 %currentFrame_, i64 8, i1 false)
  %coerce.dive = getelementptr inbounds %"class.hermes::vm::StackFramePtrT", ptr %agg.tmp2, i32 0, i32 0
  %0 = load ptr, ptr %coerce.dive, align 8
  call void @_ZN6hermes2vm19StackFrameIteratorTILb0EEC2ENS0_14StackFramePtrTILb0EEE(ptr noundef nonnull align 8 dereferenceable(8) %agg.tmp, ptr %0)
  %registerStackStart_ = getelementptr inbounds %"class.hermes::vm::Runtime", ptr %this1, i32 0, i32 127
  %1 = load ptr, ptr %registerStackStart_, align 8
  call void @_ZN6hermes2vm19StackFrameIteratorTILb0EEC2EPNS0_17PinnedHermesValueE(ptr noundef nonnull align 8 dereferenceable(8) %agg.tmp3, ptr noundef %1)
  %coerce.dive4 = getelementptr inbounds %"class.hermes::vm::StackFrameIteratorT", ptr %agg.tmp, i32 0, i32 0
  %coerce.dive5 = getelementptr inbounds %"class.hermes::vm::StackFramePtrT", ptr %coerce.dive4, i32 0, i32 0
  %2 = load ptr, ptr %coerce.dive5, align 8
  %coerce.dive6 = getelementptr inbounds %"class.hermes::vm::StackFrameIteratorT", ptr %agg.tmp3, i32 0, i32 0
  %coerce.dive7 = getelementptr inbounds %"class.hermes::vm::StackFramePtrT", ptr %coerce.dive6, i32 0, i32 0
  %3 = load ptr, ptr %coerce.dive7, align 8
  call void @_ZN4llvh14iterator_rangeIN6hermes2vm19StackFrameIteratorTILb0EEEEC2ES4_S4_(ptr noundef nonnull align 8 dereferenceable(16) %retval, ptr %2, ptr %3)
  %4 = load { ptr, ptr }, ptr %retval, align 8
  ret { ptr, ptr } %4
}

; Function Attrs: mustprogress nounwind uwtable
define linkonce_odr hidden ptr @_ZNK4llvh14iterator_rangeIN6hermes2vm19StackFrameIteratorTILb0EEEE5beginEv(ptr noundef nonnull align 8 dereferenceable(16) %this) #0 comdat align 2 {
entry:
  %retval = alloca %"class.hermes::vm::StackFrameIteratorT", align 8
  %this.addr = alloca ptr, align 8
  store ptr %this, ptr %this.addr, align 8
  %this1 = load ptr, ptr %this.addr, align 8
  %begin_iterator = getelementptr inbounds %"class.llvh::iterator_range", ptr %this1, i32 0, i32 0
  call void @llvm.memcpy.p0.p0.i64(ptr align 8 %retval, ptr align 8 %begin_iterator, i64 8, i1 false)
  %coerce.dive = getelementptr inbounds %"class.hermes::vm::StackFrameIteratorT", ptr %retval, i32 0, i32 0
  %coerce.dive2 = getelementptr inbounds %"class.hermes::vm::StackFramePtrT", ptr %coerce.dive, i32 0, i32 0
  %0 = load ptr, ptr %coerce.dive2, align 8
  ret ptr %0
}

; Function Attrs: mustprogress nounwind uwtable
define linkonce_odr hidden noundef zeroext i1 @_ZNK6hermes2vm19StackFrameIteratorTILb0EEneES2_(ptr noundef nonnull align 8 dereferenceable(8) %this, ptr %o.coerce) #0 comdat align 2 {
entry:
  %o.i = alloca %"class.hermes::vm::StackFramePtrT", align 8
  %this.addr.i = alloca ptr, align 8
  %o = alloca %"class.hermes::vm::StackFrameIteratorT", align 8
  %this.addr = alloca ptr, align 8
  %agg.tmp = alloca %"class.hermes::vm::StackFramePtrT", align 8
  %coerce.dive = getelementptr inbounds %"class.hermes::vm::StackFrameIteratorT", ptr %o, i32 0, i32 0
  %coerce.dive1 = getelementptr inbounds %"class.hermes::vm::StackFramePtrT", ptr %coerce.dive, i32 0, i32 0
  store ptr %o.coerce, ptr %coerce.dive1, align 8
  store ptr %this, ptr %this.addr, align 8
  %this2 = load ptr, ptr %this.addr, align 8
  %frame_ = getelementptr inbounds %"class.hermes::vm::StackFrameIteratorT", ptr %this2, i32 0, i32 0
  %frame_3 = getelementptr inbounds %"class.hermes::vm::StackFrameIteratorT", ptr %o, i32 0, i32 0
  call void @llvm.memcpy.p0.p0.i64(ptr align 8 %agg.tmp, ptr align 8 %frame_3, i64 8, i1 false)
  %coerce.dive4 = getelementptr inbounds %"class.hermes::vm::StackFramePtrT", ptr %agg.tmp, i32 0, i32 0
  %0 = load ptr, ptr %coerce.dive4, align 8
  store ptr %0, ptr %o.i, align 8
  store ptr %frame_, ptr %this.addr.i, align 8
  %this1.i = load ptr, ptr %this.addr.i, align 8
  %1 = load ptr, ptr %this1.i, align 8
  %2 = load ptr, ptr %o.i, align 8
  %cmp.i = icmp ne ptr %1, %2
  ret i1 %cmp.i
}

; Function Attrs: mustprogress nounwind uwtable
define linkonce_odr hidden ptr @_ZNK4llvh14iterator_rangeIN6hermes2vm19StackFrameIteratorTILb0EEEE3endEv(ptr noundef nonnull align 8 dereferenceable(16) %this) #0 comdat align 2 {
entry:
  %retval = alloca %"class.hermes::vm::StackFrameIteratorT", align 8
  %this.addr = alloca ptr, align 8
  store ptr %this, ptr %this.addr, align 8
  %this1 = load ptr, ptr %this.addr, align 8
  %end_iterator = getelementptr inbounds %"class.llvh::iterator_range", ptr %this1, i32 0, i32 1
  call void @llvm.memcpy.p0.p0.i64(ptr align 8 %retval, ptr align 8 %end_iterator, i64 8, i1 false)
  %coerce.dive = getelementptr inbounds %"class.hermes::vm::StackFrameIteratorT", ptr %retval, i32 0, i32 0
  %coerce.dive2 = getelementptr inbounds %"class.hermes::vm::StackFramePtrT", ptr %coerce.dive, i32 0, i32 0
  %0 = load ptr, ptr %coerce.dive2, align 8
  ret ptr %0
}

; Function Attrs: mustprogress nounwind uwtable
define linkonce_odr hidden ptr @_ZNK6hermes2vm19StackFrameIteratorTILb0EEptEv(ptr noundef nonnull align 8 dereferenceable(8) %this) #0 comdat align 2 {
entry:
  %retval = alloca %"class.hermes::vm::StackFramePtrT", align 8
  %this.addr = alloca ptr, align 8
  store ptr %this, ptr %this.addr, align 8
  %this1 = load ptr, ptr %this.addr, align 8
  %frame_ = getelementptr inbounds %"class.hermes::vm::StackFrameIteratorT", ptr %this1, i32 0, i32 0
  call void @llvm.memcpy.p0.p0.i64(ptr align 8 %retval, ptr align 8 %frame_, i64 8, i1 false)
  %coerce.dive = getelementptr inbounds %"class.hermes::vm::StackFramePtrT", ptr %retval, i32 0, i32 0
  %0 = load ptr, ptr %coerce.dive, align 8
  ret ptr %0
}

; Function Attrs: mustprogress nounwind uwtable
define linkonce_odr hidden noundef ptr @_ZNK6hermes2vm14StackFramePtrTILb0EE18getCalleeCodeBlockERNS0_7RuntimeE(ptr noundef nonnull align 8 dereferenceable(8) %this, ptr noundef nonnull align 8 dereferenceable(9832) %runtime) #0 comdat align 2 {
entry:
  %this.addr.i = alloca ptr, align 8
  %retval = alloca ptr, align 8
  %this.addr = alloca ptr, align 8
  %runtime.addr = alloca ptr, align 8
  %ref = alloca ptr, align 8
  %func = alloca ptr, align 8
  %agg.tmp = alloca %"class.hermes::vm::HermesValue", align 8
  store ptr %this, ptr %this.addr, align 8
  store ptr %runtime, ptr %runtime.addr, align 8
  %this1 = load ptr, ptr %this.addr, align 8
  store ptr %this1, ptr %this.addr.i, align 8
  %this1.i = load ptr, ptr %this.addr.i, align 8
  %0 = load ptr, ptr %this1.i, align 8
  %arrayidx.i = getelementptr inbounds %"class.hermes::vm::PinnedHermesValue", ptr %0, i64 -6
  store ptr %arrayidx.i, ptr %ref, align 8
  %1 = load ptr, ptr %ref, align 8
  %call2 = call noundef zeroext i1 @_ZNK6hermes2vm11HermesValue8isObjectEv(ptr noundef nonnull align 8 dereferenceable(8) %1)
  br i1 %call2, label %if.then, label %if.else6

if.then:                                          ; preds = %entry
  %2 = load ptr, ptr %ref, align 8
  call void @llvm.memcpy.p0.p0.i64(ptr align 8 %agg.tmp, ptr align 8 %2, i64 8, i1 false)
  %coerce.dive = getelementptr inbounds %"class.hermes::vm::HermesValue", ptr %agg.tmp, i32 0, i32 0
  %3 = load i64, ptr %coerce.dive, align 8
  %call3 = call noundef ptr @_ZN6hermes2vm10dyn_vmcastINS0_10JSFunctionEEEPT_NS0_11HermesValueE(i64 %3)
  store ptr %call3, ptr %func, align 8
  %4 = load ptr, ptr %func, align 8
  %tobool = icmp ne ptr %4, null
  br i1 %tobool, label %if.then4, label %if.else

if.then4:                                         ; preds = %if.then
  %5 = load ptr, ptr %func, align 8
  %6 = load ptr, ptr %runtime.addr, align 8
  %call5 = call noundef ptr @_ZNK6hermes2vm10JSFunction12getCodeBlockERNS0_7RuntimeE(ptr noundef nonnull align 8 dereferenceable(36) %5, ptr noundef nonnull align 8 dereferenceable(9832) %6)
  store ptr %call5, ptr %retval, align 8
  br label %return

if.else:                                          ; preds = %if.then
  store ptr null, ptr %retval, align 8
  br label %return

if.else6:                                         ; preds = %entry
  %7 = load ptr, ptr %ref, align 8
  %call7 = call noundef ptr @_ZNK6hermes2vm11HermesValue16getNativePointerINS0_9CodeBlockEEEPT_v(ptr noundef nonnull align 8 dereferenceable(8) %7)
  store ptr %call7, ptr %retval, align 8
  br label %return

return:                                           ; preds = %if.else6, %if.else, %if.then4
  %8 = load ptr, ptr %retval, align 8
  ret ptr %8
}

; Function Attrs: nobuiltin allocsize(0)
declare noundef nonnull ptr @_Znwm(i64 noundef) #5

; Function Attrs: mustprogress nounwind uwtable
define linkonce_odr hidden void @_ZNSt6vectorIN6hermes2vm14StackTraceInfoESaIS2_EEC2Ev(ptr noundef nonnull align 8 dereferenceable(24) %this) unnamed_addr #0 comdat align 2 {
entry:
  %this.addr = alloca ptr, align 8
  store ptr %this, ptr %this.addr, align 8
  %this1 = load ptr, ptr %this.addr, align 8
  call void @_ZNSt12_Vector_baseIN6hermes2vm14StackTraceInfoESaIS2_EEC2Ev(ptr noundef nonnull align 8 dereferenceable(24) %this1) #10
  ret void
}

; Function Attrs: mustprogress nounwind uwtable
define linkonce_odr hidden void @_ZNSt10unique_ptrISt6vectorIN6hermes2vm14StackTraceInfoESaIS3_EESt14default_deleteIS5_EEC2IS7_vEEPS5_(ptr noundef nonnull align 8 dereferenceable(8) %this, ptr noundef %__p) unnamed_addr #0 comdat align 2 {
entry:
  %this.addr = alloca ptr, align 8
  %__p.addr = alloca ptr, align 8
  store ptr %this, ptr %this.addr, align 8
  store ptr %__p, ptr %__p.addr, align 8
  %this1 = load ptr, ptr %this.addr, align 8
  %_M_t = getelementptr inbounds %"class.std::unique_ptr", ptr %this1, i32 0, i32 0
  %0 = load ptr, ptr %__p.addr, align 8
  call void @_ZNSt15__uniq_ptr_dataISt6vectorIN6hermes2vm14StackTraceInfoESaIS3_EESt14default_deleteIS5_ELb1ELb1EECI2St15__uniq_ptr_implIS5_S7_EEPS5_(ptr noundef nonnull align 8 dereferenceable(8) %_M_t, ptr noundef %0)
  ret void
}

; Function Attrs: mustprogress nounwind uwtable
define linkonce_odr hidden { i32, i64 } @_ZN6hermes2vm16ArrayStorageBaseINS0_13HermesValue32EE6createERNS0_7RuntimeEj(ptr noundef nonnull align 8 dereferenceable(9832) %runtime, i32 noundef %capacity) #0 comdat align 2 {
entry:
  %retval = alloca %"class.hermes::vm::CallResult.177", align 8
  %runtime.addr = alloca ptr, align 8
  %capacity.addr = alloca i32, align 4
  %allocSize = alloca i32, align 4
  %cell = alloca ptr, align 8
  %agg.tmp = alloca %"class.hermes::vm::HermesValue", align 8
  store ptr %runtime, ptr %runtime.addr, align 8
  store i32 %capacity, ptr %capacity.addr, align 4
  %0 = load i32, ptr %capacity.addr, align 4
  %call = call noundef i32 @_ZN6hermes2vm16ArrayStorageBaseINS0_13HermesValue32EE11maxElementsEv()
  %cmp = icmp ugt i32 %0, %call
  br i1 %cmp, label %if.then, label %if.end

if.then:                                          ; preds = %entry
  %1 = load ptr, ptr %runtime.addr, align 8
  %2 = load i32, ptr %capacity.addr, align 4
  %call1 = call noundef i32 @_ZN6hermes2vm16ArrayStorageBaseINS0_13HermesValue32EE27throwExcessiveCapacityErrorERNS0_7RuntimeEj(ptr noundef nonnull align 8 dereferenceable(9832) %1, i32 noundef %2)
  call void @_ZN6hermes2vm10CallResultINS0_11HermesValueELNS0_6detail20CallResultSpecializeE2EEC2ENS0_15ExecutionStatusE(ptr noundef nonnull align 8 dereferenceable(16) %retval, i32 noundef %call1)
  br label %return

if.end:                                           ; preds = %entry
  %3 = load i32, ptr %capacity.addr, align 4
  %call2 = call noundef i32 @_ZN6hermes2vm16ArrayStorageBaseINS0_13HermesValue32EE14allocationSizeEj(i32 noundef %3)
  store i32 %call2, ptr %allocSize, align 4
  %4 = load ptr, ptr %runtime.addr, align 8
  %5 = load i32, ptr %allocSize, align 4
  %call3 = call noundef ptr @_ZN6hermes2vm7Runtime13makeAVariableINS0_16ArrayStorageBaseINS0_13HermesValue32EEELNS0_12HasFinalizerE0ELNS0_9LongLivedE0EJEEEPT_jDpOT2_(ptr noundef nonnull align 8 dereferenceable(9832) %4, i32 noundef %5)
  store ptr %call3, ptr %cell, align 8
  %6 = load ptr, ptr %cell, align 8
  %call4 = call i64 @_ZN6hermes2vm11HermesValue17encodeObjectValueEPv(ptr noundef %6)
  %coerce.dive = getelementptr inbounds %"class.hermes::vm::HermesValue", ptr %agg.tmp, i32 0, i32 0
  store i64 %call4, ptr %coerce.dive, align 8
  %coerce.dive5 = getelementptr inbounds %"class.hermes::vm::HermesValue", ptr %agg.tmp, i32 0, i32 0
  %7 = load i64, ptr %coerce.dive5, align 8
  call void @_ZN6hermes2vm10CallResultINS0_11HermesValueELNS0_6detail20CallResultSpecializeE2EEC2ES2_(ptr noundef nonnull align 8 dereferenceable(16) %retval, i64 %7)
  br label %return

return:                                           ; preds = %if.end, %if.then
  %8 = load { i32, i64 }, ptr %retval, align 8
  ret { i32, i64 } %8
}

; Function Attrs: mustprogress nounwind uwtable
define linkonce_odr hidden void @_ZN6hermes2vm15HandleRootOwner17makeMutableHandleINS0_16ArrayStorageBaseINS0_13HermesValue32EEEEENS0_13MutableHandleIT_EEPS7_(ptr noalias sret(%"class.hermes::vm::MutableHandle.216") align 8 %agg.result, ptr noundef nonnull align 8 dereferenceable(16) %this, ptr noundef %p) #0 comdat align 2 {
entry:
  %result.ptr = alloca ptr, align 8
  %this.addr = alloca ptr, align 8
  %p.addr = alloca ptr, align 8
  store ptr %agg.result, ptr %result.ptr, align 8
  store ptr %this, ptr %this.addr, align 8
  store ptr %p, ptr %p.addr, align 8
  %this1 = load ptr, ptr %this.addr, align 8
  %0 = load ptr, ptr %p.addr, align 8
  call void @_ZN6hermes2vm13MutableHandleINS0_16ArrayStorageBaseINS0_13HermesValue32EEEEC2ERNS0_15HandleRootOwnerEPS4_(ptr noundef nonnull align 8 dereferenceable(8) %agg.result, ptr noundef nonnull align 8 dereferenceable(16) %this1, ptr noundef %0)
  ret void
}

; Function Attrs: mustprogress nounwind uwtable
define linkonce_odr hidden noundef ptr @_ZN6hermes2vm6vmcastINS0_16ArrayStorageBaseINS0_13HermesValue32EEEEEPT_NS0_11HermesValueE(i64 %val.coerce) #0 comdat {
entry:
  %val = alloca %"class.hermes::vm::HermesValue", align 8
  %coerce.dive = getelementptr inbounds %"class.hermes::vm::HermesValue", ptr %val, i32 0, i32 0
  store i64 %val.coerce, ptr %coerce.dive, align 8
  %call = call noundef ptr @_ZNK6hermes2vm11HermesValue10getPointerEv(ptr noundef nonnull align 8 dereferenceable(8) %val)
  %call1 = call noundef ptr @_ZN6hermes2vm6vmcastINS0_16ArrayStorageBaseINS0_13HermesValue32EEEEEPT_PNS0_6GCCellE(ptr noundef %call)
  ret ptr %call1
}

; Function Attrs: mustprogress nounwind uwtable
define linkonce_odr hidden noundef ptr @_ZNKSt10unique_ptrISt6vectorIN6hermes2vm14StackTraceInfoESaIS3_EESt14default_deleteIS5_EEptEv(ptr noundef nonnull align 8 dereferenceable(8) %this) #0 comdat align 2 {
entry:
  %this.addr = alloca ptr, align 8
  store ptr %this, ptr %this.addr, align 8
  %this1 = load ptr, ptr %this.addr, align 8
  %call = call noundef ptr @_ZNKSt10unique_ptrISt6vectorIN6hermes2vm14StackTraceInfoESaIS3_EESt14default_deleteIS5_EE3getEv(ptr noundef nonnull align 8 dereferenceable(8) %this1) #10
  ret ptr %call
}

; Function Attrs: mustprogress nounwind uwtable
define linkonce_odr hidden noundef nonnull align 8 dereferenceable(12) ptr @_ZNSt6vectorIN6hermes2vm14StackTraceInfoESaIS2_EE12emplace_backIJRPNS1_9CodeBlockEjEEERS2_DpOT_(ptr noundef nonnull align 8 dereferenceable(24) %this, ptr noundef nonnull align 8 dereferenceable(8) %__args, ptr noundef nonnull align 4 dereferenceable(4) %__args1) #0 comdat align 2 {
entry:
  %this.addr = alloca ptr, align 8
  %__args.addr = alloca ptr, align 8
  %__args.addr2 = alloca ptr, align 8
  %agg.tmp = alloca %"class.__gnu_cxx::__normal_iterator.359", align 8
  store ptr %this, ptr %this.addr, align 8
  store ptr %__args, ptr %__args.addr, align 8
  store ptr %__args1, ptr %__args.addr2, align 8
  %this3 = load ptr, ptr %this.addr, align 8
  %_M_impl = getelementptr inbounds %"struct.std::_Vector_base.212", ptr %this3, i32 0, i32 0
  %_M_finish = getelementptr inbounds %"struct.std::_Vector_base<hermes::vm::StackTraceInfo, std::allocator<hermes::vm::StackTraceInfo>>::_Vector_impl_data", ptr %_M_impl, i32 0, i32 1
  %0 = load ptr, ptr %_M_finish, align 8
  %_M_impl4 = getelementptr inbounds %"struct.std::_Vector_base.212", ptr %this3, i32 0, i32 0
  %_M_end_of_storage = getelementptr inbounds %"struct.std::_Vector_base<hermes::vm::StackTraceInfo, std::allocator<hermes::vm::StackTraceInfo>>::_Vector_impl_data", ptr %_M_impl4, i32 0, i32 2
  %1 = load ptr, ptr %_M_end_of_storage, align 8
  %cmp = icmp ne ptr %0, %1
  br i1 %cmp, label %if.then, label %if.else

if.then:                                          ; preds = %entry
  %_M_impl5 = getelementptr inbounds %"struct.std::_Vector_base.212", ptr %this3, i32 0, i32 0
  %_M_impl6 = getelementptr inbounds %"struct.std::_Vector_base.212", ptr %this3, i32 0, i32 0
  %_M_finish7 = getelementptr inbounds %"struct.std::_Vector_base<hermes::vm::StackTraceInfo, std::allocator<hermes::vm::StackTraceInfo>>::_Vector_impl_data", ptr %_M_impl6, i32 0, i32 1
  %2 = load ptr, ptr %_M_finish7, align 8
  %3 = load ptr, ptr %__args.addr, align 8
  %4 = load ptr, ptr %__args.addr2, align 8
  call void @_ZNSt16allocator_traitsISaIN6hermes2vm14StackTraceInfoEEE9constructIS2_JRPNS1_9CodeBlockEjEEEvRS3_PT_DpOT0_(ptr noundef nonnull align 1 dereferenceable(1) %_M_impl5, ptr noundef %2, ptr noundef nonnull align 8 dereferenceable(8) %3, ptr noundef nonnull align 4 dereferenceable(4) %4)
  %_M_impl8 = getelementptr inbounds %"struct.std::_Vector_base.212", ptr %this3, i32 0, i32 0
  %_M_finish9 = getelementptr inbounds %"struct.std::_Vector_base<hermes::vm::StackTraceInfo, std::allocator<hermes::vm::StackTraceInfo>>::_Vector_impl_data", ptr %_M_impl8, i32 0, i32 1
  %5 = load ptr, ptr %_M_finish9, align 8
  %incdec.ptr = getelementptr inbounds %"struct.hermes::vm::StackTraceInfo", ptr %5, i32 1
  store ptr %incdec.ptr, ptr %_M_finish9, align 8
  br label %if.end

if.else:                                          ; preds = %entry
  %call = call ptr @_ZNSt6vectorIN6hermes2vm14StackTraceInfoESaIS2_EE3endEv(ptr noundef nonnull align 8 dereferenceable(24) %this3) #10
  %coerce.dive = getelementptr inbounds %"class.__gnu_cxx::__normal_iterator.359", ptr %agg.tmp, i32 0, i32 0
  store ptr %call, ptr %coerce.dive, align 8
  %6 = load ptr, ptr %__args.addr, align 8
  %7 = load ptr, ptr %__args.addr2, align 8
  %coerce.dive10 = getelementptr inbounds %"class.__gnu_cxx::__normal_iterator.359", ptr %agg.tmp, i32 0, i32 0
  %8 = load ptr, ptr %coerce.dive10, align 8
  call void @_ZNSt6vectorIN6hermes2vm14StackTraceInfoESaIS2_EE17_M_realloc_insertIJRPNS1_9CodeBlockEjEEEvN9__gnu_cxx17__normal_iteratorIPS2_S4_EEDpOT_(ptr noundef nonnull align 8 dereferenceable(24) %this3, ptr %8, ptr noundef nonnull align 8 dereferenceable(8) %6, ptr noundef nonnull align 4 dereferenceable(4) %7)
  br label %if.end

if.end:                                           ; preds = %if.else, %if.then
  %call11 = call noundef nonnull align 8 dereferenceable(12) ptr @_ZNSt6vectorIN6hermes2vm14StackTraceInfoESaIS2_EE4backEv(ptr noundef nonnull align 8 dereferenceable(24) %this3) #10
  ret ptr %call11
}

; Function Attrs: mustprogress nounwind uwtable
define linkonce_odr hidden noundef i32 @_ZNK6hermes2vm9CodeBlock11getOffsetOfEPKNS_4inst4InstE(ptr noundef nonnull align 8 dereferenceable(40) %this, ptr noundef %inst) #0 comdat align 2 {
entry:
  %this.addr = alloca ptr, align 8
  %inst.addr = alloca ptr, align 8
  %offset = alloca i32, align 4
  store ptr %this, ptr %this.addr, align 8
  store ptr %inst, ptr %inst.addr, align 8
  %this1 = load ptr, ptr %this.addr, align 8
  %0 = load ptr, ptr %inst.addr, align 8
  %call = call noundef ptr @_ZNK6hermes2vm9CodeBlock5beginEv(ptr noundef nonnull align 8 dereferenceable(40) %this1)
  %sub.ptr.lhs.cast = ptrtoint ptr %0 to i64
  %sub.ptr.rhs.cast = ptrtoint ptr %call to i64
  %sub.ptr.sub = sub i64 %sub.ptr.lhs.cast, %sub.ptr.rhs.cast
  %conv = trunc i64 %sub.ptr.sub to i32
  store i32 %conv, ptr %offset, align 4
  %1 = load i32, ptr %offset, align 4
  ret i32 %1
}

; Function Attrs: mustprogress nounwind uwtable
define internal noundef i32 @"_ZZN6hermes2vm7JSError16recordStackTraceENS0_6HandleIS1_EERNS0_7RuntimeEbPNS0_9CodeBlockEPKNS_4inst4InstEENK3$_0clES7_"(ptr noundef nonnull align 8 dereferenceable(16) %this, ptr noundef %codeBlock) #0 align 2 {
entry:
  %retval = alloca i32, align 4
  %this.addr = alloca ptr, align 8
  %codeBlock.addr = alloca ptr, align 8
  %marker = alloca %"class.hermes::vm::GCScopeMarkerRAII", align 8
  %domain = alloca %"class.hermes::vm::Handle.342", align 8
  %ref.tmp = alloca %"class.hermes::vm::HermesValue32", align 4
  %cleanup.dest.slot = alloca i32, align 4
  %agg.tmp = alloca %"class.hermes::vm::Handle.0", align 8
  store ptr %this, ptr %this.addr, align 8
  store ptr %codeBlock, ptr %codeBlock.addr, align 8
  %this1 = load ptr, ptr %this.addr, align 8
  %0 = getelementptr inbounds %class.anon.218, ptr %this1, i32 0, i32 1
  %1 = load ptr, ptr %0, align 8
  call void @_ZN6hermes2vm17GCScopeMarkerRAIIC2ERNS0_15HandleRootOwnerE(ptr noundef nonnull align 8 dereferenceable(24) %marker, ptr noundef nonnull align 8 dereferenceable(16) %1)
  %2 = load ptr, ptr %codeBlock.addr, align 8
  %call = call noundef ptr @_ZNK6hermes2vm9CodeBlock16getRuntimeModuleEv(ptr noundef nonnull align 8 dereferenceable(40) %2)
  %3 = getelementptr inbounds %class.anon.218, ptr %this1, i32 0, i32 1
  %4 = load ptr, ptr %3, align 8
  %call2 = call ptr @_ZN6hermes2vm13RuntimeModule9getDomainERNS0_7RuntimeE(ptr noundef nonnull align 8 dereferenceable(192) %call, ptr noundef nonnull align 8 dereferenceable(9832) %4)
  %coerce.dive = getelementptr inbounds %"class.hermes::vm::Handle.342", ptr %domain, i32 0, i32 0
  %coerce.dive3 = getelementptr inbounds %"class.hermes::vm::HandleBase", ptr %coerce.dive, i32 0, i32 0
  store ptr %call2, ptr %coerce.dive3, align 8
  %5 = getelementptr inbounds %class.anon.218, ptr %this1, i32 0, i32 0
  %6 = load ptr, ptr %5, align 8
  %call4 = call noundef ptr @_ZNK6hermes2vm6HandleINS0_16ArrayStorageBaseINS0_13HermesValue32EEEEptEv(ptr noundef nonnull align 8 dereferenceable(8) %6)
  %call5 = call noundef i32 @_ZNK6hermes2vm16ArrayStorageBaseINS0_13HermesValue32EE4sizeEv(ptr noundef nonnull align 4 dereferenceable(8) %call4)
  %cmp = icmp ugt i32 %call5, 0
  br i1 %cmp, label %land.rhs, label %land.end

land.rhs:                                         ; preds = %entry
  %7 = getelementptr inbounds %class.anon.218, ptr %this1, i32 0, i32 0
  %8 = load ptr, ptr %7, align 8
  %call6 = call noundef ptr @_ZNK6hermes2vm6HandleINS0_16ArrayStorageBaseINS0_13HermesValue32EEEEptEv(ptr noundef nonnull align 8 dereferenceable(8) %8)
  %9 = getelementptr inbounds %class.anon.218, ptr %this1, i32 0, i32 0
  %10 = load ptr, ptr %9, align 8
  %call7 = call noundef ptr @_ZNK6hermes2vm6HandleINS0_16ArrayStorageBaseINS0_13HermesValue32EEEEptEv(ptr noundef nonnull align 8 dereferenceable(8) %10)
  %call8 = call noundef i32 @_ZNK6hermes2vm16ArrayStorageBaseINS0_13HermesValue32EE4sizeEv(ptr noundef nonnull align 4 dereferenceable(8) %call7)
  %sub = sub i32 %call8, 1
  %call9 = call i32 @_ZNK6hermes2vm16ArrayStorageBaseINS0_13HermesValue32EE2atILNS3_6InlineE0EEES2_j(ptr noundef nonnull align 4 dereferenceable(8) %call6, i32 noundef %sub)
  %coerce.dive10 = getelementptr inbounds %"class.hermes::vm::HermesValue32", ptr %ref.tmp, i32 0, i32 0
  store i32 %call9, ptr %coerce.dive10, align 4
  %11 = getelementptr inbounds %class.anon.218, ptr %this1, i32 0, i32 1
  %12 = load ptr, ptr %11, align 8
  %call11 = call noundef ptr @_ZNK6hermes2vm13HermesValue329getObjectERNS0_11PointerBaseE(ptr noundef nonnull align 4 dereferenceable(4) %ref.tmp, ptr noundef nonnull align 1 dereferenceable(1) %12)
  %call12 = call noundef ptr @_ZN6hermes2vm6vmcastINS0_6DomainEEEPT_PNS0_6GCCellE(ptr noundef %call11)
  %call13 = call noundef ptr @_ZNK6hermes2vm6HandleINS0_6DomainEE3getEv(ptr noundef nonnull align 8 dereferenceable(8) %domain)
  %cmp14 = icmp eq ptr %call12, %call13
  br label %land.end

land.end:                                         ; preds = %land.rhs, %entry
  %13 = phi i1 [ false, %entry ], [ %cmp14, %land.rhs ]
  br i1 %13, label %if.then, label %if.end

if.then:                                          ; preds = %land.end
  store i32 1, ptr %retval, align 4
  store i32 1, ptr %cleanup.dest.slot, align 4
  br label %cleanup

if.end:                                           ; preds = %land.end
  %14 = getelementptr inbounds %class.anon.218, ptr %this1, i32 0, i32 0
  %15 = load ptr, ptr %14, align 8
  %16 = getelementptr inbounds %class.anon.218, ptr %this1, i32 0, i32 1
  %17 = load ptr, ptr %16, align 8
  call void @_ZN6hermes2vm6HandleINS0_11HermesValueEEC2INS0_6DomainEvEERKNS1_IT_EE(ptr noundef nonnull align 8 dereferenceable(8) %agg.tmp, ptr noundef nonnull align 8 dereferenceable(8) %domain)
  %coerce.dive15 = getelementptr inbounds %"class.hermes::vm::Handle.0", ptr %agg.tmp, i32 0, i32 0
  %coerce.dive16 = getelementptr inbounds %"class.hermes::vm::HandleBase", ptr %coerce.dive15, i32 0, i32 0
  %18 = load ptr, ptr %coerce.dive16, align 8
  %call17 = call noundef i32 @_ZN6hermes2vm16ArrayStorageBaseINS0_13HermesValue32EE9push_backERNS0_13MutableHandleIS3_EERNS0_7RuntimeENS0_6HandleINS0_11HermesValueEEE(ptr noundef nonnull align 8 dereferenceable(8) %15, ptr noundef nonnull align 8 dereferenceable(9832) %17, ptr %18)
  store i32 %call17, ptr %retval, align 4
  store i32 1, ptr %cleanup.dest.slot, align 4
  br label %cleanup

cleanup:                                          ; preds = %if.end, %if.then
  call void @_ZN6hermes2vm17GCScopeMarkerRAIID2Ev(ptr noundef nonnull align 8 dereferenceable(24) %marker) #10
  %19 = load i32, ptr %retval, align 4
  ret i32 %19
}

; Function Attrs: mustprogress nounwind uwtable
define linkonce_odr hidden noundef nonnull align 8 dereferenceable(12) ptr @_ZNSt6vectorIN6hermes2vm14StackTraceInfoESaIS2_EE12emplace_backIJDniEEERS2_DpOT_(ptr noundef nonnull align 8 dereferenceable(24) %this, ptr noundef nonnull align 8 dereferenceable(8) %__args, ptr noundef nonnull align 4 dereferenceable(4) %__args1) #0 comdat align 2 {
entry:
  %this.addr = alloca ptr, align 8
  %__args.addr = alloca ptr, align 8
  %__args.addr2 = alloca ptr, align 8
  %agg.tmp = alloca %"class.__gnu_cxx::__normal_iterator.359", align 8
  store ptr %this, ptr %this.addr, align 8
  store ptr %__args, ptr %__args.addr, align 8
  store ptr %__args1, ptr %__args.addr2, align 8
  %this3 = load ptr, ptr %this.addr, align 8
  %_M_impl = getelementptr inbounds %"struct.std::_Vector_base.212", ptr %this3, i32 0, i32 0
  %_M_finish = getelementptr inbounds %"struct.std::_Vector_base<hermes::vm::StackTraceInfo, std::allocator<hermes::vm::StackTraceInfo>>::_Vector_impl_data", ptr %_M_impl, i32 0, i32 1
  %0 = load ptr, ptr %_M_finish, align 8
  %_M_impl4 = getelementptr inbounds %"struct.std::_Vector_base.212", ptr %this3, i32 0, i32 0
  %_M_end_of_storage = getelementptr inbounds %"struct.std::_Vector_base<hermes::vm::StackTraceInfo, std::allocator<hermes::vm::StackTraceInfo>>::_Vector_impl_data", ptr %_M_impl4, i32 0, i32 2
  %1 = load ptr, ptr %_M_end_of_storage, align 8
  %cmp = icmp ne ptr %0, %1
  br i1 %cmp, label %if.then, label %if.else

if.then:                                          ; preds = %entry
  %_M_impl5 = getelementptr inbounds %"struct.std::_Vector_base.212", ptr %this3, i32 0, i32 0
  %_M_impl6 = getelementptr inbounds %"struct.std::_Vector_base.212", ptr %this3, i32 0, i32 0
  %_M_finish7 = getelementptr inbounds %"struct.std::_Vector_base<hermes::vm::StackTraceInfo, std::allocator<hermes::vm::StackTraceInfo>>::_Vector_impl_data", ptr %_M_impl6, i32 0, i32 1
  %2 = load ptr, ptr %_M_finish7, align 8
  %3 = load ptr, ptr %__args.addr, align 8
  %4 = load ptr, ptr %__args.addr2, align 8
  call void @_ZNSt16allocator_traitsISaIN6hermes2vm14StackTraceInfoEEE9constructIS2_JDniEEEvRS3_PT_DpOT0_(ptr noundef nonnull align 1 dereferenceable(1) %_M_impl5, ptr noundef %2, ptr noundef nonnull align 8 dereferenceable(8) %3, ptr noundef nonnull align 4 dereferenceable(4) %4)
  %_M_impl8 = getelementptr inbounds %"struct.std::_Vector_base.212", ptr %this3, i32 0, i32 0
  %_M_finish9 = getelementptr inbounds %"struct.std::_Vector_base<hermes::vm::StackTraceInfo, std::allocator<hermes::vm::StackTraceInfo>>::_Vector_impl_data", ptr %_M_impl8, i32 0, i32 1
  %5 = load ptr, ptr %_M_finish9, align 8
  %incdec.ptr = getelementptr inbounds %"struct.hermes::vm::StackTraceInfo", ptr %5, i32 1
  store ptr %incdec.ptr, ptr %_M_finish9, align 8
  br label %if.end

if.else:                                          ; preds = %entry
  %call = call ptr @_ZNSt6vectorIN6hermes2vm14StackTraceInfoESaIS2_EE3endEv(ptr noundef nonnull align 8 dereferenceable(24) %this3) #10
  %coerce.dive = getelementptr inbounds %"class.__gnu_cxx::__normal_iterator.359", ptr %agg.tmp, i32 0, i32 0
  store ptr %call, ptr %coerce.dive, align 8
  %6 = load ptr, ptr %__args.addr, align 8
  %7 = load ptr, ptr %__args.addr2, align 8
  %coerce.dive10 = getelementptr inbounds %"class.__gnu_cxx::__normal_iterator.359", ptr %agg.tmp, i32 0, i32 0
  %8 = load ptr, ptr %coerce.dive10, align 8
  call void @_ZNSt6vectorIN6hermes2vm14StackTraceInfoESaIS2_EE17_M_realloc_insertIJDniEEEvN9__gnu_cxx17__normal_iteratorIPS2_S4_EEDpOT_(ptr noundef nonnull align 8 dereferenceable(24) %this3, ptr %8, ptr noundef nonnull align 8 dereferenceable(8) %6, ptr noundef nonnull align 4 dereferenceable(4) %7)
  br label %if.end

if.end:                                           ; preds = %if.else, %if.then
  %call11 = call noundef nonnull align 8 dereferenceable(12) ptr @_ZNSt6vectorIN6hermes2vm14StackTraceInfoESaIS2_EE4backEv(ptr noundef nonnull align 8 dereferenceable(24) %this3) #10
  ret ptr %call11
}

; Function Attrs: mustprogress nounwind uwtable
define linkonce_odr hidden ptr @_ZNK6hermes2vm19StackFrameIteratorTILb0EEdeEv(ptr noundef nonnull align 8 dereferenceable(8) %this) #0 comdat align 2 {
entry:
  %retval = alloca %"class.hermes::vm::StackFramePtrT", align 8
  %this.addr = alloca ptr, align 8
  store ptr %this, ptr %this.addr, align 8
  %this1 = load ptr, ptr %this.addr, align 8
  %frame_ = getelementptr inbounds %"class.hermes::vm::StackFrameIteratorT", ptr %this1, i32 0, i32 0
  call void @llvm.memcpy.p0.p0.i64(ptr align 8 %retval, ptr align 8 %frame_, i64 8, i1 false)
  %coerce.dive = getelementptr inbounds %"class.hermes::vm::StackFramePtrT", ptr %retval, i32 0, i32 0
  %0 = load ptr, ptr %coerce.dive, align 8
  ret ptr %0
}

; Function Attrs: mustprogress nounwind uwtable
define linkonce_odr hidden noundef ptr @_ZNK6hermes2vm14StackFramePtrTILb0EE17getSavedCodeBlockEv(ptr noundef nonnull align 8 dereferenceable(8) %this) #0 comdat align 2 {
entry:
  %this.addr.i = alloca ptr, align 8
  %this.addr = alloca ptr, align 8
  store ptr %this, ptr %this.addr, align 8
  %this1 = load ptr, ptr %this.addr, align 8
  store ptr %this1, ptr %this.addr.i, align 8
  %this1.i = load ptr, ptr %this.addr.i, align 8
  %0 = load ptr, ptr %this1.i, align 8
  %arrayidx.i = getelementptr inbounds %"class.hermes::vm::PinnedHermesValue", ptr %0, i64 -3
  %call2 = call noundef ptr @_ZNK6hermes2vm11HermesValue16getNativePointerINS0_9CodeBlockEEEPT_v(ptr noundef nonnull align 8 dereferenceable(8) %arrayidx.i)
  ret ptr %call2
}

; Function Attrs: mustprogress nounwind uwtable
define linkonce_odr hidden noundef ptr @_ZNK6hermes2vm14StackFramePtrTILb0EE10getSavedIPEv(ptr noundef nonnull align 8 dereferenceable(8) %this) #0 comdat align 2 {
entry:
  %this.addr.i = alloca ptr, align 8
  %this.addr = alloca ptr, align 8
  store ptr %this, ptr %this.addr, align 8
  %this1 = load ptr, ptr %this.addr, align 8
  store ptr %this1, ptr %this.addr.i, align 8
  %this1.i = load ptr, ptr %this.addr.i, align 8
  %0 = load ptr, ptr %this1.i, align 8
  %arrayidx.i = getelementptr inbounds %"class.hermes::vm::PinnedHermesValue", ptr %0, i64 -2
  %call2 = call noundef ptr @_ZNK6hermes2vm11HermesValue16getNativePointerIKNS_4inst4InstEEEPT_v(ptr noundef nonnull align 8 dereferenceable(8) %arrayidx.i)
  ret ptr %call2
}

; Function Attrs: mustprogress nounwind uwtable
define linkonce_odr hidden ptr @_ZNK6hermes2vm14StackFramePtrTILb0EE16getPreviousFrameEv(ptr noundef nonnull align 8 dereferenceable(8) %this) #0 comdat align 2 {
entry:
  %this.addr.i = alloca ptr, align 8
  %frame.addr.i = alloca ptr, align 8
  %retval = alloca %"class.hermes::vm::StackFramePtrT", align 8
  %this.addr = alloca ptr, align 8
  store ptr %this, ptr %this.addr, align 8
  %this1 = load ptr, ptr %this.addr, align 8
  %call = call noundef ptr @_ZNK6hermes2vm14StackFramePtrTILb0EE23getPreviousFramePointerEv(ptr noundef nonnull align 8 dereferenceable(8) %this1)
  store ptr %retval, ptr %this.addr.i, align 8
  store ptr %call, ptr %frame.addr.i, align 8
  %this1.i = load ptr, ptr %this.addr.i, align 8
  %0 = load ptr, ptr %frame.addr.i, align 8
  store ptr %0, ptr %this1.i, align 8
  %coerce.dive = getelementptr inbounds %"class.hermes::vm::StackFramePtrT", ptr %retval, i32 0, i32 0
  %1 = load ptr, ptr %coerce.dive, align 8
  ret ptr %1
}

; Function Attrs: mustprogress nounwind uwtable
define linkonce_odr hidden noundef nonnull align 8 dereferenceable(8) ptr @_ZN6hermes2vm19StackFrameIteratorTILb0EEppEv(ptr noundef nonnull align 8 dereferenceable(8) %this) #0 comdat align 2 {
entry:
  %this.addr = alloca ptr, align 8
  %ref.tmp = alloca %"class.hermes::vm::StackFramePtrT", align 8
  store ptr %this, ptr %this.addr, align 8
  %this1 = load ptr, ptr %this.addr, align 8
  %frame_ = getelementptr inbounds %"class.hermes::vm::StackFrameIteratorT", ptr %this1, i32 0, i32 0
  %call = call ptr @_ZNK6hermes2vm14StackFramePtrTILb0EE16getPreviousFrameEv(ptr noundef nonnull align 8 dereferenceable(8) %frame_)
  %coerce.dive = getelementptr inbounds %"class.hermes::vm::StackFramePtrT", ptr %ref.tmp, i32 0, i32 0
  store ptr %call, ptr %coerce.dive, align 8
  %frame_2 = getelementptr inbounds %"class.hermes::vm::StackFrameIteratorT", ptr %this1, i32 0, i32 0
  call void @llvm.memcpy.p0.p0.i64(ptr align 8 %frame_2, ptr align 8 %ref.tmp, i64 8, i1 false)
  ret ptr %this1
}

; Function Attrs: mustprogress nounwind uwtable
define linkonce_odr hidden void @_ZN6hermes2vm9GCPointerINS0_16ArrayStorageBaseINS0_13HermesValue32EEEE3setERNS0_11PointerBaseEPS4_RNS0_7HadesGCE(ptr noundef nonnull align 4 dereferenceable(4) %this, ptr noundef nonnull align 1 dereferenceable(1) %base, ptr noundef %ptr, ptr noundef nonnull align 8 dereferenceable(8152) %gc) #0 comdat align 2 {
entry:
  %this.addr = alloca ptr, align 8
  %base.addr = alloca ptr, align 8
  %ptr.addr = alloca ptr, align 8
  %gc.addr = alloca ptr, align 8
  store ptr %this, ptr %this.addr, align 8
  store ptr %base, ptr %base.addr, align 8
  store ptr %ptr, ptr %ptr.addr, align 8
  store ptr %gc, ptr %gc.addr, align 8
  %this1 = load ptr, ptr %this.addr, align 8
  %0 = load ptr, ptr %base.addr, align 8
  %1 = load ptr, ptr %ptr.addr, align 8
  %2 = load ptr, ptr %gc.addr, align 8
  call void @_ZN6hermes2vm13GCPointerBase3setERNS0_11PointerBaseEPNS0_6GCCellERNS0_7HadesGCE(ptr noundef nonnull align 4 dereferenceable(4) %this1, ptr noundef nonnull align 1 dereferenceable(1) %0, ptr noundef %1, ptr noundef nonnull align 8 dereferenceable(8152) %2)
  ret void
}

; Function Attrs: mustprogress nounwind uwtable
define linkonce_odr hidden noundef ptr @_ZNK6hermes2vm6HandleINS0_16ArrayStorageBaseINS0_13HermesValue32EEEE3getEv(ptr noundef nonnull align 8 dereferenceable(8) %this) #0 comdat align 2 {
entry:
  %this.addr = alloca ptr, align 8
  %agg.tmp = alloca %"class.hermes::vm::HermesValue", align 8
  store ptr %this, ptr %this.addr, align 8
  %this1 = load ptr, ptr %this.addr, align 8
  %call = call i64 @_ZNK6hermes2vm10HandleBase14getHermesValueEv(ptr noundef nonnull align 8 dereferenceable(8) %this1)
  %coerce.dive = getelementptr inbounds %"class.hermes::vm::HermesValue", ptr %agg.tmp, i32 0, i32 0
  store i64 %call, ptr %coerce.dive, align 8
  %coerce.dive2 = getelementptr inbounds %"class.hermes::vm::HermesValue", ptr %agg.tmp, i32 0, i32 0
  %0 = load i64, ptr %coerce.dive2, align 8
  %call3 = call noundef ptr @_ZN6hermes2vm17HermesValueTraitsINS0_16ArrayStorageBaseINS0_13HermesValue32EEELb1EE6decodeENS0_11HermesValueE(i64 %0)
  ret ptr %call3
}

; Function Attrs: mustprogress nounwind uwtable
define linkonce_odr hidden noundef nonnull align 8 dereferenceable(8152) ptr @_ZN6hermes2vm7Runtime7getHeapEv(ptr noundef nonnull align 8 dereferenceable(9832) %this) #0 comdat align 2 {
entry:
  %this.addr = alloca ptr, align 8
  store ptr %this, ptr %this.addr, align 8
  %this1 = load ptr, ptr %this.addr, align 8
  %heapStorage_ = getelementptr inbounds %"class.hermes::vm::Runtime", ptr %this1, i32 0, i32 97
  %call = call noundef ptr @_ZN6hermes2vm9GCStorage3getEv(ptr noundef nonnull align 8 dereferenceable(8152) %heapStorage_)
  ret ptr %call
}

; Function Attrs: mustprogress nounwind uwtable
define linkonce_odr hidden void @_ZNSt6vectorIN6hermes2vm14StackTraceInfoESaIS2_EE8pop_backEv(ptr noundef nonnull align 8 dereferenceable(24) %this) #0 comdat align 2 {
entry:
  %this.addr = alloca ptr, align 8
  store ptr %this, ptr %this.addr, align 8
  %this1 = load ptr, ptr %this.addr, align 8
  %_M_impl = getelementptr inbounds %"struct.std::_Vector_base.212", ptr %this1, i32 0, i32 0
  %_M_finish = getelementptr inbounds %"struct.std::_Vector_base<hermes::vm::StackTraceInfo, std::allocator<hermes::vm::StackTraceInfo>>::_Vector_impl_data", ptr %_M_impl, i32 0, i32 1
  %0 = load ptr, ptr %_M_finish, align 8
  %incdec.ptr = getelementptr inbounds %"struct.hermes::vm::StackTraceInfo", ptr %0, i32 -1
  store ptr %incdec.ptr, ptr %_M_finish, align 8
  %_M_impl2 = getelementptr inbounds %"struct.std::_Vector_base.212", ptr %this1, i32 0, i32 0
  %_M_impl3 = getelementptr inbounds %"struct.std::_Vector_base.212", ptr %this1, i32 0, i32 0
  %_M_finish4 = getelementptr inbounds %"struct.std::_Vector_base<hermes::vm::StackTraceInfo, std::allocator<hermes::vm::StackTraceInfo>>::_Vector_impl_data", ptr %_M_impl3, i32 0, i32 1
  %1 = load ptr, ptr %_M_finish4, align 8
  call void @_ZNSt16allocator_traitsISaIN6hermes2vm14StackTraceInfoEEE7destroyIS2_EEvRS3_PT_(ptr noundef nonnull align 1 dereferenceable(1) %_M_impl2, ptr noundef %1) #10
  ret void
}

; Function Attrs: mustprogress nounwind uwtable
define internal ptr @_ZN6hermes2vmL25getCallStackFunctionNamesERNS0_7RuntimeEbm(ptr noundef nonnull align 8 dereferenceable(9832) %runtime, i1 noundef zeroext %skipTopFrame, i64 noundef %sizeHint) #0 {
entry:
  %this.addr.i140 = alloca ptr, align 8
  %this.addr.i137 = alloca ptr, align 8
  %this.addr.i = alloca ptr, align 8
  %retval = alloca %"class.hermes::vm::Handle.217", align 8
  %runtime.addr = alloca ptr, align 8
  %skipTopFrame.addr = alloca i8, align 1
  %sizeHint.addr = alloca i64, align 8
  %arrRes = alloca %"class.hermes::vm::CallResult.177", align 8
  %names = alloca %"class.hermes::vm::MutableHandle.216", align 8
  %agg.tmp = alloca %"class.hermes::vm::HermesValue", align 8
  %gcScope = alloca %"class.hermes::vm::GCScope", align 8
  %name = alloca %"class.hermes::vm::MutableHandle", align 8
  %agg.tmp8 = alloca %"class.hermes::vm::HermesValue", align 8
  %marker = alloca %"class.hermes::vm::GCScope::Marker", align 8
  %frameIndex = alloca i32, align 4
  %namesIndex = alloca i32, align 4
  %__range2 = alloca ptr, align 8
  %ref.tmp = alloca %"class.llvh::iterator_range", align 8
  %__begin2 = alloca %"class.hermes::vm::StackFrameIteratorT", align 8
  %__end2 = alloca %"class.hermes::vm::StackFrameIteratorT", align 8
  %agg.tmp20 = alloca %"class.hermes::vm::StackFrameIteratorT", align 8
  %cf = alloca %"class.hermes::vm::StackFramePtrT", align 8
  %agg.tmp28 = alloca %"class.hermes::vm::HermesValue", align 8
  %callableHandle = alloca %"class.hermes::vm::Handle.195", align 8
  %ref.tmp33 = alloca %"class.hermes::vm::Handle.0", align 8
  %desc = alloca %"struct.hermes::vm::NamedPropertyDescriptor", align 4
  %propObj = alloca ptr, align 8
  %agg.tmp40 = alloca %"class.hermes::vm::Handle", align 8
  %agg.tmp46 = alloca %"class.hermes::vm::Handle", align 8
  %agg.tmp68 = alloca %"class.hermes::vm::HermesValue", align 8
  %ref.tmp69 = alloca %"class.hermes::vm::HermesValue32", align 4
  %agg.tmp70 = alloca %"struct.hermes::vm::NamedPropertyDescriptor", align 4
  %agg.tmp83 = alloca %"class.hermes::vm::HermesValue", align 8
  %cb = alloca ptr, align 8
  %ref.tmp97 = alloca %"class.hermes::vm::SymbolID", align 4
  %agg.tmp102 = alloca %"class.hermes::vm::HermesValue", align 8
  %agg.tmp103 = alloca %"class.hermes::vm::SymbolID", align 4
  %cleanup.dest.slot = alloca i32, align 4
  %shv = alloca %"class.hermes::vm::HermesValue32", align 4
  %agg.tmp122 = alloca %"class.hermes::vm::HermesValue", align 8
  %agg.tmp129 = alloca %"class.hermes::vm::HermesValue32", align 4
  %agg.tmp133 = alloca %"class.hermes::vm::GCScope::Marker", align 8
  store ptr %runtime, ptr %runtime.addr, align 8
  %frombool = zext i1 %skipTopFrame to i8
  store i8 %frombool, ptr %skipTopFrame.addr, align 1
  store i64 %sizeHint, ptr %sizeHint.addr, align 8
  %0 = load ptr, ptr %runtime.addr, align 8
  %1 = load i64, ptr %sizeHint.addr, align 8
  %conv = trunc i64 %1 to i32
  %call = call { i32, i64 } @_ZN6hermes2vm16ArrayStorageBaseINS0_13HermesValue32EE6createERNS0_7RuntimeEj(ptr noundef nonnull align 8 dereferenceable(9832) %0, i32 noundef %conv)
  %2 = getelementptr inbounds { i32, i64 }, ptr %arrRes, i32 0, i32 0
  %3 = extractvalue { i32, i64 } %call, 0
  store i32 %3, ptr %2, align 8
  %4 = getelementptr inbounds { i32, i64 }, ptr %arrRes, i32 0, i32 1
  %5 = extractvalue { i32, i64 } %call, 1
  store i64 %5, ptr %4, align 8
  %call1 = call noundef zeroext i1 @_ZN6hermes2vmeqINS0_11HermesValueEEEbRKNS0_10CallResultIT_Xsr6detail23GetCallResultSpecializeIS4_EE5valueEEENS0_15ExecutionStatusE(ptr noundef nonnull align 8 dereferenceable(16) %arrRes, i32 noundef 0)
  br i1 %call1, label %if.then, label %if.end

if.then:                                          ; preds = %entry
  %6 = load ptr, ptr %runtime.addr, align 8
  call void @_ZN6hermes2vm7Runtime16clearThrownValueEv(ptr noundef nonnull align 8 dereferenceable(9832) %6)
  %call3 = call ptr @_ZN6hermes2vm15HandleRootOwner14makeNullHandleINS0_16ArrayStorageBaseINS0_13HermesValue32EEEEENS0_6HandleIT_EEv()
  %coerce.dive = getelementptr inbounds %"class.hermes::vm::Handle.217", ptr %retval, i32 0, i32 0
  %coerce.dive4 = getelementptr inbounds %"class.hermes::vm::HandleBase", ptr %coerce.dive, i32 0, i32 0
  store ptr %call3, ptr %coerce.dive4, align 8
  br label %return

if.end:                                           ; preds = %entry
  %7 = load ptr, ptr %runtime.addr, align 8
  %call5 = call noundef nonnull align 8 dereferenceable(8) ptr @_ZNK6hermes2vm10CallResultINS0_11HermesValueELNS0_6detail20CallResultSpecializeE2EEdeEv(ptr noundef nonnull align 8 dereferenceable(16) %arrRes)
