target datalayout = "e-m:e-p270:32:32-p271:32:32-p272:64:64-i64:64-i128:128-f80:128-n8:16:32:64-S128"
target triple = "x86_64-unknown-linux-gnu"

%"class.hermes::ESTree::ProgramNode" = type { %"class.hermes::ESTree::FunctionLikeNode.base", %"class.hermes::ESTree::ProgramDecoration", %"class.llvh::simple_ilist" }
%"class.hermes::ESTree::FunctionLikeNode.base" = type <{ %"class.hermes::ESTree::Node", %"class.hermes::ESTree::FunctionLikeDecoration.base" }>
%"class.hermes::ESTree::Node" = type { %"class.llvh::ilist_node", i32, i32, %"class.llvh::SMRange", %"class.llvh::SMLoc" }
%"class.llvh::ilist_node" = type { %"class.llvh::ilist_node_impl" }
%"class.llvh::ilist_node_impl" = type { %"class.llvh::ilist_node_base" }
%"class.llvh::ilist_node_base" = type { ptr, ptr }
%"class.llvh::SMRange" = type { %"class.llvh::SMLoc", %"class.llvh::SMLoc" }
%"class.llvh::SMLoc" = type { ptr }
%"class.hermes::ESTree::FunctionLikeDecoration.base" = type <{ ptr, i32, i32, i8 }>
%"class.hermes::ESTree::ProgramDecoration" = type { %"class.llvh::simple_ilist" }
%"class.llvh::simple_ilist" = type { %"class.llvh::ilist_sentinel" }
%"class.llvh::ilist_sentinel" = type { %"class.llvh::ilist_node_impl" }
%"class.hermes::ESTree::FunctionExpressionNode" = type <{ %"class.hermes::ESTree::FunctionLikeNode.base", [7 x i8], ptr, %"class.llvh::simple_ilist", ptr, ptr, ptr, ptr, i8, i8, [6 x i8] }>
%"class.hermes::ESTree::ArrowFunctionExpressionNode" = type <{ %"class.hermes::ESTree::FunctionLikeNode.base", [7 x i8], ptr, %"class.llvh::simple_ilist", ptr, ptr, ptr, ptr, i8, i8, [6 x i8] }>
%"class.hermes::ESTree::FunctionDeclarationNode" = type <{ %"class.hermes::ESTree::FunctionLikeNode.base", [7 x i8], ptr, %"class.llvh::simple_ilist", ptr, ptr, ptr, ptr, i8, i8, [6 x i8] }>
%"class.hermes::ESTree::ComponentDeclarationNode" = type { %"class.hermes::ESTree::FunctionLikeNode.base", ptr, %"class.llvh::simple_ilist", ptr, ptr, ptr }
%"class.hermes::ESTree::WhileStatementNode" = type { %"class.hermes::ESTree::LoopStatementNode.base", ptr, ptr }
%"class.hermes::ESTree::LoopStatementNode.base" = type <{ %"class.hermes::ESTree::StatementNode", %"class.hermes::ESTree::LoopStatementDecoration" }>
%"class.hermes::ESTree::StatementNode" = type { %"class.hermes::ESTree::Node" }
%"class.hermes::ESTree::LoopStatementDecoration" = type { %"class.hermes::ESTree::LabelDecorationBase" }
%"class.hermes::ESTree::LabelDecorationBase" = type { i32 }
%"class.hermes::ESTree::DoWhileStatementNode" = type { %"class.hermes::ESTree::LoopStatementNode.base", ptr, ptr }
%"class.hermes::ESTree::ForInStatementNode" = type { %"class.hermes::ESTree::LoopStatementNode.base", ptr, ptr, ptr }
%"class.hermes::ESTree::ForOfStatementNode" = type <{ %"class.hermes::ESTree::LoopStatementNode.base", [4 x i8], ptr, ptr, ptr, i8, [7 x i8] }>
%"class.hermes::ESTree::ForStatementNode" = type { %"class.hermes::ESTree::LoopStatementNode.base", ptr, ptr, ptr, ptr }
%"class.hermes::ESTree::BlockStatementNode" = type { %"class.hermes::ESTree::StatementNode", %"class.hermes::ESTree::BlockStatementDecoration.base", %"class.llvh::simple_ilist" }
%"class.hermes::ESTree::BlockStatementDecoration.base" = type <{ i32, i8, i8, i8 }>
%"class.hermes::ESTree::BreakStatementNode" = type { %"class.hermes::ESTree::StatementNode", %"class.hermes::ESTree::BreakStatementDecoration", ptr }
%"class.hermes::ESTree::BreakStatementDecoration" = type { %"class.hermes::ESTree::GotoDecorationBase" }
%"class.hermes::ESTree::GotoDecorationBase" = type { %"class.hermes::ESTree::LabelDecorationBase" }
%"class.hermes::ESTree::ContinueStatementNode" = type { %"class.hermes::ESTree::StatementNode", %"class.hermes::ESTree::ContinueStatementDecoration", ptr }
%"class.hermes::ESTree::ContinueStatementDecoration" = type { %"class.hermes::ESTree::GotoDecorationBase" }
%"class.hermes::ESTree::ThrowStatementNode" = type { %"class.hermes::ESTree::StatementNode", ptr }
%"class.hermes::ESTree::ReturnStatementNode" = type { %"class.hermes::ESTree::StatementNode", ptr }
%"class.hermes::ESTree::WithStatementNode" = type { %"class.hermes::ESTree::StatementNode", ptr, ptr }
%"class.hermes::ESTree::SwitchStatementNode" = type { %"class.hermes::ESTree::StatementNode", %"class.hermes::ESTree::SwitchStatementDecoration", ptr, %"class.llvh::simple_ilist" }
%"class.hermes::ESTree::SwitchStatementDecoration" = type { %"class.hermes::ESTree::LabelDecorationBase" }
%"class.hermes::ESTree::LabeledStatementNode" = type { %"class.hermes::ESTree::StatementNode", %"class.hermes::ESTree::LabeledStatementDecoration", ptr, ptr }
%"class.hermes::ESTree::LabeledStatementDecoration" = type { %"class.hermes::ESTree::LabelDecorationBase" }
%"class.hermes::ESTree::ExpressionStatementNode" = type { %"class.hermes::ESTree::StatementNode", ptr, ptr }
%"class.hermes::ESTree::TryStatementNode" = type { %"class.hermes::ESTree::StatementNode", ptr, ptr, ptr }
%"class.hermes::ESTree::IfStatementNode" = type { %"class.hermes::ESTree::StatementNode", ptr, ptr, ptr }
%"class.hermes::ESTree::BooleanLiteralNode" = type <{ %"class.hermes::ESTree::Node", i8, [7 x i8] }>
%"class.hermes::ESTree::StringLiteralNode" = type { %"class.hermes::ESTree::Node", ptr }
%"class.hermes::ESTree::NumericLiteralNode" = type { %"class.hermes::ESTree::Node", double }
%"class.hermes::ESTree::RegExpLiteralNode" = type { %"class.hermes::ESTree::Node", ptr, ptr }
%"class.hermes::ESTree::BigIntLiteralNode" = type { %"class.hermes::ESTree::Node", ptr }
%"class.hermes::ESTree::SequenceExpressionNode" = type { %"class.hermes::ESTree::Node", %"class.llvh::simple_ilist" }
%"class.hermes::ESTree::ObjectExpressionNode" = type { %"class.hermes::ESTree::Node", %"class.llvh::simple_ilist" }
%"class.hermes::ESTree::ArrayExpressionNode" = type <{ %"class.hermes::ESTree::Node", %"class.llvh::simple_ilist", i8, [7 x i8] }>
%"class.hermes::ESTree::SpreadElementNode" = type { %"class.hermes::ESTree::Node", ptr }
%"class.hermes::ESTree::NewExpressionNode" = type { %"class.hermes::ESTree::Node", ptr, ptr, %"class.llvh::simple_ilist" }
%"class.hermes::ESTree::YieldExpressionNode" = type <{ %"class.hermes::ESTree::Node", ptr, i8, [7 x i8] }>
%"class.hermes::ESTree::AwaitExpressionNode" = type { %"class.hermes::ESTree::Node", ptr }
%"class.hermes::ESTree::ImportExpressionNode" = type { %"class.hermes::ESTree::Node", ptr, ptr }
%"class.hermes::ESTree::CallExpressionNode" = type { %"class.hermes::ESTree::CallExpressionLikeNode", ptr, ptr, %"class.llvh::simple_ilist" }
%"class.hermes::ESTree::CallExpressionLikeNode" = type { %"class.hermes::ESTree::Node" }
%"class.hermes::ESTree::OptionalCallExpressionNode" = type <{ %"class.hermes::ESTree::CallExpressionLikeNode", ptr, ptr, %"class.llvh::simple_ilist", i8, [7 x i8] }>
%"class.hermes::ESTree::AssignmentExpressionNode" = type { %"class.hermes::ESTree::Node", ptr, ptr, ptr }
%"class.hermes::ESTree::UnaryExpressionNode" = type <{ %"class.hermes::ESTree::Node", ptr, ptr, i8, [7 x i8] }>
%"class.hermes::ESTree::UpdateExpressionNode" = type <{ %"class.hermes::ESTree::Node", ptr, ptr, i8, [7 x i8] }>
%"class.hermes::ESTree::MemberExpressionNode" = type <{ %"class.hermes::ESTree::MemberExpressionLikeNode", ptr, ptr, i8, [7 x i8] }>
%"class.hermes::ESTree::MemberExpressionLikeNode" = type { %"class.hermes::ESTree::Node" }
%"class.hermes::ESTree::OptionalMemberExpressionNode" = type <{ %"class.hermes::ESTree::MemberExpressionLikeNode", ptr, ptr, i8, i8, [6 x i8] }>
%"class.hermes::ESTree::LogicalExpressionNode" = type { %"class.hermes::ESTree::Node", ptr, ptr, ptr }
%"class.hermes::ESTree::ConditionalExpressionNode" = type { %"class.hermes::ESTree::Node", ptr, ptr, ptr }
%"class.hermes::ESTree::BinaryExpressionNode" = type { %"class.hermes::ESTree::Node", ptr, ptr, ptr }
%"class.hermes::ESTree::DirectiveNode" = type { %"class.hermes::ESTree::Node", ptr }
%"class.hermes::ESTree::DirectiveLiteralNode" = type { %"class.hermes::ESTree::Node", ptr }
%"class.hermes::ESTree::IdentifierNode" = type <{ %"class.hermes::ESTree::Node", ptr, ptr, i8, [7 x i8] }>
%"class.hermes::ESTree::PrivateNameNode" = type { %"class.hermes::ESTree::Node", ptr }
%"class.hermes::ESTree::MetaPropertyNode" = type { %"class.hermes::ESTree::Node", ptr, ptr }
%"class.hermes::ESTree::SwitchCaseNode" = type { %"class.hermes::ESTree::Node", ptr, %"class.llvh::simple_ilist" }
%"class.hermes::ESTree::CatchClauseNode" = type { %"class.hermes::ESTree::Node", ptr, ptr }
%"class.hermes::ESTree::VariableDeclaratorNode" = type { %"class.hermes::ESTree::Node", ptr, ptr }
%"class.hermes::ESTree::VariableDeclarationNode" = type { %"class.hermes::ESTree::Node", ptr, %"class.llvh::simple_ilist" }
%"class.hermes::ESTree::TemplateLiteralNode" = type { %"class.hermes::ESTree::Node", %"class.llvh::simple_ilist", %"class.llvh::simple_ilist" }
%"class.hermes::ESTree::TaggedTemplateExpressionNode" = type { %"class.hermes::ESTree::Node", ptr, ptr }
%"class.hermes::ESTree::TemplateElementNode" = type { %"class.hermes::ESTree::Node", i8, ptr, ptr }
%"class.hermes::ESTree::PropertyNode" = type <{ %"class.hermes::ESTree::Node", ptr, ptr, ptr, i8, i8, i8, [5 x i8] }>
%"class.hermes::ESTree::ClassDeclarationNode" = type { %"class.hermes::ESTree::Node", ptr, ptr, ptr, ptr, %"class.llvh::simple_ilist", %"class.llvh::simple_ilist", ptr }
%"class.hermes::ESTree::ClassExpressionNode" = type { %"class.hermes::ESTree::Node", ptr, ptr, ptr, ptr, %"class.llvh::simple_ilist", %"class.llvh::simple_ilist", ptr }
%"class.hermes::ESTree::ClassBodyNode" = type { %"class.hermes::ESTree::Node", %"class.llvh::simple_ilist" }
%"class.hermes::ESTree::ClassPropertyNode" = type { %"class.hermes::ESTree::Node", ptr, ptr, i8, i8, i8, i8, ptr, ptr, ptr }
%"class.hermes::ESTree::ClassPrivatePropertyNode" = type { %"class.hermes::ESTree::Node", ptr, ptr, i8, i8, i8, ptr, ptr, ptr }
%"class.hermes::ESTree::MethodDefinitionNode" = type <{ %"class.hermes::ESTree::Node", ptr, ptr, ptr, i8, i8, [6 x i8] }>
%"class.hermes::ESTree::ImportDeclarationNode" = type { %"class.hermes::ESTree::Node", %"class.llvh::simple_ilist", ptr, %"class.llvh::simple_ilist", ptr }
%"class.hermes::ESTree::ImportSpecifierNode" = type { %"class.hermes::ESTree::Node", ptr, ptr, ptr }
%"class.hermes::ESTree::ImportDefaultSpecifierNode" = type { %"class.hermes::ESTree::Node", ptr }
%"class.hermes::ESTree::ImportNamespaceSpecifierNode" = type { %"class.hermes::ESTree::Node", ptr }
%"class.hermes::ESTree::ImportAttributeNode" = type { %"class.hermes::ESTree::Node", ptr, ptr }
%"class.hermes::ESTree::ExportNamedDeclarationNode" = type { %"class.hermes::ESTree::Node", ptr, %"class.llvh::simple_ilist", ptr, ptr }
%"class.hermes::ESTree::ExportSpecifierNode" = type { %"class.hermes::ESTree::Node", ptr, ptr }
%"class.hermes::ESTree::ExportNamespaceSpecifierNode" = type { %"class.hermes::ESTree::Node", ptr }
%"class.hermes::ESTree::ExportDefaultDeclarationNode" = type { %"class.hermes::ESTree::Node", ptr }
%"class.hermes::ESTree::ExportAllDeclarationNode" = type { %"class.hermes::ESTree::Node", ptr, ptr }
%"class.hermes::ESTree::ObjectPatternNode" = type { %"class.hermes::ESTree::PatternNode", %"class.llvh::simple_ilist", ptr }
%"class.hermes::ESTree::PatternNode" = type { %"class.hermes::ESTree::Node" }
%"class.hermes::ESTree::ArrayPatternNode" = type { %"class.hermes::ESTree::PatternNode", %"class.llvh::simple_ilist", ptr }
%"class.hermes::ESTree::RestElementNode" = type { %"class.hermes::ESTree::PatternNode", ptr }
%"class.hermes::ESTree::AssignmentPatternNode" = type { %"class.hermes::ESTree::PatternNode", ptr, ptr }
%"class.hermes::ESTree::JSXIdentifierNode" = type { %"class.hermes::ESTree::JSXNode", ptr }
%"class.hermes::ESTree::JSXNode" = type { %"class.hermes::ESTree::Node" }
%"class.hermes::ESTree::JSXMemberExpressionNode" = type { %"class.hermes::ESTree::JSXNode", ptr, ptr }
%"class.hermes::ESTree::JSXNamespacedNameNode" = type { %"class.hermes::ESTree::JSXNode", ptr, ptr }
%"class.hermes::ESTree::JSXExpressionContainerNode" = type { %"class.hermes::ESTree::JSXNode", ptr }
%"class.hermes::ESTree::JSXSpreadChildNode" = type { %"class.hermes::ESTree::JSXNode", ptr }
%"class.hermes::ESTree::JSXOpeningElementNode" = type { %"class.hermes::ESTree::JSXNode", ptr, %"class.llvh::simple_ilist", i8, ptr }
%"class.hermes::ESTree::JSXClosingElementNode" = type { %"class.hermes::ESTree::JSXNode", ptr }
%"class.hermes::ESTree::JSXAttributeNode" = type { %"class.hermes::ESTree::JSXNode", ptr, ptr }
%"class.hermes::ESTree::JSXSpreadAttributeNode" = type { %"class.hermes::ESTree::JSXNode", ptr }
%"class.hermes::ESTree::JSXStringLiteralNode" = type { %"class.hermes::ESTree::JSXNode", ptr, ptr }
%"class.hermes::ESTree::JSXTextNode" = type { %"class.hermes::ESTree::JSXNode", ptr, ptr }
%"class.hermes::ESTree::JSXElementNode" = type { %"class.hermes::ESTree::JSXNode", ptr, %"class.llvh::simple_ilist", ptr }
%"class.hermes::ESTree::JSXFragmentNode" = type { %"class.hermes::ESTree::JSXNode", ptr, %"class.llvh::simple_ilist", ptr }
%"class.hermes::ESTree::StringLiteralTypeAnnotationNode" = type { %"class.hermes::ESTree::FlowNode", ptr, ptr }
%"class.hermes::ESTree::FlowNode" = type { %"class.hermes::ESTree::Node" }
%"class.hermes::ESTree::NumberLiteralTypeAnnotationNode" = type { %"class.hermes::ESTree::FlowNode", double, ptr }
%"class.hermes::ESTree::BigIntLiteralTypeAnnotationNode" = type { %"class.hermes::ESTree::FlowNode", ptr }
%"class.hermes::ESTree::BooleanLiteralTypeAnnotationNode" = type { %"class.hermes::ESTree::FlowNode", i8, ptr }
%"class.hermes::ESTree::FunctionTypeAnnotationNode" = type { %"class.hermes::ESTree::FlowNode", %"class.llvh::simple_ilist", ptr, ptr, ptr, ptr }
%"class.hermes::ESTree::FunctionTypeParamNode" = type <{ %"class.hermes::ESTree::FlowNode", ptr, ptr, i8, [7 x i8] }>
%"class.hermes::ESTree::ComponentTypeAnnotationNode" = type { %"class.hermes::ESTree::FlowNode", %"class.llvh::simple_ilist", ptr, ptr, ptr }
%"class.hermes::ESTree::ComponentTypeParameterNode" = type <{ %"class.hermes::ESTree::FlowNode", ptr, ptr, i8, [7 x i8] }>
%"class.hermes::ESTree::NullableTypeAnnotationNode" = type { %"class.hermes::ESTree::FlowNode", ptr }
%"class.hermes::ESTree::QualifiedTypeIdentifierNode" = type { %"class.hermes::ESTree::FlowNode", ptr, ptr }
%"class.hermes::ESTree::TypeofTypeAnnotationNode" = type { %"class.hermes::ESTree::FlowNode", ptr }
%"class.hermes::ESTree::KeyofTypeAnnotationNode" = type { %"class.hermes::ESTree::FlowNode", ptr }
%"class.hermes::ESTree::TypeOperatorNode" = type { %"class.hermes::ESTree::FlowNode", ptr, ptr }
%"class.hermes::ESTree::QualifiedTypeofIdentifierNode" = type { %"class.hermes::ESTree::FlowNode", ptr, ptr }
%"class.hermes::ESTree::TupleTypeAnnotationNode" = type { %"class.hermes::ESTree::FlowNode", %"class.llvh::simple_ilist" }
%"class.hermes::ESTree::TupleTypeSpreadElementNode" = type { %"class.hermes::ESTree::FlowNode", ptr, ptr }
%"class.hermes::ESTree::TupleTypeLabeledElementNode" = type { %"class.hermes::ESTree::FlowNode", ptr, ptr, i8, ptr }
%"class.hermes::ESTree::ArrayTypeAnnotationNode" = type { %"class.hermes::ESTree::FlowNode", ptr }
%"class.hermes::ESTree::InferTypeAnnotationNode" = type { %"class.hermes::ESTree::FlowNode", ptr }
%"class.hermes::ESTree::UnionTypeAnnotationNode" = type { %"class.hermes::ESTree::FlowNode", %"class.llvh::simple_ilist" }
%"class.hermes::ESTree::IntersectionTypeAnnotationNode" = type { %"class.hermes::ESTree::FlowNode", %"class.llvh::simple_ilist" }
%"class.hermes::ESTree::GenericTypeAnnotationNode" = type { %"class.hermes::ESTree::FlowNode", ptr, ptr }
%"class.hermes::ESTree::IndexedAccessTypeNode" = type { %"class.hermes::ESTree::FlowNode", ptr, ptr }
%"class.hermes::ESTree::OptionalIndexedAccessTypeNode" = type <{ %"class.hermes::ESTree::FlowNode", ptr, ptr, i8, [7 x i8] }>
%"class.hermes::ESTree::ConditionalTypeAnnotationNode" = type { %"class.hermes::ESTree::FlowNode", ptr, ptr, ptr, ptr }
%"class.hermes::ESTree::TypePredicateNode" = type <{ %"class.hermes::ESTree::FlowNode", ptr, ptr, i8, [7 x i8] }>
%"class.hermes::ESTree::InterfaceTypeAnnotationNode" = type { %"class.hermes::ESTree::FlowNode", %"class.llvh::simple_ilist", ptr }
%"class.hermes::ESTree::TypeAliasNode" = type { %"class.hermes::ESTree::FlowNode", ptr, ptr, ptr }
%"class.hermes::ESTree::OpaqueTypeNode" = type { %"class.hermes::ESTree::FlowNode", ptr, ptr, ptr, ptr }
%"class.hermes::ESTree::InterfaceDeclarationNode" = type { %"class.hermes::ESTree::FlowNode", ptr, ptr, %"class.llvh::simple_ilist", ptr }
%"class.hermes::ESTree::DeclareTypeAliasNode" = type { %"class.hermes::ESTree::FlowNode", ptr, ptr, ptr }
%"class.hermes::ESTree::DeclareOpaqueTypeNode" = type { %"class.hermes::ESTree::FlowNode", ptr, ptr, ptr, ptr }
%"class.hermes::ESTree::DeclareInterfaceNode" = type { %"class.hermes::ESTree::FlowNode", ptr, ptr, %"class.llvh::simple_ilist", ptr }
%"class.hermes::ESTree::DeclareClassNode" = type { %"class.hermes::ESTree::FlowNode", ptr, ptr, %"class.llvh::simple_ilist", %"class.llvh::simple_ilist", %"class.llvh::simple_ilist", ptr }
%"class.hermes::ESTree::DeclareFunctionNode" = type { %"class.hermes::ESTree::FlowNode", ptr, ptr }
%"class.hermes::ESTree::DeclareComponentNode" = type { %"class.hermes::ESTree::FlowNode", ptr, %"class.llvh::simple_ilist", ptr, ptr, ptr }
%"class.hermes::ESTree::DeclareVariableNode" = type { %"class.hermes::ESTree::FlowNode", ptr, ptr }
%"class.hermes::ESTree::DeclareEnumNode" = type { %"class.hermes::ESTree::FlowNode", ptr, ptr }
%"class.hermes::ESTree::DeclareExportDeclarationNode" = type <{ %"class.hermes::ESTree::FlowNode", ptr, %"class.llvh::simple_ilist", ptr, i8, [7 x i8] }>
%"class.hermes::ESTree::DeclareExportAllDeclarationNode" = type { %"class.hermes::ESTree::FlowNode", ptr }
%"class.hermes::ESTree::DeclareModuleNode" = type { %"class.hermes::ESTree::FlowNode", ptr, ptr, ptr }
%"class.hermes::ESTree::DeclareModuleExportsNode" = type { %"class.hermes::ESTree::FlowNode", ptr }
%"class.hermes::ESTree::InterfaceExtendsNode" = type { %"class.hermes::ESTree::FlowNode", ptr, ptr }
%"class.hermes::ESTree::ClassImplementsNode" = type { %"class.hermes::ESTree::FlowNode", ptr, ptr }
%"class.hermes::ESTree::TypeAnnotationNode" = type { %"class.hermes::ESTree::FlowNode", ptr }
%"class.hermes::ESTree::ObjectTypeAnnotationNode" = type <{ %"class.hermes::ESTree::FlowNode", %"class.llvh::simple_ilist", %"class.llvh::simple_ilist", %"class.llvh::simple_ilist", %"class.llvh::simple_ilist", i8, i8, [6 x i8] }>
%"class.hermes::ESTree::ObjectTypePropertyNode" = type { %"class.hermes::ESTree::FlowNode", ptr, ptr, i8, i8, i8, i8, ptr, ptr }
%"class.hermes::ESTree::ObjectTypeSpreadPropertyNode" = type { %"class.hermes::ESTree::FlowNode", ptr }
%"class.hermes::ESTree::ObjectTypeInternalSlotNode" = type <{ %"class.hermes::ESTree::FlowNode", ptr, ptr, i8, i8, i8, [5 x i8] }>
%"class.hermes::ESTree::ObjectTypeCallPropertyNode" = type <{ %"class.hermes::ESTree::FlowNode", ptr, i8, [7 x i8] }>
%"class.hermes::ESTree::ObjectTypeIndexerNode" = type { %"class.hermes::ESTree::FlowNode", ptr, ptr, ptr, i8, ptr }
%"class.hermes::ESTree::ObjectTypeMappedTypePropertyNode" = type { %"class.hermes::ESTree::FlowNode", ptr, ptr, ptr, ptr, ptr }
%"class.hermes::ESTree::VarianceNode" = type { %"class.hermes::ESTree::FlowNode", ptr }
%"class.hermes::ESTree::TypeParameterDeclarationNode" = type { %"class.hermes::ESTree::FlowNode", %"class.llvh::simple_ilist" }
%"class.hermes::ESTree::TypeParameterNode" = type <{ %"class.hermes::ESTree::FlowNode", ptr, ptr, ptr, ptr, i8, [7 x i8] }>
%"class.hermes::ESTree::TypeParameterInstantiationNode" = type { %"class.hermes::ESTree::FlowNode", %"class.llvh::simple_ilist" }
%"class.hermes::ESTree::TypeCastExpressionNode" = type { %"class.hermes::ESTree::FlowNode", ptr, ptr }
%"class.hermes::ESTree::AsExpressionNode" = type { %"class.hermes::ESTree::FlowNode", ptr, ptr }
%"class.hermes::ESTree::DeclaredPredicateNode" = type { %"class.hermes::ESTree::FlowNode", ptr }
%"class.hermes::ESTree::EnumDeclarationNode" = type { %"class.hermes::ESTree::FlowNode", ptr, ptr }
%"class.hermes::ESTree::EnumStringBodyNode" = type <{ %"class.hermes::ESTree::FlowNode", %"class.llvh::simple_ilist", i8, i8, [6 x i8] }>
%"class.hermes::ESTree::EnumNumberBodyNode" = type <{ %"class.hermes::ESTree::FlowNode", %"class.llvh::simple_ilist", i8, i8, [6 x i8] }>
%"class.hermes::ESTree::EnumBooleanBodyNode" = type <{ %"class.hermes::ESTree::FlowNode", %"class.llvh::simple_ilist", i8, i8, [6 x i8] }>
%"class.hermes::ESTree::EnumSymbolBodyNode" = type <{ %"class.hermes::ESTree::FlowNode", %"class.llvh::simple_ilist", i8, [7 x i8] }>
%"class.hermes::ESTree::EnumDefaultedMemberNode" = type { %"class.hermes::ESTree::FlowNode", ptr }
%"class.hermes::ESTree::EnumStringMemberNode" = type { %"class.hermes::ESTree::FlowNode", ptr, ptr }
%"class.hermes::ESTree::EnumNumberMemberNode" = type { %"class.hermes::ESTree::FlowNode", ptr, ptr }
%"class.hermes::ESTree::EnumBooleanMemberNode" = type { %"class.hermes::ESTree::FlowNode", ptr, ptr }
%"class.hermes::ESTree::ComponentParameterNode" = type <{ %"class.hermes::ESTree::FlowNode", ptr, ptr, i8, [7 x i8] }>
%"class.hermes::ESTree::TSTypeAnnotationNode" = type { %"class.hermes::ESTree::TSNode", ptr }
%"class.hermes::ESTree::TSNode" = type { %"class.hermes::ESTree::Node" }
%"class.hermes::ESTree::TSLiteralTypeNode" = type { %"class.hermes::ESTree::TSNode", ptr }
%"class.hermes::ESTree::TSIndexedAccessTypeNode" = type { %"class.hermes::ESTree::TSNode", ptr, ptr }
%"class.hermes::ESTree::TSArrayTypeNode" = type { %"class.hermes::ESTree::TSNode", ptr }
%"class.hermes::ESTree::TSTypeReferenceNode" = type { %"class.hermes::ESTree::TSNode", ptr, ptr }
%"class.hermes::ESTree::TSQualifiedNameNode" = type { %"class.hermes::ESTree::TSNode", ptr, ptr }
%"class.hermes::ESTree::TSFunctionTypeNode" = type { %"class.hermes::ESTree::TSNode", %"class.llvh::simple_ilist", ptr, ptr }
%"class.hermes::ESTree::TSConstructorTypeNode" = type { %"class.hermes::ESTree::TSNode", %"class.llvh::simple_ilist", ptr, ptr }
%"class.hermes::ESTree::TSTypePredicateNode" = type { %"class.hermes::ESTree::TSNode", ptr, ptr }
%"class.hermes::ESTree::TSTupleTypeNode" = type { %"class.hermes::ESTree::TSNode", %"class.llvh::simple_ilist" }
%"class.hermes::ESTree::TSTypeAssertionNode" = type { %"class.hermes::ESTree::TSNode", ptr, ptr }
%"class.hermes::ESTree::TSAsExpressionNode" = type { %"class.hermes::ESTree::TSNode", ptr, ptr }
%"class.hermes::ESTree::TSParameterPropertyNode" = type <{ %"class.hermes::ESTree::TSNode", ptr, ptr, i8, i8, i8, [5 x i8] }>
%"class.hermes::ESTree::TSTypeAliasDeclarationNode" = type { %"class.hermes::ESTree::TSNode", ptr, ptr, ptr }
%"class.hermes::ESTree::TSInterfaceDeclarationNode" = type { %"class.hermes::ESTree::TSNode", ptr, ptr, %"class.llvh::simple_ilist", ptr }
%"class.hermes::ESTree::TSInterfaceHeritageNode" = type { %"class.hermes::ESTree::TSNode", ptr, ptr }
%"class.hermes::ESTree::TSInterfaceBodyNode" = type { %"class.hermes::ESTree::TSNode", %"class.llvh::simple_ilist" }
%"class.hermes::ESTree::TSEnumDeclarationNode" = type { %"class.hermes::ESTree::TSNode", ptr, %"class.llvh::simple_ilist" }
%"class.hermes::ESTree::TSEnumMemberNode" = type { %"class.hermes::ESTree::TSNode", ptr, ptr }
%"class.hermes::ESTree::TSModuleDeclarationNode" = type { %"class.hermes::ESTree::TSNode", ptr, ptr }
%"class.hermes::ESTree::TSModuleBlockNode" = type { %"class.hermes::ESTree::TSNode", %"class.llvh::simple_ilist" }
%"class.hermes::ESTree::TSModuleMemberNode" = type { %"class.hermes::ESTree::TSNode", ptr, ptr }
%"class.hermes::ESTree::TSTypeParameterDeclarationNode" = type { %"class.hermes::ESTree::TSNode", %"class.llvh::simple_ilist" }
%"class.hermes::ESTree::TSTypeParameterNode" = type { %"class.hermes::ESTree::TSNode", ptr, ptr, ptr }
%"class.hermes::ESTree::TSTypeParameterInstantiationNode" = type { %"class.hermes::ESTree::TSNode", %"class.llvh::simple_ilist" }
%"class.hermes::ESTree::TSUnionTypeNode" = type { %"class.hermes::ESTree::TSNode", %"class.llvh::simple_ilist" }
%"class.hermes::ESTree::TSIntersectionTypeNode" = type { %"class.hermes::ESTree::TSNode", %"class.llvh::simple_ilist" }
%"class.hermes::ESTree::TSTypeQueryNode" = type { %"class.hermes::ESTree::TSNode", ptr }
%"class.hermes::ESTree::TSConditionalTypeNode" = type { %"class.hermes::ESTree::TSNode", ptr, ptr, ptr, ptr }
%"class.hermes::ESTree::TSTypeLiteralNode" = type { %"class.hermes::ESTree::TSNode", %"class.llvh::simple_ilist" }
%"class.hermes::ESTree::TSPropertySignatureNode" = type <{ %"class.hermes::ESTree::TSNode", ptr, ptr, ptr, i8, i8, i8, i8, i8, [3 x i8] }>
%"class.hermes::ESTree::TSMethodSignatureNode" = type <{ %"class.hermes::ESTree::TSNode", ptr, %"class.llvh::simple_ilist", ptr, i8, [7 x i8] }>
%"class.hermes::ESTree::TSIndexSignatureNode" = type { %"class.hermes::ESTree::TSNode", %"class.llvh::simple_ilist", ptr }
%"class.hermes::ESTree::TSCallSignatureDeclarationNode" = type { %"class.hermes::ESTree::TSNode", %"class.llvh::simple_ilist", ptr }
%"class.hermes::ESTree::TSModifiersNode" = type <{ %"class.hermes::ESTree::TSNode", ptr, i8, [7 x i8] }>
%"class.hermes::ESTree::CoverInitializerNode" = type { %"class.hermes::ESTree::CoverNode", ptr }
%"class.hermes::ESTree::CoverNode" = type { %"class.hermes::ESTree::Node" }
%"class.hermes::ESTree::CoverRestElementNode" = type { %"class.hermes::ESTree::CoverNode", ptr }
%"class.hermes::ESTree::CoverTypedIdentifierNode" = type <{ %"class.hermes::ESTree::CoverNode", ptr, ptr, i8, [7 x i8] }>
%"struct.(anonymous namespace)::ParserFlags" = type { i8, i8, i8, i8 }
%"class.std::unique_ptr" = type { %"struct.std::__uniq_ptr_data" }
%"struct.std::__uniq_ptr_data" = type { %"class.std::__uniq_ptr_impl" }
%"class.std::__uniq_ptr_impl" = type { %"class.std::tuple" }
%"class.std::tuple" = type { %"struct.std::_Tuple_impl" }
%"struct.std::_Tuple_impl" = type { %"struct.std::_Head_base.1" }
%"struct.std::_Head_base.1" = type { ptr }
%"class.llvh::StringRef" = type { ptr, i64 }
%"class.std::vector.48" = type { %"struct.std::_Vector_base.49" }
%"struct.std::_Vector_base.49" = type { %"struct.std::_Vector_base<hermes::parser::StoredComment, std::allocator<hermes::parser::StoredComment>>::_Vector_impl" }
%"struct.std::_Vector_base<hermes::parser::StoredComment, std::allocator<hermes::parser::StoredComment>>::_Vector_impl" = type { %"struct.std::_Vector_base<hermes::parser::StoredComment, std::allocator<hermes::parser::StoredComment>>::_Vector_impl_data" }
%"struct.std::_Vector_base<hermes::parser::StoredComment, std::allocator<hermes::parser::StoredComment>>::_Vector_impl_data" = type { ptr, ptr, ptr }
%"class.llvh::ArrayRef" = type { ptr, i64 }
%"class.std::__cxx11::basic_string" = type { %"struct.std::__cxx11::basic_string<char>::_Alloc_hider", i64, %union.anon }
%"struct.std::__cxx11::basic_string<char>::_Alloc_hider" = type { ptr }
%union.anon = type { i64, [8 x i8] }
%"class.hermes::parser::JSParser" = type { %"class.std::unique_ptr.53" }
%"class.std::unique_ptr.53" = type { %"struct.std::__uniq_ptr_data.54" }
%"struct.std::__uniq_ptr_data.54" = type { %"class.std::__uniq_ptr_impl.55" }
%"class.std::__uniq_ptr_impl.55" = type { %"class.std::tuple.56" }
%"class.std::tuple.56" = type { %"struct.std::_Tuple_impl.57" }
%"struct.std::_Tuple_impl.57" = type { %"struct.std::_Head_base.60" }
%"struct.std::_Head_base.60" = type { ptr }
%"class.llvh::Optional.61" = type { %"struct.llvh::optional_detail::OptionalStorage.62" }
%"struct.llvh::optional_detail::OptionalStorage.62" = type { %"struct.llvh::AlignedCharArrayUnion.63", i8, [7 x i8] }
%"struct.llvh::AlignedCharArrayUnion.63" = type { %"struct.llvh::AlignedCharArray.44" }
%"struct.llvh::AlignedCharArray.44" = type { [8 x i8] }
%"struct.(anonymous namespace)::ParserContext" = type { %"class.hermes::Context", i32, %"class.std::deque", %"class.std::vector.38", %"class.llvh::Optional", ptr, %"class.std::__cxx11::basic_string" }
%"class.hermes::Context" = type { %"class.hermes::BacktrackingBumpPtrAllocator", %"class.hermes::BacktrackingBumpPtrAllocator", %"class.std::unique_ptr.2", %"class.hermes::StringTable", %"class.std::map", %"class.std::unique_ptr.13", ptr, i8, i8, i8, i32, i32, i8, i8, i8, i8, i8, i32, i8, i8, %"class.std::unique_ptr.21", %"class.std::vector.29", i32, i8, %"struct.hermes::CodeGenerationSettings", %"struct.hermes::OptimizationSettings", %"class.std::shared_ptr" }
%"class.hermes::BacktrackingBumpPtrAllocator" = type { %"class.std::vector", ptr }
%"class.std::vector" = type { %"struct.std::_Vector_base" }
%"struct.std::_Vector_base" = type { %"struct.std::_Vector_base<std::unique_ptr<hermes::BacktrackingBumpPtrAllocator::Slab>, std::allocator<std::unique_ptr<hermes::BacktrackingBumpPtrAllocator::Slab>>>::_Vector_impl" }
%"struct.std::_Vector_base<std::unique_ptr<hermes::BacktrackingBumpPtrAllocator::Slab>, std::allocator<std::unique_ptr<hermes::BacktrackingBumpPtrAllocator::Slab>>>::_Vector_impl" = type { %"struct.std::_Vector_base<std::unique_ptr<hermes::BacktrackingBumpPtrAllocator::Slab>, std::allocator<std::unique_ptr<hermes::BacktrackingBumpPtrAllocator::Slab>>>::_Vector_impl_data" }
%"struct.std::_Vector_base<std::unique_ptr<hermes::BacktrackingBumpPtrAllocator::Slab>, std::allocator<std::unique_ptr<hermes::BacktrackingBumpPtrAllocator::Slab>>>::_Vector_impl_data" = type { ptr, ptr, ptr }
%"class.std::unique_ptr.2" = type { %"struct.std::__uniq_ptr_data.3" }
%"struct.std::__uniq_ptr_data.3" = type { %"class.std::__uniq_ptr_impl.4" }
%"class.std::__uniq_ptr_impl.4" = type { %"class.std::tuple.5" }
%"class.std::tuple.5" = type { %"struct.std::_Tuple_impl.6" }
%"struct.std::_Tuple_impl.6" = type { %"struct.std::_Head_base.9" }
%"struct.std::_Head_base.9" = type { ptr }
%"class.hermes::StringTable" = type { ptr, %"class.llvh::DenseMap" }
%"class.llvh::DenseMap" = type <{ ptr, i32, i32, i32, [4 x i8] }>
%"class.std::map" = type { %"class.std::_Rb_tree" }
%"class.std::_Rb_tree" = type { %"struct.std::_Rb_tree<std::pair<hermes::UniqueString *, hermes::UniqueString *>, std::pair<const std::pair<hermes::UniqueString *, hermes::UniqueString *>, hermes::CompiledRegExp>, std::_Select1st<std::pair<const std::pair<hermes::UniqueString *, hermes::UniqueString *>, hermes::CompiledRegExp>>, std::less<std::pair<hermes::UniqueString *, hermes::UniqueString *>>>::_Rb_tree_impl" }
%"struct.std::_Rb_tree<std::pair<hermes::UniqueString *, hermes::UniqueString *>, std::pair<const std::pair<hermes::UniqueString *, hermes::UniqueString *>, hermes::CompiledRegExp>, std::_Select1st<std::pair<const std::pair<hermes::UniqueString *, hermes::UniqueString *>, hermes::CompiledRegExp>>, std::less<std::pair<hermes::UniqueString *, hermes::UniqueString *>>>::_Rb_tree_impl" = type { %"struct.std::_Rb_tree_key_compare", %"struct.std::_Rb_tree_header" }
%"struct.std::_Rb_tree_key_compare" = type { %"struct.std::less" }
%"struct.std::less" = type { i8 }
%"struct.std::_Rb_tree_header" = type { %"struct.std::_Rb_tree_node_base", i64 }
%"struct.std::_Rb_tree_node_base" = type { i32, ptr, ptr, ptr }
%"class.std::unique_ptr.13" = type { %"struct.std::__uniq_ptr_data.14" }
%"struct.std::__uniq_ptr_data.14" = type { %"class.std::__uniq_ptr_impl.15" }
%"class.std::__uniq_ptr_impl.15" = type { %"class.std::tuple.16" }
%"class.std::tuple.16" = type { %"struct.std::_Tuple_impl.17" }
%"struct.std::_Tuple_impl.17" = type { %"struct.std::_Head_base.20" }
%"struct.std::_Head_base.20" = type { ptr }
%"class.std::unique_ptr.21" = type { %"struct.std::__uniq_ptr_data.22" }
%"struct.std::__uniq_ptr_data.22" = type { %"class.std::__uniq_ptr_impl.23" }
%"class.std::__uniq_ptr_impl.23" = type { %"class.std::tuple.24" }
%"class.std::tuple.24" = type { %"struct.std::_Tuple_impl.25" }
%"struct.std::_Tuple_impl.25" = type { %"struct.std::_Head_base.28" }
%"struct.std::_Head_base.28" = type { ptr }
%"class.std::vector.29" = type { %"struct.std::_Vector_base.30" }
%"struct.std::_Vector_base.30" = type { %"struct.std::_Vector_base<unsigned int, std::allocator<unsigned int>>::_Vector_impl" }
%"struct.std::_Vector_base<unsigned int, std::allocator<unsigned int>>::_Vector_impl" = type { %"struct.std::_Vector_base<unsigned int, std::allocator<unsigned int>>::_Vector_impl_data" }
%"struct.std::_Vector_base<unsigned int, std::allocator<unsigned int>>::_Vector_impl_data" = type { ptr, ptr, ptr }
%"struct.hermes::CodeGenerationSettings" = type { i8, i8, i8, i8, i8, i8, i8, i8, i8, i8, [6 x i8], %"struct.hermes::CodeGenerationSettings_DumpSettings", %"struct.hermes::CodeGenerationSettings_DumpSettings", %"class.llvh::SmallDenseSet" }
%"struct.hermes::CodeGenerationSettings_DumpSettings" = type { i8, [7 x i8], %"class.llvh::SmallDenseSet", %"class.llvh::SmallDenseSet" }
%"class.llvh::SmallDenseSet" = type { %"class.llvh::detail::DenseSetImpl" }
%"class.llvh::detail::DenseSetImpl" = type { %"class.llvh::SmallDenseMap" }
%"class.llvh::SmallDenseMap" = type { i32, i32, %"struct.llvh::AlignedCharArrayUnion" }
%"struct.llvh::AlignedCharArrayUnion" = type { %"struct.llvh::AlignedCharArray" }
%"struct.llvh::AlignedCharArray" = type { [64 x i8] }
%"struct.hermes::OptimizationSettings" = type { i8, i8, i8, i8, i8, i8 }
%"class.std::shared_ptr" = type { %"class.std::__shared_ptr" }
%"class.std::__shared_ptr" = type { ptr, %"class.std::__shared_count" }
%"class.std::__shared_count" = type { ptr }
%"class.std::deque" = type { %"class.std::_Deque_base" }
%"class.std::_Deque_base" = type { %"struct.std::_Deque_base<llvh::SMDiagnostic, std::allocator<llvh::SMDiagnostic>>::_Deque_impl" }
%"struct.std::_Deque_base<llvh::SMDiagnostic, std::allocator<llvh::SMDiagnostic>>::_Deque_impl" = type { %"struct.std::_Deque_base<llvh::SMDiagnostic, std::allocator<llvh::SMDiagnostic>>::_Deque_impl_data" }
%"struct.std::_Deque_base<llvh::SMDiagnostic, std::allocator<llvh::SMDiagnostic>>::_Deque_impl_data" = type { ptr, i64, %"struct.std::_Deque_iterator", %"struct.std::_Deque_iterator" }
%"struct.std::_Deque_iterator" = type { ptr, ptr, ptr, ptr }
%"class.std::vector.38" = type { %"struct.std::_Vector_base.39" }
%"struct.std::_Vector_base.39" = type { %"struct.std::_Vector_base<(anonymous namespace)::DiagMessage, std::allocator<(anonymous namespace)::DiagMessage>>::_Vector_impl" }
%"struct.std::_Vector_base<(anonymous namespace)::DiagMessage, std::allocator<(anonymous namespace)::DiagMessage>>::_Vector_impl" = type { %"struct.std::_Vector_base<(anonymous namespace)::DiagMessage, std::allocator<(anonymous namespace)::DiagMessage>>::_Vector_impl_data" }
%"struct.std::_Vector_base<(anonymous namespace)::DiagMessage, std::allocator<(anonymous namespace)::DiagMessage>>::_Vector_impl_data" = type { ptr, ptr, ptr }
%"class.llvh::Optional" = type { %"struct.llvh::optional_detail::OptionalStorage" }
%"struct.llvh::optional_detail::OptionalStorage" = type { %"struct.llvh::AlignedCharArrayUnion.43", i8, [7 x i8] }
%"struct.llvh::AlignedCharArrayUnion.43" = type { %"struct.llvh::AlignedCharArray.44" }
%class.anon = type { i8 }
%"class.llvh::Twine" = type <{ %"union.llvh::Twine::Child", %"union.llvh::Twine::Child", i8, i8, [6 x i8] }>
%"union.llvh::Twine::Child" = type { ptr }
%"class.std::unique_ptr.155" = type { %"struct.std::__uniq_ptr_data.156" }
%"struct.std::__uniq_ptr_data.156" = type { %"class.std::__uniq_ptr_impl.157" }
%"class.std::__uniq_ptr_impl.157" = type { %"class.std::tuple.158" }
%"class.std::tuple.158" = type { %"struct.std::_Tuple_impl.159" }
%"struct.std::_Tuple_impl.159" = type { %"struct.std::_Head_base.162" }
%"struct.std::_Head_base.162" = type { ptr }
%"struct.(anonymous namespace)::DataRef" = type { ptr, i64 }
%"class.hermes::SourceErrorManager::SourceCoords" = type { i32, i32, i32 }
%"struct.(anonymous namespace)::Coord" = type { i32, i32 }
%"class.llvh::Optional.105" = type { %"struct.llvh::optional_detail::OptionalStorage.106" }
%"struct.llvh::optional_detail::OptionalStorage.106" = type { %"struct.llvh::AlignedCharArrayUnion.107", i8, [7 x i8] }
%"struct.llvh::AlignedCharArrayUnion.107" = type { %"struct.llvh::AlignedCharArray.108" }
%"struct.llvh::AlignedCharArray.108" = type { [24 x i8] }
%"struct.hermes::SourceErrorManager::LineCoord" = type { i32, i32, %"class.llvh::StringRef" }
%"struct.(anonymous namespace)::LineCoord" = type { i32, %"struct.(anonymous namespace)::DataRef" }
%"class.hermes::SourceErrorManager" = type { %"class.llvh::SourceMgr", %"struct.hermes::SourceErrorOutputOptions", %"class.std::shared_ptr.83", %"struct.hermes::SourceErrorManager::FindLineCache", %"struct.hermes::StringSetVector", [4 x i32], i32, i8, %"class.llvh::SmallBitVector", %"class.llvh::SmallBitVector", %"class.hermes::OptValue", i8, [7 x i8], %"class.llvh::DenseMap.92", %"class.llvh::DenseMap.92", i32, ptr, %"class.std::vector.95", %"class.std::vector.100" }
%"class.llvh::SourceMgr" = type { %"class.std::vector.65", %"class.std::map.70", i32, %"class.std::vector.78", ptr, ptr }
%"class.std::vector.65" = type { %"struct.std::_Vector_base.66" }
%"struct.std::_Vector_base.66" = type { %"struct.std::_Vector_base<llvh::SourceMgr::SrcBuffer, std::allocator<llvh::SourceMgr::SrcBuffer>>::_Vector_impl" }
%"struct.std::_Vector_base<llvh::SourceMgr::SrcBuffer, std::allocator<llvh::SourceMgr::SrcBuffer>>::_Vector_impl" = type { %"struct.std::_Vector_base<llvh::SourceMgr::SrcBuffer, std::allocator<llvh::SourceMgr::SrcBuffer>>::_Vector_impl_data" }
%"struct.std::_Vector_base<llvh::SourceMgr::SrcBuffer, std::allocator<llvh::SourceMgr::SrcBuffer>>::_Vector_impl_data" = type { ptr, ptr, ptr }
%"class.std::map.70" = type { %"class.std::_Rb_tree.71" }
%"class.std::_Rb_tree.71" = type { %"struct.std::_Rb_tree<const char *, std::pair<const char *const, unsigned int>, std::_Select1st<std::pair<const char *const, unsigned int>>, std::less<const char *>>::_Rb_tree_impl" }
%"struct.std::_Rb_tree<const char *, std::pair<const char *const, unsigned int>, std::_Select1st<std::pair<const char *const, unsigned int>>, std::less<const char *>>::_Rb_tree_impl" = type { %"struct.std::_Rb_tree_key_compare.75", %"struct.std::_Rb_tree_header" }
%"struct.std::_Rb_tree_key_compare.75" = type { %"struct.std::less.76" }
%"struct.std::less.76" = type { i8 }
%"class.std::vector.78" = type { %"struct.std::_Vector_base.79" }
%"struct.std::_Vector_base.79" = type { %"struct.std::_Vector_base<std::__cxx11::basic_string<char>, std::allocator<std::__cxx11::basic_string<char>>>::_Vector_impl" }
%"struct.std::_Vector_base<std::__cxx11::basic_string<char>, std::allocator<std::__cxx11::basic_string<char>>>::_Vector_impl" = type { %"struct.std::_Vector_base<std::__cxx11::basic_string<char>, std::allocator<std::__cxx11::basic_string<char>>>::_Vector_impl_data" }
%"struct.std::_Vector_base<std::__cxx11::basic_string<char>, std::allocator<std::__cxx11::basic_string<char>>>::_Vector_impl_data" = type { ptr, ptr, ptr }
%"struct.hermes::SourceErrorOutputOptions" = type { i8, i64 }
%"class.std::shared_ptr.83" = type { %"class.std::__shared_ptr.84" }
%"class.std::__shared_ptr.84" = type { ptr, %"class.std::__shared_count" }
%"struct.hermes::SourceErrorManager::FindLineCache" = type { i32, i32, %"class.llvh::StringRef", %"class.llvh::StringRef" }
%"struct.hermes::StringSetVector" = type { %"class.std::deque.86", %"class.llvh::DenseMap.89" }
%"class.std::deque.86" = type { %"class.std::_Deque_base.87" }
%"class.std::_Deque_base.87" = type { %"struct.std::_Deque_base<std::__cxx11::basic_string<char>, std::allocator<std::__cxx11::basic_string<char>>>::_Deque_impl" }
%"struct.std::_Deque_base<std::__cxx11::basic_string<char>, std::allocator<std::__cxx11::basic_string<char>>>::_Deque_impl" = type { %"struct.std::_Deque_base<std::__cxx11::basic_string<char>, std::allocator<std::__cxx11::basic_string<char>>>::_Deque_impl_data" }
%"struct.std::_Deque_base<std::__cxx11::basic_string<char>, std::allocator<std::__cxx11::basic_string<char>>>::_Deque_impl_data" = type { ptr, i64, %"struct.std::_Deque_iterator.88", %"struct.std::_Deque_iterator.88" }
%"struct.std::_Deque_iterator.88" = type { ptr, ptr, ptr, ptr }
%"class.llvh::DenseMap.89" = type <{ ptr, i32, i32, i32, [4 x i8] }>
%"class.llvh::SmallBitVector" = type { i64 }
%"class.hermes::OptValue" = type <{ i32, i8, [3 x i8] }>
%"class.llvh::DenseMap.92" = type <{ ptr, i32, i32, i32, [4 x i8] }>
%"class.std::vector.95" = type { %"struct.std::_Vector_base.96" }
%"struct.std::_Vector_base.96" = type { %"struct.std::_Vector_base<hermes::SourceErrorManager::BufferedMessage, std::allocator<hermes::SourceErrorManager::BufferedMessage>>::_Vector_impl" }
%"struct.std::_Vector_base<hermes::SourceErrorManager::BufferedMessage, std::allocator<hermes::SourceErrorManager::BufferedMessage>>::_Vector_impl" = type { %"struct.std::_Vector_base<hermes::SourceErrorManager::BufferedMessage, std::allocator<hermes::SourceErrorManager::BufferedMessage>>::_Vector_impl_data" }
%"struct.std::_Vector_base<hermes::SourceErrorManager::BufferedMessage, std::allocator<hermes::SourceErrorManager::BufferedMessage>>::_Vector_impl_data" = type { ptr, ptr, ptr }
%"class.std::vector.100" = type { %"struct.std::_Vector_base.101" }
%"struct.std::_Vector_base.101" = type { %"struct.std::_Vector_base<hermes::SourceErrorManager::MessageData, std::allocator<hermes::SourceErrorManager::MessageData>>::_Vector_impl" }
%"struct.std::_Vector_base<hermes::SourceErrorManager::MessageData, std::allocator<hermes::SourceErrorManager::MessageData>>::_Vector_impl" = type { %"struct.std::_Vector_base<hermes::SourceErrorManager::MessageData, std::allocator<hermes::SourceErrorManager::MessageData>>::_Vector_impl_data" }
%"struct.std::_Vector_base<hermes::SourceErrorManager::MessageData, std::allocator<hermes::SourceErrorManager::MessageData>>::_Vector_impl_data" = type { ptr, ptr, ptr }
%"class.llvh::DenseMapIterator" = type { ptr, ptr }
%"struct.std::pair.166" = type { i32, %"class.std::__cxx11::basic_string" }
%"struct.llvh::SmallDenseMap<llvh::StringRef, llvh::detail::DenseSetEmpty, 4, llvh::DenseMapInfo<StringRef>, llvh::detail::DenseSetPair<llvh::StringRef>>::LargeRep" = type { ptr, i32 }
%"class.llvh::detail::DenseSetPair" = type { %"class.llvh::StringRef" }
%"class.std::unique_ptr.110" = type { %"struct.std::__uniq_ptr_data.111" }
%"struct.std::__uniq_ptr_data.111" = type { %"class.std::__uniq_ptr_impl.112" }
%"class.std::__uniq_ptr_impl.112" = type { %"class.std::tuple.113" }
%"class.std::tuple.113" = type { %"struct.std::_Tuple_impl.114" }
%"struct.std::_Tuple_impl.114" = type { %"struct.std::_Head_base.117" }
%"struct.std::_Head_base.117" = type { ptr }
%"class.hermes::BacktrackingBumpPtrAllocator::State" = type { i32, i64, %"class.llvh::SmallVector", ptr }
%"class.llvh::SmallVector" = type { %"class.llvh::SmallVectorImpl" }
%"class.llvh::SmallVectorImpl" = type { %"class.llvh::SmallVectorTemplateBase" }
%"class.llvh::SmallVectorTemplateBase" = type { %"class.llvh::SmallVectorTemplateCommon" }
%"class.llvh::SmallVectorTemplateCommon" = type { %"class.llvh::SmallVectorBase" }
%"class.llvh::SmallVectorBase" = type { ptr, i32, i32 }
%"class.__gnu_cxx::__normal_iterator" = type { ptr }
%"struct.llvh::detail::DenseMapPair" = type { %"struct.std::pair" }
%"struct.std::pair" = type { %"class.llvh::StringRef", ptr }
%"class.llvh::DenseMap.124" = type <{ ptr, i32, i32, i32, [4 x i8] }>
%"struct.llvh::detail::DenseMapPair.127" = type { %"struct.std::pair.128" }
%"struct.std::pair.128" = type { %"class.llvh::StringRef", %"class.llvh::DenseMap.130" }
%"class.llvh::DenseMap.130" = type <{ ptr, i32, i32, i32, [4 x i8] }>
%"struct.llvh::detail::DenseMapPair.133" = type { %"struct.std::pair.134" }
%"struct.std::pair.134" = type { %"class.llvh::StringRef", %"class.llvh::StringRef" }
%"class.llvh::SMDiagnostic" = type { ptr, %"class.llvh::SMLoc", %"class.std::__cxx11::basic_string", i32, i32, i32, %"class.std::__cxx11::basic_string", %"class.std::__cxx11::basic_string", %"class.std::vector.136", %"class.llvh::SmallVector.141" }
%"class.std::vector.136" = type { %"struct.std::_Vector_base.137" }
%"struct.std::_Vector_base.137" = type { %"struct.std::_Vector_base<std::pair<unsigned int, unsigned int>, std::allocator<std::pair<unsigned int, unsigned int>>>::_Vector_impl" }
%"struct.std::_Vector_base<std::pair<unsigned int, unsigned int>, std::allocator<std::pair<unsigned int, unsigned int>>>::_Vector_impl" = type { %"struct.std::_Vector_base<std::pair<unsigned int, unsigned int>, std::allocator<std::pair<unsigned int, unsigned int>>>::_Vector_impl_data" }
%"struct.std::_Vector_base<std::pair<unsigned int, unsigned int>, std::allocator<std::pair<unsigned int, unsigned int>>>::_Vector_impl_data" = type { ptr, ptr, ptr }
%"class.llvh::SmallVector.141" = type { %"class.llvh::SmallVectorImpl.142", %"struct.llvh::SmallVectorStorage.145" }
%"class.llvh::SmallVectorImpl.142" = type { %"class.llvh::SmallVectorTemplateBase.143" }
%"class.llvh::SmallVectorTemplateBase.143" = type { %"class.llvh::SmallVectorTemplateCommon.144" }
%"class.llvh::SmallVectorTemplateCommon.144" = type { %"class.llvh::SmallVectorBase" }
%"struct.llvh::SmallVectorStorage.145" = type { [4 x %"struct.llvh::AlignedCharArrayUnion.146"] }
%"struct.llvh::AlignedCharArrayUnion.146" = type { %"struct.llvh::AlignedCharArray.147" }
%"struct.llvh::AlignedCharArray.147" = type { [48 x i8] }
%"class.std::allocator.148" = type { i8 }
%"struct.(anonymous namespace)::DiagMessage" = type { %"class.llvh::SMLoc", %"struct.(anonymous namespace)::Coord", i32, %"class.llvh::StringRef", %"class.llvh::StringRef" }
%"class.std::allocator.138" = type { i8 }
%"class.__gnu_cxx::__normal_iterator.151" = type { ptr }
%"struct.std::pair.152" = type { i32, i32 }
%"class.llvh::SMFixIt" = type { %"class.llvh::SMRange", %"class.std::__cxx11::basic_string" }
%"class.std::move_iterator" = type { ptr }
%"class.__gnu_cxx::__normal_iterator.154" = type { ptr }
%"class.std::_Sp_counted_base" = type { ptr, i32, i32 }
%"class.hermes::SourceErrorManager::MessageData" = type { i32, %"class.llvh::SMLoc", %"class.llvh::SMRange", %"class.std::__cxx11::basic_string" }
%"class.hermes::SourceErrorManager::BufferedMessage" = type { %"class.hermes::SourceErrorManager::MessageData", i32, i32 }
%"struct.llvh::detail::DenseMapPair.165" = type { %"struct.std::pair.166" }
%"class.llvh::BitVector" = type <{ %"class.llvh::MutableArrayRef", i32, [4 x i8] }>
%"class.llvh::MutableArrayRef" = type { %"class.llvh::ArrayRef.168" }
%"class.llvh::ArrayRef.168" = type { ptr, i64 }
%"struct.llvh::detail::DenseMapPair.169" = type { %"struct.std::pair.base", [4 x i8] }
%"struct.std::pair.base" = type <{ %"class.llvh::StringRef", i32 }>
%"struct.std::pair.170" = type <{ %"class.llvh::StringRef", i32, [4 x i8] }>
%"class.std::allocator.172" = type { i8 }
%"struct.std::_Rb_tree_node" = type { %"struct.std::_Rb_tree_node_base", %"struct.__gnu_cxx::__aligned_membuf" }
%"struct.__gnu_cxx::__aligned_membuf" = type { [16 x i8] }
%"struct.llvh::SourceMgr::SrcBuffer" = type { %"class.std::unique_ptr.155", %"class.llvh::PointerUnion4", %"class.llvh::SMLoc" }
%"class.llvh::PointerUnion4" = type { %"class.llvh::PointerUnion" }
%"class.llvh::PointerUnion" = type { %"class.llvh::PointerIntPair" }
%"class.llvh::PointerIntPair" = type { i64 }
%"struct.std::_Rb_tree_node.178" = type { %"struct.std::_Rb_tree_node_base", %"struct.__gnu_cxx::__aligned_membuf.179" }
%"struct.__gnu_cxx::__aligned_membuf.179" = type { [208 x i8] }
%"struct.std::pair.180" = type { %"struct.std::pair.182", %"class.hermes::CompiledRegExp" }
%"struct.std::pair.182" = type { ptr, ptr }
%"class.hermes::CompiledRegExp" = type { %"class.std::vector.184", %"class.std::__cxx11::basic_string", %"class.std::__cxx11::basic_string", %"class.std::deque.189", %"class.llvh::DenseMap.195" }
%"class.std::vector.184" = type { %"struct.std::_Vector_base.185" }
%"struct.std::_Vector_base.185" = type { %"struct.std::_Vector_base<unsigned char, std::allocator<unsigned char>>::_Vector_impl" }
%"struct.std::_Vector_base<unsigned char, std::allocator<unsigned char>>::_Vector_impl" = type { %"struct.std::_Vector_base<unsigned char, std::allocator<unsigned char>>::_Vector_impl_data" }
%"struct.std::_Vector_base<unsigned char, std::allocator<unsigned char>>::_Vector_impl_data" = type { ptr, ptr, ptr }
%"class.std::deque.189" = type { %"class.std::_Deque_base.190" }
%"class.std::_Deque_base.190" = type { %"struct.std::_Deque_base<llvh::SmallVector<char16_t, 5>, std::allocator<llvh::SmallVector<char16_t, 5>>>::_Deque_impl" }
%"struct.std::_Deque_base<llvh::SmallVector<char16_t, 5>, std::allocator<llvh::SmallVector<char16_t, 5>>>::_Deque_impl" = type { %"struct.std::_Deque_base<llvh::SmallVector<char16_t, 5>, std::allocator<llvh::SmallVector<char16_t, 5>>>::_Deque_impl_data" }
%"struct.std::_Deque_base<llvh::SmallVector<char16_t, 5>, std::allocator<llvh::SmallVector<char16_t, 5>>>::_Deque_impl_data" = type { ptr, i64, %"struct.std::_Deque_iterator.194", %"struct.std::_Deque_iterator.194" }
%"struct.std::_Deque_iterator.194" = type { ptr, ptr, ptr, ptr }
%"class.llvh::DenseMap.195" = type <{ ptr, i32, i32, i32, [4 x i8] }>
%"struct.hermes::parser::PreParsedData" = type { %"class.llvh::SmallVector.198" }
%"class.llvh::SmallVector.198" = type { %"class.llvh::SmallVectorImpl.199", %"struct.llvh::SmallVectorStorage.202" }
%"class.llvh::SmallVectorImpl.199" = type { %"class.llvh::SmallVectorTemplateBase.200" }
%"class.llvh::SmallVectorTemplateBase.200" = type { %"class.llvh::SmallVectorTemplateCommon.201" }
%"class.llvh::SmallVectorTemplateCommon.201" = type { %"class.llvh::SmallVectorBase" }
%"struct.llvh::SmallVectorStorage.202" = type { [4 x %"struct.llvh::AlignedCharArrayUnion.203"] }
%"struct.llvh::AlignedCharArrayUnion.203" = type { %"struct.llvh::AlignedCharArray.44" }
%"class.std::unique_ptr.204" = type { %"struct.std::__uniq_ptr_data.205" }
%"struct.std::__uniq_ptr_data.205" = type { %"class.std::__uniq_ptr_impl.206" }
%"class.std::__uniq_ptr_impl.206" = type { %"class.std::tuple.207" }
%"class.std::tuple.207" = type { %"struct.std::_Tuple_impl.208" }
%"struct.std::_Tuple_impl.208" = type { %"struct.std::_Head_base.211" }
%"struct.std::_Head_base.211" = type { ptr }
%"struct.hermes::parser::PreParsedBufferInfo" = type { %"class.llvh::DenseMap.214" }
%"class.llvh::DenseMap.214" = type <{ ptr, i32, i32, i32, [4 x i8] }>
%"struct.llvh::detail::DenseMapPair.217" = type { %"struct.std::pair.218" }
%"struct.std::pair.218" = type { %"class.llvh::SMLoc", %"struct.hermes::parser::PreParsedFunctionInfo" }
%"struct.hermes::parser::PreParsedFunctionInfo" = type { %"class.llvh::SMLoc", i8, %"class.llvh::SmallVector.220" }
%"class.llvh::SmallVector.220" = type { %"class.llvh::SmallVectorImpl.221", %"struct.llvh::SmallVectorStorage.224" }
%"class.llvh::SmallVectorImpl.221" = type { %"class.llvh::SmallVectorTemplateBase.222" }
%"class.llvh::SmallVectorTemplateBase.222" = type { %"class.llvh::SmallVectorTemplateCommon.223" }
%"class.llvh::SmallVectorTemplateCommon.223" = type { %"class.llvh::SmallVectorBase" }
%"struct.llvh::SmallVectorStorage.224" = type { [1 x %"struct.llvh::AlignedCharArrayUnion.225"] }
%"struct.llvh::AlignedCharArrayUnion.225" = type { %"struct.llvh::AlignedCharArray.226" }
%"struct.llvh::AlignedCharArray.226" = type { [40 x i8] }
%"class.llvh::SmallString" = type { %"class.llvh::SmallVector.227" }
%"class.llvh::SmallVector.227" = type { %"class.llvh::SmallVectorImpl.228", %"struct.llvh::SmallVectorStorage.231" }
%"class.llvh::SmallVectorImpl.228" = type { %"class.llvh::SmallVectorTemplateBase.229" }
%"class.llvh::SmallVectorTemplateBase.229" = type { %"class.llvh::SmallVectorTemplateCommon.230" }
%"class.llvh::SmallVectorTemplateCommon.230" = type { %"class.llvh::SmallVectorBase" }
%"struct.llvh::SmallVectorStorage.231" = type { [24 x %"struct.llvh::AlignedCharArrayUnion.232"] }
%"struct.llvh::AlignedCharArrayUnion.232" = type { %"struct.llvh::AlignedCharArray.233" }
%"struct.llvh::AlignedCharArray.233" = type { [1 x i8] }
%"class.std::unique_ptr.234" = type { %"struct.std::__uniq_ptr_data.235" }
%"struct.std::__uniq_ptr_data.235" = type { %"class.std::__uniq_ptr_impl.236" }
%"class.std::__uniq_ptr_impl.236" = type { %"class.std::tuple.237" }
%"class.std::tuple.237" = type { %"struct.std::_Tuple_impl.238" }
%"struct.std::_Tuple_impl.238" = type { %"struct.std::_Tuple_impl.239", %"struct.std::_Head_base.241" }
%"struct.std::_Tuple_impl.239" = type { %"struct.std::_Head_base.240" }
%"struct.std::_Head_base.240" = type { ptr }
%"struct.std::_Head_base.241" = type { ptr }
%"class.std::allocator.50" = type { i8 }

$_ZN6hermes7Context13setStrictModeEb = comdat any

$_ZN6hermes7Context11setParseJSXEb = comdat any

$_ZN6hermes7Context10setParseTSEb = comdat any

$_ZN6hermes7Context12setParseFlowENS_16ParseFlowSettingE = comdat any

$_ZNSt6vectorIN6hermes6parser13StoredCommentESaIS2_EEC2Ev = comdat any

$_ZNSt6vectorIN6hermes6parser13StoredCommentESaIS2_EEaSEOS4_ = comdat any

$_ZNSt6vectorIN6hermes6parser13StoredCommentESaIS2_EED2Ev = comdat any

$_ZN4llvh8ArrayRefIN6hermes6parser13StoredCommentEEC2ISaIS3_EEERKSt6vectorIS3_T_E = comdat any

$_ZNK4llvh8OptionalImEcvbEv = comdat any

$_ZNK4llvh8OptionalIPN6hermes6ESTree11ProgramNodeEEcvbEv = comdat any

$_ZNR4llvh8OptionalIPN6hermes6ESTree11ProgramNodeEEdeEv = comdat any

$_ZNKR4llvh8OptionalImEdeEv = comdat any

$_ZN6hermes18SourceErrorManager12SourceCoordsC2Ev = comdat any

$_ZN6hermes7Context21getSourceErrorManagerEv = comdat any

$_ZNK6hermes7Context21getSourceErrorManagerEv = comdat any

$_ZNK4llvh8OptionalIN6hermes18SourceErrorManager9LineCoordEEcvbEv = comdat any

$_ZN4llvh8OptionalIN6hermes18SourceErrorManager9LineCoordEEptEv = comdat any

$_ZNK6hermes18SourceErrorManager10getLineRefEjj = comdat any

$_ZN4llvh9StringRefC2Ev = comdat any

$_ZNK6hermes18SourceErrorManager12getSourceUrlEj = comdat any

$_ZNK6hermes18SourceErrorManager19getSourceMappingUrlEj = comdat any

$_ZN6hermes6ESTree4Node11getNodeNameEv = comdat any

$_ZN6hermes22CodeGenerationSettingsC2Ev = comdat any

$_ZN6hermes20OptimizationSettingsC2Ev = comdat any

$_ZNSt10unique_ptrIN4llvh8DenseMapINS0_9StringRefENS1_IS2_S2_NS0_12DenseMapInfoIS2_EENS0_6detail12DenseMapPairIS2_S2_EEEES4_NS6_IS2_S8_EEEESt14default_deleteISA_EEC2ISC_vEEDn = comdat any

$_ZNSt6vectorIjSaIjEEC2Ev = comdat any

$_ZN6hermes7ContextC2ENS_22CodeGenerationSettingsENS_20OptimizationSettingsESt10unique_ptrIN4llvh8DenseMapINS4_9StringRefENS5_IS6_S6_NS4_12DenseMapInfoIS6_EENS4_6detail12DenseMapPairIS6_S6_EEEES8_NSA_IS6_SC_EEEESt14default_deleteISE_EESt6vectorIjSaIjEE = comdat any

$_ZNSt6vectorIjSaIjEED2Ev = comdat any

$_ZNSt10unique_ptrIN4llvh8DenseMapINS0_9StringRefENS1_IS2_S2_NS0_12DenseMapInfoIS2_EENS0_6detail12DenseMapPairIS2_S2_EEEES4_NS6_IS2_S8_EEEESt14default_deleteISA_EED2Ev = comdat any

$_ZN6hermes22CodeGenerationSettingsD2Ev = comdat any

$_ZNSt5dequeIN4llvh12SMDiagnosticESaIS1_EEC2Ev = comdat any

$_ZN4llvh8OptionalImEC2Ev = comdat any

$_ZN6hermes18SourceErrorManager14setDiagHandlerEPFvRKN4llvh12SMDiagnosticEPvES5_ = comdat any

$_ZN6hermes35CodeGenerationSettings_DumpSettingsC2Ev = comdat any

$_ZN4llvh13SmallDenseSetINS_9StringRefELj4ENS_12DenseMapInfoIS1_EEEC2Ev = comdat any

$_ZN4llvh6detail12DenseSetImplINS_9StringRefENS_13SmallDenseMapIS2_NS0_13DenseSetEmptyELj4ENS_12DenseMapInfoIS2_EENS0_12DenseSetPairIS2_EEEES6_EC2Ej = comdat any

$_ZN4llvh13SmallDenseMapINS_9StringRefENS_6detail13DenseSetEmptyELj4ENS_12DenseMapInfoIS1_EENS2_12DenseSetPairIS1_EEEC2Ej = comdat any

$_ZN4llvh13SmallDenseMapINS_9StringRefENS_6detail13DenseSetEmptyELj4ENS_12DenseMapInfoIS1_EENS2_12DenseSetPairIS1_EEE4initEj = comdat any

$_ZN4llvh13SmallDenseMapINS_9StringRefENS_6detail13DenseSetEmptyELj4ENS_12DenseMapInfoIS1_EENS2_12DenseSetPairIS1_EEE11getLargeRepEv = comdat any

$_ZN4llvh13SmallDenseMapINS_9StringRefENS_6detail13DenseSetEmptyELj4ENS_12DenseMapInfoIS1_EENS2_12DenseSetPairIS1_EEE15allocateBucketsEj = comdat any

$_ZN4llvh12DenseMapBaseINS_13SmallDenseMapINS_9StringRefENS_6detail13DenseSetEmptyELj4ENS_12DenseMapInfoIS2_EENS3_12DenseSetPairIS2_EEEES2_S4_S6_S8_E9initEmptyEv = comdat any

$_ZNK4llvh13SmallDenseMapINS_9StringRefENS_6detail13DenseSetEmptyELj4ENS_12DenseMapInfoIS1_EENS2_12DenseSetPairIS1_EEE11getLargeRepEv = comdat any

$_ZN4llvh12DenseMapBaseINS_13SmallDenseMapINS_9StringRefENS_6detail13DenseSetEmptyELj4ENS_12DenseMapInfoIS2_EENS3_12DenseSetPairIS2_EEEES2_S4_S6_S8_E13setNumEntriesEj = comdat any

$_ZN4llvh12DenseMapBaseINS_13SmallDenseMapINS_9StringRefENS_6detail13DenseSetEmptyELj4ENS_12DenseMapInfoIS2_EENS3_12DenseSetPairIS2_EEEES2_S4_S6_S8_E16setNumTombstonesEj = comdat any

$_ZN4llvh12DenseMapBaseINS_13SmallDenseMapINS_9StringRefENS_6detail13DenseSetEmptyELj4ENS_12DenseMapInfoIS2_EENS3_12DenseSetPairIS2_EEEES2_S4_S6_S8_E11getEmptyKeyEv = comdat any

$_ZN4llvh12DenseMapBaseINS_13SmallDenseMapINS_9StringRefENS_6detail13DenseSetEmptyELj4ENS_12DenseMapInfoIS2_EENS3_12DenseSetPairIS2_EEEES2_S4_S6_S8_E10getBucketsEv = comdat any

$_ZN4llvh12DenseMapBaseINS_13SmallDenseMapINS_9StringRefENS_6detail13DenseSetEmptyELj4ENS_12DenseMapInfoIS2_EENS3_12DenseSetPairIS2_EEEES2_S4_S6_S8_E13getBucketsEndEv = comdat any

$_ZN4llvh6detail12DenseSetPairINS_9StringRefEE8getFirstEv = comdat any

$_ZN4llvh13SmallDenseMapINS_9StringRefENS_6detail13DenseSetEmptyELj4ENS_12DenseMapInfoIS1_EENS2_12DenseSetPairIS1_EEE13setNumEntriesEj = comdat any

$_ZN4llvh13SmallDenseMapINS_9StringRefENS_6detail13DenseSetEmptyELj4ENS_12DenseMapInfoIS1_EENS2_12DenseSetPairIS1_EEE16setNumTombstonesEj = comdat any

$_ZN4llvh12DenseMapInfoINS_9StringRefEE11getEmptyKeyEv = comdat any

$_ZN4llvh13SmallDenseMapINS_9StringRefENS_6detail13DenseSetEmptyELj4ENS_12DenseMapInfoIS1_EENS2_12DenseSetPairIS1_EEE10getBucketsEv = comdat any

$_ZNK4llvh13SmallDenseMapINS_9StringRefENS_6detail13DenseSetEmptyELj4ENS_12DenseMapInfoIS1_EENS2_12DenseSetPairIS1_EEE10getBucketsEv = comdat any

$_ZNK4llvh13SmallDenseMapINS_9StringRefENS_6detail13DenseSetEmptyELj4ENS_12DenseMapInfoIS1_EENS2_12DenseSetPairIS1_EEE16getInlineBucketsEv = comdat any

$_ZNK4llvh12DenseMapBaseINS_13SmallDenseMapINS_9StringRefENS_6detail13DenseSetEmptyELj4ENS_12DenseMapInfoIS2_EENS3_12DenseSetPairIS2_EEEES2_S4_S6_S8_E13getNumBucketsEv = comdat any

$_ZNK4llvh13SmallDenseMapINS_9StringRefENS_6detail13DenseSetEmptyELj4ENS_12DenseMapInfoIS1_EENS2_12DenseSetPairIS1_EEE13getNumBucketsEv = comdat any

$_ZNSt15__uniq_ptr_dataIN4llvh8DenseMapINS0_9StringRefENS1_IS2_S2_NS0_12DenseMapInfoIS2_EENS0_6detail12DenseMapPairIS2_S2_EEEES4_NS6_IS2_S8_EEEESt14default_deleteISA_ELb1ELb1EEC2Ev = comdat any

$_ZNSt15__uniq_ptr_implIN4llvh8DenseMapINS0_9StringRefENS1_IS2_S2_NS0_12DenseMapInfoIS2_EENS0_6detail12DenseMapPairIS2_S2_EEEES4_NS6_IS2_S8_EEEESt14default_deleteISA_EEC2Ev = comdat any

$_ZNSt5tupleIJPN4llvh8DenseMapINS0_9StringRefENS1_IS2_S2_NS0_12DenseMapInfoIS2_EENS0_6detail12DenseMapPairIS2_S2_EEEES4_NS6_IS2_S8_EEEESt14default_deleteISA_EEEC2ILb1ETnNSt9enable_ifIXclsr17_TupleConstraintsIXT_ESB_SD_EE37__is_implicitly_default_constructibleEEbE4typeELb1EEEv = comdat any

$_ZNSt11_Tuple_implILm0EJPN4llvh8DenseMapINS0_9StringRefENS1_IS2_S2_NS0_12DenseMapInfoIS2_EENS0_6detail12DenseMapPairIS2_S2_EEEES4_NS6_IS2_S8_EEEESt14default_deleteISA_EEEC2Ev = comdat any

$_ZNSt11_Tuple_implILm1EJSt14default_deleteIN4llvh8DenseMapINS1_9StringRefENS2_IS3_S3_NS1_12DenseMapInfoIS3_EENS1_6detail12DenseMapPairIS3_S3_EEEES5_NS7_IS3_S9_EEEEEEEC2Ev = comdat any

$_ZNSt10_Head_baseILm0EPN4llvh8DenseMapINS0_9StringRefENS1_IS2_S2_NS0_12DenseMapInfoIS2_EENS0_6detail12DenseMapPairIS2_S2_EEEES4_NS6_IS2_S8_EEEELb0EEC2Ev = comdat any

$_ZNSt10_Head_baseILm1ESt14default_deleteIN4llvh8DenseMapINS1_9StringRefENS2_IS3_S3_NS1_12DenseMapInfoIS3_EENS1_6detail12DenseMapPairIS3_S3_EEEES5_NS7_IS3_S9_EEEEELb1EEC2Ev = comdat any

$_ZNSt12_Vector_baseIjSaIjEEC2Ev = comdat any

$_ZNSt12_Vector_baseIjSaIjEE12_Vector_implC2Ev = comdat any

$_ZNSaIjEC2Ev = comdat any

$_ZNSt12_Vector_baseIjSaIjEE17_Vector_impl_dataC2Ev = comdat any

$_ZNSt15__new_allocatorIjEC2Ev = comdat any

$_ZN6hermes28BacktrackingBumpPtrAllocatorC2Ev = comdat any

$_ZNSt10unique_ptrIN6hermes6parser13PreParsedDataESt14default_deleteIS2_EEC2IS4_vEEv = comdat any

$_ZN6hermes11StringTableC2ERNS_28BacktrackingBumpPtrAllocatorE = comdat any

$_ZNSt3mapISt4pairIPN6hermes12UniqueStringES3_ENS1_14CompiledRegExpESt4lessIS4_ESaIS0_IKS4_S5_EEEC2Ev = comdat any

$_ZNSt10unique_ptrIN6hermes18SourceErrorManagerESt14default_deleteIS1_EEC2IS3_vEEPS1_ = comdat any

$_ZNKSt10unique_ptrIN6hermes18SourceErrorManagerESt14default_deleteIS1_EEdeEv = comdat any

$_ZNSt10unique_ptrIN4llvh8DenseMapINS0_9StringRefENS1_IS2_S2_NS0_12DenseMapInfoIS2_EENS0_6detail12DenseMapPairIS2_S2_EEEES4_NS6_IS2_S8_EEEESt14default_deleteISA_EEC2EOSD_ = comdat any

$_ZNSt6vectorIjSaIjEEC2EOS1_ = comdat any

$_ZN6hermes22CodeGenerationSettingsC2EOS0_ = comdat any

$_ZNSt10shared_ptrIN6hermes3hbc14BackendContextEEC2Ev = comdat any

$_ZNSt6vectorISt10unique_ptrIN6hermes28BacktrackingBumpPtrAllocator4SlabESt14default_deleteIS3_EESaIS6_EEC2Ev = comdat any

$_ZN6hermes28BacktrackingBumpPtrAllocator5StateC2Ev = comdat any

$_ZNSt6vectorISt10unique_ptrIN6hermes28BacktrackingBumpPtrAllocator4SlabESt14default_deleteIS3_EESaIS6_EE9push_backEOS6_ = comdat any

$_ZSt11make_uniqueIN6hermes28BacktrackingBumpPtrAllocator4SlabEJEENSt8__detail9_MakeUniqIT_E15__single_objectEDpOT0_ = comdat any

$_ZNSt10unique_ptrIN6hermes28BacktrackingBumpPtrAllocator4SlabESt14default_deleteIS2_EED2Ev = comdat any

$_ZNSt12_Vector_baseISt10unique_ptrIN6hermes28BacktrackingBumpPtrAllocator4SlabESt14default_deleteIS3_EESaIS6_EEC2Ev = comdat any

$_ZNSt12_Vector_baseISt10unique_ptrIN6hermes28BacktrackingBumpPtrAllocator4SlabESt14default_deleteIS3_EESaIS6_EE12_Vector_implC2Ev = comdat any

$_ZNSaISt10unique_ptrIN6hermes28BacktrackingBumpPtrAllocator4SlabESt14default_deleteIS2_EEEC2Ev = comdat any

$_ZNSt12_Vector_baseISt10unique_ptrIN6hermes28BacktrackingBumpPtrAllocator4SlabESt14default_deleteIS3_EESaIS6_EE17_Vector_impl_dataC2Ev = comdat any

$_ZNSt15__new_allocatorISt10unique_ptrIN6hermes28BacktrackingBumpPtrAllocator4SlabESt14default_deleteIS3_EEEC2Ev = comdat any

$_ZN4llvh11SmallVectorISt10unique_ptrIvPDoFvPvEELj0EEC2Ev = comdat any

$_ZN4llvh15SmallVectorImplISt10unique_ptrIvPDoFvPvEEEC2Ej = comdat any

$_ZN4llvh23SmallVectorTemplateBaseISt10unique_ptrIvPDoFvPvEELb0EEC2Em = comdat any

$_ZN4llvh25SmallVectorTemplateCommonISt10unique_ptrIvPDoFvPvEEvEC2Em = comdat any

$_ZNK4llvh25SmallVectorTemplateCommonISt10unique_ptrIvPDoFvPvEEvE10getFirstElEv = comdat any

$_ZN4llvh15SmallVectorBaseC2EPvm = comdat any

$_ZNSt6vectorISt10unique_ptrIN6hermes28BacktrackingBumpPtrAllocator4SlabESt14default_deleteIS3_EESaIS6_EE12emplace_backIJS6_EEERS6_DpOT_ = comdat any

$_ZNSt16allocator_traitsISaISt10unique_ptrIN6hermes28BacktrackingBumpPtrAllocator4SlabESt14default_deleteIS3_EEEE9constructIS6_JS6_EEEvRS7_PT_DpOT0_ = comdat any

$_ZNSt6vectorISt10unique_ptrIN6hermes28BacktrackingBumpPtrAllocator4SlabESt14default_deleteIS3_EESaIS6_EE17_M_realloc_insertIJS6_EEEvN9__gnu_cxx17__normal_iteratorIPS6_S8_EEDpOT_ = comdat any

$_ZNSt6vectorISt10unique_ptrIN6hermes28BacktrackingBumpPtrAllocator4SlabESt14default_deleteIS3_EESaIS6_EE3endEv = comdat any

$_ZNSt6vectorISt10unique_ptrIN6hermes28BacktrackingBumpPtrAllocator4SlabESt14default_deleteIS3_EESaIS6_EE4backEv = comdat any

$_ZNSt15__new_allocatorISt10unique_ptrIN6hermes28BacktrackingBumpPtrAllocator4SlabESt14default_deleteIS3_EEE9constructIS6_JS6_EEEvPT_DpOT0_ = comdat any

$_ZNSt10unique_ptrIN6hermes28BacktrackingBumpPtrAllocator4SlabESt14default_deleteIS2_EEC2EOS5_ = comdat any

$_ZNSt15__uniq_ptr_dataIN6hermes28BacktrackingBumpPtrAllocator4SlabESt14default_deleteIS2_ELb1ELb1EEC2EOS5_ = comdat any

$_ZNSt15__uniq_ptr_implIN6hermes28BacktrackingBumpPtrAllocator4SlabESt14default_deleteIS2_EEC2EOS5_ = comdat any

$_ZNSt5tupleIJPN6hermes28BacktrackingBumpPtrAllocator4SlabESt14default_deleteIS2_EEEC2EOS6_ = comdat any

$_ZNSt15__uniq_ptr_implIN6hermes28BacktrackingBumpPtrAllocator4SlabESt14default_deleteIS2_EE6_M_ptrEv = comdat any

$_ZNSt11_Tuple_implILm0EJPN6hermes28BacktrackingBumpPtrAllocator4SlabESt14default_deleteIS2_EEEC2EOS6_ = comdat any

$_ZNSt11_Tuple_implILm1EJSt14default_deleteIN6hermes28BacktrackingBumpPtrAllocator4SlabEEEEC2EOS5_ = comdat any

$_ZSt3getILm0EJPN6hermes28BacktrackingBumpPtrAllocator4SlabESt14default_deleteIS2_EEERNSt13tuple_elementIXT_ESt5tupleIJDpT0_EEE4typeERSA_ = comdat any

$_ZSt12__get_helperILm0EPN6hermes28BacktrackingBumpPtrAllocator4SlabEJSt14default_deleteIS2_EEERT0_RSt11_Tuple_implIXT_EJS6_DpT1_EE = comdat any

$_ZNSt11_Tuple_implILm0EJPN6hermes28BacktrackingBumpPtrAllocator4SlabESt14default_deleteIS2_EEE7_M_headERS6_ = comdat any

$_ZNSt10_Head_baseILm0EPN6hermes28BacktrackingBumpPtrAllocator4SlabELb0EE7_M_headERS4_ = comdat any

$_ZNKSt6vectorISt10unique_ptrIN6hermes28BacktrackingBumpPtrAllocator4SlabESt14default_deleteIS3_EESaIS6_EE12_M_check_lenEmPKc = comdat any

$_ZN9__gnu_cxxmiIPSt10unique_ptrIN6hermes28BacktrackingBumpPtrAllocator4SlabESt14default_deleteIS4_EESt6vectorIS7_SaIS7_EEEENS_17__normal_iteratorIT_T0_E15difference_typeERKSF_SI_ = comdat any

$_ZNSt6vectorISt10unique_ptrIN6hermes28BacktrackingBumpPtrAllocator4SlabESt14default_deleteIS3_EESaIS6_EE5beginEv = comdat any

$_ZNSt12_Vector_baseISt10unique_ptrIN6hermes28BacktrackingBumpPtrAllocator4SlabESt14default_deleteIS3_EESaIS6_EE11_M_allocateEm = comdat any

$_ZNSt6vectorISt10unique_ptrIN6hermes28BacktrackingBumpPtrAllocator4SlabESt14default_deleteIS3_EESaIS6_EE11_S_relocateEPS6_S9_S9_RS7_ = comdat any

$_ZNK9__gnu_cxx17__normal_iteratorIPSt10unique_ptrIN6hermes28BacktrackingBumpPtrAllocator4SlabESt14default_deleteIS4_EESt6vectorIS7_SaIS7_EEE4baseEv = comdat any

$_ZNSt12_Vector_baseISt10unique_ptrIN6hermes28BacktrackingBumpPtrAllocator4SlabESt14default_deleteIS3_EESaIS6_EE19_M_get_Tp_allocatorEv = comdat any

$_ZNSt12_Vector_baseISt10unique_ptrIN6hermes28BacktrackingBumpPtrAllocator4SlabESt14default_deleteIS3_EESaIS6_EE13_M_deallocateEPS6_m = comdat any

$_ZNKSt6vectorISt10unique_ptrIN6hermes28BacktrackingBumpPtrAllocator4SlabESt14default_deleteIS3_EESaIS6_EE8max_sizeEv = comdat any

$_ZNKSt6vectorISt10unique_ptrIN6hermes28BacktrackingBumpPtrAllocator4SlabESt14default_deleteIS3_EESaIS6_EE4sizeEv = comdat any

$_ZSt3maxImERKT_S2_S2_ = comdat any

$_ZNSt6vectorISt10unique_ptrIN6hermes28BacktrackingBumpPtrAllocator4SlabESt14default_deleteIS3_EESaIS6_EE11_S_max_sizeERKS7_ = comdat any

$_ZNKSt12_Vector_baseISt10unique_ptrIN6hermes28BacktrackingBumpPtrAllocator4SlabESt14default_deleteIS3_EESaIS6_EE19_M_get_Tp_allocatorEv = comdat any

$_ZNSt16allocator_traitsISaISt10unique_ptrIN6hermes28BacktrackingBumpPtrAllocator4SlabESt14default_deleteIS3_EEEE8max_sizeERKS7_ = comdat any

$_ZSt3minImERKT_S2_S2_ = comdat any

$_ZNKSt15__new_allocatorISt10unique_ptrIN6hermes28BacktrackingBumpPtrAllocator4SlabESt14default_deleteIS3_EEE8max_sizeEv = comdat any

$_ZNKSt15__new_allocatorISt10unique_ptrIN6hermes28BacktrackingBumpPtrAllocator4SlabESt14default_deleteIS3_EEE11_M_max_sizeEv = comdat any

$_ZN9__gnu_cxx17__normal_iteratorIPSt10unique_ptrIN6hermes28BacktrackingBumpPtrAllocator4SlabESt14default_deleteIS4_EESt6vectorIS7_SaIS7_EEEC2ERKS8_ = comdat any

$_ZNSt16allocator_traitsISaISt10unique_ptrIN6hermes28BacktrackingBumpPtrAllocator4SlabESt14default_deleteIS3_EEEE8allocateERS7_m = comdat any

$_ZNSt15__new_allocatorISt10unique_ptrIN6hermes28BacktrackingBumpPtrAllocator4SlabESt14default_deleteIS3_EEE8allocateEmPKv = comdat any

$_ZSt12__relocate_aIPSt10unique_ptrIN6hermes28BacktrackingBumpPtrAllocator4SlabESt14default_deleteIS3_EES7_SaIS6_EET0_T_SA_S9_RT1_ = comdat any

$_ZSt14__relocate_a_1IPSt10unique_ptrIN6hermes28BacktrackingBumpPtrAllocator4SlabESt14default_deleteIS3_EES7_SaIS6_EET0_T_SA_S9_RT1_ = comdat any

$_ZSt12__niter_baseIPSt10unique_ptrIN6hermes28BacktrackingBumpPtrAllocator4SlabESt14default_deleteIS3_EEET_S8_ = comdat any

$_ZSt19__relocate_object_aISt10unique_ptrIN6hermes28BacktrackingBumpPtrAllocator4SlabESt14default_deleteIS3_EES6_SaIS6_EEvPT_PT0_RT1_ = comdat any

$_ZNSt16allocator_traitsISaISt10unique_ptrIN6hermes28BacktrackingBumpPtrAllocator4SlabESt14default_deleteIS3_EEEE7destroyIS6_EEvRS7_PT_ = comdat any

$_ZNSt15__new_allocatorISt10unique_ptrIN6hermes28BacktrackingBumpPtrAllocator4SlabESt14default_deleteIS3_EEE7destroyIS6_EEvPT_ = comdat any

$_ZNSt16allocator_traitsISaISt10unique_ptrIN6hermes28BacktrackingBumpPtrAllocator4SlabESt14default_deleteIS3_EEEE10deallocateERS7_PS6_m = comdat any

$_ZNSt15__new_allocatorISt10unique_ptrIN6hermes28BacktrackingBumpPtrAllocator4SlabESt14default_deleteIS3_EEE10deallocateEPS6_m = comdat any

$_ZNK9__gnu_cxx17__normal_iteratorIPSt10unique_ptrIN6hermes28BacktrackingBumpPtrAllocator4SlabESt14default_deleteIS4_EESt6vectorIS7_SaIS7_EEEmiEl = comdat any

$_ZNK9__gnu_cxx17__normal_iteratorIPSt10unique_ptrIN6hermes28BacktrackingBumpPtrAllocator4SlabESt14default_deleteIS4_EESt6vectorIS7_SaIS7_EEEdeEv = comdat any

$_ZNSt10unique_ptrIN6hermes28BacktrackingBumpPtrAllocator4SlabESt14default_deleteIS2_EEC2IS4_vEEPS2_ = comdat any

$_ZNSt15__uniq_ptr_dataIN6hermes28BacktrackingBumpPtrAllocator4SlabESt14default_deleteIS2_ELb1ELb1EECI2St15__uniq_ptr_implIS2_S4_EEPS2_ = comdat any

$_ZNSt15__uniq_ptr_implIN6hermes28BacktrackingBumpPtrAllocator4SlabESt14default_deleteIS2_EEC2EPS2_ = comdat any

$_ZNSt5tupleIJPN6hermes28BacktrackingBumpPtrAllocator4SlabESt14default_deleteIS2_EEEC2ILb1ETnNSt9enable_ifIXclsr17_TupleConstraintsIXT_ES3_S5_EE37__is_implicitly_default_constructibleEEbE4typeELb1EEEv = comdat any

$_ZNSt11_Tuple_implILm0EJPN6hermes28BacktrackingBumpPtrAllocator4SlabESt14default_deleteIS2_EEEC2Ev = comdat any

$_ZNSt11_Tuple_implILm1EJSt14default_deleteIN6hermes28BacktrackingBumpPtrAllocator4SlabEEEEC2Ev = comdat any

$_ZNSt10_Head_baseILm0EPN6hermes28BacktrackingBumpPtrAllocator4SlabELb0EEC2Ev = comdat any

$_ZNSt10_Head_baseILm1ESt14default_deleteIN6hermes28BacktrackingBumpPtrAllocator4SlabEELb1EEC2Ev = comdat any

$_ZNSt10unique_ptrIN6hermes28BacktrackingBumpPtrAllocator4SlabESt14default_deleteIS2_EE11get_deleterEv = comdat any

$_ZNKSt14default_deleteIN6hermes28BacktrackingBumpPtrAllocator4SlabEEclEPS2_ = comdat any

$_ZNSt15__uniq_ptr_implIN6hermes28BacktrackingBumpPtrAllocator4SlabESt14default_deleteIS2_EE10_M_deleterEv = comdat any

$_ZSt3getILm1EJPN6hermes28BacktrackingBumpPtrAllocator4SlabESt14default_deleteIS2_EEERNSt13tuple_elementIXT_ESt5tupleIJDpT0_EEE4typeERSA_ = comdat any

$_ZSt12__get_helperILm1ESt14default_deleteIN6hermes28BacktrackingBumpPtrAllocator4SlabEEJEERT0_RSt11_Tuple_implIXT_EJS5_DpT1_EE = comdat any

$_ZNSt11_Tuple_implILm1EJSt14default_deleteIN6hermes28BacktrackingBumpPtrAllocator4SlabEEEE7_M_headERS5_ = comdat any

$_ZNSt10_Head_baseILm1ESt14default_deleteIN6hermes28BacktrackingBumpPtrAllocator4SlabEELb1EE7_M_headERS5_ = comdat any

$_ZNSt15__uniq_ptr_dataIN6hermes6parser13PreParsedDataESt14default_deleteIS2_ELb1ELb1EEC2Ev = comdat any

$_ZNSt15__uniq_ptr_implIN6hermes6parser13PreParsedDataESt14default_deleteIS2_EEC2Ev = comdat any

$_ZNSt5tupleIJPN6hermes6parser13PreParsedDataESt14default_deleteIS2_EEEC2ILb1ETnNSt9enable_ifIXclsr17_TupleConstraintsIXT_ES3_S5_EE37__is_implicitly_default_constructibleEEbE4typeELb1EEEv = comdat any

$_ZNSt11_Tuple_implILm0EJPN6hermes6parser13PreParsedDataESt14default_deleteIS2_EEEC2Ev = comdat any

$_ZNSt11_Tuple_implILm1EJSt14default_deleteIN6hermes6parser13PreParsedDataEEEEC2Ev = comdat any

$_ZNSt10_Head_baseILm0EPN6hermes6parser13PreParsedDataELb0EEC2Ev = comdat any

$_ZNSt10_Head_baseILm1ESt14default_deleteIN6hermes6parser13PreParsedDataEELb1EEC2Ev = comdat any

$_ZN4llvh8DenseMapINS_9StringRefEPN6hermes12UniqueStringENS_12DenseMapInfoIS1_EENS_6detail12DenseMapPairIS1_S4_EEEC2Ej = comdat any

$_ZN4llvh8DenseMapINS_9StringRefEPN6hermes12UniqueStringENS_12DenseMapInfoIS1_EENS_6detail12DenseMapPairIS1_S4_EEE4initEj = comdat any

$_ZN4llvh12DenseMapBaseINS_8DenseMapINS_9StringRefEPN6hermes12UniqueStringENS_12DenseMapInfoIS2_EENS_6detail12DenseMapPairIS2_S5_EEEES2_S5_S7_SA_E31getMinBucketToReserveForEntriesEj = comdat any

$_ZN4llvh8DenseMapINS_9StringRefEPN6hermes12UniqueStringENS_12DenseMapInfoIS1_EENS_6detail12DenseMapPairIS1_S4_EEE15allocateBucketsEj = comdat any

$_ZN4llvh12DenseMapBaseINS_8DenseMapINS_9StringRefEPN6hermes12UniqueStringENS_12DenseMapInfoIS2_EENS_6detail12DenseMapPairIS2_S5_EEEES2_S5_S7_SA_E9initEmptyEv = comdat any

$_ZN4llvh12NextPowerOf2Em = comdat any

$_ZN4llvh12DenseMapBaseINS_8DenseMapINS_9StringRefEPN6hermes12UniqueStringENS_12DenseMapInfoIS2_EENS_6detail12DenseMapPairIS2_S5_EEEES2_S5_S7_SA_E13setNumEntriesEj = comdat any

$_ZN4llvh12DenseMapBaseINS_8DenseMapINS_9StringRefEPN6hermes12UniqueStringENS_12DenseMapInfoIS2_EENS_6detail12DenseMapPairIS2_S5_EEEES2_S5_S7_SA_E16setNumTombstonesEj = comdat any

$_ZN4llvh12DenseMapBaseINS_8DenseMapINS_9StringRefEPN6hermes12UniqueStringENS_12DenseMapInfoIS2_EENS_6detail12DenseMapPairIS2_S5_EEEES2_S5_S7_SA_E11getEmptyKeyEv = comdat any

$_ZN4llvh12DenseMapBaseINS_8DenseMapINS_9StringRefEPN6hermes12UniqueStringENS_12DenseMapInfoIS2_EENS_6detail12DenseMapPairIS2_S5_EEEES2_S5_S7_SA_E10getBucketsEv = comdat any

$_ZN4llvh12DenseMapBaseINS_8DenseMapINS_9StringRefEPN6hermes12UniqueStringENS_12DenseMapInfoIS2_EENS_6detail12DenseMapPairIS2_S5_EEEES2_S5_S7_SA_E13getBucketsEndEv = comdat any

$_ZN4llvh6detail12DenseMapPairINS_9StringRefEPN6hermes12UniqueStringEE8getFirstEv = comdat any

$_ZN4llvh8DenseMapINS_9StringRefEPN6hermes12UniqueStringENS_12DenseMapInfoIS1_EENS_6detail12DenseMapPairIS1_S4_EEE13setNumEntriesEj = comdat any

$_ZN4llvh8DenseMapINS_9StringRefEPN6hermes12UniqueStringENS_12DenseMapInfoIS1_EENS_6detail12DenseMapPairIS1_S4_EEE16setNumTombstonesEj = comdat any

$_ZNK4llvh8DenseMapINS_9StringRefEPN6hermes12UniqueStringENS_12DenseMapInfoIS1_EENS_6detail12DenseMapPairIS1_S4_EEE10getBucketsEv = comdat any

$_ZNK4llvh12DenseMapBaseINS_8DenseMapINS_9StringRefEPN6hermes12UniqueStringENS_12DenseMapInfoIS2_EENS_6detail12DenseMapPairIS2_S5_EEEES2_S5_S7_SA_E13getNumBucketsEv = comdat any

$_ZNK4llvh8DenseMapINS_9StringRefEPN6hermes12UniqueStringENS_12DenseMapInfoIS1_EENS_6detail12DenseMapPairIS1_S4_EEE13getNumBucketsEv = comdat any

$_ZNSt8_Rb_treeISt4pairIPN6hermes12UniqueStringES3_ES0_IKS4_NS1_14CompiledRegExpEESt10_Select1stIS7_ESt4lessIS4_ESaIS7_EEC2Ev = comdat any

$_ZNSt8_Rb_treeISt4pairIPN6hermes12UniqueStringES3_ES0_IKS4_NS1_14CompiledRegExpEESt10_Select1stIS7_ESt4lessIS4_ESaIS7_EE13_Rb_tree_implISB_Lb1EEC2Ev = comdat any

$_ZNSaISt13_Rb_tree_nodeISt4pairIKS0_IPN6hermes12UniqueStringES3_ENS1_14CompiledRegExpEEEEC2Ev = comdat any

$_ZNSt20_Rb_tree_key_compareISt4lessISt4pairIPN6hermes12UniqueStringES4_EEEC2Ev = comdat any

$_ZNSt15_Rb_tree_headerC2Ev = comdat any

$_ZNSt15__new_allocatorISt13_Rb_tree_nodeISt4pairIKS1_IPN6hermes12UniqueStringES4_ENS2_14CompiledRegExpEEEEC2Ev = comdat any

$_ZNSt15_Rb_tree_header8_M_resetEv = comdat any

$_ZNSt15__uniq_ptr_dataIN6hermes18SourceErrorManagerESt14default_deleteIS1_ELb1ELb1EECI2St15__uniq_ptr_implIS1_S3_EEPS1_ = comdat any

$_ZNSt15__uniq_ptr_implIN6hermes18SourceErrorManagerESt14default_deleteIS1_EEC2EPS1_ = comdat any

$_ZNSt5tupleIJPN6hermes18SourceErrorManagerESt14default_deleteIS1_EEEC2ILb1ETnNSt9enable_ifIXclsr17_TupleConstraintsIXT_ES2_S4_EE37__is_implicitly_default_constructibleEEbE4typeELb1EEEv = comdat any

$_ZNSt15__uniq_ptr_implIN6hermes18SourceErrorManagerESt14default_deleteIS1_EE6_M_ptrEv = comdat any

$_ZNSt11_Tuple_implILm0EJPN6hermes18SourceErrorManagerESt14default_deleteIS1_EEEC2Ev = comdat any

$_ZNSt11_Tuple_implILm1EJSt14default_deleteIN6hermes18SourceErrorManagerEEEEC2Ev = comdat any

$_ZNSt10_Head_baseILm0EPN6hermes18SourceErrorManagerELb0EEC2Ev = comdat any

$_ZNSt10_Head_baseILm1ESt14default_deleteIN6hermes18SourceErrorManagerEELb1EEC2Ev = comdat any

$_ZSt3getILm0EJPN6hermes18SourceErrorManagerESt14default_deleteIS1_EEERNSt13tuple_elementIXT_ESt5tupleIJDpT0_EEE4typeERS9_ = comdat any

$_ZSt12__get_helperILm0EPN6hermes18SourceErrorManagerEJSt14default_deleteIS1_EEERT0_RSt11_Tuple_implIXT_EJS5_DpT1_EE = comdat any

$_ZNSt11_Tuple_implILm0EJPN6hermes18SourceErrorManagerESt14default_deleteIS1_EEE7_M_headERS5_ = comdat any

$_ZNSt10_Head_baseILm0EPN6hermes18SourceErrorManagerELb0EE7_M_headERS3_ = comdat any

$_ZNKSt10unique_ptrIN6hermes18SourceErrorManagerESt14default_deleteIS1_EE3getEv = comdat any

$_ZNKSt15__uniq_ptr_implIN6hermes18SourceErrorManagerESt14default_deleteIS1_EE6_M_ptrEv = comdat any

$_ZSt3getILm0EJPN6hermes18SourceErrorManagerESt14default_deleteIS1_EEERKNSt13tuple_elementIXT_ESt5tupleIJDpT0_EEE4typeERKS9_ = comdat any

$_ZSt12__get_helperILm0EPN6hermes18SourceErrorManagerEJSt14default_deleteIS1_EEERKT0_RKSt11_Tuple_implIXT_EJS5_DpT1_EE = comdat any

$_ZNSt11_Tuple_implILm0EJPN6hermes18SourceErrorManagerESt14default_deleteIS1_EEE7_M_headERKS5_ = comdat any

$_ZNSt10_Head_baseILm0EPN6hermes18SourceErrorManagerELb0EE7_M_headERKS3_ = comdat any

$_ZNSt15__uniq_ptr_dataIN4llvh8DenseMapINS0_9StringRefENS1_IS2_S2_NS0_12DenseMapInfoIS2_EENS0_6detail12DenseMapPairIS2_S2_EEEES4_NS6_IS2_S8_EEEESt14default_deleteISA_ELb1ELb1EEC2EOSD_ = comdat any

$_ZNSt15__uniq_ptr_implIN4llvh8DenseMapINS0_9StringRefENS1_IS2_S2_NS0_12DenseMapInfoIS2_EENS0_6detail12DenseMapPairIS2_S2_EEEES4_NS6_IS2_S8_EEEESt14default_deleteISA_EEC2EOSD_ = comdat any

$_ZNSt5tupleIJPN4llvh8DenseMapINS0_9StringRefENS1_IS2_S2_NS0_12DenseMapInfoIS2_EENS0_6detail12DenseMapPairIS2_S2_EEEES4_NS6_IS2_S8_EEEESt14default_deleteISA_EEEC2EOSE_ = comdat any

$_ZNSt15__uniq_ptr_implIN4llvh8DenseMapINS0_9StringRefENS1_IS2_S2_NS0_12DenseMapInfoIS2_EENS0_6detail12DenseMapPairIS2_S2_EEEES4_NS6_IS2_S8_EEEESt14default_deleteISA_EE6_M_ptrEv = comdat any

$_ZNSt11_Tuple_implILm0EJPN4llvh8DenseMapINS0_9StringRefENS1_IS2_S2_NS0_12DenseMapInfoIS2_EENS0_6detail12DenseMapPairIS2_S2_EEEES4_NS6_IS2_S8_EEEESt14default_deleteISA_EEEC2EOSE_ = comdat any

$_ZNSt11_Tuple_implILm1EJSt14default_deleteIN4llvh8DenseMapINS1_9StringRefENS2_IS3_S3_NS1_12DenseMapInfoIS3_EENS1_6detail12DenseMapPairIS3_S3_EEEES5_NS7_IS3_S9_EEEEEEEC2EOSD_ = comdat any

$_ZSt3getILm0EJPN4llvh8DenseMapINS0_9StringRefENS1_IS2_S2_NS0_12DenseMapInfoIS2_EENS0_6detail12DenseMapPairIS2_S2_EEEES4_NS6_IS2_S8_EEEESt14default_deleteISA_EEERNSt13tuple_elementIXT_ESt5tupleIJDpT0_EEE4typeERSI_ = comdat any

$_ZSt12__get_helperILm0EPN4llvh8DenseMapINS0_9StringRefENS1_IS2_S2_NS0_12DenseMapInfoIS2_EENS0_6detail12DenseMapPairIS2_S2_EEEES4_NS6_IS2_S8_EEEEJSt14default_deleteISA_EEERT0_RSt11_Tuple_implIXT_EJSE_DpT1_EE = comdat any

$_ZNSt11_Tuple_implILm0EJPN4llvh8DenseMapINS0_9StringRefENS1_IS2_S2_NS0_12DenseMapInfoIS2_EENS0_6detail12DenseMapPairIS2_S2_EEEES4_NS6_IS2_S8_EEEESt14default_deleteISA_EEE7_M_headERSE_ = comdat any

$_ZNSt10_Head_baseILm0EPN4llvh8DenseMapINS0_9StringRefENS1_IS2_S2_NS0_12DenseMapInfoIS2_EENS0_6detail12DenseMapPairIS2_S2_EEEES4_NS6_IS2_S8_EEEELb0EE7_M_headERSC_ = comdat any

$_ZNSt12_Vector_baseIjSaIjEEC2EOS1_ = comdat any

$_ZNSt12_Vector_baseIjSaIjEE12_Vector_implC2EOS2_ = comdat any

$_ZNSaIjEC2ERKS_ = comdat any

$_ZNSt12_Vector_baseIjSaIjEE17_Vector_impl_dataC2EOS2_ = comdat any

$_ZNSt15__new_allocatorIjEC2ERKS0_ = comdat any

$_ZN6hermes35CodeGenerationSettings_DumpSettingsC2EOS0_ = comdat any

$_ZN4llvh13SmallDenseSetINS_9StringRefELj4ENS_12DenseMapInfoIS1_EEEC2EOS4_ = comdat any

$_ZN4llvh6detail12DenseSetImplINS_9StringRefENS_13SmallDenseMapIS2_NS0_13DenseSetEmptyELj4ENS_12DenseMapInfoIS2_EENS0_12DenseSetPairIS2_EEEES6_EC2EOSA_ = comdat any

$_ZN4llvh13SmallDenseMapINS_9StringRefENS_6detail13DenseSetEmptyELj4ENS_12DenseMapInfoIS1_EENS2_12DenseSetPairIS1_EEEC2EOS8_ = comdat any

$_ZN4llvh13SmallDenseMapINS_9StringRefENS_6detail13DenseSetEmptyELj4ENS_12DenseMapInfoIS1_EENS2_12DenseSetPairIS1_EEE4swapERS8_ = comdat any

$_ZSt4swapIjENSt9enable_ifIXsr6__and_ISt6__not_ISt15__is_tuple_likeIT_EESt21is_move_constructibleIS3_ESt18is_move_assignableIS3_EEE5valueEvE4typeERS3_SC_ = comdat any

$_ZN4llvh12DenseMapBaseINS_13SmallDenseMapINS_9StringRefENS_6detail13DenseSetEmptyELj4ENS_12DenseMapInfoIS2_EENS3_12DenseSetPairIS2_EEEES2_S4_S6_S8_E15getTombstoneKeyEv = comdat any

$_ZN4llvh13SmallDenseMapINS_9StringRefENS_6detail13DenseSetEmptyELj4ENS_12DenseMapInfoIS1_EENS2_12DenseSetPairIS1_EEE16getInlineBucketsEv = comdat any

$_ZN4llvh12DenseMapInfoINS_9StringRefEE7isEqualES1_S1_ = comdat any

$_ZSt4swapIN4llvh6detail12DenseSetPairINS0_9StringRefEEEENSt9enable_ifIXsr6__and_ISt6__not_ISt15__is_tuple_likeIT_EESt21is_move_constructibleIS8_ESt18is_move_assignableIS8_EEE5valueEvE4typeERS8_SH_ = comdat any

$_ZSt4swapIN4llvh9StringRefEENSt9enable_ifIXsr6__and_ISt6__not_ISt15__is_tuple_likeIT_EESt21is_move_constructibleIS5_ESt18is_move_assignableIS5_EEE5valueEvE4typeERS5_SE_ = comdat any

$_ZN4llvh6detail12DenseSetPairINS_9StringRefEE9getSecondEv = comdat any

$_ZSt4swapIPN4llvh6detail12DenseSetPairINS0_9StringRefEEEENSt9enable_ifIXsr6__and_ISt6__not_ISt15__is_tuple_likeIT_EESt21is_move_constructibleIS9_ESt18is_move_assignableIS9_EEE5valueEvE4typeERS9_SI_ = comdat any

$_ZN4llvh12DenseMapInfoINS_9StringRefEE15getTombstoneKeyEv = comdat any

$_ZNSt12__shared_ptrIN6hermes3hbc14BackendContextELN9__gnu_cxx12_Lock_policyE2EEC2Ev = comdat any

$_ZNSt14__shared_countILN9__gnu_cxx12_Lock_policyE2EEC2Ev = comdat any

$_ZSt8_DestroyIPjjEvT_S1_RSaIT0_E = comdat any

$_ZNSt12_Vector_baseIjSaIjEE19_M_get_Tp_allocatorEv = comdat any

$_ZNSt12_Vector_baseIjSaIjEED2Ev = comdat any

$_ZSt8_DestroyIPjEvT_S1_ = comdat any

$_ZNSt12_Destroy_auxILb1EE9__destroyIPjEEvT_S3_ = comdat any

$_ZNSt12_Vector_baseIjSaIjEE13_M_deallocateEPjm = comdat any

$_ZNSt12_Vector_baseIjSaIjEE12_Vector_implD2Ev = comdat any

$_ZNSt16allocator_traitsISaIjEE10deallocateERS0_Pjm = comdat any

$_ZNSt15__new_allocatorIjE10deallocateEPjm = comdat any

$_ZNSaIjED2Ev = comdat any

$_ZNSt15__new_allocatorIjED2Ev = comdat any

$_ZNSt10unique_ptrIN4llvh8DenseMapINS0_9StringRefENS1_IS2_S2_NS0_12DenseMapInfoIS2_EENS0_6detail12DenseMapPairIS2_S2_EEEES4_NS6_IS2_S8_EEEESt14default_deleteISA_EE11get_deleterEv = comdat any

$_ZNKSt14default_deleteIN4llvh8DenseMapINS0_9StringRefENS1_IS2_S2_NS0_12DenseMapInfoIS2_EENS0_6detail12DenseMapPairIS2_S2_EEEES4_NS6_IS2_S8_EEEEEclEPSA_ = comdat any

$_ZNSt15__uniq_ptr_implIN4llvh8DenseMapINS0_9StringRefENS1_IS2_S2_NS0_12DenseMapInfoIS2_EENS0_6detail12DenseMapPairIS2_S2_EEEES4_NS6_IS2_S8_EEEESt14default_deleteISA_EE10_M_deleterEv = comdat any

$_ZSt3getILm1EJPN4llvh8DenseMapINS0_9StringRefENS1_IS2_S2_NS0_12DenseMapInfoIS2_EENS0_6detail12DenseMapPairIS2_S2_EEEES4_NS6_IS2_S8_EEEESt14default_deleteISA_EEERNSt13tuple_elementIXT_ESt5tupleIJDpT0_EEE4typeERSI_ = comdat any

$_ZSt12__get_helperILm1ESt14default_deleteIN4llvh8DenseMapINS1_9StringRefENS2_IS3_S3_NS1_12DenseMapInfoIS3_EENS1_6detail12DenseMapPairIS3_S3_EEEES5_NS7_IS3_S9_EEEEEJEERT0_RSt11_Tuple_implIXT_EJSD_DpT1_EE = comdat any

$_ZNSt11_Tuple_implILm1EJSt14default_deleteIN4llvh8DenseMapINS1_9StringRefENS2_IS3_S3_NS1_12DenseMapInfoIS3_EENS1_6detail12DenseMapPairIS3_S3_EEEES5_NS7_IS3_S9_EEEEEEE7_M_headERSD_ = comdat any

$_ZNSt10_Head_baseILm1ESt14default_deleteIN4llvh8DenseMapINS1_9StringRefENS2_IS3_S3_NS1_12DenseMapInfoIS3_EENS1_6detail12DenseMapPairIS3_S3_EEEES5_NS7_IS3_S9_EEEEELb1EE7_M_headERSD_ = comdat any

$_ZN4llvh8DenseMapINS_9StringRefENS0_IS1_S1_NS_12DenseMapInfoIS1_EENS_6detail12DenseMapPairIS1_S1_EEEES3_NS5_IS1_S7_EEED2Ev = comdat any

$_ZN4llvh12DenseMapBaseINS_8DenseMapINS_9StringRefENS1_IS2_S2_NS_12DenseMapInfoIS2_EENS_6detail12DenseMapPairIS2_S2_EEEES4_NS6_IS2_S8_EEEES2_S8_S4_S9_E10destroyAllEv = comdat any

$_ZNK4llvh12DenseMapBaseINS_8DenseMapINS_9StringRefENS1_IS2_S2_NS_12DenseMapInfoIS2_EENS_6detail12DenseMapPairIS2_S2_EEEES4_NS6_IS2_S8_EEEES2_S8_S4_S9_E13getNumBucketsEv = comdat any

$_ZN4llvh12DenseMapBaseINS_8DenseMapINS_9StringRefENS1_IS2_S2_NS_12DenseMapInfoIS2_EENS_6detail12DenseMapPairIS2_S2_EEEES4_NS6_IS2_S8_EEEES2_S8_S4_S9_E11getEmptyKeyEv = comdat any

$_ZN4llvh12DenseMapBaseINS_8DenseMapINS_9StringRefENS1_IS2_S2_NS_12DenseMapInfoIS2_EENS_6detail12DenseMapPairIS2_S2_EEEES4_NS6_IS2_S8_EEEES2_S8_S4_S9_E15getTombstoneKeyEv = comdat any

$_ZN4llvh12DenseMapBaseINS_8DenseMapINS_9StringRefENS1_IS2_S2_NS_12DenseMapInfoIS2_EENS_6detail12DenseMapPairIS2_S2_EEEES4_NS6_IS2_S8_EEEES2_S8_S4_S9_E10getBucketsEv = comdat any

$_ZN4llvh12DenseMapBaseINS_8DenseMapINS_9StringRefENS1_IS2_S2_NS_12DenseMapInfoIS2_EENS_6detail12DenseMapPairIS2_S2_EEEES4_NS6_IS2_S8_EEEES2_S8_S4_S9_E13getBucketsEndEv = comdat any

$_ZN4llvh6detail12DenseMapPairINS_9StringRefENS_8DenseMapIS2_S2_NS_12DenseMapInfoIS2_EENS1_IS2_S2_EEEEE8getFirstEv = comdat any

$_ZN4llvh6detail12DenseMapPairINS_9StringRefENS_8DenseMapIS2_S2_NS_12DenseMapInfoIS2_EENS1_IS2_S2_EEEEE9getSecondEv = comdat any

$_ZN4llvh8DenseMapINS_9StringRefES1_NS_12DenseMapInfoIS1_EENS_6detail12DenseMapPairIS1_S1_EEED2Ev = comdat any

$_ZNK4llvh8DenseMapINS_9StringRefENS0_IS1_S1_NS_12DenseMapInfoIS1_EENS_6detail12DenseMapPairIS1_S1_EEEES3_NS5_IS1_S7_EEE13getNumBucketsEv = comdat any

$_ZNK4llvh8DenseMapINS_9StringRefENS0_IS1_S1_NS_12DenseMapInfoIS1_EENS_6detail12DenseMapPairIS1_S1_EEEES3_NS5_IS1_S7_EEE10getBucketsEv = comdat any

$_ZN4llvh12DenseMapBaseINS_8DenseMapINS_9StringRefES2_NS_12DenseMapInfoIS2_EENS_6detail12DenseMapPairIS2_S2_EEEES2_S2_S4_S7_E10destroyAllEv = comdat any

$_ZNK4llvh12DenseMapBaseINS_8DenseMapINS_9StringRefES2_NS_12DenseMapInfoIS2_EENS_6detail12DenseMapPairIS2_S2_EEEES2_S2_S4_S7_E13getNumBucketsEv = comdat any

$_ZN4llvh12DenseMapBaseINS_8DenseMapINS_9StringRefES2_NS_12DenseMapInfoIS2_EENS_6detail12DenseMapPairIS2_S2_EEEES2_S2_S4_S7_E11getEmptyKeyEv = comdat any

$_ZN4llvh12DenseMapBaseINS_8DenseMapINS_9StringRefES2_NS_12DenseMapInfoIS2_EENS_6detail12DenseMapPairIS2_S2_EEEES2_S2_S4_S7_E15getTombstoneKeyEv = comdat any

$_ZN4llvh12DenseMapBaseINS_8DenseMapINS_9StringRefES2_NS_12DenseMapInfoIS2_EENS_6detail12DenseMapPairIS2_S2_EEEES2_S2_S4_S7_E10getBucketsEv = comdat any

$_ZN4llvh12DenseMapBaseINS_8DenseMapINS_9StringRefES2_NS_12DenseMapInfoIS2_EENS_6detail12DenseMapPairIS2_S2_EEEES2_S2_S4_S7_E13getBucketsEndEv = comdat any

$_ZN4llvh6detail12DenseMapPairINS_9StringRefES2_E8getFirstEv = comdat any

$_ZN4llvh6detail12DenseMapPairINS_9StringRefES2_E9getSecondEv = comdat any

$_ZNK4llvh8DenseMapINS_9StringRefES1_NS_12DenseMapInfoIS1_EENS_6detail12DenseMapPairIS1_S1_EEE13getNumBucketsEv = comdat any

$_ZNK4llvh8DenseMapINS_9StringRefES1_NS_12DenseMapInfoIS1_EENS_6detail12DenseMapPairIS1_S1_EEE10getBucketsEv = comdat any

$_ZN4llvh13SmallDenseSetINS_9StringRefELj4ENS_12DenseMapInfoIS1_EEED2Ev = comdat any

$_ZN6hermes35CodeGenerationSettings_DumpSettingsD2Ev = comdat any

$_ZN4llvh6detail12DenseSetImplINS_9StringRefENS_13SmallDenseMapIS2_NS0_13DenseSetEmptyELj4ENS_12DenseMapInfoIS2_EENS0_12DenseSetPairIS2_EEEES6_ED2Ev = comdat any

$_ZN4llvh13SmallDenseMapINS_9StringRefENS_6detail13DenseSetEmptyELj4ENS_12DenseMapInfoIS1_EENS2_12DenseSetPairIS1_EEED2Ev = comdat any

$_ZN4llvh12DenseMapBaseINS_13SmallDenseMapINS_9StringRefENS_6detail13DenseSetEmptyELj4ENS_12DenseMapInfoIS2_EENS3_12DenseSetPairIS2_EEEES2_S4_S6_S8_E10destroyAllEv = comdat any

$_ZN4llvh13SmallDenseMapINS_9StringRefENS_6detail13DenseSetEmptyELj4ENS_12DenseMapInfoIS1_EENS2_12DenseSetPairIS1_EEE17deallocateBucketsEv = comdat any

$_ZNSt11_Deque_baseIN4llvh12SMDiagnosticESaIS1_EEC2Ev = comdat any

$_ZNSt11_Deque_baseIN4llvh12SMDiagnosticESaIS1_EE11_Deque_implC2Ev = comdat any

$_ZNSt11_Deque_baseIN4llvh12SMDiagnosticESaIS1_EE17_M_initialize_mapEm = comdat any

$_ZNSaIN4llvh12SMDiagnosticEEC2Ev = comdat any

$_ZNSt11_Deque_baseIN4llvh12SMDiagnosticESaIS1_EE16_Deque_impl_dataC2Ev = comdat any

$_ZNSt15__new_allocatorIN4llvh12SMDiagnosticEEC2Ev = comdat any

$_ZNSt15_Deque_iteratorIN4llvh12SMDiagnosticERS1_PS1_EC2Ev = comdat any

$_ZSt16__deque_buf_sizem = comdat any

$_ZNSt11_Deque_baseIN4llvh12SMDiagnosticESaIS1_EE15_M_allocate_mapEm = comdat any

$_ZNSt11_Deque_baseIN4llvh12SMDiagnosticESaIS1_EE15_M_create_nodesEPPS1_S5_ = comdat any

$_ZNSt15_Deque_iteratorIN4llvh12SMDiagnosticERS1_PS1_E11_M_set_nodeEPS3_ = comdat any

$_ZNKSt11_Deque_baseIN4llvh12SMDiagnosticESaIS1_EE20_M_get_map_allocatorEv = comdat any

$_ZNSt16allocator_traitsISaIPN4llvh12SMDiagnosticEEE8allocateERS3_m = comdat any

$_ZNSaIPN4llvh12SMDiagnosticEED2Ev = comdat any

$_ZNKSt11_Deque_baseIN4llvh12SMDiagnosticESaIS1_EE19_M_get_Tp_allocatorEv = comdat any

$_ZNSaIPN4llvh12SMDiagnosticEEC2IS0_EERKSaIT_E = comdat any

$_ZNSt15__new_allocatorIPN4llvh12SMDiagnosticEEC2Ev = comdat any

$_ZNSt15__new_allocatorIPN4llvh12SMDiagnosticEE8allocateEmPKv = comdat any

$_ZNKSt15__new_allocatorIPN4llvh12SMDiagnosticEE11_M_max_sizeEv = comdat any

$_ZNSt15__new_allocatorIPN4llvh12SMDiagnosticEED2Ev = comdat any

$_ZNSt11_Deque_baseIN4llvh12SMDiagnosticESaIS1_EE16_M_allocate_nodeEv = comdat any

$_ZNSt16allocator_traitsISaIN4llvh12SMDiagnosticEEE8allocateERS2_m = comdat any

$_ZNSt15__new_allocatorIN4llvh12SMDiagnosticEE8allocateEmPKv = comdat any

$_ZNKSt15__new_allocatorIN4llvh12SMDiagnosticEE11_M_max_sizeEv = comdat any

$_ZNSt15_Deque_iteratorIN4llvh12SMDiagnosticERS1_PS1_E14_S_buffer_sizeEv = comdat any

$_ZN4llvh15optional_detail15OptionalStorageImLb1EEC2Ev = comdat any

$_ZN4llvh9SourceMgr14setDiagHandlerEPFvRKNS_12SMDiagnosticEPvES4_ = comdat any

$_ZNK4llvh12SMDiagnostic7getKindEv = comdat any

$_ZNKSt5dequeIN4llvh12SMDiagnosticESaIS1_EE4sizeEv = comdat any

$_ZN4llvh8OptionalImEaSEOm = comdat any

$_ZNSt5dequeIN4llvh12SMDiagnosticESaIS1_EE9push_backERKS1_ = comdat any

$_ZNSt5dequeIN4llvh12SMDiagnosticESaIS1_EE4backEv = comdat any

$_ZStmiRKSt15_Deque_iteratorIN4llvh12SMDiagnosticERS1_PS1_ES6_ = comdat any

$_ZN4llvh15optional_detail15OptionalStorageImLb1EEaSERKm = comdat any

$_ZNSt16allocator_traitsISaIN4llvh12SMDiagnosticEEE9constructIS1_JRKS1_EEEvRS2_PT_DpOT0_ = comdat any

$_ZNSt5dequeIN4llvh12SMDiagnosticESaIS1_EE16_M_push_back_auxIJRKS1_EEEvDpOT_ = comdat any

$_ZNSt15__new_allocatorIN4llvh12SMDiagnosticEE9constructIS1_JRKS1_EEEvPT_DpOT0_ = comdat any

$_ZN4llvh12SMDiagnosticC2ERKS0_ = comdat any

$_ZNSt6vectorISt4pairIjjESaIS1_EEC2ERKS3_ = comdat any

$_ZN4llvh11SmallVectorINS_7SMFixItELj4EEC2ERKS2_ = comdat any

$_ZNKSt6vectorISt4pairIjjESaIS1_EE4sizeEv = comdat any

$_ZN9__gnu_cxx14__alloc_traitsISaISt4pairIjjEES2_E17_S_select_on_copyERKS3_ = comdat any

$_ZNKSt12_Vector_baseISt4pairIjjESaIS1_EE19_M_get_Tp_allocatorEv = comdat any

$_ZNSt12_Vector_baseISt4pairIjjESaIS1_EEC2EmRKS2_ = comdat any

$_ZNSaISt4pairIjjEED2Ev = comdat any

$_ZSt22__uninitialized_copy_aIN9__gnu_cxx17__normal_iteratorIPKSt4pairIjjESt6vectorIS3_SaIS3_EEEEPS3_S3_ET0_T_SC_SB_RSaIT1_E = comdat any

$_ZNKSt6vectorISt4pairIjjESaIS1_EE5beginEv = comdat any

$_ZNKSt6vectorISt4pairIjjESaIS1_EE3endEv = comdat any

$_ZNSt12_Vector_baseISt4pairIjjESaIS1_EE19_M_get_Tp_allocatorEv = comdat any

$_ZNSt16allocator_traitsISaISt4pairIjjEEE37select_on_container_copy_constructionERKS2_ = comdat any

$_ZNSaISt4pairIjjEEC2ERKS1_ = comdat any

$_ZNSt15__new_allocatorISt4pairIjjEEC2ERKS2_ = comdat any

$_ZNSt12_Vector_baseISt4pairIjjESaIS1_EE12_Vector_implC2ERKS2_ = comdat any

$_ZNSt12_Vector_baseISt4pairIjjESaIS1_EE17_M_create_storageEm = comdat any

$_ZNSt12_Vector_baseISt4pairIjjESaIS1_EE17_Vector_impl_dataC2Ev = comdat any

$_ZNSt12_Vector_baseISt4pairIjjESaIS1_EE11_M_allocateEm = comdat any

$_ZNSt16allocator_traitsISaISt4pairIjjEEE8allocateERS2_m = comdat any

$_ZNSt15__new_allocatorISt4pairIjjEE8allocateEmPKv = comdat any

$_ZNKSt15__new_allocatorISt4pairIjjEE11_M_max_sizeEv = comdat any

$_ZNSt15__new_allocatorISt4pairIjjEED2Ev = comdat any

$_ZSt18uninitialized_copyIN9__gnu_cxx17__normal_iteratorIPKSt4pairIjjESt6vectorIS3_SaIS3_EEEEPS3_ET0_T_SC_SB_ = comdat any

$_ZNSt20__uninitialized_copyILb0EE13__uninit_copyIN9__gnu_cxx17__normal_iteratorIPKSt4pairIjjESt6vectorIS5_SaIS5_EEEEPS5_EET0_T_SE_SD_ = comdat any

$_ZSt16__do_uninit_copyIN9__gnu_cxx17__normal_iteratorIPKSt4pairIjjESt6vectorIS3_SaIS3_EEEEPS3_ET0_T_SC_SB_ = comdat any

$_ZN9__gnu_cxxneIPKSt4pairIjjESt6vectorIS2_SaIS2_EEEEbRKNS_17__normal_iteratorIT_T0_EESD_ = comdat any

$_ZSt10_ConstructISt4pairIjjEJRKS1_EEvPT_DpOT0_ = comdat any

$_ZNK9__gnu_cxx17__normal_iteratorIPKSt4pairIjjESt6vectorIS2_SaIS2_EEEdeEv = comdat any

$_ZN9__gnu_cxx17__normal_iteratorIPKSt4pairIjjESt6vectorIS2_SaIS2_EEEppEv = comdat any

$_ZNK9__gnu_cxx17__normal_iteratorIPKSt4pairIjjESt6vectorIS2_SaIS2_EEE4baseEv = comdat any

$_ZN9__gnu_cxx17__normal_iteratorIPKSt4pairIjjESt6vectorIS2_SaIS2_EEEC2ERKS4_ = comdat any

$_ZN4llvh15SmallVectorImplINS_7SMFixItEEC2Ej = comdat any

$_ZNK4llvh15SmallVectorBase5emptyEv = comdat any

$_ZN4llvh15SmallVectorImplINS_7SMFixItEEaSERKS2_ = comdat any

$_ZN4llvh23SmallVectorTemplateBaseINS_7SMFixItELb0EEC2Em = comdat any

$_ZN4llvh25SmallVectorTemplateCommonINS_7SMFixItEvEC2Em = comdat any

$_ZNK4llvh25SmallVectorTemplateCommonINS_7SMFixItEvE10getFirstElEv = comdat any

$_ZNK4llvh15SmallVectorBase4sizeEv = comdat any

$_ZSt4copyIPKN4llvh7SMFixItEPS1_ET0_T_S6_S5_ = comdat any

$_ZN4llvh23SmallVectorTemplateBaseINS_7SMFixItELb0EE13destroy_rangeEPS1_S3_ = comdat any

$_ZN4llvh15SmallVectorBase8set_sizeEm = comdat any

$_ZNK4llvh15SmallVectorBase8capacityEv = comdat any

$_ZN4llvh23SmallVectorTemplateBaseINS_7SMFixItELb0EE4growEm = comdat any

$_ZN4llvh23SmallVectorTemplateBaseINS_7SMFixItELb0EE18uninitialized_copyIPKS1_PS1_EEvT_S7_T0_ = comdat any

$_ZSt13__copy_move_aILb0EPKN4llvh7SMFixItEPS1_ET1_T0_S6_S5_ = comdat any

$_ZSt12__miter_baseIPKN4llvh7SMFixItEET_S4_ = comdat any

$_ZSt12__niter_wrapIPN4llvh7SMFixItEET_RKS3_S3_ = comdat any

$_ZSt14__copy_move_a1ILb0EPKN4llvh7SMFixItEPS1_ET1_T0_S6_S5_ = comdat any

$_ZSt12__niter_baseIPKN4llvh7SMFixItEET_S4_ = comdat any

$_ZSt12__niter_baseIPN4llvh7SMFixItEET_S3_ = comdat any

$_ZSt14__copy_move_a2ILb0EPKN4llvh7SMFixItEPS1_ET1_T0_S6_S5_ = comdat any

$_ZNSt11__copy_moveILb0ELb0ESt26random_access_iterator_tagE8__copy_mIPKN4llvh7SMFixItEPS4_EET0_T_S9_S8_ = comdat any

$_ZN4llvh7SMFixItaSERKS0_ = comdat any

$_ZN4llvh7SMFixItD2Ev = comdat any

$_ZN4llvh11safe_mallocEm = comdat any

$_ZN4llvh23SmallVectorTemplateBaseINS_7SMFixItELb0EE18uninitialized_moveIPS1_S4_EEvT_S5_T0_ = comdat any

$_ZNK4llvh25SmallVectorTemplateCommonINS_7SMFixItEvE7isSmallEv = comdat any

$_ZSt18uninitialized_copyISt13move_iteratorIPN4llvh7SMFixItEES3_ET0_T_S6_S5_ = comdat any

$_ZSt18make_move_iteratorIPN4llvh7SMFixItEESt13move_iteratorIT_ES4_ = comdat any

$_ZNSt20__uninitialized_copyILb0EE13__uninit_copyISt13move_iteratorIPN4llvh7SMFixItEES5_EET0_T_S8_S7_ = comdat any

$_ZSt16__do_uninit_copyISt13move_iteratorIPN4llvh7SMFixItEES3_ET0_T_S6_S5_ = comdat any

$_ZStneIPN4llvh7SMFixItEEbRKSt13move_iteratorIT_ES7_ = comdat any

$_ZSt10_ConstructIN4llvh7SMFixItEJS1_EEvPT_DpOT0_ = comdat any

$_ZNKSt13move_iteratorIPN4llvh7SMFixItEEdeEv = comdat any

$_ZNSt13move_iteratorIPN4llvh7SMFixItEEppEv = comdat any

$_ZSteqIPN4llvh7SMFixItEEbRKSt13move_iteratorIT_ES7_ = comdat any

$_ZNKSt13move_iteratorIPN4llvh7SMFixItEE4baseEv = comdat any

$_ZN4llvh7SMFixItC2EOS0_ = comdat any

$_ZNSt13move_iteratorIPN4llvh7SMFixItEEC2ES2_ = comdat any

$_ZSt18uninitialized_copyIPKN4llvh7SMFixItEPS1_ET0_T_S6_S5_ = comdat any

$_ZNSt20__uninitialized_copyILb0EE13__uninit_copyIPKN4llvh7SMFixItEPS3_EET0_T_S8_S7_ = comdat any

$_ZSt16__do_uninit_copyIPKN4llvh7SMFixItEPS1_ET0_T_S6_S5_ = comdat any

$_ZSt10_ConstructIN4llvh7SMFixItEJRKS1_EEvPT_DpOT0_ = comdat any

$_ZN4llvh7SMFixItC2ERKS0_ = comdat any

$_ZNKSt5dequeIN4llvh12SMDiagnosticESaIS1_EE8max_sizeEv = comdat any

$_ZNSt5dequeIN4llvh12SMDiagnosticESaIS1_EE22_M_reserve_map_at_backEm = comdat any

$_ZNSt5dequeIN4llvh12SMDiagnosticESaIS1_EE11_S_max_sizeERKS2_ = comdat any

$_ZNSt16allocator_traitsISaIN4llvh12SMDiagnosticEEE8max_sizeERKS2_ = comdat any

$_ZNKSt15__new_allocatorIN4llvh12SMDiagnosticEE8max_sizeEv = comdat any

$_ZNSt5dequeIN4llvh12SMDiagnosticESaIS1_EE17_M_reallocate_mapEmb = comdat any

$_ZSt4copyIPPN4llvh12SMDiagnosticES3_ET0_T_S5_S4_ = comdat any

$_ZSt13copy_backwardIPPN4llvh12SMDiagnosticES3_ET0_T_S5_S4_ = comdat any

$_ZNSt11_Deque_baseIN4llvh12SMDiagnosticESaIS1_EE17_M_deallocate_mapEPPS1_m = comdat any

$_ZSt13__copy_move_aILb0EPPN4llvh12SMDiagnosticES3_ET1_T0_S5_S4_ = comdat any

$_ZSt12__miter_baseIPPN4llvh12SMDiagnosticEET_S4_ = comdat any

$_ZSt12__niter_wrapIPPN4llvh12SMDiagnosticEET_RKS4_S4_ = comdat any

$_ZSt14__copy_move_a1ILb0EPPN4llvh12SMDiagnosticES3_ET1_T0_S5_S4_ = comdat any

$_ZSt12__niter_baseIPPN4llvh12SMDiagnosticEET_S4_ = comdat any

$_ZSt14__copy_move_a2ILb0EPPN4llvh12SMDiagnosticES3_ET1_T0_S5_S4_ = comdat any

$_ZNSt11__copy_moveILb0ELb1ESt26random_access_iterator_tagE8__copy_mIPN4llvh12SMDiagnosticEEEPT_PKS6_S9_S7_ = comdat any

$_ZSt22__copy_move_backward_aILb0EPPN4llvh12SMDiagnosticES3_ET1_T0_S5_S4_ = comdat any

$_ZSt23__copy_move_backward_a1ILb0EPPN4llvh12SMDiagnosticES3_ET1_T0_S5_S4_ = comdat any

$_ZSt23__copy_move_backward_a2ILb0EPPN4llvh12SMDiagnosticES3_ET1_T0_S5_S4_ = comdat any

$_ZNSt20__copy_move_backwardILb0ELb1ESt26random_access_iterator_tagE13__copy_move_bIPN4llvh12SMDiagnosticEEEPT_PKS6_S9_S7_ = comdat any

$_ZNSt16allocator_traitsISaIPN4llvh12SMDiagnosticEEE10deallocateERS3_PS2_m = comdat any

$_ZNSt15__new_allocatorIPN4llvh12SMDiagnosticEE10deallocateEPS2_m = comdat any

$_ZNSt5dequeIN4llvh12SMDiagnosticESaIS1_EE3endEv = comdat any

$_ZNSt15_Deque_iteratorIN4llvh12SMDiagnosticERS1_PS1_EmmEv = comdat any

$_ZNKSt15_Deque_iteratorIN4llvh12SMDiagnosticERS1_PS1_EdeEv = comdat any

$_ZNSt15_Deque_iteratorIN4llvh12SMDiagnosticERS1_PS1_EC2ERKS4_ = comdat any

$_ZNK4llvh12SMDiagnostic6getLocEv = comdat any

$_ZNK4llvh12SMDiagnostic9getLineNoEv = comdat any

$_ZNK4llvh12SMDiagnostic11getColumnNoEv = comdat any

$_ZNK4llvh12SMDiagnostic10getMessageEv = comdat any

$_ZNK4llvh12SMDiagnostic15getLineContentsEv = comdat any

$_ZN6hermes18SourceErrorManager5errorEN4llvh5SMLocERKNS1_5TwineENS_9SubsystemE = comdat any

$_ZN4llvh5SMLocC2Ev = comdat any

$_ZN4llvh5TwineC2EPKc = comdat any

$_ZNSt10unique_ptrIN4llvh12MemoryBufferESt14default_deleteIS1_EED2Ev = comdat any

$_ZNSt15__uniq_ptr_implIN4llvh12MemoryBufferESt14default_deleteIS1_EE6_M_ptrEv = comdat any

$_ZNSt10unique_ptrIN4llvh12MemoryBufferESt14default_deleteIS1_EE11get_deleterEv = comdat any

$_ZNKSt14default_deleteIN4llvh12MemoryBufferEEclEPS1_ = comdat any

$_ZSt3getILm0EJPN4llvh12MemoryBufferESt14default_deleteIS1_EEERNSt13tuple_elementIXT_ESt5tupleIJDpT0_EEE4typeERS9_ = comdat any

$_ZSt12__get_helperILm0EPN4llvh12MemoryBufferEJSt14default_deleteIS1_EEERT0_RSt11_Tuple_implIXT_EJS5_DpT1_EE = comdat any

$_ZNSt11_Tuple_implILm0EJPN4llvh12MemoryBufferESt14default_deleteIS1_EEE7_M_headERS5_ = comdat any

$_ZNSt10_Head_baseILm0EPN4llvh12MemoryBufferELb0EE7_M_headERS3_ = comdat any

$_ZNSt15__uniq_ptr_implIN4llvh12MemoryBufferESt14default_deleteIS1_EE10_M_deleterEv = comdat any

$_ZSt3getILm1EJPN4llvh12MemoryBufferESt14default_deleteIS1_EEERNSt13tuple_elementIXT_ESt5tupleIJDpT0_EEE4typeERS9_ = comdat any

$_ZSt12__get_helperILm1ESt14default_deleteIN4llvh12MemoryBufferEEJEERT0_RSt11_Tuple_implIXT_EJS4_DpT1_EE = comdat any

$_ZNSt11_Tuple_implILm1EJSt14default_deleteIN4llvh12MemoryBufferEEEE7_M_headERS4_ = comdat any

$_ZNSt10_Head_baseILm1ESt14default_deleteIN4llvh12MemoryBufferEELb1EE7_M_headERS4_ = comdat any

$_ZNSt12_Vector_baseIN6hermes6parser13StoredCommentESaIS2_EEC2Ev = comdat any

$_ZNSt12_Vector_baseIN6hermes6parser13StoredCommentESaIS2_EE12_Vector_implC2Ev = comdat any

$_ZNSaIN6hermes6parser13StoredCommentEEC2Ev = comdat any

$_ZNSt15__new_allocatorIN6hermes6parser13StoredCommentEEC2Ev = comdat any

$_ZNSt5dequeIN4llvh12SMDiagnosticESaIS1_EED2Ev = comdat any

$_ZN6hermes7ContextD2Ev = comdat any

$_ZNSt5dequeIN4llvh12SMDiagnosticESaIS1_EE15_M_destroy_dataESt15_Deque_iteratorIS1_RS1_PS1_ES7_RKS2_ = comdat any

$_ZNSt5dequeIN4llvh12SMDiagnosticESaIS1_EE5beginEv = comdat any

$_ZNSt11_Deque_baseIN4llvh12SMDiagnosticESaIS1_EE19_M_get_Tp_allocatorEv = comdat any

$_ZNSt11_Deque_baseIN4llvh12SMDiagnosticESaIS1_EED2Ev = comdat any

$_ZNSt5dequeIN4llvh12SMDiagnosticESaIS1_EE19_M_destroy_data_auxESt15_Deque_iteratorIS1_RS1_PS1_ES7_ = comdat any

$_ZSt8_DestroyIPN4llvh12SMDiagnosticES1_EvT_S3_RSaIT0_E = comdat any

$_ZNSt5dequeIN4llvh12SMDiagnosticESaIS1_EE14_S_buffer_sizeEv = comdat any

$_ZSt8_DestroyIPN4llvh12SMDiagnosticEEvT_S3_ = comdat any

$_ZNSt12_Destroy_auxILb0EE9__destroyIPN4llvh12SMDiagnosticEEEvT_S5_ = comdat any

$_ZSt8_DestroyIN4llvh12SMDiagnosticEEvPT_ = comdat any

$_ZN4llvh12SMDiagnosticD2Ev = comdat any

$_ZN4llvh11SmallVectorINS_7SMFixItELj4EED2Ev = comdat any

$_ZNSt6vectorISt4pairIjjESaIS1_EED2Ev = comdat any

$_ZN4llvh15SmallVectorImplINS_7SMFixItEED2Ev = comdat any

$_ZSt8_DestroyIPSt4pairIjjES1_EvT_S3_RSaIT0_E = comdat any

$_ZNSt12_Vector_baseISt4pairIjjESaIS1_EED2Ev = comdat any

$_ZSt8_DestroyIPSt4pairIjjEEvT_S3_ = comdat any

$_ZNSt12_Destroy_auxILb1EE9__destroyIPSt4pairIjjEEEvT_S5_ = comdat any

$_ZNSt12_Vector_baseISt4pairIjjESaIS1_EE13_M_deallocateEPS1_m = comdat any

$_ZNSt12_Vector_baseISt4pairIjjESaIS1_EE12_Vector_implD2Ev = comdat any

$_ZNSt16allocator_traitsISaISt4pairIjjEEE10deallocateERS2_PS1_m = comdat any

$_ZNSt15__new_allocatorISt4pairIjjEE10deallocateEPS1_m = comdat any

$_ZNSt11_Deque_baseIN4llvh12SMDiagnosticESaIS1_EE16_M_destroy_nodesEPPS1_S5_ = comdat any

$_ZNSt11_Deque_baseIN4llvh12SMDiagnosticESaIS1_EE11_Deque_implD2Ev = comdat any

$_ZNSt11_Deque_baseIN4llvh12SMDiagnosticESaIS1_EE18_M_deallocate_nodeEPS1_ = comdat any

$_ZNSt16allocator_traitsISaIN4llvh12SMDiagnosticEEE10deallocateERS2_PS1_m = comdat any

$_ZNSt15__new_allocatorIN4llvh12SMDiagnosticEE10deallocateEPS1_m = comdat any

$_ZNSaIN4llvh12SMDiagnosticEED2Ev = comdat any

$_ZNSt15__new_allocatorIN4llvh12SMDiagnosticEED2Ev = comdat any

$_ZNSt10shared_ptrIN6hermes3hbc14BackendContextEED2Ev = comdat any

$_ZNSt10unique_ptrIN6hermes18SourceErrorManagerESt14default_deleteIS1_EED2Ev = comdat any

$_ZNSt3mapISt4pairIPN6hermes12UniqueStringES3_ENS1_14CompiledRegExpESt4lessIS4_ESaIS0_IKS4_S5_EEED2Ev = comdat any

$_ZN6hermes11StringTableD2Ev = comdat any

$_ZNSt10unique_ptrIN6hermes6parser13PreParsedDataESt14default_deleteIS2_EED2Ev = comdat any

$_ZN6hermes28BacktrackingBumpPtrAllocatorD2Ev = comdat any

$_ZNSt12__shared_ptrIN6hermes3hbc14BackendContextELN9__gnu_cxx12_Lock_policyE2EED2Ev = comdat any

$_ZNSt14__shared_countILN9__gnu_cxx12_Lock_policyE2EED2Ev = comdat any

$_ZNSt16_Sp_counted_baseILN9__gnu_cxx12_Lock_policyE2EE10_M_releaseEv = comdat any

$_ZNSt16_Sp_counted_baseILN9__gnu_cxx12_Lock_policyE2EE24_M_release_last_use_coldEv = comdat any

$_ZNSt16_Sp_counted_baseILN9__gnu_cxx12_Lock_policyE2EE19_M_release_last_useEv = comdat any

$_ZNSt10unique_ptrIN6hermes18SourceErrorManagerESt14default_deleteIS1_EE11get_deleterEv = comdat any

$_ZNKSt14default_deleteIN6hermes18SourceErrorManagerEEclEPS1_ = comdat any

$_ZNSt15__uniq_ptr_implIN6hermes18SourceErrorManagerESt14default_deleteIS1_EE10_M_deleterEv = comdat any

$_ZSt3getILm1EJPN6hermes18SourceErrorManagerESt14default_deleteIS1_EEERNSt13tuple_elementIXT_ESt5tupleIJDpT0_EEE4typeERS9_ = comdat any

$_ZSt12__get_helperILm1ESt14default_deleteIN6hermes18SourceErrorManagerEEJEERT0_RSt11_Tuple_implIXT_EJS4_DpT1_EE = comdat any

$_ZNSt11_Tuple_implILm1EJSt14default_deleteIN6hermes18SourceErrorManagerEEEE7_M_headERS4_ = comdat any

$_ZNSt10_Head_baseILm1ESt14default_deleteIN6hermes18SourceErrorManagerEELb1EE7_M_headERS4_ = comdat any

$_ZN6hermes18SourceErrorManagerD2Ev = comdat any

$_ZNSt6vectorIN6hermes18SourceErrorManager11MessageDataESaIS2_EED2Ev = comdat any

$_ZNSt6vectorIN6hermes18SourceErrorManager15BufferedMessageESaIS2_EED2Ev = comdat any

$_ZN4llvh8DenseMapIjNSt7__cxx1112basic_stringIcSt11char_traitsIcESaIcEEENS_12DenseMapInfoIjEENS_6detail12DenseMapPairIjS6_EEED2Ev = comdat any

$_ZN4llvh14SmallBitVectorD2Ev = comdat any

$_ZN6hermes15StringSetVectorD2Ev = comdat any

$_ZNSt10shared_ptrIN6hermes18SourceErrorManager16ICoordTranslatorEED2Ev = comdat any

$_ZN4llvh9SourceMgrD2Ev = comdat any

$_ZSt8_DestroyIPN6hermes18SourceErrorManager11MessageDataES2_EvT_S4_RSaIT0_E = comdat any

$_ZNSt12_Vector_baseIN6hermes18SourceErrorManager11MessageDataESaIS2_EE19_M_get_Tp_allocatorEv = comdat any

$_ZNSt12_Vector_baseIN6hermes18SourceErrorManager11MessageDataESaIS2_EED2Ev = comdat any

$_ZSt8_DestroyIPN6hermes18SourceErrorManager11MessageDataEEvT_S4_ = comdat any

$_ZNSt12_Destroy_auxILb0EE9__destroyIPN6hermes18SourceErrorManager11MessageDataEEEvT_S6_ = comdat any

$_ZSt8_DestroyIN6hermes18SourceErrorManager11MessageDataEEvPT_ = comdat any

$_ZN6hermes18SourceErrorManager11MessageDataD2Ev = comdat any

$_ZNSt12_Vector_baseIN6hermes18SourceErrorManager11MessageDataESaIS2_EE13_M_deallocateEPS2_m = comdat any

$_ZNSt12_Vector_baseIN6hermes18SourceErrorManager11MessageDataESaIS2_EE12_Vector_implD2Ev = comdat any

$_ZNSt16allocator_traitsISaIN6hermes18SourceErrorManager11MessageDataEEE10deallocateERS3_PS2_m = comdat any

$_ZNSt15__new_allocatorIN6hermes18SourceErrorManager11MessageDataEE10deallocateEPS2_m = comdat any

$_ZNSaIN6hermes18SourceErrorManager11MessageDataEED2Ev = comdat any

$_ZNSt15__new_allocatorIN6hermes18SourceErrorManager11MessageDataEED2Ev = comdat any

$_ZSt8_DestroyIPN6hermes18SourceErrorManager15BufferedMessageES2_EvT_S4_RSaIT0_E = comdat any

$_ZNSt12_Vector_baseIN6hermes18SourceErrorManager15BufferedMessageESaIS2_EE19_M_get_Tp_allocatorEv = comdat any

$_ZNSt12_Vector_baseIN6hermes18SourceErrorManager15BufferedMessageESaIS2_EED2Ev = comdat any

$_ZSt8_DestroyIPN6hermes18SourceErrorManager15BufferedMessageEEvT_S4_ = comdat any

$_ZNSt12_Destroy_auxILb0EE9__destroyIPN6hermes18SourceErrorManager15BufferedMessageEEEvT_S6_ = comdat any

$_ZSt8_DestroyIN6hermes18SourceErrorManager15BufferedMessageEEvPT_ = comdat any

$_ZN6hermes18SourceErrorManager15BufferedMessageD2Ev = comdat any

$_ZNSt12_Vector_baseIN6hermes18SourceErrorManager15BufferedMessageESaIS2_EE13_M_deallocateEPS2_m = comdat any

$_ZNSt12_Vector_baseIN6hermes18SourceErrorManager15BufferedMessageESaIS2_EE12_Vector_implD2Ev = comdat any

$_ZNSt16allocator_traitsISaIN6hermes18SourceErrorManager15BufferedMessageEEE10deallocateERS3_PS2_m = comdat any

$_ZNSt15__new_allocatorIN6hermes18SourceErrorManager15BufferedMessageEE10deallocateEPS2_m = comdat any

$_ZNSaIN6hermes18SourceErrorManager15BufferedMessageEED2Ev = comdat any

$_ZNSt15__new_allocatorIN6hermes18SourceErrorManager15BufferedMessageEED2Ev = comdat any

$_ZN4llvh12DenseMapBaseINS_8DenseMapIjNSt7__cxx1112basic_stringIcSt11char_traitsIcESaIcEEENS_12DenseMapInfoIjEENS_6detail12DenseMapPairIjS7_EEEEjS7_S9_SC_E10destroyAllEv = comdat any

$_ZNK4llvh12DenseMapBaseINS_8DenseMapIjNSt7__cxx1112basic_stringIcSt11char_traitsIcESaIcEEENS_12DenseMapInfoIjEENS_6detail12DenseMapPairIjS7_EEEEjS7_S9_SC_E13getNumBucketsEv = comdat any

$_ZN4llvh12DenseMapBaseINS_8DenseMapIjNSt7__cxx1112basic_stringIcSt11char_traitsIcESaIcEEENS_12DenseMapInfoIjEENS_6detail12DenseMapPairIjS7_EEEEjS7_S9_SC_E11getEmptyKeyEv = comdat any

$_ZN4llvh12DenseMapBaseINS_8DenseMapIjNSt7__cxx1112basic_stringIcSt11char_traitsIcESaIcEEENS_12DenseMapInfoIjEENS_6detail12DenseMapPairIjS7_EEEEjS7_S9_SC_E15getTombstoneKeyEv = comdat any

$_ZN4llvh12DenseMapBaseINS_8DenseMapIjNSt7__cxx1112basic_stringIcSt11char_traitsIcESaIcEEENS_12DenseMapInfoIjEENS_6detail12DenseMapPairIjS7_EEEEjS7_S9_SC_E10getBucketsEv = comdat any

$_ZN4llvh12DenseMapBaseINS_8DenseMapIjNSt7__cxx1112basic_stringIcSt11char_traitsIcESaIcEEENS_12DenseMapInfoIjEENS_6detail12DenseMapPairIjS7_EEEEjS7_S9_SC_E13getBucketsEndEv = comdat any

$_ZN4llvh12DenseMapInfoIjE7isEqualERKjS3_ = comdat any

$_ZN4llvh6detail12DenseMapPairIjNSt7__cxx1112basic_stringIcSt11char_traitsIcESaIcEEEE8getFirstEv = comdat any

$_ZN4llvh6detail12DenseMapPairIjNSt7__cxx1112basic_stringIcSt11char_traitsIcESaIcEEEE9getSecondEv = comdat any

$_ZNK4llvh8DenseMapIjNSt7__cxx1112basic_stringIcSt11char_traitsIcESaIcEEENS_12DenseMapInfoIjEENS_6detail12DenseMapPairIjS6_EEE13getNumBucketsEv = comdat any

$_ZN4llvh12DenseMapInfoIjE11getEmptyKeyEv = comdat any

$_ZN4llvh12DenseMapInfoIjE15getTombstoneKeyEv = comdat any

$_ZNK4llvh8DenseMapIjNSt7__cxx1112basic_stringIcSt11char_traitsIcESaIcEEENS_12DenseMapInfoIjEENS_6detail12DenseMapPairIjS6_EEE10getBucketsEv = comdat any

$_ZNK4llvh14SmallBitVector7isSmallEv = comdat any

$_ZNK4llvh14SmallBitVector10getPointerEv = comdat any

$_ZN4llvh9BitVectorD2Ev = comdat any

$_ZNK4llvh15MutableArrayRefImE4dataEv = comdat any

$_ZNK4llvh8ArrayRefImE4dataEv = comdat any

$_ZN4llvh8DenseMapINS_9StringRefEjNS_12DenseMapInfoIS1_EENS_6detail12DenseMapPairIS1_jEEED2Ev = comdat any

$_ZNSt5dequeINSt7__cxx1112basic_stringIcSt11char_traitsIcESaIcEEESaIS5_EED2Ev = comdat any

$_ZN4llvh12DenseMapBaseINS_8DenseMapINS_9StringRefEjNS_12DenseMapInfoIS2_EENS_6detail12DenseMapPairIS2_jEEEES2_jS4_S7_E10destroyAllEv = comdat any

$_ZNK4llvh12DenseMapBaseINS_8DenseMapINS_9StringRefEjNS_12DenseMapInfoIS2_EENS_6detail12DenseMapPairIS2_jEEEES2_jS4_S7_E13getNumBucketsEv = comdat any

$_ZN4llvh12DenseMapBaseINS_8DenseMapINS_9StringRefEjNS_12DenseMapInfoIS2_EENS_6detail12DenseMapPairIS2_jEEEES2_jS4_S7_E11getEmptyKeyEv = comdat any

$_ZN4llvh12DenseMapBaseINS_8DenseMapINS_9StringRefEjNS_12DenseMapInfoIS2_EENS_6detail12DenseMapPairIS2_jEEEES2_jS4_S7_E15getTombstoneKeyEv = comdat any

$_ZN4llvh12DenseMapBaseINS_8DenseMapINS_9StringRefEjNS_12DenseMapInfoIS2_EENS_6detail12DenseMapPairIS2_jEEEES2_jS4_S7_E10getBucketsEv = comdat any

$_ZN4llvh12DenseMapBaseINS_8DenseMapINS_9StringRefEjNS_12DenseMapInfoIS2_EENS_6detail12DenseMapPairIS2_jEEEES2_jS4_S7_E13getBucketsEndEv = comdat any

$_ZN4llvh6detail12DenseMapPairINS_9StringRefEjE8getFirstEv = comdat any

$_ZN4llvh6detail12DenseMapPairINS_9StringRefEjE9getSecondEv = comdat any

$_ZNK4llvh8DenseMapINS_9StringRefEjNS_12DenseMapInfoIS1_EENS_6detail12DenseMapPairIS1_jEEE13getNumBucketsEv = comdat any

$_ZNK4llvh8DenseMapINS_9StringRefEjNS_12DenseMapInfoIS1_EENS_6detail12DenseMapPairIS1_jEEE10getBucketsEv = comdat any

$_ZNSt5dequeINSt7__cxx1112basic_stringIcSt11char_traitsIcESaIcEEESaIS5_EE15_M_destroy_dataESt15_Deque_iteratorIS5_RS5_PS5_ESB_RKS6_ = comdat any

$_ZNSt5dequeINSt7__cxx1112basic_stringIcSt11char_traitsIcESaIcEEESaIS5_EE5beginEv = comdat any

$_ZNSt5dequeINSt7__cxx1112basic_stringIcSt11char_traitsIcESaIcEEESaIS5_EE3endEv = comdat any

$_ZNSt11_Deque_baseINSt7__cxx1112basic_stringIcSt11char_traitsIcESaIcEEESaIS5_EE19_M_get_Tp_allocatorEv = comdat any

$_ZNSt11_Deque_baseINSt7__cxx1112basic_stringIcSt11char_traitsIcESaIcEEESaIS5_EED2Ev = comdat any

$_ZNSt5dequeINSt7__cxx1112basic_stringIcSt11char_traitsIcESaIcEEESaIS5_EE19_M_destroy_data_auxESt15_Deque_iteratorIS5_RS5_PS5_ESB_ = comdat any

$_ZNSt15_Deque_iteratorINSt7__cxx1112basic_stringIcSt11char_traitsIcESaIcEEERS5_PS5_EC2ERKS8_ = comdat any

$_ZSt8_DestroyIPNSt7__cxx1112basic_stringIcSt11char_traitsIcESaIcEEES5_EvT_S7_RSaIT0_E = comdat any

$_ZNSt5dequeINSt7__cxx1112basic_stringIcSt11char_traitsIcESaIcEEESaIS5_EE14_S_buffer_sizeEv = comdat any

$_ZSt8_DestroyIPNSt7__cxx1112basic_stringIcSt11char_traitsIcESaIcEEEEvT_S7_ = comdat any

$_ZNSt12_Destroy_auxILb0EE9__destroyIPNSt7__cxx1112basic_stringIcSt11char_traitsIcESaIcEEEEEvT_S9_ = comdat any

$_ZSt8_DestroyINSt7__cxx1112basic_stringIcSt11char_traitsIcESaIcEEEEvPT_ = comdat any

$_ZNSt11_Deque_baseINSt7__cxx1112basic_stringIcSt11char_traitsIcESaIcEEESaIS5_EE16_M_destroy_nodesEPPS5_S9_ = comdat any

$_ZNSt11_Deque_baseINSt7__cxx1112basic_stringIcSt11char_traitsIcESaIcEEESaIS5_EE17_M_deallocate_mapEPPS5_m = comdat any

$_ZNSt11_Deque_baseINSt7__cxx1112basic_stringIcSt11char_traitsIcESaIcEEESaIS5_EE11_Deque_implD2Ev = comdat any

$_ZNSt11_Deque_baseINSt7__cxx1112basic_stringIcSt11char_traitsIcESaIcEEESaIS5_EE18_M_deallocate_nodeEPS5_ = comdat any

$_ZNSt16allocator_traitsISaINSt7__cxx1112basic_stringIcSt11char_traitsIcESaIcEEEEE10deallocateERS6_PS5_m = comdat any

$_ZNSt15__new_allocatorINSt7__cxx1112basic_stringIcSt11char_traitsIcESaIcEEEE10deallocateEPS5_m = comdat any

$_ZNKSt11_Deque_baseINSt7__cxx1112basic_stringIcSt11char_traitsIcESaIcEEESaIS5_EE20_M_get_map_allocatorEv = comdat any

$_ZNSt16allocator_traitsISaIPNSt7__cxx1112basic_stringIcSt11char_traitsIcESaIcEEEEE10deallocateERS7_PS6_m = comdat any

$_ZNSaIPNSt7__cxx1112basic_stringIcSt11char_traitsIcESaIcEEEED2Ev = comdat any

$_ZNKSt11_Deque_baseINSt7__cxx1112basic_stringIcSt11char_traitsIcESaIcEEESaIS5_EE19_M_get_Tp_allocatorEv = comdat any

$_ZNSaIPNSt7__cxx1112basic_stringIcSt11char_traitsIcESaIcEEEEC2IS4_EERKSaIT_E = comdat any

$_ZNSt15__new_allocatorIPNSt7__cxx1112basic_stringIcSt11char_traitsIcESaIcEEEEC2Ev = comdat any

$_ZNSt15__new_allocatorIPNSt7__cxx1112basic_stringIcSt11char_traitsIcESaIcEEEE10deallocateEPS6_m = comdat any

$_ZNSt15__new_allocatorIPNSt7__cxx1112basic_stringIcSt11char_traitsIcESaIcEEEED2Ev = comdat any

$_ZNSaINSt7__cxx1112basic_stringIcSt11char_traitsIcESaIcEEEED2Ev = comdat any

$_ZNSt15__new_allocatorINSt7__cxx1112basic_stringIcSt11char_traitsIcESaIcEEEED2Ev = comdat any

$_ZNSt12__shared_ptrIN6hermes18SourceErrorManager16ICoordTranslatorELN9__gnu_cxx12_Lock_policyE2EED2Ev = comdat any

$_ZNSt6vectorINSt7__cxx1112basic_stringIcSt11char_traitsIcESaIcEEESaIS5_EED2Ev = comdat any

$_ZNSt3mapIPKcjSt4lessIS1_ESaISt4pairIKS1_jEEED2Ev = comdat any

$_ZNSt6vectorIN4llvh9SourceMgr9SrcBufferESaIS2_EED2Ev = comdat any

$_ZNSt12_Vector_baseINSt7__cxx1112basic_stringIcSt11char_traitsIcESaIcEEESaIS5_EE19_M_get_Tp_allocatorEv = comdat any

$_ZNSt12_Vector_baseINSt7__cxx1112basic_stringIcSt11char_traitsIcESaIcEEESaIS5_EED2Ev = comdat any

$_ZNSt12_Vector_baseINSt7__cxx1112basic_stringIcSt11char_traitsIcESaIcEEESaIS5_EE13_M_deallocateEPS5_m = comdat any

$_ZNSt12_Vector_baseINSt7__cxx1112basic_stringIcSt11char_traitsIcESaIcEEESaIS5_EE12_Vector_implD2Ev = comdat any

$_ZNSt8_Rb_treeIPKcSt4pairIKS1_jESt10_Select1stIS4_ESt4lessIS1_ESaIS4_EED2Ev = comdat any

$_ZNSt8_Rb_treeIPKcSt4pairIKS1_jESt10_Select1stIS4_ESt4lessIS1_ESaIS4_EE8_M_eraseEPSt13_Rb_tree_nodeIS4_E = comdat any

$_ZNSt8_Rb_treeIPKcSt4pairIKS1_jESt10_Select1stIS4_ESt4lessIS1_ESaIS4_EE8_M_beginEv = comdat any

$_ZNSt8_Rb_treeIPKcSt4pairIKS1_jESt10_Select1stIS4_ESt4lessIS1_ESaIS4_EE13_Rb_tree_implIS8_Lb1EED2Ev = comdat any

$_ZNSt8_Rb_treeIPKcSt4pairIKS1_jESt10_Select1stIS4_ESt4lessIS1_ESaIS4_EE8_S_rightEPSt18_Rb_tree_node_base = comdat any

$_ZNSt8_Rb_treeIPKcSt4pairIKS1_jESt10_Select1stIS4_ESt4lessIS1_ESaIS4_EE7_S_leftEPSt18_Rb_tree_node_base = comdat any

$_ZNSt8_Rb_treeIPKcSt4pairIKS1_jESt10_Select1stIS4_ESt4lessIS1_ESaIS4_EE12_M_drop_nodeEPSt13_Rb_tree_nodeIS4_E = comdat any

$_ZNSt8_Rb_treeIPKcSt4pairIKS1_jESt10_Select1stIS4_ESt4lessIS1_ESaIS4_EE15_M_destroy_nodeEPSt13_Rb_tree_nodeIS4_E = comdat any

$_ZNSt8_Rb_treeIPKcSt4pairIKS1_jESt10_Select1stIS4_ESt4lessIS1_ESaIS4_EE11_M_put_nodeEPSt13_Rb_tree_nodeIS4_E = comdat any

$_ZNSt16allocator_traitsISaISt13_Rb_tree_nodeISt4pairIKPKcjEEEE7destroyIS5_EEvRS7_PT_ = comdat any

$_ZNSt8_Rb_treeIPKcSt4pairIKS1_jESt10_Select1stIS4_ESt4lessIS1_ESaIS4_EE21_M_get_Node_allocatorEv = comdat any

$_ZNSt13_Rb_tree_nodeISt4pairIKPKcjEE9_M_valptrEv = comdat any

$_ZNSt15__new_allocatorISt13_Rb_tree_nodeISt4pairIKPKcjEEE7destroyIS5_EEvPT_ = comdat any

$_ZN9__gnu_cxx16__aligned_membufISt4pairIKPKcjEE6_M_ptrEv = comdat any

$_ZN9__gnu_cxx16__aligned_membufISt4pairIKPKcjEE7_M_addrEv = comdat any

$_ZNSt16allocator_traitsISaISt13_Rb_tree_nodeISt4pairIKPKcjEEEE10deallocateERS7_PS6_m = comdat any

$_ZNSt15__new_allocatorISt13_Rb_tree_nodeISt4pairIKPKcjEEE10deallocateEPS6_m = comdat any

$_ZNKSt8_Rb_treeIPKcSt4pairIKS1_jESt10_Select1stIS4_ESt4lessIS1_ESaIS4_EE9_M_mbeginEv = comdat any

$_ZNSaISt13_Rb_tree_nodeISt4pairIKPKcjEEED2Ev = comdat any

$_ZNSt15__new_allocatorISt13_Rb_tree_nodeISt4pairIKPKcjEEED2Ev = comdat any

$_ZSt8_DestroyIPN4llvh9SourceMgr9SrcBufferES2_EvT_S4_RSaIT0_E = comdat any

$_ZNSt12_Vector_baseIN4llvh9SourceMgr9SrcBufferESaIS2_EE19_M_get_Tp_allocatorEv = comdat any

$_ZNSt12_Vector_baseIN4llvh9SourceMgr9SrcBufferESaIS2_EED2Ev = comdat any

$_ZSt8_DestroyIPN4llvh9SourceMgr9SrcBufferEEvT_S4_ = comdat any

$_ZNSt12_Destroy_auxILb0EE9__destroyIPN4llvh9SourceMgr9SrcBufferEEEvT_S6_ = comdat any

$_ZSt8_DestroyIN4llvh9SourceMgr9SrcBufferEEvPT_ = comdat any

$_ZNSt12_Vector_baseIN4llvh9SourceMgr9SrcBufferESaIS2_EE13_M_deallocateEPS2_m = comdat any

$_ZNSt12_Vector_baseIN4llvh9SourceMgr9SrcBufferESaIS2_EE12_Vector_implD2Ev = comdat any

$_ZNSt16allocator_traitsISaIN4llvh9SourceMgr9SrcBufferEEE10deallocateERS3_PS2_m = comdat any

$_ZNSt15__new_allocatorIN4llvh9SourceMgr9SrcBufferEE10deallocateEPS2_m = comdat any

$_ZNSaIN4llvh9SourceMgr9SrcBufferEED2Ev = comdat any

$_ZNSt15__new_allocatorIN4llvh9SourceMgr9SrcBufferEED2Ev = comdat any

$_ZNSt8_Rb_treeISt4pairIPN6hermes12UniqueStringES3_ES0_IKS4_NS1_14CompiledRegExpEESt10_Select1stIS7_ESt4lessIS4_ESaIS7_EED2Ev = comdat any

$_ZNSt8_Rb_treeISt4pairIPN6hermes12UniqueStringES3_ES0_IKS4_NS1_14CompiledRegExpEESt10_Select1stIS7_ESt4lessIS4_ESaIS7_EE8_M_eraseEPSt13_Rb_tree_nodeIS7_E = comdat any

$_ZNSt8_Rb_treeISt4pairIPN6hermes12UniqueStringES3_ES0_IKS4_NS1_14CompiledRegExpEESt10_Select1stIS7_ESt4lessIS4_ESaIS7_EE8_M_beginEv = comdat any

$_ZNSt8_Rb_treeISt4pairIPN6hermes12UniqueStringES3_ES0_IKS4_NS1_14CompiledRegExpEESt10_Select1stIS7_ESt4lessIS4_ESaIS7_EE13_Rb_tree_implISB_Lb1EED2Ev = comdat any

$_ZNSt8_Rb_treeISt4pairIPN6hermes12UniqueStringES3_ES0_IKS4_NS1_14CompiledRegExpEESt10_Select1stIS7_ESt4lessIS4_ESaIS7_EE8_S_rightEPSt18_Rb_tree_node_base = comdat any

$_ZNSt8_Rb_treeISt4pairIPN6hermes12UniqueStringES3_ES0_IKS4_NS1_14CompiledRegExpEESt10_Select1stIS7_ESt4lessIS4_ESaIS7_EE7_S_leftEPSt18_Rb_tree_node_base = comdat any

$_ZNSt8_Rb_treeISt4pairIPN6hermes12UniqueStringES3_ES0_IKS4_NS1_14CompiledRegExpEESt10_Select1stIS7_ESt4lessIS4_ESaIS7_EE12_M_drop_nodeEPSt13_Rb_tree_nodeIS7_E = comdat any

$_ZNSt8_Rb_treeISt4pairIPN6hermes12UniqueStringES3_ES0_IKS4_NS1_14CompiledRegExpEESt10_Select1stIS7_ESt4lessIS4_ESaIS7_EE15_M_destroy_nodeEPSt13_Rb_tree_nodeIS7_E = comdat any

$_ZNSt8_Rb_treeISt4pairIPN6hermes12UniqueStringES3_ES0_IKS4_NS1_14CompiledRegExpEESt10_Select1stIS7_ESt4lessIS4_ESaIS7_EE11_M_put_nodeEPSt13_Rb_tree_nodeIS7_E = comdat any

$_ZNSt16allocator_traitsISaISt13_Rb_tree_nodeISt4pairIKS1_IPN6hermes12UniqueStringES4_ENS2_14CompiledRegExpEEEEE7destroyIS8_EEvRSA_PT_ = comdat any

$_ZNSt8_Rb_treeISt4pairIPN6hermes12UniqueStringES3_ES0_IKS4_NS1_14CompiledRegExpEESt10_Select1stIS7_ESt4lessIS4_ESaIS7_EE21_M_get_Node_allocatorEv = comdat any

$_ZNSt13_Rb_tree_nodeISt4pairIKS0_IPN6hermes12UniqueStringES3_ENS1_14CompiledRegExpEEE9_M_valptrEv = comdat any

$_ZNSt15__new_allocatorISt13_Rb_tree_nodeISt4pairIKS1_IPN6hermes12UniqueStringES4_ENS2_14CompiledRegExpEEEE7destroyIS8_EEvPT_ = comdat any

$_ZNSt4pairIKS_IPN6hermes12UniqueStringES2_ENS0_14CompiledRegExpEED2Ev = comdat any

$_ZN9__gnu_cxx16__aligned_membufISt4pairIKS1_IPN6hermes12UniqueStringES4_ENS2_14CompiledRegExpEEE6_M_ptrEv = comdat any

$_ZN9__gnu_cxx16__aligned_membufISt4pairIKS1_IPN6hermes12UniqueStringES4_ENS2_14CompiledRegExpEEE7_M_addrEv = comdat any

$_ZNSt16allocator_traitsISaISt13_Rb_tree_nodeISt4pairIKS1_IPN6hermes12UniqueStringES4_ENS2_14CompiledRegExpEEEEE10deallocateERSA_PS9_m = comdat any

$_ZNSt15__new_allocatorISt13_Rb_tree_nodeISt4pairIKS1_IPN6hermes12UniqueStringES4_ENS2_14CompiledRegExpEEEE10deallocateEPS9_m = comdat any

$_ZNKSt8_Rb_treeISt4pairIPN6hermes12UniqueStringES3_ES0_IKS4_NS1_14CompiledRegExpEESt10_Select1stIS7_ESt4lessIS4_ESaIS7_EE9_M_mbeginEv = comdat any

$_ZNSaISt13_Rb_tree_nodeISt4pairIKS0_IPN6hermes12UniqueStringES3_ENS1_14CompiledRegExpEEEED2Ev = comdat any

$_ZNSt15__new_allocatorISt13_Rb_tree_nodeISt4pairIKS1_IPN6hermes12UniqueStringES4_ENS2_14CompiledRegExpEEEED2Ev = comdat any

$_ZN4llvh8DenseMapINS_9StringRefEPN6hermes12UniqueStringENS_12DenseMapInfoIS1_EENS_6detail12DenseMapPairIS1_S4_EEED2Ev = comdat any

$_ZN4llvh12DenseMapBaseINS_8DenseMapINS_9StringRefEPN6hermes12UniqueStringENS_12DenseMapInfoIS2_EENS_6detail12DenseMapPairIS2_S5_EEEES2_S5_S7_SA_E10destroyAllEv = comdat any

$_ZN4llvh12DenseMapBaseINS_8DenseMapINS_9StringRefEPN6hermes12UniqueStringENS_12DenseMapInfoIS2_EENS_6detail12DenseMapPairIS2_S5_EEEES2_S5_S7_SA_E15getTombstoneKeyEv = comdat any

$_ZN4llvh6detail12DenseMapPairINS_9StringRefEPN6hermes12UniqueStringEE9getSecondEv = comdat any

$_ZNSt15__uniq_ptr_implIN6hermes6parser13PreParsedDataESt14default_deleteIS2_EE6_M_ptrEv = comdat any

$_ZNSt10unique_ptrIN6hermes6parser13PreParsedDataESt14default_deleteIS2_EE11get_deleterEv = comdat any

$_ZNKSt14default_deleteIN6hermes6parser13PreParsedDataEEclEPS2_ = comdat any

$_ZSt3getILm0EJPN6hermes6parser13PreParsedDataESt14default_deleteIS2_EEERNSt13tuple_elementIXT_ESt5tupleIJDpT0_EEE4typeERSA_ = comdat any

$_ZSt12__get_helperILm0EPN6hermes6parser13PreParsedDataEJSt14default_deleteIS2_EEERT0_RSt11_Tuple_implIXT_EJS6_DpT1_EE = comdat any

$_ZNSt11_Tuple_implILm0EJPN6hermes6parser13PreParsedDataESt14default_deleteIS2_EEE7_M_headERS6_ = comdat any

$_ZNSt10_Head_baseILm0EPN6hermes6parser13PreParsedDataELb0EE7_M_headERS4_ = comdat any

$_ZNSt15__uniq_ptr_implIN6hermes6parser13PreParsedDataESt14default_deleteIS2_EE10_M_deleterEv = comdat any

$_ZSt3getILm1EJPN6hermes6parser13PreParsedDataESt14default_deleteIS2_EEERNSt13tuple_elementIXT_ESt5tupleIJDpT0_EEE4typeERSA_ = comdat any

$_ZSt12__get_helperILm1ESt14default_deleteIN6hermes6parser13PreParsedDataEEJEERT0_RSt11_Tuple_implIXT_EJS5_DpT1_EE = comdat any

$_ZNSt11_Tuple_implILm1EJSt14default_deleteIN6hermes6parser13PreParsedDataEEEE7_M_headERS5_ = comdat any

$_ZNSt10_Head_baseILm1ESt14default_deleteIN6hermes6parser13PreParsedDataEELb1EE7_M_headERS5_ = comdat any

$_ZN6hermes6parser13PreParsedDataD2Ev = comdat any

$_ZN4llvh11SmallVectorISt10unique_ptrIN6hermes6parser19PreParsedBufferInfoESt14default_deleteIS4_EELj4EED2Ev = comdat any

$_ZN4llvh23SmallVectorTemplateBaseISt10unique_ptrIN6hermes6parser19PreParsedBufferInfoESt14default_deleteIS4_EELb0EE13destroy_rangeEPS7_S9_ = comdat any

$_ZN4llvh15SmallVectorImplISt10unique_ptrIN6hermes6parser19PreParsedBufferInfoESt14default_deleteIS4_EEED2Ev = comdat any

$_ZNSt10unique_ptrIN6hermes6parser19PreParsedBufferInfoESt14default_deleteIS2_EED2Ev = comdat any

$_ZNSt15__uniq_ptr_implIN6hermes6parser19PreParsedBufferInfoESt14default_deleteIS2_EE6_M_ptrEv = comdat any

$_ZNSt10unique_ptrIN6hermes6parser19PreParsedBufferInfoESt14default_deleteIS2_EE11get_deleterEv = comdat any

$_ZNKSt14default_deleteIN6hermes6parser19PreParsedBufferInfoEEclEPS2_ = comdat any

$_ZSt3getILm0EJPN6hermes6parser19PreParsedBufferInfoESt14default_deleteIS2_EEERNSt13tuple_elementIXT_ESt5tupleIJDpT0_EEE4typeERSA_ = comdat any

$_ZSt12__get_helperILm0EPN6hermes6parser19PreParsedBufferInfoEJSt14default_deleteIS2_EEERT0_RSt11_Tuple_implIXT_EJS6_DpT1_EE = comdat any

$_ZNSt11_Tuple_implILm0EJPN6hermes6parser19PreParsedBufferInfoESt14default_deleteIS2_EEE7_M_headERS6_ = comdat any

$_ZNSt10_Head_baseILm0EPN6hermes6parser19PreParsedBufferInfoELb0EE7_M_headERS4_ = comdat any

$_ZNSt15__uniq_ptr_implIN6hermes6parser19PreParsedBufferInfoESt14default_deleteIS2_EE10_M_deleterEv = comdat any

$_ZSt3getILm1EJPN6hermes6parser19PreParsedBufferInfoESt14default_deleteIS2_EEERNSt13tuple_elementIXT_ESt5tupleIJDpT0_EEE4typeERSA_ = comdat any

$_ZSt12__get_helperILm1ESt14default_deleteIN6hermes6parser19PreParsedBufferInfoEEJEERT0_RSt11_Tuple_implIXT_EJS5_DpT1_EE = comdat any

$_ZNSt11_Tuple_implILm1EJSt14default_deleteIN6hermes6parser19PreParsedBufferInfoEEEE7_M_headERS5_ = comdat any

$_ZNSt10_Head_baseILm1ESt14default_deleteIN6hermes6parser19PreParsedBufferInfoEELb1EE7_M_headERS5_ = comdat any

$_ZN6hermes6parser19PreParsedBufferInfoD2Ev = comdat any

$_ZN4llvh8DenseMapINS_5SMLocEN6hermes6parser21PreParsedFunctionInfoENS3_9SMLocInfoENS_6detail12DenseMapPairIS1_S4_EEED2Ev = comdat any

$_ZN4llvh12DenseMapBaseINS_8DenseMapINS_5SMLocEN6hermes6parser21PreParsedFunctionInfoENS4_9SMLocInfoENS_6detail12DenseMapPairIS2_S5_EEEES2_S5_S6_S9_E10destroyAllEv = comdat any

$_ZNK4llvh12DenseMapBaseINS_8DenseMapINS_5SMLocEN6hermes6parser21PreParsedFunctionInfoENS4_9SMLocInfoENS_6detail12DenseMapPairIS2_S5_EEEES2_S5_S6_S9_E13getNumBucketsEv = comdat any

$_ZN4llvh12DenseMapBaseINS_8DenseMapINS_5SMLocEN6hermes6parser21PreParsedFunctionInfoENS4_9SMLocInfoENS_6detail12DenseMapPairIS2_S5_EEEES2_S5_S6_S9_E11getEmptyKeyEv = comdat any

$_ZN4llvh12DenseMapBaseINS_8DenseMapINS_5SMLocEN6hermes6parser21PreParsedFunctionInfoENS4_9SMLocInfoENS_6detail12DenseMapPairIS2_S5_EEEES2_S5_S6_S9_E15getTombstoneKeyEv = comdat any

$_ZN4llvh12DenseMapBaseINS_8DenseMapINS_5SMLocEN6hermes6parser21PreParsedFunctionInfoENS4_9SMLocInfoENS_6detail12DenseMapPairIS2_S5_EEEES2_S5_S6_S9_E10getBucketsEv = comdat any

$_ZN4llvh12DenseMapBaseINS_8DenseMapINS_5SMLocEN6hermes6parser21PreParsedFunctionInfoENS4_9SMLocInfoENS_6detail12DenseMapPairIS2_S5_EEEES2_S5_S6_S9_E13getBucketsEndEv = comdat any

$_ZN6hermes6parser9SMLocInfo7isEqualERKN4llvh5SMLocES5_ = comdat any

$_ZN4llvh6detail12DenseMapPairINS_5SMLocEN6hermes6parser21PreParsedFunctionInfoEE8getFirstEv = comdat any

$_ZN4llvh6detail12DenseMapPairINS_5SMLocEN6hermes6parser21PreParsedFunctionInfoEE9getSecondEv = comdat any

$_ZN6hermes6parser21PreParsedFunctionInfoD2Ev = comdat any

$_ZNK4llvh8DenseMapINS_5SMLocEN6hermes6parser21PreParsedFunctionInfoENS3_9SMLocInfoENS_6detail12DenseMapPairIS1_S4_EEE13getNumBucketsEv = comdat any

$_ZN6hermes6parser9SMLocInfo11getEmptyKeyEv = comdat any

$_ZN4llvh5SMLoc14getFromPointerEPKc = comdat any

$_ZN6hermes6parser9SMLocInfo15getTombstoneKeyEv = comdat any

$_ZNK4llvh8DenseMapINS_5SMLocEN6hermes6parser21PreParsedFunctionInfoENS3_9SMLocInfoENS_6detail12DenseMapPairIS1_S4_EEE10getBucketsEv = comdat any

$_ZNK4llvh5SMLoceqERKS0_ = comdat any

$_ZN4llvh11SmallVectorINS_11SmallStringILj24EEELj1EED2Ev = comdat any

$_ZN4llvh23SmallVectorTemplateBaseINS_11SmallStringILj24EEELb0EE13destroy_rangeEPS2_S4_ = comdat any

$_ZN4llvh15SmallVectorImplINS_11SmallStringILj24EEEED2Ev = comdat any

$_ZN4llvh11SmallStringILj24EED2Ev = comdat any

$_ZN4llvh11SmallVectorIcLj24EED2Ev = comdat any

$_ZN4llvh23SmallVectorTemplateBaseIcLb1EE13destroy_rangeEPcS2_ = comdat any

$_ZN4llvh15SmallVectorImplIcED2Ev = comdat any

$_ZNK4llvh25SmallVectorTemplateCommonIcvE7isSmallEv = comdat any

$_ZNK4llvh25SmallVectorTemplateCommonIcvE10getFirstElEv = comdat any

$_ZNK4llvh25SmallVectorTemplateCommonINS_11SmallStringILj24EEEvE7isSmallEv = comdat any

$_ZNK4llvh25SmallVectorTemplateCommonINS_11SmallStringILj24EEEvE10getFirstElEv = comdat any

$_ZNK4llvh25SmallVectorTemplateCommonISt10unique_ptrIN6hermes6parser19PreParsedBufferInfoESt14default_deleteIS4_EEvE7isSmallEv = comdat any

$_ZNK4llvh25SmallVectorTemplateCommonISt10unique_ptrIN6hermes6parser19PreParsedBufferInfoESt14default_deleteIS4_EEvE10getFirstElEv = comdat any

$_ZN6hermes28BacktrackingBumpPtrAllocator8popScopeEv = comdat any

$_ZNSt6vectorISt10unique_ptrIN6hermes28BacktrackingBumpPtrAllocator4SlabESt14default_deleteIS3_EESaIS6_EED2Ev = comdat any

$_ZN6hermes28BacktrackingBumpPtrAllocator5StateD2Ev = comdat any

$_ZN4llvh11SmallVectorISt10unique_ptrIvPDoFvPvEELj0EED2Ev = comdat any

$_ZN4llvh23SmallVectorTemplateBaseISt10unique_ptrIvPDoFvPvEELb0EE13destroy_rangeEPS5_S7_ = comdat any

$_ZN4llvh15SmallVectorImplISt10unique_ptrIvPDoFvPvEEED2Ev = comdat any

$_ZNSt10unique_ptrIvPDoFvPvEED2Ev = comdat any

$_ZNSt15__uniq_ptr_implIvPDoFvPvEE6_M_ptrEv = comdat any

$_ZNSt10unique_ptrIvPDoFvPvEE11get_deleterEv = comdat any

$_ZSt3getILm0EJPvPDoFvS0_EEERNSt13tuple_elementIXT_ESt5tupleIJDpT0_EEE4typeERS7_ = comdat any

$_ZSt12__get_helperILm0EPvJPDoFvS0_EEERT0_RSt11_Tuple_implIXT_EJS3_DpT1_EE = comdat any

$_ZNSt11_Tuple_implILm0EJPvPDoFvS0_EEE7_M_headERS3_ = comdat any

$_ZNSt10_Head_baseILm0EPvLb0EE7_M_headERS1_ = comdat any

$_ZNSt15__uniq_ptr_implIvPDoFvPvEE10_M_deleterEv = comdat any

$_ZSt3getILm1EJPvPDoFvS0_EEERNSt13tuple_elementIXT_ESt5tupleIJDpT0_EEE4typeERS7_ = comdat any

$_ZSt12__get_helperILm1EPDoFvPvEJEERT0_RSt11_Tuple_implIXT_EJS3_DpT1_EE = comdat any

$_ZNSt11_Tuple_implILm1EJPDoFvPvEEE7_M_headERS3_ = comdat any

$_ZNSt10_Head_baseILm1EPDoFvPvELb0EE7_M_headERS3_ = comdat any

$_ZNK4llvh25SmallVectorTemplateCommonISt10unique_ptrIvPDoFvPvEEvE7isSmallEv = comdat any

$_ZSt8_DestroyIPSt10unique_ptrIN6hermes28BacktrackingBumpPtrAllocator4SlabESt14default_deleteIS3_EES6_EvT_S8_RSaIT0_E = comdat any

$_ZNSt12_Vector_baseISt10unique_ptrIN6hermes28BacktrackingBumpPtrAllocator4SlabESt14default_deleteIS3_EESaIS6_EED2Ev = comdat any

$_ZSt8_DestroyIPSt10unique_ptrIN6hermes28BacktrackingBumpPtrAllocator4SlabESt14default_deleteIS3_EEEvT_S8_ = comdat any

$_ZNSt12_Destroy_auxILb0EE9__destroyIPSt10unique_ptrIN6hermes28BacktrackingBumpPtrAllocator4SlabESt14default_deleteIS5_EEEEvT_SA_ = comdat any

$_ZSt8_DestroyISt10unique_ptrIN6hermes28BacktrackingBumpPtrAllocator4SlabESt14default_deleteIS3_EEEvPT_ = comdat any

$_ZNSt12_Vector_baseISt10unique_ptrIN6hermes28BacktrackingBumpPtrAllocator4SlabESt14default_deleteIS3_EESaIS6_EE12_Vector_implD2Ev = comdat any

$_ZNSaISt10unique_ptrIN6hermes28BacktrackingBumpPtrAllocator4SlabESt14default_deleteIS2_EEED2Ev = comdat any

$_ZNSt15__new_allocatorISt10unique_ptrIN6hermes28BacktrackingBumpPtrAllocator4SlabESt14default_deleteIS3_EEED2Ev = comdat any

$_ZNK4llvh12DenseMapBaseINS_8DenseMapIjNSt7__cxx1112basic_stringIcSt11char_traitsIcESaIcEEENS_12DenseMapInfoIjEENS_6detail12DenseMapPairIjS7_EEEEjS7_S9_SC_E4findERKj = comdat any

$_ZNK4llvh16DenseMapIteratorIjNSt7__cxx1112basic_stringIcSt11char_traitsIcESaIcEEENS_12DenseMapInfoIjEENS_6detail12DenseMapPairIjS6_EELb1EEneERKSC_ = comdat any

$_ZNK4llvh12DenseMapBaseINS_8DenseMapIjNSt7__cxx1112basic_stringIcSt11char_traitsIcESaIcEEENS_12DenseMapInfoIjEENS_6detail12DenseMapPairIjS7_EEEEjS7_S9_SC_E3endEv = comdat any

$_ZNK4llvh16DenseMapIteratorIjNSt7__cxx1112basic_stringIcSt11char_traitsIcESaIcEEENS_12DenseMapInfoIjEENS_6detail12DenseMapPairIjS6_EELb1EEptEv = comdat any

$_ZNK4llvh12DenseMapBaseINS_8DenseMapIjNSt7__cxx1112basic_stringIcSt11char_traitsIcESaIcEEENS_12DenseMapInfoIjEENS_6detail12DenseMapPairIjS7_EEEEjS7_S9_SC_E15LookupBucketForIjEEbRKT_RPKSC_ = comdat any

$_ZNK4llvh12DenseMapBaseINS_8DenseMapIjNSt7__cxx1112basic_stringIcSt11char_traitsIcESaIcEEENS_12DenseMapInfoIjEENS_6detail12DenseMapPairIjS7_EEEEjS7_S9_SC_E17makeConstIteratorEPKSC_SG_RKNS_14DebugEpochBaseEb = comdat any

$_ZNK4llvh12DenseMapBaseINS_8DenseMapIjNSt7__cxx1112basic_stringIcSt11char_traitsIcESaIcEEENS_12DenseMapInfoIjEENS_6detail12DenseMapPairIjS7_EEEEjS7_S9_SC_E13getBucketsEndEv = comdat any

$_ZNK4llvh12DenseMapBaseINS_8DenseMapIjNSt7__cxx1112basic_stringIcSt11char_traitsIcESaIcEEENS_12DenseMapInfoIjEENS_6detail12DenseMapPairIjS7_EEEEjS7_S9_SC_E10getBucketsEv = comdat any

$_ZN4llvh12DenseMapBaseINS_8DenseMapIjNSt7__cxx1112basic_stringIcSt11char_traitsIcESaIcEEENS_12DenseMapInfoIjEENS_6detail12DenseMapPairIjS7_EEEEjS7_S9_SC_E12getHashValueERKj = comdat any

$_ZNK4llvh6detail12DenseMapPairIjNSt7__cxx1112basic_stringIcSt11char_traitsIcESaIcEEEE8getFirstEv = comdat any

$_ZN4llvh12DenseMapInfoIjE12getHashValueERKj = comdat any

$_ZN4llvh20shouldReverseIterateIjEEbv = comdat any

$_ZN4llvh16DenseMapIteratorIjNSt7__cxx1112basic_stringIcSt11char_traitsIcESaIcEEENS_12DenseMapInfoIjEENS_6detail12DenseMapPairIjS6_EELb1EEC2EPKSB_SE_RKNS_14DebugEpochBaseEb = comdat any

$_ZN4llvh14DebugEpochBase10HandleBaseC2EPKS0_ = comdat any

$_ZN4llvh16DenseMapIteratorIjNSt7__cxx1112basic_stringIcSt11char_traitsIcESaIcEEENS_12DenseMapInfoIjEENS_6detail12DenseMapPairIjS6_EELb1EE23RetreatPastEmptyBucketsEv = comdat any

$_ZN4llvh16DenseMapIteratorIjNSt7__cxx1112basic_stringIcSt11char_traitsIcESaIcEEENS_12DenseMapInfoIjEENS_6detail12DenseMapPairIjS6_EELb1EE23AdvancePastEmptyBucketsEv = comdat any

$_ZNK4llvh16DenseMapIteratorIjNSt7__cxx1112basic_stringIcSt11char_traitsIcESaIcEEENS_12DenseMapInfoIjEENS_6detail12DenseMapPairIjS6_EELb1EEeqERKSC_ = comdat any

$_ZNK6hermes6ESTree4Node7getKindEv = comdat any

$_ZSt8_DestroyIPN6hermes6parser13StoredCommentES2_EvT_S4_RSaIT0_E = comdat any

$_ZNSt12_Vector_baseIN6hermes6parser13StoredCommentESaIS2_EE19_M_get_Tp_allocatorEv = comdat any

$_ZNSt12_Vector_baseIN6hermes6parser13StoredCommentESaIS2_EED2Ev = comdat any

$_ZSt8_DestroyIPN6hermes6parser13StoredCommentEEvT_S4_ = comdat any

$_ZNSt12_Destroy_auxILb1EE9__destroyIPN6hermes6parser13StoredCommentEEEvT_S6_ = comdat any

$_ZNSt12_Vector_baseIN6hermes6parser13StoredCommentESaIS2_EE13_M_deallocateEPS2_m = comdat any

$_ZNSt12_Vector_baseIN6hermes6parser13StoredCommentESaIS2_EE12_Vector_implD2Ev = comdat any

$_ZNSt16allocator_traitsISaIN6hermes6parser13StoredCommentEEE10deallocateERS3_PS2_m = comdat any

$_ZNSt15__new_allocatorIN6hermes6parser13StoredCommentEE10deallocateEPS2_m = comdat any

$_ZNSt15__new_allocatorIN6hermes6parser13StoredCommentEED2Ev = comdat any

$_ZNKSt6vectorIN6hermes6parser13StoredCommentESaIS2_EE4dataEv = comdat any

$_ZNKSt6vectorIN6hermes6parser13StoredCommentESaIS2_EE4sizeEv = comdat any

$_ZNKSt6vectorIN6hermes6parser13StoredCommentESaIS2_EE11_M_data_ptrIS2_EEPT_S7_ = comdat any

$_ZNSt6vectorIN6hermes6parser13StoredCommentESaIS2_EE14_M_move_assignEOS4_St17integral_constantIbLb1EE = comdat any

$_ZNKSt12_Vector_baseIN6hermes6parser13StoredCommentESaIS2_EE13get_allocatorEv = comdat any

$_ZNSt6vectorIN6hermes6parser13StoredCommentESaIS2_EEC2ERKS3_ = comdat any

$_ZNSaIN6hermes6parser13StoredCommentEED2Ev = comdat any

$_ZNSt12_Vector_baseIN6hermes6parser13StoredCommentESaIS2_EE17_Vector_impl_data12_M_swap_dataERS5_ = comdat any

$_ZSt15__alloc_on_moveISaIN6hermes6parser13StoredCommentEEEvRT_S5_ = comdat any

$_ZNKSt12_Vector_baseIN6hermes6parser13StoredCommentESaIS2_EE19_M_get_Tp_allocatorEv = comdat any

$_ZNSaIN6hermes6parser13StoredCommentEEC2ERKS2_ = comdat any

$_ZNSt15__new_allocatorIN6hermes6parser13StoredCommentEEC2ERKS3_ = comdat any

$_ZNSt12_Vector_baseIN6hermes6parser13StoredCommentESaIS2_EEC2ERKS3_ = comdat any

$_ZNSt12_Vector_baseIN6hermes6parser13StoredCommentESaIS2_EE12_Vector_implC2ERKS3_ = comdat any

$_ZNSt12_Vector_baseIN6hermes6parser13StoredCommentESaIS2_EE17_Vector_impl_dataC2Ev = comdat any

$_ZNSt12_Vector_baseIN6hermes6parser13StoredCommentESaIS2_EE17_Vector_impl_data12_M_copy_dataERKS5_ = comdat any

$_ZN4llvh8OptionalIPN6hermes6ESTree11ProgramNodeEE10getPointerEv = comdat any

$_ZNK4llvh8OptionalImE10getPointerEv = comdat any

$_ZN4llvh8OptionalIN6hermes18SourceErrorManager9LineCoordEE10getPointerEv = comdat any

@.str = private unnamed_addr constant [29 x i8] c"Input is not zero terminated\00", align 1
@.str.1 = private unnamed_addr constant [15 x i8] c"Internal error\00", align 1
@.str.2 = private unnamed_addr constant [26 x i8] c"vector::_M_realloc_insert\00", align 1
@.str.3 = private unnamed_addr constant [48 x i8] c"SmallVector capacity overflow during allocation\00", align 1
@.str.4 = private unnamed_addr constant [18 x i8] c"Allocation failed\00", align 1
@.str.5 = private unnamed_addr constant [48 x i8] c"cannot create std::deque larger than max_size()\00", align 1
@.str.6 = private unnamed_addr constant [11 x i8] c"JavaScript\00", align 1
@__libc_single_threaded = external global i8, align 1
@.str.7 = private unnamed_addr constant [1 x i8] zeroinitializer, align 1
@.str.8 = private unnamed_addr constant [6 x i8] c"Empty\00", align 1
@.str.9 = private unnamed_addr constant [9 x i8] c"Metadata\00", align 1
@.str.10 = private unnamed_addr constant [8 x i8] c"Program\00", align 1
@.str.11 = private unnamed_addr constant [19 x i8] c"FunctionExpression\00", align 1
@.str.12 = private unnamed_addr constant [24 x i8] c"ArrowFunctionExpression\00", align 1
@.str.13 = private unnamed_addr constant [20 x i8] c"FunctionDeclaration\00", align 1
@.str.14 = private unnamed_addr constant [21 x i8] c"ComponentDeclaration\00", align 1
@.str.15 = private unnamed_addr constant [15 x i8] c"WhileStatement\00", align 1
@.str.16 = private unnamed_addr constant [17 x i8] c"DoWhileStatement\00", align 1
@.str.17 = private unnamed_addr constant [15 x i8] c"ForInStatement\00", align 1
@.str.18 = private unnamed_addr constant [15 x i8] c"ForOfStatement\00", align 1
@.str.19 = private unnamed_addr constant [13 x i8] c"ForStatement\00", align 1
@.str.20 = private unnamed_addr constant [18 x i8] c"DebuggerStatement\00", align 1
@.str.21 = private unnamed_addr constant [15 x i8] c"EmptyStatement\00", align 1
@.str.22 = private unnamed_addr constant [15 x i8] c"BlockStatement\00", align 1
@.str.23 = private unnamed_addr constant [15 x i8] c"BreakStatement\00", align 1
@.str.24 = private unnamed_addr constant [18 x i8] c"ContinueStatement\00", align 1
@.str.25 = private unnamed_addr constant [15 x i8] c"ThrowStatement\00", align 1
@.str.26 = private unnamed_addr constant [16 x i8] c"ReturnStatement\00", align 1
@.str.27 = private unnamed_addr constant [14 x i8] c"WithStatement\00", align 1
@.str.28 = private unnamed_addr constant [16 x i8] c"SwitchStatement\00", align 1
@.str.29 = private unnamed_addr constant [17 x i8] c"LabeledStatement\00", align 1
@.str.30 = private unnamed_addr constant [20 x i8] c"ExpressionStatement\00", align 1
@.str.31 = private unnamed_addr constant [13 x i8] c"TryStatement\00", align 1
@.str.32 = private unnamed_addr constant [12 x i8] c"IfStatement\00", align 1
@.str.33 = private unnamed_addr constant [12 x i8] c"NullLiteral\00", align 1
@.str.34 = private unnamed_addr constant [15 x i8] c"BooleanLiteral\00", align 1
@.str.35 = private unnamed_addr constant [14 x i8] c"StringLiteral\00", align 1
@.str.36 = private unnamed_addr constant [15 x i8] c"NumericLiteral\00", align 1
@.str.37 = private unnamed_addr constant [14 x i8] c"RegExpLiteral\00", align 1
@.str.38 = private unnamed_addr constant [14 x i8] c"BigIntLiteral\00", align 1
@.str.39 = private unnamed_addr constant [15 x i8] c"ThisExpression\00", align 1
@.str.40 = private unnamed_addr constant [6 x i8] c"Super\00", align 1
@.str.41 = private unnamed_addr constant [19 x i8] c"SequenceExpression\00", align 1
@.str.42 = private unnamed_addr constant [17 x i8] c"ObjectExpression\00", align 1
@.str.43 = private unnamed_addr constant [16 x i8] c"ArrayExpression\00", align 1
@.str.44 = private unnamed_addr constant [14 x i8] c"SpreadElement\00", align 1
@.str.45 = private unnamed_addr constant [14 x i8] c"NewExpression\00", align 1
@.str.46 = private unnamed_addr constant [16 x i8] c"YieldExpression\00", align 1
@.str.47 = private unnamed_addr constant [16 x i8] c"AwaitExpression\00", align 1
@.str.48 = private unnamed_addr constant [17 x i8] c"ImportExpression\00", align 1
@.str.49 = private unnamed_addr constant [15 x i8] c"CallExpression\00", align 1
@.str.50 = private unnamed_addr constant [23 x i8] c"OptionalCallExpression\00", align 1
@.str.51 = private unnamed_addr constant [21 x i8] c"AssignmentExpression\00", align 1
@.str.52 = private unnamed_addr constant [16 x i8] c"UnaryExpression\00", align 1
@.str.53 = private unnamed_addr constant [17 x i8] c"UpdateExpression\00", align 1
@.str.54 = private unnamed_addr constant [17 x i8] c"MemberExpression\00", align 1
@.str.55 = private unnamed_addr constant [25 x i8] c"OptionalMemberExpression\00", align 1
@.str.56 = private unnamed_addr constant [18 x i8] c"LogicalExpression\00", align 1
@.str.57 = private unnamed_addr constant [22 x i8] c"ConditionalExpression\00", align 1
@.str.58 = private unnamed_addr constant [17 x i8] c"BinaryExpression\00", align 1
@.str.59 = private unnamed_addr constant [10 x i8] c"Directive\00", align 1
@.str.60 = private unnamed_addr constant [17 x i8] c"DirectiveLiteral\00", align 1
@.str.61 = private unnamed_addr constant [11 x i8] c"Identifier\00", align 1
@.str.62 = private unnamed_addr constant [12 x i8] c"PrivateName\00", align 1
@.str.63 = private unnamed_addr constant [13 x i8] c"MetaProperty\00", align 1
@.str.64 = private unnamed_addr constant [11 x i8] c"SwitchCase\00", align 1
@.str.65 = private unnamed_addr constant [12 x i8] c"CatchClause\00", align 1
@.str.66 = private unnamed_addr constant [19 x i8] c"VariableDeclarator\00", align 1
@.str.67 = private unnamed_addr constant [20 x i8] c"VariableDeclaration\00", align 1
@.str.68 = private unnamed_addr constant [16 x i8] c"TemplateLiteral\00", align 1
@.str.69 = private unnamed_addr constant [25 x i8] c"TaggedTemplateExpression\00", align 1
@.str.70 = private unnamed_addr constant [16 x i8] c"TemplateElement\00", align 1
@.str.71 = private unnamed_addr constant [9 x i8] c"Property\00", align 1
@.str.72 = private unnamed_addr constant [17 x i8] c"ClassDeclaration\00", align 1
@.str.73 = private unnamed_addr constant [16 x i8] c"ClassExpression\00", align 1
@.str.74 = private unnamed_addr constant [10 x i8] c"ClassBody\00", align 1
@.str.75 = private unnamed_addr constant [14 x i8] c"ClassProperty\00", align 1
@.str.76 = private unnamed_addr constant [21 x i8] c"ClassPrivateProperty\00", align 1
@.str.77 = private unnamed_addr constant [17 x i8] c"MethodDefinition\00", align 1
@.str.78 = private unnamed_addr constant [18 x i8] c"ImportDeclaration\00", align 1
@.str.79 = private unnamed_addr constant [16 x i8] c"ImportSpecifier\00", align 1
@.str.80 = private unnamed_addr constant [23 x i8] c"ImportDefaultSpecifier\00", align 1
@.str.81 = private unnamed_addr constant [25 x i8] c"ImportNamespaceSpecifier\00", align 1
@.str.82 = private unnamed_addr constant [16 x i8] c"ImportAttribute\00", align 1
@.str.83 = private unnamed_addr constant [23 x i8] c"ExportNamedDeclaration\00", align 1
@.str.84 = private unnamed_addr constant [16 x i8] c"ExportSpecifier\00", align 1
@.str.85 = private unnamed_addr constant [25 x i8] c"ExportNamespaceSpecifier\00", align 1
@.str.86 = private unnamed_addr constant [25 x i8] c"ExportDefaultDeclaration\00", align 1
@.str.87 = private unnamed_addr constant [21 x i8] c"ExportAllDeclaration\00", align 1
@.str.88 = private unnamed_addr constant [14 x i8] c"ObjectPattern\00", align 1
@.str.89 = private unnamed_addr constant [13 x i8] c"ArrayPattern\00", align 1
@.str.90 = private unnamed_addr constant [12 x i8] c"RestElement\00", align 1
@.str.91 = private unnamed_addr constant [18 x i8] c"AssignmentPattern\00", align 1
@.str.92 = private unnamed_addr constant [14 x i8] c"JSXIdentifier\00", align 1
@.str.93 = private unnamed_addr constant [20 x i8] c"JSXMemberExpression\00", align 1
@.str.94 = private unnamed_addr constant [18 x i8] c"JSXNamespacedName\00", align 1
@.str.95 = private unnamed_addr constant [19 x i8] c"JSXEmptyExpression\00", align 1
@.str.96 = private unnamed_addr constant [23 x i8] c"JSXExpressionContainer\00", align 1
@.str.97 = private unnamed_addr constant [15 x i8] c"JSXSpreadChild\00", align 1
@.str.98 = private unnamed_addr constant [18 x i8] c"JSXOpeningElement\00", align 1
@.str.99 = private unnamed_addr constant [18 x i8] c"JSXClosingElement\00", align 1
@.str.100 = private unnamed_addr constant [13 x i8] c"JSXAttribute\00", align 1
@.str.101 = private unnamed_addr constant [19 x i8] c"JSXSpreadAttribute\00", align 1
@.str.102 = private unnamed_addr constant [17 x i8] c"JSXStringLiteral\00", align 1
@.str.103 = private unnamed_addr constant [8 x i8] c"JSXText\00", align 1
@.str.104 = private unnamed_addr constant [11 x i8] c"JSXElement\00", align 1
@.str.105 = private unnamed_addr constant [12 x i8] c"JSXFragment\00", align 1
@.str.106 = private unnamed_addr constant [19 x i8] c"JSXOpeningFragment\00", align 1
@.str.107 = private unnamed_addr constant [19 x i8] c"JSXClosingFragment\00", align 1
@.str.108 = private unnamed_addr constant [21 x i8] c"ExistsTypeAnnotation\00", align 1
@.str.109 = private unnamed_addr constant [20 x i8] c"EmptyTypeAnnotation\00", align 1
@.str.110 = private unnamed_addr constant [21 x i8] c"StringTypeAnnotation\00", align 1
@.str.111 = private unnamed_addr constant [21 x i8] c"NumberTypeAnnotation\00", align 1
@.str.112 = private unnamed_addr constant [28 x i8] c"StringLiteralTypeAnnotation\00", align 1
@.str.113 = private unnamed_addr constant [28 x i8] c"NumberLiteralTypeAnnotation\00", align 1
@.str.114 = private unnamed_addr constant [28 x i8] c"BigIntLiteralTypeAnnotation\00", align 1
@.str.115 = private unnamed_addr constant [22 x i8] c"BooleanTypeAnnotation\00", align 1
@.str.116 = private unnamed_addr constant [29 x i8] c"BooleanLiteralTypeAnnotation\00", align 1
@.str.117 = private unnamed_addr constant [26 x i8] c"NullLiteralTypeAnnotation\00", align 1
@.str.118 = private unnamed_addr constant [21 x i8] c"SymbolTypeAnnotation\00", align 1
@.str.119 = private unnamed_addr constant [18 x i8] c"AnyTypeAnnotation\00", align 1
@.str.120 = private unnamed_addr constant [20 x i8] c"MixedTypeAnnotation\00", align 1
@.str.121 = private unnamed_addr constant [21 x i8] c"BigIntTypeAnnotation\00", align 1
@.str.122 = private unnamed_addr constant [19 x i8] c"VoidTypeAnnotation\00", align 1
@.str.123 = private unnamed_addr constant [23 x i8] c"FunctionTypeAnnotation\00", align 1
@.str.124 = private unnamed_addr constant [18 x i8] c"FunctionTypeParam\00", align 1
@.str.125 = private unnamed_addr constant [24 x i8] c"ComponentTypeAnnotation\00", align 1
@.str.126 = private unnamed_addr constant [23 x i8] c"ComponentTypeParameter\00", align 1
@.str.127 = private unnamed_addr constant [23 x i8] c"NullableTypeAnnotation\00", align 1
@.str.128 = private unnamed_addr constant [24 x i8] c"QualifiedTypeIdentifier\00", align 1
@.str.129 = private unnamed_addr constant [21 x i8] c"TypeofTypeAnnotation\00", align 1
@.str.130 = private unnamed_addr constant [20 x i8] c"KeyofTypeAnnotation\00", align 1
@.str.131 = private unnamed_addr constant [13 x i8] c"TypeOperator\00", align 1
@.str.132 = private unnamed_addr constant [26 x i8] c"QualifiedTypeofIdentifier\00", align 1
@.str.133 = private unnamed_addr constant [20 x i8] c"TupleTypeAnnotation\00", align 1
@.str.134 = private unnamed_addr constant [23 x i8] c"TupleTypeSpreadElement\00", align 1
@.str.135 = private unnamed_addr constant [24 x i8] c"TupleTypeLabeledElement\00", align 1
@.str.136 = private unnamed_addr constant [20 x i8] c"ArrayTypeAnnotation\00", align 1
@.str.137 = private unnamed_addr constant [20 x i8] c"InferTypeAnnotation\00", align 1
@.str.138 = private unnamed_addr constant [20 x i8] c"UnionTypeAnnotation\00", align 1
@.str.139 = private unnamed_addr constant [27 x i8] c"IntersectionTypeAnnotation\00", align 1
@.str.140 = private unnamed_addr constant [22 x i8] c"GenericTypeAnnotation\00", align 1
@.str.141 = private unnamed_addr constant [18 x i8] c"IndexedAccessType\00", align 1
@.str.142 = private unnamed_addr constant [26 x i8] c"OptionalIndexedAccessType\00", align 1
@.str.143 = private unnamed_addr constant [26 x i8] c"ConditionalTypeAnnotation\00", align 1
@.str.144 = private unnamed_addr constant [14 x i8] c"TypePredicate\00", align 1
@.str.145 = private unnamed_addr constant [24 x i8] c"InterfaceTypeAnnotation\00", align 1
@.str.146 = private unnamed_addr constant [10 x i8] c"TypeAlias\00", align 1
@.str.147 = private unnamed_addr constant [11 x i8] c"OpaqueType\00", align 1
@.str.148 = private unnamed_addr constant [21 x i8] c"InterfaceDeclaration\00", align 1
@.str.149 = private unnamed_addr constant [17 x i8] c"DeclareTypeAlias\00", align 1
@.str.150 = private unnamed_addr constant [18 x i8] c"DeclareOpaqueType\00", align 1
@.str.151 = private unnamed_addr constant [17 x i8] c"DeclareInterface\00", align 1
@.str.152 = private unnamed_addr constant [13 x i8] c"DeclareClass\00", align 1
@.str.153 = private unnamed_addr constant [16 x i8] c"DeclareFunction\00", align 1
@.str.154 = private unnamed_addr constant [17 x i8] c"DeclareComponent\00", align 1
@.str.155 = private unnamed_addr constant [16 x i8] c"DeclareVariable\00", align 1
@.str.156 = private unnamed_addr constant [12 x i8] c"DeclareEnum\00", align 1
@.str.157 = private unnamed_addr constant [25 x i8] c"DeclareExportDeclaration\00", align 1
@.str.158 = private unnamed_addr constant [28 x i8] c"DeclareExportAllDeclaration\00", align 1
@.str.159 = private unnamed_addr constant [14 x i8] c"DeclareModule\00", align 1
@.str.160 = private unnamed_addr constant [21 x i8] c"DeclareModuleExports\00", align 1
@.str.161 = private unnamed_addr constant [17 x i8] c"InterfaceExtends\00", align 1
@.str.162 = private unnamed_addr constant [16 x i8] c"ClassImplements\00", align 1
@.str.163 = private unnamed_addr constant [15 x i8] c"TypeAnnotation\00", align 1
@.str.164 = private unnamed_addr constant [21 x i8] c"ObjectTypeAnnotation\00", align 1
@.str.165 = private unnamed_addr constant [19 x i8] c"ObjectTypeProperty\00", align 1
@.str.166 = private unnamed_addr constant [25 x i8] c"ObjectTypeSpreadProperty\00", align 1
@.str.167 = private unnamed_addr constant [23 x i8] c"ObjectTypeInternalSlot\00", align 1
@.str.168 = private unnamed_addr constant [23 x i8] c"ObjectTypeCallProperty\00", align 1
@.str.169 = private unnamed_addr constant [18 x i8] c"ObjectTypeIndexer\00", align 1
@.str.170 = private unnamed_addr constant [29 x i8] c"ObjectTypeMappedTypeProperty\00", align 1
@.str.171 = private unnamed_addr constant [9 x i8] c"Variance\00", align 1
@.str.172 = private unnamed_addr constant [25 x i8] c"TypeParameterDeclaration\00", align 1
@.str.173 = private unnamed_addr constant [14 x i8] c"TypeParameter\00", align 1
@.str.174 = private unnamed_addr constant [27 x i8] c"TypeParameterInstantiation\00", align 1
@.str.175 = private unnamed_addr constant [19 x i8] c"TypeCastExpression\00", align 1
@.str.176 = private unnamed_addr constant [13 x i8] c"AsExpression\00", align 1
@.str.177 = private unnamed_addr constant [18 x i8] c"InferredPredicate\00", align 1
@.str.178 = private unnamed_addr constant [18 x i8] c"DeclaredPredicate\00", align 1
@.str.179 = private unnamed_addr constant [16 x i8] c"EnumDeclaration\00", align 1
@.str.180 = private unnamed_addr constant [15 x i8] c"EnumStringBody\00", align 1
@.str.181 = private unnamed_addr constant [15 x i8] c"EnumNumberBody\00", align 1
@.str.182 = private unnamed_addr constant [16 x i8] c"EnumBooleanBody\00", align 1
@.str.183 = private unnamed_addr constant [15 x i8] c"EnumSymbolBody\00", align 1
@.str.184 = private unnamed_addr constant [20 x i8] c"EnumDefaultedMember\00", align 1
@.str.185 = private unnamed_addr constant [17 x i8] c"EnumStringMember\00", align 1
@.str.186 = private unnamed_addr constant [17 x i8] c"EnumNumberMember\00", align 1
@.str.187 = private unnamed_addr constant [18 x i8] c"EnumBooleanMember\00", align 1
@.str.188 = private unnamed_addr constant [19 x i8] c"ComponentParameter\00", align 1
@.str.189 = private unnamed_addr constant [17 x i8] c"TSTypeAnnotation\00", align 1
@.str.190 = private unnamed_addr constant [13 x i8] c"TSAnyKeyword\00", align 1
@.str.191 = private unnamed_addr constant [16 x i8] c"TSNumberKeyword\00", align 1
@.str.192 = private unnamed_addr constant [17 x i8] c"TSBooleanKeyword\00", align 1
@.str.193 = private unnamed_addr constant [16 x i8] c"TSStringKeyword\00", align 1
@.str.194 = private unnamed_addr constant [16 x i8] c"TSSymbolKeyword\00", align 1
@.str.195 = private unnamed_addr constant [14 x i8] c"TSVoidKeyword\00", align 1
@.str.196 = private unnamed_addr constant [19 x i8] c"TSUndefinedKeyword\00", align 1
@.str.197 = private unnamed_addr constant [17 x i8] c"TSUnknownKeyword\00", align 1
@.str.198 = private unnamed_addr constant [15 x i8] c"TSNeverKeyword\00", align 1
@.str.199 = private unnamed_addr constant [16 x i8] c"TSBigIntKeyword\00", align 1
@.str.200 = private unnamed_addr constant [11 x i8] c"TSThisType\00", align 1
@.str.201 = private unnamed_addr constant [14 x i8] c"TSLiteralType\00", align 1
@.str.202 = private unnamed_addr constant [20 x i8] c"TSIndexedAccessType\00", align 1
@.str.203 = private unnamed_addr constant [12 x i8] c"TSArrayType\00", align 1
@.str.204 = private unnamed_addr constant [16 x i8] c"TSTypeReference\00", align 1
@.str.205 = private unnamed_addr constant [16 x i8] c"TSQualifiedName\00", align 1
@.str.206 = private unnamed_addr constant [15 x i8] c"TSFunctionType\00", align 1
@.str.207 = private unnamed_addr constant [18 x i8] c"TSConstructorType\00", align 1
@.str.208 = private unnamed_addr constant [16 x i8] c"TSTypePredicate\00", align 1
@.str.209 = private unnamed_addr constant [12 x i8] c"TSTupleType\00", align 1
@.str.210 = private unnamed_addr constant [16 x i8] c"TSTypeAssertion\00", align 1
@.str.211 = private unnamed_addr constant [15 x i8] c"TSAsExpression\00", align 1
@.str.212 = private unnamed_addr constant [20 x i8] c"TSParameterProperty\00", align 1
@.str.213 = private unnamed_addr constant [23 x i8] c"TSTypeAliasDeclaration\00", align 1
@.str.214 = private unnamed_addr constant [23 x i8] c"TSInterfaceDeclaration\00", align 1
@.str.215 = private unnamed_addr constant [20 x i8] c"TSInterfaceHeritage\00", align 1
@.str.216 = private unnamed_addr constant [16 x i8] c"TSInterfaceBody\00", align 1
@.str.217 = private unnamed_addr constant [18 x i8] c"TSEnumDeclaration\00", align 1
@.str.218 = private unnamed_addr constant [13 x i8] c"TSEnumMember\00", align 1
@.str.219 = private unnamed_addr constant [20 x i8] c"TSModuleDeclaration\00", align 1
@.str.220 = private unnamed_addr constant [14 x i8] c"TSModuleBlock\00", align 1
@.str.221 = private unnamed_addr constant [15 x i8] c"TSModuleMember\00", align 1
@.str.222 = private unnamed_addr constant [27 x i8] c"TSTypeParameterDeclaration\00", align 1
@.str.223 = private unnamed_addr constant [16 x i8] c"TSTypeParameter\00", align 1
@.str.224 = private unnamed_addr constant [29 x i8] c"TSTypeParameterInstantiation\00", align 1
@.str.225 = private unnamed_addr constant [12 x i8] c"TSUnionType\00", align 1
@.str.226 = private unnamed_addr constant [19 x i8] c"TSIntersectionType\00", align 1
@.str.227 = private unnamed_addr constant [12 x i8] c"TSTypeQuery\00", align 1
@.str.228 = private unnamed_addr constant [18 x i8] c"TSConditionalType\00", align 1
@.str.229 = private unnamed_addr constant [14 x i8] c"TSTypeLiteral\00", align 1
@.str.230 = private unnamed_addr constant [20 x i8] c"TSPropertySignature\00", align 1
@.str.231 = private unnamed_addr constant [18 x i8] c"TSMethodSignature\00", align 1
@.str.232 = private unnamed_addr constant [17 x i8] c"TSIndexSignature\00", align 1
@.str.233 = private unnamed_addr constant [27 x i8] c"TSCallSignatureDeclaration\00", align 1
@.str.234 = private unnamed_addr constant [12 x i8] c"TSModifiers\00", align 1
@.str.235 = private unnamed_addr constant [15 x i8] c"CoverEmptyArgs\00", align 1
@.str.236 = private unnamed_addr constant [19 x i8] c"CoverTrailingComma\00", align 1
@.str.237 = private unnamed_addr constant [17 x i8] c"CoverInitializer\00", align 1
@.str.238 = private unnamed_addr constant [17 x i8] c"CoverRestElement\00", align 1
@.str.239 = private unnamed_addr constant [21 x i8] c"CoverTypedIdentifier\00", align 1

; Function Attrs: mustprogress nounwind uwtable
define hidden ptr @hermes_get_Program_body(ptr noundef %node) #0 {
entry:
  %node.addr = alloca ptr, align 8
  store ptr %node, ptr %node.addr, align 8
  %0 = load ptr, ptr %node.addr, align 8
  %_body = getelementptr inbounds %"class.hermes::ESTree::ProgramNode", ptr %0, i32 0, i32 2
  %call = call noundef ptr @_ZN12_GLOBAL__N_110ReturnTypeIN4llvh12simple_ilistIN6hermes6ESTree4NodeEJEEEE3getERKS6_(ptr noundef nonnull align 8 dereferenceable(16) %_body)
  ret ptr %call
}

; Function Attrs: mustprogress nounwind uwtable
define internal noundef ptr @_ZN12_GLOBAL__N_110ReturnTypeIN4llvh12simple_ilistIN6hermes6ESTree4NodeEJEEEE3getERKS6_(ptr noundef nonnull align 8 dereferenceable(16) %x) #0 align 2 {
entry:
  %x.addr = alloca ptr, align 8
  store ptr %x, ptr %x.addr, align 8
  %0 = load ptr, ptr %x.addr, align 8
  ret ptr %0
}

; Function Attrs: mustprogress nounwind uwtable
define hidden ptr @hermes_get_FunctionExpression_id(ptr noundef %node) #0 {
entry:
  %node.addr = alloca ptr, align 8
  store ptr %node, ptr %node.addr, align 8
  %0 = load ptr, ptr %node.addr, align 8
  %_id = getelementptr inbounds %"class.hermes::ESTree::FunctionExpressionNode", ptr %0, i32 0, i32 2
  %1 = load ptr, ptr %_id, align 8
  %call = call noundef ptr @_ZN12_GLOBAL__N_110ReturnTypeIPN6hermes6ESTree4NodeEE3getES4_(ptr noundef %1)
  ret ptr %call
}

; Function Attrs: mustprogress nounwind uwtable
define internal noundef ptr @_ZN12_GLOBAL__N_110ReturnTypeIPN6hermes6ESTree4NodeEE3getES4_(ptr noundef %x) #0 align 2 {
entry:
  %x.addr = alloca ptr, align 8
  store ptr %x, ptr %x.addr, align 8
  %0 = load ptr, ptr %x.addr, align 8
  ret ptr %0
}

; Function Attrs: mustprogress nounwind uwtable
define hidden ptr @hermes_get_FunctionExpression_params(ptr noundef %node) #0 {
entry:
  %node.addr = alloca ptr, align 8
  store ptr %node, ptr %node.addr, align 8
  %0 = load ptr, ptr %node.addr, align 8
  %_params = getelementptr inbounds %"class.hermes::ESTree::FunctionExpressionNode", ptr %0, i32 0, i32 3
  %call = call noundef ptr @_ZN12_GLOBAL__N_110ReturnTypeIN4llvh12simple_ilistIN6hermes6ESTree4NodeEJEEEE3getERKS6_(ptr noundef nonnull align 8 dereferenceable(16) %_params)
  ret ptr %call
}

; Function Attrs: mustprogress nounwind uwtable
define hidden ptr @hermes_get_FunctionExpression_body(ptr noundef %node) #0 {
entry:
  %node.addr = alloca ptr, align 8
  store ptr %node, ptr %node.addr, align 8
  %0 = load ptr, ptr %node.addr, align 8
  %_body = getelementptr inbounds %"class.hermes::ESTree::FunctionExpressionNode", ptr %0, i32 0, i32 4
  %1 = load ptr, ptr %_body, align 8
  %call = call noundef ptr @_ZN12_GLOBAL__N_110ReturnTypeIPN6hermes6ESTree4NodeEE3getES4_(ptr noundef %1)
  ret ptr %call
}

; Function Attrs: mustprogress nounwind uwtable
define hidden ptr @hermes_get_FunctionExpression_typeParameters(ptr noundef %node) #0 {
entry:
  %node.addr = alloca ptr, align 8
  store ptr %node, ptr %node.addr, align 8
  %0 = load ptr, ptr %node.addr, align 8
  %_typeParameters = getelementptr inbounds %"class.hermes::ESTree::FunctionExpressionNode", ptr %0, i32 0, i32 5
  %1 = load ptr, ptr %_typeParameters, align 8
  %call = call noundef ptr @_ZN12_GLOBAL__N_110ReturnTypeIPN6hermes6ESTree4NodeEE3getES4_(ptr noundef %1)
  ret ptr %call
}

; Function Attrs: mustprogress nounwind uwtable
define hidden ptr @hermes_get_FunctionExpression_returnType(ptr noundef %node) #0 {
entry:
  %node.addr = alloca ptr, align 8
  store ptr %node, ptr %node.addr, align 8
  %0 = load ptr, ptr %node.addr, align 8
  %_returnType = getelementptr inbounds %"class.hermes::ESTree::FunctionExpressionNode", ptr %0, i32 0, i32 6
  %1 = load ptr, ptr %_returnType, align 8
  %call = call noundef ptr @_ZN12_GLOBAL__N_110ReturnTypeIPN6hermes6ESTree4NodeEE3getES4_(ptr noundef %1)
  ret ptr %call
}

; Function Attrs: mustprogress nounwind uwtable
define hidden ptr @hermes_get_FunctionExpression_predicate(ptr noundef %node) #0 {
entry:
  %node.addr = alloca ptr, align 8
  store ptr %node, ptr %node.addr, align 8
  %0 = load ptr, ptr %node.addr, align 8
  %_predicate = getelementptr inbounds %"class.hermes::ESTree::FunctionExpressionNode", ptr %0, i32 0, i32 7
  %1 = load ptr, ptr %_predicate, align 8
  %call = call noundef ptr @_ZN12_GLOBAL__N_110ReturnTypeIPN6hermes6ESTree4NodeEE3getES4_(ptr noundef %1)
  ret ptr %call
}

; Function Attrs: mustprogress nounwind uwtable
define hidden zeroext i1 @hermes_get_FunctionExpression_generator(ptr noundef %node) #0 {
entry:
  %node.addr = alloca ptr, align 8
  store ptr %node, ptr %node.addr, align 8
  %0 = load ptr, ptr %node.addr, align 8
  %_generator = getelementptr inbounds %"class.hermes::ESTree::FunctionExpressionNode", ptr %0, i32 0, i32 8
  %1 = load i8, ptr %_generator, align 8
  %tobool = trunc i8 %1 to i1
  %call = call noundef zeroext i1 @_ZN12_GLOBAL__N_110ReturnTypeIbE3getEb(i1 noundef zeroext %tobool)
  ret i1 %call
}

; Function Attrs: mustprogress nounwind uwtable
define internal noundef zeroext i1 @_ZN12_GLOBAL__N_110ReturnTypeIbE3getEb(i1 noundef zeroext %x) #0 align 2 {
entry:
  %x.addr = alloca i8, align 1
  %frombool = zext i1 %x to i8
  store i8 %frombool, ptr %x.addr, align 1
  %0 = load i8, ptr %x.addr, align 1
  %tobool = trunc i8 %0 to i1
  ret i1 %tobool
}

; Function Attrs: mustprogress nounwind uwtable
define hidden zeroext i1 @hermes_get_FunctionExpression_async(ptr noundef %node) #0 {
entry:
  %node.addr = alloca ptr, align 8
  store ptr %node, ptr %node.addr, align 8
  %0 = load ptr, ptr %node.addr, align 8
  %_async = getelementptr inbounds %"class.hermes::ESTree::FunctionExpressionNode", ptr %0, i32 0, i32 9
  %1 = load i8, ptr %_async, align 1
  %tobool = trunc i8 %1 to i1
  %call = call noundef zeroext i1 @_ZN12_GLOBAL__N_110ReturnTypeIbE3getEb(i1 noundef zeroext %tobool)
  ret i1 %call
}

; Function Attrs: mustprogress nounwind uwtable
define hidden ptr @hermes_get_ArrowFunctionExpression_id(ptr noundef %node) #0 {
entry:
  %node.addr = alloca ptr, align 8
  store ptr %node, ptr %node.addr, align 8
  %0 = load ptr, ptr %node.addr, align 8
  %_id = getelementptr inbounds %"class.hermes::ESTree::ArrowFunctionExpressionNode", ptr %0, i32 0, i32 2
  %1 = load ptr, ptr %_id, align 8
  %call = call noundef ptr @_ZN12_GLOBAL__N_110ReturnTypeIPN6hermes6ESTree4NodeEE3getES4_(ptr noundef %1)
  ret ptr %call
}

; Function Attrs: mustprogress nounwind uwtable
define hidden ptr @hermes_get_ArrowFunctionExpression_params(ptr noundef %node) #0 {
entry:
  %node.addr = alloca ptr, align 8
  store ptr %node, ptr %node.addr, align 8
  %0 = load ptr, ptr %node.addr, align 8
  %_params = getelementptr inbounds %"class.hermes::ESTree::ArrowFunctionExpressionNode", ptr %0, i32 0, i32 3
  %call = call noundef ptr @_ZN12_GLOBAL__N_110ReturnTypeIN4llvh12simple_ilistIN6hermes6ESTree4NodeEJEEEE3getERKS6_(ptr noundef nonnull align 8 dereferenceable(16) %_params)
  ret ptr %call
}

; Function Attrs: mustprogress nounwind uwtable
define hidden ptr @hermes_get_ArrowFunctionExpression_body(ptr noundef %node) #0 {
entry:
  %node.addr = alloca ptr, align 8
  store ptr %node, ptr %node.addr, align 8
  %0 = load ptr, ptr %node.addr, align 8
  %_body = getelementptr inbounds %"class.hermes::ESTree::ArrowFunctionExpressionNode", ptr %0, i32 0, i32 4
  %1 = load ptr, ptr %_body, align 8
  %call = call noundef ptr @_ZN12_GLOBAL__N_110ReturnTypeIPN6hermes6ESTree4NodeEE3getES4_(ptr noundef %1)
  ret ptr %call
}

; Function Attrs: mustprogress nounwind uwtable
define hidden ptr @hermes_get_ArrowFunctionExpression_typeParameters(ptr noundef %node) #0 {
entry:
  %node.addr = alloca ptr, align 8
  store ptr %node, ptr %node.addr, align 8
  %0 = load ptr, ptr %node.addr, align 8
  %_typeParameters = getelementptr inbounds %"class.hermes::ESTree::ArrowFunctionExpressionNode", ptr %0, i32 0, i32 5
  %1 = load ptr, ptr %_typeParameters, align 8
  %call = call noundef ptr @_ZN12_GLOBAL__N_110ReturnTypeIPN6hermes6ESTree4NodeEE3getES4_(ptr noundef %1)
  ret ptr %call
}

; Function Attrs: mustprogress nounwind uwtable
define hidden ptr @hermes_get_ArrowFunctionExpression_returnType(ptr noundef %node) #0 {
entry:
  %node.addr = alloca ptr, align 8
  store ptr %node, ptr %node.addr, align 8
  %0 = load ptr, ptr %node.addr, align 8
  %_returnType = getelementptr inbounds %"class.hermes::ESTree::ArrowFunctionExpressionNode", ptr %0, i32 0, i32 6
  %1 = load ptr, ptr %_returnType, align 8
  %call = call noundef ptr @_ZN12_GLOBAL__N_110ReturnTypeIPN6hermes6ESTree4NodeEE3getES4_(ptr noundef %1)
  ret ptr %call
}

; Function Attrs: mustprogress nounwind uwtable
define hidden ptr @hermes_get_ArrowFunctionExpression_predicate(ptr noundef %node) #0 {
entry:
  %node.addr = alloca ptr, align 8
  store ptr %node, ptr %node.addr, align 8
  %0 = load ptr, ptr %node.addr, align 8
  %_predicate = getelementptr inbounds %"class.hermes::ESTree::ArrowFunctionExpressionNode", ptr %0, i32 0, i32 7
  %1 = load ptr, ptr %_predicate, align 8
  %call = call noundef ptr @_ZN12_GLOBAL__N_110ReturnTypeIPN6hermes6ESTree4NodeEE3getES4_(ptr noundef %1)
  ret ptr %call
}

; Function Attrs: mustprogress nounwind uwtable
define hidden zeroext i1 @hermes_get_ArrowFunctionExpression_expression(ptr noundef %node) #0 {
entry:
  %node.addr = alloca ptr, align 8
  store ptr %node, ptr %node.addr, align 8
  %0 = load ptr, ptr %node.addr, align 8
  %_expression = getelementptr inbounds %"class.hermes::ESTree::ArrowFunctionExpressionNode", ptr %0, i32 0, i32 8
  %1 = load i8, ptr %_expression, align 8
  %tobool = trunc i8 %1 to i1
  %call = call noundef zeroext i1 @_ZN12_GLOBAL__N_110ReturnTypeIbE3getEb(i1 noundef zeroext %tobool)
  ret i1 %call
}

; Function Attrs: mustprogress nounwind uwtable
define hidden zeroext i1 @hermes_get_ArrowFunctionExpression_async(ptr noundef %node) #0 {
entry:
  %node.addr = alloca ptr, align 8
  store ptr %node, ptr %node.addr, align 8
  %0 = load ptr, ptr %node.addr, align 8
  %_async = getelementptr inbounds %"class.hermes::ESTree::ArrowFunctionExpressionNode", ptr %0, i32 0, i32 9
  %1 = load i8, ptr %_async, align 1
  %tobool = trunc i8 %1 to i1
  %call = call noundef zeroext i1 @_ZN12_GLOBAL__N_110ReturnTypeIbE3getEb(i1 noundef zeroext %tobool)
  ret i1 %call
}

; Function Attrs: mustprogress nounwind uwtable
define hidden ptr @hermes_get_FunctionDeclaration_id(ptr noundef %node) #0 {
entry:
  %node.addr = alloca ptr, align 8
  store ptr %node, ptr %node.addr, align 8
  %0 = load ptr, ptr %node.addr, align 8
  %_id = getelementptr inbounds %"class.hermes::ESTree::FunctionDeclarationNode", ptr %0, i32 0, i32 2
  %1 = load ptr, ptr %_id, align 8
  %call = call noundef ptr @_ZN12_GLOBAL__N_110ReturnTypeIPN6hermes6ESTree4NodeEE3getES4_(ptr noundef %1)
  ret ptr %call
}

; Function Attrs: mustprogress nounwind uwtable
define hidden ptr @hermes_get_FunctionDeclaration_params(ptr noundef %node) #0 {
entry:
  %node.addr = alloca ptr, align 8
  store ptr %node, ptr %node.addr, align 8
  %0 = load ptr, ptr %node.addr, align 8
  %_params = getelementptr inbounds %"class.hermes::ESTree::FunctionDeclarationNode", ptr %0, i32 0, i32 3
  %call = call noundef ptr @_ZN12_GLOBAL__N_110ReturnTypeIN4llvh12simple_ilistIN6hermes6ESTree4NodeEJEEEE3getERKS6_(ptr noundef nonnull align 8 dereferenceable(16) %_params)
  ret ptr %call
}

; Function Attrs: mustprogress nounwind uwtable
define hidden ptr @hermes_get_FunctionDeclaration_body(ptr noundef %node) #0 {
entry:
  %node.addr = alloca ptr, align 8
  store ptr %node, ptr %node.addr, align 8
  %0 = load ptr, ptr %node.addr, align 8
  %_body = getelementptr inbounds %"class.hermes::ESTree::FunctionDeclarationNode", ptr %0, i32 0, i32 4
  %1 = load ptr, ptr %_body, align 8
  %call = call noundef ptr @_ZN12_GLOBAL__N_110ReturnTypeIPN6hermes6ESTree4NodeEE3getES4_(ptr noundef %1)
  ret ptr %call
}

; Function Attrs: mustprogress nounwind uwtable
define hidden ptr @hermes_get_FunctionDeclaration_typeParameters(ptr noundef %node) #0 {
entry:
  %node.addr = alloca ptr, align 8
  store ptr %node, ptr %node.addr, align 8
  %0 = load ptr, ptr %node.addr, align 8
  %_typeParameters = getelementptr inbounds %"class.hermes::ESTree::FunctionDeclarationNode", ptr %0, i32 0, i32 5
  %1 = load ptr, ptr %_typeParameters, align 8
  %call = call noundef ptr @_ZN12_GLOBAL__N_110ReturnTypeIPN6hermes6ESTree4NodeEE3getES4_(ptr noundef %1)
  ret ptr %call
}

; Function Attrs: mustprogress nounwind uwtable
define hidden ptr @hermes_get_FunctionDeclaration_returnType(ptr noundef %node) #0 {
entry:
  %node.addr = alloca ptr, align 8
  store ptr %node, ptr %node.addr, align 8
  %0 = load ptr, ptr %node.addr, align 8
  %_returnType = getelementptr inbounds %"class.hermes::ESTree::FunctionDeclarationNode", ptr %0, i32 0, i32 6
  %1 = load ptr, ptr %_returnType, align 8
  %call = call noundef ptr @_ZN12_GLOBAL__N_110ReturnTypeIPN6hermes6ESTree4NodeEE3getES4_(ptr noundef %1)
  ret ptr %call
}

; Function Attrs: mustprogress nounwind uwtable
define hidden ptr @hermes_get_FunctionDeclaration_predicate(ptr noundef %node) #0 {
entry:
  %node.addr = alloca ptr, align 8
  store ptr %node, ptr %node.addr, align 8
  %0 = load ptr, ptr %node.addr, align 8
  %_predicate = getelementptr inbounds %"class.hermes::ESTree::FunctionDeclarationNode", ptr %0, i32 0, i32 7
  %1 = load ptr, ptr %_predicate, align 8
  %call = call noundef ptr @_ZN12_GLOBAL__N_110ReturnTypeIPN6hermes6ESTree4NodeEE3getES4_(ptr noundef %1)
  ret ptr %call
}

; Function Attrs: mustprogress nounwind uwtable
define hidden zeroext i1 @hermes_get_FunctionDeclaration_generator(ptr noundef %node) #0 {
entry:
  %node.addr = alloca ptr, align 8
  store ptr %node, ptr %node.addr, align 8
  %0 = load ptr, ptr %node.addr, align 8
  %_generator = getelementptr inbounds %"class.hermes::ESTree::FunctionDeclarationNode", ptr %0, i32 0, i32 8
  %1 = load i8, ptr %_generator, align 8
  %tobool = trunc i8 %1 to i1
  %call = call noundef zeroext i1 @_ZN12_GLOBAL__N_110ReturnTypeIbE3getEb(i1 noundef zeroext %tobool)
  ret i1 %call
}

; Function Attrs: mustprogress nounwind uwtable
define hidden zeroext i1 @hermes_get_FunctionDeclaration_async(ptr noundef %node) #0 {
entry:
  %node.addr = alloca ptr, align 8
  store ptr %node, ptr %node.addr, align 8
  %0 = load ptr, ptr %node.addr, align 8
  %_async = getelementptr inbounds %"class.hermes::ESTree::FunctionDeclarationNode", ptr %0, i32 0, i32 9
  %1 = load i8, ptr %_async, align 1
  %tobool = trunc i8 %1 to i1
  %call = call noundef zeroext i1 @_ZN12_GLOBAL__N_110ReturnTypeIbE3getEb(i1 noundef zeroext %tobool)
  ret i1 %call
}

; Function Attrs: mustprogress nounwind uwtable
define hidden ptr @hermes_get_ComponentDeclaration_id(ptr noundef %node) #0 {
entry:
  %node.addr = alloca ptr, align 8
  store ptr %node, ptr %node.addr, align 8
  %0 = load ptr, ptr %node.addr, align 8
  %_id = getelementptr inbounds %"class.hermes::ESTree::ComponentDeclarationNode", ptr %0, i32 0, i32 1
  %1 = load ptr, ptr %_id, align 8
  %call = call noundef ptr @_ZN12_GLOBAL__N_110ReturnTypeIPN6hermes6ESTree4NodeEE3getES4_(ptr noundef %1)
  ret ptr %call
}

; Function Attrs: mustprogress nounwind uwtable
define hidden ptr @hermes_get_ComponentDeclaration_params(ptr noundef %node) #0 {
entry:
  %node.addr = alloca ptr, align 8
  store ptr %node, ptr %node.addr, align 8
  %0 = load ptr, ptr %node.addr, align 8
  %_params = getelementptr inbounds %"class.hermes::ESTree::ComponentDeclarationNode", ptr %0, i32 0, i32 2
  %call = call noundef ptr @_ZN12_GLOBAL__N_110ReturnTypeIN4llvh12simple_ilistIN6hermes6ESTree4NodeEJEEEE3getERKS6_(ptr noundef nonnull align 8 dereferenceable(16) %_params)
  ret ptr %call
}

; Function Attrs: mustprogress nounwind uwtable
define hidden ptr @hermes_get_ComponentDeclaration_body(ptr noundef %node) #0 {
entry:
  %node.addr = alloca ptr, align 8
  store ptr %node, ptr %node.addr, align 8
  %0 = load ptr, ptr %node.addr, align 8
  %_body = getelementptr inbounds %"class.hermes::ESTree::ComponentDeclarationNode", ptr %0, i32 0, i32 3
  %1 = load ptr, ptr %_body, align 8
  %call = call noundef ptr @_ZN12_GLOBAL__N_110ReturnTypeIPN6hermes6ESTree4NodeEE3getES4_(ptr noundef %1)
  ret ptr %call
}

; Function Attrs: mustprogress nounwind uwtable
define hidden ptr @hermes_get_ComponentDeclaration_typeParameters(ptr noundef %node) #0 {
entry:
  %node.addr = alloca ptr, align 8
  store ptr %node, ptr %node.addr, align 8
  %0 = load ptr, ptr %node.addr, align 8
  %_typeParameters = getelementptr inbounds %"class.hermes::ESTree::ComponentDeclarationNode", ptr %0, i32 0, i32 4
  %1 = load ptr, ptr %_typeParameters, align 8
  %call = call noundef ptr @_ZN12_GLOBAL__N_110ReturnTypeIPN6hermes6ESTree4NodeEE3getES4_(ptr noundef %1)
  ret ptr %call
}

; Function Attrs: mustprogress nounwind uwtable
define hidden ptr @hermes_get_ComponentDeclaration_rendersType(ptr noundef %node) #0 {
entry:
  %node.addr = alloca ptr, align 8
  store ptr %node, ptr %node.addr, align 8
  %0 = load ptr, ptr %node.addr, align 8
  %_rendersType = getelementptr inbounds %"class.hermes::ESTree::ComponentDeclarationNode", ptr %0, i32 0, i32 5
  %1 = load ptr, ptr %_rendersType, align 8
  %call = call noundef ptr @_ZN12_GLOBAL__N_110ReturnTypeIPN6hermes6ESTree4NodeEE3getES4_(ptr noundef %1)
  ret ptr %call
}

; Function Attrs: mustprogress nounwind uwtable
define hidden ptr @hermes_get_WhileStatement_body(ptr noundef %node) #0 {
entry:
  %node.addr = alloca ptr, align 8
  store ptr %node, ptr %node.addr, align 8
  %0 = load ptr, ptr %node.addr, align 8
  %_body = getelementptr inbounds %"class.hermes::ESTree::WhileStatementNode", ptr %0, i32 0, i32 1
  %1 = load ptr, ptr %_body, align 8
  %call = call noundef ptr @_ZN12_GLOBAL__N_110ReturnTypeIPN6hermes6ESTree4NodeEE3getES4_(ptr noundef %1)
  ret ptr %call
}

; Function Attrs: mustprogress nounwind uwtable
define hidden ptr @hermes_get_WhileStatement_test(ptr noundef %node) #0 {
entry:
  %node.addr = alloca ptr, align 8
  store ptr %node, ptr %node.addr, align 8
  %0 = load ptr, ptr %node.addr, align 8
  %_test = getelementptr inbounds %"class.hermes::ESTree::WhileStatementNode", ptr %0, i32 0, i32 2
  %1 = load ptr, ptr %_test, align 8
  %call = call noundef ptr @_ZN12_GLOBAL__N_110ReturnTypeIPN6hermes6ESTree4NodeEE3getES4_(ptr noundef %1)
  ret ptr %call
}

; Function Attrs: mustprogress nounwind uwtable
define hidden ptr @hermes_get_DoWhileStatement_body(ptr noundef %node) #0 {
entry:
  %node.addr = alloca ptr, align 8
  store ptr %node, ptr %node.addr, align 8
  %0 = load ptr, ptr %node.addr, align 8
  %_body = getelementptr inbounds %"class.hermes::ESTree::DoWhileStatementNode", ptr %0, i32 0, i32 1
  %1 = load ptr, ptr %_body, align 8
  %call = call noundef ptr @_ZN12_GLOBAL__N_110ReturnTypeIPN6hermes6ESTree4NodeEE3getES4_(ptr noundef %1)
  ret ptr %call
}

; Function Attrs: mustprogress nounwind uwtable
define hidden ptr @hermes_get_DoWhileStatement_test(ptr noundef %node) #0 {
entry:
  %node.addr = alloca ptr, align 8
  store ptr %node, ptr %node.addr, align 8
  %0 = load ptr, ptr %node.addr, align 8
  %_test = getelementptr inbounds %"class.hermes::ESTree::DoWhileStatementNode", ptr %0, i32 0, i32 2
  %1 = load ptr, ptr %_test, align 8
  %call = call noundef ptr @_ZN12_GLOBAL__N_110ReturnTypeIPN6hermes6ESTree4NodeEE3getES4_(ptr noundef %1)
  ret ptr %call
}

; Function Attrs: mustprogress nounwind uwtable
define hidden ptr @hermes_get_ForInStatement_left(ptr noundef %node) #0 {
entry:
  %node.addr = alloca ptr, align 8
  store ptr %node, ptr %node.addr, align 8
  %0 = load ptr, ptr %node.addr, align 8
  %_left = getelementptr inbounds %"class.hermes::ESTree::ForInStatementNode", ptr %0, i32 0, i32 1
  %1 = load ptr, ptr %_left, align 8
  %call = call noundef ptr @_ZN12_GLOBAL__N_110ReturnTypeIPN6hermes6ESTree4NodeEE3getES4_(ptr noundef %1)
  ret ptr %call
}

; Function Attrs: mustprogress nounwind uwtable
define hidden ptr @hermes_get_ForInStatement_right(ptr noundef %node) #0 {
entry:
  %node.addr = alloca ptr, align 8
  store ptr %node, ptr %node.addr, align 8
  %0 = load ptr, ptr %node.addr, align 8
  %_right = getelementptr inbounds %"class.hermes::ESTree::ForInStatementNode", ptr %0, i32 0, i32 2
  %1 = load ptr, ptr %_right, align 8
  %call = call noundef ptr @_ZN12_GLOBAL__N_110ReturnTypeIPN6hermes6ESTree4NodeEE3getES4_(ptr noundef %1)
  ret ptr %call
}

; Function Attrs: mustprogress nounwind uwtable
define hidden ptr @hermes_get_ForInStatement_body(ptr noundef %node) #0 {
entry:
  %node.addr = alloca ptr, align 8
  store ptr %node, ptr %node.addr, align 8
  %0 = load ptr, ptr %node.addr, align 8
  %_body = getelementptr inbounds %"class.hermes::ESTree::ForInStatementNode", ptr %0, i32 0, i32 3
  %1 = load ptr, ptr %_body, align 8
  %call = call noundef ptr @_ZN12_GLOBAL__N_110ReturnTypeIPN6hermes6ESTree4NodeEE3getES4_(ptr noundef %1)
  ret ptr %call
}

; Function Attrs: mustprogress nounwind uwtable
define hidden ptr @hermes_get_ForOfStatement_left(ptr noundef %node) #0 {
entry:
  %node.addr = alloca ptr, align 8
  store ptr %node, ptr %node.addr, align 8
  %0 = load ptr, ptr %node.addr, align 8
  %_left = getelementptr inbounds %"class.hermes::ESTree::ForOfStatementNode", ptr %0, i32 0, i32 2
  %1 = load ptr, ptr %_left, align 8
  %call = call noundef ptr @_ZN12_GLOBAL__N_110ReturnTypeIPN6hermes6ESTree4NodeEE3getES4_(ptr noundef %1)
  ret ptr %call
}

; Function Attrs: mustprogress nounwind uwtable
define hidden ptr @hermes_get_ForOfStatement_right(ptr noundef %node) #0 {
entry:
  %node.addr = alloca ptr, align 8
  store ptr %node, ptr %node.addr, align 8
  %0 = load ptr, ptr %node.addr, align 8
  %_right = getelementptr inbounds %"class.hermes::ESTree::ForOfStatementNode", ptr %0, i32 0, i32 3
  %1 = load ptr, ptr %_right, align 8
  %call = call noundef ptr @_ZN12_GLOBAL__N_110ReturnTypeIPN6hermes6ESTree4NodeEE3getES4_(ptr noundef %1)
  ret ptr %call
}

; Function Attrs: mustprogress nounwind uwtable
define hidden ptr @hermes_get_ForOfStatement_body(ptr noundef %node) #0 {
entry:
  %node.addr = alloca ptr, align 8
  store ptr %node, ptr %node.addr, align 8
  %0 = load ptr, ptr %node.addr, align 8
  %_body = getelementptr inbounds %"class.hermes::ESTree::ForOfStatementNode", ptr %0, i32 0, i32 4
  %1 = load ptr, ptr %_body, align 8
  %call = call noundef ptr @_ZN12_GLOBAL__N_110ReturnTypeIPN6hermes6ESTree4NodeEE3getES4_(ptr noundef %1)
  ret ptr %call
}

; Function Attrs: mustprogress nounwind uwtable
define hidden zeroext i1 @hermes_get_ForOfStatement_await(ptr noundef %node) #0 {
entry:
  %node.addr = alloca ptr, align 8
  store ptr %node, ptr %node.addr, align 8
  %0 = load ptr, ptr %node.addr, align 8
  %_await = getelementptr inbounds %"class.hermes::ESTree::ForOfStatementNode", ptr %0, i32 0, i32 5
  %1 = load i8, ptr %_await, align 8
  %tobool = trunc i8 %1 to i1
  %call = call noundef zeroext i1 @_ZN12_GLOBAL__N_110ReturnTypeIbE3getEb(i1 noundef zeroext %tobool)
  ret i1 %call
}

; Function Attrs: mustprogress nounwind uwtable
define hidden ptr @hermes_get_ForStatement_init(ptr noundef %node) #0 {
entry:
  %node.addr = alloca ptr, align 8
  store ptr %node, ptr %node.addr, align 8
  %0 = load ptr, ptr %node.addr, align 8
  %_init = getelementptr inbounds %"class.hermes::ESTree::ForStatementNode", ptr %0, i32 0, i32 1
  %1 = load ptr, ptr %_init, align 8
  %call = call noundef ptr @_ZN12_GLOBAL__N_110ReturnTypeIPN6hermes6ESTree4NodeEE3getES4_(ptr noundef %1)
  ret ptr %call
}

; Function Attrs: mustprogress nounwind uwtable
define hidden ptr @hermes_get_ForStatement_test(ptr noundef %node) #0 {
entry:
  %node.addr = alloca ptr, align 8
  store ptr %node, ptr %node.addr, align 8
  %0 = load ptr, ptr %node.addr, align 8
  %_test = getelementptr inbounds %"class.hermes::ESTree::ForStatementNode", ptr %0, i32 0, i32 2
  %1 = load ptr, ptr %_test, align 8
  %call = call noundef ptr @_ZN12_GLOBAL__N_110ReturnTypeIPN6hermes6ESTree4NodeEE3getES4_(ptr noundef %1)
  ret ptr %call
}

; Function Attrs: mustprogress nounwind uwtable
define hidden ptr @hermes_get_ForStatement_update(ptr noundef %node) #0 {
entry:
  %node.addr = alloca ptr, align 8
  store ptr %node, ptr %node.addr, align 8
  %0 = load ptr, ptr %node.addr, align 8
  %_update = getelementptr inbounds %"class.hermes::ESTree::ForStatementNode", ptr %0, i32 0, i32 3
  %1 = load ptr, ptr %_update, align 8
  %call = call noundef ptr @_ZN12_GLOBAL__N_110ReturnTypeIPN6hermes6ESTree4NodeEE3getES4_(ptr noundef %1)
  ret ptr %call
}

; Function Attrs: mustprogress nounwind uwtable
define hidden ptr @hermes_get_ForStatement_body(ptr noundef %node) #0 {
entry:
  %node.addr = alloca ptr, align 8
  store ptr %node, ptr %node.addr, align 8
  %0 = load ptr, ptr %node.addr, align 8
  %_body = getelementptr inbounds %"class.hermes::ESTree::ForStatementNode", ptr %0, i32 0, i32 4
  %1 = load ptr, ptr %_body, align 8
  %call = call noundef ptr @_ZN12_GLOBAL__N_110ReturnTypeIPN6hermes6ESTree4NodeEE3getES4_(ptr noundef %1)
  ret ptr %call
}

; Function Attrs: mustprogress nounwind uwtable
define hidden ptr @hermes_get_BlockStatement_body(ptr noundef %node) #0 {
entry:
  %node.addr = alloca ptr, align 8
  store ptr %node, ptr %node.addr, align 8
  %0 = load ptr, ptr %node.addr, align 8
  %_body = getelementptr inbounds %"class.hermes::ESTree::BlockStatementNode", ptr %0, i32 0, i32 2
  %call = call noundef ptr @_ZN12_GLOBAL__N_110ReturnTypeIN4llvh12simple_ilistIN6hermes6ESTree4NodeEJEEEE3getERKS6_(ptr noundef nonnull align 8 dereferenceable(16) %_body)
  ret ptr %call
}

; Function Attrs: mustprogress nounwind uwtable
define hidden ptr @hermes_get_BreakStatement_label(ptr noundef %node) #0 {
entry:
  %node.addr = alloca ptr, align 8
  store ptr %node, ptr %node.addr, align 8
  %0 = load ptr, ptr %node.addr, align 8
  %_label = getelementptr inbounds %"class.hermes::ESTree::BreakStatementNode", ptr %0, i32 0, i32 2
  %1 = load ptr, ptr %_label, align 8
  %call = call noundef ptr @_ZN12_GLOBAL__N_110ReturnTypeIPN6hermes6ESTree4NodeEE3getES4_(ptr noundef %1)
  ret ptr %call
}

; Function Attrs: mustprogress nounwind uwtable
define hidden ptr @hermes_get_ContinueStatement_label(ptr noundef %node) #0 {
entry:
  %node.addr = alloca ptr, align 8
  store ptr %node, ptr %node.addr, align 8
  %0 = load ptr, ptr %node.addr, align 8
  %_label = getelementptr inbounds %"class.hermes::ESTree::ContinueStatementNode", ptr %0, i32 0, i32 2
  %1 = load ptr, ptr %_label, align 8
  %call = call noundef ptr @_ZN12_GLOBAL__N_110ReturnTypeIPN6hermes6ESTree4NodeEE3getES4_(ptr noundef %1)
  ret ptr %call
}

; Function Attrs: mustprogress nounwind uwtable
define hidden ptr @hermes_get_ThrowStatement_argument(ptr noundef %node) #0 {
entry:
  %node.addr = alloca ptr, align 8
  store ptr %node, ptr %node.addr, align 8
  %0 = load ptr, ptr %node.addr, align 8
  %_argument = getelementptr inbounds %"class.hermes::ESTree::ThrowStatementNode", ptr %0, i32 0, i32 1
  %1 = load ptr, ptr %_argument, align 8
  %call = call noundef ptr @_ZN12_GLOBAL__N_110ReturnTypeIPN6hermes6ESTree4NodeEE3getES4_(ptr noundef %1)
  ret ptr %call
}

; Function Attrs: mustprogress nounwind uwtable
define hidden ptr @hermes_get_ReturnStatement_argument(ptr noundef %node) #0 {
entry:
  %node.addr = alloca ptr, align 8
  store ptr %node, ptr %node.addr, align 8
  %0 = load ptr, ptr %node.addr, align 8
  %_argument = getelementptr inbounds %"class.hermes::ESTree::ReturnStatementNode", ptr %0, i32 0, i32 1
  %1 = load ptr, ptr %_argument, align 8
  %call = call noundef ptr @_ZN12_GLOBAL__N_110ReturnTypeIPN6hermes6ESTree4NodeEE3getES4_(ptr noundef %1)
  ret ptr %call
}

; Function Attrs: mustprogress nounwind uwtable
define hidden ptr @hermes_get_WithStatement_object(ptr noundef %node) #0 {
entry:
  %node.addr = alloca ptr, align 8
  store ptr %node, ptr %node.addr, align 8
  %0 = load ptr, ptr %node.addr, align 8
  %_object = getelementptr inbounds %"class.hermes::ESTree::WithStatementNode", ptr %0, i32 0, i32 1
  %1 = load ptr, ptr %_object, align 8
  %call = call noundef ptr @_ZN12_GLOBAL__N_110ReturnTypeIPN6hermes6ESTree4NodeEE3getES4_(ptr noundef %1)
  ret ptr %call
}

; Function Attrs: mustprogress nounwind uwtable
define hidden ptr @hermes_get_WithStatement_body(ptr noundef %node) #0 {
entry:
  %node.addr = alloca ptr, align 8
  store ptr %node, ptr %node.addr, align 8
  %0 = load ptr, ptr %node.addr, align 8
  %_body = getelementptr inbounds %"class.hermes::ESTree::WithStatementNode", ptr %0, i32 0, i32 2
  %1 = load ptr, ptr %_body, align 8
  %call = call noundef ptr @_ZN12_GLOBAL__N_110ReturnTypeIPN6hermes6ESTree4NodeEE3getES4_(ptr noundef %1)
  ret ptr %call
}

; Function Attrs: mustprogress nounwind uwtable
define hidden ptr @hermes_get_SwitchStatement_discriminant(ptr noundef %node) #0 {
entry:
  %node.addr = alloca ptr, align 8
  store ptr %node, ptr %node.addr, align 8
  %0 = load ptr, ptr %node.addr, align 8
  %_discriminant = getelementptr inbounds %"class.hermes::ESTree::SwitchStatementNode", ptr %0, i32 0, i32 2
  %1 = load ptr, ptr %_discriminant, align 8
  %call = call noundef ptr @_ZN12_GLOBAL__N_110ReturnTypeIPN6hermes6ESTree4NodeEE3getES4_(ptr noundef %1)
  ret ptr %call
}

; Function Attrs: mustprogress nounwind uwtable
define hidden ptr @hermes_get_SwitchStatement_cases(ptr noundef %node) #0 {
entry:
  %node.addr = alloca ptr, align 8
  store ptr %node, ptr %node.addr, align 8
  %0 = load ptr, ptr %node.addr, align 8
  %_cases = getelementptr inbounds %"class.hermes::ESTree::SwitchStatementNode", ptr %0, i32 0, i32 3
  %call = call noundef ptr @_ZN12_GLOBAL__N_110ReturnTypeIN4llvh12simple_ilistIN6hermes6ESTree4NodeEJEEEE3getERKS6_(ptr noundef nonnull align 8 dereferenceable(16) %_cases)
  ret ptr %call
}

; Function Attrs: mustprogress nounwind uwtable
define hidden ptr @hermes_get_LabeledStatement_label(ptr noundef %node) #0 {
entry:
  %node.addr = alloca ptr, align 8
  store ptr %node, ptr %node.addr, align 8
  %0 = load ptr, ptr %node.addr, align 8
  %_label = getelementptr inbounds %"class.hermes::ESTree::LabeledStatementNode", ptr %0, i32 0, i32 2
  %1 = load ptr, ptr %_label, align 8
  %call = call noundef ptr @_ZN12_GLOBAL__N_110ReturnTypeIPN6hermes6ESTree4NodeEE3getES4_(ptr noundef %1)
  ret ptr %call
}

; Function Attrs: mustprogress nounwind uwtable
define hidden ptr @hermes_get_LabeledStatement_body(ptr noundef %node) #0 {
entry:
  %node.addr = alloca ptr, align 8
  store ptr %node, ptr %node.addr, align 8
  %0 = load ptr, ptr %node.addr, align 8
  %_body = getelementptr inbounds %"class.hermes::ESTree::LabeledStatementNode", ptr %0, i32 0, i32 3
  %1 = load ptr, ptr %_body, align 8
  %call = call noundef ptr @_ZN12_GLOBAL__N_110ReturnTypeIPN6hermes6ESTree4NodeEE3getES4_(ptr noundef %1)
  ret ptr %call
}

; Function Attrs: mustprogress nounwind uwtable
define hidden ptr @hermes_get_ExpressionStatement_expression(ptr noundef %node) #0 {
entry:
  %node.addr = alloca ptr, align 8
  store ptr %node, ptr %node.addr, align 8
  %0 = load ptr, ptr %node.addr, align 8
  %_expression = getelementptr inbounds %"class.hermes::ESTree::ExpressionStatementNode", ptr %0, i32 0, i32 1
  %1 = load ptr, ptr %_expression, align 8
  %call = call noundef ptr @_ZN12_GLOBAL__N_110ReturnTypeIPN6hermes6ESTree4NodeEE3getES4_(ptr noundef %1)
  ret ptr %call
}

; Function Attrs: mustprogress nounwind uwtable
define hidden ptr @hermes_get_ExpressionStatement_directive(ptr noundef %node) #0 {
entry:
  %node.addr = alloca ptr, align 8
  store ptr %node, ptr %node.addr, align 8
  %0 = load ptr, ptr %node.addr, align 8
  %_directive = getelementptr inbounds %"class.hermes::ESTree::ExpressionStatementNode", ptr %0, i32 0, i32 2
  %1 = load ptr, ptr %_directive, align 8
  %call = call noundef ptr @_ZN12_GLOBAL__N_110ReturnTypeIPN6hermes12UniqueStringEE3getES3_(ptr noundef %1)
  ret ptr %call
}

; Function Attrs: mustprogress nounwind uwtable
define internal noundef ptr @_ZN12_GLOBAL__N_110ReturnTypeIPN6hermes12UniqueStringEE3getES3_(ptr noundef %x) #0 align 2 {
entry:
  %x.addr = alloca ptr, align 8
  store ptr %x, ptr %x.addr, align 8
  %0 = load ptr, ptr %x.addr, align 8
  ret ptr %0
}

; Function Attrs: mustprogress nounwind uwtable
define hidden ptr @hermes_get_TryStatement_block(ptr noundef %node) #0 {
entry:
  %node.addr = alloca ptr, align 8
  store ptr %node, ptr %node.addr, align 8
  %0 = load ptr, ptr %node.addr, align 8
  %_block = getelementptr inbounds %"class.hermes::ESTree::TryStatementNode", ptr %0, i32 0, i32 1
  %1 = load ptr, ptr %_block, align 8
  %call = call noundef ptr @_ZN12_GLOBAL__N_110ReturnTypeIPN6hermes6ESTree4NodeEE3getES4_(ptr noundef %1)
  ret ptr %call
}

; Function Attrs: mustprogress nounwind uwtable
define hidden ptr @hermes_get_TryStatement_handler(ptr noundef %node) #0 {
entry:
  %node.addr = alloca ptr, align 8
  store ptr %node, ptr %node.addr, align 8
  %0 = load ptr, ptr %node.addr, align 8
  %_handler = getelementptr inbounds %"class.hermes::ESTree::TryStatementNode", ptr %0, i32 0, i32 2
  %1 = load ptr, ptr %_handler, align 8
  %call = call noundef ptr @_ZN12_GLOBAL__N_110ReturnTypeIPN6hermes6ESTree4NodeEE3getES4_(ptr noundef %1)
  ret ptr %call
}

; Function Attrs: mustprogress nounwind uwtable
define hidden ptr @hermes_get_TryStatement_finalizer(ptr noundef %node) #0 {
entry:
  %node.addr = alloca ptr, align 8
  store ptr %node, ptr %node.addr, align 8
  %0 = load ptr, ptr %node.addr, align 8
  %_finalizer = getelementptr inbounds %"class.hermes::ESTree::TryStatementNode", ptr %0, i32 0, i32 3
  %1 = load ptr, ptr %_finalizer, align 8
  %call = call noundef ptr @_ZN12_GLOBAL__N_110ReturnTypeIPN6hermes6ESTree4NodeEE3getES4_(ptr noundef %1)
  ret ptr %call
}

; Function Attrs: mustprogress nounwind uwtable
define hidden ptr @hermes_get_IfStatement_test(ptr noundef %node) #0 {
entry:
  %node.addr = alloca ptr, align 8
  store ptr %node, ptr %node.addr, align 8
  %0 = load ptr, ptr %node.addr, align 8
  %_test = getelementptr inbounds %"class.hermes::ESTree::IfStatementNode", ptr %0, i32 0, i32 1
  %1 = load ptr, ptr %_test, align 8
  %call = call noundef ptr @_ZN12_GLOBAL__N_110ReturnTypeIPN6hermes6ESTree4NodeEE3getES4_(ptr noundef %1)
  ret ptr %call
}

; Function Attrs: mustprogress nounwind uwtable
define hidden ptr @hermes_get_IfStatement_consequent(ptr noundef %node) #0 {
entry:
  %node.addr = alloca ptr, align 8
  store ptr %node, ptr %node.addr, align 8
  %0 = load ptr, ptr %node.addr, align 8
  %_consequent = getelementptr inbounds %"class.hermes::ESTree::IfStatementNode", ptr %0, i32 0, i32 2
  %1 = load ptr, ptr %_consequent, align 8
  %call = call noundef ptr @_ZN12_GLOBAL__N_110ReturnTypeIPN6hermes6ESTree4NodeEE3getES4_(ptr noundef %1)
  ret ptr %call
}

; Function Attrs: mustprogress nounwind uwtable
define hidden ptr @hermes_get_IfStatement_alternate(ptr noundef %node) #0 {
entry:
  %node.addr = alloca ptr, align 8
  store ptr %node, ptr %node.addr, align 8
  %0 = load ptr, ptr %node.addr, align 8
  %_alternate = getelementptr inbounds %"class.hermes::ESTree::IfStatementNode", ptr %0, i32 0, i32 3
  %1 = load ptr, ptr %_alternate, align 8
  %call = call noundef ptr @_ZN12_GLOBAL__N_110ReturnTypeIPN6hermes6ESTree4NodeEE3getES4_(ptr noundef %1)
  ret ptr %call
}

; Function Attrs: mustprogress nounwind uwtable
define hidden zeroext i1 @hermes_get_BooleanLiteral_value(ptr noundef %node) #0 {
entry:
  %node.addr = alloca ptr, align 8
  store ptr %node, ptr %node.addr, align 8
  %0 = load ptr, ptr %node.addr, align 8
  %_value = getelementptr inbounds %"class.hermes::ESTree::BooleanLiteralNode", ptr %0, i32 0, i32 1
  %1 = load i8, ptr %_value, align 8
  %tobool = trunc i8 %1 to i1
  %call = call noundef zeroext i1 @_ZN12_GLOBAL__N_110ReturnTypeIbE3getEb(i1 noundef zeroext %tobool)
  ret i1 %call
}

; Function Attrs: mustprogress nounwind uwtable
define hidden ptr @hermes_get_StringLiteral_value(ptr noundef %node) #0 {
entry:
  %node.addr = alloca ptr, align 8
  store ptr %node, ptr %node.addr, align 8
  %0 = load ptr, ptr %node.addr, align 8
  %_value = getelementptr inbounds %"class.hermes::ESTree::StringLiteralNode", ptr %0, i32 0, i32 1
  %1 = load ptr, ptr %_value, align 8
  %call = call noundef ptr @_ZN12_GLOBAL__N_110ReturnTypeIPN6hermes12UniqueStringEE3getES3_(ptr noundef %1)
  ret ptr %call
}

; Function Attrs: mustprogress nounwind uwtable
define hidden double @hermes_get_NumericLiteral_value(ptr noundef %node) #0 {
entry:
  %node.addr = alloca ptr, align 8
  store ptr %node, ptr %node.addr, align 8
  %0 = load ptr, ptr %node.addr, align 8
  %_value = getelementptr inbounds %"class.hermes::ESTree::NumericLiteralNode", ptr %0, i32 0, i32 1
  %1 = load double, ptr %_value, align 8
  %call = call noundef double @_ZN12_GLOBAL__N_110ReturnTypeIdE3getEd(double noundef %1)
  ret double %call
}

; Function Attrs: mustprogress nounwind uwtable
define internal noundef double @_ZN12_GLOBAL__N_110ReturnTypeIdE3getEd(double noundef %x) #0 align 2 {
entry:
  %x.addr = alloca double, align 8
  store double %x, ptr %x.addr, align 8
  %0 = load double, ptr %x.addr, align 8
  ret double %0
}

; Function Attrs: mustprogress nounwind uwtable
define hidden ptr @hermes_get_RegExpLiteral_pattern(ptr noundef %node) #0 {
entry:
  %node.addr = alloca ptr, align 8
  store ptr %node, ptr %node.addr, align 8
  %0 = load ptr, ptr %node.addr, align 8
  %_pattern = getelementptr inbounds %"class.hermes::ESTree::RegExpLiteralNode", ptr %0, i32 0, i32 1
  %1 = load ptr, ptr %_pattern, align 8
  %call = call noundef ptr @_ZN12_GLOBAL__N_110ReturnTypeIPN6hermes12UniqueStringEE3getES3_(ptr noundef %1)
  ret ptr %call
}

; Function Attrs: mustprogress nounwind uwtable
define hidden ptr @hermes_get_RegExpLiteral_flags(ptr noundef %node) #0 {
entry:
  %node.addr = alloca ptr, align 8
  store ptr %node, ptr %node.addr, align 8
  %0 = load ptr, ptr %node.addr, align 8
  %_flags = getelementptr inbounds %"class.hermes::ESTree::RegExpLiteralNode", ptr %0, i32 0, i32 2
  %1 = load ptr, ptr %_flags, align 8
  %call = call noundef ptr @_ZN12_GLOBAL__N_110ReturnTypeIPN6hermes12UniqueStringEE3getES3_(ptr noundef %1)
  ret ptr %call
}

; Function Attrs: mustprogress nounwind uwtable
define hidden ptr @hermes_get_BigIntLiteral_bigint(ptr noundef %node) #0 {
entry:
  %node.addr = alloca ptr, align 8
  store ptr %node, ptr %node.addr, align 8
  %0 = load ptr, ptr %node.addr, align 8
  %_bigint = getelementptr inbounds %"class.hermes::ESTree::BigIntLiteralNode", ptr %0, i32 0, i32 1
  %1 = load ptr, ptr %_bigint, align 8
  %call = call noundef ptr @_ZN12_GLOBAL__N_110ReturnTypeIPN6hermes12UniqueStringEE3getES3_(ptr noundef %1)
  ret ptr %call
}

; Function Attrs: mustprogress nounwind uwtable
define hidden ptr @hermes_get_SequenceExpression_expressions(ptr noundef %node) #0 {
entry:
  %node.addr = alloca ptr, align 8
  store ptr %node, ptr %node.addr, align 8
  %0 = load ptr, ptr %node.addr, align 8
  %_expressions = getelementptr inbounds %"class.hermes::ESTree::SequenceExpressionNode", ptr %0, i32 0, i32 1
  %call = call noundef ptr @_ZN12_GLOBAL__N_110ReturnTypeIN4llvh12simple_ilistIN6hermes6ESTree4NodeEJEEEE3getERKS6_(ptr noundef nonnull align 8 dereferenceable(16) %_expressions)
  ret ptr %call
}

; Function Attrs: mustprogress nounwind uwtable
define hidden ptr @hermes_get_ObjectExpression_properties(ptr noundef %node) #0 {
entry:
  %node.addr = alloca ptr, align 8
  store ptr %node, ptr %node.addr, align 8
  %0 = load ptr, ptr %node.addr, align 8
  %_properties = getelementptr inbounds %"class.hermes::ESTree::ObjectExpressionNode", ptr %0, i32 0, i32 1
  %call = call noundef ptr @_ZN12_GLOBAL__N_110ReturnTypeIN4llvh12simple_ilistIN6hermes6ESTree4NodeEJEEEE3getERKS6_(ptr noundef nonnull align 8 dereferenceable(16) %_properties)
  ret ptr %call
}

; Function Attrs: mustprogress nounwind uwtable
define hidden ptr @hermes_get_ArrayExpression_elements(ptr noundef %node) #0 {
entry:
  %node.addr = alloca ptr, align 8
  store ptr %node, ptr %node.addr, align 8
  %0 = load ptr, ptr %node.addr, align 8
  %_elements = getelementptr inbounds %"class.hermes::ESTree::ArrayExpressionNode", ptr %0, i32 0, i32 1
  %call = call noundef ptr @_ZN12_GLOBAL__N_110ReturnTypeIN4llvh12simple_ilistIN6hermes6ESTree4NodeEJEEEE3getERKS6_(ptr noundef nonnull align 8 dereferenceable(16) %_elements)
  ret ptr %call
}

; Function Attrs: mustprogress nounwind uwtable
define hidden zeroext i1 @hermes_get_ArrayExpression_trailingComma(ptr noundef %node) #0 {
entry:
  %node.addr = alloca ptr, align 8
  store ptr %node, ptr %node.addr, align 8
  %0 = load ptr, ptr %node.addr, align 8
  %_trailingComma = getelementptr inbounds %"class.hermes::ESTree::ArrayExpressionNode", ptr %0, i32 0, i32 2
  %1 = load i8, ptr %_trailingComma, align 8
  %tobool = trunc i8 %1 to i1
  %call = call noundef zeroext i1 @_ZN12_GLOBAL__N_110ReturnTypeIbE3getEb(i1 noundef zeroext %tobool)
  ret i1 %call
}

; Function Attrs: mustprogress nounwind uwtable
define hidden ptr @hermes_get_SpreadElement_argument(ptr noundef %node) #0 {
entry:
  %node.addr = alloca ptr, align 8
  store ptr %node, ptr %node.addr, align 8
  %0 = load ptr, ptr %node.addr, align 8
  %_argument = getelementptr inbounds %"class.hermes::ESTree::SpreadElementNode", ptr %0, i32 0, i32 1
  %1 = load ptr, ptr %_argument, align 8
  %call = call noundef ptr @_ZN12_GLOBAL__N_110ReturnTypeIPN6hermes6ESTree4NodeEE3getES4_(ptr noundef %1)
  ret ptr %call
}

; Function Attrs: mustprogress nounwind uwtable
define hidden ptr @hermes_get_NewExpression_callee(ptr noundef %node) #0 {
entry:
  %node.addr = alloca ptr, align 8
  store ptr %node, ptr %node.addr, align 8
  %0 = load ptr, ptr %node.addr, align 8
  %_callee = getelementptr inbounds %"class.hermes::ESTree::NewExpressionNode", ptr %0, i32 0, i32 1
  %1 = load ptr, ptr %_callee, align 8
  %call = call noundef ptr @_ZN12_GLOBAL__N_110ReturnTypeIPN6hermes6ESTree4NodeEE3getES4_(ptr noundef %1)
  ret ptr %call
}

; Function Attrs: mustprogress nounwind uwtable
define hidden ptr @hermes_get_NewExpression_typeArguments(ptr noundef %node) #0 {
entry:
  %node.addr = alloca ptr, align 8
  store ptr %node, ptr %node.addr, align 8
  %0 = load ptr, ptr %node.addr, align 8
  %_typeArguments = getelementptr inbounds %"class.hermes::ESTree::NewExpressionNode", ptr %0, i32 0, i32 2
  %1 = load ptr, ptr %_typeArguments, align 8
  %call = call noundef ptr @_ZN12_GLOBAL__N_110ReturnTypeIPN6hermes6ESTree4NodeEE3getES4_(ptr noundef %1)
  ret ptr %call
}

; Function Attrs: mustprogress nounwind uwtable
define hidden ptr @hermes_get_NewExpression_arguments(ptr noundef %node) #0 {
entry:
  %node.addr = alloca ptr, align 8
  store ptr %node, ptr %node.addr, align 8
  %0 = load ptr, ptr %node.addr, align 8
  %_arguments = getelementptr inbounds %"class.hermes::ESTree::NewExpressionNode", ptr %0, i32 0, i32 3
  %call = call noundef ptr @_ZN12_GLOBAL__N_110ReturnTypeIN4llvh12simple_ilistIN6hermes6ESTree4NodeEJEEEE3getERKS6_(ptr noundef nonnull align 8 dereferenceable(16) %_arguments)
  ret ptr %call
}

; Function Attrs: mustprogress nounwind uwtable
define hidden ptr @hermes_get_YieldExpression_argument(ptr noundef %node) #0 {
entry:
  %node.addr = alloca ptr, align 8
  store ptr %node, ptr %node.addr, align 8
  %0 = load ptr, ptr %node.addr, align 8
  %_argument = getelementptr inbounds %"class.hermes::ESTree::YieldExpressionNode", ptr %0, i32 0, i32 1
  %1 = load ptr, ptr %_argument, align 8
  %call = call noundef ptr @_ZN12_GLOBAL__N_110ReturnTypeIPN6hermes6ESTree4NodeEE3getES4_(ptr noundef %1)
  ret ptr %call
}

; Function Attrs: mustprogress nounwind uwtable
define hidden zeroext i1 @hermes_get_YieldExpression_delegate(ptr noundef %node) #0 {
entry:
  %node.addr = alloca ptr, align 8
  store ptr %node, ptr %node.addr, align 8
  %0 = load ptr, ptr %node.addr, align 8
  %_delegate = getelementptr inbounds %"class.hermes::ESTree::YieldExpressionNode", ptr %0, i32 0, i32 2
  %1 = load i8, ptr %_delegate, align 8
  %tobool = trunc i8 %1 to i1
  %call = call noundef zeroext i1 @_ZN12_GLOBAL__N_110ReturnTypeIbE3getEb(i1 noundef zeroext %tobool)
  ret i1 %call
}

; Function Attrs: mustprogress nounwind uwtable
define hidden ptr @hermes_get_AwaitExpression_argument(ptr noundef %node) #0 {
entry:
  %node.addr = alloca ptr, align 8
  store ptr %node, ptr %node.addr, align 8
  %0 = load ptr, ptr %node.addr, align 8
  %_argument = getelementptr inbounds %"class.hermes::ESTree::AwaitExpressionNode", ptr %0, i32 0, i32 1
  %1 = load ptr, ptr %_argument, align 8
  %call = call noundef ptr @_ZN12_GLOBAL__N_110ReturnTypeIPN6hermes6ESTree4NodeEE3getES4_(ptr noundef %1)
  ret ptr %call
}

; Function Attrs: mustprogress nounwind uwtable
define hidden ptr @hermes_get_ImportExpression_source(ptr noundef %node) #0 {
entry:
  %node.addr = alloca ptr, align 8
  store ptr %node, ptr %node.addr, align 8
  %0 = load ptr, ptr %node.addr, align 8
  %_source = getelementptr inbounds %"class.hermes::ESTree::ImportExpressionNode", ptr %0, i32 0, i32 1
  %1 = load ptr, ptr %_source, align 8
  %call = call noundef ptr @_ZN12_GLOBAL__N_110ReturnTypeIPN6hermes6ESTree4NodeEE3getES4_(ptr noundef %1)
  ret ptr %call
}

; Function Attrs: mustprogress nounwind uwtable
define hidden ptr @hermes_get_ImportExpression_attributes(ptr noundef %node) #0 {
entry:
  %node.addr = alloca ptr, align 8
  store ptr %node, ptr %node.addr, align 8
  %0 = load ptr, ptr %node.addr, align 8
  %_attributes = getelementptr inbounds %"class.hermes::ESTree::ImportExpressionNode", ptr %0, i32 0, i32 2
  %1 = load ptr, ptr %_attributes, align 8
  %call = call noundef ptr @_ZN12_GLOBAL__N_110ReturnTypeIPN6hermes6ESTree4NodeEE3getES4_(ptr noundef %1)
  ret ptr %call
}

; Function Attrs: mustprogress nounwind uwtable
define hidden ptr @hermes_get_CallExpression_callee(ptr noundef %node) #0 {
entry:
  %node.addr = alloca ptr, align 8
  store ptr %node, ptr %node.addr, align 8
  %0 = load ptr, ptr %node.addr, align 8
  %_callee = getelementptr inbounds %"class.hermes::ESTree::CallExpressionNode", ptr %0, i32 0, i32 1
  %1 = load ptr, ptr %_callee, align 8
  %call = call noundef ptr @_ZN12_GLOBAL__N_110ReturnTypeIPN6hermes6ESTree4NodeEE3getES4_(ptr noundef %1)
  ret ptr %call
}

; Function Attrs: mustprogress nounwind uwtable
define hidden ptr @hermes_get_CallExpression_typeArguments(ptr noundef %node) #0 {
entry:
  %node.addr = alloca ptr, align 8
  store ptr %node, ptr %node.addr, align 8
  %0 = load ptr, ptr %node.addr, align 8
  %_typeArguments = getelementptr inbounds %"class.hermes::ESTree::CallExpressionNode", ptr %0, i32 0, i32 2
  %1 = load ptr, ptr %_typeArguments, align 8
  %call = call noundef ptr @_ZN12_GLOBAL__N_110ReturnTypeIPN6hermes6ESTree4NodeEE3getES4_(ptr noundef %1)
  ret ptr %call
}

; Function Attrs: mustprogress nounwind uwtable
define hidden ptr @hermes_get_CallExpression_arguments(ptr noundef %node) #0 {
entry:
  %node.addr = alloca ptr, align 8
  store ptr %node, ptr %node.addr, align 8
  %0 = load ptr, ptr %node.addr, align 8
  %_arguments = getelementptr inbounds %"class.hermes::ESTree::CallExpressionNode", ptr %0, i32 0, i32 3
  %call = call noundef ptr @_ZN12_GLOBAL__N_110ReturnTypeIN4llvh12simple_ilistIN6hermes6ESTree4NodeEJEEEE3getERKS6_(ptr noundef nonnull align 8 dereferenceable(16) %_arguments)
  ret ptr %call
}

; Function Attrs: mustprogress nounwind uwtable
define hidden ptr @hermes_get_OptionalCallExpression_callee(ptr noundef %node) #0 {
entry:
  %node.addr = alloca ptr, align 8
  store ptr %node, ptr %node.addr, align 8
  %0 = load ptr, ptr %node.addr, align 8
  %_callee = getelementptr inbounds %"class.hermes::ESTree::OptionalCallExpressionNode", ptr %0, i32 0, i32 1
  %1 = load ptr, ptr %_callee, align 8
  %call = call noundef ptr @_ZN12_GLOBAL__N_110ReturnTypeIPN6hermes6ESTree4NodeEE3getES4_(ptr noundef %1)
  ret ptr %call
}

; Function Attrs: mustprogress nounwind uwtable
define hidden ptr @hermes_get_OptionalCallExpression_typeArguments(ptr noundef %node) #0 {
entry:
  %node.addr = alloca ptr, align 8
  store ptr %node, ptr %node.addr, align 8
  %0 = load ptr, ptr %node.addr, align 8
  %_typeArguments = getelementptr inbounds %"class.hermes::ESTree::OptionalCallExpressionNode", ptr %0, i32 0, i32 2
  %1 = load ptr, ptr %_typeArguments, align 8
  %call = call noundef ptr @_ZN12_GLOBAL__N_110ReturnTypeIPN6hermes6ESTree4NodeEE3getES4_(ptr noundef %1)
  ret ptr %call
}

; Function Attrs: mustprogress nounwind uwtable
define hidden ptr @hermes_get_OptionalCallExpression_arguments(ptr noundef %node) #0 {
entry:
  %node.addr = alloca ptr, align 8
  store ptr %node, ptr %node.addr, align 8
  %0 = load ptr, ptr %node.addr, align 8
  %_arguments = getelementptr inbounds %"class.hermes::ESTree::OptionalCallExpressionNode", ptr %0, i32 0, i32 3
  %call = call noundef ptr @_ZN12_GLOBAL__N_110ReturnTypeIN4llvh12simple_ilistIN6hermes6ESTree4NodeEJEEEE3getERKS6_(ptr noundef nonnull align 8 dereferenceable(16) %_arguments)
  ret ptr %call
}

; Function Attrs: mustprogress nounwind uwtable
define hidden zeroext i1 @hermes_get_OptionalCallExpression_optional(ptr noundef %node) #0 {
entry:
  %node.addr = alloca ptr, align 8
  store ptr %node, ptr %node.addr, align 8
  %0 = load ptr, ptr %node.addr, align 8
  %_optional = getelementptr inbounds %"class.hermes::ESTree::OptionalCallExpressionNode", ptr %0, i32 0, i32 4
  %1 = load i8, ptr %_optional, align 8
  %tobool = trunc i8 %1 to i1
  %call = call noundef zeroext i1 @_ZN12_GLOBAL__N_110ReturnTypeIbE3getEb(i1 noundef zeroext %tobool)
  ret i1 %call
}

; Function Attrs: mustprogress nounwind uwtable
define hidden ptr @hermes_get_AssignmentExpression_operator(ptr noundef %node) #0 {
entry:
  %node.addr = alloca ptr, align 8
  store ptr %node, ptr %node.addr, align 8
  %0 = load ptr, ptr %node.addr, align 8
  %_operator = getelementptr inbounds %"class.hermes::ESTree::AssignmentExpressionNode", ptr %0, i32 0, i32 1
  %1 = load ptr, ptr %_operator, align 8
  %call = call noundef ptr @_ZN12_GLOBAL__N_110ReturnTypeIPN6hermes12UniqueStringEE3getES3_(ptr noundef %1)
  ret ptr %call
}

; Function Attrs: mustprogress nounwind uwtable
define hidden ptr @hermes_get_AssignmentExpression_left(ptr noundef %node) #0 {
entry:
  %node.addr = alloca ptr, align 8
  store ptr %node, ptr %node.addr, align 8
  %0 = load ptr, ptr %node.addr, align 8
  %_left = getelementptr inbounds %"class.hermes::ESTree::AssignmentExpressionNode", ptr %0, i32 0, i32 2
  %1 = load ptr, ptr %_left, align 8
  %call = call noundef ptr @_ZN12_GLOBAL__N_110ReturnTypeIPN6hermes6ESTree4NodeEE3getES4_(ptr noundef %1)
  ret ptr %call
}

; Function Attrs: mustprogress nounwind uwtable
define hidden ptr @hermes_get_AssignmentExpression_right(ptr noundef %node) #0 {
entry:
  %node.addr = alloca ptr, align 8
  store ptr %node, ptr %node.addr, align 8
  %0 = load ptr, ptr %node.addr, align 8
  %_right = getelementptr inbounds %"class.hermes::ESTree::AssignmentExpressionNode", ptr %0, i32 0, i32 3
  %1 = load ptr, ptr %_right, align 8
  %call = call noundef ptr @_ZN12_GLOBAL__N_110ReturnTypeIPN6hermes6ESTree4NodeEE3getES4_(ptr noundef %1)
  ret ptr %call
}

; Function Attrs: mustprogress nounwind uwtable
define hidden ptr @hermes_get_UnaryExpression_operator(ptr noundef %node) #0 {
entry:
  %node.addr = alloca ptr, align 8
  store ptr %node, ptr %node.addr, align 8
  %0 = load ptr, ptr %node.addr, align 8
  %_operator = getelementptr inbounds %"class.hermes::ESTree::UnaryExpressionNode", ptr %0, i32 0, i32 1
  %1 = load ptr, ptr %_operator, align 8
  %call = call noundef ptr @_ZN12_GLOBAL__N_110ReturnTypeIPN6hermes12UniqueStringEE3getES3_(ptr noundef %1)
  ret ptr %call
}

; Function Attrs: mustprogress nounwind uwtable
define hidden ptr @hermes_get_UnaryExpression_argument(ptr noundef %node) #0 {
entry:
  %node.addr = alloca ptr, align 8
  store ptr %node, ptr %node.addr, align 8
  %0 = load ptr, ptr %node.addr, align 8
  %_argument = getelementptr inbounds %"class.hermes::ESTree::UnaryExpressionNode", ptr %0, i32 0, i32 2
  %1 = load ptr, ptr %_argument, align 8
  %call = call noundef ptr @_ZN12_GLOBAL__N_110ReturnTypeIPN6hermes6ESTree4NodeEE3getES4_(ptr noundef %1)
  ret ptr %call
}

; Function Attrs: mustprogress nounwind uwtable
define hidden zeroext i1 @hermes_get_UnaryExpression_prefix(ptr noundef %node) #0 {
entry:
  %node.addr = alloca ptr, align 8
  store ptr %node, ptr %node.addr, align 8
  %0 = load ptr, ptr %node.addr, align 8
  %_prefix = getelementptr inbounds %"class.hermes::ESTree::UnaryExpressionNode", ptr %0, i32 0, i32 3
  %1 = load i8, ptr %_prefix, align 8
  %tobool = trunc i8 %1 to i1
  %call = call noundef zeroext i1 @_ZN12_GLOBAL__N_110ReturnTypeIbE3getEb(i1 noundef zeroext %tobool)
  ret i1 %call
}

; Function Attrs: mustprogress nounwind uwtable
define hidden ptr @hermes_get_UpdateExpression_operator(ptr noundef %node) #0 {
entry:
  %node.addr = alloca ptr, align 8
  store ptr %node, ptr %node.addr, align 8
  %0 = load ptr, ptr %node.addr, align 8
  %_operator = getelementptr inbounds %"class.hermes::ESTree::UpdateExpressionNode", ptr %0, i32 0, i32 1
  %1 = load ptr, ptr %_operator, align 8
  %call = call noundef ptr @_ZN12_GLOBAL__N_110ReturnTypeIPN6hermes12UniqueStringEE3getES3_(ptr noundef %1)
  ret ptr %call
}

; Function Attrs: mustprogress nounwind uwtable
define hidden ptr @hermes_get_UpdateExpression_argument(ptr noundef %node) #0 {
entry:
  %node.addr = alloca ptr, align 8
  store ptr %node, ptr %node.addr, align 8
  %0 = load ptr, ptr %node.addr, align 8
  %_argument = getelementptr inbounds %"class.hermes::ESTree::UpdateExpressionNode", ptr %0, i32 0, i32 2
  %1 = load ptr, ptr %_argument, align 8
  %call = call noundef ptr @_ZN12_GLOBAL__N_110ReturnTypeIPN6hermes6ESTree4NodeEE3getES4_(ptr noundef %1)
  ret ptr %call
}

; Function Attrs: mustprogress nounwind uwtable
define hidden zeroext i1 @hermes_get_UpdateExpression_prefix(ptr noundef %node) #0 {
entry:
  %node.addr = alloca ptr, align 8
  store ptr %node, ptr %node.addr, align 8
  %0 = load ptr, ptr %node.addr, align 8
  %_prefix = getelementptr inbounds %"class.hermes::ESTree::UpdateExpressionNode", ptr %0, i32 0, i32 3
  %1 = load i8, ptr %_prefix, align 8
  %tobool = trunc i8 %1 to i1
  %call = call noundef zeroext i1 @_ZN12_GLOBAL__N_110ReturnTypeIbE3getEb(i1 noundef zeroext %tobool)
  ret i1 %call
}

; Function Attrs: mustprogress nounwind uwtable
define hidden ptr @hermes_get_MemberExpression_object(ptr noundef %node) #0 {
entry:
  %node.addr = alloca ptr, align 8
  store ptr %node, ptr %node.addr, align 8
  %0 = load ptr, ptr %node.addr, align 8
  %_object = getelementptr inbounds %"class.hermes::ESTree::MemberExpressionNode", ptr %0, i32 0, i32 1
  %1 = load ptr, ptr %_object, align 8
  %call = call noundef ptr @_ZN12_GLOBAL__N_110ReturnTypeIPN6hermes6ESTree4NodeEE3getES4_(ptr noundef %1)
  ret ptr %call
}

; Function Attrs: mustprogress nounwind uwtable
define hidden ptr @hermes_get_MemberExpression_property(ptr noundef %node) #0 {
entry:
  %node.addr = alloca ptr, align 8
  store ptr %node, ptr %node.addr, align 8
  %0 = load ptr, ptr %node.addr, align 8
  %_property = getelementptr inbounds %"class.hermes::ESTree::MemberExpressionNode", ptr %0, i32 0, i32 2
  %1 = load ptr, ptr %_property, align 8
  %call = call noundef ptr @_ZN12_GLOBAL__N_110ReturnTypeIPN6hermes6ESTree4NodeEE3getES4_(ptr noundef %1)
  ret ptr %call
}

; Function Attrs: mustprogress nounwind uwtable
define hidden zeroext i1 @hermes_get_MemberExpression_computed(ptr noundef %node) #0 {
entry:
  %node.addr = alloca ptr, align 8
  store ptr %node, ptr %node.addr, align 8
  %0 = load ptr, ptr %node.addr, align 8
  %_computed = getelementptr inbounds %"class.hermes::ESTree::MemberExpressionNode", ptr %0, i32 0, i32 3
  %1 = load i8, ptr %_computed, align 8
  %tobool = trunc i8 %1 to i1
  %call = call noundef zeroext i1 @_ZN12_GLOBAL__N_110ReturnTypeIbE3getEb(i1 noundef zeroext %tobool)
  ret i1 %call
}

; Function Attrs: mustprogress nounwind uwtable
define hidden ptr @hermes_get_OptionalMemberExpression_object(ptr noundef %node) #0 {
entry:
  %node.addr = alloca ptr, align 8
  store ptr %node, ptr %node.addr, align 8
  %0 = load ptr, ptr %node.addr, align 8
  %_object = getelementptr inbounds %"class.hermes::ESTree::OptionalMemberExpressionNode", ptr %0, i32 0, i32 1
  %1 = load ptr, ptr %_object, align 8
  %call = call noundef ptr @_ZN12_GLOBAL__N_110ReturnTypeIPN6hermes6ESTree4NodeEE3getES4_(ptr noundef %1)
  ret ptr %call
}

; Function Attrs: mustprogress nounwind uwtable
define hidden ptr @hermes_get_OptionalMemberExpression_property(ptr noundef %node) #0 {
entry:
  %node.addr = alloca ptr, align 8
  store ptr %node, ptr %node.addr, align 8
  %0 = load ptr, ptr %node.addr, align 8
  %_property = getelementptr inbounds %"class.hermes::ESTree::OptionalMemberExpressionNode", ptr %0, i32 0, i32 2
  %1 = load ptr, ptr %_property, align 8
  %call = call noundef ptr @_ZN12_GLOBAL__N_110ReturnTypeIPN6hermes6ESTree4NodeEE3getES4_(ptr noundef %1)
  ret ptr %call
}

; Function Attrs: mustprogress nounwind uwtable
define hidden zeroext i1 @hermes_get_OptionalMemberExpression_computed(ptr noundef %node) #0 {
entry:
  %node.addr = alloca ptr, align 8
  store ptr %node, ptr %node.addr, align 8
  %0 = load ptr, ptr %node.addr, align 8
  %_computed = getelementptr inbounds %"class.hermes::ESTree::OptionalMemberExpressionNode", ptr %0, i32 0, i32 3
  %1 = load i8, ptr %_computed, align 8
  %tobool = trunc i8 %1 to i1
  %call = call noundef zeroext i1 @_ZN12_GLOBAL__N_110ReturnTypeIbE3getEb(i1 noundef zeroext %tobool)
  ret i1 %call
}

; Function Attrs: mustprogress nounwind uwtable
define hidden zeroext i1 @hermes_get_OptionalMemberExpression_optional(ptr noundef %node) #0 {
entry:
  %node.addr = alloca ptr, align 8
  store ptr %node, ptr %node.addr, align 8
  %0 = load ptr, ptr %node.addr, align 8
  %_optional = getelementptr inbounds %"class.hermes::ESTree::OptionalMemberExpressionNode", ptr %0, i32 0, i32 4
  %1 = load i8, ptr %_optional, align 1
  %tobool = trunc i8 %1 to i1
  %call = call noundef zeroext i1 @_ZN12_GLOBAL__N_110ReturnTypeIbE3getEb(i1 noundef zeroext %tobool)
  ret i1 %call
}

; Function Attrs: mustprogress nounwind uwtable
define hidden ptr @hermes_get_LogicalExpression_left(ptr noundef %node) #0 {
entry:
  %node.addr = alloca ptr, align 8
  store ptr %node, ptr %node.addr, align 8
  %0 = load ptr, ptr %node.addr, align 8
  %_left = getelementptr inbounds %"class.hermes::ESTree::LogicalExpressionNode", ptr %0, i32 0, i32 1
  %1 = load ptr, ptr %_left, align 8
  %call = call noundef ptr @_ZN12_GLOBAL__N_110ReturnTypeIPN6hermes6ESTree4NodeEE3getES4_(ptr noundef %1)
  ret ptr %call
}

; Function Attrs: mustprogress nounwind uwtable
define hidden ptr @hermes_get_LogicalExpression_right(ptr noundef %node) #0 {
entry:
  %node.addr = alloca ptr, align 8
  store ptr %node, ptr %node.addr, align 8
  %0 = load ptr, ptr %node.addr, align 8
  %_right = getelementptr inbounds %"class.hermes::ESTree::LogicalExpressionNode", ptr %0, i32 0, i32 2
  %1 = load ptr, ptr %_right, align 8
  %call = call noundef ptr @_ZN12_GLOBAL__N_110ReturnTypeIPN6hermes6ESTree4NodeEE3getES4_(ptr noundef %1)
  ret ptr %call
}

; Function Attrs: mustprogress nounwind uwtable
define hidden ptr @hermes_get_LogicalExpression_operator(ptr noundef %node) #0 {
entry:
  %node.addr = alloca ptr, align 8
  store ptr %node, ptr %node.addr, align 8
  %0 = load ptr, ptr %node.addr, align 8
  %_operator = getelementptr inbounds %"class.hermes::ESTree::LogicalExpressionNode", ptr %0, i32 0, i32 3
  %1 = load ptr, ptr %_operator, align 8
  %call = call noundef ptr @_ZN12_GLOBAL__N_110ReturnTypeIPN6hermes12UniqueStringEE3getES3_(ptr noundef %1)
  ret ptr %call
}

; Function Attrs: mustprogress nounwind uwtable
define hidden ptr @hermes_get_ConditionalExpression_test(ptr noundef %node) #0 {
entry:
  %node.addr = alloca ptr, align 8
  store ptr %node, ptr %node.addr, align 8
  %0 = load ptr, ptr %node.addr, align 8
  %_test = getelementptr inbounds %"class.hermes::ESTree::ConditionalExpressionNode", ptr %0, i32 0, i32 1
  %1 = load ptr, ptr %_test, align 8
  %call = call noundef ptr @_ZN12_GLOBAL__N_110ReturnTypeIPN6hermes6ESTree4NodeEE3getES4_(ptr noundef %1)
  ret ptr %call
}

; Function Attrs: mustprogress nounwind uwtable
define hidden ptr @hermes_get_ConditionalExpression_alternate(ptr noundef %node) #0 {
entry:
  %node.addr = alloca ptr, align 8
  store ptr %node, ptr %node.addr, align 8
  %0 = load ptr, ptr %node.addr, align 8
  %_alternate = getelementptr inbounds %"class.hermes::ESTree::ConditionalExpressionNode", ptr %0, i32 0, i32 2
  %1 = load ptr, ptr %_alternate, align 8
  %call = call noundef ptr @_ZN12_GLOBAL__N_110ReturnTypeIPN6hermes6ESTree4NodeEE3getES4_(ptr noundef %1)
  ret ptr %call
}

; Function Attrs: mustprogress nounwind uwtable
define hidden ptr @hermes_get_ConditionalExpression_consequent(ptr noundef %node) #0 {
entry:
  %node.addr = alloca ptr, align 8
  store ptr %node, ptr %node.addr, align 8
  %0 = load ptr, ptr %node.addr, align 8
  %_consequent = getelementptr inbounds %"class.hermes::ESTree::ConditionalExpressionNode", ptr %0, i32 0, i32 3
  %1 = load ptr, ptr %_consequent, align 8
  %call = call noundef ptr @_ZN12_GLOBAL__N_110ReturnTypeIPN6hermes6ESTree4NodeEE3getES4_(ptr noundef %1)
  ret ptr %call
}

; Function Attrs: mustprogress nounwind uwtable
define hidden ptr @hermes_get_BinaryExpression_left(ptr noundef %node) #0 {
entry:
  %node.addr = alloca ptr, align 8
  store ptr %node, ptr %node.addr, align 8
  %0 = load ptr, ptr %node.addr, align 8
  %_left = getelementptr inbounds %"class.hermes::ESTree::BinaryExpressionNode", ptr %0, i32 0, i32 1
  %1 = load ptr, ptr %_left, align 8
  %call = call noundef ptr @_ZN12_GLOBAL__N_110ReturnTypeIPN6hermes6ESTree4NodeEE3getES4_(ptr noundef %1)
  ret ptr %call
}

; Function Attrs: mustprogress nounwind uwtable
define hidden ptr @hermes_get_BinaryExpression_right(ptr noundef %node) #0 {
entry:
  %node.addr = alloca ptr, align 8
  store ptr %node, ptr %node.addr, align 8
  %0 = load ptr, ptr %node.addr, align 8
  %_right = getelementptr inbounds %"class.hermes::ESTree::BinaryExpressionNode", ptr %0, i32 0, i32 2
  %1 = load ptr, ptr %_right, align 8
  %call = call noundef ptr @_ZN12_GLOBAL__N_110ReturnTypeIPN6hermes6ESTree4NodeEE3getES4_(ptr noundef %1)
  ret ptr %call
}

; Function Attrs: mustprogress nounwind uwtable
define hidden ptr @hermes_get_BinaryExpression_operator(ptr noundef %node) #0 {
entry:
  %node.addr = alloca ptr, align 8
  store ptr %node, ptr %node.addr, align 8
  %0 = load ptr, ptr %node.addr, align 8
  %_operator = getelementptr inbounds %"class.hermes::ESTree::BinaryExpressionNode", ptr %0, i32 0, i32 3
  %1 = load ptr, ptr %_operator, align 8
  %call = call noundef ptr @_ZN12_GLOBAL__N_110ReturnTypeIPN6hermes12UniqueStringEE3getES3_(ptr noundef %1)
  ret ptr %call
}

; Function Attrs: mustprogress nounwind uwtable
define hidden ptr @hermes_get_Directive_value(ptr noundef %node) #0 {
entry:
  %node.addr = alloca ptr, align 8
  store ptr %node, ptr %node.addr, align 8
  %0 = load ptr, ptr %node.addr, align 8
  %_value = getelementptr inbounds %"class.hermes::ESTree::DirectiveNode", ptr %0, i32 0, i32 1
  %1 = load ptr, ptr %_value, align 8
  %call = call noundef ptr @_ZN12_GLOBAL__N_110ReturnTypeIPN6hermes6ESTree4NodeEE3getES4_(ptr noundef %1)
  ret ptr %call
}

; Function Attrs: mustprogress nounwind uwtable
define hidden ptr @hermes_get_DirectiveLiteral_value(ptr noundef %node) #0 {
entry:
  %node.addr = alloca ptr, align 8
  store ptr %node, ptr %node.addr, align 8
  %0 = load ptr, ptr %node.addr, align 8
  %_value = getelementptr inbounds %"class.hermes::ESTree::DirectiveLiteralNode", ptr %0, i32 0, i32 1
  %1 = load ptr, ptr %_value, align 8
  %call = call noundef ptr @_ZN12_GLOBAL__N_110ReturnTypeIPN6hermes12UniqueStringEE3getES3_(ptr noundef %1)
  ret ptr %call
}

; Function Attrs: mustprogress nounwind uwtable
define hidden ptr @hermes_get_Identifier_name(ptr noundef %node) #0 {
entry:
  %node.addr = alloca ptr, align 8
  store ptr %node, ptr %node.addr, align 8
  %0 = load ptr, ptr %node.addr, align 8
  %_name = getelementptr inbounds %"class.hermes::ESTree::IdentifierNode", ptr %0, i32 0, i32 1
  %1 = load ptr, ptr %_name, align 8
  %call = call noundef ptr @_ZN12_GLOBAL__N_110ReturnTypeIPN6hermes12UniqueStringEE3getES3_(ptr noundef %1)
  ret ptr %call
}

; Function Attrs: mustprogress nounwind uwtable
define hidden ptr @hermes_get_Identifier_typeAnnotation(ptr noundef %node) #0 {
entry:
  %node.addr = alloca ptr, align 8
  store ptr %node, ptr %node.addr, align 8
  %0 = load ptr, ptr %node.addr, align 8
  %_typeAnnotation = getelementptr inbounds %"class.hermes::ESTree::IdentifierNode", ptr %0, i32 0, i32 2
  %1 = load ptr, ptr %_typeAnnotation, align 8
  %call = call noundef ptr @_ZN12_GLOBAL__N_110ReturnTypeIPN6hermes6ESTree4NodeEE3getES4_(ptr noundef %1)
  ret ptr %call
}

; Function Attrs: mustprogress nounwind uwtable
define hidden zeroext i1 @hermes_get_Identifier_optional(ptr noundef %node) #0 {
entry:
  %node.addr = alloca ptr, align 8
  store ptr %node, ptr %node.addr, align 8
  %0 = load ptr, ptr %node.addr, align 8
  %_optional = getelementptr inbounds %"class.hermes::ESTree::IdentifierNode", ptr %0, i32 0, i32 3
  %1 = load i8, ptr %_optional, align 8
  %tobool = trunc i8 %1 to i1
  %call = call noundef zeroext i1 @_ZN12_GLOBAL__N_110ReturnTypeIbE3getEb(i1 noundef zeroext %tobool)
  ret i1 %call
}

; Function Attrs: mustprogress nounwind uwtable
define hidden ptr @hermes_get_PrivateName_id(ptr noundef %node) #0 {
entry:
  %node.addr = alloca ptr, align 8
  store ptr %node, ptr %node.addr, align 8
  %0 = load ptr, ptr %node.addr, align 8
  %_id = getelementptr inbounds %"class.hermes::ESTree::PrivateNameNode", ptr %0, i32 0, i32 1
  %1 = load ptr, ptr %_id, align 8
  %call = call noundef ptr @_ZN12_GLOBAL__N_110ReturnTypeIPN6hermes6ESTree4NodeEE3getES4_(ptr noundef %1)
  ret ptr %call
}

; Function Attrs: mustprogress nounwind uwtable
define hidden ptr @hermes_get_MetaProperty_meta(ptr noundef %node) #0 {
entry:
  %node.addr = alloca ptr, align 8
  store ptr %node, ptr %node.addr, align 8
  %0 = load ptr, ptr %node.addr, align 8
  %_meta = getelementptr inbounds %"class.hermes::ESTree::MetaPropertyNode", ptr %0, i32 0, i32 1
  %1 = load ptr, ptr %_meta, align 8
  %call = call noundef ptr @_ZN12_GLOBAL__N_110ReturnTypeIPN6hermes6ESTree4NodeEE3getES4_(ptr noundef %1)
  ret ptr %call
}

; Function Attrs: mustprogress nounwind uwtable
define hidden ptr @hermes_get_MetaProperty_property(ptr noundef %node) #0 {
entry:
  %node.addr = alloca ptr, align 8
  store ptr %node, ptr %node.addr, align 8
  %0 = load ptr, ptr %node.addr, align 8
  %_property = getelementptr inbounds %"class.hermes::ESTree::MetaPropertyNode", ptr %0, i32 0, i32 2
  %1 = load ptr, ptr %_property, align 8
  %call = call noundef ptr @_ZN12_GLOBAL__N_110ReturnTypeIPN6hermes6ESTree4NodeEE3getES4_(ptr noundef %1)
  ret ptr %call
}

; Function Attrs: mustprogress nounwind uwtable
define hidden ptr @hermes_get_SwitchCase_test(ptr noundef %node) #0 {
entry:
  %node.addr = alloca ptr, align 8
  store ptr %node, ptr %node.addr, align 8
  %0 = load ptr, ptr %node.addr, align 8
  %_test = getelementptr inbounds %"class.hermes::ESTree::SwitchCaseNode", ptr %0, i32 0, i32 1
  %1 = load ptr, ptr %_test, align 8
  %call = call noundef ptr @_ZN12_GLOBAL__N_110ReturnTypeIPN6hermes6ESTree4NodeEE3getES4_(ptr noundef %1)
  ret ptr %call
}

; Function Attrs: mustprogress nounwind uwtable
define hidden ptr @hermes_get_SwitchCase_consequent(ptr noundef %node) #0 {
entry:
  %node.addr = alloca ptr, align 8
  store ptr %node, ptr %node.addr, align 8
  %0 = load ptr, ptr %node.addr, align 8
  %_consequent = getelementptr inbounds %"class.hermes::ESTree::SwitchCaseNode", ptr %0, i32 0, i32 2
  %call = call noundef ptr @_ZN12_GLOBAL__N_110ReturnTypeIN4llvh12simple_ilistIN6hermes6ESTree4NodeEJEEEE3getERKS6_(ptr noundef nonnull align 8 dereferenceable(16) %_consequent)
  ret ptr %call
}

; Function Attrs: mustprogress nounwind uwtable
define hidden ptr @hermes_get_CatchClause_param(ptr noundef %node) #0 {
entry:
  %node.addr = alloca ptr, align 8
  store ptr %node, ptr %node.addr, align 8
  %0 = load ptr, ptr %node.addr, align 8
  %_param = getelementptr inbounds %"class.hermes::ESTree::CatchClauseNode", ptr %0, i32 0, i32 1
  %1 = load ptr, ptr %_param, align 8
  %call = call noundef ptr @_ZN12_GLOBAL__N_110ReturnTypeIPN6hermes6ESTree4NodeEE3getES4_(ptr noundef %1)
  ret ptr %call
}

; Function Attrs: mustprogress nounwind uwtable
define hidden ptr @hermes_get_CatchClause_body(ptr noundef %node) #0 {
entry:
  %node.addr = alloca ptr, align 8
  store ptr %node, ptr %node.addr, align 8
  %0 = load ptr, ptr %node.addr, align 8
  %_body = getelementptr inbounds %"class.hermes::ESTree::CatchClauseNode", ptr %0, i32 0, i32 2
  %1 = load ptr, ptr %_body, align 8
  %call = call noundef ptr @_ZN12_GLOBAL__N_110ReturnTypeIPN6hermes6ESTree4NodeEE3getES4_(ptr noundef %1)
  ret ptr %call
}

; Function Attrs: mustprogress nounwind uwtable
define hidden ptr @hermes_get_VariableDeclarator_init(ptr noundef %node) #0 {
entry:
  %node.addr = alloca ptr, align 8
  store ptr %node, ptr %node.addr, align 8
  %0 = load ptr, ptr %node.addr, align 8
  %_init = getelementptr inbounds %"class.hermes::ESTree::VariableDeclaratorNode", ptr %0, i32 0, i32 1
  %1 = load ptr, ptr %_init, align 8
  %call = call noundef ptr @_ZN12_GLOBAL__N_110ReturnTypeIPN6hermes6ESTree4NodeEE3getES4_(ptr noundef %1)
  ret ptr %call
}

; Function Attrs: mustprogress nounwind uwtable
define hidden ptr @hermes_get_VariableDeclarator_id(ptr noundef %node) #0 {
entry:
  %node.addr = alloca ptr, align 8
  store ptr %node, ptr %node.addr, align 8
  %0 = load ptr, ptr %node.addr, align 8
  %_id = getelementptr inbounds %"class.hermes::ESTree::VariableDeclaratorNode", ptr %0, i32 0, i32 2
  %1 = load ptr, ptr %_id, align 8
  %call = call noundef ptr @_ZN12_GLOBAL__N_110ReturnTypeIPN6hermes6ESTree4NodeEE3getES4_(ptr noundef %1)
  ret ptr %call
}

; Function Attrs: mustprogress nounwind uwtable
define hidden ptr @hermes_get_VariableDeclaration_kind(ptr noundef %node) #0 {
entry:
  %node.addr = alloca ptr, align 8
  store ptr %node, ptr %node.addr, align 8
  %0 = load ptr, ptr %node.addr, align 8
  %_kind = getelementptr inbounds %"class.hermes::ESTree::VariableDeclarationNode", ptr %0, i32 0, i32 1
  %1 = load ptr, ptr %_kind, align 8
  %call = call noundef ptr @_ZN12_GLOBAL__N_110ReturnTypeIPN6hermes12UniqueStringEE3getES3_(ptr noundef %1)
  ret ptr %call
}

; Function Attrs: mustprogress nounwind uwtable
define hidden ptr @hermes_get_VariableDeclaration_declarations(ptr noundef %node) #0 {
entry:
  %node.addr = alloca ptr, align 8
  store ptr %node, ptr %node.addr, align 8
  %0 = load ptr, ptr %node.addr, align 8
  %_declarations = getelementptr inbounds %"class.hermes::ESTree::VariableDeclarationNode", ptr %0, i32 0, i32 2
  %call = call noundef ptr @_ZN12_GLOBAL__N_110ReturnTypeIN4llvh12simple_ilistIN6hermes6ESTree4NodeEJEEEE3getERKS6_(ptr noundef nonnull align 8 dereferenceable(16) %_declarations)
  ret ptr %call
}

; Function Attrs: mustprogress nounwind uwtable
define hidden ptr @hermes_get_TemplateLiteral_quasis(ptr noundef %node) #0 {
entry:
  %node.addr = alloca ptr, align 8
  store ptr %node, ptr %node.addr, align 8
  %0 = load ptr, ptr %node.addr, align 8
  %_quasis = getelementptr inbounds %"class.hermes::ESTree::TemplateLiteralNode", ptr %0, i32 0, i32 1
  %call = call noundef ptr @_ZN12_GLOBAL__N_110ReturnTypeIN4llvh12simple_ilistIN6hermes6ESTree4NodeEJEEEE3getERKS6_(ptr noundef nonnull align 8 dereferenceable(16) %_quasis)
  ret ptr %call
}

; Function Attrs: mustprogress nounwind uwtable
define hidden ptr @hermes_get_TemplateLiteral_expressions(ptr noundef %node) #0 {
entry:
  %node.addr = alloca ptr, align 8
  store ptr %node, ptr %node.addr, align 8
  %0 = load ptr, ptr %node.addr, align 8
  %_expressions = getelementptr inbounds %"class.hermes::ESTree::TemplateLiteralNode", ptr %0, i32 0, i32 2
  %call = call noundef ptr @_ZN12_GLOBAL__N_110ReturnTypeIN4llvh12simple_ilistIN6hermes6ESTree4NodeEJEEEE3getERKS6_(ptr noundef nonnull align 8 dereferenceable(16) %_expressions)
  ret ptr %call
}

; Function Attrs: mustprogress nounwind uwtable
define hidden ptr @hermes_get_TaggedTemplateExpression_tag(ptr noundef %node) #0 {
entry:
  %node.addr = alloca ptr, align 8
  store ptr %node, ptr %node.addr, align 8
  %0 = load ptr, ptr %node.addr, align 8
  %_tag = getelementptr inbounds %"class.hermes::ESTree::TaggedTemplateExpressionNode", ptr %0, i32 0, i32 1
  %1 = load ptr, ptr %_tag, align 8
  %call = call noundef ptr @_ZN12_GLOBAL__N_110ReturnTypeIPN6hermes6ESTree4NodeEE3getES4_(ptr noundef %1)
  ret ptr %call
}

; Function Attrs: mustprogress nounwind uwtable
define hidden ptr @hermes_get_TaggedTemplateExpression_quasi(ptr noundef %node) #0 {
entry:
  %node.addr = alloca ptr, align 8
  store ptr %node, ptr %node.addr, align 8
  %0 = load ptr, ptr %node.addr, align 8
  %_quasi = getelementptr inbounds %"class.hermes::ESTree::TaggedTemplateExpressionNode", ptr %0, i32 0, i32 2
  %1 = load ptr, ptr %_quasi, align 8
  %call = call noundef ptr @_ZN12_GLOBAL__N_110ReturnTypeIPN6hermes6ESTree4NodeEE3getES4_(ptr noundef %1)
  ret ptr %call
}

; Function Attrs: mustprogress nounwind uwtable
define hidden zeroext i1 @hermes_get_TemplateElement_tail(ptr noundef %node) #0 {
entry:
  %node.addr = alloca ptr, align 8
  store ptr %node, ptr %node.addr, align 8
  %0 = load ptr, ptr %node.addr, align 8
  %_tail = getelementptr inbounds %"class.hermes::ESTree::TemplateElementNode", ptr %0, i32 0, i32 1
  %1 = load i8, ptr %_tail, align 8
  %tobool = trunc i8 %1 to i1
  %call = call noundef zeroext i1 @_ZN12_GLOBAL__N_110ReturnTypeIbE3getEb(i1 noundef zeroext %tobool)
  ret i1 %call
}

; Function Attrs: mustprogress nounwind uwtable
define hidden ptr @hermes_get_TemplateElement_cooked(ptr noundef %node) #0 {
entry:
  %node.addr = alloca ptr, align 8
  store ptr %node, ptr %node.addr, align 8
  %0 = load ptr, ptr %node.addr, align 8
  %_cooked = getelementptr inbounds %"class.hermes::ESTree::TemplateElementNode", ptr %0, i32 0, i32 2
  %1 = load ptr, ptr %_cooked, align 8
  %call = call noundef ptr @_ZN12_GLOBAL__N_110ReturnTypeIPN6hermes12UniqueStringEE3getES3_(ptr noundef %1)
  ret ptr %call
}

; Function Attrs: mustprogress nounwind uwtable
define hidden ptr @hermes_get_TemplateElement_raw(ptr noundef %node) #0 {
entry:
  %node.addr = alloca ptr, align 8
  store ptr %node, ptr %node.addr, align 8
  %0 = load ptr, ptr %node.addr, align 8
  %_raw = getelementptr inbounds %"class.hermes::ESTree::TemplateElementNode", ptr %0, i32 0, i32 3
  %1 = load ptr, ptr %_raw, align 8
  %call = call noundef ptr @_ZN12_GLOBAL__N_110ReturnTypeIPN6hermes12UniqueStringEE3getES3_(ptr noundef %1)
  ret ptr %call
}

; Function Attrs: mustprogress nounwind uwtable
define hidden ptr @hermes_get_Property_key(ptr noundef %node) #0 {
entry:
  %node.addr = alloca ptr, align 8
  store ptr %node, ptr %node.addr, align 8
  %0 = load ptr, ptr %node.addr, align 8
  %_key = getelementptr inbounds %"class.hermes::ESTree::PropertyNode", ptr %0, i32 0, i32 1
  %1 = load ptr, ptr %_key, align 8
  %call = call noundef ptr @_ZN12_GLOBAL__N_110ReturnTypeIPN6hermes6ESTree4NodeEE3getES4_(ptr noundef %1)
  ret ptr %call
}

; Function Attrs: mustprogress nounwind uwtable
define hidden ptr @hermes_get_Property_value(ptr noundef %node) #0 {
entry:
  %node.addr = alloca ptr, align 8
  store ptr %node, ptr %node.addr, align 8
  %0 = load ptr, ptr %node.addr, align 8
  %_value = getelementptr inbounds %"class.hermes::ESTree::PropertyNode", ptr %0, i32 0, i32 2
  %1 = load ptr, ptr %_value, align 8
  %call = call noundef ptr @_ZN12_GLOBAL__N_110ReturnTypeIPN6hermes6ESTree4NodeEE3getES4_(ptr noundef %1)
  ret ptr %call
}

; Function Attrs: mustprogress nounwind uwtable
define hidden ptr @hermes_get_Property_kind(ptr noundef %node) #0 {
entry:
  %node.addr = alloca ptr, align 8
  store ptr %node, ptr %node.addr, align 8
  %0 = load ptr, ptr %node.addr, align 8
  %_kind = getelementptr inbounds %"class.hermes::ESTree::PropertyNode", ptr %0, i32 0, i32 3
  %1 = load ptr, ptr %_kind, align 8
  %call = call noundef ptr @_ZN12_GLOBAL__N_110ReturnTypeIPN6hermes12UniqueStringEE3getES3_(ptr noundef %1)
  ret ptr %call
}

; Function Attrs: mustprogress nounwind uwtable
define hidden zeroext i1 @hermes_get_Property_computed(ptr noundef %node) #0 {
entry:
  %node.addr = alloca ptr, align 8
  store ptr %node, ptr %node.addr, align 8
  %0 = load ptr, ptr %node.addr, align 8
  %_computed = getelementptr inbounds %"class.hermes::ESTree::PropertyNode", ptr %0, i32 0, i32 4
  %1 = load i8, ptr %_computed, align 8
  %tobool = trunc i8 %1 to i1
  %call = call noundef zeroext i1 @_ZN12_GLOBAL__N_110ReturnTypeIbE3getEb(i1 noundef zeroext %tobool)
  ret i1 %call
}

; Function Attrs: mustprogress nounwind uwtable
define hidden zeroext i1 @hermes_get_Property_method(ptr noundef %node) #0 {
entry:
  %node.addr = alloca ptr, align 8
  store ptr %node, ptr %node.addr, align 8
  %0 = load ptr, ptr %node.addr, align 8
  %_method = getelementptr inbounds %"class.hermes::ESTree::PropertyNode", ptr %0, i32 0, i32 5
  %1 = load i8, ptr %_method, align 1
  %tobool = trunc i8 %1 to i1
  %call = call noundef zeroext i1 @_ZN12_GLOBAL__N_110ReturnTypeIbE3getEb(i1 noundef zeroext %tobool)
  ret i1 %call
}

; Function Attrs: mustprogress nounwind uwtable
define hidden zeroext i1 @hermes_get_Property_shorthand(ptr noundef %node) #0 {
entry:
  %node.addr = alloca ptr, align 8
  store ptr %node, ptr %node.addr, align 8
  %0 = load ptr, ptr %node.addr, align 8
  %_shorthand = getelementptr inbounds %"class.hermes::ESTree::PropertyNode", ptr %0, i32 0, i32 6
  %1 = load i8, ptr %_shorthand, align 2
  %tobool = trunc i8 %1 to i1
  %call = call noundef zeroext i1 @_ZN12_GLOBAL__N_110ReturnTypeIbE3getEb(i1 noundef zeroext %tobool)
  ret i1 %call
}

; Function Attrs: mustprogress nounwind uwtable
define hidden ptr @hermes_get_ClassDeclaration_id(ptr noundef %node) #0 {
entry:
  %node.addr = alloca ptr, align 8
  store ptr %node, ptr %node.addr, align 8
  %0 = load ptr, ptr %node.addr, align 8
  %_id = getelementptr inbounds %"class.hermes::ESTree::ClassDeclarationNode", ptr %0, i32 0, i32 1
  %1 = load ptr, ptr %_id, align 8
  %call = call noundef ptr @_ZN12_GLOBAL__N_110ReturnTypeIPN6hermes6ESTree4NodeEE3getES4_(ptr noundef %1)
  ret ptr %call
}

; Function Attrs: mustprogress nounwind uwtable
define hidden ptr @hermes_get_ClassDeclaration_typeParameters(ptr noundef %node) #0 {
entry:
  %node.addr = alloca ptr, align 8
  store ptr %node, ptr %node.addr, align 8
  %0 = load ptr, ptr %node.addr, align 8
  %_typeParameters = getelementptr inbounds %"class.hermes::ESTree::ClassDeclarationNode", ptr %0, i32 0, i32 2
  %1 = load ptr, ptr %_typeParameters, align 8
  %call = call noundef ptr @_ZN12_GLOBAL__N_110ReturnTypeIPN6hermes6ESTree4NodeEE3getES4_(ptr noundef %1)
  ret ptr %call
}

; Function Attrs: mustprogress nounwind uwtable
define hidden ptr @hermes_get_ClassDeclaration_superClass(ptr noundef %node) #0 {
entry:
  %node.addr = alloca ptr, align 8
  store ptr %node, ptr %node.addr, align 8
  %0 = load ptr, ptr %node.addr, align 8
  %_superClass = getelementptr inbounds %"class.hermes::ESTree::ClassDeclarationNode", ptr %0, i32 0, i32 3
  %1 = load ptr, ptr %_superClass, align 8
  %call = call noundef ptr @_ZN12_GLOBAL__N_110ReturnTypeIPN6hermes6ESTree4NodeEE3getES4_(ptr noundef %1)
  ret ptr %call
}

; Function Attrs: mustprogress nounwind uwtable
define hidden ptr @hermes_get_ClassDeclaration_superTypeParameters(ptr noundef %node) #0 {
entry:
  %node.addr = alloca ptr, align 8
  store ptr %node, ptr %node.addr, align 8
  %0 = load ptr, ptr %node.addr, align 8
  %_superTypeParameters = getelementptr inbounds %"class.hermes::ESTree::ClassDeclarationNode", ptr %0, i32 0, i32 4
  %1 = load ptr, ptr %_superTypeParameters, align 8
  %call = call noundef ptr @_ZN12_GLOBAL__N_110ReturnTypeIPN6hermes6ESTree4NodeEE3getES4_(ptr noundef %1)
  ret ptr %call
}

; Function Attrs: mustprogress nounwind uwtable
define hidden ptr @hermes_get_ClassDeclaration_implements(ptr noundef %node) #0 {
entry:
  %node.addr = alloca ptr, align 8
  store ptr %node, ptr %node.addr, align 8
  %0 = load ptr, ptr %node.addr, align 8
  %_implements = getelementptr inbounds %"class.hermes::ESTree::ClassDeclarationNode", ptr %0, i32 0, i32 5
  %call = call noundef ptr @_ZN12_GLOBAL__N_110ReturnTypeIN4llvh12simple_ilistIN6hermes6ESTree4NodeEJEEEE3getERKS6_(ptr noundef nonnull align 8 dereferenceable(16) %_implements)
  ret ptr %call
}

; Function Attrs: mustprogress nounwind uwtable
define hidden ptr @hermes_get_ClassDeclaration_decorators(ptr noundef %node) #0 {
entry:
  %node.addr = alloca ptr, align 8
  store ptr %node, ptr %node.addr, align 8
  %0 = load ptr, ptr %node.addr, align 8
  %_decorators = getelementptr inbounds %"class.hermes::ESTree::ClassDeclarationNode", ptr %0, i32 0, i32 6
  %call = call noundef ptr @_ZN12_GLOBAL__N_110ReturnTypeIN4llvh12simple_ilistIN6hermes6ESTree4NodeEJEEEE3getERKS6_(ptr noundef nonnull align 8 dereferenceable(16) %_decorators)
  ret ptr %call
}

; Function Attrs: mustprogress nounwind uwtable
define hidden ptr @hermes_get_ClassDeclaration_body(ptr noundef %node) #0 {
entry:
  %node.addr = alloca ptr, align 8
  store ptr %node, ptr %node.addr, align 8
  %0 = load ptr, ptr %node.addr, align 8
  %_body = getelementptr inbounds %"class.hermes::ESTree::ClassDeclarationNode", ptr %0, i32 0, i32 7
  %1 = load ptr, ptr %_body, align 8
  %call = call noundef ptr @_ZN12_GLOBAL__N_110ReturnTypeIPN6hermes6ESTree4NodeEE3getES4_(ptr noundef %1)
  ret ptr %call
}

; Function Attrs: mustprogress nounwind uwtable
define hidden ptr @hermes_get_ClassExpression_id(ptr noundef %node) #0 {
entry:
  %node.addr = alloca ptr, align 8
  store ptr %node, ptr %node.addr, align 8
  %0 = load ptr, ptr %node.addr, align 8
  %_id = getelementptr inbounds %"class.hermes::ESTree::ClassExpressionNode", ptr %0, i32 0, i32 1
  %1 = load ptr, ptr %_id, align 8
  %call = call noundef ptr @_ZN12_GLOBAL__N_110ReturnTypeIPN6hermes6ESTree4NodeEE3getES4_(ptr noundef %1)
  ret ptr %call
}

; Function Attrs: mustprogress nounwind uwtable
define hidden ptr @hermes_get_ClassExpression_typeParameters(ptr noundef %node) #0 {
entry:
  %node.addr = alloca ptr, align 8
  store ptr %node, ptr %node.addr, align 8
  %0 = load ptr, ptr %node.addr, align 8
  %_typeParameters = getelementptr inbounds %"class.hermes::ESTree::ClassExpressionNode", ptr %0, i32 0, i32 2
  %1 = load ptr, ptr %_typeParameters, align 8
  %call = call noundef ptr @_ZN12_GLOBAL__N_110ReturnTypeIPN6hermes6ESTree4NodeEE3getES4_(ptr noundef %1)
  ret ptr %call
}

; Function Attrs: mustprogress nounwind uwtable
define hidden ptr @hermes_get_ClassExpression_superClass(ptr noundef %node) #0 {
entry:
  %node.addr = alloca ptr, align 8
  store ptr %node, ptr %node.addr, align 8
  %0 = load ptr, ptr %node.addr, align 8
  %_superClass = getelementptr inbounds %"class.hermes::ESTree::ClassExpressionNode", ptr %0, i32 0, i32 3
  %1 = load ptr, ptr %_superClass, align 8
  %call = call noundef ptr @_ZN12_GLOBAL__N_110ReturnTypeIPN6hermes6ESTree4NodeEE3getES4_(ptr noundef %1)
  ret ptr %call
}

; Function Attrs: mustprogress nounwind uwtable
define hidden ptr @hermes_get_ClassExpression_superTypeParameters(ptr noundef %node) #0 {
entry:
  %node.addr = alloca ptr, align 8
  store ptr %node, ptr %node.addr, align 8
  %0 = load ptr, ptr %node.addr, align 8
  %_superTypeParameters = getelementptr inbounds %"class.hermes::ESTree::ClassExpressionNode", ptr %0, i32 0, i32 4
  %1 = load ptr, ptr %_superTypeParameters, align 8
  %call = call noundef ptr @_ZN12_GLOBAL__N_110ReturnTypeIPN6hermes6ESTree4NodeEE3getES4_(ptr noundef %1)
  ret ptr %call
}

; Function Attrs: mustprogress nounwind uwtable
define hidden ptr @hermes_get_ClassExpression_implements(ptr noundef %node) #0 {
entry:
  %node.addr = alloca ptr, align 8
  store ptr %node, ptr %node.addr, align 8
  %0 = load ptr, ptr %node.addr, align 8
  %_implements = getelementptr inbounds %"class.hermes::ESTree::ClassExpressionNode", ptr %0, i32 0, i32 5
  %call = call noundef ptr @_ZN12_GLOBAL__N_110ReturnTypeIN4llvh12simple_ilistIN6hermes6ESTree4NodeEJEEEE3getERKS6_(ptr noundef nonnull align 8 dereferenceable(16) %_implements)
  ret ptr %call
}

; Function Attrs: mustprogress nounwind uwtable
define hidden ptr @hermes_get_ClassExpression_decorators(ptr noundef %node) #0 {
entry:
  %node.addr = alloca ptr, align 8
  store ptr %node, ptr %node.addr, align 8
  %0 = load ptr, ptr %node.addr, align 8
  %_decorators = getelementptr inbounds %"class.hermes::ESTree::ClassExpressionNode", ptr %0, i32 0, i32 6
  %call = call noundef ptr @_ZN12_GLOBAL__N_110ReturnTypeIN4llvh12simple_ilistIN6hermes6ESTree4NodeEJEEEE3getERKS6_(ptr noundef nonnull align 8 dereferenceable(16) %_decorators)
  ret ptr %call
}

; Function Attrs: mustprogress nounwind uwtable
define hidden ptr @hermes_get_ClassExpression_body(ptr noundef %node) #0 {
entry:
  %node.addr = alloca ptr, align 8
  store ptr %node, ptr %node.addr, align 8
  %0 = load ptr, ptr %node.addr, align 8
  %_body = getelementptr inbounds %"class.hermes::ESTree::ClassExpressionNode", ptr %0, i32 0, i32 7
  %1 = load ptr, ptr %_body, align 8
  %call = call noundef ptr @_ZN12_GLOBAL__N_110ReturnTypeIPN6hermes6ESTree4NodeEE3getES4_(ptr noundef %1)
  ret ptr %call
}

; Function Attrs: mustprogress nounwind uwtable
define hidden ptr @hermes_get_ClassBody_body(ptr noundef %node) #0 {
entry:
  %node.addr = alloca ptr, align 8
  store ptr %node, ptr %node.addr, align 8
  %0 = load ptr, ptr %node.addr, align 8
  %_body = getelementptr inbounds %"class.hermes::ESTree::ClassBodyNode", ptr %0, i32 0, i32 1
  %call = call noundef ptr @_ZN12_GLOBAL__N_110ReturnTypeIN4llvh12simple_ilistIN6hermes6ESTree4NodeEJEEEE3getERKS6_(ptr noundef nonnull align 8 dereferenceable(16) %_body)
  ret ptr %call
}

; Function Attrs: mustprogress nounwind uwtable
define hidden ptr @hermes_get_ClassProperty_key(ptr noundef %node) #0 {
entry:
  %node.addr = alloca ptr, align 8
  store ptr %node, ptr %node.addr, align 8
  %0 = load ptr, ptr %node.addr, align 8
  %_key = getelementptr inbounds %"class.hermes::ESTree::ClassPropertyNode", ptr %0, i32 0, i32 1
  %1 = load ptr, ptr %_key, align 8
  %call = call noundef ptr @_ZN12_GLOBAL__N_110ReturnTypeIPN6hermes6ESTree4NodeEE3getES4_(ptr noundef %1)
  ret ptr %call
}

; Function Attrs: mustprogress nounwind uwtable
define hidden ptr @hermes_get_ClassProperty_value(ptr noundef %node) #0 {
entry:
  %node.addr = alloca ptr, align 8
  store ptr %node, ptr %node.addr, align 8
  %0 = load ptr, ptr %node.addr, align 8
  %_value = getelementptr inbounds %"class.hermes::ESTree::ClassPropertyNode", ptr %0, i32 0, i32 2
  %1 = load ptr, ptr %_value, align 8
  %call = call noundef ptr @_ZN12_GLOBAL__N_110ReturnTypeIPN6hermes6ESTree4NodeEE3getES4_(ptr noundef %1)
  ret ptr %call
}

; Function Attrs: mustprogress nounwind uwtable
define hidden zeroext i1 @hermes_get_ClassProperty_computed(ptr noundef %node) #0 {
entry:
  %node.addr = alloca ptr, align 8
  store ptr %node, ptr %node.addr, align 8
  %0 = load ptr, ptr %node.addr, align 8
  %_computed = getelementptr inbounds %"class.hermes::ESTree::ClassPropertyNode", ptr %0, i32 0, i32 3
  %1 = load i8, ptr %_computed, align 8
  %tobool = trunc i8 %1 to i1
  %call = call noundef zeroext i1 @_ZN12_GLOBAL__N_110ReturnTypeIbE3getEb(i1 noundef zeroext %tobool)
  ret i1 %call
}

; Function Attrs: mustprogress nounwind uwtable
define hidden zeroext i1 @hermes_get_ClassProperty_static(ptr noundef %node) #0 {
entry:
  %node.addr = alloca ptr, align 8
  store ptr %node, ptr %node.addr, align 8
  %0 = load ptr, ptr %node.addr, align 8
  %_static = getelementptr inbounds %"class.hermes::ESTree::ClassPropertyNode", ptr %0, i32 0, i32 4
  %1 = load i8, ptr %_static, align 1
  %tobool = trunc i8 %1 to i1
  %call = call noundef zeroext i1 @_ZN12_GLOBAL__N_110ReturnTypeIbE3getEb(i1 noundef zeroext %tobool)
  ret i1 %call
}

; Function Attrs: mustprogress nounwind uwtable
define hidden zeroext i1 @hermes_get_ClassProperty_declare(ptr noundef %node) #0 {
entry:
  %node.addr = alloca ptr, align 8
  store ptr %node, ptr %node.addr, align 8
  %0 = load ptr, ptr %node.addr, align 8
  %_declare = getelementptr inbounds %"class.hermes::ESTree::ClassPropertyNode", ptr %0, i32 0, i32 5
  %1 = load i8, ptr %_declare, align 2
  %tobool = trunc i8 %1 to i1
  %call = call noundef zeroext i1 @_ZN12_GLOBAL__N_110ReturnTypeIbE3getEb(i1 noundef zeroext %tobool)
  ret i1 %call
}

; Function Attrs: mustprogress nounwind uwtable
define hidden zeroext i1 @hermes_get_ClassProperty_optional(ptr noundef %node) #0 {
entry:
  %node.addr = alloca ptr, align 8
  store ptr %node, ptr %node.addr, align 8
  %0 = load ptr, ptr %node.addr, align 8
  %_optional = getelementptr inbounds %"class.hermes::ESTree::ClassPropertyNode", ptr %0, i32 0, i32 6
  %1 = load i8, ptr %_optional, align 1
  %tobool = trunc i8 %1 to i1
  %call = call noundef zeroext i1 @_ZN12_GLOBAL__N_110ReturnTypeIbE3getEb(i1 noundef zeroext %tobool)
  ret i1 %call
}

; Function Attrs: mustprogress nounwind uwtable
define hidden ptr @hermes_get_ClassProperty_variance(ptr noundef %node) #0 {
entry:
  %node.addr = alloca ptr, align 8
  store ptr %node, ptr %node.addr, align 8
  %0 = load ptr, ptr %node.addr, align 8
  %_variance = getelementptr inbounds %"class.hermes::ESTree::ClassPropertyNode", ptr %0, i32 0, i32 7
  %1 = load ptr, ptr %_variance, align 8
  %call = call noundef ptr @_ZN12_GLOBAL__N_110ReturnTypeIPN6hermes6ESTree4NodeEE3getES4_(ptr noundef %1)
  ret ptr %call
}

; Function Attrs: mustprogress nounwind uwtable
define hidden ptr @hermes_get_ClassProperty_typeAnnotation(ptr noundef %node) #0 {
entry:
  %node.addr = alloca ptr, align 8
  store ptr %node, ptr %node.addr, align 8
  %0 = load ptr, ptr %node.addr, align 8
  %_typeAnnotation = getelementptr inbounds %"class.hermes::ESTree::ClassPropertyNode", ptr %0, i32 0, i32 8
  %1 = load ptr, ptr %_typeAnnotation, align 8
  %call = call noundef ptr @_ZN12_GLOBAL__N_110ReturnTypeIPN6hermes6ESTree4NodeEE3getES4_(ptr noundef %1)
  ret ptr %call
}

; Function Attrs: mustprogress nounwind uwtable
define hidden ptr @hermes_get_ClassProperty_tsModifiers(ptr noundef %node) #0 {
entry:
  %node.addr = alloca ptr, align 8
  store ptr %node, ptr %node.addr, align 8
  %0 = load ptr, ptr %node.addr, align 8
  %_tsModifiers = getelementptr inbounds %"class.hermes::ESTree::ClassPropertyNode", ptr %0, i32 0, i32 9
  %1 = load ptr, ptr %_tsModifiers, align 8
  %call = call noundef ptr @_ZN12_GLOBAL__N_110ReturnTypeIPN6hermes6ESTree4NodeEE3getES4_(ptr noundef %1)
  ret ptr %call
}

; Function Attrs: mustprogress nounwind uwtable
define hidden ptr @hermes_get_ClassPrivateProperty_key(ptr noundef %node) #0 {
entry:
  %node.addr = alloca ptr, align 8
  store ptr %node, ptr %node.addr, align 8
  %0 = load ptr, ptr %node.addr, align 8
  %_key = getelementptr inbounds %"class.hermes::ESTree::ClassPrivatePropertyNode", ptr %0, i32 0, i32 1
  %1 = load ptr, ptr %_key, align 8
  %call = call noundef ptr @_ZN12_GLOBAL__N_110ReturnTypeIPN6hermes6ESTree4NodeEE3getES4_(ptr noundef %1)
  ret ptr %call
}

; Function Attrs: mustprogress nounwind uwtable
define hidden ptr @hermes_get_ClassPrivateProperty_value(ptr noundef %node) #0 {
entry:
  %node.addr = alloca ptr, align 8
  store ptr %node, ptr %node.addr, align 8
  %0 = load ptr, ptr %node.addr, align 8
  %_value = getelementptr inbounds %"class.hermes::ESTree::ClassPrivatePropertyNode", ptr %0, i32 0, i32 2
  %1 = load ptr, ptr %_value, align 8
  %call = call noundef ptr @_ZN12_GLOBAL__N_110ReturnTypeIPN6hermes6ESTree4NodeEE3getES4_(ptr noundef %1)
  ret ptr %call
}

; Function Attrs: mustprogress nounwind uwtable
define hidden zeroext i1 @hermes_get_ClassPrivateProperty_static(ptr noundef %node) #0 {
entry:
  %node.addr = alloca ptr, align 8
  store ptr %node, ptr %node.addr, align 8
  %0 = load ptr, ptr %node.addr, align 8
  %_static = getelementptr inbounds %"class.hermes::ESTree::ClassPrivatePropertyNode", ptr %0, i32 0, i32 3
  %1 = load i8, ptr %_static, align 8
  %tobool = trunc i8 %1 to i1
  %call = call noundef zeroext i1 @_ZN12_GLOBAL__N_110ReturnTypeIbE3getEb(i1 noundef zeroext %tobool)
  ret i1 %call
}

; Function Attrs: mustprogress nounwind uwtable
define hidden zeroext i1 @hermes_get_ClassPrivateProperty_declare(ptr noundef %node) #0 {
entry:
  %node.addr = alloca ptr, align 8
  store ptr %node, ptr %node.addr, align 8
  %0 = load ptr, ptr %node.addr, align 8
  %_declare = getelementptr inbounds %"class.hermes::ESTree::ClassPrivatePropertyNode", ptr %0, i32 0, i32 4
  %1 = load i8, ptr %_declare, align 1
  %tobool = trunc i8 %1 to i1
  %call = call noundef zeroext i1 @_ZN12_GLOBAL__N_110ReturnTypeIbE3getEb(i1 noundef zeroext %tobool)
  ret i1 %call
}

; Function Attrs: mustprogress nounwind uwtable
define hidden zeroext i1 @hermes_get_ClassPrivateProperty_optional(ptr noundef %node) #0 {
entry:
  %node.addr = alloca ptr, align 8
  store ptr %node, ptr %node.addr, align 8
  %0 = load ptr, ptr %node.addr, align 8
  %_optional = getelementptr inbounds %"class.hermes::ESTree::ClassPrivatePropertyNode", ptr %0, i32 0, i32 5
  %1 = load i8, ptr %_optional, align 2
  %tobool = trunc i8 %1 to i1
  %call = call noundef zeroext i1 @_ZN12_GLOBAL__N_110ReturnTypeIbE3getEb(i1 noundef zeroext %tobool)
  ret i1 %call
}

; Function Attrs: mustprogress nounwind uwtable
define hidden ptr @hermes_get_ClassPrivateProperty_variance(ptr noundef %node) #0 {
entry:
  %node.addr = alloca ptr, align 8
  store ptr %node, ptr %node.addr, align 8
  %0 = load ptr, ptr %node.addr, align 8
  %_variance = getelementptr inbounds %"class.hermes::ESTree::ClassPrivatePropertyNode", ptr %0, i32 0, i32 6
  %1 = load ptr, ptr %_variance, align 8
  %call = call noundef ptr @_ZN12_GLOBAL__N_110ReturnTypeIPN6hermes6ESTree4NodeEE3getES4_(ptr noundef %1)
  ret ptr %call
}

; Function Attrs: mustprogress nounwind uwtable
define hidden ptr @hermes_get_ClassPrivateProperty_typeAnnotation(ptr noundef %node) #0 {
entry:
  %node.addr = alloca ptr, align 8
  store ptr %node, ptr %node.addr, align 8
  %0 = load ptr, ptr %node.addr, align 8
  %_typeAnnotation = getelementptr inbounds %"class.hermes::ESTree::ClassPrivatePropertyNode", ptr %0, i32 0, i32 7
  %1 = load ptr, ptr %_typeAnnotation, align 8
  %call = call noundef ptr @_ZN12_GLOBAL__N_110ReturnTypeIPN6hermes6ESTree4NodeEE3getES4_(ptr noundef %1)
  ret ptr %call
}

; Function Attrs: mustprogress nounwind uwtable
define hidden ptr @hermes_get_ClassPrivateProperty_tsModifiers(ptr noundef %node) #0 {
entry:
  %node.addr = alloca ptr, align 8
  store ptr %node, ptr %node.addr, align 8
  %0 = load ptr, ptr %node.addr, align 8
  %_tsModifiers = getelementptr inbounds %"class.hermes::ESTree::ClassPrivatePropertyNode", ptr %0, i32 0, i32 8
  %1 = load ptr, ptr %_tsModifiers, align 8
  %call = call noundef ptr @_ZN12_GLOBAL__N_110ReturnTypeIPN6hermes6ESTree4NodeEE3getES4_(ptr noundef %1)
  ret ptr %call
}

; Function Attrs: mustprogress nounwind uwtable
define hidden ptr @hermes_get_MethodDefinition_key(ptr noundef %node) #0 {
entry:
  %node.addr = alloca ptr, align 8
  store ptr %node, ptr %node.addr, align 8
  %0 = load ptr, ptr %node.addr, align 8
  %_key = getelementptr inbounds %"class.hermes::ESTree::MethodDefinitionNode", ptr %0, i32 0, i32 1
  %1 = load ptr, ptr %_key, align 8
  %call = call noundef ptr @_ZN12_GLOBAL__N_110ReturnTypeIPN6hermes6ESTree4NodeEE3getES4_(ptr noundef %1)
  ret ptr %call
}

; Function Attrs: mustprogress nounwind uwtable
define hidden ptr @hermes_get_MethodDefinition_value(ptr noundef %node) #0 {
entry:
  %node.addr = alloca ptr, align 8
  store ptr %node, ptr %node.addr, align 8
  %0 = load ptr, ptr %node.addr, align 8
  %_value = getelementptr inbounds %"class.hermes::ESTree::MethodDefinitionNode", ptr %0, i32 0, i32 2
  %1 = load ptr, ptr %_value, align 8
  %call = call noundef ptr @_ZN12_GLOBAL__N_110ReturnTypeIPN6hermes6ESTree4NodeEE3getES4_(ptr noundef %1)
  ret ptr %call
}

; Function Attrs: mustprogress nounwind uwtable
define hidden ptr @hermes_get_MethodDefinition_kind(ptr noundef %node) #0 {
entry:
  %node.addr = alloca ptr, align 8
  store ptr %node, ptr %node.addr, align 8
  %0 = load ptr, ptr %node.addr, align 8
  %_kind = getelementptr inbounds %"class.hermes::ESTree::MethodDefinitionNode", ptr %0, i32 0, i32 3
  %1 = load ptr, ptr %_kind, align 8
  %call = call noundef ptr @_ZN12_GLOBAL__N_110ReturnTypeIPN6hermes12UniqueStringEE3getES3_(ptr noundef %1)
  ret ptr %call
}

; Function Attrs: mustprogress nounwind uwtable
define hidden zeroext i1 @hermes_get_MethodDefinition_computed(ptr noundef %node) #0 {
entry:
  %node.addr = alloca ptr, align 8
  store ptr %node, ptr %node.addr, align 8
  %0 = load ptr, ptr %node.addr, align 8
  %_computed = getelementptr inbounds %"class.hermes::ESTree::MethodDefinitionNode", ptr %0, i32 0, i32 4
  %1 = load i8, ptr %_computed, align 8
  %tobool = trunc i8 %1 to i1
  %call = call noundef zeroext i1 @_ZN12_GLOBAL__N_110ReturnTypeIbE3getEb(i1 noundef zeroext %tobool)
  ret i1 %call
}

; Function Attrs: mustprogress nounwind uwtable
define hidden zeroext i1 @hermes_get_MethodDefinition_static(ptr noundef %node) #0 {
entry:
  %node.addr = alloca ptr, align 8
  store ptr %node, ptr %node.addr, align 8
  %0 = load ptr, ptr %node.addr, align 8
  %_static = getelementptr inbounds %"class.hermes::ESTree::MethodDefinitionNode", ptr %0, i32 0, i32 5
  %1 = load i8, ptr %_static, align 1
  %tobool = trunc i8 %1 to i1
  %call = call noundef zeroext i1 @_ZN12_GLOBAL__N_110ReturnTypeIbE3getEb(i1 noundef zeroext %tobool)
  ret i1 %call
}

; Function Attrs: mustprogress nounwind uwtable
define hidden ptr @hermes_get_ImportDeclaration_specifiers(ptr noundef %node) #0 {
entry:
  %node.addr = alloca ptr, align 8
  store ptr %node, ptr %node.addr, align 8
  %0 = load ptr, ptr %node.addr, align 8
  %_specifiers = getelementptr inbounds %"class.hermes::ESTree::ImportDeclarationNode", ptr %0, i32 0, i32 1
  %call = call noundef ptr @_ZN12_GLOBAL__N_110ReturnTypeIN4llvh12simple_ilistIN6hermes6ESTree4NodeEJEEEE3getERKS6_(ptr noundef nonnull align 8 dereferenceable(16) %_specifiers)
  ret ptr %call
}

; Function Attrs: mustprogress nounwind uwtable
define hidden ptr @hermes_get_ImportDeclaration_source(ptr noundef %node) #0 {
entry:
  %node.addr = alloca ptr, align 8
  store ptr %node, ptr %node.addr, align 8
  %0 = load ptr, ptr %node.addr, align 8
  %_source = getelementptr inbounds %"class.hermes::ESTree::ImportDeclarationNode", ptr %0, i32 0, i32 2
  %1 = load ptr, ptr %_source, align 8
  %call = call noundef ptr @_ZN12_GLOBAL__N_110ReturnTypeIPN6hermes6ESTree4NodeEE3getES4_(ptr noundef %1)
  ret ptr %call
}

; Function Attrs: mustprogress nounwind uwtable
define hidden ptr @hermes_get_ImportDeclaration_assertions(ptr noundef %node) #0 {
entry:
  %node.addr = alloca ptr, align 8
  store ptr %node, ptr %node.addr, align 8
  %0 = load ptr, ptr %node.addr, align 8
  %_assertions = getelementptr inbounds %"class.hermes::ESTree::ImportDeclarationNode", ptr %0, i32 0, i32 3
  %call = call noundef ptr @_ZN12_GLOBAL__N_110ReturnTypeIN4llvh12simple_ilistIN6hermes6ESTree4NodeEJEEEE3getERKS6_(ptr noundef nonnull align 8 dereferenceable(16) %_assertions)
  ret ptr %call
}

; Function Attrs: mustprogress nounwind uwtable
define hidden ptr @hermes_get_ImportDeclaration_importKind(ptr noundef %node) #0 {
entry:
  %node.addr = alloca ptr, align 8
  store ptr %node, ptr %node.addr, align 8
  %0 = load ptr, ptr %node.addr, align 8
  %_importKind = getelementptr inbounds %"class.hermes::ESTree::ImportDeclarationNode", ptr %0, i32 0, i32 4
  %1 = load ptr, ptr %_importKind, align 8
  %call = call noundef ptr @_ZN12_GLOBAL__N_110ReturnTypeIPN6hermes12UniqueStringEE3getES3_(ptr noundef %1)
  ret ptr %call
}

; Function Attrs: mustprogress nounwind uwtable
define hidden ptr @hermes_get_ImportSpecifier_imported(ptr noundef %node) #0 {
entry:
  %node.addr = alloca ptr, align 8
  store ptr %node, ptr %node.addr, align 8
  %0 = load ptr, ptr %node.addr, align 8
  %_imported = getelementptr inbounds %"class.hermes::ESTree::ImportSpecifierNode", ptr %0, i32 0, i32 1
  %1 = load ptr, ptr %_imported, align 8
  %call = call noundef ptr @_ZN12_GLOBAL__N_110ReturnTypeIPN6hermes6ESTree4NodeEE3getES4_(ptr noundef %1)
  ret ptr %call
}

; Function Attrs: mustprogress nounwind uwtable
define hidden ptr @hermes_get_ImportSpecifier_local(ptr noundef %node) #0 {
entry:
  %node.addr = alloca ptr, align 8
  store ptr %node, ptr %node.addr, align 8
  %0 = load ptr, ptr %node.addr, align 8
  %_local = getelementptr inbounds %"class.hermes::ESTree::ImportSpecifierNode", ptr %0, i32 0, i32 2
  %1 = load ptr, ptr %_local, align 8
  %call = call noundef ptr @_ZN12_GLOBAL__N_110ReturnTypeIPN6hermes6ESTree4NodeEE3getES4_(ptr noundef %1)
  ret ptr %call
}

; Function Attrs: mustprogress nounwind uwtable
define hidden ptr @hermes_get_ImportSpecifier_importKind(ptr noundef %node) #0 {
entry:
  %node.addr = alloca ptr, align 8
  store ptr %node, ptr %node.addr, align 8
  %0 = load ptr, ptr %node.addr, align 8
  %_importKind = getelementptr inbounds %"class.hermes::ESTree::ImportSpecifierNode", ptr %0, i32 0, i32 3
  %1 = load ptr, ptr %_importKind, align 8
  %call = call noundef ptr @_ZN12_GLOBAL__N_110ReturnTypeIPN6hermes12UniqueStringEE3getES3_(ptr noundef %1)
  ret ptr %call
}

; Function Attrs: mustprogress nounwind uwtable
define hidden ptr @hermes_get_ImportDefaultSpecifier_local(ptr noundef %node) #0 {
entry:
  %node.addr = alloca ptr, align 8
  store ptr %node, ptr %node.addr, align 8
  %0 = load ptr, ptr %node.addr, align 8
  %_local = getelementptr inbounds %"class.hermes::ESTree::ImportDefaultSpecifierNode", ptr %0, i32 0, i32 1
  %1 = load ptr, ptr %_local, align 8
  %call = call noundef ptr @_ZN12_GLOBAL__N_110ReturnTypeIPN6hermes6ESTree4NodeEE3getES4_(ptr noundef %1)
  ret ptr %call
}

; Function Attrs: mustprogress nounwind uwtable
define hidden ptr @hermes_get_ImportNamespaceSpecifier_local(ptr noundef %node) #0 {
entry:
  %node.addr = alloca ptr, align 8
  store ptr %node, ptr %node.addr, align 8
  %0 = load ptr, ptr %node.addr, align 8
  %_local = getelementptr inbounds %"class.hermes::ESTree::ImportNamespaceSpecifierNode", ptr %0, i32 0, i32 1
  %1 = load ptr, ptr %_local, align 8
  %call = call noundef ptr @_ZN12_GLOBAL__N_110ReturnTypeIPN6hermes6ESTree4NodeEE3getES4_(ptr noundef %1)
  ret ptr %call
}

; Function Attrs: mustprogress nounwind uwtable
define hidden ptr @hermes_get_ImportAttribute_key(ptr noundef %node) #0 {
entry:
  %node.addr = alloca ptr, align 8
  store ptr %node, ptr %node.addr, align 8
  %0 = load ptr, ptr %node.addr, align 8
  %_key = getelementptr inbounds %"class.hermes::ESTree::ImportAttributeNode", ptr %0, i32 0, i32 1
  %1 = load ptr, ptr %_key, align 8
  %call = call noundef ptr @_ZN12_GLOBAL__N_110ReturnTypeIPN6hermes6ESTree4NodeEE3getES4_(ptr noundef %1)
  ret ptr %call
}

; Function Attrs: mustprogress nounwind uwtable
define hidden ptr @hermes_get_ImportAttribute_value(ptr noundef %node) #0 {
entry:
  %node.addr = alloca ptr, align 8
  store ptr %node, ptr %node.addr, align 8
  %0 = load ptr, ptr %node.addr, align 8
  %_value = getelementptr inbounds %"class.hermes::ESTree::ImportAttributeNode", ptr %0, i32 0, i32 2
  %1 = load ptr, ptr %_value, align 8
  %call = call noundef ptr @_ZN12_GLOBAL__N_110ReturnTypeIPN6hermes6ESTree4NodeEE3getES4_(ptr noundef %1)
  ret ptr %call
}

; Function Attrs: mustprogress nounwind uwtable
define hidden ptr @hermes_get_ExportNamedDeclaration_declaration(ptr noundef %node) #0 {
entry:
  %node.addr = alloca ptr, align 8
  store ptr %node, ptr %node.addr, align 8
  %0 = load ptr, ptr %node.addr, align 8
  %_declaration = getelementptr inbounds %"class.hermes::ESTree::ExportNamedDeclarationNode", ptr %0, i32 0, i32 1
  %1 = load ptr, ptr %_declaration, align 8
  %call = call noundef ptr @_ZN12_GLOBAL__N_110ReturnTypeIPN6hermes6ESTree4NodeEE3getES4_(ptr noundef %1)
  ret ptr %call
}

; Function Attrs: mustprogress nounwind uwtable
define hidden ptr @hermes_get_ExportNamedDeclaration_specifiers(ptr noundef %node) #0 {
entry:
  %node.addr = alloca ptr, align 8
  store ptr %node, ptr %node.addr, align 8
  %0 = load ptr, ptr %node.addr, align 8
  %_specifiers = getelementptr inbounds %"class.hermes::ESTree::ExportNamedDeclarationNode", ptr %0, i32 0, i32 2
  %call = call noundef ptr @_ZN12_GLOBAL__N_110ReturnTypeIN4llvh12simple_ilistIN6hermes6ESTree4NodeEJEEEE3getERKS6_(ptr noundef nonnull align 8 dereferenceable(16) %_specifiers)
  ret ptr %call
}

; Function Attrs: mustprogress nounwind uwtable
define hidden ptr @hermes_get_ExportNamedDeclaration_source(ptr noundef %node) #0 {
entry:
  %node.addr = alloca ptr, align 8
  store ptr %node, ptr %node.addr, align 8
  %0 = load ptr, ptr %node.addr, align 8
  %_source = getelementptr inbounds %"class.hermes::ESTree::ExportNamedDeclarationNode", ptr %0, i32 0, i32 3
  %1 = load ptr, ptr %_source, align 8
  %call = call noundef ptr @_ZN12_GLOBAL__N_110ReturnTypeIPN6hermes6ESTree4NodeEE3getES4_(ptr noundef %1)
  ret ptr %call
}

; Function Attrs: mustprogress nounwind uwtable
define hidden ptr @hermes_get_ExportNamedDeclaration_exportKind(ptr noundef %node) #0 {
entry:
  %node.addr = alloca ptr, align 8
  store ptr %node, ptr %node.addr, align 8
  %0 = load ptr, ptr %node.addr, align 8
  %_exportKind = getelementptr inbounds %"class.hermes::ESTree::ExportNamedDeclarationNode", ptr %0, i32 0, i32 4
  %1 = load ptr, ptr %_exportKind, align 8
  %call = call noundef ptr @_ZN12_GLOBAL__N_110ReturnTypeIPN6hermes12UniqueStringEE3getES3_(ptr noundef %1)
  ret ptr %call
}

; Function Attrs: mustprogress nounwind uwtable
define hidden ptr @hermes_get_ExportSpecifier_exported(ptr noundef %node) #0 {
entry:
  %node.addr = alloca ptr, align 8
  store ptr %node, ptr %node.addr, align 8
  %0 = load ptr, ptr %node.addr, align 8
  %_exported = getelementptr inbounds %"class.hermes::ESTree::ExportSpecifierNode", ptr %0, i32 0, i32 1
  %1 = load ptr, ptr %_exported, align 8
  %call = call noundef ptr @_ZN12_GLOBAL__N_110ReturnTypeIPN6hermes6ESTree4NodeEE3getES4_(ptr noundef %1)
  ret ptr %call
}

; Function Attrs: mustprogress nounwind uwtable
define hidden ptr @hermes_get_ExportSpecifier_local(ptr noundef %node) #0 {
entry:
  %node.addr = alloca ptr, align 8
  store ptr %node, ptr %node.addr, align 8
  %0 = load ptr, ptr %node.addr, align 8
  %_local = getelementptr inbounds %"class.hermes::ESTree::ExportSpecifierNode", ptr %0, i32 0, i32 2
  %1 = load ptr, ptr %_local, align 8
  %call = call noundef ptr @_ZN12_GLOBAL__N_110ReturnTypeIPN6hermes6ESTree4NodeEE3getES4_(ptr noundef %1)
  ret ptr %call
}

; Function Attrs: mustprogress nounwind uwtable
define hidden ptr @hermes_get_ExportNamespaceSpecifier_exported(ptr noundef %node) #0 {
entry:
  %node.addr = alloca ptr, align 8
  store ptr %node, ptr %node.addr, align 8
  %0 = load ptr, ptr %node.addr, align 8
  %_exported = getelementptr inbounds %"class.hermes::ESTree::ExportNamespaceSpecifierNode", ptr %0, i32 0, i32 1
  %1 = load ptr, ptr %_exported, align 8
  %call = call noundef ptr @_ZN12_GLOBAL__N_110ReturnTypeIPN6hermes6ESTree4NodeEE3getES4_(ptr noundef %1)
  ret ptr %call
}

; Function Attrs: mustprogress nounwind uwtable
define hidden ptr @hermes_get_ExportDefaultDeclaration_declaration(ptr noundef %node) #0 {
entry:
  %node.addr = alloca ptr, align 8
  store ptr %node, ptr %node.addr, align 8
  %0 = load ptr, ptr %node.addr, align 8
  %_declaration = getelementptr inbounds %"class.hermes::ESTree::ExportDefaultDeclarationNode", ptr %0, i32 0, i32 1
  %1 = load ptr, ptr %_declaration, align 8
  %call = call noundef ptr @_ZN12_GLOBAL__N_110ReturnTypeIPN6hermes6ESTree4NodeEE3getES4_(ptr noundef %1)
  ret ptr %call
}

; Function Attrs: mustprogress nounwind uwtable
define hidden ptr @hermes_get_ExportAllDeclaration_source(ptr noundef %node) #0 {
entry:
  %node.addr = alloca ptr, align 8
  store ptr %node, ptr %node.addr, align 8
  %0 = load ptr, ptr %node.addr, align 8
  %_source = getelementptr inbounds %"class.hermes::ESTree::ExportAllDeclarationNode", ptr %0, i32 0, i32 1
  %1 = load ptr, ptr %_source, align 8
  %call = call noundef ptr @_ZN12_GLOBAL__N_110ReturnTypeIPN6hermes6ESTree4NodeEE3getES4_(ptr noundef %1)
  ret ptr %call
}

; Function Attrs: mustprogress nounwind uwtable
define hidden ptr @hermes_get_ExportAllDeclaration_exportKind(ptr noundef %node) #0 {
entry:
  %node.addr = alloca ptr, align 8
  store ptr %node, ptr %node.addr, align 8
  %0 = load ptr, ptr %node.addr, align 8
  %_exportKind = getelementptr inbounds %"class.hermes::ESTree::ExportAllDeclarationNode", ptr %0, i32 0, i32 2
  %1 = load ptr, ptr %_exportKind, align 8
  %call = call noundef ptr @_ZN12_GLOBAL__N_110ReturnTypeIPN6hermes12UniqueStringEE3getES3_(ptr noundef %1)
  ret ptr %call
}

; Function Attrs: mustprogress nounwind uwtable
define hidden ptr @hermes_get_ObjectPattern_properties(ptr noundef %node) #0 {
entry:
  %node.addr = alloca ptr, align 8
  store ptr %node, ptr %node.addr, align 8
  %0 = load ptr, ptr %node.addr, align 8
  %_properties = getelementptr inbounds %"class.hermes::ESTree::ObjectPatternNode", ptr %0, i32 0, i32 1
  %call = call noundef ptr @_ZN12_GLOBAL__N_110ReturnTypeIN4llvh12simple_ilistIN6hermes6ESTree4NodeEJEEEE3getERKS6_(ptr noundef nonnull align 8 dereferenceable(16) %_properties)
  ret ptr %call
}

; Function Attrs: mustprogress nounwind uwtable
define hidden ptr @hermes_get_ObjectPattern_typeAnnotation(ptr noundef %node) #0 {
entry:
  %node.addr = alloca ptr, align 8
  store ptr %node, ptr %node.addr, align 8
  %0 = load ptr, ptr %node.addr, align 8
  %_typeAnnotation = getelementptr inbounds %"class.hermes::ESTree::ObjectPatternNode", ptr %0, i32 0, i32 2
  %1 = load ptr, ptr %_typeAnnotation, align 8
  %call = call noundef ptr @_ZN12_GLOBAL__N_110ReturnTypeIPN6hermes6ESTree4NodeEE3getES4_(ptr noundef %1)
  ret ptr %call
}

; Function Attrs: mustprogress nounwind uwtable
define hidden ptr @hermes_get_ArrayPattern_elements(ptr noundef %node) #0 {
entry:
  %node.addr = alloca ptr, align 8
  store ptr %node, ptr %node.addr, align 8
  %0 = load ptr, ptr %node.addr, align 8
  %_elements = getelementptr inbounds %"class.hermes::ESTree::ArrayPatternNode", ptr %0, i32 0, i32 1
  %call = call noundef ptr @_ZN12_GLOBAL__N_110ReturnTypeIN4llvh12simple_ilistIN6hermes6ESTree4NodeEJEEEE3getERKS6_(ptr noundef nonnull align 8 dereferenceable(16) %_elements)
  ret ptr %call
}

; Function Attrs: mustprogress nounwind uwtable
define hidden ptr @hermes_get_ArrayPattern_typeAnnotation(ptr noundef %node) #0 {
entry:
  %node.addr = alloca ptr, align 8
  store ptr %node, ptr %node.addr, align 8
  %0 = load ptr, ptr %node.addr, align 8
  %_typeAnnotation = getelementptr inbounds %"class.hermes::ESTree::ArrayPatternNode", ptr %0, i32 0, i32 2
  %1 = load ptr, ptr %_typeAnnotation, align 8
  %call = call noundef ptr @_ZN12_GLOBAL__N_110ReturnTypeIPN6hermes6ESTree4NodeEE3getES4_(ptr noundef %1)
  ret ptr %call
}

; Function Attrs: mustprogress nounwind uwtable
define hidden ptr @hermes_get_RestElement_argument(ptr noundef %node) #0 {
entry:
  %node.addr = alloca ptr, align 8
  store ptr %node, ptr %node.addr, align 8
  %0 = load ptr, ptr %node.addr, align 8
  %_argument = getelementptr inbounds %"class.hermes::ESTree::RestElementNode", ptr %0, i32 0, i32 1
  %1 = load ptr, ptr %_argument, align 8
  %call = call noundef ptr @_ZN12_GLOBAL__N_110ReturnTypeIPN6hermes6ESTree4NodeEE3getES4_(ptr noundef %1)
  ret ptr %call
}

; Function Attrs: mustprogress nounwind uwtable
define hidden ptr @hermes_get_AssignmentPattern_left(ptr noundef %node) #0 {
entry:
  %node.addr = alloca ptr, align 8
  store ptr %node, ptr %node.addr, align 8
  %0 = load ptr, ptr %node.addr, align 8
  %_left = getelementptr inbounds %"class.hermes::ESTree::AssignmentPatternNode", ptr %0, i32 0, i32 1
  %1 = load ptr, ptr %_left, align 8
  %call = call noundef ptr @_ZN12_GLOBAL__N_110ReturnTypeIPN6hermes6ESTree4NodeEE3getES4_(ptr noundef %1)
  ret ptr %call
}

; Function Attrs: mustprogress nounwind uwtable
define hidden ptr @hermes_get_AssignmentPattern_right(ptr noundef %node) #0 {
entry:
  %node.addr = alloca ptr, align 8
  store ptr %node, ptr %node.addr, align 8
  %0 = load ptr, ptr %node.addr, align 8
  %_right = getelementptr inbounds %"class.hermes::ESTree::AssignmentPatternNode", ptr %0, i32 0, i32 2
  %1 = load ptr, ptr %_right, align 8
  %call = call noundef ptr @_ZN12_GLOBAL__N_110ReturnTypeIPN6hermes6ESTree4NodeEE3getES4_(ptr noundef %1)
  ret ptr %call
}

; Function Attrs: mustprogress nounwind uwtable
define hidden ptr @hermes_get_JSXIdentifier_name(ptr noundef %node) #0 {
entry:
  %node.addr = alloca ptr, align 8
  store ptr %node, ptr %node.addr, align 8
  %0 = load ptr, ptr %node.addr, align 8
  %_name = getelementptr inbounds %"class.hermes::ESTree::JSXIdentifierNode", ptr %0, i32 0, i32 1
  %1 = load ptr, ptr %_name, align 8
  %call = call noundef ptr @_ZN12_GLOBAL__N_110ReturnTypeIPN6hermes12UniqueStringEE3getES3_(ptr noundef %1)
  ret ptr %call
}

; Function Attrs: mustprogress nounwind uwtable
define hidden ptr @hermes_get_JSXMemberExpression_object(ptr noundef %node) #0 {
entry:
  %node.addr = alloca ptr, align 8
  store ptr %node, ptr %node.addr, align 8
  %0 = load ptr, ptr %node.addr, align 8
  %_object = getelementptr inbounds %"class.hermes::ESTree::JSXMemberExpressionNode", ptr %0, i32 0, i32 1
  %1 = load ptr, ptr %_object, align 8
  %call = call noundef ptr @_ZN12_GLOBAL__N_110ReturnTypeIPN6hermes6ESTree4NodeEE3getES4_(ptr noundef %1)
  ret ptr %call
}

; Function Attrs: mustprogress nounwind uwtable
define hidden ptr @hermes_get_JSXMemberExpression_property(ptr noundef %node) #0 {
entry:
  %node.addr = alloca ptr, align 8
  store ptr %node, ptr %node.addr, align 8
  %0 = load ptr, ptr %node.addr, align 8
  %_property = getelementptr inbounds %"class.hermes::ESTree::JSXMemberExpressionNode", ptr %0, i32 0, i32 2
  %1 = load ptr, ptr %_property, align 8
  %call = call noundef ptr @_ZN12_GLOBAL__N_110ReturnTypeIPN6hermes6ESTree4NodeEE3getES4_(ptr noundef %1)
  ret ptr %call
}

; Function Attrs: mustprogress nounwind uwtable
define hidden ptr @hermes_get_JSXNamespacedName_namespace(ptr noundef %node) #0 {
entry:
  %node.addr = alloca ptr, align 8
  store ptr %node, ptr %node.addr, align 8
  %0 = load ptr, ptr %node.addr, align 8
  %_namespace = getelementptr inbounds %"class.hermes::ESTree::JSXNamespacedNameNode", ptr %0, i32 0, i32 1
  %1 = load ptr, ptr %_namespace, align 8
  %call = call noundef ptr @_ZN12_GLOBAL__N_110ReturnTypeIPN6hermes6ESTree4NodeEE3getES4_(ptr noundef %1)
  ret ptr %call
}

; Function Attrs: mustprogress nounwind uwtable
define hidden ptr @hermes_get_JSXNamespacedName_name(ptr noundef %node) #0 {
entry:
  %node.addr = alloca ptr, align 8
  store ptr %node, ptr %node.addr, align 8
  %0 = load ptr, ptr %node.addr, align 8
  %_name = getelementptr inbounds %"class.hermes::ESTree::JSXNamespacedNameNode", ptr %0, i32 0, i32 2
  %1 = load ptr, ptr %_name, align 8
  %call = call noundef ptr @_ZN12_GLOBAL__N_110ReturnTypeIPN6hermes6ESTree4NodeEE3getES4_(ptr noundef %1)
  ret ptr %call
}

; Function Attrs: mustprogress nounwind uwtable
define hidden ptr @hermes_get_JSXExpressionContainer_expression(ptr noundef %node) #0 {
entry:
  %node.addr = alloca ptr, align 8
  store ptr %node, ptr %node.addr, align 8
  %0 = load ptr, ptr %node.addr, align 8
  %_expression = getelementptr inbounds %"class.hermes::ESTree::JSXExpressionContainerNode", ptr %0, i32 0, i32 1
  %1 = load ptr, ptr %_expression, align 8
  %call = call noundef ptr @_ZN12_GLOBAL__N_110ReturnTypeIPN6hermes6ESTree4NodeEE3getES4_(ptr noundef %1)
  ret ptr %call
}

; Function Attrs: mustprogress nounwind uwtable
define hidden ptr @hermes_get_JSXSpreadChild_expression(ptr noundef %node) #0 {
entry:
  %node.addr = alloca ptr, align 8
  store ptr %node, ptr %node.addr, align 8
  %0 = load ptr, ptr %node.addr, align 8
  %_expression = getelementptr inbounds %"class.hermes::ESTree::JSXSpreadChildNode", ptr %0, i32 0, i32 1
  %1 = load ptr, ptr %_expression, align 8
  %call = call noundef ptr @_ZN12_GLOBAL__N_110ReturnTypeIPN6hermes6ESTree4NodeEE3getES4_(ptr noundef %1)
  ret ptr %call
}

; Function Attrs: mustprogress nounwind uwtable
define hidden ptr @hermes_get_JSXOpeningElement_name(ptr noundef %node) #0 {
entry:
  %node.addr = alloca ptr, align 8
  store ptr %node, ptr %node.addr, align 8
  %0 = load ptr, ptr %node.addr, align 8
  %_name = getelementptr inbounds %"class.hermes::ESTree::JSXOpeningElementNode", ptr %0, i32 0, i32 1
  %1 = load ptr, ptr %_name, align 8
  %call = call noundef ptr @_ZN12_GLOBAL__N_110ReturnTypeIPN6hermes6ESTree4NodeEE3getES4_(ptr noundef %1)
  ret ptr %call
}

; Function Attrs: mustprogress nounwind uwtable
define hidden ptr @hermes_get_JSXOpeningElement_attributes(ptr noundef %node) #0 {
entry:
  %node.addr = alloca ptr, align 8
  store ptr %node, ptr %node.addr, align 8
  %0 = load ptr, ptr %node.addr, align 8
  %_attributes = getelementptr inbounds %"class.hermes::ESTree::JSXOpeningElementNode", ptr %0, i32 0, i32 2
  %call = call noundef ptr @_ZN12_GLOBAL__N_110ReturnTypeIN4llvh12simple_ilistIN6hermes6ESTree4NodeEJEEEE3getERKS6_(ptr noundef nonnull align 8 dereferenceable(16) %_attributes)
  ret ptr %call
}

; Function Attrs: mustprogress nounwind uwtable
define hidden zeroext i1 @hermes_get_JSXOpeningElement_selfClosing(ptr noundef %node) #0 {
entry:
  %node.addr = alloca ptr, align 8
  store ptr %node, ptr %node.addr, align 8
  %0 = load ptr, ptr %node.addr, align 8
  %_selfClosing = getelementptr inbounds %"class.hermes::ESTree::JSXOpeningElementNode", ptr %0, i32 0, i32 3
  %1 = load i8, ptr %_selfClosing, align 8
  %tobool = trunc i8 %1 to i1
  %call = call noundef zeroext i1 @_ZN12_GLOBAL__N_110ReturnTypeIbE3getEb(i1 noundef zeroext %tobool)
  ret i1 %call
}

; Function Attrs: mustprogress nounwind uwtable
define hidden ptr @hermes_get_JSXOpeningElement_typeArguments(ptr noundef %node) #0 {
entry:
  %node.addr = alloca ptr, align 8
  store ptr %node, ptr %node.addr, align 8
  %0 = load ptr, ptr %node.addr, align 8
  %_typeArguments = getelementptr inbounds %"class.hermes::ESTree::JSXOpeningElementNode", ptr %0, i32 0, i32 4
  %1 = load ptr, ptr %_typeArguments, align 8
  %call = call noundef ptr @_ZN12_GLOBAL__N_110ReturnTypeIPN6hermes6ESTree4NodeEE3getES4_(ptr noundef %1)
  ret ptr %call
}

; Function Attrs: mustprogress nounwind uwtable
define hidden ptr @hermes_get_JSXClosingElement_name(ptr noundef %node) #0 {
entry:
  %node.addr = alloca ptr, align 8
  store ptr %node, ptr %node.addr, align 8
  %0 = load ptr, ptr %node.addr, align 8
  %_name = getelementptr inbounds %"class.hermes::ESTree::JSXClosingElementNode", ptr %0, i32 0, i32 1
  %1 = load ptr, ptr %_name, align 8
  %call = call noundef ptr @_ZN12_GLOBAL__N_110ReturnTypeIPN6hermes6ESTree4NodeEE3getES4_(ptr noundef %1)
  ret ptr %call
}

; Function Attrs: mustprogress nounwind uwtable
define hidden ptr @hermes_get_JSXAttribute_name(ptr noundef %node) #0 {
entry:
  %node.addr = alloca ptr, align 8
  store ptr %node, ptr %node.addr, align 8
  %0 = load ptr, ptr %node.addr, align 8
  %_name = getelementptr inbounds %"class.hermes::ESTree::JSXAttributeNode", ptr %0, i32 0, i32 1
  %1 = load ptr, ptr %_name, align 8
  %call = call noundef ptr @_ZN12_GLOBAL__N_110ReturnTypeIPN6hermes6ESTree4NodeEE3getES4_(ptr noundef %1)
  ret ptr %call
}

; Function Attrs: mustprogress nounwind uwtable
define hidden ptr @hermes_get_JSXAttribute_value(ptr noundef %node) #0 {
entry:
  %node.addr = alloca ptr, align 8
  store ptr %node, ptr %node.addr, align 8
  %0 = load ptr, ptr %node.addr, align 8
  %_value = getelementptr inbounds %"class.hermes::ESTree::JSXAttributeNode", ptr %0, i32 0, i32 2
  %1 = load ptr, ptr %_value, align 8
  %call = call noundef ptr @_ZN12_GLOBAL__N_110ReturnTypeIPN6hermes6ESTree4NodeEE3getES4_(ptr noundef %1)
  ret ptr %call
}

; Function Attrs: mustprogress nounwind uwtable
define hidden ptr @hermes_get_JSXSpreadAttribute_argument(ptr noundef %node) #0 {
entry:
  %node.addr = alloca ptr, align 8
  store ptr %node, ptr %node.addr, align 8
  %0 = load ptr, ptr %node.addr, align 8
  %_argument = getelementptr inbounds %"class.hermes::ESTree::JSXSpreadAttributeNode", ptr %0, i32 0, i32 1
  %1 = load ptr, ptr %_argument, align 8
  %call = call noundef ptr @_ZN12_GLOBAL__N_110ReturnTypeIPN6hermes6ESTree4NodeEE3getES4_(ptr noundef %1)
  ret ptr %call
}

; Function Attrs: mustprogress nounwind uwtable
define hidden ptr @hermes_get_JSXStringLiteral_value(ptr noundef %node) #0 {
entry:
  %node.addr = alloca ptr, align 8
  store ptr %node, ptr %node.addr, align 8
  %0 = load ptr, ptr %node.addr, align 8
  %_value = getelementptr inbounds %"class.hermes::ESTree::JSXStringLiteralNode", ptr %0, i32 0, i32 1
  %1 = load ptr, ptr %_value, align 8
  %call = call noundef ptr @_ZN12_GLOBAL__N_110ReturnTypeIPN6hermes12UniqueStringEE3getES3_(ptr noundef %1)
  ret ptr %call
}

; Function Attrs: mustprogress nounwind uwtable
define hidden ptr @hermes_get_JSXStringLiteral_raw(ptr noundef %node) #0 {
entry:
  %node.addr = alloca ptr, align 8
  store ptr %node, ptr %node.addr, align 8
  %0 = load ptr, ptr %node.addr, align 8
  %_raw = getelementptr inbounds %"class.hermes::ESTree::JSXStringLiteralNode", ptr %0, i32 0, i32 2
  %1 = load ptr, ptr %_raw, align 8
  %call = call noundef ptr @_ZN12_GLOBAL__N_110ReturnTypeIPN6hermes12UniqueStringEE3getES3_(ptr noundef %1)
  ret ptr %call
}

; Function Attrs: mustprogress nounwind uwtable
define hidden ptr @hermes_get_JSXText_value(ptr noundef %node) #0 {
entry:
  %node.addr = alloca ptr, align 8
  store ptr %node, ptr %node.addr, align 8
  %0 = load ptr, ptr %node.addr, align 8
  %_value = getelementptr inbounds %"class.hermes::ESTree::JSXTextNode", ptr %0, i32 0, i32 1
  %1 = load ptr, ptr %_value, align 8
  %call = call noundef ptr @_ZN12_GLOBAL__N_110ReturnTypeIPN6hermes12UniqueStringEE3getES3_(ptr noundef %1)
  ret ptr %call
}

; Function Attrs: mustprogress nounwind uwtable
define hidden ptr @hermes_get_JSXText_raw(ptr noundef %node) #0 {
entry:
  %node.addr = alloca ptr, align 8
  store ptr %node, ptr %node.addr, align 8
  %0 = load ptr, ptr %node.addr, align 8
  %_raw = getelementptr inbounds %"class.hermes::ESTree::JSXTextNode", ptr %0, i32 0, i32 2
  %1 = load ptr, ptr %_raw, align 8
  %call = call noundef ptr @_ZN12_GLOBAL__N_110ReturnTypeIPN6hermes12UniqueStringEE3getES3_(ptr noundef %1)
  ret ptr %call
}

; Function Attrs: mustprogress nounwind uwtable
define hidden ptr @hermes_get_JSXElement_openingElement(ptr noundef %node) #0 {
entry:
  %node.addr = alloca ptr, align 8
  store ptr %node, ptr %node.addr, align 8
  %0 = load ptr, ptr %node.addr, align 8
  %_openingElement = getelementptr inbounds %"class.hermes::ESTree::JSXElementNode", ptr %0, i32 0, i32 1
  %1 = load ptr, ptr %_openingElement, align 8
  %call = call noundef ptr @_ZN12_GLOBAL__N_110ReturnTypeIPN6hermes6ESTree4NodeEE3getES4_(ptr noundef %1)
  ret ptr %call
}

; Function Attrs: mustprogress nounwind uwtable
define hidden ptr @hermes_get_JSXElement_children(ptr noundef %node) #0 {
entry:
  %node.addr = alloca ptr, align 8
  store ptr %node, ptr %node.addr, align 8
  %0 = load ptr, ptr %node.addr, align 8
  %_children = getelementptr inbounds %"class.hermes::ESTree::JSXElementNode", ptr %0, i32 0, i32 2
  %call = call noundef ptr @_ZN12_GLOBAL__N_110ReturnTypeIN4llvh12simple_ilistIN6hermes6ESTree4NodeEJEEEE3getERKS6_(ptr noundef nonnull align 8 dereferenceable(16) %_children)
  ret ptr %call
}

; Function Attrs: mustprogress nounwind uwtable
define hidden ptr @hermes_get_JSXElement_closingElement(ptr noundef %node) #0 {
entry:
  %node.addr = alloca ptr, align 8
  store ptr %node, ptr %node.addr, align 8
  %0 = load ptr, ptr %node.addr, align 8
  %_closingElement = getelementptr inbounds %"class.hermes::ESTree::JSXElementNode", ptr %0, i32 0, i32 3
  %1 = load ptr, ptr %_closingElement, align 8
  %call = call noundef ptr @_ZN12_GLOBAL__N_110ReturnTypeIPN6hermes6ESTree4NodeEE3getES4_(ptr noundef %1)
  ret ptr %call
}

; Function Attrs: mustprogress nounwind uwtable
define hidden ptr @hermes_get_JSXFragment_openingFragment(ptr noundef %node) #0 {
entry:
  %node.addr = alloca ptr, align 8
  store ptr %node, ptr %node.addr, align 8
  %0 = load ptr, ptr %node.addr, align 8
  %_openingFragment = getelementptr inbounds %"class.hermes::ESTree::JSXFragmentNode", ptr %0, i32 0, i32 1
  %1 = load ptr, ptr %_openingFragment, align 8
  %call = call noundef ptr @_ZN12_GLOBAL__N_110ReturnTypeIPN6hermes6ESTree4NodeEE3getES4_(ptr noundef %1)
  ret ptr %call
}

; Function Attrs: mustprogress nounwind uwtable
define hidden ptr @hermes_get_JSXFragment_children(ptr noundef %node) #0 {
entry:
  %node.addr = alloca ptr, align 8
  store ptr %node, ptr %node.addr, align 8
  %0 = load ptr, ptr %node.addr, align 8
  %_children = getelementptr inbounds %"class.hermes::ESTree::JSXFragmentNode", ptr %0, i32 0, i32 2
  %call = call noundef ptr @_ZN12_GLOBAL__N_110ReturnTypeIN4llvh12simple_ilistIN6hermes6ESTree4NodeEJEEEE3getERKS6_(ptr noundef nonnull align 8 dereferenceable(16) %_children)
  ret ptr %call
}

; Function Attrs: mustprogress nounwind uwtable
define hidden ptr @hermes_get_JSXFragment_closingFragment(ptr noundef %node) #0 {
entry:
  %node.addr = alloca ptr, align 8
  store ptr %node, ptr %node.addr, align 8
  %0 = load ptr, ptr %node.addr, align 8
  %_closingFragment = getelementptr inbounds %"class.hermes::ESTree::JSXFragmentNode", ptr %0, i32 0, i32 3
  %1 = load ptr, ptr %_closingFragment, align 8
  %call = call noundef ptr @_ZN12_GLOBAL__N_110ReturnTypeIPN6hermes6ESTree4NodeEE3getES4_(ptr noundef %1)
  ret ptr %call
}

; Function Attrs: mustprogress nounwind uwtable
define hidden ptr @hermes_get_StringLiteralTypeAnnotation_value(ptr noundef %node) #0 {
entry:
  %node.addr = alloca ptr, align 8
  store ptr %node, ptr %node.addr, align 8
  %0 = load ptr, ptr %node.addr, align 8
  %_value = getelementptr inbounds %"class.hermes::ESTree::StringLiteralTypeAnnotationNode", ptr %0, i32 0, i32 1
  %1 = load ptr, ptr %_value, align 8
  %call = call noundef ptr @_ZN12_GLOBAL__N_110ReturnTypeIPN6hermes12UniqueStringEE3getES3_(ptr noundef %1)
  ret ptr %call
}

; Function Attrs: mustprogress nounwind uwtable
define hidden ptr @hermes_get_StringLiteralTypeAnnotation_raw(ptr noundef %node) #0 {
entry:
  %node.addr = alloca ptr, align 8
  store ptr %node, ptr %node.addr, align 8
  %0 = load ptr, ptr %node.addr, align 8
  %_raw = getelementptr inbounds %"class.hermes::ESTree::StringLiteralTypeAnnotationNode", ptr %0, i32 0, i32 2
  %1 = load ptr, ptr %_raw, align 8
  %call = call noundef ptr @_ZN12_GLOBAL__N_110ReturnTypeIPN6hermes12UniqueStringEE3getES3_(ptr noundef %1)
  ret ptr %call
}

; Function Attrs: mustprogress nounwind uwtable
define hidden double @hermes_get_NumberLiteralTypeAnnotation_value(ptr noundef %node) #0 {
entry:
  %node.addr = alloca ptr, align 8
  store ptr %node, ptr %node.addr, align 8
  %0 = load ptr, ptr %node.addr, align 8
  %_value = getelementptr inbounds %"class.hermes::ESTree::NumberLiteralTypeAnnotationNode", ptr %0, i32 0, i32 1
  %1 = load double, ptr %_value, align 8
  %call = call noundef double @_ZN12_GLOBAL__N_110ReturnTypeIdE3getEd(double noundef %1)
  ret double %call
}

; Function Attrs: mustprogress nounwind uwtable
define hidden ptr @hermes_get_NumberLiteralTypeAnnotation_raw(ptr noundef %node) #0 {
entry:
  %node.addr = alloca ptr, align 8
  store ptr %node, ptr %node.addr, align 8
  %0 = load ptr, ptr %node.addr, align 8
  %_raw = getelementptr inbounds %"class.hermes::ESTree::NumberLiteralTypeAnnotationNode", ptr %0, i32 0, i32 2
  %1 = load ptr, ptr %_raw, align 8
  %call = call noundef ptr @_ZN12_GLOBAL__N_110ReturnTypeIPN6hermes12UniqueStringEE3getES3_(ptr noundef %1)
  ret ptr %call
}

; Function Attrs: mustprogress nounwind uwtable
define hidden ptr @hermes_get_BigIntLiteralTypeAnnotation_raw(ptr noundef %node) #0 {
entry:
  %node.addr = alloca ptr, align 8
  store ptr %node, ptr %node.addr, align 8
  %0 = load ptr, ptr %node.addr, align 8
  %_raw = getelementptr inbounds %"class.hermes::ESTree::BigIntLiteralTypeAnnotationNode", ptr %0, i32 0, i32 1
  %1 = load ptr, ptr %_raw, align 8
  %call = call noundef ptr @_ZN12_GLOBAL__N_110ReturnTypeIPN6hermes12UniqueStringEE3getES3_(ptr noundef %1)
  ret ptr %call
}

; Function Attrs: mustprogress nounwind uwtable
define hidden zeroext i1 @hermes_get_BooleanLiteralTypeAnnotation_value(ptr noundef %node) #0 {
entry:
  %node.addr = alloca ptr, align 8
  store ptr %node, ptr %node.addr, align 8
  %0 = load ptr, ptr %node.addr, align 8
  %_value = getelementptr inbounds %"class.hermes::ESTree::BooleanLiteralTypeAnnotationNode", ptr %0, i32 0, i32 1
  %1 = load i8, ptr %_value, align 8
  %tobool = trunc i8 %1 to i1
  %call = call noundef zeroext i1 @_ZN12_GLOBAL__N_110ReturnTypeIbE3getEb(i1 noundef zeroext %tobool)
  ret i1 %call
}

; Function Attrs: mustprogress nounwind uwtable
define hidden ptr @hermes_get_BooleanLiteralTypeAnnotation_raw(ptr noundef %node) #0 {
entry:
  %node.addr = alloca ptr, align 8
  store ptr %node, ptr %node.addr, align 8
  %0 = load ptr, ptr %node.addr, align 8
  %_raw = getelementptr inbounds %"class.hermes::ESTree::BooleanLiteralTypeAnnotationNode", ptr %0, i32 0, i32 2
  %1 = load ptr, ptr %_raw, align 8
  %call = call noundef ptr @_ZN12_GLOBAL__N_110ReturnTypeIPN6hermes12UniqueStringEE3getES3_(ptr noundef %1)
  ret ptr %call
}

; Function Attrs: mustprogress nounwind uwtable
define hidden ptr @hermes_get_FunctionTypeAnnotation_params(ptr noundef %node) #0 {
entry:
  %node.addr = alloca ptr, align 8
  store ptr %node, ptr %node.addr, align 8
  %0 = load ptr, ptr %node.addr, align 8
  %_params = getelementptr inbounds %"class.hermes::ESTree::FunctionTypeAnnotationNode", ptr %0, i32 0, i32 1
  %call = call noundef ptr @_ZN12_GLOBAL__N_110ReturnTypeIN4llvh12simple_ilistIN6hermes6ESTree4NodeEJEEEE3getERKS6_(ptr noundef nonnull align 8 dereferenceable(16) %_params)
  ret ptr %call
}

; Function Attrs: mustprogress nounwind uwtable
define hidden ptr @hermes_get_FunctionTypeAnnotation_this(ptr noundef %node) #0 {
entry:
  %node.addr = alloca ptr, align 8
  store ptr %node, ptr %node.addr, align 8
  %0 = load ptr, ptr %node.addr, align 8
  %_this = getelementptr inbounds %"class.hermes::ESTree::FunctionTypeAnnotationNode", ptr %0, i32 0, i32 2
  %1 = load ptr, ptr %_this, align 8
  %call = call noundef ptr @_ZN12_GLOBAL__N_110ReturnTypeIPN6hermes6ESTree4NodeEE3getES4_(ptr noundef %1)
  ret ptr %call
}

; Function Attrs: mustprogress nounwind uwtable
define hidden ptr @hermes_get_FunctionTypeAnnotation_returnType(ptr noundef %node) #0 {
entry:
  %node.addr = alloca ptr, align 8
  store ptr %node, ptr %node.addr, align 8
  %0 = load ptr, ptr %node.addr, align 8
  %_returnType = getelementptr inbounds %"class.hermes::ESTree::FunctionTypeAnnotationNode", ptr %0, i32 0, i32 3
  %1 = load ptr, ptr %_returnType, align 8
  %call = call noundef ptr @_ZN12_GLOBAL__N_110ReturnTypeIPN6hermes6ESTree4NodeEE3getES4_(ptr noundef %1)
  ret ptr %call
}

; Function Attrs: mustprogress nounwind uwtable
define hidden ptr @hermes_get_FunctionTypeAnnotation_rest(ptr noundef %node) #0 {
entry:
  %node.addr = alloca ptr, align 8
  store ptr %node, ptr %node.addr, align 8
  %0 = load ptr, ptr %node.addr, align 8
  %_rest = getelementptr inbounds %"class.hermes::ESTree::FunctionTypeAnnotationNode", ptr %0, i32 0, i32 4
  %1 = load ptr, ptr %_rest, align 8
  %call = call noundef ptr @_ZN12_GLOBAL__N_110ReturnTypeIPN6hermes6ESTree4NodeEE3getES4_(ptr noundef %1)
  ret ptr %call
}

; Function Attrs: mustprogress nounwind uwtable
define hidden ptr @hermes_get_FunctionTypeAnnotation_typeParameters(ptr noundef %node) #0 {
entry:
  %node.addr = alloca ptr, align 8
  store ptr %node, ptr %node.addr, align 8
  %0 = load ptr, ptr %node.addr, align 8
  %_typeParameters = getelementptr inbounds %"class.hermes::ESTree::FunctionTypeAnnotationNode", ptr %0, i32 0, i32 5
  %1 = load ptr, ptr %_typeParameters, align 8
  %call = call noundef ptr @_ZN12_GLOBAL__N_110ReturnTypeIPN6hermes6ESTree4NodeEE3getES4_(ptr noundef %1)
  ret ptr %call
}

; Function Attrs: mustprogress nounwind uwtable
define hidden ptr @hermes_get_FunctionTypeParam_name(ptr noundef %node) #0 {
entry:
  %node.addr = alloca ptr, align 8
  store ptr %node, ptr %node.addr, align 8
  %0 = load ptr, ptr %node.addr, align 8
  %_name = getelementptr inbounds %"class.hermes::ESTree::FunctionTypeParamNode", ptr %0, i32 0, i32 1
  %1 = load ptr, ptr %_name, align 8
  %call = call noundef ptr @_ZN12_GLOBAL__N_110ReturnTypeIPN6hermes6ESTree4NodeEE3getES4_(ptr noundef %1)
  ret ptr %call
}

; Function Attrs: mustprogress nounwind uwtable
define hidden ptr @hermes_get_FunctionTypeParam_typeAnnotation(ptr noundef %node) #0 {
entry:
  %node.addr = alloca ptr, align 8
  store ptr %node, ptr %node.addr, align 8
  %0 = load ptr, ptr %node.addr, align 8
  %_typeAnnotation = getelementptr inbounds %"class.hermes::ESTree::FunctionTypeParamNode", ptr %0, i32 0, i32 2
  %1 = load ptr, ptr %_typeAnnotation, align 8
  %call = call noundef ptr @_ZN12_GLOBAL__N_110ReturnTypeIPN6hermes6ESTree4NodeEE3getES4_(ptr noundef %1)
  ret ptr %call
}

; Function Attrs: mustprogress nounwind uwtable
define hidden zeroext i1 @hermes_get_FunctionTypeParam_optional(ptr noundef %node) #0 {
entry:
  %node.addr = alloca ptr, align 8
  store ptr %node, ptr %node.addr, align 8
  %0 = load ptr, ptr %node.addr, align 8
  %_optional = getelementptr inbounds %"class.hermes::ESTree::FunctionTypeParamNode", ptr %0, i32 0, i32 3
  %1 = load i8, ptr %_optional, align 8
  %tobool = trunc i8 %1 to i1
  %call = call noundef zeroext i1 @_ZN12_GLOBAL__N_110ReturnTypeIbE3getEb(i1 noundef zeroext %tobool)
  ret i1 %call
}

; Function Attrs: mustprogress nounwind uwtable
define hidden ptr @hermes_get_ComponentTypeAnnotation_params(ptr noundef %node) #0 {
entry:
  %node.addr = alloca ptr, align 8
  store ptr %node, ptr %node.addr, align 8
  %0 = load ptr, ptr %node.addr, align 8
  %_params = getelementptr inbounds %"class.hermes::ESTree::ComponentTypeAnnotationNode", ptr %0, i32 0, i32 1
  %call = call noundef ptr @_ZN12_GLOBAL__N_110ReturnTypeIN4llvh12simple_ilistIN6hermes6ESTree4NodeEJEEEE3getERKS6_(ptr noundef nonnull align 8 dereferenceable(16) %_params)
  ret ptr %call
}

; Function Attrs: mustprogress nounwind uwtable
define hidden ptr @hermes_get_ComponentTypeAnnotation_rest(ptr noundef %node) #0 {
entry:
  %node.addr = alloca ptr, align 8
  store ptr %node, ptr %node.addr, align 8
  %0 = load ptr, ptr %node.addr, align 8
  %_rest = getelementptr inbounds %"class.hermes::ESTree::ComponentTypeAnnotationNode", ptr %0, i32 0, i32 2
  %1 = load ptr, ptr %_rest, align 8
  %call = call noundef ptr @_ZN12_GLOBAL__N_110ReturnTypeIPN6hermes6ESTree4NodeEE3getES4_(ptr noundef %1)
  ret ptr %call
}

; Function Attrs: mustprogress nounwind uwtable
define hidden ptr @hermes_get_ComponentTypeAnnotation_typeParameters(ptr noundef %node) #0 {
entry:
  %node.addr = alloca ptr, align 8
  store ptr %node, ptr %node.addr, align 8
  %0 = load ptr, ptr %node.addr, align 8
  %_typeParameters = getelementptr inbounds %"class.hermes::ESTree::ComponentTypeAnnotationNode", ptr %0, i32 0, i32 3
  %1 = load ptr, ptr %_typeParameters, align 8
  %call = call noundef ptr @_ZN12_GLOBAL__N_110ReturnTypeIPN6hermes6ESTree4NodeEE3getES4_(ptr noundef %1)
  ret ptr %call
}

; Function Attrs: mustprogress nounwind uwtable
define hidden ptr @hermes_get_ComponentTypeAnnotation_rendersType(ptr noundef %node) #0 {
entry:
  %node.addr = alloca ptr, align 8
  store ptr %node, ptr %node.addr, align 8
  %0 = load ptr, ptr %node.addr, align 8
  %_rendersType = getelementptr inbounds %"class.hermes::ESTree::ComponentTypeAnnotationNode", ptr %0, i32 0, i32 4
  %1 = load ptr, ptr %_rendersType, align 8
  %call = call noundef ptr @_ZN12_GLOBAL__N_110ReturnTypeIPN6hermes6ESTree4NodeEE3getES4_(ptr noundef %1)
  ret ptr %call
}

; Function Attrs: mustprogress nounwind uwtable
define hidden ptr @hermes_get_ComponentTypeParameter_name(ptr noundef %node) #0 {
entry:
  %node.addr = alloca ptr, align 8
  store ptr %node, ptr %node.addr, align 8
  %0 = load ptr, ptr %node.addr, align 8
  %_name = getelementptr inbounds %"class.hermes::ESTree::ComponentTypeParameterNode", ptr %0, i32 0, i32 1
  %1 = load ptr, ptr %_name, align 8
  %call = call noundef ptr @_ZN12_GLOBAL__N_110ReturnTypeIPN6hermes6ESTree4NodeEE3getES4_(ptr noundef %1)
  ret ptr %call
}

; Function Attrs: mustprogress nounwind uwtable
define hidden ptr @hermes_get_ComponentTypeParameter_typeAnnotation(ptr noundef %node) #0 {
entry:
  %node.addr = alloca ptr, align 8
  store ptr %node, ptr %node.addr, align 8
  %0 = load ptr, ptr %node.addr, align 8
  %_typeAnnotation = getelementptr inbounds %"class.hermes::ESTree::ComponentTypeParameterNode", ptr %0, i32 0, i32 2
  %1 = load ptr, ptr %_typeAnnotation, align 8
  %call = call noundef ptr @_ZN12_GLOBAL__N_110ReturnTypeIPN6hermes6ESTree4NodeEE3getES4_(ptr noundef %1)
  ret ptr %call
}

; Function Attrs: mustprogress nounwind uwtable
define hidden zeroext i1 @hermes_get_ComponentTypeParameter_optional(ptr noundef %node) #0 {
entry:
  %node.addr = alloca ptr, align 8
  store ptr %node, ptr %node.addr, align 8
  %0 = load ptr, ptr %node.addr, align 8
  %_optional = getelementptr inbounds %"class.hermes::ESTree::ComponentTypeParameterNode", ptr %0, i32 0, i32 3
  %1 = load i8, ptr %_optional, align 8
  %tobool = trunc i8 %1 to i1
  %call = call noundef zeroext i1 @_ZN12_GLOBAL__N_110ReturnTypeIbE3getEb(i1 noundef zeroext %tobool)
  ret i1 %call
}

; Function Attrs: mustprogress nounwind uwtable
define hidden ptr @hermes_get_NullableTypeAnnotation_typeAnnotation(ptr noundef %node) #0 {
entry:
  %node.addr = alloca ptr, align 8
  store ptr %node, ptr %node.addr, align 8
  %0 = load ptr, ptr %node.addr, align 8
  %_typeAnnotation = getelementptr inbounds %"class.hermes::ESTree::NullableTypeAnnotationNode", ptr %0, i32 0, i32 1
  %1 = load ptr, ptr %_typeAnnotation, align 8
  %call = call noundef ptr @_ZN12_GLOBAL__N_110ReturnTypeIPN6hermes6ESTree4NodeEE3getES4_(ptr noundef %1)
  ret ptr %call
}

; Function Attrs: mustprogress nounwind uwtable
define hidden ptr @hermes_get_QualifiedTypeIdentifier_qualification(ptr noundef %node) #0 {
entry:
  %node.addr = alloca ptr, align 8
  store ptr %node, ptr %node.addr, align 8
  %0 = load ptr, ptr %node.addr, align 8
  %_qualification = getelementptr inbounds %"class.hermes::ESTree::QualifiedTypeIdentifierNode", ptr %0, i32 0, i32 1
  %1 = load ptr, ptr %_qualification, align 8
  %call = call noundef ptr @_ZN12_GLOBAL__N_110ReturnTypeIPN6hermes6ESTree4NodeEE3getES4_(ptr noundef %1)
  ret ptr %call
}

; Function Attrs: mustprogress nounwind uwtable
define hidden ptr @hermes_get_QualifiedTypeIdentifier_id(ptr noundef %node) #0 {
entry:
  %node.addr = alloca ptr, align 8
  store ptr %node, ptr %node.addr, align 8
  %0 = load ptr, ptr %node.addr, align 8
  %_id = getelementptr inbounds %"class.hermes::ESTree::QualifiedTypeIdentifierNode", ptr %0, i32 0, i32 2
  %1 = load ptr, ptr %_id, align 8
  %call = call noundef ptr @_ZN12_GLOBAL__N_110ReturnTypeIPN6hermes6ESTree4NodeEE3getES4_(ptr noundef %1)
  ret ptr %call
}

; Function Attrs: mustprogress nounwind uwtable
define hidden ptr @hermes_get_TypeofTypeAnnotation_argument(ptr noundef %node) #0 {
entry:
  %node.addr = alloca ptr, align 8
  store ptr %node, ptr %node.addr, align 8
  %0 = load ptr, ptr %node.addr, align 8
  %_argument = getelementptr inbounds %"class.hermes::ESTree::TypeofTypeAnnotationNode", ptr %0, i32 0, i32 1
  %1 = load ptr, ptr %_argument, align 8
  %call = call noundef ptr @_ZN12_GLOBAL__N_110ReturnTypeIPN6hermes6ESTree4NodeEE3getES4_(ptr noundef %1)
  ret ptr %call
}

; Function Attrs: mustprogress nounwind uwtable
define hidden ptr @hermes_get_KeyofTypeAnnotation_argument(ptr noundef %node) #0 {
entry:
  %node.addr = alloca ptr, align 8
  store ptr %node, ptr %node.addr, align 8
  %0 = load ptr, ptr %node.addr, align 8
  %_argument = getelementptr inbounds %"class.hermes::ESTree::KeyofTypeAnnotationNode", ptr %0, i32 0, i32 1
  %1 = load ptr, ptr %_argument, align 8
  %call = call noundef ptr @_ZN12_GLOBAL__N_110ReturnTypeIPN6hermes6ESTree4NodeEE3getES4_(ptr noundef %1)
  ret ptr %call
}

; Function Attrs: mustprogress nounwind uwtable
define hidden ptr @hermes_get_TypeOperator_operator(ptr noundef %node) #0 {
entry:
  %node.addr = alloca ptr, align 8
  store ptr %node, ptr %node.addr, align 8
  %0 = load ptr, ptr %node.addr, align 8
  %_operator = getelementptr inbounds %"class.hermes::ESTree::TypeOperatorNode", ptr %0, i32 0, i32 1
  %1 = load ptr, ptr %_operator, align 8
  %call = call noundef ptr @_ZN12_GLOBAL__N_110ReturnTypeIPN6hermes12UniqueStringEE3getES3_(ptr noundef %1)
  ret ptr %call
}

; Function Attrs: mustprogress nounwind uwtable
define hidden ptr @hermes_get_TypeOperator_typeAnnotation(ptr noundef %node) #0 {
entry:
  %node.addr = alloca ptr, align 8
  store ptr %node, ptr %node.addr, align 8
  %0 = load ptr, ptr %node.addr, align 8
  %_typeAnnotation = getelementptr inbounds %"class.hermes::ESTree::TypeOperatorNode", ptr %0, i32 0, i32 2
  %1 = load ptr, ptr %_typeAnnotation, align 8
  %call = call noundef ptr @_ZN12_GLOBAL__N_110ReturnTypeIPN6hermes6ESTree4NodeEE3getES4_(ptr noundef %1)
  ret ptr %call
}

; Function Attrs: mustprogress nounwind uwtable
define hidden ptr @hermes_get_QualifiedTypeofIdentifier_qualification(ptr noundef %node) #0 {
entry:
  %node.addr = alloca ptr, align 8
  store ptr %node, ptr %node.addr, align 8
  %0 = load ptr, ptr %node.addr, align 8
  %_qualification = getelementptr inbounds %"class.hermes::ESTree::QualifiedTypeofIdentifierNode", ptr %0, i32 0, i32 1
  %1 = load ptr, ptr %_qualification, align 8
  %call = call noundef ptr @_ZN12_GLOBAL__N_110ReturnTypeIPN6hermes6ESTree4NodeEE3getES4_(ptr noundef %1)
  ret ptr %call
}

; Function Attrs: mustprogress nounwind uwtable
define hidden ptr @hermes_get_QualifiedTypeofIdentifier_id(ptr noundef %node) #0 {
entry:
  %node.addr = alloca ptr, align 8
  store ptr %node, ptr %node.addr, align 8
  %0 = load ptr, ptr %node.addr, align 8
  %_id = getelementptr inbounds %"class.hermes::ESTree::QualifiedTypeofIdentifierNode", ptr %0, i32 0, i32 2
  %1 = load ptr, ptr %_id, align 8
  %call = call noundef ptr @_ZN12_GLOBAL__N_110ReturnTypeIPN6hermes6ESTree4NodeEE3getES4_(ptr noundef %1)
  ret ptr %call
}

; Function Attrs: mustprogress nounwind uwtable
define hidden ptr @hermes_get_TupleTypeAnnotation_types(ptr noundef %node) #0 {
entry:
  %node.addr = alloca ptr, align 8
  store ptr %node, ptr %node.addr, align 8
  %0 = load ptr, ptr %node.addr, align 8
  %_types = getelementptr inbounds %"class.hermes::ESTree::TupleTypeAnnotationNode", ptr %0, i32 0, i32 1
  %call = call noundef ptr @_ZN12_GLOBAL__N_110ReturnTypeIN4llvh12simple_ilistIN6hermes6ESTree4NodeEJEEEE3getERKS6_(ptr noundef nonnull align 8 dereferenceable(16) %_types)
  ret ptr %call
}

; Function Attrs: mustprogress nounwind uwtable
define hidden ptr @hermes_get_TupleTypeSpreadElement_label(ptr noundef %node) #0 {
entry:
  %node.addr = alloca ptr, align 8
  store ptr %node, ptr %node.addr, align 8
  %0 = load ptr, ptr %node.addr, align 8
  %_label = getelementptr inbounds %"class.hermes::ESTree::TupleTypeSpreadElementNode", ptr %0, i32 0, i32 1
  %1 = load ptr, ptr %_label, align 8
  %call = call noundef ptr @_ZN12_GLOBAL__N_110ReturnTypeIPN6hermes6ESTree4NodeEE3getES4_(ptr noundef %1)
  ret ptr %call
}

; Function Attrs: mustprogress nounwind uwtable
define hidden ptr @hermes_get_TupleTypeSpreadElement_typeAnnotation(ptr noundef %node) #0 {
entry:
  %node.addr = alloca ptr, align 8
  store ptr %node, ptr %node.addr, align 8
  %0 = load ptr, ptr %node.addr, align 8
  %_typeAnnotation = getelementptr inbounds %"class.hermes::ESTree::TupleTypeSpreadElementNode", ptr %0, i32 0, i32 2
  %1 = load ptr, ptr %_typeAnnotation, align 8
  %call = call noundef ptr @_ZN12_GLOBAL__N_110ReturnTypeIPN6hermes6ESTree4NodeEE3getES4_(ptr noundef %1)
  ret ptr %call
}

; Function Attrs: mustprogress nounwind uwtable
define hidden ptr @hermes_get_TupleTypeLabeledElement_label(ptr noundef %node) #0 {
entry:
  %node.addr = alloca ptr, align 8
  store ptr %node, ptr %node.addr, align 8
  %0 = load ptr, ptr %node.addr, align 8
  %_label = getelementptr inbounds %"class.hermes::ESTree::TupleTypeLabeledElementNode", ptr %0, i32 0, i32 1
  %1 = load ptr, ptr %_label, align 8
  %call = call noundef ptr @_ZN12_GLOBAL__N_110ReturnTypeIPN6hermes6ESTree4NodeEE3getES4_(ptr noundef %1)
  ret ptr %call
}

; Function Attrs: mustprogress nounwind uwtable
define hidden ptr @hermes_get_TupleTypeLabeledElement_elementType(ptr noundef %node) #0 {
entry:
  %node.addr = alloca ptr, align 8
  store ptr %node, ptr %node.addr, align 8
  %0 = load ptr, ptr %node.addr, align 8
  %_elementType = getelementptr inbounds %"class.hermes::ESTree::TupleTypeLabeledElementNode", ptr %0, i32 0, i32 2
  %1 = load ptr, ptr %_elementType, align 8
  %call = call noundef ptr @_ZN12_GLOBAL__N_110ReturnTypeIPN6hermes6ESTree4NodeEE3getES4_(ptr noundef %1)
  ret ptr %call
}

; Function Attrs: mustprogress nounwind uwtable
define hidden zeroext i1 @hermes_get_TupleTypeLabeledElement_optional(ptr noundef %node) #0 {
entry:
  %node.addr = alloca ptr, align 8
  store ptr %node, ptr %node.addr, align 8
  %0 = load ptr, ptr %node.addr, align 8
  %_optional = getelementptr inbounds %"class.hermes::ESTree::TupleTypeLabeledElementNode", ptr %0, i32 0, i32 3
  %1 = load i8, ptr %_optional, align 8
  %tobool = trunc i8 %1 to i1
  %call = call noundef zeroext i1 @_ZN12_GLOBAL__N_110ReturnTypeIbE3getEb(i1 noundef zeroext %tobool)
  ret i1 %call
}

; Function Attrs: mustprogress nounwind uwtable
define hidden ptr @hermes_get_TupleTypeLabeledElement_variance(ptr noundef %node) #0 {
entry:
  %node.addr = alloca ptr, align 8
  store ptr %node, ptr %node.addr, align 8
  %0 = load ptr, ptr %node.addr, align 8
  %_variance = getelementptr inbounds %"class.hermes::ESTree::TupleTypeLabeledElementNode", ptr %0, i32 0, i32 4
  %1 = load ptr, ptr %_variance, align 8
  %call = call noundef ptr @_ZN12_GLOBAL__N_110ReturnTypeIPN6hermes6ESTree4NodeEE3getES4_(ptr noundef %1)
  ret ptr %call
}

; Function Attrs: mustprogress nounwind uwtable
define hidden ptr @hermes_get_ArrayTypeAnnotation_elementType(ptr noundef %node) #0 {
entry:
  %node.addr = alloca ptr, align 8
  store ptr %node, ptr %node.addr, align 8
  %0 = load ptr, ptr %node.addr, align 8
  %_elementType = getelementptr inbounds %"class.hermes::ESTree::ArrayTypeAnnotationNode", ptr %0, i32 0, i32 1
  %1 = load ptr, ptr %_elementType, align 8
  %call = call noundef ptr @_ZN12_GLOBAL__N_110ReturnTypeIPN6hermes6ESTree4NodeEE3getES4_(ptr noundef %1)
  ret ptr %call
}

; Function Attrs: mustprogress nounwind uwtable
define hidden ptr @hermes_get_InferTypeAnnotation_typeParameter(ptr noundef %node) #0 {
entry:
  %node.addr = alloca ptr, align 8
  store ptr %node, ptr %node.addr, align 8
  %0 = load ptr, ptr %node.addr, align 8
  %_typeParameter = getelementptr inbounds %"class.hermes::ESTree::InferTypeAnnotationNode", ptr %0, i32 0, i32 1
  %1 = load ptr, ptr %_typeParameter, align 8
  %call = call noundef ptr @_ZN12_GLOBAL__N_110ReturnTypeIPN6hermes6ESTree4NodeEE3getES4_(ptr noundef %1)
  ret ptr %call
}

; Function Attrs: mustprogress nounwind uwtable
define hidden ptr @hermes_get_UnionTypeAnnotation_types(ptr noundef %node) #0 {
entry:
  %node.addr = alloca ptr, align 8
  store ptr %node, ptr %node.addr, align 8
  %0 = load ptr, ptr %node.addr, align 8
  %_types = getelementptr inbounds %"class.hermes::ESTree::UnionTypeAnnotationNode", ptr %0, i32 0, i32 1
  %call = call noundef ptr @_ZN12_GLOBAL__N_110ReturnTypeIN4llvh12simple_ilistIN6hermes6ESTree4NodeEJEEEE3getERKS6_(ptr noundef nonnull align 8 dereferenceable(16) %_types)
  ret ptr %call
}

; Function Attrs: mustprogress nounwind uwtable
define hidden ptr @hermes_get_IntersectionTypeAnnotation_types(ptr noundef %node) #0 {
entry:
  %node.addr = alloca ptr, align 8
  store ptr %node, ptr %node.addr, align 8
  %0 = load ptr, ptr %node.addr, align 8
  %_types = getelementptr inbounds %"class.hermes::ESTree::IntersectionTypeAnnotationNode", ptr %0, i32 0, i32 1
  %call = call noundef ptr @_ZN12_GLOBAL__N_110ReturnTypeIN4llvh12simple_ilistIN6hermes6ESTree4NodeEJEEEE3getERKS6_(ptr noundef nonnull align 8 dereferenceable(16) %_types)
  ret ptr %call
}

; Function Attrs: mustprogress nounwind uwtable
define hidden ptr @hermes_get_GenericTypeAnnotation_id(ptr noundef %node) #0 {
entry:
  %node.addr = alloca ptr, align 8
  store ptr %node, ptr %node.addr, align 8
  %0 = load ptr, ptr %node.addr, align 8
  %_id = getelementptr inbounds %"class.hermes::ESTree::GenericTypeAnnotationNode", ptr %0, i32 0, i32 1
  %1 = load ptr, ptr %_id, align 8
  %call = call noundef ptr @_ZN12_GLOBAL__N_110ReturnTypeIPN6hermes6ESTree4NodeEE3getES4_(ptr noundef %1)
  ret ptr %call
}

; Function Attrs: mustprogress nounwind uwtable
define hidden ptr @hermes_get_GenericTypeAnnotation_typeParameters(ptr noundef %node) #0 {
entry:
  %node.addr = alloca ptr, align 8
  store ptr %node, ptr %node.addr, align 8
  %0 = load ptr, ptr %node.addr, align 8
  %_typeParameters = getelementptr inbounds %"class.hermes::ESTree::GenericTypeAnnotationNode", ptr %0, i32 0, i32 2
  %1 = load ptr, ptr %_typeParameters, align 8
  %call = call noundef ptr @_ZN12_GLOBAL__N_110ReturnTypeIPN6hermes6ESTree4NodeEE3getES4_(ptr noundef %1)
  ret ptr %call
}

; Function Attrs: mustprogress nounwind uwtable
define hidden ptr @hermes_get_IndexedAccessType_objectType(ptr noundef %node) #0 {
entry:
  %node.addr = alloca ptr, align 8
  store ptr %node, ptr %node.addr, align 8
  %0 = load ptr, ptr %node.addr, align 8
  %_objectType = getelementptr inbounds %"class.hermes::ESTree::IndexedAccessTypeNode", ptr %0, i32 0, i32 1
  %1 = load ptr, ptr %_objectType, align 8
  %call = call noundef ptr @_ZN12_GLOBAL__N_110ReturnTypeIPN6hermes6ESTree4NodeEE3getES4_(ptr noundef %1)
  ret ptr %call
}

; Function Attrs: mustprogress nounwind uwtable
define hidden ptr @hermes_get_IndexedAccessType_indexType(ptr noundef %node) #0 {
entry:
  %node.addr = alloca ptr, align 8
  store ptr %node, ptr %node.addr, align 8
  %0 = load ptr, ptr %node.addr, align 8
  %_indexType = getelementptr inbounds %"class.hermes::ESTree::IndexedAccessTypeNode", ptr %0, i32 0, i32 2
  %1 = load ptr, ptr %_indexType, align 8
  %call = call noundef ptr @_ZN12_GLOBAL__N_110ReturnTypeIPN6hermes6ESTree4NodeEE3getES4_(ptr noundef %1)
  ret ptr %call
}

; Function Attrs: mustprogress nounwind uwtable
define hidden ptr @hermes_get_OptionalIndexedAccessType_objectType(ptr noundef %node) #0 {
entry:
  %node.addr = alloca ptr, align 8
  store ptr %node, ptr %node.addr, align 8
  %0 = load ptr, ptr %node.addr, align 8
  %_objectType = getelementptr inbounds %"class.hermes::ESTree::OptionalIndexedAccessTypeNode", ptr %0, i32 0, i32 1
  %1 = load ptr, ptr %_objectType, align 8
  %call = call noundef ptr @_ZN12_GLOBAL__N_110ReturnTypeIPN6hermes6ESTree4NodeEE3getES4_(ptr noundef %1)
  ret ptr %call
}

; Function Attrs: mustprogress nounwind uwtable
define hidden ptr @hermes_get_OptionalIndexedAccessType_indexType(ptr noundef %node) #0 {
entry:
  %node.addr = alloca ptr, align 8
  store ptr %node, ptr %node.addr, align 8
  %0 = load ptr, ptr %node.addr, align 8
  %_indexType = getelementptr inbounds %"class.hermes::ESTree::OptionalIndexedAccessTypeNode", ptr %0, i32 0, i32 2
  %1 = load ptr, ptr %_indexType, align 8
  %call = call noundef ptr @_ZN12_GLOBAL__N_110ReturnTypeIPN6hermes6ESTree4NodeEE3getES4_(ptr noundef %1)
  ret ptr %call
}

; Function Attrs: mustprogress nounwind uwtable
define hidden zeroext i1 @hermes_get_OptionalIndexedAccessType_optional(ptr noundef %node) #0 {
entry:
  %node.addr = alloca ptr, align 8
  store ptr %node, ptr %node.addr, align 8
  %0 = load ptr, ptr %node.addr, align 8
  %_optional = getelementptr inbounds %"class.hermes::ESTree::OptionalIndexedAccessTypeNode", ptr %0, i32 0, i32 3
  %1 = load i8, ptr %_optional, align 8
  %tobool = trunc i8 %1 to i1
  %call = call noundef zeroext i1 @_ZN12_GLOBAL__N_110ReturnTypeIbE3getEb(i1 noundef zeroext %tobool)
  ret i1 %call
}

; Function Attrs: mustprogress nounwind uwtable
define hidden ptr @hermes_get_ConditionalTypeAnnotation_checkType(ptr noundef %node) #0 {
entry:
  %node.addr = alloca ptr, align 8
  store ptr %node, ptr %node.addr, align 8
  %0 = load ptr, ptr %node.addr, align 8
  %_checkType = getelementptr inbounds %"class.hermes::ESTree::ConditionalTypeAnnotationNode", ptr %0, i32 0, i32 1
  %1 = load ptr, ptr %_checkType, align 8
  %call = call noundef ptr @_ZN12_GLOBAL__N_110ReturnTypeIPN6hermes6ESTree4NodeEE3getES4_(ptr noundef %1)
  ret ptr %call
}

; Function Attrs: mustprogress nounwind uwtable
define hidden ptr @hermes_get_ConditionalTypeAnnotation_extendsType(ptr noundef %node) #0 {
entry:
  %node.addr = alloca ptr, align 8
  store ptr %node, ptr %node.addr, align 8
  %0 = load ptr, ptr %node.addr, align 8
  %_extendsType = getelementptr inbounds %"class.hermes::ESTree::ConditionalTypeAnnotationNode", ptr %0, i32 0, i32 2
  %1 = load ptr, ptr %_extendsType, align 8
  %call = call noundef ptr @_ZN12_GLOBAL__N_110ReturnTypeIPN6hermes6ESTree4NodeEE3getES4_(ptr noundef %1)
  ret ptr %call
}

; Function Attrs: mustprogress nounwind uwtable
define hidden ptr @hermes_get_ConditionalTypeAnnotation_trueType(ptr noundef %node) #0 {
entry:
  %node.addr = alloca ptr, align 8
  store ptr %node, ptr %node.addr, align 8
  %0 = load ptr, ptr %node.addr, align 8
  %_trueType = getelementptr inbounds %"class.hermes::ESTree::ConditionalTypeAnnotationNode", ptr %0, i32 0, i32 3
  %1 = load ptr, ptr %_trueType, align 8
  %call = call noundef ptr @_ZN12_GLOBAL__N_110ReturnTypeIPN6hermes6ESTree4NodeEE3getES4_(ptr noundef %1)
  ret ptr %call
}

; Function Attrs: mustprogress nounwind uwtable
define hidden ptr @hermes_get_ConditionalTypeAnnotation_falseType(ptr noundef %node) #0 {
entry:
  %node.addr = alloca ptr, align 8
  store ptr %node, ptr %node.addr, align 8
  %0 = load ptr, ptr %node.addr, align 8
  %_falseType = getelementptr inbounds %"class.hermes::ESTree::ConditionalTypeAnnotationNode", ptr %0, i32 0, i32 4
  %1 = load ptr, ptr %_falseType, align 8
  %call = call noundef ptr @_ZN12_GLOBAL__N_110ReturnTypeIPN6hermes6ESTree4NodeEE3getES4_(ptr noundef %1)
  ret ptr %call
}

; Function Attrs: mustprogress nounwind uwtable
define hidden ptr @hermes_get_TypePredicate_parameterName(ptr noundef %node) #0 {
entry:
  %node.addr = alloca ptr, align 8
  store ptr %node, ptr %node.addr, align 8
  %0 = load ptr, ptr %node.addr, align 8
  %_parameterName = getelementptr inbounds %"class.hermes::ESTree::TypePredicateNode", ptr %0, i32 0, i32 1
  %1 = load ptr, ptr %_parameterName, align 8
  %call = call noundef ptr @_ZN12_GLOBAL__N_110ReturnTypeIPN6hermes6ESTree4NodeEE3getES4_(ptr noundef %1)
  ret ptr %call
}

; Function Attrs: mustprogress nounwind uwtable
define hidden ptr @hermes_get_TypePredicate_typeAnnotation(ptr noundef %node) #0 {
entry:
  %node.addr = alloca ptr, align 8
  store ptr %node, ptr %node.addr, align 8
  %0 = load ptr, ptr %node.addr, align 8
  %_typeAnnotation = getelementptr inbounds %"class.hermes::ESTree::TypePredicateNode", ptr %0, i32 0, i32 2
  %1 = load ptr, ptr %_typeAnnotation, align 8
  %call = call noundef ptr @_ZN12_GLOBAL__N_110ReturnTypeIPN6hermes6ESTree4NodeEE3getES4_(ptr noundef %1)
  ret ptr %call
}

; Function Attrs: mustprogress nounwind uwtable
define hidden zeroext i1 @hermes_get_TypePredicate_asserts(ptr noundef %node) #0 {
entry:
  %node.addr = alloca ptr, align 8
  store ptr %node, ptr %node.addr, align 8
  %0 = load ptr, ptr %node.addr, align 8
  %_asserts = getelementptr inbounds %"class.hermes::ESTree::TypePredicateNode", ptr %0, i32 0, i32 3
  %1 = load i8, ptr %_asserts, align 8
  %tobool = trunc i8 %1 to i1
  %call = call noundef zeroext i1 @_ZN12_GLOBAL__N_110ReturnTypeIbE3getEb(i1 noundef zeroext %tobool)
  ret i1 %call
}

; Function Attrs: mustprogress nounwind uwtable
define hidden ptr @hermes_get_InterfaceTypeAnnotation_extends(ptr noundef %node) #0 {
entry:
  %node.addr = alloca ptr, align 8
  store ptr %node, ptr %node.addr, align 8
  %0 = load ptr, ptr %node.addr, align 8
  %_extends = getelementptr inbounds %"class.hermes::ESTree::InterfaceTypeAnnotationNode", ptr %0, i32 0, i32 1
  %call = call noundef ptr @_ZN12_GLOBAL__N_110ReturnTypeIN4llvh12simple_ilistIN6hermes6ESTree4NodeEJEEEE3getERKS6_(ptr noundef nonnull align 8 dereferenceable(16) %_extends)
  ret ptr %call
}

; Function Attrs: mustprogress nounwind uwtable
define hidden ptr @hermes_get_InterfaceTypeAnnotation_body(ptr noundef %node) #0 {
entry:
  %node.addr = alloca ptr, align 8
  store ptr %node, ptr %node.addr, align 8
  %0 = load ptr, ptr %node.addr, align 8
  %_body = getelementptr inbounds %"class.hermes::ESTree::InterfaceTypeAnnotationNode", ptr %0, i32 0, i32 2
  %1 = load ptr, ptr %_body, align 8
  %call = call noundef ptr @_ZN12_GLOBAL__N_110ReturnTypeIPN6hermes6ESTree4NodeEE3getES4_(ptr noundef %1)
  ret ptr %call
}

; Function Attrs: mustprogress nounwind uwtable
define hidden ptr @hermes_get_TypeAlias_id(ptr noundef %node) #0 {
entry:
  %node.addr = alloca ptr, align 8
  store ptr %node, ptr %node.addr, align 8
  %0 = load ptr, ptr %node.addr, align 8
  %_id = getelementptr inbounds %"class.hermes::ESTree::TypeAliasNode", ptr %0, i32 0, i32 1
  %1 = load ptr, ptr %_id, align 8
  %call = call noundef ptr @_ZN12_GLOBAL__N_110ReturnTypeIPN6hermes6ESTree4NodeEE3getES4_(ptr noundef %1)
  ret ptr %call
}

; Function Attrs: mustprogress nounwind uwtable
define hidden ptr @hermes_get_TypeAlias_typeParameters(ptr noundef %node) #0 {
entry:
  %node.addr = alloca ptr, align 8
  store ptr %node, ptr %node.addr, align 8
  %0 = load ptr, ptr %node.addr, align 8
  %_typeParameters = getelementptr inbounds %"class.hermes::ESTree::TypeAliasNode", ptr %0, i32 0, i32 2
  %1 = load ptr, ptr %_typeParameters, align 8
  %call = call noundef ptr @_ZN12_GLOBAL__N_110ReturnTypeIPN6hermes6ESTree4NodeEE3getES4_(ptr noundef %1)
  ret ptr %call
}

; Function Attrs: mustprogress nounwind uwtable
define hidden ptr @hermes_get_TypeAlias_right(ptr noundef %node) #0 {
entry:
  %node.addr = alloca ptr, align 8
  store ptr %node, ptr %node.addr, align 8
  %0 = load ptr, ptr %node.addr, align 8
  %_right = getelementptr inbounds %"class.hermes::ESTree::TypeAliasNode", ptr %0, i32 0, i32 3
  %1 = load ptr, ptr %_right, align 8
  %call = call noundef ptr @_ZN12_GLOBAL__N_110ReturnTypeIPN6hermes6ESTree4NodeEE3getES4_(ptr noundef %1)
  ret ptr %call
}

; Function Attrs: mustprogress nounwind uwtable
define hidden ptr @hermes_get_OpaqueType_id(ptr noundef %node) #0 {
entry:
  %node.addr = alloca ptr, align 8
  store ptr %node, ptr %node.addr, align 8
  %0 = load ptr, ptr %node.addr, align 8
  %_id = getelementptr inbounds %"class.hermes::ESTree::OpaqueTypeNode", ptr %0, i32 0, i32 1
  %1 = load ptr, ptr %_id, align 8
  %call = call noundef ptr @_ZN12_GLOBAL__N_110ReturnTypeIPN6hermes6ESTree4NodeEE3getES4_(ptr noundef %1)
  ret ptr %call
}

; Function Attrs: mustprogress nounwind uwtable
define hidden ptr @hermes_get_OpaqueType_typeParameters(ptr noundef %node) #0 {
entry:
  %node.addr = alloca ptr, align 8
  store ptr %node, ptr %node.addr, align 8
  %0 = load ptr, ptr %node.addr, align 8
  %_typeParameters = getelementptr inbounds %"class.hermes::ESTree::OpaqueTypeNode", ptr %0, i32 0, i32 2
  %1 = load ptr, ptr %_typeParameters, align 8
  %call = call noundef ptr @_ZN12_GLOBAL__N_110ReturnTypeIPN6hermes6ESTree4NodeEE3getES4_(ptr noundef %1)
  ret ptr %call
}

; Function Attrs: mustprogress nounwind uwtable
define hidden ptr @hermes_get_OpaqueType_impltype(ptr noundef %node) #0 {
entry:
  %node.addr = alloca ptr, align 8
  store ptr %node, ptr %node.addr, align 8
  %0 = load ptr, ptr %node.addr, align 8
  %_impltype = getelementptr inbounds %"class.hermes::ESTree::OpaqueTypeNode", ptr %0, i32 0, i32 3
  %1 = load ptr, ptr %_impltype, align 8
  %call = call noundef ptr @_ZN12_GLOBAL__N_110ReturnTypeIPN6hermes6ESTree4NodeEE3getES4_(ptr noundef %1)
  ret ptr %call
}

; Function Attrs: mustprogress nounwind uwtable
define hidden ptr @hermes_get_OpaqueType_supertype(ptr noundef %node) #0 {
entry:
  %node.addr = alloca ptr, align 8
  store ptr %node, ptr %node.addr, align 8
  %0 = load ptr, ptr %node.addr, align 8
  %_supertype = getelementptr inbounds %"class.hermes::ESTree::OpaqueTypeNode", ptr %0, i32 0, i32 4
  %1 = load ptr, ptr %_supertype, align 8
  %call = call noundef ptr @_ZN12_GLOBAL__N_110ReturnTypeIPN6hermes6ESTree4NodeEE3getES4_(ptr noundef %1)
  ret ptr %call
}

; Function Attrs: mustprogress nounwind uwtable
define hidden ptr @hermes_get_InterfaceDeclaration_id(ptr noundef %node) #0 {
entry:
  %node.addr = alloca ptr, align 8
  store ptr %node, ptr %node.addr, align 8
  %0 = load ptr, ptr %node.addr, align 8
  %_id = getelementptr inbounds %"class.hermes::ESTree::InterfaceDeclarationNode", ptr %0, i32 0, i32 1
  %1 = load ptr, ptr %_id, align 8
  %call = call noundef ptr @_ZN12_GLOBAL__N_110ReturnTypeIPN6hermes6ESTree4NodeEE3getES4_(ptr noundef %1)
  ret ptr %call
}

; Function Attrs: mustprogress nounwind uwtable
define hidden ptr @hermes_get_InterfaceDeclaration_typeParameters(ptr noundef %node) #0 {
entry:
  %node.addr = alloca ptr, align 8
  store ptr %node, ptr %node.addr, align 8
  %0 = load ptr, ptr %node.addr, align 8
  %_typeParameters = getelementptr inbounds %"class.hermes::ESTree::InterfaceDeclarationNode", ptr %0, i32 0, i32 2
  %1 = load ptr, ptr %_typeParameters, align 8
  %call = call noundef ptr @_ZN12_GLOBAL__N_110ReturnTypeIPN6hermes6ESTree4NodeEE3getES4_(ptr noundef %1)
  ret ptr %call
}

; Function Attrs: mustprogress nounwind uwtable
define hidden ptr @hermes_get_InterfaceDeclaration_extends(ptr noundef %node) #0 {
entry:
  %node.addr = alloca ptr, align 8
  store ptr %node, ptr %node.addr, align 8
  %0 = load ptr, ptr %node.addr, align 8
  %_extends = getelementptr inbounds %"class.hermes::ESTree::InterfaceDeclarationNode", ptr %0, i32 0, i32 3
  %call = call noundef ptr @_ZN12_GLOBAL__N_110ReturnTypeIN4llvh12simple_ilistIN6hermes6ESTree4NodeEJEEEE3getERKS6_(ptr noundef nonnull align 8 dereferenceable(16) %_extends)
  ret ptr %call
}

; Function Attrs: mustprogress nounwind uwtable
define hidden ptr @hermes_get_InterfaceDeclaration_body(ptr noundef %node) #0 {
entry:
  %node.addr = alloca ptr, align 8
  store ptr %node, ptr %node.addr, align 8
  %0 = load ptr, ptr %node.addr, align 8
  %_body = getelementptr inbounds %"class.hermes::ESTree::InterfaceDeclarationNode", ptr %0, i32 0, i32 4
  %1 = load ptr, ptr %_body, align 8
  %call = call noundef ptr @_ZN12_GLOBAL__N_110ReturnTypeIPN6hermes6ESTree4NodeEE3getES4_(ptr noundef %1)
  ret ptr %call
}

; Function Attrs: mustprogress nounwind uwtable
define hidden ptr @hermes_get_DeclareTypeAlias_id(ptr noundef %node) #0 {
entry:
  %node.addr = alloca ptr, align 8
  store ptr %node, ptr %node.addr, align 8
  %0 = load ptr, ptr %node.addr, align 8
  %_id = getelementptr inbounds %"class.hermes::ESTree::DeclareTypeAliasNode", ptr %0, i32 0, i32 1
  %1 = load ptr, ptr %_id, align 8
  %call = call noundef ptr @_ZN12_GLOBAL__N_110ReturnTypeIPN6hermes6ESTree4NodeEE3getES4_(ptr noundef %1)
  ret ptr %call
}

; Function Attrs: mustprogress nounwind uwtable
define hidden ptr @hermes_get_DeclareTypeAlias_typeParameters(ptr noundef %node) #0 {
entry:
  %node.addr = alloca ptr, align 8
  store ptr %node, ptr %node.addr, align 8
  %0 = load ptr, ptr %node.addr, align 8
  %_typeParameters = getelementptr inbounds %"class.hermes::ESTree::DeclareTypeAliasNode", ptr %0, i32 0, i32 2
  %1 = load ptr, ptr %_typeParameters, align 8
  %call = call noundef ptr @_ZN12_GLOBAL__N_110ReturnTypeIPN6hermes6ESTree4NodeEE3getES4_(ptr noundef %1)
  ret ptr %call
}

; Function Attrs: mustprogress nounwind uwtable
define hidden ptr @hermes_get_DeclareTypeAlias_right(ptr noundef %node) #0 {
entry:
  %node.addr = alloca ptr, align 8
  store ptr %node, ptr %node.addr, align 8
  %0 = load ptr, ptr %node.addr, align 8
  %_right = getelementptr inbounds %"class.hermes::ESTree::DeclareTypeAliasNode", ptr %0, i32 0, i32 3
  %1 = load ptr, ptr %_right, align 8
  %call = call noundef ptr @_ZN12_GLOBAL__N_110ReturnTypeIPN6hermes6ESTree4NodeEE3getES4_(ptr noundef %1)
  ret ptr %call
}

; Function Attrs: mustprogress nounwind uwtable
define hidden ptr @hermes_get_DeclareOpaqueType_id(ptr noundef %node) #0 {
entry:
  %node.addr = alloca ptr, align 8
  store ptr %node, ptr %node.addr, align 8
  %0 = load ptr, ptr %node.addr, align 8
  %_id = getelementptr inbounds %"class.hermes::ESTree::DeclareOpaqueTypeNode", ptr %0, i32 0, i32 1
  %1 = load ptr, ptr %_id, align 8
  %call = call noundef ptr @_ZN12_GLOBAL__N_110ReturnTypeIPN6hermes6ESTree4NodeEE3getES4_(ptr noundef %1)
  ret ptr %call
}

; Function Attrs: mustprogress nounwind uwtable
define hidden ptr @hermes_get_DeclareOpaqueType_typeParameters(ptr noundef %node) #0 {
entry:
  %node.addr = alloca ptr, align 8
  store ptr %node, ptr %node.addr, align 8
  %0 = load ptr, ptr %node.addr, align 8
  %_typeParameters = getelementptr inbounds %"class.hermes::ESTree::DeclareOpaqueTypeNode", ptr %0, i32 0, i32 2
  %1 = load ptr, ptr %_typeParameters, align 8
  %call = call noundef ptr @_ZN12_GLOBAL__N_110ReturnTypeIPN6hermes6ESTree4NodeEE3getES4_(ptr noundef %1)
  ret ptr %call
}

; Function Attrs: mustprogress nounwind uwtable
define hidden ptr @hermes_get_DeclareOpaqueType_impltype(ptr noundef %node) #0 {
entry:
  %node.addr = alloca ptr, align 8
  store ptr %node, ptr %node.addr, align 8
  %0 = load ptr, ptr %node.addr, align 8
  %_impltype = getelementptr inbounds %"class.hermes::ESTree::DeclareOpaqueTypeNode", ptr %0, i32 0, i32 3
  %1 = load ptr, ptr %_impltype, align 8
  %call = call noundef ptr @_ZN12_GLOBAL__N_110ReturnTypeIPN6hermes6ESTree4NodeEE3getES4_(ptr noundef %1)
  ret ptr %call
}

; Function Attrs: mustprogress nounwind uwtable
define hidden ptr @hermes_get_DeclareOpaqueType_supertype(ptr noundef %node) #0 {
entry:
  %node.addr = alloca ptr, align 8
  store ptr %node, ptr %node.addr, align 8
  %0 = load ptr, ptr %node.addr, align 8
  %_supertype = getelementptr inbounds %"class.hermes::ESTree::DeclareOpaqueTypeNode", ptr %0, i32 0, i32 4
  %1 = load ptr, ptr %_supertype, align 8
  %call = call noundef ptr @_ZN12_GLOBAL__N_110ReturnTypeIPN6hermes6ESTree4NodeEE3getES4_(ptr noundef %1)
  ret ptr %call
}

; Function Attrs: mustprogress nounwind uwtable
define hidden ptr @hermes_get_DeclareInterface_id(ptr noundef %node) #0 {
entry:
  %node.addr = alloca ptr, align 8
  store ptr %node, ptr %node.addr, align 8
  %0 = load ptr, ptr %node.addr, align 8
  %_id = getelementptr inbounds %"class.hermes::ESTree::DeclareInterfaceNode", ptr %0, i32 0, i32 1
  %1 = load ptr, ptr %_id, align 8
  %call = call noundef ptr @_ZN12_GLOBAL__N_110ReturnTypeIPN6hermes6ESTree4NodeEE3getES4_(ptr noundef %1)
  ret ptr %call
}

; Function Attrs: mustprogress nounwind uwtable
define hidden ptr @hermes_get_DeclareInterface_typeParameters(ptr noundef %node) #0 {
entry:
  %node.addr = alloca ptr, align 8
  store ptr %node, ptr %node.addr, align 8
  %0 = load ptr, ptr %node.addr, align 8
  %_typeParameters = getelementptr inbounds %"class.hermes::ESTree::DeclareInterfaceNode", ptr %0, i32 0, i32 2
  %1 = load ptr, ptr %_typeParameters, align 8
  %call = call noundef ptr @_ZN12_GLOBAL__N_110ReturnTypeIPN6hermes6ESTree4NodeEE3getES4_(ptr noundef %1)
  ret ptr %call
}

; Function Attrs: mustprogress nounwind uwtable
define hidden ptr @hermes_get_DeclareInterface_extends(ptr noundef %node) #0 {
entry:
  %node.addr = alloca ptr, align 8
  store ptr %node, ptr %node.addr, align 8
  %0 = load ptr, ptr %node.addr, align 8
  %_extends = getelementptr inbounds %"class.hermes::ESTree::DeclareInterfaceNode", ptr %0, i32 0, i32 3
  %call = call noundef ptr @_ZN12_GLOBAL__N_110ReturnTypeIN4llvh12simple_ilistIN6hermes6ESTree4NodeEJEEEE3getERKS6_(ptr noundef nonnull align 8 dereferenceable(16) %_extends)
  ret ptr %call
}

; Function Attrs: mustprogress nounwind uwtable
define hidden ptr @hermes_get_DeclareInterface_body(ptr noundef %node) #0 {
entry:
  %node.addr = alloca ptr, align 8
  store ptr %node, ptr %node.addr, align 8
  %0 = load ptr, ptr %node.addr, align 8
  %_body = getelementptr inbounds %"class.hermes::ESTree::DeclareInterfaceNode", ptr %0, i32 0, i32 4
  %1 = load ptr, ptr %_body, align 8
  %call = call noundef ptr @_ZN12_GLOBAL__N_110ReturnTypeIPN6hermes6ESTree4NodeEE3getES4_(ptr noundef %1)
  ret ptr %call
}

; Function Attrs: mustprogress nounwind uwtable
define hidden ptr @hermes_get_DeclareClass_id(ptr noundef %node) #0 {
entry:
  %node.addr = alloca ptr, align 8
  store ptr %node, ptr %node.addr, align 8
  %0 = load ptr, ptr %node.addr, align 8
  %_id = getelementptr inbounds %"class.hermes::ESTree::DeclareClassNode", ptr %0, i32 0, i32 1
  %1 = load ptr, ptr %_id, align 8
  %call = call noundef ptr @_ZN12_GLOBAL__N_110ReturnTypeIPN6hermes6ESTree4NodeEE3getES4_(ptr noundef %1)
  ret ptr %call
}

; Function Attrs: mustprogress nounwind uwtable
define hidden ptr @hermes_get_DeclareClass_typeParameters(ptr noundef %node) #0 {
entry:
  %node.addr = alloca ptr, align 8
  store ptr %node, ptr %node.addr, align 8
  %0 = load ptr, ptr %node.addr, align 8
  %_typeParameters = getelementptr inbounds %"class.hermes::ESTree::DeclareClassNode", ptr %0, i32 0, i32 2
  %1 = load ptr, ptr %_typeParameters, align 8
  %call = call noundef ptr @_ZN12_GLOBAL__N_110ReturnTypeIPN6hermes6ESTree4NodeEE3getES4_(ptr noundef %1)
  ret ptr %call
}

; Function Attrs: mustprogress nounwind uwtable
define hidden ptr @hermes_get_DeclareClass_extends(ptr noundef %node) #0 {
entry:
  %node.addr = alloca ptr, align 8
  store ptr %node, ptr %node.addr, align 8
  %0 = load ptr, ptr %node.addr, align 8
  %_extends = getelementptr inbounds %"class.hermes::ESTree::DeclareClassNode", ptr %0, i32 0, i32 3
  %call = call noundef ptr @_ZN12_GLOBAL__N_110ReturnTypeIN4llvh12simple_ilistIN6hermes6ESTree4NodeEJEEEE3getERKS6_(ptr noundef nonnull align 8 dereferenceable(16) %_extends)
  ret ptr %call
}

; Function Attrs: mustprogress nounwind uwtable
define hidden ptr @hermes_get_DeclareClass_implements(ptr noundef %node) #0 {
entry:
  %node.addr = alloca ptr, align 8
  store ptr %node, ptr %node.addr, align 8
  %0 = load ptr, ptr %node.addr, align 8
  %_implements = getelementptr inbounds %"class.hermes::ESTree::DeclareClassNode", ptr %0, i32 0, i32 4
  %call = call noundef ptr @_ZN12_GLOBAL__N_110ReturnTypeIN4llvh12simple_ilistIN6hermes6ESTree4NodeEJEEEE3getERKS6_(ptr noundef nonnull align 8 dereferenceable(16) %_implements)
  ret ptr %call
}

; Function Attrs: mustprogress nounwind uwtable
define hidden ptr @hermes_get_DeclareClass_mixins(ptr noundef %node) #0 {
entry:
  %node.addr = alloca ptr, align 8
  store ptr %node, ptr %node.addr, align 8
  %0 = load ptr, ptr %node.addr, align 8
  %_mixins = getelementptr inbounds %"class.hermes::ESTree::DeclareClassNode", ptr %0, i32 0, i32 5
  %call = call noundef ptr @_ZN12_GLOBAL__N_110ReturnTypeIN4llvh12simple_ilistIN6hermes6ESTree4NodeEJEEEE3getERKS6_(ptr noundef nonnull align 8 dereferenceable(16) %_mixins)
  ret ptr %call
}

; Function Attrs: mustprogress nounwind uwtable
define hidden ptr @hermes_get_DeclareClass_body(ptr noundef %node) #0 {
entry:
  %node.addr = alloca ptr, align 8
  store ptr %node, ptr %node.addr, align 8
  %0 = load ptr, ptr %node.addr, align 8
  %_body = getelementptr inbounds %"class.hermes::ESTree::DeclareClassNode", ptr %0, i32 0, i32 6
  %1 = load ptr, ptr %_body, align 8
  %call = call noundef ptr @_ZN12_GLOBAL__N_110ReturnTypeIPN6hermes6ESTree4NodeEE3getES4_(ptr noundef %1)
  ret ptr %call
}

; Function Attrs: mustprogress nounwind uwtable
define hidden ptr @hermes_get_DeclareFunction_id(ptr noundef %node) #0 {
entry:
  %node.addr = alloca ptr, align 8
  store ptr %node, ptr %node.addr, align 8
  %0 = load ptr, ptr %node.addr, align 8
  %_id = getelementptr inbounds %"class.hermes::ESTree::DeclareFunctionNode", ptr %0, i32 0, i32 1
  %1 = load ptr, ptr %_id, align 8
  %call = call noundef ptr @_ZN12_GLOBAL__N_110ReturnTypeIPN6hermes6ESTree4NodeEE3getES4_(ptr noundef %1)
  ret ptr %call
}

; Function Attrs: mustprogress nounwind uwtable
define hidden ptr @hermes_get_DeclareFunction_predicate(ptr noundef %node) #0 {
entry:
  %node.addr = alloca ptr, align 8
  store ptr %node, ptr %node.addr, align 8
  %0 = load ptr, ptr %node.addr, align 8
  %_predicate = getelementptr inbounds %"class.hermes::ESTree::DeclareFunctionNode", ptr %0, i32 0, i32 2
  %1 = load ptr, ptr %_predicate, align 8
  %call = call noundef ptr @_ZN12_GLOBAL__N_110ReturnTypeIPN6hermes6ESTree4NodeEE3getES4_(ptr noundef %1)
  ret ptr %call
}

; Function Attrs: mustprogress nounwind uwtable
define hidden ptr @hermes_get_DeclareComponent_id(ptr noundef %node) #0 {
entry:
  %node.addr = alloca ptr, align 8
  store ptr %node, ptr %node.addr, align 8
  %0 = load ptr, ptr %node.addr, align 8
  %_id = getelementptr inbounds %"class.hermes::ESTree::DeclareComponentNode", ptr %0, i32 0, i32 1
  %1 = load ptr, ptr %_id, align 8
  %call = call noundef ptr @_ZN12_GLOBAL__N_110ReturnTypeIPN6hermes6ESTree4NodeEE3getES4_(ptr noundef %1)
  ret ptr %call
}

; Function Attrs: mustprogress nounwind uwtable
define hidden ptr @hermes_get_DeclareComponent_params(ptr noundef %node) #0 {
entry:
  %node.addr = alloca ptr, align 8
  store ptr %node, ptr %node.addr, align 8
  %0 = load ptr, ptr %node.addr, align 8
  %_params = getelementptr inbounds %"class.hermes::ESTree::DeclareComponentNode", ptr %0, i32 0, i32 2
  %call = call noundef ptr @_ZN12_GLOBAL__N_110ReturnTypeIN4llvh12simple_ilistIN6hermes6ESTree4NodeEJEEEE3getERKS6_(ptr noundef nonnull align 8 dereferenceable(16) %_params)
  ret ptr %call
}

; Function Attrs: mustprogress nounwind uwtable
define hidden ptr @hermes_get_DeclareComponent_rest(ptr noundef %node) #0 {
entry:
  %node.addr = alloca ptr, align 8
  store ptr %node, ptr %node.addr, align 8
  %0 = load ptr, ptr %node.addr, align 8
  %_rest = getelementptr inbounds %"class.hermes::ESTree::DeclareComponentNode", ptr %0, i32 0, i32 3
  %1 = load ptr, ptr %_rest, align 8
  %call = call noundef ptr @_ZN12_GLOBAL__N_110ReturnTypeIPN6hermes6ESTree4NodeEE3getES4_(ptr noundef %1)
  ret ptr %call
}

; Function Attrs: mustprogress nounwind uwtable
define hidden ptr @hermes_get_DeclareComponent_typeParameters(ptr noundef %node) #0 {
entry:
  %node.addr = alloca ptr, align 8
  store ptr %node, ptr %node.addr, align 8
  %0 = load ptr, ptr %node.addr, align 8
  %_typeParameters = getelementptr inbounds %"class.hermes::ESTree::DeclareComponentNode", ptr %0, i32 0, i32 4
  %1 = load ptr, ptr %_typeParameters, align 8
  %call = call noundef ptr @_ZN12_GLOBAL__N_110ReturnTypeIPN6hermes6ESTree4NodeEE3getES4_(ptr noundef %1)
  ret ptr %call
}

; Function Attrs: mustprogress nounwind uwtable
define hidden ptr @hermes_get_DeclareComponent_rendersType(ptr noundef %node) #0 {
entry:
  %node.addr = alloca ptr, align 8
  store ptr %node, ptr %node.addr, align 8
  %0 = load ptr, ptr %node.addr, align 8
  %_rendersType = getelementptr inbounds %"class.hermes::ESTree::DeclareComponentNode", ptr %0, i32 0, i32 5
  %1 = load ptr, ptr %_rendersType, align 8
  %call = call noundef ptr @_ZN12_GLOBAL__N_110ReturnTypeIPN6hermes6ESTree4NodeEE3getES4_(ptr noundef %1)
  ret ptr %call
}

; Function Attrs: mustprogress nounwind uwtable
define hidden ptr @hermes_get_DeclareVariable_id(ptr noundef %node) #0 {
entry:
  %node.addr = alloca ptr, align 8
  store ptr %node, ptr %node.addr, align 8
  %0 = load ptr, ptr %node.addr, align 8
  %_id = getelementptr inbounds %"class.hermes::ESTree::DeclareVariableNode", ptr %0, i32 0, i32 1
  %1 = load ptr, ptr %_id, align 8
  %call = call noundef ptr @_ZN12_GLOBAL__N_110ReturnTypeIPN6hermes6ESTree4NodeEE3getES4_(ptr noundef %1)
  ret ptr %call
}

; Function Attrs: mustprogress nounwind uwtable
define hidden ptr @hermes_get_DeclareVariable_kind(ptr noundef %node) #0 {
entry:
  %node.addr = alloca ptr, align 8
  store ptr %node, ptr %node.addr, align 8
  %0 = load ptr, ptr %node.addr, align 8
  %_kind = getelementptr inbounds %"class.hermes::ESTree::DeclareVariableNode", ptr %0, i32 0, i32 2
  %1 = load ptr, ptr %_kind, align 8
  %call = call noundef ptr @_ZN12_GLOBAL__N_110ReturnTypeIPN6hermes12UniqueStringEE3getES3_(ptr noundef %1)
  ret ptr %call
}

; Function Attrs: mustprogress nounwind uwtable
define hidden ptr @hermes_get_DeclareEnum_id(ptr noundef %node) #0 {
entry:
  %node.addr = alloca ptr, align 8
  store ptr %node, ptr %node.addr, align 8
  %0 = load ptr, ptr %node.addr, align 8
  %_id = getelementptr inbounds %"class.hermes::ESTree::DeclareEnumNode", ptr %0, i32 0, i32 1
  %1 = load ptr, ptr %_id, align 8
  %call = call noundef ptr @_ZN12_GLOBAL__N_110ReturnTypeIPN6hermes6ESTree4NodeEE3getES4_(ptr noundef %1)
  ret ptr %call
}

; Function Attrs: mustprogress nounwind uwtable
define hidden ptr @hermes_get_DeclareEnum_body(ptr noundef %node) #0 {
entry:
  %node.addr = alloca ptr, align 8
  store ptr %node, ptr %node.addr, align 8
  %0 = load ptr, ptr %node.addr, align 8
  %_body = getelementptr inbounds %"class.hermes::ESTree::DeclareEnumNode", ptr %0, i32 0, i32 2
  %1 = load ptr, ptr %_body, align 8
  %call = call noundef ptr @_ZN12_GLOBAL__N_110ReturnTypeIPN6hermes6ESTree4NodeEE3getES4_(ptr noundef %1)
  ret ptr %call
}

; Function Attrs: mustprogress nounwind uwtable
define hidden ptr @hermes_get_DeclareExportDeclaration_declaration(ptr noundef %node) #0 {
entry:
  %node.addr = alloca ptr, align 8
  store ptr %node, ptr %node.addr, align 8
  %0 = load ptr, ptr %node.addr, align 8
  %_declaration = getelementptr inbounds %"class.hermes::ESTree::DeclareExportDeclarationNode", ptr %0, i32 0, i32 1
  %1 = load ptr, ptr %_declaration, align 8
  %call = call noundef ptr @_ZN12_GLOBAL__N_110ReturnTypeIPN6hermes6ESTree4NodeEE3getES4_(ptr noundef %1)
  ret ptr %call
}

; Function Attrs: mustprogress nounwind uwtable
define hidden ptr @hermes_get_DeclareExportDeclaration_specifiers(ptr noundef %node) #0 {
entry:
  %node.addr = alloca ptr, align 8
  store ptr %node, ptr %node.addr, align 8
  %0 = load ptr, ptr %node.addr, align 8
  %_specifiers = getelementptr inbounds %"class.hermes::ESTree::DeclareExportDeclarationNode", ptr %0, i32 0, i32 2
  %call = call noundef ptr @_ZN12_GLOBAL__N_110ReturnTypeIN4llvh12simple_ilistIN6hermes6ESTree4NodeEJEEEE3getERKS6_(ptr noundef nonnull align 8 dereferenceable(16) %_specifiers)
  ret ptr %call
}

; Function Attrs: mustprogress nounwind uwtable
define hidden ptr @hermes_get_DeclareExportDeclaration_source(ptr noundef %node) #0 {
entry:
  %node.addr = alloca ptr, align 8
  store ptr %node, ptr %node.addr, align 8
  %0 = load ptr, ptr %node.addr, align 8
  %_source = getelementptr inbounds %"class.hermes::ESTree::DeclareExportDeclarationNode", ptr %0, i32 0, i32 3
  %1 = load ptr, ptr %_source, align 8
  %call = call noundef ptr @_ZN12_GLOBAL__N_110ReturnTypeIPN6hermes6ESTree4NodeEE3getES4_(ptr noundef %1)
  ret ptr %call
}

; Function Attrs: mustprogress nounwind uwtable
define hidden zeroext i1 @hermes_get_DeclareExportDeclaration_default(ptr noundef %node) #0 {
entry:
  %node.addr = alloca ptr, align 8
  store ptr %node, ptr %node.addr, align 8
  %0 = load ptr, ptr %node.addr, align 8
  %_default = getelementptr inbounds %"class.hermes::ESTree::DeclareExportDeclarationNode", ptr %0, i32 0, i32 4
  %1 = load i8, ptr %_default, align 8
  %tobool = trunc i8 %1 to i1
  %call = call noundef zeroext i1 @_ZN12_GLOBAL__N_110ReturnTypeIbE3getEb(i1 noundef zeroext %tobool)
  ret i1 %call
}

; Function Attrs: mustprogress nounwind uwtable
define hidden ptr @hermes_get_DeclareExportAllDeclaration_source(ptr noundef %node) #0 {
entry:
  %node.addr = alloca ptr, align 8
  store ptr %node, ptr %node.addr, align 8
  %0 = load ptr, ptr %node.addr, align 8
  %_source = getelementptr inbounds %"class.hermes::ESTree::DeclareExportAllDeclarationNode", ptr %0, i32 0, i32 1
  %1 = load ptr, ptr %_source, align 8
  %call = call noundef ptr @_ZN12_GLOBAL__N_110ReturnTypeIPN6hermes6ESTree4NodeEE3getES4_(ptr noundef %1)
  ret ptr %call
}

; Function Attrs: mustprogress nounwind uwtable
define hidden ptr @hermes_get_DeclareModule_id(ptr noundef %node) #0 {
entry:
  %node.addr = alloca ptr, align 8
  store ptr %node, ptr %node.addr, align 8
  %0 = load ptr, ptr %node.addr, align 8
  %_id = getelementptr inbounds %"class.hermes::ESTree::DeclareModuleNode", ptr %0, i32 0, i32 1
  %1 = load ptr, ptr %_id, align 8
  %call = call noundef ptr @_ZN12_GLOBAL__N_110ReturnTypeIPN6hermes6ESTree4NodeEE3getES4_(ptr noundef %1)
  ret ptr %call
}

; Function Attrs: mustprogress nounwind uwtable
define hidden ptr @hermes_get_DeclareModule_body(ptr noundef %node) #0 {
entry:
  %node.addr = alloca ptr, align 8
  store ptr %node, ptr %node.addr, align 8
  %0 = load ptr, ptr %node.addr, align 8
  %_body = getelementptr inbounds %"class.hermes::ESTree::DeclareModuleNode", ptr %0, i32 0, i32 2
  %1 = load ptr, ptr %_body, align 8
  %call = call noundef ptr @_ZN12_GLOBAL__N_110ReturnTypeIPN6hermes6ESTree4NodeEE3getES4_(ptr noundef %1)
  ret ptr %call
}

; Function Attrs: mustprogress nounwind uwtable
define hidden ptr @hermes_get_DeclareModule_kind(ptr noundef %node) #0 {
entry:
  %node.addr = alloca ptr, align 8
  store ptr %node, ptr %node.addr, align 8
  %0 = load ptr, ptr %node.addr, align 8
  %_kind = getelementptr inbounds %"class.hermes::ESTree::DeclareModuleNode", ptr %0, i32 0, i32 3
  %1 = load ptr, ptr %_kind, align 8
  %call = call noundef ptr @_ZN12_GLOBAL__N_110ReturnTypeIPN6hermes12UniqueStringEE3getES3_(ptr noundef %1)
  ret ptr %call
}

; Function Attrs: mustprogress nounwind uwtable
define hidden ptr @hermes_get_DeclareModuleExports_typeAnnotation(ptr noundef %node) #0 {
entry:
  %node.addr = alloca ptr, align 8
  store ptr %node, ptr %node.addr, align 8
  %0 = load ptr, ptr %node.addr, align 8
  %_typeAnnotation = getelementptr inbounds %"class.hermes::ESTree::DeclareModuleExportsNode", ptr %0, i32 0, i32 1
  %1 = load ptr, ptr %_typeAnnotation, align 8
  %call = call noundef ptr @_ZN12_GLOBAL__N_110ReturnTypeIPN6hermes6ESTree4NodeEE3getES4_(ptr noundef %1)
  ret ptr %call
}

; Function Attrs: mustprogress nounwind uwtable
define hidden ptr @hermes_get_InterfaceExtends_id(ptr noundef %node) #0 {
entry:
  %node.addr = alloca ptr, align 8
  store ptr %node, ptr %node.addr, align 8
  %0 = load ptr, ptr %node.addr, align 8
  %_id = getelementptr inbounds %"class.hermes::ESTree::InterfaceExtendsNode", ptr %0, i32 0, i32 1
  %1 = load ptr, ptr %_id, align 8
  %call = call noundef ptr @_ZN12_GLOBAL__N_110ReturnTypeIPN6hermes6ESTree4NodeEE3getES4_(ptr noundef %1)
  ret ptr %call
}

; Function Attrs: mustprogress nounwind uwtable
define hidden ptr @hermes_get_InterfaceExtends_typeParameters(ptr noundef %node) #0 {
entry:
  %node.addr = alloca ptr, align 8
  store ptr %node, ptr %node.addr, align 8
  %0 = load ptr, ptr %node.addr, align 8
  %_typeParameters = getelementptr inbounds %"class.hermes::ESTree::InterfaceExtendsNode", ptr %0, i32 0, i32 2
  %1 = load ptr, ptr %_typeParameters, align 8
  %call = call noundef ptr @_ZN12_GLOBAL__N_110ReturnTypeIPN6hermes6ESTree4NodeEE3getES4_(ptr noundef %1)
  ret ptr %call
}

; Function Attrs: mustprogress nounwind uwtable
define hidden ptr @hermes_get_ClassImplements_id(ptr noundef %node) #0 {
entry:
  %node.addr = alloca ptr, align 8
  store ptr %node, ptr %node.addr, align 8
  %0 = load ptr, ptr %node.addr, align 8
  %_id = getelementptr inbounds %"class.hermes::ESTree::ClassImplementsNode", ptr %0, i32 0, i32 1
  %1 = load ptr, ptr %_id, align 8
  %call = call noundef ptr @_ZN12_GLOBAL__N_110ReturnTypeIPN6hermes6ESTree4NodeEE3getES4_(ptr noundef %1)
  ret ptr %call
}

; Function Attrs: mustprogress nounwind uwtable
define hidden ptr @hermes_get_ClassImplements_typeParameters(ptr noundef %node) #0 {
entry:
  %node.addr = alloca ptr, align 8
  store ptr %node, ptr %node.addr, align 8
  %0 = load ptr, ptr %node.addr, align 8
  %_typeParameters = getelementptr inbounds %"class.hermes::ESTree::ClassImplementsNode", ptr %0, i32 0, i32 2
  %1 = load ptr, ptr %_typeParameters, align 8
  %call = call noundef ptr @_ZN12_GLOBAL__N_110ReturnTypeIPN6hermes6ESTree4NodeEE3getES4_(ptr noundef %1)
  ret ptr %call
}

; Function Attrs: mustprogress nounwind uwtable
define hidden ptr @hermes_get_TypeAnnotation_typeAnnotation(ptr noundef %node) #0 {
entry:
  %node.addr = alloca ptr, align 8
  store ptr %node, ptr %node.addr, align 8
  %0 = load ptr, ptr %node.addr, align 8
  %_typeAnnotation = getelementptr inbounds %"class.hermes::ESTree::TypeAnnotationNode", ptr %0, i32 0, i32 1
  %1 = load ptr, ptr %_typeAnnotation, align 8
  %call = call noundef ptr @_ZN12_GLOBAL__N_110ReturnTypeIPN6hermes6ESTree4NodeEE3getES4_(ptr noundef %1)
  ret ptr %call
}

; Function Attrs: mustprogress nounwind uwtable
define hidden ptr @hermes_get_ObjectTypeAnnotation_properties(ptr noundef %node) #0 {
entry:
  %node.addr = alloca ptr, align 8
  store ptr %node, ptr %node.addr, align 8
  %0 = load ptr, ptr %node.addr, align 8
  %_properties = getelementptr inbounds %"class.hermes::ESTree::ObjectTypeAnnotationNode", ptr %0, i32 0, i32 1
  %call = call noundef ptr @_ZN12_GLOBAL__N_110ReturnTypeIN4llvh12simple_ilistIN6hermes6ESTree4NodeEJEEEE3getERKS6_(ptr noundef nonnull align 8 dereferenceable(16) %_properties)
  ret ptr %call
}

; Function Attrs: mustprogress nounwind uwtable
define hidden ptr @hermes_get_ObjectTypeAnnotation_indexers(ptr noundef %node) #0 {
entry:
  %node.addr = alloca ptr, align 8
  store ptr %node, ptr %node.addr, align 8
  %0 = load ptr, ptr %node.addr, align 8
  %_indexers = getelementptr inbounds %"class.hermes::ESTree::ObjectTypeAnnotationNode", ptr %0, i32 0, i32 2
  %call = call noundef ptr @_ZN12_GLOBAL__N_110ReturnTypeIN4llvh12simple_ilistIN6hermes6ESTree4NodeEJEEEE3getERKS6_(ptr noundef nonnull align 8 dereferenceable(16) %_indexers)
  ret ptr %call
}

; Function Attrs: mustprogress nounwind uwtable
define hidden ptr @hermes_get_ObjectTypeAnnotation_callProperties(ptr noundef %node) #0 {
entry:
  %node.addr = alloca ptr, align 8
  store ptr %node, ptr %node.addr, align 8
  %0 = load ptr, ptr %node.addr, align 8
  %_callProperties = getelementptr inbounds %"class.hermes::ESTree::ObjectTypeAnnotationNode", ptr %0, i32 0, i32 3
  %call = call noundef ptr @_ZN12_GLOBAL__N_110ReturnTypeIN4llvh12simple_ilistIN6hermes6ESTree4NodeEJEEEE3getERKS6_(ptr noundef nonnull align 8 dereferenceable(16) %_callProperties)
  ret ptr %call
}

; Function Attrs: mustprogress nounwind uwtable
define hidden ptr @hermes_get_ObjectTypeAnnotation_internalSlots(ptr noundef %node) #0 {
entry:
  %node.addr = alloca ptr, align 8
  store ptr %node, ptr %node.addr, align 8
  %0 = load ptr, ptr %node.addr, align 8
  %_internalSlots = getelementptr inbounds %"class.hermes::ESTree::ObjectTypeAnnotationNode", ptr %0, i32 0, i32 4
  %call = call noundef ptr @_ZN12_GLOBAL__N_110ReturnTypeIN4llvh12simple_ilistIN6hermes6ESTree4NodeEJEEEE3getERKS6_(ptr noundef nonnull align 8 dereferenceable(16) %_internalSlots)
  ret ptr %call
}

; Function Attrs: mustprogress nounwind uwtable
define hidden zeroext i1 @hermes_get_ObjectTypeAnnotation_inexact(ptr noundef %node) #0 {
entry:
  %node.addr = alloca ptr, align 8
  store ptr %node, ptr %node.addr, align 8
  %0 = load ptr, ptr %node.addr, align 8
  %_inexact = getelementptr inbounds %"class.hermes::ESTree::ObjectTypeAnnotationNode", ptr %0, i32 0, i32 5
  %1 = load i8, ptr %_inexact, align 8
  %tobool = trunc i8 %1 to i1
  %call = call noundef zeroext i1 @_ZN12_GLOBAL__N_110ReturnTypeIbE3getEb(i1 noundef zeroext %tobool)
  ret i1 %call
}

; Function Attrs: mustprogress nounwind uwtable
define hidden zeroext i1 @hermes_get_ObjectTypeAnnotation_exact(ptr noundef %node) #0 {
entry:
  %node.addr = alloca ptr, align 8
  store ptr %node, ptr %node.addr, align 8
  %0 = load ptr, ptr %node.addr, align 8
  %_exact = getelementptr inbounds %"class.hermes::ESTree::ObjectTypeAnnotationNode", ptr %0, i32 0, i32 6
  %1 = load i8, ptr %_exact, align 1
  %tobool = trunc i8 %1 to i1
  %call = call noundef zeroext i1 @_ZN12_GLOBAL__N_110ReturnTypeIbE3getEb(i1 noundef zeroext %tobool)
  ret i1 %call
}

; Function Attrs: mustprogress nounwind uwtable
define hidden ptr @hermes_get_ObjectTypeProperty_key(ptr noundef %node) #0 {
entry:
  %node.addr = alloca ptr, align 8
  store ptr %node, ptr %node.addr, align 8
  %0 = load ptr, ptr %node.addr, align 8
  %_key = getelementptr inbounds %"class.hermes::ESTree::ObjectTypePropertyNode", ptr %0, i32 0, i32 1
  %1 = load ptr, ptr %_key, align 8
  %call = call noundef ptr @_ZN12_GLOBAL__N_110ReturnTypeIPN6hermes6ESTree4NodeEE3getES4_(ptr noundef %1)
  ret ptr %call
}

; Function Attrs: mustprogress nounwind uwtable
define hidden ptr @hermes_get_ObjectTypeProperty_value(ptr noundef %node) #0 {
entry:
  %node.addr = alloca ptr, align 8
  store ptr %node, ptr %node.addr, align 8
  %0 = load ptr, ptr %node.addr, align 8
  %_value = getelementptr inbounds %"class.hermes::ESTree::ObjectTypePropertyNode", ptr %0, i32 0, i32 2
  %1 = load ptr, ptr %_value, align 8
  %call = call noundef ptr @_ZN12_GLOBAL__N_110ReturnTypeIPN6hermes6ESTree4NodeEE3getES4_(ptr noundef %1)
  ret ptr %call
}

; Function Attrs: mustprogress nounwind uwtable
define hidden zeroext i1 @hermes_get_ObjectTypeProperty_method(ptr noundef %node) #0 {
entry:
  %node.addr = alloca ptr, align 8
  store ptr %node, ptr %node.addr, align 8
  %0 = load ptr, ptr %node.addr, align 8
  %_method = getelementptr inbounds %"class.hermes::ESTree::ObjectTypePropertyNode", ptr %0, i32 0, i32 3
  %1 = load i8, ptr %_method, align 8
  %tobool = trunc i8 %1 to i1
  %call = call noundef zeroext i1 @_ZN12_GLOBAL__N_110ReturnTypeIbE3getEb(i1 noundef zeroext %tobool)
  ret i1 %call
}

; Function Attrs: mustprogress nounwind uwtable
define hidden zeroext i1 @hermes_get_ObjectTypeProperty_optional(ptr noundef %node) #0 {
entry:
  %node.addr = alloca ptr, align 8
  store ptr %node, ptr %node.addr, align 8
  %0 = load ptr, ptr %node.addr, align 8
  %_optional = getelementptr inbounds %"class.hermes::ESTree::ObjectTypePropertyNode", ptr %0, i32 0, i32 4
  %1 = load i8, ptr %_optional, align 1
  %tobool = trunc i8 %1 to i1
  %call = call noundef zeroext i1 @_ZN12_GLOBAL__N_110ReturnTypeIbE3getEb(i1 noundef zeroext %tobool)
  ret i1 %call
}

; Function Attrs: mustprogress nounwind uwtable
define hidden zeroext i1 @hermes_get_ObjectTypeProperty_static(ptr noundef %node) #0 {
entry:
  %node.addr = alloca ptr, align 8
  store ptr %node, ptr %node.addr, align 8
  %0 = load ptr, ptr %node.addr, align 8
  %_static = getelementptr inbounds %"class.hermes::ESTree::ObjectTypePropertyNode", ptr %0, i32 0, i32 5
  %1 = load i8, ptr %_static, align 2
  %tobool = trunc i8 %1 to i1
  %call = call noundef zeroext i1 @_ZN12_GLOBAL__N_110ReturnTypeIbE3getEb(i1 noundef zeroext %tobool)
  ret i1 %call
}

; Function Attrs: mustprogress nounwind uwtable
define hidden zeroext i1 @hermes_get_ObjectTypeProperty_proto(ptr noundef %node) #0 {
entry:
  %node.addr = alloca ptr, align 8
  store ptr %node, ptr %node.addr, align 8
  %0 = load ptr, ptr %node.addr, align 8
  %_proto = getelementptr inbounds %"class.hermes::ESTree::ObjectTypePropertyNode", ptr %0, i32 0, i32 6
  %1 = load i8, ptr %_proto, align 1
  %tobool = trunc i8 %1 to i1
  %call = call noundef zeroext i1 @_ZN12_GLOBAL__N_110ReturnTypeIbE3getEb(i1 noundef zeroext %tobool)
  ret i1 %call
}

; Function Attrs: mustprogress nounwind uwtable
define hidden ptr @hermes_get_ObjectTypeProperty_variance(ptr noundef %node) #0 {
entry:
  %node.addr = alloca ptr, align 8
  store ptr %node, ptr %node.addr, align 8
  %0 = load ptr, ptr %node.addr, align 8
  %_variance = getelementptr inbounds %"class.hermes::ESTree::ObjectTypePropertyNode", ptr %0, i32 0, i32 7
  %1 = load ptr, ptr %_variance, align 8
  %call = call noundef ptr @_ZN12_GLOBAL__N_110ReturnTypeIPN6hermes6ESTree4NodeEE3getES4_(ptr noundef %1)
  ret ptr %call
}

; Function Attrs: mustprogress nounwind uwtable
define hidden ptr @hermes_get_ObjectTypeProperty_kind(ptr noundef %node) #0 {
entry:
  %node.addr = alloca ptr, align 8
  store ptr %node, ptr %node.addr, align 8
  %0 = load ptr, ptr %node.addr, align 8
  %_kind = getelementptr inbounds %"class.hermes::ESTree::ObjectTypePropertyNode", ptr %0, i32 0, i32 8
  %1 = load ptr, ptr %_kind, align 8
  %call = call noundef ptr @_ZN12_GLOBAL__N_110ReturnTypeIPN6hermes12UniqueStringEE3getES3_(ptr noundef %1)
  ret ptr %call
}

; Function Attrs: mustprogress nounwind uwtable
define hidden ptr @hermes_get_ObjectTypeSpreadProperty_argument(ptr noundef %node) #0 {
entry:
  %node.addr = alloca ptr, align 8
  store ptr %node, ptr %node.addr, align 8
  %0 = load ptr, ptr %node.addr, align 8
  %_argument = getelementptr inbounds %"class.hermes::ESTree::ObjectTypeSpreadPropertyNode", ptr %0, i32 0, i32 1
  %1 = load ptr, ptr %_argument, align 8
  %call = call noundef ptr @_ZN12_GLOBAL__N_110ReturnTypeIPN6hermes6ESTree4NodeEE3getES4_(ptr noundef %1)
  ret ptr %call
}

; Function Attrs: mustprogress nounwind uwtable
define hidden ptr @hermes_get_ObjectTypeInternalSlot_id(ptr noundef %node) #0 {
entry:
  %node.addr = alloca ptr, align 8
  store ptr %node, ptr %node.addr, align 8
  %0 = load ptr, ptr %node.addr, align 8
  %_id = getelementptr inbounds %"class.hermes::ESTree::ObjectTypeInternalSlotNode", ptr %0, i32 0, i32 1
  %1 = load ptr, ptr %_id, align 8
  %call = call noundef ptr @_ZN12_GLOBAL__N_110ReturnTypeIPN6hermes6ESTree4NodeEE3getES4_(ptr noundef %1)
  ret ptr %call
}

; Function Attrs: mustprogress nounwind uwtable
define hidden ptr @hermes_get_ObjectTypeInternalSlot_value(ptr noundef %node) #0 {
entry:
  %node.addr = alloca ptr, align 8
  store ptr %node, ptr %node.addr, align 8
  %0 = load ptr, ptr %node.addr, align 8
  %_value = getelementptr inbounds %"class.hermes::ESTree::ObjectTypeInternalSlotNode", ptr %0, i32 0, i32 2
  %1 = load ptr, ptr %_value, align 8
  %call = call noundef ptr @_ZN12_GLOBAL__N_110ReturnTypeIPN6hermes6ESTree4NodeEE3getES4_(ptr noundef %1)
  ret ptr %call
}

; Function Attrs: mustprogress nounwind uwtable
define hidden zeroext i1 @hermes_get_ObjectTypeInternalSlot_optional(ptr noundef %node) #0 {
entry:
  %node.addr = alloca ptr, align 8
  store ptr %node, ptr %node.addr, align 8
  %0 = load ptr, ptr %node.addr, align 8
  %_optional = getelementptr inbounds %"class.hermes::ESTree::ObjectTypeInternalSlotNode", ptr %0, i32 0, i32 3
  %1 = load i8, ptr %_optional, align 8
  %tobool = trunc i8 %1 to i1
  %call = call noundef zeroext i1 @_ZN12_GLOBAL__N_110ReturnTypeIbE3getEb(i1 noundef zeroext %tobool)
  ret i1 %call
}

; Function Attrs: mustprogress nounwind uwtable
define hidden zeroext i1 @hermes_get_ObjectTypeInternalSlot_static(ptr noundef %node) #0 {
entry:
  %node.addr = alloca ptr, align 8
  store ptr %node, ptr %node.addr, align 8
  %0 = load ptr, ptr %node.addr, align 8
  %_static = getelementptr inbounds %"class.hermes::ESTree::ObjectTypeInternalSlotNode", ptr %0, i32 0, i32 4
  %1 = load i8, ptr %_static, align 1
  %tobool = trunc i8 %1 to i1
  %call = call noundef zeroext i1 @_ZN12_GLOBAL__N_110ReturnTypeIbE3getEb(i1 noundef zeroext %tobool)
  ret i1 %call
}

; Function Attrs: mustprogress nounwind uwtable
define hidden zeroext i1 @hermes_get_ObjectTypeInternalSlot_method(ptr noundef %node) #0 {
entry:
  %node.addr = alloca ptr, align 8
  store ptr %node, ptr %node.addr, align 8
  %0 = load ptr, ptr %node.addr, align 8
  %_method = getelementptr inbounds %"class.hermes::ESTree::ObjectTypeInternalSlotNode", ptr %0, i32 0, i32 5
  %1 = load i8, ptr %_method, align 2
  %tobool = trunc i8 %1 to i1
  %call = call noundef zeroext i1 @_ZN12_GLOBAL__N_110ReturnTypeIbE3getEb(i1 noundef zeroext %tobool)
  ret i1 %call
}

; Function Attrs: mustprogress nounwind uwtable
define hidden ptr @hermes_get_ObjectTypeCallProperty_value(ptr noundef %node) #0 {
entry:
  %node.addr = alloca ptr, align 8
  store ptr %node, ptr %node.addr, align 8
  %0 = load ptr, ptr %node.addr, align 8
  %_value = getelementptr inbounds %"class.hermes::ESTree::ObjectTypeCallPropertyNode", ptr %0, i32 0, i32 1
  %1 = load ptr, ptr %_value, align 8
  %call = call noundef ptr @_ZN12_GLOBAL__N_110ReturnTypeIPN6hermes6ESTree4NodeEE3getES4_(ptr noundef %1)
  ret ptr %call
}

; Function Attrs: mustprogress nounwind uwtable
define hidden zeroext i1 @hermes_get_ObjectTypeCallProperty_static(ptr noundef %node) #0 {
entry:
  %node.addr = alloca ptr, align 8
  store ptr %node, ptr %node.addr, align 8
  %0 = load ptr, ptr %node.addr, align 8
  %_static = getelementptr inbounds %"class.hermes::ESTree::ObjectTypeCallPropertyNode", ptr %0, i32 0, i32 2
  %1 = load i8, ptr %_static, align 8
  %tobool = trunc i8 %1 to i1
  %call = call noundef zeroext i1 @_ZN12_GLOBAL__N_110ReturnTypeIbE3getEb(i1 noundef zeroext %tobool)
  ret i1 %call
}

; Function Attrs: mustprogress nounwind uwtable
define hidden ptr @hermes_get_ObjectTypeIndexer_id(ptr noundef %node) #0 {
entry:
  %node.addr = alloca ptr, align 8
  store ptr %node, ptr %node.addr, align 8
  %0 = load ptr, ptr %node.addr, align 8
  %_id = getelementptr inbounds %"class.hermes::ESTree::ObjectTypeIndexerNode", ptr %0, i32 0, i32 1
  %1 = load ptr, ptr %_id, align 8
  %call = call noundef ptr @_ZN12_GLOBAL__N_110ReturnTypeIPN6hermes6ESTree4NodeEE3getES4_(ptr noundef %1)
  ret ptr %call
}

; Function Attrs: mustprogress nounwind uwtable
define hidden ptr @hermes_get_ObjectTypeIndexer_key(ptr noundef %node) #0 {
entry:
  %node.addr = alloca ptr, align 8
  store ptr %node, ptr %node.addr, align 8
  %0 = load ptr, ptr %node.addr, align 8
  %_key = getelementptr inbounds %"class.hermes::ESTree::ObjectTypeIndexerNode", ptr %0, i32 0, i32 2
  %1 = load ptr, ptr %_key, align 8
  %call = call noundef ptr @_ZN12_GLOBAL__N_110ReturnTypeIPN6hermes6ESTree4NodeEE3getES4_(ptr noundef %1)
  ret ptr %call
}

; Function Attrs: mustprogress nounwind uwtable
define hidden ptr @hermes_get_ObjectTypeIndexer_value(ptr noundef %node) #0 {
entry:
  %node.addr = alloca ptr, align 8
  store ptr %node, ptr %node.addr, align 8
  %0 = load ptr, ptr %node.addr, align 8
  %_value = getelementptr inbounds %"class.hermes::ESTree::ObjectTypeIndexerNode", ptr %0, i32 0, i32 3
  %1 = load ptr, ptr %_value, align 8
  %call = call noundef ptr @_ZN12_GLOBAL__N_110ReturnTypeIPN6hermes6ESTree4NodeEE3getES4_(ptr noundef %1)
  ret ptr %call
}

; Function Attrs: mustprogress nounwind uwtable
define hidden zeroext i1 @hermes_get_ObjectTypeIndexer_static(ptr noundef %node) #0 {
entry:
  %node.addr = alloca ptr, align 8
  store ptr %node, ptr %node.addr, align 8
  %0 = load ptr, ptr %node.addr, align 8
  %_static = getelementptr inbounds %"class.hermes::ESTree::ObjectTypeIndexerNode", ptr %0, i32 0, i32 4
  %1 = load i8, ptr %_static, align 8
  %tobool = trunc i8 %1 to i1
  %call = call noundef zeroext i1 @_ZN12_GLOBAL__N_110ReturnTypeIbE3getEb(i1 noundef zeroext %tobool)
  ret i1 %call
}

; Function Attrs: mustprogress nounwind uwtable
define hidden ptr @hermes_get_ObjectTypeIndexer_variance(ptr noundef %node) #0 {
entry:
  %node.addr = alloca ptr, align 8
  store ptr %node, ptr %node.addr, align 8
  %0 = load ptr, ptr %node.addr, align 8
  %_variance = getelementptr inbounds %"class.hermes::ESTree::ObjectTypeIndexerNode", ptr %0, i32 0, i32 5
  %1 = load ptr, ptr %_variance, align 8
  %call = call noundef ptr @_ZN12_GLOBAL__N_110ReturnTypeIPN6hermes6ESTree4NodeEE3getES4_(ptr noundef %1)
  ret ptr %call
}

; Function Attrs: mustprogress nounwind uwtable
define hidden ptr @hermes_get_ObjectTypeMappedTypeProperty_keyTparam(ptr noundef %node) #0 {
entry:
  %node.addr = alloca ptr, align 8
  store ptr %node, ptr %node.addr, align 8
  %0 = load ptr, ptr %node.addr, align 8
  %_keyTparam = getelementptr inbounds %"class.hermes::ESTree::ObjectTypeMappedTypePropertyNode", ptr %0, i32 0, i32 1
  %1 = load ptr, ptr %_keyTparam, align 8
  %call = call noundef ptr @_ZN12_GLOBAL__N_110ReturnTypeIPN6hermes6ESTree4NodeEE3getES4_(ptr noundef %1)
  ret ptr %call
}

; Function Attrs: mustprogress nounwind uwtable
define hidden ptr @hermes_get_ObjectTypeMappedTypeProperty_propType(ptr noundef %node) #0 {
entry:
  %node.addr = alloca ptr, align 8
  store ptr %node, ptr %node.addr, align 8
  %0 = load ptr, ptr %node.addr, align 8
  %_propType = getelementptr inbounds %"class.hermes::ESTree::ObjectTypeMappedTypePropertyNode", ptr %0, i32 0, i32 2
  %1 = load ptr, ptr %_propType, align 8
  %call = call noundef ptr @_ZN12_GLOBAL__N_110ReturnTypeIPN6hermes6ESTree4NodeEE3getES4_(ptr noundef %1)
  ret ptr %call
}

; Function Attrs: mustprogress nounwind uwtable
define hidden ptr @hermes_get_ObjectTypeMappedTypeProperty_sourceType(ptr noundef %node) #0 {
entry:
  %node.addr = alloca ptr, align 8
  store ptr %node, ptr %node.addr, align 8
  %0 = load ptr, ptr %node.addr, align 8
  %_sourceType = getelementptr inbounds %"class.hermes::ESTree::ObjectTypeMappedTypePropertyNode", ptr %0, i32 0, i32 3
  %1 = load ptr, ptr %_sourceType, align 8
  %call = call noundef ptr @_ZN12_GLOBAL__N_110ReturnTypeIPN6hermes6ESTree4NodeEE3getES4_(ptr noundef %1)
  ret ptr %call
}

; Function Attrs: mustprogress nounwind uwtable
define hidden ptr @hermes_get_ObjectTypeMappedTypeProperty_variance(ptr noundef %node) #0 {
entry:
  %node.addr = alloca ptr, align 8
  store ptr %node, ptr %node.addr, align 8
  %0 = load ptr, ptr %node.addr, align 8
  %_variance = getelementptr inbounds %"class.hermes::ESTree::ObjectTypeMappedTypePropertyNode", ptr %0, i32 0, i32 4
  %1 = load ptr, ptr %_variance, align 8
  %call = call noundef ptr @_ZN12_GLOBAL__N_110ReturnTypeIPN6hermes6ESTree4NodeEE3getES4_(ptr noundef %1)
  ret ptr %call
}

; Function Attrs: mustprogress nounwind uwtable
define hidden ptr @hermes_get_ObjectTypeMappedTypeProperty_optional(ptr noundef %node) #0 {
entry:
  %node.addr = alloca ptr, align 8
  store ptr %node, ptr %node.addr, align 8
  %0 = load ptr, ptr %node.addr, align 8
  %_optional = getelementptr inbounds %"class.hermes::ESTree::ObjectTypeMappedTypePropertyNode", ptr %0, i32 0, i32 5
  %1 = load ptr, ptr %_optional, align 8
  %call = call noundef ptr @_ZN12_GLOBAL__N_110ReturnTypeIPN6hermes12UniqueStringEE3getES3_(ptr noundef %1)
  ret ptr %call
}

; Function Attrs: mustprogress nounwind uwtable
define hidden ptr @hermes_get_Variance_kind(ptr noundef %node) #0 {
entry:
  %node.addr = alloca ptr, align 8
  store ptr %node, ptr %node.addr, align 8
  %0 = load ptr, ptr %node.addr, align 8
  %_kind = getelementptr inbounds %"class.hermes::ESTree::VarianceNode", ptr %0, i32 0, i32 1
  %1 = load ptr, ptr %_kind, align 8
  %call = call noundef ptr @_ZN12_GLOBAL__N_110ReturnTypeIPN6hermes12UniqueStringEE3getES3_(ptr noundef %1)
  ret ptr %call
}

; Function Attrs: mustprogress nounwind uwtable
define hidden ptr @hermes_get_TypeParameterDeclaration_params(ptr noundef %node) #0 {
entry:
  %node.addr = alloca ptr, align 8
  store ptr %node, ptr %node.addr, align 8
  %0 = load ptr, ptr %node.addr, align 8
  %_params = getelementptr inbounds %"class.hermes::ESTree::TypeParameterDeclarationNode", ptr %0, i32 0, i32 1
  %call = call noundef ptr @_ZN12_GLOBAL__N_110ReturnTypeIN4llvh12simple_ilistIN6hermes6ESTree4NodeEJEEEE3getERKS6_(ptr noundef nonnull align 8 dereferenceable(16) %_params)
  ret ptr %call
}

; Function Attrs: mustprogress nounwind uwtable
define hidden ptr @hermes_get_TypeParameter_name(ptr noundef %node) #0 {
entry:
  %node.addr = alloca ptr, align 8
  store ptr %node, ptr %node.addr, align 8
  %0 = load ptr, ptr %node.addr, align 8
  %_name = getelementptr inbounds %"class.hermes::ESTree::TypeParameterNode", ptr %0, i32 0, i32 1
  %1 = load ptr, ptr %_name, align 8
  %call = call noundef ptr @_ZN12_GLOBAL__N_110ReturnTypeIPN6hermes12UniqueStringEE3getES3_(ptr noundef %1)
  ret ptr %call
}

; Function Attrs: mustprogress nounwind uwtable
define hidden ptr @hermes_get_TypeParameter_bound(ptr noundef %node) #0 {
entry:
  %node.addr = alloca ptr, align 8
  store ptr %node, ptr %node.addr, align 8
  %0 = load ptr, ptr %node.addr, align 8
  %_bound = getelementptr inbounds %"class.hermes::ESTree::TypeParameterNode", ptr %0, i32 0, i32 2
  %1 = load ptr, ptr %_bound, align 8
  %call = call noundef ptr @_ZN12_GLOBAL__N_110ReturnTypeIPN6hermes6ESTree4NodeEE3getES4_(ptr noundef %1)
  ret ptr %call
}

; Function Attrs: mustprogress nounwind uwtable
define hidden ptr @hermes_get_TypeParameter_variance(ptr noundef %node) #0 {
entry:
  %node.addr = alloca ptr, align 8
  store ptr %node, ptr %node.addr, align 8
  %0 = load ptr, ptr %node.addr, align 8
  %_variance = getelementptr inbounds %"class.hermes::ESTree::TypeParameterNode", ptr %0, i32 0, i32 3
  %1 = load ptr, ptr %_variance, align 8
  %call = call noundef ptr @_ZN12_GLOBAL__N_110ReturnTypeIPN6hermes6ESTree4NodeEE3getES4_(ptr noundef %1)
  ret ptr %call
}

; Function Attrs: mustprogress nounwind uwtable
define hidden ptr @hermes_get_TypeParameter_default(ptr noundef %node) #0 {
entry:
  %node.addr = alloca ptr, align 8
  store ptr %node, ptr %node.addr, align 8
  %0 = load ptr, ptr %node.addr, align 8
  %_default = getelementptr inbounds %"class.hermes::ESTree::TypeParameterNode", ptr %0, i32 0, i32 4
  %1 = load ptr, ptr %_default, align 8
  %call = call noundef ptr @_ZN12_GLOBAL__N_110ReturnTypeIPN6hermes6ESTree4NodeEE3getES4_(ptr noundef %1)
  ret ptr %call
}

; Function Attrs: mustprogress nounwind uwtable
define hidden zeroext i1 @hermes_get_TypeParameter_usesExtendsBound(ptr noundef %node) #0 {
entry:
  %node.addr = alloca ptr, align 8
  store ptr %node, ptr %node.addr, align 8
  %0 = load ptr, ptr %node.addr, align 8
  %_usesExtendsBound = getelementptr inbounds %"class.hermes::ESTree::TypeParameterNode", ptr %0, i32 0, i32 5
  %1 = load i8, ptr %_usesExtendsBound, align 8
  %tobool = trunc i8 %1 to i1
  %call = call noundef zeroext i1 @_ZN12_GLOBAL__N_110ReturnTypeIbE3getEb(i1 noundef zeroext %tobool)
  ret i1 %call
}

; Function Attrs: mustprogress nounwind uwtable
define hidden ptr @hermes_get_TypeParameterInstantiation_params(ptr noundef %node) #0 {
entry:
  %node.addr = alloca ptr, align 8
  store ptr %node, ptr %node.addr, align 8
  %0 = load ptr, ptr %node.addr, align 8
  %_params = getelementptr inbounds %"class.hermes::ESTree::TypeParameterInstantiationNode", ptr %0, i32 0, i32 1
  %call = call noundef ptr @_ZN12_GLOBAL__N_110ReturnTypeIN4llvh12simple_ilistIN6hermes6ESTree4NodeEJEEEE3getERKS6_(ptr noundef nonnull align 8 dereferenceable(16) %_params)
  ret ptr %call
}

; Function Attrs: mustprogress nounwind uwtable
define hidden ptr @hermes_get_TypeCastExpression_expression(ptr noundef %node) #0 {
entry:
  %node.addr = alloca ptr, align 8
  store ptr %node, ptr %node.addr, align 8
  %0 = load ptr, ptr %node.addr, align 8
  %_expression = getelementptr inbounds %"class.hermes::ESTree::TypeCastExpressionNode", ptr %0, i32 0, i32 1
  %1 = load ptr, ptr %_expression, align 8
  %call = call noundef ptr @_ZN12_GLOBAL__N_110ReturnTypeIPN6hermes6ESTree4NodeEE3getES4_(ptr noundef %1)
  ret ptr %call
}

; Function Attrs: mustprogress nounwind uwtable
define hidden ptr @hermes_get_TypeCastExpression_typeAnnotation(ptr noundef %node) #0 {
entry:
  %node.addr = alloca ptr, align 8
  store ptr %node, ptr %node.addr, align 8
  %0 = load ptr, ptr %node.addr, align 8
  %_typeAnnotation = getelementptr inbounds %"class.hermes::ESTree::TypeCastExpressionNode", ptr %0, i32 0, i32 2
  %1 = load ptr, ptr %_typeAnnotation, align 8
  %call = call noundef ptr @_ZN12_GLOBAL__N_110ReturnTypeIPN6hermes6ESTree4NodeEE3getES4_(ptr noundef %1)
  ret ptr %call
}

; Function Attrs: mustprogress nounwind uwtable
define hidden ptr @hermes_get_AsExpression_expression(ptr noundef %node) #0 {
entry:
  %node.addr = alloca ptr, align 8
  store ptr %node, ptr %node.addr, align 8
  %0 = load ptr, ptr %node.addr, align 8
  %_expression = getelementptr inbounds %"class.hermes::ESTree::AsExpressionNode", ptr %0, i32 0, i32 1
  %1 = load ptr, ptr %_expression, align 8
  %call = call noundef ptr @_ZN12_GLOBAL__N_110ReturnTypeIPN6hermes6ESTree4NodeEE3getES4_(ptr noundef %1)
  ret ptr %call
}

; Function Attrs: mustprogress nounwind uwtable
define hidden ptr @hermes_get_AsExpression_typeAnnotation(ptr noundef %node) #0 {
entry:
  %node.addr = alloca ptr, align 8
  store ptr %node, ptr %node.addr, align 8
  %0 = load ptr, ptr %node.addr, align 8
  %_typeAnnotation = getelementptr inbounds %"class.hermes::ESTree::AsExpressionNode", ptr %0, i32 0, i32 2
  %1 = load ptr, ptr %_typeAnnotation, align 8
  %call = call noundef ptr @_ZN12_GLOBAL__N_110ReturnTypeIPN6hermes6ESTree4NodeEE3getES4_(ptr noundef %1)
  ret ptr %call
}

; Function Attrs: mustprogress nounwind uwtable
define hidden ptr @hermes_get_DeclaredPredicate_value(ptr noundef %node) #0 {
entry:
  %node.addr = alloca ptr, align 8
  store ptr %node, ptr %node.addr, align 8
  %0 = load ptr, ptr %node.addr, align 8
  %_value = getelementptr inbounds %"class.hermes::ESTree::DeclaredPredicateNode", ptr %0, i32 0, i32 1
  %1 = load ptr, ptr %_value, align 8
  %call = call noundef ptr @_ZN12_GLOBAL__N_110ReturnTypeIPN6hermes6ESTree4NodeEE3getES4_(ptr noundef %1)
  ret ptr %call
}

; Function Attrs: mustprogress nounwind uwtable
define hidden ptr @hermes_get_EnumDeclaration_id(ptr noundef %node) #0 {
entry:
  %node.addr = alloca ptr, align 8
  store ptr %node, ptr %node.addr, align 8
  %0 = load ptr, ptr %node.addr, align 8
  %_id = getelementptr inbounds %"class.hermes::ESTree::EnumDeclarationNode", ptr %0, i32 0, i32 1
  %1 = load ptr, ptr %_id, align 8
  %call = call noundef ptr @_ZN12_GLOBAL__N_110ReturnTypeIPN6hermes6ESTree4NodeEE3getES4_(ptr noundef %1)
  ret ptr %call
}

; Function Attrs: mustprogress nounwind uwtable
define hidden ptr @hermes_get_EnumDeclaration_body(ptr noundef %node) #0 {
entry:
  %node.addr = alloca ptr, align 8
  store ptr %node, ptr %node.addr, align 8
  %0 = load ptr, ptr %node.addr, align 8
  %_body = getelementptr inbounds %"class.hermes::ESTree::EnumDeclarationNode", ptr %0, i32 0, i32 2
  %1 = load ptr, ptr %_body, align 8
  %call = call noundef ptr @_ZN12_GLOBAL__N_110ReturnTypeIPN6hermes6ESTree4NodeEE3getES4_(ptr noundef %1)
  ret ptr %call
}

; Function Attrs: mustprogress nounwind uwtable
define hidden ptr @hermes_get_EnumStringBody_members(ptr noundef %node) #0 {
entry:
  %node.addr = alloca ptr, align 8
  store ptr %node, ptr %node.addr, align 8
  %0 = load ptr, ptr %node.addr, align 8
  %_members = getelementptr inbounds %"class.hermes::ESTree::EnumStringBodyNode", ptr %0, i32 0, i32 1
  %call = call noundef ptr @_ZN12_GLOBAL__N_110ReturnTypeIN4llvh12simple_ilistIN6hermes6ESTree4NodeEJEEEE3getERKS6_(ptr noundef nonnull align 8 dereferenceable(16) %_members)
  ret ptr %call
}

; Function Attrs: mustprogress nounwind uwtable
define hidden zeroext i1 @hermes_get_EnumStringBody_explicitType(ptr noundef %node) #0 {
entry:
  %node.addr = alloca ptr, align 8
  store ptr %node, ptr %node.addr, align 8
  %0 = load ptr, ptr %node.addr, align 8
  %_explicitType = getelementptr inbounds %"class.hermes::ESTree::EnumStringBodyNode", ptr %0, i32 0, i32 2
  %1 = load i8, ptr %_explicitType, align 8
  %tobool = trunc i8 %1 to i1
  %call = call noundef zeroext i1 @_ZN12_GLOBAL__N_110ReturnTypeIbE3getEb(i1 noundef zeroext %tobool)
  ret i1 %call
}

; Function Attrs: mustprogress nounwind uwtable
define hidden zeroext i1 @hermes_get_EnumStringBody_hasUnknownMembers(ptr noundef %node) #0 {
entry:
  %node.addr = alloca ptr, align 8
  store ptr %node, ptr %node.addr, align 8
  %0 = load ptr, ptr %node.addr, align 8
  %_hasUnknownMembers = getelementptr inbounds %"class.hermes::ESTree::EnumStringBodyNode", ptr %0, i32 0, i32 3
  %1 = load i8, ptr %_hasUnknownMembers, align 1
  %tobool = trunc i8 %1 to i1
  %call = call noundef zeroext i1 @_ZN12_GLOBAL__N_110ReturnTypeIbE3getEb(i1 noundef zeroext %tobool)
  ret i1 %call
}

; Function Attrs: mustprogress nounwind uwtable
define hidden ptr @hermes_get_EnumNumberBody_members(ptr noundef %node) #0 {
entry:
  %node.addr = alloca ptr, align 8
  store ptr %node, ptr %node.addr, align 8
  %0 = load ptr, ptr %node.addr, align 8
  %_members = getelementptr inbounds %"class.hermes::ESTree::EnumNumberBodyNode", ptr %0, i32 0, i32 1
  %call = call noundef ptr @_ZN12_GLOBAL__N_110ReturnTypeIN4llvh12simple_ilistIN6hermes6ESTree4NodeEJEEEE3getERKS6_(ptr noundef nonnull align 8 dereferenceable(16) %_members)
  ret ptr %call
}

; Function Attrs: mustprogress nounwind uwtable
define hidden zeroext i1 @hermes_get_EnumNumberBody_explicitType(ptr noundef %node) #0 {
entry:
  %node.addr = alloca ptr, align 8
  store ptr %node, ptr %node.addr, align 8
  %0 = load ptr, ptr %node.addr, align 8
  %_explicitType = getelementptr inbounds %"class.hermes::ESTree::EnumNumberBodyNode", ptr %0, i32 0, i32 2
  %1 = load i8, ptr %_explicitType, align 8
  %tobool = trunc i8 %1 to i1
  %call = call noundef zeroext i1 @_ZN12_GLOBAL__N_110ReturnTypeIbE3getEb(i1 noundef zeroext %tobool)
  ret i1 %call
}

; Function Attrs: mustprogress nounwind uwtable
define hidden zeroext i1 @hermes_get_EnumNumberBody_hasUnknownMembers(ptr noundef %node) #0 {
entry:
  %node.addr = alloca ptr, align 8
  store ptr %node, ptr %node.addr, align 8
  %0 = load ptr, ptr %node.addr, align 8
  %_hasUnknownMembers = getelementptr inbounds %"class.hermes::ESTree::EnumNumberBodyNode", ptr %0, i32 0, i32 3
  %1 = load i8, ptr %_hasUnknownMembers, align 1
  %tobool = trunc i8 %1 to i1
  %call = call noundef zeroext i1 @_ZN12_GLOBAL__N_110ReturnTypeIbE3getEb(i1 noundef zeroext %tobool)
  ret i1 %call
}

; Function Attrs: mustprogress nounwind uwtable
define hidden ptr @hermes_get_EnumBooleanBody_members(ptr noundef %node) #0 {
entry:
  %node.addr = alloca ptr, align 8
  store ptr %node, ptr %node.addr, align 8
  %0 = load ptr, ptr %node.addr, align 8
  %_members = getelementptr inbounds %"class.hermes::ESTree::EnumBooleanBodyNode", ptr %0, i32 0, i32 1
  %call = call noundef ptr @_ZN12_GLOBAL__N_110ReturnTypeIN4llvh12simple_ilistIN6hermes6ESTree4NodeEJEEEE3getERKS6_(ptr noundef nonnull align 8 dereferenceable(16) %_members)
  ret ptr %call
}

; Function Attrs: mustprogress nounwind uwtable
define hidden zeroext i1 @hermes_get_EnumBooleanBody_explicitType(ptr noundef %node) #0 {
entry:
  %node.addr = alloca ptr, align 8
  store ptr %node, ptr %node.addr, align 8
  %0 = load ptr, ptr %node.addr, align 8
  %_explicitType = getelementptr inbounds %"class.hermes::ESTree::EnumBooleanBodyNode", ptr %0, i32 0, i32 2
  %1 = load i8, ptr %_explicitType, align 8
  %tobool = trunc i8 %1 to i1
  %call = call noundef zeroext i1 @_ZN12_GLOBAL__N_110ReturnTypeIbE3getEb(i1 noundef zeroext %tobool)
  ret i1 %call
}

; Function Attrs: mustprogress nounwind uwtable
define hidden zeroext i1 @hermes_get_EnumBooleanBody_hasUnknownMembers(ptr noundef %node) #0 {
entry:
  %node.addr = alloca ptr, align 8
  store ptr %node, ptr %node.addr, align 8
  %0 = load ptr, ptr %node.addr, align 8
  %_hasUnknownMembers = getelementptr inbounds %"class.hermes::ESTree::EnumBooleanBodyNode", ptr %0, i32 0, i32 3
  %1 = load i8, ptr %_hasUnknownMembers, align 1
  %tobool = trunc i8 %1 to i1
  %call = call noundef zeroext i1 @_ZN12_GLOBAL__N_110ReturnTypeIbE3getEb(i1 noundef zeroext %tobool)
  ret i1 %call
}

; Function Attrs: mustprogress nounwind uwtable
define hidden ptr @hermes_get_EnumSymbolBody_members(ptr noundef %node) #0 {
entry:
  %node.addr = alloca ptr, align 8
  store ptr %node, ptr %node.addr, align 8
  %0 = load ptr, ptr %node.addr, align 8
  %_members = getelementptr inbounds %"class.hermes::ESTree::EnumSymbolBodyNode", ptr %0, i32 0, i32 1
  %call = call noundef ptr @_ZN12_GLOBAL__N_110ReturnTypeIN4llvh12simple_ilistIN6hermes6ESTree4NodeEJEEEE3getERKS6_(ptr noundef nonnull align 8 dereferenceable(16) %_members)
  ret ptr %call
}

; Function Attrs: mustprogress nounwind uwtable
define hidden zeroext i1 @hermes_get_EnumSymbolBody_hasUnknownMembers(ptr noundef %node) #0 {
entry:
  %node.addr = alloca ptr, align 8
  store ptr %node, ptr %node.addr, align 8
  %0 = load ptr, ptr %node.addr, align 8
  %_hasUnknownMembers = getelementptr inbounds %"class.hermes::ESTree::EnumSymbolBodyNode", ptr %0, i32 0, i32 2
  %1 = load i8, ptr %_hasUnknownMembers, align 8
  %tobool = trunc i8 %1 to i1
  %call = call noundef zeroext i1 @_ZN12_GLOBAL__N_110ReturnTypeIbE3getEb(i1 noundef zeroext %tobool)
  ret i1 %call
}

; Function Attrs: mustprogress nounwind uwtable
define hidden ptr @hermes_get_EnumDefaultedMember_id(ptr noundef %node) #0 {
entry:
  %node.addr = alloca ptr, align 8
  store ptr %node, ptr %node.addr, align 8
  %0 = load ptr, ptr %node.addr, align 8
  %_id = getelementptr inbounds %"class.hermes::ESTree::EnumDefaultedMemberNode", ptr %0, i32 0, i32 1
  %1 = load ptr, ptr %_id, align 8
  %call = call noundef ptr @_ZN12_GLOBAL__N_110ReturnTypeIPN6hermes6ESTree4NodeEE3getES4_(ptr noundef %1)
  ret ptr %call
}

; Function Attrs: mustprogress nounwind uwtable
define hidden ptr @hermes_get_EnumStringMember_id(ptr noundef %node) #0 {
entry:
  %node.addr = alloca ptr, align 8
  store ptr %node, ptr %node.addr, align 8
  %0 = load ptr, ptr %node.addr, align 8
  %_id = getelementptr inbounds %"class.hermes::ESTree::EnumStringMemberNode", ptr %0, i32 0, i32 1
  %1 = load ptr, ptr %_id, align 8
  %call = call noundef ptr @_ZN12_GLOBAL__N_110ReturnTypeIPN6hermes6ESTree4NodeEE3getES4_(ptr noundef %1)
  ret ptr %call
}

; Function Attrs: mustprogress nounwind uwtable
define hidden ptr @hermes_get_EnumStringMember_init(ptr noundef %node) #0 {
entry:
  %node.addr = alloca ptr, align 8
  store ptr %node, ptr %node.addr, align 8
  %0 = load ptr, ptr %node.addr, align 8
  %_init = getelementptr inbounds %"class.hermes::ESTree::EnumStringMemberNode", ptr %0, i32 0, i32 2
  %1 = load ptr, ptr %_init, align 8
  %call = call noundef ptr @_ZN12_GLOBAL__N_110ReturnTypeIPN6hermes6ESTree4NodeEE3getES4_(ptr noundef %1)
  ret ptr %call
}

; Function Attrs: mustprogress nounwind uwtable
define hidden ptr @hermes_get_EnumNumberMember_id(ptr noundef %node) #0 {
entry:
  %node.addr = alloca ptr, align 8
  store ptr %node, ptr %node.addr, align 8
  %0 = load ptr, ptr %node.addr, align 8
  %_id = getelementptr inbounds %"class.hermes::ESTree::EnumNumberMemberNode", ptr %0, i32 0, i32 1
  %1 = load ptr, ptr %_id, align 8
  %call = call noundef ptr @_ZN12_GLOBAL__N_110ReturnTypeIPN6hermes6ESTree4NodeEE3getES4_(ptr noundef %1)
  ret ptr %call
}

; Function Attrs: mustprogress nounwind uwtable
define hidden ptr @hermes_get_EnumNumberMember_init(ptr noundef %node) #0 {
entry:
  %node.addr = alloca ptr, align 8
  store ptr %node, ptr %node.addr, align 8
  %0 = load ptr, ptr %node.addr, align 8
  %_init = getelementptr inbounds %"class.hermes::ESTree::EnumNumberMemberNode", ptr %0, i32 0, i32 2
  %1 = load ptr, ptr %_init, align 8
  %call = call noundef ptr @_ZN12_GLOBAL__N_110ReturnTypeIPN6hermes6ESTree4NodeEE3getES4_(ptr noundef %1)
  ret ptr %call
}

; Function Attrs: mustprogress nounwind uwtable
define hidden ptr @hermes_get_EnumBooleanMember_id(ptr noundef %node) #0 {
entry:
  %node.addr = alloca ptr, align 8
  store ptr %node, ptr %node.addr, align 8
  %0 = load ptr, ptr %node.addr, align 8
  %_id = getelementptr inbounds %"class.hermes::ESTree::EnumBooleanMemberNode", ptr %0, i32 0, i32 1
  %1 = load ptr, ptr %_id, align 8
  %call = call noundef ptr @_ZN12_GLOBAL__N_110ReturnTypeIPN6hermes6ESTree4NodeEE3getES4_(ptr noundef %1)
  ret ptr %call
}

; Function Attrs: mustprogress nounwind uwtable
define hidden ptr @hermes_get_EnumBooleanMember_init(ptr noundef %node) #0 {
entry:
  %node.addr = alloca ptr, align 8
  store ptr %node, ptr %node.addr, align 8
  %0 = load ptr, ptr %node.addr, align 8
  %_init = getelementptr inbounds %"class.hermes::ESTree::EnumBooleanMemberNode", ptr %0, i32 0, i32 2
  %1 = load ptr, ptr %_init, align 8
  %call = call noundef ptr @_ZN12_GLOBAL__N_110ReturnTypeIPN6hermes6ESTree4NodeEE3getES4_(ptr noundef %1)
  ret ptr %call
}

; Function Attrs: mustprogress nounwind uwtable
define hidden ptr @hermes_get_ComponentParameter_name(ptr noundef %node) #0 {
entry:
  %node.addr = alloca ptr, align 8
  store ptr %node, ptr %node.addr, align 8
  %0 = load ptr, ptr %node.addr, align 8
  %_name = getelementptr inbounds %"class.hermes::ESTree::ComponentParameterNode", ptr %0, i32 0, i32 1
  %1 = load ptr, ptr %_name, align 8
  %call = call noundef ptr @_ZN12_GLOBAL__N_110ReturnTypeIPN6hermes6ESTree4NodeEE3getES4_(ptr noundef %1)
  ret ptr %call
}

; Function Attrs: mustprogress nounwind uwtable
define hidden ptr @hermes_get_ComponentParameter_local(ptr noundef %node) #0 {
entry:
  %node.addr = alloca ptr, align 8
  store ptr %node, ptr %node.addr, align 8
  %0 = load ptr, ptr %node.addr, align 8
  %_local = getelementptr inbounds %"class.hermes::ESTree::ComponentParameterNode", ptr %0, i32 0, i32 2
  %1 = load ptr, ptr %_local, align 8
  %call = call noundef ptr @_ZN12_GLOBAL__N_110ReturnTypeIPN6hermes6ESTree4NodeEE3getES4_(ptr noundef %1)
  ret ptr %call
}

; Function Attrs: mustprogress nounwind uwtable
define hidden zeroext i1 @hermes_get_ComponentParameter_shorthand(ptr noundef %node) #0 {
entry:
  %node.addr = alloca ptr, align 8
  store ptr %node, ptr %node.addr, align 8
  %0 = load ptr, ptr %node.addr, align 8
  %_shorthand = getelementptr inbounds %"class.hermes::ESTree::ComponentParameterNode", ptr %0, i32 0, i32 3
  %1 = load i8, ptr %_shorthand, align 8
  %tobool = trunc i8 %1 to i1
  %call = call noundef zeroext i1 @_ZN12_GLOBAL__N_110ReturnTypeIbE3getEb(i1 noundef zeroext %tobool)
  ret i1 %call
}

; Function Attrs: mustprogress nounwind uwtable
define hidden ptr @hermes_get_TSTypeAnnotation_typeAnnotation(ptr noundef %node) #0 {
entry:
  %node.addr = alloca ptr, align 8
  store ptr %node, ptr %node.addr, align 8
  %0 = load ptr, ptr %node.addr, align 8
  %_typeAnnotation = getelementptr inbounds %"class.hermes::ESTree::TSTypeAnnotationNode", ptr %0, i32 0, i32 1
  %1 = load ptr, ptr %_typeAnnotation, align 8
  %call = call noundef ptr @_ZN12_GLOBAL__N_110ReturnTypeIPN6hermes6ESTree4NodeEE3getES4_(ptr noundef %1)
  ret ptr %call
}

; Function Attrs: mustprogress nounwind uwtable
define hidden ptr @hermes_get_TSLiteralType_literal(ptr noundef %node) #0 {
entry:
  %node.addr = alloca ptr, align 8
  store ptr %node, ptr %node.addr, align 8
  %0 = load ptr, ptr %node.addr, align 8
  %_literal = getelementptr inbounds %"class.hermes::ESTree::TSLiteralTypeNode", ptr %0, i32 0, i32 1
  %1 = load ptr, ptr %_literal, align 8
  %call = call noundef ptr @_ZN12_GLOBAL__N_110ReturnTypeIPN6hermes6ESTree4NodeEE3getES4_(ptr noundef %1)
  ret ptr %call
}

; Function Attrs: mustprogress nounwind uwtable
define hidden ptr @hermes_get_TSIndexedAccessType_objectType(ptr noundef %node) #0 {
entry:
  %node.addr = alloca ptr, align 8
  store ptr %node, ptr %node.addr, align 8
  %0 = load ptr, ptr %node.addr, align 8
  %_objectType = getelementptr inbounds %"class.hermes::ESTree::TSIndexedAccessTypeNode", ptr %0, i32 0, i32 1
  %1 = load ptr, ptr %_objectType, align 8
  %call = call noundef ptr @_ZN12_GLOBAL__N_110ReturnTypeIPN6hermes6ESTree4NodeEE3getES4_(ptr noundef %1)
  ret ptr %call
}

; Function Attrs: mustprogress nounwind uwtable
define hidden ptr @hermes_get_TSIndexedAccessType_indexType(ptr noundef %node) #0 {
entry:
  %node.addr = alloca ptr, align 8
  store ptr %node, ptr %node.addr, align 8
  %0 = load ptr, ptr %node.addr, align 8
  %_indexType = getelementptr inbounds %"class.hermes::ESTree::TSIndexedAccessTypeNode", ptr %0, i32 0, i32 2
  %1 = load ptr, ptr %_indexType, align 8
  %call = call noundef ptr @_ZN12_GLOBAL__N_110ReturnTypeIPN6hermes6ESTree4NodeEE3getES4_(ptr noundef %1)
  ret ptr %call
}

; Function Attrs: mustprogress nounwind uwtable
define hidden ptr @hermes_get_TSArrayType_elementType(ptr noundef %node) #0 {
entry:
  %node.addr = alloca ptr, align 8
  store ptr %node, ptr %node.addr, align 8
  %0 = load ptr, ptr %node.addr, align 8
  %_elementType = getelementptr inbounds %"class.hermes::ESTree::TSArrayTypeNode", ptr %0, i32 0, i32 1
  %1 = load ptr, ptr %_elementType, align 8
  %call = call noundef ptr @_ZN12_GLOBAL__N_110ReturnTypeIPN6hermes6ESTree4NodeEE3getES4_(ptr noundef %1)
  ret ptr %call
}

; Function Attrs: mustprogress nounwind uwtable
define hidden ptr @hermes_get_TSTypeReference_typeName(ptr noundef %node) #0 {
entry:
  %node.addr = alloca ptr, align 8
  store ptr %node, ptr %node.addr, align 8
  %0 = load ptr, ptr %node.addr, align 8
  %_typeName = getelementptr inbounds %"class.hermes::ESTree::TSTypeReferenceNode", ptr %0, i32 0, i32 1
  %1 = load ptr, ptr %_typeName, align 8
  %call = call noundef ptr @_ZN12_GLOBAL__N_110ReturnTypeIPN6hermes6ESTree4NodeEE3getES4_(ptr noundef %1)
  ret ptr %call
}

; Function Attrs: mustprogress nounwind uwtable
define hidden ptr @hermes_get_TSTypeReference_typeParameters(ptr noundef %node) #0 {
entry:
  %node.addr = alloca ptr, align 8
  store ptr %node, ptr %node.addr, align 8
  %0 = load ptr, ptr %node.addr, align 8
  %_typeParameters = getelementptr inbounds %"class.hermes::ESTree::TSTypeReferenceNode", ptr %0, i32 0, i32 2
  %1 = load ptr, ptr %_typeParameters, align 8
  %call = call noundef ptr @_ZN12_GLOBAL__N_110ReturnTypeIPN6hermes6ESTree4NodeEE3getES4_(ptr noundef %1)
  ret ptr %call
}

; Function Attrs: mustprogress nounwind uwtable
define hidden ptr @hermes_get_TSQualifiedName_left(ptr noundef %node) #0 {
entry:
  %node.addr = alloca ptr, align 8
  store ptr %node, ptr %node.addr, align 8
  %0 = load ptr, ptr %node.addr, align 8
  %_left = getelementptr inbounds %"class.hermes::ESTree::TSQualifiedNameNode", ptr %0, i32 0, i32 1
  %1 = load ptr, ptr %_left, align 8
  %call = call noundef ptr @_ZN12_GLOBAL__N_110ReturnTypeIPN6hermes6ESTree4NodeEE3getES4_(ptr noundef %1)
  ret ptr %call
}

; Function Attrs: mustprogress nounwind uwtable
define hidden ptr @hermes_get_TSQualifiedName_right(ptr noundef %node) #0 {
entry:
  %node.addr = alloca ptr, align 8
  store ptr %node, ptr %node.addr, align 8
  %0 = load ptr, ptr %node.addr, align 8
  %_right = getelementptr inbounds %"class.hermes::ESTree::TSQualifiedNameNode", ptr %0, i32 0, i32 2
  %1 = load ptr, ptr %_right, align 8
  %call = call noundef ptr @_ZN12_GLOBAL__N_110ReturnTypeIPN6hermes6ESTree4NodeEE3getES4_(ptr noundef %1)
  ret ptr %call
}

; Function Attrs: mustprogress nounwind uwtable
define hidden ptr @hermes_get_TSFunctionType_params(ptr noundef %node) #0 {
entry:
  %node.addr = alloca ptr, align 8
  store ptr %node, ptr %node.addr, align 8
  %0 = load ptr, ptr %node.addr, align 8
  %_params = getelementptr inbounds %"class.hermes::ESTree::TSFunctionTypeNode", ptr %0, i32 0, i32 1
  %call = call noundef ptr @_ZN12_GLOBAL__N_110ReturnTypeIN4llvh12simple_ilistIN6hermes6ESTree4NodeEJEEEE3getERKS6_(ptr noundef nonnull align 8 dereferenceable(16) %_params)
  ret ptr %call
}

; Function Attrs: mustprogress nounwind uwtable
define hidden ptr @hermes_get_TSFunctionType_returnType(ptr noundef %node) #0 {
entry:
  %node.addr = alloca ptr, align 8
  store ptr %node, ptr %node.addr, align 8
  %0 = load ptr, ptr %node.addr, align 8
  %_returnType = getelementptr inbounds %"class.hermes::ESTree::TSFunctionTypeNode", ptr %0, i32 0, i32 2
  %1 = load ptr, ptr %_returnType, align 8
  %call = call noundef ptr @_ZN12_GLOBAL__N_110ReturnTypeIPN6hermes6ESTree4NodeEE3getES4_(ptr noundef %1)
  ret ptr %call
}

; Function Attrs: mustprogress nounwind uwtable
define hidden ptr @hermes_get_TSFunctionType_typeParameters(ptr noundef %node) #0 {
entry:
  %node.addr = alloca ptr, align 8
  store ptr %node, ptr %node.addr, align 8
  %0 = load ptr, ptr %node.addr, align 8
  %_typeParameters = getelementptr inbounds %"class.hermes::ESTree::TSFunctionTypeNode", ptr %0, i32 0, i32 3
  %1 = load ptr, ptr %_typeParameters, align 8
  %call = call noundef ptr @_ZN12_GLOBAL__N_110ReturnTypeIPN6hermes6ESTree4NodeEE3getES4_(ptr noundef %1)
  ret ptr %call
}

; Function Attrs: mustprogress nounwind uwtable
define hidden ptr @hermes_get_TSConstructorType_params(ptr noundef %node) #0 {
entry:
  %node.addr = alloca ptr, align 8
  store ptr %node, ptr %node.addr, align 8
  %0 = load ptr, ptr %node.addr, align 8
  %_params = getelementptr inbounds %"class.hermes::ESTree::TSConstructorTypeNode", ptr %0, i32 0, i32 1
  %call = call noundef ptr @_ZN12_GLOBAL__N_110ReturnTypeIN4llvh12simple_ilistIN6hermes6ESTree4NodeEJEEEE3getERKS6_(ptr noundef nonnull align 8 dereferenceable(16) %_params)
  ret ptr %call
}

; Function Attrs: mustprogress nounwind uwtable
define hidden ptr @hermes_get_TSConstructorType_returnType(ptr noundef %node) #0 {
entry:
  %node.addr = alloca ptr, align 8
  store ptr %node, ptr %node.addr, align 8
  %0 = load ptr, ptr %node.addr, align 8
  %_returnType = getelementptr inbounds %"class.hermes::ESTree::TSConstructorTypeNode", ptr %0, i32 0, i32 2
  %1 = load ptr, ptr %_returnType, align 8
  %call = call noundef ptr @_ZN12_GLOBAL__N_110ReturnTypeIPN6hermes6ESTree4NodeEE3getES4_(ptr noundef %1)
  ret ptr %call
}

; Function Attrs: mustprogress nounwind uwtable
define hidden ptr @hermes_get_TSConstructorType_typeParameters(ptr noundef %node) #0 {
entry:
  %node.addr = alloca ptr, align 8
  store ptr %node, ptr %node.addr, align 8
  %0 = load ptr, ptr %node.addr, align 8
  %_typeParameters = getelementptr inbounds %"class.hermes::ESTree::TSConstructorTypeNode", ptr %0, i32 0, i32 3
  %1 = load ptr, ptr %_typeParameters, align 8
  %call = call noundef ptr @_ZN12_GLOBAL__N_110ReturnTypeIPN6hermes6ESTree4NodeEE3getES4_(ptr noundef %1)
  ret ptr %call
}

; Function Attrs: mustprogress nounwind uwtable
define hidden ptr @hermes_get_TSTypePredicate_parameterName(ptr noundef %node) #0 {
entry:
  %node.addr = alloca ptr, align 8
  store ptr %node, ptr %node.addr, align 8
  %0 = load ptr, ptr %node.addr, align 8
  %_parameterName = getelementptr inbounds %"class.hermes::ESTree::TSTypePredicateNode", ptr %0, i32 0, i32 1
  %1 = load ptr, ptr %_parameterName, align 8
  %call = call noundef ptr @_ZN12_GLOBAL__N_110ReturnTypeIPN6hermes6ESTree4NodeEE3getES4_(ptr noundef %1)
  ret ptr %call
}

; Function Attrs: mustprogress nounwind uwtable
define hidden ptr @hermes_get_TSTypePredicate_typeAnnotation(ptr noundef %node) #0 {
entry:
  %node.addr = alloca ptr, align 8
  store ptr %node, ptr %node.addr, align 8
  %0 = load ptr, ptr %node.addr, align 8
  %_typeAnnotation = getelementptr inbounds %"class.hermes::ESTree::TSTypePredicateNode", ptr %0, i32 0, i32 2
  %1 = load ptr, ptr %_typeAnnotation, align 8
  %call = call noundef ptr @_ZN12_GLOBAL__N_110ReturnTypeIPN6hermes6ESTree4NodeEE3getES4_(ptr noundef %1)
  ret ptr %call
}

; Function Attrs: mustprogress nounwind uwtable
define hidden ptr @hermes_get_TSTupleType_elementTypes(ptr noundef %node) #0 {
entry:
  %node.addr = alloca ptr, align 8
  store ptr %node, ptr %node.addr, align 8
  %0 = load ptr, ptr %node.addr, align 8
  %_elementTypes = getelementptr inbounds %"class.hermes::ESTree::TSTupleTypeNode", ptr %0, i32 0, i32 1
  %call = call noundef ptr @_ZN12_GLOBAL__N_110ReturnTypeIN4llvh12simple_ilistIN6hermes6ESTree4NodeEJEEEE3getERKS6_(ptr noundef nonnull align 8 dereferenceable(16) %_elementTypes)
  ret ptr %call
}

; Function Attrs: mustprogress nounwind uwtable
define hidden ptr @hermes_get_TSTypeAssertion_typeAnnotation(ptr noundef %node) #0 {
entry:
  %node.addr = alloca ptr, align 8
  store ptr %node, ptr %node.addr, align 8
  %0 = load ptr, ptr %node.addr, align 8
  %_typeAnnotation = getelementptr inbounds %"class.hermes::ESTree::TSTypeAssertionNode", ptr %0, i32 0, i32 1
  %1 = load ptr, ptr %_typeAnnotation, align 8
  %call = call noundef ptr @_ZN12_GLOBAL__N_110ReturnTypeIPN6hermes6ESTree4NodeEE3getES4_(ptr noundef %1)
  ret ptr %call
}

; Function Attrs: mustprogress nounwind uwtable
define hidden ptr @hermes_get_TSTypeAssertion_expression(ptr noundef %node) #0 {
entry:
  %node.addr = alloca ptr, align 8
  store ptr %node, ptr %node.addr, align 8
  %0 = load ptr, ptr %node.addr, align 8
  %_expression = getelementptr inbounds %"class.hermes::ESTree::TSTypeAssertionNode", ptr %0, i32 0, i32 2
  %1 = load ptr, ptr %_expression, align 8
  %call = call noundef ptr @_ZN12_GLOBAL__N_110ReturnTypeIPN6hermes6ESTree4NodeEE3getES4_(ptr noundef %1)
  ret ptr %call
}

; Function Attrs: mustprogress nounwind uwtable
define hidden ptr @hermes_get_TSAsExpression_expression(ptr noundef %node) #0 {
entry:
  %node.addr = alloca ptr, align 8
  store ptr %node, ptr %node.addr, align 8
  %0 = load ptr, ptr %node.addr, align 8
  %_expression = getelementptr inbounds %"class.hermes::ESTree::TSAsExpressionNode", ptr %0, i32 0, i32 1
  %1 = load ptr, ptr %_expression, align 8
  %call = call noundef ptr @_ZN12_GLOBAL__N_110ReturnTypeIPN6hermes6ESTree4NodeEE3getES4_(ptr noundef %1)
  ret ptr %call
}

; Function Attrs: mustprogress nounwind uwtable
define hidden ptr @hermes_get_TSAsExpression_typeAnnotation(ptr noundef %node) #0 {
entry:
  %node.addr = alloca ptr, align 8
  store ptr %node, ptr %node.addr, align 8
  %0 = load ptr, ptr %node.addr, align 8
  %_typeAnnotation = getelementptr inbounds %"class.hermes::ESTree::TSAsExpressionNode", ptr %0, i32 0, i32 2
  %1 = load ptr, ptr %_typeAnnotation, align 8
  %call = call noundef ptr @_ZN12_GLOBAL__N_110ReturnTypeIPN6hermes6ESTree4NodeEE3getES4_(ptr noundef %1)
  ret ptr %call
}

; Function Attrs: mustprogress nounwind uwtable
define hidden ptr @hermes_get_TSParameterProperty_parameter(ptr noundef %node) #0 {
entry:
  %node.addr = alloca ptr, align 8
  store ptr %node, ptr %node.addr, align 8
  %0 = load ptr, ptr %node.addr, align 8
  %_parameter = getelementptr inbounds %"class.hermes::ESTree::TSParameterPropertyNode", ptr %0, i32 0, i32 1
  %1 = load ptr, ptr %_parameter, align 8
  %call = call noundef ptr @_ZN12_GLOBAL__N_110ReturnTypeIPN6hermes6ESTree4NodeEE3getES4_(ptr noundef %1)
  ret ptr %call
}

; Function Attrs: mustprogress nounwind uwtable
define hidden ptr @hermes_get_TSParameterProperty_accessibility(ptr noundef %node) #0 {
entry:
  %node.addr = alloca ptr, align 8
  store ptr %node, ptr %node.addr, align 8
  %0 = load ptr, ptr %node.addr, align 8
  %_accessibility = getelementptr inbounds %"class.hermes::ESTree::TSParameterPropertyNode", ptr %0, i32 0, i32 2
  %1 = load ptr, ptr %_accessibility, align 8
  %call = call noundef ptr @_ZN12_GLOBAL__N_110ReturnTypeIPN6hermes12UniqueStringEE3getES3_(ptr noundef %1)
  ret ptr %call
}

; Function Attrs: mustprogress nounwind uwtable
define hidden zeroext i1 @hermes_get_TSParameterProperty_readonly(ptr noundef %node) #0 {
entry:
  %node.addr = alloca ptr, align 8
  store ptr %node, ptr %node.addr, align 8
  %0 = load ptr, ptr %node.addr, align 8
  %_readonly = getelementptr inbounds %"class.hermes::ESTree::TSParameterPropertyNode", ptr %0, i32 0, i32 3
  %1 = load i8, ptr %_readonly, align 8
  %tobool = trunc i8 %1 to i1
  %call = call noundef zeroext i1 @_ZN12_GLOBAL__N_110ReturnTypeIbE3getEb(i1 noundef zeroext %tobool)
  ret i1 %call
}

; Function Attrs: mustprogress nounwind uwtable
define hidden zeroext i1 @hermes_get_TSParameterProperty_static(ptr noundef %node) #0 {
entry:
  %node.addr = alloca ptr, align 8
  store ptr %node, ptr %node.addr, align 8
  %0 = load ptr, ptr %node.addr, align 8
  %_static = getelementptr inbounds %"class.hermes::ESTree::TSParameterPropertyNode", ptr %0, i32 0, i32 4
  %1 = load i8, ptr %_static, align 1
  %tobool = trunc i8 %1 to i1
  %call = call noundef zeroext i1 @_ZN12_GLOBAL__N_110ReturnTypeIbE3getEb(i1 noundef zeroext %tobool)
  ret i1 %call
}

; Function Attrs: mustprogress nounwind uwtable
define hidden zeroext i1 @hermes_get_TSParameterProperty_export(ptr noundef %node) #0 {
entry:
  %node.addr = alloca ptr, align 8
  store ptr %node, ptr %node.addr, align 8
  %0 = load ptr, ptr %node.addr, align 8
  %_export = getelementptr inbounds %"class.hermes::ESTree::TSParameterPropertyNode", ptr %0, i32 0, i32 5
  %1 = load i8, ptr %_export, align 2
  %tobool = trunc i8 %1 to i1
  %call = call noundef zeroext i1 @_ZN12_GLOBAL__N_110ReturnTypeIbE3getEb(i1 noundef zeroext %tobool)
  ret i1 %call
}

; Function Attrs: mustprogress nounwind uwtable
define hidden ptr @hermes_get_TSTypeAliasDeclaration_id(ptr noundef %node) #0 {
entry:
  %node.addr = alloca ptr, align 8
  store ptr %node, ptr %node.addr, align 8
  %0 = load ptr, ptr %node.addr, align 8
  %_id = getelementptr inbounds %"class.hermes::ESTree::TSTypeAliasDeclarationNode", ptr %0, i32 0, i32 1
  %1 = load ptr, ptr %_id, align 8
  %call = call noundef ptr @_ZN12_GLOBAL__N_110ReturnTypeIPN6hermes6ESTree4NodeEE3getES4_(ptr noundef %1)
  ret ptr %call
}

; Function Attrs: mustprogress nounwind uwtable
define hidden ptr @hermes_get_TSTypeAliasDeclaration_typeParameters(ptr noundef %node) #0 {
entry:
  %node.addr = alloca ptr, align 8
  store ptr %node, ptr %node.addr, align 8
  %0 = load ptr, ptr %node.addr, align 8
  %_typeParameters = getelementptr inbounds %"class.hermes::ESTree::TSTypeAliasDeclarationNode", ptr %0, i32 0, i32 2
  %1 = load ptr, ptr %_typeParameters, align 8
  %call = call noundef ptr @_ZN12_GLOBAL__N_110ReturnTypeIPN6hermes6ESTree4NodeEE3getES4_(ptr noundef %1)
  ret ptr %call
}

; Function Attrs: mustprogress nounwind uwtable
define hidden ptr @hermes_get_TSTypeAliasDeclaration_typeAnnotation(ptr noundef %node) #0 {
entry:
  %node.addr = alloca ptr, align 8
  store ptr %node, ptr %node.addr, align 8
  %0 = load ptr, ptr %node.addr, align 8
  %_typeAnnotation = getelementptr inbounds %"class.hermes::ESTree::TSTypeAliasDeclarationNode", ptr %0, i32 0, i32 3
  %1 = load ptr, ptr %_typeAnnotation, align 8
  %call = call noundef ptr @_ZN12_GLOBAL__N_110ReturnTypeIPN6hermes6ESTree4NodeEE3getES4_(ptr noundef %1)
  ret ptr %call
}

; Function Attrs: mustprogress nounwind uwtable
define hidden ptr @hermes_get_TSInterfaceDeclaration_id(ptr noundef %node) #0 {
entry:
  %node.addr = alloca ptr, align 8
  store ptr %node, ptr %node.addr, align 8
  %0 = load ptr, ptr %node.addr, align 8
  %_id = getelementptr inbounds %"class.hermes::ESTree::TSInterfaceDeclarationNode", ptr %0, i32 0, i32 1
  %1 = load ptr, ptr %_id, align 8
  %call = call noundef ptr @_ZN12_GLOBAL__N_110ReturnTypeIPN6hermes6ESTree4NodeEE3getES4_(ptr noundef %1)
  ret ptr %call
}

; Function Attrs: mustprogress nounwind uwtable
define hidden ptr @hermes_get_TSInterfaceDeclaration_body(ptr noundef %node) #0 {
entry:
  %node.addr = alloca ptr, align 8
  store ptr %node, ptr %node.addr, align 8
  %0 = load ptr, ptr %node.addr, align 8
  %_body = getelementptr inbounds %"class.hermes::ESTree::TSInterfaceDeclarationNode", ptr %0, i32 0, i32 2
  %1 = load ptr, ptr %_body, align 8
  %call = call noundef ptr @_ZN12_GLOBAL__N_110ReturnTypeIPN6hermes6ESTree4NodeEE3getES4_(ptr noundef %1)
  ret ptr %call
}

; Function Attrs: mustprogress nounwind uwtable
define hidden ptr @hermes_get_TSInterfaceDeclaration_extends(ptr noundef %node) #0 {
entry:
  %node.addr = alloca ptr, align 8
  store ptr %node, ptr %node.addr, align 8
  %0 = load ptr, ptr %node.addr, align 8
  %_extends = getelementptr inbounds %"class.hermes::ESTree::TSInterfaceDeclarationNode", ptr %0, i32 0, i32 3
  %call = call noundef ptr @_ZN12_GLOBAL__N_110ReturnTypeIN4llvh12simple_ilistIN6hermes6ESTree4NodeEJEEEE3getERKS6_(ptr noundef nonnull align 8 dereferenceable(16) %_extends)
  ret ptr %call
}

; Function Attrs: mustprogress nounwind uwtable
define hidden ptr @hermes_get_TSInterfaceDeclaration_typeParameters(ptr noundef %node) #0 {
entry:
  %node.addr = alloca ptr, align 8
  store ptr %node, ptr %node.addr, align 8
  %0 = load ptr, ptr %node.addr, align 8
  %_typeParameters = getelementptr inbounds %"class.hermes::ESTree::TSInterfaceDeclarationNode", ptr %0, i32 0, i32 4
  %1 = load ptr, ptr %_typeParameters, align 8
  %call = call noundef ptr @_ZN12_GLOBAL__N_110ReturnTypeIPN6hermes6ESTree4NodeEE3getES4_(ptr noundef %1)
  ret ptr %call
}

; Function Attrs: mustprogress nounwind uwtable
define hidden ptr @hermes_get_TSInterfaceHeritage_expression(ptr noundef %node) #0 {
entry:
  %node.addr = alloca ptr, align 8
  store ptr %node, ptr %node.addr, align 8
  %0 = load ptr, ptr %node.addr, align 8
  %_expression = getelementptr inbounds %"class.hermes::ESTree::TSInterfaceHeritageNode", ptr %0, i32 0, i32 1
  %1 = load ptr, ptr %_expression, align 8
  %call = call noundef ptr @_ZN12_GLOBAL__N_110ReturnTypeIPN6hermes6ESTree4NodeEE3getES4_(ptr noundef %1)
  ret ptr %call
}

; Function Attrs: mustprogress nounwind uwtable
define hidden ptr @hermes_get_TSInterfaceHeritage_typeParameters(ptr noundef %node) #0 {
entry:
  %node.addr = alloca ptr, align 8
  store ptr %node, ptr %node.addr, align 8
  %0 = load ptr, ptr %node.addr, align 8
  %_typeParameters = getelementptr inbounds %"class.hermes::ESTree::TSInterfaceHeritageNode", ptr %0, i32 0, i32 2
  %1 = load ptr, ptr %_typeParameters, align 8
  %call = call noundef ptr @_ZN12_GLOBAL__N_110ReturnTypeIPN6hermes6ESTree4NodeEE3getES4_(ptr noundef %1)
  ret ptr %call
}

; Function Attrs: mustprogress nounwind uwtable
define hidden ptr @hermes_get_TSInterfaceBody_body(ptr noundef %node) #0 {
entry:
  %node.addr = alloca ptr, align 8
  store ptr %node, ptr %node.addr, align 8
  %0 = load ptr, ptr %node.addr, align 8
  %_body = getelementptr inbounds %"class.hermes::ESTree::TSInterfaceBodyNode", ptr %0, i32 0, i32 1
  %call = call noundef ptr @_ZN12_GLOBAL__N_110ReturnTypeIN4llvh12simple_ilistIN6hermes6ESTree4NodeEJEEEE3getERKS6_(ptr noundef nonnull align 8 dereferenceable(16) %_body)
  ret ptr %call
}

; Function Attrs: mustprogress nounwind uwtable
define hidden ptr @hermes_get_TSEnumDeclaration_id(ptr noundef %node) #0 {
entry:
  %node.addr = alloca ptr, align 8
  store ptr %node, ptr %node.addr, align 8
  %0 = load ptr, ptr %node.addr, align 8
  %_id = getelementptr inbounds %"class.hermes::ESTree::TSEnumDeclarationNode", ptr %0, i32 0, i32 1
  %1 = load ptr, ptr %_id, align 8
  %call = call noundef ptr @_ZN12_GLOBAL__N_110ReturnTypeIPN6hermes6ESTree4NodeEE3getES4_(ptr noundef %1)
  ret ptr %call
}

; Function Attrs: mustprogress nounwind uwtable
define hidden ptr @hermes_get_TSEnumDeclaration_members(ptr noundef %node) #0 {
entry:
  %node.addr = alloca ptr, align 8
  store ptr %node, ptr %node.addr, align 8
  %0 = load ptr, ptr %node.addr, align 8
  %_members = getelementptr inbounds %"class.hermes::ESTree::TSEnumDeclarationNode", ptr %0, i32 0, i32 2
  %call = call noundef ptr @_ZN12_GLOBAL__N_110ReturnTypeIN4llvh12simple_ilistIN6hermes6ESTree4NodeEJEEEE3getERKS6_(ptr noundef nonnull align 8 dereferenceable(16) %_members)
  ret ptr %call
}

; Function Attrs: mustprogress nounwind uwtable
define hidden ptr @hermes_get_TSEnumMember_id(ptr noundef %node) #0 {
entry:
  %node.addr = alloca ptr, align 8
  store ptr %node, ptr %node.addr, align 8
  %0 = load ptr, ptr %node.addr, align 8
  %_id = getelementptr inbounds %"class.hermes::ESTree::TSEnumMemberNode", ptr %0, i32 0, i32 1
  %1 = load ptr, ptr %_id, align 8
  %call = call noundef ptr @_ZN12_GLOBAL__N_110ReturnTypeIPN6hermes6ESTree4NodeEE3getES4_(ptr noundef %1)
  ret ptr %call
}

; Function Attrs: mustprogress nounwind uwtable
define hidden ptr @hermes_get_TSEnumMember_initializer(ptr noundef %node) #0 {
entry:
  %node.addr = alloca ptr, align 8
  store ptr %node, ptr %node.addr, align 8
  %0 = load ptr, ptr %node.addr, align 8
  %_initializer = getelementptr inbounds %"class.hermes::ESTree::TSEnumMemberNode", ptr %0, i32 0, i32 2
  %1 = load ptr, ptr %_initializer, align 8
  %call = call noundef ptr @_ZN12_GLOBAL__N_110ReturnTypeIPN6hermes6ESTree4NodeEE3getES4_(ptr noundef %1)
  ret ptr %call
}

; Function Attrs: mustprogress nounwind uwtable
define hidden ptr @hermes_get_TSModuleDeclaration_id(ptr noundef %node) #0 {
entry:
  %node.addr = alloca ptr, align 8
  store ptr %node, ptr %node.addr, align 8
  %0 = load ptr, ptr %node.addr, align 8
  %_id = getelementptr inbounds %"class.hermes::ESTree::TSModuleDeclarationNode", ptr %0, i32 0, i32 1
  %1 = load ptr, ptr %_id, align 8
  %call = call noundef ptr @_ZN12_GLOBAL__N_110ReturnTypeIPN6hermes6ESTree4NodeEE3getES4_(ptr noundef %1)
  ret ptr %call
}

; Function Attrs: mustprogress nounwind uwtable
define hidden ptr @hermes_get_TSModuleDeclaration_body(ptr noundef %node) #0 {
entry:
  %node.addr = alloca ptr, align 8
  store ptr %node, ptr %node.addr, align 8
  %0 = load ptr, ptr %node.addr, align 8
  %_body = getelementptr inbounds %"class.hermes::ESTree::TSModuleDeclarationNode", ptr %0, i32 0, i32 2
  %1 = load ptr, ptr %_body, align 8
  %call = call noundef ptr @_ZN12_GLOBAL__N_110ReturnTypeIPN6hermes6ESTree4NodeEE3getES4_(ptr noundef %1)
  ret ptr %call
}

; Function Attrs: mustprogress nounwind uwtable
define hidden ptr @hermes_get_TSModuleBlock_body(ptr noundef %node) #0 {
entry:
  %node.addr = alloca ptr, align 8
  store ptr %node, ptr %node.addr, align 8
  %0 = load ptr, ptr %node.addr, align 8
  %_body = getelementptr inbounds %"class.hermes::ESTree::TSModuleBlockNode", ptr %0, i32 0, i32 1
  %call = call noundef ptr @_ZN12_GLOBAL__N_110ReturnTypeIN4llvh12simple_ilistIN6hermes6ESTree4NodeEJEEEE3getERKS6_(ptr noundef nonnull align 8 dereferenceable(16) %_body)
  ret ptr %call
}

; Function Attrs: mustprogress nounwind uwtable
define hidden ptr @hermes_get_TSModuleMember_id(ptr noundef %node) #0 {
entry:
  %node.addr = alloca ptr, align 8
  store ptr %node, ptr %node.addr, align 8
  %0 = load ptr, ptr %node.addr, align 8
  %_id = getelementptr inbounds %"class.hermes::ESTree::TSModuleMemberNode", ptr %0, i32 0, i32 1
  %1 = load ptr, ptr %_id, align 8
  %call = call noundef ptr @_ZN12_GLOBAL__N_110ReturnTypeIPN6hermes6ESTree4NodeEE3getES4_(ptr noundef %1)
  ret ptr %call
}

; Function Attrs: mustprogress nounwind uwtable
define hidden ptr @hermes_get_TSModuleMember_initializer(ptr noundef %node) #0 {
entry:
  %node.addr = alloca ptr, align 8
  store ptr %node, ptr %node.addr, align 8
  %0 = load ptr, ptr %node.addr, align 8
  %_initializer = getelementptr inbounds %"class.hermes::ESTree::TSModuleMemberNode", ptr %0, i32 0, i32 2
  %1 = load ptr, ptr %_initializer, align 8
  %call = call noundef ptr @_ZN12_GLOBAL__N_110ReturnTypeIPN6hermes6ESTree4NodeEE3getES4_(ptr noundef %1)
  ret ptr %call
}

; Function Attrs: mustprogress nounwind uwtable
define hidden ptr @hermes_get_TSTypeParameterDeclaration_params(ptr noundef %node) #0 {
entry:
  %node.addr = alloca ptr, align 8
  store ptr %node, ptr %node.addr, align 8
  %0 = load ptr, ptr %node.addr, align 8
  %_params = getelementptr inbounds %"class.hermes::ESTree::TSTypeParameterDeclarationNode", ptr %0, i32 0, i32 1
  %call = call noundef ptr @_ZN12_GLOBAL__N_110ReturnTypeIN4llvh12simple_ilistIN6hermes6ESTree4NodeEJEEEE3getERKS6_(ptr noundef nonnull align 8 dereferenceable(16) %_params)
  ret ptr %call
}

; Function Attrs: mustprogress nounwind uwtable
define hidden ptr @hermes_get_TSTypeParameter_name(ptr noundef %node) #0 {
entry:
  %node.addr = alloca ptr, align 8
  store ptr %node, ptr %node.addr, align 8
  %0 = load ptr, ptr %node.addr, align 8
  %_name = getelementptr inbounds %"class.hermes::ESTree::TSTypeParameterNode", ptr %0, i32 0, i32 1
  %1 = load ptr, ptr %_name, align 8
  %call = call noundef ptr @_ZN12_GLOBAL__N_110ReturnTypeIPN6hermes6ESTree4NodeEE3getES4_(ptr noundef %1)
  ret ptr %call
}

; Function Attrs: mustprogress nounwind uwtable
define hidden ptr @hermes_get_TSTypeParameter_constraint(ptr noundef %node) #0 {
entry:
  %node.addr = alloca ptr, align 8
  store ptr %node, ptr %node.addr, align 8
  %0 = load ptr, ptr %node.addr, align 8
  %_constraint = getelementptr inbounds %"class.hermes::ESTree::TSTypeParameterNode", ptr %0, i32 0, i32 2
  %1 = load ptr, ptr %_constraint, align 8
  %call = call noundef ptr @_ZN12_GLOBAL__N_110ReturnTypeIPN6hermes6ESTree4NodeEE3getES4_(ptr noundef %1)
  ret ptr %call
}

; Function Attrs: mustprogress nounwind uwtable
define hidden ptr @hermes_get_TSTypeParameter_default(ptr noundef %node) #0 {
entry:
  %node.addr = alloca ptr, align 8
  store ptr %node, ptr %node.addr, align 8
  %0 = load ptr, ptr %node.addr, align 8
  %_default = getelementptr inbounds %"class.hermes::ESTree::TSTypeParameterNode", ptr %0, i32 0, i32 3
  %1 = load ptr, ptr %_default, align 8
  %call = call noundef ptr @_ZN12_GLOBAL__N_110ReturnTypeIPN6hermes6ESTree4NodeEE3getES4_(ptr noundef %1)
  ret ptr %call
}

; Function Attrs: mustprogress nounwind uwtable
define hidden ptr @hermes_get_TSTypeParameterInstantiation_params(ptr noundef %node) #0 {
entry:
  %node.addr = alloca ptr, align 8
  store ptr %node, ptr %node.addr, align 8
  %0 = load ptr, ptr %node.addr, align 8
  %_params = getelementptr inbounds %"class.hermes::ESTree::TSTypeParameterInstantiationNode", ptr %0, i32 0, i32 1
  %call = call noundef ptr @_ZN12_GLOBAL__N_110ReturnTypeIN4llvh12simple_ilistIN6hermes6ESTree4NodeEJEEEE3getERKS6_(ptr noundef nonnull align 8 dereferenceable(16) %_params)
  ret ptr %call
}

; Function Attrs: mustprogress nounwind uwtable
define hidden ptr @hermes_get_TSUnionType_types(ptr noundef %node) #0 {
entry:
  %node.addr = alloca ptr, align 8
  store ptr %node, ptr %node.addr, align 8
  %0 = load ptr, ptr %node.addr, align 8
  %_types = getelementptr inbounds %"class.hermes::ESTree::TSUnionTypeNode", ptr %0, i32 0, i32 1
  %call = call noundef ptr @_ZN12_GLOBAL__N_110ReturnTypeIN4llvh12simple_ilistIN6hermes6ESTree4NodeEJEEEE3getERKS6_(ptr noundef nonnull align 8 dereferenceable(16) %_types)
  ret ptr %call
}

; Function Attrs: mustprogress nounwind uwtable
define hidden ptr @hermes_get_TSIntersectionType_types(ptr noundef %node) #0 {
entry:
  %node.addr = alloca ptr, align 8
  store ptr %node, ptr %node.addr, align 8
  %0 = load ptr, ptr %node.addr, align 8
  %_types = getelementptr inbounds %"class.hermes::ESTree::TSIntersectionTypeNode", ptr %0, i32 0, i32 1
  %call = call noundef ptr @_ZN12_GLOBAL__N_110ReturnTypeIN4llvh12simple_ilistIN6hermes6ESTree4NodeEJEEEE3getERKS6_(ptr noundef nonnull align 8 dereferenceable(16) %_types)
  ret ptr %call
}

; Function Attrs: mustprogress nounwind uwtable
define hidden ptr @hermes_get_TSTypeQuery_exprName(ptr noundef %node) #0 {
entry:
  %node.addr = alloca ptr, align 8
  store ptr %node, ptr %node.addr, align 8
  %0 = load ptr, ptr %node.addr, align 8
  %_exprName = getelementptr inbounds %"class.hermes::ESTree::TSTypeQueryNode", ptr %0, i32 0, i32 1
  %1 = load ptr, ptr %_exprName, align 8
  %call = call noundef ptr @_ZN12_GLOBAL__N_110ReturnTypeIPN6hermes6ESTree4NodeEE3getES4_(ptr noundef %1)
  ret ptr %call
}

; Function Attrs: mustprogress nounwind uwtable
define hidden ptr @hermes_get_TSConditionalType_checkType(ptr noundef %node) #0 {
entry:
  %node.addr = alloca ptr, align 8
  store ptr %node, ptr %node.addr, align 8
  %0 = load ptr, ptr %node.addr, align 8
  %_checkType = getelementptr inbounds %"class.hermes::ESTree::TSConditionalTypeNode", ptr %0, i32 0, i32 1
  %1 = load ptr, ptr %_checkType, align 8
  %call = call noundef ptr @_ZN12_GLOBAL__N_110ReturnTypeIPN6hermes6ESTree4NodeEE3getES4_(ptr noundef %1)
  ret ptr %call
}

; Function Attrs: mustprogress nounwind uwtable
define hidden ptr @hermes_get_TSConditionalType_extendsType(ptr noundef %node) #0 {
entry:
  %node.addr = alloca ptr, align 8
  store ptr %node, ptr %node.addr, align 8
  %0 = load ptr, ptr %node.addr, align 8
  %_extendsType = getelementptr inbounds %"class.hermes::ESTree::TSConditionalTypeNode", ptr %0, i32 0, i32 2
  %1 = load ptr, ptr %_extendsType, align 8
  %call = call noundef ptr @_ZN12_GLOBAL__N_110ReturnTypeIPN6hermes6ESTree4NodeEE3getES4_(ptr noundef %1)
  ret ptr %call
}

; Function Attrs: mustprogress nounwind uwtable
define hidden ptr @hermes_get_TSConditionalType_trueType(ptr noundef %node) #0 {
entry:
  %node.addr = alloca ptr, align 8
  store ptr %node, ptr %node.addr, align 8
  %0 = load ptr, ptr %node.addr, align 8
  %_trueType = getelementptr inbounds %"class.hermes::ESTree::TSConditionalTypeNode", ptr %0, i32 0, i32 3
  %1 = load ptr, ptr %_trueType, align 8
  %call = call noundef ptr @_ZN12_GLOBAL__N_110ReturnTypeIPN6hermes6ESTree4NodeEE3getES4_(ptr noundef %1)
  ret ptr %call
}

; Function Attrs: mustprogress nounwind uwtable
define hidden ptr @hermes_get_TSConditionalType_falseType(ptr noundef %node) #0 {
entry:
  %node.addr = alloca ptr, align 8
  store ptr %node, ptr %node.addr, align 8
  %0 = load ptr, ptr %node.addr, align 8
  %_falseType = getelementptr inbounds %"class.hermes::ESTree::TSConditionalTypeNode", ptr %0, i32 0, i32 4
  %1 = load ptr, ptr %_falseType, align 8
  %call = call noundef ptr @_ZN12_GLOBAL__N_110ReturnTypeIPN6hermes6ESTree4NodeEE3getES4_(ptr noundef %1)
  ret ptr %call
}

; Function Attrs: mustprogress nounwind uwtable
define hidden ptr @hermes_get_TSTypeLiteral_members(ptr noundef %node) #0 {
entry:
  %node.addr = alloca ptr, align 8
  store ptr %node, ptr %node.addr, align 8
  %0 = load ptr, ptr %node.addr, align 8
  %_members = getelementptr inbounds %"class.hermes::ESTree::TSTypeLiteralNode", ptr %0, i32 0, i32 1
  %call = call noundef ptr @_ZN12_GLOBAL__N_110ReturnTypeIN4llvh12simple_ilistIN6hermes6ESTree4NodeEJEEEE3getERKS6_(ptr noundef nonnull align 8 dereferenceable(16) %_members)
  ret ptr %call
}

; Function Attrs: mustprogress nounwind uwtable
define hidden ptr @hermes_get_TSPropertySignature_key(ptr noundef %node) #0 {
entry:
  %node.addr = alloca ptr, align 8
  store ptr %node, ptr %node.addr, align 8
  %0 = load ptr, ptr %node.addr, align 8
  %_key = getelementptr inbounds %"class.hermes::ESTree::TSPropertySignatureNode", ptr %0, i32 0, i32 1
  %1 = load ptr, ptr %_key, align 8
  %call = call noundef ptr @_ZN12_GLOBAL__N_110ReturnTypeIPN6hermes6ESTree4NodeEE3getES4_(ptr noundef %1)
  ret ptr %call
}

; Function Attrs: mustprogress nounwind uwtable
define hidden ptr @hermes_get_TSPropertySignature_typeAnnotation(ptr noundef %node) #0 {
entry:
  %node.addr = alloca ptr, align 8
  store ptr %node, ptr %node.addr, align 8
  %0 = load ptr, ptr %node.addr, align 8
  %_typeAnnotation = getelementptr inbounds %"class.hermes::ESTree::TSPropertySignatureNode", ptr %0, i32 0, i32 2
  %1 = load ptr, ptr %_typeAnnotation, align 8
  %call = call noundef ptr @_ZN12_GLOBAL__N_110ReturnTypeIPN6hermes6ESTree4NodeEE3getES4_(ptr noundef %1)
  ret ptr %call
}

; Function Attrs: mustprogress nounwind uwtable
define hidden ptr @hermes_get_TSPropertySignature_initializer(ptr noundef %node) #0 {
entry:
  %node.addr = alloca ptr, align 8
  store ptr %node, ptr %node.addr, align 8
  %0 = load ptr, ptr %node.addr, align 8
  %_initializer = getelementptr inbounds %"class.hermes::ESTree::TSPropertySignatureNode", ptr %0, i32 0, i32 3
  %1 = load ptr, ptr %_initializer, align 8
  %call = call noundef ptr @_ZN12_GLOBAL__N_110ReturnTypeIPN6hermes6ESTree4NodeEE3getES4_(ptr noundef %1)
  ret ptr %call
}

; Function Attrs: mustprogress nounwind uwtable
define hidden zeroext i1 @hermes_get_TSPropertySignature_optional(ptr noundef %node) #0 {
entry:
  %node.addr = alloca ptr, align 8
  store ptr %node, ptr %node.addr, align 8
  %0 = load ptr, ptr %node.addr, align 8
  %_optional = getelementptr inbounds %"class.hermes::ESTree::TSPropertySignatureNode", ptr %0, i32 0, i32 4
  %1 = load i8, ptr %_optional, align 8
  %tobool = trunc i8 %1 to i1
  %call = call noundef zeroext i1 @_ZN12_GLOBAL__N_110ReturnTypeIbE3getEb(i1 noundef zeroext %tobool)
  ret i1 %call
}

; Function Attrs: mustprogress nounwind uwtable
define hidden zeroext i1 @hermes_get_TSPropertySignature_computed(ptr noundef %node) #0 {
entry:
  %node.addr = alloca ptr, align 8
  store ptr %node, ptr %node.addr, align 8
  %0 = load ptr, ptr %node.addr, align 8
  %_computed = getelementptr inbounds %"class.hermes::ESTree::TSPropertySignatureNode", ptr %0, i32 0, i32 5
  %1 = load i8, ptr %_computed, align 1
  %tobool = trunc i8 %1 to i1
  %call = call noundef zeroext i1 @_ZN12_GLOBAL__N_110ReturnTypeIbE3getEb(i1 noundef zeroext %tobool)
  ret i1 %call
}

; Function Attrs: mustprogress nounwind uwtable
define hidden zeroext i1 @hermes_get_TSPropertySignature_readonly(ptr noundef %node) #0 {
entry:
  %node.addr = alloca ptr, align 8
  store ptr %node, ptr %node.addr, align 8
  %0 = load ptr, ptr %node.addr, align 8
  %_readonly = getelementptr inbounds %"class.hermes::ESTree::TSPropertySignatureNode", ptr %0, i32 0, i32 6
  %1 = load i8, ptr %_readonly, align 2
  %tobool = trunc i8 %1 to i1
  %call = call noundef zeroext i1 @_ZN12_GLOBAL__N_110ReturnTypeIbE3getEb(i1 noundef zeroext %tobool)
  ret i1 %call
}

; Function Attrs: mustprogress nounwind uwtable
define hidden zeroext i1 @hermes_get_TSPropertySignature_static(ptr noundef %node) #0 {
entry:
  %node.addr = alloca ptr, align 8
  store ptr %node, ptr %node.addr, align 8
  %0 = load ptr, ptr %node.addr, align 8
  %_static = getelementptr inbounds %"class.hermes::ESTree::TSPropertySignatureNode", ptr %0, i32 0, i32 7
  %1 = load i8, ptr %_static, align 1
  %tobool = trunc i8 %1 to i1
  %call = call noundef zeroext i1 @_ZN12_GLOBAL__N_110ReturnTypeIbE3getEb(i1 noundef zeroext %tobool)
  ret i1 %call
}

; Function Attrs: mustprogress nounwind uwtable
define hidden zeroext i1 @hermes_get_TSPropertySignature_export(ptr noundef %node) #0 {
entry:
  %node.addr = alloca ptr, align 8
  store ptr %node, ptr %node.addr, align 8
  %0 = load ptr, ptr %node.addr, align 8
  %_export = getelementptr inbounds %"class.hermes::ESTree::TSPropertySignatureNode", ptr %0, i32 0, i32 8
  %1 = load i8, ptr %_export, align 4
  %tobool = trunc i8 %1 to i1
  %call = call noundef zeroext i1 @_ZN12_GLOBAL__N_110ReturnTypeIbE3getEb(i1 noundef zeroext %tobool)
  ret i1 %call
}

; Function Attrs: mustprogress nounwind uwtable
define hidden ptr @hermes_get_TSMethodSignature_key(ptr noundef %node) #0 {
entry:
  %node.addr = alloca ptr, align 8
  store ptr %node, ptr %node.addr, align 8
  %0 = load ptr, ptr %node.addr, align 8
  %_key = getelementptr inbounds %"class.hermes::ESTree::TSMethodSignatureNode", ptr %0, i32 0, i32 1
  %1 = load ptr, ptr %_key, align 8
  %call = call noundef ptr @_ZN12_GLOBAL__N_110ReturnTypeIPN6hermes6ESTree4NodeEE3getES4_(ptr noundef %1)
  ret ptr %call
}

; Function Attrs: mustprogress nounwind uwtable
define hidden ptr @hermes_get_TSMethodSignature_params(ptr noundef %node) #0 {
entry:
  %node.addr = alloca ptr, align 8
  store ptr %node, ptr %node.addr, align 8
  %0 = load ptr, ptr %node.addr, align 8
  %_params = getelementptr inbounds %"class.hermes::ESTree::TSMethodSignatureNode", ptr %0, i32 0, i32 2
  %call = call noundef ptr @_ZN12_GLOBAL__N_110ReturnTypeIN4llvh12simple_ilistIN6hermes6ESTree4NodeEJEEEE3getERKS6_(ptr noundef nonnull align 8 dereferenceable(16) %_params)
  ret ptr %call
}

; Function Attrs: mustprogress nounwind uwtable
define hidden ptr @hermes_get_TSMethodSignature_returnType(ptr noundef %node) #0 {
entry:
  %node.addr = alloca ptr, align 8
  store ptr %node, ptr %node.addr, align 8
  %0 = load ptr, ptr %node.addr, align 8
  %_returnType = getelementptr inbounds %"class.hermes::ESTree::TSMethodSignatureNode", ptr %0, i32 0, i32 3
  %1 = load ptr, ptr %_returnType, align 8
  %call = call noundef ptr @_ZN12_GLOBAL__N_110ReturnTypeIPN6hermes6ESTree4NodeEE3getES4_(ptr noundef %1)
  ret ptr %call
}

; Function Attrs: mustprogress nounwind uwtable
define hidden zeroext i1 @hermes_get_TSMethodSignature_computed(ptr noundef %node) #0 {
entry:
  %node.addr = alloca ptr, align 8
  store ptr %node, ptr %node.addr, align 8
  %0 = load ptr, ptr %node.addr, align 8
  %_computed = getelementptr inbounds %"class.hermes::ESTree::TSMethodSignatureNode", ptr %0, i32 0, i32 4
  %1 = load i8, ptr %_computed, align 8
  %tobool = trunc i8 %1 to i1
  %call = call noundef zeroext i1 @_ZN12_GLOBAL__N_110ReturnTypeIbE3getEb(i1 noundef zeroext %tobool)
  ret i1 %call
}

; Function Attrs: mustprogress nounwind uwtable
define hidden ptr @hermes_get_TSIndexSignature_parameters(ptr noundef %node) #0 {
entry:
  %node.addr = alloca ptr, align 8
  store ptr %node, ptr %node.addr, align 8
  %0 = load ptr, ptr %node.addr, align 8
  %_parameters = getelementptr inbounds %"class.hermes::ESTree::TSIndexSignatureNode", ptr %0, i32 0, i32 1
  %call = call noundef ptr @_ZN12_GLOBAL__N_110ReturnTypeIN4llvh12simple_ilistIN6hermes6ESTree4NodeEJEEEE3getERKS6_(ptr noundef nonnull align 8 dereferenceable(16) %_parameters)
  ret ptr %call
}

; Function Attrs: mustprogress nounwind uwtable
define hidden ptr @hermes_get_TSIndexSignature_typeAnnotation(ptr noundef %node) #0 {
entry:
  %node.addr = alloca ptr, align 8
  store ptr %node, ptr %node.addr, align 8
  %0 = load ptr, ptr %node.addr, align 8
  %_typeAnnotation = getelementptr inbounds %"class.hermes::ESTree::TSIndexSignatureNode", ptr %0, i32 0, i32 2
  %1 = load ptr, ptr %_typeAnnotation, align 8
  %call = call noundef ptr @_ZN12_GLOBAL__N_110ReturnTypeIPN6hermes6ESTree4NodeEE3getES4_(ptr noundef %1)
  ret ptr %call
}

; Function Attrs: mustprogress nounwind uwtable
define hidden ptr @hermes_get_TSCallSignatureDeclaration_params(ptr noundef %node) #0 {
entry:
  %node.addr = alloca ptr, align 8
  store ptr %node, ptr %node.addr, align 8
  %0 = load ptr, ptr %node.addr, align 8
  %_params = getelementptr inbounds %"class.hermes::ESTree::TSCallSignatureDeclarationNode", ptr %0, i32 0, i32 1
  %call = call noundef ptr @_ZN12_GLOBAL__N_110ReturnTypeIN4llvh12simple_ilistIN6hermes6ESTree4NodeEJEEEE3getERKS6_(ptr noundef nonnull align 8 dereferenceable(16) %_params)
  ret ptr %call
}

; Function Attrs: mustprogress nounwind uwtable
define hidden ptr @hermes_get_TSCallSignatureDeclaration_returnType(ptr noundef %node) #0 {
entry:
  %node.addr = alloca ptr, align 8
  store ptr %node, ptr %node.addr, align 8
  %0 = load ptr, ptr %node.addr, align 8
  %_returnType = getelementptr inbounds %"class.hermes::ESTree::TSCallSignatureDeclarationNode", ptr %0, i32 0, i32 2
  %1 = load ptr, ptr %_returnType, align 8
  %call = call noundef ptr @_ZN12_GLOBAL__N_110ReturnTypeIPN6hermes6ESTree4NodeEE3getES4_(ptr noundef %1)
  ret ptr %call
}

; Function Attrs: mustprogress nounwind uwtable
define hidden ptr @hermes_get_TSModifiers_accessibility(ptr noundef %node) #0 {
entry:
  %node.addr = alloca ptr, align 8
  store ptr %node, ptr %node.addr, align 8
  %0 = load ptr, ptr %node.addr, align 8
  %_accessibility = getelementptr inbounds %"class.hermes::ESTree::TSModifiersNode", ptr %0, i32 0, i32 1
  %1 = load ptr, ptr %_accessibility, align 8
  %call = call noundef ptr @_ZN12_GLOBAL__N_110ReturnTypeIPN6hermes12UniqueStringEE3getES3_(ptr noundef %1)
  ret ptr %call
}

; Function Attrs: mustprogress nounwind uwtable
define hidden zeroext i1 @hermes_get_TSModifiers_readonly(ptr noundef %node) #0 {
entry:
  %node.addr = alloca ptr, align 8
  store ptr %node, ptr %node.addr, align 8
  %0 = load ptr, ptr %node.addr, align 8
  %_readonly = getelementptr inbounds %"class.hermes::ESTree::TSModifiersNode", ptr %0, i32 0, i32 2
  %1 = load i8, ptr %_readonly, align 8
  %tobool = trunc i8 %1 to i1
  %call = call noundef zeroext i1 @_ZN12_GLOBAL__N_110ReturnTypeIbE3getEb(i1 noundef zeroext %tobool)
  ret i1 %call
}

; Function Attrs: mustprogress nounwind uwtable
define hidden ptr @hermes_get_CoverInitializer_init(ptr noundef %node) #0 {
entry:
  %node.addr = alloca ptr, align 8
  store ptr %node, ptr %node.addr, align 8
  %0 = load ptr, ptr %node.addr, align 8
  %_init = getelementptr inbounds %"class.hermes::ESTree::CoverInitializerNode", ptr %0, i32 0, i32 1
  %1 = load ptr, ptr %_init, align 8
  %call = call noundef ptr @_ZN12_GLOBAL__N_110ReturnTypeIPN6hermes6ESTree4NodeEE3getES4_(ptr noundef %1)
  ret ptr %call
}

; Function Attrs: mustprogress nounwind uwtable
define hidden ptr @hermes_get_CoverRestElement_rest(ptr noundef %node) #0 {
entry:
  %node.addr = alloca ptr, align 8
  store ptr %node, ptr %node.addr, align 8
  %0 = load ptr, ptr %node.addr, align 8
  %_rest = getelementptr inbounds %"class.hermes::ESTree::CoverRestElementNode", ptr %0, i32 0, i32 1
  %1 = load ptr, ptr %_rest, align 8
  %call = call noundef ptr @_ZN12_GLOBAL__N_110ReturnTypeIPN6hermes6ESTree4NodeEE3getES4_(ptr noundef %1)
  ret ptr %call
}

; Function Attrs: mustprogress nounwind uwtable
define hidden ptr @hermes_get_CoverTypedIdentifier_left(ptr noundef %node) #0 {
entry:
  %node.addr = alloca ptr, align 8
  store ptr %node, ptr %node.addr, align 8
  %0 = load ptr, ptr %node.addr, align 8
  %_left = getelementptr inbounds %"class.hermes::ESTree::CoverTypedIdentifierNode", ptr %0, i32 0, i32 1
  %1 = load ptr, ptr %_left, align 8
  %call = call noundef ptr @_ZN12_GLOBAL__N_110ReturnTypeIPN6hermes6ESTree4NodeEE3getES4_(ptr noundef %1)
  ret ptr %call
}

; Function Attrs: mustprogress nounwind uwtable
define hidden ptr @hermes_get_CoverTypedIdentifier_right(ptr noundef %node) #0 {
entry:
  %node.addr = alloca ptr, align 8
  store ptr %node, ptr %node.addr, align 8
  %0 = load ptr, ptr %node.addr, align 8
  %_right = getelementptr inbounds %"class.hermes::ESTree::CoverTypedIdentifierNode", ptr %0, i32 0, i32 2
  %1 = load ptr, ptr %_right, align 8
  %call = call noundef ptr @_ZN12_GLOBAL__N_110ReturnTypeIPN6hermes6ESTree4NodeEE3getES4_(ptr noundef %1)
  ret ptr %call
}

; Function Attrs: mustprogress nounwind uwtable
define hidden zeroext i1 @hermes_get_CoverTypedIdentifier_optional(ptr noundef %node) #0 {
entry:
  %node.addr = alloca ptr, align 8
  store ptr %node, ptr %node.addr, align 8
  %0 = load ptr, ptr %node.addr, align 8
  %_optional = getelementptr inbounds %"class.hermes::ESTree::CoverTypedIdentifierNode", ptr %0, i32 0, i32 3
  %1 = load i8, ptr %_optional, align 8
  %tobool = trunc i8 %1 to i1
  %call = call noundef zeroext i1 @_ZN12_GLOBAL__N_110ReturnTypeIbE3getEb(i1 noundef zeroext %tobool)
  ret i1 %call
}

; Function Attrs: mustprogress nounwind uwtable
define hidden ptr @hermes_parser_parse(i32 %flags.coerce, ptr noundef %source, i64 noundef %len) #0 {
entry:
  %this.addr.i = alloca ptr, align 8
  %data.addr.i = alloca ptr, align 8
  %length.addr.i = alloca i64, align 8
  %retval = alloca ptr, align 8
  %flags = alloca %"struct.(anonymous namespace)::ParserFlags", align 1
  %source.addr = alloca ptr, align 8
  %len.addr = alloca i64, align 8
  %parserCtx = alloca %"class.std::unique_ptr", align 8
  %cleanup.dest.slot = alloca i32, align 4
  %agg.tmp = alloca %"class.llvh::StringRef", align 8
  %comments = alloca %"class.std::vector.48", align 8
  %ref.tmp = alloca %"class.std::vector.48", align 8
  %agg.tmp33 = alloca %"class.llvh::ArrayRef", align 8
  %ref.tmp41 = alloca %"class.std::__cxx11::basic_string", align 8
  %agg.tmp42 = alloca %"class.llvh::ArrayRef", align 8
  %parser = alloca %"class.hermes::parser::JSParser", align 8
  %ast = alloca %"class.llvh::Optional.61", align 8
  store i32 %flags.coerce, ptr %flags, align 1
  store ptr %source, ptr %source.addr, align 8
  store i64 %len, ptr %len.addr, align 8
  %call = call noalias noundef nonnull ptr @_Znwm(i64 noundef 824) #10
  call void @_ZN12_GLOBAL__N_113ParserContextC2Ev(ptr noundef nonnull align 8 dereferenceable(824) %call)
  call void @_ZNSt10unique_ptrIN12_GLOBAL__N_113ParserContextESt14default_deleteIS1_EEC2IS3_vEEPS1_(ptr noundef nonnull align 8 dereferenceable(8) %parserCtx, ptr noundef %call) #11
  %call1 = call noundef ptr @_ZNKSt10unique_ptrIN12_GLOBAL__N_113ParserContextESt14default_deleteIS1_EEptEv(ptr noundef nonnull align 8 dereferenceable(8) %parserCtx) #11
  %context_ = getelementptr inbounds %"struct.(anonymous namespace)::ParserContext", ptr %call1, i32 0, i32 0
  %strictMode = getelementptr inbounds %"struct.(anonymous namespace)::ParserFlags", ptr %flags, i32 0, i32 0
  %0 = load i8, ptr %strictMode, align 1
  %tobool = trunc i8 %0 to i1
  call void @_ZN6hermes7Context13setStrictModeEb(ptr noundef nonnull align 8 dereferenceable(656) %context_, i1 noundef zeroext %tobool)
  %call2 = call noundef ptr @_ZNKSt10unique_ptrIN12_GLOBAL__N_113ParserContextESt14default_deleteIS1_EEptEv(ptr noundef nonnull align 8 dereferenceable(8) %parserCtx) #11
  %context_3 = getelementptr inbounds %"struct.(anonymous namespace)::ParserContext", ptr %call2, i32 0, i32 0
  %enableJSX = getelementptr inbounds %"struct.(anonymous namespace)::ParserFlags", ptr %flags, i32 0, i32 1
  %1 = load i8, ptr %enableJSX, align 1
  %tobool4 = trunc i8 %1 to i1
  call void @_ZN6hermes7Context11setParseJSXEb(ptr noundef nonnull align 8 dereferenceable(656) %context_3, i1 noundef zeroext %tobool4)
  %2 = load i64, ptr %len.addr, align 8
  %cmp = icmp eq i64 %2, 0
  br i1 %cmp, label %if.then, label %lor.lhs.false

lor.lhs.false:                                    ; preds = %entry
  %3 = load ptr, ptr %source.addr, align 8
  %4 = load i64, ptr %len.addr, align 8
  %sub = sub i64 %4, 1
  %arrayidx = getelementptr inbounds i8, ptr %3, i64 %sub
  %5 = load i8, ptr %arrayidx, align 1
  %conv = sext i8 %5 to i32
  %cmp5 = icmp ne i32 %conv, 0
  br i1 %cmp5, label %if.then, label %if.end

if.then:                                          ; preds = %lor.lhs.false, %entry
  %call6 = call noundef ptr @_ZNKSt10unique_ptrIN12_GLOBAL__N_113ParserContextESt14default_deleteIS1_EEptEv(ptr noundef nonnull align 8 dereferenceable(8) %parserCtx) #11
  call void @_ZN12_GLOBAL__N_113ParserContext8addErrorEPKc(ptr noundef nonnull align 8 dereferenceable(824) %call6, ptr noundef @.str)
  %call7 = call noundef ptr @_ZNSt10unique_ptrIN12_GLOBAL__N_113ParserContextESt14default_deleteIS1_EE7releaseEv(ptr noundef nonnull align 8 dereferenceable(8) %parserCtx) #11
  store ptr %call7, ptr %retval, align 8
  store i32 1, ptr %cleanup.dest.slot, align 4
  br label %cleanup

if.end:                                           ; preds = %lor.lhs.false
  %call8 = call noundef ptr @_ZNKSt10unique_ptrIN12_GLOBAL__N_113ParserContextESt14default_deleteIS1_EEptEv(ptr noundef nonnull align 8 dereferenceable(8) %parserCtx) #11
  %6 = load ptr, ptr %source.addr, align 8
  %7 = load i64, ptr %len.addr, align 8
  store ptr %agg.tmp, ptr %this.addr.i, align 8
  store ptr %6, ptr %data.addr.i, align 8
  store i64 %7, ptr %length.addr.i, align 8
  %this1.i = load ptr, ptr %this.addr.i, align 8
  %8 = load ptr, ptr %data.addr.i, align 8
  store ptr %8, ptr %this1.i, align 8
  %Length.i = getelementptr inbounds %"class.llvh::StringRef", ptr %this1.i, i32 0, i32 1
  %9 = load i64, ptr %length.addr.i, align 8
  store i64 %9, ptr %Length.i, align 8
  %10 = getelementptr inbounds { ptr, i64 }, ptr %agg.tmp, i32 0, i32 0
  %11 = load ptr, ptr %10, align 8
  %12 = getelementptr inbounds { ptr, i64 }, ptr %agg.tmp, i32 0, i32 1
  %13 = load i64, ptr %12, align 8
  call void @_ZN12_GLOBAL__N_113ParserContext14setInputBufferEN4llvh9StringRefE(ptr noundef nonnull align 8 dereferenceable(824) %call8, ptr %11, i64 %13)
  %call9 = call noundef ptr @_ZNKSt10unique_ptrIN12_GLOBAL__N_113ParserContextESt14default_deleteIS1_EEptEv(ptr noundef nonnull align 8 dereferenceable(8) %parserCtx) #11
  %context_10 = getelementptr inbounds %"struct.(anonymous namespace)::ParserContext", ptr %call9, i32 0, i32 0
  call void @_ZN6hermes7Context10setParseTSEb(ptr noundef nonnull align 8 dereferenceable(656) %context_10, i1 noundef zeroext false)
  %call11 = call noundef ptr @_ZNKSt10unique_ptrIN12_GLOBAL__N_113ParserContextESt14default_deleteIS1_EEptEv(ptr noundef nonnull align 8 dereferenceable(8) %parserCtx) #11
  %context_12 = getelementptr inbounds %"struct.(anonymous namespace)::ParserContext", ptr %call11, i32 0, i32 0
  call void @_ZN6hermes7Context12setParseFlowENS_16ParseFlowSettingE(ptr noundef nonnull align 8 dereferenceable(656) %context_12, i32 noundef 0)
  call void @_ZNSt6vectorIN6hermes6parser13StoredCommentESaIS2_EEC2Ev(ptr noundef nonnull align 8 dereferenceable(24) %comments) #11
  %dialect = getelementptr inbounds %"struct.(anonymous namespace)::ParserFlags", ptr %flags, i32 0, i32 2
  %14 = load i8, ptr %dialect, align 1
  %cmp13 = icmp eq i8 %14, 3
  br i1 %cmp13, label %if.then16, label %lor.lhs.false14

lor.lhs.false14:                                  ; preds = %if.end
  %storeDocBlock = getelementptr inbounds %"struct.(anonymous namespace)::ParserFlags", ptr %flags, i32 0, i32 3
  %15 = load i8, ptr %storeDocBlock, align 1
  %tobool15 = trunc i8 %15 to i1
  br i1 %tobool15, label %if.then16, label %if.end22

if.then16:                                        ; preds = %lor.lhs.false14, %if.end
  %call17 = call noundef ptr @_ZNKSt10unique_ptrIN12_GLOBAL__N_113ParserContextESt14default_deleteIS1_EEptEv(ptr noundef nonnull align 8 dereferenceable(8) %parserCtx) #11
  %context_18 = getelementptr inbounds %"struct.(anonymous namespace)::ParserContext", ptr %call17, i32 0, i32 0
  %call19 = call noundef ptr @_ZNKSt10unique_ptrIN12_GLOBAL__N_113ParserContextESt14default_deleteIS1_EEptEv(ptr noundef nonnull align 8 dereferenceable(8) %parserCtx) #11
  %call20 = call noundef i32 @_ZNK12_GLOBAL__N_113ParserContext11getBufferIdEv(ptr noundef nonnull align 8 dereferenceable(824) %call19)
  call void @_ZN6hermes6parser21getCommentsInDocBlockERNS_7ContextEj(ptr sret(%"class.std::vector.48") align 8 %ref.tmp, ptr noundef nonnull align 8 dereferenceable(656) %context_18, i32 noundef %call20)
  %call21 = call noundef nonnull align 8 dereferenceable(24) ptr @_ZNSt6vectorIN6hermes6parser13StoredCommentESaIS2_EEaSEOS4_(ptr noundef nonnull align 8 dereferenceable(24) %comments, ptr noundef nonnull align 8 dereferenceable(24) %ref.tmp) #11
  call void @_ZNSt6vectorIN6hermes6parser13StoredCommentESaIS2_EED2Ev(ptr noundef nonnull align 8 dereferenceable(24) %ref.tmp) #11
  br label %if.end22

if.end22:                                         ; preds = %if.then16, %lor.lhs.false14
  %dialect23 = getelementptr inbounds %"struct.(anonymous namespace)::ParserFlags", ptr %flags, i32 0, i32 2
  %16 = load i8, ptr %dialect23, align 1
  switch i8 %16, label %sw.epilog [
    i8 0, label %sw.bb
    i8 1, label %sw.bb24
    i8 2, label %sw.bb27
    i8 3, label %sw.bb30
    i8 4, label %sw.bb35
  ]

sw.bb:                                            ; preds = %if.end22
  br label %sw.epilog

sw.bb24:                                          ; preds = %if.end22
  %call25 = call noundef ptr @_ZNKSt10unique_ptrIN12_GLOBAL__N_113ParserContextESt14default_deleteIS1_EEptEv(ptr noundef nonnull align 8 dereferenceable(8) %parserCtx) #11
  %context_26 = getelementptr inbounds %"struct.(anonymous namespace)::ParserContext", ptr %call25, i32 0, i32 0
  call void @_ZN6hermes7Context12setParseFlowENS_16ParseFlowSettingE(ptr noundef nonnull align 8 dereferenceable(656) %context_26, i32 noundef 1)
  br label %sw.epilog

sw.bb27:                                          ; preds = %if.end22
  %call28 = call noundef ptr @_ZNKSt10unique_ptrIN12_GLOBAL__N_113ParserContextESt14default_deleteIS1_EEptEv(ptr noundef nonnull align 8 dereferenceable(8) %parserCtx) #11
  %context_29 = getelementptr inbounds %"struct.(anonymous namespace)::ParserContext", ptr %call28, i32 0, i32 0
  call void @_ZN6hermes7Context12setParseFlowENS_16ParseFlowSettingE(ptr noundef nonnull align 8 dereferenceable(656) %context_29, i32 noundef 2)
  br label %sw.epilog

sw.bb30:                                          ; preds = %if.end22
  %call31 = call noundef ptr @_ZNKSt10unique_ptrIN12_GLOBAL__N_113ParserContextESt14default_deleteIS1_EEptEv(ptr noundef nonnull align 8 dereferenceable(8) %parserCtx) #11
  %context_32 = getelementptr inbounds %"struct.(anonymous namespace)::ParserContext", ptr %call31, i32 0, i32 0
  call void @_ZN4llvh8ArrayRefIN6hermes6parser13StoredCommentEEC2ISaIS3_EEERKSt6vectorIS3_T_E(ptr noundef nonnull align 8 dereferenceable(16) %agg.tmp33, ptr noundef nonnull align 8 dereferenceable(24) %comments)
  %17 = getelementptr inbounds { ptr, i64 }, ptr %agg.tmp33, i32 0, i32 0
  %18 = load ptr, ptr %17, align 8
  %19 = getelementptr inbounds { ptr, i64 }, ptr %agg.tmp33, i32 0, i32 1
  %20 = load i64, ptr %19, align 8
  %call34 = call noundef zeroext i1 @_ZN6hermes6parser13hasFlowPragmaEN4llvh8ArrayRefINS0_13StoredCommentEEE(ptr %18, i64 %20)
  %cond = select i1 %call34, i32 1, i32 2
  call void @_ZN6hermes7Context12setParseFlowENS_16ParseFlowSettingE(ptr noundef nonnull align 8 dereferenceable(656) %context_32, i32 noundef %cond)
  br label %sw.epilog

sw.bb35:                                          ; preds = %if.end22
  %call36 = call noundef ptr @_ZNKSt10unique_ptrIN12_GLOBAL__N_113ParserContextESt14default_deleteIS1_EEptEv(ptr noundef nonnull align 8 dereferenceable(8) %parserCtx) #11
  %context_37 = getelementptr inbounds %"struct.(anonymous namespace)::ParserContext", ptr %call36, i32 0, i32 0
  call void @_ZN6hermes7Context10setParseTSEb(ptr noundef nonnull align 8 dereferenceable(656) %context_37, i1 noundef zeroext true)
  br label %sw.epilog

sw.epilog:                                        ; preds = %sw.bb35, %sw.bb30, %sw.bb27, %sw.bb24, %sw.bb, %if.end22
  %storeDocBlock38 = getelementptr inbounds %"struct.(anonymous namespace)::ParserFlags", ptr %flags, i32 0, i32 3
  %21 = load i8, ptr %storeDocBlock38, align 1
  %tobool39 = trunc i8 %21 to i1
  br i1 %tobool39, label %if.then40, label %if.end45

if.then40:                                        ; preds = %sw.epilog
  call void @_ZN4llvh8ArrayRefIN6hermes6parser13StoredCommentEEC2ISaIS3_EEERKSt6vectorIS3_T_E(ptr noundef nonnull align 8 dereferenceable(16) %agg.tmp42, ptr noundef nonnull align 8 dereferenceable(24) %comments)
  %22 = getelementptr inbounds { ptr, i64 }, ptr %agg.tmp42, i32 0, i32 0
  %23 = load ptr, ptr %22, align 8
  %24 = getelementptr inbounds { ptr, i64 }, ptr %agg.tmp42, i32 0, i32 1
  %25 = load i64, ptr %24, align 8
  call void @_ZN6hermes6parser11getDocBlockB5cxx11EN4llvh8ArrayRefINS0_13StoredCommentEEE(ptr sret(%"class.std::__cxx11::basic_string") align 8 %ref.tmp41, ptr %23, i64 %25)
  %call43 = call noundef ptr @_ZNKSt10unique_ptrIN12_GLOBAL__N_113ParserContextESt14default_deleteIS1_EEptEv(ptr noundef nonnull align 8 dereferenceable(8) %parserCtx) #11
  %docBlock_ = getelementptr inbounds %"struct.(anonymous namespace)::ParserContext", ptr %call43, i32 0, i32 6
  %call44 = call noundef nonnull align 8 dereferenceable(32) ptr @_ZNSt7__cxx1112basic_stringIcSt11char_traitsIcESaIcEEaSEOS4_(ptr noundef nonnull align 8 dereferenceable(32) %docBlock_, ptr noundef nonnull align 8 dereferenceable(32) %ref.tmp41) #11
  call void @_ZNSt7__cxx1112basic_stringIcSt11char_traitsIcESaIcEED1Ev(ptr noundef nonnull align 8 dereferenceable(32) %ref.tmp41) #11
  br label %if.end45

if.end45:                                         ; preds = %if.then40, %sw.epilog
  %call46 = call noundef ptr @_ZNKSt10unique_ptrIN12_GLOBAL__N_113ParserContextESt14default_deleteIS1_EEptEv(ptr noundef nonnull align 8 dereferenceable(8) %parserCtx) #11
  %context_47 = getelementptr inbounds %"struct.(anonymous namespace)::ParserContext", ptr %call46, i32 0, i32 0
  %call48 = call noundef ptr @_ZNKSt10unique_ptrIN12_GLOBAL__N_113ParserContextESt14default_deleteIS1_EEptEv(ptr noundef nonnull align 8 dereferenceable(8) %parserCtx) #11
  %bufId_ = getelementptr inbounds %"struct.(anonymous namespace)::ParserContext", ptr %call48, i32 0, i32 1
  %26 = load i32, ptr %bufId_, align 8
  call void @_ZN6hermes6parser8JSParserC1ERNS_7ContextEjNS0_10ParserPassE(ptr noundef nonnull align 8 dereferenceable(8) %parser, ptr noundef nonnull align 8 dereferenceable(656) %context_47, i32 noundef %26, i32 noundef 2)
  %call49 = call { i64, i8 } @_ZN6hermes6parser8JSParser5parseEv(ptr noundef nonnull align 8 dereferenceable(8) %parser)
  %coerce.dive = getelementptr inbounds %"class.llvh::Optional.61", ptr %ast, i32 0, i32 0
  %27 = getelementptr inbounds { i64, i8 }, ptr %coerce.dive, i32 0, i32 0
  %28 = extractvalue { i64, i8 } %call49, 0
  store i64 %28, ptr %27, align 8
  %29 = getelementptr inbounds { i64, i8 }, ptr %coerce.dive, i32 0, i32 1
  %30 = extractvalue { i64, i8 } %call49, 1
  store i8 %30, ptr %29, align 8
  %call50 = call noundef ptr @_ZNKSt10unique_ptrIN12_GLOBAL__N_113ParserContextESt14default_deleteIS1_EEptEv(ptr noundef nonnull align 8 dereferenceable(8) %parserCtx) #11
  %firstError_ = getelementptr inbounds %"struct.(anonymous namespace)::ParserContext", ptr %call50, i32 0, i32 4
  %call51 = call noundef zeroext i1 @_ZNK4llvh8OptionalImEcvbEv(ptr noundef nonnull align 8 dereferenceable(16) %firstError_)
  br i1 %call51, label %if.end59, label %if.then52

if.then52:                                        ; preds = %if.end45
  %call53 = call noundef zeroext i1 @_ZNK4llvh8OptionalIPN6hermes6ESTree11ProgramNodeEEcvbEv(ptr noundef nonnull align 8 dereferenceable(16) %ast)
  br i1 %call53, label %if.else, label %if.then54

if.then54:                                        ; preds = %if.then52
  %call55 = call noundef ptr @_ZNKSt10unique_ptrIN12_GLOBAL__N_113ParserContextESt14default_deleteIS1_EEptEv(ptr noundef nonnull align 8 dereferenceable(8) %parserCtx) #11
  call void @_ZN12_GLOBAL__N_113ParserContext8addErrorEPKc(ptr noundef nonnull align 8 dereferenceable(824) %call55, ptr noundef @.str.1)
  br label %if.end58

if.else:                                          ; preds = %if.then52
  %call56 = call noundef nonnull align 8 dereferenceable(8) ptr @_ZNR4llvh8OptionalIPN6hermes6ESTree11ProgramNodeEEdeEv(ptr noundef nonnull align 8 dereferenceable(16) %ast)
  %31 = load ptr, ptr %call56, align 8
  %call57 = call noundef ptr @_ZNKSt10unique_ptrIN12_GLOBAL__N_113ParserContextESt14default_deleteIS1_EEptEv(ptr noundef nonnull align 8 dereferenceable(8) %parserCtx) #11
  %ast_ = getelementptr inbounds %"struct.(anonymous namespace)::ParserContext", ptr %call57, i32 0, i32 5
  store ptr %31, ptr %ast_, align 8
  br label %if.end58

if.end58:                                         ; preds = %if.else, %if.then54
  br label %if.end59

if.end59:                                         ; preds = %if.end58, %if.end45
  %call60 = call noundef ptr @_ZNSt10unique_ptrIN12_GLOBAL__N_113ParserContextESt14default_deleteIS1_EE7releaseEv(ptr noundef nonnull align 8 dereferenceable(8) %parserCtx) #11
  store ptr %call60, ptr %retval, align 8
  store i32 1, ptr %cleanup.dest.slot, align 4
  call void @_ZN6hermes6parser8JSParserD1Ev(ptr noundef nonnull align 8 dereferenceable(8) %parser) #11
  call void @_ZNSt6vectorIN6hermes6parser13StoredCommentESaIS2_EED2Ev(ptr noundef nonnull align 8 dereferenceable(24) %comments) #11
  br label %cleanup

cleanup:                                          ; preds = %if.end59, %if.then
  call void @_ZNSt10unique_ptrIN12_GLOBAL__N_113ParserContextESt14default_deleteIS1_EED2Ev(ptr noundef nonnull align 8 dereferenceable(8) %parserCtx) #11
  %32 = load ptr, ptr %retval, align 8
  ret ptr %32
}

; Function Attrs: nobuiltin allocsize(0)
declare noundef nonnull ptr @_Znwm(i64 noundef) #1

; Function Attrs: mustprogress nounwind uwtable
define internal void @_ZN12_GLOBAL__N_113ParserContextC2Ev(ptr noundef nonnull align 8 dereferenceable(824) %this) unnamed_addr #0 align 2 {
entry:
  %this.addr = alloca ptr, align 8
  %agg.tmp = alloca %"struct.hermes::CodeGenerationSettings", align 8
  %agg.tmp2 = alloca %"struct.hermes::OptimizationSettings", align 1
  %agg.tmp3 = alloca %"class.std::unique_ptr.21", align 8
  %agg.tmp4 = alloca %"class.std::vector.29", align 8
  %agg.tmp2.coerce = alloca i48, align 8
  %ref.tmp = alloca %class.anon, align 1
  store ptr %this, ptr %this.addr, align 8
  %this1 = load ptr, ptr %this.addr, align 8
  %context_ = getelementptr inbounds %"struct.(anonymous namespace)::ParserContext", ptr %this1, i32 0, i32 0
  call void @llvm.memset.p0.i64(ptr align 8 %agg.tmp, i8 0, i64 392, i1 false)
  call void @_ZN6hermes22CodeGenerationSettingsC2Ev(ptr noundef nonnull align 8 dereferenceable(392) %agg.tmp)
  call void @llvm.memset.p0.i64(ptr align 1 %agg.tmp2, i8 0, i64 6, i1 false)
  call void @_ZN6hermes20OptimizationSettingsC2Ev(ptr noundef nonnull align 1 dereferenceable(6) %agg.tmp2) #11
  call void @_ZNSt10unique_ptrIN4llvh8DenseMapINS0_9StringRefENS1_IS2_S2_NS0_12DenseMapInfoIS2_EENS0_6detail12DenseMapPairIS2_S2_EEEES4_NS6_IS2_S8_EEEESt14default_deleteISA_EEC2ISC_vEEDn(ptr noundef nonnull align 8 dereferenceable(8) %agg.tmp3, ptr null) #11
  call void @llvm.memset.p0.i64(ptr align 8 %agg.tmp4, i8 0, i64 24, i1 false)
  call void @_ZNSt6vectorIjSaIjEEC2Ev(ptr noundef nonnull align 8 dereferenceable(24) %agg.tmp4) #11
  call void @llvm.memcpy.p0.p0.i64(ptr align 8 %agg.tmp2.coerce, ptr align 1 %agg.tmp2, i64 6, i1 false)
  %0 = load i48, ptr %agg.tmp2.coerce, align 8
  call void @_ZN6hermes7ContextC2ENS_22CodeGenerationSettingsENS_20OptimizationSettingsESt10unique_ptrIN4llvh8DenseMapINS4_9StringRefENS5_IS6_S6_NS4_12DenseMapInfoIS6_EENS4_6detail12DenseMapPairIS6_S6_EEEES8_NSA_IS6_SC_EEEESt14default_deleteISE_EESt6vectorIjSaIjEE(ptr noundef nonnull align 8 dereferenceable(656) %context_, ptr noundef %agg.tmp, i48 %0, ptr noundef %agg.tmp3, ptr noundef %agg.tmp4)
  call void @_ZNSt6vectorIjSaIjEED2Ev(ptr noundef nonnull align 8 dereferenceable(24) %agg.tmp4) #11
  call void @_ZNSt10unique_ptrIN4llvh8DenseMapINS0_9StringRefENS1_IS2_S2_NS0_12DenseMapInfoIS2_EENS0_6detail12DenseMapPairIS2_S2_EEEES4_NS6_IS2_S8_EEEESt14default_deleteISA_EED2Ev(ptr noundef nonnull align 8 dereferenceable(8) %agg.tmp3) #11
  call void @_ZN6hermes22CodeGenerationSettingsD2Ev(ptr noundef nonnull align 8 dereferenceable(392) %agg.tmp) #11
  %bufId_ = getelementptr inbounds %"struct.(anonymous namespace)::ParserContext", ptr %this1, i32 0, i32 1
  store i32 -1, ptr %bufId_, align 8
  %ourMessages_ = getelementptr inbounds %"struct.(anonymous namespace)::ParserContext", ptr %this1, i32 0, i32 2
  call void @llvm.memset.p0.i64(ptr align 8 %ourMessages_, i8 0, i64 80, i1 false)
  call void @_ZNSt5dequeIN4llvh12SMDiagnosticESaIS1_EEC2Ev(ptr noundef nonnull align 8 dereferenceable(80) %ourMessages_)
  %convertedMessages_ = getelementptr inbounds %"struct.(anonymous namespace)::ParserContext", ptr %this1, i32 0, i32 3
  call void @llvm.memset.p0.i64(ptr align 8 %convertedMessages_, i8 0, i64 24, i1 false)
  call void @_ZNSt6vectorIN12_GLOBAL__N_111DiagMessageESaIS1_EEC2Ev(ptr noundef nonnull align 8 dereferenceable(24) %convertedMessages_) #11
  %firstError_ = getelementptr inbounds %"struct.(anonymous namespace)::ParserContext", ptr %this1, i32 0, i32 4
  call void @_ZN4llvh8OptionalImEC2Ev(ptr noundef nonnull align 8 dereferenceable(16) %firstError_)
  %ast_ = getelementptr inbounds %"struct.(anonymous namespace)::ParserContext", ptr %this1, i32 0, i32 5
  store ptr null, ptr %ast_, align 8
  %docBlock_ = getelementptr inbounds %"struct.(anonymous namespace)::ParserContext", ptr %this1, i32 0, i32 6
  call void @_ZNSt7__cxx1112basic_stringIcSt11char_traitsIcESaIcEEC1Ev(ptr noundef nonnull align 8 dereferenceable(32) %docBlock_) #11
  %context_5 = getelementptr inbounds %"struct.(anonymous namespace)::ParserContext", ptr %this1, i32 0, i32 0
  %call = call noundef nonnull align 8 dereferenceable(464) ptr @_ZN6hermes7Context21getSourceErrorManagerEv(ptr noundef nonnull align 8 dereferenceable(656) %context_5)
  %call6 = call noundef ptr @_ZZN12_GLOBAL__N_113ParserContextC1EvENKUlRKN4llvh12SMDiagnosticEPvE_cvPFvS4_S5_EEv(ptr noundef nonnull align 1 dereferenceable(1) %ref.tmp) #11
  call void @_ZN6hermes18SourceErrorManager14setDiagHandlerEPFvRKN4llvh12SMDiagnosticEPvES5_(ptr noundef nonnull align 8 dereferenceable(464) %call, ptr noundef %call6, ptr noundef %this1)
  ret void
}

; Function Attrs: mustprogress nounwind uwtable
define internal void @_ZNSt10unique_ptrIN12_GLOBAL__N_113ParserContextESt14default_deleteIS1_EEC2IS3_vEEPS1_(ptr noundef nonnull align 8 dereferenceable(8) %this, ptr noundef %__p) unnamed_addr #0 align 2 {
entry:
  %this.addr = alloca ptr, align 8
  %__p.addr = alloca ptr, align 8
  store ptr %this, ptr %this.addr, align 8
  store ptr %__p, ptr %__p.addr, align 8
  %this1 = load ptr, ptr %this.addr, align 8
  %_M_t = getelementptr inbounds %"class.std::unique_ptr", ptr %this1, i32 0, i32 0
  %0 = load ptr, ptr %__p.addr, align 8
  call void @_ZNSt15__uniq_ptr_dataIN12_GLOBAL__N_113ParserContextESt14default_deleteIS1_ELb1ELb1EECI2St15__uniq_ptr_implIS1_S3_EEPS1_(ptr noundef nonnull align 8 dereferenceable(8) %_M_t, ptr noundef %0)
  ret void
}

; Function Attrs: mustprogress nounwind uwtable
define internal noundef ptr @_ZNKSt10unique_ptrIN12_GLOBAL__N_113ParserContextESt14default_deleteIS1_EEptEv(ptr noundef nonnull align 8 dereferenceable(8) %this) #0 align 2 {
entry:
  %this.addr = alloca ptr, align 8
  store ptr %this, ptr %this.addr, align 8
  %this1 = load ptr, ptr %this.addr, align 8
  %call = call noundef ptr @_ZNKSt10unique_ptrIN12_GLOBAL__N_113ParserContextESt14default_deleteIS1_EE3getEv(ptr noundef nonnull align 8 dereferenceable(8) %this1) #11
  ret ptr %call
}

; Function Attrs: mustprogress nounwind uwtable
define linkonce_odr hidden void @_ZN6hermes7Context13setStrictModeEb(ptr noundef nonnull align 8 dereferenceable(656) %this, i1 noundef zeroext %strictMode) #0 comdat align 2 {
entry:
  %this.addr = alloca ptr, align 8
  %strictMode.addr = alloca i8, align 1
  store ptr %this, ptr %this.addr, align 8
  %frombool = zext i1 %strictMode to i8
  store i8 %frombool, ptr %strictMode.addr, align 1
  %this1 = load ptr, ptr %this.addr, align 8
  %0 = load i8, ptr %strictMode.addr, align 1
  %tobool = trunc i8 %0 to i1
  %strictMode_ = getelementptr inbounds %"class.hermes::Context", ptr %this1, i32 0, i32 7
  %frombool2 = zext i1 %tobool to i8
  store i8 %frombool2, ptr %strictMode_, align 8
  ret void
}

; Function Attrs: mustprogress nounwind uwtable
define linkonce_odr hidden void @_ZN6hermes7Context11setParseJSXEb(ptr noundef nonnull align 8 dereferenceable(656) %this, i1 noundef zeroext %parseJSX) #0 comdat align 2 {
entry:
  %this.addr = alloca ptr, align 8
  %parseJSX.addr = alloca i8, align 1
  store ptr %this, ptr %this.addr, align 8
  %frombool = zext i1 %parseJSX to i8
  store i8 %frombool, ptr %parseJSX.addr, align 1
  %this1 = load ptr, ptr %this.addr, align 8
  %0 = load i8, ptr %parseJSX.addr, align 1
  %tobool = trunc i8 %0 to i1
  %parseJSX_ = getelementptr inbounds %"class.hermes::Context", ptr %this1, i32 0, i32 15
  %frombool2 = zext i1 %tobool to i8
  store i8 %frombool2, ptr %parseJSX_, align 1
  ret void
}

; Function Attrs: mustprogress nounwind uwtable
define internal void @_ZN12_GLOBAL__N_113ParserContext8addErrorEPKc(ptr noundef nonnull align 8 dereferenceable(824) %this, ptr noundef %msg) #0 align 2 {
entry:
  %this.addr = alloca ptr, align 8
  %msg.addr = alloca ptr, align 8
  %agg.tmp = alloca %"class.llvh::SMLoc", align 8
  %ref.tmp = alloca %"class.llvh::Twine", align 8
  store ptr %this, ptr %this.addr, align 8
  store ptr %msg, ptr %msg.addr, align 8
  %this1 = load ptr, ptr %this.addr, align 8
  %context_ = getelementptr inbounds %"struct.(anonymous namespace)::ParserContext", ptr %this1, i32 0, i32 0
  %call = call noundef nonnull align 8 dereferenceable(464) ptr @_ZN6hermes7Context21getSourceErrorManagerEv(ptr noundef nonnull align 8 dereferenceable(656) %context_)
  call void @llvm.memset.p0.i64(ptr align 8 %agg.tmp, i8 0, i64 8, i1 false)
  call void @_ZN4llvh5SMLocC2Ev(ptr noundef nonnull align 8 dereferenceable(8) %agg.tmp) #11
  call void @_ZN4llvh5TwineC2EPKc(ptr noundef nonnull align 8 dereferenceable(18) %ref.tmp, ptr noundef @.str)
  %coerce.dive = getelementptr inbounds %"class.llvh::SMLoc", ptr %agg.tmp, i32 0, i32 0
  %0 = load ptr, ptr %coerce.dive, align 8
  call void @_ZN6hermes18SourceErrorManager5errorEN4llvh5SMLocERKNS1_5TwineENS_9SubsystemE(ptr noundef nonnull align 8 dereferenceable(464) %call, ptr %0, ptr noundef nonnull align 8 dereferenceable(18) %ref.tmp, i32 noundef 0)
  ret void
}

; Function Attrs: mustprogress nounwind uwtable
define internal noundef ptr @_ZNSt10unique_ptrIN12_GLOBAL__N_113ParserContextESt14default_deleteIS1_EE7releaseEv(ptr noundef nonnull align 8 dereferenceable(8) %this) #0 align 2 {
entry:
  %this.addr = alloca ptr, align 8
  store ptr %this, ptr %this.addr, align 8
  %this1 = load ptr, ptr %this.addr, align 8
  %_M_t = getelementptr inbounds %"class.std::unique_ptr", ptr %this1, i32 0, i32 0
  %call = call noundef ptr @_ZNSt15__uniq_ptr_implIN12_GLOBAL__N_113ParserContextESt14default_deleteIS1_EE7releaseEv(ptr noundef nonnull align 8 dereferenceable(8) %_M_t) #11
  ret ptr %call
}

; Function Attrs: mustprogress nounwind uwtable
define internal void @_ZN12_GLOBAL__N_113ParserContext14setInputBufferEN4llvh9StringRefE(ptr noundef nonnull align 8 dereferenceable(824) %this, ptr %str.coerce0, i64 %str.coerce1) #0 align 2 {
entry:
  %this.addr.i16 = alloca ptr, align 8
  %this.addr.i.i = alloca ptr, align 8
  %data.addr.i.i = alloca ptr, align 8
  %length.addr.i.i = alloca i64, align 8
  %retval.i9 = alloca %"class.llvh::StringRef", align 8
  %this.addr.i10 = alloca ptr, align 8
  %Start.addr.i = alloca i64, align 8
  %N.addr.i11 = alloca i64, align 8
  %ref.tmp.i = alloca i64, align 8
  %this.addr.i6 = alloca ptr, align 8
  %Str.addr.i = alloca ptr, align 8
  %retval.i = alloca %"class.llvh::StringRef", align 8
  %this.addr.i = alloca ptr, align 8
  %N.addr.i = alloca i64, align 8
  %str = alloca %"class.llvh::StringRef", align 8
  %this.addr = alloca ptr, align 8
  %agg.tmp = alloca %"class.std::unique_ptr.155", align 8
  %agg.tmp2 = alloca %"class.llvh::StringRef", align 8
  %agg.tmp4 = alloca %"class.llvh::StringRef", align 8
  %0 = getelementptr inbounds { ptr, i64 }, ptr %str, i32 0, i32 0
  store ptr %str.coerce0, ptr %0, align 8
  %1 = getelementptr inbounds { ptr, i64 }, ptr %str, i32 0, i32 1
  store i64 %str.coerce1, ptr %1, align 8
  store ptr %this, ptr %this.addr, align 8
  %this1 = load ptr, ptr %this.addr, align 8
  %context_ = getelementptr inbounds %"struct.(anonymous namespace)::ParserContext", ptr %this1, i32 0, i32 0
  %call = call noundef nonnull align 8 dereferenceable(464) ptr @_ZN6hermes7Context21getSourceErrorManagerEv(ptr noundef nonnull align 8 dereferenceable(656) %context_)
  store ptr %str, ptr %this.addr.i, align 8
  store i64 1, ptr %N.addr.i, align 8
  %this1.i = load ptr, ptr %this.addr.i, align 8
  store ptr %this1.i, ptr %this.addr.i16, align 8
  %this1.i17 = load ptr, ptr %this.addr.i16, align 8
  %Length.i18 = getelementptr inbounds %"class.llvh::StringRef", ptr %this1.i17, i32 0, i32 1
  %2 = load i64, ptr %Length.i18, align 8
  %3 = load i64, ptr %N.addr.i, align 8
  %sub.i = sub i64 %2, %3
  store ptr %this1.i, ptr %this.addr.i10, align 8
  store i64 0, ptr %Start.addr.i, align 8
  store i64 %sub.i, ptr %N.addr.i11, align 8
  %this1.i12 = load ptr, ptr %this.addr.i10, align 8
  %Length.i13 = getelementptr inbounds %"class.llvh::StringRef", ptr %this1.i12, i32 0, i32 1
  %call.i14 = call noundef nonnull align 8 dereferenceable(8) ptr @_ZSt3minImERKT_S2_S2_(ptr noundef nonnull align 8 dereferenceable(8) %Start.addr.i, ptr noundef nonnull align 8 dereferenceable(8) %Length.i13)
  %4 = load i64, ptr %call.i14, align 8
  store i64 %4, ptr %Start.addr.i, align 8
  %5 = load ptr, ptr %this1.i12, align 8
  %6 = load i64, ptr %Start.addr.i, align 8
  %add.ptr.i = getelementptr inbounds i8, ptr %5, i64 %6
  %Length2.i = getelementptr inbounds %"class.llvh::StringRef", ptr %this1.i12, i32 0, i32 1
  %7 = load i64, ptr %Length2.i, align 8
  %8 = load i64, ptr %Start.addr.i, align 8
  %sub.i15 = sub i64 %7, %8
  store i64 %sub.i15, ptr %ref.tmp.i, align 8
  %call3.i = call noundef nonnull align 8 dereferenceable(8) ptr @_ZSt3minImERKT_S2_S2_(ptr noundef nonnull align 8 dereferenceable(8) %N.addr.i11, ptr noundef nonnull align 8 dereferenceable(8) %ref.tmp.i)
  %9 = load i64, ptr %call3.i, align 8
  store ptr %retval.i9, ptr %this.addr.i.i, align 8
  store ptr %add.ptr.i, ptr %data.addr.i.i, align 8
  store i64 %9, ptr %length.addr.i.i, align 8
  %this1.i.i = load ptr, ptr %this.addr.i.i, align 8
  %10 = load ptr, ptr %data.addr.i.i, align 8
  store ptr %10, ptr %this1.i.i, align 8
  %Length.i.i = getelementptr inbounds %"class.llvh::StringRef", ptr %this1.i.i, i32 0, i32 1
  %11 = load i64, ptr %length.addr.i.i, align 8
  store i64 %11, ptr %Length.i.i, align 8
  %12 = load { ptr, i64 }, ptr %retval.i9, align 8
  %13 = extractvalue { ptr, i64 } %12, 0
  store ptr %13, ptr %retval.i, align 8
  %14 = getelementptr inbounds { ptr, i64 }, ptr %retval.i, i32 0, i32 1
  %15 = extractvalue { ptr, i64 } %12, 1
  store i64 %15, ptr %14, align 8
  %16 = load { ptr, i64 }, ptr %retval.i, align 8
  %17 = getelementptr inbounds { ptr, i64 }, ptr %agg.tmp2, i32 0, i32 0
  %18 = extractvalue { ptr, i64 } %16, 0
  store ptr %18, ptr %17, align 8
  %19 = getelementptr inbounds { ptr, i64 }, ptr %agg.tmp2, i32 0, i32 1
  %20 = extractvalue { ptr, i64 } %16, 1
  store i64 %20, ptr %19, align 8
  store ptr %agg.tmp4, ptr %this.addr.i6, align 8
  store ptr @.str.6, ptr %Str.addr.i, align 8
  %this1.i7 = load ptr, ptr %this.addr.i6, align 8
  %21 = load ptr, ptr %Str.addr.i, align 8
  store ptr %21, ptr %this1.i7, align 8
  %Length.i = getelementptr inbounds %"class.llvh::StringRef", ptr %this1.i7, i32 0, i32 1
  %22 = load ptr, ptr %Str.addr.i, align 8
  %tobool.i = icmp ne ptr %22, null
  br i1 %tobool.i, label %cond.true.i, label %cond.false.i

cond.true.i:                                      ; preds = %entry
  %23 = load ptr, ptr %Str.addr.i, align 8
  %call.i8 = call i64 @strlen(ptr noundef %23) #12
  br label %_ZN4llvh9StringRefC2EPKc.exit

cond.false.i:                                     ; preds = %entry
  br label %_ZN4llvh9StringRefC2EPKc.exit

_ZN4llvh9StringRefC2EPKc.exit:                    ; preds = %cond.false.i, %cond.true.i
  %cond.i = phi i64 [ %call.i8, %cond.true.i ], [ 0, %cond.false.i ]
  store i64 %cond.i, ptr %Length.i, align 8
  %24 = getelementptr inbounds { ptr, i64 }, ptr %agg.tmp2, i32 0, i32 0
  %25 = load ptr, ptr %24, align 8
  %26 = getelementptr inbounds { ptr, i64 }, ptr %agg.tmp2, i32 0, i32 1
  %27 = load i64, ptr %26, align 8
  %28 = getelementptr inbounds { ptr, i64 }, ptr %agg.tmp4, i32 0, i32 0
  %29 = load ptr, ptr %28, align 8
  %30 = getelementptr inbounds { ptr, i64 }, ptr %agg.tmp4, i32 0, i32 1
  %31 = load i64, ptr %30, align 8
  call void @_ZN4llvh12MemoryBuffer12getMemBufferENS_9StringRefES1_b(ptr sret(%"class.std::unique_ptr.155") align 8 %agg.tmp, ptr %25, i64 %27, ptr %29, i64 %31, i1 noundef zeroext true)
  %call5 = call noundef i32 @_ZN6hermes18SourceErrorManager18addNewSourceBufferESt10unique_ptrIN4llvh12MemoryBufferESt14default_deleteIS3_EE(ptr noundef nonnull align 8 dereferenceable(464) %call, ptr noundef %agg.tmp)
  %bufId_ = getelementptr inbounds %"struct.(anonymous namespace)::ParserContext", ptr %this1, i32 0, i32 1
  store i32 %call5, ptr %bufId_, align 8
  call void @_ZNSt10unique_ptrIN4llvh12MemoryBufferESt14default_deleteIS1_EED2Ev(ptr noundef nonnull align 8 dereferenceable(8) %agg.tmp) #11
  ret void
}

; Function Attrs: mustprogress nounwind uwtable
define linkonce_odr hidden void @_ZN6hermes7Context10setParseTSEb(ptr noundef nonnull align 8 dereferenceable(656) %this, i1 noundef zeroext %parseTS) #0 comdat align 2 {
entry:
  %this.addr = alloca ptr, align 8
  %parseTS.addr = alloca i8, align 1
  store ptr %this, ptr %this.addr, align 8
  %frombool = zext i1 %parseTS to i8
  store i8 %frombool, ptr %parseTS.addr, align 1
  %this1 = load ptr, ptr %this.addr, align 8
  %0 = load i8, ptr %parseTS.addr, align 1
  %tobool = trunc i8 %0 to i1
  %parseTS_ = getelementptr inbounds %"class.hermes::Context", ptr %this1, i32 0, i32 18
  %frombool2 = zext i1 %tobool to i8
  store i8 %frombool2, ptr %parseTS_, align 8
  ret void
}

; Function Attrs: mustprogress nounwind uwtable
define linkonce_odr hidden void @_ZN6hermes7Context12setParseFlowENS_16ParseFlowSettingE(ptr noundef nonnull align 8 dereferenceable(656) %this, i32 noundef %parseFlow) #0 comdat align 2 {
entry:
  %this.addr = alloca ptr, align 8
  %parseFlow.addr = alloca i32, align 4
  store ptr %this, ptr %this.addr, align 8
  store i32 %parseFlow, ptr %parseFlow.addr, align 4
  %this1 = load ptr, ptr %this.addr, align 8
  %0 = load i32, ptr %parseFlow.addr, align 4
  %parseFlow_ = getelementptr inbounds %"class.hermes::Context", ptr %this1, i32 0, i32 17
  store i32 %0, ptr %parseFlow_, align 4
  ret void
}

; Function Attrs: mustprogress nounwind uwtable
define linkonce_odr hidden void @_ZNSt6vectorIN6hermes6parser13StoredCommentESaIS2_EEC2Ev(ptr noundef nonnull align 8 dereferenceable(24) %this) unnamed_addr #0 comdat align 2 {
entry:
  %this.addr = alloca ptr, align 8
  store ptr %this, ptr %this.addr, align 8
  %this1 = load ptr, ptr %this.addr, align 8
  call void @_ZNSt12_Vector_baseIN6hermes6parser13StoredCommentESaIS2_EEC2Ev(ptr noundef nonnull align 8 dereferenceable(24) %this1) #11
  ret void
}

declare void @_ZN6hermes6parser21getCommentsInDocBlockERNS_7ContextEj(ptr sret(%"class.std::vector.48") align 8, ptr noundef nonnull align 8 dereferenceable(656), i32 noundef) #2

; Function Attrs: mustprogress nounwind uwtable
define internal noundef i32 @_ZNK12_GLOBAL__N_113ParserContext11getBufferIdEv(ptr noundef nonnull align 8 dereferenceable(824) %this) #0 align 2 {
entry:
  %this.addr = alloca ptr, align 8
  store ptr %this, ptr %this.addr, align 8
  %this1 = load ptr, ptr %this.addr, align 8
  %bufId_ = getelementptr inbounds %"struct.(anonymous namespace)::ParserContext", ptr %this1, i32 0, i32 1
  %0 = load i32, ptr %bufId_, align 8
  ret i32 %0
}

; Function Attrs: mustprogress nounwind uwtable
define linkonce_odr hidden noundef nonnull align 8 dereferenceable(24) ptr @_ZNSt6vectorIN6hermes6parser13StoredCommentESaIS2_EEaSEOS4_(ptr noundef nonnull align 8 dereferenceable(24) %this, ptr noundef nonnull align 8 dereferenceable(24) %__x) #0 comdat align 2 {
entry:
  %this.addr = alloca ptr, align 8
  %__x.addr = alloca ptr, align 8
  %__move_storage = alloca i8, align 1
  store ptr %this, ptr %this.addr, align 8
  store ptr %__x, ptr %__x.addr, align 8
  %this1 = load ptr, ptr %this.addr, align 8
  store i8 1, ptr %__move_storage, align 1
  %0 = load ptr, ptr %__x.addr, align 8
  call void @_ZNSt6vectorIN6hermes6parser13StoredCommentESaIS2_EE14_M_move_assignEOS4_St17integral_constantIbLb1EE(ptr noundef nonnull align 8 dereferenceable(24) %this1, ptr noundef nonnull align 8 dereferenceable(24) %0) #11
  ret ptr %this1
}

; Function Attrs: mustprogress nounwind uwtable
define linkonce_odr hidden void @_ZNSt6vectorIN6hermes6parser13StoredCommentESaIS2_EED2Ev(ptr noundef nonnull align 8 dereferenceable(24) %this) unnamed_addr #0 comdat align 2 {
entry:
  %this.addr = alloca ptr, align 8
  store ptr %this, ptr %this.addr, align 8
  %this1 = load ptr, ptr %this.addr, align 8
  %_M_impl = getelementptr inbounds %"struct.std::_Vector_base.49", ptr %this1, i32 0, i32 0
  %_M_start = getelementptr inbounds %"struct.std::_Vector_base<hermes::parser::StoredComment, std::allocator<hermes::parser::StoredComment>>::_Vector_impl_data", ptr %_M_impl, i32 0, i32 0
  %0 = load ptr, ptr %_M_start, align 8
  %_M_impl2 = getelementptr inbounds %"struct.std::_Vector_base.49", ptr %this1, i32 0, i32 0
  %_M_finish = getelementptr inbounds %"struct.std::_Vector_base<hermes::parser::StoredComment, std::allocator<hermes::parser::StoredComment>>::_Vector_impl_data", ptr %_M_impl2, i32 0, i32 1
  %1 = load ptr, ptr %_M_finish, align 8
  %call = call noundef nonnull align 1 dereferenceable(1) ptr @_ZNSt12_Vector_baseIN6hermes6parser13StoredCommentESaIS2_EE19_M_get_Tp_allocatorEv(ptr noundef nonnull align 8 dereferenceable(24) %this1) #11
  call void @_ZSt8_DestroyIPN6hermes6parser13StoredCommentES2_EvT_S4_RSaIT0_E(ptr noundef %0, ptr noundef %1, ptr noundef nonnull align 1 dereferenceable(1) %call)
  call void @_ZNSt12_Vector_baseIN6hermes6parser13StoredCommentESaIS2_EED2Ev(ptr noundef nonnull align 8 dereferenceable(24) %this1) #11
  ret void
}

declare noundef zeroext i1 @_ZN6hermes6parser13hasFlowPragmaEN4llvh8ArrayRefINS0_13StoredCommentEEE(ptr, i64) #2

; Function Attrs: mustprogress nounwind uwtable
define linkonce_odr hidden void @_ZN4llvh8ArrayRefIN6hermes6parser13StoredCommentEEC2ISaIS3_EEERKSt6vectorIS3_T_E(ptr noundef nonnull align 8 dereferenceable(16) %this, ptr noundef nonnull align 8 dereferenceable(24) %Vec) unnamed_addr #0 comdat align 2 {
entry:
  %this.addr = alloca ptr, align 8
  %Vec.addr = alloca ptr, align 8
  store ptr %this, ptr %this.addr, align 8
  store ptr %Vec, ptr %Vec.addr, align 8
  %this1 = load ptr, ptr %this.addr, align 8
  %Data = getelementptr inbounds %"class.llvh::ArrayRef", ptr %this1, i32 0, i32 0
  %0 = load ptr, ptr %Vec.addr, align 8
  %call = call noundef ptr @_ZNKSt6vectorIN6hermes6parser13StoredCommentESaIS2_EE4dataEv(ptr noundef nonnull align 8 dereferenceable(24) %0) #11
  store ptr %call, ptr %Data, align 8
  %Length = getelementptr inbounds %"class.llvh::ArrayRef", ptr %this1, i32 0, i32 1
  %1 = load ptr, ptr %Vec.addr, align 8
  %call2 = call noundef i64 @_ZNKSt6vectorIN6hermes6parser13StoredCommentESaIS2_EE4sizeEv(ptr noundef nonnull align 8 dereferenceable(24) %1) #11
  store i64 %call2, ptr %Length, align 8
  ret void
}

declare void @_ZN6hermes6parser11getDocBlockB5cxx11EN4llvh8ArrayRefINS0_13StoredCommentEEE(ptr sret(%"class.std::__cxx11::basic_string") align 8, ptr, i64) #2

; Function Attrs: nounwind
declare noundef nonnull align 8 dereferenceable(32) ptr @_ZNSt7__cxx1112basic_stringIcSt11char_traitsIcESaIcEEaSEOS4_(ptr noundef nonnull align 8 dereferenceable(32), ptr noundef nonnull align 8 dereferenceable(32)) #3

; Function Attrs: nounwind
declare void @_ZNSt7__cxx1112basic_stringIcSt11char_traitsIcESaIcEED1Ev(ptr noundef nonnull align 8 dereferenceable(32)) unnamed_addr #3

declare void @_ZN6hermes6parser8JSParserC1ERNS_7ContextEjNS0_10ParserPassE(ptr noundef nonnull align 8 dereferenceable(8), ptr noundef nonnull align 8 dereferenceable(656), i32 noundef, i32 noundef) unnamed_addr #2

declare { i64, i8 } @_ZN6hermes6parser8JSParser5parseEv(ptr noundef nonnull align 8 dereferenceable(8)) #2

; Function Attrs: mustprogress nounwind uwtable
define linkonce_odr hidden noundef zeroext i1 @_ZNK4llvh8OptionalImEcvbEv(ptr noundef nonnull align 8 dereferenceable(16) %this) #0 comdat align 2 {
entry:
  %this.addr = alloca ptr, align 8
  store ptr %this, ptr %this.addr, align 8
  %this1 = load ptr, ptr %this.addr, align 8
  %Storage = getelementptr inbounds %"class.llvh::Optional", ptr %this1, i32 0, i32 0
  %hasVal = getelementptr inbounds %"struct.llvh::optional_detail::OptionalStorage", ptr %Storage, i32 0, i32 1
  %0 = load i8, ptr %hasVal, align 8
  %tobool = trunc i8 %0 to i1
  ret i1 %tobool
}

; Function Attrs: mustprogress nounwind uwtable
define linkonce_odr hidden noundef zeroext i1 @_ZNK4llvh8OptionalIPN6hermes6ESTree11ProgramNodeEEcvbEv(ptr noundef nonnull align 8 dereferenceable(16) %this) #0 comdat align 2 {
entry:
  %this.addr = alloca ptr, align 8
  store ptr %this, ptr %this.addr, align 8
  %this1 = load ptr, ptr %this.addr, align 8
  %Storage = getelementptr inbounds %"class.llvh::Optional.61", ptr %this1, i32 0, i32 0
  %hasVal = getelementptr inbounds %"struct.llvh::optional_detail::OptionalStorage.62", ptr %Storage, i32 0, i32 1
  %0 = load i8, ptr %hasVal, align 8
  %tobool = trunc i8 %0 to i1
  ret i1 %tobool
}

; Function Attrs: mustprogress nounwind uwtable
define linkonce_odr hidden noundef nonnull align 8 dereferenceable(8) ptr @_ZNR4llvh8OptionalIPN6hermes6ESTree11ProgramNodeEEdeEv(ptr noundef nonnull align 8 dereferenceable(16) %this) #0 comdat align 2 {
entry:
  %this.addr = alloca ptr, align 8
  store ptr %this, ptr %this.addr, align 8
  %this1 = load ptr, ptr %this.addr, align 8
  %call = call noundef ptr @_ZN4llvh8OptionalIPN6hermes6ESTree11ProgramNodeEE10getPointerEv(ptr noundef nonnull align 8 dereferenceable(16) %this1)
  ret ptr %call
}

; Function Attrs: nounwind
declare void @_ZN6hermes6parser8JSParserD1Ev(ptr noundef nonnull align 8 dereferenceable(8)) unnamed_addr #3

; Function Attrs: mustprogress nounwind uwtable
define internal void @_ZNSt10unique_ptrIN12_GLOBAL__N_113ParserContextESt14default_deleteIS1_EED2Ev(ptr noundef nonnull align 8 dereferenceable(8) %this) unnamed_addr #0 align 2 {
entry:
  %this.addr = alloca ptr, align 8
  %__ptr = alloca ptr, align 8
  store ptr %this, ptr %this.addr, align 8
  %this1 = load ptr, ptr %this.addr, align 8
  %_M_t = getelementptr inbounds %"class.std::unique_ptr", ptr %this1, i32 0, i32 0
  %call = call noundef nonnull align 8 dereferenceable(8) ptr @_ZNSt15__uniq_ptr_implIN12_GLOBAL__N_113ParserContextESt14default_deleteIS1_EE6_M_ptrEv(ptr noundef nonnull align 8 dereferenceable(8) %_M_t) #11
  store ptr %call, ptr %__ptr, align 8
  %0 = load ptr, ptr %__ptr, align 8
  %1 = load ptr, ptr %0, align 8
  %cmp = icmp ne ptr %1, null
  br i1 %cmp, label %if.then, label %if.end

if.then:                                          ; preds = %entry
  %call2 = call noundef nonnull align 1 dereferenceable(1) ptr @_ZNSt10unique_ptrIN12_GLOBAL__N_113ParserContextESt14default_deleteIS1_EE11get_deleterEv(ptr noundef nonnull align 8 dereferenceable(8) %this1) #11
  %2 = load ptr, ptr %__ptr, align 8
  %3 = load ptr, ptr %2, align 8
  call void @_ZNKSt14default_deleteIN12_GLOBAL__N_113ParserContextEEclEPS1_(ptr noundef nonnull align 1 dereferenceable(1) %call2, ptr noundef %3)
  br label %if.end

if.end:                                           ; preds = %if.then, %entry
  %4 = load ptr, ptr %__ptr, align 8
  store ptr null, ptr %4, align 8
  ret void
}

; Function Attrs: mustprogress nounwind uwtable
define hidden void @hermes_parser_free(ptr noundef %parserCtx) #0 {
entry:
  %parserCtx.addr = alloca ptr, align 8
  store ptr %parserCtx, ptr %parserCtx.addr, align 8
  %0 = load ptr, ptr %parserCtx.addr, align 8
  %isnull = icmp eq ptr %0, null
  br i1 %isnull, label %delete.end, label %delete.notnull

delete.notnull:                                   ; preds = %entry
  call void @_ZN12_GLOBAL__N_113ParserContextD2Ev(ptr noundef nonnull align 8 dereferenceable(824) %0) #11
  call void @_ZdlPv(ptr noundef %0) #13
  br label %delete.end

delete.end:                                       ; preds = %delete.notnull, %entry
  ret void
}

; Function Attrs: mustprogress nounwind uwtable
define internal void @_ZN12_GLOBAL__N_113ParserContextD2Ev(ptr noundef nonnull align 8 dereferenceable(824) %this) unnamed_addr #0 align 2 {
entry:
  %this.addr = alloca ptr, align 8
  store ptr %this, ptr %this.addr, align 8
  %this1 = load ptr, ptr %this.addr, align 8
  %docBlock_ = getelementptr inbounds %"struct.(anonymous namespace)::ParserContext", ptr %this1, i32 0, i32 6
  call void @_ZNSt7__cxx1112basic_stringIcSt11char_traitsIcESaIcEED1Ev(ptr noundef nonnull align 8 dereferenceable(32) %docBlock_) #11
  %convertedMessages_ = getelementptr inbounds %"struct.(anonymous namespace)::ParserContext", ptr %this1, i32 0, i32 3
  call void @_ZNSt6vectorIN12_GLOBAL__N_111DiagMessageESaIS1_EED2Ev(ptr noundef nonnull align 8 dereferenceable(24) %convertedMessages_) #11
  %ourMessages_ = getelementptr inbounds %"struct.(anonymous namespace)::ParserContext", ptr %this1, i32 0, i32 2
  call void @_ZNSt5dequeIN4llvh12SMDiagnosticESaIS1_EED2Ev(ptr noundef nonnull align 8 dereferenceable(80) %ourMessages_) #11
  %context_ = getelementptr inbounds %"struct.(anonymous namespace)::ParserContext", ptr %this1, i32 0, i32 0
  call void @_ZN6hermes7ContextD2Ev(ptr noundef nonnull align 8 dereferenceable(656) %context_) #11
  ret void
}

; Function Attrs: nobuiltin nounwind
declare void @_ZdlPv(ptr noundef) #4

; Function Attrs: mustprogress nounwind uwtable
define hidden i64 @hermes_parser_get_first_error(ptr noundef %parserCtx) #0 {
entry:
  %parserCtx.addr = alloca ptr, align 8
  store ptr %parserCtx, ptr %parserCtx.addr, align 8
  %0 = load ptr, ptr %parserCtx.addr, align 8
  %firstError_ = getelementptr inbounds %"struct.(anonymous namespace)::ParserContext", ptr %0, i32 0, i32 4
  %call = call noundef zeroext i1 @_ZNK4llvh8OptionalImEcvbEv(ptr noundef nonnull align 8 dereferenceable(16) %firstError_)
  br i1 %call, label %cond.true, label %cond.false

cond.true:                                        ; preds = %entry
  %1 = load ptr, ptr %parserCtx.addr, align 8
  %firstError_1 = getelementptr inbounds %"struct.(anonymous namespace)::ParserContext", ptr %1, i32 0, i32 4
  %call2 = call noundef nonnull align 8 dereferenceable(8) ptr @_ZNKR4llvh8OptionalImEdeEv(ptr noundef nonnull align 8 dereferenceable(16) %firstError_1)
  %2 = load i64, ptr %call2, align 8
  %conv = trunc i64 %2 to i32
  br label %cond.end

cond.false:                                       ; preds = %entry
  br label %cond.end

cond.end:                                         ; preds = %cond.false, %cond.true
  %cond = phi i32 [ %conv, %cond.true ], [ -1, %cond.false ]
  %conv3 = sext i32 %cond to i64
  ret i64 %conv3
}

; Function Attrs: mustprogress nounwind uwtable
define linkonce_odr hidden noundef nonnull align 8 dereferenceable(8) ptr @_ZNKR4llvh8OptionalImEdeEv(ptr noundef nonnull align 8 dereferenceable(16) %this) #0 comdat align 2 {
entry:
  %this.addr = alloca ptr, align 8
  store ptr %this, ptr %this.addr, align 8
  %this1 = load ptr, ptr %this.addr, align 8
  %call = call noundef ptr @_ZNK4llvh8OptionalImE10getPointerEv(ptr noundef nonnull align 8 dereferenceable(16) %this1)
  ret ptr %call
}

; Function Attrs: mustprogress nounwind uwtable
define hidden { ptr, i64 } @hermes_parser_get_messages(ptr noundef %parserCtx) #0 {
entry:
  %retval = alloca %"struct.(anonymous namespace)::DataRef", align 8
  %parserCtx.addr = alloca ptr, align 8
  store ptr %parserCtx, ptr %parserCtx.addr, align 8
  %0 = load ptr, ptr %parserCtx.addr, align 8
  %convertedMessages_ = getelementptr inbounds %"struct.(anonymous namespace)::ParserContext", ptr %0, i32 0, i32 3
  %call = call { ptr, i64 } @_ZN12_GLOBAL__N_19toDataRefISt6vectorINS_11DiagMessageESaIS2_EEEENS_7DataRefERKT_(ptr noundef nonnull align 8 dereferenceable(24) %convertedMessages_)
  %1 = getelementptr inbounds { ptr, i64 }, ptr %retval, i32 0, i32 0
  %2 = extractvalue { ptr, i64 } %call, 0
  store ptr %2, ptr %1, align 8
  %3 = getelementptr inbounds { ptr, i64 }, ptr %retval, i32 0, i32 1
  %4 = extractvalue { ptr, i64 } %call, 1
  store i64 %4, ptr %3, align 8
  %5 = load { ptr, i64 }, ptr %retval, align 8
  ret { ptr, i64 } %5
}

; Function Attrs: mustprogress nounwind uwtable
define internal { ptr, i64 } @_ZN12_GLOBAL__N_19toDataRefISt6vectorINS_11DiagMessageESaIS2_EEEENS_7DataRefERKT_(ptr noundef nonnull align 8 dereferenceable(24) %ref) #0 {
entry:
  %retval = alloca %"struct.(anonymous namespace)::DataRef", align 8
  %ref.addr = alloca ptr, align 8
  store ptr %ref, ptr %ref.addr, align 8
  %data = getelementptr inbounds %"struct.(anonymous namespace)::DataRef", ptr %retval, i32 0, i32 0
  %0 = load ptr, ptr %ref.addr, align 8
  %call = call noundef ptr @_ZNKSt6vectorIN12_GLOBAL__N_111DiagMessageESaIS1_EE4dataEv(ptr noundef nonnull align 8 dereferenceable(24) %0) #11
  store ptr %call, ptr %data, align 8
  %length = getelementptr inbounds %"struct.(anonymous namespace)::DataRef", ptr %retval, i32 0, i32 1
  %1 = load ptr, ptr %ref.addr, align 8
  %call1 = call noundef i64 @_ZNKSt6vectorIN12_GLOBAL__N_111DiagMessageESaIS1_EE4sizeEv(ptr noundef nonnull align 8 dereferenceable(24) %1) #11
  store i64 %call1, ptr %length, align 8
  %2 = load { ptr, i64 }, ptr %retval, align 8
  ret { ptr, i64 } %2
}

; Function Attrs: mustprogress nounwind uwtable
define hidden ptr @hermes_parser_get_ast(ptr noundef %parserCtx) #0 {
entry:
  %parserCtx.addr = alloca ptr, align 8
  store ptr %parserCtx, ptr %parserCtx.addr, align 8
  %0 = load ptr, ptr %parserCtx.addr, align 8
  %ast_ = getelementptr inbounds %"struct.(anonymous namespace)::ParserContext", ptr %0, i32 0, i32 5
  %1 = load ptr, ptr %ast_, align 8
  ret ptr %1
}

; Function Attrs: mustprogress nounwind uwtable
define hidden zeroext i1 @hermes_parser_find_location(ptr noundef %parserCtx, ptr %loc.coerce, ptr noundef %res) #0 {
entry:
  %retval = alloca i1, align 1
  %loc = alloca %"class.llvh::SMLoc", align 8
  %parserCtx.addr = alloca ptr, align 8
  %res.addr = alloca ptr, align 8
  %coords = alloca %"class.hermes::SourceErrorManager::SourceCoords", align 4
  %agg.tmp = alloca %"class.llvh::SMLoc", align 8
  %coerce.dive = getelementptr inbounds %"class.llvh::SMLoc", ptr %loc, i32 0, i32 0
  store ptr %loc.coerce, ptr %coerce.dive, align 8
  store ptr %parserCtx, ptr %parserCtx.addr, align 8
  store ptr %res, ptr %res.addr, align 8
  call void @_ZN6hermes18SourceErrorManager12SourceCoordsC2Ev(ptr noundef nonnull align 4 dereferenceable(12) %coords) #11
  %0 = load ptr, ptr %parserCtx.addr, align 8
  %context_ = getelementptr inbounds %"struct.(anonymous namespace)::ParserContext", ptr %0, i32 0, i32 0
  %call = call noundef nonnull align 8 dereferenceable(464) ptr @_ZN6hermes7Context21getSourceErrorManagerEv(ptr noundef nonnull align 8 dereferenceable(656) %context_)
  call void @llvm.memcpy.p0.p0.i64(ptr align 8 %agg.tmp, ptr align 8 %loc, i64 8, i1 false)
  %coerce.dive1 = getelementptr inbounds %"class.llvh::SMLoc", ptr %agg.tmp, i32 0, i32 0
  %1 = load ptr, ptr %coerce.dive1, align 8
  %call2 = call noundef zeroext i1 @_ZN6hermes18SourceErrorManager20findBufferLineAndLocEN4llvh5SMLocERNS0_12SourceCoordsE(ptr noundef nonnull align 8 dereferenceable(464) %call, ptr %1, ptr noundef nonnull align 4 dereferenceable(12) %coords)
  br i1 %call2, label %if.end, label %if.then

if.then:                                          ; preds = %entry
  %2 = load ptr, ptr %res.addr, align 8
  %offset = getelementptr inbounds %"struct.(anonymous namespace)::Coord", ptr %2, i32 0, i32 1
  store i32 0, ptr %offset, align 4
  %3 = load ptr, ptr %res.addr, align 8
  %line = getelementptr inbounds %"struct.(anonymous namespace)::Coord", ptr %3, i32 0, i32 0
  store i32 0, ptr %line, align 4
  store i1 false, ptr %retval, align 1
  br label %return

if.end:                                           ; preds = %entry
  %line3 = getelementptr inbounds %"class.hermes::SourceErrorManager::SourceCoords", ptr %coords, i32 0, i32 1
  %4 = load i32, ptr %line3, align 4
  %5 = load ptr, ptr %res.addr, align 8
  %line4 = getelementptr inbounds %"struct.(anonymous namespace)::Coord", ptr %5, i32 0, i32 0
  store i32 %4, ptr %line4, align 4
  %col = getelementptr inbounds %"class.hermes::SourceErrorManager::SourceCoords", ptr %coords, i32 0, i32 2
  %6 = load i32, ptr %col, align 4
  %sub = sub i32 %6, 1
  %7 = load ptr, ptr %res.addr, align 8
  %offset5 = getelementptr inbounds %"struct.(anonymous namespace)::Coord", ptr %7, i32 0, i32 1
  store i32 %sub, ptr %offset5, align 4
  store i1 true, ptr %retval, align 1
  br label %return

return:                                           ; preds = %if.end, %if.then
  %8 = load i1, ptr %retval, align 1
  ret i1 %8
}

; Function Attrs: mustprogress nounwind uwtable
define linkonce_odr hidden void @_ZN6hermes18SourceErrorManager12SourceCoordsC2Ev(ptr noundef nonnull align 4 dereferenceable(12) %this) unnamed_addr #0 comdat align 2 {
entry:
  %this.addr = alloca ptr, align 8
  store ptr %this, ptr %this.addr, align 8
  %this1 = load ptr, ptr %this.addr, align 8
  %bufId = getelementptr inbounds %"class.hermes::SourceErrorManager::SourceCoords", ptr %this1, i32 0, i32 0
  store i32 0, ptr %bufId, align 4
  %line = getelementptr inbounds %"class.hermes::SourceErrorManager::SourceCoords", ptr %this1, i32 0, i32 1
  store i32 0, ptr %line, align 4
  %col = getelementptr inbounds %"class.hermes::SourceErrorManager::SourceCoords", ptr %this1, i32 0, i32 2
  store i32 0, ptr %col, align 4
  ret void
}

; Function Attrs: mustprogress nounwind uwtable
define linkonce_odr hidden noundef nonnull align 8 dereferenceable(464) ptr @_ZN6hermes7Context21getSourceErrorManagerEv(ptr noundef nonnull align 8 dereferenceable(656) %this) #0 comdat align 2 {
entry:
  %this.addr = alloca ptr, align 8
  store ptr %this, ptr %this.addr, align 8
  %this1 = load ptr, ptr %this.addr, align 8
  %sm_ = getelementptr inbounds %"class.hermes::Context", ptr %this1, i32 0, i32 6
  %0 = load ptr, ptr %sm_, align 8
  ret ptr %0
}

declare noundef zeroext i1 @_ZN6hermes18SourceErrorManager20findBufferLineAndLocEN4llvh5SMLocERNS0_12SourceCoordsE(ptr noundef nonnull align 8 dereferenceable(464), ptr, ptr noundef nonnull align 4 dereferenceable(12)) #2

; Function Attrs: nocallback nofree nounwind willreturn memory(argmem: readwrite)
declare void @llvm.memcpy.p0.p0.i64(ptr noalias nocapture writeonly, ptr noalias nocapture readonly, i64, i1 immarg) #5

; Function Attrs: mustprogress nounwind uwtable
define hidden zeroext i1 @hermes_parser_find_line(ptr noundef %parserCtx, ptr %loc.coerce, ptr noundef %res) #0 {
entry:
  %retval = alloca i1, align 1
  %loc = alloca %"class.llvh::SMLoc", align 8
  %parserCtx.addr = alloca ptr, align 8
  %res.addr = alloca ptr, align 8
  %coord = alloca %"class.llvh::Optional.105", align 8
  %agg.tmp = alloca %"class.llvh::SMLoc", align 8
  %ref.tmp = alloca %"struct.(anonymous namespace)::DataRef", align 8
  %coerce.dive = getelementptr inbounds %"class.llvh::SMLoc", ptr %loc, i32 0, i32 0
  store ptr %loc.coerce, ptr %coerce.dive, align 8
  store ptr %parserCtx, ptr %parserCtx.addr, align 8
  store ptr %res, ptr %res.addr, align 8
  %0 = load ptr, ptr %parserCtx.addr, align 8
  %context_ = getelementptr inbounds %"struct.(anonymous namespace)::ParserContext", ptr %0, i32 0, i32 0
  %call = call noundef nonnull align 8 dereferenceable(464) ptr @_ZNK6hermes7Context21getSourceErrorManagerEv(ptr noundef nonnull align 8 dereferenceable(656) %context_)
  call void @llvm.memcpy.p0.p0.i64(ptr align 8 %agg.tmp, ptr align 8 %loc, i64 8, i1 false)
  %coerce.dive1 = getelementptr inbounds %"class.llvh::SMLoc", ptr %agg.tmp, i32 0, i32 0
  %1 = load ptr, ptr %coerce.dive1, align 8
  call void @_ZNK6hermes18SourceErrorManager17findBufferAndLineEN4llvh5SMLocE(ptr sret(%"class.llvh::Optional.105") align 8 %coord, ptr noundef nonnull align 8 dereferenceable(464) %call, ptr %1)
  %call2 = call noundef zeroext i1 @_ZNK4llvh8OptionalIN6hermes18SourceErrorManager9LineCoordEEcvbEv(ptr noundef nonnull align 8 dereferenceable(32) %coord)
  br i1 %call2, label %if.end, label %if.then

if.then:                                          ; preds = %entry
  store i1 false, ptr %retval, align 1
  br label %return

if.end:                                           ; preds = %entry
  %call3 = call noundef ptr @_ZN4llvh8OptionalIN6hermes18SourceErrorManager9LineCoordEEptEv(ptr noundef nonnull align 8 dereferenceable(32) %coord)
  %lineNo = getelementptr inbounds %"struct.hermes::SourceErrorManager::LineCoord", ptr %call3, i32 0, i32 1
  %2 = load i32, ptr %lineNo, align 4
  %3 = load ptr, ptr %res.addr, align 8
  %lineNo4 = getelementptr inbounds %"struct.(anonymous namespace)::LineCoord", ptr %3, i32 0, i32 0
  store i32 %2, ptr %lineNo4, align 8
  %call5 = call noundef ptr @_ZN4llvh8OptionalIN6hermes18SourceErrorManager9LineCoordEEptEv(ptr noundef nonnull align 8 dereferenceable(32) %coord)
  %lineRef = getelementptr inbounds %"struct.hermes::SourceErrorManager::LineCoord", ptr %call5, i32 0, i32 2
  %call6 = call { ptr, i64 } @_ZN12_GLOBAL__N_19toDataRefIN4llvh9StringRefEEENS_7DataRefERKT_(ptr noundef nonnull align 8 dereferenceable(16) %lineRef)
  %4 = getelementptr inbounds { ptr, i64 }, ptr %ref.tmp, i32 0, i32 0
  %5 = extractvalue { ptr, i64 } %call6, 0
  store ptr %5, ptr %4, align 8
  %6 = getelementptr inbounds { ptr, i64 }, ptr %ref.tmp, i32 0, i32 1
  %7 = extractvalue { ptr, i64 } %call6, 1
  store i64 %7, ptr %6, align 8
  %8 = load ptr, ptr %res.addr, align 8
  %lineRef7 = getelementptr inbounds %"struct.(anonymous namespace)::LineCoord", ptr %8, i32 0, i32 1
  call void @llvm.memcpy.p0.p0.i64(ptr align 8 %lineRef7, ptr align 8 %ref.tmp, i64 16, i1 false)
  store i1 true, ptr %retval, align 1
  br label %return

return:                                           ; preds = %if.end, %if.then
  %9 = load i1, ptr %retval, align 1
  ret i1 %9
}

; Function Attrs: mustprogress nounwind uwtable
define linkonce_odr hidden noundef nonnull align 8 dereferenceable(464) ptr @_ZNK6hermes7Context21getSourceErrorManagerEv(ptr noundef nonnull align 8 dereferenceable(656) %this) #0 comdat align 2 {
entry:
  %this.addr = alloca ptr, align 8
  store ptr %this, ptr %this.addr, align 8
  %this1 = load ptr, ptr %this.addr, align 8
  %sm_ = getelementptr inbounds %"class.hermes::Context", ptr %this1, i32 0, i32 6
  %0 = load ptr, ptr %sm_, align 8
  ret ptr %0
}

declare void @_ZNK6hermes18SourceErrorManager17findBufferAndLineEN4llvh5SMLocE(ptr sret(%"class.llvh::Optional.105") align 8, ptr noundef nonnull align 8 dereferenceable(464), ptr) #2

; Function Attrs: mustprogress nounwind uwtable
define linkonce_odr hidden noundef zeroext i1 @_ZNK4llvh8OptionalIN6hermes18SourceErrorManager9LineCoordEEcvbEv(ptr noundef nonnull align 8 dereferenceable(32) %this) #0 comdat align 2 {
entry:
  %this.addr = alloca ptr, align 8
  store ptr %this, ptr %this.addr, align 8
  %this1 = load ptr, ptr %this.addr, align 8
  %Storage = getelementptr inbounds %"class.llvh::Optional.105", ptr %this1, i32 0, i32 0
  %hasVal = getelementptr inbounds %"struct.llvh::optional_detail::OptionalStorage.106", ptr %Storage, i32 0, i32 1
  %0 = load i8, ptr %hasVal, align 8
  %tobool = trunc i8 %0 to i1
  ret i1 %tobool
}

; Function Attrs: mustprogress nounwind uwtable
define linkonce_odr hidden noundef ptr @_ZN4llvh8OptionalIN6hermes18SourceErrorManager9LineCoordEEptEv(ptr noundef nonnull align 8 dereferenceable(32) %this) #0 comdat align 2 {
entry:
  %this.addr = alloca ptr, align 8
  store ptr %this, ptr %this.addr, align 8
  %this1 = load ptr, ptr %this.addr, align 8
  %call = call noundef ptr @_ZN4llvh8OptionalIN6hermes18SourceErrorManager9LineCoordEE10getPointerEv(ptr noundef nonnull align 8 dereferenceable(32) %this1)
  ret ptr %call
}

; Function Attrs: mustprogress nounwind uwtable
define internal { ptr, i64 } @_ZN12_GLOBAL__N_19toDataRefIN4llvh9StringRefEEENS_7DataRefERKT_(ptr noundef nonnull align 8 dereferenceable(16) %ref) #0 {
entry:
  %this.addr.i2 = alloca ptr, align 8
  %this.addr.i = alloca ptr, align 8
  %retval = alloca %"struct.(anonymous namespace)::DataRef", align 8
  %ref.addr = alloca ptr, align 8
  store ptr %ref, ptr %ref.addr, align 8
  %data = getelementptr inbounds %"struct.(anonymous namespace)::DataRef", ptr %retval, i32 0, i32 0
  %0 = load ptr, ptr %ref.addr, align 8
  store ptr %0, ptr %this.addr.i, align 8
  %this1.i = load ptr, ptr %this.addr.i, align 8
  %1 = load ptr, ptr %this1.i, align 8
  store ptr %1, ptr %data, align 8
  %length = getelementptr inbounds %"struct.(anonymous namespace)::DataRef", ptr %retval, i32 0, i32 1
  %2 = load ptr, ptr %ref.addr, align 8
  store ptr %2, ptr %this.addr.i2, align 8
  %this1.i3 = load ptr, ptr %this.addr.i2, align 8
  %Length.i = getelementptr inbounds %"class.llvh::StringRef", ptr %this1.i3, i32 0, i32 1
  %3 = load i64, ptr %Length.i, align 8
  store i64 %3, ptr %length, align 8
  %4 = load { ptr, i64 }, ptr %retval, align 8
  ret { ptr, i64 } %4
}

; Function Attrs: mustprogress nounwind uwtable
define hidden { ptr, i64 } @hermes_parser_get_line_ref(ptr noundef %parserCtx, i32 noundef %line) #0 {
entry:
  %retval = alloca %"struct.(anonymous namespace)::DataRef", align 8
  %parserCtx.addr = alloca ptr, align 8
  %line.addr = alloca i32, align 4
  %ref.tmp = alloca %"class.llvh::StringRef", align 8
  store ptr %parserCtx, ptr %parserCtx.addr, align 8
  store i32 %line, ptr %line.addr, align 4
  %0 = load ptr, ptr %parserCtx.addr, align 8
  %context_ = getelementptr inbounds %"struct.(anonymous namespace)::ParserContext", ptr %0, i32 0, i32 0
  %call = call noundef nonnull align 8 dereferenceable(464) ptr @_ZNK6hermes7Context21getSourceErrorManagerEv(ptr noundef nonnull align 8 dereferenceable(656) %context_)
  %1 = load ptr, ptr %parserCtx.addr, align 8
  %call1 = call noundef i32 @_ZNK12_GLOBAL__N_113ParserContext11getBufferIdEv(ptr noundef nonnull align 8 dereferenceable(824) %1)
  %2 = load i32, ptr %line.addr, align 4
  %call2 = call { ptr, i64 } @_ZNK6hermes18SourceErrorManager10getLineRefEjj(ptr noundef nonnull align 8 dereferenceable(464) %call, i32 noundef %call1, i32 noundef %2)
  %3 = getelementptr inbounds { ptr, i64 }, ptr %ref.tmp, i32 0, i32 0
  %4 = extractvalue { ptr, i64 } %call2, 0
  store ptr %4, ptr %3, align 8
  %5 = getelementptr inbounds { ptr, i64 }, ptr %ref.tmp, i32 0, i32 1
  %6 = extractvalue { ptr, i64 } %call2, 1
  store i64 %6, ptr %5, align 8
  %call3 = call { ptr, i64 } @_ZN12_GLOBAL__N_19toDataRefIN4llvh9StringRefEEENS_7DataRefERKT_(ptr noundef nonnull align 8 dereferenceable(16) %ref.tmp)
  %7 = getelementptr inbounds { ptr, i64 }, ptr %retval, i32 0, i32 0
  %8 = extractvalue { ptr, i64 } %call3, 0
  store ptr %8, ptr %7, align 8
  %9 = getelementptr inbounds { ptr, i64 }, ptr %retval, i32 0, i32 1
  %10 = extractvalue { ptr, i64 } %call3, 1
  store i64 %10, ptr %9, align 8
  %11 = load { ptr, i64 }, ptr %retval, align 8
  ret { ptr, i64 } %11
}

; Function Attrs: mustprogress nounwind uwtable
define linkonce_odr hidden { ptr, i64 } @_ZNK6hermes18SourceErrorManager10getLineRefEjj(ptr noundef nonnull align 8 dereferenceable(464) %this, i32 noundef %bufId, i32 noundef %line) #0 comdat align 2 {
entry:
  %retval = alloca %"class.llvh::StringRef", align 8
  %this.addr = alloca ptr, align 8
  %bufId.addr = alloca i32, align 4
  %line.addr = alloca i32, align 4
  store ptr %this, ptr %this.addr, align 8
  store i32 %bufId, ptr %bufId.addr, align 4
  store i32 %line, ptr %line.addr, align 4
  %this1 = load ptr, ptr %this.addr, align 8
  %sm_ = getelementptr inbounds %"class.hermes::SourceErrorManager", ptr %this1, i32 0, i32 0
  %0 = load i32, ptr %line.addr, align 4
  %1 = load i32, ptr %bufId.addr, align 4
  %call = call { ptr, i64 } @_ZNK4llvh9SourceMgr10getLineRefEjj(ptr noundef nonnull align 8 dereferenceable(120) %sm_, i32 noundef %0, i32 noundef %1)
  %2 = getelementptr inbounds { ptr, i64 }, ptr %retval, i32 0, i32 0
  %3 = extractvalue { ptr, i64 } %call, 0
  store ptr %3, ptr %2, align 8
  %4 = getelementptr inbounds { ptr, i64 }, ptr %retval, i32 0, i32 1
  %5 = extractvalue { ptr, i64 } %call, 1
  store i64 %5, ptr %4, align 8
  %6 = load { ptr, i64 }, ptr %retval, align 8
  ret { ptr, i64 } %6
}

; Function Attrs: mustprogress nounwind uwtable
define hidden { ptr, i64 } @hermes_parser_get_magic_comment(ptr noundef %parserCtx, i32 noundef %kind) #0 {
entry:
  %retval = alloca %"struct.(anonymous namespace)::DataRef", align 8
  %parserCtx.addr = alloca ptr, align 8
  %kind.addr = alloca i32, align 4
  %res = alloca %"class.llvh::StringRef", align 8
  %ref.tmp = alloca %"class.llvh::StringRef", align 8
  %ref.tmp5 = alloca %"class.llvh::StringRef", align 8
  store ptr %parserCtx, ptr %parserCtx.addr, align 8
  store i32 %kind, ptr %kind.addr, align 4
  %0 = load ptr, ptr %parserCtx.addr, align 8
  %call = call noundef zeroext i1 @_ZNK12_GLOBAL__N_113ParserContext12haveBufferIdEv(ptr noundef nonnull align 8 dereferenceable(824) %0)
  br i1 %call, label %lor.lhs.false, label %if.then

lor.lhs.false:                                    ; preds = %entry
  %1 = load ptr, ptr %parserCtx.addr, align 8
  %ast_ = getelementptr inbounds %"struct.(anonymous namespace)::ParserContext", ptr %1, i32 0, i32 5
  %2 = load ptr, ptr %ast_, align 8
  %tobool = icmp ne ptr %2, null
  br i1 %tobool, label %if.end, label %if.then

if.then:                                          ; preds = %lor.lhs.false, %entry
  %data = getelementptr inbounds %"struct.(anonymous namespace)::DataRef", ptr %retval, i32 0, i32 0
  store ptr null, ptr %data, align 8
  %length = getelementptr inbounds %"struct.(anonymous namespace)::DataRef", ptr %retval, i32 0, i32 1
  store i64 0, ptr %length, align 8
  br label %return

if.end:                                           ; preds = %lor.lhs.false
  call void @llvm.memset.p0.i64(ptr align 8 %res, i8 0, i64 16, i1 false)
  call void @_ZN4llvh9StringRefC2Ev(ptr noundef nonnull align 8 dereferenceable(16) %res) #11
  %3 = load i32, ptr %kind.addr, align 4
  switch i32 %3, label %sw.epilog [
    i32 0, label %sw.bb
    i32 1, label %sw.bb4
  ]

sw.bb:                                            ; preds = %if.end
  %4 = load ptr, ptr %parserCtx.addr, align 8
  %context_ = getelementptr inbounds %"struct.(anonymous namespace)::ParserContext", ptr %4, i32 0, i32 0
  %call1 = call noundef nonnull align 8 dereferenceable(464) ptr @_ZNK6hermes7Context21getSourceErrorManagerEv(ptr noundef nonnull align 8 dereferenceable(656) %context_)
  %5 = load ptr, ptr %parserCtx.addr, align 8
  %call2 = call noundef i32 @_ZNK12_GLOBAL__N_113ParserContext11getBufferIdEv(ptr noundef nonnull align 8 dereferenceable(824) %5)
  %call3 = call { ptr, i64 } @_ZNK6hermes18SourceErrorManager12getSourceUrlEj(ptr noundef nonnull align 8 dereferenceable(464) %call1, i32 noundef %call2)
  %6 = getelementptr inbounds { ptr, i64 }, ptr %ref.tmp, i32 0, i32 0
  %7 = extractvalue { ptr, i64 } %call3, 0
  store ptr %7, ptr %6, align 8
  %8 = getelementptr inbounds { ptr, i64 }, ptr %ref.tmp, i32 0, i32 1
  %9 = extractvalue { ptr, i64 } %call3, 1
  store i64 %9, ptr %8, align 8
  call void @llvm.memcpy.p0.p0.i64(ptr align 8 %res, ptr align 8 %ref.tmp, i64 16, i1 false)
  br label %sw.epilog

sw.bb4:                                           ; preds = %if.end
  %10 = load ptr, ptr %parserCtx.addr, align 8
  %context_6 = getelementptr inbounds %"struct.(anonymous namespace)::ParserContext", ptr %10, i32 0, i32 0
  %call7 = call noundef nonnull align 8 dereferenceable(464) ptr @_ZNK6hermes7Context21getSourceErrorManagerEv(ptr noundef nonnull align 8 dereferenceable(656) %context_6)
  %11 = load ptr, ptr %parserCtx.addr, align 8
  %call8 = call noundef i32 @_ZNK12_GLOBAL__N_113ParserContext11getBufferIdEv(ptr noundef nonnull align 8 dereferenceable(824) %11)
  %call9 = call { ptr, i64 } @_ZNK6hermes18SourceErrorManager19getSourceMappingUrlEj(ptr noundef nonnull align 8 dereferenceable(464) %call7, i32 noundef %call8)
  %12 = getelementptr inbounds { ptr, i64 }, ptr %ref.tmp5, i32 0, i32 0
  %13 = extractvalue { ptr, i64 } %call9, 0
  store ptr %13, ptr %12, align 8
  %14 = getelementptr inbounds { ptr, i64 }, ptr %ref.tmp5, i32 0, i32 1
  %15 = extractvalue { ptr, i64 } %call9, 1
  store i64 %15, ptr %14, align 8
  call void @llvm.memcpy.p0.p0.i64(ptr align 8 %res, ptr align 8 %ref.tmp5, i64 16, i1 false)
  br label %sw.epilog

sw.epilog:                                        ; preds = %sw.bb4, %sw.bb, %if.end
  %call10 = call { ptr, i64 } @_ZN12_GLOBAL__N_19toDataRefIN4llvh9StringRefEEENS_7DataRefERKT_(ptr noundef nonnull align 8 dereferenceable(16) %res)
  %16 = getelementptr inbounds { ptr, i64 }, ptr %retval, i32 0, i32 0
  %17 = extractvalue { ptr, i64 } %call10, 0
  store ptr %17, ptr %16, align 8
  %18 = getelementptr inbounds { ptr, i64 }, ptr %retval, i32 0, i32 1
  %19 = extractvalue { ptr, i64 } %call10, 1
  store i64 %19, ptr %18, align 8
  br label %return

return:                                           ; preds = %sw.epilog, %if.then
  %20 = load { ptr, i64 }, ptr %retval, align 8
  ret { ptr, i64 } %20
}

; Function Attrs: mustprogress nounwind uwtable
define internal noundef zeroext i1 @_ZNK12_GLOBAL__N_113ParserContext12haveBufferIdEv(ptr noundef nonnull align 8 dereferenceable(824) %this) #0 align 2 {
entry:
  %this.addr = alloca ptr, align 8
  store ptr %this, ptr %this.addr, align 8
  %this1 = load ptr, ptr %this.addr, align 8
  %bufId_ = getelementptr inbounds %"struct.(anonymous namespace)::ParserContext", ptr %this1, i32 0, i32 1
  %0 = load i32, ptr %bufId_, align 8
  %cmp = icmp ne i32 %0, -1
  ret i1 %cmp
}

; Function Attrs: nocallback nofree nounwind willreturn memory(argmem: write)
declare void @llvm.memset.p0.i64(ptr nocapture writeonly, i8, i64, i1 immarg) #6

; Function Attrs: mustprogress nounwind uwtable
define linkonce_odr hidden void @_ZN4llvh9StringRefC2Ev(ptr noundef nonnull align 8 dereferenceable(16) %this) unnamed_addr #0 comdat align 2 {
entry:
  %this.addr = alloca ptr, align 8
  store ptr %this, ptr %this.addr, align 8
  %this1 = load ptr, ptr %this.addr, align 8
  %Data = getelementptr inbounds %"class.llvh::StringRef", ptr %this1, i32 0, i32 0
  store ptr null, ptr %Data, align 8
  %Length = getelementptr inbounds %"class.llvh::StringRef", ptr %this1, i32 0, i32 1
  store i64 0, ptr %Length, align 8
  ret void
}

; Function Attrs: mustprogress nounwind uwtable
define linkonce_odr hidden { ptr, i64 } @_ZNK6hermes18SourceErrorManager12getSourceUrlEj(ptr noundef nonnull align 8 dereferenceable(464) %this, i32 noundef %bufId) #0 comdat align 2 {
entry:
  %this.addr.i = alloca ptr, align 8
  %Str.addr.i = alloca ptr, align 8
  %retval = alloca %"class.llvh::StringRef", align 8
  %this.addr = alloca ptr, align 8
  %bufId.addr = alloca i32, align 4
  %it = alloca %"class.llvh::DenseMapIterator", align 8
  %ref.tmp = alloca %"class.llvh::DenseMapIterator", align 8
  store ptr %this, ptr %this.addr, align 8
  store i32 %bufId, ptr %bufId.addr, align 4
  %this1 = load ptr, ptr %this.addr, align 8
  %sourceUrls_ = getelementptr inbounds %"class.hermes::SourceErrorManager", ptr %this1, i32 0, i32 14
  %call = call { ptr, ptr } @_ZNK4llvh12DenseMapBaseINS_8DenseMapIjNSt7__cxx1112basic_stringIcSt11char_traitsIcESaIcEEENS_12DenseMapInfoIjEENS_6detail12DenseMapPairIjS7_EEEEjS7_S9_SC_E4findERKj(ptr noundef nonnull align 1 dereferenceable(1) %sourceUrls_, ptr noundef nonnull align 4 dereferenceable(4) %bufId.addr)
  %0 = getelementptr inbounds { ptr, ptr }, ptr %it, i32 0, i32 0
  %1 = extractvalue { ptr, ptr } %call, 0
  store ptr %1, ptr %0, align 8
  %2 = getelementptr inbounds { ptr, ptr }, ptr %it, i32 0, i32 1
  %3 = extractvalue { ptr, ptr } %call, 1
  store ptr %3, ptr %2, align 8
  %sourceUrls_2 = getelementptr inbounds %"class.hermes::SourceErrorManager", ptr %this1, i32 0, i32 14
  %call3 = call { ptr, ptr } @_ZNK4llvh12DenseMapBaseINS_8DenseMapIjNSt7__cxx1112basic_stringIcSt11char_traitsIcESaIcEEENS_12DenseMapInfoIjEENS_6detail12DenseMapPairIjS7_EEEEjS7_S9_SC_E3endEv(ptr noundef nonnull align 1 dereferenceable(1) %sourceUrls_2)
  %4 = getelementptr inbounds { ptr, ptr }, ptr %ref.tmp, i32 0, i32 0
  %5 = extractvalue { ptr, ptr } %call3, 0
  store ptr %5, ptr %4, align 8
  %6 = getelementptr inbounds { ptr, ptr }, ptr %ref.tmp, i32 0, i32 1
  %7 = extractvalue { ptr, ptr } %call3, 1
  store ptr %7, ptr %6, align 8
  %call4 = call noundef zeroext i1 @_ZNK4llvh16DenseMapIteratorIjNSt7__cxx1112basic_stringIcSt11char_traitsIcESaIcEEENS_12DenseMapInfoIjEENS_6detail12DenseMapPairIjS6_EELb1EEneERKSC_(ptr noundef nonnull align 8 dereferenceable(16) %it, ptr noundef nonnull align 8 dereferenceable(16) %ref.tmp)
  br i1 %call4, label %if.then, label %if.end

if.then:                                          ; preds = %entry
  %call5 = call noundef ptr @_ZNK4llvh16DenseMapIteratorIjNSt7__cxx1112basic_stringIcSt11char_traitsIcESaIcEEENS_12DenseMapInfoIjEENS_6detail12DenseMapPairIjS6_EELb1EEptEv(ptr noundef nonnull align 8 dereferenceable(16) %it)
  %second = getelementptr inbounds %"struct.std::pair.166", ptr %call5, i32 0, i32 1
  store ptr %retval, ptr %this.addr.i, align 8
  store ptr %second, ptr %Str.addr.i, align 8
  %this1.i = load ptr, ptr %this.addr.i, align 8
  %8 = load ptr, ptr %Str.addr.i, align 8
  %call.i = call noundef ptr @_ZNKSt7__cxx1112basic_stringIcSt11char_traitsIcESaIcEE4dataEv(ptr noundef nonnull align 8 dereferenceable(32) %8) #11
  store ptr %call.i, ptr %this1.i, align 8
  %Length.i = getelementptr inbounds %"class.llvh::StringRef", ptr %this1.i, i32 0, i32 1
  %9 = load ptr, ptr %Str.addr.i, align 8
  %call2.i = call noundef i64 @_ZNKSt7__cxx1112basic_stringIcSt11char_traitsIcESaIcEE6lengthEv(ptr noundef nonnull align 8 dereferenceable(32) %9) #11
  store i64 %call2.i, ptr %Length.i, align 8
  br label %return

if.end:                                           ; preds = %entry
  %10 = load i32, ptr %bufId.addr, align 4
  %call6 = call { ptr, i64 } @_ZNK6hermes18SourceErrorManager17getBufferFileNameEj(ptr noundef nonnull align 8 dereferenceable(464) %this1, i32 noundef %10)
  %11 = getelementptr inbounds { ptr, i64 }, ptr %retval, i32 0, i32 0
  %12 = extractvalue { ptr, i64 } %call6, 0
  store ptr %12, ptr %11, align 8
  %13 = getelementptr inbounds { ptr, i64 }, ptr %retval, i32 0, i32 1
  %14 = extractvalue { ptr, i64 } %call6, 1
  store i64 %14, ptr %13, align 8
  br label %return

return:                                           ; preds = %if.end, %if.then
  %15 = load { ptr, i64 }, ptr %retval, align 8
  ret { ptr, i64 } %15
}

; Function Attrs: mustprogress nounwind uwtable
define linkonce_odr hidden { ptr, i64 } @_ZNK6hermes18SourceErrorManager19getSourceMappingUrlEj(ptr noundef nonnull align 8 dereferenceable(464) %this, i32 noundef %bufId) #0 comdat align 2 {
entry:
  %this.addr.i6 = alloca ptr, align 8
  %Str.addr.i7 = alloca ptr, align 8
  %this.addr.i = alloca ptr, align 8
  %Str.addr.i = alloca ptr, align 8
  %retval = alloca %"class.llvh::StringRef", align 8
  %this.addr = alloca ptr, align 8
  %bufId.addr = alloca i32, align 4
  %it = alloca %"class.llvh::DenseMapIterator", align 8
  %ref.tmp = alloca %"class.llvh::DenseMapIterator", align 8
  store ptr %this, ptr %this.addr, align 8
  store i32 %bufId, ptr %bufId.addr, align 4
  %this1 = load ptr, ptr %this.addr, align 8
  %sourceMappingUrls_ = getelementptr inbounds %"class.hermes::SourceErrorManager", ptr %this1, i32 0, i32 13
  %call = call { ptr, ptr } @_ZNK4llvh12DenseMapBaseINS_8DenseMapIjNSt7__cxx1112basic_stringIcSt11char_traitsIcESaIcEEENS_12DenseMapInfoIjEENS_6detail12DenseMapPairIjS7_EEEEjS7_S9_SC_E4findERKj(ptr noundef nonnull align 1 dereferenceable(1) %sourceMappingUrls_, ptr noundef nonnull align 4 dereferenceable(4) %bufId.addr)
  %0 = getelementptr inbounds { ptr, ptr }, ptr %it, i32 0, i32 0
  %1 = extractvalue { ptr, ptr } %call, 0
  store ptr %1, ptr %0, align 8
  %2 = getelementptr inbounds { ptr, ptr }, ptr %it, i32 0, i32 1
  %3 = extractvalue { ptr, ptr } %call, 1
  store ptr %3, ptr %2, align 8
  %sourceMappingUrls_2 = getelementptr inbounds %"class.hermes::SourceErrorManager", ptr %this1, i32 0, i32 13
  %call3 = call { ptr, ptr } @_ZNK4llvh12DenseMapBaseINS_8DenseMapIjNSt7__cxx1112basic_stringIcSt11char_traitsIcESaIcEEENS_12DenseMapInfoIjEENS_6detail12DenseMapPairIjS7_EEEEjS7_S9_SC_E3endEv(ptr noundef nonnull align 1 dereferenceable(1) %sourceMappingUrls_2)
  %4 = getelementptr inbounds { ptr, ptr }, ptr %ref.tmp, i32 0, i32 0
  %5 = extractvalue { ptr, ptr } %call3, 0
  store ptr %5, ptr %4, align 8
  %6 = getelementptr inbounds { ptr, ptr }, ptr %ref.tmp, i32 0, i32 1
  %7 = extractvalue { ptr, ptr } %call3, 1
  store ptr %7, ptr %6, align 8
  %call4 = call noundef zeroext i1 @_ZNK4llvh16DenseMapIteratorIjNSt7__cxx1112basic_stringIcSt11char_traitsIcESaIcEEENS_12DenseMapInfoIjEENS_6detail12DenseMapPairIjS6_EELb1EEeqERKSC_(ptr noundef nonnull align 8 dereferenceable(16) %it, ptr noundef nonnull align 8 dereferenceable(16) %ref.tmp)
  br i1 %call4, label %if.then, label %if.end

if.then:                                          ; preds = %entry
  store ptr %retval, ptr %this.addr.i6, align 8
  store ptr @.str.7, ptr %Str.addr.i7, align 8
  %this1.i8 = load ptr, ptr %this.addr.i6, align 8
  %8 = load ptr, ptr %Str.addr.i7, align 8
  store ptr %8, ptr %this1.i8, align 8
  %Length.i9 = getelementptr inbounds %"class.llvh::StringRef", ptr %this1.i8, i32 0, i32 1
  %9 = load ptr, ptr %Str.addr.i7, align 8
  %tobool.i = icmp ne ptr %9, null
  br i1 %tobool.i, label %cond.true.i, label %cond.false.i

cond.true.i:                                      ; preds = %if.then
  %10 = load ptr, ptr %Str.addr.i7, align 8
  %call.i10 = call i64 @strlen(ptr noundef %10) #12
  br label %_ZN4llvh9StringRefC2EPKc.exit

cond.false.i:                                     ; preds = %if.then
  br label %_ZN4llvh9StringRefC2EPKc.exit

_ZN4llvh9StringRefC2EPKc.exit:                    ; preds = %cond.false.i, %cond.true.i
  %cond.i = phi i64 [ %call.i10, %cond.true.i ], [ 0, %cond.false.i ]
  store i64 %cond.i, ptr %Length.i9, align 8
  br label %return

if.end:                                           ; preds = %entry
