target datalayout = "e-m:e-p270:32:32-p271:32:32-p272:64:64-i64:64-i128:128-f80:128-n8:16:32:64-S128"
target triple = "x86_64-unknown-linux-gnu"

%"class.std::vector" = type { %"struct.std::_Vector_base" }
%"struct.std::_Vector_base" = type { %"struct.std::_Vector_base<TreeClass, std::allocator<TreeClass>>::_Vector_impl" }
%"struct.std::_Vector_base<TreeClass, std::allocator<TreeClass>>::_Vector_impl" = type { %"struct.std::_Vector_base<TreeClass, std::allocator<TreeClass>>::_Vector_impl_data" }
%"struct.std::_Vector_base<TreeClass, std::allocator<TreeClass>>::_Vector_impl_data" = type { ptr, ptr, ptr }
%"class.std::map" = type { %"class.std::_Rb_tree" }
%"class.std::_Rb_tree" = type { %"struct.std::_Rb_tree<std::__cxx11::basic_string<char>, std::pair<const std::__cxx11::basic_string<char>, unsigned long>, std::_Select1st<std::pair<const std::__cxx11::basic_string<char>, unsigned long>>, std::less<std::__cxx11::basic_string<char>>>::_Rb_tree_impl" }
%"struct.std::_Rb_tree<std::__cxx11::basic_string<char>, std::pair<const std::__cxx11::basic_string<char>, unsigned long>, std::_Select1st<std::pair<const std::__cxx11::basic_string<char>, unsigned long>>, std::less<std::__cxx11::basic_string<char>>>::_Rb_tree_impl" = type { %"struct.std::_Rb_tree_key_compare", %"struct.std::_Rb_tree_header" }
%"struct.std::_Rb_tree_key_compare" = type { %"struct.std::less" }
%"struct.std::less" = type { i8 }
%"struct.std::_Rb_tree_header" = type { %"struct.std::_Rb_tree_node_base", i64 }
%"struct.std::_Rb_tree_node_base" = type { i32, ptr, ptr, ptr }
%"class.llvh::StringRef" = type { ptr, i64 }
%class.anon = type { i8 }
%class.anon.6 = type { i8 }
%"struct.std::pair.13" = type <{ %"struct.std::_Rb_tree_iterator", i8, [7 x i8] }>
%"struct.std::_Rb_tree_iterator" = type { ptr }
%struct.TreeClass = type { %"class.std::__cxx11::basic_string", %"class.std::__cxx11::basic_string", i32, %"class.std::vector.8" }
%"class.std::__cxx11::basic_string" = type { %"struct.std::__cxx11::basic_string<char>::_Alloc_hider", i64, %union.anon }
%"struct.std::__cxx11::basic_string<char>::_Alloc_hider" = type { ptr }
%union.anon = type { i64, [8 x i8] }
%"class.std::vector.8" = type { %"struct.std::_Vector_base.9" }
%"struct.std::_Vector_base.9" = type { %"struct.std::_Vector_base<Field, std::allocator<Field>>::_Vector_impl" }
%"struct.std::_Vector_base<Field, std::allocator<Field>>::_Vector_impl" = type { %"struct.std::_Vector_base<Field, std::allocator<Field>>::_Vector_impl_data" }
%"struct.std::_Vector_base<Field, std::allocator<Field>>::_Vector_impl_data" = type { ptr, ptr, ptr }
%"class.__gnu_cxx::__normal_iterator" = type { ptr }
%class.anon.70 = type { i8 }
%class.anon.73 = type { i8 }
%"struct.std::_Rb_tree_node" = type { %"struct.std::_Rb_tree_node_base", %"struct.__gnu_cxx::__aligned_membuf" }
%"struct.__gnu_cxx::__aligned_membuf" = type { [40 x i8] }
%"struct.std::pair" = type { %"class.std::__cxx11::basic_string", i64 }
%"class.llvh::raw_ostream" = type <{ ptr, ptr, ptr, ptr, i32, [4 x i8] }>
%"struct.std::pair.15" = type { ptr, ptr }
%"struct.std::pair.19" = type { ptr, ptr }
%"struct.std::pair.21" = type { ptr, ptr }
%"struct.std::pair.23" = type { ptr, ptr }
%"class.__gnu_cxx::__normal_iterator.25" = type { ptr }
%struct.Field = type <{ i32, [4 x i8], %"class.std::__cxx11::basic_string", i8, [7 x i8] }>
%"class.llvh::StringLiteral" = type { %"class.llvh::StringRef" }
%"class.llvh::StringSwitch" = type { %"class.llvh::StringRef", %"class.llvh::Optional" }
%"class.llvh::Optional" = type { %"struct.llvh::optional_detail::OptionalStorage" }
%"struct.llvh::optional_detail::OptionalStorage" = type { %"struct.llvh::AlignedCharArrayUnion", i8, [3 x i8] }
%"struct.llvh::AlignedCharArrayUnion" = type { %"struct.llvh::AlignedCharArray" }
%"struct.llvh::AlignedCharArray" = type { [4 x i8] }
%"struct.std::pair.26" = type { ptr, ptr }
%"struct.std::pair.28" = type { ptr, ptr }
%"struct.std::pair.30" = type { ptr, ptr }
%"struct.std::pair.32" = type { ptr, ptr }
%"struct.std::pair.34" = type { ptr, ptr }
%"struct.std::pair.36" = type { ptr, ptr }
%"struct.std::pair.38" = type { ptr, ptr }
%"struct.std::pair.40" = type { ptr, ptr }
%"struct.std::pair.42" = type { ptr, ptr }
%"struct.std::pair.44" = type { ptr, ptr }
%"struct.std::pair.46" = type { ptr, ptr }
%"struct.std::pair.48" = type { ptr, ptr }
%"struct.std::pair.50" = type { ptr, ptr }
%"struct.std::pair.52" = type { ptr, ptr }
%"struct.std::pair.54" = type { ptr, ptr }
%"struct.std::pair.56" = type { ptr, ptr }
%"struct.std::pair.58" = type { ptr, ptr }
%"struct.std::pair.60" = type { ptr, ptr }
%"struct.std::pair.62" = type { ptr, ptr }
%"struct.std::pair.64" = type { ptr, ptr }
%"struct.std::pair.66" = type { ptr, ptr }
%"struct.std::pair.68" = type { ptr, ptr }
%"class.std::allocator.3" = type { i8 }
%struct._Guard = type { ptr }
%"struct.std::_Rb_tree<std::__cxx11::basic_string<char>, std::pair<const std::__cxx11::basic_string<char>, unsigned long>, std::_Select1st<std::pair<const std::__cxx11::basic_string<char>, unsigned long>>, std::less<std::__cxx11::basic_string<char>>>::_Auto_node" = type { ptr, ptr }
%"struct.std::pair.17" = type { ptr, ptr }
%"struct.std::_Select1st" = type { i8 }
%"class.__gnu_cxx::__normal_iterator.72" = type { ptr }
%"class.__gnu_cxx::__normal_iterator.75" = type { ptr }

$_ZNSt6vectorI9TreeClassSaIS0_EEC2Ev = comdat any

$_ZNSt6vectorI9TreeClassSaIS0_EED2Ev = comdat any

$_ZNSt3mapINSt7__cxx1112basic_stringIcSt11char_traitsIcESaIcEEEmSt4lessIS5_ESaISt4pairIKS5_mEEEC2Ev = comdat any

$_ZNSt3mapINSt7__cxx1112basic_stringIcSt11char_traitsIcESaIcEEEmSt4lessIS5_ESaISt4pairIKS5_mEEED2Ev = comdat any

$_ZN4llvh11raw_ostreamlsEPKc = comdat any

$_ZNSt12_Vector_baseI9TreeClassSaIS0_EEC2Ev = comdat any

$_ZNSt12_Vector_baseI9TreeClassSaIS0_EE12_Vector_implC2Ev = comdat any

$_ZNSaI9TreeClassEC2Ev = comdat any

$_ZNSt12_Vector_baseI9TreeClassSaIS0_EE17_Vector_impl_dataC2Ev = comdat any

$_ZNSt15__new_allocatorI9TreeClassEC2Ev = comdat any

$_ZNSt8_Rb_treeINSt7__cxx1112basic_stringIcSt11char_traitsIcESaIcEEESt4pairIKS5_mESt10_Select1stIS8_ESt4lessIS5_ESaIS8_EEC2Ev = comdat any

$_ZNSt8_Rb_treeINSt7__cxx1112basic_stringIcSt11char_traitsIcESaIcEEESt4pairIKS5_mESt10_Select1stIS8_ESt4lessIS5_ESaIS8_EE13_Rb_tree_implISC_Lb1EEC2Ev = comdat any

$_ZNSaISt13_Rb_tree_nodeISt4pairIKNSt7__cxx1112basic_stringIcSt11char_traitsIcESaIcEEEmEEEC2Ev = comdat any

$_ZNSt20_Rb_tree_key_compareISt4lessINSt7__cxx1112basic_stringIcSt11char_traitsIcESaIcEEEEEC2Ev = comdat any

$_ZNSt15_Rb_tree_headerC2Ev = comdat any

$_ZNSt15__new_allocatorISt13_Rb_tree_nodeISt4pairIKNSt7__cxx1112basic_stringIcSt11char_traitsIcESaIcEEEmEEEC2Ev = comdat any

$_ZNSt15_Rb_tree_header8_M_resetEv = comdat any

$_ZNSt8_Rb_treeINSt7__cxx1112basic_stringIcSt11char_traitsIcESaIcEEESt4pairIKS5_mESt10_Select1stIS8_ESt4lessIS5_ESaIS8_EED2Ev = comdat any

$_ZNSt8_Rb_treeINSt7__cxx1112basic_stringIcSt11char_traitsIcESaIcEEESt4pairIKS5_mESt10_Select1stIS8_ESt4lessIS5_ESaIS8_EE8_M_eraseEPSt13_Rb_tree_nodeIS8_E = comdat any

$_ZNSt8_Rb_treeINSt7__cxx1112basic_stringIcSt11char_traitsIcESaIcEEESt4pairIKS5_mESt10_Select1stIS8_ESt4lessIS5_ESaIS8_EE8_M_beginEv = comdat any

$_ZNSt8_Rb_treeINSt7__cxx1112basic_stringIcSt11char_traitsIcESaIcEEESt4pairIKS5_mESt10_Select1stIS8_ESt4lessIS5_ESaIS8_EE13_Rb_tree_implISC_Lb1EED2Ev = comdat any

$_ZNSt8_Rb_treeINSt7__cxx1112basic_stringIcSt11char_traitsIcESaIcEEESt4pairIKS5_mESt10_Select1stIS8_ESt4lessIS5_ESaIS8_EE8_S_rightEPSt18_Rb_tree_node_base = comdat any

$_ZNSt8_Rb_treeINSt7__cxx1112basic_stringIcSt11char_traitsIcESaIcEEESt4pairIKS5_mESt10_Select1stIS8_ESt4lessIS5_ESaIS8_EE7_S_leftEPSt18_Rb_tree_node_base = comdat any

$_ZNSt8_Rb_treeINSt7__cxx1112basic_stringIcSt11char_traitsIcESaIcEEESt4pairIKS5_mESt10_Select1stIS8_ESt4lessIS5_ESaIS8_EE12_M_drop_nodeEPSt13_Rb_tree_nodeIS8_E = comdat any

$_ZNSt8_Rb_treeINSt7__cxx1112basic_stringIcSt11char_traitsIcESaIcEEESt4pairIKS5_mESt10_Select1stIS8_ESt4lessIS5_ESaIS8_EE15_M_destroy_nodeEPSt13_Rb_tree_nodeIS8_E = comdat any

$_ZNSt8_Rb_treeINSt7__cxx1112basic_stringIcSt11char_traitsIcESaIcEEESt4pairIKS5_mESt10_Select1stIS8_ESt4lessIS5_ESaIS8_EE11_M_put_nodeEPSt13_Rb_tree_nodeIS8_E = comdat any

$_ZNSt16allocator_traitsISaISt13_Rb_tree_nodeISt4pairIKNSt7__cxx1112basic_stringIcSt11char_traitsIcESaIcEEEmEEEE7destroyIS9_EEvRSB_PT_ = comdat any

$_ZNSt8_Rb_treeINSt7__cxx1112basic_stringIcSt11char_traitsIcESaIcEEESt4pairIKS5_mESt10_Select1stIS8_ESt4lessIS5_ESaIS8_EE21_M_get_Node_allocatorEv = comdat any

$_ZNSt13_Rb_tree_nodeISt4pairIKNSt7__cxx1112basic_stringIcSt11char_traitsIcESaIcEEEmEE9_M_valptrEv = comdat any

$_ZNSt15__new_allocatorISt13_Rb_tree_nodeISt4pairIKNSt7__cxx1112basic_stringIcSt11char_traitsIcESaIcEEEmEEE7destroyIS9_EEvPT_ = comdat any

$_ZNSt4pairIKNSt7__cxx1112basic_stringIcSt11char_traitsIcESaIcEEEmED2Ev = comdat any

$_ZN9__gnu_cxx16__aligned_membufISt4pairIKNSt7__cxx1112basic_stringIcSt11char_traitsIcESaIcEEEmEE6_M_ptrEv = comdat any

$_ZN9__gnu_cxx16__aligned_membufISt4pairIKNSt7__cxx1112basic_stringIcSt11char_traitsIcESaIcEEEmEE7_M_addrEv = comdat any

$_ZNSt16allocator_traitsISaISt13_Rb_tree_nodeISt4pairIKNSt7__cxx1112basic_stringIcSt11char_traitsIcESaIcEEEmEEEE10deallocateERSB_PSA_m = comdat any

$_ZNSt15__new_allocatorISt13_Rb_tree_nodeISt4pairIKNSt7__cxx1112basic_stringIcSt11char_traitsIcESaIcEEEmEEE10deallocateEPSA_m = comdat any

$_ZNKSt8_Rb_treeINSt7__cxx1112basic_stringIcSt11char_traitsIcESaIcEEESt4pairIKS5_mESt10_Select1stIS8_ESt4lessIS5_ESaIS8_EE9_M_mbeginEv = comdat any

$_ZNSaISt13_Rb_tree_nodeISt4pairIKNSt7__cxx1112basic_stringIcSt11char_traitsIcESaIcEEEmEEED2Ev = comdat any

$_ZNSt15__new_allocatorISt13_Rb_tree_nodeISt4pairIKNSt7__cxx1112basic_stringIcSt11char_traitsIcESaIcEEEmEEED2Ev = comdat any

$_ZN4llvh11raw_ostreamlsENS_9StringRefE = comdat any

$_ZNSt6vectorI9TreeClassSaIS0_EE12emplace_backIJRA6_KcN4llvh9StringRefEEEERS0_DpOT_ = comdat any

$_ZNSt3mapINSt7__cxx1112basic_stringIcSt11char_traitsIcESaIcEEEmSt4lessIS5_ESaISt4pairIKS5_mEEE7emplaceIJRA6_KcmEEES8_ISt17_Rb_tree_iteratorISA_EbEDpOT_ = comdat any

$_ZNKSt6vectorI9TreeClassSaIS0_EE4sizeEv = comdat any

$_ZNSt6vectorI9TreeClassSaIS0_EE12emplace_backIJRA9_KcN4llvh9StringRefEEEERS0_DpOT_ = comdat any

$_ZNSt3mapINSt7__cxx1112basic_stringIcSt11char_traitsIcESaIcEEEmSt4lessIS5_ESaISt4pairIKS5_mEEE7emplaceIJRA9_KcmEEES8_ISt17_Rb_tree_iteratorISA_EbEDpOT_ = comdat any

$_ZNSt6vectorI9TreeClassSaIS0_EE12emplace_backIJRA13_KcN4llvh9StringRefE12SentinelTypeEEERS0_DpOT_ = comdat any

$_ZNSt3mapINSt7__cxx1112basic_stringIcSt11char_traitsIcESaIcEEEmSt4lessIS5_ESaISt4pairIKS5_mEEE7emplaceIJRA13_KcmEEES8_ISt17_Rb_tree_iteratorISA_EbEDpOT_ = comdat any

$_ZNSt6vectorI9TreeClassSaIS0_EE12emplace_backIJRA8_KcN4llvh9StringRefEEEERS0_DpOT_ = comdat any

$_ZNSt3mapINSt7__cxx1112basic_stringIcSt11char_traitsIcESaIcEEEmSt4lessIS5_ESaISt4pairIKS5_mEEE7emplaceIJRA8_KcmEEES8_ISt17_Rb_tree_iteratorISA_EbEDpOT_ = comdat any

$_ZNSt6vectorI9TreeClassSaIS0_EE4backEv = comdat any

$_ZNSt6vectorI5FieldSaIS0_EE12emplace_backIJ9FieldTypeRA5_KcbEEERS0_DpOT_ = comdat any

$_ZNSt6vectorI9TreeClassSaIS0_EE12emplace_backIJRA19_KcN4llvh9StringRefEEEERS0_DpOT_ = comdat any

$_ZNSt3mapINSt7__cxx1112basic_stringIcSt11char_traitsIcESaIcEEEmSt4lessIS5_ESaISt4pairIKS5_mEEE7emplaceIJRA19_KcmEEES8_ISt17_Rb_tree_iteratorISA_EbEDpOT_ = comdat any

$_ZNSt6vectorI5FieldSaIS0_EE12emplace_backIJ9FieldTypeRA3_KcbEEERS0_DpOT_ = comdat any

$_ZNSt6vectorI5FieldSaIS0_EE12emplace_backIJ9FieldTypeRA7_KcbEEERS0_DpOT_ = comdat any

$_ZNSt6vectorI5FieldSaIS0_EE12emplace_backIJ9FieldTypeRA15_KcbEEERS0_DpOT_ = comdat any

$_ZNSt6vectorI5FieldSaIS0_EE12emplace_backIJ9FieldTypeRA11_KcbEEERS0_DpOT_ = comdat any

$_ZNSt6vectorI5FieldSaIS0_EE12emplace_backIJ9FieldTypeRA10_KcbEEERS0_DpOT_ = comdat any

$_ZNSt6vectorI5FieldSaIS0_EE12emplace_backIJ9FieldTypeRA6_KcbEEERS0_DpOT_ = comdat any

$_ZNSt6vectorI9TreeClassSaIS0_EE12emplace_backIJRA24_KcN4llvh9StringRefEEEERS0_DpOT_ = comdat any

$_ZNSt3mapINSt7__cxx1112basic_stringIcSt11char_traitsIcESaIcEEEmSt4lessIS5_ESaISt4pairIKS5_mEEE7emplaceIJRA24_KcmEEES8_ISt17_Rb_tree_iteratorISA_EbEDpOT_ = comdat any

$_ZNSt6vectorI9TreeClassSaIS0_EE12emplace_backIJRA20_KcN4llvh9StringRefEEEERS0_DpOT_ = comdat any

$_ZNSt3mapINSt7__cxx1112basic_stringIcSt11char_traitsIcESaIcEEEmSt4lessIS5_ESaISt4pairIKS5_mEEE7emplaceIJRA20_KcmEEES8_ISt17_Rb_tree_iteratorISA_EbEDpOT_ = comdat any

$_ZNSt6vectorI9TreeClassSaIS0_EE12emplace_backIJRA21_KcN4llvh9StringRefEEEERS0_DpOT_ = comdat any

$_ZNSt3mapINSt7__cxx1112basic_stringIcSt11char_traitsIcESaIcEEEmSt4lessIS5_ESaISt4pairIKS5_mEEE7emplaceIJRA21_KcmEEES8_ISt17_Rb_tree_iteratorISA_EbEDpOT_ = comdat any

$_ZNSt6vectorI5FieldSaIS0_EE12emplace_backIJ9FieldTypeRA12_KcbEEERS0_DpOT_ = comdat any

$_ZNSt6vectorI9TreeClassSaIS0_EE12emplace_backIJRA13_KcRA1_S4_12SentinelTypeEEERS0_DpOT_ = comdat any

$_ZNSt6vectorI9TreeClassSaIS0_EE12emplace_backIJRA10_KcN4llvh9StringRefE12SentinelTypeEEERS0_DpOT_ = comdat any

$_ZNSt3mapINSt7__cxx1112basic_stringIcSt11char_traitsIcESaIcEEEmSt4lessIS5_ESaISt4pairIKS5_mEEE7emplaceIJRA10_KcmEEES8_ISt17_Rb_tree_iteratorISA_EbEDpOT_ = comdat any

$_ZNSt6vectorI9TreeClassSaIS0_EE12emplace_backIJRA14_KcN4llvh9StringRefE12SentinelTypeEEERS0_DpOT_ = comdat any

$_ZNSt3mapINSt7__cxx1112basic_stringIcSt11char_traitsIcESaIcEEEmSt4lessIS5_ESaISt4pairIKS5_mEEE7emplaceIJRA14_KcmEEES8_ISt17_Rb_tree_iteratorISA_EbEDpOT_ = comdat any

$_ZNSt6vectorI9TreeClassSaIS0_EE12emplace_backIJRA15_KcN4llvh9StringRefEEEERS0_DpOT_ = comdat any

$_ZNSt3mapINSt7__cxx1112basic_stringIcSt11char_traitsIcESaIcEEEmSt4lessIS5_ESaISt4pairIKS5_mEEE7emplaceIJRA15_KcmEEES8_ISt17_Rb_tree_iteratorISA_EbEDpOT_ = comdat any

$_ZNSt6vectorI9TreeClassSaIS0_EE12emplace_backIJRA17_KcN4llvh9StringRefEEEERS0_DpOT_ = comdat any

$_ZNSt3mapINSt7__cxx1112basic_stringIcSt11char_traitsIcESaIcEEEmSt4lessIS5_ESaISt4pairIKS5_mEEE7emplaceIJRA17_KcmEEES8_ISt17_Rb_tree_iteratorISA_EbEDpOT_ = comdat any

$_ZNSt6vectorI9TreeClassSaIS0_EE12emplace_backIJRA13_KcN4llvh9StringRefEEEERS0_DpOT_ = comdat any

$_ZNSt6vectorI9TreeClassSaIS0_EE12emplace_backIJRA14_KcRA1_S4_12SentinelTypeEEERS0_DpOT_ = comdat any

$_ZNSt6vectorI9TreeClassSaIS0_EE12emplace_backIJRA18_KcN4llvh9StringRefEEEERS0_DpOT_ = comdat any

$_ZNSt3mapINSt7__cxx1112basic_stringIcSt11char_traitsIcESaIcEEEmSt4lessIS5_ESaISt4pairIKS5_mEEE7emplaceIJRA18_KcmEEES8_ISt17_Rb_tree_iteratorISA_EbEDpOT_ = comdat any

$_ZNSt6vectorI5FieldSaIS0_EE12emplace_backIJ9FieldTypeRA9_KcbEEERS0_DpOT_ = comdat any

$_ZNSt6vectorI9TreeClassSaIS0_EE12emplace_backIJRA16_KcN4llvh9StringRefEEEERS0_DpOT_ = comdat any

$_ZNSt3mapINSt7__cxx1112basic_stringIcSt11char_traitsIcESaIcEEEmSt4lessIS5_ESaISt4pairIKS5_mEEE7emplaceIJRA16_KcmEEES8_ISt17_Rb_tree_iteratorISA_EbEDpOT_ = comdat any

$_ZNSt6vectorI9TreeClassSaIS0_EE12emplace_backIJRA14_KcN4llvh9StringRefEEEERS0_DpOT_ = comdat any

$_ZNSt6vectorI5FieldSaIS0_EE12emplace_backIJ9FieldTypeRA13_KcbEEERS0_DpOT_ = comdat any

$_ZNSt6vectorI5FieldSaIS0_EE12emplace_backIJ9FieldTypeRA8_KcbEEERS0_DpOT_ = comdat any

$_ZNSt6vectorI9TreeClassSaIS0_EE12emplace_backIJRA12_KcN4llvh9StringRefEEEERS0_DpOT_ = comdat any

$_ZNSt3mapINSt7__cxx1112basic_stringIcSt11char_traitsIcESaIcEEEmSt4lessIS5_ESaISt4pairIKS5_mEEE7emplaceIJRA12_KcmEEES8_ISt17_Rb_tree_iteratorISA_EbEDpOT_ = comdat any

$_ZNSt6vectorI9TreeClassSaIS0_EE12emplace_backIJRA10_KcRA1_S4_12SentinelTypeEEERS0_DpOT_ = comdat any

$_ZNSt6vectorI5FieldSaIS0_EE12emplace_backIJ9FieldTypeRA14_KcbEEERS0_DpOT_ = comdat any

$_ZNSt6vectorI9TreeClassSaIS0_EE12emplace_backIJRA19_KcN4llvh9StringRefE12SentinelTypeEEERS0_DpOT_ = comdat any

$_ZNSt6vectorI9TreeClassSaIS0_EE12emplace_backIJRA23_KcN4llvh9StringRefEEEERS0_DpOT_ = comdat any

$_ZNSt3mapINSt7__cxx1112basic_stringIcSt11char_traitsIcESaIcEEEmSt4lessIS5_ESaISt4pairIKS5_mEEE7emplaceIJRA23_KcmEEES8_ISt17_Rb_tree_iteratorISA_EbEDpOT_ = comdat any

$_ZNSt6vectorI9TreeClassSaIS0_EE12emplace_backIJRA19_KcRA1_S4_12SentinelTypeEEERS0_DpOT_ = comdat any

$_ZNSt6vectorI9TreeClassSaIS0_EE12emplace_backIJRA21_KcN4llvh9StringRefE12SentinelTypeEEERS0_DpOT_ = comdat any

$_ZNSt6vectorI9TreeClassSaIS0_EE12emplace_backIJRA25_KcN4llvh9StringRefEEEERS0_DpOT_ = comdat any

$_ZNSt3mapINSt7__cxx1112basic_stringIcSt11char_traitsIcESaIcEEEmSt4lessIS5_ESaISt4pairIKS5_mEEE7emplaceIJRA25_KcmEEES8_ISt17_Rb_tree_iteratorISA_EbEDpOT_ = comdat any

$_ZNSt6vectorI9TreeClassSaIS0_EE12emplace_backIJRA21_KcRA1_S4_12SentinelTypeEEERS0_DpOT_ = comdat any

$_ZNSt6vectorI9TreeClassSaIS0_EE12emplace_backIJRA22_KcN4llvh9StringRefEEEERS0_DpOT_ = comdat any

$_ZNSt3mapINSt7__cxx1112basic_stringIcSt11char_traitsIcESaIcEEEmSt4lessIS5_ESaISt4pairIKS5_mEEE7emplaceIJRA22_KcmEEES8_ISt17_Rb_tree_iteratorISA_EbEDpOT_ = comdat any

$_ZNSt6vectorI9TreeClassSaIS0_EE12emplace_backIJRA10_KcN4llvh9StringRefEEEERS0_DpOT_ = comdat any

$_ZNSt6vectorI9TreeClassSaIS0_EE12emplace_backIJRA11_KcN4llvh9StringRefEEEERS0_DpOT_ = comdat any

$_ZNSt3mapINSt7__cxx1112basic_stringIcSt11char_traitsIcESaIcEEEmSt4lessIS5_ESaISt4pairIKS5_mEEE7emplaceIJRA11_KcmEEES8_ISt17_Rb_tree_iteratorISA_EbEDpOT_ = comdat any

$_ZNSt6vectorI5FieldSaIS0_EE12emplace_backIJ9FieldTypeRA4_KcbEEERS0_DpOT_ = comdat any

$_ZNSt6vectorI5FieldSaIS0_EE12emplace_backIJ9FieldTypeRA20_KcbEEERS0_DpOT_ = comdat any

$_ZNSt6vectorI9TreeClassSaIS0_EE12emplace_backIJRA8_KcN4llvh9StringRefE12SentinelTypeEEERS0_DpOT_ = comdat any

$_ZNSt6vectorI9TreeClassSaIS0_EE12emplace_backIJRA8_KcRA1_S4_12SentinelTypeEEERS0_DpOT_ = comdat any

$_ZNSt6vectorI9TreeClassSaIS0_EE12emplace_backIJRA4_KcN4llvh9StringRefE12SentinelTypeEEERS0_DpOT_ = comdat any

$_ZNSt3mapINSt7__cxx1112basic_stringIcSt11char_traitsIcESaIcEEEmSt4lessIS5_ESaISt4pairIKS5_mEEE7emplaceIJRA4_KcmEEES8_ISt17_Rb_tree_iteratorISA_EbEDpOT_ = comdat any

$_ZNSt6vectorI5FieldSaIS0_EE12emplace_backIJ9FieldTypeRA16_KcbEEERS0_DpOT_ = comdat any

$_ZNSt6vectorI9TreeClassSaIS0_EE12emplace_backIJRA4_KcRA1_S4_12SentinelTypeEEERS0_DpOT_ = comdat any

$_ZNSt6vectorI9TreeClassSaIS0_EE12emplace_backIJRA5_KcN4llvh9StringRefE12SentinelTypeEEERS0_DpOT_ = comdat any

$_ZNSt3mapINSt7__cxx1112basic_stringIcSt11char_traitsIcESaIcEEEmSt4lessIS5_ESaISt4pairIKS5_mEEE7emplaceIJRA5_KcmEEES8_ISt17_Rb_tree_iteratorISA_EbEDpOT_ = comdat any

$_ZNSt6vectorI9TreeClassSaIS0_EE12emplace_backIJRA28_KcN4llvh9StringRefEEEERS0_DpOT_ = comdat any

$_ZNSt3mapINSt7__cxx1112basic_stringIcSt11char_traitsIcESaIcEEEmSt4lessIS5_ESaISt4pairIKS5_mEEE7emplaceIJRA28_KcmEEES8_ISt17_Rb_tree_iteratorISA_EbEDpOT_ = comdat any

$_ZNSt6vectorI9TreeClassSaIS0_EE12emplace_backIJRA29_KcN4llvh9StringRefEEEERS0_DpOT_ = comdat any

$_ZNSt3mapINSt7__cxx1112basic_stringIcSt11char_traitsIcESaIcEEEmSt4lessIS5_ESaISt4pairIKS5_mEEE7emplaceIJRA29_KcmEEES8_ISt17_Rb_tree_iteratorISA_EbEDpOT_ = comdat any

$_ZNSt6vectorI9TreeClassSaIS0_EE12emplace_backIJRA26_KcN4llvh9StringRefEEEERS0_DpOT_ = comdat any

$_ZNSt3mapINSt7__cxx1112basic_stringIcSt11char_traitsIcESaIcEEEmSt4lessIS5_ESaISt4pairIKS5_mEEE7emplaceIJRA26_KcmEEES8_ISt17_Rb_tree_iteratorISA_EbEDpOT_ = comdat any

$_ZNSt6vectorI9TreeClassSaIS0_EE12emplace_backIJRA27_KcN4llvh9StringRefEEEERS0_DpOT_ = comdat any

$_ZNSt3mapINSt7__cxx1112basic_stringIcSt11char_traitsIcESaIcEEEmSt4lessIS5_ESaISt4pairIKS5_mEEE7emplaceIJRA27_KcmEEES8_ISt17_Rb_tree_iteratorISA_EbEDpOT_ = comdat any

$_ZNSt6vectorI5FieldSaIS0_EE12emplace_backIJ9FieldTypeRA17_KcbEEERS0_DpOT_ = comdat any

$_ZNSt6vectorI5FieldSaIS0_EE12emplace_backIJ9FieldTypeRA18_KcbEEERS0_DpOT_ = comdat any

$_ZNSt6vectorI9TreeClassSaIS0_EE12emplace_backIJRA5_KcRA1_S4_12SentinelTypeEEERS0_DpOT_ = comdat any

$_ZNSt6vectorI9TreeClassSaIS0_EE12emplace_backIJRA3_KcN4llvh9StringRefE12SentinelTypeEEERS0_DpOT_ = comdat any

$_ZNSt3mapINSt7__cxx1112basic_stringIcSt11char_traitsIcESaIcEEEmSt4lessIS5_ESaISt4pairIKS5_mEEE7emplaceIJRA3_KcmEEES8_ISt17_Rb_tree_iteratorISA_EbEDpOT_ = comdat any

$_ZNSt6vectorI9TreeClassSaIS0_EE12emplace_backIJRA3_KcRA1_S4_12SentinelTypeEEERS0_DpOT_ = comdat any

$_ZNSt6vectorI9TreeClassSaIS0_EE12emplace_backIJRA6_KcN4llvh9StringRefE12SentinelTypeEEERS0_DpOT_ = comdat any

$_ZNSt6vectorI9TreeClassSaIS0_EE12emplace_backIJRA6_KcRA1_S4_12SentinelTypeEEERS0_DpOT_ = comdat any

$_ZNSt16allocator_traitsISaI9TreeClassEE9constructIS0_JRA6_KcN4llvh9StringRefEEEEvRS1_PT_DpOT0_ = comdat any

$_ZNSt6vectorI9TreeClassSaIS0_EE17_M_realloc_insertIJRA6_KcN4llvh9StringRefEEEEvN9__gnu_cxx17__normal_iteratorIPS0_S2_EEDpOT_ = comdat any

$_ZNSt6vectorI9TreeClassSaIS0_EE3endEv = comdat any

$_ZNSt15__new_allocatorI9TreeClassE9constructIS0_JRA6_KcN4llvh9StringRefEEEEvPT_DpOT0_ = comdat any

$_ZNSt7__cxx1112basic_stringIcSt11char_traitsIcESaIcEEC2IS3_EEPKcRKS3_ = comdat any

$_ZNK4llvh9StringRefcvNSt7__cxx1112basic_stringIcSt11char_traitsIcESaIcEEEEv = comdat any

$_ZN9TreeClassC2ERKNSt7__cxx1112basic_stringIcSt11char_traitsIcESaIcEEES7_12SentinelType = comdat any

$_ZNSt11char_traitsIcE6lengthEPKc = comdat any

$_ZNSt7__cxx1112basic_stringIcSt11char_traitsIcESaIcEE12_M_constructIPKcEEvT_S8_St20forward_iterator_tag = comdat any

$_ZSt8distanceIPKcENSt15iterator_traitsIT_E15difference_typeES3_S3_ = comdat any

$_ZZNSt7__cxx1112basic_stringIcSt11char_traitsIcESaIcEE12_M_constructIPKcEEvT_S8_St20forward_iterator_tagEN6_GuardC2EPS4_ = comdat any

$_ZZNSt7__cxx1112basic_stringIcSt11char_traitsIcESaIcEE12_M_constructIPKcEEvT_S8_St20forward_iterator_tagEN6_GuardD2Ev = comdat any

$_ZSt10__distanceIPKcENSt15iterator_traitsIT_E15difference_typeES3_S3_St26random_access_iterator_tag = comdat any

$_ZSt19__iterator_categoryIPKcENSt15iterator_traitsIT_E17iterator_categoryERKS3_ = comdat any

$_ZNK4llvh9StringRef3strB5cxx11Ev = comdat any

$_ZNSt6vectorI5FieldSaIS0_EEC2Ev = comdat any

$_ZNSt12_Vector_baseI5FieldSaIS0_EEC2Ev = comdat any

$_ZNSt12_Vector_baseI5FieldSaIS0_EE12_Vector_implC2Ev = comdat any

$_ZNSaI5FieldEC2Ev = comdat any

$_ZNSt12_Vector_baseI5FieldSaIS0_EE17_Vector_impl_dataC2Ev = comdat any

$_ZNSt15__new_allocatorI5FieldEC2Ev = comdat any

$_ZNKSt6vectorI9TreeClassSaIS0_EE12_M_check_lenEmPKc = comdat any

$_ZN9__gnu_cxxmiIP9TreeClassSt6vectorIS1_SaIS1_EEEENS_17__normal_iteratorIT_T0_E15difference_typeERKS9_SC_ = comdat any

$_ZNSt6vectorI9TreeClassSaIS0_EE5beginEv = comdat any

$_ZNSt12_Vector_baseI9TreeClassSaIS0_EE11_M_allocateEm = comdat any

$_ZNSt6vectorI9TreeClassSaIS0_EE11_S_relocateEPS0_S3_S3_RS1_ = comdat any

$_ZNK9__gnu_cxx17__normal_iteratorIP9TreeClassSt6vectorIS1_SaIS1_EEE4baseEv = comdat any

$_ZNSt12_Vector_baseI9TreeClassSaIS0_EE19_M_get_Tp_allocatorEv = comdat any

$_ZNSt12_Vector_baseI9TreeClassSaIS0_EE13_M_deallocateEPS0_m = comdat any

$_ZNKSt6vectorI9TreeClassSaIS0_EE8max_sizeEv = comdat any

$_ZSt3maxImERKT_S2_S2_ = comdat any

$_ZNSt6vectorI9TreeClassSaIS0_EE11_S_max_sizeERKS1_ = comdat any

$_ZNKSt12_Vector_baseI9TreeClassSaIS0_EE19_M_get_Tp_allocatorEv = comdat any

$_ZNSt16allocator_traitsISaI9TreeClassEE8max_sizeERKS1_ = comdat any

$_ZSt3minImERKT_S2_S2_ = comdat any

$_ZNKSt15__new_allocatorI9TreeClassE8max_sizeEv = comdat any

$_ZNKSt15__new_allocatorI9TreeClassE11_M_max_sizeEv = comdat any

$_ZN9__gnu_cxx17__normal_iteratorIP9TreeClassSt6vectorIS1_SaIS1_EEEC2ERKS2_ = comdat any

$_ZNSt16allocator_traitsISaI9TreeClassEE8allocateERS1_m = comdat any

$_ZNSt15__new_allocatorI9TreeClassE8allocateEmPKv = comdat any

$_ZSt12__relocate_aIP9TreeClassS1_SaIS0_EET0_T_S4_S3_RT1_ = comdat any

$_ZSt14__relocate_a_1IP9TreeClassS1_SaIS0_EET0_T_S4_S3_RT1_ = comdat any

$_ZSt12__niter_baseIP9TreeClassET_S2_ = comdat any

$_ZSt19__relocate_object_aI9TreeClassS0_SaIS0_EEvPT_PT0_RT1_ = comdat any

$_ZNSt16allocator_traitsISaI9TreeClassEE9constructIS0_JS0_EEEvRS1_PT_DpOT0_ = comdat any

$_ZNSt16allocator_traitsISaI9TreeClassEE7destroyIS0_EEvRS1_PT_ = comdat any

$_ZNSt15__new_allocatorI9TreeClassE9constructIS0_JS0_EEEvPT_DpOT0_ = comdat any

$_ZN9TreeClassC2EOS_ = comdat any

$_ZNSt6vectorI5FieldSaIS0_EEC2EOS2_ = comdat any

$_ZNSt12_Vector_baseI5FieldSaIS0_EEC2EOS2_ = comdat any

$_ZNSt12_Vector_baseI5FieldSaIS0_EE12_Vector_implC2EOS3_ = comdat any

$_ZNSaI5FieldEC2ERKS0_ = comdat any

$_ZNSt12_Vector_baseI5FieldSaIS0_EE17_Vector_impl_dataC2EOS3_ = comdat any

$_ZNSt15__new_allocatorI5FieldEC2ERKS1_ = comdat any

$_ZNSt15__new_allocatorI9TreeClassE7destroyIS0_EEvPT_ = comdat any

$_ZN9TreeClassD2Ev = comdat any

$_ZNSt6vectorI5FieldSaIS0_EED2Ev = comdat any

$_ZSt8_DestroyIP5FieldS0_EvT_S2_RSaIT0_E = comdat any

$_ZNSt12_Vector_baseI5FieldSaIS0_EE19_M_get_Tp_allocatorEv = comdat any

$_ZNSt12_Vector_baseI5FieldSaIS0_EED2Ev = comdat any

$_ZSt8_DestroyIP5FieldEvT_S2_ = comdat any

$_ZNSt12_Destroy_auxILb0EE9__destroyIP5FieldEEvT_S4_ = comdat any

$_ZSt8_DestroyI5FieldEvPT_ = comdat any

$_ZN5FieldD2Ev = comdat any

$_ZNSt12_Vector_baseI5FieldSaIS0_EE13_M_deallocateEPS0_m = comdat any

$_ZNSt12_Vector_baseI5FieldSaIS0_EE12_Vector_implD2Ev = comdat any

$_ZNSt16allocator_traitsISaI5FieldEE10deallocateERS1_PS0_m = comdat any

$_ZNSt15__new_allocatorI5FieldE10deallocateEPS0_m = comdat any

$_ZNSaI5FieldED2Ev = comdat any

$_ZNSt15__new_allocatorI5FieldED2Ev = comdat any

$_ZNSt16allocator_traitsISaI9TreeClassEE10deallocateERS1_PS0_m = comdat any

$_ZNSt15__new_allocatorI9TreeClassE10deallocateEPS0_m = comdat any

$_ZNSt4pairIRA6_KcRmEC2IS2_S3_TnNSt9enable_ifIXaaclsr5_PCCPE18_ConstructiblePairIT_T0_EEclsr5_PCCPE26_ImplicitlyConvertiblePairIS7_S8_EEEbE4typeELb1EEES2_S3_ = comdat any

$_ZSt3getILm0ERA6_KcRmEONSt13tuple_elementIXT_ESt4pairIT0_T1_EE4typeEOS8_ = comdat any

$_ZSt3getILm1ERA6_KcRmEONSt13tuple_elementIXT_ESt4pairIT0_T1_EE4typeEOS8_ = comdat any

$_ZNSt8_Rb_treeINSt7__cxx1112basic_stringIcSt11char_traitsIcESaIcEEESt4pairIKS5_mESt10_Select1stIS8_ESt4lessIS5_ESaIS8_EE17_M_emplace_uniqueIJRA6_KcmEEES6_ISt17_Rb_tree_iteratorIS8_EbEDpOT_ = comdat any

$_ZNSt10__pair_getILm0EE10__move_getIRA6_KcRmEEOT_OSt4pairIS6_T0_E = comdat any

$_ZNSt10__pair_getILm1EE10__move_getIRA6_KcRmEEOT0_OSt4pairIT_S6_E = comdat any

$_ZNSt8_Rb_treeINSt7__cxx1112basic_stringIcSt11char_traitsIcESaIcEEESt4pairIKS5_mESt10_Select1stIS8_ESt4lessIS5_ESaIS8_EE10_Auto_nodeC2IJRA6_KcmEEERSE_DpOT_ = comdat any

$_ZNSt8_Rb_treeINSt7__cxx1112basic_stringIcSt11char_traitsIcESaIcEEESt4pairIKS5_mESt10_Select1stIS8_ESt4lessIS5_ESaIS8_EE24_M_get_insert_unique_posERS7_ = comdat any

$_ZNKSt8_Rb_treeINSt7__cxx1112basic_stringIcSt11char_traitsIcESaIcEEESt4pairIKS5_mESt10_Select1stIS8_ESt4lessIS5_ESaIS8_EE10_Auto_node6_M_keyEv = comdat any

$_ZNSt8_Rb_treeINSt7__cxx1112basic_stringIcSt11char_traitsIcESaIcEEESt4pairIKS5_mESt10_Select1stIS8_ESt4lessIS5_ESaIS8_EE10_Auto_node9_M_insertES6_IPSt18_Rb_tree_node_baseSH_E = comdat any

$_ZNSt4pairISt17_Rb_tree_iteratorIS_IKNSt7__cxx1112basic_stringIcSt11char_traitsIcESaIcEEEmEEbEC2IS9_bTnNSt9enable_ifIXaaclsr5_PCCPE22_MoveConstructiblePairIT_T0_EEclsr5_PCCPE30_ImplicitlyMoveConvertiblePairISD_SE_EEEbE4typeELb1EEEOSD_OSE_ = comdat any

$_ZNSt17_Rb_tree_iteratorISt4pairIKNSt7__cxx1112basic_stringIcSt11char_traitsIcESaIcEEEmEEC2EPSt18_Rb_tree_node_base = comdat any

$_ZNSt8_Rb_treeINSt7__cxx1112basic_stringIcSt11char_traitsIcESaIcEEESt4pairIKS5_mESt10_Select1stIS8_ESt4lessIS5_ESaIS8_EE10_Auto_nodeD2Ev = comdat any

$_ZNSt8_Rb_treeINSt7__cxx1112basic_stringIcSt11char_traitsIcESaIcEEESt4pairIKS5_mESt10_Select1stIS8_ESt4lessIS5_ESaIS8_EE14_M_create_nodeIJRA6_KcmEEEPSt13_Rb_tree_nodeIS8_EDpOT_ = comdat any

$_ZNSt8_Rb_treeINSt7__cxx1112basic_stringIcSt11char_traitsIcESaIcEEESt4pairIKS5_mESt10_Select1stIS8_ESt4lessIS5_ESaIS8_EE11_M_get_nodeEv = comdat any

$_ZNSt8_Rb_treeINSt7__cxx1112basic_stringIcSt11char_traitsIcESaIcEEESt4pairIKS5_mESt10_Select1stIS8_ESt4lessIS5_ESaIS8_EE17_M_construct_nodeIJRA6_KcmEEEvPSt13_Rb_tree_nodeIS8_EDpOT_ = comdat any

$_ZNSt16allocator_traitsISaISt13_Rb_tree_nodeISt4pairIKNSt7__cxx1112basic_stringIcSt11char_traitsIcESaIcEEEmEEEE8allocateERSB_m = comdat any

$_ZNSt15__new_allocatorISt13_Rb_tree_nodeISt4pairIKNSt7__cxx1112basic_stringIcSt11char_traitsIcESaIcEEEmEEE8allocateEmPKv = comdat any

$_ZNKSt15__new_allocatorISt13_Rb_tree_nodeISt4pairIKNSt7__cxx1112basic_stringIcSt11char_traitsIcESaIcEEEmEEE11_M_max_sizeEv = comdat any

$_ZNSt16allocator_traitsISaISt13_Rb_tree_nodeISt4pairIKNSt7__cxx1112basic_stringIcSt11char_traitsIcESaIcEEEmEEEE9constructIS9_JRA6_KcmEEEvRSB_PT_DpOT0_ = comdat any

$_ZNSt15__new_allocatorISt13_Rb_tree_nodeISt4pairIKNSt7__cxx1112basic_stringIcSt11char_traitsIcESaIcEEEmEEE9constructIS9_JRA6_KcmEEEvPT_DpOT0_ = comdat any

$_ZNSt4pairIKNSt7__cxx1112basic_stringIcSt11char_traitsIcESaIcEEEmEC2IRA6_KcmTnNSt9enable_ifIXaaclsr5_PCCPE22_MoveConstructiblePairIT_T0_EEclsr5_PCCPE30_ImplicitlyMoveConvertiblePairISD_SE_EEEbE4typeELb1EEEOSD_OSE_ = comdat any

$_ZNSt8_Rb_treeINSt7__cxx1112basic_stringIcSt11char_traitsIcESaIcEEESt4pairIKS5_mESt10_Select1stIS8_ESt4lessIS5_ESaIS8_EE6_M_endEv = comdat any

$_ZNKSt4lessINSt7__cxx1112basic_stringIcSt11char_traitsIcESaIcEEEEclERKS5_S8_ = comdat any

$_ZNSt8_Rb_treeINSt7__cxx1112basic_stringIcSt11char_traitsIcESaIcEEESt4pairIKS5_mESt10_Select1stIS8_ESt4lessIS5_ESaIS8_EE6_S_keyEPKSt13_Rb_tree_nodeIS8_E = comdat any

$_ZSteqRKSt17_Rb_tree_iteratorISt4pairIKNSt7__cxx1112basic_stringIcSt11char_traitsIcESaIcEEEmEESB_ = comdat any

$_ZNSt8_Rb_treeINSt7__cxx1112basic_stringIcSt11char_traitsIcESaIcEEESt4pairIKS5_mESt10_Select1stIS8_ESt4lessIS5_ESaIS8_EE5beginEv = comdat any

$_ZNSt4pairIPSt18_Rb_tree_node_baseS1_EC2IRPSt13_Rb_tree_nodeIS_IKNSt7__cxx1112basic_stringIcSt11char_traitsIcESaIcEEEmEERS1_TnNSt9enable_ifIXaaclsr5_PCCPE22_MoveConstructiblePairIT_T0_EEclsr5_PCCPE30_ImplicitlyMoveConvertiblePairISI_SJ_EEEbE4typeELb1EEEOSI_OSJ_ = comdat any

$_ZNSt17_Rb_tree_iteratorISt4pairIKNSt7__cxx1112basic_stringIcSt11char_traitsIcESaIcEEEmEEmmEv = comdat any

$_ZNSt8_Rb_treeINSt7__cxx1112basic_stringIcSt11char_traitsIcESaIcEEESt4pairIKS5_mESt10_Select1stIS8_ESt4lessIS5_ESaIS8_EE6_S_keyEPKSt18_Rb_tree_node_base = comdat any

$_ZNSt4pairIPSt18_Rb_tree_node_baseS1_EC2IS1_S1_TnNSt9enable_ifIXaaclsr5_PCCPE18_ConstructiblePairIT_T0_EEclsr5_PCCPE26_ImplicitlyConvertiblePairIS5_S6_EEEbE4typeELb1EEERKS1_SA_ = comdat any

$_ZStltIcSt11char_traitsIcESaIcEEbRKNSt7__cxx1112basic_stringIT_T0_T1_EESA_ = comdat any

$_ZNKSt10_Select1stISt4pairIKNSt7__cxx1112basic_stringIcSt11char_traitsIcESaIcEEEmEEclERKS8_ = comdat any

$_ZNKSt13_Rb_tree_nodeISt4pairIKNSt7__cxx1112basic_stringIcSt11char_traitsIcESaIcEEEmEE9_M_valptrEv = comdat any

$_ZNK9__gnu_cxx16__aligned_membufISt4pairIKNSt7__cxx1112basic_stringIcSt11char_traitsIcESaIcEEEmEE6_M_ptrEv = comdat any

$_ZNK9__gnu_cxx16__aligned_membufISt4pairIKNSt7__cxx1112basic_stringIcSt11char_traitsIcESaIcEEEmEE7_M_addrEv = comdat any

$_ZNSt8_Rb_treeINSt7__cxx1112basic_stringIcSt11char_traitsIcESaIcEEESt4pairIKS5_mESt10_Select1stIS8_ESt4lessIS5_ESaIS8_EE14_M_insert_nodeEPSt18_Rb_tree_node_baseSG_PSt13_Rb_tree_nodeIS8_E = comdat any

$_ZNSt16allocator_traitsISaI9TreeClassEE9constructIS0_JRA9_KcN4llvh9StringRefEEEEvRS1_PT_DpOT0_ = comdat any

$_ZNSt6vectorI9TreeClassSaIS0_EE17_M_realloc_insertIJRA9_KcN4llvh9StringRefEEEEvN9__gnu_cxx17__normal_iteratorIPS0_S2_EEDpOT_ = comdat any

$_ZNSt15__new_allocatorI9TreeClassE9constructIS0_JRA9_KcN4llvh9StringRefEEEEvPT_DpOT0_ = comdat any

$_ZNSt4pairIRA9_KcRmEC2IS2_S3_TnNSt9enable_ifIXaaclsr5_PCCPE18_ConstructiblePairIT_T0_EEclsr5_PCCPE26_ImplicitlyConvertiblePairIS7_S8_EEEbE4typeELb1EEES2_S3_ = comdat any

$_ZSt3getILm0ERA9_KcRmEONSt13tuple_elementIXT_ESt4pairIT0_T1_EE4typeEOS8_ = comdat any

$_ZSt3getILm1ERA9_KcRmEONSt13tuple_elementIXT_ESt4pairIT0_T1_EE4typeEOS8_ = comdat any

$_ZNSt8_Rb_treeINSt7__cxx1112basic_stringIcSt11char_traitsIcESaIcEEESt4pairIKS5_mESt10_Select1stIS8_ESt4lessIS5_ESaIS8_EE17_M_emplace_uniqueIJRA9_KcmEEES6_ISt17_Rb_tree_iteratorIS8_EbEDpOT_ = comdat any

$_ZNSt10__pair_getILm0EE10__move_getIRA9_KcRmEEOT_OSt4pairIS6_T0_E = comdat any

$_ZNSt10__pair_getILm1EE10__move_getIRA9_KcRmEEOT0_OSt4pairIT_S6_E = comdat any

$_ZNSt8_Rb_treeINSt7__cxx1112basic_stringIcSt11char_traitsIcESaIcEEESt4pairIKS5_mESt10_Select1stIS8_ESt4lessIS5_ESaIS8_EE10_Auto_nodeC2IJRA9_KcmEEERSE_DpOT_ = comdat any

$_ZNSt8_Rb_treeINSt7__cxx1112basic_stringIcSt11char_traitsIcESaIcEEESt4pairIKS5_mESt10_Select1stIS8_ESt4lessIS5_ESaIS8_EE14_M_create_nodeIJRA9_KcmEEEPSt13_Rb_tree_nodeIS8_EDpOT_ = comdat any

$_ZNSt8_Rb_treeINSt7__cxx1112basic_stringIcSt11char_traitsIcESaIcEEESt4pairIKS5_mESt10_Select1stIS8_ESt4lessIS5_ESaIS8_EE17_M_construct_nodeIJRA9_KcmEEEvPSt13_Rb_tree_nodeIS8_EDpOT_ = comdat any

$_ZNSt16allocator_traitsISaISt13_Rb_tree_nodeISt4pairIKNSt7__cxx1112basic_stringIcSt11char_traitsIcESaIcEEEmEEEE9constructIS9_JRA9_KcmEEEvRSB_PT_DpOT0_ = comdat any

$_ZNSt15__new_allocatorISt13_Rb_tree_nodeISt4pairIKNSt7__cxx1112basic_stringIcSt11char_traitsIcESaIcEEEmEEE9constructIS9_JRA9_KcmEEEvPT_DpOT0_ = comdat any

$_ZNSt4pairIKNSt7__cxx1112basic_stringIcSt11char_traitsIcESaIcEEEmEC2IRA9_KcmTnNSt9enable_ifIXaaclsr5_PCCPE22_MoveConstructiblePairIT_T0_EEclsr5_PCCPE30_ImplicitlyMoveConvertiblePairISD_SE_EEEbE4typeELb1EEEOSD_OSE_ = comdat any

$_ZNSt16allocator_traitsISaI9TreeClassEE9constructIS0_JRA13_KcN4llvh9StringRefE12SentinelTypeEEEvRS1_PT_DpOT0_ = comdat any

$_ZNSt6vectorI9TreeClassSaIS0_EE17_M_realloc_insertIJRA13_KcN4llvh9StringRefE12SentinelTypeEEEvN9__gnu_cxx17__normal_iteratorIPS0_S2_EEDpOT_ = comdat any

$_ZNSt15__new_allocatorI9TreeClassE9constructIS0_JRA13_KcN4llvh9StringRefE12SentinelTypeEEEvPT_DpOT0_ = comdat any

$_ZNSt4pairIRA13_KcRmEC2IS2_S3_TnNSt9enable_ifIXaaclsr5_PCCPE18_ConstructiblePairIT_T0_EEclsr5_PCCPE26_ImplicitlyConvertiblePairIS7_S8_EEEbE4typeELb1EEES2_S3_ = comdat any

$_ZSt3getILm0ERA13_KcRmEONSt13tuple_elementIXT_ESt4pairIT0_T1_EE4typeEOS8_ = comdat any

$_ZSt3getILm1ERA13_KcRmEONSt13tuple_elementIXT_ESt4pairIT0_T1_EE4typeEOS8_ = comdat any

$_ZNSt8_Rb_treeINSt7__cxx1112basic_stringIcSt11char_traitsIcESaIcEEESt4pairIKS5_mESt10_Select1stIS8_ESt4lessIS5_ESaIS8_EE17_M_emplace_uniqueIJRA13_KcmEEES6_ISt17_Rb_tree_iteratorIS8_EbEDpOT_ = comdat any

$_ZNSt10__pair_getILm0EE10__move_getIRA13_KcRmEEOT_OSt4pairIS6_T0_E = comdat any

$_ZNSt10__pair_getILm1EE10__move_getIRA13_KcRmEEOT0_OSt4pairIT_S6_E = comdat any

$_ZNSt8_Rb_treeINSt7__cxx1112basic_stringIcSt11char_traitsIcESaIcEEESt4pairIKS5_mESt10_Select1stIS8_ESt4lessIS5_ESaIS8_EE10_Auto_nodeC2IJRA13_KcmEEERSE_DpOT_ = comdat any

$_ZNSt8_Rb_treeINSt7__cxx1112basic_stringIcSt11char_traitsIcESaIcEEESt4pairIKS5_mESt10_Select1stIS8_ESt4lessIS5_ESaIS8_EE14_M_create_nodeIJRA13_KcmEEEPSt13_Rb_tree_nodeIS8_EDpOT_ = comdat any

$_ZNSt8_Rb_treeINSt7__cxx1112basic_stringIcSt11char_traitsIcESaIcEEESt4pairIKS5_mESt10_Select1stIS8_ESt4lessIS5_ESaIS8_EE17_M_construct_nodeIJRA13_KcmEEEvPSt13_Rb_tree_nodeIS8_EDpOT_ = comdat any

$_ZNSt16allocator_traitsISaISt13_Rb_tree_nodeISt4pairIKNSt7__cxx1112basic_stringIcSt11char_traitsIcESaIcEEEmEEEE9constructIS9_JRA13_KcmEEEvRSB_PT_DpOT0_ = comdat any

$_ZNSt15__new_allocatorISt13_Rb_tree_nodeISt4pairIKNSt7__cxx1112basic_stringIcSt11char_traitsIcESaIcEEEmEEE9constructIS9_JRA13_KcmEEEvPT_DpOT0_ = comdat any

$_ZNSt4pairIKNSt7__cxx1112basic_stringIcSt11char_traitsIcESaIcEEEmEC2IRA13_KcmTnNSt9enable_ifIXaaclsr5_PCCPE22_MoveConstructiblePairIT_T0_EEclsr5_PCCPE30_ImplicitlyMoveConvertiblePairISD_SE_EEEbE4typeELb1EEEOSD_OSE_ = comdat any

$_ZNSt16allocator_traitsISaI9TreeClassEE9constructIS0_JRA8_KcN4llvh9StringRefEEEEvRS1_PT_DpOT0_ = comdat any

$_ZNSt6vectorI9TreeClassSaIS0_EE17_M_realloc_insertIJRA8_KcN4llvh9StringRefEEEEvN9__gnu_cxx17__normal_iteratorIPS0_S2_EEDpOT_ = comdat any

$_ZNSt15__new_allocatorI9TreeClassE9constructIS0_JRA8_KcN4llvh9StringRefEEEEvPT_DpOT0_ = comdat any

$_ZNSt4pairIRA8_KcRmEC2IS2_S3_TnNSt9enable_ifIXaaclsr5_PCCPE18_ConstructiblePairIT_T0_EEclsr5_PCCPE26_ImplicitlyConvertiblePairIS7_S8_EEEbE4typeELb1EEES2_S3_ = comdat any

$_ZSt3getILm0ERA8_KcRmEONSt13tuple_elementIXT_ESt4pairIT0_T1_EE4typeEOS8_ = comdat any

$_ZSt3getILm1ERA8_KcRmEONSt13tuple_elementIXT_ESt4pairIT0_T1_EE4typeEOS8_ = comdat any

$_ZNSt8_Rb_treeINSt7__cxx1112basic_stringIcSt11char_traitsIcESaIcEEESt4pairIKS5_mESt10_Select1stIS8_ESt4lessIS5_ESaIS8_EE17_M_emplace_uniqueIJRA8_KcmEEES6_ISt17_Rb_tree_iteratorIS8_EbEDpOT_ = comdat any

$_ZNSt10__pair_getILm0EE10__move_getIRA8_KcRmEEOT_OSt4pairIS6_T0_E = comdat any

$_ZNSt10__pair_getILm1EE10__move_getIRA8_KcRmEEOT0_OSt4pairIT_S6_E = comdat any

$_ZNSt8_Rb_treeINSt7__cxx1112basic_stringIcSt11char_traitsIcESaIcEEESt4pairIKS5_mESt10_Select1stIS8_ESt4lessIS5_ESaIS8_EE10_Auto_nodeC2IJRA8_KcmEEERSE_DpOT_ = comdat any

$_ZNSt8_Rb_treeINSt7__cxx1112basic_stringIcSt11char_traitsIcESaIcEEESt4pairIKS5_mESt10_Select1stIS8_ESt4lessIS5_ESaIS8_EE14_M_create_nodeIJRA8_KcmEEEPSt13_Rb_tree_nodeIS8_EDpOT_ = comdat any

$_ZNSt8_Rb_treeINSt7__cxx1112basic_stringIcSt11char_traitsIcESaIcEEESt4pairIKS5_mESt10_Select1stIS8_ESt4lessIS5_ESaIS8_EE17_M_construct_nodeIJRA8_KcmEEEvPSt13_Rb_tree_nodeIS8_EDpOT_ = comdat any

$_ZNSt16allocator_traitsISaISt13_Rb_tree_nodeISt4pairIKNSt7__cxx1112basic_stringIcSt11char_traitsIcESaIcEEEmEEEE9constructIS9_JRA8_KcmEEEvRSB_PT_DpOT0_ = comdat any

$_ZNSt15__new_allocatorISt13_Rb_tree_nodeISt4pairIKNSt7__cxx1112basic_stringIcSt11char_traitsIcESaIcEEEmEEE9constructIS9_JRA8_KcmEEEvPT_DpOT0_ = comdat any

$_ZNSt4pairIKNSt7__cxx1112basic_stringIcSt11char_traitsIcESaIcEEEmEC2IRA8_KcmTnNSt9enable_ifIXaaclsr5_PCCPE22_MoveConstructiblePairIT_T0_EEclsr5_PCCPE30_ImplicitlyMoveConvertiblePairISD_SE_EEEbE4typeELb1EEEOSD_OSE_ = comdat any

$_ZNK9__gnu_cxx17__normal_iteratorIP9TreeClassSt6vectorIS1_SaIS1_EEEmiEl = comdat any

$_ZNK9__gnu_cxx17__normal_iteratorIP9TreeClassSt6vectorIS1_SaIS1_EEEdeEv = comdat any

$_ZNSt16allocator_traitsISaI5FieldEE9constructIS0_J9FieldTypeRA5_KcbEEEvRS1_PT_DpOT0_ = comdat any

$_ZNSt6vectorI5FieldSaIS0_EE17_M_realloc_insertIJ9FieldTypeRA5_KcbEEEvN9__gnu_cxx17__normal_iteratorIPS0_S2_EEDpOT_ = comdat any

$_ZNSt6vectorI5FieldSaIS0_EE3endEv = comdat any

$_ZNSt6vectorI5FieldSaIS0_EE4backEv = comdat any

$_ZNSt15__new_allocatorI5FieldE9constructIS0_J9FieldTypeRA5_KcbEEEvPT_DpOT0_ = comdat any

$_ZN5FieldC2E9FieldTypeRKNSt7__cxx1112basic_stringIcSt11char_traitsIcESaIcEEEb = comdat any

$_ZNKSt6vectorI5FieldSaIS0_EE12_M_check_lenEmPKc = comdat any

$_ZN9__gnu_cxxmiIP5FieldSt6vectorIS1_SaIS1_EEEENS_17__normal_iteratorIT_T0_E15difference_typeERKS9_SC_ = comdat any

$_ZNSt6vectorI5FieldSaIS0_EE5beginEv = comdat any

$_ZNSt12_Vector_baseI5FieldSaIS0_EE11_M_allocateEm = comdat any

$_ZNSt6vectorI5FieldSaIS0_EE11_S_relocateEPS0_S3_S3_RS1_ = comdat any

$_ZNK9__gnu_cxx17__normal_iteratorIP5FieldSt6vectorIS1_SaIS1_EEE4baseEv = comdat any

$_ZNKSt6vectorI5FieldSaIS0_EE8max_sizeEv = comdat any

$_ZNKSt6vectorI5FieldSaIS0_EE4sizeEv = comdat any

$_ZNSt6vectorI5FieldSaIS0_EE11_S_max_sizeERKS1_ = comdat any

$_ZNKSt12_Vector_baseI5FieldSaIS0_EE19_M_get_Tp_allocatorEv = comdat any

$_ZNSt16allocator_traitsISaI5FieldEE8max_sizeERKS1_ = comdat any

$_ZNKSt15__new_allocatorI5FieldE8max_sizeEv = comdat any

$_ZNKSt15__new_allocatorI5FieldE11_M_max_sizeEv = comdat any

$_ZN9__gnu_cxx17__normal_iteratorIP5FieldSt6vectorIS1_SaIS1_EEEC2ERKS2_ = comdat any

$_ZNSt16allocator_traitsISaI5FieldEE8allocateERS1_m = comdat any

$_ZNSt15__new_allocatorI5FieldE8allocateEmPKv = comdat any

$_ZSt12__relocate_aIP5FieldS1_SaIS0_EET0_T_S4_S3_RT1_ = comdat any

$_ZSt14__relocate_a_1IP5FieldS1_SaIS0_EET0_T_S4_S3_RT1_ = comdat any

$_ZSt12__niter_baseIP5FieldET_S2_ = comdat any

$_ZSt19__relocate_object_aI5FieldS0_SaIS0_EEvPT_PT0_RT1_ = comdat any

$_ZNSt16allocator_traitsISaI5FieldEE9constructIS0_JS0_EEEvRS1_PT_DpOT0_ = comdat any

$_ZNSt16allocator_traitsISaI5FieldEE7destroyIS0_EEvRS1_PT_ = comdat any

$_ZNSt15__new_allocatorI5FieldE9constructIS0_JS0_EEEvPT_DpOT0_ = comdat any

$_ZN5FieldC2EOS_ = comdat any

$_ZNSt15__new_allocatorI5FieldE7destroyIS0_EEvPT_ = comdat any

$_ZNK9__gnu_cxx17__normal_iteratorIP5FieldSt6vectorIS1_SaIS1_EEEmiEl = comdat any

$_ZNK9__gnu_cxx17__normal_iteratorIP5FieldSt6vectorIS1_SaIS1_EEEdeEv = comdat any

$_ZN4llvh13StringLiteralC2ILm11EEEUa9enable_ifIXeqclL_Z16__builtin_strlenEfL0p_EmiLm11ELi1EEERAT__Kc = comdat any

$_ZN4llvh13StringLiteralC2ILm10EEEUa9enable_ifIXeqclL_Z16__builtin_strlenEfL0p_EmiLm10ELi1EEERAT__Kc = comdat any

$_ZN4llvh13StringLiteralC2ILm12EEEUa9enable_ifIXeqclL_Z16__builtin_strlenEfL0p_EmiLm12ELi1EEERAT__Kc = comdat any

$_ZN4llvh13StringLiteralC2ILm8EEEUa9enable_ifIXeqclL_Z16__builtin_strlenEfL0p_EmiLm8ELi1EEERAT__Kc = comdat any

$_ZN4llvh13StringLiteralC2ILm9EEEUa9enable_ifIXeqclL_Z16__builtin_strlenEfL0p_EmiLm9ELi1EEERAT__Kc = comdat any

$_ZN4llvh8OptionalI9FieldTypeEC2Ev = comdat any

$_ZN4llvh15optional_detail15OptionalStorageI9FieldTypeLb1EEC2Ev = comdat any

$_ZNK4llvh8OptionalI9FieldTypeEcvbEv = comdat any

$_ZN4llvh8OptionalI9FieldTypeEaSEOS1_ = comdat any

$_ZN4llvh15optional_detail15OptionalStorageI9FieldTypeLb1EEaSERKS2_ = comdat any

$_ZNR4llvh8OptionalI9FieldTypeEdeEv = comdat any

$_ZN4llvh8OptionalI9FieldTypeE10getPointerEv = comdat any

$_ZNSt16allocator_traitsISaI9TreeClassEE9constructIS0_JRA19_KcN4llvh9StringRefEEEEvRS1_PT_DpOT0_ = comdat any

$_ZNSt6vectorI9TreeClassSaIS0_EE17_M_realloc_insertIJRA19_KcN4llvh9StringRefEEEEvN9__gnu_cxx17__normal_iteratorIPS0_S2_EEDpOT_ = comdat any

$_ZNSt15__new_allocatorI9TreeClassE9constructIS0_JRA19_KcN4llvh9StringRefEEEEvPT_DpOT0_ = comdat any

$_ZNSt4pairIRA19_KcRmEC2IS2_S3_TnNSt9enable_ifIXaaclsr5_PCCPE18_ConstructiblePairIT_T0_EEclsr5_PCCPE26_ImplicitlyConvertiblePairIS7_S8_EEEbE4typeELb1EEES2_S3_ = comdat any

$_ZSt3getILm0ERA19_KcRmEONSt13tuple_elementIXT_ESt4pairIT0_T1_EE4typeEOS8_ = comdat any

$_ZSt3getILm1ERA19_KcRmEONSt13tuple_elementIXT_ESt4pairIT0_T1_EE4typeEOS8_ = comdat any

$_ZNSt8_Rb_treeINSt7__cxx1112basic_stringIcSt11char_traitsIcESaIcEEESt4pairIKS5_mESt10_Select1stIS8_ESt4lessIS5_ESaIS8_EE17_M_emplace_uniqueIJRA19_KcmEEES6_ISt17_Rb_tree_iteratorIS8_EbEDpOT_ = comdat any

$_ZNSt10__pair_getILm0EE10__move_getIRA19_KcRmEEOT_OSt4pairIS6_T0_E = comdat any

$_ZNSt10__pair_getILm1EE10__move_getIRA19_KcRmEEOT0_OSt4pairIT_S6_E = comdat any

$_ZNSt8_Rb_treeINSt7__cxx1112basic_stringIcSt11char_traitsIcESaIcEEESt4pairIKS5_mESt10_Select1stIS8_ESt4lessIS5_ESaIS8_EE10_Auto_nodeC2IJRA19_KcmEEERSE_DpOT_ = comdat any

$_ZNSt8_Rb_treeINSt7__cxx1112basic_stringIcSt11char_traitsIcESaIcEEESt4pairIKS5_mESt10_Select1stIS8_ESt4lessIS5_ESaIS8_EE14_M_create_nodeIJRA19_KcmEEEPSt13_Rb_tree_nodeIS8_EDpOT_ = comdat any

$_ZNSt8_Rb_treeINSt7__cxx1112basic_stringIcSt11char_traitsIcESaIcEEESt4pairIKS5_mESt10_Select1stIS8_ESt4lessIS5_ESaIS8_EE17_M_construct_nodeIJRA19_KcmEEEvPSt13_Rb_tree_nodeIS8_EDpOT_ = comdat any

$_ZNSt16allocator_traitsISaISt13_Rb_tree_nodeISt4pairIKNSt7__cxx1112basic_stringIcSt11char_traitsIcESaIcEEEmEEEE9constructIS9_JRA19_KcmEEEvRSB_PT_DpOT0_ = comdat any

$_ZNSt15__new_allocatorISt13_Rb_tree_nodeISt4pairIKNSt7__cxx1112basic_stringIcSt11char_traitsIcESaIcEEEmEEE9constructIS9_JRA19_KcmEEEvPT_DpOT0_ = comdat any

$_ZNSt4pairIKNSt7__cxx1112basic_stringIcSt11char_traitsIcESaIcEEEmEC2IRA19_KcmTnNSt9enable_ifIXaaclsr5_PCCPE22_MoveConstructiblePairIT_T0_EEclsr5_PCCPE30_ImplicitlyMoveConvertiblePairISD_SE_EEEbE4typeELb1EEEOSD_OSE_ = comdat any

$_ZNSt16allocator_traitsISaI5FieldEE9constructIS0_J9FieldTypeRA3_KcbEEEvRS1_PT_DpOT0_ = comdat any

$_ZNSt6vectorI5FieldSaIS0_EE17_M_realloc_insertIJ9FieldTypeRA3_KcbEEEvN9__gnu_cxx17__normal_iteratorIPS0_S2_EEDpOT_ = comdat any

$_ZNSt15__new_allocatorI5FieldE9constructIS0_J9FieldTypeRA3_KcbEEEvPT_DpOT0_ = comdat any

$_ZNSt16allocator_traitsISaI5FieldEE9constructIS0_J9FieldTypeRA7_KcbEEEvRS1_PT_DpOT0_ = comdat any

$_ZNSt6vectorI5FieldSaIS0_EE17_M_realloc_insertIJ9FieldTypeRA7_KcbEEEvN9__gnu_cxx17__normal_iteratorIPS0_S2_EEDpOT_ = comdat any

$_ZNSt15__new_allocatorI5FieldE9constructIS0_J9FieldTypeRA7_KcbEEEvPT_DpOT0_ = comdat any

$_ZNSt16allocator_traitsISaI5FieldEE9constructIS0_J9FieldTypeRA15_KcbEEEvRS1_PT_DpOT0_ = comdat any

$_ZNSt6vectorI5FieldSaIS0_EE17_M_realloc_insertIJ9FieldTypeRA15_KcbEEEvN9__gnu_cxx17__normal_iteratorIPS0_S2_EEDpOT_ = comdat any

$_ZNSt15__new_allocatorI5FieldE9constructIS0_J9FieldTypeRA15_KcbEEEvPT_DpOT0_ = comdat any

$_ZNSt16allocator_traitsISaI5FieldEE9constructIS0_J9FieldTypeRA11_KcbEEEvRS1_PT_DpOT0_ = comdat any

$_ZNSt6vectorI5FieldSaIS0_EE17_M_realloc_insertIJ9FieldTypeRA11_KcbEEEvN9__gnu_cxx17__normal_iteratorIPS0_S2_EEDpOT_ = comdat any

$_ZNSt15__new_allocatorI5FieldE9constructIS0_J9FieldTypeRA11_KcbEEEvPT_DpOT0_ = comdat any

$_ZNSt16allocator_traitsISaI5FieldEE9constructIS0_J9FieldTypeRA10_KcbEEEvRS1_PT_DpOT0_ = comdat any

$_ZNSt6vectorI5FieldSaIS0_EE17_M_realloc_insertIJ9FieldTypeRA10_KcbEEEvN9__gnu_cxx17__normal_iteratorIPS0_S2_EEDpOT_ = comdat any

$_ZNSt15__new_allocatorI5FieldE9constructIS0_J9FieldTypeRA10_KcbEEEvPT_DpOT0_ = comdat any

$_ZNSt16allocator_traitsISaI5FieldEE9constructIS0_J9FieldTypeRA6_KcbEEEvRS1_PT_DpOT0_ = comdat any

$_ZNSt6vectorI5FieldSaIS0_EE17_M_realloc_insertIJ9FieldTypeRA6_KcbEEEvN9__gnu_cxx17__normal_iteratorIPS0_S2_EEDpOT_ = comdat any

$_ZNSt15__new_allocatorI5FieldE9constructIS0_J9FieldTypeRA6_KcbEEEvPT_DpOT0_ = comdat any

$_ZNSt16allocator_traitsISaI9TreeClassEE9constructIS0_JRA24_KcN4llvh9StringRefEEEEvRS1_PT_DpOT0_ = comdat any

$_ZNSt6vectorI9TreeClassSaIS0_EE17_M_realloc_insertIJRA24_KcN4llvh9StringRefEEEEvN9__gnu_cxx17__normal_iteratorIPS0_S2_EEDpOT_ = comdat any

$_ZNSt15__new_allocatorI9TreeClassE9constructIS0_JRA24_KcN4llvh9StringRefEEEEvPT_DpOT0_ = comdat any

$_ZNSt4pairIRA24_KcRmEC2IS2_S3_TnNSt9enable_ifIXaaclsr5_PCCPE18_ConstructiblePairIT_T0_EEclsr5_PCCPE26_ImplicitlyConvertiblePairIS7_S8_EEEbE4typeELb1EEES2_S3_ = comdat any

$_ZSt3getILm0ERA24_KcRmEONSt13tuple_elementIXT_ESt4pairIT0_T1_EE4typeEOS8_ = comdat any

$_ZSt3getILm1ERA24_KcRmEONSt13tuple_elementIXT_ESt4pairIT0_T1_EE4typeEOS8_ = comdat any

$_ZNSt8_Rb_treeINSt7__cxx1112basic_stringIcSt11char_traitsIcESaIcEEESt4pairIKS5_mESt10_Select1stIS8_ESt4lessIS5_ESaIS8_EE17_M_emplace_uniqueIJRA24_KcmEEES6_ISt17_Rb_tree_iteratorIS8_EbEDpOT_ = comdat any

$_ZNSt10__pair_getILm0EE10__move_getIRA24_KcRmEEOT_OSt4pairIS6_T0_E = comdat any

$_ZNSt10__pair_getILm1EE10__move_getIRA24_KcRmEEOT0_OSt4pairIT_S6_E = comdat any

$_ZNSt8_Rb_treeINSt7__cxx1112basic_stringIcSt11char_traitsIcESaIcEEESt4pairIKS5_mESt10_Select1stIS8_ESt4lessIS5_ESaIS8_EE10_Auto_nodeC2IJRA24_KcmEEERSE_DpOT_ = comdat any

$_ZNSt8_Rb_treeINSt7__cxx1112basic_stringIcSt11char_traitsIcESaIcEEESt4pairIKS5_mESt10_Select1stIS8_ESt4lessIS5_ESaIS8_EE14_M_create_nodeIJRA24_KcmEEEPSt13_Rb_tree_nodeIS8_EDpOT_ = comdat any

$_ZNSt8_Rb_treeINSt7__cxx1112basic_stringIcSt11char_traitsIcESaIcEEESt4pairIKS5_mESt10_Select1stIS8_ESt4lessIS5_ESaIS8_EE17_M_construct_nodeIJRA24_KcmEEEvPSt13_Rb_tree_nodeIS8_EDpOT_ = comdat any

$_ZNSt16allocator_traitsISaISt13_Rb_tree_nodeISt4pairIKNSt7__cxx1112basic_stringIcSt11char_traitsIcESaIcEEEmEEEE9constructIS9_JRA24_KcmEEEvRSB_PT_DpOT0_ = comdat any

$_ZNSt15__new_allocatorISt13_Rb_tree_nodeISt4pairIKNSt7__cxx1112basic_stringIcSt11char_traitsIcESaIcEEEmEEE9constructIS9_JRA24_KcmEEEvPT_DpOT0_ = comdat any

$_ZNSt4pairIKNSt7__cxx1112basic_stringIcSt11char_traitsIcESaIcEEEmEC2IRA24_KcmTnNSt9enable_ifIXaaclsr5_PCCPE22_MoveConstructiblePairIT_T0_EEclsr5_PCCPE30_ImplicitlyMoveConvertiblePairISD_SE_EEEbE4typeELb1EEEOSD_OSE_ = comdat any

$_ZNSt16allocator_traitsISaI9TreeClassEE9constructIS0_JRA20_KcN4llvh9StringRefEEEEvRS1_PT_DpOT0_ = comdat any

$_ZNSt6vectorI9TreeClassSaIS0_EE17_M_realloc_insertIJRA20_KcN4llvh9StringRefEEEEvN9__gnu_cxx17__normal_iteratorIPS0_S2_EEDpOT_ = comdat any

$_ZNSt15__new_allocatorI9TreeClassE9constructIS0_JRA20_KcN4llvh9StringRefEEEEvPT_DpOT0_ = comdat any

$_ZNSt4pairIRA20_KcRmEC2IS2_S3_TnNSt9enable_ifIXaaclsr5_PCCPE18_ConstructiblePairIT_T0_EEclsr5_PCCPE26_ImplicitlyConvertiblePairIS7_S8_EEEbE4typeELb1EEES2_S3_ = comdat any

$_ZSt3getILm0ERA20_KcRmEONSt13tuple_elementIXT_ESt4pairIT0_T1_EE4typeEOS8_ = comdat any

$_ZSt3getILm1ERA20_KcRmEONSt13tuple_elementIXT_ESt4pairIT0_T1_EE4typeEOS8_ = comdat any

$_ZNSt8_Rb_treeINSt7__cxx1112basic_stringIcSt11char_traitsIcESaIcEEESt4pairIKS5_mESt10_Select1stIS8_ESt4lessIS5_ESaIS8_EE17_M_emplace_uniqueIJRA20_KcmEEES6_ISt17_Rb_tree_iteratorIS8_EbEDpOT_ = comdat any

$_ZNSt10__pair_getILm0EE10__move_getIRA20_KcRmEEOT_OSt4pairIS6_T0_E = comdat any

$_ZNSt10__pair_getILm1EE10__move_getIRA20_KcRmEEOT0_OSt4pairIT_S6_E = comdat any

$_ZNSt8_Rb_treeINSt7__cxx1112basic_stringIcSt11char_traitsIcESaIcEEESt4pairIKS5_mESt10_Select1stIS8_ESt4lessIS5_ESaIS8_EE10_Auto_nodeC2IJRA20_KcmEEERSE_DpOT_ = comdat any

$_ZNSt8_Rb_treeINSt7__cxx1112basic_stringIcSt11char_traitsIcESaIcEEESt4pairIKS5_mESt10_Select1stIS8_ESt4lessIS5_ESaIS8_EE14_M_create_nodeIJRA20_KcmEEEPSt13_Rb_tree_nodeIS8_EDpOT_ = comdat any

$_ZNSt8_Rb_treeINSt7__cxx1112basic_stringIcSt11char_traitsIcESaIcEEESt4pairIKS5_mESt10_Select1stIS8_ESt4lessIS5_ESaIS8_EE17_M_construct_nodeIJRA20_KcmEEEvPSt13_Rb_tree_nodeIS8_EDpOT_ = comdat any

$_ZNSt16allocator_traitsISaISt13_Rb_tree_nodeISt4pairIKNSt7__cxx1112basic_stringIcSt11char_traitsIcESaIcEEEmEEEE9constructIS9_JRA20_KcmEEEvRSB_PT_DpOT0_ = comdat any

$_ZNSt15__new_allocatorISt13_Rb_tree_nodeISt4pairIKNSt7__cxx1112basic_stringIcSt11char_traitsIcESaIcEEEmEEE9constructIS9_JRA20_KcmEEEvPT_DpOT0_ = comdat any

$_ZNSt4pairIKNSt7__cxx1112basic_stringIcSt11char_traitsIcESaIcEEEmEC2IRA20_KcmTnNSt9enable_ifIXaaclsr5_PCCPE22_MoveConstructiblePairIT_T0_EEclsr5_PCCPE30_ImplicitlyMoveConvertiblePairISD_SE_EEEbE4typeELb1EEEOSD_OSE_ = comdat any

$_ZNSt16allocator_traitsISaI9TreeClassEE9constructIS0_JRA21_KcN4llvh9StringRefEEEEvRS1_PT_DpOT0_ = comdat any

$_ZNSt6vectorI9TreeClassSaIS0_EE17_M_realloc_insertIJRA21_KcN4llvh9StringRefEEEEvN9__gnu_cxx17__normal_iteratorIPS0_S2_EEDpOT_ = comdat any

$_ZNSt15__new_allocatorI9TreeClassE9constructIS0_JRA21_KcN4llvh9StringRefEEEEvPT_DpOT0_ = comdat any

$_ZNSt4pairIRA21_KcRmEC2IS2_S3_TnNSt9enable_ifIXaaclsr5_PCCPE18_ConstructiblePairIT_T0_EEclsr5_PCCPE26_ImplicitlyConvertiblePairIS7_S8_EEEbE4typeELb1EEES2_S3_ = comdat any

$_ZSt3getILm0ERA21_KcRmEONSt13tuple_elementIXT_ESt4pairIT0_T1_EE4typeEOS8_ = comdat any

$_ZSt3getILm1ERA21_KcRmEONSt13tuple_elementIXT_ESt4pairIT0_T1_EE4typeEOS8_ = comdat any

$_ZNSt8_Rb_treeINSt7__cxx1112basic_stringIcSt11char_traitsIcESaIcEEESt4pairIKS5_mESt10_Select1stIS8_ESt4lessIS5_ESaIS8_EE17_M_emplace_uniqueIJRA21_KcmEEES6_ISt17_Rb_tree_iteratorIS8_EbEDpOT_ = comdat any

$_ZNSt10__pair_getILm0EE10__move_getIRA21_KcRmEEOT_OSt4pairIS6_T0_E = comdat any

$_ZNSt10__pair_getILm1EE10__move_getIRA21_KcRmEEOT0_OSt4pairIT_S6_E = comdat any

$_ZNSt8_Rb_treeINSt7__cxx1112basic_stringIcSt11char_traitsIcESaIcEEESt4pairIKS5_mESt10_Select1stIS8_ESt4lessIS5_ESaIS8_EE10_Auto_nodeC2IJRA21_KcmEEERSE_DpOT_ = comdat any

$_ZNSt8_Rb_treeINSt7__cxx1112basic_stringIcSt11char_traitsIcESaIcEEESt4pairIKS5_mESt10_Select1stIS8_ESt4lessIS5_ESaIS8_EE14_M_create_nodeIJRA21_KcmEEEPSt13_Rb_tree_nodeIS8_EDpOT_ = comdat any

$_ZNSt8_Rb_treeINSt7__cxx1112basic_stringIcSt11char_traitsIcESaIcEEESt4pairIKS5_mESt10_Select1stIS8_ESt4lessIS5_ESaIS8_EE17_M_construct_nodeIJRA21_KcmEEEvPSt13_Rb_tree_nodeIS8_EDpOT_ = comdat any

$_ZNSt16allocator_traitsISaISt13_Rb_tree_nodeISt4pairIKNSt7__cxx1112basic_stringIcSt11char_traitsIcESaIcEEEmEEEE9constructIS9_JRA21_KcmEEEvRSB_PT_DpOT0_ = comdat any

$_ZNSt15__new_allocatorISt13_Rb_tree_nodeISt4pairIKNSt7__cxx1112basic_stringIcSt11char_traitsIcESaIcEEEmEEE9constructIS9_JRA21_KcmEEEvPT_DpOT0_ = comdat any

$_ZNSt4pairIKNSt7__cxx1112basic_stringIcSt11char_traitsIcESaIcEEEmEC2IRA21_KcmTnNSt9enable_ifIXaaclsr5_PCCPE22_MoveConstructiblePairIT_T0_EEclsr5_PCCPE30_ImplicitlyMoveConvertiblePairISD_SE_EEEbE4typeELb1EEEOSD_OSE_ = comdat any

$_ZNSt16allocator_traitsISaI5FieldEE9constructIS0_J9FieldTypeRA12_KcbEEEvRS1_PT_DpOT0_ = comdat any

$_ZNSt6vectorI5FieldSaIS0_EE17_M_realloc_insertIJ9FieldTypeRA12_KcbEEEvN9__gnu_cxx17__normal_iteratorIPS0_S2_EEDpOT_ = comdat any

$_ZNSt15__new_allocatorI5FieldE9constructIS0_J9FieldTypeRA12_KcbEEEvPT_DpOT0_ = comdat any

$_ZNSt16allocator_traitsISaI9TreeClassEE9constructIS0_JRA13_KcRA1_S4_12SentinelTypeEEEvRS1_PT_DpOT0_ = comdat any

$_ZNSt6vectorI9TreeClassSaIS0_EE17_M_realloc_insertIJRA13_KcRA1_S4_12SentinelTypeEEEvN9__gnu_cxx17__normal_iteratorIPS0_S2_EEDpOT_ = comdat any

$_ZNSt15__new_allocatorI9TreeClassE9constructIS0_JRA13_KcRA1_S3_12SentinelTypeEEEvPT_DpOT0_ = comdat any

$_ZNSt16allocator_traitsISaI9TreeClassEE9constructIS0_JRA10_KcN4llvh9StringRefE12SentinelTypeEEEvRS1_PT_DpOT0_ = comdat any

$_ZNSt6vectorI9TreeClassSaIS0_EE17_M_realloc_insertIJRA10_KcN4llvh9StringRefE12SentinelTypeEEEvN9__gnu_cxx17__normal_iteratorIPS0_S2_EEDpOT_ = comdat any

$_ZNSt15__new_allocatorI9TreeClassE9constructIS0_JRA10_KcN4llvh9StringRefE12SentinelTypeEEEvPT_DpOT0_ = comdat any

$_ZNSt4pairIRA10_KcRmEC2IS2_S3_TnNSt9enable_ifIXaaclsr5_PCCPE18_ConstructiblePairIT_T0_EEclsr5_PCCPE26_ImplicitlyConvertiblePairIS7_S8_EEEbE4typeELb1EEES2_S3_ = comdat any

$_ZSt3getILm0ERA10_KcRmEONSt13tuple_elementIXT_ESt4pairIT0_T1_EE4typeEOS8_ = comdat any

$_ZSt3getILm1ERA10_KcRmEONSt13tuple_elementIXT_ESt4pairIT0_T1_EE4typeEOS8_ = comdat any

$_ZNSt8_Rb_treeINSt7__cxx1112basic_stringIcSt11char_traitsIcESaIcEEESt4pairIKS5_mESt10_Select1stIS8_ESt4lessIS5_ESaIS8_EE17_M_emplace_uniqueIJRA10_KcmEEES6_ISt17_Rb_tree_iteratorIS8_EbEDpOT_ = comdat any

$_ZNSt10__pair_getILm0EE10__move_getIRA10_KcRmEEOT_OSt4pairIS6_T0_E = comdat any

$_ZNSt10__pair_getILm1EE10__move_getIRA10_KcRmEEOT0_OSt4pairIT_S6_E = comdat any

$_ZNSt8_Rb_treeINSt7__cxx1112basic_stringIcSt11char_traitsIcESaIcEEESt4pairIKS5_mESt10_Select1stIS8_ESt4lessIS5_ESaIS8_EE10_Auto_nodeC2IJRA10_KcmEEERSE_DpOT_ = comdat any

$_ZNSt8_Rb_treeINSt7__cxx1112basic_stringIcSt11char_traitsIcESaIcEEESt4pairIKS5_mESt10_Select1stIS8_ESt4lessIS5_ESaIS8_EE14_M_create_nodeIJRA10_KcmEEEPSt13_Rb_tree_nodeIS8_EDpOT_ = comdat any

$_ZNSt8_Rb_treeINSt7__cxx1112basic_stringIcSt11char_traitsIcESaIcEEESt4pairIKS5_mESt10_Select1stIS8_ESt4lessIS5_ESaIS8_EE17_M_construct_nodeIJRA10_KcmEEEvPSt13_Rb_tree_nodeIS8_EDpOT_ = comdat any

$_ZNSt16allocator_traitsISaISt13_Rb_tree_nodeISt4pairIKNSt7__cxx1112basic_stringIcSt11char_traitsIcESaIcEEEmEEEE9constructIS9_JRA10_KcmEEEvRSB_PT_DpOT0_ = comdat any

$_ZNSt15__new_allocatorISt13_Rb_tree_nodeISt4pairIKNSt7__cxx1112basic_stringIcSt11char_traitsIcESaIcEEEmEEE9constructIS9_JRA10_KcmEEEvPT_DpOT0_ = comdat any

$_ZNSt4pairIKNSt7__cxx1112basic_stringIcSt11char_traitsIcESaIcEEEmEC2IRA10_KcmTnNSt9enable_ifIXaaclsr5_PCCPE22_MoveConstructiblePairIT_T0_EEclsr5_PCCPE30_ImplicitlyMoveConvertiblePairISD_SE_EEEbE4typeELb1EEEOSD_OSE_ = comdat any

$_ZNSt16allocator_traitsISaI9TreeClassEE9constructIS0_JRA14_KcN4llvh9StringRefE12SentinelTypeEEEvRS1_PT_DpOT0_ = comdat any

$_ZNSt6vectorI9TreeClassSaIS0_EE17_M_realloc_insertIJRA14_KcN4llvh9StringRefE12SentinelTypeEEEvN9__gnu_cxx17__normal_iteratorIPS0_S2_EEDpOT_ = comdat any

$_ZNSt15__new_allocatorI9TreeClassE9constructIS0_JRA14_KcN4llvh9StringRefE12SentinelTypeEEEvPT_DpOT0_ = comdat any

$_ZNSt4pairIRA14_KcRmEC2IS2_S3_TnNSt9enable_ifIXaaclsr5_PCCPE18_ConstructiblePairIT_T0_EEclsr5_PCCPE26_ImplicitlyConvertiblePairIS7_S8_EEEbE4typeELb1EEES2_S3_ = comdat any

$_ZSt3getILm0ERA14_KcRmEONSt13tuple_elementIXT_ESt4pairIT0_T1_EE4typeEOS8_ = comdat any

$_ZSt3getILm1ERA14_KcRmEONSt13tuple_elementIXT_ESt4pairIT0_T1_EE4typeEOS8_ = comdat any

$_ZNSt8_Rb_treeINSt7__cxx1112basic_stringIcSt11char_traitsIcESaIcEEESt4pairIKS5_mESt10_Select1stIS8_ESt4lessIS5_ESaIS8_EE17_M_emplace_uniqueIJRA14_KcmEEES6_ISt17_Rb_tree_iteratorIS8_EbEDpOT_ = comdat any

$_ZNSt10__pair_getILm0EE10__move_getIRA14_KcRmEEOT_OSt4pairIS6_T0_E = comdat any

$_ZNSt10__pair_getILm1EE10__move_getIRA14_KcRmEEOT0_OSt4pairIT_S6_E = comdat any

$_ZNSt8_Rb_treeINSt7__cxx1112basic_stringIcSt11char_traitsIcESaIcEEESt4pairIKS5_mESt10_Select1stIS8_ESt4lessIS5_ESaIS8_EE10_Auto_nodeC2IJRA14_KcmEEERSE_DpOT_ = comdat any

$_ZNSt8_Rb_treeINSt7__cxx1112basic_stringIcSt11char_traitsIcESaIcEEESt4pairIKS5_mESt10_Select1stIS8_ESt4lessIS5_ESaIS8_EE14_M_create_nodeIJRA14_KcmEEEPSt13_Rb_tree_nodeIS8_EDpOT_ = comdat any

$_ZNSt8_Rb_treeINSt7__cxx1112basic_stringIcSt11char_traitsIcESaIcEEESt4pairIKS5_mESt10_Select1stIS8_ESt4lessIS5_ESaIS8_EE17_M_construct_nodeIJRA14_KcmEEEvPSt13_Rb_tree_nodeIS8_EDpOT_ = comdat any

$_ZNSt16allocator_traitsISaISt13_Rb_tree_nodeISt4pairIKNSt7__cxx1112basic_stringIcSt11char_traitsIcESaIcEEEmEEEE9constructIS9_JRA14_KcmEEEvRSB_PT_DpOT0_ = comdat any

$_ZNSt15__new_allocatorISt13_Rb_tree_nodeISt4pairIKNSt7__cxx1112basic_stringIcSt11char_traitsIcESaIcEEEmEEE9constructIS9_JRA14_KcmEEEvPT_DpOT0_ = comdat any

$_ZNSt4pairIKNSt7__cxx1112basic_stringIcSt11char_traitsIcESaIcEEEmEC2IRA14_KcmTnNSt9enable_ifIXaaclsr5_PCCPE22_MoveConstructiblePairIT_T0_EEclsr5_PCCPE30_ImplicitlyMoveConvertiblePairISD_SE_EEEbE4typeELb1EEEOSD_OSE_ = comdat any

$_ZNSt16allocator_traitsISaI9TreeClassEE9constructIS0_JRA15_KcN4llvh9StringRefEEEEvRS1_PT_DpOT0_ = comdat any

$_ZNSt6vectorI9TreeClassSaIS0_EE17_M_realloc_insertIJRA15_KcN4llvh9StringRefEEEEvN9__gnu_cxx17__normal_iteratorIPS0_S2_EEDpOT_ = comdat any

$_ZNSt15__new_allocatorI9TreeClassE9constructIS0_JRA15_KcN4llvh9StringRefEEEEvPT_DpOT0_ = comdat any

$_ZNSt4pairIRA15_KcRmEC2IS2_S3_TnNSt9enable_ifIXaaclsr5_PCCPE18_ConstructiblePairIT_T0_EEclsr5_PCCPE26_ImplicitlyConvertiblePairIS7_S8_EEEbE4typeELb1EEES2_S3_ = comdat any

$_ZSt3getILm0ERA15_KcRmEONSt13tuple_elementIXT_ESt4pairIT0_T1_EE4typeEOS8_ = comdat any

$_ZSt3getILm1ERA15_KcRmEONSt13tuple_elementIXT_ESt4pairIT0_T1_EE4typeEOS8_ = comdat any

$_ZNSt8_Rb_treeINSt7__cxx1112basic_stringIcSt11char_traitsIcESaIcEEESt4pairIKS5_mESt10_Select1stIS8_ESt4lessIS5_ESaIS8_EE17_M_emplace_uniqueIJRA15_KcmEEES6_ISt17_Rb_tree_iteratorIS8_EbEDpOT_ = comdat any

$_ZNSt10__pair_getILm0EE10__move_getIRA15_KcRmEEOT_OSt4pairIS6_T0_E = comdat any

$_ZNSt10__pair_getILm1EE10__move_getIRA15_KcRmEEOT0_OSt4pairIT_S6_E = comdat any

$_ZNSt8_Rb_treeINSt7__cxx1112basic_stringIcSt11char_traitsIcESaIcEEESt4pairIKS5_mESt10_Select1stIS8_ESt4lessIS5_ESaIS8_EE10_Auto_nodeC2IJRA15_KcmEEERSE_DpOT_ = comdat any

$_ZNSt8_Rb_treeINSt7__cxx1112basic_stringIcSt11char_traitsIcESaIcEEESt4pairIKS5_mESt10_Select1stIS8_ESt4lessIS5_ESaIS8_EE14_M_create_nodeIJRA15_KcmEEEPSt13_Rb_tree_nodeIS8_EDpOT_ = comdat any

$_ZNSt8_Rb_treeINSt7__cxx1112basic_stringIcSt11char_traitsIcESaIcEEESt4pairIKS5_mESt10_Select1stIS8_ESt4lessIS5_ESaIS8_EE17_M_construct_nodeIJRA15_KcmEEEvPSt13_Rb_tree_nodeIS8_EDpOT_ = comdat any

$_ZNSt16allocator_traitsISaISt13_Rb_tree_nodeISt4pairIKNSt7__cxx1112basic_stringIcSt11char_traitsIcESaIcEEEmEEEE9constructIS9_JRA15_KcmEEEvRSB_PT_DpOT0_ = comdat any

$_ZNSt15__new_allocatorISt13_Rb_tree_nodeISt4pairIKNSt7__cxx1112basic_stringIcSt11char_traitsIcESaIcEEEmEEE9constructIS9_JRA15_KcmEEEvPT_DpOT0_ = comdat any

$_ZNSt4pairIKNSt7__cxx1112basic_stringIcSt11char_traitsIcESaIcEEEmEC2IRA15_KcmTnNSt9enable_ifIXaaclsr5_PCCPE22_MoveConstructiblePairIT_T0_EEclsr5_PCCPE30_ImplicitlyMoveConvertiblePairISD_SE_EEEbE4typeELb1EEEOSD_OSE_ = comdat any

$_ZNSt16allocator_traitsISaI9TreeClassEE9constructIS0_JRA17_KcN4llvh9StringRefEEEEvRS1_PT_DpOT0_ = comdat any

$_ZNSt6vectorI9TreeClassSaIS0_EE17_M_realloc_insertIJRA17_KcN4llvh9StringRefEEEEvN9__gnu_cxx17__normal_iteratorIPS0_S2_EEDpOT_ = comdat any

$_ZNSt15__new_allocatorI9TreeClassE9constructIS0_JRA17_KcN4llvh9StringRefEEEEvPT_DpOT0_ = comdat any

$_ZNSt4pairIRA17_KcRmEC2IS2_S3_TnNSt9enable_ifIXaaclsr5_PCCPE18_ConstructiblePairIT_T0_EEclsr5_PCCPE26_ImplicitlyConvertiblePairIS7_S8_EEEbE4typeELb1EEES2_S3_ = comdat any

$_ZSt3getILm0ERA17_KcRmEONSt13tuple_elementIXT_ESt4pairIT0_T1_EE4typeEOS8_ = comdat any

$_ZSt3getILm1ERA17_KcRmEONSt13tuple_elementIXT_ESt4pairIT0_T1_EE4typeEOS8_ = comdat any

$_ZNSt8_Rb_treeINSt7__cxx1112basic_stringIcSt11char_traitsIcESaIcEEESt4pairIKS5_mESt10_Select1stIS8_ESt4lessIS5_ESaIS8_EE17_M_emplace_uniqueIJRA17_KcmEEES6_ISt17_Rb_tree_iteratorIS8_EbEDpOT_ = comdat any

$_ZNSt10__pair_getILm0EE10__move_getIRA17_KcRmEEOT_OSt4pairIS6_T0_E = comdat any

$_ZNSt10__pair_getILm1EE10__move_getIRA17_KcRmEEOT0_OSt4pairIT_S6_E = comdat any

$_ZNSt8_Rb_treeINSt7__cxx1112basic_stringIcSt11char_traitsIcESaIcEEESt4pairIKS5_mESt10_Select1stIS8_ESt4lessIS5_ESaIS8_EE10_Auto_nodeC2IJRA17_KcmEEERSE_DpOT_ = comdat any

$_ZNSt8_Rb_treeINSt7__cxx1112basic_stringIcSt11char_traitsIcESaIcEEESt4pairIKS5_mESt10_Select1stIS8_ESt4lessIS5_ESaIS8_EE14_M_create_nodeIJRA17_KcmEEEPSt13_Rb_tree_nodeIS8_EDpOT_ = comdat any

$_ZNSt8_Rb_treeINSt7__cxx1112basic_stringIcSt11char_traitsIcESaIcEEESt4pairIKS5_mESt10_Select1stIS8_ESt4lessIS5_ESaIS8_EE17_M_construct_nodeIJRA17_KcmEEEvPSt13_Rb_tree_nodeIS8_EDpOT_ = comdat any

$_ZNSt16allocator_traitsISaISt13_Rb_tree_nodeISt4pairIKNSt7__cxx1112basic_stringIcSt11char_traitsIcESaIcEEEmEEEE9constructIS9_JRA17_KcmEEEvRSB_PT_DpOT0_ = comdat any

$_ZNSt15__new_allocatorISt13_Rb_tree_nodeISt4pairIKNSt7__cxx1112basic_stringIcSt11char_traitsIcESaIcEEEmEEE9constructIS9_JRA17_KcmEEEvPT_DpOT0_ = comdat any

$_ZNSt4pairIKNSt7__cxx1112basic_stringIcSt11char_traitsIcESaIcEEEmEC2IRA17_KcmTnNSt9enable_ifIXaaclsr5_PCCPE22_MoveConstructiblePairIT_T0_EEclsr5_PCCPE30_ImplicitlyMoveConvertiblePairISD_SE_EEEbE4typeELb1EEEOSD_OSE_ = comdat any

$_ZNSt16allocator_traitsISaI9TreeClassEE9constructIS0_JRA13_KcN4llvh9StringRefEEEEvRS1_PT_DpOT0_ = comdat any

$_ZNSt6vectorI9TreeClassSaIS0_EE17_M_realloc_insertIJRA13_KcN4llvh9StringRefEEEEvN9__gnu_cxx17__normal_iteratorIPS0_S2_EEDpOT_ = comdat any

$_ZNSt15__new_allocatorI9TreeClassE9constructIS0_JRA13_KcN4llvh9StringRefEEEEvPT_DpOT0_ = comdat any

$_ZNSt16allocator_traitsISaI9TreeClassEE9constructIS0_JRA14_KcRA1_S4_12SentinelTypeEEEvRS1_PT_DpOT0_ = comdat any

$_ZNSt6vectorI9TreeClassSaIS0_EE17_M_realloc_insertIJRA14_KcRA1_S4_12SentinelTypeEEEvN9__gnu_cxx17__normal_iteratorIPS0_S2_EEDpOT_ = comdat any

$_ZNSt15__new_allocatorI9TreeClassE9constructIS0_JRA14_KcRA1_S3_12SentinelTypeEEEvPT_DpOT0_ = comdat any

$_ZNSt16allocator_traitsISaI9TreeClassEE9constructIS0_JRA18_KcN4llvh9StringRefEEEEvRS1_PT_DpOT0_ = comdat any

$_ZNSt6vectorI9TreeClassSaIS0_EE17_M_realloc_insertIJRA18_KcN4llvh9StringRefEEEEvN9__gnu_cxx17__normal_iteratorIPS0_S2_EEDpOT_ = comdat any

$_ZNSt15__new_allocatorI9TreeClassE9constructIS0_JRA18_KcN4llvh9StringRefEEEEvPT_DpOT0_ = comdat any

$_ZNSt4pairIRA18_KcRmEC2IS2_S3_TnNSt9enable_ifIXaaclsr5_PCCPE18_ConstructiblePairIT_T0_EEclsr5_PCCPE26_ImplicitlyConvertiblePairIS7_S8_EEEbE4typeELb1EEES2_S3_ = comdat any

$_ZSt3getILm0ERA18_KcRmEONSt13tuple_elementIXT_ESt4pairIT0_T1_EE4typeEOS8_ = comdat any

$_ZSt3getILm1ERA18_KcRmEONSt13tuple_elementIXT_ESt4pairIT0_T1_EE4typeEOS8_ = comdat any

$_ZNSt8_Rb_treeINSt7__cxx1112basic_stringIcSt11char_traitsIcESaIcEEESt4pairIKS5_mESt10_Select1stIS8_ESt4lessIS5_ESaIS8_EE17_M_emplace_uniqueIJRA18_KcmEEES6_ISt17_Rb_tree_iteratorIS8_EbEDpOT_ = comdat any

$_ZNSt10__pair_getILm0EE10__move_getIRA18_KcRmEEOT_OSt4pairIS6_T0_E = comdat any

$_ZNSt10__pair_getILm1EE10__move_getIRA18_KcRmEEOT0_OSt4pairIT_S6_E = comdat any

$_ZNSt8_Rb_treeINSt7__cxx1112basic_stringIcSt11char_traitsIcESaIcEEESt4pairIKS5_mESt10_Select1stIS8_ESt4lessIS5_ESaIS8_EE10_Auto_nodeC2IJRA18_KcmEEERSE_DpOT_ = comdat any

$_ZNSt8_Rb_treeINSt7__cxx1112basic_stringIcSt11char_traitsIcESaIcEEESt4pairIKS5_mESt10_Select1stIS8_ESt4lessIS5_ESaIS8_EE14_M_create_nodeIJRA18_KcmEEEPSt13_Rb_tree_nodeIS8_EDpOT_ = comdat any

$_ZNSt8_Rb_treeINSt7__cxx1112basic_stringIcSt11char_traitsIcESaIcEEESt4pairIKS5_mESt10_Select1stIS8_ESt4lessIS5_ESaIS8_EE17_M_construct_nodeIJRA18_KcmEEEvPSt13_Rb_tree_nodeIS8_EDpOT_ = comdat any

$_ZNSt16allocator_traitsISaISt13_Rb_tree_nodeISt4pairIKNSt7__cxx1112basic_stringIcSt11char_traitsIcESaIcEEEmEEEE9constructIS9_JRA18_KcmEEEvRSB_PT_DpOT0_ = comdat any

$_ZNSt15__new_allocatorISt13_Rb_tree_nodeISt4pairIKNSt7__cxx1112basic_stringIcSt11char_traitsIcESaIcEEEmEEE9constructIS9_JRA18_KcmEEEvPT_DpOT0_ = comdat any

$_ZNSt4pairIKNSt7__cxx1112basic_stringIcSt11char_traitsIcESaIcEEEmEC2IRA18_KcmTnNSt9enable_ifIXaaclsr5_PCCPE22_MoveConstructiblePairIT_T0_EEclsr5_PCCPE30_ImplicitlyMoveConvertiblePairISD_SE_EEEbE4typeELb1EEEOSD_OSE_ = comdat any

$_ZNSt16allocator_traitsISaI5FieldEE9constructIS0_J9FieldTypeRA9_KcbEEEvRS1_PT_DpOT0_ = comdat any

$_ZNSt6vectorI5FieldSaIS0_EE17_M_realloc_insertIJ9FieldTypeRA9_KcbEEEvN9__gnu_cxx17__normal_iteratorIPS0_S2_EEDpOT_ = comdat any

$_ZNSt15__new_allocatorI5FieldE9constructIS0_J9FieldTypeRA9_KcbEEEvPT_DpOT0_ = comdat any

$_ZNSt16allocator_traitsISaI9TreeClassEE9constructIS0_JRA16_KcN4llvh9StringRefEEEEvRS1_PT_DpOT0_ = comdat any

$_ZNSt6vectorI9TreeClassSaIS0_EE17_M_realloc_insertIJRA16_KcN4llvh9StringRefEEEEvN9__gnu_cxx17__normal_iteratorIPS0_S2_EEDpOT_ = comdat any

$_ZNSt15__new_allocatorI9TreeClassE9constructIS0_JRA16_KcN4llvh9StringRefEEEEvPT_DpOT0_ = comdat any

$_ZNSt4pairIRA16_KcRmEC2IS2_S3_TnNSt9enable_ifIXaaclsr5_PCCPE18_ConstructiblePairIT_T0_EEclsr5_PCCPE26_ImplicitlyConvertiblePairIS7_S8_EEEbE4typeELb1EEES2_S3_ = comdat any

$_ZSt3getILm0ERA16_KcRmEONSt13tuple_elementIXT_ESt4pairIT0_T1_EE4typeEOS8_ = comdat any

$_ZSt3getILm1ERA16_KcRmEONSt13tuple_elementIXT_ESt4pairIT0_T1_EE4typeEOS8_ = comdat any

$_ZNSt8_Rb_treeINSt7__cxx1112basic_stringIcSt11char_traitsIcESaIcEEESt4pairIKS5_mESt10_Select1stIS8_ESt4lessIS5_ESaIS8_EE17_M_emplace_uniqueIJRA16_KcmEEES6_ISt17_Rb_tree_iteratorIS8_EbEDpOT_ = comdat any

$_ZNSt10__pair_getILm0EE10__move_getIRA16_KcRmEEOT_OSt4pairIS6_T0_E = comdat any

$_ZNSt10__pair_getILm1EE10__move_getIRA16_KcRmEEOT0_OSt4pairIT_S6_E = comdat any

$_ZNSt8_Rb_treeINSt7__cxx1112basic_stringIcSt11char_traitsIcESaIcEEESt4pairIKS5_mESt10_Select1stIS8_ESt4lessIS5_ESaIS8_EE10_Auto_nodeC2IJRA16_KcmEEERSE_DpOT_ = comdat any

$_ZNSt8_Rb_treeINSt7__cxx1112basic_stringIcSt11char_traitsIcESaIcEEESt4pairIKS5_mESt10_Select1stIS8_ESt4lessIS5_ESaIS8_EE14_M_create_nodeIJRA16_KcmEEEPSt13_Rb_tree_nodeIS8_EDpOT_ = comdat any

$_ZNSt8_Rb_treeINSt7__cxx1112basic_stringIcSt11char_traitsIcESaIcEEESt4pairIKS5_mESt10_Select1stIS8_ESt4lessIS5_ESaIS8_EE17_M_construct_nodeIJRA16_KcmEEEvPSt13_Rb_tree_nodeIS8_EDpOT_ = comdat any

$_ZNSt16allocator_traitsISaISt13_Rb_tree_nodeISt4pairIKNSt7__cxx1112basic_stringIcSt11char_traitsIcESaIcEEEmEEEE9constructIS9_JRA16_KcmEEEvRSB_PT_DpOT0_ = comdat any

$_ZNSt15__new_allocatorISt13_Rb_tree_nodeISt4pairIKNSt7__cxx1112basic_stringIcSt11char_traitsIcESaIcEEEmEEE9constructIS9_JRA16_KcmEEEvPT_DpOT0_ = comdat any

$_ZNSt4pairIKNSt7__cxx1112basic_stringIcSt11char_traitsIcESaIcEEEmEC2IRA16_KcmTnNSt9enable_ifIXaaclsr5_PCCPE22_MoveConstructiblePairIT_T0_EEclsr5_PCCPE30_ImplicitlyMoveConvertiblePairISD_SE_EEEbE4typeELb1EEEOSD_OSE_ = comdat any

$_ZNSt16allocator_traitsISaI9TreeClassEE9constructIS0_JRA14_KcN4llvh9StringRefEEEEvRS1_PT_DpOT0_ = comdat any

$_ZNSt6vectorI9TreeClassSaIS0_EE17_M_realloc_insertIJRA14_KcN4llvh9StringRefEEEEvN9__gnu_cxx17__normal_iteratorIPS0_S2_EEDpOT_ = comdat any

$_ZNSt15__new_allocatorI9TreeClassE9constructIS0_JRA14_KcN4llvh9StringRefEEEEvPT_DpOT0_ = comdat any

$_ZNSt16allocator_traitsISaI5FieldEE9constructIS0_J9FieldTypeRA13_KcbEEEvRS1_PT_DpOT0_ = comdat any

$_ZNSt6vectorI5FieldSaIS0_EE17_M_realloc_insertIJ9FieldTypeRA13_KcbEEEvN9__gnu_cxx17__normal_iteratorIPS0_S2_EEDpOT_ = comdat any

$_ZNSt15__new_allocatorI5FieldE9constructIS0_J9FieldTypeRA13_KcbEEEvPT_DpOT0_ = comdat any

$_ZNSt16allocator_traitsISaI5FieldEE9constructIS0_J9FieldTypeRA8_KcbEEEvRS1_PT_DpOT0_ = comdat any

$_ZNSt6vectorI5FieldSaIS0_EE17_M_realloc_insertIJ9FieldTypeRA8_KcbEEEvN9__gnu_cxx17__normal_iteratorIPS0_S2_EEDpOT_ = comdat any

$_ZNSt15__new_allocatorI5FieldE9constructIS0_J9FieldTypeRA8_KcbEEEvPT_DpOT0_ = comdat any

$_ZNSt16allocator_traitsISaI9TreeClassEE9constructIS0_JRA12_KcN4llvh9StringRefEEEEvRS1_PT_DpOT0_ = comdat any

$_ZNSt6vectorI9TreeClassSaIS0_EE17_M_realloc_insertIJRA12_KcN4llvh9StringRefEEEEvN9__gnu_cxx17__normal_iteratorIPS0_S2_EEDpOT_ = comdat any

$_ZNSt15__new_allocatorI9TreeClassE9constructIS0_JRA12_KcN4llvh9StringRefEEEEvPT_DpOT0_ = comdat any

$_ZNSt4pairIRA12_KcRmEC2IS2_S3_TnNSt9enable_ifIXaaclsr5_PCCPE18_ConstructiblePairIT_T0_EEclsr5_PCCPE26_ImplicitlyConvertiblePairIS7_S8_EEEbE4typeELb1EEES2_S3_ = comdat any

$_ZSt3getILm0ERA12_KcRmEONSt13tuple_elementIXT_ESt4pairIT0_T1_EE4typeEOS8_ = comdat any

$_ZSt3getILm1ERA12_KcRmEONSt13tuple_elementIXT_ESt4pairIT0_T1_EE4typeEOS8_ = comdat any

$_ZNSt8_Rb_treeINSt7__cxx1112basic_stringIcSt11char_traitsIcESaIcEEESt4pairIKS5_mESt10_Select1stIS8_ESt4lessIS5_ESaIS8_EE17_M_emplace_uniqueIJRA12_KcmEEES6_ISt17_Rb_tree_iteratorIS8_EbEDpOT_ = comdat any

$_ZNSt10__pair_getILm0EE10__move_getIRA12_KcRmEEOT_OSt4pairIS6_T0_E = comdat any

$_ZNSt10__pair_getILm1EE10__move_getIRA12_KcRmEEOT0_OSt4pairIT_S6_E = comdat any

$_ZNSt8_Rb_treeINSt7__cxx1112basic_stringIcSt11char_traitsIcESaIcEEESt4pairIKS5_mESt10_Select1stIS8_ESt4lessIS5_ESaIS8_EE10_Auto_nodeC2IJRA12_KcmEEERSE_DpOT_ = comdat any

$_ZNSt8_Rb_treeINSt7__cxx1112basic_stringIcSt11char_traitsIcESaIcEEESt4pairIKS5_mESt10_Select1stIS8_ESt4lessIS5_ESaIS8_EE14_M_create_nodeIJRA12_KcmEEEPSt13_Rb_tree_nodeIS8_EDpOT_ = comdat any

$_ZNSt8_Rb_treeINSt7__cxx1112basic_stringIcSt11char_traitsIcESaIcEEESt4pairIKS5_mESt10_Select1stIS8_ESt4lessIS5_ESaIS8_EE17_M_construct_nodeIJRA12_KcmEEEvPSt13_Rb_tree_nodeIS8_EDpOT_ = comdat any

$_ZNSt16allocator_traitsISaISt13_Rb_tree_nodeISt4pairIKNSt7__cxx1112basic_stringIcSt11char_traitsIcESaIcEEEmEEEE9constructIS9_JRA12_KcmEEEvRSB_PT_DpOT0_ = comdat any

$_ZNSt15__new_allocatorISt13_Rb_tree_nodeISt4pairIKNSt7__cxx1112basic_stringIcSt11char_traitsIcESaIcEEEmEEE9constructIS9_JRA12_KcmEEEvPT_DpOT0_ = comdat any

$_ZNSt4pairIKNSt7__cxx1112basic_stringIcSt11char_traitsIcESaIcEEEmEC2IRA12_KcmTnNSt9enable_ifIXaaclsr5_PCCPE22_MoveConstructiblePairIT_T0_EEclsr5_PCCPE30_ImplicitlyMoveConvertiblePairISD_SE_EEEbE4typeELb1EEEOSD_OSE_ = comdat any

$_ZNSt16allocator_traitsISaI9TreeClassEE9constructIS0_JRA10_KcRA1_S4_12SentinelTypeEEEvRS1_PT_DpOT0_ = comdat any

$_ZNSt6vectorI9TreeClassSaIS0_EE17_M_realloc_insertIJRA10_KcRA1_S4_12SentinelTypeEEEvN9__gnu_cxx17__normal_iteratorIPS0_S2_EEDpOT_ = comdat any

$_ZNSt15__new_allocatorI9TreeClassE9constructIS0_JRA10_KcRA1_S3_12SentinelTypeEEEvPT_DpOT0_ = comdat any

$_ZNSt16allocator_traitsISaI5FieldEE9constructIS0_J9FieldTypeRA14_KcbEEEvRS1_PT_DpOT0_ = comdat any

$_ZNSt6vectorI5FieldSaIS0_EE17_M_realloc_insertIJ9FieldTypeRA14_KcbEEEvN9__gnu_cxx17__normal_iteratorIPS0_S2_EEDpOT_ = comdat any

$_ZNSt15__new_allocatorI5FieldE9constructIS0_J9FieldTypeRA14_KcbEEEvPT_DpOT0_ = comdat any

$_ZNSt16allocator_traitsISaI9TreeClassEE9constructIS0_JRA19_KcN4llvh9StringRefE12SentinelTypeEEEvRS1_PT_DpOT0_ = comdat any

$_ZNSt6vectorI9TreeClassSaIS0_EE17_M_realloc_insertIJRA19_KcN4llvh9StringRefE12SentinelTypeEEEvN9__gnu_cxx17__normal_iteratorIPS0_S2_EEDpOT_ = comdat any

$_ZNSt15__new_allocatorI9TreeClassE9constructIS0_JRA19_KcN4llvh9StringRefE12SentinelTypeEEEvPT_DpOT0_ = comdat any

$_ZNSt16allocator_traitsISaI9TreeClassEE9constructIS0_JRA23_KcN4llvh9StringRefEEEEvRS1_PT_DpOT0_ = comdat any

$_ZNSt6vectorI9TreeClassSaIS0_EE17_M_realloc_insertIJRA23_KcN4llvh9StringRefEEEEvN9__gnu_cxx17__normal_iteratorIPS0_S2_EEDpOT_ = comdat any

$_ZNSt15__new_allocatorI9TreeClassE9constructIS0_JRA23_KcN4llvh9StringRefEEEEvPT_DpOT0_ = comdat any

$_ZNSt4pairIRA23_KcRmEC2IS2_S3_TnNSt9enable_ifIXaaclsr5_PCCPE18_ConstructiblePairIT_T0_EEclsr5_PCCPE26_ImplicitlyConvertiblePairIS7_S8_EEEbE4typeELb1EEES2_S3_ = comdat any

$_ZSt3getILm0ERA23_KcRmEONSt13tuple_elementIXT_ESt4pairIT0_T1_EE4typeEOS8_ = comdat any

$_ZSt3getILm1ERA23_KcRmEONSt13tuple_elementIXT_ESt4pairIT0_T1_EE4typeEOS8_ = comdat any

$_ZNSt8_Rb_treeINSt7__cxx1112basic_stringIcSt11char_traitsIcESaIcEEESt4pairIKS5_mESt10_Select1stIS8_ESt4lessIS5_ESaIS8_EE17_M_emplace_uniqueIJRA23_KcmEEES6_ISt17_Rb_tree_iteratorIS8_EbEDpOT_ = comdat any

$_ZNSt10__pair_getILm0EE10__move_getIRA23_KcRmEEOT_OSt4pairIS6_T0_E = comdat any

$_ZNSt10__pair_getILm1EE10__move_getIRA23_KcRmEEOT0_OSt4pairIT_S6_E = comdat any

$_ZNSt8_Rb_treeINSt7__cxx1112basic_stringIcSt11char_traitsIcESaIcEEESt4pairIKS5_mESt10_Select1stIS8_ESt4lessIS5_ESaIS8_EE10_Auto_nodeC2IJRA23_KcmEEERSE_DpOT_ = comdat any

$_ZNSt8_Rb_treeINSt7__cxx1112basic_stringIcSt11char_traitsIcESaIcEEESt4pairIKS5_mESt10_Select1stIS8_ESt4lessIS5_ESaIS8_EE14_M_create_nodeIJRA23_KcmEEEPSt13_Rb_tree_nodeIS8_EDpOT_ = comdat any

$_ZNSt8_Rb_treeINSt7__cxx1112basic_stringIcSt11char_traitsIcESaIcEEESt4pairIKS5_mESt10_Select1stIS8_ESt4lessIS5_ESaIS8_EE17_M_construct_nodeIJRA23_KcmEEEvPSt13_Rb_tree_nodeIS8_EDpOT_ = comdat any

$_ZNSt16allocator_traitsISaISt13_Rb_tree_nodeISt4pairIKNSt7__cxx1112basic_stringIcSt11char_traitsIcESaIcEEEmEEEE9constructIS9_JRA23_KcmEEEvRSB_PT_DpOT0_ = comdat any

$_ZNSt15__new_allocatorISt13_Rb_tree_nodeISt4pairIKNSt7__cxx1112basic_stringIcSt11char_traitsIcESaIcEEEmEEE9constructIS9_JRA23_KcmEEEvPT_DpOT0_ = comdat any

$_ZNSt4pairIKNSt7__cxx1112basic_stringIcSt11char_traitsIcESaIcEEEmEC2IRA23_KcmTnNSt9enable_ifIXaaclsr5_PCCPE22_MoveConstructiblePairIT_T0_EEclsr5_PCCPE30_ImplicitlyMoveConvertiblePairISD_SE_EEEbE4typeELb1EEEOSD_OSE_ = comdat any

$_ZNSt16allocator_traitsISaI9TreeClassEE9constructIS0_JRA19_KcRA1_S4_12SentinelTypeEEEvRS1_PT_DpOT0_ = comdat any

$_ZNSt6vectorI9TreeClassSaIS0_EE17_M_realloc_insertIJRA19_KcRA1_S4_12SentinelTypeEEEvN9__gnu_cxx17__normal_iteratorIPS0_S2_EEDpOT_ = comdat any

$_ZNSt15__new_allocatorI9TreeClassE9constructIS0_JRA19_KcRA1_S3_12SentinelTypeEEEvPT_DpOT0_ = comdat any

$_ZNSt16allocator_traitsISaI9TreeClassEE9constructIS0_JRA21_KcN4llvh9StringRefE12SentinelTypeEEEvRS1_PT_DpOT0_ = comdat any

$_ZNSt6vectorI9TreeClassSaIS0_EE17_M_realloc_insertIJRA21_KcN4llvh9StringRefE12SentinelTypeEEEvN9__gnu_cxx17__normal_iteratorIPS0_S2_EEDpOT_ = comdat any

$_ZNSt15__new_allocatorI9TreeClassE9constructIS0_JRA21_KcN4llvh9StringRefE12SentinelTypeEEEvPT_DpOT0_ = comdat any

$_ZNSt16allocator_traitsISaI9TreeClassEE9constructIS0_JRA25_KcN4llvh9StringRefEEEEvRS1_PT_DpOT0_ = comdat any

$_ZNSt6vectorI9TreeClassSaIS0_EE17_M_realloc_insertIJRA25_KcN4llvh9StringRefEEEEvN9__gnu_cxx17__normal_iteratorIPS0_S2_EEDpOT_ = comdat any

$_ZNSt15__new_allocatorI9TreeClassE9constructIS0_JRA25_KcN4llvh9StringRefEEEEvPT_DpOT0_ = comdat any

$_ZNSt4pairIRA25_KcRmEC2IS2_S3_TnNSt9enable_ifIXaaclsr5_PCCPE18_ConstructiblePairIT_T0_EEclsr5_PCCPE26_ImplicitlyConvertiblePairIS7_S8_EEEbE4typeELb1EEES2_S3_ = comdat any

$_ZSt3getILm0ERA25_KcRmEONSt13tuple_elementIXT_ESt4pairIT0_T1_EE4typeEOS8_ = comdat any

$_ZSt3getILm1ERA25_KcRmEONSt13tuple_elementIXT_ESt4pairIT0_T1_EE4typeEOS8_ = comdat any

$_ZNSt8_Rb_treeINSt7__cxx1112basic_stringIcSt11char_traitsIcESaIcEEESt4pairIKS5_mESt10_Select1stIS8_ESt4lessIS5_ESaIS8_EE17_M_emplace_uniqueIJRA25_KcmEEES6_ISt17_Rb_tree_iteratorIS8_EbEDpOT_ = comdat any

$_ZNSt10__pair_getILm0EE10__move_getIRA25_KcRmEEOT_OSt4pairIS6_T0_E = comdat any

$_ZNSt10__pair_getILm1EE10__move_getIRA25_KcRmEEOT0_OSt4pairIT_S6_E = comdat any

$_ZNSt8_Rb_treeINSt7__cxx1112basic_stringIcSt11char_traitsIcESaIcEEESt4pairIKS5_mESt10_Select1stIS8_ESt4lessIS5_ESaIS8_EE10_Auto_nodeC2IJRA25_KcmEEERSE_DpOT_ = comdat any

$_ZNSt8_Rb_treeINSt7__cxx1112basic_stringIcSt11char_traitsIcESaIcEEESt4pairIKS5_mESt10_Select1stIS8_ESt4lessIS5_ESaIS8_EE14_M_create_nodeIJRA25_KcmEEEPSt13_Rb_tree_nodeIS8_EDpOT_ = comdat any

$_ZNSt8_Rb_treeINSt7__cxx1112basic_stringIcSt11char_traitsIcESaIcEEESt4pairIKS5_mESt10_Select1stIS8_ESt4lessIS5_ESaIS8_EE17_M_construct_nodeIJRA25_KcmEEEvPSt13_Rb_tree_nodeIS8_EDpOT_ = comdat any

$_ZNSt16allocator_traitsISaISt13_Rb_tree_nodeISt4pairIKNSt7__cxx1112basic_stringIcSt11char_traitsIcESaIcEEEmEEEE9constructIS9_JRA25_KcmEEEvRSB_PT_DpOT0_ = comdat any

$_ZNSt15__new_allocatorISt13_Rb_tree_nodeISt4pairIKNSt7__cxx1112basic_stringIcSt11char_traitsIcESaIcEEEmEEE9constructIS9_JRA25_KcmEEEvPT_DpOT0_ = comdat any

$_ZNSt4pairIKNSt7__cxx1112basic_stringIcSt11char_traitsIcESaIcEEEmEC2IRA25_KcmTnNSt9enable_ifIXaaclsr5_PCCPE22_MoveConstructiblePairIT_T0_EEclsr5_PCCPE30_ImplicitlyMoveConvertiblePairISD_SE_EEEbE4typeELb1EEEOSD_OSE_ = comdat any

$_ZNSt16allocator_traitsISaI9TreeClassEE9constructIS0_JRA21_KcRA1_S4_12SentinelTypeEEEvRS1_PT_DpOT0_ = comdat any

$_ZNSt6vectorI9TreeClassSaIS0_EE17_M_realloc_insertIJRA21_KcRA1_S4_12SentinelTypeEEEvN9__gnu_cxx17__normal_iteratorIPS0_S2_EEDpOT_ = comdat any

$_ZNSt15__new_allocatorI9TreeClassE9constructIS0_JRA21_KcRA1_S3_12SentinelTypeEEEvPT_DpOT0_ = comdat any

$_ZNSt16allocator_traitsISaI9TreeClassEE9constructIS0_JRA22_KcN4llvh9StringRefEEEEvRS1_PT_DpOT0_ = comdat any

$_ZNSt6vectorI9TreeClassSaIS0_EE17_M_realloc_insertIJRA22_KcN4llvh9StringRefEEEEvN9__gnu_cxx17__normal_iteratorIPS0_S2_EEDpOT_ = comdat any

$_ZNSt15__new_allocatorI9TreeClassE9constructIS0_JRA22_KcN4llvh9StringRefEEEEvPT_DpOT0_ = comdat any

$_ZNSt4pairIRA22_KcRmEC2IS2_S3_TnNSt9enable_ifIXaaclsr5_PCCPE18_ConstructiblePairIT_T0_EEclsr5_PCCPE26_ImplicitlyConvertiblePairIS7_S8_EEEbE4typeELb1EEES2_S3_ = comdat any

$_ZSt3getILm0ERA22_KcRmEONSt13tuple_elementIXT_ESt4pairIT0_T1_EE4typeEOS8_ = comdat any

$_ZSt3getILm1ERA22_KcRmEONSt13tuple_elementIXT_ESt4pairIT0_T1_EE4typeEOS8_ = comdat any

$_ZNSt8_Rb_treeINSt7__cxx1112basic_stringIcSt11char_traitsIcESaIcEEESt4pairIKS5_mESt10_Select1stIS8_ESt4lessIS5_ESaIS8_EE17_M_emplace_uniqueIJRA22_KcmEEES6_ISt17_Rb_tree_iteratorIS8_EbEDpOT_ = comdat any

$_ZNSt10__pair_getILm0EE10__move_getIRA22_KcRmEEOT_OSt4pairIS6_T0_E = comdat any

$_ZNSt10__pair_getILm1EE10__move_getIRA22_KcRmEEOT0_OSt4pairIT_S6_E = comdat any

$_ZNSt8_Rb_treeINSt7__cxx1112basic_stringIcSt11char_traitsIcESaIcEEESt4pairIKS5_mESt10_Select1stIS8_ESt4lessIS5_ESaIS8_EE10_Auto_nodeC2IJRA22_KcmEEERSE_DpOT_ = comdat any

$_ZNSt8_Rb_treeINSt7__cxx1112basic_stringIcSt11char_traitsIcESaIcEEESt4pairIKS5_mESt10_Select1stIS8_ESt4lessIS5_ESaIS8_EE14_M_create_nodeIJRA22_KcmEEEPSt13_Rb_tree_nodeIS8_EDpOT_ = comdat any

$_ZNSt8_Rb_treeINSt7__cxx1112basic_stringIcSt11char_traitsIcESaIcEEESt4pairIKS5_mESt10_Select1stIS8_ESt4lessIS5_ESaIS8_EE17_M_construct_nodeIJRA22_KcmEEEvPSt13_Rb_tree_nodeIS8_EDpOT_ = comdat any

$_ZNSt16allocator_traitsISaISt13_Rb_tree_nodeISt4pairIKNSt7__cxx1112basic_stringIcSt11char_traitsIcESaIcEEEmEEEE9constructIS9_JRA22_KcmEEEvRSB_PT_DpOT0_ = comdat any

$_ZNSt15__new_allocatorISt13_Rb_tree_nodeISt4pairIKNSt7__cxx1112basic_stringIcSt11char_traitsIcESaIcEEEmEEE9constructIS9_JRA22_KcmEEEvPT_DpOT0_ = comdat any

$_ZNSt4pairIKNSt7__cxx1112basic_stringIcSt11char_traitsIcESaIcEEEmEC2IRA22_KcmTnNSt9enable_ifIXaaclsr5_PCCPE22_MoveConstructiblePairIT_T0_EEclsr5_PCCPE30_ImplicitlyMoveConvertiblePairISD_SE_EEEbE4typeELb1EEEOSD_OSE_ = comdat any

$_ZNSt16allocator_traitsISaI9TreeClassEE9constructIS0_JRA10_KcN4llvh9StringRefEEEEvRS1_PT_DpOT0_ = comdat any

$_ZNSt6vectorI9TreeClassSaIS0_EE17_M_realloc_insertIJRA10_KcN4llvh9StringRefEEEEvN9__gnu_cxx17__normal_iteratorIPS0_S2_EEDpOT_ = comdat any

$_ZNSt15__new_allocatorI9TreeClassE9constructIS0_JRA10_KcN4llvh9StringRefEEEEvPT_DpOT0_ = comdat any

$_ZNSt16allocator_traitsISaI9TreeClassEE9constructIS0_JRA11_KcN4llvh9StringRefEEEEvRS1_PT_DpOT0_ = comdat any

$_ZNSt6vectorI9TreeClassSaIS0_EE17_M_realloc_insertIJRA11_KcN4llvh9StringRefEEEEvN9__gnu_cxx17__normal_iteratorIPS0_S2_EEDpOT_ = comdat any

$_ZNSt15__new_allocatorI9TreeClassE9constructIS0_JRA11_KcN4llvh9StringRefEEEEvPT_DpOT0_ = comdat any

$_ZNSt4pairIRA11_KcRmEC2IS2_S3_TnNSt9enable_ifIXaaclsr5_PCCPE18_ConstructiblePairIT_T0_EEclsr5_PCCPE26_ImplicitlyConvertiblePairIS7_S8_EEEbE4typeELb1EEES2_S3_ = comdat any

$_ZSt3getILm0ERA11_KcRmEONSt13tuple_elementIXT_ESt4pairIT0_T1_EE4typeEOS8_ = comdat any

$_ZSt3getILm1ERA11_KcRmEONSt13tuple_elementIXT_ESt4pairIT0_T1_EE4typeEOS8_ = comdat any

$_ZNSt8_Rb_treeINSt7__cxx1112basic_stringIcSt11char_traitsIcESaIcEEESt4pairIKS5_mESt10_Select1stIS8_ESt4lessIS5_ESaIS8_EE17_M_emplace_uniqueIJRA11_KcmEEES6_ISt17_Rb_tree_iteratorIS8_EbEDpOT_ = comdat any

$_ZNSt10__pair_getILm0EE10__move_getIRA11_KcRmEEOT_OSt4pairIS6_T0_E = comdat any

$_ZNSt10__pair_getILm1EE10__move_getIRA11_KcRmEEOT0_OSt4pairIT_S6_E = comdat any

$_ZNSt8_Rb_treeINSt7__cxx1112basic_stringIcSt11char_traitsIcESaIcEEESt4pairIKS5_mESt10_Select1stIS8_ESt4lessIS5_ESaIS8_EE10_Auto_nodeC2IJRA11_KcmEEERSE_DpOT_ = comdat any

$_ZNSt8_Rb_treeINSt7__cxx1112basic_stringIcSt11char_traitsIcESaIcEEESt4pairIKS5_mESt10_Select1stIS8_ESt4lessIS5_ESaIS8_EE14_M_create_nodeIJRA11_KcmEEEPSt13_Rb_tree_nodeIS8_EDpOT_ = comdat any

$_ZNSt8_Rb_treeINSt7__cxx1112basic_stringIcSt11char_traitsIcESaIcEEESt4pairIKS5_mESt10_Select1stIS8_ESt4lessIS5_ESaIS8_EE17_M_construct_nodeIJRA11_KcmEEEvPSt13_Rb_tree_nodeIS8_EDpOT_ = comdat any

$_ZNSt16allocator_traitsISaISt13_Rb_tree_nodeISt4pairIKNSt7__cxx1112basic_stringIcSt11char_traitsIcESaIcEEEmEEEE9constructIS9_JRA11_KcmEEEvRSB_PT_DpOT0_ = comdat any

$_ZNSt15__new_allocatorISt13_Rb_tree_nodeISt4pairIKNSt7__cxx1112basic_stringIcSt11char_traitsIcESaIcEEEmEEE9constructIS9_JRA11_KcmEEEvPT_DpOT0_ = comdat any

$_ZNSt4pairIKNSt7__cxx1112basic_stringIcSt11char_traitsIcESaIcEEEmEC2IRA11_KcmTnNSt9enable_ifIXaaclsr5_PCCPE22_MoveConstructiblePairIT_T0_EEclsr5_PCCPE30_ImplicitlyMoveConvertiblePairISD_SE_EEEbE4typeELb1EEEOSD_OSE_ = comdat any

$_ZNSt16allocator_traitsISaI5FieldEE9constructIS0_J9FieldTypeRA4_KcbEEEvRS1_PT_DpOT0_ = comdat any

$_ZNSt6vectorI5FieldSaIS0_EE17_M_realloc_insertIJ9FieldTypeRA4_KcbEEEvN9__gnu_cxx17__normal_iteratorIPS0_S2_EEDpOT_ = comdat any

$_ZNSt15__new_allocatorI5FieldE9constructIS0_J9FieldTypeRA4_KcbEEEvPT_DpOT0_ = comdat any

$_ZNSt16allocator_traitsISaI5FieldEE9constructIS0_J9FieldTypeRA20_KcbEEEvRS1_PT_DpOT0_ = comdat any

$_ZNSt6vectorI5FieldSaIS0_EE17_M_realloc_insertIJ9FieldTypeRA20_KcbEEEvN9__gnu_cxx17__normal_iteratorIPS0_S2_EEDpOT_ = comdat any

$_ZNSt15__new_allocatorI5FieldE9constructIS0_J9FieldTypeRA20_KcbEEEvPT_DpOT0_ = comdat any

$_ZNSt16allocator_traitsISaI9TreeClassEE9constructIS0_JRA8_KcN4llvh9StringRefE12SentinelTypeEEEvRS1_PT_DpOT0_ = comdat any

$_ZNSt6vectorI9TreeClassSaIS0_EE17_M_realloc_insertIJRA8_KcN4llvh9StringRefE12SentinelTypeEEEvN9__gnu_cxx17__normal_iteratorIPS0_S2_EEDpOT_ = comdat any

$_ZNSt15__new_allocatorI9TreeClassE9constructIS0_JRA8_KcN4llvh9StringRefE12SentinelTypeEEEvPT_DpOT0_ = comdat any

$_ZNSt16allocator_traitsISaI9TreeClassEE9constructIS0_JRA8_KcRA1_S4_12SentinelTypeEEEvRS1_PT_DpOT0_ = comdat any

$_ZNSt6vectorI9TreeClassSaIS0_EE17_M_realloc_insertIJRA8_KcRA1_S4_12SentinelTypeEEEvN9__gnu_cxx17__normal_iteratorIPS0_S2_EEDpOT_ = comdat any

$_ZNSt15__new_allocatorI9TreeClassE9constructIS0_JRA8_KcRA1_S3_12SentinelTypeEEEvPT_DpOT0_ = comdat any

$_ZNSt16allocator_traitsISaI9TreeClassEE9constructIS0_JRA4_KcN4llvh9StringRefE12SentinelTypeEEEvRS1_PT_DpOT0_ = comdat any

$_ZNSt6vectorI9TreeClassSaIS0_EE17_M_realloc_insertIJRA4_KcN4llvh9StringRefE12SentinelTypeEEEvN9__gnu_cxx17__normal_iteratorIPS0_S2_EEDpOT_ = comdat any

$_ZNSt15__new_allocatorI9TreeClassE9constructIS0_JRA4_KcN4llvh9StringRefE12SentinelTypeEEEvPT_DpOT0_ = comdat any

$_ZNSt4pairIRA4_KcRmEC2IS2_S3_TnNSt9enable_ifIXaaclsr5_PCCPE18_ConstructiblePairIT_T0_EEclsr5_PCCPE26_ImplicitlyConvertiblePairIS7_S8_EEEbE4typeELb1EEES2_S3_ = comdat any

$_ZSt3getILm0ERA4_KcRmEONSt13tuple_elementIXT_ESt4pairIT0_T1_EE4typeEOS8_ = comdat any

$_ZSt3getILm1ERA4_KcRmEONSt13tuple_elementIXT_ESt4pairIT0_T1_EE4typeEOS8_ = comdat any

$_ZNSt8_Rb_treeINSt7__cxx1112basic_stringIcSt11char_traitsIcESaIcEEESt4pairIKS5_mESt10_Select1stIS8_ESt4lessIS5_ESaIS8_EE17_M_emplace_uniqueIJRA4_KcmEEES6_ISt17_Rb_tree_iteratorIS8_EbEDpOT_ = comdat any

$_ZNSt10__pair_getILm0EE10__move_getIRA4_KcRmEEOT_OSt4pairIS6_T0_E = comdat any

$_ZNSt10__pair_getILm1EE10__move_getIRA4_KcRmEEOT0_OSt4pairIT_S6_E = comdat any

$_ZNSt8_Rb_treeINSt7__cxx1112basic_stringIcSt11char_traitsIcESaIcEEESt4pairIKS5_mESt10_Select1stIS8_ESt4lessIS5_ESaIS8_EE10_Auto_nodeC2IJRA4_KcmEEERSE_DpOT_ = comdat any

$_ZNSt8_Rb_treeINSt7__cxx1112basic_stringIcSt11char_traitsIcESaIcEEESt4pairIKS5_mESt10_Select1stIS8_ESt4lessIS5_ESaIS8_EE14_M_create_nodeIJRA4_KcmEEEPSt13_Rb_tree_nodeIS8_EDpOT_ = comdat any

$_ZNSt8_Rb_treeINSt7__cxx1112basic_stringIcSt11char_traitsIcESaIcEEESt4pairIKS5_mESt10_Select1stIS8_ESt4lessIS5_ESaIS8_EE17_M_construct_nodeIJRA4_KcmEEEvPSt13_Rb_tree_nodeIS8_EDpOT_ = comdat any

$_ZNSt16allocator_traitsISaISt13_Rb_tree_nodeISt4pairIKNSt7__cxx1112basic_stringIcSt11char_traitsIcESaIcEEEmEEEE9constructIS9_JRA4_KcmEEEvRSB_PT_DpOT0_ = comdat any

$_ZNSt15__new_allocatorISt13_Rb_tree_nodeISt4pairIKNSt7__cxx1112basic_stringIcSt11char_traitsIcESaIcEEEmEEE9constructIS9_JRA4_KcmEEEvPT_DpOT0_ = comdat any

$_ZNSt4pairIKNSt7__cxx1112basic_stringIcSt11char_traitsIcESaIcEEEmEC2IRA4_KcmTnNSt9enable_ifIXaaclsr5_PCCPE22_MoveConstructiblePairIT_T0_EEclsr5_PCCPE30_ImplicitlyMoveConvertiblePairISD_SE_EEEbE4typeELb1EEEOSD_OSE_ = comdat any

$_ZNSt16allocator_traitsISaI5FieldEE9constructIS0_J9FieldTypeRA16_KcbEEEvRS1_PT_DpOT0_ = comdat any

$_ZNSt6vectorI5FieldSaIS0_EE17_M_realloc_insertIJ9FieldTypeRA16_KcbEEEvN9__gnu_cxx17__normal_iteratorIPS0_S2_EEDpOT_ = comdat any

$_ZNSt15__new_allocatorI5FieldE9constructIS0_J9FieldTypeRA16_KcbEEEvPT_DpOT0_ = comdat any

$_ZNSt16allocator_traitsISaI9TreeClassEE9constructIS0_JRA4_KcRA1_S4_12SentinelTypeEEEvRS1_PT_DpOT0_ = comdat any

$_ZNSt6vectorI9TreeClassSaIS0_EE17_M_realloc_insertIJRA4_KcRA1_S4_12SentinelTypeEEEvN9__gnu_cxx17__normal_iteratorIPS0_S2_EEDpOT_ = comdat any

$_ZNSt15__new_allocatorI9TreeClassE9constructIS0_JRA4_KcRA1_S3_12SentinelTypeEEEvPT_DpOT0_ = comdat any

$_ZNSt16allocator_traitsISaI9TreeClassEE9constructIS0_JRA5_KcN4llvh9StringRefE12SentinelTypeEEEvRS1_PT_DpOT0_ = comdat any

$_ZNSt6vectorI9TreeClassSaIS0_EE17_M_realloc_insertIJRA5_KcN4llvh9StringRefE12SentinelTypeEEEvN9__gnu_cxx17__normal_iteratorIPS0_S2_EEDpOT_ = comdat any

$_ZNSt15__new_allocatorI9TreeClassE9constructIS0_JRA5_KcN4llvh9StringRefE12SentinelTypeEEEvPT_DpOT0_ = comdat any

$_ZNSt4pairIRA5_KcRmEC2IS2_S3_TnNSt9enable_ifIXaaclsr5_PCCPE18_ConstructiblePairIT_T0_EEclsr5_PCCPE26_ImplicitlyConvertiblePairIS7_S8_EEEbE4typeELb1EEES2_S3_ = comdat any

$_ZSt3getILm0ERA5_KcRmEONSt13tuple_elementIXT_ESt4pairIT0_T1_EE4typeEOS8_ = comdat any

$_ZSt3getILm1ERA5_KcRmEONSt13tuple_elementIXT_ESt4pairIT0_T1_EE4typeEOS8_ = comdat any

$_ZNSt8_Rb_treeINSt7__cxx1112basic_stringIcSt11char_traitsIcESaIcEEESt4pairIKS5_mESt10_Select1stIS8_ESt4lessIS5_ESaIS8_EE17_M_emplace_uniqueIJRA5_KcmEEES6_ISt17_Rb_tree_iteratorIS8_EbEDpOT_ = comdat any

$_ZNSt10__pair_getILm0EE10__move_getIRA5_KcRmEEOT_OSt4pairIS6_T0_E = comdat any

$_ZNSt10__pair_getILm1EE10__move_getIRA5_KcRmEEOT0_OSt4pairIT_S6_E = comdat any

$_ZNSt8_Rb_treeINSt7__cxx1112basic_stringIcSt11char_traitsIcESaIcEEESt4pairIKS5_mESt10_Select1stIS8_ESt4lessIS5_ESaIS8_EE10_Auto_nodeC2IJRA5_KcmEEERSE_DpOT_ = comdat any

$_ZNSt8_Rb_treeINSt7__cxx1112basic_stringIcSt11char_traitsIcESaIcEEESt4pairIKS5_mESt10_Select1stIS8_ESt4lessIS5_ESaIS8_EE14_M_create_nodeIJRA5_KcmEEEPSt13_Rb_tree_nodeIS8_EDpOT_ = comdat any

$_ZNSt8_Rb_treeINSt7__cxx1112basic_stringIcSt11char_traitsIcESaIcEEESt4pairIKS5_mESt10_Select1stIS8_ESt4lessIS5_ESaIS8_EE17_M_construct_nodeIJRA5_KcmEEEvPSt13_Rb_tree_nodeIS8_EDpOT_ = comdat any

$_ZNSt16allocator_traitsISaISt13_Rb_tree_nodeISt4pairIKNSt7__cxx1112basic_stringIcSt11char_traitsIcESaIcEEEmEEEE9constructIS9_JRA5_KcmEEEvRSB_PT_DpOT0_ = comdat any

$_ZNSt15__new_allocatorISt13_Rb_tree_nodeISt4pairIKNSt7__cxx1112basic_stringIcSt11char_traitsIcESaIcEEEmEEE9constructIS9_JRA5_KcmEEEvPT_DpOT0_ = comdat any

$_ZNSt4pairIKNSt7__cxx1112basic_stringIcSt11char_traitsIcESaIcEEEmEC2IRA5_KcmTnNSt9enable_ifIXaaclsr5_PCCPE22_MoveConstructiblePairIT_T0_EEclsr5_PCCPE30_ImplicitlyMoveConvertiblePairISD_SE_EEEbE4typeELb1EEEOSD_OSE_ = comdat any

$_ZNSt16allocator_traitsISaI9TreeClassEE9constructIS0_JRA28_KcN4llvh9StringRefEEEEvRS1_PT_DpOT0_ = comdat any

$_ZNSt6vectorI9TreeClassSaIS0_EE17_M_realloc_insertIJRA28_KcN4llvh9StringRefEEEEvN9__gnu_cxx17__normal_iteratorIPS0_S2_EEDpOT_ = comdat any

$_ZNSt15__new_allocatorI9TreeClassE9constructIS0_JRA28_KcN4llvh9StringRefEEEEvPT_DpOT0_ = comdat any

$_ZNSt4pairIRA28_KcRmEC2IS2_S3_TnNSt9enable_ifIXaaclsr5_PCCPE18_ConstructiblePairIT_T0_EEclsr5_PCCPE26_ImplicitlyConvertiblePairIS7_S8_EEEbE4typeELb1EEES2_S3_ = comdat any

$_ZSt3getILm0ERA28_KcRmEONSt13tuple_elementIXT_ESt4pairIT0_T1_EE4typeEOS8_ = comdat any

$_ZSt3getILm1ERA28_KcRmEONSt13tuple_elementIXT_ESt4pairIT0_T1_EE4typeEOS8_ = comdat any

$_ZNSt8_Rb_treeINSt7__cxx1112basic_stringIcSt11char_traitsIcESaIcEEESt4pairIKS5_mESt10_Select1stIS8_ESt4lessIS5_ESaIS8_EE17_M_emplace_uniqueIJRA28_KcmEEES6_ISt17_Rb_tree_iteratorIS8_EbEDpOT_ = comdat any

$_ZNSt10__pair_getILm0EE10__move_getIRA28_KcRmEEOT_OSt4pairIS6_T0_E = comdat any

$_ZNSt10__pair_getILm1EE10__move_getIRA28_KcRmEEOT0_OSt4pairIT_S6_E = comdat any

$_ZNSt8_Rb_treeINSt7__cxx1112basic_stringIcSt11char_traitsIcESaIcEEESt4pairIKS5_mESt10_Select1stIS8_ESt4lessIS5_ESaIS8_EE10_Auto_nodeC2IJRA28_KcmEEERSE_DpOT_ = comdat any

$_ZNSt8_Rb_treeINSt7__cxx1112basic_stringIcSt11char_traitsIcESaIcEEESt4pairIKS5_mESt10_Select1stIS8_ESt4lessIS5_ESaIS8_EE14_M_create_nodeIJRA28_KcmEEEPSt13_Rb_tree_nodeIS8_EDpOT_ = comdat any

$_ZNSt8_Rb_treeINSt7__cxx1112basic_stringIcSt11char_traitsIcESaIcEEESt4pairIKS5_mESt10_Select1stIS8_ESt4lessIS5_ESaIS8_EE17_M_construct_nodeIJRA28_KcmEEEvPSt13_Rb_tree_nodeIS8_EDpOT_ = comdat any

$_ZNSt16allocator_traitsISaISt13_Rb_tree_nodeISt4pairIKNSt7__cxx1112basic_stringIcSt11char_traitsIcESaIcEEEmEEEE9constructIS9_JRA28_KcmEEEvRSB_PT_DpOT0_ = comdat any

$_ZNSt15__new_allocatorISt13_Rb_tree_nodeISt4pairIKNSt7__cxx1112basic_stringIcSt11char_traitsIcESaIcEEEmEEE9constructIS9_JRA28_KcmEEEvPT_DpOT0_ = comdat any

$_ZNSt4pairIKNSt7__cxx1112basic_stringIcSt11char_traitsIcESaIcEEEmEC2IRA28_KcmTnNSt9enable_ifIXaaclsr5_PCCPE22_MoveConstructiblePairIT_T0_EEclsr5_PCCPE30_ImplicitlyMoveConvertiblePairISD_SE_EEEbE4typeELb1EEEOSD_OSE_ = comdat any

$_ZNSt16allocator_traitsISaI9TreeClassEE9constructIS0_JRA29_KcN4llvh9StringRefEEEEvRS1_PT_DpOT0_ = comdat any

$_ZNSt6vectorI9TreeClassSaIS0_EE17_M_realloc_insertIJRA29_KcN4llvh9StringRefEEEEvN9__gnu_cxx17__normal_iteratorIPS0_S2_EEDpOT_ = comdat any

$_ZNSt15__new_allocatorI9TreeClassE9constructIS0_JRA29_KcN4llvh9StringRefEEEEvPT_DpOT0_ = comdat any

$_ZNSt4pairIRA29_KcRmEC2IS2_S3_TnNSt9enable_ifIXaaclsr5_PCCPE18_ConstructiblePairIT_T0_EEclsr5_PCCPE26_ImplicitlyConvertiblePairIS7_S8_EEEbE4typeELb1EEES2_S3_ = comdat any

$_ZSt3getILm0ERA29_KcRmEONSt13tuple_elementIXT_ESt4pairIT0_T1_EE4typeEOS8_ = comdat any

$_ZSt3getILm1ERA29_KcRmEONSt13tuple_elementIXT_ESt4pairIT0_T1_EE4typeEOS8_ = comdat any

$_ZNSt8_Rb_treeINSt7__cxx1112basic_stringIcSt11char_traitsIcESaIcEEESt4pairIKS5_mESt10_Select1stIS8_ESt4lessIS5_ESaIS8_EE17_M_emplace_uniqueIJRA29_KcmEEES6_ISt17_Rb_tree_iteratorIS8_EbEDpOT_ = comdat any

$_ZNSt10__pair_getILm0EE10__move_getIRA29_KcRmEEOT_OSt4pairIS6_T0_E = comdat any

$_ZNSt10__pair_getILm1EE10__move_getIRA29_KcRmEEOT0_OSt4pairIT_S6_E = comdat any

$_ZNSt8_Rb_treeINSt7__cxx1112basic_stringIcSt11char_traitsIcESaIcEEESt4pairIKS5_mESt10_Select1stIS8_ESt4lessIS5_ESaIS8_EE10_Auto_nodeC2IJRA29_KcmEEERSE_DpOT_ = comdat any

$_ZNSt8_Rb_treeINSt7__cxx1112basic_stringIcSt11char_traitsIcESaIcEEESt4pairIKS5_mESt10_Select1stIS8_ESt4lessIS5_ESaIS8_EE14_M_create_nodeIJRA29_KcmEEEPSt13_Rb_tree_nodeIS8_EDpOT_ = comdat any

$_ZNSt8_Rb_treeINSt7__cxx1112basic_stringIcSt11char_traitsIcESaIcEEESt4pairIKS5_mESt10_Select1stIS8_ESt4lessIS5_ESaIS8_EE17_M_construct_nodeIJRA29_KcmEEEvPSt13_Rb_tree_nodeIS8_EDpOT_ = comdat any

$_ZNSt16allocator_traitsISaISt13_Rb_tree_nodeISt4pairIKNSt7__cxx1112basic_stringIcSt11char_traitsIcESaIcEEEmEEEE9constructIS9_JRA29_KcmEEEvRSB_PT_DpOT0_ = comdat any

$_ZNSt15__new_allocatorISt13_Rb_tree_nodeISt4pairIKNSt7__cxx1112basic_stringIcSt11char_traitsIcESaIcEEEmEEE9constructIS9_JRA29_KcmEEEvPT_DpOT0_ = comdat any

$_ZNSt4pairIKNSt7__cxx1112basic_stringIcSt11char_traitsIcESaIcEEEmEC2IRA29_KcmTnNSt9enable_ifIXaaclsr5_PCCPE22_MoveConstructiblePairIT_T0_EEclsr5_PCCPE30_ImplicitlyMoveConvertiblePairISD_SE_EEEbE4typeELb1EEEOSD_OSE_ = comdat any

$_ZNSt16allocator_traitsISaI9TreeClassEE9constructIS0_JRA26_KcN4llvh9StringRefEEEEvRS1_PT_DpOT0_ = comdat any

$_ZNSt6vectorI9TreeClassSaIS0_EE17_M_realloc_insertIJRA26_KcN4llvh9StringRefEEEEvN9__gnu_cxx17__normal_iteratorIPS0_S2_EEDpOT_ = comdat any

$_ZNSt15__new_allocatorI9TreeClassE9constructIS0_JRA26_KcN4llvh9StringRefEEEEvPT_DpOT0_ = comdat any

$_ZNSt4pairIRA26_KcRmEC2IS2_S3_TnNSt9enable_ifIXaaclsr5_PCCPE18_ConstructiblePairIT_T0_EEclsr5_PCCPE26_ImplicitlyConvertiblePairIS7_S8_EEEbE4typeELb1EEES2_S3_ = comdat any

$_ZSt3getILm0ERA26_KcRmEONSt13tuple_elementIXT_ESt4pairIT0_T1_EE4typeEOS8_ = comdat any

$_ZSt3getILm1ERA26_KcRmEONSt13tuple_elementIXT_ESt4pairIT0_T1_EE4typeEOS8_ = comdat any

$_ZNSt8_Rb_treeINSt7__cxx1112basic_stringIcSt11char_traitsIcESaIcEEESt4pairIKS5_mESt10_Select1stIS8_ESt4lessIS5_ESaIS8_EE17_M_emplace_uniqueIJRA26_KcmEEES6_ISt17_Rb_tree_iteratorIS8_EbEDpOT_ = comdat any

$_ZNSt10__pair_getILm0EE10__move_getIRA26_KcRmEEOT_OSt4pairIS6_T0_E = comdat any

$_ZNSt10__pair_getILm1EE10__move_getIRA26_KcRmEEOT0_OSt4pairIT_S6_E = comdat any

$_ZNSt8_Rb_treeINSt7__cxx1112basic_stringIcSt11char_traitsIcESaIcEEESt4pairIKS5_mESt10_Select1stIS8_ESt4lessIS5_ESaIS8_EE10_Auto_nodeC2IJRA26_KcmEEERSE_DpOT_ = comdat any

$_ZNSt8_Rb_treeINSt7__cxx1112basic_stringIcSt11char_traitsIcESaIcEEESt4pairIKS5_mESt10_Select1stIS8_ESt4lessIS5_ESaIS8_EE14_M_create_nodeIJRA26_KcmEEEPSt13_Rb_tree_nodeIS8_EDpOT_ = comdat any

$_ZNSt8_Rb_treeINSt7__cxx1112basic_stringIcSt11char_traitsIcESaIcEEESt4pairIKS5_mESt10_Select1stIS8_ESt4lessIS5_ESaIS8_EE17_M_construct_nodeIJRA26_KcmEEEvPSt13_Rb_tree_nodeIS8_EDpOT_ = comdat any

$_ZNSt16allocator_traitsISaISt13_Rb_tree_nodeISt4pairIKNSt7__cxx1112basic_stringIcSt11char_traitsIcESaIcEEEmEEEE9constructIS9_JRA26_KcmEEEvRSB_PT_DpOT0_ = comdat any

$_ZNSt15__new_allocatorISt13_Rb_tree_nodeISt4pairIKNSt7__cxx1112basic_stringIcSt11char_traitsIcESaIcEEEmEEE9constructIS9_JRA26_KcmEEEvPT_DpOT0_ = comdat any

$_ZNSt4pairIKNSt7__cxx1112basic_stringIcSt11char_traitsIcESaIcEEEmEC2IRA26_KcmTnNSt9enable_ifIXaaclsr5_PCCPE22_MoveConstructiblePairIT_T0_EEclsr5_PCCPE30_ImplicitlyMoveConvertiblePairISD_SE_EEEbE4typeELb1EEEOSD_OSE_ = comdat any

$_ZNSt16allocator_traitsISaI9TreeClassEE9constructIS0_JRA27_KcN4llvh9StringRefEEEEvRS1_PT_DpOT0_ = comdat any

$_ZNSt6vectorI9TreeClassSaIS0_EE17_M_realloc_insertIJRA27_KcN4llvh9StringRefEEEEvN9__gnu_cxx17__normal_iteratorIPS0_S2_EEDpOT_ = comdat any

$_ZNSt15__new_allocatorI9TreeClassE9constructIS0_JRA27_KcN4llvh9StringRefEEEEvPT_DpOT0_ = comdat any

$_ZNSt4pairIRA27_KcRmEC2IS2_S3_TnNSt9enable_ifIXaaclsr5_PCCPE18_ConstructiblePairIT_T0_EEclsr5_PCCPE26_ImplicitlyConvertiblePairIS7_S8_EEEbE4typeELb1EEES2_S3_ = comdat any

$_ZSt3getILm0ERA27_KcRmEONSt13tuple_elementIXT_ESt4pairIT0_T1_EE4typeEOS8_ = comdat any

$_ZSt3getILm1ERA27_KcRmEONSt13tuple_elementIXT_ESt4pairIT0_T1_EE4typeEOS8_ = comdat any

$_ZNSt8_Rb_treeINSt7__cxx1112basic_stringIcSt11char_traitsIcESaIcEEESt4pairIKS5_mESt10_Select1stIS8_ESt4lessIS5_ESaIS8_EE17_M_emplace_uniqueIJRA27_KcmEEES6_ISt17_Rb_tree_iteratorIS8_EbEDpOT_ = comdat any

$_ZNSt10__pair_getILm0EE10__move_getIRA27_KcRmEEOT_OSt4pairIS6_T0_E = comdat any

$_ZNSt10__pair_getILm1EE10__move_getIRA27_KcRmEEOT0_OSt4pairIT_S6_E = comdat any

$_ZNSt8_Rb_treeINSt7__cxx1112basic_stringIcSt11char_traitsIcESaIcEEESt4pairIKS5_mESt10_Select1stIS8_ESt4lessIS5_ESaIS8_EE10_Auto_nodeC2IJRA27_KcmEEERSE_DpOT_ = comdat any

$_ZNSt8_Rb_treeINSt7__cxx1112basic_stringIcSt11char_traitsIcESaIcEEESt4pairIKS5_mESt10_Select1stIS8_ESt4lessIS5_ESaIS8_EE14_M_create_nodeIJRA27_KcmEEEPSt13_Rb_tree_nodeIS8_EDpOT_ = comdat any

$_ZNSt8_Rb_treeINSt7__cxx1112basic_stringIcSt11char_traitsIcESaIcEEESt4pairIKS5_mESt10_Select1stIS8_ESt4lessIS5_ESaIS8_EE17_M_construct_nodeIJRA27_KcmEEEvPSt13_Rb_tree_nodeIS8_EDpOT_ = comdat any

$_ZNSt16allocator_traitsISaISt13_Rb_tree_nodeISt4pairIKNSt7__cxx1112basic_stringIcSt11char_traitsIcESaIcEEEmEEEE9constructIS9_JRA27_KcmEEEvRSB_PT_DpOT0_ = comdat any

$_ZNSt15__new_allocatorISt13_Rb_tree_nodeISt4pairIKNSt7__cxx1112basic_stringIcSt11char_traitsIcESaIcEEEmEEE9constructIS9_JRA27_KcmEEEvPT_DpOT0_ = comdat any

$_ZNSt4pairIKNSt7__cxx1112basic_stringIcSt11char_traitsIcESaIcEEEmEC2IRA27_KcmTnNSt9enable_ifIXaaclsr5_PCCPE22_MoveConstructiblePairIT_T0_EEclsr5_PCCPE30_ImplicitlyMoveConvertiblePairISD_SE_EEEbE4typeELb1EEEOSD_OSE_ = comdat any

$_ZNSt16allocator_traitsISaI5FieldEE9constructIS0_J9FieldTypeRA17_KcbEEEvRS1_PT_DpOT0_ = comdat any

$_ZNSt6vectorI5FieldSaIS0_EE17_M_realloc_insertIJ9FieldTypeRA17_KcbEEEvN9__gnu_cxx17__normal_iteratorIPS0_S2_EEDpOT_ = comdat any

$_ZNSt15__new_allocatorI5FieldE9constructIS0_J9FieldTypeRA17_KcbEEEvPT_DpOT0_ = comdat any

$_ZNSt16allocator_traitsISaI5FieldEE9constructIS0_J9FieldTypeRA18_KcbEEEvRS1_PT_DpOT0_ = comdat any

$_ZNSt6vectorI5FieldSaIS0_EE17_M_realloc_insertIJ9FieldTypeRA18_KcbEEEvN9__gnu_cxx17__normal_iteratorIPS0_S2_EEDpOT_ = comdat any

$_ZNSt15__new_allocatorI5FieldE9constructIS0_J9FieldTypeRA18_KcbEEEvPT_DpOT0_ = comdat any

$_ZNSt16allocator_traitsISaI9TreeClassEE9constructIS0_JRA5_KcRA1_S4_12SentinelTypeEEEvRS1_PT_DpOT0_ = comdat any

$_ZNSt6vectorI9TreeClassSaIS0_EE17_M_realloc_insertIJRA5_KcRA1_S4_12SentinelTypeEEEvN9__gnu_cxx17__normal_iteratorIPS0_S2_EEDpOT_ = comdat any

$_ZNSt15__new_allocatorI9TreeClassE9constructIS0_JRA5_KcRA1_S3_12SentinelTypeEEEvPT_DpOT0_ = comdat any

$_ZNSt16allocator_traitsISaI9TreeClassEE9constructIS0_JRA3_KcN4llvh9StringRefE12SentinelTypeEEEvRS1_PT_DpOT0_ = comdat any

$_ZNSt6vectorI9TreeClassSaIS0_EE17_M_realloc_insertIJRA3_KcN4llvh9StringRefE12SentinelTypeEEEvN9__gnu_cxx17__normal_iteratorIPS0_S2_EEDpOT_ = comdat any

$_ZNSt15__new_allocatorI9TreeClassE9constructIS0_JRA3_KcN4llvh9StringRefE12SentinelTypeEEEvPT_DpOT0_ = comdat any

$_ZNSt4pairIRA3_KcRmEC2IS2_S3_TnNSt9enable_ifIXaaclsr5_PCCPE18_ConstructiblePairIT_T0_EEclsr5_PCCPE26_ImplicitlyConvertiblePairIS7_S8_EEEbE4typeELb1EEES2_S3_ = comdat any

$_ZSt3getILm0ERA3_KcRmEONSt13tuple_elementIXT_ESt4pairIT0_T1_EE4typeEOS8_ = comdat any

$_ZSt3getILm1ERA3_KcRmEONSt13tuple_elementIXT_ESt4pairIT0_T1_EE4typeEOS8_ = comdat any

$_ZNSt8_Rb_treeINSt7__cxx1112basic_stringIcSt11char_traitsIcESaIcEEESt4pairIKS5_mESt10_Select1stIS8_ESt4lessIS5_ESaIS8_EE17_M_emplace_uniqueIJRA3_KcmEEES6_ISt17_Rb_tree_iteratorIS8_EbEDpOT_ = comdat any

$_ZNSt10__pair_getILm0EE10__move_getIRA3_KcRmEEOT_OSt4pairIS6_T0_E = comdat any

$_ZNSt10__pair_getILm1EE10__move_getIRA3_KcRmEEOT0_OSt4pairIT_S6_E = comdat any

$_ZNSt8_Rb_treeINSt7__cxx1112basic_stringIcSt11char_traitsIcESaIcEEESt4pairIKS5_mESt10_Select1stIS8_ESt4lessIS5_ESaIS8_EE10_Auto_nodeC2IJRA3_KcmEEERSE_DpOT_ = comdat any

$_ZNSt8_Rb_treeINSt7__cxx1112basic_stringIcSt11char_traitsIcESaIcEEESt4pairIKS5_mESt10_Select1stIS8_ESt4lessIS5_ESaIS8_EE14_M_create_nodeIJRA3_KcmEEEPSt13_Rb_tree_nodeIS8_EDpOT_ = comdat any

$_ZNSt8_Rb_treeINSt7__cxx1112basic_stringIcSt11char_traitsIcESaIcEEESt4pairIKS5_mESt10_Select1stIS8_ESt4lessIS5_ESaIS8_EE17_M_construct_nodeIJRA3_KcmEEEvPSt13_Rb_tree_nodeIS8_EDpOT_ = comdat any

$_ZNSt16allocator_traitsISaISt13_Rb_tree_nodeISt4pairIKNSt7__cxx1112basic_stringIcSt11char_traitsIcESaIcEEEmEEEE9constructIS9_JRA3_KcmEEEvRSB_PT_DpOT0_ = comdat any

$_ZNSt15__new_allocatorISt13_Rb_tree_nodeISt4pairIKNSt7__cxx1112basic_stringIcSt11char_traitsIcESaIcEEEmEEE9constructIS9_JRA3_KcmEEEvPT_DpOT0_ = comdat any

$_ZNSt4pairIKNSt7__cxx1112basic_stringIcSt11char_traitsIcESaIcEEEmEC2IRA3_KcmTnNSt9enable_ifIXaaclsr5_PCCPE22_MoveConstructiblePairIT_T0_EEclsr5_PCCPE30_ImplicitlyMoveConvertiblePairISD_SE_EEEbE4typeELb1EEEOSD_OSE_ = comdat any

$_ZNSt16allocator_traitsISaI9TreeClassEE9constructIS0_JRA3_KcRA1_S4_12SentinelTypeEEEvRS1_PT_DpOT0_ = comdat any

$_ZNSt6vectorI9TreeClassSaIS0_EE17_M_realloc_insertIJRA3_KcRA1_S4_12SentinelTypeEEEvN9__gnu_cxx17__normal_iteratorIPS0_S2_EEDpOT_ = comdat any

$_ZNSt15__new_allocatorI9TreeClassE9constructIS0_JRA3_KcRA1_S3_12SentinelTypeEEEvPT_DpOT0_ = comdat any

$_ZNSt16allocator_traitsISaI9TreeClassEE9constructIS0_JRA6_KcN4llvh9StringRefE12SentinelTypeEEEvRS1_PT_DpOT0_ = comdat any

$_ZNSt6vectorI9TreeClassSaIS0_EE17_M_realloc_insertIJRA6_KcN4llvh9StringRefE12SentinelTypeEEEvN9__gnu_cxx17__normal_iteratorIPS0_S2_EEDpOT_ = comdat any

$_ZNSt15__new_allocatorI9TreeClassE9constructIS0_JRA6_KcN4llvh9StringRefE12SentinelTypeEEEvPT_DpOT0_ = comdat any

$_ZNSt16allocator_traitsISaI9TreeClassEE9constructIS0_JRA6_KcRA1_S4_12SentinelTypeEEEvRS1_PT_DpOT0_ = comdat any

$_ZNSt6vectorI9TreeClassSaIS0_EE17_M_realloc_insertIJRA6_KcRA1_S4_12SentinelTypeEEEvN9__gnu_cxx17__normal_iteratorIPS0_S2_EEDpOT_ = comdat any

$_ZNSt15__new_allocatorI9TreeClassE9constructIS0_JRA6_KcRA1_S3_12SentinelTypeEEEvPT_DpOT0_ = comdat any

$_ZN9__gnu_cxxneIP9TreeClassSt6vectorIS1_SaIS1_EEEEbRKNS_17__normal_iteratorIT_T0_EESB_ = comdat any

$_ZN4llvh11raw_ostreamlsERKNSt7__cxx1112basic_stringIcSt11char_traitsIcESaIcEEE = comdat any

$_ZNK9TreeClass8enumNameB5cxx11Ev = comdat any

$_ZN9__gnu_cxx17__normal_iteratorIP9TreeClassSt6vectorIS1_SaIS1_EEEppEv = comdat any

$_ZStplIcSt11char_traitsIcESaIcEENSt7__cxx1112basic_stringIT_T0_T1_EEOS8_PKS5_ = comdat any

$_ZStplIcSt11char_traitsIcESaIcEENSt7__cxx1112basic_stringIT_T0_T1_EEPKS5_RKS8_ = comdat any

$_ZN9__gnu_cxx14__alloc_traitsISaIcEcE17_S_select_on_copyERKS1_ = comdat any

$_ZNSt16allocator_traitsISaIcEE37select_on_container_copy_constructionERKS0_ = comdat any

$_ZNKSt6vectorI5FieldSaIS0_EE5emptyEv = comdat any

$_ZNKSt6vectorI5FieldSaIS0_EE5beginEv = comdat any

$_ZNKSt6vectorI5FieldSaIS0_EE3endEv = comdat any

$_ZN9__gnu_cxxneIPK5FieldSt6vectorIS1_SaIS1_EEEEbRKNS_17__normal_iteratorIT_T0_EESC_ = comdat any

$_ZNK9__gnu_cxx17__normal_iteratorIPK5FieldSt6vectorIS1_SaIS1_EEEdeEv = comdat any

$_ZNK5Field8typeNameEv = comdat any

$_ZN9__gnu_cxx17__normal_iteratorIPK5FieldSt6vectorIS1_SaIS1_EEEppEv = comdat any

$_ZN9__gnu_cxxeqIPK5FieldSt6vectorIS1_SaIS1_EEEEbRKNS_17__normal_iteratorIT_T0_EESC_ = comdat any

$_ZNK9__gnu_cxx17__normal_iteratorIPK5FieldSt6vectorIS1_SaIS1_EEE4baseEv = comdat any

$_ZN9__gnu_cxx17__normal_iteratorIPK5FieldSt6vectorIS1_SaIS1_EEEC2ERKS3_ = comdat any

$_ZNK5Field8rustNameB5cxx11Ev = comdat any

$_ZSteqIcSt11char_traitsIcESaIcEEbRKNSt7__cxx1112basic_stringIT_T0_T1_EEPKS5_ = comdat any

$_ZN9__gnu_cxxneIPKcNSt7__cxx1112basic_stringIcSt11char_traitsIcESaIcEEEEEbRKNS_17__normal_iteratorIT_T0_EESE_ = comdat any

$_ZNK9__gnu_cxx17__normal_iteratorIPKcNSt7__cxx1112basic_stringIcSt11char_traitsIcESaIcEEEEdeEv = comdat any

$_ZN9__gnu_cxx17__normal_iteratorIPKcNSt7__cxx1112basic_stringIcSt11char_traitsIcESaIcEEEEppEv = comdat any

$_ZNK9__gnu_cxx17__normal_iteratorIPKcNSt7__cxx1112basic_stringIcSt11char_traitsIcESaIcEEEE4baseEv = comdat any

$_ZSt8_DestroyIP9TreeClassS0_EvT_S2_RSaIT0_E = comdat any

$_ZNSt12_Vector_baseI9TreeClassSaIS0_EED2Ev = comdat any

$_ZSt8_DestroyIP9TreeClassEvT_S2_ = comdat any

$_ZNSt12_Destroy_auxILb0EE9__destroyIP9TreeClassEEvT_S4_ = comdat any

$_ZSt8_DestroyI9TreeClassEvPT_ = comdat any

$_ZNSt12_Vector_baseI9TreeClassSaIS0_EE12_Vector_implD2Ev = comdat any

$_ZNSaI9TreeClassED2Ev = comdat any

$_ZNSt15__new_allocatorI9TreeClassED2Ev = comdat any

@_ZL12treeClasses_ = internal global %"class.std::vector" zeroinitializer, align 8
@__dso_handle = external hidden global i8
@_ZL10treeNames_B5cxx11 = internal global %"class.std::map" zeroinitializer, align 8
@.str = private unnamed_addr constant [9 x i8] c"syntax: \00", align 1
@.str.2 = private unnamed_addr constant [10 x i8] c" ffi|cvt\0A\00", align 1
@.str.3 = private unnamed_addr constant [192 x i8] c"/*\0A * Copyright (c) Meta Platforms, Inc. and affiliates.\0A *\0A * This source code is licensed under the MIT license found in the\0A * LICENSE file in the root directory of this source tree.\0A */\0A\0A\00", align 1
@.str.4 = private unnamed_addr constant [33 x i8] c"// @generated by Hermes rustgen\0A\00", align 1
@.str.5 = private unnamed_addr constant [17 x i8] c"// DO NOT EDIT\0A\0A\00", align 1
@.str.6 = private unnamed_addr constant [4 x i8] c"ffi\00", align 1
@.str.7 = private unnamed_addr constant [22 x i8] c"use super::node::*;\0A\0A\00", align 1
@.str.8 = private unnamed_addr constant [2 x i8] c"\0A\00", align 1
@.str.9 = private unnamed_addr constant [4 x i8] c"cvt\00", align 1
@.str.10 = private unnamed_addr constant [64 x i8] c"use hermes::parser::*;\0Ause super::convert::*;\0Ause crate::ast;\0A\0A\00", align 1
@.str.11 = private unnamed_addr constant [17 x i8] c"Invalid command\0A\00", align 1
@.str.12 = private unnamed_addr constant [6 x i8] c"Empty\00", align 1
@.str.13 = private unnamed_addr constant [5 x i8] c"Base\00", align 1
@.str.14 = private unnamed_addr constant [9 x i8] c"Metadata\00", align 1
@.str.15 = private unnamed_addr constant [13 x i8] c"FunctionLike\00", align 1
@.str.16 = private unnamed_addr constant [8 x i8] c"Program\00", align 1
@.str.17 = private unnamed_addr constant [9 x i8] c"NodeList\00", align 1
@.str.18 = private unnamed_addr constant [5 x i8] c"body\00", align 1
@.str.19 = private unnamed_addr constant [19 x i8] c"FunctionExpression\00", align 1
@.str.20 = private unnamed_addr constant [8 x i8] c"NodePtr\00", align 1
@.str.21 = private unnamed_addr constant [3 x i8] c"id\00", align 1
@.str.22 = private unnamed_addr constant [7 x i8] c"params\00", align 1
@.str.23 = private unnamed_addr constant [15 x i8] c"typeParameters\00", align 1
@.str.24 = private unnamed_addr constant [11 x i8] c"returnType\00", align 1
@.str.25 = private unnamed_addr constant [10 x i8] c"predicate\00", align 1
@.str.26 = private unnamed_addr constant [12 x i8] c"NodeBoolean\00", align 1
@.str.27 = private unnamed_addr constant [10 x i8] c"generator\00", align 1
@.str.28 = private unnamed_addr constant [6 x i8] c"async\00", align 1
@.str.29 = private unnamed_addr constant [24 x i8] c"ArrowFunctionExpression\00", align 1
@.str.30 = private unnamed_addr constant [11 x i8] c"expression\00", align 1
@.str.31 = private unnamed_addr constant [20 x i8] c"FunctionDeclaration\00", align 1
@.str.32 = private unnamed_addr constant [21 x i8] c"ComponentDeclaration\00", align 1
@.str.33 = private unnamed_addr constant [12 x i8] c"rendersType\00", align 1
@.str.34 = private unnamed_addr constant [1 x i8] zeroinitializer, align 1
@.str.35 = private unnamed_addr constant [10 x i8] c"Statement\00", align 1
@.str.36 = private unnamed_addr constant [14 x i8] c"LoopStatement\00", align 1
@.str.37 = private unnamed_addr constant [15 x i8] c"WhileStatement\00", align 1
@.str.38 = private unnamed_addr constant [5 x i8] c"test\00", align 1
@.str.39 = private unnamed_addr constant [17 x i8] c"DoWhileStatement\00", align 1
@.str.40 = private unnamed_addr constant [15 x i8] c"ForInStatement\00", align 1
@.str.41 = private unnamed_addr constant [5 x i8] c"left\00", align 1
@.str.42 = private unnamed_addr constant [6 x i8] c"right\00", align 1
@.str.43 = private unnamed_addr constant [15 x i8] c"ForOfStatement\00", align 1
@.str.44 = private unnamed_addr constant [6 x i8] c"await\00", align 1
@.str.45 = private unnamed_addr constant [13 x i8] c"ForStatement\00", align 1
@.str.46 = private unnamed_addr constant [5 x i8] c"init\00", align 1
@.str.47 = private unnamed_addr constant [7 x i8] c"update\00", align 1
@.str.48 = private unnamed_addr constant [18 x i8] c"DebuggerStatement\00", align 1
@.str.49 = private unnamed_addr constant [15 x i8] c"EmptyStatement\00", align 1
@.str.50 = private unnamed_addr constant [15 x i8] c"BlockStatement\00", align 1
@.str.51 = private unnamed_addr constant [15 x i8] c"BreakStatement\00", align 1
@.str.52 = private unnamed_addr constant [6 x i8] c"label\00", align 1
@.str.53 = private unnamed_addr constant [18 x i8] c"ContinueStatement\00", align 1
@.str.54 = private unnamed_addr constant [15 x i8] c"ThrowStatement\00", align 1
@.str.55 = private unnamed_addr constant [9 x i8] c"argument\00", align 1
@.str.56 = private unnamed_addr constant [16 x i8] c"ReturnStatement\00", align 1
@.str.57 = private unnamed_addr constant [14 x i8] c"WithStatement\00", align 1
@.str.58 = private unnamed_addr constant [7 x i8] c"object\00", align 1
@.str.59 = private unnamed_addr constant [16 x i8] c"SwitchStatement\00", align 1
@.str.60 = private unnamed_addr constant [13 x i8] c"discriminant\00", align 1
@.str.61 = private unnamed_addr constant [6 x i8] c"cases\00", align 1
@.str.62 = private unnamed_addr constant [17 x i8] c"LabeledStatement\00", align 1
@.str.63 = private unnamed_addr constant [20 x i8] c"ExpressionStatement\00", align 1
@.str.64 = private unnamed_addr constant [11 x i8] c"NodeString\00", align 1
@.str.65 = private unnamed_addr constant [10 x i8] c"directive\00", align 1
@.str.66 = private unnamed_addr constant [13 x i8] c"TryStatement\00", align 1
@.str.67 = private unnamed_addr constant [6 x i8] c"block\00", align 1
@.str.68 = private unnamed_addr constant [8 x i8] c"handler\00", align 1
@.str.69 = private unnamed_addr constant [10 x i8] c"finalizer\00", align 1
@.str.70 = private unnamed_addr constant [12 x i8] c"IfStatement\00", align 1
@.str.71 = private unnamed_addr constant [11 x i8] c"consequent\00", align 1
@.str.72 = private unnamed_addr constant [10 x i8] c"alternate\00", align 1
@.str.73 = private unnamed_addr constant [12 x i8] c"NullLiteral\00", align 1
@.str.74 = private unnamed_addr constant [15 x i8] c"BooleanLiteral\00", align 1
@.str.75 = private unnamed_addr constant [6 x i8] c"value\00", align 1
@.str.76 = private unnamed_addr constant [14 x i8] c"StringLiteral\00", align 1
@.str.77 = private unnamed_addr constant [15 x i8] c"NumericLiteral\00", align 1
@.str.78 = private unnamed_addr constant [11 x i8] c"NodeNumber\00", align 1
@.str.79 = private unnamed_addr constant [14 x i8] c"RegExpLiteral\00", align 1
@.str.80 = private unnamed_addr constant [10 x i8] c"NodeLabel\00", align 1
@.str.81 = private unnamed_addr constant [8 x i8] c"pattern\00", align 1
@.str.82 = private unnamed_addr constant [6 x i8] c"flags\00", align 1
@.str.83 = private unnamed_addr constant [14 x i8] c"BigIntLiteral\00", align 1
@.str.84 = private unnamed_addr constant [7 x i8] c"bigint\00", align 1
@.str.85 = private unnamed_addr constant [15 x i8] c"ThisExpression\00", align 1
@.str.86 = private unnamed_addr constant [6 x i8] c"Super\00", align 1
@.str.87 = private unnamed_addr constant [19 x i8] c"SequenceExpression\00", align 1
@.str.88 = private unnamed_addr constant [12 x i8] c"expressions\00", align 1
@.str.89 = private unnamed_addr constant [17 x i8] c"ObjectExpression\00", align 1
@.str.90 = private unnamed_addr constant [11 x i8] c"properties\00", align 1
@.str.91 = private unnamed_addr constant [16 x i8] c"ArrayExpression\00", align 1
@.str.92 = private unnamed_addr constant [9 x i8] c"elements\00", align 1
@.str.93 = private unnamed_addr constant [14 x i8] c"trailingComma\00", align 1
@.str.94 = private unnamed_addr constant [14 x i8] c"SpreadElement\00", align 1
@.str.95 = private unnamed_addr constant [14 x i8] c"NewExpression\00", align 1
@.str.96 = private unnamed_addr constant [7 x i8] c"callee\00", align 1
@.str.97 = private unnamed_addr constant [14 x i8] c"typeArguments\00", align 1
@.str.98 = private unnamed_addr constant [10 x i8] c"arguments\00", align 1
@.str.99 = private unnamed_addr constant [16 x i8] c"YieldExpression\00", align 1
@.str.100 = private unnamed_addr constant [9 x i8] c"delegate\00", align 1
@.str.101 = private unnamed_addr constant [16 x i8] c"AwaitExpression\00", align 1
@.str.102 = private unnamed_addr constant [17 x i8] c"ImportExpression\00", align 1
@.str.103 = private unnamed_addr constant [7 x i8] c"source\00", align 1
@.str.104 = private unnamed_addr constant [11 x i8] c"attributes\00", align 1
@.str.105 = private unnamed_addr constant [19 x i8] c"CallExpressionLike\00", align 1
@.str.106 = private unnamed_addr constant [15 x i8] c"CallExpression\00", align 1
@.str.107 = private unnamed_addr constant [23 x i8] c"OptionalCallExpression\00", align 1
@.str.108 = private unnamed_addr constant [9 x i8] c"optional\00", align 1
@.str.109 = private unnamed_addr constant [21 x i8] c"AssignmentExpression\00", align 1
@.str.110 = private unnamed_addr constant [9 x i8] c"operator\00", align 1
@.str.111 = private unnamed_addr constant [16 x i8] c"UnaryExpression\00", align 1
@.str.112 = private unnamed_addr constant [7 x i8] c"prefix\00", align 1
@.str.113 = private unnamed_addr constant [17 x i8] c"UpdateExpression\00", align 1
@.str.114 = private unnamed_addr constant [21 x i8] c"MemberExpressionLike\00", align 1
@.str.115 = private unnamed_addr constant [17 x i8] c"MemberExpression\00", align 1
@.str.116 = private unnamed_addr constant [9 x i8] c"property\00", align 1
@.str.117 = private unnamed_addr constant [9 x i8] c"computed\00", align 1
@.str.118 = private unnamed_addr constant [25 x i8] c"OptionalMemberExpression\00", align 1
@.str.119 = private unnamed_addr constant [18 x i8] c"LogicalExpression\00", align 1
@.str.120 = private unnamed_addr constant [22 x i8] c"ConditionalExpression\00", align 1
@.str.121 = private unnamed_addr constant [17 x i8] c"BinaryExpression\00", align 1
@.str.122 = private unnamed_addr constant [10 x i8] c"Directive\00", align 1
@.str.123 = private unnamed_addr constant [17 x i8] c"DirectiveLiteral\00", align 1
@.str.124 = private unnamed_addr constant [11 x i8] c"Identifier\00", align 1
@.str.125 = private unnamed_addr constant [5 x i8] c"name\00", align 1
@.str.126 = private unnamed_addr constant [15 x i8] c"typeAnnotation\00", align 1
@.str.127 = private unnamed_addr constant [12 x i8] c"PrivateName\00", align 1
@.str.128 = private unnamed_addr constant [13 x i8] c"MetaProperty\00", align 1
@.str.129 = private unnamed_addr constant [5 x i8] c"meta\00", align 1
@.str.130 = private unnamed_addr constant [11 x i8] c"SwitchCase\00", align 1
@.str.131 = private unnamed_addr constant [12 x i8] c"CatchClause\00", align 1
@.str.132 = private unnamed_addr constant [6 x i8] c"param\00", align 1
@.str.133 = private unnamed_addr constant [19 x i8] c"VariableDeclarator\00", align 1
@.str.134 = private unnamed_addr constant [20 x i8] c"VariableDeclaration\00", align 1
@.str.135 = private unnamed_addr constant [5 x i8] c"kind\00", align 1
@.str.136 = private unnamed_addr constant [13 x i8] c"declarations\00", align 1
@.str.137 = private unnamed_addr constant [16 x i8] c"TemplateLiteral\00", align 1
@.str.138 = private unnamed_addr constant [7 x i8] c"quasis\00", align 1
@.str.139 = private unnamed_addr constant [25 x i8] c"TaggedTemplateExpression\00", align 1
@.str.140 = private unnamed_addr constant [4 x i8] c"tag\00", align 1
@.str.141 = private unnamed_addr constant [6 x i8] c"quasi\00", align 1
@.str.142 = private unnamed_addr constant [16 x i8] c"TemplateElement\00", align 1
@.str.143 = private unnamed_addr constant [5 x i8] c"tail\00", align 1
@.str.144 = private unnamed_addr constant [7 x i8] c"cooked\00", align 1
@.str.145 = private unnamed_addr constant [4 x i8] c"raw\00", align 1
@.str.146 = private unnamed_addr constant [9 x i8] c"Property\00", align 1
@.str.147 = private unnamed_addr constant [4 x i8] c"key\00", align 1
@.str.148 = private unnamed_addr constant [7 x i8] c"method\00", align 1
@.str.149 = private unnamed_addr constant [10 x i8] c"shorthand\00", align 1
@.str.150 = private unnamed_addr constant [17 x i8] c"ClassDeclaration\00", align 1
@.str.151 = private unnamed_addr constant [11 x i8] c"superClass\00", align 1
@.str.152 = private unnamed_addr constant [20 x i8] c"superTypeParameters\00", align 1
@.str.153 = private unnamed_addr constant [11 x i8] c"implements\00", align 1
@.str.154 = private unnamed_addr constant [11 x i8] c"decorators\00", align 1
@.str.155 = private unnamed_addr constant [16 x i8] c"ClassExpression\00", align 1
@.str.156 = private unnamed_addr constant [10 x i8] c"ClassBody\00", align 1
@.str.157 = private unnamed_addr constant [14 x i8] c"ClassProperty\00", align 1
@.str.158 = private unnamed_addr constant [7 x i8] c"static\00", align 1
@.str.159 = private unnamed_addr constant [8 x i8] c"declare\00", align 1
@.str.160 = private unnamed_addr constant [9 x i8] c"variance\00", align 1
@.str.161 = private unnamed_addr constant [12 x i8] c"tsModifiers\00", align 1
@.str.162 = private unnamed_addr constant [21 x i8] c"ClassPrivateProperty\00", align 1
@.str.163 = private unnamed_addr constant [17 x i8] c"MethodDefinition\00", align 1
@.str.164 = private unnamed_addr constant [18 x i8] c"ImportDeclaration\00", align 1
@.str.165 = private unnamed_addr constant [11 x i8] c"specifiers\00", align 1
@.str.166 = private unnamed_addr constant [11 x i8] c"assertions\00", align 1
@.str.167 = private unnamed_addr constant [11 x i8] c"importKind\00", align 1
@.str.168 = private unnamed_addr constant [16 x i8] c"ImportSpecifier\00", align 1
@.str.169 = private unnamed_addr constant [9 x i8] c"imported\00", align 1
@.str.170 = private unnamed_addr constant [6 x i8] c"local\00", align 1
@.str.171 = private unnamed_addr constant [23 x i8] c"ImportDefaultSpecifier\00", align 1
@.str.172 = private unnamed_addr constant [25 x i8] c"ImportNamespaceSpecifier\00", align 1
@.str.173 = private unnamed_addr constant [16 x i8] c"ImportAttribute\00", align 1
@.str.174 = private unnamed_addr constant [23 x i8] c"ExportNamedDeclaration\00", align 1
@.str.175 = private unnamed_addr constant [12 x i8] c"declaration\00", align 1
@.str.176 = private unnamed_addr constant [11 x i8] c"exportKind\00", align 1
@.str.177 = private unnamed_addr constant [16 x i8] c"ExportSpecifier\00", align 1
@.str.178 = private unnamed_addr constant [9 x i8] c"exported\00", align 1
@.str.179 = private unnamed_addr constant [25 x i8] c"ExportNamespaceSpecifier\00", align 1
@.str.180 = private unnamed_addr constant [25 x i8] c"ExportDefaultDeclaration\00", align 1
@.str.181 = private unnamed_addr constant [21 x i8] c"ExportAllDeclaration\00", align 1
@.str.182 = private unnamed_addr constant [8 x i8] c"Pattern\00", align 1
@.str.183 = private unnamed_addr constant [14 x i8] c"ObjectPattern\00", align 1
@.str.184 = private unnamed_addr constant [13 x i8] c"ArrayPattern\00", align 1
@.str.185 = private unnamed_addr constant [12 x i8] c"RestElement\00", align 1
@.str.186 = private unnamed_addr constant [18 x i8] c"AssignmentPattern\00", align 1
@.str.187 = private unnamed_addr constant [4 x i8] c"JSX\00", align 1
@.str.188 = private unnamed_addr constant [14 x i8] c"JSXIdentifier\00", align 1
@.str.189 = private unnamed_addr constant [20 x i8] c"JSXMemberExpression\00", align 1
@.str.190 = private unnamed_addr constant [18 x i8] c"JSXNamespacedName\00", align 1
@.str.191 = private unnamed_addr constant [10 x i8] c"namespace\00", align 1
@.str.192 = private unnamed_addr constant [19 x i8] c"JSXEmptyExpression\00", align 1
@.str.193 = private unnamed_addr constant [23 x i8] c"JSXExpressionContainer\00", align 1
@.str.194 = private unnamed_addr constant [15 x i8] c"JSXSpreadChild\00", align 1
@.str.195 = private unnamed_addr constant [18 x i8] c"JSXOpeningElement\00", align 1
@.str.196 = private unnamed_addr constant [12 x i8] c"selfClosing\00", align 1
@.str.197 = private unnamed_addr constant [18 x i8] c"JSXClosingElement\00", align 1
@.str.198 = private unnamed_addr constant [13 x i8] c"JSXAttribute\00", align 1
@.str.199 = private unnamed_addr constant [19 x i8] c"JSXSpreadAttribute\00", align 1
@.str.200 = private unnamed_addr constant [17 x i8] c"JSXStringLiteral\00", align 1
@.str.201 = private unnamed_addr constant [8 x i8] c"JSXText\00", align 1
@.str.202 = private unnamed_addr constant [11 x i8] c"JSXElement\00", align 1
@.str.203 = private unnamed_addr constant [15 x i8] c"openingElement\00", align 1
@.str.204 = private unnamed_addr constant [9 x i8] c"children\00", align 1
@.str.205 = private unnamed_addr constant [15 x i8] c"closingElement\00", align 1
@.str.206 = private unnamed_addr constant [12 x i8] c"JSXFragment\00", align 1
@.str.207 = private unnamed_addr constant [16 x i8] c"openingFragment\00", align 1
@.str.208 = private unnamed_addr constant [16 x i8] c"closingFragment\00", align 1
@.str.209 = private unnamed_addr constant [19 x i8] c"JSXOpeningFragment\00", align 1
@.str.210 = private unnamed_addr constant [19 x i8] c"JSXClosingFragment\00", align 1
@.str.211 = private unnamed_addr constant [5 x i8] c"Flow\00", align 1
@.str.212 = private unnamed_addr constant [21 x i8] c"ExistsTypeAnnotation\00", align 1
@.str.213 = private unnamed_addr constant [20 x i8] c"EmptyTypeAnnotation\00", align 1
@.str.214 = private unnamed_addr constant [21 x i8] c"StringTypeAnnotation\00", align 1
@.str.215 = private unnamed_addr constant [21 x i8] c"NumberTypeAnnotation\00", align 1
@.str.216 = private unnamed_addr constant [28 x i8] c"StringLiteralTypeAnnotation\00", align 1
@.str.217 = private unnamed_addr constant [28 x i8] c"NumberLiteralTypeAnnotation\00", align 1
@.str.218 = private unnamed_addr constant [28 x i8] c"BigIntLiteralTypeAnnotation\00", align 1
@.str.219 = private unnamed_addr constant [22 x i8] c"BooleanTypeAnnotation\00", align 1
@.str.220 = private unnamed_addr constant [29 x i8] c"BooleanLiteralTypeAnnotation\00", align 1
@.str.221 = private unnamed_addr constant [26 x i8] c"NullLiteralTypeAnnotation\00", align 1
@.str.222 = private unnamed_addr constant [21 x i8] c"SymbolTypeAnnotation\00", align 1
@.str.223 = private unnamed_addr constant [18 x i8] c"AnyTypeAnnotation\00", align 1
@.str.224 = private unnamed_addr constant [20 x i8] c"MixedTypeAnnotation\00", align 1
@.str.225 = private unnamed_addr constant [21 x i8] c"BigIntTypeAnnotation\00", align 1
@.str.226 = private unnamed_addr constant [19 x i8] c"VoidTypeAnnotation\00", align 1
@.str.227 = private unnamed_addr constant [23 x i8] c"FunctionTypeAnnotation\00", align 1
@.str.228 = private unnamed_addr constant [5 x i8] c"this\00", align 1
@.str.229 = private unnamed_addr constant [5 x i8] c"rest\00", align 1
@.str.230 = private unnamed_addr constant [18 x i8] c"FunctionTypeParam\00", align 1
@.str.231 = private unnamed_addr constant [24 x i8] c"ComponentTypeAnnotation\00", align 1
@.str.232 = private unnamed_addr constant [23 x i8] c"ComponentTypeParameter\00", align 1
@.str.233 = private unnamed_addr constant [23 x i8] c"NullableTypeAnnotation\00", align 1
@.str.234 = private unnamed_addr constant [24 x i8] c"QualifiedTypeIdentifier\00", align 1
@.str.235 = private unnamed_addr constant [14 x i8] c"qualification\00", align 1
@.str.236 = private unnamed_addr constant [21 x i8] c"TypeofTypeAnnotation\00", align 1
@.str.237 = private unnamed_addr constant [20 x i8] c"KeyofTypeAnnotation\00", align 1
@.str.238 = private unnamed_addr constant [13 x i8] c"TypeOperator\00", align 1
@.str.239 = private unnamed_addr constant [26 x i8] c"QualifiedTypeofIdentifier\00", align 1
@.str.240 = private unnamed_addr constant [20 x i8] c"TupleTypeAnnotation\00", align 1
@.str.241 = private unnamed_addr constant [6 x i8] c"types\00", align 1
@.str.242 = private unnamed_addr constant [23 x i8] c"TupleTypeSpreadElement\00", align 1
@.str.243 = private unnamed_addr constant [24 x i8] c"TupleTypeLabeledElement\00", align 1
@.str.244 = private unnamed_addr constant [12 x i8] c"elementType\00", align 1
@.str.245 = private unnamed_addr constant [20 x i8] c"ArrayTypeAnnotation\00", align 1
@.str.246 = private unnamed_addr constant [20 x i8] c"InferTypeAnnotation\00", align 1
@.str.247 = private unnamed_addr constant [14 x i8] c"typeParameter\00", align 1
@.str.248 = private unnamed_addr constant [20 x i8] c"UnionTypeAnnotation\00", align 1
@.str.249 = private unnamed_addr constant [27 x i8] c"IntersectionTypeAnnotation\00", align 1
@.str.250 = private unnamed_addr constant [22 x i8] c"GenericTypeAnnotation\00", align 1
@.str.251 = private unnamed_addr constant [18 x i8] c"IndexedAccessType\00", align 1
@.str.252 = private unnamed_addr constant [11 x i8] c"objectType\00", align 1
@.str.253 = private unnamed_addr constant [10 x i8] c"indexType\00", align 1
@.str.254 = private unnamed_addr constant [26 x i8] c"OptionalIndexedAccessType\00", align 1
@.str.255 = private unnamed_addr constant [26 x i8] c"ConditionalTypeAnnotation\00", align 1
@.str.256 = private unnamed_addr constant [10 x i8] c"checkType\00", align 1
@.str.257 = private unnamed_addr constant [12 x i8] c"extendsType\00", align 1
@.str.258 = private unnamed_addr constant [9 x i8] c"trueType\00", align 1
@.str.259 = private unnamed_addr constant [10 x i8] c"falseType\00", align 1
@.str.260 = private unnamed_addr constant [14 x i8] c"TypePredicate\00", align 1
@.str.261 = private unnamed_addr constant [14 x i8] c"parameterName\00", align 1
@.str.262 = private unnamed_addr constant [8 x i8] c"asserts\00", align 1
@.str.263 = private unnamed_addr constant [24 x i8] c"InterfaceTypeAnnotation\00", align 1
@.str.264 = private unnamed_addr constant [8 x i8] c"extends\00", align 1
@.str.265 = private unnamed_addr constant [10 x i8] c"TypeAlias\00", align 1
@.str.266 = private unnamed_addr constant [11 x i8] c"OpaqueType\00", align 1
@.str.267 = private unnamed_addr constant [9 x i8] c"impltype\00", align 1
@.str.268 = private unnamed_addr constant [10 x i8] c"supertype\00", align 1
@.str.269 = private unnamed_addr constant [21 x i8] c"InterfaceDeclaration\00", align 1
@.str.270 = private unnamed_addr constant [17 x i8] c"DeclareTypeAlias\00", align 1
@.str.271 = private unnamed_addr constant [18 x i8] c"DeclareOpaqueType\00", align 1
@.str.272 = private unnamed_addr constant [17 x i8] c"DeclareInterface\00", align 1
@.str.273 = private unnamed_addr constant [13 x i8] c"DeclareClass\00", align 1
@.str.274 = private unnamed_addr constant [7 x i8] c"mixins\00", align 1
@.str.275 = private unnamed_addr constant [16 x i8] c"DeclareFunction\00", align 1
@.str.276 = private unnamed_addr constant [17 x i8] c"DeclareComponent\00", align 1
@.str.277 = private unnamed_addr constant [16 x i8] c"DeclareVariable\00", align 1
@.str.278 = private unnamed_addr constant [12 x i8] c"DeclareEnum\00", align 1
@.str.279 = private unnamed_addr constant [25 x i8] c"DeclareExportDeclaration\00", align 1
@.str.280 = private unnamed_addr constant [8 x i8] c"default\00", align 1
@.str.281 = private unnamed_addr constant [28 x i8] c"DeclareExportAllDeclaration\00", align 1
@.str.282 = private unnamed_addr constant [14 x i8] c"DeclareModule\00", align 1
@.str.283 = private unnamed_addr constant [21 x i8] c"DeclareModuleExports\00", align 1
@.str.284 = private unnamed_addr constant [17 x i8] c"InterfaceExtends\00", align 1
@.str.285 = private unnamed_addr constant [16 x i8] c"ClassImplements\00", align 1
@.str.286 = private unnamed_addr constant [15 x i8] c"TypeAnnotation\00", align 1
@.str.287 = private unnamed_addr constant [21 x i8] c"ObjectTypeAnnotation\00", align 1
@.str.288 = private unnamed_addr constant [9 x i8] c"indexers\00", align 1
@.str.289 = private unnamed_addr constant [15 x i8] c"callProperties\00", align 1
@.str.290 = private unnamed_addr constant [14 x i8] c"internalSlots\00", align 1
@.str.291 = private unnamed_addr constant [8 x i8] c"inexact\00", align 1
@.str.292 = private unnamed_addr constant [6 x i8] c"exact\00", align 1
@.str.293 = private unnamed_addr constant [19 x i8] c"ObjectTypeProperty\00", align 1
@.str.294 = private unnamed_addr constant [6 x i8] c"proto\00", align 1
@.str.295 = private unnamed_addr constant [25 x i8] c"ObjectTypeSpreadProperty\00", align 1
@.str.296 = private unnamed_addr constant [23 x i8] c"ObjectTypeInternalSlot\00", align 1
@.str.297 = private unnamed_addr constant [23 x i8] c"ObjectTypeCallProperty\00", align 1
@.str.298 = private unnamed_addr constant [18 x i8] c"ObjectTypeIndexer\00", align 1
@.str.299 = private unnamed_addr constant [29 x i8] c"ObjectTypeMappedTypeProperty\00", align 1
@.str.300 = private unnamed_addr constant [10 x i8] c"keyTparam\00", align 1
@.str.301 = private unnamed_addr constant [9 x i8] c"propType\00", align 1
@.str.302 = private unnamed_addr constant [11 x i8] c"sourceType\00", align 1
@.str.303 = private unnamed_addr constant [9 x i8] c"Variance\00", align 1
@.str.304 = private unnamed_addr constant [25 x i8] c"TypeParameterDeclaration\00", align 1
@.str.305 = private unnamed_addr constant [14 x i8] c"TypeParameter\00", align 1
@.str.306 = private unnamed_addr constant [6 x i8] c"bound\00", align 1
@.str.307 = private unnamed_addr constant [17 x i8] c"usesExtendsBound\00", align 1
@.str.308 = private unnamed_addr constant [27 x i8] c"TypeParameterInstantiation\00", align 1
@.str.309 = private unnamed_addr constant [19 x i8] c"TypeCastExpression\00", align 1
@.str.310 = private unnamed_addr constant [13 x i8] c"AsExpression\00", align 1
@.str.311 = private unnamed_addr constant [18 x i8] c"InferredPredicate\00", align 1
@.str.312 = private unnamed_addr constant [18 x i8] c"DeclaredPredicate\00", align 1
@.str.313 = private unnamed_addr constant [16 x i8] c"EnumDeclaration\00", align 1
@.str.314 = private unnamed_addr constant [15 x i8] c"EnumStringBody\00", align 1
@.str.315 = private unnamed_addr constant [8 x i8] c"members\00", align 1
@.str.316 = private unnamed_addr constant [13 x i8] c"explicitType\00", align 1
@.str.317 = private unnamed_addr constant [18 x i8] c"hasUnknownMembers\00", align 1
@.str.318 = private unnamed_addr constant [15 x i8] c"EnumNumberBody\00", align 1
@.str.319 = private unnamed_addr constant [16 x i8] c"EnumBooleanBody\00", align 1
@.str.320 = private unnamed_addr constant [15 x i8] c"EnumSymbolBody\00", align 1
@.str.321 = private unnamed_addr constant [20 x i8] c"EnumDefaultedMember\00", align 1
@.str.322 = private unnamed_addr constant [17 x i8] c"EnumStringMember\00", align 1
@.str.323 = private unnamed_addr constant [17 x i8] c"EnumNumberMember\00", align 1
@.str.324 = private unnamed_addr constant [18 x i8] c"EnumBooleanMember\00", align 1
@.str.325 = private unnamed_addr constant [19 x i8] c"ComponentParameter\00", align 1
@.str.326 = private unnamed_addr constant [3 x i8] c"TS\00", align 1
@.str.327 = private unnamed_addr constant [17 x i8] c"TSTypeAnnotation\00", align 1
@.str.328 = private unnamed_addr constant [13 x i8] c"TSAnyKeyword\00", align 1
@.str.329 = private unnamed_addr constant [16 x i8] c"TSNumberKeyword\00", align 1
@.str.330 = private unnamed_addr constant [17 x i8] c"TSBooleanKeyword\00", align 1
@.str.331 = private unnamed_addr constant [16 x i8] c"TSStringKeyword\00", align 1
@.str.332 = private unnamed_addr constant [16 x i8] c"TSSymbolKeyword\00", align 1
@.str.333 = private unnamed_addr constant [14 x i8] c"TSVoidKeyword\00", align 1
@.str.334 = private unnamed_addr constant [19 x i8] c"TSUndefinedKeyword\00", align 1
@.str.335 = private unnamed_addr constant [17 x i8] c"TSUnknownKeyword\00", align 1
@.str.336 = private unnamed_addr constant [15 x i8] c"TSNeverKeyword\00", align 1
@.str.337 = private unnamed_addr constant [16 x i8] c"TSBigIntKeyword\00", align 1
@.str.338 = private unnamed_addr constant [11 x i8] c"TSThisType\00", align 1
@.str.339 = private unnamed_addr constant [14 x i8] c"TSLiteralType\00", align 1
@.str.340 = private unnamed_addr constant [8 x i8] c"literal\00", align 1
@.str.341 = private unnamed_addr constant [20 x i8] c"TSIndexedAccessType\00", align 1
@.str.342 = private unnamed_addr constant [12 x i8] c"TSArrayType\00", align 1
@.str.343 = private unnamed_addr constant [16 x i8] c"TSTypeReference\00", align 1
@.str.344 = private unnamed_addr constant [9 x i8] c"typeName\00", align 1
@.str.345 = private unnamed_addr constant [16 x i8] c"TSQualifiedName\00", align 1
@.str.346 = private unnamed_addr constant [15 x i8] c"TSFunctionType\00", align 1
@.str.347 = private unnamed_addr constant [18 x i8] c"TSConstructorType\00", align 1
@.str.348 = private unnamed_addr constant [16 x i8] c"TSTypePredicate\00", align 1
@.str.349 = private unnamed_addr constant [12 x i8] c"TSTupleType\00", align 1
@.str.350 = private unnamed_addr constant [13 x i8] c"elementTypes\00", align 1
@.str.351 = private unnamed_addr constant [16 x i8] c"TSTypeAssertion\00", align 1
@.str.352 = private unnamed_addr constant [15 x i8] c"TSAsExpression\00", align 1
@.str.353 = private unnamed_addr constant [20 x i8] c"TSParameterProperty\00", align 1
@.str.354 = private unnamed_addr constant [10 x i8] c"parameter\00", align 1
@.str.355 = private unnamed_addr constant [14 x i8] c"accessibility\00", align 1
@.str.356 = private unnamed_addr constant [9 x i8] c"readonly\00", align 1
@.str.357 = private unnamed_addr constant [7 x i8] c"export\00", align 1
@.str.358 = private unnamed_addr constant [23 x i8] c"TSTypeAliasDeclaration\00", align 1
@.str.359 = private unnamed_addr constant [23 x i8] c"TSInterfaceDeclaration\00", align 1
@.str.360 = private unnamed_addr constant [20 x i8] c"TSInterfaceHeritage\00", align 1
@.str.361 = private unnamed_addr constant [16 x i8] c"TSInterfaceBody\00", align 1
@.str.362 = private unnamed_addr constant [18 x i8] c"TSEnumDeclaration\00", align 1
@.str.363 = private unnamed_addr constant [13 x i8] c"TSEnumMember\00", align 1
@.str.364 = private unnamed_addr constant [12 x i8] c"initializer\00", align 1
@.str.365 = private unnamed_addr constant [20 x i8] c"TSModuleDeclaration\00", align 1
@.str.366 = private unnamed_addr constant [14 x i8] c"TSModuleBlock\00", align 1
@.str.367 = private unnamed_addr constant [15 x i8] c"TSModuleMember\00", align 1
@.str.368 = private unnamed_addr constant [27 x i8] c"TSTypeParameterDeclaration\00", align 1
@.str.369 = private unnamed_addr constant [16 x i8] c"TSTypeParameter\00", align 1
@.str.370 = private unnamed_addr constant [11 x i8] c"constraint\00", align 1
@.str.371 = private unnamed_addr constant [29 x i8] c"TSTypeParameterInstantiation\00", align 1
@.str.372 = private unnamed_addr constant [12 x i8] c"TSUnionType\00", align 1
@.str.373 = private unnamed_addr constant [19 x i8] c"TSIntersectionType\00", align 1
@.str.374 = private unnamed_addr constant [12 x i8] c"TSTypeQuery\00", align 1
@.str.375 = private unnamed_addr constant [9 x i8] c"exprName\00", align 1
@.str.376 = private unnamed_addr constant [18 x i8] c"TSConditionalType\00", align 1
@.str.377 = private unnamed_addr constant [14 x i8] c"TSTypeLiteral\00", align 1
@.str.378 = private unnamed_addr constant [20 x i8] c"TSPropertySignature\00", align 1
@.str.379 = private unnamed_addr constant [18 x i8] c"TSMethodSignature\00", align 1
@.str.380 = private unnamed_addr constant [17 x i8] c"TSIndexSignature\00", align 1
@.str.381 = private unnamed_addr constant [11 x i8] c"parameters\00", align 1
@.str.382 = private unnamed_addr constant [27 x i8] c"TSCallSignatureDeclaration\00", align 1
@.str.383 = private unnamed_addr constant [12 x i8] c"TSModifiers\00", align 1
@.str.384 = private unnamed_addr constant [6 x i8] c"Cover\00", align 1
@.str.385 = private unnamed_addr constant [15 x i8] c"CoverEmptyArgs\00", align 1
@.str.386 = private unnamed_addr constant [19 x i8] c"CoverTrailingComma\00", align 1
@.str.387 = private unnamed_addr constant [17 x i8] c"CoverInitializer\00", align 1
@.str.388 = private unnamed_addr constant [17 x i8] c"CoverRestElement\00", align 1
@.str.389 = private unnamed_addr constant [21 x i8] c"CoverTypedIdentifier\00", align 1
@.str.390 = private unnamed_addr constant [50 x i8] c"basic_string: construction from null is not valid\00", align 1
@.str.391 = private unnamed_addr constant [26 x i8] c"vector::_M_realloc_insert\00", align 1
@.str.392 = private unnamed_addr constant [14 x i8] c"#[repr(u32)]\0A\00", align 1
@.str.393 = private unnamed_addr constant [29 x i8] c"#[derive(Debug, PartialEq)]\0A\00", align 1
@.str.394 = private unnamed_addr constant [21 x i8] c"pub enum NodeKind {\0A\00", align 1
@.str.395 = private unnamed_addr constant [5 x i8] c"    \00", align 1
@.str.396 = private unnamed_addr constant [3 x i8] c",\0A\00", align 1
@.str.397 = private unnamed_addr constant [3 x i8] c"}\0A\00", align 1
@.str.398 = private unnamed_addr constant [2 x i8] c"_\00", align 1
@.str.399 = private unnamed_addr constant [6 x i8] c"First\00", align 1
@.str.400 = private unnamed_addr constant [5 x i8] c"Last\00", align 1
@.str.401 = private unnamed_addr constant [14 x i8] c"extern \22C\22 {\0A\00", align 1
@.str.402 = private unnamed_addr constant [8 x i8] c"    // \00", align 1
@.str.403 = private unnamed_addr constant [23 x i8] c"    pub fn hermes_get_\00", align 1
@.str.404 = private unnamed_addr constant [20 x i8] c"(node: NodePtr) -> \00", align 1
@.str.405 = private unnamed_addr constant [3 x i8] c";\0A\00", align 1
@.str.406 = private unnamed_addr constant [10 x i8] c"**ERROR**\00", align 1
@.str.407 = private unnamed_addr constant [14 x i8] c"NodeStringOpt\00", align 1
@.str.408 = private unnamed_addr constant [13 x i8] c"NodeLabelOpt\00", align 1
@.str.409 = private unnamed_addr constant [5 x i8] c"bool\00", align 1
@.str.410 = private unnamed_addr constant [4 x i8] c"f64\00", align 1
@.str.411 = private unnamed_addr constant [11 x i8] c"NodePtrOpt\00", align 1
@.str.412 = private unnamed_addr constant [12 x i8] c"NodeListRef\00", align 1
@.str.413 = private unnamed_addr constant [15 x i8] c"NodeListOptRef\00", align 1
@_ZL9typeName_ = internal constant [7 x [2 x { ptr, i64 }]] [[2 x { ptr, i64 }] [{ ptr, i64 } { ptr @.str.406, i64 9 }, { ptr, i64 } { ptr @.str.406, i64 9 }], [2 x { ptr, i64 }] [{ ptr, i64 } { ptr @.str.64, i64 10 }, { ptr, i64 } { ptr @.str.407, i64 13 }], [2 x { ptr, i64 }] [{ ptr, i64 } { ptr @.str.80, i64 9 }, { ptr, i64 } { ptr @.str.408, i64 12 }], [2 x { ptr, i64 }] [{ ptr, i64 } { ptr @.str.409, i64 4 }, { ptr, i64 } { ptr @.str.409, i64 4 }], [2 x { ptr, i64 }] [{ ptr, i64 } { ptr @.str.410, i64 3 }, { ptr, i64 } { ptr @.str.410, i64 3 }], [2 x { ptr, i64 }] [{ ptr, i64 } { ptr @.str.20, i64 7 }, { ptr, i64 } { ptr @.str.411, i64 10 }], [2 x { ptr, i64 }] [{ ptr, i64 } { ptr @.str.412, i64 11 }, { ptr, i64 } { ptr @.str.413, i64 14 }]], align 16
@.str.415 = private unnamed_addr constant [140 x i8] c"pub unsafe fn cvt_node_ptr<'parser, 'gc>(\0A  cvt: &mut Converter<'parser>, \0A  gc: &'gc ast::GCLock, \0A  n: NodePtr) -> &'gc ast::Node<'gc> {\0A\00", align 1
@.str.416 = private unnamed_addr constant [189 x i8] c"    let nr = n.as_ref();\0A    let range = ast::SourceRange {\0A        file: cvt.file_id,\0A        start: cvt.cvt_smloc(nr.source_range.start),\0A        end: ast::SourceLoc::invalid(),\0A    };\0A\0A\00", align 1
@.str.417 = private unnamed_addr constant [31 x i8] c"    let res = match nr.kind {\0A\00", align 1
@.str.418 = private unnamed_addr constant [278 x i8] c"        _ => {\0A          cvt.report_invalid_node(gc, n, range);\0A          let template = ast::template::Empty {\0A            metadata: ast::TemplateMetadata {range, ..Default::default()}\0A          };\0A          ast::builder::Empty::build_template(gc, template)\0A        }\0A    };\0A\0A\00", align 1
@.str.419 = private unnamed_addr constant [9 x i8] c"    res\0A\00", align 1
@.str.420 = private unnamed_addr constant [19 x i8] c"        NodeKind::\00", align 1
@.str.421 = private unnamed_addr constant [7 x i8] c" => {\0A\00", align 1
@.str.422 = private unnamed_addr constant [15 x i8] c"          let \00", align 1
@.str.423 = private unnamed_addr constant [4 x i8] c" = \00", align 1
@.str.424 = private unnamed_addr constant [15 x i8] c"cvt.cvt_string\00", align 1
@.str.425 = private unnamed_addr constant [5 x i8] c"_opt\00", align 1
@.str.426 = private unnamed_addr constant [6 x i8] c"(gc, \00", align 1
@.str.427 = private unnamed_addr constant [10 x i8] c"cvt_enum(\00", align 1
@.str.428 = private unnamed_addr constant [14 x i8] c"cvt.cvt_label\00", align 1
@.str.429 = private unnamed_addr constant [13 x i8] c"cvt_node_ptr\00", align 1
@.str.430 = private unnamed_addr constant [11 x i8] c"(cvt, gc, \00", align 1
@.str.431 = private unnamed_addr constant [14 x i8] c"cvt_node_list\00", align 1
@.str.432 = private unnamed_addr constant [12 x i8] c"hermes_get_\00", align 1
@.str.433 = private unnamed_addr constant [4 x i8] c"(n)\00", align 1
@.str.434 = private unnamed_addr constant [2 x i8] c")\00", align 1
@.str.435 = private unnamed_addr constant [45 x i8] c"          let mut template = ast::template::\00", align 1
@.str.436 = private unnamed_addr constant [4 x i8] c" {\0A\00", align 1
@.str.437 = private unnamed_addr constant [78 x i8] c"              metadata: ast::TemplateMetadata {range, ..Default::default()},\0A\00", align 1
@.str.438 = private unnamed_addr constant [19 x i8] c"                  \00", align 1
@.str.439 = private unnamed_addr constant [170 x i8] c"          };\0A          template.metadata.range.end = if nr.source_range.is_empty() { template.metadata.range.start } else { cvt.cvt_smloc(nr.source_range.end.pred()) };\0A\00", align 1
@.str.440 = private unnamed_addr constant [25 x i8] c"          ast::builder::\00", align 1
@.str.441 = private unnamed_addr constant [32 x i8] c"::build_template(gc, template)\0A\00", align 1
@.str.442 = private unnamed_addr constant [11 x i8] c"        }\0A\00", align 1
@.str.443 = private unnamed_addr constant [4 x i8] c"is_\00", align 1
@llvm.global_ctors = appending global [1 x { i32, ptr, ptr }] [{ i32, ptr, ptr } { i32 65535, ptr @_GLOBAL__sub_I_rustgen.cpp, ptr null }]

; Function Attrs: nounwind uwtable
define internal void @__cxx_global_var_init() #0 section ".text.startup" {
entry:
  call void @llvm.memset.p0.i64(ptr align 8 @_ZL12treeClasses_, i8 0, i64 24, i1 false)
  call void @_ZNSt6vectorI9TreeClassSaIS0_EEC2Ev(ptr noundef nonnull align 8 dereferenceable(24) @_ZL12treeClasses_) #3
  %0 = call i32 @__cxa_atexit(ptr @_ZNSt6vectorI9TreeClassSaIS0_EED2Ev, ptr @_ZL12treeClasses_, ptr @__dso_handle) #3
  ret void
}

; Function Attrs: nocallback nofree nounwind willreturn memory(argmem: write)
declare void @llvm.memset.p0.i64(ptr nocapture writeonly, i8, i64, i1 immarg) #1

; Function Attrs: mustprogress nounwind uwtable
define linkonce_odr hidden void @_ZNSt6vectorI9TreeClassSaIS0_EEC2Ev(ptr noundef nonnull align 8 dereferenceable(24) %this) unnamed_addr #2 comdat align 2 {
entry:
  %this.addr = alloca ptr, align 8
  store ptr %this, ptr %this.addr, align 8
  %this1 = load ptr, ptr %this.addr, align 8
  call void @_ZNSt12_Vector_baseI9TreeClassSaIS0_EEC2Ev(ptr noundef nonnull align 8 dereferenceable(24) %this1) #3
  ret void
}

; Function Attrs: mustprogress nounwind uwtable
define linkonce_odr hidden void @_ZNSt6vectorI9TreeClassSaIS0_EED2Ev(ptr noundef nonnull align 8 dereferenceable(24) %this) unnamed_addr #2 comdat align 2 {
entry:
  %this.addr = alloca ptr, align 8
  store ptr %this, ptr %this.addr, align 8
  %this1 = load ptr, ptr %this.addr, align 8
  %_M_impl = getelementptr inbounds %"struct.std::_Vector_base", ptr %this1, i32 0, i32 0
  %_M_start = getelementptr inbounds %"struct.std::_Vector_base<TreeClass, std::allocator<TreeClass>>::_Vector_impl_data", ptr %_M_impl, i32 0, i32 0
  %0 = load ptr, ptr %_M_start, align 8
  %_M_impl2 = getelementptr inbounds %"struct.std::_Vector_base", ptr %this1, i32 0, i32 0
  %_M_finish = getelementptr inbounds %"struct.std::_Vector_base<TreeClass, std::allocator<TreeClass>>::_Vector_impl_data", ptr %_M_impl2, i32 0, i32 1
  %1 = load ptr, ptr %_M_finish, align 8
  %call = call noundef nonnull align 1 dereferenceable(1) ptr @_ZNSt12_Vector_baseI9TreeClassSaIS0_EE19_M_get_Tp_allocatorEv(ptr noundef nonnull align 8 dereferenceable(24) %this1) #3
  call void @_ZSt8_DestroyIP9TreeClassS0_EvT_S2_RSaIT0_E(ptr noundef %0, ptr noundef %1, ptr noundef nonnull align 1 dereferenceable(1) %call)
  call void @_ZNSt12_Vector_baseI9TreeClassSaIS0_EED2Ev(ptr noundef nonnull align 8 dereferenceable(24) %this1) #3
  ret void
}

; Function Attrs: nounwind
declare i32 @__cxa_atexit(ptr, ptr, ptr) #3

; Function Attrs: nounwind uwtable
define internal void @__cxx_global_var_init.1() #0 section ".text.startup" {
entry:
  call void @llvm.memset.p0.i64(ptr align 8 @_ZL10treeNames_B5cxx11, i8 0, i64 48, i1 false)
  call void @_ZNSt3mapINSt7__cxx1112basic_stringIcSt11char_traitsIcESaIcEEEmSt4lessIS5_ESaISt4pairIKS5_mEEEC2Ev(ptr noundef nonnull align 8 dereferenceable(48) @_ZL10treeNames_B5cxx11) #3
  %0 = call i32 @__cxa_atexit(ptr @_ZNSt3mapINSt7__cxx1112basic_stringIcSt11char_traitsIcESaIcEEEmSt4lessIS5_ESaISt4pairIKS5_mEEED2Ev, ptr @_ZL10treeNames_B5cxx11, ptr @__dso_handle) #3
  ret void
}

; Function Attrs: mustprogress nounwind uwtable
define linkonce_odr dso_local void @_ZNSt3mapINSt7__cxx1112basic_stringIcSt11char_traitsIcESaIcEEEmSt4lessIS5_ESaISt4pairIKS5_mEEEC2Ev(ptr noundef nonnull align 8 dereferenceable(48) %this) unnamed_addr #2 comdat align 2 {
entry:
  %this.addr = alloca ptr, align 8
  store ptr %this, ptr %this.addr, align 8
  %this1 = load ptr, ptr %this.addr, align 8
  %_M_t = getelementptr inbounds %"class.std::map", ptr %this1, i32 0, i32 0
  call void @_ZNSt8_Rb_treeINSt7__cxx1112basic_stringIcSt11char_traitsIcESaIcEEESt4pairIKS5_mESt10_Select1stIS8_ESt4lessIS5_ESaIS8_EEC2Ev(ptr noundef nonnull align 8 dereferenceable(48) %_M_t) #3
  ret void
}

; Function Attrs: mustprogress nounwind uwtable
define linkonce_odr dso_local void @_ZNSt3mapINSt7__cxx1112basic_stringIcSt11char_traitsIcESaIcEEEmSt4lessIS5_ESaISt4pairIKS5_mEEED2Ev(ptr noundef nonnull align 8 dereferenceable(48) %this) unnamed_addr #2 comdat align 2 {
entry:
  %this.addr = alloca ptr, align 8
  store ptr %this, ptr %this.addr, align 8
  %this1 = load ptr, ptr %this.addr, align 8
  %_M_t = getelementptr inbounds %"class.std::map", ptr %this1, i32 0, i32 0
  call void @_ZNSt8_Rb_treeINSt7__cxx1112basic_stringIcSt11char_traitsIcESaIcEEESt4pairIKS5_mESt10_Select1stIS8_ESt4lessIS5_ESaIS8_EED2Ev(ptr noundef nonnull align 8 dereferenceable(48) %_M_t) #3
  ret void
}

; Function Attrs: mustprogress norecurse nounwind uwtable
define hidden noundef i32 @main(i32 noundef %argc, ptr noundef %argv) #4 {
entry:
  %retval.i82 = alloca i32, align 4
  %Lhs.addr.i83 = alloca ptr, align 8
  %Rhs.addr.i84 = alloca ptr, align 8
  %Length.addr.i85 = alloca i64, align 8
  %retval.i = alloca i32, align 4
  %Lhs.addr.i = alloca ptr, align 8
  %Rhs.addr.i = alloca ptr, align 8
  %Length.addr.i = alloca i64, align 8
  %RHS.i70 = alloca %"class.llvh::StringRef", align 8
  %this.addr.i71 = alloca ptr, align 8
  %RHS.i65 = alloca %"class.llvh::StringRef", align 8
  %this.addr.i66 = alloca ptr, align 8
  %this.addr.i55 = alloca ptr, align 8
  %Str.addr.i56 = alloca ptr, align 8
  %this.addr.i45 = alloca ptr, align 8
  %Str.addr.i46 = alloca ptr, align 8
  %this.addr.i35 = alloca ptr, align 8
  %Str.addr.i36 = alloca ptr, align 8
  %this.addr.i = alloca ptr, align 8
  %Str.addr.i = alloca ptr, align 8
  %LHS.i30 = alloca %"class.llvh::StringRef", align 8
  %RHS.i31 = alloca %"class.llvh::StringRef", align 8
  %agg.tmp.i32 = alloca %"class.llvh::StringRef", align 8
  %LHS.i = alloca %"class.llvh::StringRef", align 8
  %RHS.i = alloca %"class.llvh::StringRef", align 8
  %agg.tmp.i = alloca %"class.llvh::StringRef", align 8
  %retval = alloca i32, align 4
  %argc.addr = alloca i32, align 4
  %argv.addr = alloca ptr, align 8
  %agg.tmp = alloca %"class.llvh::StringRef", align 8
  %agg.tmp11 = alloca %"class.llvh::StringRef", align 8
  %agg.tmp18 = alloca %"class.llvh::StringRef", align 8
  %agg.tmp20 = alloca %"class.llvh::StringRef", align 8
  store i32 0, ptr %retval, align 4
  store i32 %argc, ptr %argc.addr, align 4
  store ptr %argv, ptr %argv.addr, align 8
  %0 = load i32, ptr %argc.addr, align 4
  %cmp = icmp ne i32 %0, 2
  br i1 %cmp, label %if.then, label %if.end

if.then:                                          ; preds = %entry
  %call = call noundef nonnull align 8 dereferenceable(36) ptr @_ZN4llvh4errsEv()
  %call1 = call noundef nonnull align 8 dereferenceable(36) ptr @_ZN4llvh11raw_ostreamlsEPKc(ptr noundef nonnull align 8 dereferenceable(36) %call, ptr noundef @.str)
  %1 = load ptr, ptr %argv.addr, align 8
  %arrayidx = getelementptr inbounds ptr, ptr %1, i64 0
  %2 = load ptr, ptr %arrayidx, align 8
  %call2 = call noundef nonnull align 8 dereferenceable(36) ptr @_ZN4llvh11raw_ostreamlsEPKc(ptr noundef nonnull align 8 dereferenceable(36) %call1, ptr noundef %2)
  %call3 = call noundef nonnull align 8 dereferenceable(36) ptr @_ZN4llvh11raw_ostreamlsEPKc(ptr noundef nonnull align 8 dereferenceable(36) %call2, ptr noundef @.str.2)
  store i32 1, ptr %retval, align 4
  br label %return

if.end:                                           ; preds = %entry
  call void @_ZL11initClassesv()
  %call4 = call noundef nonnull align 8 dereferenceable(36) ptr @_ZN4llvh4outsEv()
  %call5 = call noundef nonnull align 8 dereferenceable(36) ptr @_ZN4llvh11raw_ostreamlsEPKc(ptr noundef nonnull align 8 dereferenceable(36) %call4, ptr noundef @.str.3)
  %call6 = call noundef nonnull align 8 dereferenceable(36) ptr @_ZN4llvh4outsEv()
  %call7 = call noundef nonnull align 8 dereferenceable(36) ptr @_ZN4llvh11raw_ostreamlsEPKc(ptr noundef nonnull align 8 dereferenceable(36) %call6, ptr noundef @.str.4)
  %call8 = call noundef nonnull align 8 dereferenceable(36) ptr @_ZN4llvh4outsEv()
  %call9 = call noundef nonnull align 8 dereferenceable(36) ptr @_ZN4llvh11raw_ostreamlsEPKc(ptr noundef nonnull align 8 dereferenceable(36) %call8, ptr noundef @.str.5)
  %3 = load ptr, ptr %argv.addr, align 8
  %arrayidx10 = getelementptr inbounds ptr, ptr %3, i64 1
  %4 = load ptr, ptr %arrayidx10, align 8
  store ptr %agg.tmp, ptr %this.addr.i, align 8
  store ptr %4, ptr %Str.addr.i, align 8
  %this1.i = load ptr, ptr %this.addr.i, align 8
  %5 = load ptr, ptr %Str.addr.i, align 8
  store ptr %5, ptr %this1.i, align 8
  %Length.i = getelementptr inbounds %"class.llvh::StringRef", ptr %this1.i, i32 0, i32 1
  %6 = load ptr, ptr %Str.addr.i, align 8
  %tobool.i = icmp ne ptr %6, null
  br i1 %tobool.i, label %cond.true.i, label %cond.false.i

cond.true.i:                                      ; preds = %if.end
  %7 = load ptr, ptr %Str.addr.i, align 8
  %call.i34 = call i64 @strlen(ptr noundef %7) #12
  br label %_ZN4llvh9StringRefC2EPKc.exit

cond.false.i:                                     ; preds = %if.end
  br label %_ZN4llvh9StringRefC2EPKc.exit

_ZN4llvh9StringRefC2EPKc.exit:                    ; preds = %cond.false.i, %cond.true.i
  %cond.i = phi i64 [ %call.i34, %cond.true.i ], [ 0, %cond.false.i ]
  store i64 %cond.i, ptr %Length.i, align 8
  store ptr %agg.tmp11, ptr %this.addr.i35, align 8
  store ptr @.str.6, ptr %Str.addr.i36, align 8
  %this1.i37 = load ptr, ptr %this.addr.i35, align 8
  %8 = load ptr, ptr %Str.addr.i36, align 8
  store ptr %8, ptr %this1.i37, align 8
  %Length.i38 = getelementptr inbounds %"class.llvh::StringRef", ptr %this1.i37, i32 0, i32 1
  %9 = load ptr, ptr %Str.addr.i36, align 8
  %tobool.i39 = icmp ne ptr %9, null
  br i1 %tobool.i39, label %cond.true.i42, label %cond.false.i40

cond.true.i42:                                    ; preds = %_ZN4llvh9StringRefC2EPKc.exit
  %10 = load ptr, ptr %Str.addr.i36, align 8
  %call.i43 = call i64 @strlen(ptr noundef %10) #12
  br label %_ZN4llvh9StringRefC2EPKc.exit44

cond.false.i40:                                   ; preds = %_ZN4llvh9StringRefC2EPKc.exit
  br label %_ZN4llvh9StringRefC2EPKc.exit44

_ZN4llvh9StringRefC2EPKc.exit44:                  ; preds = %cond.false.i40, %cond.true.i42
  %cond.i41 = phi i64 [ %call.i43, %cond.true.i42 ], [ 0, %cond.false.i40 ]
  store i64 %cond.i41, ptr %Length.i38, align 8
  %11 = getelementptr inbounds { ptr, i64 }, ptr %agg.tmp, i32 0, i32 0
  %12 = load ptr, ptr %11, align 8
  %13 = getelementptr inbounds { ptr, i64 }, ptr %agg.tmp, i32 0, i32 1
  %14 = load i64, ptr %13, align 8
  %15 = getelementptr inbounds { ptr, i64 }, ptr %agg.tmp11, i32 0, i32 0
  %16 = load ptr, ptr %15, align 8
  %17 = getelementptr inbounds { ptr, i64 }, ptr %agg.tmp11, i32 0, i32 1
  %18 = load i64, ptr %17, align 8
  store ptr %12, ptr %LHS.i30, align 8
  %19 = getelementptr inbounds { ptr, i64 }, ptr %LHS.i30, i32 0, i32 1
  store i64 %14, ptr %19, align 8
  store ptr %16, ptr %RHS.i31, align 8
  %20 = getelementptr inbounds { ptr, i64 }, ptr %RHS.i31, i32 0, i32 1
  store i64 %18, ptr %20, align 8
  call void @llvm.memcpy.p0.p0.i64(ptr align 8 %agg.tmp.i32, ptr align 8 %RHS.i31, i64 16, i1 false)
  %21 = load ptr, ptr %agg.tmp.i32, align 8
  %22 = getelementptr inbounds { ptr, i64 }, ptr %agg.tmp.i32, i32 0, i32 1
  %23 = load i64, ptr %22, align 8
  store ptr %21, ptr %RHS.i65, align 8
  %24 = getelementptr inbounds { ptr, i64 }, ptr %RHS.i65, i32 0, i32 1
  store i64 %23, ptr %24, align 8
  store ptr %LHS.i30, ptr %this.addr.i66, align 8
  %this1.i67 = load ptr, ptr %this.addr.i66, align 8
  %Length.i68 = getelementptr inbounds %"class.llvh::StringRef", ptr %this1.i67, i32 0, i32 1
  %25 = load i64, ptr %Length.i68, align 8
  %Length2.i = getelementptr inbounds %"class.llvh::StringRef", ptr %RHS.i65, i32 0, i32 1
  %26 = load i64, ptr %Length2.i, align 8
  %cmp.i = icmp eq i64 %25, %26
  br i1 %cmp.i, label %land.rhs.i, label %_ZNK4llvh9StringRef6equalsES0_.exit

land.rhs.i:                                       ; preds = %_ZN4llvh9StringRefC2EPKc.exit44
  %27 = load ptr, ptr %this1.i67, align 8
  %28 = load ptr, ptr %RHS.i65, align 8
  %Length4.i = getelementptr inbounds %"class.llvh::StringRef", ptr %RHS.i65, i32 0, i32 1
  %29 = load i64, ptr %Length4.i, align 8
  store ptr %27, ptr %Lhs.addr.i83, align 8
  store ptr %28, ptr %Rhs.addr.i84, align 8
  store i64 %29, ptr %Length.addr.i85, align 8
  %30 = load i64, ptr %Length.addr.i85, align 8
  %cmp.i86 = icmp eq i64 %30, 0
  br i1 %cmp.i86, label %if.then.i89, label %if.end.i87

if.then.i89:                                      ; preds = %land.rhs.i
  store i32 0, ptr %retval.i82, align 4
  br label %_ZN4llvh9StringRef13compareMemoryEPKcS2_m.exit90

if.end.i87:                                       ; preds = %land.rhs.i
  %31 = load ptr, ptr %Lhs.addr.i83, align 8
  %32 = load ptr, ptr %Rhs.addr.i84, align 8
  %33 = load i64, ptr %Length.addr.i85, align 8
  %call.i88 = call i32 @memcmp(ptr noundef %31, ptr noundef %32, i64 noundef %33) #12
  store i32 %call.i88, ptr %retval.i82, align 4
  br label %_ZN4llvh9StringRef13compareMemoryEPKcS2_m.exit90

_ZN4llvh9StringRef13compareMemoryEPKcS2_m.exit90: ; preds = %if.end.i87, %if.then.i89
  %34 = load i32, ptr %retval.i82, align 4
  %cmp5.i = icmp eq i32 %34, 0
  br label %_ZNK4llvh9StringRef6equalsES0_.exit

_ZNK4llvh9StringRef6equalsES0_.exit:              ; preds = %_ZN4llvh9StringRef13compareMemoryEPKcS2_m.exit90, %_ZN4llvh9StringRefC2EPKc.exit44
  %35 = phi i1 [ false, %_ZN4llvh9StringRefC2EPKc.exit44 ], [ %cmp5.i, %_ZN4llvh9StringRef13compareMemoryEPKcS2_m.exit90 ]
  br i1 %35, label %if.then13, label %if.else

if.then13:                                        ; preds = %_ZNK4llvh9StringRef6equalsES0_.exit
  %call14 = call noundef nonnull align 8 dereferenceable(36) ptr @_ZN4llvh4outsEv()
  %call15 = call noundef nonnull align 8 dereferenceable(36) ptr @_ZN4llvh11raw_ostreamlsEPKc(ptr noundef nonnull align 8 dereferenceable(36) %call14, ptr noundef @.str.7)
  call void @_ZL7genEnumv()
  %call16 = call noundef nonnull align 8 dereferenceable(36) ptr @_ZN4llvh4outsEv()
  %call17 = call noundef nonnull align 8 dereferenceable(36) ptr @_ZN4llvh11raw_ostreamlsEPKc(ptr noundef nonnull align 8 dereferenceable(36) %call16, ptr noundef @.str.8)
  call void @_ZL10genGettersv()
  br label %if.end29

if.else:                                          ; preds = %_ZNK4llvh9StringRef6equalsES0_.exit
  %36 = load ptr, ptr %argv.addr, align 8
  %arrayidx19 = getelementptr inbounds ptr, ptr %36, i64 1
  %37 = load ptr, ptr %arrayidx19, align 8
  store ptr %agg.tmp18, ptr %this.addr.i45, align 8
  store ptr %37, ptr %Str.addr.i46, align 8
  %this1.i47 = load ptr, ptr %this.addr.i45, align 8
  %38 = load ptr, ptr %Str.addr.i46, align 8
  store ptr %38, ptr %this1.i47, align 8
  %Length.i48 = getelementptr inbounds %"class.llvh::StringRef", ptr %this1.i47, i32 0, i32 1
  %39 = load ptr, ptr %Str.addr.i46, align 8
  %tobool.i49 = icmp ne ptr %39, null
  br i1 %tobool.i49, label %cond.true.i52, label %cond.false.i50

cond.true.i52:                                    ; preds = %if.else
  %40 = load ptr, ptr %Str.addr.i46, align 8
  %call.i53 = call i64 @strlen(ptr noundef %40) #12
  br label %_ZN4llvh9StringRefC2EPKc.exit54

cond.false.i50:                                   ; preds = %if.else
  br label %_ZN4llvh9StringRefC2EPKc.exit54

_ZN4llvh9StringRefC2EPKc.exit54:                  ; preds = %cond.false.i50, %cond.true.i52
  %cond.i51 = phi i64 [ %call.i53, %cond.true.i52 ], [ 0, %cond.false.i50 ]
  store i64 %cond.i51, ptr %Length.i48, align 8
  store ptr %agg.tmp20, ptr %this.addr.i55, align 8
  store ptr @.str.9, ptr %Str.addr.i56, align 8
  %this1.i57 = load ptr, ptr %this.addr.i55, align 8
  %41 = load ptr, ptr %Str.addr.i56, align 8
  store ptr %41, ptr %this1.i57, align 8
  %Length.i58 = getelementptr inbounds %"class.llvh::StringRef", ptr %this1.i57, i32 0, i32 1
  %42 = load ptr, ptr %Str.addr.i56, align 8
  %tobool.i59 = icmp ne ptr %42, null
  br i1 %tobool.i59, label %cond.true.i62, label %cond.false.i60

cond.true.i62:                                    ; preds = %_ZN4llvh9StringRefC2EPKc.exit54
  %43 = load ptr, ptr %Str.addr.i56, align 8
  %call.i63 = call i64 @strlen(ptr noundef %43) #12
  br label %_ZN4llvh9StringRefC2EPKc.exit64

cond.false.i60:                                   ; preds = %_ZN4llvh9StringRefC2EPKc.exit54
  br label %_ZN4llvh9StringRefC2EPKc.exit64

_ZN4llvh9StringRefC2EPKc.exit64:                  ; preds = %cond.false.i60, %cond.true.i62
  %cond.i61 = phi i64 [ %call.i63, %cond.true.i62 ], [ 0, %cond.false.i60 ]
  store i64 %cond.i61, ptr %Length.i58, align 8
  %44 = getelementptr inbounds { ptr, i64 }, ptr %agg.tmp18, i32 0, i32 0
  %45 = load ptr, ptr %44, align 8
  %46 = getelementptr inbounds { ptr, i64 }, ptr %agg.tmp18, i32 0, i32 1
  %47 = load i64, ptr %46, align 8
  %48 = getelementptr inbounds { ptr, i64 }, ptr %agg.tmp20, i32 0, i32 0
  %49 = load ptr, ptr %48, align 8
  %50 = getelementptr inbounds { ptr, i64 }, ptr %agg.tmp20, i32 0, i32 1
  %51 = load i64, ptr %50, align 8
  store ptr %45, ptr %LHS.i, align 8
  %52 = getelementptr inbounds { ptr, i64 }, ptr %LHS.i, i32 0, i32 1
  store i64 %47, ptr %52, align 8
  store ptr %49, ptr %RHS.i, align 8
  %53 = getelementptr inbounds { ptr, i64 }, ptr %RHS.i, i32 0, i32 1
  store i64 %51, ptr %53, align 8
  call void @llvm.memcpy.p0.p0.i64(ptr align 8 %agg.tmp.i, ptr align 8 %RHS.i, i64 16, i1 false)
  %54 = load ptr, ptr %agg.tmp.i, align 8
  %55 = getelementptr inbounds { ptr, i64 }, ptr %agg.tmp.i, i32 0, i32 1
  %56 = load i64, ptr %55, align 8
  store ptr %54, ptr %RHS.i70, align 8
  %57 = getelementptr inbounds { ptr, i64 }, ptr %RHS.i70, i32 0, i32 1
  store i64 %56, ptr %57, align 8
  store ptr %LHS.i, ptr %this.addr.i71, align 8
  %this1.i72 = load ptr, ptr %this.addr.i71, align 8
  %Length.i73 = getelementptr inbounds %"class.llvh::StringRef", ptr %this1.i72, i32 0, i32 1
  %58 = load i64, ptr %Length.i73, align 8
  %Length2.i74 = getelementptr inbounds %"class.llvh::StringRef", ptr %RHS.i70, i32 0, i32 1
  %59 = load i64, ptr %Length2.i74, align 8
  %cmp.i75 = icmp eq i64 %58, %59
  br i1 %cmp.i75, label %land.rhs.i76, label %_ZNK4llvh9StringRef6equalsES0_.exit80

land.rhs.i76:                                     ; preds = %_ZN4llvh9StringRefC2EPKc.exit64
  %60 = load ptr, ptr %this1.i72, align 8
  %61 = load ptr, ptr %RHS.i70, align 8
  %Length4.i77 = getelementptr inbounds %"class.llvh::StringRef", ptr %RHS.i70, i32 0, i32 1
  %62 = load i64, ptr %Length4.i77, align 8
  store ptr %60, ptr %Lhs.addr.i, align 8
  store ptr %61, ptr %Rhs.addr.i, align 8
  store i64 %62, ptr %Length.addr.i, align 8
  %63 = load i64, ptr %Length.addr.i, align 8
  %cmp.i81 = icmp eq i64 %63, 0
  br i1 %cmp.i81, label %if.then.i, label %if.end.i

if.then.i:                                        ; preds = %land.rhs.i76
  store i32 0, ptr %retval.i, align 4
  br label %_ZN4llvh9StringRef13compareMemoryEPKcS2_m.exit

if.end.i:                                         ; preds = %land.rhs.i76
  %64 = load ptr, ptr %Lhs.addr.i, align 8
  %65 = load ptr, ptr %Rhs.addr.i, align 8
  %66 = load i64, ptr %Length.addr.i, align 8
  %call.i = call i32 @memcmp(ptr noundef %64, ptr noundef %65, i64 noundef %66) #12
  store i32 %call.i, ptr %retval.i, align 4
  br label %_ZN4llvh9StringRef13compareMemoryEPKcS2_m.exit

_ZN4llvh9StringRef13compareMemoryEPKcS2_m.exit:   ; preds = %if.end.i, %if.then.i
  %67 = load i32, ptr %retval.i, align 4
  %cmp5.i79 = icmp eq i32 %67, 0
  br label %_ZNK4llvh9StringRef6equalsES0_.exit80

_ZNK4llvh9StringRef6equalsES0_.exit80:            ; preds = %_ZN4llvh9StringRef13compareMemoryEPKcS2_m.exit, %_ZN4llvh9StringRefC2EPKc.exit64
  %68 = phi i1 [ false, %_ZN4llvh9StringRefC2EPKc.exit64 ], [ %cmp5.i79, %_ZN4llvh9StringRef13compareMemoryEPKcS2_m.exit ]
  br i1 %68, label %if.then22, label %if.else25

if.then22:                                        ; preds = %_ZNK4llvh9StringRef6equalsES0_.exit80
  %call23 = call noundef nonnull align 8 dereferenceable(36) ptr @_ZN4llvh4outsEv()
  %call24 = call noundef nonnull align 8 dereferenceable(36) ptr @_ZN4llvh11raw_ostreamlsEPKc(ptr noundef nonnull align 8 dereferenceable(36) %call23, ptr noundef @.str.10)
  call void @_ZL10genConvertv()
  br label %if.end28

if.else25:                                        ; preds = %_ZNK4llvh9StringRef6equalsES0_.exit80
  %call26 = call noundef nonnull align 8 dereferenceable(36) ptr @_ZN4llvh4errsEv()
  %call27 = call noundef nonnull align 8 dereferenceable(36) ptr @_ZN4llvh11raw_ostreamlsEPKc(ptr noundef nonnull align 8 dereferenceable(36) %call26, ptr noundef @.str.11)
  store i32 1, ptr %retval, align 4
  br label %return

if.end28:                                         ; preds = %if.then22
  br label %if.end29

if.end29:                                         ; preds = %if.end28, %if.then13
  store i32 0, ptr %retval, align 4
  br label %return

return:                                           ; preds = %if.end29, %if.else25, %if.then
  %69 = load i32, ptr %retval, align 4
  ret i32 %69
}

declare noundef nonnull align 8 dereferenceable(36) ptr @_ZN4llvh4errsEv() #5

; Function Attrs: mustprogress nounwind uwtable
define linkonce_odr hidden noundef nonnull align 8 dereferenceable(36) ptr @_ZN4llvh11raw_ostreamlsEPKc(ptr noundef nonnull align 8 dereferenceable(36) %this, ptr noundef %Str) #2 comdat align 2 {
entry:
  %this.addr.i = alloca ptr, align 8
  %Str.addr.i = alloca ptr, align 8
  %this.addr = alloca ptr, align 8
  %Str.addr = alloca ptr, align 8
  %agg.tmp = alloca %"class.llvh::StringRef", align 8
  store ptr %this, ptr %this.addr, align 8
  store ptr %Str, ptr %Str.addr, align 8
  %this1 = load ptr, ptr %this.addr, align 8
  %0 = load ptr, ptr %Str.addr, align 8
  store ptr %agg.tmp, ptr %this.addr.i, align 8
  store ptr %0, ptr %Str.addr.i, align 8
  %this1.i = load ptr, ptr %this.addr.i, align 8
  %1 = load ptr, ptr %Str.addr.i, align 8
  store ptr %1, ptr %this1.i, align 8
  %Length.i = getelementptr inbounds %"class.llvh::StringRef", ptr %this1.i, i32 0, i32 1
  %2 = load ptr, ptr %Str.addr.i, align 8
  %tobool.i = icmp ne ptr %2, null
  br i1 %tobool.i, label %cond.true.i, label %cond.false.i

cond.true.i:                                      ; preds = %entry
  %3 = load ptr, ptr %Str.addr.i, align 8
  %call.i = call i64 @strlen(ptr noundef %3) #12
  br label %_ZN4llvh9StringRefC2EPKc.exit

cond.false.i:                                     ; preds = %entry
  br label %_ZN4llvh9StringRefC2EPKc.exit

_ZN4llvh9StringRefC2EPKc.exit:                    ; preds = %cond.false.i, %cond.true.i
  %cond.i = phi i64 [ %call.i, %cond.true.i ], [ 0, %cond.false.i ]
  store i64 %cond.i, ptr %Length.i, align 8
  %4 = getelementptr inbounds { ptr, i64 }, ptr %agg.tmp, i32 0, i32 0
  %5 = load ptr, ptr %4, align 8
  %6 = getelementptr inbounds { ptr, i64 }, ptr %agg.tmp, i32 0, i32 1
  %7 = load i64, ptr %6, align 8
  %call = call noundef nonnull align 8 dereferenceable(36) ptr @_ZN4llvh11raw_ostreamlsENS_9StringRefE(ptr noundef nonnull align 8 dereferenceable(36) %this1, ptr %5, i64 %7)
  ret ptr %call
}

; Function Attrs: mustprogress nounwind uwtable
define internal void @_ZL11initClassesv() #2 {
entry:
  %this.addr.i13018 = alloca ptr, align 8
  %Str.addr.i13019 = alloca ptr, align 8
  %this.addr.i13008 = alloca ptr, align 8
  %Str.addr.i13009 = alloca ptr, align 8
  %this.addr.i12998 = alloca ptr, align 8
  %Str.addr.i12999 = alloca ptr, align 8
  %this.addr.i12988 = alloca ptr, align 8
  %Str.addr.i12989 = alloca ptr, align 8
  %this.addr.i12978 = alloca ptr, align 8
  %Str.addr.i12979 = alloca ptr, align 8
  %this.addr.i12968 = alloca ptr, align 8
  %Str.addr.i12969 = alloca ptr, align 8
  %this.addr.i12958 = alloca ptr, align 8
  %Str.addr.i12959 = alloca ptr, align 8
  %this.addr.i12948 = alloca ptr, align 8
  %Str.addr.i12949 = alloca ptr, align 8
  %this.addr.i12938 = alloca ptr, align 8
  %Str.addr.i12939 = alloca ptr, align 8
  %this.addr.i12928 = alloca ptr, align 8
  %Str.addr.i12929 = alloca ptr, align 8
  %this.addr.i12918 = alloca ptr, align 8
  %Str.addr.i12919 = alloca ptr, align 8
  %this.addr.i12908 = alloca ptr, align 8
  %Str.addr.i12909 = alloca ptr, align 8
  %this.addr.i12898 = alloca ptr, align 8
  %Str.addr.i12899 = alloca ptr, align 8
  %this.addr.i12888 = alloca ptr, align 8
  %Str.addr.i12889 = alloca ptr, align 8
  %this.addr.i12878 = alloca ptr, align 8
  %Str.addr.i12879 = alloca ptr, align 8
  %this.addr.i12868 = alloca ptr, align 8
  %Str.addr.i12869 = alloca ptr, align 8
  %this.addr.i12858 = alloca ptr, align 8
  %Str.addr.i12859 = alloca ptr, align 8
  %this.addr.i12848 = alloca ptr, align 8
  %Str.addr.i12849 = alloca ptr, align 8
  %this.addr.i12838 = alloca ptr, align 8
  %Str.addr.i12839 = alloca ptr, align 8
  %this.addr.i12828 = alloca ptr, align 8
  %Str.addr.i12829 = alloca ptr, align 8
  %this.addr.i12818 = alloca ptr, align 8
  %Str.addr.i12819 = alloca ptr, align 8
  %this.addr.i12808 = alloca ptr, align 8
  %Str.addr.i12809 = alloca ptr, align 8
  %this.addr.i12798 = alloca ptr, align 8
  %Str.addr.i12799 = alloca ptr, align 8
  %this.addr.i12788 = alloca ptr, align 8
  %Str.addr.i12789 = alloca ptr, align 8
  %this.addr.i12778 = alloca ptr, align 8
  %Str.addr.i12779 = alloca ptr, align 8
  %this.addr.i12768 = alloca ptr, align 8
  %Str.addr.i12769 = alloca ptr, align 8
  %this.addr.i12758 = alloca ptr, align 8
  %Str.addr.i12759 = alloca ptr, align 8
  %this.addr.i12748 = alloca ptr, align 8
  %Str.addr.i12749 = alloca ptr, align 8
  %this.addr.i12738 = alloca ptr, align 8
  %Str.addr.i12739 = alloca ptr, align 8
  %this.addr.i12728 = alloca ptr, align 8
  %Str.addr.i12729 = alloca ptr, align 8
  %this.addr.i12718 = alloca ptr, align 8
  %Str.addr.i12719 = alloca ptr, align 8
  %this.addr.i12708 = alloca ptr, align 8
  %Str.addr.i12709 = alloca ptr, align 8
  %this.addr.i12698 = alloca ptr, align 8
  %Str.addr.i12699 = alloca ptr, align 8
  %this.addr.i12688 = alloca ptr, align 8
  %Str.addr.i12689 = alloca ptr, align 8
  %this.addr.i12678 = alloca ptr, align 8
  %Str.addr.i12679 = alloca ptr, align 8
  %this.addr.i12668 = alloca ptr, align 8
  %Str.addr.i12669 = alloca ptr, align 8
  %this.addr.i12658 = alloca ptr, align 8
  %Str.addr.i12659 = alloca ptr, align 8
  %this.addr.i12648 = alloca ptr, align 8
  %Str.addr.i12649 = alloca ptr, align 8
  %this.addr.i12638 = alloca ptr, align 8
  %Str.addr.i12639 = alloca ptr, align 8
  %this.addr.i12628 = alloca ptr, align 8
  %Str.addr.i12629 = alloca ptr, align 8
  %this.addr.i12618 = alloca ptr, align 8
  %Str.addr.i12619 = alloca ptr, align 8
  %this.addr.i12608 = alloca ptr, align 8
  %Str.addr.i12609 = alloca ptr, align 8
  %this.addr.i12598 = alloca ptr, align 8
  %Str.addr.i12599 = alloca ptr, align 8
  %this.addr.i12588 = alloca ptr, align 8
  %Str.addr.i12589 = alloca ptr, align 8
  %this.addr.i12578 = alloca ptr, align 8
  %Str.addr.i12579 = alloca ptr, align 8
  %this.addr.i12568 = alloca ptr, align 8
  %Str.addr.i12569 = alloca ptr, align 8
  %this.addr.i12558 = alloca ptr, align 8
  %Str.addr.i12559 = alloca ptr, align 8
  %this.addr.i12548 = alloca ptr, align 8
  %Str.addr.i12549 = alloca ptr, align 8
  %this.addr.i12538 = alloca ptr, align 8
  %Str.addr.i12539 = alloca ptr, align 8
  %this.addr.i12528 = alloca ptr, align 8
  %Str.addr.i12529 = alloca ptr, align 8
  %this.addr.i12518 = alloca ptr, align 8
  %Str.addr.i12519 = alloca ptr, align 8
  %this.addr.i12508 = alloca ptr, align 8
  %Str.addr.i12509 = alloca ptr, align 8
  %this.addr.i12498 = alloca ptr, align 8
  %Str.addr.i12499 = alloca ptr, align 8
  %this.addr.i12488 = alloca ptr, align 8
  %Str.addr.i12489 = alloca ptr, align 8
  %this.addr.i12478 = alloca ptr, align 8
  %Str.addr.i12479 = alloca ptr, align 8
  %this.addr.i12468 = alloca ptr, align 8
  %Str.addr.i12469 = alloca ptr, align 8
  %this.addr.i12458 = alloca ptr, align 8
  %Str.addr.i12459 = alloca ptr, align 8
  %this.addr.i12448 = alloca ptr, align 8
  %Str.addr.i12449 = alloca ptr, align 8
  %this.addr.i12438 = alloca ptr, align 8
  %Str.addr.i12439 = alloca ptr, align 8
  %this.addr.i12428 = alloca ptr, align 8
  %Str.addr.i12429 = alloca ptr, align 8
  %this.addr.i12418 = alloca ptr, align 8
  %Str.addr.i12419 = alloca ptr, align 8
  %this.addr.i12408 = alloca ptr, align 8
  %Str.addr.i12409 = alloca ptr, align 8
  %this.addr.i12398 = alloca ptr, align 8
  %Str.addr.i12399 = alloca ptr, align 8
  %this.addr.i12388 = alloca ptr, align 8
  %Str.addr.i12389 = alloca ptr, align 8
  %this.addr.i12378 = alloca ptr, align 8
  %Str.addr.i12379 = alloca ptr, align 8
  %this.addr.i12368 = alloca ptr, align 8
  %Str.addr.i12369 = alloca ptr, align 8
  %this.addr.i12358 = alloca ptr, align 8
  %Str.addr.i12359 = alloca ptr, align 8
  %this.addr.i12348 = alloca ptr, align 8
  %Str.addr.i12349 = alloca ptr, align 8
  %this.addr.i12338 = alloca ptr, align 8
  %Str.addr.i12339 = alloca ptr, align 8
  %this.addr.i12328 = alloca ptr, align 8
  %Str.addr.i12329 = alloca ptr, align 8
  %this.addr.i12318 = alloca ptr, align 8
  %Str.addr.i12319 = alloca ptr, align 8
  %this.addr.i12308 = alloca ptr, align 8
  %Str.addr.i12309 = alloca ptr, align 8
  %this.addr.i12298 = alloca ptr, align 8
  %Str.addr.i12299 = alloca ptr, align 8
  %this.addr.i12288 = alloca ptr, align 8
  %Str.addr.i12289 = alloca ptr, align 8
  %this.addr.i12278 = alloca ptr, align 8
  %Str.addr.i12279 = alloca ptr, align 8
  %this.addr.i12268 = alloca ptr, align 8
  %Str.addr.i12269 = alloca ptr, align 8
  %this.addr.i12258 = alloca ptr, align 8
  %Str.addr.i12259 = alloca ptr, align 8
  %this.addr.i12248 = alloca ptr, align 8
  %Str.addr.i12249 = alloca ptr, align 8
  %this.addr.i12238 = alloca ptr, align 8
  %Str.addr.i12239 = alloca ptr, align 8
  %this.addr.i12228 = alloca ptr, align 8
  %Str.addr.i12229 = alloca ptr, align 8
  %this.addr.i12218 = alloca ptr, align 8
  %Str.addr.i12219 = alloca ptr, align 8
  %this.addr.i12208 = alloca ptr, align 8
  %Str.addr.i12209 = alloca ptr, align 8
  %this.addr.i12198 = alloca ptr, align 8
  %Str.addr.i12199 = alloca ptr, align 8
  %this.addr.i12188 = alloca ptr, align 8
  %Str.addr.i12189 = alloca ptr, align 8
  %this.addr.i12178 = alloca ptr, align 8
  %Str.addr.i12179 = alloca ptr, align 8
  %this.addr.i12168 = alloca ptr, align 8
  %Str.addr.i12169 = alloca ptr, align 8
  %this.addr.i12158 = alloca ptr, align 8
  %Str.addr.i12159 = alloca ptr, align 8
  %this.addr.i12148 = alloca ptr, align 8
  %Str.addr.i12149 = alloca ptr, align 8
  %this.addr.i12138 = alloca ptr, align 8
  %Str.addr.i12139 = alloca ptr, align 8
  %this.addr.i12128 = alloca ptr, align 8
  %Str.addr.i12129 = alloca ptr, align 8
  %this.addr.i12118 = alloca ptr, align 8
  %Str.addr.i12119 = alloca ptr, align 8
  %this.addr.i12108 = alloca ptr, align 8
  %Str.addr.i12109 = alloca ptr, align 8
  %this.addr.i12098 = alloca ptr, align 8
  %Str.addr.i12099 = alloca ptr, align 8
  %this.addr.i12088 = alloca ptr, align 8
  %Str.addr.i12089 = alloca ptr, align 8
  %this.addr.i12078 = alloca ptr, align 8
  %Str.addr.i12079 = alloca ptr, align 8
  %this.addr.i12068 = alloca ptr, align 8
  %Str.addr.i12069 = alloca ptr, align 8
  %this.addr.i12058 = alloca ptr, align 8
  %Str.addr.i12059 = alloca ptr, align 8
  %this.addr.i12048 = alloca ptr, align 8
  %Str.addr.i12049 = alloca ptr, align 8
  %this.addr.i12038 = alloca ptr, align 8
  %Str.addr.i12039 = alloca ptr, align 8
  %this.addr.i12028 = alloca ptr, align 8
  %Str.addr.i12029 = alloca ptr, align 8
  %this.addr.i12018 = alloca ptr, align 8
  %Str.addr.i12019 = alloca ptr, align 8
  %this.addr.i12008 = alloca ptr, align 8
  %Str.addr.i12009 = alloca ptr, align 8
  %this.addr.i11998 = alloca ptr, align 8
  %Str.addr.i11999 = alloca ptr, align 8
  %this.addr.i11988 = alloca ptr, align 8
  %Str.addr.i11989 = alloca ptr, align 8
  %this.addr.i11978 = alloca ptr, align 8
  %Str.addr.i11979 = alloca ptr, align 8
  %this.addr.i11968 = alloca ptr, align 8
  %Str.addr.i11969 = alloca ptr, align 8
  %this.addr.i11958 = alloca ptr, align 8
  %Str.addr.i11959 = alloca ptr, align 8
  %this.addr.i11948 = alloca ptr, align 8
  %Str.addr.i11949 = alloca ptr, align 8
  %this.addr.i11938 = alloca ptr, align 8
  %Str.addr.i11939 = alloca ptr, align 8
  %this.addr.i11928 = alloca ptr, align 8
  %Str.addr.i11929 = alloca ptr, align 8
  %this.addr.i11918 = alloca ptr, align 8
  %Str.addr.i11919 = alloca ptr, align 8
  %this.addr.i11908 = alloca ptr, align 8
  %Str.addr.i11909 = alloca ptr, align 8
  %this.addr.i11898 = alloca ptr, align 8
  %Str.addr.i11899 = alloca ptr, align 8
  %this.addr.i11888 = alloca ptr, align 8
  %Str.addr.i11889 = alloca ptr, align 8
  %this.addr.i11878 = alloca ptr, align 8
  %Str.addr.i11879 = alloca ptr, align 8
  %this.addr.i11868 = alloca ptr, align 8
  %Str.addr.i11869 = alloca ptr, align 8
  %this.addr.i11858 = alloca ptr, align 8
  %Str.addr.i11859 = alloca ptr, align 8
  %this.addr.i11848 = alloca ptr, align 8
  %Str.addr.i11849 = alloca ptr, align 8
  %this.addr.i11838 = alloca ptr, align 8
  %Str.addr.i11839 = alloca ptr, align 8
  %this.addr.i11828 = alloca ptr, align 8
  %Str.addr.i11829 = alloca ptr, align 8
  %this.addr.i11818 = alloca ptr, align 8
  %Str.addr.i11819 = alloca ptr, align 8
  %this.addr.i11808 = alloca ptr, align 8
  %Str.addr.i11809 = alloca ptr, align 8
  %this.addr.i11798 = alloca ptr, align 8
  %Str.addr.i11799 = alloca ptr, align 8
  %this.addr.i11788 = alloca ptr, align 8
  %Str.addr.i11789 = alloca ptr, align 8
  %this.addr.i11778 = alloca ptr, align 8
  %Str.addr.i11779 = alloca ptr, align 8
  %this.addr.i11768 = alloca ptr, align 8
  %Str.addr.i11769 = alloca ptr, align 8
  %this.addr.i11758 = alloca ptr, align 8
  %Str.addr.i11759 = alloca ptr, align 8
  %this.addr.i11748 = alloca ptr, align 8
  %Str.addr.i11749 = alloca ptr, align 8
  %this.addr.i11738 = alloca ptr, align 8
  %Str.addr.i11739 = alloca ptr, align 8
  %this.addr.i11728 = alloca ptr, align 8
  %Str.addr.i11729 = alloca ptr, align 8
  %this.addr.i11718 = alloca ptr, align 8
  %Str.addr.i11719 = alloca ptr, align 8
  %this.addr.i11708 = alloca ptr, align 8
  %Str.addr.i11709 = alloca ptr, align 8
  %this.addr.i11698 = alloca ptr, align 8
  %Str.addr.i11699 = alloca ptr, align 8
  %this.addr.i11688 = alloca ptr, align 8
  %Str.addr.i11689 = alloca ptr, align 8
  %this.addr.i11678 = alloca ptr, align 8
  %Str.addr.i11679 = alloca ptr, align 8
  %this.addr.i11668 = alloca ptr, align 8
  %Str.addr.i11669 = alloca ptr, align 8
  %this.addr.i11658 = alloca ptr, align 8
  %Str.addr.i11659 = alloca ptr, align 8
  %this.addr.i11648 = alloca ptr, align 8
  %Str.addr.i11649 = alloca ptr, align 8
  %this.addr.i11638 = alloca ptr, align 8
  %Str.addr.i11639 = alloca ptr, align 8
  %this.addr.i11628 = alloca ptr, align 8
  %Str.addr.i11629 = alloca ptr, align 8
  %this.addr.i11618 = alloca ptr, align 8
  %Str.addr.i11619 = alloca ptr, align 8
  %this.addr.i11608 = alloca ptr, align 8
  %Str.addr.i11609 = alloca ptr, align 8
  %this.addr.i11598 = alloca ptr, align 8
  %Str.addr.i11599 = alloca ptr, align 8
  %this.addr.i11588 = alloca ptr, align 8
  %Str.addr.i11589 = alloca ptr, align 8
  %this.addr.i11578 = alloca ptr, align 8
  %Str.addr.i11579 = alloca ptr, align 8
  %this.addr.i11568 = alloca ptr, align 8
  %Str.addr.i11569 = alloca ptr, align 8
  %this.addr.i11558 = alloca ptr, align 8
  %Str.addr.i11559 = alloca ptr, align 8
  %this.addr.i11548 = alloca ptr, align 8
  %Str.addr.i11549 = alloca ptr, align 8
  %this.addr.i11538 = alloca ptr, align 8
  %Str.addr.i11539 = alloca ptr, align 8
  %this.addr.i11528 = alloca ptr, align 8
  %Str.addr.i11529 = alloca ptr, align 8
  %this.addr.i11518 = alloca ptr, align 8
  %Str.addr.i11519 = alloca ptr, align 8
  %this.addr.i11508 = alloca ptr, align 8
  %Str.addr.i11509 = alloca ptr, align 8
  %this.addr.i11498 = alloca ptr, align 8
  %Str.addr.i11499 = alloca ptr, align 8
  %this.addr.i11488 = alloca ptr, align 8
  %Str.addr.i11489 = alloca ptr, align 8
  %this.addr.i11478 = alloca ptr, align 8
  %Str.addr.i11479 = alloca ptr, align 8
  %this.addr.i11468 = alloca ptr, align 8
  %Str.addr.i11469 = alloca ptr, align 8
  %this.addr.i11458 = alloca ptr, align 8
  %Str.addr.i11459 = alloca ptr, align 8
  %this.addr.i11448 = alloca ptr, align 8
  %Str.addr.i11449 = alloca ptr, align 8
  %this.addr.i11438 = alloca ptr, align 8
  %Str.addr.i11439 = alloca ptr, align 8
  %this.addr.i11428 = alloca ptr, align 8
  %Str.addr.i11429 = alloca ptr, align 8
  %this.addr.i11418 = alloca ptr, align 8
  %Str.addr.i11419 = alloca ptr, align 8
  %this.addr.i11408 = alloca ptr, align 8
  %Str.addr.i11409 = alloca ptr, align 8
  %this.addr.i11398 = alloca ptr, align 8
  %Str.addr.i11399 = alloca ptr, align 8
  %this.addr.i11388 = alloca ptr, align 8
  %Str.addr.i11389 = alloca ptr, align 8
  %this.addr.i11378 = alloca ptr, align 8
  %Str.addr.i11379 = alloca ptr, align 8
  %this.addr.i11368 = alloca ptr, align 8
  %Str.addr.i11369 = alloca ptr, align 8
  %this.addr.i11358 = alloca ptr, align 8
  %Str.addr.i11359 = alloca ptr, align 8
  %this.addr.i11348 = alloca ptr, align 8
  %Str.addr.i11349 = alloca ptr, align 8
  %this.addr.i11338 = alloca ptr, align 8
  %Str.addr.i11339 = alloca ptr, align 8
  %this.addr.i11328 = alloca ptr, align 8
  %Str.addr.i11329 = alloca ptr, align 8
  %this.addr.i11318 = alloca ptr, align 8
  %Str.addr.i11319 = alloca ptr, align 8
  %this.addr.i11308 = alloca ptr, align 8
  %Str.addr.i11309 = alloca ptr, align 8
  %this.addr.i11298 = alloca ptr, align 8
  %Str.addr.i11299 = alloca ptr, align 8
  %this.addr.i11288 = alloca ptr, align 8
  %Str.addr.i11289 = alloca ptr, align 8
  %this.addr.i11278 = alloca ptr, align 8
  %Str.addr.i11279 = alloca ptr, align 8
  %this.addr.i11268 = alloca ptr, align 8
  %Str.addr.i11269 = alloca ptr, align 8
  %this.addr.i11258 = alloca ptr, align 8
  %Str.addr.i11259 = alloca ptr, align 8
  %this.addr.i11248 = alloca ptr, align 8
  %Str.addr.i11249 = alloca ptr, align 8
  %this.addr.i11238 = alloca ptr, align 8
  %Str.addr.i11239 = alloca ptr, align 8
  %this.addr.i11228 = alloca ptr, align 8
  %Str.addr.i11229 = alloca ptr, align 8
  %this.addr.i11218 = alloca ptr, align 8
  %Str.addr.i11219 = alloca ptr, align 8
  %this.addr.i11208 = alloca ptr, align 8
  %Str.addr.i11209 = alloca ptr, align 8
  %this.addr.i11198 = alloca ptr, align 8
  %Str.addr.i11199 = alloca ptr, align 8
  %this.addr.i11188 = alloca ptr, align 8
  %Str.addr.i11189 = alloca ptr, align 8
  %this.addr.i11178 = alloca ptr, align 8
  %Str.addr.i11179 = alloca ptr, align 8
  %this.addr.i11168 = alloca ptr, align 8
  %Str.addr.i11169 = alloca ptr, align 8
  %this.addr.i11158 = alloca ptr, align 8
  %Str.addr.i11159 = alloca ptr, align 8
  %this.addr.i11148 = alloca ptr, align 8
  %Str.addr.i11149 = alloca ptr, align 8
  %this.addr.i11138 = alloca ptr, align 8
  %Str.addr.i11139 = alloca ptr, align 8
  %this.addr.i11128 = alloca ptr, align 8
  %Str.addr.i11129 = alloca ptr, align 8
  %this.addr.i11118 = alloca ptr, align 8
  %Str.addr.i11119 = alloca ptr, align 8
  %this.addr.i11108 = alloca ptr, align 8
  %Str.addr.i11109 = alloca ptr, align 8
  %this.addr.i11098 = alloca ptr, align 8
  %Str.addr.i11099 = alloca ptr, align 8
  %this.addr.i11088 = alloca ptr, align 8
  %Str.addr.i11089 = alloca ptr, align 8
  %this.addr.i11078 = alloca ptr, align 8
  %Str.addr.i11079 = alloca ptr, align 8
  %this.addr.i11068 = alloca ptr, align 8
  %Str.addr.i11069 = alloca ptr, align 8
  %this.addr.i11058 = alloca ptr, align 8
  %Str.addr.i11059 = alloca ptr, align 8
  %this.addr.i11048 = alloca ptr, align 8
  %Str.addr.i11049 = alloca ptr, align 8
  %this.addr.i11038 = alloca ptr, align 8
  %Str.addr.i11039 = alloca ptr, align 8
  %this.addr.i11028 = alloca ptr, align 8
  %Str.addr.i11029 = alloca ptr, align 8
  %this.addr.i11018 = alloca ptr, align 8
  %Str.addr.i11019 = alloca ptr, align 8
  %this.addr.i11008 = alloca ptr, align 8
  %Str.addr.i11009 = alloca ptr, align 8
  %this.addr.i10998 = alloca ptr, align 8
  %Str.addr.i10999 = alloca ptr, align 8
  %this.addr.i10988 = alloca ptr, align 8
  %Str.addr.i10989 = alloca ptr, align 8
  %this.addr.i10978 = alloca ptr, align 8
  %Str.addr.i10979 = alloca ptr, align 8
  %this.addr.i10968 = alloca ptr, align 8
  %Str.addr.i10969 = alloca ptr, align 8
  %this.addr.i10958 = alloca ptr, align 8
  %Str.addr.i10959 = alloca ptr, align 8
  %this.addr.i10948 = alloca ptr, align 8
  %Str.addr.i10949 = alloca ptr, align 8
  %this.addr.i10938 = alloca ptr, align 8
  %Str.addr.i10939 = alloca ptr, align 8
  %this.addr.i10928 = alloca ptr, align 8
  %Str.addr.i10929 = alloca ptr, align 8
  %this.addr.i10918 = alloca ptr, align 8
  %Str.addr.i10919 = alloca ptr, align 8
  %this.addr.i10908 = alloca ptr, align 8
  %Str.addr.i10909 = alloca ptr, align 8
  %this.addr.i10898 = alloca ptr, align 8
  %Str.addr.i10899 = alloca ptr, align 8
  %this.addr.i10888 = alloca ptr, align 8
  %Str.addr.i10889 = alloca ptr, align 8
  %this.addr.i10878 = alloca ptr, align 8
  %Str.addr.i10879 = alloca ptr, align 8
  %this.addr.i10868 = alloca ptr, align 8
  %Str.addr.i10869 = alloca ptr, align 8
  %this.addr.i10858 = alloca ptr, align 8
  %Str.addr.i10859 = alloca ptr, align 8
  %this.addr.i10848 = alloca ptr, align 8
  %Str.addr.i10849 = alloca ptr, align 8
  %this.addr.i10838 = alloca ptr, align 8
  %Str.addr.i10839 = alloca ptr, align 8
  %this.addr.i10828 = alloca ptr, align 8
  %Str.addr.i10829 = alloca ptr, align 8
  %this.addr.i10818 = alloca ptr, align 8
  %Str.addr.i10819 = alloca ptr, align 8
  %this.addr.i10808 = alloca ptr, align 8
  %Str.addr.i10809 = alloca ptr, align 8
  %this.addr.i10798 = alloca ptr, align 8
  %Str.addr.i10799 = alloca ptr, align 8
  %this.addr.i10788 = alloca ptr, align 8
  %Str.addr.i10789 = alloca ptr, align 8
  %this.addr.i10778 = alloca ptr, align 8
  %Str.addr.i10779 = alloca ptr, align 8
  %this.addr.i10768 = alloca ptr, align 8
  %Str.addr.i10769 = alloca ptr, align 8
  %this.addr.i10758 = alloca ptr, align 8
  %Str.addr.i10759 = alloca ptr, align 8
  %this.addr.i10748 = alloca ptr, align 8
  %Str.addr.i10749 = alloca ptr, align 8
  %this.addr.i10738 = alloca ptr, align 8
  %Str.addr.i10739 = alloca ptr, align 8
  %this.addr.i10728 = alloca ptr, align 8
  %Str.addr.i10729 = alloca ptr, align 8
  %this.addr.i10718 = alloca ptr, align 8
  %Str.addr.i10719 = alloca ptr, align 8
  %this.addr.i10708 = alloca ptr, align 8
  %Str.addr.i10709 = alloca ptr, align 8
  %this.addr.i10698 = alloca ptr, align 8
  %Str.addr.i10699 = alloca ptr, align 8
  %this.addr.i10688 = alloca ptr, align 8
  %Str.addr.i10689 = alloca ptr, align 8
  %this.addr.i10678 = alloca ptr, align 8
  %Str.addr.i10679 = alloca ptr, align 8
  %this.addr.i10668 = alloca ptr, align 8
  %Str.addr.i10669 = alloca ptr, align 8
  %this.addr.i10658 = alloca ptr, align 8
  %Str.addr.i10659 = alloca ptr, align 8
  %this.addr.i10648 = alloca ptr, align 8
  %Str.addr.i10649 = alloca ptr, align 8
  %this.addr.i10638 = alloca ptr, align 8
  %Str.addr.i10639 = alloca ptr, align 8
  %this.addr.i10628 = alloca ptr, align 8
  %Str.addr.i10629 = alloca ptr, align 8
  %this.addr.i10618 = alloca ptr, align 8
  %Str.addr.i10619 = alloca ptr, align 8
  %this.addr.i10608 = alloca ptr, align 8
  %Str.addr.i10609 = alloca ptr, align 8
  %this.addr.i10598 = alloca ptr, align 8
  %Str.addr.i10599 = alloca ptr, align 8
  %this.addr.i10588 = alloca ptr, align 8
  %Str.addr.i10589 = alloca ptr, align 8
  %this.addr.i10578 = alloca ptr, align 8
  %Str.addr.i10579 = alloca ptr, align 8
  %this.addr.i10568 = alloca ptr, align 8
  %Str.addr.i10569 = alloca ptr, align 8
  %this.addr.i10558 = alloca ptr, align 8
  %Str.addr.i10559 = alloca ptr, align 8
  %this.addr.i10548 = alloca ptr, align 8
  %Str.addr.i10549 = alloca ptr, align 8
  %this.addr.i10538 = alloca ptr, align 8
  %Str.addr.i10539 = alloca ptr, align 8
  %this.addr.i10528 = alloca ptr, align 8
  %Str.addr.i10529 = alloca ptr, align 8
  %this.addr.i10518 = alloca ptr, align 8
  %Str.addr.i10519 = alloca ptr, align 8
  %this.addr.i10508 = alloca ptr, align 8
  %Str.addr.i10509 = alloca ptr, align 8
  %this.addr.i10498 = alloca ptr, align 8
  %Str.addr.i10499 = alloca ptr, align 8
  %this.addr.i10488 = alloca ptr, align 8
  %Str.addr.i10489 = alloca ptr, align 8
  %this.addr.i10478 = alloca ptr, align 8
  %Str.addr.i10479 = alloca ptr, align 8
  %this.addr.i10468 = alloca ptr, align 8
  %Str.addr.i10469 = alloca ptr, align 8
  %this.addr.i10458 = alloca ptr, align 8
  %Str.addr.i10459 = alloca ptr, align 8
  %this.addr.i10448 = alloca ptr, align 8
  %Str.addr.i10449 = alloca ptr, align 8
  %this.addr.i10438 = alloca ptr, align 8
  %Str.addr.i10439 = alloca ptr, align 8
  %this.addr.i10428 = alloca ptr, align 8
  %Str.addr.i10429 = alloca ptr, align 8
  %this.addr.i10418 = alloca ptr, align 8
  %Str.addr.i10419 = alloca ptr, align 8
  %this.addr.i10408 = alloca ptr, align 8
  %Str.addr.i10409 = alloca ptr, align 8
  %this.addr.i10398 = alloca ptr, align 8
  %Str.addr.i10399 = alloca ptr, align 8
  %this.addr.i10388 = alloca ptr, align 8
  %Str.addr.i10389 = alloca ptr, align 8
  %this.addr.i10378 = alloca ptr, align 8
  %Str.addr.i10379 = alloca ptr, align 8
  %this.addr.i10368 = alloca ptr, align 8
  %Str.addr.i10369 = alloca ptr, align 8
  %this.addr.i10358 = alloca ptr, align 8
  %Str.addr.i10359 = alloca ptr, align 8
  %this.addr.i10348 = alloca ptr, align 8
  %Str.addr.i10349 = alloca ptr, align 8
  %this.addr.i10338 = alloca ptr, align 8
  %Str.addr.i10339 = alloca ptr, align 8
  %this.addr.i10328 = alloca ptr, align 8
  %Str.addr.i10329 = alloca ptr, align 8
  %this.addr.i10318 = alloca ptr, align 8
  %Str.addr.i10319 = alloca ptr, align 8
  %this.addr.i10308 = alloca ptr, align 8
  %Str.addr.i10309 = alloca ptr, align 8
  %this.addr.i10298 = alloca ptr, align 8
  %Str.addr.i10299 = alloca ptr, align 8
  %this.addr.i10288 = alloca ptr, align 8
  %Str.addr.i10289 = alloca ptr, align 8
  %this.addr.i10278 = alloca ptr, align 8
  %Str.addr.i10279 = alloca ptr, align 8
  %this.addr.i10268 = alloca ptr, align 8
  %Str.addr.i10269 = alloca ptr, align 8
  %this.addr.i10258 = alloca ptr, align 8
  %Str.addr.i10259 = alloca ptr, align 8
  %this.addr.i10248 = alloca ptr, align 8
  %Str.addr.i10249 = alloca ptr, align 8
  %this.addr.i10238 = alloca ptr, align 8
  %Str.addr.i10239 = alloca ptr, align 8
  %this.addr.i10228 = alloca ptr, align 8
  %Str.addr.i10229 = alloca ptr, align 8
  %this.addr.i10218 = alloca ptr, align 8
  %Str.addr.i10219 = alloca ptr, align 8
  %this.addr.i10208 = alloca ptr, align 8
  %Str.addr.i10209 = alloca ptr, align 8
  %this.addr.i10198 = alloca ptr, align 8
  %Str.addr.i10199 = alloca ptr, align 8
  %this.addr.i10188 = alloca ptr, align 8
  %Str.addr.i10189 = alloca ptr, align 8
  %this.addr.i10178 = alloca ptr, align 8
  %Str.addr.i10179 = alloca ptr, align 8
  %this.addr.i10168 = alloca ptr, align 8
  %Str.addr.i10169 = alloca ptr, align 8
  %this.addr.i10158 = alloca ptr, align 8
  %Str.addr.i10159 = alloca ptr, align 8
  %this.addr.i10148 = alloca ptr, align 8
  %Str.addr.i10149 = alloca ptr, align 8
  %this.addr.i10138 = alloca ptr, align 8
  %Str.addr.i10139 = alloca ptr, align 8
  %this.addr.i10128 = alloca ptr, align 8
  %Str.addr.i10129 = alloca ptr, align 8
  %this.addr.i10118 = alloca ptr, align 8
  %Str.addr.i10119 = alloca ptr, align 8
  %this.addr.i10108 = alloca ptr, align 8
  %Str.addr.i10109 = alloca ptr, align 8
  %this.addr.i10098 = alloca ptr, align 8
  %Str.addr.i10099 = alloca ptr, align 8
  %this.addr.i10088 = alloca ptr, align 8
  %Str.addr.i10089 = alloca ptr, align 8
  %this.addr.i10078 = alloca ptr, align 8
  %Str.addr.i10079 = alloca ptr, align 8
  %this.addr.i10068 = alloca ptr, align 8
  %Str.addr.i10069 = alloca ptr, align 8
  %this.addr.i10058 = alloca ptr, align 8
  %Str.addr.i10059 = alloca ptr, align 8
  %this.addr.i10048 = alloca ptr, align 8
  %Str.addr.i10049 = alloca ptr, align 8
  %this.addr.i10038 = alloca ptr, align 8
  %Str.addr.i10039 = alloca ptr, align 8
  %this.addr.i10028 = alloca ptr, align 8
  %Str.addr.i10029 = alloca ptr, align 8
  %this.addr.i10018 = alloca ptr, align 8
  %Str.addr.i10019 = alloca ptr, align 8
  %this.addr.i10008 = alloca ptr, align 8
  %Str.addr.i10009 = alloca ptr, align 8
  %this.addr.i9998 = alloca ptr, align 8
  %Str.addr.i9999 = alloca ptr, align 8
  %this.addr.i9988 = alloca ptr, align 8
  %Str.addr.i9989 = alloca ptr, align 8
  %this.addr.i9978 = alloca ptr, align 8
  %Str.addr.i9979 = alloca ptr, align 8
  %this.addr.i9968 = alloca ptr, align 8
  %Str.addr.i9969 = alloca ptr, align 8
  %this.addr.i9958 = alloca ptr, align 8
  %Str.addr.i9959 = alloca ptr, align 8
  %this.addr.i9948 = alloca ptr, align 8
  %Str.addr.i9949 = alloca ptr, align 8
  %this.addr.i9938 = alloca ptr, align 8
  %Str.addr.i9939 = alloca ptr, align 8
  %this.addr.i9928 = alloca ptr, align 8
  %Str.addr.i9929 = alloca ptr, align 8
  %this.addr.i9918 = alloca ptr, align 8
  %Str.addr.i9919 = alloca ptr, align 8
  %this.addr.i9908 = alloca ptr, align 8
  %Str.addr.i9909 = alloca ptr, align 8
  %this.addr.i9898 = alloca ptr, align 8
  %Str.addr.i9899 = alloca ptr, align 8
  %this.addr.i9888 = alloca ptr, align 8
  %Str.addr.i9889 = alloca ptr, align 8
  %this.addr.i9878 = alloca ptr, align 8
  %Str.addr.i9879 = alloca ptr, align 8
  %this.addr.i9868 = alloca ptr, align 8
  %Str.addr.i9869 = alloca ptr, align 8
  %this.addr.i9858 = alloca ptr, align 8
  %Str.addr.i9859 = alloca ptr, align 8
  %this.addr.i9848 = alloca ptr, align 8
  %Str.addr.i9849 = alloca ptr, align 8
  %this.addr.i9838 = alloca ptr, align 8
  %Str.addr.i9839 = alloca ptr, align 8
  %this.addr.i9828 = alloca ptr, align 8
  %Str.addr.i9829 = alloca ptr, align 8
  %this.addr.i9818 = alloca ptr, align 8
  %Str.addr.i9819 = alloca ptr, align 8
  %this.addr.i9808 = alloca ptr, align 8
  %Str.addr.i9809 = alloca ptr, align 8
  %this.addr.i9798 = alloca ptr, align 8
  %Str.addr.i9799 = alloca ptr, align 8
  %this.addr.i9788 = alloca ptr, align 8
  %Str.addr.i9789 = alloca ptr, align 8
  %this.addr.i9778 = alloca ptr, align 8
  %Str.addr.i9779 = alloca ptr, align 8
  %this.addr.i9768 = alloca ptr, align 8
  %Str.addr.i9769 = alloca ptr, align 8
  %this.addr.i9758 = alloca ptr, align 8
  %Str.addr.i9759 = alloca ptr, align 8
  %this.addr.i9748 = alloca ptr, align 8
  %Str.addr.i9749 = alloca ptr, align 8
  %this.addr.i9738 = alloca ptr, align 8
  %Str.addr.i9739 = alloca ptr, align 8
  %this.addr.i9728 = alloca ptr, align 8
  %Str.addr.i9729 = alloca ptr, align 8
  %this.addr.i9718 = alloca ptr, align 8
  %Str.addr.i9719 = alloca ptr, align 8
  %this.addr.i9708 = alloca ptr, align 8
  %Str.addr.i9709 = alloca ptr, align 8
  %this.addr.i9698 = alloca ptr, align 8
  %Str.addr.i9699 = alloca ptr, align 8
  %this.addr.i9688 = alloca ptr, align 8
  %Str.addr.i9689 = alloca ptr, align 8
  %this.addr.i9678 = alloca ptr, align 8
  %Str.addr.i9679 = alloca ptr, align 8
  %this.addr.i9668 = alloca ptr, align 8
  %Str.addr.i9669 = alloca ptr, align 8
  %this.addr.i9658 = alloca ptr, align 8
  %Str.addr.i9659 = alloca ptr, align 8
  %this.addr.i9648 = alloca ptr, align 8
  %Str.addr.i9649 = alloca ptr, align 8
  %this.addr.i9638 = alloca ptr, align 8
  %Str.addr.i9639 = alloca ptr, align 8
  %this.addr.i9628 = alloca ptr, align 8
  %Str.addr.i9629 = alloca ptr, align 8
  %this.addr.i9618 = alloca ptr, align 8
  %Str.addr.i9619 = alloca ptr, align 8
  %this.addr.i9608 = alloca ptr, align 8
  %Str.addr.i9609 = alloca ptr, align 8
  %this.addr.i9598 = alloca ptr, align 8
  %Str.addr.i9599 = alloca ptr, align 8
  %this.addr.i9588 = alloca ptr, align 8
  %Str.addr.i9589 = alloca ptr, align 8
  %this.addr.i9578 = alloca ptr, align 8
  %Str.addr.i9579 = alloca ptr, align 8
  %this.addr.i9568 = alloca ptr, align 8
  %Str.addr.i9569 = alloca ptr, align 8
  %this.addr.i9558 = alloca ptr, align 8
  %Str.addr.i9559 = alloca ptr, align 8
  %this.addr.i9548 = alloca ptr, align 8
  %Str.addr.i9549 = alloca ptr, align 8
  %this.addr.i9538 = alloca ptr, align 8
  %Str.addr.i9539 = alloca ptr, align 8
  %this.addr.i9528 = alloca ptr, align 8
  %Str.addr.i9529 = alloca ptr, align 8
  %this.addr.i9518 = alloca ptr, align 8
  %Str.addr.i9519 = alloca ptr, align 8
  %this.addr.i9508 = alloca ptr, align 8
  %Str.addr.i9509 = alloca ptr, align 8
  %this.addr.i9498 = alloca ptr, align 8
  %Str.addr.i9499 = alloca ptr, align 8
  %this.addr.i9488 = alloca ptr, align 8
  %Str.addr.i9489 = alloca ptr, align 8
  %this.addr.i9478 = alloca ptr, align 8
  %Str.addr.i9479 = alloca ptr, align 8
  %this.addr.i9468 = alloca ptr, align 8
  %Str.addr.i9469 = alloca ptr, align 8
  %this.addr.i9458 = alloca ptr, align 8
  %Str.addr.i9459 = alloca ptr, align 8
  %this.addr.i9448 = alloca ptr, align 8
  %Str.addr.i9449 = alloca ptr, align 8
  %this.addr.i9438 = alloca ptr, align 8
  %Str.addr.i9439 = alloca ptr, align 8
  %this.addr.i9428 = alloca ptr, align 8
  %Str.addr.i9429 = alloca ptr, align 8
  %this.addr.i9418 = alloca ptr, align 8
  %Str.addr.i9419 = alloca ptr, align 8
  %this.addr.i9408 = alloca ptr, align 8
  %Str.addr.i9409 = alloca ptr, align 8
  %this.addr.i9398 = alloca ptr, align 8
  %Str.addr.i9399 = alloca ptr, align 8
  %this.addr.i9388 = alloca ptr, align 8
  %Str.addr.i9389 = alloca ptr, align 8
  %this.addr.i9378 = alloca ptr, align 8
  %Str.addr.i9379 = alloca ptr, align 8
  %this.addr.i9368 = alloca ptr, align 8
  %Str.addr.i9369 = alloca ptr, align 8
  %this.addr.i9358 = alloca ptr, align 8
  %Str.addr.i9359 = alloca ptr, align 8
  %this.addr.i9348 = alloca ptr, align 8
  %Str.addr.i9349 = alloca ptr, align 8
  %this.addr.i9338 = alloca ptr, align 8
  %Str.addr.i9339 = alloca ptr, align 8
  %this.addr.i9328 = alloca ptr, align 8
  %Str.addr.i9329 = alloca ptr, align 8
  %this.addr.i9318 = alloca ptr, align 8
  %Str.addr.i9319 = alloca ptr, align 8
  %this.addr.i9308 = alloca ptr, align 8
  %Str.addr.i9309 = alloca ptr, align 8
  %this.addr.i9298 = alloca ptr, align 8
  %Str.addr.i9299 = alloca ptr, align 8
  %this.addr.i9288 = alloca ptr, align 8
  %Str.addr.i9289 = alloca ptr, align 8
  %this.addr.i9278 = alloca ptr, align 8
  %Str.addr.i9279 = alloca ptr, align 8
  %this.addr.i9268 = alloca ptr, align 8
  %Str.addr.i9269 = alloca ptr, align 8
  %this.addr.i9258 = alloca ptr, align 8
  %Str.addr.i9259 = alloca ptr, align 8
  %this.addr.i9248 = alloca ptr, align 8
  %Str.addr.i9249 = alloca ptr, align 8
  %this.addr.i9238 = alloca ptr, align 8
  %Str.addr.i9239 = alloca ptr, align 8
  %this.addr.i9228 = alloca ptr, align 8
  %Str.addr.i9229 = alloca ptr, align 8
  %this.addr.i9218 = alloca ptr, align 8
  %Str.addr.i9219 = alloca ptr, align 8
  %this.addr.i9208 = alloca ptr, align 8
  %Str.addr.i9209 = alloca ptr, align 8
  %this.addr.i9198 = alloca ptr, align 8
  %Str.addr.i9199 = alloca ptr, align 8
  %this.addr.i9188 = alloca ptr, align 8
  %Str.addr.i9189 = alloca ptr, align 8
  %this.addr.i9178 = alloca ptr, align 8
  %Str.addr.i9179 = alloca ptr, align 8
  %this.addr.i9168 = alloca ptr, align 8
  %Str.addr.i9169 = alloca ptr, align 8
  %this.addr.i9158 = alloca ptr, align 8
  %Str.addr.i9159 = alloca ptr, align 8
  %this.addr.i9148 = alloca ptr, align 8
  %Str.addr.i9149 = alloca ptr, align 8
  %this.addr.i9138 = alloca ptr, align 8
  %Str.addr.i9139 = alloca ptr, align 8
  %this.addr.i9128 = alloca ptr, align 8
  %Str.addr.i9129 = alloca ptr, align 8
  %this.addr.i9118 = alloca ptr, align 8
  %Str.addr.i9119 = alloca ptr, align 8
  %this.addr.i9108 = alloca ptr, align 8
  %Str.addr.i9109 = alloca ptr, align 8
  %this.addr.i9098 = alloca ptr, align 8
  %Str.addr.i9099 = alloca ptr, align 8
  %this.addr.i9088 = alloca ptr, align 8
  %Str.addr.i9089 = alloca ptr, align 8
  %this.addr.i9078 = alloca ptr, align 8
  %Str.addr.i9079 = alloca ptr, align 8
  %this.addr.i9068 = alloca ptr, align 8
  %Str.addr.i9069 = alloca ptr, align 8
  %this.addr.i9058 = alloca ptr, align 8
  %Str.addr.i9059 = alloca ptr, align 8
  %this.addr.i9048 = alloca ptr, align 8
  %Str.addr.i9049 = alloca ptr, align 8
  %this.addr.i9038 = alloca ptr, align 8
  %Str.addr.i9039 = alloca ptr, align 8
  %this.addr.i9028 = alloca ptr, align 8
  %Str.addr.i9029 = alloca ptr, align 8
  %this.addr.i9018 = alloca ptr, align 8
  %Str.addr.i9019 = alloca ptr, align 8
  %this.addr.i9008 = alloca ptr, align 8
  %Str.addr.i9009 = alloca ptr, align 8
  %this.addr.i8998 = alloca ptr, align 8
  %Str.addr.i8999 = alloca ptr, align 8
  %this.addr.i8988 = alloca ptr, align 8
  %Str.addr.i8989 = alloca ptr, align 8
  %this.addr.i8978 = alloca ptr, align 8
  %Str.addr.i8979 = alloca ptr, align 8
  %this.addr.i8968 = alloca ptr, align 8
  %Str.addr.i8969 = alloca ptr, align 8
  %this.addr.i8958 = alloca ptr, align 8
  %Str.addr.i8959 = alloca ptr, align 8
  %this.addr.i8948 = alloca ptr, align 8
  %Str.addr.i8949 = alloca ptr, align 8
  %this.addr.i8938 = alloca ptr, align 8
  %Str.addr.i8939 = alloca ptr, align 8
  %this.addr.i8928 = alloca ptr, align 8
  %Str.addr.i8929 = alloca ptr, align 8
  %this.addr.i8918 = alloca ptr, align 8
  %Str.addr.i8919 = alloca ptr, align 8
  %this.addr.i8908 = alloca ptr, align 8
  %Str.addr.i8909 = alloca ptr, align 8
  %this.addr.i8898 = alloca ptr, align 8
  %Str.addr.i8899 = alloca ptr, align 8
  %this.addr.i8888 = alloca ptr, align 8
  %Str.addr.i8889 = alloca ptr, align 8
  %this.addr.i8878 = alloca ptr, align 8
  %Str.addr.i8879 = alloca ptr, align 8
  %this.addr.i8868 = alloca ptr, align 8
  %Str.addr.i8869 = alloca ptr, align 8
  %this.addr.i8858 = alloca ptr, align 8
  %Str.addr.i8859 = alloca ptr, align 8
  %this.addr.i8848 = alloca ptr, align 8
  %Str.addr.i8849 = alloca ptr, align 8
  %this.addr.i8838 = alloca ptr, align 8
  %Str.addr.i8839 = alloca ptr, align 8
  %this.addr.i8828 = alloca ptr, align 8
  %Str.addr.i8829 = alloca ptr, align 8
  %this.addr.i8818 = alloca ptr, align 8
  %Str.addr.i8819 = alloca ptr, align 8
  %this.addr.i8808 = alloca ptr, align 8
  %Str.addr.i8809 = alloca ptr, align 8
  %this.addr.i8798 = alloca ptr, align 8
  %Str.addr.i8799 = alloca ptr, align 8
  %this.addr.i8788 = alloca ptr, align 8
  %Str.addr.i8789 = alloca ptr, align 8
  %this.addr.i8778 = alloca ptr, align 8
  %Str.addr.i8779 = alloca ptr, align 8
  %this.addr.i8768 = alloca ptr, align 8
  %Str.addr.i8769 = alloca ptr, align 8
  %this.addr.i8758 = alloca ptr, align 8
  %Str.addr.i8759 = alloca ptr, align 8
  %this.addr.i8748 = alloca ptr, align 8
  %Str.addr.i8749 = alloca ptr, align 8
  %this.addr.i8738 = alloca ptr, align 8
  %Str.addr.i8739 = alloca ptr, align 8
  %this.addr.i8728 = alloca ptr, align 8
  %Str.addr.i8729 = alloca ptr, align 8
  %this.addr.i8718 = alloca ptr, align 8
  %Str.addr.i8719 = alloca ptr, align 8
  %this.addr.i8708 = alloca ptr, align 8
  %Str.addr.i8709 = alloca ptr, align 8
  %this.addr.i8698 = alloca ptr, align 8
  %Str.addr.i8699 = alloca ptr, align 8
  %this.addr.i8688 = alloca ptr, align 8
  %Str.addr.i8689 = alloca ptr, align 8
  %this.addr.i8678 = alloca ptr, align 8
  %Str.addr.i8679 = alloca ptr, align 8
  %this.addr.i8668 = alloca ptr, align 8
  %Str.addr.i8669 = alloca ptr, align 8
  %this.addr.i8658 = alloca ptr, align 8
  %Str.addr.i8659 = alloca ptr, align 8
  %this.addr.i8648 = alloca ptr, align 8
  %Str.addr.i8649 = alloca ptr, align 8
  %this.addr.i8638 = alloca ptr, align 8
  %Str.addr.i8639 = alloca ptr, align 8
  %this.addr.i8628 = alloca ptr, align 8
  %Str.addr.i8629 = alloca ptr, align 8
  %this.addr.i8618 = alloca ptr, align 8
  %Str.addr.i8619 = alloca ptr, align 8
  %this.addr.i8608 = alloca ptr, align 8
  %Str.addr.i8609 = alloca ptr, align 8
  %this.addr.i8598 = alloca ptr, align 8
  %Str.addr.i8599 = alloca ptr, align 8
  %this.addr.i8588 = alloca ptr, align 8
  %Str.addr.i8589 = alloca ptr, align 8
  %this.addr.i8578 = alloca ptr, align 8
  %Str.addr.i8579 = alloca ptr, align 8
  %this.addr.i8568 = alloca ptr, align 8
  %Str.addr.i8569 = alloca ptr, align 8
  %this.addr.i8558 = alloca ptr, align 8
  %Str.addr.i8559 = alloca ptr, align 8
  %this.addr.i8548 = alloca ptr, align 8
  %Str.addr.i8549 = alloca ptr, align 8
  %this.addr.i8538 = alloca ptr, align 8
  %Str.addr.i8539 = alloca ptr, align 8
  %this.addr.i8528 = alloca ptr, align 8
  %Str.addr.i8529 = alloca ptr, align 8
  %this.addr.i8518 = alloca ptr, align 8
  %Str.addr.i8519 = alloca ptr, align 8
  %this.addr.i8508 = alloca ptr, align 8
  %Str.addr.i8509 = alloca ptr, align 8
  %this.addr.i8498 = alloca ptr, align 8
  %Str.addr.i8499 = alloca ptr, align 8
  %this.addr.i8488 = alloca ptr, align 8
  %Str.addr.i8489 = alloca ptr, align 8
  %this.addr.i8478 = alloca ptr, align 8
  %Str.addr.i8479 = alloca ptr, align 8
  %this.addr.i8468 = alloca ptr, align 8
  %Str.addr.i8469 = alloca ptr, align 8
  %this.addr.i8458 = alloca ptr, align 8
  %Str.addr.i8459 = alloca ptr, align 8
  %this.addr.i8448 = alloca ptr, align 8
  %Str.addr.i8449 = alloca ptr, align 8
  %this.addr.i8438 = alloca ptr, align 8
  %Str.addr.i8439 = alloca ptr, align 8
  %this.addr.i8428 = alloca ptr, align 8
  %Str.addr.i8429 = alloca ptr, align 8
  %this.addr.i8418 = alloca ptr, align 8
  %Str.addr.i8419 = alloca ptr, align 8
  %this.addr.i8408 = alloca ptr, align 8
  %Str.addr.i8409 = alloca ptr, align 8
  %this.addr.i8398 = alloca ptr, align 8
  %Str.addr.i8399 = alloca ptr, align 8
  %this.addr.i8388 = alloca ptr, align 8
  %Str.addr.i8389 = alloca ptr, align 8
  %this.addr.i8378 = alloca ptr, align 8
  %Str.addr.i8379 = alloca ptr, align 8
  %this.addr.i8368 = alloca ptr, align 8
  %Str.addr.i8369 = alloca ptr, align 8
  %this.addr.i8358 = alloca ptr, align 8
  %Str.addr.i8359 = alloca ptr, align 8
  %this.addr.i8348 = alloca ptr, align 8
  %Str.addr.i8349 = alloca ptr, align 8
  %this.addr.i8338 = alloca ptr, align 8
  %Str.addr.i8339 = alloca ptr, align 8
  %this.addr.i8328 = alloca ptr, align 8
  %Str.addr.i8329 = alloca ptr, align 8
  %this.addr.i8318 = alloca ptr, align 8
  %Str.addr.i8319 = alloca ptr, align 8
  %this.addr.i8308 = alloca ptr, align 8
  %Str.addr.i8309 = alloca ptr, align 8
  %this.addr.i8298 = alloca ptr, align 8
  %Str.addr.i8299 = alloca ptr, align 8
  %this.addr.i8288 = alloca ptr, align 8
  %Str.addr.i8289 = alloca ptr, align 8
  %this.addr.i8278 = alloca ptr, align 8
  %Str.addr.i8279 = alloca ptr, align 8
  %this.addr.i8268 = alloca ptr, align 8
  %Str.addr.i8269 = alloca ptr, align 8
  %this.addr.i8258 = alloca ptr, align 8
  %Str.addr.i8259 = alloca ptr, align 8
  %this.addr.i8248 = alloca ptr, align 8
  %Str.addr.i8249 = alloca ptr, align 8
  %this.addr.i8238 = alloca ptr, align 8
  %Str.addr.i8239 = alloca ptr, align 8
  %this.addr.i8228 = alloca ptr, align 8
  %Str.addr.i8229 = alloca ptr, align 8
  %this.addr.i8218 = alloca ptr, align 8
  %Str.addr.i8219 = alloca ptr, align 8
  %this.addr.i8208 = alloca ptr, align 8
  %Str.addr.i8209 = alloca ptr, align 8
  %this.addr.i8198 = alloca ptr, align 8
  %Str.addr.i8199 = alloca ptr, align 8
  %this.addr.i8188 = alloca ptr, align 8
  %Str.addr.i8189 = alloca ptr, align 8
  %this.addr.i8178 = alloca ptr, align 8
  %Str.addr.i8179 = alloca ptr, align 8
  %this.addr.i8168 = alloca ptr, align 8
  %Str.addr.i8169 = alloca ptr, align 8
  %this.addr.i8158 = alloca ptr, align 8
  %Str.addr.i8159 = alloca ptr, align 8
  %this.addr.i8148 = alloca ptr, align 8
  %Str.addr.i8149 = alloca ptr, align 8
  %this.addr.i8138 = alloca ptr, align 8
  %Str.addr.i8139 = alloca ptr, align 8
  %this.addr.i8128 = alloca ptr, align 8
  %Str.addr.i8129 = alloca ptr, align 8
  %this.addr.i8118 = alloca ptr, align 8
  %Str.addr.i8119 = alloca ptr, align 8
  %this.addr.i8108 = alloca ptr, align 8
  %Str.addr.i8109 = alloca ptr, align 8
  %this.addr.i8098 = alloca ptr, align 8
  %Str.addr.i8099 = alloca ptr, align 8
  %this.addr.i8088 = alloca ptr, align 8
  %Str.addr.i8089 = alloca ptr, align 8
  %this.addr.i8078 = alloca ptr, align 8
  %Str.addr.i8079 = alloca ptr, align 8
  %this.addr.i8068 = alloca ptr, align 8
  %Str.addr.i8069 = alloca ptr, align 8
  %this.addr.i8058 = alloca ptr, align 8
  %Str.addr.i8059 = alloca ptr, align 8
  %this.addr.i8048 = alloca ptr, align 8
  %Str.addr.i8049 = alloca ptr, align 8
  %this.addr.i8038 = alloca ptr, align 8
  %Str.addr.i8039 = alloca ptr, align 8
  %this.addr.i8028 = alloca ptr, align 8
  %Str.addr.i8029 = alloca ptr, align 8
  %this.addr.i8018 = alloca ptr, align 8
  %Str.addr.i8019 = alloca ptr, align 8
  %this.addr.i8008 = alloca ptr, align 8
  %Str.addr.i8009 = alloca ptr, align 8
  %this.addr.i7998 = alloca ptr, align 8
  %Str.addr.i7999 = alloca ptr, align 8
  %this.addr.i7988 = alloca ptr, align 8
  %Str.addr.i7989 = alloca ptr, align 8
  %this.addr.i7978 = alloca ptr, align 8
  %Str.addr.i7979 = alloca ptr, align 8
  %this.addr.i7968 = alloca ptr, align 8
  %Str.addr.i7969 = alloca ptr, align 8
  %this.addr.i7958 = alloca ptr, align 8
  %Str.addr.i7959 = alloca ptr, align 8
  %this.addr.i7948 = alloca ptr, align 8
  %Str.addr.i7949 = alloca ptr, align 8
  %this.addr.i7938 = alloca ptr, align 8
  %Str.addr.i7939 = alloca ptr, align 8
  %this.addr.i7928 = alloca ptr, align 8
  %Str.addr.i7929 = alloca ptr, align 8
  %this.addr.i7918 = alloca ptr, align 8
  %Str.addr.i7919 = alloca ptr, align 8
  %this.addr.i7908 = alloca ptr, align 8
  %Str.addr.i7909 = alloca ptr, align 8
  %this.addr.i7898 = alloca ptr, align 8
  %Str.addr.i7899 = alloca ptr, align 8
  %this.addr.i7888 = alloca ptr, align 8
  %Str.addr.i7889 = alloca ptr, align 8
  %this.addr.i7878 = alloca ptr, align 8
  %Str.addr.i7879 = alloca ptr, align 8
  %this.addr.i7868 = alloca ptr, align 8
  %Str.addr.i7869 = alloca ptr, align 8
  %this.addr.i7858 = alloca ptr, align 8
  %Str.addr.i7859 = alloca ptr, align 8
  %this.addr.i7848 = alloca ptr, align 8
  %Str.addr.i7849 = alloca ptr, align 8
  %this.addr.i7838 = alloca ptr, align 8
  %Str.addr.i7839 = alloca ptr, align 8
  %this.addr.i7828 = alloca ptr, align 8
  %Str.addr.i7829 = alloca ptr, align 8
  %this.addr.i7818 = alloca ptr, align 8
  %Str.addr.i7819 = alloca ptr, align 8
  %this.addr.i7808 = alloca ptr, align 8
  %Str.addr.i7809 = alloca ptr, align 8
  %this.addr.i7798 = alloca ptr, align 8
  %Str.addr.i7799 = alloca ptr, align 8
  %this.addr.i7788 = alloca ptr, align 8
  %Str.addr.i7789 = alloca ptr, align 8
  %this.addr.i7778 = alloca ptr, align 8
  %Str.addr.i7779 = alloca ptr, align 8
  %this.addr.i7768 = alloca ptr, align 8
  %Str.addr.i7769 = alloca ptr, align 8
  %this.addr.i7758 = alloca ptr, align 8
  %Str.addr.i7759 = alloca ptr, align 8
  %this.addr.i7748 = alloca ptr, align 8
  %Str.addr.i7749 = alloca ptr, align 8
  %this.addr.i7738 = alloca ptr, align 8
  %Str.addr.i7739 = alloca ptr, align 8
  %this.addr.i7728 = alloca ptr, align 8
  %Str.addr.i7729 = alloca ptr, align 8
  %this.addr.i7718 = alloca ptr, align 8
  %Str.addr.i7719 = alloca ptr, align 8
  %this.addr.i7708 = alloca ptr, align 8
  %Str.addr.i7709 = alloca ptr, align 8
  %this.addr.i7698 = alloca ptr, align 8
  %Str.addr.i7699 = alloca ptr, align 8
  %this.addr.i7688 = alloca ptr, align 8
  %Str.addr.i7689 = alloca ptr, align 8
  %this.addr.i7678 = alloca ptr, align 8
  %Str.addr.i7679 = alloca ptr, align 8
  %this.addr.i7668 = alloca ptr, align 8
  %Str.addr.i7669 = alloca ptr, align 8
  %this.addr.i7658 = alloca ptr, align 8
  %Str.addr.i7659 = alloca ptr, align 8
  %this.addr.i7648 = alloca ptr, align 8
  %Str.addr.i7649 = alloca ptr, align 8
  %this.addr.i7638 = alloca ptr, align 8
  %Str.addr.i7639 = alloca ptr, align 8
  %this.addr.i7628 = alloca ptr, align 8
  %Str.addr.i7629 = alloca ptr, align 8
  %this.addr.i7618 = alloca ptr, align 8
  %Str.addr.i7619 = alloca ptr, align 8
  %this.addr.i7608 = alloca ptr, align 8
  %Str.addr.i7609 = alloca ptr, align 8
  %this.addr.i7598 = alloca ptr, align 8
  %Str.addr.i7599 = alloca ptr, align 8
  %this.addr.i7588 = alloca ptr, align 8
  %Str.addr.i7589 = alloca ptr, align 8
  %this.addr.i7578 = alloca ptr, align 8
  %Str.addr.i7579 = alloca ptr, align 8
  %this.addr.i7568 = alloca ptr, align 8
  %Str.addr.i7569 = alloca ptr, align 8
  %this.addr.i7558 = alloca ptr, align 8
  %Str.addr.i7559 = alloca ptr, align 8
  %this.addr.i7548 = alloca ptr, align 8
  %Str.addr.i7549 = alloca ptr, align 8
  %this.addr.i7538 = alloca ptr, align 8
  %Str.addr.i7539 = alloca ptr, align 8
  %this.addr.i7528 = alloca ptr, align 8
  %Str.addr.i7529 = alloca ptr, align 8
  %this.addr.i7518 = alloca ptr, align 8
  %Str.addr.i7519 = alloca ptr, align 8
  %this.addr.i7508 = alloca ptr, align 8
  %Str.addr.i7509 = alloca ptr, align 8
  %this.addr.i7498 = alloca ptr, align 8
  %Str.addr.i7499 = alloca ptr, align 8
  %this.addr.i7488 = alloca ptr, align 8
  %Str.addr.i7489 = alloca ptr, align 8
  %this.addr.i7478 = alloca ptr, align 8
  %Str.addr.i7479 = alloca ptr, align 8
  %this.addr.i7468 = alloca ptr, align 8
  %Str.addr.i7469 = alloca ptr, align 8
  %this.addr.i7458 = alloca ptr, align 8
  %Str.addr.i7459 = alloca ptr, align 8
  %this.addr.i7448 = alloca ptr, align 8
  %Str.addr.i7449 = alloca ptr, align 8
  %this.addr.i7438 = alloca ptr, align 8
  %Str.addr.i7439 = alloca ptr, align 8
  %this.addr.i7428 = alloca ptr, align 8
  %Str.addr.i7429 = alloca ptr, align 8
  %this.addr.i7418 = alloca ptr, align 8
  %Str.addr.i7419 = alloca ptr, align 8
  %this.addr.i7408 = alloca ptr, align 8
  %Str.addr.i7409 = alloca ptr, align 8
  %this.addr.i7398 = alloca ptr, align 8
  %Str.addr.i7399 = alloca ptr, align 8
  %this.addr.i7388 = alloca ptr, align 8
  %Str.addr.i7389 = alloca ptr, align 8
  %this.addr.i7378 = alloca ptr, align 8
  %Str.addr.i7379 = alloca ptr, align 8
  %this.addr.i7368 = alloca ptr, align 8
  %Str.addr.i7369 = alloca ptr, align 8
  %this.addr.i7358 = alloca ptr, align 8
  %Str.addr.i7359 = alloca ptr, align 8
  %this.addr.i7348 = alloca ptr, align 8
  %Str.addr.i7349 = alloca ptr, align 8
  %this.addr.i7338 = alloca ptr, align 8
  %Str.addr.i7339 = alloca ptr, align 8
  %this.addr.i7328 = alloca ptr, align 8
  %Str.addr.i7329 = alloca ptr, align 8
  %this.addr.i7318 = alloca ptr, align 8
  %Str.addr.i7319 = alloca ptr, align 8
  %this.addr.i7308 = alloca ptr, align 8
  %Str.addr.i7309 = alloca ptr, align 8
  %this.addr.i7298 = alloca ptr, align 8
  %Str.addr.i7299 = alloca ptr, align 8
  %this.addr.i7288 = alloca ptr, align 8
  %Str.addr.i7289 = alloca ptr, align 8
  %this.addr.i7278 = alloca ptr, align 8
  %Str.addr.i7279 = alloca ptr, align 8
  %this.addr.i7268 = alloca ptr, align 8
  %Str.addr.i7269 = alloca ptr, align 8
  %this.addr.i7258 = alloca ptr, align 8
  %Str.addr.i7259 = alloca ptr, align 8
  %this.addr.i7248 = alloca ptr, align 8
  %Str.addr.i7249 = alloca ptr, align 8
  %this.addr.i7238 = alloca ptr, align 8
  %Str.addr.i7239 = alloca ptr, align 8
  %this.addr.i7228 = alloca ptr, align 8
  %Str.addr.i7229 = alloca ptr, align 8
  %this.addr.i7218 = alloca ptr, align 8
  %Str.addr.i7219 = alloca ptr, align 8
  %this.addr.i7208 = alloca ptr, align 8
  %Str.addr.i7209 = alloca ptr, align 8
  %this.addr.i7198 = alloca ptr, align 8
  %Str.addr.i7199 = alloca ptr, align 8
  %this.addr.i7188 = alloca ptr, align 8
  %Str.addr.i7189 = alloca ptr, align 8
  %this.addr.i7178 = alloca ptr, align 8
  %Str.addr.i7179 = alloca ptr, align 8
  %this.addr.i7168 = alloca ptr, align 8
  %Str.addr.i7169 = alloca ptr, align 8
  %this.addr.i7158 = alloca ptr, align 8
  %Str.addr.i7159 = alloca ptr, align 8
  %this.addr.i7148 = alloca ptr, align 8
  %Str.addr.i7149 = alloca ptr, align 8
  %this.addr.i7138 = alloca ptr, align 8
  %Str.addr.i7139 = alloca ptr, align 8
  %this.addr.i7128 = alloca ptr, align 8
  %Str.addr.i7129 = alloca ptr, align 8
  %this.addr.i7118 = alloca ptr, align 8
  %Str.addr.i7119 = alloca ptr, align 8
  %this.addr.i7108 = alloca ptr, align 8
  %Str.addr.i7109 = alloca ptr, align 8
  %this.addr.i7098 = alloca ptr, align 8
  %Str.addr.i7099 = alloca ptr, align 8
  %this.addr.i7088 = alloca ptr, align 8
  %Str.addr.i7089 = alloca ptr, align 8
  %this.addr.i7078 = alloca ptr, align 8
  %Str.addr.i7079 = alloca ptr, align 8
  %this.addr.i7068 = alloca ptr, align 8
  %Str.addr.i7069 = alloca ptr, align 8
  %this.addr.i7058 = alloca ptr, align 8
  %Str.addr.i7059 = alloca ptr, align 8
  %this.addr.i7048 = alloca ptr, align 8
  %Str.addr.i7049 = alloca ptr, align 8
  %this.addr.i7038 = alloca ptr, align 8
  %Str.addr.i7039 = alloca ptr, align 8
  %this.addr.i7028 = alloca ptr, align 8
  %Str.addr.i7029 = alloca ptr, align 8
  %this.addr.i7018 = alloca ptr, align 8
  %Str.addr.i7019 = alloca ptr, align 8
  %this.addr.i7008 = alloca ptr, align 8
  %Str.addr.i7009 = alloca ptr, align 8
  %this.addr.i6998 = alloca ptr, align 8
  %Str.addr.i6999 = alloca ptr, align 8
  %this.addr.i6988 = alloca ptr, align 8
  %Str.addr.i6989 = alloca ptr, align 8
  %this.addr.i6978 = alloca ptr, align 8
  %Str.addr.i6979 = alloca ptr, align 8
  %this.addr.i6968 = alloca ptr, align 8
  %Str.addr.i6969 = alloca ptr, align 8
  %this.addr.i6958 = alloca ptr, align 8
  %Str.addr.i6959 = alloca ptr, align 8
  %this.addr.i6948 = alloca ptr, align 8
  %Str.addr.i6949 = alloca ptr, align 8
  %this.addr.i6938 = alloca ptr, align 8
  %Str.addr.i6939 = alloca ptr, align 8
  %this.addr.i6928 = alloca ptr, align 8
  %Str.addr.i6929 = alloca ptr, align 8
  %this.addr.i6918 = alloca ptr, align 8
  %Str.addr.i6919 = alloca ptr, align 8
  %this.addr.i6908 = alloca ptr, align 8
  %Str.addr.i6909 = alloca ptr, align 8
  %this.addr.i6898 = alloca ptr, align 8
  %Str.addr.i6899 = alloca ptr, align 8
  %this.addr.i6888 = alloca ptr, align 8
  %Str.addr.i6889 = alloca ptr, align 8
  %this.addr.i6878 = alloca ptr, align 8
  %Str.addr.i6879 = alloca ptr, align 8
  %this.addr.i6868 = alloca ptr, align 8
  %Str.addr.i6869 = alloca ptr, align 8
  %this.addr.i6858 = alloca ptr, align 8
  %Str.addr.i6859 = alloca ptr, align 8
  %this.addr.i6848 = alloca ptr, align 8
  %Str.addr.i6849 = alloca ptr, align 8
  %this.addr.i6838 = alloca ptr, align 8
  %Str.addr.i6839 = alloca ptr, align 8
  %this.addr.i6828 = alloca ptr, align 8
  %Str.addr.i6829 = alloca ptr, align 8
  %this.addr.i6818 = alloca ptr, align 8
  %Str.addr.i6819 = alloca ptr, align 8
  %this.addr.i6808 = alloca ptr, align 8
  %Str.addr.i6809 = alloca ptr, align 8
  %this.addr.i6798 = alloca ptr, align 8
  %Str.addr.i6799 = alloca ptr, align 8
  %this.addr.i6788 = alloca ptr, align 8
  %Str.addr.i6789 = alloca ptr, align 8
  %this.addr.i6778 = alloca ptr, align 8
  %Str.addr.i6779 = alloca ptr, align 8
  %this.addr.i6768 = alloca ptr, align 8
  %Str.addr.i6769 = alloca ptr, align 8
  %this.addr.i6758 = alloca ptr, align 8
  %Str.addr.i6759 = alloca ptr, align 8
  %this.addr.i6748 = alloca ptr, align 8
  %Str.addr.i6749 = alloca ptr, align 8
  %this.addr.i6738 = alloca ptr, align 8
  %Str.addr.i6739 = alloca ptr, align 8
  %this.addr.i6728 = alloca ptr, align 8
  %Str.addr.i6729 = alloca ptr, align 8
  %this.addr.i6718 = alloca ptr, align 8
  %Str.addr.i6719 = alloca ptr, align 8
  %this.addr.i6708 = alloca ptr, align 8
  %Str.addr.i6709 = alloca ptr, align 8
  %this.addr.i6698 = alloca ptr, align 8
  %Str.addr.i6699 = alloca ptr, align 8
  %this.addr.i6688 = alloca ptr, align 8
  %Str.addr.i6689 = alloca ptr, align 8
  %this.addr.i6678 = alloca ptr, align 8
  %Str.addr.i6679 = alloca ptr, align 8
  %this.addr.i6668 = alloca ptr, align 8
  %Str.addr.i6669 = alloca ptr, align 8
  %this.addr.i6658 = alloca ptr, align 8
  %Str.addr.i6659 = alloca ptr, align 8
  %this.addr.i6648 = alloca ptr, align 8
  %Str.addr.i6649 = alloca ptr, align 8
  %this.addr.i6638 = alloca ptr, align 8
  %Str.addr.i6639 = alloca ptr, align 8
  %this.addr.i6628 = alloca ptr, align 8
  %Str.addr.i6629 = alloca ptr, align 8
  %this.addr.i6618 = alloca ptr, align 8
  %Str.addr.i6619 = alloca ptr, align 8
  %this.addr.i6608 = alloca ptr, align 8
  %Str.addr.i6609 = alloca ptr, align 8
  %this.addr.i6598 = alloca ptr, align 8
  %Str.addr.i6599 = alloca ptr, align 8
  %this.addr.i6588 = alloca ptr, align 8
  %Str.addr.i6589 = alloca ptr, align 8
  %this.addr.i6578 = alloca ptr, align 8
  %Str.addr.i6579 = alloca ptr, align 8
  %this.addr.i6568 = alloca ptr, align 8
  %Str.addr.i6569 = alloca ptr, align 8
  %this.addr.i6558 = alloca ptr, align 8
  %Str.addr.i6559 = alloca ptr, align 8
  %this.addr.i6548 = alloca ptr, align 8
  %Str.addr.i6549 = alloca ptr, align 8
  %this.addr.i6538 = alloca ptr, align 8
  %Str.addr.i6539 = alloca ptr, align 8
  %this.addr.i6528 = alloca ptr, align 8
  %Str.addr.i6529 = alloca ptr, align 8
  %this.addr.i6518 = alloca ptr, align 8
  %Str.addr.i6519 = alloca ptr, align 8
  %this.addr.i6508 = alloca ptr, align 8
  %Str.addr.i6509 = alloca ptr, align 8
  %this.addr.i6498 = alloca ptr, align 8
  %Str.addr.i6499 = alloca ptr, align 8
  %this.addr.i6488 = alloca ptr, align 8
  %Str.addr.i6489 = alloca ptr, align 8
  %this.addr.i6478 = alloca ptr, align 8
  %Str.addr.i6479 = alloca ptr, align 8
  %this.addr.i6468 = alloca ptr, align 8
  %Str.addr.i6469 = alloca ptr, align 8
  %this.addr.i6458 = alloca ptr, align 8
  %Str.addr.i6459 = alloca ptr, align 8
  %this.addr.i6448 = alloca ptr, align 8
  %Str.addr.i6449 = alloca ptr, align 8
  %this.addr.i6438 = alloca ptr, align 8
  %Str.addr.i6439 = alloca ptr, align 8
  %this.addr.i6428 = alloca ptr, align 8
  %Str.addr.i6429 = alloca ptr, align 8
  %this.addr.i6418 = alloca ptr, align 8
  %Str.addr.i6419 = alloca ptr, align 8
  %this.addr.i6408 = alloca ptr, align 8
  %Str.addr.i6409 = alloca ptr, align 8
  %this.addr.i6398 = alloca ptr, align 8
  %Str.addr.i6399 = alloca ptr, align 8
  %this.addr.i6388 = alloca ptr, align 8
  %Str.addr.i6389 = alloca ptr, align 8
  %this.addr.i6378 = alloca ptr, align 8
  %Str.addr.i6379 = alloca ptr, align 8
  %this.addr.i6368 = alloca ptr, align 8
  %Str.addr.i6369 = alloca ptr, align 8
  %this.addr.i6358 = alloca ptr, align 8
  %Str.addr.i6359 = alloca ptr, align 8
  %this.addr.i6348 = alloca ptr, align 8
  %Str.addr.i6349 = alloca ptr, align 8
  %this.addr.i6338 = alloca ptr, align 8
  %Str.addr.i6339 = alloca ptr, align 8
  %this.addr.i6328 = alloca ptr, align 8
  %Str.addr.i6329 = alloca ptr, align 8
  %this.addr.i6318 = alloca ptr, align 8
  %Str.addr.i6319 = alloca ptr, align 8
  %this.addr.i6308 = alloca ptr, align 8
  %Str.addr.i6309 = alloca ptr, align 8
  %this.addr.i6298 = alloca ptr, align 8
  %Str.addr.i6299 = alloca ptr, align 8
  %this.addr.i6288 = alloca ptr, align 8
  %Str.addr.i6289 = alloca ptr, align 8
  %this.addr.i6278 = alloca ptr, align 8
  %Str.addr.i6279 = alloca ptr, align 8
  %this.addr.i6268 = alloca ptr, align 8
  %Str.addr.i6269 = alloca ptr, align 8
  %this.addr.i6258 = alloca ptr, align 8
  %Str.addr.i6259 = alloca ptr, align 8
  %this.addr.i6248 = alloca ptr, align 8
  %Str.addr.i6249 = alloca ptr, align 8
  %this.addr.i6238 = alloca ptr, align 8
  %Str.addr.i6239 = alloca ptr, align 8
  %this.addr.i6228 = alloca ptr, align 8
  %Str.addr.i6229 = alloca ptr, align 8
  %this.addr.i6218 = alloca ptr, align 8
  %Str.addr.i6219 = alloca ptr, align 8
  %this.addr.i6208 = alloca ptr, align 8
  %Str.addr.i6209 = alloca ptr, align 8
  %this.addr.i6198 = alloca ptr, align 8
  %Str.addr.i6199 = alloca ptr, align 8
  %this.addr.i6188 = alloca ptr, align 8
  %Str.addr.i6189 = alloca ptr, align 8
  %this.addr.i6178 = alloca ptr, align 8
  %Str.addr.i6179 = alloca ptr, align 8
  %this.addr.i6168 = alloca ptr, align 8
  %Str.addr.i6169 = alloca ptr, align 8
  %this.addr.i6158 = alloca ptr, align 8
  %Str.addr.i6159 = alloca ptr, align 8
  %this.addr.i6148 = alloca ptr, align 8
  %Str.addr.i6149 = alloca ptr, align 8
  %this.addr.i6138 = alloca ptr, align 8
  %Str.addr.i6139 = alloca ptr, align 8
  %this.addr.i6128 = alloca ptr, align 8
  %Str.addr.i6129 = alloca ptr, align 8
  %this.addr.i6118 = alloca ptr, align 8
  %Str.addr.i6119 = alloca ptr, align 8
  %this.addr.i6108 = alloca ptr, align 8
  %Str.addr.i6109 = alloca ptr, align 8
  %this.addr.i6098 = alloca ptr, align 8
  %Str.addr.i6099 = alloca ptr, align 8
  %this.addr.i6088 = alloca ptr, align 8
  %Str.addr.i6089 = alloca ptr, align 8
  %this.addr.i6078 = alloca ptr, align 8
  %Str.addr.i6079 = alloca ptr, align 8
  %this.addr.i6068 = alloca ptr, align 8
  %Str.addr.i6069 = alloca ptr, align 8
  %this.addr.i6058 = alloca ptr, align 8
  %Str.addr.i6059 = alloca ptr, align 8
  %this.addr.i6048 = alloca ptr, align 8
  %Str.addr.i6049 = alloca ptr, align 8
  %this.addr.i6038 = alloca ptr, align 8
  %Str.addr.i6039 = alloca ptr, align 8
  %this.addr.i6028 = alloca ptr, align 8
  %Str.addr.i6029 = alloca ptr, align 8
  %this.addr.i6018 = alloca ptr, align 8
  %Str.addr.i6019 = alloca ptr, align 8
  %this.addr.i6008 = alloca ptr, align 8
  %Str.addr.i6009 = alloca ptr, align 8
  %this.addr.i5998 = alloca ptr, align 8
  %Str.addr.i5999 = alloca ptr, align 8
  %this.addr.i5988 = alloca ptr, align 8
  %Str.addr.i5989 = alloca ptr, align 8
  %this.addr.i5978 = alloca ptr, align 8
  %Str.addr.i5979 = alloca ptr, align 8
  %this.addr.i5968 = alloca ptr, align 8
  %Str.addr.i5969 = alloca ptr, align 8
  %this.addr.i5958 = alloca ptr, align 8
  %Str.addr.i5959 = alloca ptr, align 8
  %this.addr.i5948 = alloca ptr, align 8
  %Str.addr.i5949 = alloca ptr, align 8
  %this.addr.i5938 = alloca ptr, align 8
  %Str.addr.i5939 = alloca ptr, align 8
  %this.addr.i5928 = alloca ptr, align 8
  %Str.addr.i5929 = alloca ptr, align 8
  %this.addr.i5918 = alloca ptr, align 8
  %Str.addr.i5919 = alloca ptr, align 8
  %this.addr.i5908 = alloca ptr, align 8
  %Str.addr.i5909 = alloca ptr, align 8
  %this.addr.i5898 = alloca ptr, align 8
  %Str.addr.i5899 = alloca ptr, align 8
  %this.addr.i5888 = alloca ptr, align 8
  %Str.addr.i5889 = alloca ptr, align 8
  %this.addr.i5878 = alloca ptr, align 8
  %Str.addr.i5879 = alloca ptr, align 8
  %this.addr.i5868 = alloca ptr, align 8
  %Str.addr.i5869 = alloca ptr, align 8
  %this.addr.i5858 = alloca ptr, align 8
  %Str.addr.i5859 = alloca ptr, align 8
  %this.addr.i5848 = alloca ptr, align 8
  %Str.addr.i5849 = alloca ptr, align 8
  %this.addr.i5838 = alloca ptr, align 8
  %Str.addr.i5839 = alloca ptr, align 8
  %this.addr.i5828 = alloca ptr, align 8
  %Str.addr.i5829 = alloca ptr, align 8
  %this.addr.i5818 = alloca ptr, align 8
  %Str.addr.i5819 = alloca ptr, align 8
  %this.addr.i5808 = alloca ptr, align 8
  %Str.addr.i5809 = alloca ptr, align 8
  %this.addr.i5798 = alloca ptr, align 8
  %Str.addr.i5799 = alloca ptr, align 8
  %this.addr.i5788 = alloca ptr, align 8
  %Str.addr.i5789 = alloca ptr, align 8
  %this.addr.i5778 = alloca ptr, align 8
  %Str.addr.i5779 = alloca ptr, align 8
  %this.addr.i5768 = alloca ptr, align 8
  %Str.addr.i5769 = alloca ptr, align 8
  %this.addr.i5758 = alloca ptr, align 8
  %Str.addr.i5759 = alloca ptr, align 8
  %this.addr.i5748 = alloca ptr, align 8
  %Str.addr.i5749 = alloca ptr, align 8
  %this.addr.i5738 = alloca ptr, align 8
  %Str.addr.i5739 = alloca ptr, align 8
  %this.addr.i5728 = alloca ptr, align 8
  %Str.addr.i5729 = alloca ptr, align 8
  %this.addr.i5718 = alloca ptr, align 8
  %Str.addr.i5719 = alloca ptr, align 8
  %this.addr.i5708 = alloca ptr, align 8
  %Str.addr.i5709 = alloca ptr, align 8
  %this.addr.i5698 = alloca ptr, align 8
  %Str.addr.i5699 = alloca ptr, align 8
  %this.addr.i5688 = alloca ptr, align 8
  %Str.addr.i5689 = alloca ptr, align 8
  %this.addr.i5678 = alloca ptr, align 8
  %Str.addr.i5679 = alloca ptr, align 8
  %this.addr.i5668 = alloca ptr, align 8
  %Str.addr.i5669 = alloca ptr, align 8
  %this.addr.i = alloca ptr, align 8
  %Str.addr.i = alloca ptr, align 8
  %baseName = alloca %class.anon, align 1
  %type = alloca %class.anon.6, align 1
  %ref.tmp = alloca %"class.llvh::StringRef", align 8
  %agg.tmp = alloca %"class.llvh::StringRef", align 8
  %ref.tmp2 = alloca i64, align 8
  %coerce = alloca %"struct.std::pair.13", align 8
  %ref.tmp5 = alloca %"class.llvh::StringRef", align 8
  %agg.tmp6 = alloca %"class.llvh::StringRef", align 8
  %ref.tmp9 = alloca i64, align 8
  %coerce13 = alloca %"struct.std::pair.13", align 8
  %ref.tmp14 = alloca %"class.llvh::StringRef", align 8
  %agg.tmp15 = alloca %"class.llvh::StringRef", align 8
  %ref.tmp17 = alloca i32, align 4
  %ref.tmp19 = alloca i64, align 8
  %coerce23 = alloca %"struct.std::pair.13", align 8
  %ref.tmp24 = alloca %"class.llvh::StringRef", align 8
  %agg.tmp25 = alloca %"class.llvh::StringRef", align 8
  %ref.tmp28 = alloca i64, align 8
  %coerce32 = alloca %"struct.std::pair.13", align 8
  %ref.tmp34 = alloca i32, align 4
  %agg.tmp35 = alloca %"class.llvh::StringRef", align 8
  %ref.tmp37 = alloca i8, align 1
  %ref.tmp39 = alloca %"class.llvh::StringRef", align 8
  %agg.tmp40 = alloca %"class.llvh::StringRef", align 8
  %ref.tmp43 = alloca i64, align 8
  %coerce47 = alloca %"struct.std::pair.13", align 8
  %ref.tmp50 = alloca i32, align 4
  %agg.tmp51 = alloca %"class.llvh::StringRef", align 8
  %ref.tmp53 = alloca i8, align 1
  %ref.tmp57 = alloca i32, align 4
  %agg.tmp58 = alloca %"class.llvh::StringRef", align 8
  %ref.tmp60 = alloca i8, align 1
  %ref.tmp64 = alloca i32, align 4
  %agg.tmp65 = alloca %"class.llvh::StringRef", align 8
  %ref.tmp67 = alloca i8, align 1
  %ref.tmp71 = alloca i32, align 4
  %agg.tmp72 = alloca %"class.llvh::StringRef", align 8
  %ref.tmp74 = alloca i8, align 1
  %ref.tmp78 = alloca i32, align 4
  %agg.tmp79 = alloca %"class.llvh::StringRef", align 8
  %ref.tmp81 = alloca i8, align 1
  %ref.tmp85 = alloca i32, align 4
  %agg.tmp86 = alloca %"class.llvh::StringRef", align 8
  %ref.tmp88 = alloca i8, align 1
  %ref.tmp92 = alloca i32, align 4
  %agg.tmp93 = alloca %"class.llvh::StringRef", align 8
  %ref.tmp95 = alloca i8, align 1
  %ref.tmp99 = alloca i32, align 4
  %agg.tmp100 = alloca %"class.llvh::StringRef", align 8
  %ref.tmp102 = alloca i8, align 1
  %ref.tmp104 = alloca %"class.llvh::StringRef", align 8
  %agg.tmp105 = alloca %"class.llvh::StringRef", align 8
  %ref.tmp108 = alloca i64, align 8
  %coerce112 = alloca %"struct.std::pair.13", align 8
  %ref.tmp115 = alloca i32, align 4
  %agg.tmp116 = alloca %"class.llvh::StringRef", align 8
  %ref.tmp118 = alloca i8, align 1
  %ref.tmp122 = alloca i32, align 4
  %agg.tmp123 = alloca %"class.llvh::StringRef", align 8
  %ref.tmp125 = alloca i8, align 1
  %ref.tmp129 = alloca i32, align 4
  %agg.tmp130 = alloca %"class.llvh::StringRef", align 8
  %ref.tmp132 = alloca i8, align 1
  %ref.tmp136 = alloca i32, align 4
  %agg.tmp137 = alloca %"class.llvh::StringRef", align 8
  %ref.tmp139 = alloca i8, align 1
  %ref.tmp143 = alloca i32, align 4
  %agg.tmp144 = alloca %"class.llvh::StringRef", align 8
  %ref.tmp146 = alloca i8, align 1
  %ref.tmp150 = alloca i32, align 4
  %agg.tmp151 = alloca %"class.llvh::StringRef", align 8
  %ref.tmp153 = alloca i8, align 1
  %ref.tmp157 = alloca i32, align 4
  %agg.tmp158 = alloca %"class.llvh::StringRef", align 8
  %ref.tmp160 = alloca i8, align 1
  %ref.tmp164 = alloca i32, align 4
  %agg.tmp165 = alloca %"class.llvh::StringRef", align 8
  %ref.tmp167 = alloca i8, align 1
  %ref.tmp169 = alloca %"class.llvh::StringRef", align 8
  %agg.tmp170 = alloca %"class.llvh::StringRef", align 8
  %ref.tmp173 = alloca i64, align 8
  %coerce177 = alloca %"struct.std::pair.13", align 8
  %ref.tmp180 = alloca i32, align 4
  %agg.tmp181 = alloca %"class.llvh::StringRef", align 8
  %ref.tmp183 = alloca i8, align 1
  %ref.tmp187 = alloca i32, align 4
  %agg.tmp188 = alloca %"class.llvh::StringRef", align 8
  %ref.tmp190 = alloca i8, align 1
  %ref.tmp194 = alloca i32, align 4
  %agg.tmp195 = alloca %"class.llvh::StringRef", align 8
  %ref.tmp197 = alloca i8, align 1
  %ref.tmp201 = alloca i32, align 4
  %agg.tmp202 = alloca %"class.llvh::StringRef", align 8
  %ref.tmp204 = alloca i8, align 1
  %ref.tmp208 = alloca i32, align 4
  %agg.tmp209 = alloca %"class.llvh::StringRef", align 8
  %ref.tmp211 = alloca i8, align 1
  %ref.tmp215 = alloca i32, align 4
  %agg.tmp216 = alloca %"class.llvh::StringRef", align 8
  %ref.tmp218 = alloca i8, align 1
  %ref.tmp222 = alloca i32, align 4
  %agg.tmp223 = alloca %"class.llvh::StringRef", align 8
  %ref.tmp225 = alloca i8, align 1
  %ref.tmp229 = alloca i32, align 4
  %agg.tmp230 = alloca %"class.llvh::StringRef", align 8
  %ref.tmp232 = alloca i8, align 1
  %ref.tmp234 = alloca %"class.llvh::StringRef", align 8
  %agg.tmp235 = alloca %"class.llvh::StringRef", align 8
  %ref.tmp238 = alloca i64, align 8
  %coerce242 = alloca %"struct.std::pair.13", align 8
  %ref.tmp245 = alloca i32, align 4
  %agg.tmp246 = alloca %"class.llvh::StringRef", align 8
  %ref.tmp248 = alloca i8, align 1
  %ref.tmp252 = alloca i32, align 4
  %agg.tmp253 = alloca %"class.llvh::StringRef", align 8
  %ref.tmp255 = alloca i8, align 1
  %ref.tmp259 = alloca i32, align 4
  %agg.tmp260 = alloca %"class.llvh::StringRef", align 8
  %ref.tmp262 = alloca i8, align 1
  %ref.tmp266 = alloca i32, align 4
  %agg.tmp267 = alloca %"class.llvh::StringRef", align 8
  %ref.tmp269 = alloca i8, align 1
  %ref.tmp273 = alloca i32, align 4
  %agg.tmp274 = alloca %"class.llvh::StringRef", align 8
  %ref.tmp276 = alloca i8, align 1
  %ref.tmp278 = alloca i32, align 4
  %ref.tmp280 = alloca %"class.llvh::StringRef", align 8
  %agg.tmp281 = alloca %"class.llvh::StringRef", align 8
  %ref.tmp283 = alloca i32, align 4
  %ref.tmp285 = alloca i64, align 8
  %coerce289 = alloca %"struct.std::pair.13", align 8
  %ref.tmp290 = alloca %"class.llvh::StringRef", align 8
  %agg.tmp291 = alloca %"class.llvh::StringRef", align 8
  %ref.tmp293 = alloca i32, align 4
  %ref.tmp295 = alloca i64, align 8
  %coerce299 = alloca %"struct.std::pair.13", align 8
  %ref.tmp300 = alloca %"class.llvh::StringRef", align 8
  %agg.tmp301 = alloca %"class.llvh::StringRef", align 8
  %ref.tmp304 = alloca i64, align 8
  %coerce308 = alloca %"struct.std::pair.13", align 8
  %ref.tmp311 = alloca i32, align 4
  %agg.tmp312 = alloca %"class.llvh::StringRef", align 8
  %ref.tmp314 = alloca i8, align 1
  %ref.tmp318 = alloca i32, align 4
  %agg.tmp319 = alloca %"class.llvh::StringRef", align 8
  %ref.tmp321 = alloca i8, align 1
  %ref.tmp323 = alloca %"class.llvh::StringRef", align 8
  %agg.tmp324 = alloca %"class.llvh::StringRef", align 8
  %ref.tmp327 = alloca i64, align 8
  %coerce331 = alloca %"struct.std::pair.13", align 8
  %ref.tmp334 = alloca i32, align 4
  %agg.tmp335 = alloca %"class.llvh::StringRef", align 8
  %ref.tmp337 = alloca i8, align 1
  %ref.tmp341 = alloca i32, align 4
  %agg.tmp342 = alloca %"class.llvh::StringRef", align 8
  %ref.tmp344 = alloca i8, align 1
  %ref.tmp346 = alloca %"class.llvh::StringRef", align 8
  %agg.tmp347 = alloca %"class.llvh::StringRef", align 8
  %ref.tmp350 = alloca i64, align 8
  %coerce354 = alloca %"struct.std::pair.13", align 8
  %ref.tmp357 = alloca i32, align 4
  %agg.tmp358 = alloca %"class.llvh::StringRef", align 8
  %ref.tmp360 = alloca i8, align 1
  %ref.tmp364 = alloca i32, align 4
  %agg.tmp365 = alloca %"class.llvh::StringRef", align 8
  %ref.tmp367 = alloca i8, align 1
  %ref.tmp371 = alloca i32, align 4
  %agg.tmp372 = alloca %"class.llvh::StringRef", align 8
  %ref.tmp374 = alloca i8, align 1
  %ref.tmp376 = alloca %"class.llvh::StringRef", align 8
  %agg.tmp377 = alloca %"class.llvh::StringRef", align 8
  %ref.tmp380 = alloca i64, align 8
  %coerce384 = alloca %"struct.std::pair.13", align 8
  %ref.tmp387 = alloca i32, align 4
  %agg.tmp388 = alloca %"class.llvh::StringRef", align 8
  %ref.tmp390 = alloca i8, align 1
  %ref.tmp394 = alloca i32, align 4
  %agg.tmp395 = alloca %"class.llvh::StringRef", align 8
  %ref.tmp397 = alloca i8, align 1
  %ref.tmp401 = alloca i32, align 4
  %agg.tmp402 = alloca %"class.llvh::StringRef", align 8
  %ref.tmp404 = alloca i8, align 1
  %ref.tmp408 = alloca i32, align 4
  %agg.tmp409 = alloca %"class.llvh::StringRef", align 8
  %ref.tmp411 = alloca i8, align 1
  %ref.tmp413 = alloca %"class.llvh::StringRef", align 8
  %agg.tmp414 = alloca %"class.llvh::StringRef", align 8
  %ref.tmp417 = alloca i64, align 8
  %coerce421 = alloca %"struct.std::pair.13", align 8
  %ref.tmp424 = alloca i32, align 4
  %agg.tmp425 = alloca %"class.llvh::StringRef", align 8
  %ref.tmp427 = alloca i8, align 1
  %ref.tmp431 = alloca i32, align 4
  %agg.tmp432 = alloca %"class.llvh::StringRef", align 8
  %ref.tmp434 = alloca i8, align 1
  %ref.tmp438 = alloca i32, align 4
  %agg.tmp439 = alloca %"class.llvh::StringRef", align 8
  %ref.tmp441 = alloca i8, align 1
  %ref.tmp445 = alloca i32, align 4
  %agg.tmp446 = alloca %"class.llvh::StringRef", align 8
  %ref.tmp448 = alloca i8, align 1
  %ref.tmp450 = alloca i32, align 4
  %ref.tmp452 = alloca %"class.llvh::StringRef", align 8
  %agg.tmp453 = alloca %"class.llvh::StringRef", align 8
  %ref.tmp456 = alloca i64, align 8
  %coerce460 = alloca %"struct.std::pair.13", align 8
  %ref.tmp461 = alloca %"class.llvh::StringRef", align 8
  %agg.tmp462 = alloca %"class.llvh::StringRef", align 8
  %ref.tmp465 = alloca i64, align 8
  %coerce469 = alloca %"struct.std::pair.13", align 8
  %ref.tmp470 = alloca %"class.llvh::StringRef", align 8
  %agg.tmp471 = alloca %"class.llvh::StringRef", align 8
  %ref.tmp474 = alloca i64, align 8
  %coerce478 = alloca %"struct.std::pair.13", align 8
  %ref.tmp481 = alloca i32, align 4
  %agg.tmp482 = alloca %"class.llvh::StringRef", align 8
  %ref.tmp484 = alloca i8, align 1
  %ref.tmp486 = alloca %"class.llvh::StringRef", align 8
  %agg.tmp487 = alloca %"class.llvh::StringRef", align 8
  %ref.tmp490 = alloca i64, align 8
  %coerce494 = alloca %"struct.std::pair.13", align 8
  %ref.tmp497 = alloca i32, align 4
  %agg.tmp498 = alloca %"class.llvh::StringRef", align 8
  %ref.tmp500 = alloca i8, align 1
  %ref.tmp502 = alloca %"class.llvh::StringRef", align 8
  %agg.tmp503 = alloca %"class.llvh::StringRef", align 8
  %ref.tmp506 = alloca i64, align 8
  %coerce510 = alloca %"struct.std::pair.13", align 8
  %ref.tmp513 = alloca i32, align 4
  %agg.tmp514 = alloca %"class.llvh::StringRef", align 8
  %ref.tmp516 = alloca i8, align 1
  %ref.tmp518 = alloca %"class.llvh::StringRef", align 8
  %agg.tmp519 = alloca %"class.llvh::StringRef", align 8
  %ref.tmp522 = alloca i64, align 8
  %coerce526 = alloca %"struct.std::pair.13", align 8
  %ref.tmp529 = alloca i32, align 4
  %agg.tmp530 = alloca %"class.llvh::StringRef", align 8
  %ref.tmp532 = alloca i8, align 1
  %ref.tmp534 = alloca %"class.llvh::StringRef", align 8
  %agg.tmp535 = alloca %"class.llvh::StringRef", align 8
  %ref.tmp538 = alloca i64, align 8
  %coerce542 = alloca %"struct.std::pair.13", align 8
  %ref.tmp545 = alloca i32, align 4
  %agg.tmp546 = alloca %"class.llvh::StringRef", align 8
  %ref.tmp548 = alloca i8, align 1
  %ref.tmp550 = alloca %"class.llvh::StringRef", align 8
  %agg.tmp551 = alloca %"class.llvh::StringRef", align 8
  %ref.tmp554 = alloca i64, align 8
  %coerce558 = alloca %"struct.std::pair.13", align 8
  %ref.tmp561 = alloca i32, align 4
  %agg.tmp562 = alloca %"class.llvh::StringRef", align 8
  %ref.tmp564 = alloca i8, align 1
  %ref.tmp568 = alloca i32, align 4
  %agg.tmp569 = alloca %"class.llvh::StringRef", align 8
  %ref.tmp571 = alloca i8, align 1
  %ref.tmp573 = alloca %"class.llvh::StringRef", align 8
  %agg.tmp574 = alloca %"class.llvh::StringRef", align 8
  %ref.tmp577 = alloca i64, align 8
  %coerce581 = alloca %"struct.std::pair.13", align 8
  %ref.tmp584 = alloca i32, align 4
  %agg.tmp585 = alloca %"class.llvh::StringRef", align 8
  %ref.tmp587 = alloca i8, align 1
  %ref.tmp591 = alloca i32, align 4
  %agg.tmp592 = alloca %"class.llvh::StringRef", align 8
  %ref.tmp594 = alloca i8, align 1
  %ref.tmp596 = alloca %"class.llvh::StringRef", align 8
  %agg.tmp597 = alloca %"class.llvh::StringRef", align 8
  %ref.tmp600 = alloca i64, align 8
  %coerce604 = alloca %"struct.std::pair.13", align 8
  %ref.tmp607 = alloca i32, align 4
  %agg.tmp608 = alloca %"class.llvh::StringRef", align 8
  %ref.tmp610 = alloca i8, align 1
  %ref.tmp614 = alloca i32, align 4
  %agg.tmp615 = alloca %"class.llvh::StringRef", align 8
  %ref.tmp617 = alloca i8, align 1
  %ref.tmp619 = alloca %"class.llvh::StringRef", align 8
  %agg.tmp620 = alloca %"class.llvh::StringRef", align 8
  %ref.tmp623 = alloca i64, align 8
  %coerce627 = alloca %"struct.std::pair.13", align 8
  %ref.tmp630 = alloca i32, align 4
  %agg.tmp631 = alloca %"class.llvh::StringRef", align 8
  %ref.tmp633 = alloca i8, align 1
  %ref.tmp637 = alloca i32, align 4
  %agg.tmp638 = alloca %"class.llvh::StringRef", align 8
  %ref.tmp640 = alloca i8, align 1
  %ref.tmp642 = alloca %"class.llvh::StringRef", align 8
  %agg.tmp643 = alloca %"class.llvh::StringRef", align 8
  %ref.tmp646 = alloca i64, align 8
  %coerce650 = alloca %"struct.std::pair.13", align 8
  %ref.tmp653 = alloca i32, align 4
  %agg.tmp654 = alloca %"class.llvh::StringRef", align 8
  %ref.tmp656 = alloca i8, align 1
  %ref.tmp660 = alloca i32, align 4
  %agg.tmp661 = alloca %"class.llvh::StringRef", align 8
  %ref.tmp663 = alloca i8, align 1
  %ref.tmp667 = alloca i32, align 4
  %agg.tmp668 = alloca %"class.llvh::StringRef", align 8
  %ref.tmp670 = alloca i8, align 1
  %ref.tmp672 = alloca %"class.llvh::StringRef", align 8
  %agg.tmp673 = alloca %"class.llvh::StringRef", align 8
  %ref.tmp676 = alloca i64, align 8
  %coerce680 = alloca %"struct.std::pair.13", align 8
  %ref.tmp683 = alloca i32, align 4
  %agg.tmp684 = alloca %"class.llvh::StringRef", align 8
  %ref.tmp686 = alloca i8, align 1
  %ref.tmp690 = alloca i32, align 4
  %agg.tmp691 = alloca %"class.llvh::StringRef", align 8
  %ref.tmp693 = alloca i8, align 1
  %ref.tmp697 = alloca i32, align 4
  %agg.tmp698 = alloca %"class.llvh::StringRef", align 8
  %ref.tmp700 = alloca i8, align 1
  %ref.tmp702 = alloca i32, align 4
  %ref.tmp704 = alloca %"class.llvh::StringRef", align 8
  %agg.tmp705 = alloca %"class.llvh::StringRef", align 8
  %ref.tmp708 = alloca i64, align 8
  %coerce712 = alloca %"struct.std::pair.13", align 8
  %ref.tmp713 = alloca %"class.llvh::StringRef", align 8
  %agg.tmp714 = alloca %"class.llvh::StringRef", align 8
  %ref.tmp717 = alloca i64, align 8
  %coerce721 = alloca %"struct.std::pair.13", align 8
  %ref.tmp724 = alloca i32, align 4
  %agg.tmp725 = alloca %"class.llvh::StringRef", align 8
  %ref.tmp727 = alloca i8, align 1
  %ref.tmp729 = alloca %"class.llvh::StringRef", align 8
  %agg.tmp730 = alloca %"class.llvh::StringRef", align 8
  %ref.tmp733 = alloca i64, align 8
  %coerce737 = alloca %"struct.std::pair.13", align 8
  %ref.tmp740 = alloca i32, align 4
  %agg.tmp741 = alloca %"class.llvh::StringRef", align 8
  %ref.tmp743 = alloca i8, align 1
  %ref.tmp745 = alloca %"class.llvh::StringRef", align 8
  %agg.tmp746 = alloca %"class.llvh::StringRef", align 8
  %ref.tmp749 = alloca i64, align 8
  %coerce753 = alloca %"struct.std::pair.13", align 8
  %ref.tmp756 = alloca i32, align 4
  %agg.tmp757 = alloca %"class.llvh::StringRef", align 8
  %ref.tmp759 = alloca i8, align 1
  %ref.tmp761 = alloca %"class.llvh::StringRef", align 8
  %agg.tmp762 = alloca %"class.llvh::StringRef", align 8
  %ref.tmp765 = alloca i64, align 8
  %coerce769 = alloca %"struct.std::pair.13", align 8
  %ref.tmp772 = alloca i32, align 4
  %agg.tmp773 = alloca %"class.llvh::StringRef", align 8
  %ref.tmp775 = alloca i8, align 1
  %ref.tmp779 = alloca i32, align 4
  %agg.tmp780 = alloca %"class.llvh::StringRef", align 8
  %ref.tmp782 = alloca i8, align 1
  %ref.tmp784 = alloca %"class.llvh::StringRef", align 8
  %agg.tmp785 = alloca %"class.llvh::StringRef", align 8
  %ref.tmp788 = alloca i64, align 8
  %coerce792 = alloca %"struct.std::pair.13", align 8
  %ref.tmp795 = alloca i32, align 4
  %agg.tmp796 = alloca %"class.llvh::StringRef", align 8
  %ref.tmp798 = alloca i8, align 1
  %ref.tmp800 = alloca %"class.llvh::StringRef", align 8
  %agg.tmp801 = alloca %"class.llvh::StringRef", align 8
  %ref.tmp804 = alloca i64, align 8
  %coerce808 = alloca %"struct.std::pair.13", align 8
  %ref.tmp809 = alloca %"class.llvh::StringRef", align 8
  %agg.tmp810 = alloca %"class.llvh::StringRef", align 8
  %ref.tmp813 = alloca i64, align 8
  %coerce817 = alloca %"struct.std::pair.13", align 8
  %ref.tmp818 = alloca %"class.llvh::StringRef", align 8
  %agg.tmp819 = alloca %"class.llvh::StringRef", align 8
  %ref.tmp822 = alloca i64, align 8
  %coerce826 = alloca %"struct.std::pair.13", align 8
  %ref.tmp829 = alloca i32, align 4
  %agg.tmp830 = alloca %"class.llvh::StringRef", align 8
  %ref.tmp832 = alloca i8, align 1
  %ref.tmp834 = alloca %"class.llvh::StringRef", align 8
  %agg.tmp835 = alloca %"class.llvh::StringRef", align 8
  %ref.tmp838 = alloca i64, align 8
  %coerce842 = alloca %"struct.std::pair.13", align 8
  %ref.tmp845 = alloca i32, align 4
  %agg.tmp846 = alloca %"class.llvh::StringRef", align 8
  %ref.tmp848 = alloca i8, align 1
  %ref.tmp850 = alloca %"class.llvh::StringRef", align 8
  %agg.tmp851 = alloca %"class.llvh::StringRef", align 8
  %ref.tmp854 = alloca i64, align 8
  %coerce858 = alloca %"struct.std::pair.13", align 8
  %ref.tmp861 = alloca i32, align 4
  %agg.tmp862 = alloca %"class.llvh::StringRef", align 8
  %ref.tmp864 = alloca i8, align 1
  %ref.tmp868 = alloca i32, align 4
  %agg.tmp869 = alloca %"class.llvh::StringRef", align 8
  %ref.tmp871 = alloca i8, align 1
  %ref.tmp873 = alloca %"class.llvh::StringRef", align 8
  %agg.tmp874 = alloca %"class.llvh::StringRef", align 8
  %ref.tmp877 = alloca i64, align 8
  %coerce881 = alloca %"struct.std::pair.13", align 8
  %ref.tmp884 = alloca i32, align 4
  %agg.tmp885 = alloca %"class.llvh::StringRef", align 8
  %ref.tmp887 = alloca i8, align 1
  %ref.tmp889 = alloca %"class.llvh::StringRef", align 8
  %agg.tmp890 = alloca %"class.llvh::StringRef", align 8
  %ref.tmp893 = alloca i64, align 8
  %coerce897 = alloca %"struct.std::pair.13", align 8
  %ref.tmp900 = alloca i32, align 4
  %agg.tmp901 = alloca %"class.llvh::StringRef", align 8
  %ref.tmp903 = alloca i8, align 1
  %ref.tmp907 = alloca i32, align 4
  %agg.tmp908 = alloca %"class.llvh::StringRef", align 8
  %ref.tmp910 = alloca i8, align 1
  %ref.tmp914 = alloca i32, align 4
  %agg.tmp915 = alloca %"class.llvh::StringRef", align 8
  %ref.tmp917 = alloca i8, align 1
  %ref.tmp919 = alloca %"class.llvh::StringRef", align 8
  %agg.tmp920 = alloca %"class.llvh::StringRef", align 8
  %ref.tmp923 = alloca i64, align 8
  %coerce927 = alloca %"struct.std::pair.13", align 8
  %ref.tmp930 = alloca i32, align 4
  %agg.tmp931 = alloca %"class.llvh::StringRef", align 8
  %ref.tmp933 = alloca i8, align 1
  %ref.tmp937 = alloca i32, align 4
  %agg.tmp938 = alloca %"class.llvh::StringRef", align 8
  %ref.tmp940 = alloca i8, align 1
  %ref.tmp942 = alloca %"class.llvh::StringRef", align 8
  %agg.tmp943 = alloca %"class.llvh::StringRef", align 8
  %ref.tmp946 = alloca i64, align 8
  %coerce950 = alloca %"struct.std::pair.13", align 8
  %ref.tmp953 = alloca i32, align 4
  %agg.tmp954 = alloca %"class.llvh::StringRef", align 8
  %ref.tmp956 = alloca i8, align 1
  %ref.tmp958 = alloca %"class.llvh::StringRef", align 8
  %agg.tmp959 = alloca %"class.llvh::StringRef", align 8
  %ref.tmp962 = alloca i64, align 8
  %coerce966 = alloca %"struct.std::pair.13", align 8
  %ref.tmp969 = alloca i32, align 4
  %agg.tmp970 = alloca %"class.llvh::StringRef", align 8
  %ref.tmp972 = alloca i8, align 1
  %ref.tmp976 = alloca i32, align 4
  %agg.tmp977 = alloca %"class.llvh::StringRef", align 8
  %ref.tmp979 = alloca i8, align 1
  %ref.tmp981 = alloca %"class.llvh::StringRef", align 8
  %agg.tmp982 = alloca %"class.llvh::StringRef", align 8
  %ref.tmp984 = alloca i32, align 4
  %ref.tmp986 = alloca i64, align 8
  %coerce990 = alloca %"struct.std::pair.13", align 8
  %ref.tmp991 = alloca %"class.llvh::StringRef", align 8
  %agg.tmp992 = alloca %"class.llvh::StringRef", align 8
  %ref.tmp995 = alloca i64, align 8
  %coerce999 = alloca %"struct.std::pair.13", align 8
  %ref.tmp1002 = alloca i32, align 4
  %agg.tmp1003 = alloca %"class.llvh::StringRef", align 8
  %ref.tmp1005 = alloca i8, align 1
  %ref.tmp1009 = alloca i32, align 4
  %agg.tmp1010 = alloca %"class.llvh::StringRef", align 8
  %ref.tmp1012 = alloca i8, align 1
  %ref.tmp1016 = alloca i32, align 4
  %agg.tmp1017 = alloca %"class.llvh::StringRef", align 8
  %ref.tmp1019 = alloca i8, align 1
  %ref.tmp1021 = alloca %"class.llvh::StringRef", align 8
  %agg.tmp1022 = alloca %"class.llvh::StringRef", align 8
  %ref.tmp1025 = alloca i64, align 8
  %coerce1029 = alloca %"struct.std::pair.13", align 8
  %ref.tmp1032 = alloca i32, align 4
  %agg.tmp1033 = alloca %"class.llvh::StringRef", align 8
  %ref.tmp1035 = alloca i8, align 1
  %ref.tmp1039 = alloca i32, align 4
  %agg.tmp1040 = alloca %"class.llvh::StringRef", align 8
  %ref.tmp1042 = alloca i8, align 1
  %ref.tmp1046 = alloca i32, align 4
  %agg.tmp1047 = alloca %"class.llvh::StringRef", align 8
  %ref.tmp1049 = alloca i8, align 1
  %ref.tmp1053 = alloca i32, align 4
  %agg.tmp1054 = alloca %"class.llvh::StringRef", align 8
  %ref.tmp1056 = alloca i8, align 1
  %ref.tmp1058 = alloca i32, align 4
  %ref.tmp1060 = alloca %"class.llvh::StringRef", align 8
  %agg.tmp1061 = alloca %"class.llvh::StringRef", align 8
  %ref.tmp1064 = alloca i64, align 8
  %coerce1068 = alloca %"struct.std::pair.13", align 8
  %ref.tmp1071 = alloca i32, align 4
  %agg.tmp1072 = alloca %"class.llvh::StringRef", align 8
  %ref.tmp1074 = alloca i8, align 1
  %ref.tmp1078 = alloca i32, align 4
  %agg.tmp1079 = alloca %"class.llvh::StringRef", align 8
  %ref.tmp1081 = alloca i8, align 1
  %ref.tmp1085 = alloca i32, align 4
  %agg.tmp1086 = alloca %"class.llvh::StringRef", align 8
  %ref.tmp1088 = alloca i8, align 1
  %ref.tmp1090 = alloca %"class.llvh::StringRef", align 8
  %agg.tmp1091 = alloca %"class.llvh::StringRef", align 8
  %ref.tmp1094 = alloca i64, align 8
  %coerce1098 = alloca %"struct.std::pair.13", align 8
  %ref.tmp1101 = alloca i32, align 4
  %agg.tmp1102 = alloca %"class.llvh::StringRef", align 8
  %ref.tmp1104 = alloca i8, align 1
  %ref.tmp1108 = alloca i32, align 4
  %agg.tmp1109 = alloca %"class.llvh::StringRef", align 8
  %ref.tmp1111 = alloca i8, align 1
  %ref.tmp1115 = alloca i32, align 4
  %agg.tmp1116 = alloca %"class.llvh::StringRef", align 8
  %ref.tmp1118 = alloca i8, align 1
  %ref.tmp1120 = alloca %"class.llvh::StringRef", align 8
  %agg.tmp1121 = alloca %"class.llvh::StringRef", align 8
  %ref.tmp1124 = alloca i64, align 8
  %coerce1128 = alloca %"struct.std::pair.13", align 8
  %ref.tmp1131 = alloca i32, align 4
  %agg.tmp1132 = alloca %"class.llvh::StringRef", align 8
  %ref.tmp1134 = alloca i8, align 1
  %ref.tmp1138 = alloca i32, align 4
  %agg.tmp1139 = alloca %"class.llvh::StringRef", align 8
  %ref.tmp1141 = alloca i8, align 1
  %ref.tmp1145 = alloca i32, align 4
  %agg.tmp1146 = alloca %"class.llvh::StringRef", align 8
  %ref.tmp1148 = alloca i8, align 1
  %ref.tmp1150 = alloca %"class.llvh::StringRef", align 8
  %agg.tmp1151 = alloca %"class.llvh::StringRef", align 8
  %ref.tmp1153 = alloca i32, align 4
  %ref.tmp1155 = alloca i64, align 8
  %coerce1159 = alloca %"struct.std::pair.13", align 8
  %ref.tmp1160 = alloca %"class.llvh::StringRef", align 8
  %agg.tmp1161 = alloca %"class.llvh::StringRef", align 8
  %ref.tmp1164 = alloca i64, align 8
  %coerce1168 = alloca %"struct.std::pair.13", align 8
  %ref.tmp1171 = alloca i32, align 4
  %agg.tmp1172 = alloca %"class.llvh::StringRef", align 8
  %ref.tmp1174 = alloca i8, align 1
  %ref.tmp1178 = alloca i32, align 4
  %agg.tmp1179 = alloca %"class.llvh::StringRef", align 8
  %ref.tmp1181 = alloca i8, align 1
  %ref.tmp1185 = alloca i32, align 4
  %agg.tmp1186 = alloca %"class.llvh::StringRef", align 8
  %ref.tmp1188 = alloca i8, align 1
  %ref.tmp1190 = alloca %"class.llvh::StringRef", align 8
  %agg.tmp1191 = alloca %"class.llvh::StringRef", align 8
  %ref.tmp1194 = alloca i64, align 8
  %coerce1198 = alloca %"struct.std::pair.13", align 8
  %ref.tmp1201 = alloca i32, align 4
  %agg.tmp1202 = alloca %"class.llvh::StringRef", align 8
  %ref.tmp1204 = alloca i8, align 1
  %ref.tmp1208 = alloca i32, align 4
  %agg.tmp1209 = alloca %"class.llvh::StringRef", align 8
  %ref.tmp1211 = alloca i8, align 1
  %ref.tmp1215 = alloca i32, align 4
  %agg.tmp1216 = alloca %"class.llvh::StringRef", align 8
  %ref.tmp1218 = alloca i8, align 1
  %ref.tmp1222 = alloca i32, align 4
  %agg.tmp1223 = alloca %"class.llvh::StringRef", align 8
  %ref.tmp1225 = alloca i8, align 1
  %ref.tmp1227 = alloca i32, align 4
  %ref.tmp1229 = alloca %"class.llvh::StringRef", align 8
  %agg.tmp1230 = alloca %"class.llvh::StringRef", align 8
  %ref.tmp1233 = alloca i64, align 8
  %coerce1237 = alloca %"struct.std::pair.13", align 8
  %ref.tmp1240 = alloca i32, align 4
  %agg.tmp1241 = alloca %"class.llvh::StringRef", align 8
  %ref.tmp1243 = alloca i8, align 1
  %ref.tmp1247 = alloca i32, align 4
  %agg.tmp1248 = alloca %"class.llvh::StringRef", align 8
  %ref.tmp1250 = alloca i8, align 1
  %ref.tmp1254 = alloca i32, align 4
  %agg.tmp1255 = alloca %"class.llvh::StringRef", align 8
  %ref.tmp1257 = alloca i8, align 1
  %ref.tmp1259 = alloca %"class.llvh::StringRef", align 8
  %agg.tmp1260 = alloca %"class.llvh::StringRef", align 8
  %ref.tmp1263 = alloca i64, align 8
  %coerce1267 = alloca %"struct.std::pair.13", align 8
  %ref.tmp1270 = alloca i32, align 4
  %agg.tmp1271 = alloca %"class.llvh::StringRef", align 8
  %ref.tmp1273 = alloca i8, align 1
  %ref.tmp1277 = alloca i32, align 4
  %agg.tmp1278 = alloca %"class.llvh::StringRef", align 8
  %ref.tmp1280 = alloca i8, align 1
  %ref.tmp1284 = alloca i32, align 4
  %agg.tmp1285 = alloca %"class.llvh::StringRef", align 8
  %ref.tmp1287 = alloca i8, align 1
  %ref.tmp1289 = alloca %"class.llvh::StringRef", align 8
  %agg.tmp1290 = alloca %"class.llvh::StringRef", align 8
  %ref.tmp1293 = alloca i64, align 8
  %coerce1297 = alloca %"struct.std::pair.13", align 8
  %ref.tmp1300 = alloca i32, align 4
  %agg.tmp1301 = alloca %"class.llvh::StringRef", align 8
  %ref.tmp1303 = alloca i8, align 1
  %ref.tmp1307 = alloca i32, align 4
  %agg.tmp1308 = alloca %"class.llvh::StringRef", align 8
  %ref.tmp1310 = alloca i8, align 1
  %ref.tmp1314 = alloca i32, align 4
  %agg.tmp1315 = alloca %"class.llvh::StringRef", align 8
  %ref.tmp1317 = alloca i8, align 1
  %ref.tmp1319 = alloca %"class.llvh::StringRef", align 8
  %agg.tmp1320 = alloca %"class.llvh::StringRef", align 8
  %ref.tmp1323 = alloca i64, align 8
  %coerce1327 = alloca %"struct.std::pair.13", align 8
  %ref.tmp1330 = alloca i32, align 4
  %agg.tmp1331 = alloca %"class.llvh::StringRef", align 8
  %ref.tmp1333 = alloca i8, align 1
  %ref.tmp1335 = alloca %"class.llvh::StringRef", align 8
  %agg.tmp1336 = alloca %"class.llvh::StringRef", align 8
  %ref.tmp1339 = alloca i64, align 8
  %coerce1343 = alloca %"struct.std::pair.13", align 8
  %ref.tmp1346 = alloca i32, align 4
  %agg.tmp1347 = alloca %"class.llvh::StringRef", align 8
  %ref.tmp1349 = alloca i8, align 1
  %ref.tmp1351 = alloca %"class.llvh::StringRef", align 8
  %agg.tmp1352 = alloca %"class.llvh::StringRef", align 8
  %ref.tmp1355 = alloca i64, align 8
  %coerce1359 = alloca %"struct.std::pair.13", align 8
  %ref.tmp1362 = alloca i32, align 4
  %agg.tmp1363 = alloca %"class.llvh::StringRef", align 8
  %ref.tmp1365 = alloca i8, align 1
  %ref.tmp1369 = alloca i32, align 4
  %agg.tmp1370 = alloca %"class.llvh::StringRef", align 8
  %ref.tmp1372 = alloca i8, align 1
  %ref.tmp1376 = alloca i32, align 4
  %agg.tmp1377 = alloca %"class.llvh::StringRef", align 8
  %ref.tmp1379 = alloca i8, align 1
  %ref.tmp1381 = alloca %"class.llvh::StringRef", align 8
  %agg.tmp1382 = alloca %"class.llvh::StringRef", align 8
  %ref.tmp1385 = alloca i64, align 8
  %coerce1389 = alloca %"struct.std::pair.13", align 8
  %ref.tmp1392 = alloca i32, align 4
  %agg.tmp1393 = alloca %"class.llvh::StringRef", align 8
  %ref.tmp1395 = alloca i8, align 1
  %ref.tmp1397 = alloca %"class.llvh::StringRef", align 8
  %agg.tmp1398 = alloca %"class.llvh::StringRef", align 8
  %ref.tmp1401 = alloca i64, align 8
  %coerce1405 = alloca %"struct.std::pair.13", align 8
  %ref.tmp1408 = alloca i32, align 4
  %agg.tmp1409 = alloca %"class.llvh::StringRef", align 8
  %ref.tmp1411 = alloca i8, align 1
  %ref.tmp1415 = alloca i32, align 4
  %agg.tmp1416 = alloca %"class.llvh::StringRef", align 8
  %ref.tmp1418 = alloca i8, align 1
  %ref.tmp1420 = alloca %"class.llvh::StringRef", align 8
  %agg.tmp1421 = alloca %"class.llvh::StringRef", align 8
  %ref.tmp1424 = alloca i64, align 8
  %coerce1428 = alloca %"struct.std::pair.13", align 8
  %ref.tmp1431 = alloca i32, align 4
  %agg.tmp1432 = alloca %"class.llvh::StringRef", align 8
  %ref.tmp1434 = alloca i8, align 1
  %ref.tmp1438 = alloca i32, align 4
  %agg.tmp1439 = alloca %"class.llvh::StringRef", align 8
  %ref.tmp1441 = alloca i8, align 1
  %ref.tmp1443 = alloca %"class.llvh::StringRef", align 8
  %agg.tmp1444 = alloca %"class.llvh::StringRef", align 8
  %ref.tmp1447 = alloca i64, align 8
  %coerce1451 = alloca %"struct.std::pair.13", align 8
  %ref.tmp1454 = alloca i32, align 4
  %agg.tmp1455 = alloca %"class.llvh::StringRef", align 8
  %ref.tmp1457 = alloca i8, align 1
  %ref.tmp1461 = alloca i32, align 4
  %agg.tmp1462 = alloca %"class.llvh::StringRef", align 8
  %ref.tmp1464 = alloca i8, align 1
  %ref.tmp1466 = alloca %"class.llvh::StringRef", align 8
  %agg.tmp1467 = alloca %"class.llvh::StringRef", align 8
  %ref.tmp1470 = alloca i64, align 8
  %coerce1474 = alloca %"struct.std::pair.13", align 8
  %ref.tmp1477 = alloca i32, align 4
  %agg.tmp1478 = alloca %"class.llvh::StringRef", align 8
  %ref.tmp1480 = alloca i8, align 1
  %ref.tmp1484 = alloca i32, align 4
  %agg.tmp1485 = alloca %"class.llvh::StringRef", align 8
  %ref.tmp1487 = alloca i8, align 1
  %ref.tmp1489 = alloca %"class.llvh::StringRef", align 8
  %agg.tmp1490 = alloca %"class.llvh::StringRef", align 8
  %ref.tmp1493 = alloca i64, align 8
  %coerce1497 = alloca %"struct.std::pair.13", align 8
  %ref.tmp1500 = alloca i32, align 4
  %agg.tmp1501 = alloca %"class.llvh::StringRef", align 8
  %ref.tmp1503 = alloca i8, align 1
  %ref.tmp1507 = alloca i32, align 4
  %agg.tmp1508 = alloca %"class.llvh::StringRef", align 8
  %ref.tmp1510 = alloca i8, align 1
  %ref.tmp1512 = alloca %"class.llvh::StringRef", align 8
  %agg.tmp1513 = alloca %"class.llvh::StringRef", align 8
  %ref.tmp1516 = alloca i64, align 8
  %coerce1520 = alloca %"struct.std::pair.13", align 8
  %ref.tmp1523 = alloca i32, align 4
  %agg.tmp1524 = alloca %"class.llvh::StringRef", align 8
  %ref.tmp1526 = alloca i8, align 1
  %ref.tmp1530 = alloca i32, align 4
  %agg.tmp1531 = alloca %"class.llvh::StringRef", align 8
  %ref.tmp1533 = alloca i8, align 1
  %ref.tmp1535 = alloca %"class.llvh::StringRef", align 8
  %agg.tmp1536 = alloca %"class.llvh::StringRef", align 8
  %ref.tmp1539 = alloca i64, align 8
  %coerce1543 = alloca %"struct.std::pair.13", align 8
  %ref.tmp1546 = alloca i32, align 4
  %agg.tmp1547 = alloca %"class.llvh::StringRef", align 8
  %ref.tmp1549 = alloca i8, align 1
  %ref.tmp1553 = alloca i32, align 4
  %agg.tmp1554 = alloca %"class.llvh::StringRef", align 8
  %ref.tmp1556 = alloca i8, align 1
  %ref.tmp1558 = alloca %"class.llvh::StringRef", align 8
  %agg.tmp1559 = alloca %"class.llvh::StringRef", align 8
  %ref.tmp1562 = alloca i64, align 8
  %coerce1566 = alloca %"struct.std::pair.13", align 8
  %ref.tmp1569 = alloca i32, align 4
  %agg.tmp1570 = alloca %"class.llvh::StringRef", align 8
  %ref.tmp1572 = alloca i8, align 1
  %ref.tmp1576 = alloca i32, align 4
  %agg.tmp1577 = alloca %"class.llvh::StringRef", align 8
  %ref.tmp1579 = alloca i8, align 1
  %ref.tmp1583 = alloca i32, align 4
  %agg.tmp1584 = alloca %"class.llvh::StringRef", align 8
  %ref.tmp1586 = alloca i8, align 1
  %ref.tmp1588 = alloca %"class.llvh::StringRef", align 8
  %agg.tmp1589 = alloca %"class.llvh::StringRef", align 8
  %ref.tmp1592 = alloca i64, align 8
  %coerce1596 = alloca %"struct.std::pair.13", align 8
  %ref.tmp1599 = alloca i32, align 4
  %agg.tmp1600 = alloca %"class.llvh::StringRef", align 8
  %ref.tmp1602 = alloca i8, align 1
  %ref.tmp1606 = alloca i32, align 4
  %agg.tmp1607 = alloca %"class.llvh::StringRef", align 8
  %ref.tmp1609 = alloca i8, align 1
  %ref.tmp1613 = alloca i32, align 4
  %agg.tmp1614 = alloca %"class.llvh::StringRef", align 8
  %ref.tmp1616 = alloca i8, align 1
  %ref.tmp1620 = alloca i32, align 4
  %agg.tmp1621 = alloca %"class.llvh::StringRef", align 8
  %ref.tmp1623 = alloca i8, align 1
  %ref.tmp1627 = alloca i32, align 4
  %agg.tmp1628 = alloca %"class.llvh::StringRef", align 8
  %ref.tmp1630 = alloca i8, align 1
  %ref.tmp1634 = alloca i32, align 4
  %agg.tmp1635 = alloca %"class.llvh::StringRef", align 8
  %ref.tmp1637 = alloca i8, align 1
  %ref.tmp1639 = alloca %"class.llvh::StringRef", align 8
  %agg.tmp1640 = alloca %"class.llvh::StringRef", align 8
  %ref.tmp1643 = alloca i64, align 8
  %coerce1647 = alloca %"struct.std::pair.13", align 8
  %ref.tmp1650 = alloca i32, align 4
  %agg.tmp1651 = alloca %"class.llvh::StringRef", align 8
  %ref.tmp1653 = alloca i8, align 1
  %ref.tmp1657 = alloca i32, align 4
  %agg.tmp1658 = alloca %"class.llvh::StringRef", align 8
  %ref.tmp1660 = alloca i8, align 1
  %ref.tmp1664 = alloca i32, align 4
  %agg.tmp1665 = alloca %"class.llvh::StringRef", align 8
  %ref.tmp1667 = alloca i8, align 1
  %ref.tmp1671 = alloca i32, align 4
  %agg.tmp1672 = alloca %"class.llvh::StringRef", align 8
  %ref.tmp1674 = alloca i8, align 1
  %ref.tmp1678 = alloca i32, align 4
  %agg.tmp1679 = alloca %"class.llvh::StringRef", align 8
  %ref.tmp1681 = alloca i8, align 1
  %ref.tmp1685 = alloca i32, align 4
  %agg.tmp1686 = alloca %"class.llvh::StringRef", align 8
  %ref.tmp1688 = alloca i8, align 1
  %ref.tmp1692 = alloca i32, align 4
  %agg.tmp1693 = alloca %"class.llvh::StringRef", align 8
  %ref.tmp1695 = alloca i8, align 1
  %ref.tmp1697 = alloca %"class.llvh::StringRef", align 8
  %agg.tmp1698 = alloca %"class.llvh::StringRef", align 8
  %ref.tmp1701 = alloca i64, align 8
  %coerce1705 = alloca %"struct.std::pair.13", align 8
  %ref.tmp1708 = alloca i32, align 4
  %agg.tmp1709 = alloca %"class.llvh::StringRef", align 8
  %ref.tmp1711 = alloca i8, align 1
  %ref.tmp1715 = alloca i32, align 4
  %agg.tmp1716 = alloca %"class.llvh::StringRef", align 8
  %ref.tmp1718 = alloca i8, align 1
  %ref.tmp1722 = alloca i32, align 4
  %agg.tmp1723 = alloca %"class.llvh::StringRef", align 8
  %ref.tmp1725 = alloca i8, align 1
  %ref.tmp1729 = alloca i32, align 4
  %agg.tmp1730 = alloca %"class.llvh::StringRef", align 8
  %ref.tmp1732 = alloca i8, align 1
  %ref.tmp1736 = alloca i32, align 4
  %agg.tmp1737 = alloca %"class.llvh::StringRef", align 8
  %ref.tmp1739 = alloca i8, align 1
  %ref.tmp1743 = alloca i32, align 4
  %agg.tmp1744 = alloca %"class.llvh::StringRef", align 8
  %ref.tmp1746 = alloca i8, align 1
  %ref.tmp1750 = alloca i32, align 4
  %agg.tmp1751 = alloca %"class.llvh::StringRef", align 8
  %ref.tmp1753 = alloca i8, align 1
  %ref.tmp1755 = alloca %"class.llvh::StringRef", align 8
  %agg.tmp1756 = alloca %"class.llvh::StringRef", align 8
  %ref.tmp1759 = alloca i64, align 8
  %coerce1763 = alloca %"struct.std::pair.13", align 8
  %ref.tmp1766 = alloca i32, align 4
  %agg.tmp1767 = alloca %"class.llvh::StringRef", align 8
  %ref.tmp1769 = alloca i8, align 1
  %ref.tmp1771 = alloca %"class.llvh::StringRef", align 8
  %agg.tmp1772 = alloca %"class.llvh::StringRef", align 8
  %ref.tmp1775 = alloca i64, align 8
  %coerce1779 = alloca %"struct.std::pair.13", align 8
  %ref.tmp1782 = alloca i32, align 4
  %agg.tmp1783 = alloca %"class.llvh::StringRef", align 8
  %ref.tmp1785 = alloca i8, align 1
  %ref.tmp1789 = alloca i32, align 4
  %agg.tmp1790 = alloca %"class.llvh::StringRef", align 8
  %ref.tmp1792 = alloca i8, align 1
  %ref.tmp1796 = alloca i32, align 4
  %agg.tmp1797 = alloca %"class.llvh::StringRef", align 8
  %ref.tmp1799 = alloca i8, align 1
  %ref.tmp1803 = alloca i32, align 4
  %agg.tmp1804 = alloca %"class.llvh::StringRef", align 8
  %ref.tmp1806 = alloca i8, align 1
  %ref.tmp1810 = alloca i32, align 4
  %agg.tmp1811 = alloca %"class.llvh::StringRef", align 8
  %ref.tmp1813 = alloca i8, align 1
  %ref.tmp1817 = alloca i32, align 4
  %agg.tmp1818 = alloca %"class.llvh::StringRef", align 8
  %ref.tmp1820 = alloca i8, align 1
  %ref.tmp1824 = alloca i32, align 4
  %agg.tmp1825 = alloca %"class.llvh::StringRef", align 8
  %ref.tmp1827 = alloca i8, align 1
  %ref.tmp1831 = alloca i32, align 4
  %agg.tmp1832 = alloca %"class.llvh::StringRef", align 8
  %ref.tmp1834 = alloca i8, align 1
  %ref.tmp1838 = alloca i32, align 4
  %agg.tmp1839 = alloca %"class.llvh::StringRef", align 8
  %ref.tmp1841 = alloca i8, align 1
  %ref.tmp1843 = alloca %"class.llvh::StringRef", align 8
  %agg.tmp1844 = alloca %"class.llvh::StringRef", align 8
  %ref.tmp1847 = alloca i64, align 8
  %coerce1851 = alloca %"struct.std::pair.13", align 8
  %ref.tmp1854 = alloca i32, align 4
  %agg.tmp1855 = alloca %"class.llvh::StringRef", align 8
  %ref.tmp1857 = alloca i8, align 1
  %ref.tmp1861 = alloca i32, align 4
  %agg.tmp1862 = alloca %"class.llvh::StringRef", align 8
  %ref.tmp1864 = alloca i8, align 1
  %ref.tmp1868 = alloca i32, align 4
  %agg.tmp1869 = alloca %"class.llvh::StringRef", align 8
  %ref.tmp1871 = alloca i8, align 1
  %ref.tmp1875 = alloca i32, align 4
  %agg.tmp1876 = alloca %"class.llvh::StringRef", align 8
  %ref.tmp1878 = alloca i8, align 1
  %ref.tmp1882 = alloca i32, align 4
  %agg.tmp1883 = alloca %"class.llvh::StringRef", align 8
  %ref.tmp1885 = alloca i8, align 1
  %ref.tmp1889 = alloca i32, align 4
  %agg.tmp1890 = alloca %"class.llvh::StringRef", align 8
  %ref.tmp1892 = alloca i8, align 1
  %ref.tmp1896 = alloca i32, align 4
  %agg.tmp1897 = alloca %"class.llvh::StringRef", align 8
  %ref.tmp1899 = alloca i8, align 1
  %ref.tmp1903 = alloca i32, align 4
  %agg.tmp1904 = alloca %"class.llvh::StringRef", align 8
  %ref.tmp1906 = alloca i8, align 1
  %ref.tmp1908 = alloca %"class.llvh::StringRef", align 8
  %agg.tmp1909 = alloca %"class.llvh::StringRef", align 8
  %ref.tmp1912 = alloca i64, align 8
  %coerce1916 = alloca %"struct.std::pair.13", align 8
  %ref.tmp1919 = alloca i32, align 4
  %agg.tmp1920 = alloca %"class.llvh::StringRef", align 8
  %ref.tmp1922 = alloca i8, align 1
  %ref.tmp1926 = alloca i32, align 4
  %agg.tmp1927 = alloca %"class.llvh::StringRef", align 8
  %ref.tmp1929 = alloca i8, align 1
  %ref.tmp1933 = alloca i32, align 4
  %agg.tmp1934 = alloca %"class.llvh::StringRef", align 8
  %ref.tmp1936 = alloca i8, align 1
  %ref.tmp1940 = alloca i32, align 4
  %agg.tmp1941 = alloca %"class.llvh::StringRef", align 8
  %ref.tmp1943 = alloca i8, align 1
  %ref.tmp1947 = alloca i32, align 4
  %agg.tmp1948 = alloca %"class.llvh::StringRef", align 8
  %ref.tmp1950 = alloca i8, align 1
  %ref.tmp1952 = alloca %"class.llvh::StringRef", align 8
  %agg.tmp1953 = alloca %"class.llvh::StringRef", align 8
  %ref.tmp1956 = alloca i64, align 8
  %coerce1960 = alloca %"struct.std::pair.13", align 8
  %ref.tmp1963 = alloca i32, align 4
  %agg.tmp1964 = alloca %"class.llvh::StringRef", align 8
  %ref.tmp1966 = alloca i8, align 1
  %ref.tmp1970 = alloca i32, align 4
  %agg.tmp1971 = alloca %"class.llvh::StringRef", align 8
  %ref.tmp1973 = alloca i8, align 1
  %ref.tmp1977 = alloca i32, align 4
  %agg.tmp1978 = alloca %"class.llvh::StringRef", align 8
  %ref.tmp1980 = alloca i8, align 1
  %ref.tmp1984 = alloca i32, align 4
  %agg.tmp1985 = alloca %"class.llvh::StringRef", align 8
  %ref.tmp1987 = alloca i8, align 1
  %ref.tmp1989 = alloca %"class.llvh::StringRef", align 8
  %agg.tmp1990 = alloca %"class.llvh::StringRef", align 8
  %ref.tmp1993 = alloca i64, align 8
  %coerce1997 = alloca %"struct.std::pair.13", align 8
  %ref.tmp2000 = alloca i32, align 4
  %agg.tmp2001 = alloca %"class.llvh::StringRef", align 8
  %ref.tmp2003 = alloca i8, align 1
  %ref.tmp2007 = alloca i32, align 4
  %agg.tmp2008 = alloca %"class.llvh::StringRef", align 8
  %ref.tmp2010 = alloca i8, align 1
  %ref.tmp2014 = alloca i32, align 4
  %agg.tmp2015 = alloca %"class.llvh::StringRef", align 8
  %ref.tmp2017 = alloca i8, align 1
  %ref.tmp2019 = alloca %"class.llvh::StringRef", align 8
  %agg.tmp2020 = alloca %"class.llvh::StringRef", align 8
  %ref.tmp2023 = alloca i64, align 8
  %coerce2027 = alloca %"struct.std::pair.13", align 8
  %ref.tmp2030 = alloca i32, align 4
  %agg.tmp2031 = alloca %"class.llvh::StringRef", align 8
  %ref.tmp2033 = alloca i8, align 1
  %ref.tmp2035 = alloca %"class.llvh::StringRef", align 8
  %agg.tmp2036 = alloca %"class.llvh::StringRef", align 8
  %ref.tmp2039 = alloca i64, align 8
  %coerce2043 = alloca %"struct.std::pair.13", align 8
  %ref.tmp2046 = alloca i32, align 4
  %agg.tmp2047 = alloca %"class.llvh::StringRef", align 8
  %ref.tmp2049 = alloca i8, align 1
  %ref.tmp2051 = alloca %"class.llvh::StringRef", align 8
  %agg.tmp2052 = alloca %"class.llvh::StringRef", align 8
  %ref.tmp2055 = alloca i64, align 8
  %coerce2059 = alloca %"struct.std::pair.13", align 8
  %ref.tmp2062 = alloca i32, align 4
  %agg.tmp2063 = alloca %"class.llvh::StringRef", align 8
  %ref.tmp2065 = alloca i8, align 1
  %ref.tmp2069 = alloca i32, align 4
  %agg.tmp2070 = alloca %"class.llvh::StringRef", align 8
  %ref.tmp2072 = alloca i8, align 1
  %ref.tmp2074 = alloca %"class.llvh::StringRef", align 8
  %agg.tmp2075 = alloca %"class.llvh::StringRef", align 8
  %ref.tmp2078 = alloca i64, align 8
  %coerce2082 = alloca %"struct.std::pair.13", align 8
  %ref.tmp2085 = alloca i32, align 4
  %agg.tmp2086 = alloca %"class.llvh::StringRef", align 8
  %ref.tmp2088 = alloca i8, align 1
  %ref.tmp2092 = alloca i32, align 4
  %agg.tmp2093 = alloca %"class.llvh::StringRef", align 8
  %ref.tmp2095 = alloca i8, align 1
  %ref.tmp2099 = alloca i32, align 4
  %agg.tmp2100 = alloca %"class.llvh::StringRef", align 8
  %ref.tmp2102 = alloca i8, align 1
  %ref.tmp2106 = alloca i32, align 4
  %agg.tmp2107 = alloca %"class.llvh::StringRef", align 8
  %ref.tmp2109 = alloca i8, align 1
  %ref.tmp2111 = alloca %"class.llvh::StringRef", align 8
  %agg.tmp2112 = alloca %"class.llvh::StringRef", align 8
  %ref.tmp2115 = alloca i64, align 8
  %coerce2119 = alloca %"struct.std::pair.13", align 8
  %ref.tmp2122 = alloca i32, align 4
  %agg.tmp2123 = alloca %"class.llvh::StringRef", align 8
  %ref.tmp2125 = alloca i8, align 1
  %ref.tmp2129 = alloca i32, align 4
  %agg.tmp2130 = alloca %"class.llvh::StringRef", align 8
  %ref.tmp2132 = alloca i8, align 1
  %ref.tmp2134 = alloca %"class.llvh::StringRef", align 8
  %agg.tmp2135 = alloca %"class.llvh::StringRef", align 8
  %ref.tmp2138 = alloca i64, align 8
  %coerce2142 = alloca %"struct.std::pair.13", align 8
  %ref.tmp2145 = alloca i32, align 4
  %agg.tmp2146 = alloca %"class.llvh::StringRef", align 8
  %ref.tmp2148 = alloca i8, align 1
  %ref.tmp2150 = alloca %"class.llvh::StringRef", align 8
  %agg.tmp2151 = alloca %"class.llvh::StringRef", align 8
  %ref.tmp2154 = alloca i64, align 8
  %coerce2158 = alloca %"struct.std::pair.13", align 8
  %ref.tmp2161 = alloca i32, align 4
  %agg.tmp2162 = alloca %"class.llvh::StringRef", align 8
  %ref.tmp2164 = alloca i8, align 1
  %ref.tmp2166 = alloca %"class.llvh::StringRef", align 8
  %agg.tmp2167 = alloca %"class.llvh::StringRef", align 8
  %ref.tmp2170 = alloca i64, align 8
  %coerce2174 = alloca %"struct.std::pair.13", align 8
  %ref.tmp2177 = alloca i32, align 4
  %agg.tmp2178 = alloca %"class.llvh::StringRef", align 8
  %ref.tmp2180 = alloca i8, align 1
  %ref.tmp2184 = alloca i32, align 4
  %agg.tmp2185 = alloca %"class.llvh::StringRef", align 8
  %ref.tmp2187 = alloca i8, align 1
  %ref.tmp2189 = alloca %"class.llvh::StringRef", align 8
  %agg.tmp2190 = alloca %"class.llvh::StringRef", align 8
  %ref.tmp2192 = alloca i32, align 4
  %ref.tmp2194 = alloca i64, align 8
  %coerce2198 = alloca %"struct.std::pair.13", align 8
  %ref.tmp2199 = alloca %"class.llvh::StringRef", align 8
  %agg.tmp2200 = alloca %"class.llvh::StringRef", align 8
  %ref.tmp2203 = alloca i64, align 8
  %coerce2207 = alloca %"struct.std::pair.13", align 8
  %ref.tmp2210 = alloca i32, align 4
  %agg.tmp2211 = alloca %"class.llvh::StringRef", align 8
  %ref.tmp2213 = alloca i8, align 1
  %ref.tmp2217 = alloca i32, align 4
  %agg.tmp2218 = alloca %"class.llvh::StringRef", align 8
  %ref.tmp2220 = alloca i8, align 1
  %ref.tmp2222 = alloca %"class.llvh::StringRef", align 8
  %agg.tmp2223 = alloca %"class.llvh::StringRef", align 8
  %ref.tmp2226 = alloca i64, align 8
  %coerce2230 = alloca %"struct.std::pair.13", align 8
  %ref.tmp2233 = alloca i32, align 4
  %agg.tmp2234 = alloca %"class.llvh::StringRef", align 8
  %ref.tmp2236 = alloca i8, align 1
  %ref.tmp2240 = alloca i32, align 4
  %agg.tmp2241 = alloca %"class.llvh::StringRef", align 8
  %ref.tmp2243 = alloca i8, align 1
  %ref.tmp2245 = alloca %"class.llvh::StringRef", align 8
  %agg.tmp2246 = alloca %"class.llvh::StringRef", align 8
  %ref.tmp2249 = alloca i64, align 8
  %coerce2253 = alloca %"struct.std::pair.13", align 8
  %ref.tmp2256 = alloca i32, align 4
  %agg.tmp2257 = alloca %"class.llvh::StringRef", align 8
  %ref.tmp2259 = alloca i8, align 1
  %ref.tmp2261 = alloca %"class.llvh::StringRef", align 8
  %agg.tmp2262 = alloca %"class.llvh::StringRef", align 8
  %ref.tmp2265 = alloca i64, align 8
  %coerce2269 = alloca %"struct.std::pair.13", align 8
  %ref.tmp2272 = alloca i32, align 4
  %agg.tmp2273 = alloca %"class.llvh::StringRef", align 8
  %ref.tmp2275 = alloca i8, align 1
  %ref.tmp2279 = alloca i32, align 4
  %agg.tmp2280 = alloca %"class.llvh::StringRef", align 8
  %ref.tmp2282 = alloca i8, align 1
  %ref.tmp2284 = alloca i32, align 4
  %ref.tmp2286 = alloca %"class.llvh::StringRef", align 8
  %agg.tmp2287 = alloca %"class.llvh::StringRef", align 8
  %ref.tmp2289 = alloca i32, align 4
  %ref.tmp2291 = alloca i64, align 8
  %coerce2295 = alloca %"struct.std::pair.13", align 8
  %ref.tmp2296 = alloca %"class.llvh::StringRef", align 8
  %agg.tmp2297 = alloca %"class.llvh::StringRef", align 8
  %ref.tmp2300 = alloca i64, align 8
  %coerce2304 = alloca %"struct.std::pair.13", align 8
  %ref.tmp2307 = alloca i32, align 4
  %agg.tmp2308 = alloca %"class.llvh::StringRef", align 8
  %ref.tmp2310 = alloca i8, align 1
  %ref.tmp2312 = alloca %"class.llvh::StringRef", align 8
  %agg.tmp2313 = alloca %"class.llvh::StringRef", align 8
  %ref.tmp2316 = alloca i64, align 8
  %coerce2320 = alloca %"struct.std::pair.13", align 8
  %ref.tmp2323 = alloca i32, align 4
  %agg.tmp2324 = alloca %"class.llvh::StringRef", align 8
  %ref.tmp2326 = alloca i8, align 1
  %ref.tmp2330 = alloca i32, align 4
  %agg.tmp2331 = alloca %"class.llvh::StringRef", align 8
  %ref.tmp2333 = alloca i8, align 1
  %ref.tmp2335 = alloca %"class.llvh::StringRef", align 8
  %agg.tmp2336 = alloca %"class.llvh::StringRef", align 8
  %ref.tmp2339 = alloca i64, align 8
  %coerce2343 = alloca %"struct.std::pair.13", align 8
  %ref.tmp2346 = alloca i32, align 4
  %agg.tmp2347 = alloca %"class.llvh::StringRef", align 8
  %ref.tmp2349 = alloca i8, align 1
  %ref.tmp2353 = alloca i32, align 4
  %agg.tmp2354 = alloca %"class.llvh::StringRef", align 8
  %ref.tmp2356 = alloca i8, align 1
  %ref.tmp2358 = alloca %"class.llvh::StringRef", align 8
  %agg.tmp2359 = alloca %"class.llvh::StringRef", align 8
  %ref.tmp2362 = alloca i64, align 8
  %coerce2366 = alloca %"struct.std::pair.13", align 8
  %ref.tmp2367 = alloca %"class.llvh::StringRef", align 8
  %agg.tmp2368 = alloca %"class.llvh::StringRef", align 8
  %ref.tmp2371 = alloca i64, align 8
  %coerce2375 = alloca %"struct.std::pair.13", align 8
  %ref.tmp2378 = alloca i32, align 4
  %agg.tmp2379 = alloca %"class.llvh::StringRef", align 8
  %ref.tmp2381 = alloca i8, align 1
  %ref.tmp2383 = alloca %"class.llvh::StringRef", align 8
  %agg.tmp2384 = alloca %"class.llvh::StringRef", align 8
  %ref.tmp2387 = alloca i64, align 8
  %coerce2391 = alloca %"struct.std::pair.13", align 8
  %ref.tmp2394 = alloca i32, align 4
  %agg.tmp2395 = alloca %"class.llvh::StringRef", align 8
  %ref.tmp2397 = alloca i8, align 1
  %ref.tmp2399 = alloca %"class.llvh::StringRef", align 8
  %agg.tmp2400 = alloca %"class.llvh::StringRef", align 8
  %ref.tmp2403 = alloca i64, align 8
  %coerce2407 = alloca %"struct.std::pair.13", align 8
  %ref.tmp2410 = alloca i32, align 4
  %agg.tmp2411 = alloca %"class.llvh::StringRef", align 8
  %ref.tmp2413 = alloca i8, align 1
  %ref.tmp2417 = alloca i32, align 4
  %agg.tmp2418 = alloca %"class.llvh::StringRef", align 8
  %ref.tmp2420 = alloca i8, align 1
  %ref.tmp2424 = alloca i32, align 4
  %agg.tmp2425 = alloca %"class.llvh::StringRef", align 8
  %ref.tmp2427 = alloca i8, align 1
  %ref.tmp2431 = alloca i32, align 4
  %agg.tmp2432 = alloca %"class.llvh::StringRef", align 8
  %ref.tmp2434 = alloca i8, align 1
  %ref.tmp2436 = alloca %"class.llvh::StringRef", align 8
  %agg.tmp2437 = alloca %"class.llvh::StringRef", align 8
  %ref.tmp2440 = alloca i64, align 8
  %coerce2444 = alloca %"struct.std::pair.13", align 8
  %ref.tmp2447 = alloca i32, align 4
  %agg.tmp2448 = alloca %"class.llvh::StringRef", align 8
  %ref.tmp2450 = alloca i8, align 1
  %ref.tmp2452 = alloca %"class.llvh::StringRef", align 8
  %agg.tmp2453 = alloca %"class.llvh::StringRef", align 8
  %ref.tmp2456 = alloca i64, align 8
  %coerce2460 = alloca %"struct.std::pair.13", align 8
  %ref.tmp2463 = alloca i32, align 4
  %agg.tmp2464 = alloca %"class.llvh::StringRef", align 8
  %ref.tmp2466 = alloca i8, align 1
  %ref.tmp2470 = alloca i32, align 4
  %agg.tmp2471 = alloca %"class.llvh::StringRef", align 8
  %ref.tmp2473 = alloca i8, align 1
  %ref.tmp2475 = alloca %"class.llvh::StringRef", align 8
  %agg.tmp2476 = alloca %"class.llvh::StringRef", align 8
  %ref.tmp2479 = alloca i64, align 8
  %coerce2483 = alloca %"struct.std::pair.13", align 8
  %ref.tmp2486 = alloca i32, align 4
  %agg.tmp2487 = alloca %"class.llvh::StringRef", align 8
  %ref.tmp2489 = alloca i8, align 1
  %ref.tmp2491 = alloca %"class.llvh::StringRef", align 8
  %agg.tmp2492 = alloca %"class.llvh::StringRef", align 8
  %ref.tmp2495 = alloca i64, align 8
  %coerce2499 = alloca %"struct.std::pair.13", align 8
  %ref.tmp2502 = alloca i32, align 4
  %agg.tmp2503 = alloca %"class.llvh::StringRef", align 8
  %ref.tmp2505 = alloca i8, align 1
  %ref.tmp2509 = alloca i32, align 4
  %agg.tmp2510 = alloca %"class.llvh::StringRef", align 8
  %ref.tmp2512 = alloca i8, align 1
  %ref.tmp2514 = alloca %"class.llvh::StringRef", align 8
  %agg.tmp2515 = alloca %"class.llvh::StringRef", align 8
  %ref.tmp2518 = alloca i64, align 8
  %coerce2522 = alloca %"struct.std::pair.13", align 8
  %ref.tmp2525 = alloca i32, align 4
  %agg.tmp2526 = alloca %"class.llvh::StringRef", align 8
  %ref.tmp2528 = alloca i8, align 1
  %ref.tmp2532 = alloca i32, align 4
  %agg.tmp2533 = alloca %"class.llvh::StringRef", align 8
  %ref.tmp2535 = alloca i8, align 1
  %ref.tmp2537 = alloca %"class.llvh::StringRef", align 8
  %agg.tmp2538 = alloca %"class.llvh::StringRef", align 8
  %ref.tmp2541 = alloca i64, align 8
  %coerce2545 = alloca %"struct.std::pair.13", align 8
  %ref.tmp2548 = alloca i32, align 4
  %agg.tmp2549 = alloca %"class.llvh::StringRef", align 8
  %ref.tmp2551 = alloca i8, align 1
  %ref.tmp2555 = alloca i32, align 4
  %agg.tmp2556 = alloca %"class.llvh::StringRef", align 8
  %ref.tmp2558 = alloca i8, align 1
  %ref.tmp2562 = alloca i32, align 4
  %agg.tmp2563 = alloca %"class.llvh::StringRef", align 8
  %ref.tmp2565 = alloca i8, align 1
  %ref.tmp2567 = alloca %"class.llvh::StringRef", align 8
  %agg.tmp2568 = alloca %"class.llvh::StringRef", align 8
  %ref.tmp2571 = alloca i64, align 8
  %coerce2575 = alloca %"struct.std::pair.13", align 8
  %ref.tmp2578 = alloca i32, align 4
  %agg.tmp2579 = alloca %"class.llvh::StringRef", align 8
  %ref.tmp2581 = alloca i8, align 1
  %ref.tmp2585 = alloca i32, align 4
  %agg.tmp2586 = alloca %"class.llvh::StringRef", align 8
  %ref.tmp2588 = alloca i8, align 1
  %ref.tmp2592 = alloca i32, align 4
  %agg.tmp2593 = alloca %"class.llvh::StringRef", align 8
  %ref.tmp2595 = alloca i8, align 1
  %ref.tmp2597 = alloca %"class.llvh::StringRef", align 8
  %agg.tmp2598 = alloca %"class.llvh::StringRef", align 8
  %ref.tmp2601 = alloca i64, align 8
  %coerce2605 = alloca %"struct.std::pair.13", align 8
  %ref.tmp2606 = alloca %"class.llvh::StringRef", align 8
  %agg.tmp2607 = alloca %"class.llvh::StringRef", align 8
  %ref.tmp2610 = alloca i64, align 8
  %coerce2614 = alloca %"struct.std::pair.13", align 8
  %ref.tmp2615 = alloca i32, align 4
  %ref.tmp2617 = alloca %"class.llvh::StringRef", align 8
  %agg.tmp2618 = alloca %"class.llvh::StringRef", align 8
  %ref.tmp2620 = alloca i32, align 4
  %ref.tmp2622 = alloca i64, align 8
  %coerce2626 = alloca %"struct.std::pair.13", align 8
  %ref.tmp2627 = alloca %"class.llvh::StringRef", align 8
  %agg.tmp2628 = alloca %"class.llvh::StringRef", align 8
  %ref.tmp2631 = alloca i64, align 8
  %coerce2635 = alloca %"struct.std::pair.13", align 8
  %ref.tmp2636 = alloca %"class.llvh::StringRef", align 8
  %agg.tmp2637 = alloca %"class.llvh::StringRef", align 8
  %ref.tmp2640 = alloca i64, align 8
  %coerce2644 = alloca %"struct.std::pair.13", align 8
  %ref.tmp2645 = alloca %"class.llvh::StringRef", align 8
  %agg.tmp2646 = alloca %"class.llvh::StringRef", align 8
  %ref.tmp2649 = alloca i64, align 8
  %coerce2653 = alloca %"struct.std::pair.13", align 8
  %ref.tmp2654 = alloca %"class.llvh::StringRef", align 8
  %agg.tmp2655 = alloca %"class.llvh::StringRef", align 8
  %ref.tmp2658 = alloca i64, align 8
  %coerce2662 = alloca %"struct.std::pair.13", align 8
  %ref.tmp2663 = alloca %"class.llvh::StringRef", align 8
  %agg.tmp2664 = alloca %"class.llvh::StringRef", align 8
  %ref.tmp2667 = alloca i64, align 8
  %coerce2671 = alloca %"struct.std::pair.13", align 8
  %ref.tmp2674 = alloca i32, align 4
  %agg.tmp2675 = alloca %"class.llvh::StringRef", align 8
  %ref.tmp2677 = alloca i8, align 1
  %ref.tmp2681 = alloca i32, align 4
  %agg.tmp2682 = alloca %"class.llvh::StringRef", align 8
  %ref.tmp2684 = alloca i8, align 1
  %ref.tmp2686 = alloca %"class.llvh::StringRef", align 8
  %agg.tmp2687 = alloca %"class.llvh::StringRef", align 8
  %ref.tmp2690 = alloca i64, align 8
  %coerce2694 = alloca %"struct.std::pair.13", align 8
  %ref.tmp2697 = alloca i32, align 4
  %agg.tmp2698 = alloca %"class.llvh::StringRef", align 8
  %ref.tmp2700 = alloca i8, align 1
  %ref.tmp2704 = alloca i32, align 4
  %agg.tmp2705 = alloca %"class.llvh::StringRef", align 8
  %ref.tmp2707 = alloca i8, align 1
  %ref.tmp2709 = alloca %"class.llvh::StringRef", align 8
  %agg.tmp2710 = alloca %"class.llvh::StringRef", align 8
  %ref.tmp2713 = alloca i64, align 8
  %coerce2717 = alloca %"struct.std::pair.13", align 8
  %ref.tmp2720 = alloca i32, align 4
  %agg.tmp2721 = alloca %"class.llvh::StringRef", align 8
  %ref.tmp2723 = alloca i8, align 1
  %ref.tmp2725 = alloca %"class.llvh::StringRef", align 8
  %agg.tmp2726 = alloca %"class.llvh::StringRef", align 8
  %ref.tmp2729 = alloca i64, align 8
  %coerce2733 = alloca %"struct.std::pair.13", align 8
  %ref.tmp2734 = alloca %"class.llvh::StringRef", align 8
  %agg.tmp2735 = alloca %"class.llvh::StringRef", align 8
  %ref.tmp2738 = alloca i64, align 8
  %coerce2742 = alloca %"struct.std::pair.13", align 8
  %ref.tmp2745 = alloca i32, align 4
  %agg.tmp2746 = alloca %"class.llvh::StringRef", align 8
  %ref.tmp2748 = alloca i8, align 1
  %ref.tmp2752 = alloca i32, align 4
  %agg.tmp2753 = alloca %"class.llvh::StringRef", align 8
  %ref.tmp2755 = alloca i8, align 1
  %ref.tmp2757 = alloca %"class.llvh::StringRef", align 8
  %agg.tmp2758 = alloca %"class.llvh::StringRef", align 8
  %ref.tmp2761 = alloca i64, align 8
  %coerce2765 = alloca %"struct.std::pair.13", align 8
  %ref.tmp2766 = alloca %"class.llvh::StringRef", align 8
  %agg.tmp2767 = alloca %"class.llvh::StringRef", align 8
  %ref.tmp2770 = alloca i64, align 8
  %coerce2774 = alloca %"struct.std::pair.13", align 8
  %ref.tmp2775 = alloca %"class.llvh::StringRef", align 8
  %agg.tmp2776 = alloca %"class.llvh::StringRef", align 8
  %ref.tmp2779 = alloca i64, align 8
  %coerce2783 = alloca %"struct.std::pair.13", align 8
  %ref.tmp2784 = alloca %"class.llvh::StringRef", align 8
  %agg.tmp2785 = alloca %"class.llvh::StringRef", align 8
  %ref.tmp2788 = alloca i64, align 8
  %coerce2792 = alloca %"struct.std::pair.13", align 8
  %ref.tmp2793 = alloca %"class.llvh::StringRef", align 8
  %agg.tmp2794 = alloca %"class.llvh::StringRef", align 8
  %ref.tmp2797 = alloca i64, align 8
  %coerce2801 = alloca %"struct.std::pair.13", align 8
  %ref.tmp2802 = alloca %"class.llvh::StringRef", align 8
  %agg.tmp2803 = alloca %"class.llvh::StringRef", align 8
  %ref.tmp2806 = alloca i64, align 8
  %coerce2810 = alloca %"struct.std::pair.13", align 8
  %ref.tmp2811 = alloca %"class.llvh::StringRef", align 8
  %agg.tmp2812 = alloca %"class.llvh::StringRef", align 8
  %ref.tmp2815 = alloca i64, align 8
  %coerce2819 = alloca %"struct.std::pair.13", align 8
  %ref.tmp2822 = alloca i32, align 4
  %agg.tmp2823 = alloca %"class.llvh::StringRef", align 8
  %ref.tmp2825 = alloca i8, align 1
  %ref.tmp2829 = alloca i32, align 4
  %agg.tmp2830 = alloca %"class.llvh::StringRef", align 8
  %ref.tmp2832 = alloca i8, align 1
  %ref.tmp2836 = alloca i32, align 4
  %agg.tmp2837 = alloca %"class.llvh::StringRef", align 8
  %ref.tmp2839 = alloca i8, align 1
  %ref.tmp2843 = alloca i32, align 4
  %agg.tmp2844 = alloca %"class.llvh::StringRef", align 8
  %ref.tmp2846 = alloca i8, align 1
  %ref.tmp2850 = alloca i32, align 4
  %agg.tmp2851 = alloca %"class.llvh::StringRef", align 8
  %ref.tmp2853 = alloca i8, align 1
  %ref.tmp2855 = alloca %"class.llvh::StringRef", align 8
  %agg.tmp2856 = alloca %"class.llvh::StringRef", align 8
  %ref.tmp2859 = alloca i64, align 8
  %coerce2863 = alloca %"struct.std::pair.13", align 8
  %ref.tmp2866 = alloca i32, align 4
  %agg.tmp2867 = alloca %"class.llvh::StringRef", align 8
  %ref.tmp2869 = alloca i8, align 1
  %ref.tmp2873 = alloca i32, align 4
  %agg.tmp2874 = alloca %"class.llvh::StringRef", align 8
  %ref.tmp2876 = alloca i8, align 1
  %ref.tmp2880 = alloca i32, align 4
  %agg.tmp2881 = alloca %"class.llvh::StringRef", align 8
  %ref.tmp2883 = alloca i8, align 1
  %ref.tmp2885 = alloca %"class.llvh::StringRef", align 8
  %agg.tmp2886 = alloca %"class.llvh::StringRef", align 8
  %ref.tmp2889 = alloca i64, align 8
  %coerce2893 = alloca %"struct.std::pair.13", align 8
  %ref.tmp2896 = alloca i32, align 4
  %agg.tmp2897 = alloca %"class.llvh::StringRef", align 8
  %ref.tmp2899 = alloca i8, align 1
  %ref.tmp2903 = alloca i32, align 4
  %agg.tmp2904 = alloca %"class.llvh::StringRef", align 8
  %ref.tmp2906 = alloca i8, align 1
  %ref.tmp2910 = alloca i32, align 4
  %agg.tmp2911 = alloca %"class.llvh::StringRef", align 8
  %ref.tmp2913 = alloca i8, align 1
  %ref.tmp2917 = alloca i32, align 4
  %agg.tmp2918 = alloca %"class.llvh::StringRef", align 8
  %ref.tmp2920 = alloca i8, align 1
  %ref.tmp2922 = alloca %"class.llvh::StringRef", align 8
  %agg.tmp2923 = alloca %"class.llvh::StringRef", align 8
  %ref.tmp2926 = alloca i64, align 8
  %coerce2930 = alloca %"struct.std::pair.13", align 8
  %ref.tmp2933 = alloca i32, align 4
  %agg.tmp2934 = alloca %"class.llvh::StringRef", align 8
  %ref.tmp2936 = alloca i8, align 1
  %ref.tmp2940 = alloca i32, align 4
  %agg.tmp2941 = alloca %"class.llvh::StringRef", align 8
  %ref.tmp2943 = alloca i8, align 1
  %ref.tmp2947 = alloca i32, align 4
  %agg.tmp2948 = alloca %"class.llvh::StringRef", align 8
  %ref.tmp2950 = alloca i8, align 1
  %ref.tmp2952 = alloca %"class.llvh::StringRef", align 8
  %agg.tmp2953 = alloca %"class.llvh::StringRef", align 8
  %ref.tmp2956 = alloca i64, align 8
  %coerce2960 = alloca %"struct.std::pair.13", align 8
  %ref.tmp2963 = alloca i32, align 4
  %agg.tmp2964 = alloca %"class.llvh::StringRef", align 8
  %ref.tmp2966 = alloca i8, align 1
  %ref.tmp2968 = alloca %"class.llvh::StringRef", align 8
  %agg.tmp2969 = alloca %"class.llvh::StringRef", align 8
  %ref.tmp2972 = alloca i64, align 8
  %coerce2976 = alloca %"struct.std::pair.13", align 8
  %ref.tmp2979 = alloca i32, align 4
  %agg.tmp2980 = alloca %"class.llvh::StringRef", align 8
  %ref.tmp2982 = alloca i8, align 1
  %ref.tmp2986 = alloca i32, align 4
  %agg.tmp2987 = alloca %"class.llvh::StringRef", align 8
  %ref.tmp2989 = alloca i8, align 1
  %ref.tmp2991 = alloca %"class.llvh::StringRef", align 8
  %agg.tmp2992 = alloca %"class.llvh::StringRef", align 8
  %ref.tmp2995 = alloca i64, align 8
  %coerce2999 = alloca %"struct.std::pair.13", align 8
  %ref.tmp3002 = alloca i32, align 4
  %agg.tmp3003 = alloca %"class.llvh::StringRef", align 8
  %ref.tmp3005 = alloca i8, align 1
  %ref.tmp3007 = alloca %"class.llvh::StringRef", align 8
  %agg.tmp3008 = alloca %"class.llvh::StringRef", align 8
  %ref.tmp3011 = alloca i64, align 8
  %coerce3015 = alloca %"struct.std::pair.13", align 8
  %ref.tmp3018 = alloca i32, align 4
  %agg.tmp3019 = alloca %"class.llvh::StringRef", align 8
  %ref.tmp3021 = alloca i8, align 1
  %ref.tmp3023 = alloca %"class.llvh::StringRef", align 8
  %agg.tmp3024 = alloca %"class.llvh::StringRef", align 8
  %ref.tmp3027 = alloca i64, align 8
  %coerce3031 = alloca %"struct.std::pair.13", align 8
  %ref.tmp3034 = alloca i32, align 4
  %agg.tmp3035 = alloca %"class.llvh::StringRef", align 8
  %ref.tmp3037 = alloca i8, align 1
  %ref.tmp3041 = alloca i32, align 4
  %agg.tmp3042 = alloca %"class.llvh::StringRef", align 8
  %ref.tmp3044 = alloca i8, align 1
  %ref.tmp3046 = alloca %"class.llvh::StringRef", align 8
  %agg.tmp3047 = alloca %"class.llvh::StringRef", align 8
  %ref.tmp3050 = alloca i64, align 8
  %coerce3054 = alloca %"struct.std::pair.13", align 8
  %ref.tmp3057 = alloca i32, align 4
  %agg.tmp3058 = alloca %"class.llvh::StringRef", align 8
  %ref.tmp3060 = alloca i8, align 1
  %ref.tmp3064 = alloca i32, align 4
  %agg.tmp3065 = alloca %"class.llvh::StringRef", align 8
  %ref.tmp3067 = alloca i8, align 1
  %ref.tmp3069 = alloca %"class.llvh::StringRef", align 8
  %agg.tmp3070 = alloca %"class.llvh::StringRef", align 8
  %ref.tmp3073 = alloca i64, align 8
  %coerce3077 = alloca %"struct.std::pair.13", align 8
  %ref.tmp3080 = alloca i32, align 4
  %agg.tmp3081 = alloca %"class.llvh::StringRef", align 8
  %ref.tmp3083 = alloca i8, align 1
  %ref.tmp3085 = alloca %"class.llvh::StringRef", align 8
  %agg.tmp3086 = alloca %"class.llvh::StringRef", align 8
  %ref.tmp3089 = alloca i64, align 8
  %coerce3093 = alloca %"struct.std::pair.13", align 8
  %ref.tmp3096 = alloca i32, align 4
  %agg.tmp3097 = alloca %"class.llvh::StringRef", align 8
  %ref.tmp3099 = alloca i8, align 1
  %ref.tmp3103 = alloca i32, align 4
  %agg.tmp3104 = alloca %"class.llvh::StringRef", align 8
  %ref.tmp3106 = alloca i8, align 1
  %ref.tmp3108 = alloca %"class.llvh::StringRef", align 8
  %agg.tmp3109 = alloca %"class.llvh::StringRef", align 8
  %ref.tmp3112 = alloca i64, align 8
  %coerce3116 = alloca %"struct.std::pair.13", align 8
  %ref.tmp3119 = alloca i32, align 4
  %agg.tmp3120 = alloca %"class.llvh::StringRef", align 8
  %ref.tmp3122 = alloca i8, align 1
  %ref.tmp3126 = alloca i32, align 4
  %agg.tmp3127 = alloca %"class.llvh::StringRef", align 8
  %ref.tmp3129 = alloca i8, align 1
  %ref.tmp3133 = alloca i32, align 4
  %agg.tmp3134 = alloca %"class.llvh::StringRef", align 8
  %ref.tmp3136 = alloca i8, align 1
  %ref.tmp3140 = alloca i32, align 4
  %agg.tmp3141 = alloca %"class.llvh::StringRef", align 8
  %ref.tmp3143 = alloca i8, align 1
  %ref.tmp3145 = alloca %"class.llvh::StringRef", align 8
  %agg.tmp3146 = alloca %"class.llvh::StringRef", align 8
  %ref.tmp3149 = alloca i64, align 8
  %coerce3153 = alloca %"struct.std::pair.13", align 8
  %ref.tmp3156 = alloca i32, align 4
  %agg.tmp3157 = alloca %"class.llvh::StringRef", align 8
  %ref.tmp3159 = alloca i8, align 1
  %ref.tmp3161 = alloca %"class.llvh::StringRef", align 8
  %agg.tmp3162 = alloca %"class.llvh::StringRef", align 8
  %ref.tmp3165 = alloca i64, align 8
  %coerce3169 = alloca %"struct.std::pair.13", align 8
  %ref.tmp3172 = alloca i32, align 4
  %agg.tmp3173 = alloca %"class.llvh::StringRef", align 8
  %ref.tmp3175 = alloca i8, align 1
  %ref.tmp3177 = alloca %"class.llvh::StringRef", align 8
  %agg.tmp3178 = alloca %"class.llvh::StringRef", align 8
  %ref.tmp3181 = alloca i64, align 8
  %coerce3185 = alloca %"struct.std::pair.13", align 8
  %ref.tmp3188 = alloca i32, align 4
  %agg.tmp3189 = alloca %"class.llvh::StringRef", align 8
  %ref.tmp3191 = alloca i8, align 1
  %ref.tmp3193 = alloca %"class.llvh::StringRef", align 8
  %agg.tmp3194 = alloca %"class.llvh::StringRef", align 8
  %ref.tmp3197 = alloca i64, align 8
  %coerce3201 = alloca %"struct.std::pair.13", align 8
  %ref.tmp3204 = alloca i32, align 4
  %agg.tmp3205 = alloca %"class.llvh::StringRef", align 8
  %ref.tmp3207 = alloca i8, align 1
  %ref.tmp3209 = alloca %"class.llvh::StringRef", align 8
  %agg.tmp3210 = alloca %"class.llvh::StringRef", align 8
  %ref.tmp3213 = alloca i64, align 8
  %coerce3217 = alloca %"struct.std::pair.13", align 8
  %ref.tmp3220 = alloca i32, align 4
  %agg.tmp3221 = alloca %"class.llvh::StringRef", align 8
  %ref.tmp3223 = alloca i8, align 1
  %ref.tmp3227 = alloca i32, align 4
  %agg.tmp3228 = alloca %"class.llvh::StringRef", align 8
  %ref.tmp3230 = alloca i8, align 1
  %ref.tmp3232 = alloca %"class.llvh::StringRef", align 8
  %agg.tmp3233 = alloca %"class.llvh::StringRef", align 8
  %ref.tmp3236 = alloca i64, align 8
  %coerce3240 = alloca %"struct.std::pair.13", align 8
  %ref.tmp3243 = alloca i32, align 4
  %agg.tmp3244 = alloca %"class.llvh::StringRef", align 8
  %ref.tmp3246 = alloca i8, align 1
  %ref.tmp3250 = alloca i32, align 4
  %agg.tmp3251 = alloca %"class.llvh::StringRef", align 8
  %ref.tmp3253 = alloca i8, align 1
  %ref.tmp3255 = alloca %"class.llvh::StringRef", align 8
  %agg.tmp3256 = alloca %"class.llvh::StringRef", align 8
  %ref.tmp3259 = alloca i64, align 8
  %coerce3263 = alloca %"struct.std::pair.13", align 8
  %ref.tmp3266 = alloca i32, align 4
  %agg.tmp3267 = alloca %"class.llvh::StringRef", align 8
  %ref.tmp3269 = alloca i8, align 1
  %ref.tmp3273 = alloca i32, align 4
  %agg.tmp3274 = alloca %"class.llvh::StringRef", align 8
  %ref.tmp3276 = alloca i8, align 1
  %ref.tmp3280 = alloca i32, align 4
  %agg.tmp3281 = alloca %"class.llvh::StringRef", align 8
  %ref.tmp3283 = alloca i8, align 1
  %ref.tmp3285 = alloca %"class.llvh::StringRef", align 8
  %agg.tmp3286 = alloca %"class.llvh::StringRef", align 8
  %ref.tmp3289 = alloca i64, align 8
  %coerce3293 = alloca %"struct.std::pair.13", align 8
  %ref.tmp3296 = alloca i32, align 4
  %agg.tmp3297 = alloca %"class.llvh::StringRef", align 8
  %ref.tmp3299 = alloca i8, align 1
  %ref.tmp3303 = alloca i32, align 4
  %agg.tmp3304 = alloca %"class.llvh::StringRef", align 8
  %ref.tmp3306 = alloca i8, align 1
  %ref.tmp3310 = alloca i32, align 4
  %agg.tmp3311 = alloca %"class.llvh::StringRef", align 8
  %ref.tmp3313 = alloca i8, align 1
  %ref.tmp3317 = alloca i32, align 4
  %agg.tmp3318 = alloca %"class.llvh::StringRef", align 8
  %ref.tmp3320 = alloca i8, align 1
  %ref.tmp3322 = alloca %"class.llvh::StringRef", align 8
  %agg.tmp3323 = alloca %"class.llvh::StringRef", align 8
  %ref.tmp3326 = alloca i64, align 8
  %coerce3330 = alloca %"struct.std::pair.13", align 8
  %ref.tmp3333 = alloca i32, align 4
  %agg.tmp3334 = alloca %"class.llvh::StringRef", align 8
  %ref.tmp3336 = alloca i8, align 1
  %ref.tmp3340 = alloca i32, align 4
  %agg.tmp3341 = alloca %"class.llvh::StringRef", align 8
  %ref.tmp3343 = alloca i8, align 1
  %ref.tmp3347 = alloca i32, align 4
  %agg.tmp3348 = alloca %"class.llvh::StringRef", align 8
  %ref.tmp3350 = alloca i8, align 1
  %ref.tmp3352 = alloca %"class.llvh::StringRef", align 8
  %agg.tmp3353 = alloca %"class.llvh::StringRef", align 8
  %ref.tmp3356 = alloca i64, align 8
  %coerce3360 = alloca %"struct.std::pair.13", align 8
  %ref.tmp3363 = alloca i32, align 4
  %agg.tmp3364 = alloca %"class.llvh::StringRef", align 8
  %ref.tmp3366 = alloca i8, align 1
  %ref.tmp3370 = alloca i32, align 4
  %agg.tmp3371 = alloca %"class.llvh::StringRef", align 8
  %ref.tmp3373 = alloca i8, align 1
  %ref.tmp3375 = alloca %"class.llvh::StringRef", align 8
  %agg.tmp3376 = alloca %"class.llvh::StringRef", align 8
  %ref.tmp3379 = alloca i64, align 8
  %coerce3383 = alloca %"struct.std::pair.13", align 8
  %ref.tmp3386 = alloca i32, align 4
  %agg.tmp3387 = alloca %"class.llvh::StringRef", align 8
  %ref.tmp3389 = alloca i8, align 1
  %ref.tmp3393 = alloca i32, align 4
  %agg.tmp3394 = alloca %"class.llvh::StringRef", align 8
  %ref.tmp3396 = alloca i8, align 1
  %ref.tmp3400 = alloca i32, align 4
  %agg.tmp3401 = alloca %"class.llvh::StringRef", align 8
  %ref.tmp3403 = alloca i8, align 1
  %ref.tmp3405 = alloca %"class.llvh::StringRef", align 8
  %agg.tmp3406 = alloca %"class.llvh::StringRef", align 8
  %ref.tmp3409 = alloca i64, align 8
  %coerce3413 = alloca %"struct.std::pair.13", align 8
  %ref.tmp3416 = alloca i32, align 4
  %agg.tmp3417 = alloca %"class.llvh::StringRef", align 8
  %ref.tmp3419 = alloca i8, align 1
  %ref.tmp3423 = alloca i32, align 4
  %agg.tmp3424 = alloca %"class.llvh::StringRef", align 8
  %ref.tmp3426 = alloca i8, align 1
  %ref.tmp3430 = alloca i32, align 4
  %agg.tmp3431 = alloca %"class.llvh::StringRef", align 8
  %ref.tmp3433 = alloca i8, align 1
  %ref.tmp3437 = alloca i32, align 4
  %agg.tmp3438 = alloca %"class.llvh::StringRef", align 8
  %ref.tmp3440 = alloca i8, align 1
  %ref.tmp3442 = alloca %"class.llvh::StringRef", align 8
  %agg.tmp3443 = alloca %"class.llvh::StringRef", align 8
  %ref.tmp3446 = alloca i64, align 8
  %coerce3450 = alloca %"struct.std::pair.13", align 8
  %ref.tmp3453 = alloca i32, align 4
  %agg.tmp3454 = alloca %"class.llvh::StringRef", align 8
  %ref.tmp3456 = alloca i8, align 1
  %ref.tmp3460 = alloca i32, align 4
  %agg.tmp3461 = alloca %"class.llvh::StringRef", align 8
  %ref.tmp3463 = alloca i8, align 1
  %ref.tmp3467 = alloca i32, align 4
  %agg.tmp3468 = alloca %"class.llvh::StringRef", align 8
  %ref.tmp3470 = alloca i8, align 1
  %ref.tmp3474 = alloca i32, align 4
  %agg.tmp3475 = alloca %"class.llvh::StringRef", align 8
  %ref.tmp3477 = alloca i8, align 1
  %ref.tmp3479 = alloca %"class.llvh::StringRef", align 8
  %agg.tmp3480 = alloca %"class.llvh::StringRef", align 8
  %ref.tmp3483 = alloca i64, align 8
  %coerce3487 = alloca %"struct.std::pair.13", align 8
  %ref.tmp3490 = alloca i32, align 4
  %agg.tmp3491 = alloca %"class.llvh::StringRef", align 8
  %ref.tmp3493 = alloca i8, align 1
  %ref.tmp3497 = alloca i32, align 4
  %agg.tmp3498 = alloca %"class.llvh::StringRef", align 8
  %ref.tmp3500 = alloca i8, align 1
  %ref.tmp3504 = alloca i32, align 4
  %agg.tmp3505 = alloca %"class.llvh::StringRef", align 8
  %ref.tmp3507 = alloca i8, align 1
  %ref.tmp3509 = alloca %"class.llvh::StringRef", align 8
  %agg.tmp3510 = alloca %"class.llvh::StringRef", align 8
  %ref.tmp3513 = alloca i64, align 8
  %coerce3517 = alloca %"struct.std::pair.13", align 8
  %ref.tmp3520 = alloca i32, align 4
  %agg.tmp3521 = alloca %"class.llvh::StringRef", align 8
  %ref.tmp3523 = alloca i8, align 1
  %ref.tmp3527 = alloca i32, align 4
  %agg.tmp3528 = alloca %"class.llvh::StringRef", align 8
  %ref.tmp3530 = alloca i8, align 1
  %ref.tmp3534 = alloca i32, align 4
  %agg.tmp3535 = alloca %"class.llvh::StringRef", align 8
  %ref.tmp3537 = alloca i8, align 1
  %ref.tmp3541 = alloca i32, align 4
  %agg.tmp3542 = alloca %"class.llvh::StringRef", align 8
  %ref.tmp3544 = alloca i8, align 1
  %ref.tmp3546 = alloca %"class.llvh::StringRef", align 8
  %agg.tmp3547 = alloca %"class.llvh::StringRef", align 8
  %ref.tmp3550 = alloca i64, align 8
  %coerce3554 = alloca %"struct.std::pair.13", align 8
  %ref.tmp3557 = alloca i32, align 4
  %agg.tmp3558 = alloca %"class.llvh::StringRef", align 8
  %ref.tmp3560 = alloca i8, align 1
  %ref.tmp3564 = alloca i32, align 4
  %agg.tmp3565 = alloca %"class.llvh::StringRef", align 8
  %ref.tmp3567 = alloca i8, align 1
  %ref.tmp3571 = alloca i32, align 4
  %agg.tmp3572 = alloca %"class.llvh::StringRef", align 8
  %ref.tmp3574 = alloca i8, align 1
  %ref.tmp3578 = alloca i32, align 4
  %agg.tmp3579 = alloca %"class.llvh::StringRef", align 8
  %ref.tmp3581 = alloca i8, align 1
  %ref.tmp3583 = alloca %"class.llvh::StringRef", align 8
  %agg.tmp3584 = alloca %"class.llvh::StringRef", align 8
  %ref.tmp3587 = alloca i64, align 8
  %coerce3591 = alloca %"struct.std::pair.13", align 8
  %ref.tmp3594 = alloca i32, align 4
  %agg.tmp3595 = alloca %"class.llvh::StringRef", align 8
  %ref.tmp3597 = alloca i8, align 1
  %ref.tmp3601 = alloca i32, align 4
  %agg.tmp3602 = alloca %"class.llvh::StringRef", align 8
  %ref.tmp3604 = alloca i8, align 1
  %ref.tmp3608 = alloca i32, align 4
  %agg.tmp3609 = alloca %"class.llvh::StringRef", align 8
  %ref.tmp3611 = alloca i8, align 1
  %ref.tmp3615 = alloca i32, align 4
  %agg.tmp3616 = alloca %"class.llvh::StringRef", align 8
  %ref.tmp3618 = alloca i8, align 1
  %ref.tmp3622 = alloca i32, align 4
  %agg.tmp3623 = alloca %"class.llvh::StringRef", align 8
  %ref.tmp3625 = alloca i8, align 1
  %ref.tmp3629 = alloca i32, align 4
  %agg.tmp3630 = alloca %"class.llvh::StringRef", align 8
  %ref.tmp3632 = alloca i8, align 1
  %ref.tmp3634 = alloca %"class.llvh::StringRef", align 8
  %agg.tmp3635 = alloca %"class.llvh::StringRef", align 8
  %ref.tmp3638 = alloca i64, align 8
  %coerce3642 = alloca %"struct.std::pair.13", align 8
  %ref.tmp3645 = alloca i32, align 4
  %agg.tmp3646 = alloca %"class.llvh::StringRef", align 8
  %ref.tmp3648 = alloca i8, align 1
  %ref.tmp3652 = alloca i32, align 4
  %agg.tmp3653 = alloca %"class.llvh::StringRef", align 8
  %ref.tmp3655 = alloca i8, align 1
  %ref.tmp3657 = alloca %"class.llvh::StringRef", align 8
  %agg.tmp3658 = alloca %"class.llvh::StringRef", align 8
  %ref.tmp3661 = alloca i64, align 8
  %coerce3665 = alloca %"struct.std::pair.13", align 8
  %ref.tmp3668 = alloca i32, align 4
  %agg.tmp3669 = alloca %"class.llvh::StringRef", align 8
  %ref.tmp3671 = alloca i8, align 1
  %ref.tmp3675 = alloca i32, align 4
  %agg.tmp3676 = alloca %"class.llvh::StringRef", align 8
  %ref.tmp3678 = alloca i8, align 1
  %ref.tmp3682 = alloca i32, align 4
  %agg.tmp3683 = alloca %"class.llvh::StringRef", align 8
  %ref.tmp3685 = alloca i8, align 1
  %ref.tmp3689 = alloca i32, align 4
  %agg.tmp3690 = alloca %"class.llvh::StringRef", align 8
  %ref.tmp3692 = alloca i8, align 1
  %ref.tmp3696 = alloca i32, align 4
  %agg.tmp3697 = alloca %"class.llvh::StringRef", align 8
  %ref.tmp3699 = alloca i8, align 1
  %ref.tmp3701 = alloca %"class.llvh::StringRef", align 8
  %agg.tmp3702 = alloca %"class.llvh::StringRef", align 8
  %ref.tmp3705 = alloca i64, align 8
  %coerce3709 = alloca %"struct.std::pair.13", align 8
  %ref.tmp3712 = alloca i32, align 4
  %agg.tmp3713 = alloca %"class.llvh::StringRef", align 8
  %ref.tmp3715 = alloca i8, align 1
  %ref.tmp3719 = alloca i32, align 4
  %agg.tmp3720 = alloca %"class.llvh::StringRef", align 8
  %ref.tmp3722 = alloca i8, align 1
  %ref.tmp3724 = alloca %"class.llvh::StringRef", align 8
  %agg.tmp3725 = alloca %"class.llvh::StringRef", align 8
  %ref.tmp3728 = alloca i64, align 8
  %coerce3732 = alloca %"struct.std::pair.13", align 8
  %ref.tmp3735 = alloca i32, align 4
  %agg.tmp3736 = alloca %"class.llvh::StringRef", align 8
  %ref.tmp3738 = alloca i8, align 1
  %ref.tmp3742 = alloca i32, align 4
  %agg.tmp3743 = alloca %"class.llvh::StringRef", align 8
  %ref.tmp3745 = alloca i8, align 1
  %ref.tmp3747 = alloca %"class.llvh::StringRef", align 8
  %agg.tmp3748 = alloca %"class.llvh::StringRef", align 8
  %ref.tmp3751 = alloca i64, align 8
  %coerce3755 = alloca %"struct.std::pair.13", align 8
  %ref.tmp3758 = alloca i32, align 4
  %agg.tmp3759 = alloca %"class.llvh::StringRef", align 8
  %ref.tmp3761 = alloca i8, align 1
  %ref.tmp3765 = alloca i32, align 4
  %agg.tmp3766 = alloca %"class.llvh::StringRef", align 8
  %ref.tmp3768 = alloca i8, align 1
  %ref.tmp3772 = alloca i32, align 4
  %agg.tmp3773 = alloca %"class.llvh::StringRef", align 8
  %ref.tmp3775 = alloca i8, align 1
  %ref.tmp3779 = alloca i32, align 4
  %agg.tmp3780 = alloca %"class.llvh::StringRef", align 8
  %ref.tmp3782 = alloca i8, align 1
  %ref.tmp3784 = alloca %"class.llvh::StringRef", align 8
  %agg.tmp3785 = alloca %"class.llvh::StringRef", align 8
  %ref.tmp3788 = alloca i64, align 8
  %coerce3792 = alloca %"struct.std::pair.13", align 8
  %ref.tmp3795 = alloca i32, align 4
  %agg.tmp3796 = alloca %"class.llvh::StringRef", align 8
  %ref.tmp3798 = alloca i8, align 1
  %ref.tmp3800 = alloca %"class.llvh::StringRef", align 8
  %agg.tmp3801 = alloca %"class.llvh::StringRef", align 8
  %ref.tmp3804 = alloca i64, align 8
  %coerce3808 = alloca %"struct.std::pair.13", align 8
  %ref.tmp3811 = alloca i32, align 4
  %agg.tmp3812 = alloca %"class.llvh::StringRef", align 8
  %ref.tmp3814 = alloca i8, align 1
  %ref.tmp3818 = alloca i32, align 4
  %agg.tmp3819 = alloca %"class.llvh::StringRef", align 8
  %ref.tmp3821 = alloca i8, align 1
  %ref.tmp3825 = alloca i32, align 4
  %agg.tmp3826 = alloca %"class.llvh::StringRef", align 8
  %ref.tmp3828 = alloca i8, align 1
  %ref.tmp3830 = alloca %"class.llvh::StringRef", align 8
  %agg.tmp3831 = alloca %"class.llvh::StringRef", align 8
  %ref.tmp3834 = alloca i64, align 8
  %coerce3838 = alloca %"struct.std::pair.13", align 8
  %ref.tmp3841 = alloca i32, align 4
  %agg.tmp3842 = alloca %"class.llvh::StringRef", align 8
  %ref.tmp3844 = alloca i8, align 1
  %ref.tmp3846 = alloca %"class.llvh::StringRef", align 8
  %agg.tmp3847 = alloca %"class.llvh::StringRef", align 8
  %ref.tmp3850 = alloca i64, align 8
  %coerce3854 = alloca %"struct.std::pair.13", align 8
  %ref.tmp3857 = alloca i32, align 4
  %agg.tmp3858 = alloca %"class.llvh::StringRef", align 8
  %ref.tmp3860 = alloca i8, align 1
  %ref.tmp3864 = alloca i32, align 4
  %agg.tmp3865 = alloca %"class.llvh::StringRef", align 8
  %ref.tmp3867 = alloca i8, align 1
  %ref.tmp3869 = alloca %"class.llvh::StringRef", align 8
  %agg.tmp3870 = alloca %"class.llvh::StringRef", align 8
  %ref.tmp3873 = alloca i64, align 8
  %coerce3877 = alloca %"struct.std::pair.13", align 8
  %ref.tmp3880 = alloca i32, align 4
  %agg.tmp3881 = alloca %"class.llvh::StringRef", align 8
  %ref.tmp3883 = alloca i8, align 1
  %ref.tmp3887 = alloca i32, align 4
  %agg.tmp3888 = alloca %"class.llvh::StringRef", align 8
  %ref.tmp3890 = alloca i8, align 1
  %ref.tmp3892 = alloca %"class.llvh::StringRef", align 8
  %agg.tmp3893 = alloca %"class.llvh::StringRef", align 8
  %ref.tmp3896 = alloca i64, align 8
  %coerce3900 = alloca %"struct.std::pair.13", align 8
  %ref.tmp3903 = alloca i32, align 4
  %agg.tmp3904 = alloca %"class.llvh::StringRef", align 8
  %ref.tmp3906 = alloca i8, align 1
  %ref.tmp3908 = alloca %"class.llvh::StringRef", align 8
  %agg.tmp3909 = alloca %"class.llvh::StringRef", align 8
  %ref.tmp3912 = alloca i64, align 8
  %coerce3916 = alloca %"struct.std::pair.13", align 8
  %ref.tmp3919 = alloca i32, align 4
  %agg.tmp3920 = alloca %"class.llvh::StringRef", align 8
  %ref.tmp3922 = alloca i8, align 1
  %ref.tmp3926 = alloca i32, align 4
  %agg.tmp3927 = alloca %"class.llvh::StringRef", align 8
  %ref.tmp3929 = alloca i8, align 1
  %ref.tmp3933 = alloca i32, align 4
  %agg.tmp3934 = alloca %"class.llvh::StringRef", align 8
  %ref.tmp3936 = alloca i8, align 1
  %ref.tmp3940 = alloca i32, align 4
  %agg.tmp3941 = alloca %"class.llvh::StringRef", align 8
  %ref.tmp3943 = alloca i8, align 1
  %ref.tmp3947 = alloca i32, align 4
  %agg.tmp3948 = alloca %"class.llvh::StringRef", align 8
  %ref.tmp3950 = alloca i8, align 1
  %ref.tmp3954 = alloca i32, align 4
  %agg.tmp3955 = alloca %"class.llvh::StringRef", align 8
  %ref.tmp3957 = alloca i8, align 1
  %ref.tmp3959 = alloca %"class.llvh::StringRef", align 8
  %agg.tmp3960 = alloca %"class.llvh::StringRef", align 8
  %ref.tmp3963 = alloca i64, align 8
  %coerce3967 = alloca %"struct.std::pair.13", align 8
  %ref.tmp3970 = alloca i32, align 4
  %agg.tmp3971 = alloca %"class.llvh::StringRef", align 8
  %ref.tmp3973 = alloca i8, align 1
  %ref.tmp3977 = alloca i32, align 4
  %agg.tmp3978 = alloca %"class.llvh::StringRef", align 8
  %ref.tmp3980 = alloca i8, align 1
  %ref.tmp3984 = alloca i32, align 4
  %agg.tmp3985 = alloca %"class.llvh::StringRef", align 8
  %ref.tmp3987 = alloca i8, align 1
  %ref.tmp3991 = alloca i32, align 4
  %agg.tmp3992 = alloca %"class.llvh::StringRef", align 8
  %ref.tmp3994 = alloca i8, align 1
  %ref.tmp3998 = alloca i32, align 4
  %agg.tmp3999 = alloca %"class.llvh::StringRef", align 8
  %ref.tmp4001 = alloca i8, align 1
  %ref.tmp4005 = alloca i32, align 4
  %agg.tmp4006 = alloca %"class.llvh::StringRef", align 8
  %ref.tmp4008 = alloca i8, align 1
  %ref.tmp4012 = alloca i32, align 4
  %agg.tmp4013 = alloca %"class.llvh::StringRef", align 8
  %ref.tmp4015 = alloca i8, align 1
  %ref.tmp4019 = alloca i32, align 4
  %agg.tmp4020 = alloca %"class.llvh::StringRef", align 8
  %ref.tmp4022 = alloca i8, align 1
  %ref.tmp4024 = alloca %"class.llvh::StringRef", align 8
  %agg.tmp4025 = alloca %"class.llvh::StringRef", align 8
  %ref.tmp4028 = alloca i64, align 8
  %coerce4032 = alloca %"struct.std::pair.13", align 8
  %ref.tmp4035 = alloca i32, align 4
  %agg.tmp4036 = alloca %"class.llvh::StringRef", align 8
  %ref.tmp4038 = alloca i8, align 1
  %ref.tmp4040 = alloca %"class.llvh::StringRef", align 8
  %agg.tmp4041 = alloca %"class.llvh::StringRef", align 8
  %ref.tmp4044 = alloca i64, align 8
  %coerce4048 = alloca %"struct.std::pair.13", align 8
  %ref.tmp4051 = alloca i32, align 4
  %agg.tmp4052 = alloca %"class.llvh::StringRef", align 8
  %ref.tmp4054 = alloca i8, align 1
  %ref.tmp4058 = alloca i32, align 4
  %agg.tmp4059 = alloca %"class.llvh::StringRef", align 8
  %ref.tmp4061 = alloca i8, align 1
  %ref.tmp4065 = alloca i32, align 4
  %agg.tmp4066 = alloca %"class.llvh::StringRef", align 8
  %ref.tmp4068 = alloca i8, align 1
  %ref.tmp4072 = alloca i32, align 4
  %agg.tmp4073 = alloca %"class.llvh::StringRef", align 8
  %ref.tmp4075 = alloca i8, align 1
  %ref.tmp4079 = alloca i32, align 4
  %agg.tmp4080 = alloca %"class.llvh::StringRef", align 8
  %ref.tmp4082 = alloca i8, align 1
  %ref.tmp4084 = alloca %"class.llvh::StringRef", align 8
  %agg.tmp4085 = alloca %"class.llvh::StringRef", align 8
  %ref.tmp4088 = alloca i64, align 8
  %coerce4092 = alloca %"struct.std::pair.13", align 8
  %ref.tmp4095 = alloca i32, align 4
  %agg.tmp4096 = alloca %"class.llvh::StringRef", align 8
  %ref.tmp4098 = alloca i8, align 1
  %ref.tmp4102 = alloca i32, align 4
  %agg.tmp4103 = alloca %"class.llvh::StringRef", align 8
  %ref.tmp4105 = alloca i8, align 1
  %ref.tmp4107 = alloca %"class.llvh::StringRef", align 8
  %agg.tmp4108 = alloca %"class.llvh::StringRef", align 8
  %ref.tmp4111 = alloca i64, align 8
  %coerce4115 = alloca %"struct.std::pair.13", align 8
  %ref.tmp4118 = alloca i32, align 4
  %agg.tmp4119 = alloca %"class.llvh::StringRef", align 8
  %ref.tmp4121 = alloca i8, align 1
  %ref.tmp4125 = alloca i32, align 4
  %agg.tmp4126 = alloca %"class.llvh::StringRef", align 8
  %ref.tmp4128 = alloca i8, align 1
  %ref.tmp4132 = alloca i32, align 4
  %agg.tmp4133 = alloca %"class.llvh::StringRef", align 8
  %ref.tmp4135 = alloca i8, align 1
  %ref.tmp4139 = alloca i32, align 4
  %agg.tmp4140 = alloca %"class.llvh::StringRef", align 8
  %ref.tmp4142 = alloca i8, align 1
  %ref.tmp4146 = alloca i32, align 4
  %agg.tmp4147 = alloca %"class.llvh::StringRef", align 8
  %ref.tmp4149 = alloca i8, align 1
  %ref.tmp4151 = alloca %"class.llvh::StringRef", align 8
  %agg.tmp4152 = alloca %"class.llvh::StringRef", align 8
  %ref.tmp4155 = alloca i64, align 8
  %coerce4159 = alloca %"struct.std::pair.13", align 8
  %ref.tmp4162 = alloca i32, align 4
  %agg.tmp4163 = alloca %"class.llvh::StringRef", align 8
  %ref.tmp4165 = alloca i8, align 1
  %ref.tmp4169 = alloca i32, align 4
  %agg.tmp4170 = alloca %"class.llvh::StringRef", align 8
  %ref.tmp4172 = alloca i8, align 1
  %ref.tmp4176 = alloca i32, align 4
  %agg.tmp4177 = alloca %"class.llvh::StringRef", align 8
  %ref.tmp4179 = alloca i8, align 1
  %ref.tmp4183 = alloca i32, align 4
  %agg.tmp4184 = alloca %"class.llvh::StringRef", align 8
  %ref.tmp4186 = alloca i8, align 1
  %ref.tmp4190 = alloca i32, align 4
  %agg.tmp4191 = alloca %"class.llvh::StringRef", align 8
  %ref.tmp4193 = alloca i8, align 1
  %ref.tmp4195 = alloca %"class.llvh::StringRef", align 8
  %agg.tmp4196 = alloca %"class.llvh::StringRef", align 8
  %ref.tmp4199 = alloca i64, align 8
  %coerce4203 = alloca %"struct.std::pair.13", align 8
  %ref.tmp4206 = alloca i32, align 4
  %agg.tmp4207 = alloca %"class.llvh::StringRef", align 8
  %ref.tmp4209 = alloca i8, align 1
  %ref.tmp4211 = alloca %"class.llvh::StringRef", align 8
  %agg.tmp4212 = alloca %"class.llvh::StringRef", align 8
  %ref.tmp4215 = alloca i64, align 8
  %coerce4219 = alloca %"struct.std::pair.13", align 8
  %ref.tmp4222 = alloca i32, align 4
  %agg.tmp4223 = alloca %"class.llvh::StringRef", align 8
  %ref.tmp4225 = alloca i8, align 1
  %ref.tmp4227 = alloca %"class.llvh::StringRef", align 8
  %agg.tmp4228 = alloca %"class.llvh::StringRef", align 8
  %ref.tmp4231 = alloca i64, align 8
  %coerce4235 = alloca %"struct.std::pair.13", align 8
  %ref.tmp4238 = alloca i32, align 4
  %agg.tmp4239 = alloca %"class.llvh::StringRef", align 8
  %ref.tmp4241 = alloca i8, align 1
  %ref.tmp4245 = alloca i32, align 4
  %agg.tmp4246 = alloca %"class.llvh::StringRef", align 8
  %ref.tmp4248 = alloca i8, align 1
  %ref.tmp4252 = alloca i32, align 4
  %agg.tmp4253 = alloca %"class.llvh::StringRef", align 8
  %ref.tmp4255 = alloca i8, align 1
  %ref.tmp4259 = alloca i32, align 4
  %agg.tmp4260 = alloca %"class.llvh::StringRef", align 8
  %ref.tmp4262 = alloca i8, align 1
  %ref.tmp4266 = alloca i32, align 4
  %agg.tmp4267 = alloca %"class.llvh::StringRef", align 8
  %ref.tmp4269 = alloca i8, align 1
  %ref.tmp4271 = alloca %"class.llvh::StringRef", align 8
  %agg.tmp4272 = alloca %"class.llvh::StringRef", align 8
  %ref.tmp4275 = alloca i64, align 8
  %coerce4279 = alloca %"struct.std::pair.13", align 8
  %ref.tmp4282 = alloca i32, align 4
  %agg.tmp4283 = alloca %"class.llvh::StringRef", align 8
  %ref.tmp4285 = alloca i8, align 1
  %ref.tmp4287 = alloca %"class.llvh::StringRef", align 8
  %agg.tmp4288 = alloca %"class.llvh::StringRef", align 8
  %ref.tmp4291 = alloca i64, align 8
  %coerce4295 = alloca %"struct.std::pair.13", align 8
  %ref.tmp4298 = alloca i32, align 4
  %agg.tmp4299 = alloca %"class.llvh::StringRef", align 8
  %ref.tmp4301 = alloca i8, align 1
  %ref.tmp4305 = alloca i32, align 4
  %agg.tmp4306 = alloca %"class.llvh::StringRef", align 8
  %ref.tmp4308 = alloca i8, align 1
  %ref.tmp4310 = alloca %"class.llvh::StringRef", align 8
  %agg.tmp4311 = alloca %"class.llvh::StringRef", align 8
  %ref.tmp4314 = alloca i64, align 8
  %coerce4318 = alloca %"struct.std::pair.13", align 8
  %ref.tmp4321 = alloca i32, align 4
  %agg.tmp4322 = alloca %"class.llvh::StringRef", align 8
  %ref.tmp4324 = alloca i8, align 1
  %ref.tmp4328 = alloca i32, align 4
  %agg.tmp4329 = alloca %"class.llvh::StringRef", align 8
  %ref.tmp4331 = alloca i8, align 1
  %ref.tmp4333 = alloca %"class.llvh::StringRef", align 8
  %agg.tmp4334 = alloca %"class.llvh::StringRef", align 8
  %ref.tmp4337 = alloca i64, align 8
  %coerce4341 = alloca %"struct.std::pair.13", align 8
  %ref.tmp4342 = alloca %"class.llvh::StringRef", align 8
  %agg.tmp4343 = alloca %"class.llvh::StringRef", align 8
  %ref.tmp4346 = alloca i64, align 8
  %coerce4350 = alloca %"struct.std::pair.13", align 8
  %ref.tmp4353 = alloca i32, align 4
  %agg.tmp4354 = alloca %"class.llvh::StringRef", align 8
  %ref.tmp4356 = alloca i8, align 1
  %ref.tmp4358 = alloca %"class.llvh::StringRef", align 8
  %agg.tmp4359 = alloca %"class.llvh::StringRef", align 8
  %ref.tmp4362 = alloca i64, align 8
  %coerce4366 = alloca %"struct.std::pair.13", align 8
  %ref.tmp4369 = alloca i32, align 4
  %agg.tmp4370 = alloca %"class.llvh::StringRef", align 8
  %ref.tmp4372 = alloca i8, align 1
  %ref.tmp4376 = alloca i32, align 4
  %agg.tmp4377 = alloca %"class.llvh::StringRef", align 8
  %ref.tmp4379 = alloca i8, align 1
  %ref.tmp4381 = alloca %"class.llvh::StringRef", align 8
  %agg.tmp4382 = alloca %"class.llvh::StringRef", align 8
  %ref.tmp4385 = alloca i64, align 8
  %coerce4389 = alloca %"struct.std::pair.13", align 8
  %ref.tmp4392 = alloca i32, align 4
  %agg.tmp4393 = alloca %"class.llvh::StringRef", align 8
  %ref.tmp4395 = alloca i8, align 1
  %ref.tmp4399 = alloca i32, align 4
  %agg.tmp4400 = alloca %"class.llvh::StringRef", align 8
  %ref.tmp4402 = alloca i8, align 1
  %ref.tmp4406 = alloca i32, align 4
  %agg.tmp4407 = alloca %"class.llvh::StringRef", align 8
  %ref.tmp4409 = alloca i8, align 1
  %ref.tmp4411 = alloca %"class.llvh::StringRef", align 8
  %agg.tmp4412 = alloca %"class.llvh::StringRef", align 8
  %ref.tmp4415 = alloca i64, align 8
  %coerce4419 = alloca %"struct.std::pair.13", align 8
  %ref.tmp4422 = alloca i32, align 4
  %agg.tmp4423 = alloca %"class.llvh::StringRef", align 8
  %ref.tmp4425 = alloca i8, align 1
  %ref.tmp4429 = alloca i32, align 4
  %agg.tmp4430 = alloca %"class.llvh::StringRef", align 8
  %ref.tmp4432 = alloca i8, align 1
  %ref.tmp4436 = alloca i32, align 4
  %agg.tmp4437 = alloca %"class.llvh::StringRef", align 8
  %ref.tmp4439 = alloca i8, align 1
  %ref.tmp4441 = alloca %"class.llvh::StringRef", align 8
  %agg.tmp4442 = alloca %"class.llvh::StringRef", align 8
  %ref.tmp4445 = alloca i64, align 8
  %coerce4449 = alloca %"struct.std::pair.13", align 8
  %ref.tmp4452 = alloca i32, align 4
  %agg.tmp4453 = alloca %"class.llvh::StringRef", align 8
  %ref.tmp4455 = alloca i8, align 1
  %ref.tmp4459 = alloca i32, align 4
  %agg.tmp4460 = alloca %"class.llvh::StringRef", align 8
  %ref.tmp4462 = alloca i8, align 1
  %ref.tmp4466 = alloca i32, align 4
  %agg.tmp4467 = alloca %"class.llvh::StringRef", align 8
  %ref.tmp4469 = alloca i8, align 1
  %ref.tmp4471 = alloca %"class.llvh::StringRef", align 8
  %agg.tmp4472 = alloca %"class.llvh::StringRef", align 8
  %ref.tmp4475 = alloca i64, align 8
  %coerce4479 = alloca %"struct.std::pair.13", align 8
  %ref.tmp4482 = alloca i32, align 4
  %agg.tmp4483 = alloca %"class.llvh::StringRef", align 8
  %ref.tmp4485 = alloca i8, align 1
  %ref.tmp4489 = alloca i32, align 4
  %agg.tmp4490 = alloca %"class.llvh::StringRef", align 8
  %ref.tmp4492 = alloca i8, align 1
  %ref.tmp4494 = alloca %"class.llvh::StringRef", align 8
  %agg.tmp4495 = alloca %"class.llvh::StringRef", align 8
  %ref.tmp4498 = alloca i64, align 8
  %coerce4502 = alloca %"struct.std::pair.13", align 8
  %ref.tmp4505 = alloca i32, align 4
  %agg.tmp4506 = alloca %"class.llvh::StringRef", align 8
  %ref.tmp4508 = alloca i8, align 1
  %ref.tmp4510 = alloca %"class.llvh::StringRef", align 8
  %agg.tmp4511 = alloca %"class.llvh::StringRef", align 8
  %ref.tmp4514 = alloca i64, align 8
  %coerce4518 = alloca %"struct.std::pair.13", align 8
  %ref.tmp4521 = alloca i32, align 4
  %agg.tmp4522 = alloca %"class.llvh::StringRef", align 8
  %ref.tmp4524 = alloca i8, align 1
  %ref.tmp4528 = alloca i32, align 4
  %agg.tmp4529 = alloca %"class.llvh::StringRef", align 8
  %ref.tmp4531 = alloca i8, align 1
  %ref.tmp4533 = alloca %"class.llvh::StringRef", align 8
  %agg.tmp4534 = alloca %"class.llvh::StringRef", align 8
  %ref.tmp4537 = alloca i64, align 8
  %coerce4541 = alloca %"struct.std::pair.13", align 8
  %ref.tmp4544 = alloca i32, align 4
  %agg.tmp4545 = alloca %"class.llvh::StringRef", align 8
  %ref.tmp4547 = alloca i8, align 1
  %ref.tmp4551 = alloca i32, align 4
  %agg.tmp4552 = alloca %"class.llvh::StringRef", align 8
  %ref.tmp4554 = alloca i8, align 1
  %ref.tmp4556 = alloca %"class.llvh::StringRef", align 8
  %agg.tmp4557 = alloca %"class.llvh::StringRef", align 8
  %ref.tmp4560 = alloca i64, align 8
  %coerce4564 = alloca %"struct.std::pair.13", align 8
  %ref.tmp4567 = alloca i32, align 4
  %agg.tmp4568 = alloca %"class.llvh::StringRef", align 8
  %ref.tmp4570 = alloca i8, align 1
  %ref.tmp4574 = alloca i32, align 4
  %agg.tmp4575 = alloca %"class.llvh::StringRef", align 8
  %ref.tmp4577 = alloca i8, align 1
  %ref.tmp4579 = alloca %"class.llvh::StringRef", align 8
  %agg.tmp4580 = alloca %"class.llvh::StringRef", align 8
  %ref.tmp4583 = alloca i64, align 8
  %coerce4587 = alloca %"struct.std::pair.13", align 8
  %ref.tmp4590 = alloca i32, align 4
  %agg.tmp4591 = alloca %"class.llvh::StringRef", align 8
  %ref.tmp4593 = alloca i8, align 1
  %ref.tmp4597 = alloca i32, align 4
  %agg.tmp4598 = alloca %"class.llvh::StringRef", align 8
  %ref.tmp4600 = alloca i8, align 1
  %ref.tmp4604 = alloca i32, align 4
  %agg.tmp4605 = alloca %"class.llvh::StringRef", align 8
  %ref.tmp4607 = alloca i8, align 1
  %ref.tmp4609 = alloca i32, align 4
  %ref.tmp4611 = alloca %"class.llvh::StringRef", align 8
  %agg.tmp4612 = alloca %"class.llvh::StringRef", align 8
  %ref.tmp4614 = alloca i32, align 4
  %ref.tmp4616 = alloca i64, align 8
  %coerce4620 = alloca %"struct.std::pair.13", align 8
  %ref.tmp4621 = alloca %"class.llvh::StringRef", align 8
  %agg.tmp4622 = alloca %"class.llvh::StringRef", align 8
  %ref.tmp4625 = alloca i64, align 8
  %coerce4629 = alloca %"struct.std::pair.13", align 8
  %ref.tmp4632 = alloca i32, align 4
  %agg.tmp4633 = alloca %"class.llvh::StringRef", align 8
  %ref.tmp4635 = alloca i8, align 1
  %ref.tmp4637 = alloca %"class.llvh::StringRef", align 8
  %agg.tmp4638 = alloca %"class.llvh::StringRef", align 8
  %ref.tmp4641 = alloca i64, align 8
  %coerce4645 = alloca %"struct.std::pair.13", align 8
  %ref.tmp4646 = alloca %"class.llvh::StringRef", align 8
  %agg.tmp4647 = alloca %"class.llvh::StringRef", align 8
  %ref.tmp4650 = alloca i64, align 8
  %coerce4654 = alloca %"struct.std::pair.13", align 8
  %ref.tmp4655 = alloca %"class.llvh::StringRef", align 8
  %agg.tmp4656 = alloca %"class.llvh::StringRef", align 8
  %ref.tmp4659 = alloca i64, align 8
  %coerce4663 = alloca %"struct.std::pair.13", align 8
  %ref.tmp4664 = alloca %"class.llvh::StringRef", align 8
  %agg.tmp4665 = alloca %"class.llvh::StringRef", align 8
  %ref.tmp4668 = alloca i64, align 8
  %coerce4672 = alloca %"struct.std::pair.13", align 8
  %ref.tmp4673 = alloca %"class.llvh::StringRef", align 8
  %agg.tmp4674 = alloca %"class.llvh::StringRef", align 8
  %ref.tmp4677 = alloca i64, align 8
  %coerce4681 = alloca %"struct.std::pair.13", align 8
  %ref.tmp4682 = alloca %"class.llvh::StringRef", align 8
  %agg.tmp4683 = alloca %"class.llvh::StringRef", align 8
  %ref.tmp4686 = alloca i64, align 8
  %coerce4690 = alloca %"struct.std::pair.13", align 8
  %ref.tmp4691 = alloca %"class.llvh::StringRef", align 8
  %agg.tmp4692 = alloca %"class.llvh::StringRef", align 8
  %ref.tmp4695 = alloca i64, align 8
  %coerce4699 = alloca %"struct.std::pair.13", align 8
  %ref.tmp4700 = alloca %"class.llvh::StringRef", align 8
  %agg.tmp4701 = alloca %"class.llvh::StringRef", align 8
  %ref.tmp4704 = alloca i64, align 8
  %coerce4708 = alloca %"struct.std::pair.13", align 8
  %ref.tmp4709 = alloca %"class.llvh::StringRef", align 8
  %agg.tmp4710 = alloca %"class.llvh::StringRef", align 8
  %ref.tmp4713 = alloca i64, align 8
  %coerce4717 = alloca %"struct.std::pair.13", align 8
  %ref.tmp4718 = alloca %"class.llvh::StringRef", align 8
  %agg.tmp4719 = alloca %"class.llvh::StringRef", align 8
  %ref.tmp4722 = alloca i64, align 8
  %coerce4726 = alloca %"struct.std::pair.13", align 8
  %ref.tmp4727 = alloca %"class.llvh::StringRef", align 8
  %agg.tmp4728 = alloca %"class.llvh::StringRef", align 8
  %ref.tmp4731 = alloca i64, align 8
  %coerce4735 = alloca %"struct.std::pair.13", align 8
  %ref.tmp4736 = alloca %"class.llvh::StringRef", align 8
  %agg.tmp4737 = alloca %"class.llvh::StringRef", align 8
  %ref.tmp4740 = alloca i64, align 8
  %coerce4744 = alloca %"struct.std::pair.13", align 8
  %ref.tmp4747 = alloca i32, align 4
  %agg.tmp4748 = alloca %"class.llvh::StringRef", align 8
  %ref.tmp4750 = alloca i8, align 1
  %ref.tmp4752 = alloca %"class.llvh::StringRef", align 8
  %agg.tmp4753 = alloca %"class.llvh::StringRef", align 8
  %ref.tmp4756 = alloca i64, align 8
  %coerce4760 = alloca %"struct.std::pair.13", align 8
  %ref.tmp4763 = alloca i32, align 4
  %agg.tmp4764 = alloca %"class.llvh::StringRef", align 8
  %ref.tmp4766 = alloca i8, align 1
  %ref.tmp4770 = alloca i32, align 4
  %agg.tmp4771 = alloca %"class.llvh::StringRef", align 8
  %ref.tmp4773 = alloca i8, align 1
  %ref.tmp4775 = alloca %"class.llvh::StringRef", align 8
  %agg.tmp4776 = alloca %"class.llvh::StringRef", align 8
  %ref.tmp4779 = alloca i64, align 8
  %coerce4783 = alloca %"struct.std::pair.13", align 8
  %ref.tmp4786 = alloca i32, align 4
  %agg.tmp4787 = alloca %"class.llvh::StringRef", align 8
  %ref.tmp4789 = alloca i8, align 1
  %ref.tmp4791 = alloca %"class.llvh::StringRef", align 8
  %agg.tmp4792 = alloca %"class.llvh::StringRef", align 8
  %ref.tmp4795 = alloca i64, align 8
  %coerce4799 = alloca %"struct.std::pair.13", align 8
  %ref.tmp4802 = alloca i32, align 4
  %agg.tmp4803 = alloca %"class.llvh::StringRef", align 8
  %ref.tmp4805 = alloca i8, align 1
  %ref.tmp4809 = alloca i32, align 4
  %agg.tmp4810 = alloca %"class.llvh::StringRef", align 8
  %ref.tmp4812 = alloca i8, align 1
  %ref.tmp4814 = alloca %"class.llvh::StringRef", align 8
  %agg.tmp4815 = alloca %"class.llvh::StringRef", align 8
  %ref.tmp4818 = alloca i64, align 8
  %coerce4822 = alloca %"struct.std::pair.13", align 8
  %ref.tmp4825 = alloca i32, align 4
  %agg.tmp4826 = alloca %"class.llvh::StringRef", align 8
  %ref.tmp4828 = alloca i8, align 1
  %ref.tmp4832 = alloca i32, align 4
  %agg.tmp4833 = alloca %"class.llvh::StringRef", align 8
  %ref.tmp4835 = alloca i8, align 1
  %ref.tmp4837 = alloca %"class.llvh::StringRef", align 8
  %agg.tmp4838 = alloca %"class.llvh::StringRef", align 8
  %ref.tmp4841 = alloca i64, align 8
  %coerce4845 = alloca %"struct.std::pair.13", align 8
  %ref.tmp4848 = alloca i32, align 4
  %agg.tmp4849 = alloca %"class.llvh::StringRef", align 8
  %ref.tmp4851 = alloca i8, align 1
  %ref.tmp4855 = alloca i32, align 4
  %agg.tmp4856 = alloca %"class.llvh::StringRef", align 8
  %ref.tmp4858 = alloca i8, align 1
  %ref.tmp4862 = alloca i32, align 4
  %agg.tmp4863 = alloca %"class.llvh::StringRef", align 8
  %ref.tmp4865 = alloca i8, align 1
  %ref.tmp4867 = alloca %"class.llvh::StringRef", align 8
  %agg.tmp4868 = alloca %"class.llvh::StringRef", align 8
  %ref.tmp4871 = alloca i64, align 8
  %coerce4875 = alloca %"struct.std::pair.13", align 8
  %ref.tmp4878 = alloca i32, align 4
  %agg.tmp4879 = alloca %"class.llvh::StringRef", align 8
  %ref.tmp4881 = alloca i8, align 1
  %ref.tmp4885 = alloca i32, align 4
  %agg.tmp4886 = alloca %"class.llvh::StringRef", align 8
  %ref.tmp4888 = alloca i8, align 1
  %ref.tmp4892 = alloca i32, align 4
  %agg.tmp4893 = alloca %"class.llvh::StringRef", align 8
  %ref.tmp4895 = alloca i8, align 1
  %ref.tmp4897 = alloca %"class.llvh::StringRef", align 8
  %agg.tmp4898 = alloca %"class.llvh::StringRef", align 8
  %ref.tmp4901 = alloca i64, align 8
  %coerce4905 = alloca %"struct.std::pair.13", align 8
  %ref.tmp4908 = alloca i32, align 4
  %agg.tmp4909 = alloca %"class.llvh::StringRef", align 8
  %ref.tmp4911 = alloca i8, align 1
  %ref.tmp4915 = alloca i32, align 4
  %agg.tmp4916 = alloca %"class.llvh::StringRef", align 8
  %ref.tmp4918 = alloca i8, align 1
  %ref.tmp4920 = alloca %"class.llvh::StringRef", align 8
  %agg.tmp4921 = alloca %"class.llvh::StringRef", align 8
  %ref.tmp4924 = alloca i64, align 8
  %coerce4928 = alloca %"struct.std::pair.13", align 8
  %ref.tmp4931 = alloca i32, align 4
  %agg.tmp4932 = alloca %"class.llvh::StringRef", align 8
  %ref.tmp4934 = alloca i8, align 1
  %ref.tmp4936 = alloca %"class.llvh::StringRef", align 8
  %agg.tmp4937 = alloca %"class.llvh::StringRef", align 8
  %ref.tmp4940 = alloca i64, align 8
  %coerce4944 = alloca %"struct.std::pair.13", align 8
  %ref.tmp4947 = alloca i32, align 4
  %agg.tmp4948 = alloca %"class.llvh::StringRef", align 8
  %ref.tmp4950 = alloca i8, align 1
  %ref.tmp4954 = alloca i32, align 4
  %agg.tmp4955 = alloca %"class.llvh::StringRef", align 8
  %ref.tmp4957 = alloca i8, align 1
  %ref.tmp4959 = alloca %"class.llvh::StringRef", align 8
  %agg.tmp4960 = alloca %"class.llvh::StringRef", align 8
  %ref.tmp4963 = alloca i64, align 8
  %coerce4967 = alloca %"struct.std::pair.13", align 8
  %ref.tmp4970 = alloca i32, align 4
  %agg.tmp4971 = alloca %"class.llvh::StringRef", align 8
  %ref.tmp4973 = alloca i8, align 1
  %ref.tmp4977 = alloca i32, align 4
  %agg.tmp4978 = alloca %"class.llvh::StringRef", align 8
  %ref.tmp4980 = alloca i8, align 1
  %ref.tmp4982 = alloca %"class.llvh::StringRef", align 8
  %agg.tmp4983 = alloca %"class.llvh::StringRef", align 8
  %ref.tmp4986 = alloca i64, align 8
  %coerce4990 = alloca %"struct.std::pair.13", align 8
  %ref.tmp4993 = alloca i32, align 4
  %agg.tmp4994 = alloca %"class.llvh::StringRef", align 8
  %ref.tmp4996 = alloca i8, align 1
  %ref.tmp5000 = alloca i32, align 4
  %agg.tmp5001 = alloca %"class.llvh::StringRef", align 8
  %ref.tmp5003 = alloca i8, align 1
  %ref.tmp5007 = alloca i32, align 4
  %agg.tmp5008 = alloca %"class.llvh::StringRef", align 8
  %ref.tmp5010 = alloca i8, align 1
  %ref.tmp5014 = alloca i32, align 4
  %agg.tmp5015 = alloca %"class.llvh::StringRef", align 8
  %ref.tmp5017 = alloca i8, align 1
  %ref.tmp5021 = alloca i32, align 4
  %agg.tmp5022 = alloca %"class.llvh::StringRef", align 8
  %ref.tmp5024 = alloca i8, align 1
  %ref.tmp5026 = alloca %"class.llvh::StringRef", align 8
  %agg.tmp5027 = alloca %"class.llvh::StringRef", align 8
  %ref.tmp5030 = alloca i64, align 8
  %coerce5034 = alloca %"struct.std::pair.13", align 8
  %ref.tmp5037 = alloca i32, align 4
  %agg.tmp5038 = alloca %"class.llvh::StringRef", align 8
  %ref.tmp5040 = alloca i8, align 1
  %ref.tmp5044 = alloca i32, align 4
  %agg.tmp5045 = alloca %"class.llvh::StringRef", align 8
  %ref.tmp5047 = alloca i8, align 1
  %ref.tmp5051 = alloca i32, align 4
  %agg.tmp5052 = alloca %"class.llvh::StringRef", align 8
  %ref.tmp5054 = alloca i8, align 1
  %ref.tmp5056 = alloca %"class.llvh::StringRef", align 8
  %agg.tmp5057 = alloca %"class.llvh::StringRef", align 8
  %ref.tmp5060 = alloca i64, align 8
  %coerce5064 = alloca %"struct.std::pair.13", align 8
  %ref.tmp5067 = alloca i32, align 4
  %agg.tmp5068 = alloca %"class.llvh::StringRef", align 8
  %ref.tmp5070 = alloca i8, align 1
  %ref.tmp5074 = alloca i32, align 4
  %agg.tmp5075 = alloca %"class.llvh::StringRef", align 8
  %ref.tmp5077 = alloca i8, align 1
  %ref.tmp5081 = alloca i32, align 4
  %agg.tmp5082 = alloca %"class.llvh::StringRef", align 8
  %ref.tmp5084 = alloca i8, align 1
  %ref.tmp5088 = alloca i32, align 4
  %agg.tmp5089 = alloca %"class.llvh::StringRef", align 8
  %ref.tmp5091 = alloca i8, align 1
  %ref.tmp5093 = alloca %"class.llvh::StringRef", align 8
  %agg.tmp5094 = alloca %"class.llvh::StringRef", align 8
  %ref.tmp5097 = alloca i64, align 8
  %coerce5101 = alloca %"struct.std::pair.13", align 8
  %ref.tmp5104 = alloca i32, align 4
  %agg.tmp5105 = alloca %"class.llvh::StringRef", align 8
  %ref.tmp5107 = alloca i8, align 1
  %ref.tmp5111 = alloca i32, align 4
  %agg.tmp5112 = alloca %"class.llvh::StringRef", align 8
  %ref.tmp5114 = alloca i8, align 1
  %ref.tmp5116 = alloca %"class.llvh::StringRef", align 8
  %agg.tmp5117 = alloca %"class.llvh::StringRef", align 8
  %ref.tmp5120 = alloca i64, align 8
  %coerce5124 = alloca %"struct.std::pair.13", align 8
  %ref.tmp5127 = alloca i32, align 4
  %agg.tmp5128 = alloca %"class.llvh::StringRef", align 8
  %ref.tmp5130 = alloca i8, align 1
  %ref.tmp5132 = alloca %"class.llvh::StringRef", align 8
  %agg.tmp5133 = alloca %"class.llvh::StringRef", align 8
  %ref.tmp5136 = alloca i64, align 8
  %coerce5140 = alloca %"struct.std::pair.13", align 8
  %ref.tmp5143 = alloca i32, align 4
  %agg.tmp5144 = alloca %"class.llvh::StringRef", align 8
  %ref.tmp5146 = alloca i8, align 1
  %ref.tmp5150 = alloca i32, align 4
  %agg.tmp5151 = alloca %"class.llvh::StringRef", align 8
  %ref.tmp5153 = alloca i8, align 1
  %ref.tmp5155 = alloca %"class.llvh::StringRef", align 8
  %agg.tmp5156 = alloca %"class.llvh::StringRef", align 8
  %ref.tmp5159 = alloca i64, align 8
  %coerce5163 = alloca %"struct.std::pair.13", align 8
  %ref.tmp5166 = alloca i32, align 4
  %agg.tmp5167 = alloca %"class.llvh::StringRef", align 8
  %ref.tmp5169 = alloca i8, align 1
  %ref.tmp5173 = alloca i32, align 4
  %agg.tmp5174 = alloca %"class.llvh::StringRef", align 8
  %ref.tmp5176 = alloca i8, align 1
  %ref.tmp5178 = alloca %"class.llvh::StringRef", align 8
  %agg.tmp5179 = alloca %"class.llvh::StringRef", align 8
  %ref.tmp5182 = alloca i64, align 8
  %coerce5186 = alloca %"struct.std::pair.13", align 8
  %ref.tmp5189 = alloca i32, align 4
  %agg.tmp5190 = alloca %"class.llvh::StringRef", align 8
  %ref.tmp5192 = alloca i8, align 1
  %ref.tmp5196 = alloca i32, align 4
  %agg.tmp5197 = alloca %"class.llvh::StringRef", align 8
  %ref.tmp5199 = alloca i8, align 1
  %ref.tmp5201 = alloca %"class.llvh::StringRef", align 8
  %agg.tmp5202 = alloca %"class.llvh::StringRef", align 8
  %ref.tmp5205 = alloca i64, align 8
  %coerce5209 = alloca %"struct.std::pair.13", align 8
  %ref.tmp5212 = alloca i32, align 4
  %agg.tmp5213 = alloca %"class.llvh::StringRef", align 8
  %ref.tmp5215 = alloca i8, align 1
  %ref.tmp5217 = alloca %"class.llvh::StringRef", align 8
  %agg.tmp5218 = alloca %"class.llvh::StringRef", align 8
  %ref.tmp5221 = alloca i64, align 8
  %coerce5225 = alloca %"struct.std::pair.13", align 8
  %ref.tmp5228 = alloca i32, align 4
  %agg.tmp5229 = alloca %"class.llvh::StringRef", align 8
  %ref.tmp5231 = alloca i8, align 1
  %ref.tmp5235 = alloca i32, align 4
  %agg.tmp5236 = alloca %"class.llvh::StringRef", align 8
  %ref.tmp5238 = alloca i8, align 1
  %ref.tmp5240 = alloca %"class.llvh::StringRef", align 8
  %agg.tmp5241 = alloca %"class.llvh::StringRef", align 8
  %ref.tmp5244 = alloca i64, align 8
  %coerce5248 = alloca %"struct.std::pair.13", align 8
  %ref.tmp5251 = alloca i32, align 4
  %agg.tmp5252 = alloca %"class.llvh::StringRef", align 8
  %ref.tmp5254 = alloca i8, align 1
  %ref.tmp5256 = alloca %"class.llvh::StringRef", align 8
  %agg.tmp5257 = alloca %"class.llvh::StringRef", align 8
  %ref.tmp5260 = alloca i64, align 8
  %coerce5264 = alloca %"struct.std::pair.13", align 8
  %ref.tmp5267 = alloca i32, align 4
  %agg.tmp5268 = alloca %"class.llvh::StringRef", align 8
  %ref.tmp5270 = alloca i8, align 1
  %ref.tmp5274 = alloca i32, align 4
  %agg.tmp5275 = alloca %"class.llvh::StringRef", align 8
  %ref.tmp5277 = alloca i8, align 1
  %ref.tmp5281 = alloca i32, align 4
  %agg.tmp5282 = alloca %"class.llvh::StringRef", align 8
  %ref.tmp5284 = alloca i8, align 1
  %ref.tmp5286 = alloca %"class.llvh::StringRef", align 8
  %agg.tmp5287 = alloca %"class.llvh::StringRef", align 8
  %ref.tmp5290 = alloca i64, align 8
  %coerce5294 = alloca %"struct.std::pair.13", align 8
  %ref.tmp5297 = alloca i32, align 4
  %agg.tmp5298 = alloca %"class.llvh::StringRef", align 8
  %ref.tmp5300 = alloca i8, align 1
  %ref.tmp5302 = alloca %"class.llvh::StringRef", align 8
  %agg.tmp5303 = alloca %"class.llvh::StringRef", align 8
  %ref.tmp5306 = alloca i64, align 8
  %coerce5310 = alloca %"struct.std::pair.13", align 8
  %ref.tmp5313 = alloca i32, align 4
  %agg.tmp5314 = alloca %"class.llvh::StringRef", align 8
  %ref.tmp5316 = alloca i8, align 1
  %ref.tmp5318 = alloca %"class.llvh::StringRef", align 8
  %agg.tmp5319 = alloca %"class.llvh::StringRef", align 8
  %ref.tmp5322 = alloca i64, align 8
  %coerce5326 = alloca %"struct.std::pair.13", align 8
  %ref.tmp5329 = alloca i32, align 4
  %agg.tmp5330 = alloca %"class.llvh::StringRef", align 8
  %ref.tmp5332 = alloca i8, align 1
  %ref.tmp5334 = alloca %"class.llvh::StringRef", align 8
  %agg.tmp5335 = alloca %"class.llvh::StringRef", align 8
  %ref.tmp5338 = alloca i64, align 8
  %coerce5342 = alloca %"struct.std::pair.13", align 8
  %ref.tmp5345 = alloca i32, align 4
  %agg.tmp5346 = alloca %"class.llvh::StringRef", align 8
  %ref.tmp5348 = alloca i8, align 1
  %ref.tmp5350 = alloca %"class.llvh::StringRef", align 8
  %agg.tmp5351 = alloca %"class.llvh::StringRef", align 8
  %ref.tmp5354 = alloca i64, align 8
  %coerce5358 = alloca %"struct.std::pair.13", align 8
  %ref.tmp5361 = alloca i32, align 4
  %agg.tmp5362 = alloca %"class.llvh::StringRef", align 8
  %ref.tmp5364 = alloca i8, align 1
  %ref.tmp5368 = alloca i32, align 4
  %agg.tmp5369 = alloca %"class.llvh::StringRef", align 8
  %ref.tmp5371 = alloca i8, align 1
  %ref.tmp5375 = alloca i32, align 4
  %agg.tmp5376 = alloca %"class.llvh::StringRef", align 8
  %ref.tmp5378 = alloca i8, align 1
  %ref.tmp5382 = alloca i32, align 4
  %agg.tmp5383 = alloca %"class.llvh::StringRef", align 8
  %ref.tmp5385 = alloca i8, align 1
  %ref.tmp5387 = alloca %"class.llvh::StringRef", align 8
  %agg.tmp5388 = alloca %"class.llvh::StringRef", align 8
  %ref.tmp5391 = alloca i64, align 8
  %coerce5395 = alloca %"struct.std::pair.13", align 8
  %ref.tmp5398 = alloca i32, align 4
  %agg.tmp5399 = alloca %"class.llvh::StringRef", align 8
  %ref.tmp5401 = alloca i8, align 1
  %ref.tmp5403 = alloca %"class.llvh::StringRef", align 8
  %agg.tmp5404 = alloca %"class.llvh::StringRef", align 8
  %ref.tmp5407 = alloca i64, align 8
  %coerce5411 = alloca %"struct.std::pair.13", align 8
  %ref.tmp5414 = alloca i32, align 4
  %agg.tmp5415 = alloca %"class.llvh::StringRef", align 8
  %ref.tmp5417 = alloca i8, align 1
  %ref.tmp5421 = alloca i32, align 4
  %agg.tmp5422 = alloca %"class.llvh::StringRef", align 8
  %ref.tmp5424 = alloca i8, align 1
  %ref.tmp5428 = alloca i32, align 4
  %agg.tmp5429 = alloca %"class.llvh::StringRef", align 8
  %ref.tmp5431 = alloca i8, align 1
  %ref.tmp5435 = alloca i32, align 4
  %agg.tmp5436 = alloca %"class.llvh::StringRef", align 8
  %ref.tmp5438 = alloca i8, align 1
  %ref.tmp5442 = alloca i32, align 4
  %agg.tmp5443 = alloca %"class.llvh::StringRef", align 8
  %ref.tmp5445 = alloca i8, align 1
  %ref.tmp5449 = alloca i32, align 4
  %agg.tmp5450 = alloca %"class.llvh::StringRef", align 8
  %ref.tmp5452 = alloca i8, align 1
  %ref.tmp5456 = alloca i32, align 4
  %agg.tmp5457 = alloca %"class.llvh::StringRef", align 8
  %ref.tmp5459 = alloca i8, align 1
  %ref.tmp5463 = alloca i32, align 4
  %agg.tmp5464 = alloca %"class.llvh::StringRef", align 8
  %ref.tmp5466 = alloca i8, align 1
  %ref.tmp5468 = alloca %"class.llvh::StringRef", align 8
  %agg.tmp5469 = alloca %"class.llvh::StringRef", align 8
  %ref.tmp5472 = alloca i64, align 8
  %coerce5476 = alloca %"struct.std::pair.13", align 8
  %ref.tmp5479 = alloca i32, align 4
  %agg.tmp5480 = alloca %"class.llvh::StringRef", align 8
  %ref.tmp5482 = alloca i8, align 1
  %ref.tmp5486 = alloca i32, align 4
  %agg.tmp5487 = alloca %"class.llvh::StringRef", align 8
  %ref.tmp5489 = alloca i8, align 1
  %ref.tmp5493 = alloca i32, align 4
  %agg.tmp5494 = alloca %"class.llvh::StringRef", align 8
  %ref.tmp5496 = alloca i8, align 1
  %ref.tmp5500 = alloca i32, align 4
  %agg.tmp5501 = alloca %"class.llvh::StringRef", align 8
  %ref.tmp5503 = alloca i8, align 1
  %ref.tmp5505 = alloca %"class.llvh::StringRef", align 8
  %agg.tmp5506 = alloca %"class.llvh::StringRef", align 8
  %ref.tmp5509 = alloca i64, align 8
  %coerce5513 = alloca %"struct.std::pair.13", align 8
  %ref.tmp5516 = alloca i32, align 4
  %agg.tmp5517 = alloca %"class.llvh::StringRef", align 8
  %ref.tmp5519 = alloca i8, align 1
  %ref.tmp5523 = alloca i32, align 4
  %agg.tmp5524 = alloca %"class.llvh::StringRef", align 8
  %ref.tmp5526 = alloca i8, align 1
  %ref.tmp5528 = alloca %"class.llvh::StringRef", align 8
  %agg.tmp5529 = alloca %"class.llvh::StringRef", align 8
  %ref.tmp5532 = alloca i64, align 8
  %coerce5536 = alloca %"struct.std::pair.13", align 8
  %ref.tmp5539 = alloca i32, align 4
  %agg.tmp5540 = alloca %"class.llvh::StringRef", align 8
  %ref.tmp5542 = alloca i8, align 1
  %ref.tmp5546 = alloca i32, align 4
  %agg.tmp5547 = alloca %"class.llvh::StringRef", align 8
  %ref.tmp5549 = alloca i8, align 1
  %ref.tmp5551 = alloca %"class.llvh::StringRef", align 8
  %agg.tmp5552 = alloca %"class.llvh::StringRef", align 8
  %ref.tmp5555 = alloca i64, align 8
  %coerce5559 = alloca %"struct.std::pair.13", align 8
  %ref.tmp5562 = alloca i32, align 4
  %agg.tmp5563 = alloca %"class.llvh::StringRef", align 8
  %ref.tmp5565 = alloca i8, align 1
  %ref.tmp5569 = alloca i32, align 4
  %agg.tmp5570 = alloca %"class.llvh::StringRef", align 8
  %ref.tmp5572 = alloca i8, align 1
  %ref.tmp5574 = alloca i32, align 4
  %ref.tmp5576 = alloca %"class.llvh::StringRef", align 8
  %agg.tmp5577 = alloca %"class.llvh::StringRef", align 8
  %ref.tmp5579 = alloca i32, align 4
  %ref.tmp5581 = alloca i64, align 8
  %coerce5585 = alloca %"struct.std::pair.13", align 8
  %ref.tmp5586 = alloca %"class.llvh::StringRef", align 8
  %agg.tmp5587 = alloca %"class.llvh::StringRef", align 8
  %ref.tmp5590 = alloca i64, align 8
  %coerce5594 = alloca %"struct.std::pair.13", align 8
  %ref.tmp5595 = alloca %"class.llvh::StringRef", align 8
  %agg.tmp5596 = alloca %"class.llvh::StringRef", align 8
  %ref.tmp5599 = alloca i64, align 8
  %coerce5603 = alloca %"struct.std::pair.13", align 8
  %ref.tmp5604 = alloca %"class.llvh::StringRef", align 8
  %agg.tmp5605 = alloca %"class.llvh::StringRef", align 8
  %ref.tmp5608 = alloca i64, align 8
  %coerce5612 = alloca %"struct.std::pair.13", align 8
  %ref.tmp5615 = alloca i32, align 4
  %agg.tmp5616 = alloca %"class.llvh::StringRef", align 8
  %ref.tmp5618 = alloca i8, align 1
  %ref.tmp5620 = alloca %"class.llvh::StringRef", align 8
  %agg.tmp5621 = alloca %"class.llvh::StringRef", align 8
  %ref.tmp5624 = alloca i64, align 8
  %coerce5628 = alloca %"struct.std::pair.13", align 8
  %ref.tmp5631 = alloca i32, align 4
  %agg.tmp5632 = alloca %"class.llvh::StringRef", align 8
  %ref.tmp5634 = alloca i8, align 1
  %ref.tmp5636 = alloca %"class.llvh::StringRef", align 8
  %agg.tmp5637 = alloca %"class.llvh::StringRef", align 8
  %ref.tmp5640 = alloca i64, align 8
  %coerce5644 = alloca %"struct.std::pair.13", align 8
  %ref.tmp5647 = alloca i32, align 4
  %agg.tmp5648 = alloca %"class.llvh::StringRef", align 8
  %ref.tmp5650 = alloca i8, align 1
  %ref.tmp5654 = alloca i32, align 4
  %agg.tmp5655 = alloca %"class.llvh::StringRef", align 8
  %ref.tmp5657 = alloca i8, align 1
  %ref.tmp5661 = alloca i32, align 4
  %agg.tmp5662 = alloca %"class.llvh::StringRef", align 8
  %ref.tmp5664 = alloca i8, align 1
  %ref.tmp5666 = alloca i32, align 4
  store ptr %agg.tmp, ptr %this.addr.i, align 8
  store ptr @.str.13, ptr %Str.addr.i, align 8
  %this1.i = load ptr, ptr %this.addr.i, align 8
  %0 = load ptr, ptr %Str.addr.i, align 8
  store ptr %0, ptr %this1.i, align 8
  %Length.i = getelementptr inbounds %"class.llvh::StringRef", ptr %this1.i, i32 0, i32 1
  %1 = load ptr, ptr %Str.addr.i, align 8
  %tobool.i = icmp ne ptr %1, null
  br i1 %tobool.i, label %cond.true.i, label %cond.false.i

cond.true.i:                                      ; preds = %entry
  %2 = load ptr, ptr %Str.addr.i, align 8
  %call.i = call i64 @strlen(ptr noundef %2) #12
  br label %_ZN4llvh9StringRefC2EPKc.exit

cond.false.i:                                     ; preds = %entry
  br label %_ZN4llvh9StringRefC2EPKc.exit

_ZN4llvh9StringRefC2EPKc.exit:                    ; preds = %cond.false.i, %cond.true.i
  %cond.i = phi i64 [ %call.i, %cond.true.i ], [ 0, %cond.false.i ]
  store i64 %cond.i, ptr %Length.i, align 8
  %3 = getelementptr inbounds { ptr, i64 }, ptr %agg.tmp, i32 0, i32 0
  %4 = load ptr, ptr %3, align 8
  %5 = getelementptr inbounds { ptr, i64 }, ptr %agg.tmp, i32 0, i32 1
  %6 = load i64, ptr %5, align 8
  %call = call { ptr, i64 } @"_ZZL11initClassesvENK3$_0clEN4llvh9StringRefE"(ptr noundef nonnull align 1 dereferenceable(1) %baseName, ptr %4, i64 %6)
  %7 = getelementptr inbounds { ptr, i64 }, ptr %ref.tmp, i32 0, i32 0
  %8 = extractvalue { ptr, i64 } %call, 0
  store ptr %8, ptr %7, align 8
  %9 = getelementptr inbounds { ptr, i64 }, ptr %ref.tmp, i32 0, i32 1
  %10 = extractvalue { ptr, i64 } %call, 1
  store i64 %10, ptr %9, align 8
  %call1 = call noundef nonnull align 8 dereferenceable(96) ptr @_ZNSt6vectorI9TreeClassSaIS0_EE12emplace_backIJRA6_KcN4llvh9StringRefEEEERS0_DpOT_(ptr noundef nonnull align 8 dereferenceable(24) @_ZL12treeClasses_, ptr noundef nonnull align 1 dereferenceable(6) @.str.12, ptr noundef nonnull align 8 dereferenceable(16) %ref.tmp)
  %call3 = call noundef i64 @_ZNKSt6vectorI9TreeClassSaIS0_EE4sizeEv(ptr noundef nonnull align 8 dereferenceable(24) @_ZL12treeClasses_) #3
  %sub = sub i64 %call3, 1
  store i64 %sub, ptr %ref.tmp2, align 8
  %call4 = call { ptr, i8 } @_ZNSt3mapINSt7__cxx1112basic_stringIcSt11char_traitsIcESaIcEEEmSt4lessIS5_ESaISt4pairIKS5_mEEE7emplaceIJRA6_KcmEEES8_ISt17_Rb_tree_iteratorISA_EbEDpOT_(ptr noundef nonnull align 8 dereferenceable(48) @_ZL10treeNames_B5cxx11, ptr noundef nonnull align 1 dereferenceable(6) @.str.12, ptr noundef nonnull align 8 dereferenceable(8) %ref.tmp2)
  %11 = getelementptr inbounds { ptr, i8 }, ptr %coerce, i32 0, i32 0
  %12 = extractvalue { ptr, i8 } %call4, 0
  store ptr %12, ptr %11, align 8
  %13 = getelementptr inbounds { ptr, i8 }, ptr %coerce, i32 0, i32 1
  %14 = extractvalue { ptr, i8 } %call4, 1
  store i8 %14, ptr %13, align 8
  store ptr %agg.tmp6, ptr %this.addr.i5668, align 8
  store ptr @.str.13, ptr %Str.addr.i5669, align 8
  %this1.i5670 = load ptr, ptr %this.addr.i5668, align 8
  %15 = load ptr, ptr %Str.addr.i5669, align 8
  store ptr %15, ptr %this1.i5670, align 8
  %Length.i5671 = getelementptr inbounds %"class.llvh::StringRef", ptr %this1.i5670, i32 0, i32 1
  %16 = load ptr, ptr %Str.addr.i5669, align 8
  %tobool.i5672 = icmp ne ptr %16, null
  br i1 %tobool.i5672, label %cond.true.i5675, label %cond.false.i5673

cond.true.i5675:                                  ; preds = %_ZN4llvh9StringRefC2EPKc.exit
  %17 = load ptr, ptr %Str.addr.i5669, align 8
  %call.i5676 = call i64 @strlen(ptr noundef %17) #12
  br label %_ZN4llvh9StringRefC2EPKc.exit5677

cond.false.i5673:                                 ; preds = %_ZN4llvh9StringRefC2EPKc.exit
  br label %_ZN4llvh9StringRefC2EPKc.exit5677

_ZN4llvh9StringRefC2EPKc.exit5677:                ; preds = %cond.false.i5673, %cond.true.i5675
  %cond.i5674 = phi i64 [ %call.i5676, %cond.true.i5675 ], [ 0, %cond.false.i5673 ]
  store i64 %cond.i5674, ptr %Length.i5671, align 8
  %18 = getelementptr inbounds { ptr, i64 }, ptr %agg.tmp6, i32 0, i32 0
  %19 = load ptr, ptr %18, align 8
  %20 = getelementptr inbounds { ptr, i64 }, ptr %agg.tmp6, i32 0, i32 1
  %21 = load i64, ptr %20, align 8
  %call7 = call { ptr, i64 } @"_ZZL11initClassesvENK3$_0clEN4llvh9StringRefE"(ptr noundef nonnull align 1 dereferenceable(1) %baseName, ptr %19, i64 %21)
  %22 = getelementptr inbounds { ptr, i64 }, ptr %ref.tmp5, i32 0, i32 0
  %23 = extractvalue { ptr, i64 } %call7, 0
  store ptr %23, ptr %22, align 8
  %24 = getelementptr inbounds { ptr, i64 }, ptr %ref.tmp5, i32 0, i32 1
  %25 = extractvalue { ptr, i64 } %call7, 1
  store i64 %25, ptr %24, align 8
  %call8 = call noundef nonnull align 8 dereferenceable(96) ptr @_ZNSt6vectorI9TreeClassSaIS0_EE12emplace_backIJRA9_KcN4llvh9StringRefEEEERS0_DpOT_(ptr noundef nonnull align 8 dereferenceable(24) @_ZL12treeClasses_, ptr noundef nonnull align 1 dereferenceable(9) @.str.14, ptr noundef nonnull align 8 dereferenceable(16) %ref.tmp5)
  %call10 = call noundef i64 @_ZNKSt6vectorI9TreeClassSaIS0_EE4sizeEv(ptr noundef nonnull align 8 dereferenceable(24) @_ZL12treeClasses_) #3
  %sub11 = sub i64 %call10, 1
  store i64 %sub11, ptr %ref.tmp9, align 8
  %call12 = call { ptr, i8 } @_ZNSt3mapINSt7__cxx1112basic_stringIcSt11char_traitsIcESaIcEEEmSt4lessIS5_ESaISt4pairIKS5_mEEE7emplaceIJRA9_KcmEEES8_ISt17_Rb_tree_iteratorISA_EbEDpOT_(ptr noundef nonnull align 8 dereferenceable(48) @_ZL10treeNames_B5cxx11, ptr noundef nonnull align 1 dereferenceable(9) @.str.14, ptr noundef nonnull align 8 dereferenceable(8) %ref.tmp9)
  %26 = getelementptr inbounds { ptr, i8 }, ptr %coerce13, i32 0, i32 0
  %27 = extractvalue { ptr, i8 } %call12, 0
  store ptr %27, ptr %26, align 8
  %28 = getelementptr inbounds { ptr, i8 }, ptr %coerce13, i32 0, i32 1
  %29 = extractvalue { ptr, i8 } %call12, 1
  store i8 %29, ptr %28, align 8
  store ptr %agg.tmp15, ptr %this.addr.i5678, align 8
  store ptr @.str.13, ptr %Str.addr.i5679, align 8
  %this1.i5680 = load ptr, ptr %this.addr.i5678, align 8
  %30 = load ptr, ptr %Str.addr.i5679, align 8
  store ptr %30, ptr %this1.i5680, align 8
  %Length.i5681 = getelementptr inbounds %"class.llvh::StringRef", ptr %this1.i5680, i32 0, i32 1
  %31 = load ptr, ptr %Str.addr.i5679, align 8
  %tobool.i5682 = icmp ne ptr %31, null
  br i1 %tobool.i5682, label %cond.true.i5685, label %cond.false.i5683

cond.true.i5685:                                  ; preds = %_ZN4llvh9StringRefC2EPKc.exit5677
  %32 = load ptr, ptr %Str.addr.i5679, align 8
  %call.i5686 = call i64 @strlen(ptr noundef %32) #12
  br label %_ZN4llvh9StringRefC2EPKc.exit5687

cond.false.i5683:                                 ; preds = %_ZN4llvh9StringRefC2EPKc.exit5677
  br label %_ZN4llvh9StringRefC2EPKc.exit5687

_ZN4llvh9StringRefC2EPKc.exit5687:                ; preds = %cond.false.i5683, %cond.true.i5685
  %cond.i5684 = phi i64 [ %call.i5686, %cond.true.i5685 ], [ 0, %cond.false.i5683 ]
  store i64 %cond.i5684, ptr %Length.i5681, align 8
  %33 = getelementptr inbounds { ptr, i64 }, ptr %agg.tmp15, i32 0, i32 0
  %34 = load ptr, ptr %33, align 8
  %35 = getelementptr inbounds { ptr, i64 }, ptr %agg.tmp15, i32 0, i32 1
  %36 = load i64, ptr %35, align 8
  %call16 = call { ptr, i64 } @"_ZZL11initClassesvENK3$_0clEN4llvh9StringRefE"(ptr noundef nonnull align 1 dereferenceable(1) %baseName, ptr %34, i64 %36)
  %37 = getelementptr inbounds { ptr, i64 }, ptr %ref.tmp14, i32 0, i32 0
  %38 = extractvalue { ptr, i64 } %call16, 0
  store ptr %38, ptr %37, align 8
  %39 = getelementptr inbounds { ptr, i64 }, ptr %ref.tmp14, i32 0, i32 1
  %40 = extractvalue { ptr, i64 } %call16, 1
  store i64 %40, ptr %39, align 8
  store i32 1, ptr %ref.tmp17, align 4
  %call18 = call noundef nonnull align 8 dereferenceable(96) ptr @_ZNSt6vectorI9TreeClassSaIS0_EE12emplace_backIJRA13_KcN4llvh9StringRefE12SentinelTypeEEERS0_DpOT_(ptr noundef nonnull align 8 dereferenceable(24) @_ZL12treeClasses_, ptr noundef nonnull align 1 dereferenceable(13) @.str.15, ptr noundef nonnull align 8 dereferenceable(16) %ref.tmp14, ptr noundef nonnull align 4 dereferenceable(4) %ref.tmp17)
  %call20 = call noundef i64 @_ZNKSt6vectorI9TreeClassSaIS0_EE4sizeEv(ptr noundef nonnull align 8 dereferenceable(24) @_ZL12treeClasses_) #3
  %sub21 = sub i64 %call20, 1
  store i64 %sub21, ptr %ref.tmp19, align 8
  %call22 = call { ptr, i8 } @_ZNSt3mapINSt7__cxx1112basic_stringIcSt11char_traitsIcESaIcEEEmSt4lessIS5_ESaISt4pairIKS5_mEEE7emplaceIJRA13_KcmEEES8_ISt17_Rb_tree_iteratorISA_EbEDpOT_(ptr noundef nonnull align 8 dereferenceable(48) @_ZL10treeNames_B5cxx11, ptr noundef nonnull align 1 dereferenceable(13) @.str.15, ptr noundef nonnull align 8 dereferenceable(8) %ref.tmp19)
  %41 = getelementptr inbounds { ptr, i8 }, ptr %coerce23, i32 0, i32 0
  %42 = extractvalue { ptr, i8 } %call22, 0
  store ptr %42, ptr %41, align 8
  %43 = getelementptr inbounds { ptr, i8 }, ptr %coerce23, i32 0, i32 1
  %44 = extractvalue { ptr, i8 } %call22, 1
  store i8 %44, ptr %43, align 8
  store ptr %agg.tmp25, ptr %this.addr.i5688, align 8
  store ptr @.str.15, ptr %Str.addr.i5689, align 8
  %this1.i5690 = load ptr, ptr %this.addr.i5688, align 8
  %45 = load ptr, ptr %Str.addr.i5689, align 8
  store ptr %45, ptr %this1.i5690, align 8
  %Length.i5691 = getelementptr inbounds %"class.llvh::StringRef", ptr %this1.i5690, i32 0, i32 1
  %46 = load ptr, ptr %Str.addr.i5689, align 8
  %tobool.i5692 = icmp ne ptr %46, null
  br i1 %tobool.i5692, label %cond.true.i5695, label %cond.false.i5693

cond.true.i5695:                                  ; preds = %_ZN4llvh9StringRefC2EPKc.exit5687
  %47 = load ptr, ptr %Str.addr.i5689, align 8
  %call.i5696 = call i64 @strlen(ptr noundef %47) #12
  br label %_ZN4llvh9StringRefC2EPKc.exit5697

cond.false.i5693:                                 ; preds = %_ZN4llvh9StringRefC2EPKc.exit5687
  br label %_ZN4llvh9StringRefC2EPKc.exit5697

_ZN4llvh9StringRefC2EPKc.exit5697:                ; preds = %cond.false.i5693, %cond.true.i5695
  %cond.i5694 = phi i64 [ %call.i5696, %cond.true.i5695 ], [ 0, %cond.false.i5693 ]
  store i64 %cond.i5694, ptr %Length.i5691, align 8
  %48 = getelementptr inbounds { ptr, i64 }, ptr %agg.tmp25, i32 0, i32 0
  %49 = load ptr, ptr %48, align 8
  %50 = getelementptr inbounds { ptr, i64 }, ptr %agg.tmp25, i32 0, i32 1
  %51 = load i64, ptr %50, align 8
  %call26 = call { ptr, i64 } @"_ZZL11initClassesvENK3$_0clEN4llvh9StringRefE"(ptr noundef nonnull align 1 dereferenceable(1) %baseName, ptr %49, i64 %51)
  %52 = getelementptr inbounds { ptr, i64 }, ptr %ref.tmp24, i32 0, i32 0
  %53 = extractvalue { ptr, i64 } %call26, 0
  store ptr %53, ptr %52, align 8
  %54 = getelementptr inbounds { ptr, i64 }, ptr %ref.tmp24, i32 0, i32 1
  %55 = extractvalue { ptr, i64 } %call26, 1
  store i64 %55, ptr %54, align 8
  %call27 = call noundef nonnull align 8 dereferenceable(96) ptr @_ZNSt6vectorI9TreeClassSaIS0_EE12emplace_backIJRA8_KcN4llvh9StringRefEEEERS0_DpOT_(ptr noundef nonnull align 8 dereferenceable(24) @_ZL12treeClasses_, ptr noundef nonnull align 1 dereferenceable(8) @.str.16, ptr noundef nonnull align 8 dereferenceable(16) %ref.tmp24)
  %call29 = call noundef i64 @_ZNKSt6vectorI9TreeClassSaIS0_EE4sizeEv(ptr noundef nonnull align 8 dereferenceable(24) @_ZL12treeClasses_) #3
  %sub30 = sub i64 %call29, 1
  store i64 %sub30, ptr %ref.tmp28, align 8
  %call31 = call { ptr, i8 } @_ZNSt3mapINSt7__cxx1112basic_stringIcSt11char_traitsIcESaIcEEEmSt4lessIS5_ESaISt4pairIKS5_mEEE7emplaceIJRA8_KcmEEES8_ISt17_Rb_tree_iteratorISA_EbEDpOT_(ptr noundef nonnull align 8 dereferenceable(48) @_ZL10treeNames_B5cxx11, ptr noundef nonnull align 1 dereferenceable(8) @.str.16, ptr noundef nonnull align 8 dereferenceable(8) %ref.tmp28)
  %56 = getelementptr inbounds { ptr, i8 }, ptr %coerce32, i32 0, i32 0
  %57 = extractvalue { ptr, i8 } %call31, 0
  store ptr %57, ptr %56, align 8
  %58 = getelementptr inbounds { ptr, i8 }, ptr %coerce32, i32 0, i32 1
  %59 = extractvalue { ptr, i8 } %call31, 1
  store i8 %59, ptr %58, align 8
  %call33 = call noundef nonnull align 8 dereferenceable(96) ptr @_ZNSt6vectorI9TreeClassSaIS0_EE4backEv(ptr noundef nonnull align 8 dereferenceable(24) @_ZL12treeClasses_) #3
  %fields = getelementptr inbounds %struct.TreeClass, ptr %call33, i32 0, i32 3
  store ptr %agg.tmp35, ptr %this.addr.i5698, align 8
  store ptr @.str.17, ptr %Str.addr.i5699, align 8
  %this1.i5700 = load ptr, ptr %this.addr.i5698, align 8
  %60 = load ptr, ptr %Str.addr.i5699, align 8
  store ptr %60, ptr %this1.i5700, align 8
  %Length.i5701 = getelementptr inbounds %"class.llvh::StringRef", ptr %this1.i5700, i32 0, i32 1
  %61 = load ptr, ptr %Str.addr.i5699, align 8
  %tobool.i5702 = icmp ne ptr %61, null
  br i1 %tobool.i5702, label %cond.true.i5705, label %cond.false.i5703

cond.true.i5705:                                  ; preds = %_ZN4llvh9StringRefC2EPKc.exit5697
  %62 = load ptr, ptr %Str.addr.i5699, align 8
  %call.i5706 = call i64 @strlen(ptr noundef %62) #12
  br label %_ZN4llvh9StringRefC2EPKc.exit5707

cond.false.i5703:                                 ; preds = %_ZN4llvh9StringRefC2EPKc.exit5697
  br label %_ZN4llvh9StringRefC2EPKc.exit5707

_ZN4llvh9StringRefC2EPKc.exit5707:                ; preds = %cond.false.i5703, %cond.true.i5705
  %cond.i5704 = phi i64 [ %call.i5706, %cond.true.i5705 ], [ 0, %cond.false.i5703 ]
  store i64 %cond.i5704, ptr %Length.i5701, align 8
  %63 = getelementptr inbounds { ptr, i64 }, ptr %agg.tmp35, i32 0, i32 0
  %64 = load ptr, ptr %63, align 8
  %65 = getelementptr inbounds { ptr, i64 }, ptr %agg.tmp35, i32 0, i32 1
  %66 = load i64, ptr %65, align 8
  %call36 = call noundef i32 @"_ZZL11initClassesvENK3$_1clEN4llvh9StringRefE"(ptr noundef nonnull align 1 dereferenceable(1) %type, ptr %64, i64 %66)
  store i32 %call36, ptr %ref.tmp34, align 4
  store i8 0, ptr %ref.tmp37, align 1
  %call38 = call noundef nonnull align 8 dereferenceable(41) ptr @_ZNSt6vectorI5FieldSaIS0_EE12emplace_backIJ9FieldTypeRA5_KcbEEERS0_DpOT_(ptr noundef nonnull align 8 dereferenceable(24) %fields, ptr noundef nonnull align 4 dereferenceable(4) %ref.tmp34, ptr noundef nonnull align 1 dereferenceable(5) @.str.18, ptr noundef nonnull align 1 dereferenceable(1) %ref.tmp37)
  store ptr %agg.tmp40, ptr %this.addr.i5708, align 8
  store ptr @.str.15, ptr %Str.addr.i5709, align 8
  %this1.i5710 = load ptr, ptr %this.addr.i5708, align 8
  %67 = load ptr, ptr %Str.addr.i5709, align 8
  store ptr %67, ptr %this1.i5710, align 8
  %Length.i5711 = getelementptr inbounds %"class.llvh::StringRef", ptr %this1.i5710, i32 0, i32 1
  %68 = load ptr, ptr %Str.addr.i5709, align 8
  %tobool.i5712 = icmp ne ptr %68, null
  br i1 %tobool.i5712, label %cond.true.i5715, label %cond.false.i5713

cond.true.i5715:                                  ; preds = %_ZN4llvh9StringRefC2EPKc.exit5707
  %69 = load ptr, ptr %Str.addr.i5709, align 8
  %call.i5716 = call i64 @strlen(ptr noundef %69) #12
  br label %_ZN4llvh9StringRefC2EPKc.exit5717

cond.false.i5713:                                 ; preds = %_ZN4llvh9StringRefC2EPKc.exit5707
  br label %_ZN4llvh9StringRefC2EPKc.exit5717

_ZN4llvh9StringRefC2EPKc.exit5717:                ; preds = %cond.false.i5713, %cond.true.i5715
  %cond.i5714 = phi i64 [ %call.i5716, %cond.true.i5715 ], [ 0, %cond.false.i5713 ]
  store i64 %cond.i5714, ptr %Length.i5711, align 8
  %70 = getelementptr inbounds { ptr, i64 }, ptr %agg.tmp40, i32 0, i32 0
  %71 = load ptr, ptr %70, align 8
  %72 = getelementptr inbounds { ptr, i64 }, ptr %agg.tmp40, i32 0, i32 1
  %73 = load i64, ptr %72, align 8
  %call41 = call { ptr, i64 } @"_ZZL11initClassesvENK3$_0clEN4llvh9StringRefE"(ptr noundef nonnull align 1 dereferenceable(1) %baseName, ptr %71, i64 %73)
  %74 = getelementptr inbounds { ptr, i64 }, ptr %ref.tmp39, i32 0, i32 0
  %75 = extractvalue { ptr, i64 } %call41, 0
  store ptr %75, ptr %74, align 8
  %76 = getelementptr inbounds { ptr, i64 }, ptr %ref.tmp39, i32 0, i32 1
  %77 = extractvalue { ptr, i64 } %call41, 1
  store i64 %77, ptr %76, align 8
  %call42 = call noundef nonnull align 8 dereferenceable(96) ptr @_ZNSt6vectorI9TreeClassSaIS0_EE12emplace_backIJRA19_KcN4llvh9StringRefEEEERS0_DpOT_(ptr noundef nonnull align 8 dereferenceable(24) @_ZL12treeClasses_, ptr noundef nonnull align 1 dereferenceable(19) @.str.19, ptr noundef nonnull align 8 dereferenceable(16) %ref.tmp39)
  %call44 = call noundef i64 @_ZNKSt6vectorI9TreeClassSaIS0_EE4sizeEv(ptr noundef nonnull align 8 dereferenceable(24) @_ZL12treeClasses_) #3
  %sub45 = sub i64 %call44, 1
  store i64 %sub45, ptr %ref.tmp43, align 8
  %call46 = call { ptr, i8 } @_ZNSt3mapINSt7__cxx1112basic_stringIcSt11char_traitsIcESaIcEEEmSt4lessIS5_ESaISt4pairIKS5_mEEE7emplaceIJRA19_KcmEEES8_ISt17_Rb_tree_iteratorISA_EbEDpOT_(ptr noundef nonnull align 8 dereferenceable(48) @_ZL10treeNames_B5cxx11, ptr noundef nonnull align 1 dereferenceable(19) @.str.19, ptr noundef nonnull align 8 dereferenceable(8) %ref.tmp43)
  %78 = getelementptr inbounds { ptr, i8 }, ptr %coerce47, i32 0, i32 0
  %79 = extractvalue { ptr, i8 } %call46, 0
  store ptr %79, ptr %78, align 8
  %80 = getelementptr inbounds { ptr, i8 }, ptr %coerce47, i32 0, i32 1
  %81 = extractvalue { ptr, i8 } %call46, 1
  store i8 %81, ptr %80, align 8
  %call48 = call noundef nonnull align 8 dereferenceable(96) ptr @_ZNSt6vectorI9TreeClassSaIS0_EE4backEv(ptr noundef nonnull align 8 dereferenceable(24) @_ZL12treeClasses_) #3
  %fields49 = getelementptr inbounds %struct.TreeClass, ptr %call48, i32 0, i32 3
  store ptr %agg.tmp51, ptr %this.addr.i5718, align 8
  store ptr @.str.20, ptr %Str.addr.i5719, align 8
  %this1.i5720 = load ptr, ptr %this.addr.i5718, align 8
  %82 = load ptr, ptr %Str.addr.i5719, align 8
  store ptr %82, ptr %this1.i5720, align 8
  %Length.i5721 = getelementptr inbounds %"class.llvh::StringRef", ptr %this1.i5720, i32 0, i32 1
  %83 = load ptr, ptr %Str.addr.i5719, align 8
  %tobool.i5722 = icmp ne ptr %83, null
  br i1 %tobool.i5722, label %cond.true.i5725, label %cond.false.i5723

cond.true.i5725:                                  ; preds = %_ZN4llvh9StringRefC2EPKc.exit5717
  %84 = load ptr, ptr %Str.addr.i5719, align 8
  %call.i5726 = call i64 @strlen(ptr noundef %84) #12
  br label %_ZN4llvh9StringRefC2EPKc.exit5727

cond.false.i5723:                                 ; preds = %_ZN4llvh9StringRefC2EPKc.exit5717
  br label %_ZN4llvh9StringRefC2EPKc.exit5727

_ZN4llvh9StringRefC2EPKc.exit5727:                ; preds = %cond.false.i5723, %cond.true.i5725
  %cond.i5724 = phi i64 [ %call.i5726, %cond.true.i5725 ], [ 0, %cond.false.i5723 ]
  store i64 %cond.i5724, ptr %Length.i5721, align 8
  %85 = getelementptr inbounds { ptr, i64 }, ptr %agg.tmp51, i32 0, i32 0
  %86 = load ptr, ptr %85, align 8
  %87 = getelementptr inbounds { ptr, i64 }, ptr %agg.tmp51, i32 0, i32 1
  %88 = load i64, ptr %87, align 8
  %call52 = call noundef i32 @"_ZZL11initClassesvENK3$_1clEN4llvh9StringRefE"(ptr noundef nonnull align 1 dereferenceable(1) %type, ptr %86, i64 %88)
  store i32 %call52, ptr %ref.tmp50, align 4
  store i8 1, ptr %ref.tmp53, align 1
  %call54 = call noundef nonnull align 8 dereferenceable(41) ptr @_ZNSt6vectorI5FieldSaIS0_EE12emplace_backIJ9FieldTypeRA3_KcbEEERS0_DpOT_(ptr noundef nonnull align 8 dereferenceable(24) %fields49, ptr noundef nonnull align 4 dereferenceable(4) %ref.tmp50, ptr noundef nonnull align 1 dereferenceable(3) @.str.21, ptr noundef nonnull align 1 dereferenceable(1) %ref.tmp53)
  %call55 = call noundef nonnull align 8 dereferenceable(96) ptr @_ZNSt6vectorI9TreeClassSaIS0_EE4backEv(ptr noundef nonnull align 8 dereferenceable(24) @_ZL12treeClasses_) #3
  %fields56 = getelementptr inbounds %struct.TreeClass, ptr %call55, i32 0, i32 3
  store ptr %agg.tmp58, ptr %this.addr.i5728, align 8
  store ptr @.str.17, ptr %Str.addr.i5729, align 8
  %this1.i5730 = load ptr, ptr %this.addr.i5728, align 8
  %89 = load ptr, ptr %Str.addr.i5729, align 8
  store ptr %89, ptr %this1.i5730, align 8
  %Length.i5731 = getelementptr inbounds %"class.llvh::StringRef", ptr %this1.i5730, i32 0, i32 1
  %90 = load ptr, ptr %Str.addr.i5729, align 8
  %tobool.i5732 = icmp ne ptr %90, null
  br i1 %tobool.i5732, label %cond.true.i5735, label %cond.false.i5733

cond.true.i5735:                                  ; preds = %_ZN4llvh9StringRefC2EPKc.exit5727
  %91 = load ptr, ptr %Str.addr.i5729, align 8
  %call.i5736 = call i64 @strlen(ptr noundef %91) #12
  br label %_ZN4llvh9StringRefC2EPKc.exit5737

cond.false.i5733:                                 ; preds = %_ZN4llvh9StringRefC2EPKc.exit5727
  br label %_ZN4llvh9StringRefC2EPKc.exit5737

_ZN4llvh9StringRefC2EPKc.exit5737:                ; preds = %cond.false.i5733, %cond.true.i5735
  %cond.i5734 = phi i64 [ %call.i5736, %cond.true.i5735 ], [ 0, %cond.false.i5733 ]
  store i64 %cond.i5734, ptr %Length.i5731, align 8
  %92 = getelementptr inbounds { ptr, i64 }, ptr %agg.tmp58, i32 0, i32 0
  %93 = load ptr, ptr %92, align 8
  %94 = getelementptr inbounds { ptr, i64 }, ptr %agg.tmp58, i32 0, i32 1
  %95 = load i64, ptr %94, align 8
  %call59 = call noundef i32 @"_ZZL11initClassesvENK3$_1clEN4llvh9StringRefE"(ptr noundef nonnull align 1 dereferenceable(1) %type, ptr %93, i64 %95)
  store i32 %call59, ptr %ref.tmp57, align 4
  store i8 0, ptr %ref.tmp60, align 1
  %call61 = call noundef nonnull align 8 dereferenceable(41) ptr @_ZNSt6vectorI5FieldSaIS0_EE12emplace_backIJ9FieldTypeRA7_KcbEEERS0_DpOT_(ptr noundef nonnull align 8 dereferenceable(24) %fields56, ptr noundef nonnull align 4 dereferenceable(4) %ref.tmp57, ptr noundef nonnull align 1 dereferenceable(7) @.str.22, ptr noundef nonnull align 1 dereferenceable(1) %ref.tmp60)
  %call62 = call noundef nonnull align 8 dereferenceable(96) ptr @_ZNSt6vectorI9TreeClassSaIS0_EE4backEv(ptr noundef nonnull align 8 dereferenceable(24) @_ZL12treeClasses_) #3
  %fields63 = getelementptr inbounds %struct.TreeClass, ptr %call62, i32 0, i32 3
  store ptr %agg.tmp65, ptr %this.addr.i5738, align 8
  store ptr @.str.20, ptr %Str.addr.i5739, align 8
  %this1.i5740 = load ptr, ptr %this.addr.i5738, align 8
  %96 = load ptr, ptr %Str.addr.i5739, align 8
  store ptr %96, ptr %this1.i5740, align 8
  %Length.i5741 = getelementptr inbounds %"class.llvh::StringRef", ptr %this1.i5740, i32 0, i32 1
  %97 = load ptr, ptr %Str.addr.i5739, align 8
  %tobool.i5742 = icmp ne ptr %97, null
  br i1 %tobool.i5742, label %cond.true.i5745, label %cond.false.i5743

cond.true.i5745:                                  ; preds = %_ZN4llvh9StringRefC2EPKc.exit5737
  %98 = load ptr, ptr %Str.addr.i5739, align 8
  %call.i5746 = call i64 @strlen(ptr noundef %98) #12
  br label %_ZN4llvh9StringRefC2EPKc.exit5747

cond.false.i5743:                                 ; preds = %_ZN4llvh9StringRefC2EPKc.exit5737
  br label %_ZN4llvh9StringRefC2EPKc.exit5747

_ZN4llvh9StringRefC2EPKc.exit5747:                ; preds = %cond.false.i5743, %cond.true.i5745
  %cond.i5744 = phi i64 [ %call.i5746, %cond.true.i5745 ], [ 0, %cond.false.i5743 ]
  store i64 %cond.i5744, ptr %Length.i5741, align 8
  %99 = getelementptr inbounds { ptr, i64 }, ptr %agg.tmp65, i32 0, i32 0
  %100 = load ptr, ptr %99, align 8
  %101 = getelementptr inbounds { ptr, i64 }, ptr %agg.tmp65, i32 0, i32 1
  %102 = load i64, ptr %101, align 8
  %call66 = call noundef i32 @"_ZZL11initClassesvENK3$_1clEN4llvh9StringRefE"(ptr noundef nonnull align 1 dereferenceable(1) %type, ptr %100, i64 %102)
  store i32 %call66, ptr %ref.tmp64, align 4
  store i8 0, ptr %ref.tmp67, align 1
  %call68 = call noundef nonnull align 8 dereferenceable(41) ptr @_ZNSt6vectorI5FieldSaIS0_EE12emplace_backIJ9FieldTypeRA5_KcbEEERS0_DpOT_(ptr noundef nonnull align 8 dereferenceable(24) %fields63, ptr noundef nonnull align 4 dereferenceable(4) %ref.tmp64, ptr noundef nonnull align 1 dereferenceable(5) @.str.18, ptr noundef nonnull align 1 dereferenceable(1) %ref.tmp67)
  %call69 = call noundef nonnull align 8 dereferenceable(96) ptr @_ZNSt6vectorI9TreeClassSaIS0_EE4backEv(ptr noundef nonnull align 8 dereferenceable(24) @_ZL12treeClasses_) #3
  %fields70 = getelementptr inbounds %struct.TreeClass, ptr %call69, i32 0, i32 3
  store ptr %agg.tmp72, ptr %this.addr.i5748, align 8
  store ptr @.str.20, ptr %Str.addr.i5749, align 8
  %this1.i5750 = load ptr, ptr %this.addr.i5748, align 8
  %103 = load ptr, ptr %Str.addr.i5749, align 8
  store ptr %103, ptr %this1.i5750, align 8
  %Length.i5751 = getelementptr inbounds %"class.llvh::StringRef", ptr %this1.i5750, i32 0, i32 1
  %104 = load ptr, ptr %Str.addr.i5749, align 8
  %tobool.i5752 = icmp ne ptr %104, null
  br i1 %tobool.i5752, label %cond.true.i5755, label %cond.false.i5753

cond.true.i5755:                                  ; preds = %_ZN4llvh9StringRefC2EPKc.exit5747
  %105 = load ptr, ptr %Str.addr.i5749, align 8
  %call.i5756 = call i64 @strlen(ptr noundef %105) #12
  br label %_ZN4llvh9StringRefC2EPKc.exit5757

cond.false.i5753:                                 ; preds = %_ZN4llvh9StringRefC2EPKc.exit5747
  br label %_ZN4llvh9StringRefC2EPKc.exit5757

_ZN4llvh9StringRefC2EPKc.exit5757:                ; preds = %cond.false.i5753, %cond.true.i5755
  %cond.i5754 = phi i64 [ %call.i5756, %cond.true.i5755 ], [ 0, %cond.false.i5753 ]
  store i64 %cond.i5754, ptr %Length.i5751, align 8
  %106 = getelementptr inbounds { ptr, i64 }, ptr %agg.tmp72, i32 0, i32 0
  %107 = load ptr, ptr %106, align 8
  %108 = getelementptr inbounds { ptr, i64 }, ptr %agg.tmp72, i32 0, i32 1
  %109 = load i64, ptr %108, align 8
  %call73 = call noundef i32 @"_ZZL11initClassesvENK3$_1clEN4llvh9StringRefE"(ptr noundef nonnull align 1 dereferenceable(1) %type, ptr %107, i64 %109)
  store i32 %call73, ptr %ref.tmp71, align 4
  store i8 1, ptr %ref.tmp74, align 1
  %call75 = call noundef nonnull align 8 dereferenceable(41) ptr @_ZNSt6vectorI5FieldSaIS0_EE12emplace_backIJ9FieldTypeRA15_KcbEEERS0_DpOT_(ptr noundef nonnull align 8 dereferenceable(24) %fields70, ptr noundef nonnull align 4 dereferenceable(4) %ref.tmp71, ptr noundef nonnull align 1 dereferenceable(15) @.str.23, ptr noundef nonnull align 1 dereferenceable(1) %ref.tmp74)
  %call76 = call noundef nonnull align 8 dereferenceable(96) ptr @_ZNSt6vectorI9TreeClassSaIS0_EE4backEv(ptr noundef nonnull align 8 dereferenceable(24) @_ZL12treeClasses_) #3
  %fields77 = getelementptr inbounds %struct.TreeClass, ptr %call76, i32 0, i32 3
  store ptr %agg.tmp79, ptr %this.addr.i5758, align 8
  store ptr @.str.20, ptr %Str.addr.i5759, align 8
  %this1.i5760 = load ptr, ptr %this.addr.i5758, align 8
  %110 = load ptr, ptr %Str.addr.i5759, align 8
  store ptr %110, ptr %this1.i5760, align 8
  %Length.i5761 = getelementptr inbounds %"class.llvh::StringRef", ptr %this1.i5760, i32 0, i32 1
  %111 = load ptr, ptr %Str.addr.i5759, align 8
  %tobool.i5762 = icmp ne ptr %111, null
  br i1 %tobool.i5762, label %cond.true.i5765, label %cond.false.i5763

cond.true.i5765:                                  ; preds = %_ZN4llvh9StringRefC2EPKc.exit5757
  %112 = load ptr, ptr %Str.addr.i5759, align 8
  %call.i5766 = call i64 @strlen(ptr noundef %112) #12
  br label %_ZN4llvh9StringRefC2EPKc.exit5767

cond.false.i5763:                                 ; preds = %_ZN4llvh9StringRefC2EPKc.exit5757
  br label %_ZN4llvh9StringRefC2EPKc.exit5767

_ZN4llvh9StringRefC2EPKc.exit5767:                ; preds = %cond.false.i5763, %cond.true.i5765
  %cond.i5764 = phi i64 [ %call.i5766, %cond.true.i5765 ], [ 0, %cond.false.i5763 ]
  store i64 %cond.i5764, ptr %Length.i5761, align 8
  %113 = getelementptr inbounds { ptr, i64 }, ptr %agg.tmp79, i32 0, i32 0
  %114 = load ptr, ptr %113, align 8
  %115 = getelementptr inbounds { ptr, i64 }, ptr %agg.tmp79, i32 0, i32 1
  %116 = load i64, ptr %115, align 8
  %call80 = call noundef i32 @"_ZZL11initClassesvENK3$_1clEN4llvh9StringRefE"(ptr noundef nonnull align 1 dereferenceable(1) %type, ptr %114, i64 %116)
  store i32 %call80, ptr %ref.tmp78, align 4
  store i8 1, ptr %ref.tmp81, align 1
  %call82 = call noundef nonnull align 8 dereferenceable(41) ptr @_ZNSt6vectorI5FieldSaIS0_EE12emplace_backIJ9FieldTypeRA11_KcbEEERS0_DpOT_(ptr noundef nonnull align 8 dereferenceable(24) %fields77, ptr noundef nonnull align 4 dereferenceable(4) %ref.tmp78, ptr noundef nonnull align 1 dereferenceable(11) @.str.24, ptr noundef nonnull align 1 dereferenceable(1) %ref.tmp81)
  %call83 = call noundef nonnull align 8 dereferenceable(96) ptr @_ZNSt6vectorI9TreeClassSaIS0_EE4backEv(ptr noundef nonnull align 8 dereferenceable(24) @_ZL12treeClasses_) #3
  %fields84 = getelementptr inbounds %struct.TreeClass, ptr %call83, i32 0, i32 3
  store ptr %agg.tmp86, ptr %this.addr.i5768, align 8
  store ptr @.str.20, ptr %Str.addr.i5769, align 8
  %this1.i5770 = load ptr, ptr %this.addr.i5768, align 8
  %117 = load ptr, ptr %Str.addr.i5769, align 8
  store ptr %117, ptr %this1.i5770, align 8
  %Length.i5771 = getelementptr inbounds %"class.llvh::StringRef", ptr %this1.i5770, i32 0, i32 1
  %118 = load ptr, ptr %Str.addr.i5769, align 8
  %tobool.i5772 = icmp ne ptr %118, null
  br i1 %tobool.i5772, label %cond.true.i5775, label %cond.false.i5773

cond.true.i5775:                                  ; preds = %_ZN4llvh9StringRefC2EPKc.exit5767
  %119 = load ptr, ptr %Str.addr.i5769, align 8
  %call.i5776 = call i64 @strlen(ptr noundef %119) #12
  br label %_ZN4llvh9StringRefC2EPKc.exit5777

cond.false.i5773:                                 ; preds = %_ZN4llvh9StringRefC2EPKc.exit5767
  br label %_ZN4llvh9StringRefC2EPKc.exit5777

_ZN4llvh9StringRefC2EPKc.exit5777:                ; preds = %cond.false.i5773, %cond.true.i5775
  %cond.i5774 = phi i64 [ %call.i5776, %cond.true.i5775 ], [ 0, %cond.false.i5773 ]
  store i64 %cond.i5774, ptr %Length.i5771, align 8
  %120 = getelementptr inbounds { ptr, i64 }, ptr %agg.tmp86, i32 0, i32 0
  %121 = load ptr, ptr %120, align 8
  %122 = getelementptr inbounds { ptr, i64 }, ptr %agg.tmp86, i32 0, i32 1
  %123 = load i64, ptr %122, align 8
  %call87 = call noundef i32 @"_ZZL11initClassesvENK3$_1clEN4llvh9StringRefE"(ptr noundef nonnull align 1 dereferenceable(1) %type, ptr %121, i64 %123)
  store i32 %call87, ptr %ref.tmp85, align 4
  store i8 1, ptr %ref.tmp88, align 1
  %call89 = call noundef nonnull align 8 dereferenceable(41) ptr @_ZNSt6vectorI5FieldSaIS0_EE12emplace_backIJ9FieldTypeRA10_KcbEEERS0_DpOT_(ptr noundef nonnull align 8 dereferenceable(24) %fields84, ptr noundef nonnull align 4 dereferenceable(4) %ref.tmp85, ptr noundef nonnull align 1 dereferenceable(10) @.str.25, ptr noundef nonnull align 1 dereferenceable(1) %ref.tmp88)
  %call90 = call noundef nonnull align 8 dereferenceable(96) ptr @_ZNSt6vectorI9TreeClassSaIS0_EE4backEv(ptr noundef nonnull align 8 dereferenceable(24) @_ZL12treeClasses_) #3
  %fields91 = getelementptr inbounds %struct.TreeClass, ptr %call90, i32 0, i32 3
  store ptr %agg.tmp93, ptr %this.addr.i5778, align 8
  store ptr @.str.26, ptr %Str.addr.i5779, align 8
  %this1.i5780 = load ptr, ptr %this.addr.i5778, align 8
  %124 = load ptr, ptr %Str.addr.i5779, align 8
  store ptr %124, ptr %this1.i5780, align 8
  %Length.i5781 = getelementptr inbounds %"class.llvh::StringRef", ptr %this1.i5780, i32 0, i32 1
  %125 = load ptr, ptr %Str.addr.i5779, align 8
  %tobool.i5782 = icmp ne ptr %125, null
  br i1 %tobool.i5782, label %cond.true.i5785, label %cond.false.i5783

cond.true.i5785:                                  ; preds = %_ZN4llvh9StringRefC2EPKc.exit5777
  %126 = load ptr, ptr %Str.addr.i5779, align 8
  %call.i5786 = call i64 @strlen(ptr noundef %126) #12
  br label %_ZN4llvh9StringRefC2EPKc.exit5787

cond.false.i5783:                                 ; preds = %_ZN4llvh9StringRefC2EPKc.exit5777
  br label %_ZN4llvh9StringRefC2EPKc.exit5787

_ZN4llvh9StringRefC2EPKc.exit5787:                ; preds = %cond.false.i5783, %cond.true.i5785
  %cond.i5784 = phi i64 [ %call.i5786, %cond.true.i5785 ], [ 0, %cond.false.i5783 ]
  store i64 %cond.i5784, ptr %Length.i5781, align 8
  %127 = getelementptr inbounds { ptr, i64 }, ptr %agg.tmp93, i32 0, i32 0
  %128 = load ptr, ptr %127, align 8
  %129 = getelementptr inbounds { ptr, i64 }, ptr %agg.tmp93, i32 0, i32 1
  %130 = load i64, ptr %129, align 8
  %call94 = call noundef i32 @"_ZZL11initClassesvENK3$_1clEN4llvh9StringRefE"(ptr noundef nonnull align 1 dereferenceable(1) %type, ptr %128, i64 %130)
  store i32 %call94, ptr %ref.tmp92, align 4
  store i8 0, ptr %ref.tmp95, align 1
  %call96 = call noundef nonnull align 8 dereferenceable(41) ptr @_ZNSt6vectorI5FieldSaIS0_EE12emplace_backIJ9FieldTypeRA10_KcbEEERS0_DpOT_(ptr noundef nonnull align 8 dereferenceable(24) %fields91, ptr noundef nonnull align 4 dereferenceable(4) %ref.tmp92, ptr noundef nonnull align 1 dereferenceable(10) @.str.27, ptr noundef nonnull align 1 dereferenceable(1) %ref.tmp95)
  %call97 = call noundef nonnull align 8 dereferenceable(96) ptr @_ZNSt6vectorI9TreeClassSaIS0_EE4backEv(ptr noundef nonnull align 8 dereferenceable(24) @_ZL12treeClasses_) #3
  %fields98 = getelementptr inbounds %struct.TreeClass, ptr %call97, i32 0, i32 3
  store ptr %agg.tmp100, ptr %this.addr.i5788, align 8
  store ptr @.str.26, ptr %Str.addr.i5789, align 8
  %this1.i5790 = load ptr, ptr %this.addr.i5788, align 8
  %131 = load ptr, ptr %Str.addr.i5789, align 8
  store ptr %131, ptr %this1.i5790, align 8
  %Length.i5791 = getelementptr inbounds %"class.llvh::StringRef", ptr %this1.i5790, i32 0, i32 1
  %132 = load ptr, ptr %Str.addr.i5789, align 8
  %tobool.i5792 = icmp ne ptr %132, null
  br i1 %tobool.i5792, label %cond.true.i5795, label %cond.false.i5793

cond.true.i5795:                                  ; preds = %_ZN4llvh9StringRefC2EPKc.exit5787
  %133 = load ptr, ptr %Str.addr.i5789, align 8
  %call.i5796 = call i64 @strlen(ptr noundef %133) #12
  br label %_ZN4llvh9StringRefC2EPKc.exit5797

cond.false.i5793:                                 ; preds = %_ZN4llvh9StringRefC2EPKc.exit5787
  br label %_ZN4llvh9StringRefC2EPKc.exit5797

_ZN4llvh9StringRefC2EPKc.exit5797:                ; preds = %cond.false.i5793, %cond.true.i5795
  %cond.i5794 = phi i64 [ %call.i5796, %cond.true.i5795 ], [ 0, %cond.false.i5793 ]
  store i64 %cond.i5794, ptr %Length.i5791, align 8
  %134 = getelementptr inbounds { ptr, i64 }, ptr %agg.tmp100, i32 0, i32 0
  %135 = load ptr, ptr %134, align 8
  %136 = getelementptr inbounds { ptr, i64 }, ptr %agg.tmp100, i32 0, i32 1
  %137 = load i64, ptr %136, align 8
  %call101 = call noundef i32 @"_ZZL11initClassesvENK3$_1clEN4llvh9StringRefE"(ptr noundef nonnull align 1 dereferenceable(1) %type, ptr %135, i64 %137)
  store i32 %call101, ptr %ref.tmp99, align 4
  store i8 0, ptr %ref.tmp102, align 1
  %call103 = call noundef nonnull align 8 dereferenceable(41) ptr @_ZNSt6vectorI5FieldSaIS0_EE12emplace_backIJ9FieldTypeRA6_KcbEEERS0_DpOT_(ptr noundef nonnull align 8 dereferenceable(24) %fields98, ptr noundef nonnull align 4 dereferenceable(4) %ref.tmp99, ptr noundef nonnull align 1 dereferenceable(6) @.str.28, ptr noundef nonnull align 1 dereferenceable(1) %ref.tmp102)
  store ptr %agg.tmp105, ptr %this.addr.i5798, align 8
  store ptr @.str.15, ptr %Str.addr.i5799, align 8
  %this1.i5800 = load ptr, ptr %this.addr.i5798, align 8
  %138 = load ptr, ptr %Str.addr.i5799, align 8
  store ptr %138, ptr %this1.i5800, align 8
  %Length.i5801 = getelementptr inbounds %"class.llvh::StringRef", ptr %this1.i5800, i32 0, i32 1
  %139 = load ptr, ptr %Str.addr.i5799, align 8
  %tobool.i5802 = icmp ne ptr %139, null
  br i1 %tobool.i5802, label %cond.true.i5805, label %cond.false.i5803

cond.true.i5805:                                  ; preds = %_ZN4llvh9StringRefC2EPKc.exit5797
  %140 = load ptr, ptr %Str.addr.i5799, align 8
  %call.i5806 = call i64 @strlen(ptr noundef %140) #12
  br label %_ZN4llvh9StringRefC2EPKc.exit5807

cond.false.i5803:                                 ; preds = %_ZN4llvh9StringRefC2EPKc.exit5797
  br label %_ZN4llvh9StringRefC2EPKc.exit5807

_ZN4llvh9StringRefC2EPKc.exit5807:                ; preds = %cond.false.i5803, %cond.true.i5805
  %cond.i5804 = phi i64 [ %call.i5806, %cond.true.i5805 ], [ 0, %cond.false.i5803 ]
  store i64 %cond.i5804, ptr %Length.i5801, align 8
  %141 = getelementptr inbounds { ptr, i64 }, ptr %agg.tmp105, i32 0, i32 0
  %142 = load ptr, ptr %141, align 8
  %143 = getelementptr inbounds { ptr, i64 }, ptr %agg.tmp105, i32 0, i32 1
  %144 = load i64, ptr %143, align 8
  %call106 = call { ptr, i64 } @"_ZZL11initClassesvENK3$_0clEN4llvh9StringRefE"(ptr noundef nonnull align 1 dereferenceable(1) %baseName, ptr %142, i64 %144)
  %145 = getelementptr inbounds { ptr, i64 }, ptr %ref.tmp104, i32 0, i32 0
  %146 = extractvalue { ptr, i64 } %call106, 0
  store ptr %146, ptr %145, align 8
  %147 = getelementptr inbounds { ptr, i64 }, ptr %ref.tmp104, i32 0, i32 1
  %148 = extractvalue { ptr, i64 } %call106, 1
  store i64 %148, ptr %147, align 8
  %call107 = call noundef nonnull align 8 dereferenceable(96) ptr @_ZNSt6vectorI9TreeClassSaIS0_EE12emplace_backIJRA24_KcN4llvh9StringRefEEEERS0_DpOT_(ptr noundef nonnull align 8 dereferenceable(24) @_ZL12treeClasses_, ptr noundef nonnull align 1 dereferenceable(24) @.str.29, ptr noundef nonnull align 8 dereferenceable(16) %ref.tmp104)
  %call109 = call noundef i64 @_ZNKSt6vectorI9TreeClassSaIS0_EE4sizeEv(ptr noundef nonnull align 8 dereferenceable(24) @_ZL12treeClasses_) #3
  %sub110 = sub i64 %call109, 1
  store i64 %sub110, ptr %ref.tmp108, align 8
  %call111 = call { ptr, i8 } @_ZNSt3mapINSt7__cxx1112basic_stringIcSt11char_traitsIcESaIcEEEmSt4lessIS5_ESaISt4pairIKS5_mEEE7emplaceIJRA24_KcmEEES8_ISt17_Rb_tree_iteratorISA_EbEDpOT_(ptr noundef nonnull align 8 dereferenceable(48) @_ZL10treeNames_B5cxx11, ptr noundef nonnull align 1 dereferenceable(24) @.str.29, ptr noundef nonnull align 8 dereferenceable(8) %ref.tmp108)
  %149 = getelementptr inbounds { ptr, i8 }, ptr %coerce112, i32 0, i32 0
  %150 = extractvalue { ptr, i8 } %call111, 0
  store ptr %150, ptr %149, align 8
  %151 = getelementptr inbounds { ptr, i8 }, ptr %coerce112, i32 0, i32 1
  %152 = extractvalue { ptr, i8 } %call111, 1
  store i8 %152, ptr %151, align 8
  %call113 = call noundef nonnull align 8 dereferenceable(96) ptr @_ZNSt6vectorI9TreeClassSaIS0_EE4backEv(ptr noundef nonnull align 8 dereferenceable(24) @_ZL12treeClasses_) #3
  %fields114 = getelementptr inbounds %struct.TreeClass, ptr %call113, i32 0, i32 3
  store ptr %agg.tmp116, ptr %this.addr.i5808, align 8
  store ptr @.str.20, ptr %Str.addr.i5809, align 8
  %this1.i5810 = load ptr, ptr %this.addr.i5808, align 8
  %153 = load ptr, ptr %Str.addr.i5809, align 8
  store ptr %153, ptr %this1.i5810, align 8
  %Length.i5811 = getelementptr inbounds %"class.llvh::StringRef", ptr %this1.i5810, i32 0, i32 1
  %154 = load ptr, ptr %Str.addr.i5809, align 8
  %tobool.i5812 = icmp ne ptr %154, null
  br i1 %tobool.i5812, label %cond.true.i5815, label %cond.false.i5813

cond.true.i5815:                                  ; preds = %_ZN4llvh9StringRefC2EPKc.exit5807
  %155 = load ptr, ptr %Str.addr.i5809, align 8
  %call.i5816 = call i64 @strlen(ptr noundef %155) #12
  br label %_ZN4llvh9StringRefC2EPKc.exit5817

cond.false.i5813:                                 ; preds = %_ZN4llvh9StringRefC2EPKc.exit5807
  br label %_ZN4llvh9StringRefC2EPKc.exit5817

_ZN4llvh9StringRefC2EPKc.exit5817:                ; preds = %cond.false.i5813, %cond.true.i5815
  %cond.i5814 = phi i64 [ %call.i5816, %cond.true.i5815 ], [ 0, %cond.false.i5813 ]
  store i64 %cond.i5814, ptr %Length.i5811, align 8
  %156 = getelementptr inbounds { ptr, i64 }, ptr %agg.tmp116, i32 0, i32 0
  %157 = load ptr, ptr %156, align 8
  %158 = getelementptr inbounds { ptr, i64 }, ptr %agg.tmp116, i32 0, i32 1
  %159 = load i64, ptr %158, align 8
  %call117 = call noundef i32 @"_ZZL11initClassesvENK3$_1clEN4llvh9StringRefE"(ptr noundef nonnull align 1 dereferenceable(1) %type, ptr %157, i64 %159)
  store i32 %call117, ptr %ref.tmp115, align 4
  store i8 1, ptr %ref.tmp118, align 1
  %call119 = call noundef nonnull align 8 dereferenceable(41) ptr @_ZNSt6vectorI5FieldSaIS0_EE12emplace_backIJ9FieldTypeRA3_KcbEEERS0_DpOT_(ptr noundef nonnull align 8 dereferenceable(24) %fields114, ptr noundef nonnull align 4 dereferenceable(4) %ref.tmp115, ptr noundef nonnull align 1 dereferenceable(3) @.str.21, ptr noundef nonnull align 1 dereferenceable(1) %ref.tmp118)
  %call120 = call noundef nonnull align 8 dereferenceable(96) ptr @_ZNSt6vectorI9TreeClassSaIS0_EE4backEv(ptr noundef nonnull align 8 dereferenceable(24) @_ZL12treeClasses_) #3
  %fields121 = getelementptr inbounds %struct.TreeClass, ptr %call120, i32 0, i32 3
  store ptr %agg.tmp123, ptr %this.addr.i5818, align 8
  store ptr @.str.17, ptr %Str.addr.i5819, align 8
  %this1.i5820 = load ptr, ptr %this.addr.i5818, align 8
  %160 = load ptr, ptr %Str.addr.i5819, align 8
  store ptr %160, ptr %this1.i5820, align 8
  %Length.i5821 = getelementptr inbounds %"class.llvh::StringRef", ptr %this1.i5820, i32 0, i32 1
  %161 = load ptr, ptr %Str.addr.i5819, align 8
  %tobool.i5822 = icmp ne ptr %161, null
  br i1 %tobool.i5822, label %cond.true.i5825, label %cond.false.i5823

cond.true.i5825:                                  ; preds = %_ZN4llvh9StringRefC2EPKc.exit5817
  %162 = load ptr, ptr %Str.addr.i5819, align 8
  %call.i5826 = call i64 @strlen(ptr noundef %162) #12
  br label %_ZN4llvh9StringRefC2EPKc.exit5827

cond.false.i5823:                                 ; preds = %_ZN4llvh9StringRefC2EPKc.exit5817
  br label %_ZN4llvh9StringRefC2EPKc.exit5827

_ZN4llvh9StringRefC2EPKc.exit5827:                ; preds = %cond.false.i5823, %cond.true.i5825
  %cond.i5824 = phi i64 [ %call.i5826, %cond.true.i5825 ], [ 0, %cond.false.i5823 ]
  store i64 %cond.i5824, ptr %Length.i5821, align 8
  %163 = getelementptr inbounds { ptr, i64 }, ptr %agg.tmp123, i32 0, i32 0
  %164 = load ptr, ptr %163, align 8
  %165 = getelementptr inbounds { ptr, i64 }, ptr %agg.tmp123, i32 0, i32 1
  %166 = load i64, ptr %165, align 8
  %call124 = call noundef i32 @"_ZZL11initClassesvENK3$_1clEN4llvh9StringRefE"(ptr noundef nonnull align 1 dereferenceable(1) %type, ptr %164, i64 %166)
  store i32 %call124, ptr %ref.tmp122, align 4
  store i8 0, ptr %ref.tmp125, align 1
  %call126 = call noundef nonnull align 8 dereferenceable(41) ptr @_ZNSt6vectorI5FieldSaIS0_EE12emplace_backIJ9FieldTypeRA7_KcbEEERS0_DpOT_(ptr noundef nonnull align 8 dereferenceable(24) %fields121, ptr noundef nonnull align 4 dereferenceable(4) %ref.tmp122, ptr noundef nonnull align 1 dereferenceable(7) @.str.22, ptr noundef nonnull align 1 dereferenceable(1) %ref.tmp125)
  %call127 = call noundef nonnull align 8 dereferenceable(96) ptr @_ZNSt6vectorI9TreeClassSaIS0_EE4backEv(ptr noundef nonnull align 8 dereferenceable(24) @_ZL12treeClasses_) #3
  %fields128 = getelementptr inbounds %struct.TreeClass, ptr %call127, i32 0, i32 3
  store ptr %agg.tmp130, ptr %this.addr.i5828, align 8
  store ptr @.str.20, ptr %Str.addr.i5829, align 8
  %this1.i5830 = load ptr, ptr %this.addr.i5828, align 8
  %167 = load ptr, ptr %Str.addr.i5829, align 8
  store ptr %167, ptr %this1.i5830, align 8
  %Length.i5831 = getelementptr inbounds %"class.llvh::StringRef", ptr %this1.i5830, i32 0, i32 1
  %168 = load ptr, ptr %Str.addr.i5829, align 8
  %tobool.i5832 = icmp ne ptr %168, null
  br i1 %tobool.i5832, label %cond.true.i5835, label %cond.false.i5833

cond.true.i5835:                                  ; preds = %_ZN4llvh9StringRefC2EPKc.exit5827
  %169 = load ptr, ptr %Str.addr.i5829, align 8
  %call.i5836 = call i64 @strlen(ptr noundef %169) #12
  br label %_ZN4llvh9StringRefC2EPKc.exit5837

cond.false.i5833:                                 ; preds = %_ZN4llvh9StringRefC2EPKc.exit5827
  br label %_ZN4llvh9StringRefC2EPKc.exit5837

_ZN4llvh9StringRefC2EPKc.exit5837:                ; preds = %cond.false.i5833, %cond.true.i5835
  %cond.i5834 = phi i64 [ %call.i5836, %cond.true.i5835 ], [ 0, %cond.false.i5833 ]
  store i64 %cond.i5834, ptr %Length.i5831, align 8
  %170 = getelementptr inbounds { ptr, i64 }, ptr %agg.tmp130, i32 0, i32 0
  %171 = load ptr, ptr %170, align 8
  %172 = getelementptr inbounds { ptr, i64 }, ptr %agg.tmp130, i32 0, i32 1
  %173 = load i64, ptr %172, align 8
  %call131 = call noundef i32 @"_ZZL11initClassesvENK3$_1clEN4llvh9StringRefE"(ptr noundef nonnull align 1 dereferenceable(1) %type, ptr %171, i64 %173)
  store i32 %call131, ptr %ref.tmp129, align 4
  store i8 0, ptr %ref.tmp132, align 1
  %call133 = call noundef nonnull align 8 dereferenceable(41) ptr @_ZNSt6vectorI5FieldSaIS0_EE12emplace_backIJ9FieldTypeRA5_KcbEEERS0_DpOT_(ptr noundef nonnull align 8 dereferenceable(24) %fields128, ptr noundef nonnull align 4 dereferenceable(4) %ref.tmp129, ptr noundef nonnull align 1 dereferenceable(5) @.str.18, ptr noundef nonnull align 1 dereferenceable(1) %ref.tmp132)
  %call134 = call noundef nonnull align 8 dereferenceable(96) ptr @_ZNSt6vectorI9TreeClassSaIS0_EE4backEv(ptr noundef nonnull align 8 dereferenceable(24) @_ZL12treeClasses_) #3
  %fields135 = getelementptr inbounds %struct.TreeClass, ptr %call134, i32 0, i32 3
  store ptr %agg.tmp137, ptr %this.addr.i5838, align 8
  store ptr @.str.20, ptr %Str.addr.i5839, align 8
  %this1.i5840 = load ptr, ptr %this.addr.i5838, align 8
  %174 = load ptr, ptr %Str.addr.i5839, align 8
  store ptr %174, ptr %this1.i5840, align 8
  %Length.i5841 = getelementptr inbounds %"class.llvh::StringRef", ptr %this1.i5840, i32 0, i32 1
  %175 = load ptr, ptr %Str.addr.i5839, align 8
  %tobool.i5842 = icmp ne ptr %175, null
  br i1 %tobool.i5842, label %cond.true.i5845, label %cond.false.i5843

cond.true.i5845:                                  ; preds = %_ZN4llvh9StringRefC2EPKc.exit5837
  %176 = load ptr, ptr %Str.addr.i5839, align 8
  %call.i5846 = call i64 @strlen(ptr noundef %176) #12
  br label %_ZN4llvh9StringRefC2EPKc.exit5847

cond.false.i5843:                                 ; preds = %_ZN4llvh9StringRefC2EPKc.exit5837
  br label %_ZN4llvh9StringRefC2EPKc.exit5847

_ZN4llvh9StringRefC2EPKc.exit5847:                ; preds = %cond.false.i5843, %cond.true.i5845
  %cond.i5844 = phi i64 [ %call.i5846, %cond.true.i5845 ], [ 0, %cond.false.i5843 ]
  store i64 %cond.i5844, ptr %Length.i5841, align 8
  %177 = getelementptr inbounds { ptr, i64 }, ptr %agg.tmp137, i32 0, i32 0
  %178 = load ptr, ptr %177, align 8
  %179 = getelementptr inbounds { ptr, i64 }, ptr %agg.tmp137, i32 0, i32 1
  %180 = load i64, ptr %179, align 8
  %call138 = call noundef i32 @"_ZZL11initClassesvENK3$_1clEN4llvh9StringRefE"(ptr noundef nonnull align 1 dereferenceable(1) %type, ptr %178, i64 %180)
  store i32 %call138, ptr %ref.tmp136, align 4
  store i8 1, ptr %ref.tmp139, align 1
  %call140 = call noundef nonnull align 8 dereferenceable(41) ptr @_ZNSt6vectorI5FieldSaIS0_EE12emplace_backIJ9FieldTypeRA15_KcbEEERS0_DpOT_(ptr noundef nonnull align 8 dereferenceable(24) %fields135, ptr noundef nonnull align 4 dereferenceable(4) %ref.tmp136, ptr noundef nonnull align 1 dereferenceable(15) @.str.23, ptr noundef nonnull align 1 dereferenceable(1) %ref.tmp139)
  %call141 = call noundef nonnull align 8 dereferenceable(96) ptr @_ZNSt6vectorI9TreeClassSaIS0_EE4backEv(ptr noundef nonnull align 8 dereferenceable(24) @_ZL12treeClasses_) #3
  %fields142 = getelementptr inbounds %struct.TreeClass, ptr %call141, i32 0, i32 3
  store ptr %agg.tmp144, ptr %this.addr.i5848, align 8
  store ptr @.str.20, ptr %Str.addr.i5849, align 8
  %this1.i5850 = load ptr, ptr %this.addr.i5848, align 8
  %181 = load ptr, ptr %Str.addr.i5849, align 8
  store ptr %181, ptr %this1.i5850, align 8
  %Length.i5851 = getelementptr inbounds %"class.llvh::StringRef", ptr %this1.i5850, i32 0, i32 1
  %182 = load ptr, ptr %Str.addr.i5849, align 8
  %tobool.i5852 = icmp ne ptr %182, null
  br i1 %tobool.i5852, label %cond.true.i5855, label %cond.false.i5853

cond.true.i5855:                                  ; preds = %_ZN4llvh9StringRefC2EPKc.exit5847
  %183 = load ptr, ptr %Str.addr.i5849, align 8
  %call.i5856 = call i64 @strlen(ptr noundef %183) #12
  br label %_ZN4llvh9StringRefC2EPKc.exit5857

cond.false.i5853:                                 ; preds = %_ZN4llvh9StringRefC2EPKc.exit5847
  br label %_ZN4llvh9StringRefC2EPKc.exit5857

_ZN4llvh9StringRefC2EPKc.exit5857:                ; preds = %cond.false.i5853, %cond.true.i5855
  %cond.i5854 = phi i64 [ %call.i5856, %cond.true.i5855 ], [ 0, %cond.false.i5853 ]
  store i64 %cond.i5854, ptr %Length.i5851, align 8
  %184 = getelementptr inbounds { ptr, i64 }, ptr %agg.tmp144, i32 0, i32 0
  %185 = load ptr, ptr %184, align 8
  %186 = getelementptr inbounds { ptr, i64 }, ptr %agg.tmp144, i32 0, i32 1
  %187 = load i64, ptr %186, align 8
  %call145 = call noundef i32 @"_ZZL11initClassesvENK3$_1clEN4llvh9StringRefE"(ptr noundef nonnull align 1 dereferenceable(1) %type, ptr %185, i64 %187)
  store i32 %call145, ptr %ref.tmp143, align 4
  store i8 1, ptr %ref.tmp146, align 1
  %call147 = call noundef nonnull align 8 dereferenceable(41) ptr @_ZNSt6vectorI5FieldSaIS0_EE12emplace_backIJ9FieldTypeRA11_KcbEEERS0_DpOT_(ptr noundef nonnull align 8 dereferenceable(24) %fields142, ptr noundef nonnull align 4 dereferenceable(4) %ref.tmp143, ptr noundef nonnull align 1 dereferenceable(11) @.str.24, ptr noundef nonnull align 1 dereferenceable(1) %ref.tmp146)
  %call148 = call noundef nonnull align 8 dereferenceable(96) ptr @_ZNSt6vectorI9TreeClassSaIS0_EE4backEv(ptr noundef nonnull align 8 dereferenceable(24) @_ZL12treeClasses_) #3
  %fields149 = getelementptr inbounds %struct.TreeClass, ptr %call148, i32 0, i32 3
  store ptr %agg.tmp151, ptr %this.addr.i5858, align 8
  store ptr @.str.20, ptr %Str.addr.i5859, align 8
  %this1.i5860 = load ptr, ptr %this.addr.i5858, align 8
  %188 = load ptr, ptr %Str.addr.i5859, align 8
  store ptr %188, ptr %this1.i5860, align 8
  %Length.i5861 = getelementptr inbounds %"class.llvh::StringRef", ptr %this1.i5860, i32 0, i32 1
  %189 = load ptr, ptr %Str.addr.i5859, align 8
  %tobool.i5862 = icmp ne ptr %189, null
  br i1 %tobool.i5862, label %cond.true.i5865, label %cond.false.i5863

cond.true.i5865:                                  ; preds = %_ZN4llvh9StringRefC2EPKc.exit5857
  %190 = load ptr, ptr %Str.addr.i5859, align 8
  %call.i5866 = call i64 @strlen(ptr noundef %190) #12
  br label %_ZN4llvh9StringRefC2EPKc.exit5867

cond.false.i5863:                                 ; preds = %_ZN4llvh9StringRefC2EPKc.exit5857
  br label %_ZN4llvh9StringRefC2EPKc.exit5867

_ZN4llvh9StringRefC2EPKc.exit5867:                ; preds = %cond.false.i5863, %cond.true.i5865
  %cond.i5864 = phi i64 [ %call.i5866, %cond.true.i5865 ], [ 0, %cond.false.i5863 ]
  store i64 %cond.i5864, ptr %Length.i5861, align 8
  %191 = getelementptr inbounds { ptr, i64 }, ptr %agg.tmp151, i32 0, i32 0
  %192 = load ptr, ptr %191, align 8
  %193 = getelementptr inbounds { ptr, i64 }, ptr %agg.tmp151, i32 0, i32 1
  %194 = load i64, ptr %193, align 8
  %call152 = call noundef i32 @"_ZZL11initClassesvENK3$_1clEN4llvh9StringRefE"(ptr noundef nonnull align 1 dereferenceable(1) %type, ptr %192, i64 %194)
  store i32 %call152, ptr %ref.tmp150, align 4
  store i8 1, ptr %ref.tmp153, align 1
  %call154 = call noundef nonnull align 8 dereferenceable(41) ptr @_ZNSt6vectorI5FieldSaIS0_EE12emplace_backIJ9FieldTypeRA10_KcbEEERS0_DpOT_(ptr noundef nonnull align 8 dereferenceable(24) %fields149, ptr noundef nonnull align 4 dereferenceable(4) %ref.tmp150, ptr noundef nonnull align 1 dereferenceable(10) @.str.25, ptr noundef nonnull align 1 dereferenceable(1) %ref.tmp153)
  %call155 = call noundef nonnull align 8 dereferenceable(96) ptr @_ZNSt6vectorI9TreeClassSaIS0_EE4backEv(ptr noundef nonnull align 8 dereferenceable(24) @_ZL12treeClasses_) #3
  %fields156 = getelementptr inbounds %struct.TreeClass, ptr %call155, i32 0, i32 3
  store ptr %agg.tmp158, ptr %this.addr.i5868, align 8
  store ptr @.str.26, ptr %Str.addr.i5869, align 8
  %this1.i5870 = load ptr, ptr %this.addr.i5868, align 8
  %195 = load ptr, ptr %Str.addr.i5869, align 8
  store ptr %195, ptr %this1.i5870, align 8
  %Length.i5871 = getelementptr inbounds %"class.llvh::StringRef", ptr %this1.i5870, i32 0, i32 1
  %196 = load ptr, ptr %Str.addr.i5869, align 8
  %tobool.i5872 = icmp ne ptr %196, null
  br i1 %tobool.i5872, label %cond.true.i5875, label %cond.false.i5873

cond.true.i5875:                                  ; preds = %_ZN4llvh9StringRefC2EPKc.exit5867
  %197 = load ptr, ptr %Str.addr.i5869, align 8
  %call.i5876 = call i64 @strlen(ptr noundef %197) #12
  br label %_ZN4llvh9StringRefC2EPKc.exit5877

cond.false.i5873:                                 ; preds = %_ZN4llvh9StringRefC2EPKc.exit5867
  br label %_ZN4llvh9StringRefC2EPKc.exit5877

_ZN4llvh9StringRefC2EPKc.exit5877:                ; preds = %cond.false.i5873, %cond.true.i5875
  %cond.i5874 = phi i64 [ %call.i5876, %cond.true.i5875 ], [ 0, %cond.false.i5873 ]
  store i64 %cond.i5874, ptr %Length.i5871, align 8
  %198 = getelementptr inbounds { ptr, i64 }, ptr %agg.tmp158, i32 0, i32 0
  %199 = load ptr, ptr %198, align 8
  %200 = getelementptr inbounds { ptr, i64 }, ptr %agg.tmp158, i32 0, i32 1
  %201 = load i64, ptr %200, align 8
  %call159 = call noundef i32 @"_ZZL11initClassesvENK3$_1clEN4llvh9StringRefE"(ptr noundef nonnull align 1 dereferenceable(1) %type, ptr %199, i64 %201)
  store i32 %call159, ptr %ref.tmp157, align 4
  store i8 0, ptr %ref.tmp160, align 1
  %call161 = call noundef nonnull align 8 dereferenceable(41) ptr @_ZNSt6vectorI5FieldSaIS0_EE12emplace_backIJ9FieldTypeRA11_KcbEEERS0_DpOT_(ptr noundef nonnull align 8 dereferenceable(24) %fields156, ptr noundef nonnull align 4 dereferenceable(4) %ref.tmp157, ptr noundef nonnull align 1 dereferenceable(11) @.str.30, ptr noundef nonnull align 1 dereferenceable(1) %ref.tmp160)
  %call162 = call noundef nonnull align 8 dereferenceable(96) ptr @_ZNSt6vectorI9TreeClassSaIS0_EE4backEv(ptr noundef nonnull align 8 dereferenceable(24) @_ZL12treeClasses_) #3
  %fields163 = getelementptr inbounds %struct.TreeClass, ptr %call162, i32 0, i32 3
  store ptr %agg.tmp165, ptr %this.addr.i5878, align 8
  store ptr @.str.26, ptr %Str.addr.i5879, align 8
  %this1.i5880 = load ptr, ptr %this.addr.i5878, align 8
  %202 = load ptr, ptr %Str.addr.i5879, align 8
  store ptr %202, ptr %this1.i5880, align 8
  %Length.i5881 = getelementptr inbounds %"class.llvh::StringRef", ptr %this1.i5880, i32 0, i32 1
  %203 = load ptr, ptr %Str.addr.i5879, align 8
  %tobool.i5882 = icmp ne ptr %203, null
  br i1 %tobool.i5882, label %cond.true.i5885, label %cond.false.i5883

cond.true.i5885:                                  ; preds = %_ZN4llvh9StringRefC2EPKc.exit5877
  %204 = load ptr, ptr %Str.addr.i5879, align 8
  %call.i5886 = call i64 @strlen(ptr noundef %204) #12
  br label %_ZN4llvh9StringRefC2EPKc.exit5887

cond.false.i5883:                                 ; preds = %_ZN4llvh9StringRefC2EPKc.exit5877
  br label %_ZN4llvh9StringRefC2EPKc.exit5887

_ZN4llvh9StringRefC2EPKc.exit5887:                ; preds = %cond.false.i5883, %cond.true.i5885
  %cond.i5884 = phi i64 [ %call.i5886, %cond.true.i5885 ], [ 0, %cond.false.i5883 ]
  store i64 %cond.i5884, ptr %Length.i5881, align 8
  %205 = getelementptr inbounds { ptr, i64 }, ptr %agg.tmp165, i32 0, i32 0
  %206 = load ptr, ptr %205, align 8
  %207 = getelementptr inbounds { ptr, i64 }, ptr %agg.tmp165, i32 0, i32 1
  %208 = load i64, ptr %207, align 8
  %call166 = call noundef i32 @"_ZZL11initClassesvENK3$_1clEN4llvh9StringRefE"(ptr noundef nonnull align 1 dereferenceable(1) %type, ptr %206, i64 %208)
  store i32 %call166, ptr %ref.tmp164, align 4
  store i8 0, ptr %ref.tmp167, align 1
  %call168 = call noundef nonnull align 8 dereferenceable(41) ptr @_ZNSt6vectorI5FieldSaIS0_EE12emplace_backIJ9FieldTypeRA6_KcbEEERS0_DpOT_(ptr noundef nonnull align 8 dereferenceable(24) %fields163, ptr noundef nonnull align 4 dereferenceable(4) %ref.tmp164, ptr noundef nonnull align 1 dereferenceable(6) @.str.28, ptr noundef nonnull align 1 dereferenceable(1) %ref.tmp167)
  store ptr %agg.tmp170, ptr %this.addr.i5888, align 8
  store ptr @.str.15, ptr %Str.addr.i5889, align 8
  %this1.i5890 = load ptr, ptr %this.addr.i5888, align 8
  %209 = load ptr, ptr %Str.addr.i5889, align 8
  store ptr %209, ptr %this1.i5890, align 8
  %Length.i5891 = getelementptr inbounds %"class.llvh::StringRef", ptr %this1.i5890, i32 0, i32 1
  %210 = load ptr, ptr %Str.addr.i5889, align 8
  %tobool.i5892 = icmp ne ptr %210, null
  br i1 %tobool.i5892, label %cond.true.i5895, label %cond.false.i5893

cond.true.i5895:                                  ; preds = %_ZN4llvh9StringRefC2EPKc.exit5887
  %211 = load ptr, ptr %Str.addr.i5889, align 8
  %call.i5896 = call i64 @strlen(ptr noundef %211) #12
  br label %_ZN4llvh9StringRefC2EPKc.exit5897

cond.false.i5893:                                 ; preds = %_ZN4llvh9StringRefC2EPKc.exit5887
  br label %_ZN4llvh9StringRefC2EPKc.exit5897

_ZN4llvh9StringRefC2EPKc.exit5897:                ; preds = %cond.false.i5893, %cond.true.i5895
  %cond.i5894 = phi i64 [ %call.i5896, %cond.true.i5895 ], [ 0, %cond.false.i5893 ]
  store i64 %cond.i5894, ptr %Length.i5891, align 8
  %212 = getelementptr inbounds { ptr, i64 }, ptr %agg.tmp170, i32 0, i32 0
  %213 = load ptr, ptr %212, align 8
  %214 = getelementptr inbounds { ptr, i64 }, ptr %agg.tmp170, i32 0, i32 1
  %215 = load i64, ptr %214, align 8
  %call171 = call { ptr, i64 } @"_ZZL11initClassesvENK3$_0clEN4llvh9StringRefE"(ptr noundef nonnull align 1 dereferenceable(1) %baseName, ptr %213, i64 %215)
  %216 = getelementptr inbounds { ptr, i64 }, ptr %ref.tmp169, i32 0, i32 0
  %217 = extractvalue { ptr, i64 } %call171, 0
  store ptr %217, ptr %216, align 8
  %218 = getelementptr inbounds { ptr, i64 }, ptr %ref.tmp169, i32 0, i32 1
  %219 = extractvalue { ptr, i64 } %call171, 1
  store i64 %219, ptr %218, align 8
  %call172 = call noundef nonnull align 8 dereferenceable(96) ptr @_ZNSt6vectorI9TreeClassSaIS0_EE12emplace_backIJRA20_KcN4llvh9StringRefEEEERS0_DpOT_(ptr noundef nonnull align 8 dereferenceable(24) @_ZL12treeClasses_, ptr noundef nonnull align 1 dereferenceable(20) @.str.31, ptr noundef nonnull align 8 dereferenceable(16) %ref.tmp169)
  %call174 = call noundef i64 @_ZNKSt6vectorI9TreeClassSaIS0_EE4sizeEv(ptr noundef nonnull align 8 dereferenceable(24) @_ZL12treeClasses_) #3
  %sub175 = sub i64 %call174, 1
  store i64 %sub175, ptr %ref.tmp173, align 8
  %call176 = call { ptr, i8 } @_ZNSt3mapINSt7__cxx1112basic_stringIcSt11char_traitsIcESaIcEEEmSt4lessIS5_ESaISt4pairIKS5_mEEE7emplaceIJRA20_KcmEEES8_ISt17_Rb_tree_iteratorISA_EbEDpOT_(ptr noundef nonnull align 8 dereferenceable(48) @_ZL10treeNames_B5cxx11, ptr noundef nonnull align 1 dereferenceable(20) @.str.31, ptr noundef nonnull align 8 dereferenceable(8) %ref.tmp173)
  %220 = getelementptr inbounds { ptr, i8 }, ptr %coerce177, i32 0, i32 0
  %221 = extractvalue { ptr, i8 } %call176, 0
  store ptr %221, ptr %220, align 8
  %222 = getelementptr inbounds { ptr, i8 }, ptr %coerce177, i32 0, i32 1
  %223 = extractvalue { ptr, i8 } %call176, 1
  store i8 %223, ptr %222, align 8
  %call178 = call noundef nonnull align 8 dereferenceable(96) ptr @_ZNSt6vectorI9TreeClassSaIS0_EE4backEv(ptr noundef nonnull align 8 dereferenceable(24) @_ZL12treeClasses_) #3
  %fields179 = getelementptr inbounds %struct.TreeClass, ptr %call178, i32 0, i32 3
  store ptr %agg.tmp181, ptr %this.addr.i5898, align 8
  store ptr @.str.20, ptr %Str.addr.i5899, align 8
  %this1.i5900 = load ptr, ptr %this.addr.i5898, align 8
  %224 = load ptr, ptr %Str.addr.i5899, align 8
  store ptr %224, ptr %this1.i5900, align 8
  %Length.i5901 = getelementptr inbounds %"class.llvh::StringRef", ptr %this1.i5900, i32 0, i32 1
  %225 = load ptr, ptr %Str.addr.i5899, align 8
  %tobool.i5902 = icmp ne ptr %225, null
  br i1 %tobool.i5902, label %cond.true.i5905, label %cond.false.i5903

cond.true.i5905:                                  ; preds = %_ZN4llvh9StringRefC2EPKc.exit5897
  %226 = load ptr, ptr %Str.addr.i5899, align 8
  %call.i5906 = call i64 @strlen(ptr noundef %226) #12
  br label %_ZN4llvh9StringRefC2EPKc.exit5907

cond.false.i5903:                                 ; preds = %_ZN4llvh9StringRefC2EPKc.exit5897
  br label %_ZN4llvh9StringRefC2EPKc.exit5907

_ZN4llvh9StringRefC2EPKc.exit5907:                ; preds = %cond.false.i5903, %cond.true.i5905
  %cond.i5904 = phi i64 [ %call.i5906, %cond.true.i5905 ], [ 0, %cond.false.i5903 ]
  store i64 %cond.i5904, ptr %Length.i5901, align 8
  %227 = getelementptr inbounds { ptr, i64 }, ptr %agg.tmp181, i32 0, i32 0
  %228 = load ptr, ptr %227, align 8
  %229 = getelementptr inbounds { ptr, i64 }, ptr %agg.tmp181, i32 0, i32 1
  %230 = load i64, ptr %229, align 8
  %call182 = call noundef i32 @"_ZZL11initClassesvENK3$_1clEN4llvh9StringRefE"(ptr noundef nonnull align 1 dereferenceable(1) %type, ptr %228, i64 %230)
  store i32 %call182, ptr %ref.tmp180, align 4
  store i8 1, ptr %ref.tmp183, align 1
  %call184 = call noundef nonnull align 8 dereferenceable(41) ptr @_ZNSt6vectorI5FieldSaIS0_EE12emplace_backIJ9FieldTypeRA3_KcbEEERS0_DpOT_(ptr noundef nonnull align 8 dereferenceable(24) %fields179, ptr noundef nonnull align 4 dereferenceable(4) %ref.tmp180, ptr noundef nonnull align 1 dereferenceable(3) @.str.21, ptr noundef nonnull align 1 dereferenceable(1) %ref.tmp183)
  %call185 = call noundef nonnull align 8 dereferenceable(96) ptr @_ZNSt6vectorI9TreeClassSaIS0_EE4backEv(ptr noundef nonnull align 8 dereferenceable(24) @_ZL12treeClasses_) #3
  %fields186 = getelementptr inbounds %struct.TreeClass, ptr %call185, i32 0, i32 3
  store ptr %agg.tmp188, ptr %this.addr.i5908, align 8
  store ptr @.str.17, ptr %Str.addr.i5909, align 8
  %this1.i5910 = load ptr, ptr %this.addr.i5908, align 8
  %231 = load ptr, ptr %Str.addr.i5909, align 8
  store ptr %231, ptr %this1.i5910, align 8
  %Length.i5911 = getelementptr inbounds %"class.llvh::StringRef", ptr %this1.i5910, i32 0, i32 1
  %232 = load ptr, ptr %Str.addr.i5909, align 8
  %tobool.i5912 = icmp ne ptr %232, null
  br i1 %tobool.i5912, label %cond.true.i5915, label %cond.false.i5913

cond.true.i5915:                                  ; preds = %_ZN4llvh9StringRefC2EPKc.exit5907
  %233 = load ptr, ptr %Str.addr.i5909, align 8
  %call.i5916 = call i64 @strlen(ptr noundef %233) #12
  br label %_ZN4llvh9StringRefC2EPKc.exit5917

cond.false.i5913:                                 ; preds = %_ZN4llvh9StringRefC2EPKc.exit5907
  br label %_ZN4llvh9StringRefC2EPKc.exit5917

_ZN4llvh9StringRefC2EPKc.exit5917:                ; preds = %cond.false.i5913, %cond.true.i5915
  %cond.i5914 = phi i64 [ %call.i5916, %cond.true.i5915 ], [ 0, %cond.false.i5913 ]
  store i64 %cond.i5914, ptr %Length.i5911, align 8
  %234 = getelementptr inbounds { ptr, i64 }, ptr %agg.tmp188, i32 0, i32 0
  %235 = load ptr, ptr %234, align 8
  %236 = getelementptr inbounds { ptr, i64 }, ptr %agg.tmp188, i32 0, i32 1
  %237 = load i64, ptr %236, align 8
  %call189 = call noundef i32 @"_ZZL11initClassesvENK3$_1clEN4llvh9StringRefE"(ptr noundef nonnull align 1 dereferenceable(1) %type, ptr %235, i64 %237)
  store i32 %call189, ptr %ref.tmp187, align 4
  store i8 0, ptr %ref.tmp190, align 1
  %call191 = call noundef nonnull align 8 dereferenceable(41) ptr @_ZNSt6vectorI5FieldSaIS0_EE12emplace_backIJ9FieldTypeRA7_KcbEEERS0_DpOT_(ptr noundef nonnull align 8 dereferenceable(24) %fields186, ptr noundef nonnull align 4 dereferenceable(4) %ref.tmp187, ptr noundef nonnull align 1 dereferenceable(7) @.str.22, ptr noundef nonnull align 1 dereferenceable(1) %ref.tmp190)
  %call192 = call noundef nonnull align 8 dereferenceable(96) ptr @_ZNSt6vectorI9TreeClassSaIS0_EE4backEv(ptr noundef nonnull align 8 dereferenceable(24) @_ZL12treeClasses_) #3
  %fields193 = getelementptr inbounds %struct.TreeClass, ptr %call192, i32 0, i32 3
  store ptr %agg.tmp195, ptr %this.addr.i5918, align 8
  store ptr @.str.20, ptr %Str.addr.i5919, align 8
  %this1.i5920 = load ptr, ptr %this.addr.i5918, align 8
  %238 = load ptr, ptr %Str.addr.i5919, align 8
  store ptr %238, ptr %this1.i5920, align 8
  %Length.i5921 = getelementptr inbounds %"class.llvh::StringRef", ptr %this1.i5920, i32 0, i32 1
  %239 = load ptr, ptr %Str.addr.i5919, align 8
  %tobool.i5922 = icmp ne ptr %239, null
  br i1 %tobool.i5922, label %cond.true.i5925, label %cond.false.i5923

cond.true.i5925:                                  ; preds = %_ZN4llvh9StringRefC2EPKc.exit5917
  %240 = load ptr, ptr %Str.addr.i5919, align 8
  %call.i5926 = call i64 @strlen(ptr noundef %240) #12
  br label %_ZN4llvh9StringRefC2EPKc.exit5927

cond.false.i5923:                                 ; preds = %_ZN4llvh9StringRefC2EPKc.exit5917
  br label %_ZN4llvh9StringRefC2EPKc.exit5927

_ZN4llvh9StringRefC2EPKc.exit5927:                ; preds = %cond.false.i5923, %cond.true.i5925
  %cond.i5924 = phi i64 [ %call.i5926, %cond.true.i5925 ], [ 0, %cond.false.i5923 ]
  store i64 %cond.i5924, ptr %Length.i5921, align 8
  %241 = getelementptr inbounds { ptr, i64 }, ptr %agg.tmp195, i32 0, i32 0
  %242 = load ptr, ptr %241, align 8
  %243 = getelementptr inbounds { ptr, i64 }, ptr %agg.tmp195, i32 0, i32 1
  %244 = load i64, ptr %243, align 8
  %call196 = call noundef i32 @"_ZZL11initClassesvENK3$_1clEN4llvh9StringRefE"(ptr noundef nonnull align 1 dereferenceable(1) %type, ptr %242, i64 %244)
  store i32 %call196, ptr %ref.tmp194, align 4
  store i8 0, ptr %ref.tmp197, align 1
  %call198 = call noundef nonnull align 8 dereferenceable(41) ptr @_ZNSt6vectorI5FieldSaIS0_EE12emplace_backIJ9FieldTypeRA5_KcbEEERS0_DpOT_(ptr noundef nonnull align 8 dereferenceable(24) %fields193, ptr noundef nonnull align 4 dereferenceable(4) %ref.tmp194, ptr noundef nonnull align 1 dereferenceable(5) @.str.18, ptr noundef nonnull align 1 dereferenceable(1) %ref.tmp197)
  %call199 = call noundef nonnull align 8 dereferenceable(96) ptr @_ZNSt6vectorI9TreeClassSaIS0_EE4backEv(ptr noundef nonnull align 8 dereferenceable(24) @_ZL12treeClasses_) #3
  %fields200 = getelementptr inbounds %struct.TreeClass, ptr %call199, i32 0, i32 3
  store ptr %agg.tmp202, ptr %this.addr.i5928, align 8
  store ptr @.str.20, ptr %Str.addr.i5929, align 8
  %this1.i5930 = load ptr, ptr %this.addr.i5928, align 8
  %245 = load ptr, ptr %Str.addr.i5929, align 8
  store ptr %245, ptr %this1.i5930, align 8
  %Length.i5931 = getelementptr inbounds %"class.llvh::StringRef", ptr %this1.i5930, i32 0, i32 1
  %246 = load ptr, ptr %Str.addr.i5929, align 8
  %tobool.i5932 = icmp ne ptr %246, null
  br i1 %tobool.i5932, label %cond.true.i5935, label %cond.false.i5933

cond.true.i5935:                                  ; preds = %_ZN4llvh9StringRefC2EPKc.exit5927
  %247 = load ptr, ptr %Str.addr.i5929, align 8
  %call.i5936 = call i64 @strlen(ptr noundef %247) #12
  br label %_ZN4llvh9StringRefC2EPKc.exit5937

cond.false.i5933:                                 ; preds = %_ZN4llvh9StringRefC2EPKc.exit5927
  br label %_ZN4llvh9StringRefC2EPKc.exit5937

_ZN4llvh9StringRefC2EPKc.exit5937:                ; preds = %cond.false.i5933, %cond.true.i5935
  %cond.i5934 = phi i64 [ %call.i5936, %cond.true.i5935 ], [ 0, %cond.false.i5933 ]
  store i64 %cond.i5934, ptr %Length.i5931, align 8
  %248 = getelementptr inbounds { ptr, i64 }, ptr %agg.tmp202, i32 0, i32 0
  %249 = load ptr, ptr %248, align 8
  %250 = getelementptr inbounds { ptr, i64 }, ptr %agg.tmp202, i32 0, i32 1
  %251 = load i64, ptr %250, align 8
  %call203 = call noundef i32 @"_ZZL11initClassesvENK3$_1clEN4llvh9StringRefE"(ptr noundef nonnull align 1 dereferenceable(1) %type, ptr %249, i64 %251)
  store i32 %call203, ptr %ref.tmp201, align 4
  store i8 1, ptr %ref.tmp204, align 1
  %call205 = call noundef nonnull align 8 dereferenceable(41) ptr @_ZNSt6vectorI5FieldSaIS0_EE12emplace_backIJ9FieldTypeRA15_KcbEEERS0_DpOT_(ptr noundef nonnull align 8 dereferenceable(24) %fields200, ptr noundef nonnull align 4 dereferenceable(4) %ref.tmp201, ptr noundef nonnull align 1 dereferenceable(15) @.str.23, ptr noundef nonnull align 1 dereferenceable(1) %ref.tmp204)
  %call206 = call noundef nonnull align 8 dereferenceable(96) ptr @_ZNSt6vectorI9TreeClassSaIS0_EE4backEv(ptr noundef nonnull align 8 dereferenceable(24) @_ZL12treeClasses_) #3
  %fields207 = getelementptr inbounds %struct.TreeClass, ptr %call206, i32 0, i32 3
  store ptr %agg.tmp209, ptr %this.addr.i5938, align 8
  store ptr @.str.20, ptr %Str.addr.i5939, align 8
  %this1.i5940 = load ptr, ptr %this.addr.i5938, align 8
  %252 = load ptr, ptr %Str.addr.i5939, align 8
  store ptr %252, ptr %this1.i5940, align 8
  %Length.i5941 = getelementptr inbounds %"class.llvh::StringRef", ptr %this1.i5940, i32 0, i32 1
  %253 = load ptr, ptr %Str.addr.i5939, align 8
  %tobool.i5942 = icmp ne ptr %253, null
  br i1 %tobool.i5942, label %cond.true.i5945, label %cond.false.i5943

cond.true.i5945:                                  ; preds = %_ZN4llvh9StringRefC2EPKc.exit5937
  %254 = load ptr, ptr %Str.addr.i5939, align 8
  %call.i5946 = call i64 @strlen(ptr noundef %254) #12
  br label %_ZN4llvh9StringRefC2EPKc.exit5947

cond.false.i5943:                                 ; preds = %_ZN4llvh9StringRefC2EPKc.exit5937
  br label %_ZN4llvh9StringRefC2EPKc.exit5947

_ZN4llvh9StringRefC2EPKc.exit5947:                ; preds = %cond.false.i5943, %cond.true.i5945
  %cond.i5944 = phi i64 [ %call.i5946, %cond.true.i5945 ], [ 0, %cond.false.i5943 ]
  store i64 %cond.i5944, ptr %Length.i5941, align 8
  %255 = getelementptr inbounds { ptr, i64 }, ptr %agg.tmp209, i32 0, i32 0
  %256 = load ptr, ptr %255, align 8
  %257 = getelementptr inbounds { ptr, i64 }, ptr %agg.tmp209, i32 0, i32 1
  %258 = load i64, ptr %257, align 8
  %call210 = call noundef i32 @"_ZZL11initClassesvENK3$_1clEN4llvh9StringRefE"(ptr noundef nonnull align 1 dereferenceable(1) %type, ptr %256, i64 %258)
  store i32 %call210, ptr %ref.tmp208, align 4
  store i8 1, ptr %ref.tmp211, align 1
  %call212 = call noundef nonnull align 8 dereferenceable(41) ptr @_ZNSt6vectorI5FieldSaIS0_EE12emplace_backIJ9FieldTypeRA11_KcbEEERS0_DpOT_(ptr noundef nonnull align 8 dereferenceable(24) %fields207, ptr noundef nonnull align 4 dereferenceable(4) %ref.tmp208, ptr noundef nonnull align 1 dereferenceable(11) @.str.24, ptr noundef nonnull align 1 dereferenceable(1) %ref.tmp211)
  %call213 = call noundef nonnull align 8 dereferenceable(96) ptr @_ZNSt6vectorI9TreeClassSaIS0_EE4backEv(ptr noundef nonnull align 8 dereferenceable(24) @_ZL12treeClasses_) #3
  %fields214 = getelementptr inbounds %struct.TreeClass, ptr %call213, i32 0, i32 3
  store ptr %agg.tmp216, ptr %this.addr.i5948, align 8
  store ptr @.str.20, ptr %Str.addr.i5949, align 8
  %this1.i5950 = load ptr, ptr %this.addr.i5948, align 8
  %259 = load ptr, ptr %Str.addr.i5949, align 8
  store ptr %259, ptr %this1.i5950, align 8
  %Length.i5951 = getelementptr inbounds %"class.llvh::StringRef", ptr %this1.i5950, i32 0, i32 1
  %260 = load ptr, ptr %Str.addr.i5949, align 8
  %tobool.i5952 = icmp ne ptr %260, null
  br i1 %tobool.i5952, label %cond.true.i5955, label %cond.false.i5953

cond.true.i5955:                                  ; preds = %_ZN4llvh9StringRefC2EPKc.exit5947
  %261 = load ptr, ptr %Str.addr.i5949, align 8
  %call.i5956 = call i64 @strlen(ptr noundef %261) #12
  br label %_ZN4llvh9StringRefC2EPKc.exit5957

cond.false.i5953:                                 ; preds = %_ZN4llvh9StringRefC2EPKc.exit5947
  br label %_ZN4llvh9StringRefC2EPKc.exit5957

_ZN4llvh9StringRefC2EPKc.exit5957:                ; preds = %cond.false.i5953, %cond.true.i5955
  %cond.i5954 = phi i64 [ %call.i5956, %cond.true.i5955 ], [ 0, %cond.false.i5953 ]
  store i64 %cond.i5954, ptr %Length.i5951, align 8
  %262 = getelementptr inbounds { ptr, i64 }, ptr %agg.tmp216, i32 0, i32 0
  %263 = load ptr, ptr %262, align 8
  %264 = getelementptr inbounds { ptr, i64 }, ptr %agg.tmp216, i32 0, i32 1
  %265 = load i64, ptr %264, align 8
  %call217 = call noundef i32 @"_ZZL11initClassesvENK3$_1clEN4llvh9StringRefE"(ptr noundef nonnull align 1 dereferenceable(1) %type, ptr %263, i64 %265)
  store i32 %call217, ptr %ref.tmp215, align 4
  store i8 1, ptr %ref.tmp218, align 1
  %call219 = call noundef nonnull align 8 dereferenceable(41) ptr @_ZNSt6vectorI5FieldSaIS0_EE12emplace_backIJ9FieldTypeRA10_KcbEEERS0_DpOT_(ptr noundef nonnull align 8 dereferenceable(24) %fields214, ptr noundef nonnull align 4 dereferenceable(4) %ref.tmp215, ptr noundef nonnull align 1 dereferenceable(10) @.str.25, ptr noundef nonnull align 1 dereferenceable(1) %ref.tmp218)
  %call220 = call noundef nonnull align 8 dereferenceable(96) ptr @_ZNSt6vectorI9TreeClassSaIS0_EE4backEv(ptr noundef nonnull align 8 dereferenceable(24) @_ZL12treeClasses_) #3
  %fields221 = getelementptr inbounds %struct.TreeClass, ptr %call220, i32 0, i32 3
  store ptr %agg.tmp223, ptr %this.addr.i5958, align 8
  store ptr @.str.26, ptr %Str.addr.i5959, align 8
  %this1.i5960 = load ptr, ptr %this.addr.i5958, align 8
  %266 = load ptr, ptr %Str.addr.i5959, align 8
  store ptr %266, ptr %this1.i5960, align 8
  %Length.i5961 = getelementptr inbounds %"class.llvh::StringRef", ptr %this1.i5960, i32 0, i32 1
  %267 = load ptr, ptr %Str.addr.i5959, align 8
  %tobool.i5962 = icmp ne ptr %267, null
  br i1 %tobool.i5962, label %cond.true.i5965, label %cond.false.i5963

cond.true.i5965:                                  ; preds = %_ZN4llvh9StringRefC2EPKc.exit5957
  %268 = load ptr, ptr %Str.addr.i5959, align 8
  %call.i5966 = call i64 @strlen(ptr noundef %268) #12
  br label %_ZN4llvh9StringRefC2EPKc.exit5967

cond.false.i5963:                                 ; preds = %_ZN4llvh9StringRefC2EPKc.exit5957
  br label %_ZN4llvh9StringRefC2EPKc.exit5967

_ZN4llvh9StringRefC2EPKc.exit5967:                ; preds = %cond.false.i5963, %cond.true.i5965
  %cond.i5964 = phi i64 [ %call.i5966, %cond.true.i5965 ], [ 0, %cond.false.i5963 ]
  store i64 %cond.i5964, ptr %Length.i5961, align 8
  %269 = getelementptr inbounds { ptr, i64 }, ptr %agg.tmp223, i32 0, i32 0
  %270 = load ptr, ptr %269, align 8
  %271 = getelementptr inbounds { ptr, i64 }, ptr %agg.tmp223, i32 0, i32 1
  %272 = load i64, ptr %271, align 8
  %call224 = call noundef i32 @"_ZZL11initClassesvENK3$_1clEN4llvh9StringRefE"(ptr noundef nonnull align 1 dereferenceable(1) %type, ptr %270, i64 %272)
  store i32 %call224, ptr %ref.tmp222, align 4
  store i8 0, ptr %ref.tmp225, align 1
  %call226 = call noundef nonnull align 8 dereferenceable(41) ptr @_ZNSt6vectorI5FieldSaIS0_EE12emplace_backIJ9FieldTypeRA10_KcbEEERS0_DpOT_(ptr noundef nonnull align 8 dereferenceable(24) %fields221, ptr noundef nonnull align 4 dereferenceable(4) %ref.tmp222, ptr noundef nonnull align 1 dereferenceable(10) @.str.27, ptr noundef nonnull align 1 dereferenceable(1) %ref.tmp225)
  %call227 = call noundef nonnull align 8 dereferenceable(96) ptr @_ZNSt6vectorI9TreeClassSaIS0_EE4backEv(ptr noundef nonnull align 8 dereferenceable(24) @_ZL12treeClasses_) #3
  %fields228 = getelementptr inbounds %struct.TreeClass, ptr %call227, i32 0, i32 3
  store ptr %agg.tmp230, ptr %this.addr.i5968, align 8
  store ptr @.str.26, ptr %Str.addr.i5969, align 8
  %this1.i5970 = load ptr, ptr %this.addr.i5968, align 8
  %273 = load ptr, ptr %Str.addr.i5969, align 8
  store ptr %273, ptr %this1.i5970, align 8
  %Length.i5971 = getelementptr inbounds %"class.llvh::StringRef", ptr %this1.i5970, i32 0, i32 1
  %274 = load ptr, ptr %Str.addr.i5969, align 8
  %tobool.i5972 = icmp ne ptr %274, null
  br i1 %tobool.i5972, label %cond.true.i5975, label %cond.false.i5973

cond.true.i5975:                                  ; preds = %_ZN4llvh9StringRefC2EPKc.exit5967
  %275 = load ptr, ptr %Str.addr.i5969, align 8
  %call.i5976 = call i64 @strlen(ptr noundef %275) #12
  br label %_ZN4llvh9StringRefC2EPKc.exit5977

cond.false.i5973:                                 ; preds = %_ZN4llvh9StringRefC2EPKc.exit5967
  br label %_ZN4llvh9StringRefC2EPKc.exit5977

_ZN4llvh9StringRefC2EPKc.exit5977:                ; preds = %cond.false.i5973, %cond.true.i5975
  %cond.i5974 = phi i64 [ %call.i5976, %cond.true.i5975 ], [ 0, %cond.false.i5973 ]
  store i64 %cond.i5974, ptr %Length.i5971, align 8
  %276 = getelementptr inbounds { ptr, i64 }, ptr %agg.tmp230, i32 0, i32 0
  %277 = load ptr, ptr %276, align 8
  %278 = getelementptr inbounds { ptr, i64 }, ptr %agg.tmp230, i32 0, i32 1
  %279 = load i64, ptr %278, align 8
  %call231 = call noundef i32 @"_ZZL11initClassesvENK3$_1clEN4llvh9StringRefE"(ptr noundef nonnull align 1 dereferenceable(1) %type, ptr %277, i64 %279)
  store i32 %call231, ptr %ref.tmp229, align 4
  store i8 0, ptr %ref.tmp232, align 1
  %call233 = call noundef nonnull align 8 dereferenceable(41) ptr @_ZNSt6vectorI5FieldSaIS0_EE12emplace_backIJ9FieldTypeRA6_KcbEEERS0_DpOT_(ptr noundef nonnull align 8 dereferenceable(24) %fields228, ptr noundef nonnull align 4 dereferenceable(4) %ref.tmp229, ptr noundef nonnull align 1 dereferenceable(6) @.str.28, ptr noundef nonnull align 1 dereferenceable(1) %ref.tmp232)
  store ptr %agg.tmp235, ptr %this.addr.i5978, align 8
  store ptr @.str.15, ptr %Str.addr.i5979, align 8
  %this1.i5980 = load ptr, ptr %this.addr.i5978, align 8
  %280 = load ptr, ptr %Str.addr.i5979, align 8
  store ptr %280, ptr %this1.i5980, align 8
  %Length.i5981 = getelementptr inbounds %"class.llvh::StringRef", ptr %this1.i5980, i32 0, i32 1
  %281 = load ptr, ptr %Str.addr.i5979, align 8
  %tobool.i5982 = icmp ne ptr %281, null
  br i1 %tobool.i5982, label %cond.true.i5985, label %cond.false.i5983

cond.true.i5985:                                  ; preds = %_ZN4llvh9StringRefC2EPKc.exit5977
  %282 = load ptr, ptr %Str.addr.i5979, align 8
  %call.i5986 = call i64 @strlen(ptr noundef %282) #12
  br label %_ZN4llvh9StringRefC2EPKc.exit5987

cond.false.i5983:                                 ; preds = %_ZN4llvh9StringRefC2EPKc.exit5977
  br label %_ZN4llvh9StringRefC2EPKc.exit5987

_ZN4llvh9StringRefC2EPKc.exit5987:                ; preds = %cond.false.i5983, %cond.true.i5985
  %cond.i5984 = phi i64 [ %call.i5986, %cond.true.i5985 ], [ 0, %cond.false.i5983 ]
  store i64 %cond.i5984, ptr %Length.i5981, align 8
  %283 = getelementptr inbounds { ptr, i64 }, ptr %agg.tmp235, i32 0, i32 0
  %284 = load ptr, ptr %283, align 8
  %285 = getelementptr inbounds { ptr, i64 }, ptr %agg.tmp235, i32 0, i32 1
  %286 = load i64, ptr %285, align 8
  %call236 = call { ptr, i64 } @"_ZZL11initClassesvENK3$_0clEN4llvh9StringRefE"(ptr noundef nonnull align 1 dereferenceable(1) %baseName, ptr %284, i64 %286)
  %287 = getelementptr inbounds { ptr, i64 }, ptr %ref.tmp234, i32 0, i32 0
  %288 = extractvalue { ptr, i64 } %call236, 0
  store ptr %288, ptr %287, align 8
  %289 = getelementptr inbounds { ptr, i64 }, ptr %ref.tmp234, i32 0, i32 1
  %290 = extractvalue { ptr, i64 } %call236, 1
  store i64 %290, ptr %289, align 8
  %call237 = call noundef nonnull align 8 dereferenceable(96) ptr @_ZNSt6vectorI9TreeClassSaIS0_EE12emplace_backIJRA21_KcN4llvh9StringRefEEEERS0_DpOT_(ptr noundef nonnull align 8 dereferenceable(24) @_ZL12treeClasses_, ptr noundef nonnull align 1 dereferenceable(21) @.str.32, ptr noundef nonnull align 8 dereferenceable(16) %ref.tmp234)
  %call239 = call noundef i64 @_ZNKSt6vectorI9TreeClassSaIS0_EE4sizeEv(ptr noundef nonnull align 8 dereferenceable(24) @_ZL12treeClasses_) #3
  %sub240 = sub i64 %call239, 1
  store i64 %sub240, ptr %ref.tmp238, align 8
  %call241 = call { ptr, i8 } @_ZNSt3mapINSt7__cxx1112basic_stringIcSt11char_traitsIcESaIcEEEmSt4lessIS5_ESaISt4pairIKS5_mEEE7emplaceIJRA21_KcmEEES8_ISt17_Rb_tree_iteratorISA_EbEDpOT_(ptr noundef nonnull align 8 dereferenceable(48) @_ZL10treeNames_B5cxx11, ptr noundef nonnull align 1 dereferenceable(21) @.str.32, ptr noundef nonnull align 8 dereferenceable(8) %ref.tmp238)
  %291 = getelementptr inbounds { ptr, i8 }, ptr %coerce242, i32 0, i32 0
  %292 = extractvalue { ptr, i8 } %call241, 0
  store ptr %292, ptr %291, align 8
  %293 = getelementptr inbounds { ptr, i8 }, ptr %coerce242, i32 0, i32 1
  %294 = extractvalue { ptr, i8 } %call241, 1
  store i8 %294, ptr %293, align 8
  %call243 = call noundef nonnull align 8 dereferenceable(96) ptr @_ZNSt6vectorI9TreeClassSaIS0_EE4backEv(ptr noundef nonnull align 8 dereferenceable(24) @_ZL12treeClasses_) #3
  %fields244 = getelementptr inbounds %struct.TreeClass, ptr %call243, i32 0, i32 3
  store ptr %agg.tmp246, ptr %this.addr.i5988, align 8
  store ptr @.str.20, ptr %Str.addr.i5989, align 8
  %this1.i5990 = load ptr, ptr %this.addr.i5988, align 8
  %295 = load ptr, ptr %Str.addr.i5989, align 8
  store ptr %295, ptr %this1.i5990, align 8
  %Length.i5991 = getelementptr inbounds %"class.llvh::StringRef", ptr %this1.i5990, i32 0, i32 1
  %296 = load ptr, ptr %Str.addr.i5989, align 8
  %tobool.i5992 = icmp ne ptr %296, null
  br i1 %tobool.i5992, label %cond.true.i5995, label %cond.false.i5993

cond.true.i5995:                                  ; preds = %_ZN4llvh9StringRefC2EPKc.exit5987
  %297 = load ptr, ptr %Str.addr.i5989, align 8
  %call.i5996 = call i64 @strlen(ptr noundef %297) #12
  br label %_ZN4llvh9StringRefC2EPKc.exit5997

cond.false.i5993:                                 ; preds = %_ZN4llvh9StringRefC2EPKc.exit5987
  br label %_ZN4llvh9StringRefC2EPKc.exit5997

_ZN4llvh9StringRefC2EPKc.exit5997:                ; preds = %cond.false.i5993, %cond.true.i5995
  %cond.i5994 = phi i64 [ %call.i5996, %cond.true.i5995 ], [ 0, %cond.false.i5993 ]
  store i64 %cond.i5994, ptr %Length.i5991, align 8
  %298 = getelementptr inbounds { ptr, i64 }, ptr %agg.tmp246, i32 0, i32 0
  %299 = load ptr, ptr %298, align 8
  %300 = getelementptr inbounds { ptr, i64 }, ptr %agg.tmp246, i32 0, i32 1
  %301 = load i64, ptr %300, align 8
  %call247 = call noundef i32 @"_ZZL11initClassesvENK3$_1clEN4llvh9StringRefE"(ptr noundef nonnull align 1 dereferenceable(1) %type, ptr %299, i64 %301)
  store i32 %call247, ptr %ref.tmp245, align 4
  store i8 0, ptr %ref.tmp248, align 1
  %call249 = call noundef nonnull align 8 dereferenceable(41) ptr @_ZNSt6vectorI5FieldSaIS0_EE12emplace_backIJ9FieldTypeRA3_KcbEEERS0_DpOT_(ptr noundef nonnull align 8 dereferenceable(24) %fields244, ptr noundef nonnull align 4 dereferenceable(4) %ref.tmp245, ptr noundef nonnull align 1 dereferenceable(3) @.str.21, ptr noundef nonnull align 1 dereferenceable(1) %ref.tmp248)
  %call250 = call noundef nonnull align 8 dereferenceable(96) ptr @_ZNSt6vectorI9TreeClassSaIS0_EE4backEv(ptr noundef nonnull align 8 dereferenceable(24) @_ZL12treeClasses_) #3
  %fields251 = getelementptr inbounds %struct.TreeClass, ptr %call250, i32 0, i32 3
  store ptr %agg.tmp253, ptr %this.addr.i5998, align 8
  store ptr @.str.17, ptr %Str.addr.i5999, align 8
  %this1.i6000 = load ptr, ptr %this.addr.i5998, align 8
  %302 = load ptr, ptr %Str.addr.i5999, align 8
  store ptr %302, ptr %this1.i6000, align 8
  %Length.i6001 = getelementptr inbounds %"class.llvh::StringRef", ptr %this1.i6000, i32 0, i32 1
  %303 = load ptr, ptr %Str.addr.i5999, align 8
  %tobool.i6002 = icmp ne ptr %303, null
  br i1 %tobool.i6002, label %cond.true.i6005, label %cond.false.i6003

cond.true.i6005:                                  ; preds = %_ZN4llvh9StringRefC2EPKc.exit5997
  %304 = load ptr, ptr %Str.addr.i5999, align 8
  %call.i6006 = call i64 @strlen(ptr noundef %304) #12
  br label %_ZN4llvh9StringRefC2EPKc.exit6007

cond.false.i6003:                                 ; preds = %_ZN4llvh9StringRefC2EPKc.exit5997
  br label %_ZN4llvh9StringRefC2EPKc.exit6007

_ZN4llvh9StringRefC2EPKc.exit6007:                ; preds = %cond.false.i6003, %cond.true.i6005
  %cond.i6004 = phi i64 [ %call.i6006, %cond.true.i6005 ], [ 0, %cond.false.i6003 ]
  store i64 %cond.i6004, ptr %Length.i6001, align 8
  %305 = getelementptr inbounds { ptr, i64 }, ptr %agg.tmp253, i32 0, i32 0
  %306 = load ptr, ptr %305, align 8
  %307 = getelementptr inbounds { ptr, i64 }, ptr %agg.tmp253, i32 0, i32 1
  %308 = load i64, ptr %307, align 8
  %call254 = call noundef i32 @"_ZZL11initClassesvENK3$_1clEN4llvh9StringRefE"(ptr noundef nonnull align 1 dereferenceable(1) %type, ptr %306, i64 %308)
  store i32 %call254, ptr %ref.tmp252, align 4
  store i8 0, ptr %ref.tmp255, align 1
  %call256 = call noundef nonnull align 8 dereferenceable(41) ptr @_ZNSt6vectorI5FieldSaIS0_EE12emplace_backIJ9FieldTypeRA7_KcbEEERS0_DpOT_(ptr noundef nonnull align 8 dereferenceable(24) %fields251, ptr noundef nonnull align 4 dereferenceable(4) %ref.tmp252, ptr noundef nonnull align 1 dereferenceable(7) @.str.22, ptr noundef nonnull align 1 dereferenceable(1) %ref.tmp255)
  %call257 = call noundef nonnull align 8 dereferenceable(96) ptr @_ZNSt6vectorI9TreeClassSaIS0_EE4backEv(ptr noundef nonnull align 8 dereferenceable(24) @_ZL12treeClasses_) #3
  %fields258 = getelementptr inbounds %struct.TreeClass, ptr %call257, i32 0, i32 3
  store ptr %agg.tmp260, ptr %this.addr.i6008, align 8
  store ptr @.str.20, ptr %Str.addr.i6009, align 8
  %this1.i6010 = load ptr, ptr %this.addr.i6008, align 8
  %309 = load ptr, ptr %Str.addr.i6009, align 8
  store ptr %309, ptr %this1.i6010, align 8
  %Length.i6011 = getelementptr inbounds %"class.llvh::StringRef", ptr %this1.i6010, i32 0, i32 1
  %310 = load ptr, ptr %Str.addr.i6009, align 8
  %tobool.i6012 = icmp ne ptr %310, null
  br i1 %tobool.i6012, label %cond.true.i6015, label %cond.false.i6013

cond.true.i6015:                                  ; preds = %_ZN4llvh9StringRefC2EPKc.exit6007
  %311 = load ptr, ptr %Str.addr.i6009, align 8
  %call.i6016 = call i64 @strlen(ptr noundef %311) #12
  br label %_ZN4llvh9StringRefC2EPKc.exit6017

cond.false.i6013:                                 ; preds = %_ZN4llvh9StringRefC2EPKc.exit6007
  br label %_ZN4llvh9StringRefC2EPKc.exit6017

_ZN4llvh9StringRefC2EPKc.exit6017:                ; preds = %cond.false.i6013, %cond.true.i6015
  %cond.i6014 = phi i64 [ %call.i6016, %cond.true.i6015 ], [ 0, %cond.false.i6013 ]
  store i64 %cond.i6014, ptr %Length.i6011, align 8
  %312 = getelementptr inbounds { ptr, i64 }, ptr %agg.tmp260, i32 0, i32 0
  %313 = load ptr, ptr %312, align 8
  %314 = getelementptr inbounds { ptr, i64 }, ptr %agg.tmp260, i32 0, i32 1
  %315 = load i64, ptr %314, align 8
  %call261 = call noundef i32 @"_ZZL11initClassesvENK3$_1clEN4llvh9StringRefE"(ptr noundef nonnull align 1 dereferenceable(1) %type, ptr %313, i64 %315)
  store i32 %call261, ptr %ref.tmp259, align 4
  store i8 0, ptr %ref.tmp262, align 1
  %call263 = call noundef nonnull align 8 dereferenceable(41) ptr @_ZNSt6vectorI5FieldSaIS0_EE12emplace_backIJ9FieldTypeRA5_KcbEEERS0_DpOT_(ptr noundef nonnull align 8 dereferenceable(24) %fields258, ptr noundef nonnull align 4 dereferenceable(4) %ref.tmp259, ptr noundef nonnull align 1 dereferenceable(5) @.str.18, ptr noundef nonnull align 1 dereferenceable(1) %ref.tmp262)
  %call264 = call noundef nonnull align 8 dereferenceable(96) ptr @_ZNSt6vectorI9TreeClassSaIS0_EE4backEv(ptr noundef nonnull align 8 dereferenceable(24) @_ZL12treeClasses_) #3
  %fields265 = getelementptr inbounds %struct.TreeClass, ptr %call264, i32 0, i32 3
  store ptr %agg.tmp267, ptr %this.addr.i6018, align 8
  store ptr @.str.20, ptr %Str.addr.i6019, align 8
  %this1.i6020 = load ptr, ptr %this.addr.i6018, align 8
  %316 = load ptr, ptr %Str.addr.i6019, align 8
  store ptr %316, ptr %this1.i6020, align 8
  %Length.i6021 = getelementptr inbounds %"class.llvh::StringRef", ptr %this1.i6020, i32 0, i32 1
  %317 = load ptr, ptr %Str.addr.i6019, align 8
  %tobool.i6022 = icmp ne ptr %317, null
  br i1 %tobool.i6022, label %cond.true.i6025, label %cond.false.i6023

cond.true.i6025:                                  ; preds = %_ZN4llvh9StringRefC2EPKc.exit6017
  %318 = load ptr, ptr %Str.addr.i6019, align 8
  %call.i6026 = call i64 @strlen(ptr noundef %318) #12
  br label %_ZN4llvh9StringRefC2EPKc.exit6027

cond.false.i6023:                                 ; preds = %_ZN4llvh9StringRefC2EPKc.exit6017
  br label %_ZN4llvh9StringRefC2EPKc.exit6027

_ZN4llvh9StringRefC2EPKc.exit6027:                ; preds = %cond.false.i6023, %cond.true.i6025
  %cond.i6024 = phi i64 [ %call.i6026, %cond.true.i6025 ], [ 0, %cond.false.i6023 ]
  store i64 %cond.i6024, ptr %Length.i6021, align 8
  %319 = getelementptr inbounds { ptr, i64 }, ptr %agg.tmp267, i32 0, i32 0
  %320 = load ptr, ptr %319, align 8
  %321 = getelementptr inbounds { ptr, i64 }, ptr %agg.tmp267, i32 0, i32 1
  %322 = load i64, ptr %321, align 8
  %call268 = call noundef i32 @"_ZZL11initClassesvENK3$_1clEN4llvh9StringRefE"(ptr noundef nonnull align 1 dereferenceable(1) %type, ptr %320, i64 %322)
  store i32 %call268, ptr %ref.tmp266, align 4
  store i8 1, ptr %ref.tmp269, align 1
  %call270 = call noundef nonnull align 8 dereferenceable(41) ptr @_ZNSt6vectorI5FieldSaIS0_EE12emplace_backIJ9FieldTypeRA15_KcbEEERS0_DpOT_(ptr noundef nonnull align 8 dereferenceable(24) %fields265, ptr noundef nonnull align 4 dereferenceable(4) %ref.tmp266, ptr noundef nonnull align 1 dereferenceable(15) @.str.23, ptr noundef nonnull align 1 dereferenceable(1) %ref.tmp269)
  %call271 = call noundef nonnull align 8 dereferenceable(96) ptr @_ZNSt6vectorI9TreeClassSaIS0_EE4backEv(ptr noundef nonnull align 8 dereferenceable(24) @_ZL12treeClasses_) #3
  %fields272 = getelementptr inbounds %struct.TreeClass, ptr %call271, i32 0, i32 3
  store ptr %agg.tmp274, ptr %this.addr.i6028, align 8
  store ptr @.str.20, ptr %Str.addr.i6029, align 8
  %this1.i6030 = load ptr, ptr %this.addr.i6028, align 8
  %323 = load ptr, ptr %Str.addr.i6029, align 8
  store ptr %323, ptr %this1.i6030, align 8
  %Length.i6031 = getelementptr inbounds %"class.llvh::StringRef", ptr %this1.i6030, i32 0, i32 1
  %324 = load ptr, ptr %Str.addr.i6029, align 8
  %tobool.i6032 = icmp ne ptr %324, null
  br i1 %tobool.i6032, label %cond.true.i6035, label %cond.false.i6033

cond.true.i6035:                                  ; preds = %_ZN4llvh9StringRefC2EPKc.exit6027
  %325 = load ptr, ptr %Str.addr.i6029, align 8
  %call.i6036 = call i64 @strlen(ptr noundef %325) #12
  br label %_ZN4llvh9StringRefC2EPKc.exit6037

cond.false.i6033:                                 ; preds = %_ZN4llvh9StringRefC2EPKc.exit6027
  br label %_ZN4llvh9StringRefC2EPKc.exit6037

_ZN4llvh9StringRefC2EPKc.exit6037:                ; preds = %cond.false.i6033, %cond.true.i6035
  %cond.i6034 = phi i64 [ %call.i6036, %cond.true.i6035 ], [ 0, %cond.false.i6033 ]
  store i64 %cond.i6034, ptr %Length.i6031, align 8
  %326 = getelementptr inbounds { ptr, i64 }, ptr %agg.tmp274, i32 0, i32 0
  %327 = load ptr, ptr %326, align 8
  %328 = getelementptr inbounds { ptr, i64 }, ptr %agg.tmp274, i32 0, i32 1
  %329 = load i64, ptr %328, align 8
  %call275 = call noundef i32 @"_ZZL11initClassesvENK3$_1clEN4llvh9StringRefE"(ptr noundef nonnull align 1 dereferenceable(1) %type, ptr %327, i64 %329)
  store i32 %call275, ptr %ref.tmp273, align 4
  store i8 1, ptr %ref.tmp276, align 1
  %call277 = call noundef nonnull align 8 dereferenceable(41) ptr @_ZNSt6vectorI5FieldSaIS0_EE12emplace_backIJ9FieldTypeRA12_KcbEEERS0_DpOT_(ptr noundef nonnull align 8 dereferenceable(24) %fields272, ptr noundef nonnull align 4 dereferenceable(4) %ref.tmp273, ptr noundef nonnull align 1 dereferenceable(12) @.str.33, ptr noundef nonnull align 1 dereferenceable(1) %ref.tmp276)
  store i32 2, ptr %ref.tmp278, align 4
  %call279 = call noundef nonnull align 8 dereferenceable(96) ptr @_ZNSt6vectorI9TreeClassSaIS0_EE12emplace_backIJRA13_KcRA1_S4_12SentinelTypeEEERS0_DpOT_(ptr noundef nonnull align 8 dereferenceable(24) @_ZL12treeClasses_, ptr noundef nonnull align 1 dereferenceable(13) @.str.15, ptr noundef nonnull align 1 dereferenceable(1) @.str.34, ptr noundef nonnull align 4 dereferenceable(4) %ref.tmp278)
  store ptr %agg.tmp281, ptr %this.addr.i6038, align 8
  store ptr @.str.13, ptr %Str.addr.i6039, align 8
  %this1.i6040 = load ptr, ptr %this.addr.i6038, align 8
  %330 = load ptr, ptr %Str.addr.i6039, align 8
  store ptr %330, ptr %this1.i6040, align 8
  %Length.i6041 = getelementptr inbounds %"class.llvh::StringRef", ptr %this1.i6040, i32 0, i32 1
  %331 = load ptr, ptr %Str.addr.i6039, align 8
  %tobool.i6042 = icmp ne ptr %331, null
  br i1 %tobool.i6042, label %cond.true.i6045, label %cond.false.i6043

cond.true.i6045:                                  ; preds = %_ZN4llvh9StringRefC2EPKc.exit6037
  %332 = load ptr, ptr %Str.addr.i6039, align 8
  %call.i6046 = call i64 @strlen(ptr noundef %332) #12
  br label %_ZN4llvh9StringRefC2EPKc.exit6047

cond.false.i6043:                                 ; preds = %_ZN4llvh9StringRefC2EPKc.exit6037
  br label %_ZN4llvh9StringRefC2EPKc.exit6047

_ZN4llvh9StringRefC2EPKc.exit6047:                ; preds = %cond.false.i6043, %cond.true.i6045
  %cond.i6044 = phi i64 [ %call.i6046, %cond.true.i6045 ], [ 0, %cond.false.i6043 ]
  store i64 %cond.i6044, ptr %Length.i6041, align 8
  %333 = getelementptr inbounds { ptr, i64 }, ptr %agg.tmp281, i32 0, i32 0
  %334 = load ptr, ptr %333, align 8
  %335 = getelementptr inbounds { ptr, i64 }, ptr %agg.tmp281, i32 0, i32 1
  %336 = load i64, ptr %335, align 8
  %call282 = call { ptr, i64 } @"_ZZL11initClassesvENK3$_0clEN4llvh9StringRefE"(ptr noundef nonnull align 1 dereferenceable(1) %baseName, ptr %334, i64 %336)
  %337 = getelementptr inbounds { ptr, i64 }, ptr %ref.tmp280, i32 0, i32 0
  %338 = extractvalue { ptr, i64 } %call282, 0
  store ptr %338, ptr %337, align 8
  %339 = getelementptr inbounds { ptr, i64 }, ptr %ref.tmp280, i32 0, i32 1
  %340 = extractvalue { ptr, i64 } %call282, 1
  store i64 %340, ptr %339, align 8
  store i32 1, ptr %ref.tmp283, align 4
  %call284 = call noundef nonnull align 8 dereferenceable(96) ptr @_ZNSt6vectorI9TreeClassSaIS0_EE12emplace_backIJRA10_KcN4llvh9StringRefE12SentinelTypeEEERS0_DpOT_(ptr noundef nonnull align 8 dereferenceable(24) @_ZL12treeClasses_, ptr noundef nonnull align 1 dereferenceable(10) @.str.35, ptr noundef nonnull align 8 dereferenceable(16) %ref.tmp280, ptr noundef nonnull align 4 dereferenceable(4) %ref.tmp283)
  %call286 = call noundef i64 @_ZNKSt6vectorI9TreeClassSaIS0_EE4sizeEv(ptr noundef nonnull align 8 dereferenceable(24) @_ZL12treeClasses_) #3
  %sub287 = sub i64 %call286, 1
  store i64 %sub287, ptr %ref.tmp285, align 8
  %call288 = call { ptr, i8 } @_ZNSt3mapINSt7__cxx1112basic_stringIcSt11char_traitsIcESaIcEEEmSt4lessIS5_ESaISt4pairIKS5_mEEE7emplaceIJRA10_KcmEEES8_ISt17_Rb_tree_iteratorISA_EbEDpOT_(ptr noundef nonnull align 8 dereferenceable(48) @_ZL10treeNames_B5cxx11, ptr noundef nonnull align 1 dereferenceable(10) @.str.35, ptr noundef nonnull align 8 dereferenceable(8) %ref.tmp285)
  %341 = getelementptr inbounds { ptr, i8 }, ptr %coerce289, i32 0, i32 0
  %342 = extractvalue { ptr, i8 } %call288, 0
  store ptr %342, ptr %341, align 8
  %343 = getelementptr inbounds { ptr, i8 }, ptr %coerce289, i32 0, i32 1
  %344 = extractvalue { ptr, i8 } %call288, 1
  store i8 %344, ptr %343, align 8
  store ptr %agg.tmp291, ptr %this.addr.i6048, align 8
  store ptr @.str.35, ptr %Str.addr.i6049, align 8
  %this1.i6050 = load ptr, ptr %this.addr.i6048, align 8
  %345 = load ptr, ptr %Str.addr.i6049, align 8
  store ptr %345, ptr %this1.i6050, align 8
  %Length.i6051 = getelementptr inbounds %"class.llvh::StringRef", ptr %this1.i6050, i32 0, i32 1
  %346 = load ptr, ptr %Str.addr.i6049, align 8
  %tobool.i6052 = icmp ne ptr %346, null
  br i1 %tobool.i6052, label %cond.true.i6055, label %cond.false.i6053

cond.true.i6055:                                  ; preds = %_ZN4llvh9StringRefC2EPKc.exit6047
  %347 = load ptr, ptr %Str.addr.i6049, align 8
  %call.i6056 = call i64 @strlen(ptr noundef %347) #12
  br label %_ZN4llvh9StringRefC2EPKc.exit6057

cond.false.i6053:                                 ; preds = %_ZN4llvh9StringRefC2EPKc.exit6047
  br label %_ZN4llvh9StringRefC2EPKc.exit6057

_ZN4llvh9StringRefC2EPKc.exit6057:                ; preds = %cond.false.i6053, %cond.true.i6055
  %cond.i6054 = phi i64 [ %call.i6056, %cond.true.i6055 ], [ 0, %cond.false.i6053 ]
  store i64 %cond.i6054, ptr %Length.i6051, align 8
  %348 = getelementptr inbounds { ptr, i64 }, ptr %agg.tmp291, i32 0, i32 0
  %349 = load ptr, ptr %348, align 8
  %350 = getelementptr inbounds { ptr, i64 }, ptr %agg.tmp291, i32 0, i32 1
  %351 = load i64, ptr %350, align 8
  %call292 = call { ptr, i64 } @"_ZZL11initClassesvENK3$_0clEN4llvh9StringRefE"(ptr noundef nonnull align 1 dereferenceable(1) %baseName, ptr %349, i64 %351)
  %352 = getelementptr inbounds { ptr, i64 }, ptr %ref.tmp290, i32 0, i32 0
  %353 = extractvalue { ptr, i64 } %call292, 0
  store ptr %353, ptr %352, align 8
  %354 = getelementptr inbounds { ptr, i64 }, ptr %ref.tmp290, i32 0, i32 1
  %355 = extractvalue { ptr, i64 } %call292, 1
  store i64 %355, ptr %354, align 8
  store i32 1, ptr %ref.tmp293, align 4
  %call294 = call noundef nonnull align 8 dereferenceable(96) ptr @_ZNSt6vectorI9TreeClassSaIS0_EE12emplace_backIJRA14_KcN4llvh9StringRefE12SentinelTypeEEERS0_DpOT_(ptr noundef nonnull align 8 dereferenceable(24) @_ZL12treeClasses_, ptr noundef nonnull align 1 dereferenceable(14) @.str.36, ptr noundef nonnull align 8 dereferenceable(16) %ref.tmp290, ptr noundef nonnull align 4 dereferenceable(4) %ref.tmp293)
  %call296 = call noundef i64 @_ZNKSt6vectorI9TreeClassSaIS0_EE4sizeEv(ptr noundef nonnull align 8 dereferenceable(24) @_ZL12treeClasses_) #3
  %sub297 = sub i64 %call296, 1
  store i64 %sub297, ptr %ref.tmp295, align 8
  %call298 = call { ptr, i8 } @_ZNSt3mapINSt7__cxx1112basic_stringIcSt11char_traitsIcESaIcEEEmSt4lessIS5_ESaISt4pairIKS5_mEEE7emplaceIJRA14_KcmEEES8_ISt17_Rb_tree_iteratorISA_EbEDpOT_(ptr noundef nonnull align 8 dereferenceable(48) @_ZL10treeNames_B5cxx11, ptr noundef nonnull align 1 dereferenceable(14) @.str.36, ptr noundef nonnull align 8 dereferenceable(8) %ref.tmp295)
  %356 = getelementptr inbounds { ptr, i8 }, ptr %coerce299, i32 0, i32 0
  %357 = extractvalue { ptr, i8 } %call298, 0
  store ptr %357, ptr %356, align 8
  %358 = getelementptr inbounds { ptr, i8 }, ptr %coerce299, i32 0, i32 1
  %359 = extractvalue { ptr, i8 } %call298, 1
  store i8 %359, ptr %358, align 8
  store ptr %agg.tmp301, ptr %this.addr.i6058, align 8
  store ptr @.str.36, ptr %Str.addr.i6059, align 8
  %this1.i6060 = load ptr, ptr %this.addr.i6058, align 8
  %360 = load ptr, ptr %Str.addr.i6059, align 8
  store ptr %360, ptr %this1.i6060, align 8
  %Length.i6061 = getelementptr inbounds %"class.llvh::StringRef", ptr %this1.i6060, i32 0, i32 1
  %361 = load ptr, ptr %Str.addr.i6059, align 8
  %tobool.i6062 = icmp ne ptr %361, null
  br i1 %tobool.i6062, label %cond.true.i6065, label %cond.false.i6063

cond.true.i6065:                                  ; preds = %_ZN4llvh9StringRefC2EPKc.exit6057
  %362 = load ptr, ptr %Str.addr.i6059, align 8
  %call.i6066 = call i64 @strlen(ptr noundef %362) #12
  br label %_ZN4llvh9StringRefC2EPKc.exit6067

cond.false.i6063:                                 ; preds = %_ZN4llvh9StringRefC2EPKc.exit6057
  br label %_ZN4llvh9StringRefC2EPKc.exit6067

_ZN4llvh9StringRefC2EPKc.exit6067:                ; preds = %cond.false.i6063, %cond.true.i6065
  %cond.i6064 = phi i64 [ %call.i6066, %cond.true.i6065 ], [ 0, %cond.false.i6063 ]
  store i64 %cond.i6064, ptr %Length.i6061, align 8
  %363 = getelementptr inbounds { ptr, i64 }, ptr %agg.tmp301, i32 0, i32 0
  %364 = load ptr, ptr %363, align 8
  %365 = getelementptr inbounds { ptr, i64 }, ptr %agg.tmp301, i32 0, i32 1
  %366 = load i64, ptr %365, align 8
  %call302 = call { ptr, i64 } @"_ZZL11initClassesvENK3$_0clEN4llvh9StringRefE"(ptr noundef nonnull align 1 dereferenceable(1) %baseName, ptr %364, i64 %366)
  %367 = getelementptr inbounds { ptr, i64 }, ptr %ref.tmp300, i32 0, i32 0
  %368 = extractvalue { ptr, i64 } %call302, 0
  store ptr %368, ptr %367, align 8
  %369 = getelementptr inbounds { ptr, i64 }, ptr %ref.tmp300, i32 0, i32 1
  %370 = extractvalue { ptr, i64 } %call302, 1
  store i64 %370, ptr %369, align 8
  %call303 = call noundef nonnull align 8 dereferenceable(96) ptr @_ZNSt6vectorI9TreeClassSaIS0_EE12emplace_backIJRA15_KcN4llvh9StringRefEEEERS0_DpOT_(ptr noundef nonnull align 8 dereferenceable(24) @_ZL12treeClasses_, ptr noundef nonnull align 1 dereferenceable(15) @.str.37, ptr noundef nonnull align 8 dereferenceable(16) %ref.tmp300)
  %call305 = call noundef i64 @_ZNKSt6vectorI9TreeClassSaIS0_EE4sizeEv(ptr noundef nonnull align 8 dereferenceable(24) @_ZL12treeClasses_) #3
  %sub306 = sub i64 %call305, 1
  store i64 %sub306, ptr %ref.tmp304, align 8
  %call307 = call { ptr, i8 } @_ZNSt3mapINSt7__cxx1112basic_stringIcSt11char_traitsIcESaIcEEEmSt4lessIS5_ESaISt4pairIKS5_mEEE7emplaceIJRA15_KcmEEES8_ISt17_Rb_tree_iteratorISA_EbEDpOT_(ptr noundef nonnull align 8 dereferenceable(48) @_ZL10treeNames_B5cxx11, ptr noundef nonnull align 1 dereferenceable(15) @.str.37, ptr noundef nonnull align 8 dereferenceable(8) %ref.tmp304)
  %371 = getelementptr inbounds { ptr, i8 }, ptr %coerce308, i32 0, i32 0
  %372 = extractvalue { ptr, i8 } %call307, 0
  store ptr %372, ptr %371, align 8
  %373 = getelementptr inbounds { ptr, i8 }, ptr %coerce308, i32 0, i32 1
  %374 = extractvalue { ptr, i8 } %call307, 1
  store i8 %374, ptr %373, align 8
  %call309 = call noundef nonnull align 8 dereferenceable(96) ptr @_ZNSt6vectorI9TreeClassSaIS0_EE4backEv(ptr noundef nonnull align 8 dereferenceable(24) @_ZL12treeClasses_) #3
  %fields310 = getelementptr inbounds %struct.TreeClass, ptr %call309, i32 0, i32 3
  store ptr %agg.tmp312, ptr %this.addr.i6068, align 8
  store ptr @.str.20, ptr %Str.addr.i6069, align 8
  %this1.i6070 = load ptr, ptr %this.addr.i6068, align 8
  %375 = load ptr, ptr %Str.addr.i6069, align 8
  store ptr %375, ptr %this1.i6070, align 8
  %Length.i6071 = getelementptr inbounds %"class.llvh::StringRef", ptr %this1.i6070, i32 0, i32 1
  %376 = load ptr, ptr %Str.addr.i6069, align 8
  %tobool.i6072 = icmp ne ptr %376, null
  br i1 %tobool.i6072, label %cond.true.i6075, label %cond.false.i6073

cond.true.i6075:                                  ; preds = %_ZN4llvh9StringRefC2EPKc.exit6067
  %377 = load ptr, ptr %Str.addr.i6069, align 8
  %call.i6076 = call i64 @strlen(ptr noundef %377) #12
  br label %_ZN4llvh9StringRefC2EPKc.exit6077

cond.false.i6073:                                 ; preds = %_ZN4llvh9StringRefC2EPKc.exit6067
  br label %_ZN4llvh9StringRefC2EPKc.exit6077

_ZN4llvh9StringRefC2EPKc.exit6077:                ; preds = %cond.false.i6073, %cond.true.i6075
  %cond.i6074 = phi i64 [ %call.i6076, %cond.true.i6075 ], [ 0, %cond.false.i6073 ]
  store i64 %cond.i6074, ptr %Length.i6071, align 8
  %378 = getelementptr inbounds { ptr, i64 }, ptr %agg.tmp312, i32 0, i32 0
  %379 = load ptr, ptr %378, align 8
  %380 = getelementptr inbounds { ptr, i64 }, ptr %agg.tmp312, i32 0, i32 1
  %381 = load i64, ptr %380, align 8
  %call313 = call noundef i32 @"_ZZL11initClassesvENK3$_1clEN4llvh9StringRefE"(ptr noundef nonnull align 1 dereferenceable(1) %type, ptr %379, i64 %381)
  store i32 %call313, ptr %ref.tmp311, align 4
  store i8 0, ptr %ref.tmp314, align 1
  %call315 = call noundef nonnull align 8 dereferenceable(41) ptr @_ZNSt6vectorI5FieldSaIS0_EE12emplace_backIJ9FieldTypeRA5_KcbEEERS0_DpOT_(ptr noundef nonnull align 8 dereferenceable(24) %fields310, ptr noundef nonnull align 4 dereferenceable(4) %ref.tmp311, ptr noundef nonnull align 1 dereferenceable(5) @.str.18, ptr noundef nonnull align 1 dereferenceable(1) %ref.tmp314)
  %call316 = call noundef nonnull align 8 dereferenceable(96) ptr @_ZNSt6vectorI9TreeClassSaIS0_EE4backEv(ptr noundef nonnull align 8 dereferenceable(24) @_ZL12treeClasses_) #3
  %fields317 = getelementptr inbounds %struct.TreeClass, ptr %call316, i32 0, i32 3
  store ptr %agg.tmp319, ptr %this.addr.i6078, align 8
  store ptr @.str.20, ptr %Str.addr.i6079, align 8
  %this1.i6080 = load ptr, ptr %this.addr.i6078, align 8
  %382 = load ptr, ptr %Str.addr.i6079, align 8
  store ptr %382, ptr %this1.i6080, align 8
  %Length.i6081 = getelementptr inbounds %"class.llvh::StringRef", ptr %this1.i6080, i32 0, i32 1
  %383 = load ptr, ptr %Str.addr.i6079, align 8
  %tobool.i6082 = icmp ne ptr %383, null
  br i1 %tobool.i6082, label %cond.true.i6085, label %cond.false.i6083

cond.true.i6085:                                  ; preds = %_ZN4llvh9StringRefC2EPKc.exit6077
  %384 = load ptr, ptr %Str.addr.i6079, align 8
  %call.i6086 = call i64 @strlen(ptr noundef %384) #12
  br label %_ZN4llvh9StringRefC2EPKc.exit6087

cond.false.i6083:                                 ; preds = %_ZN4llvh9StringRefC2EPKc.exit6077
  br label %_ZN4llvh9StringRefC2EPKc.exit6087

_ZN4llvh9StringRefC2EPKc.exit6087:                ; preds = %cond.false.i6083, %cond.true.i6085
  %cond.i6084 = phi i64 [ %call.i6086, %cond.true.i6085 ], [ 0, %cond.false.i6083 ]
  store i64 %cond.i6084, ptr %Length.i6081, align 8
  %385 = getelementptr inbounds { ptr, i64 }, ptr %agg.tmp319, i32 0, i32 0
  %386 = load ptr, ptr %385, align 8
  %387 = getelementptr inbounds { ptr, i64 }, ptr %agg.tmp319, i32 0, i32 1
  %388 = load i64, ptr %387, align 8
  %call320 = call noundef i32 @"_ZZL11initClassesvENK3$_1clEN4llvh9StringRefE"(ptr noundef nonnull align 1 dereferenceable(1) %type, ptr %386, i64 %388)
  store i32 %call320, ptr %ref.tmp318, align 4
  store i8 0, ptr %ref.tmp321, align 1
  %call322 = call noundef nonnull align 8 dereferenceable(41) ptr @_ZNSt6vectorI5FieldSaIS0_EE12emplace_backIJ9FieldTypeRA5_KcbEEERS0_DpOT_(ptr noundef nonnull align 8 dereferenceable(24) %fields317, ptr noundef nonnull align 4 dereferenceable(4) %ref.tmp318, ptr noundef nonnull align 1 dereferenceable(5) @.str.38, ptr noundef nonnull align 1 dereferenceable(1) %ref.tmp321)
  store ptr %agg.tmp324, ptr %this.addr.i6088, align 8
  store ptr @.str.36, ptr %Str.addr.i6089, align 8
  %this1.i6090 = load ptr, ptr %this.addr.i6088, align 8
  %389 = load ptr, ptr %Str.addr.i6089, align 8
  store ptr %389, ptr %this1.i6090, align 8
  %Length.i6091 = getelementptr inbounds %"class.llvh::StringRef", ptr %this1.i6090, i32 0, i32 1
  %390 = load ptr, ptr %Str.addr.i6089, align 8
  %tobool.i6092 = icmp ne ptr %390, null
  br i1 %tobool.i6092, label %cond.true.i6095, label %cond.false.i6093

cond.true.i6095:                                  ; preds = %_ZN4llvh9StringRefC2EPKc.exit6087
  %391 = load ptr, ptr %Str.addr.i6089, align 8
  %call.i6096 = call i64 @strlen(ptr noundef %391) #12
  br label %_ZN4llvh9StringRefC2EPKc.exit6097

cond.false.i6093:                                 ; preds = %_ZN4llvh9StringRefC2EPKc.exit6087
  br label %_ZN4llvh9StringRefC2EPKc.exit6097

_ZN4llvh9StringRefC2EPKc.exit6097:                ; preds = %cond.false.i6093, %cond.true.i6095
  %cond.i6094 = phi i64 [ %call.i6096, %cond.true.i6095 ], [ 0, %cond.false.i6093 ]
  store i64 %cond.i6094, ptr %Length.i6091, align 8
  %392 = getelementptr inbounds { ptr, i64 }, ptr %agg.tmp324, i32 0, i32 0
  %393 = load ptr, ptr %392, align 8
  %394 = getelementptr inbounds { ptr, i64 }, ptr %agg.tmp324, i32 0, i32 1
  %395 = load i64, ptr %394, align 8
  %call325 = call { ptr, i64 } @"_ZZL11initClassesvENK3$_0clEN4llvh9StringRefE"(ptr noundef nonnull align 1 dereferenceable(1) %baseName, ptr %393, i64 %395)
  %396 = getelementptr inbounds { ptr, i64 }, ptr %ref.tmp323, i32 0, i32 0
  %397 = extractvalue { ptr, i64 } %call325, 0
  store ptr %397, ptr %396, align 8
  %398 = getelementptr inbounds { ptr, i64 }, ptr %ref.tmp323, i32 0, i32 1
  %399 = extractvalue { ptr, i64 } %call325, 1
  store i64 %399, ptr %398, align 8
  %call326 = call noundef nonnull align 8 dereferenceable(96) ptr @_ZNSt6vectorI9TreeClassSaIS0_EE12emplace_backIJRA17_KcN4llvh9StringRefEEEERS0_DpOT_(ptr noundef nonnull align 8 dereferenceable(24) @_ZL12treeClasses_, ptr noundef nonnull align 1 dereferenceable(17) @.str.39, ptr noundef nonnull align 8 dereferenceable(16) %ref.tmp323)
  %call328 = call noundef i64 @_ZNKSt6vectorI9TreeClassSaIS0_EE4sizeEv(ptr noundef nonnull align 8 dereferenceable(24) @_ZL12treeClasses_) #3
  %sub329 = sub i64 %call328, 1
  store i64 %sub329, ptr %ref.tmp327, align 8
  %call330 = call { ptr, i8 } @_ZNSt3mapINSt7__cxx1112basic_stringIcSt11char_traitsIcESaIcEEEmSt4lessIS5_ESaISt4pairIKS5_mEEE7emplaceIJRA17_KcmEEES8_ISt17_Rb_tree_iteratorISA_EbEDpOT_(ptr noundef nonnull align 8 dereferenceable(48) @_ZL10treeNames_B5cxx11, ptr noundef nonnull align 1 dereferenceable(17) @.str.39, ptr noundef nonnull align 8 dereferenceable(8) %ref.tmp327)
  %400 = getelementptr inbounds { ptr, i8 }, ptr %coerce331, i32 0, i32 0
  %401 = extractvalue { ptr, i8 } %call330, 0
  store ptr %401, ptr %400, align 8
  %402 = getelementptr inbounds { ptr, i8 }, ptr %coerce331, i32 0, i32 1
  %403 = extractvalue { ptr, i8 } %call330, 1
  store i8 %403, ptr %402, align 8
  %call332 = call noundef nonnull align 8 dereferenceable(96) ptr @_ZNSt6vectorI9TreeClassSaIS0_EE4backEv(ptr noundef nonnull align 8 dereferenceable(24) @_ZL12treeClasses_) #3
  %fields333 = getelementptr inbounds %struct.TreeClass, ptr %call332, i32 0, i32 3
  store ptr %agg.tmp335, ptr %this.addr.i6098, align 8
  store ptr @.str.20, ptr %Str.addr.i6099, align 8
  %this1.i6100 = load ptr, ptr %this.addr.i6098, align 8
  %404 = load ptr, ptr %Str.addr.i6099, align 8
  store ptr %404, ptr %this1.i6100, align 8
  %Length.i6101 = getelementptr inbounds %"class.llvh::StringRef", ptr %this1.i6100, i32 0, i32 1
  %405 = load ptr, ptr %Str.addr.i6099, align 8
  %tobool.i6102 = icmp ne ptr %405, null
  br i1 %tobool.i6102, label %cond.true.i6105, label %cond.false.i6103

cond.true.i6105:                                  ; preds = %_ZN4llvh9StringRefC2EPKc.exit6097
  %406 = load ptr, ptr %Str.addr.i6099, align 8
  %call.i6106 = call i64 @strlen(ptr noundef %406) #12
  br label %_ZN4llvh9StringRefC2EPKc.exit6107

cond.false.i6103:                                 ; preds = %_ZN4llvh9StringRefC2EPKc.exit6097
  br label %_ZN4llvh9StringRefC2EPKc.exit6107

_ZN4llvh9StringRefC2EPKc.exit6107:                ; preds = %cond.false.i6103, %cond.true.i6105
  %cond.i6104 = phi i64 [ %call.i6106, %cond.true.i6105 ], [ 0, %cond.false.i6103 ]
  store i64 %cond.i6104, ptr %Length.i6101, align 8
  %407 = getelementptr inbounds { ptr, i64 }, ptr %agg.tmp335, i32 0, i32 0
  %408 = load ptr, ptr %407, align 8
  %409 = getelementptr inbounds { ptr, i64 }, ptr %agg.tmp335, i32 0, i32 1
  %410 = load i64, ptr %409, align 8
  %call336 = call noundef i32 @"_ZZL11initClassesvENK3$_1clEN4llvh9StringRefE"(ptr noundef nonnull align 1 dereferenceable(1) %type, ptr %408, i64 %410)
  store i32 %call336, ptr %ref.tmp334, align 4
  store i8 0, ptr %ref.tmp337, align 1
  %call338 = call noundef nonnull align 8 dereferenceable(41) ptr @_ZNSt6vectorI5FieldSaIS0_EE12emplace_backIJ9FieldTypeRA5_KcbEEERS0_DpOT_(ptr noundef nonnull align 8 dereferenceable(24) %fields333, ptr noundef nonnull align 4 dereferenceable(4) %ref.tmp334, ptr noundef nonnull align 1 dereferenceable(5) @.str.18, ptr noundef nonnull align 1 dereferenceable(1) %ref.tmp337)
  %call339 = call noundef nonnull align 8 dereferenceable(96) ptr @_ZNSt6vectorI9TreeClassSaIS0_EE4backEv(ptr noundef nonnull align 8 dereferenceable(24) @_ZL12treeClasses_) #3
  %fields340 = getelementptr inbounds %struct.TreeClass, ptr %call339, i32 0, i32 3
  store ptr %agg.tmp342, ptr %this.addr.i6108, align 8
  store ptr @.str.20, ptr %Str.addr.i6109, align 8
  %this1.i6110 = load ptr, ptr %this.addr.i6108, align 8
  %411 = load ptr, ptr %Str.addr.i6109, align 8
  store ptr %411, ptr %this1.i6110, align 8
  %Length.i6111 = getelementptr inbounds %"class.llvh::StringRef", ptr %this1.i6110, i32 0, i32 1
  %412 = load ptr, ptr %Str.addr.i6109, align 8
  %tobool.i6112 = icmp ne ptr %412, null
  br i1 %tobool.i6112, label %cond.true.i6115, label %cond.false.i6113

cond.true.i6115:                                  ; preds = %_ZN4llvh9StringRefC2EPKc.exit6107
  %413 = load ptr, ptr %Str.addr.i6109, align 8
  %call.i6116 = call i64 @strlen(ptr noundef %413) #12
  br label %_ZN4llvh9StringRefC2EPKc.exit6117

cond.false.i6113:                                 ; preds = %_ZN4llvh9StringRefC2EPKc.exit6107
  br label %_ZN4llvh9StringRefC2EPKc.exit6117

_ZN4llvh9StringRefC2EPKc.exit6117:                ; preds = %cond.false.i6113, %cond.true.i6115
  %cond.i6114 = phi i64 [ %call.i6116, %cond.true.i6115 ], [ 0, %cond.false.i6113 ]
  store i64 %cond.i6114, ptr %Length.i6111, align 8
  %414 = getelementptr inbounds { ptr, i64 }, ptr %agg.tmp342, i32 0, i32 0
  %415 = load ptr, ptr %414, align 8
  %416 = getelementptr inbounds { ptr, i64 }, ptr %agg.tmp342, i32 0, i32 1
  %417 = load i64, ptr %416, align 8
  %call343 = call noundef i32 @"_ZZL11initClassesvENK3$_1clEN4llvh9StringRefE"(ptr noundef nonnull align 1 dereferenceable(1) %type, ptr %415, i64 %417)
  store i32 %call343, ptr %ref.tmp341, align 4
  store i8 0, ptr %ref.tmp344, align 1
  %call345 = call noundef nonnull align 8 dereferenceable(41) ptr @_ZNSt6vectorI5FieldSaIS0_EE12emplace_backIJ9FieldTypeRA5_KcbEEERS0_DpOT_(ptr noundef nonnull align 8 dereferenceable(24) %fields340, ptr noundef nonnull align 4 dereferenceable(4) %ref.tmp341, ptr noundef nonnull align 1 dereferenceable(5) @.str.38, ptr noundef nonnull align 1 dereferenceable(1) %ref.tmp344)
  store ptr %agg.tmp347, ptr %this.addr.i6118, align 8
  store ptr @.str.36, ptr %Str.addr.i6119, align 8
  %this1.i6120 = load ptr, ptr %this.addr.i6118, align 8
  %418 = load ptr, ptr %Str.addr.i6119, align 8
  store ptr %418, ptr %this1.i6120, align 8
  %Length.i6121 = getelementptr inbounds %"class.llvh::StringRef", ptr %this1.i6120, i32 0, i32 1
  %419 = load ptr, ptr %Str.addr.i6119, align 8
  %tobool.i6122 = icmp ne ptr %419, null
  br i1 %tobool.i6122, label %cond.true.i6125, label %cond.false.i6123

cond.true.i6125:                                  ; preds = %_ZN4llvh9StringRefC2EPKc.exit6117
  %420 = load ptr, ptr %Str.addr.i6119, align 8
  %call.i6126 = call i64 @strlen(ptr noundef %420) #12
  br label %_ZN4llvh9StringRefC2EPKc.exit6127

cond.false.i6123:                                 ; preds = %_ZN4llvh9StringRefC2EPKc.exit6117
  br label %_ZN4llvh9StringRefC2EPKc.exit6127

_ZN4llvh9StringRefC2EPKc.exit6127:                ; preds = %cond.false.i6123, %cond.true.i6125
  %cond.i6124 = phi i64 [ %call.i6126, %cond.true.i6125 ], [ 0, %cond.false.i6123 ]
  store i64 %cond.i6124, ptr %Length.i6121, align 8
  %421 = getelementptr inbounds { ptr, i64 }, ptr %agg.tmp347, i32 0, i32 0
  %422 = load ptr, ptr %421, align 8
  %423 = getelementptr inbounds { ptr, i64 }, ptr %agg.tmp347, i32 0, i32 1
  %424 = load i64, ptr %423, align 8
  %call348 = call { ptr, i64 } @"_ZZL11initClassesvENK3$_0clEN4llvh9StringRefE"(ptr noundef nonnull align 1 dereferenceable(1) %baseName, ptr %422, i64 %424)
  %425 = getelementptr inbounds { ptr, i64 }, ptr %ref.tmp346, i32 0, i32 0
  %426 = extractvalue { ptr, i64 } %call348, 0
  store ptr %426, ptr %425, align 8
  %427 = getelementptr inbounds { ptr, i64 }, ptr %ref.tmp346, i32 0, i32 1
  %428 = extractvalue { ptr, i64 } %call348, 1
  store i64 %428, ptr %427, align 8
  %call349 = call noundef nonnull align 8 dereferenceable(96) ptr @_ZNSt6vectorI9TreeClassSaIS0_EE12emplace_backIJRA15_KcN4llvh9StringRefEEEERS0_DpOT_(ptr noundef nonnull align 8 dereferenceable(24) @_ZL12treeClasses_, ptr noundef nonnull align 1 dereferenceable(15) @.str.40, ptr noundef nonnull align 8 dereferenceable(16) %ref.tmp346)
  %call351 = call noundef i64 @_ZNKSt6vectorI9TreeClassSaIS0_EE4sizeEv(ptr noundef nonnull align 8 dereferenceable(24) @_ZL12treeClasses_) #3
  %sub352 = sub i64 %call351, 1
  store i64 %sub352, ptr %ref.tmp350, align 8
  %call353 = call { ptr, i8 } @_ZNSt3mapINSt7__cxx1112basic_stringIcSt11char_traitsIcESaIcEEEmSt4lessIS5_ESaISt4pairIKS5_mEEE7emplaceIJRA15_KcmEEES8_ISt17_Rb_tree_iteratorISA_EbEDpOT_(ptr noundef nonnull align 8 dereferenceable(48) @_ZL10treeNames_B5cxx11, ptr noundef nonnull align 1 dereferenceable(15) @.str.40, ptr noundef nonnull align 8 dereferenceable(8) %ref.tmp350)
  %429 = getelementptr inbounds { ptr, i8 }, ptr %coerce354, i32 0, i32 0
  %430 = extractvalue { ptr, i8 } %call353, 0
  store ptr %430, ptr %429, align 8
  %431 = getelementptr inbounds { ptr, i8 }, ptr %coerce354, i32 0, i32 1
  %432 = extractvalue { ptr, i8 } %call353, 1
  store i8 %432, ptr %431, align 8
  %call355 = call noundef nonnull align 8 dereferenceable(96) ptr @_ZNSt6vectorI9TreeClassSaIS0_EE4backEv(ptr noundef nonnull align 8 dereferenceable(24) @_ZL12treeClasses_) #3
  %fields356 = getelementptr inbounds %struct.TreeClass, ptr %call355, i32 0, i32 3
  store ptr %agg.tmp358, ptr %this.addr.i6128, align 8
  store ptr @.str.20, ptr %Str.addr.i6129, align 8
  %this1.i6130 = load ptr, ptr %this.addr.i6128, align 8
  %433 = load ptr, ptr %Str.addr.i6129, align 8
  store ptr %433, ptr %this1.i6130, align 8
  %Length.i6131 = getelementptr inbounds %"class.llvh::StringRef", ptr %this1.i6130, i32 0, i32 1
  %434 = load ptr, ptr %Str.addr.i6129, align 8
  %tobool.i6132 = icmp ne ptr %434, null
  br i1 %tobool.i6132, label %cond.true.i6135, label %cond.false.i6133

cond.true.i6135:                                  ; preds = %_ZN4llvh9StringRefC2EPKc.exit6127
  %435 = load ptr, ptr %Str.addr.i6129, align 8
  %call.i6136 = call i64 @strlen(ptr noundef %435) #12
  br label %_ZN4llvh9StringRefC2EPKc.exit6137

cond.false.i6133:                                 ; preds = %_ZN4llvh9StringRefC2EPKc.exit6127
  br label %_ZN4llvh9StringRefC2EPKc.exit6137

_ZN4llvh9StringRefC2EPKc.exit6137:                ; preds = %cond.false.i6133, %cond.true.i6135
  %cond.i6134 = phi i64 [ %call.i6136, %cond.true.i6135 ], [ 0, %cond.false.i6133 ]
  store i64 %cond.i6134, ptr %Length.i6131, align 8
  %436 = getelementptr inbounds { ptr, i64 }, ptr %agg.tmp358, i32 0, i32 0
  %437 = load ptr, ptr %436, align 8
  %438 = getelementptr inbounds { ptr, i64 }, ptr %agg.tmp358, i32 0, i32 1
  %439 = load i64, ptr %438, align 8
  %call359 = call noundef i32 @"_ZZL11initClassesvENK3$_1clEN4llvh9StringRefE"(ptr noundef nonnull align 1 dereferenceable(1) %type, ptr %437, i64 %439)
  store i32 %call359, ptr %ref.tmp357, align 4
  store i8 0, ptr %ref.tmp360, align 1
  %call361 = call noundef nonnull align 8 dereferenceable(41) ptr @_ZNSt6vectorI5FieldSaIS0_EE12emplace_backIJ9FieldTypeRA5_KcbEEERS0_DpOT_(ptr noundef nonnull align 8 dereferenceable(24) %fields356, ptr noundef nonnull align 4 dereferenceable(4) %ref.tmp357, ptr noundef nonnull align 1 dereferenceable(5) @.str.41, ptr noundef nonnull align 1 dereferenceable(1) %ref.tmp360)
  %call362 = call noundef nonnull align 8 dereferenceable(96) ptr @_ZNSt6vectorI9TreeClassSaIS0_EE4backEv(ptr noundef nonnull align 8 dereferenceable(24) @_ZL12treeClasses_) #3
  %fields363 = getelementptr inbounds %struct.TreeClass, ptr %call362, i32 0, i32 3
  store ptr %agg.tmp365, ptr %this.addr.i6138, align 8
  store ptr @.str.20, ptr %Str.addr.i6139, align 8
  %this1.i6140 = load ptr, ptr %this.addr.i6138, align 8
  %440 = load ptr, ptr %Str.addr.i6139, align 8
  store ptr %440, ptr %this1.i6140, align 8
  %Length.i6141 = getelementptr inbounds %"class.llvh::StringRef", ptr %this1.i6140, i32 0, i32 1
  %441 = load ptr, ptr %Str.addr.i6139, align 8
  %tobool.i6142 = icmp ne ptr %441, null
  br i1 %tobool.i6142, label %cond.true.i6145, label %cond.false.i6143

cond.true.i6145:                                  ; preds = %_ZN4llvh9StringRefC2EPKc.exit6137
  %442 = load ptr, ptr %Str.addr.i6139, align 8
  %call.i6146 = call i64 @strlen(ptr noundef %442) #12
  br label %_ZN4llvh9StringRefC2EPKc.exit6147

cond.false.i6143:                                 ; preds = %_ZN4llvh9StringRefC2EPKc.exit6137
  br label %_ZN4llvh9StringRefC2EPKc.exit6147

_ZN4llvh9StringRefC2EPKc.exit6147:                ; preds = %cond.false.i6143, %cond.true.i6145
  %cond.i6144 = phi i64 [ %call.i6146, %cond.true.i6145 ], [ 0, %cond.false.i6143 ]
  store i64 %cond.i6144, ptr %Length.i6141, align 8
  %443 = getelementptr inbounds { ptr, i64 }, ptr %agg.tmp365, i32 0, i32 0
  %444 = load ptr, ptr %443, align 8
  %445 = getelementptr inbounds { ptr, i64 }, ptr %agg.tmp365, i32 0, i32 1
  %446 = load i64, ptr %445, align 8
  %call366 = call noundef i32 @"_ZZL11initClassesvENK3$_1clEN4llvh9StringRefE"(ptr noundef nonnull align 1 dereferenceable(1) %type, ptr %444, i64 %446)
  store i32 %call366, ptr %ref.tmp364, align 4
  store i8 0, ptr %ref.tmp367, align 1
  %call368 = call noundef nonnull align 8 dereferenceable(41) ptr @_ZNSt6vectorI5FieldSaIS0_EE12emplace_backIJ9FieldTypeRA6_KcbEEERS0_DpOT_(ptr noundef nonnull align 8 dereferenceable(24) %fields363, ptr noundef nonnull align 4 dereferenceable(4) %ref.tmp364, ptr noundef nonnull align 1 dereferenceable(6) @.str.42, ptr noundef nonnull align 1 dereferenceable(1) %ref.tmp367)
  %call369 = call noundef nonnull align 8 dereferenceable(96) ptr @_ZNSt6vectorI9TreeClassSaIS0_EE4backEv(ptr noundef nonnull align 8 dereferenceable(24) @_ZL12treeClasses_) #3
  %fields370 = getelementptr inbounds %struct.TreeClass, ptr %call369, i32 0, i32 3
  store ptr %agg.tmp372, ptr %this.addr.i6148, align 8
  store ptr @.str.20, ptr %Str.addr.i6149, align 8
  %this1.i6150 = load ptr, ptr %this.addr.i6148, align 8
  %447 = load ptr, ptr %Str.addr.i6149, align 8
  store ptr %447, ptr %this1.i6150, align 8
  %Length.i6151 = getelementptr inbounds %"class.llvh::StringRef", ptr %this1.i6150, i32 0, i32 1
  %448 = load ptr, ptr %Str.addr.i6149, align 8
  %tobool.i6152 = icmp ne ptr %448, null
  br i1 %tobool.i6152, label %cond.true.i6155, label %cond.false.i6153

cond.true.i6155:                                  ; preds = %_ZN4llvh9StringRefC2EPKc.exit6147
  %449 = load ptr, ptr %Str.addr.i6149, align 8
  %call.i6156 = call i64 @strlen(ptr noundef %449) #12
  br label %_ZN4llvh9StringRefC2EPKc.exit6157

cond.false.i6153:                                 ; preds = %_ZN4llvh9StringRefC2EPKc.exit6147
  br label %_ZN4llvh9StringRefC2EPKc.exit6157

_ZN4llvh9StringRefC2EPKc.exit6157:                ; preds = %cond.false.i6153, %cond.true.i6155
  %cond.i6154 = phi i64 [ %call.i6156, %cond.true.i6155 ], [ 0, %cond.false.i6153 ]
  store i64 %cond.i6154, ptr %Length.i6151, align 8
  %450 = getelementptr inbounds { ptr, i64 }, ptr %agg.tmp372, i32 0, i32 0
  %451 = load ptr, ptr %450, align 8
  %452 = getelementptr inbounds { ptr, i64 }, ptr %agg.tmp372, i32 0, i32 1
  %453 = load i64, ptr %452, align 8
  %call373 = call noundef i32 @"_ZZL11initClassesvENK3$_1clEN4llvh9StringRefE"(ptr noundef nonnull align 1 dereferenceable(1) %type, ptr %451, i64 %453)
  store i32 %call373, ptr %ref.tmp371, align 4
  store i8 0, ptr %ref.tmp374, align 1
  %call375 = call noundef nonnull align 8 dereferenceable(41) ptr @_ZNSt6vectorI5FieldSaIS0_EE12emplace_backIJ9FieldTypeRA5_KcbEEERS0_DpOT_(ptr noundef nonnull align 8 dereferenceable(24) %fields370, ptr noundef nonnull align 4 dereferenceable(4) %ref.tmp371, ptr noundef nonnull align 1 dereferenceable(5) @.str.18, ptr noundef nonnull align 1 dereferenceable(1) %ref.tmp374)
  store ptr %agg.tmp377, ptr %this.addr.i6158, align 8
  store ptr @.str.36, ptr %Str.addr.i6159, align 8
  %this1.i6160 = load ptr, ptr %this.addr.i6158, align 8
  %454 = load ptr, ptr %Str.addr.i6159, align 8
  store ptr %454, ptr %this1.i6160, align 8
  %Length.i6161 = getelementptr inbounds %"class.llvh::StringRef", ptr %this1.i6160, i32 0, i32 1
  %455 = load ptr, ptr %Str.addr.i6159, align 8
  %tobool.i6162 = icmp ne ptr %455, null
  br i1 %tobool.i6162, label %cond.true.i6165, label %cond.false.i6163

cond.true.i6165:                                  ; preds = %_ZN4llvh9StringRefC2EPKc.exit6157
  %456 = load ptr, ptr %Str.addr.i6159, align 8
  %call.i6166 = call i64 @strlen(ptr noundef %456) #12
  br label %_ZN4llvh9StringRefC2EPKc.exit6167

cond.false.i6163:                                 ; preds = %_ZN4llvh9StringRefC2EPKc.exit6157
  br label %_ZN4llvh9StringRefC2EPKc.exit6167

_ZN4llvh9StringRefC2EPKc.exit6167:                ; preds = %cond.false.i6163, %cond.true.i6165
  %cond.i6164 = phi i64 [ %call.i6166, %cond.true.i6165 ], [ 0, %cond.false.i6163 ]
  store i64 %cond.i6164, ptr %Length.i6161, align 8
  %457 = getelementptr inbounds { ptr, i64 }, ptr %agg.tmp377, i32 0, i32 0
  %458 = load ptr, ptr %457, align 8
  %459 = getelementptr inbounds { ptr, i64 }, ptr %agg.tmp377, i32 0, i32 1
  %460 = load i64, ptr %459, align 8
  %call378 = call { ptr, i64 } @"_ZZL11initClassesvENK3$_0clEN4llvh9StringRefE"(ptr noundef nonnull align 1 dereferenceable(1) %baseName, ptr %458, i64 %460)
  %461 = getelementptr inbounds { ptr, i64 }, ptr %ref.tmp376, i32 0, i32 0
  %462 = extractvalue { ptr, i64 } %call378, 0
  store ptr %462, ptr %461, align 8
  %463 = getelementptr inbounds { ptr, i64 }, ptr %ref.tmp376, i32 0, i32 1
  %464 = extractvalue { ptr, i64 } %call378, 1
  store i64 %464, ptr %463, align 8
  %call379 = call noundef nonnull align 8 dereferenceable(96) ptr @_ZNSt6vectorI9TreeClassSaIS0_EE12emplace_backIJRA15_KcN4llvh9StringRefEEEERS0_DpOT_(ptr noundef nonnull align 8 dereferenceable(24) @_ZL12treeClasses_, ptr noundef nonnull align 1 dereferenceable(15) @.str.43, ptr noundef nonnull align 8 dereferenceable(16) %ref.tmp376)
  %call381 = call noundef i64 @_ZNKSt6vectorI9TreeClassSaIS0_EE4sizeEv(ptr noundef nonnull align 8 dereferenceable(24) @_ZL12treeClasses_) #3
  %sub382 = sub i64 %call381, 1
  store i64 %sub382, ptr %ref.tmp380, align 8
  %call383 = call { ptr, i8 } @_ZNSt3mapINSt7__cxx1112basic_stringIcSt11char_traitsIcESaIcEEEmSt4lessIS5_ESaISt4pairIKS5_mEEE7emplaceIJRA15_KcmEEES8_ISt17_Rb_tree_iteratorISA_EbEDpOT_(ptr noundef nonnull align 8 dereferenceable(48) @_ZL10treeNames_B5cxx11, ptr noundef nonnull align 1 dereferenceable(15) @.str.43, ptr noundef nonnull align 8 dereferenceable(8) %ref.tmp380)
  %465 = getelementptr inbounds { ptr, i8 }, ptr %coerce384, i32 0, i32 0
  %466 = extractvalue { ptr, i8 } %call383, 0
  store ptr %466, ptr %465, align 8
  %467 = getelementptr inbounds { ptr, i8 }, ptr %coerce384, i32 0, i32 1
  %468 = extractvalue { ptr, i8 } %call383, 1
  store i8 %468, ptr %467, align 8
  %call385 = call noundef nonnull align 8 dereferenceable(96) ptr @_ZNSt6vectorI9TreeClassSaIS0_EE4backEv(ptr noundef nonnull align 8 dereferenceable(24) @_ZL12treeClasses_) #3
  %fields386 = getelementptr inbounds %struct.TreeClass, ptr %call385, i32 0, i32 3
  store ptr %agg.tmp388, ptr %this.addr.i6168, align 8
  store ptr @.str.20, ptr %Str.addr.i6169, align 8
  %this1.i6170 = load ptr, ptr %this.addr.i6168, align 8
  %469 = load ptr, ptr %Str.addr.i6169, align 8
  store ptr %469, ptr %this1.i6170, align 8
  %Length.i6171 = getelementptr inbounds %"class.llvh::StringRef", ptr %this1.i6170, i32 0, i32 1
  %470 = load ptr, ptr %Str.addr.i6169, align 8
  %tobool.i6172 = icmp ne ptr %470, null
  br i1 %tobool.i6172, label %cond.true.i6175, label %cond.false.i6173

cond.true.i6175:                                  ; preds = %_ZN4llvh9StringRefC2EPKc.exit6167
  %471 = load ptr, ptr %Str.addr.i6169, align 8
  %call.i6176 = call i64 @strlen(ptr noundef %471) #12
  br label %_ZN4llvh9StringRefC2EPKc.exit6177

cond.false.i6173:                                 ; preds = %_ZN4llvh9StringRefC2EPKc.exit6167
  br label %_ZN4llvh9StringRefC2EPKc.exit6177

_ZN4llvh9StringRefC2EPKc.exit6177:                ; preds = %cond.false.i6173, %cond.true.i6175
  %cond.i6174 = phi i64 [ %call.i6176, %cond.true.i6175 ], [ 0, %cond.false.i6173 ]
  store i64 %cond.i6174, ptr %Length.i6171, align 8
  %472 = getelementptr inbounds { ptr, i64 }, ptr %agg.tmp388, i32 0, i32 0
  %473 = load ptr, ptr %472, align 8
  %474 = getelementptr inbounds { ptr, i64 }, ptr %agg.tmp388, i32 0, i32 1
  %475 = load i64, ptr %474, align 8
  %call389 = call noundef i32 @"_ZZL11initClassesvENK3$_1clEN4llvh9StringRefE"(ptr noundef nonnull align 1 dereferenceable(1) %type, ptr %473, i64 %475)
  store i32 %call389, ptr %ref.tmp387, align 4
  store i8 0, ptr %ref.tmp390, align 1
  %call391 = call noundef nonnull align 8 dereferenceable(41) ptr @_ZNSt6vectorI5FieldSaIS0_EE12emplace_backIJ9FieldTypeRA5_KcbEEERS0_DpOT_(ptr noundef nonnull align 8 dereferenceable(24) %fields386, ptr noundef nonnull align 4 dereferenceable(4) %ref.tmp387, ptr noundef nonnull align 1 dereferenceable(5) @.str.41, ptr noundef nonnull align 1 dereferenceable(1) %ref.tmp390)
  %call392 = call noundef nonnull align 8 dereferenceable(96) ptr @_ZNSt6vectorI9TreeClassSaIS0_EE4backEv(ptr noundef nonnull align 8 dereferenceable(24) @_ZL12treeClasses_) #3
  %fields393 = getelementptr inbounds %struct.TreeClass, ptr %call392, i32 0, i32 3
  store ptr %agg.tmp395, ptr %this.addr.i6178, align 8
  store ptr @.str.20, ptr %Str.addr.i6179, align 8
  %this1.i6180 = load ptr, ptr %this.addr.i6178, align 8
  %476 = load ptr, ptr %Str.addr.i6179, align 8
  store ptr %476, ptr %this1.i6180, align 8
  %Length.i6181 = getelementptr inbounds %"class.llvh::StringRef", ptr %this1.i6180, i32 0, i32 1
  %477 = load ptr, ptr %Str.addr.i6179, align 8
  %tobool.i6182 = icmp ne ptr %477, null
  br i1 %tobool.i6182, label %cond.true.i6185, label %cond.false.i6183

cond.true.i6185:                                  ; preds = %_ZN4llvh9StringRefC2EPKc.exit6177
  %478 = load ptr, ptr %Str.addr.i6179, align 8
  %call.i6186 = call i64 @strlen(ptr noundef %478) #12
  br label %_ZN4llvh9StringRefC2EPKc.exit6187

cond.false.i6183:                                 ; preds = %_ZN4llvh9StringRefC2EPKc.exit6177
  br label %_ZN4llvh9StringRefC2EPKc.exit6187

_ZN4llvh9StringRefC2EPKc.exit6187:                ; preds = %cond.false.i6183, %cond.true.i6185
  %cond.i6184 = phi i64 [ %call.i6186, %cond.true.i6185 ], [ 0, %cond.false.i6183 ]
  store i64 %cond.i6184, ptr %Length.i6181, align 8
  %479 = getelementptr inbounds { ptr, i64 }, ptr %agg.tmp395, i32 0, i32 0
  %480 = load ptr, ptr %479, align 8
  %481 = getelementptr inbounds { ptr, i64 }, ptr %agg.tmp395, i32 0, i32 1
  %482 = load i64, ptr %481, align 8
  %call396 = call noundef i32 @"_ZZL11initClassesvENK3$_1clEN4llvh9StringRefE"(ptr noundef nonnull align 1 dereferenceable(1) %type, ptr %480, i64 %482)
  store i32 %call396, ptr %ref.tmp394, align 4
  store i8 0, ptr %ref.tmp397, align 1
  %call398 = call noundef nonnull align 8 dereferenceable(41) ptr @_ZNSt6vectorI5FieldSaIS0_EE12emplace_backIJ9FieldTypeRA6_KcbEEERS0_DpOT_(ptr noundef nonnull align 8 dereferenceable(24) %fields393, ptr noundef nonnull align 4 dereferenceable(4) %ref.tmp394, ptr noundef nonnull align 1 dereferenceable(6) @.str.42, ptr noundef nonnull align 1 dereferenceable(1) %ref.tmp397)
  %call399 = call noundef nonnull align 8 dereferenceable(96) ptr @_ZNSt6vectorI9TreeClassSaIS0_EE4backEv(ptr noundef nonnull align 8 dereferenceable(24) @_ZL12treeClasses_) #3
  %fields400 = getelementptr inbounds %struct.TreeClass, ptr %call399, i32 0, i32 3
  store ptr %agg.tmp402, ptr %this.addr.i6188, align 8
  store ptr @.str.20, ptr %Str.addr.i6189, align 8
  %this1.i6190 = load ptr, ptr %this.addr.i6188, align 8
  %483 = load ptr, ptr %Str.addr.i6189, align 8
  store ptr %483, ptr %this1.i6190, align 8
  %Length.i6191 = getelementptr inbounds %"class.llvh::StringRef", ptr %this1.i6190, i32 0, i32 1
  %484 = load ptr, ptr %Str.addr.i6189, align 8
  %tobool.i6192 = icmp ne ptr %484, null
  br i1 %tobool.i6192, label %cond.true.i6195, label %cond.false.i6193

cond.true.i6195:                                  ; preds = %_ZN4llvh9StringRefC2EPKc.exit6187
  %485 = load ptr, ptr %Str.addr.i6189, align 8
  %call.i6196 = call i64 @strlen(ptr noundef %485) #12
  br label %_ZN4llvh9StringRefC2EPKc.exit6197

cond.false.i6193:                                 ; preds = %_ZN4llvh9StringRefC2EPKc.exit6187
  br label %_ZN4llvh9StringRefC2EPKc.exit6197

_ZN4llvh9StringRefC2EPKc.exit6197:                ; preds = %cond.false.i6193, %cond.true.i6195
  %cond.i6194 = phi i64 [ %call.i6196, %cond.true.i6195 ], [ 0, %cond.false.i6193 ]
  store i64 %cond.i6194, ptr %Length.i6191, align 8
  %486 = getelementptr inbounds { ptr, i64 }, ptr %agg.tmp402, i32 0, i32 0
  %487 = load ptr, ptr %486, align 8
  %488 = getelementptr inbounds { ptr, i64 }, ptr %agg.tmp402, i32 0, i32 1
  %489 = load i64, ptr %488, align 8
  %call403 = call noundef i32 @"_ZZL11initClassesvENK3$_1clEN4llvh9StringRefE"(ptr noundef nonnull align 1 dereferenceable(1) %type, ptr %487, i64 %489)
  store i32 %call403, ptr %ref.tmp401, align 4
  store i8 0, ptr %ref.tmp404, align 1
  %call405 = call noundef nonnull align 8 dereferenceable(41) ptr @_ZNSt6vectorI5FieldSaIS0_EE12emplace_backIJ9FieldTypeRA5_KcbEEERS0_DpOT_(ptr noundef nonnull align 8 dereferenceable(24) %fields400, ptr noundef nonnull align 4 dereferenceable(4) %ref.tmp401, ptr noundef nonnull align 1 dereferenceable(5) @.str.18, ptr noundef nonnull align 1 dereferenceable(1) %ref.tmp404)
  %call406 = call noundef nonnull align 8 dereferenceable(96) ptr @_ZNSt6vectorI9TreeClassSaIS0_EE4backEv(ptr noundef nonnull align 8 dereferenceable(24) @_ZL12treeClasses_) #3
  %fields407 = getelementptr inbounds %struct.TreeClass, ptr %call406, i32 0, i32 3
  store ptr %agg.tmp409, ptr %this.addr.i6198, align 8
  store ptr @.str.26, ptr %Str.addr.i6199, align 8
  %this1.i6200 = load ptr, ptr %this.addr.i6198, align 8
  %490 = load ptr, ptr %Str.addr.i6199, align 8
  store ptr %490, ptr %this1.i6200, align 8
  %Length.i6201 = getelementptr inbounds %"class.llvh::StringRef", ptr %this1.i6200, i32 0, i32 1
  %491 = load ptr, ptr %Str.addr.i6199, align 8
  %tobool.i6202 = icmp ne ptr %491, null
  br i1 %tobool.i6202, label %cond.true.i6205, label %cond.false.i6203

cond.true.i6205:                                  ; preds = %_ZN4llvh9StringRefC2EPKc.exit6197
  %492 = load ptr, ptr %Str.addr.i6199, align 8
  %call.i6206 = call i64 @strlen(ptr noundef %492) #12
  br label %_ZN4llvh9StringRefC2EPKc.exit6207

cond.false.i6203:                                 ; preds = %_ZN4llvh9StringRefC2EPKc.exit6197
  br label %_ZN4llvh9StringRefC2EPKc.exit6207

_ZN4llvh9StringRefC2EPKc.exit6207:                ; preds = %cond.false.i6203, %cond.true.i6205
  %cond.i6204 = phi i64 [ %call.i6206, %cond.true.i6205 ], [ 0, %cond.false.i6203 ]
  store i64 %cond.i6204, ptr %Length.i6201, align 8
  %493 = getelementptr inbounds { ptr, i64 }, ptr %agg.tmp409, i32 0, i32 0
  %494 = load ptr, ptr %493, align 8
  %495 = getelementptr inbounds { ptr, i64 }, ptr %agg.tmp409, i32 0, i32 1
  %496 = load i64, ptr %495, align 8
  %call410 = call noundef i32 @"_ZZL11initClassesvENK3$_1clEN4llvh9StringRefE"(ptr noundef nonnull align 1 dereferenceable(1) %type, ptr %494, i64 %496)
  store i32 %call410, ptr %ref.tmp408, align 4
  store i8 0, ptr %ref.tmp411, align 1
  %call412 = call noundef nonnull align 8 dereferenceable(41) ptr @_ZNSt6vectorI5FieldSaIS0_EE12emplace_backIJ9FieldTypeRA6_KcbEEERS0_DpOT_(ptr noundef nonnull align 8 dereferenceable(24) %fields407, ptr noundef nonnull align 4 dereferenceable(4) %ref.tmp408, ptr noundef nonnull align 1 dereferenceable(6) @.str.44, ptr noundef nonnull align 1 dereferenceable(1) %ref.tmp411)
  store ptr %agg.tmp414, ptr %this.addr.i6208, align 8
  store ptr @.str.36, ptr %Str.addr.i6209, align 8
  %this1.i6210 = load ptr, ptr %this.addr.i6208, align 8
  %497 = load ptr, ptr %Str.addr.i6209, align 8
  store ptr %497, ptr %this1.i6210, align 8
  %Length.i6211 = getelementptr inbounds %"class.llvh::StringRef", ptr %this1.i6210, i32 0, i32 1
  %498 = load ptr, ptr %Str.addr.i6209, align 8
  %tobool.i6212 = icmp ne ptr %498, null
  br i1 %tobool.i6212, label %cond.true.i6215, label %cond.false.i6213

cond.true.i6215:                                  ; preds = %_ZN4llvh9StringRefC2EPKc.exit6207
  %499 = load ptr, ptr %Str.addr.i6209, align 8
  %call.i6216 = call i64 @strlen(ptr noundef %499) #12
  br label %_ZN4llvh9StringRefC2EPKc.exit6217

cond.false.i6213:                                 ; preds = %_ZN4llvh9StringRefC2EPKc.exit6207
  br label %_ZN4llvh9StringRefC2EPKc.exit6217

_ZN4llvh9StringRefC2EPKc.exit6217:                ; preds = %cond.false.i6213, %cond.true.i6215
  %cond.i6214 = phi i64 [ %call.i6216, %cond.true.i6215 ], [ 0, %cond.false.i6213 ]
  store i64 %cond.i6214, ptr %Length.i6211, align 8
  %500 = getelementptr inbounds { ptr, i64 }, ptr %agg.tmp414, i32 0, i32 0
  %501 = load ptr, ptr %500, align 8
  %502 = getelementptr inbounds { ptr, i64 }, ptr %agg.tmp414, i32 0, i32 1
  %503 = load i64, ptr %502, align 8
  %call415 = call { ptr, i64 } @"_ZZL11initClassesvENK3$_0clEN4llvh9StringRefE"(ptr noundef nonnull align 1 dereferenceable(1) %baseName, ptr %501, i64 %503)
  %504 = getelementptr inbounds { ptr, i64 }, ptr %ref.tmp413, i32 0, i32 0
  %505 = extractvalue { ptr, i64 } %call415, 0
  store ptr %505, ptr %504, align 8
  %506 = getelementptr inbounds { ptr, i64 }, ptr %ref.tmp413, i32 0, i32 1
  %507 = extractvalue { ptr, i64 } %call415, 1
  store i64 %507, ptr %506, align 8
  %call416 = call noundef nonnull align 8 dereferenceable(96) ptr @_ZNSt6vectorI9TreeClassSaIS0_EE12emplace_backIJRA13_KcN4llvh9StringRefEEEERS0_DpOT_(ptr noundef nonnull align 8 dereferenceable(24) @_ZL12treeClasses_, ptr noundef nonnull align 1 dereferenceable(13) @.str.45, ptr noundef nonnull align 8 dereferenceable(16) %ref.tmp413)
  %call418 = call noundef i64 @_ZNKSt6vectorI9TreeClassSaIS0_EE4sizeEv(ptr noundef nonnull align 8 dereferenceable(24) @_ZL12treeClasses_) #3
  %sub419 = sub i64 %call418, 1
  store i64 %sub419, ptr %ref.tmp417, align 8
  %call420 = call { ptr, i8 } @_ZNSt3mapINSt7__cxx1112basic_stringIcSt11char_traitsIcESaIcEEEmSt4lessIS5_ESaISt4pairIKS5_mEEE7emplaceIJRA13_KcmEEES8_ISt17_Rb_tree_iteratorISA_EbEDpOT_(ptr noundef nonnull align 8 dereferenceable(48) @_ZL10treeNames_B5cxx11, ptr noundef nonnull align 1 dereferenceable(13) @.str.45, ptr noundef nonnull align 8 dereferenceable(8) %ref.tmp417)
  %508 = getelementptr inbounds { ptr, i8 }, ptr %coerce421, i32 0, i32 0
  %509 = extractvalue { ptr, i8 } %call420, 0
  store ptr %509, ptr %508, align 8
  %510 = getelementptr inbounds { ptr, i8 }, ptr %coerce421, i32 0, i32 1
  %511 = extractvalue { ptr, i8 } %call420, 1
  store i8 %511, ptr %510, align 8
  %call422 = call noundef nonnull align 8 dereferenceable(96) ptr @_ZNSt6vectorI9TreeClassSaIS0_EE4backEv(ptr noundef nonnull align 8 dereferenceable(24) @_ZL12treeClasses_) #3
  %fields423 = getelementptr inbounds %struct.TreeClass, ptr %call422, i32 0, i32 3
  store ptr %agg.tmp425, ptr %this.addr.i6218, align 8
  store ptr @.str.20, ptr %Str.addr.i6219, align 8
  %this1.i6220 = load ptr, ptr %this.addr.i6218, align 8
  %512 = load ptr, ptr %Str.addr.i6219, align 8
  store ptr %512, ptr %this1.i6220, align 8
  %Length.i6221 = getelementptr inbounds %"class.llvh::StringRef", ptr %this1.i6220, i32 0, i32 1
  %513 = load ptr, ptr %Str.addr.i6219, align 8
  %tobool.i6222 = icmp ne ptr %513, null
  br i1 %tobool.i6222, label %cond.true.i6225, label %cond.false.i6223

cond.true.i6225:                                  ; preds = %_ZN4llvh9StringRefC2EPKc.exit6217
  %514 = load ptr, ptr %Str.addr.i6219, align 8
  %call.i6226 = call i64 @strlen(ptr noundef %514) #12
  br label %_ZN4llvh9StringRefC2EPKc.exit6227

cond.false.i6223:                                 ; preds = %_ZN4llvh9StringRefC2EPKc.exit6217
  br label %_ZN4llvh9StringRefC2EPKc.exit6227

_ZN4llvh9StringRefC2EPKc.exit6227:                ; preds = %cond.false.i6223, %cond.true.i6225
  %cond.i6224 = phi i64 [ %call.i6226, %cond.true.i6225 ], [ 0, %cond.false.i6223 ]
  store i64 %cond.i6224, ptr %Length.i6221, align 8
  %515 = getelementptr inbounds { ptr, i64 }, ptr %agg.tmp425, i32 0, i32 0
  %516 = load ptr, ptr %515, align 8
  %517 = getelementptr inbounds { ptr, i64 }, ptr %agg.tmp425, i32 0, i32 1
  %518 = load i64, ptr %517, align 8
  %call426 = call noundef i32 @"_ZZL11initClassesvENK3$_1clEN4llvh9StringRefE"(ptr noundef nonnull align 1 dereferenceable(1) %type, ptr %516, i64 %518)
  store i32 %call426, ptr %ref.tmp424, align 4
  store i8 1, ptr %ref.tmp427, align 1
  %call428 = call noundef nonnull align 8 dereferenceable(41) ptr @_ZNSt6vectorI5FieldSaIS0_EE12emplace_backIJ9FieldTypeRA5_KcbEEERS0_DpOT_(ptr noundef nonnull align 8 dereferenceable(24) %fields423, ptr noundef nonnull align 4 dereferenceable(4) %ref.tmp424, ptr noundef nonnull align 1 dereferenceable(5) @.str.46, ptr noundef nonnull align 1 dereferenceable(1) %ref.tmp427)
  %call429 = call noundef nonnull align 8 dereferenceable(96) ptr @_ZNSt6vectorI9TreeClassSaIS0_EE4backEv(ptr noundef nonnull align 8 dereferenceable(24) @_ZL12treeClasses_) #3
  %fields430 = getelementptr inbounds %struct.TreeClass, ptr %call429, i32 0, i32 3
  store ptr %agg.tmp432, ptr %this.addr.i6228, align 8
  store ptr @.str.20, ptr %Str.addr.i6229, align 8
  %this1.i6230 = load ptr, ptr %this.addr.i6228, align 8
  %519 = load ptr, ptr %Str.addr.i6229, align 8
  store ptr %519, ptr %this1.i6230, align 8
  %Length.i6231 = getelementptr inbounds %"class.llvh::StringRef", ptr %this1.i6230, i32 0, i32 1
  %520 = load ptr, ptr %Str.addr.i6229, align 8
  %tobool.i6232 = icmp ne ptr %520, null
  br i1 %tobool.i6232, label %cond.true.i6235, label %cond.false.i6233

cond.true.i6235:                                  ; preds = %_ZN4llvh9StringRefC2EPKc.exit6227
  %521 = load ptr, ptr %Str.addr.i6229, align 8
  %call.i6236 = call i64 @strlen(ptr noundef %521) #12
  br label %_ZN4llvh9StringRefC2EPKc.exit6237

cond.false.i6233:                                 ; preds = %_ZN4llvh9StringRefC2EPKc.exit6227
  br label %_ZN4llvh9StringRefC2EPKc.exit6237

_ZN4llvh9StringRefC2EPKc.exit6237:                ; preds = %cond.false.i6233, %cond.true.i6235
  %cond.i6234 = phi i64 [ %call.i6236, %cond.true.i6235 ], [ 0, %cond.false.i6233 ]
  store i64 %cond.i6234, ptr %Length.i6231, align 8
  %522 = getelementptr inbounds { ptr, i64 }, ptr %agg.tmp432, i32 0, i32 0
  %523 = load ptr, ptr %522, align 8
  %524 = getelementptr inbounds { ptr, i64 }, ptr %agg.tmp432, i32 0, i32 1
  %525 = load i64, ptr %524, align 8
  %call433 = call noundef i32 @"_ZZL11initClassesvENK3$_1clEN4llvh9StringRefE"(ptr noundef nonnull align 1 dereferenceable(1) %type, ptr %523, i64 %525)
  store i32 %call433, ptr %ref.tmp431, align 4
  store i8 1, ptr %ref.tmp434, align 1
  %call435 = call noundef nonnull align 8 dereferenceable(41) ptr @_ZNSt6vectorI5FieldSaIS0_EE12emplace_backIJ9FieldTypeRA5_KcbEEERS0_DpOT_(ptr noundef nonnull align 8 dereferenceable(24) %fields430, ptr noundef nonnull align 4 dereferenceable(4) %ref.tmp431, ptr noundef nonnull align 1 dereferenceable(5) @.str.38, ptr noundef nonnull align 1 dereferenceable(1) %ref.tmp434)
  %call436 = call noundef nonnull align 8 dereferenceable(96) ptr @_ZNSt6vectorI9TreeClassSaIS0_EE4backEv(ptr noundef nonnull align 8 dereferenceable(24) @_ZL12treeClasses_) #3
  %fields437 = getelementptr inbounds %struct.TreeClass, ptr %call436, i32 0, i32 3
  store ptr %agg.tmp439, ptr %this.addr.i6238, align 8
  store ptr @.str.20, ptr %Str.addr.i6239, align 8
  %this1.i6240 = load ptr, ptr %this.addr.i6238, align 8
  %526 = load ptr, ptr %Str.addr.i6239, align 8
  store ptr %526, ptr %this1.i6240, align 8
  %Length.i6241 = getelementptr inbounds %"class.llvh::StringRef", ptr %this1.i6240, i32 0, i32 1
  %527 = load ptr, ptr %Str.addr.i6239, align 8
  %tobool.i6242 = icmp ne ptr %527, null
  br i1 %tobool.i6242, label %cond.true.i6245, label %cond.false.i6243

cond.true.i6245:                                  ; preds = %_ZN4llvh9StringRefC2EPKc.exit6237
  %528 = load ptr, ptr %Str.addr.i6239, align 8
  %call.i6246 = call i64 @strlen(ptr noundef %528) #12
  br label %_ZN4llvh9StringRefC2EPKc.exit6247

cond.false.i6243:                                 ; preds = %_ZN4llvh9StringRefC2EPKc.exit6237
  br label %_ZN4llvh9StringRefC2EPKc.exit6247

_ZN4llvh9StringRefC2EPKc.exit6247:                ; preds = %cond.false.i6243, %cond.true.i6245
  %cond.i6244 = phi i64 [ %call.i6246, %cond.true.i6245 ], [ 0, %cond.false.i6243 ]
  store i64 %cond.i6244, ptr %Length.i6241, align 8
  %529 = getelementptr inbounds { ptr, i64 }, ptr %agg.tmp439, i32 0, i32 0
  %530 = load ptr, ptr %529, align 8
  %531 = getelementptr inbounds { ptr, i64 }, ptr %agg.tmp439, i32 0, i32 1
  %532 = load i64, ptr %531, align 8
  %call440 = call noundef i32 @"_ZZL11initClassesvENK3$_1clEN4llvh9StringRefE"(ptr noundef nonnull align 1 dereferenceable(1) %type, ptr %530, i64 %532)
  store i32 %call440, ptr %ref.tmp438, align 4
  store i8 1, ptr %ref.tmp441, align 1
  %call442 = call noundef nonnull align 8 dereferenceable(41) ptr @_ZNSt6vectorI5FieldSaIS0_EE12emplace_backIJ9FieldTypeRA7_KcbEEERS0_DpOT_(ptr noundef nonnull align 8 dereferenceable(24) %fields437, ptr noundef nonnull align 4 dereferenceable(4) %ref.tmp438, ptr noundef nonnull align 1 dereferenceable(7) @.str.47, ptr noundef nonnull align 1 dereferenceable(1) %ref.tmp441)
  %call443 = call noundef nonnull align 8 dereferenceable(96) ptr @_ZNSt6vectorI9TreeClassSaIS0_EE4backEv(ptr noundef nonnull align 8 dereferenceable(24) @_ZL12treeClasses_) #3
  %fields444 = getelementptr inbounds %struct.TreeClass, ptr %call443, i32 0, i32 3
  store ptr %agg.tmp446, ptr %this.addr.i6248, align 8
  store ptr @.str.20, ptr %Str.addr.i6249, align 8
  %this1.i6250 = load ptr, ptr %this.addr.i6248, align 8
  %533 = load ptr, ptr %Str.addr.i6249, align 8
  store ptr %533, ptr %this1.i6250, align 8
  %Length.i6251 = getelementptr inbounds %"class.llvh::StringRef", ptr %this1.i6250, i32 0, i32 1
  %534 = load ptr, ptr %Str.addr.i6249, align 8
  %tobool.i6252 = icmp ne ptr %534, null
  br i1 %tobool.i6252, label %cond.true.i6255, label %cond.false.i6253

cond.true.i6255:                                  ; preds = %_ZN4llvh9StringRefC2EPKc.exit6247
  %535 = load ptr, ptr %Str.addr.i6249, align 8
  %call.i6256 = call i64 @strlen(ptr noundef %535) #12
  br label %_ZN4llvh9StringRefC2EPKc.exit6257

cond.false.i6253:                                 ; preds = %_ZN4llvh9StringRefC2EPKc.exit6247
  br label %_ZN4llvh9StringRefC2EPKc.exit6257

_ZN4llvh9StringRefC2EPKc.exit6257:                ; preds = %cond.false.i6253, %cond.true.i6255
  %cond.i6254 = phi i64 [ %call.i6256, %cond.true.i6255 ], [ 0, %cond.false.i6253 ]
  store i64 %cond.i6254, ptr %Length.i6251, align 8
  %536 = getelementptr inbounds { ptr, i64 }, ptr %agg.tmp446, i32 0, i32 0
  %537 = load ptr, ptr %536, align 8
  %538 = getelementptr inbounds { ptr, i64 }, ptr %agg.tmp446, i32 0, i32 1
  %539 = load i64, ptr %538, align 8
  %call447 = call noundef i32 @"_ZZL11initClassesvENK3$_1clEN4llvh9StringRefE"(ptr noundef nonnull align 1 dereferenceable(1) %type, ptr %537, i64 %539)
  store i32 %call447, ptr %ref.tmp445, align 4
  store i8 0, ptr %ref.tmp448, align 1
  %call449 = call noundef nonnull align 8 dereferenceable(41) ptr @_ZNSt6vectorI5FieldSaIS0_EE12emplace_backIJ9FieldTypeRA5_KcbEEERS0_DpOT_(ptr noundef nonnull align 8 dereferenceable(24) %fields444, ptr noundef nonnull align 4 dereferenceable(4) %ref.tmp445, ptr noundef nonnull align 1 dereferenceable(5) @.str.18, ptr noundef nonnull align 1 dereferenceable(1) %ref.tmp448)
  store i32 2, ptr %ref.tmp450, align 4
  %call451 = call noundef nonnull align 8 dereferenceable(96) ptr @_ZNSt6vectorI9TreeClassSaIS0_EE12emplace_backIJRA14_KcRA1_S4_12SentinelTypeEEERS0_DpOT_(ptr noundef nonnull align 8 dereferenceable(24) @_ZL12treeClasses_, ptr noundef nonnull align 1 dereferenceable(14) @.str.36, ptr noundef nonnull align 1 dereferenceable(1) @.str.34, ptr noundef nonnull align 4 dereferenceable(4) %ref.tmp450)
  store ptr %agg.tmp453, ptr %this.addr.i6258, align 8
  store ptr @.str.35, ptr %Str.addr.i6259, align 8
  %this1.i6260 = load ptr, ptr %this.addr.i6258, align 8
  %540 = load ptr, ptr %Str.addr.i6259, align 8
  store ptr %540, ptr %this1.i6260, align 8
  %Length.i6261 = getelementptr inbounds %"class.llvh::StringRef", ptr %this1.i6260, i32 0, i32 1
  %541 = load ptr, ptr %Str.addr.i6259, align 8
  %tobool.i6262 = icmp ne ptr %541, null
  br i1 %tobool.i6262, label %cond.true.i6265, label %cond.false.i6263

cond.true.i6265:                                  ; preds = %_ZN4llvh9StringRefC2EPKc.exit6257
  %542 = load ptr, ptr %Str.addr.i6259, align 8
  %call.i6266 = call i64 @strlen(ptr noundef %542) #12
  br label %_ZN4llvh9StringRefC2EPKc.exit6267

cond.false.i6263:                                 ; preds = %_ZN4llvh9StringRefC2EPKc.exit6257
  br label %_ZN4llvh9StringRefC2EPKc.exit6267

_ZN4llvh9StringRefC2EPKc.exit6267:                ; preds = %cond.false.i6263, %cond.true.i6265
  %cond.i6264 = phi i64 [ %call.i6266, %cond.true.i6265 ], [ 0, %cond.false.i6263 ]
  store i64 %cond.i6264, ptr %Length.i6261, align 8
  %543 = getelementptr inbounds { ptr, i64 }, ptr %agg.tmp453, i32 0, i32 0
  %544 = load ptr, ptr %543, align 8
  %545 = getelementptr inbounds { ptr, i64 }, ptr %agg.tmp453, i32 0, i32 1
  %546 = load i64, ptr %545, align 8
  %call454 = call { ptr, i64 } @"_ZZL11initClassesvENK3$_0clEN4llvh9StringRefE"(ptr noundef nonnull align 1 dereferenceable(1) %baseName, ptr %544, i64 %546)
  %547 = getelementptr inbounds { ptr, i64 }, ptr %ref.tmp452, i32 0, i32 0
  %548 = extractvalue { ptr, i64 } %call454, 0
  store ptr %548, ptr %547, align 8
  %549 = getelementptr inbounds { ptr, i64 }, ptr %ref.tmp452, i32 0, i32 1
  %550 = extractvalue { ptr, i64 } %call454, 1
  store i64 %550, ptr %549, align 8
  %call455 = call noundef nonnull align 8 dereferenceable(96) ptr @_ZNSt6vectorI9TreeClassSaIS0_EE12emplace_backIJRA18_KcN4llvh9StringRefEEEERS0_DpOT_(ptr noundef nonnull align 8 dereferenceable(24) @_ZL12treeClasses_, ptr noundef nonnull align 1 dereferenceable(18) @.str.48, ptr noundef nonnull align 8 dereferenceable(16) %ref.tmp452)
  %call457 = call noundef i64 @_ZNKSt6vectorI9TreeClassSaIS0_EE4sizeEv(ptr noundef nonnull align 8 dereferenceable(24) @_ZL12treeClasses_) #3
  %sub458 = sub i64 %call457, 1
  store i64 %sub458, ptr %ref.tmp456, align 8
  %call459 = call { ptr, i8 } @_ZNSt3mapINSt7__cxx1112basic_stringIcSt11char_traitsIcESaIcEEEmSt4lessIS5_ESaISt4pairIKS5_mEEE7emplaceIJRA18_KcmEEES8_ISt17_Rb_tree_iteratorISA_EbEDpOT_(ptr noundef nonnull align 8 dereferenceable(48) @_ZL10treeNames_B5cxx11, ptr noundef nonnull align 1 dereferenceable(18) @.str.48, ptr noundef nonnull align 8 dereferenceable(8) %ref.tmp456)
  %551 = getelementptr inbounds { ptr, i8 }, ptr %coerce460, i32 0, i32 0
  %552 = extractvalue { ptr, i8 } %call459, 0
  store ptr %552, ptr %551, align 8
  %553 = getelementptr inbounds { ptr, i8 }, ptr %coerce460, i32 0, i32 1
  %554 = extractvalue { ptr, i8 } %call459, 1
  store i8 %554, ptr %553, align 8
  store ptr %agg.tmp462, ptr %this.addr.i6268, align 8
  store ptr @.str.35, ptr %Str.addr.i6269, align 8
  %this1.i6270 = load ptr, ptr %this.addr.i6268, align 8
  %555 = load ptr, ptr %Str.addr.i6269, align 8
  store ptr %555, ptr %this1.i6270, align 8
  %Length.i6271 = getelementptr inbounds %"class.llvh::StringRef", ptr %this1.i6270, i32 0, i32 1
  %556 = load ptr, ptr %Str.addr.i6269, align 8
  %tobool.i6272 = icmp ne ptr %556, null
  br i1 %tobool.i6272, label %cond.true.i6275, label %cond.false.i6273

cond.true.i6275:                                  ; preds = %_ZN4llvh9StringRefC2EPKc.exit6267
  %557 = load ptr, ptr %Str.addr.i6269, align 8
  %call.i6276 = call i64 @strlen(ptr noundef %557) #12
  br label %_ZN4llvh9StringRefC2EPKc.exit6277

cond.false.i6273:                                 ; preds = %_ZN4llvh9StringRefC2EPKc.exit6267
  br label %_ZN4llvh9StringRefC2EPKc.exit6277

_ZN4llvh9StringRefC2EPKc.exit6277:                ; preds = %cond.false.i6273, %cond.true.i6275
  %cond.i6274 = phi i64 [ %call.i6276, %cond.true.i6275 ], [ 0, %cond.false.i6273 ]
  store i64 %cond.i6274, ptr %Length.i6271, align 8
  %558 = getelementptr inbounds { ptr, i64 }, ptr %agg.tmp462, i32 0, i32 0
  %559 = load ptr, ptr %558, align 8
  %560 = getelementptr inbounds { ptr, i64 }, ptr %agg.tmp462, i32 0, i32 1
  %561 = load i64, ptr %560, align 8
  %call463 = call { ptr, i64 } @"_ZZL11initClassesvENK3$_0clEN4llvh9StringRefE"(ptr noundef nonnull align 1 dereferenceable(1) %baseName, ptr %559, i64 %561)
  %562 = getelementptr inbounds { ptr, i64 }, ptr %ref.tmp461, i32 0, i32 0
  %563 = extractvalue { ptr, i64 } %call463, 0
  store ptr %563, ptr %562, align 8
  %564 = getelementptr inbounds { ptr, i64 }, ptr %ref.tmp461, i32 0, i32 1
  %565 = extractvalue { ptr, i64 } %call463, 1
  store i64 %565, ptr %564, align 8
  %call464 = call noundef nonnull align 8 dereferenceable(96) ptr @_ZNSt6vectorI9TreeClassSaIS0_EE12emplace_backIJRA15_KcN4llvh9StringRefEEEERS0_DpOT_(ptr noundef nonnull align 8 dereferenceable(24) @_ZL12treeClasses_, ptr noundef nonnull align 1 dereferenceable(15) @.str.49, ptr noundef nonnull align 8 dereferenceable(16) %ref.tmp461)
  %call466 = call noundef i64 @_ZNKSt6vectorI9TreeClassSaIS0_EE4sizeEv(ptr noundef nonnull align 8 dereferenceable(24) @_ZL12treeClasses_) #3
  %sub467 = sub i64 %call466, 1
  store i64 %sub467, ptr %ref.tmp465, align 8
  %call468 = call { ptr, i8 } @_ZNSt3mapINSt7__cxx1112basic_stringIcSt11char_traitsIcESaIcEEEmSt4lessIS5_ESaISt4pairIKS5_mEEE7emplaceIJRA15_KcmEEES8_ISt17_Rb_tree_iteratorISA_EbEDpOT_(ptr noundef nonnull align 8 dereferenceable(48) @_ZL10treeNames_B5cxx11, ptr noundef nonnull align 1 dereferenceable(15) @.str.49, ptr noundef nonnull align 8 dereferenceable(8) %ref.tmp465)
  %566 = getelementptr inbounds { ptr, i8 }, ptr %coerce469, i32 0, i32 0
  %567 = extractvalue { ptr, i8 } %call468, 0
  store ptr %567, ptr %566, align 8
  %568 = getelementptr inbounds { ptr, i8 }, ptr %coerce469, i32 0, i32 1
  %569 = extractvalue { ptr, i8 } %call468, 1
  store i8 %569, ptr %568, align 8
  store ptr %agg.tmp471, ptr %this.addr.i6278, align 8
  store ptr @.str.35, ptr %Str.addr.i6279, align 8
  %this1.i6280 = load ptr, ptr %this.addr.i6278, align 8
  %570 = load ptr, ptr %Str.addr.i6279, align 8
  store ptr %570, ptr %this1.i6280, align 8
  %Length.i6281 = getelementptr inbounds %"class.llvh::StringRef", ptr %this1.i6280, i32 0, i32 1
  %571 = load ptr, ptr %Str.addr.i6279, align 8
  %tobool.i6282 = icmp ne ptr %571, null
  br i1 %tobool.i6282, label %cond.true.i6285, label %cond.false.i6283

cond.true.i6285:                                  ; preds = %_ZN4llvh9StringRefC2EPKc.exit6277
  %572 = load ptr, ptr %Str.addr.i6279, align 8
  %call.i6286 = call i64 @strlen(ptr noundef %572) #12
  br label %_ZN4llvh9StringRefC2EPKc.exit6287

cond.false.i6283:                                 ; preds = %_ZN4llvh9StringRefC2EPKc.exit6277
  br label %_ZN4llvh9StringRefC2EPKc.exit6287

_ZN4llvh9StringRefC2EPKc.exit6287:                ; preds = %cond.false.i6283, %cond.true.i6285
  %cond.i6284 = phi i64 [ %call.i6286, %cond.true.i6285 ], [ 0, %cond.false.i6283 ]
  store i64 %cond.i6284, ptr %Length.i6281, align 8
  %573 = getelementptr inbounds { ptr, i64 }, ptr %agg.tmp471, i32 0, i32 0
  %574 = load ptr, ptr %573, align 8
  %575 = getelementptr inbounds { ptr, i64 }, ptr %agg.tmp471, i32 0, i32 1
  %576 = load i64, ptr %575, align 8
  %call472 = call { ptr, i64 } @"_ZZL11initClassesvENK3$_0clEN4llvh9StringRefE"(ptr noundef nonnull align 1 dereferenceable(1) %baseName, ptr %574, i64 %576)
  %577 = getelementptr inbounds { ptr, i64 }, ptr %ref.tmp470, i32 0, i32 0
  %578 = extractvalue { ptr, i64 } %call472, 0
  store ptr %578, ptr %577, align 8
  %579 = getelementptr inbounds { ptr, i64 }, ptr %ref.tmp470, i32 0, i32 1
  %580 = extractvalue { ptr, i64 } %call472, 1
  store i64 %580, ptr %579, align 8
  %call473 = call noundef nonnull align 8 dereferenceable(96) ptr @_ZNSt6vectorI9TreeClassSaIS0_EE12emplace_backIJRA15_KcN4llvh9StringRefEEEERS0_DpOT_(ptr noundef nonnull align 8 dereferenceable(24) @_ZL12treeClasses_, ptr noundef nonnull align 1 dereferenceable(15) @.str.50, ptr noundef nonnull align 8 dereferenceable(16) %ref.tmp470)
  %call475 = call noundef i64 @_ZNKSt6vectorI9TreeClassSaIS0_EE4sizeEv(ptr noundef nonnull align 8 dereferenceable(24) @_ZL12treeClasses_) #3
  %sub476 = sub i64 %call475, 1
  store i64 %sub476, ptr %ref.tmp474, align 8
  %call477 = call { ptr, i8 } @_ZNSt3mapINSt7__cxx1112basic_stringIcSt11char_traitsIcESaIcEEEmSt4lessIS5_ESaISt4pairIKS5_mEEE7emplaceIJRA15_KcmEEES8_ISt17_Rb_tree_iteratorISA_EbEDpOT_(ptr noundef nonnull align 8 dereferenceable(48) @_ZL10treeNames_B5cxx11, ptr noundef nonnull align 1 dereferenceable(15) @.str.50, ptr noundef nonnull align 8 dereferenceable(8) %ref.tmp474)
  %581 = getelementptr inbounds { ptr, i8 }, ptr %coerce478, i32 0, i32 0
  %582 = extractvalue { ptr, i8 } %call477, 0
  store ptr %582, ptr %581, align 8
  %583 = getelementptr inbounds { ptr, i8 }, ptr %coerce478, i32 0, i32 1
  %584 = extractvalue { ptr, i8 } %call477, 1
  store i8 %584, ptr %583, align 8
  %call479 = call noundef nonnull align 8 dereferenceable(96) ptr @_ZNSt6vectorI9TreeClassSaIS0_EE4backEv(ptr noundef nonnull align 8 dereferenceable(24) @_ZL12treeClasses_) #3
  %fields480 = getelementptr inbounds %struct.TreeClass, ptr %call479, i32 0, i32 3
  store ptr %agg.tmp482, ptr %this.addr.i6288, align 8
  store ptr @.str.17, ptr %Str.addr.i6289, align 8
  %this1.i6290 = load ptr, ptr %this.addr.i6288, align 8
  %585 = load ptr, ptr %Str.addr.i6289, align 8
  store ptr %585, ptr %this1.i6290, align 8
  %Length.i6291 = getelementptr inbounds %"class.llvh::StringRef", ptr %this1.i6290, i32 0, i32 1
  %586 = load ptr, ptr %Str.addr.i6289, align 8
  %tobool.i6292 = icmp ne ptr %586, null
  br i1 %tobool.i6292, label %cond.true.i6295, label %cond.false.i6293

cond.true.i6295:                                  ; preds = %_ZN4llvh9StringRefC2EPKc.exit6287
  %587 = load ptr, ptr %Str.addr.i6289, align 8
  %call.i6296 = call i64 @strlen(ptr noundef %587) #12
  br label %_ZN4llvh9StringRefC2EPKc.exit6297

cond.false.i6293:                                 ; preds = %_ZN4llvh9StringRefC2EPKc.exit6287
  br label %_ZN4llvh9StringRefC2EPKc.exit6297

_ZN4llvh9StringRefC2EPKc.exit6297:                ; preds = %cond.false.i6293, %cond.true.i6295
  %cond.i6294 = phi i64 [ %call.i6296, %cond.true.i6295 ], [ 0, %cond.false.i6293 ]
  store i64 %cond.i6294, ptr %Length.i6291, align 8
  %588 = getelementptr inbounds { ptr, i64 }, ptr %agg.tmp482, i32 0, i32 0
  %589 = load ptr, ptr %588, align 8
  %590 = getelementptr inbounds { ptr, i64 }, ptr %agg.tmp482, i32 0, i32 1
  %591 = load i64, ptr %590, align 8
  %call483 = call noundef i32 @"_ZZL11initClassesvENK3$_1clEN4llvh9StringRefE"(ptr noundef nonnull align 1 dereferenceable(1) %type, ptr %589, i64 %591)
  store i32 %call483, ptr %ref.tmp481, align 4
  store i8 0, ptr %ref.tmp484, align 1
  %call485 = call noundef nonnull align 8 dereferenceable(41) ptr @_ZNSt6vectorI5FieldSaIS0_EE12emplace_backIJ9FieldTypeRA5_KcbEEERS0_DpOT_(ptr noundef nonnull align 8 dereferenceable(24) %fields480, ptr noundef nonnull align 4 dereferenceable(4) %ref.tmp481, ptr noundef nonnull align 1 dereferenceable(5) @.str.18, ptr noundef nonnull align 1 dereferenceable(1) %ref.tmp484)
  store ptr %agg.tmp487, ptr %this.addr.i6298, align 8
  store ptr @.str.35, ptr %Str.addr.i6299, align 8
  %this1.i6300 = load ptr, ptr %this.addr.i6298, align 8
  %592 = load ptr, ptr %Str.addr.i6299, align 8
  store ptr %592, ptr %this1.i6300, align 8
  %Length.i6301 = getelementptr inbounds %"class.llvh::StringRef", ptr %this1.i6300, i32 0, i32 1
  %593 = load ptr, ptr %Str.addr.i6299, align 8
  %tobool.i6302 = icmp ne ptr %593, null
  br i1 %tobool.i6302, label %cond.true.i6305, label %cond.false.i6303

cond.true.i6305:                                  ; preds = %_ZN4llvh9StringRefC2EPKc.exit6297
  %594 = load ptr, ptr %Str.addr.i6299, align 8
  %call.i6306 = call i64 @strlen(ptr noundef %594) #12
  br label %_ZN4llvh9StringRefC2EPKc.exit6307

cond.false.i6303:                                 ; preds = %_ZN4llvh9StringRefC2EPKc.exit6297
  br label %_ZN4llvh9StringRefC2EPKc.exit6307

_ZN4llvh9StringRefC2EPKc.exit6307:                ; preds = %cond.false.i6303, %cond.true.i6305
