target datalayout = "e-m:e-p270:32:32-p271:32:32-p272:64:64-i64:64-i128:128-f80:128-n8:16:32:64-S128"
target triple = "x86_64-unknown-linux-gnu"

%"class.facebook::hermes::tracing::SynthTrace::TraceValue" = type { i32, %union.anon }
%union.anon = type { double }
%"class.std::unique_ptr.2" = type { %"struct.std::__uniq_ptr_data.3" }
%"struct.std::__uniq_ptr_data.3" = type { %"class.std::__uniq_ptr_impl.4" }
%"class.std::__uniq_ptr_impl.4" = type { %"class.std::tuple.5" }
%"class.std::tuple.5" = type { %"struct.std::_Tuple_impl.6" }
%"struct.std::_Tuple_impl.6" = type { %"struct.std::_Head_base.9" }
%"struct.std::_Head_base.9" = type { ptr }
%"class.llvh::StringRef" = type { ptr, i64 }
%"class.hermes::vm::GCConfig" = type { i32, i32, i32, double, i32, %"class.hermes::vm::GCSanitizeConfig", i8, i32, %"class.std::__cxx11::basic_string", %"class.hermes::vm::GCTripwireConfig", i8, i8, i8, i8, %"class.std::function.14", %"class.std::function.17" }
%"class.hermes::vm::GCSanitizeConfig" = type { double, i64 }
%"class.std::__cxx11::basic_string" = type { %"struct.std::__cxx11::basic_string<char>::_Alloc_hider", i64, %union.anon.13 }
%"struct.std::__cxx11::basic_string<char>::_Alloc_hider" = type { ptr }
%union.anon.13 = type { i64, [8 x i8] }
%"class.hermes::vm::GCTripwireConfig" = type { i32, %"class.std::function" }
%"class.std::function" = type { %"class.std::_Function_base", ptr }
%"class.std::_Function_base" = type { %"union.std::_Any_data", ptr }
%"union.std::_Any_data" = type { %"union.std::_Nocopy_types" }
%"union.std::_Nocopy_types" = type { { i64, i64 } }
%"class.std::function.14" = type { %"class.std::_Function_base", ptr }
%"class.std::function.17" = type { %"class.std::_Function_base", ptr }
%"class.facebook::hermes::tracing::SynthTrace" = type { %"class.std::unique_ptr", %"class.std::unique_ptr.2", %"class.std::vector", i64 }
%"class.std::unique_ptr" = type { %"struct.std::__uniq_ptr_data" }
%"struct.std::__uniq_ptr_data" = type { %"class.std::__uniq_ptr_impl" }
%"class.std::__uniq_ptr_impl" = type { %"class.std::tuple" }
%"class.std::tuple" = type { %"struct.std::_Tuple_impl" }
%"struct.std::_Tuple_impl" = type { %"struct.std::_Head_base.1" }
%"struct.std::_Head_base.1" = type { ptr }
%"class.std::vector" = type { %"struct.std::_Vector_base" }
%"struct.std::_Vector_base" = type { %"struct.std::_Vector_base<std::unique_ptr<facebook::hermes::tracing::SynthTrace::Record>, std::allocator<std::unique_ptr<facebook::hermes::tracing::SynthTrace::Record>>>::_Vector_impl" }
%"struct.std::_Vector_base<std::unique_ptr<facebook::hermes::tracing::SynthTrace::Record>, std::allocator<std::unique_ptr<facebook::hermes::tracing::SynthTrace::Record>>>::_Vector_impl" = type { %"struct.std::_Vector_base<std::unique_ptr<facebook::hermes::tracing::SynthTrace::Record>, std::allocator<std::unique_ptr<facebook::hermes::tracing::SynthTrace::Record>>>::_Vector_impl_data" }
%"struct.std::_Vector_base<std::unique_ptr<facebook::hermes::tracing::SynthTrace::Record>, std::allocator<std::unique_ptr<facebook::hermes::tracing::SynthTrace::Record>>>::_Vector_impl_data" = type { ptr, ptr, ptr }
%"class.hermes::vm::RuntimeConfig" = type <{ %"class.hermes::vm::GCConfig", ptr, i32, i32, i8, i8, i8, i8, i8, i8, i8, i8, i8, i8, i8, [5 x i8], %"class.std::__cxx11::basic_string", %"class.std::__cxx11::basic_string", %"class.std::function.19", i8, i8, i8, i8, i32, i8, i8, i8, i8, i32, i8, [7 x i8], %"class.std::shared_ptr", i32, i8, [3 x i8] }>
%"class.std::function.19" = type { %"class.std::_Function_base", ptr }
%"class.std::shared_ptr" = type { %"class.std::__shared_ptr" }
%"class.std::__shared_ptr" = type { ptr, %"class.std::__shared_count" }
%"class.std::__shared_count" = type { ptr }
%"class.std::allocator.10" = type { i8 }
%"class.llvh::raw_string_ostream" = type { %"class.llvh::raw_ostream.base", ptr }
%"class.llvh::raw_ostream.base" = type <{ ptr, ptr, ptr, ptr, i32 }>
%"class.llvh::Optional" = type { %"struct.llvh::optional_detail::OptionalStorage" }
%"struct.llvh::optional_detail::OptionalStorage" = type { %"struct.llvh::AlignedCharArrayUnion.48", i8, [7 x i8] }
%"struct.llvh::AlignedCharArrayUnion.48" = type { %"struct.llvh::AlignedCharArray.49" }
%"struct.llvh::AlignedCharArray.49" = type { [8 x i8] }
%"class.__gnu_cxx::__normal_iterator" = type { ptr }
%"class.std::__cxx11::basic_stringstream" = type { %"class.std::basic_iostream.base", %"class.std::__cxx11::basic_stringbuf", %"class.std::basic_ios" }
%"class.std::basic_iostream.base" = type { %"class.std::basic_istream.base", %"class.std::basic_ostream.base" }
%"class.std::basic_istream.base" = type { ptr, i64 }
%"class.std::basic_ostream.base" = type { ptr }
%"class.std::__cxx11::basic_stringbuf" = type { %"class.std::basic_streambuf", i32, %"class.std::__cxx11::basic_string" }
%"class.std::basic_streambuf" = type { ptr, ptr, ptr, ptr, ptr, ptr, ptr, %"class.std::locale" }
%"class.std::locale" = type { ptr }
%"class.std::basic_ios" = type { %"class.std::ios_base", ptr, i8, i8, ptr, ptr, ptr, ptr }
%"class.std::ios_base" = type { ptr, i64, i64, i32, i32, i32, ptr, %"struct.std::ios_base::_Words", [8 x %"struct.std::ios_base::_Words"], i32, ptr, %"class.std::locale" }
%"struct.std::ios_base::_Words" = type { ptr, i64 }
%"struct.facebook::hermes::tracing::SynthTrace::MarkerRecord" = type { %"struct.facebook::hermes::tracing::SynthTrace::Record", %"class.std::__cxx11::basic_string" }
%"struct.facebook::hermes::tracing::SynthTrace::Record" = type { ptr, %"class.std::chrono::duration" }
%"class.std::chrono::duration" = type { i64 }
%"struct.facebook::hermes::tracing::SynthTrace::ReturnMixin" = type { %"class.facebook::hermes::tracing::SynthTrace::TraceValue" }
%"struct.facebook::hermes::tracing::SynthTrace::BeginExecJSRecord" = type <{ %"struct.facebook::hermes::tracing::SynthTrace::Record", %"class.std::__cxx11::basic_string", %"struct.std::array", i8, [3 x i8] }>
%"struct.std::array" = type { [20 x i8] }
%"struct.facebook::hermes::tracing::SynthTrace::CreateObjectRecord" = type { %"struct.facebook::hermes::tracing::SynthTrace::Record", i64 }
%"struct.facebook::hermes::tracing::SynthTrace::DrainMicrotasksRecord" = type <{ %"struct.facebook::hermes::tracing::SynthTrace::Record", i32, [4 x i8] }>
%"struct.facebook::hermes::tracing::SynthTrace::CreateBigIntRecord" = type { %"struct.facebook::hermes::tracing::SynthTrace::Record", i64, i32, i64 }
%"struct.facebook::hermes::tracing::SynthTrace::BigIntToStringRecord" = type <{ %"struct.facebook::hermes::tracing::SynthTrace::Record", i64, i64, i32, [4 x i8] }>
%"struct.facebook::hermes::tracing::SynthTrace::CreateStringRecord" = type <{ %"struct.facebook::hermes::tracing::SynthTrace::Record", i64, %"class.std::__cxx11::basic_string", i8, [7 x i8] }>
%"struct.facebook::hermes::tracing::SynthTrace::CreatePropNameIDRecord" = type <{ %"struct.facebook::hermes::tracing::SynthTrace::Record", i64, %"class.std::__cxx11::basic_string", %"class.facebook::hermes::tracing::SynthTrace::TraceValue", i32, [4 x i8] }>
%"struct.facebook::hermes::tracing::SynthTrace::CreateHostFunctionRecord" = type { %"struct.facebook::hermes::tracing::SynthTrace::CreateObjectRecord", i32, i32 }
%"struct.facebook::hermes::tracing::SynthTrace::GetOrSetPropertyRecord" = type { %"struct.facebook::hermes::tracing::SynthTrace::Record", i64, %"class.facebook::hermes::tracing::SynthTrace::TraceValue", %"class.facebook::hermes::tracing::SynthTrace::TraceValue" }
%"struct.facebook::hermes::tracing::SynthTrace::HasPropertyRecord" = type { %"struct.facebook::hermes::tracing::SynthTrace::Record", i64, %"class.facebook::hermes::tracing::SynthTrace::TraceValue" }
%"struct.facebook::hermes::tracing::SynthTrace::GetPropertyNamesRecord" = type { %"struct.facebook::hermes::tracing::SynthTrace::Record", i64, i64 }
%"struct.facebook::hermes::tracing::SynthTrace::CreateArrayRecord" = type { %"struct.facebook::hermes::tracing::SynthTrace::Record", i64, i64 }
%"struct.facebook::hermes::tracing::SynthTrace::ArrayReadOrWriteRecord" = type { %"struct.facebook::hermes::tracing::SynthTrace::Record", i64, i64, %"class.facebook::hermes::tracing::SynthTrace::TraceValue" }
%"class.__gnu_cxx::__normal_iterator.26" = type { ptr }
%"struct.facebook::hermes::tracing::SynthTrace::CallRecord" = type { %"struct.facebook::hermes::tracing::SynthTrace::Record", i64, %"class.facebook::hermes::tracing::SynthTrace::TraceValue", %"class.std::vector.21" }
%"class.std::vector.21" = type { %"struct.std::_Vector_base.22" }
%"struct.std::_Vector_base.22" = type { %"struct.std::_Vector_base<facebook::hermes::tracing::SynthTrace::TraceValue, std::allocator<facebook::hermes::tracing::SynthTrace::TraceValue>>::_Vector_impl" }
%"struct.std::_Vector_base<facebook::hermes::tracing::SynthTrace::TraceValue, std::allocator<facebook::hermes::tracing::SynthTrace::TraceValue>>::_Vector_impl" = type { %"struct.std::_Vector_base<facebook::hermes::tracing::SynthTrace::TraceValue, std::allocator<facebook::hermes::tracing::SynthTrace::TraceValue>>::_Vector_impl_data" }
%"struct.std::_Vector_base<facebook::hermes::tracing::SynthTrace::TraceValue, std::allocator<facebook::hermes::tracing::SynthTrace::TraceValue>>::_Vector_impl_data" = type { ptr, ptr, ptr }
%class.anon = type { i8 }
%"struct.facebook::hermes::tracing::SynthTrace::GetOrSetPropertyNativeRecord" = type { %"struct.facebook::hermes::tracing::SynthTrace::Record", i64, i64, %"class.std::__cxx11::basic_string" }
%"struct.facebook::hermes::tracing::SynthTrace::GetPropertyNativeReturnRecord" = type { %"struct.facebook::hermes::tracing::SynthTrace::Record", %"struct.facebook::hermes::tracing::SynthTrace::ReturnMixin" }
%"struct.facebook::hermes::tracing::SynthTrace::SetPropertyNativeRecord" = type { %"struct.facebook::hermes::tracing::SynthTrace::GetOrSetPropertyNativeRecord", %"class.facebook::hermes::tracing::SynthTrace::TraceValue" }
%"struct.facebook::hermes::tracing::SynthTrace::GetNativePropertyNamesRecord" = type { %"struct.facebook::hermes::tracing::SynthTrace::Record", i64 }
%"struct.facebook::hermes::tracing::SynthTrace::GetNativePropertyNamesReturnRecord" = type { %"struct.facebook::hermes::tracing::SynthTrace::Record", %"class.std::vector.27" }
%"class.std::vector.27" = type { %"struct.std::_Vector_base.28" }
%"struct.std::_Vector_base.28" = type { %"struct.std::_Vector_base<std::__cxx11::basic_string<char>, std::allocator<std::__cxx11::basic_string<char>>>::_Vector_impl" }
%"struct.std::_Vector_base<std::__cxx11::basic_string<char>, std::allocator<std::__cxx11::basic_string<char>>>::_Vector_impl" = type { %"struct.std::_Vector_base<std::__cxx11::basic_string<char>, std::allocator<std::__cxx11::basic_string<char>>>::_Vector_impl_data" }
%"struct.std::_Vector_base<std::__cxx11::basic_string<char>, std::allocator<std::__cxx11::basic_string<char>>>::_Vector_impl_data" = type { ptr, ptr, ptr }
%"class.__gnu_cxx::__normal_iterator.32" = type { ptr }
%"struct.facebook::hermes::tracing::SynthTrace::SetExternalMemoryPressureRecord" = type { %"struct.facebook::hermes::tracing::SynthTrace::Record", i64, i64 }
%"class.llvh::raw_ostream" = type <{ ptr, ptr, ptr, ptr, i32, [4 x i8] }>
%"class.__gnu_cxx::__normal_iterator.34" = type { ptr }
%"class.std::unique_ptr.35" = type { %"struct.std::__uniq_ptr_data.36" }
%"struct.std::__uniq_ptr_data.36" = type { %"class.std::__uniq_ptr_impl.37" }
%"class.std::__uniq_ptr_impl.37" = type { %"class.std::tuple.38" }
%"class.std::tuple.38" = type { %"struct.std::_Tuple_impl.39" }
%"struct.std::_Tuple_impl.39" = type { %"struct.std::_Head_base.42" }
%"struct.std::_Head_base.42" = type { ptr }
%"class.std::vector.43" = type { %"struct.std::_Vector_base.44" }
%"struct.std::_Vector_base.44" = type { %"struct.std::_Vector_base<unsigned long, std::allocator<unsigned long>>::_Vector_impl" }
%"struct.std::_Vector_base<unsigned long, std::allocator<unsigned long>>::_Vector_impl" = type { %"struct.std::_Vector_base<unsigned long, std::allocator<unsigned long>>::_Vector_impl_data" }
%"struct.std::_Vector_base<unsigned long, std::allocator<unsigned long>>::_Vector_impl_data" = type { ptr, ptr, ptr }
%"class.std::initializer_list" = type { ptr, i64 }
%"class.std::allocator.45" = type { i8 }
%"class.hermes::JSONEmitter" = type { %"class.llvh::SmallVector", ptr, i8, i32 }
%"class.llvh::SmallVector" = type { %"class.llvh::SmallVectorImpl", %"struct.llvh::SmallVectorStorage" }
%"class.llvh::SmallVectorImpl" = type { %"class.llvh::SmallVectorTemplateBase" }
%"class.llvh::SmallVectorTemplateBase" = type { %"class.llvh::SmallVectorTemplateCommon" }
%"class.llvh::SmallVectorTemplateCommon" = type { %"class.llvh::SmallVectorBase" }
%"class.llvh::SmallVectorBase" = type { ptr, i32, i32 }
%"struct.llvh::SmallVectorStorage" = type { [8 x %"struct.llvh::AlignedCharArrayUnion"] }
%"struct.llvh::AlignedCharArrayUnion" = type { %"struct.llvh::AlignedCharArray" }
%"struct.llvh::AlignedCharArray" = type { [5 x i8] }
%"struct.hermes::JSONEmitter::State" = type { i8, i8, i8, i8, i8 }
%"class.__gnu_cxx::__normal_iterator.50" = type { ptr }
%struct._Guard = type { ptr }
%struct._Guard.55 = type { ptr }

$_ZNSt10unique_ptrIN4llvh11raw_ostreamESt14default_deleteIS1_EEC2EOS4_ = comdat any

$_ZNSt10unique_ptrIN6hermes11JSONEmitterESt14default_deleteIS1_EEC2IS3_vEEv = comdat any

$_ZNSt6vectorISt10unique_ptrIN8facebook6hermes7tracing10SynthTrace6RecordESt14default_deleteIS5_EESaIS8_EEC2Ev = comdat any

$_ZNKSt10unique_ptrIN4llvh11raw_ostreamESt14default_deleteIS1_EEcvbEv = comdat any

$_ZSt11make_uniqueIN6hermes11JSONEmitterEJRN4llvh11raw_ostreamEbEENSt8__detail9_MakeUniqIT_E15__single_objectEDpOT0_ = comdat any

$_ZNKSt10unique_ptrIN4llvh11raw_ostreamESt14default_deleteIS1_EEdeEv = comdat any

$_ZNSt10unique_ptrIN6hermes11JSONEmitterESt14default_deleteIS1_EEaSEOS4_ = comdat any

$_ZNSt10unique_ptrIN6hermes11JSONEmitterESt14default_deleteIS1_EED2Ev = comdat any

$_ZNKSt10unique_ptrIN6hermes11JSONEmitterESt14default_deleteIS1_EEptEv = comdat any

$_ZN6hermes11JSONEmitter12emitKeyValueIjEEvN4llvh9StringRefERKT_ = comdat any

$_ZN8facebook6hermes7tracing10SynthTrace12synthVersionEv = comdat any

$_ZN6hermes11JSONEmitter12emitKeyValueImEEvN4llvh9StringRefERKT_ = comdat any

$_ZNK6hermes2vm13RuntimeConfig11getGCConfigEv = comdat any

$_ZNK6hermes2vm8GCConfig14getMinHeapSizeEv = comdat any

$_ZN6hermes2vm8GCConfigD2Ev = comdat any

$_ZNK6hermes2vm8GCConfig15getInitHeapSizeEv = comdat any

$_ZNK6hermes2vm8GCConfig14getMaxHeapSizeEv = comdat any

$_ZN6hermes11JSONEmitter12emitKeyValueIdEEvN4llvh9StringRefERKT_ = comdat any

$_ZNK6hermes2vm8GCConfig18getOccupancyTargetEv = comdat any

$_ZNK6hermes2vm8GCConfig24getEffectiveOOMThresholdEv = comdat any

$_ZN6hermes11JSONEmitter12emitKeyValueIPKcEEvN4llvh9StringRefERKT_ = comdat any

$_ZNK6hermes2vm8GCConfig22getShouldReleaseUnusedEv = comdat any

$_ZN6hermes11JSONEmitter12emitKeyValueINSt7__cxx1112basic_stringIcSt11char_traitsIcESaIcEEEEEvN4llvh9StringRefERKT_ = comdat any

$_ZNK6hermes2vm8GCConfig7getNameB5cxx11Ev = comdat any

$_ZN6hermes11JSONEmitter12emitKeyValueIbEEvN4llvh9StringRefERKT_ = comdat any

$_ZNK6hermes2vm8GCConfig15getAllocInYoungEv = comdat any

$_ZNK6hermes2vm8GCConfig18getRevertToYGAtTTIEv = comdat any

$_ZNK6hermes2vm13RuntimeConfig18getMaxNumRegistersEv = comdat any

$_ZNK6hermes2vm13RuntimeConfig13getES6PromiseEv = comdat any

$_ZNK6hermes2vm13RuntimeConfig11getES6ProxyEv = comdat any

$_ZNK6hermes2vm13RuntimeConfig7getIntlEv = comdat any

$_ZNK6hermes2vm13RuntimeConfig17getMicrotaskQueueEv = comdat any

$_ZNK6hermes2vm13RuntimeConfig21getEnableSampledStatsEv = comdat any

$_ZNK6hermes2vm13RuntimeConfig20getVMExperimentFlagsEv = comdat any

$_ZNSt6vectorISt10unique_ptrIN8facebook6hermes7tracing10SynthTrace6RecordESt14default_deleteIS5_EESaIS8_EED2Ev = comdat any

$_ZNSt10unique_ptrIN4llvh11raw_ostreamESt14default_deleteIS1_EED2Ev = comdat any

$_ZN8facebook6hermes7tracing10SynthTrace10TraceValue20encodeUndefinedValueEv = comdat any

$_ZN8facebook6hermes7tracing10SynthTrace10TraceValue15encodeNullValueEv = comdat any

$_ZN8facebook6hermes7tracing10SynthTrace10TraceValue15encodeBoolValueEb = comdat any

$_ZN8facebook6hermes7tracing10SynthTrace10TraceValue17encodeNumberValueEd = comdat any

$_ZN8facebook6hermes7tracing10SynthTrace10TraceValue17encodeObjectValueEm = comdat any

$_ZN8facebook6hermes7tracing10SynthTrace10TraceValue17encodeBigIntValueEm = comdat any

$_ZN8facebook6hermes7tracing10SynthTrace10TraceValue17encodeStringValueEm = comdat any

$_ZN8facebook6hermes7tracing10SynthTrace10TraceValue21encodePropNameIDValueEm = comdat any

$_ZN8facebook6hermes7tracing10SynthTrace10TraceValue17encodeSymbolValueEm = comdat any

$_ZNK8facebook6hermes7tracing10SynthTrace10TraceValue11isUndefinedEv = comdat any

$_ZNSt7__cxx1112basic_stringIcSt11char_traitsIcESaIcEEC2IS3_EEPKcRKS3_ = comdat any

$_ZNK8facebook6hermes7tracing10SynthTrace10TraceValue6isNullEv = comdat any

$_ZNK8facebook6hermes7tracing10SynthTrace10TraceValue8isObjectEv = comdat any

$_ZStplIcSt11char_traitsIcESaIcEENSt7__cxx1112basic_stringIT_T0_T1_EEOS8_S9_ = comdat any

$_ZNSt7__cxx119to_stringEm = comdat any

$_ZNK8facebook6hermes7tracing10SynthTrace10TraceValue6getUIDEv = comdat any

$_ZNK8facebook6hermes7tracing10SynthTrace10TraceValue8isBigIntEv = comdat any

$_ZNK8facebook6hermes7tracing10SynthTrace10TraceValue8isStringEv = comdat any

$_ZNK8facebook6hermes7tracing10SynthTrace10TraceValue12isPropNameIDEv = comdat any

$_ZNK8facebook6hermes7tracing10SynthTrace10TraceValue8isSymbolEv = comdat any

$_ZNK8facebook6hermes7tracing10SynthTrace10TraceValue8isNumberEv = comdat any

$_ZNK8facebook6hermes7tracing10SynthTrace10TraceValue9getNumberEv = comdat any

$_ZNK8facebook6hermes7tracing10SynthTrace10TraceValue6isBoolEv = comdat any

$_ZStplIcSt11char_traitsIcESaIcEENSt7__cxx1112basic_stringIT_T0_T1_EEOS8_PKS5_ = comdat any

$_ZNK8facebook6hermes7tracing10SynthTrace10TraceValue7getBoolEv = comdat any

$_ZNK9__gnu_cxx17__normal_iteratorIPKcNSt7__cxx1112basic_stringIcSt11char_traitsIcESaIcEEEEplEl = comdat any

$_ZNSt7__cxx1112basic_stringIcSt11char_traitsIcESaIcEEC2IN9__gnu_cxx17__normal_iteratorIPKcS4_EEvEET_SB_RKS3_ = comdat any

$_ZSteqIcSt11char_traitsIcESaIcEEbRKNSt7__cxx1112basic_stringIT_T0_T1_EEPKS5_ = comdat any

$_ZNK8facebook6hermes7tracing10SynthTrace6RecordeqERKS3_ = comdat any

$_ZSteqIcEN9__gnu_cxx11__enable_ifIXsr9__is_charIT_EE7__valueEbE6__typeERKNSt7__cxx1112basic_stringIS2_St11char_traitsIS2_ESaIS2_EEESC_ = comdat any

$_ZSteqIhLm20EEbRKSt5arrayIT_XT0_EES4_ = comdat any

$_ZNKSt6vectorIN8facebook6hermes7tracing10SynthTrace10TraceValueESaIS4_EE5beginEv = comdat any

$_ZNKSt6vectorIN8facebook6hermes7tracing10SynthTrace10TraceValueESaIS4_EE3endEv = comdat any

$_ZN8facebook6hermes7tracing10SynthTrace29GetPropertyNativeReturnRecordC2ERKS3_ = comdat any

$_ZN8facebook6hermes7tracing10SynthTrace29GetPropertyNativeReturnRecordD2Ev = comdat any

$_ZSteqINSt7__cxx1112basic_stringIcSt11char_traitsIcESaIcEEESaIS5_EEbRKSt6vectorIT_T0_ESC_ = comdat any

$_ZN4llvh18raw_string_ostreamC2ERNSt7__cxx1112basic_stringIcSt11char_traitsIcESaIcEEE = comdat any

$_ZN4llvh11raw_ostreamlsEPKc = comdat any

$_ZN4llvh11raw_ostream5flushEv = comdat any

$_ZN6hermes11JSONEmitter12emitKeyValueIlEEvN4llvh9StringRefERKT_ = comdat any

$_ZNKSt6chrono8durationIlSt5ratioILl1ELl1000EEE5countEv = comdat any

$_ZN6hermes11JSONEmitter12emitKeyValueIiEEvN4llvh9StringRefERKT_ = comdat any

$_ZN6hermes11JSONEmitter12emitKeyValueIN4llvh9StringRefEEEvS3_RKT_ = comdat any

$_ZN9__gnu_cxxneIPKN8facebook6hermes7tracing10SynthTrace10TraceValueESt6vectorIS5_SaIS5_EEEEbRKNS_17__normal_iteratorIT_T0_EESG_ = comdat any

$_ZNK9__gnu_cxx17__normal_iteratorIPKN8facebook6hermes7tracing10SynthTrace10TraceValueESt6vectorIS5_SaIS5_EEEdeEv = comdat any

$_ZN9__gnu_cxx17__normal_iteratorIPKN8facebook6hermes7tracing10SynthTrace10TraceValueESt6vectorIS5_SaIS5_EEEppEv = comdat any

$_ZNKSt6vectorINSt7__cxx1112basic_stringIcSt11char_traitsIcESaIcEEESaIS5_EE5beginEv = comdat any

$_ZNKSt6vectorINSt7__cxx1112basic_stringIcSt11char_traitsIcESaIcEEESaIS5_EE3endEv = comdat any

$_ZN9__gnu_cxxneIPKNSt7__cxx1112basic_stringIcSt11char_traitsIcESaIcEEESt6vectorIS6_SaIS6_EEEEbRKNS_17__normal_iteratorIT_T0_EESH_ = comdat any

$_ZNK9__gnu_cxx17__normal_iteratorIPKNSt7__cxx1112basic_stringIcSt11char_traitsIcESaIcEEESt6vectorIS6_SaIS6_EEEdeEv = comdat any

$_ZN9__gnu_cxx17__normal_iteratorIPKNSt7__cxx1112basic_stringIcSt11char_traitsIcESaIcEEESt6vectorIS6_SaIS6_EEEppEv = comdat any

$_ZNKSt10unique_ptrIN6hermes11JSONEmitterESt14default_deleteIS1_EEcvbEv = comdat any

$_ZNKSt6vectorISt10unique_ptrIN8facebook6hermes7tracing10SynthTrace6RecordESt14default_deleteIS5_EESaIS8_EE4sizeEv = comdat any

$_ZNSt6vectorISt10unique_ptrIN8facebook6hermes7tracing10SynthTrace6RecordESt14default_deleteIS5_EESaIS8_EE5beginEv = comdat any

$_ZNSt6vectorISt10unique_ptrIN8facebook6hermes7tracing10SynthTrace6RecordESt14default_deleteIS5_EESaIS8_EE3endEv = comdat any

$_ZN9__gnu_cxxneIPSt10unique_ptrIN8facebook6hermes7tracing10SynthTrace6RecordESt14default_deleteIS6_EESt6vectorIS9_SaIS9_EEEEbRKNS_17__normal_iteratorIT_T0_EESJ_ = comdat any

$_ZNK9__gnu_cxx17__normal_iteratorIPSt10unique_ptrIN8facebook6hermes7tracing10SynthTrace6RecordESt14default_deleteIS6_EESt6vectorIS9_SaIS9_EEEdeEv = comdat any

$_ZNKSt10unique_ptrIN8facebook6hermes7tracing10SynthTrace6RecordESt14default_deleteIS4_EEptEv = comdat any

$_ZNKSt10unique_ptrIN6hermes11JSONEmitterESt14default_deleteIS1_EEdeEv = comdat any

$_ZN9__gnu_cxx17__normal_iteratorIPSt10unique_ptrIN8facebook6hermes7tracing10SynthTrace6RecordESt14default_deleteIS6_EESt6vectorIS9_SaIS9_EEEppEv = comdat any

$_ZNSt6vectorISt10unique_ptrIN8facebook6hermes7tracing10SynthTrace6RecordESt14default_deleteIS5_EESaIS8_EE5clearEv = comdat any

$_ZNK6hermes2vm11GCExecTrace4emitERNS_11JSONEmitterE = comdat any

$_ZNK8facebook6hermes7tracing10SynthTrace2osEv = comdat any

$_ZNSt10unique_ptrIN6hermes11JSONEmitterESt14default_deleteIS1_EE5resetEPS1_ = comdat any

$_ZNSt10unique_ptrIN4llvh11raw_ostreamESt14default_deleteIS1_EE5resetEPS1_ = comdat any

$_ZN8facebook6hermes7tracing10SynthTrace6RecordD2Ev = comdat any

$_ZN8facebook6hermes7tracing10SynthTrace6RecordD0Ev = comdat any

$_ZNK8facebook6hermes7tracing10SynthTrace6Record4defsEv = comdat any

$_ZNK8facebook6hermes7tracing10SynthTrace6Record4usesEv = comdat any

$_ZN8facebook6hermes7tracing10SynthTrace12MarkerRecordD2Ev = comdat any

$_ZN8facebook6hermes7tracing10SynthTrace12MarkerRecordD0Ev = comdat any

$_ZNK8facebook6hermes7tracing10SynthTrace12MarkerRecord7getTypeEv = comdat any

$_ZN8facebook6hermes7tracing10SynthTrace17BeginExecJSRecordD2Ev = comdat any

$_ZN8facebook6hermes7tracing10SynthTrace17BeginExecJSRecordD0Ev = comdat any

$_ZNK8facebook6hermes7tracing10SynthTrace17BeginExecJSRecord7getTypeEv = comdat any

$_ZN8facebook6hermes7tracing10SynthTrace15EndExecJSRecordD2Ev = comdat any

$_ZN8facebook6hermes7tracing10SynthTrace15EndExecJSRecordD0Ev = comdat any

$_ZNK8facebook6hermes7tracing10SynthTrace15EndExecJSRecord7getTypeEv = comdat any

$_ZNK8facebook6hermes7tracing10SynthTrace15EndExecJSRecord4defsEv = comdat any

$_ZN8facebook6hermes7tracing10SynthTrace18CreateObjectRecordD2Ev = comdat any

$_ZN8facebook6hermes7tracing10SynthTrace18CreateObjectRecordD0Ev = comdat any

$_ZNK8facebook6hermes7tracing10SynthTrace18CreateObjectRecord7getTypeEv = comdat any

$_ZNK8facebook6hermes7tracing10SynthTrace18CreateObjectRecord4defsEv = comdat any

$_ZNK8facebook6hermes7tracing10SynthTrace18CreateObjectRecord4usesEv = comdat any

$_ZN8facebook6hermes7tracing10SynthTrace18CreateBigIntRecordD2Ev = comdat any

$_ZN8facebook6hermes7tracing10SynthTrace18CreateBigIntRecordD0Ev = comdat any

$_ZNK8facebook6hermes7tracing10SynthTrace18CreateBigIntRecord7getTypeEv = comdat any

$_ZNK8facebook6hermes7tracing10SynthTrace18CreateBigIntRecord4defsEv = comdat any

$_ZNK8facebook6hermes7tracing10SynthTrace18CreateBigIntRecord4usesEv = comdat any

$_ZN8facebook6hermes7tracing10SynthTrace20BigIntToStringRecordD2Ev = comdat any

$_ZN8facebook6hermes7tracing10SynthTrace20BigIntToStringRecordD0Ev = comdat any

$_ZNK8facebook6hermes7tracing10SynthTrace20BigIntToStringRecord7getTypeEv = comdat any

$_ZNK8facebook6hermes7tracing10SynthTrace20BigIntToStringRecord4defsEv = comdat any

$_ZNK8facebook6hermes7tracing10SynthTrace20BigIntToStringRecord4usesEv = comdat any

$_ZN8facebook6hermes7tracing10SynthTrace18CreateStringRecordD2Ev = comdat any

$_ZN8facebook6hermes7tracing10SynthTrace18CreateStringRecordD0Ev = comdat any

$_ZNK8facebook6hermes7tracing10SynthTrace18CreateStringRecord7getTypeEv = comdat any

$_ZNK8facebook6hermes7tracing10SynthTrace18CreateStringRecord4defsEv = comdat any

$_ZNK8facebook6hermes7tracing10SynthTrace18CreateStringRecord4usesEv = comdat any

$_ZN8facebook6hermes7tracing10SynthTrace22CreatePropNameIDRecordD2Ev = comdat any

$_ZN8facebook6hermes7tracing10SynthTrace22CreatePropNameIDRecordD0Ev = comdat any

$_ZNK8facebook6hermes7tracing10SynthTrace22CreatePropNameIDRecord7getTypeEv = comdat any

$_ZNK8facebook6hermes7tracing10SynthTrace22CreatePropNameIDRecord4defsEv = comdat any

$_ZNK8facebook6hermes7tracing10SynthTrace22CreatePropNameIDRecord4usesEv = comdat any

$_ZN8facebook6hermes7tracing10SynthTrace24CreateHostFunctionRecordD2Ev = comdat any

$_ZN8facebook6hermes7tracing10SynthTrace24CreateHostFunctionRecordD0Ev = comdat any

$_ZNK8facebook6hermes7tracing10SynthTrace24CreateHostFunctionRecord7getTypeEv = comdat any

$_ZNK8facebook6hermes7tracing10SynthTrace24CreateHostFunctionRecord4usesEv = comdat any

$_ZN8facebook6hermes7tracing10SynthTrace22GetOrSetPropertyRecordD2Ev = comdat any

$_ZN8facebook6hermes7tracing10SynthTrace22GetOrSetPropertyRecordD0Ev = comdat any

$_ZNK8facebook6hermes7tracing10SynthTrace22GetOrSetPropertyRecord4usesEv = comdat any

$_ZN8facebook6hermes7tracing10SynthTrace21DrainMicrotasksRecordD2Ev = comdat any

$_ZN8facebook6hermes7tracing10SynthTrace21DrainMicrotasksRecordD0Ev = comdat any

$_ZNK8facebook6hermes7tracing10SynthTrace21DrainMicrotasksRecord7getTypeEv = comdat any

$_ZN8facebook6hermes7tracing10SynthTrace17HasPropertyRecordD2Ev = comdat any

$_ZN8facebook6hermes7tracing10SynthTrace17HasPropertyRecordD0Ev = comdat any

$_ZNK8facebook6hermes7tracing10SynthTrace17HasPropertyRecord7getTypeEv = comdat any

$_ZNK8facebook6hermes7tracing10SynthTrace17HasPropertyRecord4usesEv = comdat any

$_ZN8facebook6hermes7tracing10SynthTrace22GetPropertyNamesRecordD2Ev = comdat any

$_ZN8facebook6hermes7tracing10SynthTrace22GetPropertyNamesRecordD0Ev = comdat any

$_ZNK8facebook6hermes7tracing10SynthTrace22GetPropertyNamesRecord7getTypeEv = comdat any

$_ZNK8facebook6hermes7tracing10SynthTrace22GetPropertyNamesRecord4defsEv = comdat any

$_ZNK8facebook6hermes7tracing10SynthTrace22GetPropertyNamesRecord4usesEv = comdat any

$_ZN8facebook6hermes7tracing10SynthTrace17CreateArrayRecordD2Ev = comdat any

$_ZN8facebook6hermes7tracing10SynthTrace17CreateArrayRecordD0Ev = comdat any

$_ZNK8facebook6hermes7tracing10SynthTrace17CreateArrayRecord7getTypeEv = comdat any

$_ZNK8facebook6hermes7tracing10SynthTrace17CreateArrayRecord4defsEv = comdat any

$_ZN8facebook6hermes7tracing10SynthTrace22ArrayReadOrWriteRecordD2Ev = comdat any

$_ZN8facebook6hermes7tracing10SynthTrace22ArrayReadOrWriteRecordD0Ev = comdat any

$_ZNK8facebook6hermes7tracing10SynthTrace22ArrayReadOrWriteRecord4usesEv = comdat any

$_ZN8facebook6hermes7tracing10SynthTrace10CallRecordD2Ev = comdat any

$_ZN8facebook6hermes7tracing10SynthTrace10CallRecordD0Ev = comdat any

$_ZNK8facebook6hermes7tracing10SynthTrace10CallRecord4usesEv = comdat any

$_ZN8facebook6hermes7tracing10SynthTrace22ReturnFromNativeRecordD2Ev = comdat any

$_ZN8facebook6hermes7tracing10SynthTrace22ReturnFromNativeRecordD0Ev = comdat any

$_ZNK8facebook6hermes7tracing10SynthTrace22ReturnFromNativeRecord7getTypeEv = comdat any

$_ZNK8facebook6hermes7tracing10SynthTrace22ReturnFromNativeRecord4usesEv = comdat any

$_ZN8facebook6hermes7tracing10SynthTrace20ReturnToNativeRecordD2Ev = comdat any

$_ZN8facebook6hermes7tracing10SynthTrace20ReturnToNativeRecordD0Ev = comdat any

$_ZNK8facebook6hermes7tracing10SynthTrace20ReturnToNativeRecord7getTypeEv = comdat any

$_ZNK8facebook6hermes7tracing10SynthTrace20ReturnToNativeRecord4defsEv = comdat any

$_ZN8facebook6hermes7tracing10SynthTrace28GetOrSetPropertyNativeRecordD2Ev = comdat any

$_ZN8facebook6hermes7tracing10SynthTrace28GetOrSetPropertyNativeRecordD0Ev = comdat any

$_ZNK8facebook6hermes7tracing10SynthTrace28GetOrSetPropertyNativeRecord4defsEv = comdat any

$_ZNK8facebook6hermes7tracing10SynthTrace28GetOrSetPropertyNativeRecord4usesEv = comdat any

$_ZN8facebook6hermes7tracing10SynthTrace29GetPropertyNativeReturnRecordD0Ev = comdat any

$_ZNK8facebook6hermes7tracing10SynthTrace29GetPropertyNativeReturnRecord7getTypeEv = comdat any

$_ZNK8facebook6hermes7tracing10SynthTrace29GetPropertyNativeReturnRecord4usesEv = comdat any

$_ZN8facebook6hermes7tracing10SynthTrace23SetPropertyNativeRecordD2Ev = comdat any

$_ZN8facebook6hermes7tracing10SynthTrace23SetPropertyNativeRecordD0Ev = comdat any

$_ZNK8facebook6hermes7tracing10SynthTrace23SetPropertyNativeRecord7getTypeEv = comdat any

$_ZNK8facebook6hermes7tracing10SynthTrace23SetPropertyNativeRecord4defsEv = comdat any

$_ZN8facebook6hermes7tracing10SynthTrace28GetNativePropertyNamesRecordD2Ev = comdat any

$_ZN8facebook6hermes7tracing10SynthTrace28GetNativePropertyNamesRecordD0Ev = comdat any

$_ZNK8facebook6hermes7tracing10SynthTrace28GetNativePropertyNamesRecord7getTypeEv = comdat any

$_ZNK8facebook6hermes7tracing10SynthTrace28GetNativePropertyNamesRecord4usesEv = comdat any

$_ZN8facebook6hermes7tracing10SynthTrace34GetNativePropertyNamesReturnRecordD2Ev = comdat any

$_ZN8facebook6hermes7tracing10SynthTrace34GetNativePropertyNamesReturnRecordD0Ev = comdat any

$_ZNK8facebook6hermes7tracing10SynthTrace34GetNativePropertyNamesReturnRecord7getTypeEv = comdat any

$_ZN8facebook6hermes7tracing10SynthTrace31SetExternalMemoryPressureRecordD2Ev = comdat any

$_ZN8facebook6hermes7tracing10SynthTrace31SetExternalMemoryPressureRecordD0Ev = comdat any

$_ZNK8facebook6hermes7tracing10SynthTrace31SetExternalMemoryPressureRecord7getTypeEv = comdat any

$_ZNK8facebook6hermes7tracing10SynthTrace31SetExternalMemoryPressureRecord4usesEv = comdat any

$_ZN8facebook6hermes7tracing10SynthTrace23GetPropertyNativeRecordD2Ev = comdat any

$_ZN8facebook6hermes7tracing10SynthTrace23GetPropertyNativeRecordD0Ev = comdat any

$_ZNK8facebook6hermes7tracing10SynthTrace23GetPropertyNativeRecord7getTypeEv = comdat any

$_ZNSt15__uniq_ptr_dataIN4llvh11raw_ostreamESt14default_deleteIS1_ELb1ELb1EEC2EOS4_ = comdat any

$_ZNSt15__uniq_ptr_implIN4llvh11raw_ostreamESt14default_deleteIS1_EEC2EOS4_ = comdat any

$_ZNSt5tupleIJPN4llvh11raw_ostreamESt14default_deleteIS1_EEEC2EOS5_ = comdat any

$_ZNSt15__uniq_ptr_implIN4llvh11raw_ostreamESt14default_deleteIS1_EE6_M_ptrEv = comdat any

$_ZNSt11_Tuple_implILm0EJPN4llvh11raw_ostreamESt14default_deleteIS1_EEEC2EOS5_ = comdat any

$_ZNSt11_Tuple_implILm1EJSt14default_deleteIN4llvh11raw_ostreamEEEEC2EOS4_ = comdat any

$_ZSt3getILm0EJPN4llvh11raw_ostreamESt14default_deleteIS1_EEERNSt13tuple_elementIXT_ESt5tupleIJDpT0_EEE4typeERS9_ = comdat any

$_ZSt12__get_helperILm0EPN4llvh11raw_ostreamEJSt14default_deleteIS1_EEERT0_RSt11_Tuple_implIXT_EJS5_DpT1_EE = comdat any

$_ZNSt11_Tuple_implILm0EJPN4llvh11raw_ostreamESt14default_deleteIS1_EEE7_M_headERS5_ = comdat any

$_ZNSt10_Head_baseILm0EPN4llvh11raw_ostreamELb0EE7_M_headERS3_ = comdat any

$_ZNSt15__uniq_ptr_dataIN6hermes11JSONEmitterESt14default_deleteIS1_ELb1ELb1EEC2Ev = comdat any

$_ZNSt15__uniq_ptr_implIN6hermes11JSONEmitterESt14default_deleteIS1_EEC2Ev = comdat any

$_ZNSt5tupleIJPN6hermes11JSONEmitterESt14default_deleteIS1_EEEC2ILb1ETnNSt9enable_ifIXclsr17_TupleConstraintsIXT_ES2_S4_EE37__is_implicitly_default_constructibleEEbE4typeELb1EEEv = comdat any

$_ZNSt11_Tuple_implILm0EJPN6hermes11JSONEmitterESt14default_deleteIS1_EEEC2Ev = comdat any

$__clang_call_terminate = comdat any

$_ZNSt11_Tuple_implILm1EJSt14default_deleteIN6hermes11JSONEmitterEEEEC2Ev = comdat any

$_ZNSt10_Head_baseILm0EPN6hermes11JSONEmitterELb0EEC2Ev = comdat any

$_ZNSt10_Head_baseILm1ESt14default_deleteIN6hermes11JSONEmitterEELb1EEC2Ev = comdat any

$_ZNSt12_Vector_baseISt10unique_ptrIN8facebook6hermes7tracing10SynthTrace6RecordESt14default_deleteIS5_EESaIS8_EEC2Ev = comdat any

$_ZNSt12_Vector_baseISt10unique_ptrIN8facebook6hermes7tracing10SynthTrace6RecordESt14default_deleteIS5_EESaIS8_EE12_Vector_implC2Ev = comdat any

$_ZNSaISt10unique_ptrIN8facebook6hermes7tracing10SynthTrace6RecordESt14default_deleteIS4_EEEC2Ev = comdat any

$_ZNSt12_Vector_baseISt10unique_ptrIN8facebook6hermes7tracing10SynthTrace6RecordESt14default_deleteIS5_EESaIS8_EE17_Vector_impl_dataC2Ev = comdat any

$_ZNSt15__new_allocatorISt10unique_ptrIN8facebook6hermes7tracing10SynthTrace6RecordESt14default_deleteIS5_EEEC2Ev = comdat any

$_ZNSt15__uniq_ptr_dataIN6hermes11JSONEmitterESt14default_deleteIS1_ELb1ELb1EEaSEOS4_ = comdat any

$_ZNSt15__uniq_ptr_implIN6hermes11JSONEmitterESt14default_deleteIS1_EEaSEOS4_ = comdat any

$_ZNSt15__uniq_ptr_implIN6hermes11JSONEmitterESt14default_deleteIS1_EE5resetEPS1_ = comdat any

$_ZNSt15__uniq_ptr_implIN6hermes11JSONEmitterESt14default_deleteIS1_EE7releaseEv = comdat any

$_ZNSt15__uniq_ptr_implIN6hermes11JSONEmitterESt14default_deleteIS1_EE10_M_deleterEv = comdat any

$_ZNSt15__uniq_ptr_implIN6hermes11JSONEmitterESt14default_deleteIS1_EE6_M_ptrEv = comdat any

$_ZNKSt14default_deleteIN6hermes11JSONEmitterEEclEPS1_ = comdat any

$_ZSt3getILm0EJPN6hermes11JSONEmitterESt14default_deleteIS1_EEERNSt13tuple_elementIXT_ESt5tupleIJDpT0_EEE4typeERS9_ = comdat any

$_ZSt12__get_helperILm0EPN6hermes11JSONEmitterEJSt14default_deleteIS1_EEERT0_RSt11_Tuple_implIXT_EJS5_DpT1_EE = comdat any

$_ZNSt11_Tuple_implILm0EJPN6hermes11JSONEmitterESt14default_deleteIS1_EEE7_M_headERS5_ = comdat any

$_ZNSt10_Head_baseILm0EPN6hermes11JSONEmitterELb0EE7_M_headERS3_ = comdat any

$_ZN6hermes11JSONEmitterD2Ev = comdat any

$_ZN4llvh11SmallVectorIN6hermes11JSONEmitter5StateELj8EED2Ev = comdat any

$_ZN4llvh23SmallVectorTemplateBaseIN6hermes11JSONEmitter5StateELb1EE13destroy_rangeEPS3_S5_ = comdat any

$_ZN4llvh15SmallVectorImplIN6hermes11JSONEmitter5StateEED2Ev = comdat any

$_ZNK4llvh15SmallVectorBase4sizeEv = comdat any

$_ZNK4llvh25SmallVectorTemplateCommonIN6hermes11JSONEmitter5StateEvE7isSmallEv = comdat any

$_ZNK4llvh25SmallVectorTemplateCommonIN6hermes11JSONEmitter5StateEvE10getFirstElEv = comdat any

$_ZSt3getILm1EJPN6hermes11JSONEmitterESt14default_deleteIS1_EEERNSt13tuple_elementIXT_ESt5tupleIJDpT0_EEE4typeERS9_ = comdat any

$_ZSt12__get_helperILm1ESt14default_deleteIN6hermes11JSONEmitterEEJEERT0_RSt11_Tuple_implIXT_EJS4_DpT1_EE = comdat any

$_ZNSt11_Tuple_implILm1EJSt14default_deleteIN6hermes11JSONEmitterEEEE7_M_headERS4_ = comdat any

$_ZNSt10_Head_baseILm1ESt14default_deleteIN6hermes11JSONEmitterEELb1EE7_M_headERS4_ = comdat any

$_ZN6hermes2vm8GCConfigC2ERKS1_ = comdat any

$_ZN6hermes2vm16GCTripwireConfigC2ERKS1_ = comdat any

$_ZNSt8functionIFvRKN6hermes2vm16GCAnalyticsEventEEEC2ERKS6_ = comdat any

$_ZNSt8functionIFvN6hermes2vm11GCEventKindEPKcEEC2ERKS6_ = comdat any

$_ZNSt8functionIFvRKN6hermes2vm16GCAnalyticsEventEEED2Ev = comdat any

$_ZN6hermes2vm16GCTripwireConfigD2Ev = comdat any

$_ZNSt8functionIFvRN6hermes2vm17GCTripwireContextEEEC2ERKS5_ = comdat any

$_ZNSt14_Function_baseC2Ev = comdat any

$_ZNKSt8functionIFvRN6hermes2vm17GCTripwireContextEEEcvbEv = comdat any

$_ZNSt14_Function_baseD2Ev = comdat any

$_ZNKSt14_Function_base8_M_emptyEv = comdat any

$_ZNKSt8functionIFvRKN6hermes2vm16GCAnalyticsEventEEEcvbEv = comdat any

$_ZNKSt8functionIFvN6hermes2vm11GCEventKindEPKcEEcvbEv = comdat any

$_ZNSt8functionIFvRN6hermes2vm17GCTripwireContextEEED2Ev = comdat any

$_ZNSt8functionIFvN6hermes2vm11GCEventKindEPKcEED2Ev = comdat any

$_ZN8facebook6hermes7tracing10SynthTrace10TraceValueC2ENS3_3TagE = comdat any

$_ZN8facebook6hermes7tracing10SynthTrace10TraceValueC2Eb = comdat any

$_ZN8facebook6hermes7tracing10SynthTrace10TraceValueC2Ed = comdat any

$_ZN8facebook6hermes7tracing10SynthTrace10TraceValueC2ENS3_3TagEm = comdat any

$_ZNSt8__detail14__to_chars_lenImEEjT_i = comdat any

$_ZNSt7__cxx1112basic_stringIcSt11char_traitsIcESaIcEEC2IS3_EEmcRKS3_ = comdat any

$_ZNSt8__detail18__to_chars_10_implImEEvPcjT_ = comdat any

$_ZNSt7__cxx1112basic_stringIcSt11char_traitsIcESaIcEE12_Alloc_hiderD2Ev = comdat any

$_ZN4llvh12DoubleToBitsEd = comdat any

$_ZN4llvh8OptionalImEC2EOm = comdat any

$_ZN4llvh15optional_detail15OptionalStorageImLb1EEC2ERKm = comdat any

$_ZSt3hexRSt8ios_base = comdat any

$_ZN4llvh12BitsToDoubleEm = comdat any

$_ZNSt8ios_base4setfESt13_Ios_FmtflagsS0_ = comdat any

$_ZStaNRSt13_Ios_FmtflagsS_ = comdat any

$_ZStcoSt13_Ios_Fmtflags = comdat any

$_ZStoRRSt13_Ios_FmtflagsS_ = comdat any

$_ZStanSt13_Ios_FmtflagsS_ = comdat any

$_ZStorSt13_Ios_FmtflagsS_ = comdat any

$_ZN8facebook6hermes7tracing10SynthTrace6RecordC2ERKS3_ = comdat any

$_ZN4llvh11raw_ostreamC2Eb = comdat any

$_ZN4llvh11raw_ostreamlsENS_9StringRefE = comdat any

$_ZNSt6vectorImSaImEEC2Ev = comdat any

$_ZNSt12_Vector_baseImSaImEEC2Ev = comdat any

$_ZNSt12_Vector_baseImSaImEE12_Vector_implC2Ev = comdat any

$_ZNSt12_Vector_baseImSaImEE17_Vector_impl_dataC2Ev = comdat any

$_ZNSt15__new_allocatorImEC2Ev = comdat any

$_ZN8facebook6hermes7tracing10SynthTrace6Record18pushIfTrackedValueERKNS2_10TraceValueERSt6vectorImSaImEE = comdat any

$_ZNSt6vectorImSaImEED2Ev = comdat any

$_ZNK8facebook6hermes7tracing10SynthTrace10TraceValue5isUIDEv = comdat any

$_ZNSt6vectorImSaImEE9push_backEOm = comdat any

$_ZNSt6vectorImSaImEE12emplace_backIJmEEERmDpOT_ = comdat any

$_ZNSt16allocator_traitsISaImEE9constructImJmEEEvRS0_PT_DpOT0_ = comdat any

$_ZNSt6vectorImSaImEE17_M_realloc_insertIJmEEEvN9__gnu_cxx17__normal_iteratorIPmS1_EEDpOT_ = comdat any

$_ZNSt6vectorImSaImEE3endEv = comdat any

$_ZNSt6vectorImSaImEE4backEv = comdat any

$_ZNSt15__new_allocatorImE9constructImJmEEEvPT_DpOT0_ = comdat any

$_ZNKSt6vectorImSaImEE12_M_check_lenEmPKc = comdat any

$_ZN9__gnu_cxxmiIPmSt6vectorImSaImEEEENS_17__normal_iteratorIT_T0_E15difference_typeERKS8_SB_ = comdat any

$_ZNSt6vectorImSaImEE5beginEv = comdat any

$_ZNSt12_Vector_baseImSaImEE11_M_allocateEm = comdat any

$_ZNSt6vectorImSaImEE11_S_relocateEPmS2_S2_RS0_ = comdat any

$_ZNK9__gnu_cxx17__normal_iteratorIPmSt6vectorImSaImEEE4baseEv = comdat any

$_ZNSt12_Vector_baseImSaImEE19_M_get_Tp_allocatorEv = comdat any

$_ZNSt12_Vector_baseImSaImEE13_M_deallocateEPmm = comdat any

$_ZNKSt6vectorImSaImEE8max_sizeEv = comdat any

$_ZNKSt6vectorImSaImEE4sizeEv = comdat any

$_ZSt3maxImERKT_S2_S2_ = comdat any

$_ZNSt6vectorImSaImEE11_S_max_sizeERKS0_ = comdat any

$_ZNKSt12_Vector_baseImSaImEE19_M_get_Tp_allocatorEv = comdat any

$_ZNSt16allocator_traitsISaImEE8max_sizeERKS0_ = comdat any

$_ZSt3minImERKT_S2_S2_ = comdat any

$_ZNKSt15__new_allocatorImE8max_sizeEv = comdat any

$_ZNKSt15__new_allocatorImE11_M_max_sizeEv = comdat any

$_ZN9__gnu_cxx17__normal_iteratorIPmSt6vectorImSaImEEEC2ERKS1_ = comdat any

$_ZNSt16allocator_traitsISaImEE8allocateERS0_m = comdat any

$_ZNSt15__new_allocatorImE8allocateEmPKv = comdat any

$_ZSt12__relocate_aIPmS0_SaImEET0_T_S3_S2_RT1_ = comdat any

$_ZSt14__relocate_a_1ImmENSt9enable_ifIXsr3std24__is_bitwise_relocatableIT_EE5valueEPS1_E4typeES2_S2_S2_RSaIT0_E = comdat any

$_ZSt12__niter_baseIPmET_S1_ = comdat any

$_ZNSt16allocator_traitsISaImEE10deallocateERS0_Pmm = comdat any

$_ZNSt15__new_allocatorImE10deallocateEPmm = comdat any

$_ZNK9__gnu_cxx17__normal_iteratorIPmSt6vectorImSaImEEEmiEl = comdat any

$_ZNK9__gnu_cxx17__normal_iteratorIPmSt6vectorImSaImEEEdeEv = comdat any

$_ZSt8_DestroyIPmmEvT_S1_RSaIT0_E = comdat any

$_ZNSt12_Vector_baseImSaImEED2Ev = comdat any

$_ZSt8_DestroyIPmEvT_S1_ = comdat any

$_ZNSt12_Destroy_auxILb1EE9__destroyIPmEEvT_S3_ = comdat any

$_ZNSt12_Vector_baseImSaImEE12_Vector_implD2Ev = comdat any

$_ZNSt15__new_allocatorImED2Ev = comdat any

$_ZNSaImEC2Ev = comdat any

$_ZNSt6vectorImSaImEEC2ESt16initializer_listImERKS0_ = comdat any

$_ZNSaImED2Ev = comdat any

$_ZNSt12_Vector_baseImSaImEEC2ERKS0_ = comdat any

$_ZNSt6vectorImSaImEE19_M_range_initializeIPKmEEvT_S5_St20forward_iterator_tag = comdat any

$_ZNKSt16initializer_listImE5beginEv = comdat any

$_ZNKSt16initializer_listImE3endEv = comdat any

$_ZNSt12_Vector_baseImSaImEE12_Vector_implC2ERKS0_ = comdat any

$_ZNSt15__new_allocatorImEC2ERKS0_ = comdat any

$_ZSt8distanceIPKmENSt15iterator_traitsIT_E15difference_typeES3_S3_ = comdat any

$_ZNSt6vectorImSaImEE17_S_check_init_lenEmRKS0_ = comdat any

$_ZSt22__uninitialized_copy_aIPKmPmmET0_T_S4_S3_RSaIT1_E = comdat any

$_ZSt10__distanceIPKmENSt15iterator_traitsIT_E15difference_typeES3_S3_St26random_access_iterator_tag = comdat any

$_ZSt19__iterator_categoryIPKmENSt15iterator_traitsIT_E17iterator_categoryERKS3_ = comdat any

$_ZNSaImEC2ERKS_ = comdat any

$_ZSt18uninitialized_copyIPKmPmET0_T_S4_S3_ = comdat any

$_ZNSt20__uninitialized_copyILb1EE13__uninit_copyIPKmPmEET0_T_S6_S5_ = comdat any

$_ZSt4copyIPKmPmET0_T_S4_S3_ = comdat any

$_ZSt13__copy_move_aILb0EPKmPmET1_T0_S4_S3_ = comdat any

$_ZSt12__miter_baseIPKmET_S2_ = comdat any

$_ZSt12__niter_wrapIPmET_RKS1_S1_ = comdat any

$_ZSt14__copy_move_a1ILb0EPKmPmET1_T0_S4_S3_ = comdat any

$_ZSt12__niter_baseIPKmET_S2_ = comdat any

$_ZSt14__copy_move_a2ILb0EPKmPmET1_T0_S4_S3_ = comdat any

$_ZNSt11__copy_moveILb0ELb1ESt26random_access_iterator_tagE8__copy_mImEEPT_PKS3_S6_S4_ = comdat any

$_ZNKSt16initializer_listImE4sizeEv = comdat any

$_ZNSt6vectorIN8facebook6hermes7tracing10SynthTrace10TraceValueESaIS4_EED2Ev = comdat any

$_ZSt8_DestroyIPN8facebook6hermes7tracing10SynthTrace10TraceValueES4_EvT_S6_RSaIT0_E = comdat any

$_ZNSt12_Vector_baseIN8facebook6hermes7tracing10SynthTrace10TraceValueESaIS4_EE19_M_get_Tp_allocatorEv = comdat any

$_ZNSt12_Vector_baseIN8facebook6hermes7tracing10SynthTrace10TraceValueESaIS4_EED2Ev = comdat any

$_ZSt8_DestroyIPN8facebook6hermes7tracing10SynthTrace10TraceValueEEvT_S6_ = comdat any

$_ZNSt12_Destroy_auxILb1EE9__destroyIPN8facebook6hermes7tracing10SynthTrace10TraceValueEEEvT_S8_ = comdat any

$_ZNSt12_Vector_baseIN8facebook6hermes7tracing10SynthTrace10TraceValueESaIS4_EE13_M_deallocateEPS4_m = comdat any

$_ZNSt12_Vector_baseIN8facebook6hermes7tracing10SynthTrace10TraceValueESaIS4_EE12_Vector_implD2Ev = comdat any

$_ZNSt16allocator_traitsISaIN8facebook6hermes7tracing10SynthTrace10TraceValueEEE10deallocateERS5_PS4_m = comdat any

$_ZNSt15__new_allocatorIN8facebook6hermes7tracing10SynthTrace10TraceValueEE10deallocateEPS4_m = comdat any

$_ZNSaIN8facebook6hermes7tracing10SynthTrace10TraceValueEED2Ev = comdat any

$_ZNSt15__new_allocatorIN8facebook6hermes7tracing10SynthTrace10TraceValueEED2Ev = comdat any

$_ZNSt6vectorINSt7__cxx1112basic_stringIcSt11char_traitsIcESaIcEEESaIS5_EED2Ev = comdat any

$_ZSt8_DestroyIPNSt7__cxx1112basic_stringIcSt11char_traitsIcESaIcEEES5_EvT_S7_RSaIT0_E = comdat any

$_ZNSt12_Vector_baseINSt7__cxx1112basic_stringIcSt11char_traitsIcESaIcEEESaIS5_EE19_M_get_Tp_allocatorEv = comdat any

$_ZNSt12_Vector_baseINSt7__cxx1112basic_stringIcSt11char_traitsIcESaIcEEESaIS5_EED2Ev = comdat any

$_ZSt8_DestroyIPNSt7__cxx1112basic_stringIcSt11char_traitsIcESaIcEEEEvT_S7_ = comdat any

$_ZNSt12_Destroy_auxILb0EE9__destroyIPNSt7__cxx1112basic_stringIcSt11char_traitsIcESaIcEEEEEvT_S9_ = comdat any

$_ZSt8_DestroyINSt7__cxx1112basic_stringIcSt11char_traitsIcESaIcEEEEvPT_ = comdat any

$_ZNSt12_Vector_baseINSt7__cxx1112basic_stringIcSt11char_traitsIcESaIcEEESaIS5_EE13_M_deallocateEPS5_m = comdat any

$_ZNSt12_Vector_baseINSt7__cxx1112basic_stringIcSt11char_traitsIcESaIcEEESaIS5_EE12_Vector_implD2Ev = comdat any

$_ZNSt16allocator_traitsISaINSt7__cxx1112basic_stringIcSt11char_traitsIcESaIcEEEEE10deallocateERS6_PS5_m = comdat any

$_ZNSt15__new_allocatorINSt7__cxx1112basic_stringIcSt11char_traitsIcESaIcEEEE10deallocateEPS5_m = comdat any

$_ZNSaINSt7__cxx1112basic_stringIcSt11char_traitsIcESaIcEEEED2Ev = comdat any

$_ZNSt15__new_allocatorINSt7__cxx1112basic_stringIcSt11char_traitsIcESaIcEEEED2Ev = comdat any

$_ZNSt11char_traitsIcE6lengthEPKc = comdat any

$_ZNSt7__cxx1112basic_stringIcSt11char_traitsIcESaIcEE12_M_constructIPKcEEvT_S8_St20forward_iterator_tag = comdat any

$_ZSt8distanceIPKcENSt15iterator_traitsIT_E15difference_typeES3_S3_ = comdat any

$_ZZNSt7__cxx1112basic_stringIcSt11char_traitsIcESaIcEE12_M_constructIPKcEEvT_S8_St20forward_iterator_tagEN6_GuardC2EPS4_ = comdat any

$_ZZNSt7__cxx1112basic_stringIcSt11char_traitsIcESaIcEE12_M_constructIPKcEEvT_S8_St20forward_iterator_tagEN6_GuardD2Ev = comdat any

$_ZSt10__distanceIPKcENSt15iterator_traitsIT_E15difference_typeES3_S3_St26random_access_iterator_tag = comdat any

$_ZSt19__iterator_categoryIPKcENSt15iterator_traitsIT_E17iterator_categoryERKS3_ = comdat any

$_ZNKSt10unique_ptrIN4llvh11raw_ostreamESt14default_deleteIS1_EE3getEv = comdat any

$_ZNKSt15__uniq_ptr_implIN4llvh11raw_ostreamESt14default_deleteIS1_EE6_M_ptrEv = comdat any

$_ZSt3getILm0EJPN4llvh11raw_ostreamESt14default_deleteIS1_EEERKNSt13tuple_elementIXT_ESt5tupleIJDpT0_EEE4typeERKS9_ = comdat any

$_ZSt12__get_helperILm0EPN4llvh11raw_ostreamEJSt14default_deleteIS1_EEERKT0_RKSt11_Tuple_implIXT_EJS5_DpT1_EE = comdat any

$_ZNSt11_Tuple_implILm0EJPN4llvh11raw_ostreamESt14default_deleteIS1_EEE7_M_headERKS5_ = comdat any

$_ZNSt10_Head_baseILm0EPN4llvh11raw_ostreamELb0EE7_M_headERKS3_ = comdat any

$_ZN9__gnu_cxx17__normal_iteratorIPKN8facebook6hermes7tracing10SynthTrace10TraceValueESt6vectorIS5_SaIS5_EEEC2ERKS7_ = comdat any

$_ZNK9__gnu_cxx17__normal_iteratorIPKN8facebook6hermes7tracing10SynthTrace10TraceValueESt6vectorIS5_SaIS5_EEE4baseEv = comdat any

$_ZNSt11char_traitsIcE7compareEPKcS2_m = comdat any

$_ZNSt10unique_ptrIN4llvh11raw_ostreamESt14default_deleteIS1_EE11get_deleterEv = comdat any

$_ZNKSt14default_deleteIN4llvh11raw_ostreamEEclEPS1_ = comdat any

$_ZNSt15__uniq_ptr_implIN4llvh11raw_ostreamESt14default_deleteIS1_EE10_M_deleterEv = comdat any

$_ZSt3getILm1EJPN4llvh11raw_ostreamESt14default_deleteIS1_EEERNSt13tuple_elementIXT_ESt5tupleIJDpT0_EEE4typeERS9_ = comdat any

$_ZSt12__get_helperILm1ESt14default_deleteIN4llvh11raw_ostreamEEJEERT0_RSt11_Tuple_implIXT_EJS4_DpT1_EE = comdat any

$_ZNSt11_Tuple_implILm1EJSt14default_deleteIN4llvh11raw_ostreamEEEE7_M_headERS4_ = comdat any

$_ZNSt10_Head_baseILm1ESt14default_deleteIN4llvh11raw_ostreamEELb1EE7_M_headERS4_ = comdat any

$_ZNSt10unique_ptrIN6hermes11JSONEmitterESt14default_deleteIS1_EE11get_deleterEv = comdat any

$_ZSt8_DestroyIPSt10unique_ptrIN8facebook6hermes7tracing10SynthTrace6RecordESt14default_deleteIS5_EES8_EvT_SA_RSaIT0_E = comdat any

$_ZNSt12_Vector_baseISt10unique_ptrIN8facebook6hermes7tracing10SynthTrace6RecordESt14default_deleteIS5_EESaIS8_EE19_M_get_Tp_allocatorEv = comdat any

$_ZNSt12_Vector_baseISt10unique_ptrIN8facebook6hermes7tracing10SynthTrace6RecordESt14default_deleteIS5_EESaIS8_EED2Ev = comdat any

$_ZSt8_DestroyIPSt10unique_ptrIN8facebook6hermes7tracing10SynthTrace6RecordESt14default_deleteIS5_EEEvT_SA_ = comdat any

$_ZNSt12_Destroy_auxILb0EE9__destroyIPSt10unique_ptrIN8facebook6hermes7tracing10SynthTrace6RecordESt14default_deleteIS7_EEEEvT_SC_ = comdat any

$_ZSt8_DestroyISt10unique_ptrIN8facebook6hermes7tracing10SynthTrace6RecordESt14default_deleteIS5_EEEvPT_ = comdat any

$_ZNSt10unique_ptrIN8facebook6hermes7tracing10SynthTrace6RecordESt14default_deleteIS4_EED2Ev = comdat any

$_ZNSt15__uniq_ptr_implIN8facebook6hermes7tracing10SynthTrace6RecordESt14default_deleteIS4_EE6_M_ptrEv = comdat any

$_ZNSt10unique_ptrIN8facebook6hermes7tracing10SynthTrace6RecordESt14default_deleteIS4_EE11get_deleterEv = comdat any

$_ZNKSt14default_deleteIN8facebook6hermes7tracing10SynthTrace6RecordEEclEPS4_ = comdat any

$_ZSt3getILm0EJPN8facebook6hermes7tracing10SynthTrace6RecordESt14default_deleteIS4_EEERNSt13tuple_elementIXT_ESt5tupleIJDpT0_EEE4typeERSC_ = comdat any

$_ZSt12__get_helperILm0EPN8facebook6hermes7tracing10SynthTrace6RecordEJSt14default_deleteIS4_EEERT0_RSt11_Tuple_implIXT_EJS8_DpT1_EE = comdat any

$_ZNSt11_Tuple_implILm0EJPN8facebook6hermes7tracing10SynthTrace6RecordESt14default_deleteIS4_EEE7_M_headERS8_ = comdat any

$_ZNSt10_Head_baseILm0EPN8facebook6hermes7tracing10SynthTrace6RecordELb0EE7_M_headERS6_ = comdat any

$_ZNSt15__uniq_ptr_implIN8facebook6hermes7tracing10SynthTrace6RecordESt14default_deleteIS4_EE10_M_deleterEv = comdat any

$_ZSt3getILm1EJPN8facebook6hermes7tracing10SynthTrace6RecordESt14default_deleteIS4_EEERNSt13tuple_elementIXT_ESt5tupleIJDpT0_EEE4typeERSC_ = comdat any

$_ZSt12__get_helperILm1ESt14default_deleteIN8facebook6hermes7tracing10SynthTrace6RecordEEJEERT0_RSt11_Tuple_implIXT_EJS7_DpT1_EE = comdat any

$_ZNSt11_Tuple_implILm1EJSt14default_deleteIN8facebook6hermes7tracing10SynthTrace6RecordEEEE7_M_headERS7_ = comdat any

$_ZNSt10_Head_baseILm1ESt14default_deleteIN8facebook6hermes7tracing10SynthTrace6RecordEELb1EE7_M_headERS7_ = comdat any

$_ZNSt12_Vector_baseISt10unique_ptrIN8facebook6hermes7tracing10SynthTrace6RecordESt14default_deleteIS5_EESaIS8_EE13_M_deallocateEPS8_m = comdat any

$_ZNSt12_Vector_baseISt10unique_ptrIN8facebook6hermes7tracing10SynthTrace6RecordESt14default_deleteIS5_EESaIS8_EE12_Vector_implD2Ev = comdat any

$_ZNSt16allocator_traitsISaISt10unique_ptrIN8facebook6hermes7tracing10SynthTrace6RecordESt14default_deleteIS5_EEEE10deallocateERS9_PS8_m = comdat any

$_ZNSt15__new_allocatorISt10unique_ptrIN8facebook6hermes7tracing10SynthTrace6RecordESt14default_deleteIS5_EEE10deallocateEPS8_m = comdat any

$_ZNSaISt10unique_ptrIN8facebook6hermes7tracing10SynthTrace6RecordESt14default_deleteIS4_EEED2Ev = comdat any

$_ZNSt15__new_allocatorISt10unique_ptrIN8facebook6hermes7tracing10SynthTrace6RecordESt14default_deleteIS5_EEED2Ev = comdat any

$_ZN6hermes11JSONEmitterC2ERN4llvh11raw_ostreamEb = comdat any

$_ZNSt10unique_ptrIN6hermes11JSONEmitterESt14default_deleteIS1_EEC2IS3_vEEPS1_ = comdat any

$_ZN4llvh11SmallVectorIN6hermes11JSONEmitter5StateELj8EEC2Ev = comdat any

$_ZN4llvh15SmallVectorImplIN6hermes11JSONEmitter5StateEEC2Ej = comdat any

$_ZN4llvh23SmallVectorTemplateBaseIN6hermes11JSONEmitter5StateELb1EEC2Em = comdat any

$_ZN4llvh25SmallVectorTemplateCommonIN6hermes11JSONEmitter5StateEvEC2Em = comdat any

$_ZN4llvh15SmallVectorBaseC2EPvm = comdat any

$_ZNSt15__uniq_ptr_dataIN6hermes11JSONEmitterESt14default_deleteIS1_ELb1ELb1EECI2St15__uniq_ptr_implIS1_S3_EEPS1_ = comdat any

$_ZNSt15__uniq_ptr_implIN6hermes11JSONEmitterESt14default_deleteIS1_EEC2EPS1_ = comdat any

$_ZNKSt10unique_ptrIN6hermes11JSONEmitterESt14default_deleteIS1_EE3getEv = comdat any

$_ZNKSt15__uniq_ptr_implIN6hermes11JSONEmitterESt14default_deleteIS1_EE6_M_ptrEv = comdat any

$_ZSt3getILm0EJPN6hermes11JSONEmitterESt14default_deleteIS1_EEERKNSt13tuple_elementIXT_ESt5tupleIJDpT0_EEE4typeERKS9_ = comdat any

$_ZSt12__get_helperILm0EPN6hermes11JSONEmitterEJSt14default_deleteIS1_EEERKT0_RKSt11_Tuple_implIXT_EJS5_DpT1_EE = comdat any

$_ZNSt11_Tuple_implILm0EJPN6hermes11JSONEmitterESt14default_deleteIS1_EEE7_M_headERKS5_ = comdat any

$_ZNSt10_Head_baseILm0EPN6hermes11JSONEmitterELb0EE7_M_headERKS3_ = comdat any

$_ZN6hermes11JSONEmitter9emitValueEPKc = comdat any

$_ZN9__gnu_cxx17__normal_iteratorIPKcNSt7__cxx1112basic_stringIcSt11char_traitsIcESaIcEEEEC2ERKS2_ = comdat any

$_ZNSt7__cxx1112basic_stringIcSt11char_traitsIcESaIcEE12_M_constructIN9__gnu_cxx17__normal_iteratorIPKcS4_EEEEvT_SB_St20forward_iterator_tag = comdat any

$_ZSt19__iterator_categoryIN9__gnu_cxx17__normal_iteratorIPKcNSt7__cxx1112basic_stringIcSt11char_traitsIcESaIcEEEEEENSt15iterator_traitsIT_E17iterator_categoryERKSC_ = comdat any

$_ZSt8distanceIN9__gnu_cxx17__normal_iteratorIPKcNSt7__cxx1112basic_stringIcSt11char_traitsIcESaIcEEEEEENSt15iterator_traitsIT_E15difference_typeESC_SC_ = comdat any

$_ZZNSt7__cxx1112basic_stringIcSt11char_traitsIcESaIcEE12_M_constructIN9__gnu_cxx17__normal_iteratorIPKcS4_EEEEvT_SB_St20forward_iterator_tagEN6_GuardC2EPS4_ = comdat any

$_ZZNSt7__cxx1112basic_stringIcSt11char_traitsIcESaIcEE12_M_constructIN9__gnu_cxx17__normal_iteratorIPKcS4_EEEEvT_SB_St20forward_iterator_tagEN6_GuardD2Ev = comdat any

$_ZSt10__distanceIN9__gnu_cxx17__normal_iteratorIPKcNSt7__cxx1112basic_stringIcSt11char_traitsIcESaIcEEEEEENSt15iterator_traitsIT_E15difference_typeESC_SC_St26random_access_iterator_tag = comdat any

$_ZN9__gnu_cxxmiIPKcNSt7__cxx1112basic_stringIcSt11char_traitsIcESaIcEEEEENS_17__normal_iteratorIT_T0_E15difference_typeERKSC_SF_ = comdat any

$_ZNK9__gnu_cxx17__normal_iteratorIPKcNSt7__cxx1112basic_stringIcSt11char_traitsIcESaIcEEEE4baseEv = comdat any

$_ZSt5equalIPKhS1_EbT_S2_T0_ = comdat any

$_ZNKSt5arrayIhLm20EE5beginEv = comdat any

$_ZNKSt5arrayIhLm20EE3endEv = comdat any

$_ZSt11__equal_auxIPKhS1_EbT_S2_T0_ = comdat any

$_ZSt12__equal_aux1IPKhS1_EbT_S2_T0_ = comdat any

$_ZSt12__niter_baseIPKhET_S2_ = comdat any

$_ZNSt7__equalILb1EE5equalIhEEbPKT_S4_S4_ = comdat any

$_ZSt8__memcmpIhhEiPKT_PKT0_m = comdat any

$_ZNKSt5arrayIhLm20EE4dataEv = comdat any

$_ZNSt14__array_traitsIhLm20EE6_S_ptrERA20_Kh = comdat any

$_ZNKSt6vectorINSt7__cxx1112basic_stringIcSt11char_traitsIcESaIcEEESaIS5_EE4sizeEv = comdat any

$_ZSt5equalIN9__gnu_cxx17__normal_iteratorIPKNSt7__cxx1112basic_stringIcSt11char_traitsIcESaIcEEESt6vectorIS7_SaIS7_EEEESD_EbT_SE_T0_ = comdat any

$_ZSt11__equal_auxIN9__gnu_cxx17__normal_iteratorIPKNSt7__cxx1112basic_stringIcSt11char_traitsIcESaIcEEESt6vectorIS7_SaIS7_EEEESD_EbT_SE_T0_ = comdat any

$_ZSt12__equal_aux1IPKNSt7__cxx1112basic_stringIcSt11char_traitsIcESaIcEEES7_EbT_S8_T0_ = comdat any

$_ZSt12__niter_baseIPKNSt7__cxx1112basic_stringIcSt11char_traitsIcESaIcEEESt6vectorIS5_SaIS5_EEET_N9__gnu_cxx17__normal_iteratorISB_T0_EE = comdat any

$_ZNSt7__equalILb0EE5equalIPKNSt7__cxx1112basic_stringIcSt11char_traitsIcESaIcEEES9_EEbT_SA_T0_ = comdat any

$_ZNK9__gnu_cxx17__normal_iteratorIPKNSt7__cxx1112basic_stringIcSt11char_traitsIcESaIcEEESt6vectorIS6_SaIS6_EEE4baseEv = comdat any

$_ZN9__gnu_cxx17__normal_iteratorIPKNSt7__cxx1112basic_stringIcSt11char_traitsIcESaIcEEESt6vectorIS6_SaIS6_EEEC2ERKS8_ = comdat any

$_ZN9__gnu_cxx17__normal_iteratorIPSt10unique_ptrIN8facebook6hermes7tracing10SynthTrace6RecordESt14default_deleteIS6_EESt6vectorIS9_SaIS9_EEEC2ERKSA_ = comdat any

$_ZNK9__gnu_cxx17__normal_iteratorIPSt10unique_ptrIN8facebook6hermes7tracing10SynthTrace6RecordESt14default_deleteIS6_EESt6vectorIS9_SaIS9_EEE4baseEv = comdat any

$_ZNKSt10unique_ptrIN8facebook6hermes7tracing10SynthTrace6RecordESt14default_deleteIS4_EE3getEv = comdat any

$_ZNKSt15__uniq_ptr_implIN8facebook6hermes7tracing10SynthTrace6RecordESt14default_deleteIS4_EE6_M_ptrEv = comdat any

$_ZSt3getILm0EJPN8facebook6hermes7tracing10SynthTrace6RecordESt14default_deleteIS4_EEERKNSt13tuple_elementIXT_ESt5tupleIJDpT0_EEE4typeERKSC_ = comdat any

$_ZSt12__get_helperILm0EPN8facebook6hermes7tracing10SynthTrace6RecordEJSt14default_deleteIS4_EEERKT0_RKSt11_Tuple_implIXT_EJS8_DpT1_EE = comdat any

$_ZNSt11_Tuple_implILm0EJPN8facebook6hermes7tracing10SynthTrace6RecordESt14default_deleteIS4_EEE7_M_headERKS8_ = comdat any

$_ZNSt10_Head_baseILm0EPN8facebook6hermes7tracing10SynthTrace6RecordELb0EE7_M_headERKS6_ = comdat any

$_ZNSt6vectorISt10unique_ptrIN8facebook6hermes7tracing10SynthTrace6RecordESt14default_deleteIS5_EESaIS8_EE15_M_erase_at_endEPS8_ = comdat any

$_ZNSt15__uniq_ptr_implIN4llvh11raw_ostreamESt14default_deleteIS1_EE5resetEPS1_ = comdat any

$_ZTSN8facebook6hermes7tracing10SynthTrace11ReturnMixinE = comdat any

$_ZTIN8facebook6hermes7tracing10SynthTrace11ReturnMixinE = comdat any

$_ZZNSt8__detail18__to_chars_10_implImEEvPcjT_E8__digits = comdat any

@.str = private unnamed_addr constant [8 x i8] c"version\00", align 1
@.str.1 = private unnamed_addr constant [12 x i8] c"globalObjID\00", align 1
@.str.2 = private unnamed_addr constant [14 x i8] c"runtimeConfig\00", align 1
@.str.3 = private unnamed_addr constant [9 x i8] c"gcConfig\00", align 1
@.str.4 = private unnamed_addr constant [12 x i8] c"minHeapSize\00", align 1
@.str.5 = private unnamed_addr constant [13 x i8] c"initHeapSize\00", align 1
@.str.6 = private unnamed_addr constant [12 x i8] c"maxHeapSize\00", align 1
@.str.7 = private unnamed_addr constant [16 x i8] c"occupancyTarget\00", align 1
@.str.8 = private unnamed_addr constant [22 x i8] c"effectiveOOMThreshold\00", align 1
@.str.9 = private unnamed_addr constant [20 x i8] c"shouldReleaseUnused\00", align 1
@.str.10 = private unnamed_addr constant [5 x i8] c"name\00", align 1
@.str.11 = private unnamed_addr constant [13 x i8] c"allocInYoung\00", align 1
@.str.12 = private unnamed_addr constant [16 x i8] c"revertToYGAtTTI\00", align 1
@.str.13 = private unnamed_addr constant [16 x i8] c"maxNumRegisters\00", align 1
@.str.14 = private unnamed_addr constant [11 x i8] c"ES6Promise\00", align 1
@.str.15 = private unnamed_addr constant [9 x i8] c"ES6Proxy\00", align 1
@.str.16 = private unnamed_addr constant [5 x i8] c"Intl\00", align 1
@.str.17 = private unnamed_addr constant [16 x i8] c"MicrotasksQueue\00", align 1
@.str.18 = private unnamed_addr constant [19 x i8] c"enableSampledStats\00", align 1
@.str.19 = private unnamed_addr constant [18 x i8] c"vmExperimentFlags\00", align 1
@.str.20 = private unnamed_addr constant [16 x i8] c"buildProperties\00", align 1
@.str.21 = private unnamed_addr constant [18 x i8] c"nativePointerSize\00", align 1
@.str.22 = private unnamed_addr constant [24 x i8] c"allowCompressedPointers\00", align 1
@.str.23 = private unnamed_addr constant [11 x i8] c"debugBuild\00", align 1
@.str.24 = private unnamed_addr constant [10 x i8] c"slowDebug\00", align 1
@.str.25 = private unnamed_addr constant [15 x i8] c"enableDebugger\00", align 1
@.str.26 = private unnamed_addr constant [24 x i8] c"enableIRInstrumentation\00", align 1
@.str.27 = private unnamed_addr constant [35 x i8] c"sizeofExternalASCIIStringPrimitive\00", align 1
@.str.28 = private unnamed_addr constant [6 x i8] c"trace\00", align 1
@.str.29 = private unnamed_addr constant [11 x i8] c"undefined:\00", align 1
@.str.30 = private unnamed_addr constant [6 x i8] c"null:\00", align 1
@.str.31 = private unnamed_addr constant [8 x i8] c"object:\00", align 1
@.str.32 = private unnamed_addr constant [8 x i8] c"bigint:\00", align 1
@.str.33 = private unnamed_addr constant [8 x i8] c"string:\00", align 1
@.str.34 = private unnamed_addr constant [12 x i8] c"propNameID:\00", align 1
@.str.35 = private unnamed_addr constant [8 x i8] c"symbol:\00", align 1
@.str.36 = private unnamed_addr constant [8 x i8] c"number:\00", align 1
@.str.37 = private unnamed_addr constant [6 x i8] c"bool:\00", align 1
@.str.38 = private unnamed_addr constant [5 x i8] c"true\00", align 1
@.str.39 = private unnamed_addr constant [6 x i8] c"false\00", align 1
@.str.40 = private unnamed_addr constant [10 x i8] c"undefined\00", align 1
@.str.41 = private unnamed_addr constant [5 x i8] c"null\00", align 1
@.str.42 = private unnamed_addr constant [5 x i8] c"bool\00", align 1
@.str.43 = private unnamed_addr constant [7 x i8] c"number\00", align 1
@.str.44 = private unnamed_addr constant [7 x i8] c"object\00", align 1
@.str.45 = private unnamed_addr constant [7 x i8] c"string\00", align 1
@.str.46 = private unnamed_addr constant [7 x i8] c"bigint\00", align 1
@.str.47 = private unnamed_addr constant [11 x i8] c"propNameID\00", align 1
@.str.48 = private unnamed_addr constant [7 x i8] c"symbol\00", align 1
@_ZTVN10__cxxabiv117__class_type_infoE = external global [0 x ptr]
@_ZTSN8facebook6hermes7tracing10SynthTrace6RecordE = hidden constant [46 x i8] c"N8facebook6hermes7tracing10SynthTrace6RecordE\00", align 1
@_ZTIN8facebook6hermes7tracing10SynthTrace6RecordE = hidden constant { ptr, ptr } { ptr getelementptr inbounds (ptr, ptr @_ZTVN10__cxxabiv117__class_type_infoE, i64 2), ptr @_ZTSN8facebook6hermes7tracing10SynthTrace6RecordE }, align 8
@_ZTVN10__cxxabiv120__si_class_type_infoE = external global [0 x ptr]
@_ZTSN8facebook6hermes7tracing10SynthTrace12MarkerRecordE = hidden constant [53 x i8] c"N8facebook6hermes7tracing10SynthTrace12MarkerRecordE\00", align 1
@_ZTIN8facebook6hermes7tracing10SynthTrace12MarkerRecordE = hidden constant { ptr, ptr, ptr } { ptr getelementptr inbounds (ptr, ptr @_ZTVN10__cxxabiv120__si_class_type_infoE, i64 2), ptr @_ZTSN8facebook6hermes7tracing10SynthTrace12MarkerRecordE, ptr @_ZTIN8facebook6hermes7tracing10SynthTrace6RecordE }, align 8
@_ZTSN8facebook6hermes7tracing10SynthTrace17BeginExecJSRecordE = hidden constant [58 x i8] c"N8facebook6hermes7tracing10SynthTrace17BeginExecJSRecordE\00", align 1
@_ZTIN8facebook6hermes7tracing10SynthTrace17BeginExecJSRecordE = hidden constant { ptr, ptr, ptr } { ptr getelementptr inbounds (ptr, ptr @_ZTVN10__cxxabiv120__si_class_type_infoE, i64 2), ptr @_ZTSN8facebook6hermes7tracing10SynthTrace17BeginExecJSRecordE, ptr @_ZTIN8facebook6hermes7tracing10SynthTrace6RecordE }, align 8
@_ZTVN10__cxxabiv121__vmi_class_type_infoE = external global [0 x ptr]
@_ZTSN8facebook6hermes7tracing10SynthTrace15EndExecJSRecordE = hidden constant [56 x i8] c"N8facebook6hermes7tracing10SynthTrace15EndExecJSRecordE\00", align 1
@_ZTSN8facebook6hermes7tracing10SynthTrace11ReturnMixinE = linkonce_odr hidden constant [52 x i8] c"N8facebook6hermes7tracing10SynthTrace11ReturnMixinE\00", comdat, align 1
@_ZTIN8facebook6hermes7tracing10SynthTrace11ReturnMixinE = linkonce_odr hidden constant { ptr, ptr } { ptr getelementptr inbounds (ptr, ptr @_ZTVN10__cxxabiv117__class_type_infoE, i64 2), ptr @_ZTSN8facebook6hermes7tracing10SynthTrace11ReturnMixinE }, comdat, align 8
@_ZTIN8facebook6hermes7tracing10SynthTrace15EndExecJSRecordE = hidden constant { ptr, ptr, i32, i32, ptr, i64, ptr, i64 } { ptr getelementptr inbounds (ptr, ptr @_ZTVN10__cxxabiv121__vmi_class_type_infoE, i64 2), ptr @_ZTSN8facebook6hermes7tracing10SynthTrace15EndExecJSRecordE, i32 0, i32 2, ptr @_ZTIN8facebook6hermes7tracing10SynthTrace12MarkerRecordE, i64 2, ptr @_ZTIN8facebook6hermes7tracing10SynthTrace11ReturnMixinE, i64 12290 }, align 8
@_ZTSN8facebook6hermes7tracing10SynthTrace18CreateObjectRecordE = hidden constant [59 x i8] c"N8facebook6hermes7tracing10SynthTrace18CreateObjectRecordE\00", align 1
@_ZTIN8facebook6hermes7tracing10SynthTrace18CreateObjectRecordE = hidden constant { ptr, ptr, ptr } { ptr getelementptr inbounds (ptr, ptr @_ZTVN10__cxxabiv120__si_class_type_infoE, i64 2), ptr @_ZTSN8facebook6hermes7tracing10SynthTrace18CreateObjectRecordE, ptr @_ZTIN8facebook6hermes7tracing10SynthTrace6RecordE }, align 8
@_ZTSN8facebook6hermes7tracing10SynthTrace21DrainMicrotasksRecordE = hidden constant [62 x i8] c"N8facebook6hermes7tracing10SynthTrace21DrainMicrotasksRecordE\00", align 1
@_ZTIN8facebook6hermes7tracing10SynthTrace21DrainMicrotasksRecordE = hidden constant { ptr, ptr, ptr } { ptr getelementptr inbounds (ptr, ptr @_ZTVN10__cxxabiv120__si_class_type_infoE, i64 2), ptr @_ZTSN8facebook6hermes7tracing10SynthTrace21DrainMicrotasksRecordE, ptr @_ZTIN8facebook6hermes7tracing10SynthTrace6RecordE }, align 8
@_ZTSN8facebook6hermes7tracing10SynthTrace18CreateBigIntRecordE = hidden constant [59 x i8] c"N8facebook6hermes7tracing10SynthTrace18CreateBigIntRecordE\00", align 1
@_ZTIN8facebook6hermes7tracing10SynthTrace18CreateBigIntRecordE = hidden constant { ptr, ptr, ptr } { ptr getelementptr inbounds (ptr, ptr @_ZTVN10__cxxabiv120__si_class_type_infoE, i64 2), ptr @_ZTSN8facebook6hermes7tracing10SynthTrace18CreateBigIntRecordE, ptr @_ZTIN8facebook6hermes7tracing10SynthTrace6RecordE }, align 8
@_ZTSN8facebook6hermes7tracing10SynthTrace20BigIntToStringRecordE = hidden constant [61 x i8] c"N8facebook6hermes7tracing10SynthTrace20BigIntToStringRecordE\00", align 1
@_ZTIN8facebook6hermes7tracing10SynthTrace20BigIntToStringRecordE = hidden constant { ptr, ptr, ptr } { ptr getelementptr inbounds (ptr, ptr @_ZTVN10__cxxabiv120__si_class_type_infoE, i64 2), ptr @_ZTSN8facebook6hermes7tracing10SynthTrace20BigIntToStringRecordE, ptr @_ZTIN8facebook6hermes7tracing10SynthTrace6RecordE }, align 8
@_ZTSN8facebook6hermes7tracing10SynthTrace18CreateStringRecordE = hidden constant [59 x i8] c"N8facebook6hermes7tracing10SynthTrace18CreateStringRecordE\00", align 1
@_ZTIN8facebook6hermes7tracing10SynthTrace18CreateStringRecordE = hidden constant { ptr, ptr, ptr } { ptr getelementptr inbounds (ptr, ptr @_ZTVN10__cxxabiv120__si_class_type_infoE, i64 2), ptr @_ZTSN8facebook6hermes7tracing10SynthTrace18CreateStringRecordE, ptr @_ZTIN8facebook6hermes7tracing10SynthTrace6RecordE }, align 8
@_ZTSN8facebook6hermes7tracing10SynthTrace22CreatePropNameIDRecordE = hidden constant [63 x i8] c"N8facebook6hermes7tracing10SynthTrace22CreatePropNameIDRecordE\00", align 1
@_ZTIN8facebook6hermes7tracing10SynthTrace22CreatePropNameIDRecordE = hidden constant { ptr, ptr, ptr } { ptr getelementptr inbounds (ptr, ptr @_ZTVN10__cxxabiv120__si_class_type_infoE, i64 2), ptr @_ZTSN8facebook6hermes7tracing10SynthTrace22CreatePropNameIDRecordE, ptr @_ZTIN8facebook6hermes7tracing10SynthTrace6RecordE }, align 8
@_ZTSN8facebook6hermes7tracing10SynthTrace24CreateHostFunctionRecordE = hidden constant [65 x i8] c"N8facebook6hermes7tracing10SynthTrace24CreateHostFunctionRecordE\00", align 1
@_ZTIN8facebook6hermes7tracing10SynthTrace24CreateHostFunctionRecordE = hidden constant { ptr, ptr, ptr } { ptr getelementptr inbounds (ptr, ptr @_ZTVN10__cxxabiv120__si_class_type_infoE, i64 2), ptr @_ZTSN8facebook6hermes7tracing10SynthTrace24CreateHostFunctionRecordE, ptr @_ZTIN8facebook6hermes7tracing10SynthTrace18CreateObjectRecordE }, align 8
@_ZTSN8facebook6hermes7tracing10SynthTrace22GetOrSetPropertyRecordE = hidden constant [63 x i8] c"N8facebook6hermes7tracing10SynthTrace22GetOrSetPropertyRecordE\00", align 1
@_ZTIN8facebook6hermes7tracing10SynthTrace22GetOrSetPropertyRecordE = hidden constant { ptr, ptr, ptr } { ptr getelementptr inbounds (ptr, ptr @_ZTVN10__cxxabiv120__si_class_type_infoE, i64 2), ptr @_ZTSN8facebook6hermes7tracing10SynthTrace22GetOrSetPropertyRecordE, ptr @_ZTIN8facebook6hermes7tracing10SynthTrace6RecordE }, align 8
@_ZTSN8facebook6hermes7tracing10SynthTrace17HasPropertyRecordE = hidden constant [58 x i8] c"N8facebook6hermes7tracing10SynthTrace17HasPropertyRecordE\00", align 1
@_ZTIN8facebook6hermes7tracing10SynthTrace17HasPropertyRecordE = hidden constant { ptr, ptr, ptr } { ptr getelementptr inbounds (ptr, ptr @_ZTVN10__cxxabiv120__si_class_type_infoE, i64 2), ptr @_ZTSN8facebook6hermes7tracing10SynthTrace17HasPropertyRecordE, ptr @_ZTIN8facebook6hermes7tracing10SynthTrace6RecordE }, align 8
@_ZTSN8facebook6hermes7tracing10SynthTrace22GetPropertyNamesRecordE = hidden constant [63 x i8] c"N8facebook6hermes7tracing10SynthTrace22GetPropertyNamesRecordE\00", align 1
@_ZTIN8facebook6hermes7tracing10SynthTrace22GetPropertyNamesRecordE = hidden constant { ptr, ptr, ptr } { ptr getelementptr inbounds (ptr, ptr @_ZTVN10__cxxabiv120__si_class_type_infoE, i64 2), ptr @_ZTSN8facebook6hermes7tracing10SynthTrace22GetPropertyNamesRecordE, ptr @_ZTIN8facebook6hermes7tracing10SynthTrace6RecordE }, align 8
@_ZTSN8facebook6hermes7tracing10SynthTrace17CreateArrayRecordE = hidden constant [58 x i8] c"N8facebook6hermes7tracing10SynthTrace17CreateArrayRecordE\00", align 1
@_ZTIN8facebook6hermes7tracing10SynthTrace17CreateArrayRecordE = hidden constant { ptr, ptr, ptr } { ptr getelementptr inbounds (ptr, ptr @_ZTVN10__cxxabiv120__si_class_type_infoE, i64 2), ptr @_ZTSN8facebook6hermes7tracing10SynthTrace17CreateArrayRecordE, ptr @_ZTIN8facebook6hermes7tracing10SynthTrace6RecordE }, align 8
@_ZTSN8facebook6hermes7tracing10SynthTrace22ArrayReadOrWriteRecordE = hidden constant [63 x i8] c"N8facebook6hermes7tracing10SynthTrace22ArrayReadOrWriteRecordE\00", align 1
@_ZTIN8facebook6hermes7tracing10SynthTrace22ArrayReadOrWriteRecordE = hidden constant { ptr, ptr, ptr } { ptr getelementptr inbounds (ptr, ptr @_ZTVN10__cxxabiv120__si_class_type_infoE, i64 2), ptr @_ZTSN8facebook6hermes7tracing10SynthTrace22ArrayReadOrWriteRecordE, ptr @_ZTIN8facebook6hermes7tracing10SynthTrace6RecordE }, align 8
@_ZTSN8facebook6hermes7tracing10SynthTrace10CallRecordE = hidden constant [51 x i8] c"N8facebook6hermes7tracing10SynthTrace10CallRecordE\00", align 1
@_ZTIN8facebook6hermes7tracing10SynthTrace10CallRecordE = hidden constant { ptr, ptr, ptr } { ptr getelementptr inbounds (ptr, ptr @_ZTVN10__cxxabiv120__si_class_type_infoE, i64 2), ptr @_ZTSN8facebook6hermes7tracing10SynthTrace10CallRecordE, ptr @_ZTIN8facebook6hermes7tracing10SynthTrace6RecordE }, align 8
@_ZTSN8facebook6hermes7tracing10SynthTrace22ReturnFromNativeRecordE = hidden constant [63 x i8] c"N8facebook6hermes7tracing10SynthTrace22ReturnFromNativeRecordE\00", align 1
@_ZTIN8facebook6hermes7tracing10SynthTrace22ReturnFromNativeRecordE = hidden constant { ptr, ptr, i32, i32, ptr, i64, ptr, i64 } { ptr getelementptr inbounds (ptr, ptr @_ZTVN10__cxxabiv121__vmi_class_type_infoE, i64 2), ptr @_ZTSN8facebook6hermes7tracing10SynthTrace22ReturnFromNativeRecordE, i32 0, i32 2, ptr @_ZTIN8facebook6hermes7tracing10SynthTrace6RecordE, i64 2, ptr @_ZTIN8facebook6hermes7tracing10SynthTrace11ReturnMixinE, i64 4098 }, align 8
@_ZTSN8facebook6hermes7tracing10SynthTrace28GetOrSetPropertyNativeRecordE = hidden constant [69 x i8] c"N8facebook6hermes7tracing10SynthTrace28GetOrSetPropertyNativeRecordE\00", align 1
@_ZTIN8facebook6hermes7tracing10SynthTrace28GetOrSetPropertyNativeRecordE = hidden constant { ptr, ptr, ptr } { ptr getelementptr inbounds (ptr, ptr @_ZTVN10__cxxabiv120__si_class_type_infoE, i64 2), ptr @_ZTSN8facebook6hermes7tracing10SynthTrace28GetOrSetPropertyNativeRecordE, ptr @_ZTIN8facebook6hermes7tracing10SynthTrace6RecordE }, align 8
@_ZTSN8facebook6hermes7tracing10SynthTrace29GetPropertyNativeReturnRecordE = hidden constant [70 x i8] c"N8facebook6hermes7tracing10SynthTrace29GetPropertyNativeReturnRecordE\00", align 1
@_ZTIN8facebook6hermes7tracing10SynthTrace29GetPropertyNativeReturnRecordE = hidden constant { ptr, ptr, i32, i32, ptr, i64, ptr, i64 } { ptr getelementptr inbounds (ptr, ptr @_ZTVN10__cxxabiv121__vmi_class_type_infoE, i64 2), ptr @_ZTSN8facebook6hermes7tracing10SynthTrace29GetPropertyNativeReturnRecordE, i32 0, i32 2, ptr @_ZTIN8facebook6hermes7tracing10SynthTrace6RecordE, i64 2, ptr @_ZTIN8facebook6hermes7tracing10SynthTrace11ReturnMixinE, i64 4098 }, align 8
@_ZTSN8facebook6hermes7tracing10SynthTrace23SetPropertyNativeRecordE = hidden constant [64 x i8] c"N8facebook6hermes7tracing10SynthTrace23SetPropertyNativeRecordE\00", align 1
@_ZTIN8facebook6hermes7tracing10SynthTrace23SetPropertyNativeRecordE = hidden constant { ptr, ptr, ptr } { ptr getelementptr inbounds (ptr, ptr @_ZTVN10__cxxabiv120__si_class_type_infoE, i64 2), ptr @_ZTSN8facebook6hermes7tracing10SynthTrace23SetPropertyNativeRecordE, ptr @_ZTIN8facebook6hermes7tracing10SynthTrace28GetOrSetPropertyNativeRecordE }, align 8
@_ZTSN8facebook6hermes7tracing10SynthTrace28GetNativePropertyNamesRecordE = hidden constant [69 x i8] c"N8facebook6hermes7tracing10SynthTrace28GetNativePropertyNamesRecordE\00", align 1
@_ZTIN8facebook6hermes7tracing10SynthTrace28GetNativePropertyNamesRecordE = hidden constant { ptr, ptr, ptr } { ptr getelementptr inbounds (ptr, ptr @_ZTVN10__cxxabiv120__si_class_type_infoE, i64 2), ptr @_ZTSN8facebook6hermes7tracing10SynthTrace28GetNativePropertyNamesRecordE, ptr @_ZTIN8facebook6hermes7tracing10SynthTrace6RecordE }, align 8
@_ZTSN8facebook6hermes7tracing10SynthTrace34GetNativePropertyNamesReturnRecordE = hidden constant [75 x i8] c"N8facebook6hermes7tracing10SynthTrace34GetNativePropertyNamesReturnRecordE\00", align 1
@_ZTIN8facebook6hermes7tracing10SynthTrace34GetNativePropertyNamesReturnRecordE = hidden constant { ptr, ptr, ptr } { ptr getelementptr inbounds (ptr, ptr @_ZTVN10__cxxabiv120__si_class_type_infoE, i64 2), ptr @_ZTSN8facebook6hermes7tracing10SynthTrace34GetNativePropertyNamesReturnRecordE, ptr @_ZTIN8facebook6hermes7tracing10SynthTrace6RecordE }, align 8
@_ZTSN8facebook6hermes7tracing10SynthTrace31SetExternalMemoryPressureRecordE = hidden constant [72 x i8] c"N8facebook6hermes7tracing10SynthTrace31SetExternalMemoryPressureRecordE\00", align 1
@_ZTIN8facebook6hermes7tracing10SynthTrace31SetExternalMemoryPressureRecordE = hidden constant { ptr, ptr, ptr } { ptr getelementptr inbounds (ptr, ptr @_ZTVN10__cxxabiv120__si_class_type_infoE, i64 2), ptr @_ZTSN8facebook6hermes7tracing10SynthTrace31SetExternalMemoryPressureRecordE, ptr @_ZTIN8facebook6hermes7tracing10SynthTrace6RecordE }, align 8
@.str.49 = private unnamed_addr constant [7 x i8] c"Record\00", align 1
@.str.50 = private unnamed_addr constant [5 x i8] c"type\00", align 1
@.str.51 = private unnamed_addr constant [5 x i8] c"time\00", align 1
@.str.52 = private unnamed_addr constant [4 x i8] c"tag\00", align 1
@.str.53 = private unnamed_addr constant [6 x i8] c"objID\00", align 1
@.str.54 = private unnamed_addr constant [7 x i8] c"method\00", align 1
@.str.55 = private unnamed_addr constant [5 x i8] c"bits\00", align 1
@.str.56 = private unnamed_addr constant [6 x i8] c"strID\00", align 1
@.str.57 = private unnamed_addr constant [9 x i8] c"bigintID\00", align 1
@.str.58 = private unnamed_addr constant [6 x i8] c"radix\00", align 1
@.str.59 = private unnamed_addr constant [9 x i8] c"encoding\00", align 1
@.str.60 = private unnamed_addr constant [6 x i8] c"chars\00", align 1
@.str.61 = private unnamed_addr constant [6 x i8] c"value\00", align 1
@.str.62 = private unnamed_addr constant [15 x i8] c"parameterCount\00", align 1
@.str.63 = private unnamed_addr constant [7 x i8] c"propID\00", align 1
@.str.64 = private unnamed_addr constant [18 x i8] c"maxMicrotasksHint\00", align 1
@.str.65 = private unnamed_addr constant [12 x i8] c"propNamesID\00", align 1
@.str.66 = private unnamed_addr constant [7 x i8] c"length\00", align 1
@.str.67 = private unnamed_addr constant [6 x i8] c"index\00", align 1
@.str.68 = private unnamed_addr constant [11 x i8] c"functionID\00", align 1
@.str.69 = private unnamed_addr constant [8 x i8] c"thisArg\00", align 1
@.str.70 = private unnamed_addr constant [5 x i8] c"args\00", align 1
@.str.71 = private unnamed_addr constant [10 x i8] c"sourceURL\00", align 1
@.str.72 = private unnamed_addr constant [11 x i8] c"sourceHash\00", align 1
@.str.73 = private unnamed_addr constant [17 x i8] c"sourceIsBytecode\00", align 1
@.str.74 = private unnamed_addr constant [7 x i8] c"retval\00", align 1
@.str.75 = private unnamed_addr constant [13 x i8] c"hostObjectID\00", align 1
@.str.76 = private unnamed_addr constant [9 x i8] c"propName\00", align 1
@.str.77 = private unnamed_addr constant [11 x i8] c"properties\00", align 1
@.str.78 = private unnamed_addr constant [7 x i8] c"amount\00", align 1
@.str.79 = private unnamed_addr constant [5 x i8] c"none\00", align 1
@.str.80 = private unnamed_addr constant [4 x i8] c"old\00", align 1
@.str.81 = private unnamed_addr constant [12 x i8] c"youngOnFull\00", align 1
@.str.82 = private unnamed_addr constant [12 x i8] c"youngAlways\00", align 1
@.str.83 = private unnamed_addr constant [38 x i8] c"Name for ReleaseUnused not recognized\00", align 1
@_ZTISt16invalid_argument = external constant ptr
@.str.84 = private unnamed_addr constant [12 x i8] c"BeginExecJS\00", align 1
@.str.85 = private unnamed_addr constant [10 x i8] c"EndExecJS\00", align 1
@.str.86 = private unnamed_addr constant [7 x i8] c"Marker\00", align 1
@.str.87 = private unnamed_addr constant [13 x i8] c"CreateObject\00", align 1
@.str.88 = private unnamed_addr constant [13 x i8] c"CreateString\00", align 1
@.str.89 = private unnamed_addr constant [17 x i8] c"CreatePropNameID\00", align 1
@.str.90 = private unnamed_addr constant [17 x i8] c"CreateHostObject\00", align 1
@.str.91 = private unnamed_addr constant [19 x i8] c"CreateHostFunction\00", align 1
@.str.92 = private unnamed_addr constant [16 x i8] c"DrainMicrotasks\00", align 1
@.str.93 = private unnamed_addr constant [12 x i8] c"GetProperty\00", align 1
@.str.94 = private unnamed_addr constant [12 x i8] c"SetProperty\00", align 1
@.str.95 = private unnamed_addr constant [12 x i8] c"HasProperty\00", align 1
@.str.96 = private unnamed_addr constant [17 x i8] c"GetPropertyNames\00", align 1
@.str.97 = private unnamed_addr constant [12 x i8] c"CreateArray\00", align 1
@.str.98 = private unnamed_addr constant [10 x i8] c"ArrayRead\00", align 1
@.str.99 = private unnamed_addr constant [11 x i8] c"ArrayWrite\00", align 1
@.str.100 = private unnamed_addr constant [15 x i8] c"CallFromNative\00", align 1
@.str.101 = private unnamed_addr constant [20 x i8] c"ConstructFromNative\00", align 1
@.str.102 = private unnamed_addr constant [17 x i8] c"ReturnFromNative\00", align 1
@.str.103 = private unnamed_addr constant [15 x i8] c"ReturnToNative\00", align 1
@.str.104 = private unnamed_addr constant [13 x i8] c"CallToNative\00", align 1
@.str.105 = private unnamed_addr constant [18 x i8] c"GetPropertyNative\00", align 1
@.str.106 = private unnamed_addr constant [24 x i8] c"GetPropertyNativeReturn\00", align 1
@.str.107 = private unnamed_addr constant [18 x i8] c"SetPropertyNative\00", align 1
@.str.108 = private unnamed_addr constant [24 x i8] c"SetPropertyNativeReturn\00", align 1
@.str.109 = private unnamed_addr constant [23 x i8] c"GetNativePropertyNames\00", align 1
@.str.110 = private unnamed_addr constant [29 x i8] c"GetNativePropertyNamesReturn\00", align 1
@.str.111 = private unnamed_addr constant [13 x i8] c"CreateBigInt\00", align 1
@.str.112 = private unnamed_addr constant [15 x i8] c"BigIntToString\00", align 1
@.str.113 = private unnamed_addr constant [26 x i8] c"SetExternalMemoryPressure\00", align 1
@.str.114 = private unnamed_addr constant [18 x i8] c"BeginExecJSRecord\00", align 1
@.str.115 = private unnamed_addr constant [16 x i8] c"EndExecJSRecord\00", align 1
@.str.116 = private unnamed_addr constant [13 x i8] c"MarkerRecord\00", align 1
@.str.117 = private unnamed_addr constant [19 x i8] c"CreateObjectRecord\00", align 1
@.str.118 = private unnamed_addr constant [19 x i8] c"CreateStringRecord\00", align 1
@.str.119 = private unnamed_addr constant [23 x i8] c"CreatePropNameIDRecord\00", align 1
@.str.120 = private unnamed_addr constant [23 x i8] c"CreateHostObjectRecord\00", align 1
@.str.121 = private unnamed_addr constant [25 x i8] c"CreateHostFunctionRecord\00", align 1
@.str.122 = private unnamed_addr constant [22 x i8] c"DrainMicrotasksRecord\00", align 1
@.str.123 = private unnamed_addr constant [18 x i8] c"GetPropertyRecord\00", align 1
@.str.124 = private unnamed_addr constant [18 x i8] c"SetPropertyRecord\00", align 1
@.str.125 = private unnamed_addr constant [18 x i8] c"HasPropertyRecord\00", align 1
@.str.126 = private unnamed_addr constant [23 x i8] c"GetPropertyNamesRecord\00", align 1
@.str.127 = private unnamed_addr constant [18 x i8] c"CreateArrayRecord\00", align 1
@.str.128 = private unnamed_addr constant [16 x i8] c"ArrayReadRecord\00", align 1
@.str.129 = private unnamed_addr constant [17 x i8] c"ArrayWriteRecord\00", align 1
@.str.130 = private unnamed_addr constant [21 x i8] c"CallFromNativeRecord\00", align 1
@.str.131 = private unnamed_addr constant [26 x i8] c"ConstructFromNativeRecord\00", align 1
@.str.132 = private unnamed_addr constant [23 x i8] c"ReturnFromNativeRecord\00", align 1
@.str.133 = private unnamed_addr constant [21 x i8] c"ReturnToNativeRecord\00", align 1
@.str.134 = private unnamed_addr constant [19 x i8] c"CallToNativeRecord\00", align 1
@.str.135 = private unnamed_addr constant [24 x i8] c"GetPropertyNativeRecord\00", align 1
@.str.136 = private unnamed_addr constant [30 x i8] c"GetPropertyNativeReturnRecord\00", align 1
@.str.137 = private unnamed_addr constant [24 x i8] c"SetPropertyNativeRecord\00", align 1
@.str.138 = private unnamed_addr constant [30 x i8] c"SetPropertyNativeReturnRecord\00", align 1
@.str.139 = private unnamed_addr constant [29 x i8] c"GetNativePropertyNamesRecord\00", align 1
@.str.140 = private unnamed_addr constant [35 x i8] c"GetNativePropertyNamesReturnRecord\00", align 1
@.str.141 = private unnamed_addr constant [19 x i8] c"CreateBigIntRecord\00", align 1
@.str.142 = private unnamed_addr constant [21 x i8] c"BigIntToStringRecord\00", align 1
@.str.143 = private unnamed_addr constant [32 x i8] c"SetExternalMemoryPressureRecord\00", align 1
@_ZTVN8facebook6hermes7tracing10SynthTrace6RecordE = hidden unnamed_addr constant { [9 x ptr] } { [9 x ptr] [ptr null, ptr @_ZTIN8facebook6hermes7tracing10SynthTrace6RecordE, ptr @_ZN8facebook6hermes7tracing10SynthTrace6RecordD2Ev, ptr @_ZN8facebook6hermes7tracing10SynthTrace6RecordD0Ev, ptr @__cxa_pure_virtual, ptr @_ZNK8facebook6hermes7tracing10SynthTrace6Record4defsEv, ptr @_ZNK8facebook6hermes7tracing10SynthTrace6Record4usesEv, ptr @_ZNK8facebook6hermes7tracing10SynthTrace6RecordeqERKS3_, ptr @_ZNK8facebook6hermes7tracing10SynthTrace6Record14toJSONInternalERN6hermes11JSONEmitterE] }, align 8
@_ZTVN8facebook6hermes7tracing10SynthTrace12MarkerRecordE = hidden unnamed_addr constant { [9 x ptr] } { [9 x ptr] [ptr null, ptr @_ZTIN8facebook6hermes7tracing10SynthTrace12MarkerRecordE, ptr @_ZN8facebook6hermes7tracing10SynthTrace12MarkerRecordD2Ev, ptr @_ZN8facebook6hermes7tracing10SynthTrace12MarkerRecordD0Ev, ptr @_ZNK8facebook6hermes7tracing10SynthTrace12MarkerRecord7getTypeEv, ptr @_ZNK8facebook6hermes7tracing10SynthTrace6Record4defsEv, ptr @_ZNK8facebook6hermes7tracing10SynthTrace6Record4usesEv, ptr @_ZNK8facebook6hermes7tracing10SynthTrace12MarkerRecordeqERKNS2_6RecordE, ptr @_ZNK8facebook6hermes7tracing10SynthTrace12MarkerRecord14toJSONInternalERN6hermes11JSONEmitterE] }, align 8
@_ZTVN8facebook6hermes7tracing10SynthTrace17BeginExecJSRecordE = hidden unnamed_addr constant { [9 x ptr] } { [9 x ptr] [ptr null, ptr @_ZTIN8facebook6hermes7tracing10SynthTrace17BeginExecJSRecordE, ptr @_ZN8facebook6hermes7tracing10SynthTrace17BeginExecJSRecordD2Ev, ptr @_ZN8facebook6hermes7tracing10SynthTrace17BeginExecJSRecordD0Ev, ptr @_ZNK8facebook6hermes7tracing10SynthTrace17BeginExecJSRecord7getTypeEv, ptr @_ZNK8facebook6hermes7tracing10SynthTrace6Record4defsEv, ptr @_ZNK8facebook6hermes7tracing10SynthTrace6Record4usesEv, ptr @_ZNK8facebook6hermes7tracing10SynthTrace17BeginExecJSRecordeqERKNS2_6RecordE, ptr @_ZNK8facebook6hermes7tracing10SynthTrace17BeginExecJSRecord14toJSONInternalERN6hermes11JSONEmitterE] }, align 8
@_ZTVN8facebook6hermes7tracing10SynthTrace15EndExecJSRecordE = hidden unnamed_addr constant { [9 x ptr] } { [9 x ptr] [ptr null, ptr @_ZTIN8facebook6hermes7tracing10SynthTrace15EndExecJSRecordE, ptr @_ZN8facebook6hermes7tracing10SynthTrace15EndExecJSRecordD2Ev, ptr @_ZN8facebook6hermes7tracing10SynthTrace15EndExecJSRecordD0Ev, ptr @_ZNK8facebook6hermes7tracing10SynthTrace15EndExecJSRecord7getTypeEv, ptr @_ZNK8facebook6hermes7tracing10SynthTrace15EndExecJSRecord4defsEv, ptr @_ZNK8facebook6hermes7tracing10SynthTrace6Record4usesEv, ptr @_ZNK8facebook6hermes7tracing10SynthTrace15EndExecJSRecordeqERKNS2_6RecordE, ptr @_ZNK8facebook6hermes7tracing10SynthTrace15EndExecJSRecord14toJSONInternalERN6hermes11JSONEmitterE] }, align 8
@_ZTVN8facebook6hermes7tracing10SynthTrace18CreateObjectRecordE = hidden unnamed_addr constant { [9 x ptr] } { [9 x ptr] [ptr null, ptr @_ZTIN8facebook6hermes7tracing10SynthTrace18CreateObjectRecordE, ptr @_ZN8facebook6hermes7tracing10SynthTrace18CreateObjectRecordD2Ev, ptr @_ZN8facebook6hermes7tracing10SynthTrace18CreateObjectRecordD0Ev, ptr @_ZNK8facebook6hermes7tracing10SynthTrace18CreateObjectRecord7getTypeEv, ptr @_ZNK8facebook6hermes7tracing10SynthTrace18CreateObjectRecord4defsEv, ptr @_ZNK8facebook6hermes7tracing10SynthTrace18CreateObjectRecord4usesEv, ptr @_ZNK8facebook6hermes7tracing10SynthTrace18CreateObjectRecordeqERKNS2_6RecordE, ptr @_ZNK8facebook6hermes7tracing10SynthTrace18CreateObjectRecord14toJSONInternalERN6hermes11JSONEmitterE] }, align 8
@_ZTVN8facebook6hermes7tracing10SynthTrace18CreateBigIntRecordE = hidden unnamed_addr constant { [9 x ptr] } { [9 x ptr] [ptr null, ptr @_ZTIN8facebook6hermes7tracing10SynthTrace18CreateBigIntRecordE, ptr @_ZN8facebook6hermes7tracing10SynthTrace18CreateBigIntRecordD2Ev, ptr @_ZN8facebook6hermes7tracing10SynthTrace18CreateBigIntRecordD0Ev, ptr @_ZNK8facebook6hermes7tracing10SynthTrace18CreateBigIntRecord7getTypeEv, ptr @_ZNK8facebook6hermes7tracing10SynthTrace18CreateBigIntRecord4defsEv, ptr @_ZNK8facebook6hermes7tracing10SynthTrace18CreateBigIntRecord4usesEv, ptr @_ZNK8facebook6hermes7tracing10SynthTrace18CreateBigIntRecordeqERKNS2_6RecordE, ptr @_ZNK8facebook6hermes7tracing10SynthTrace18CreateBigIntRecord14toJSONInternalERN6hermes11JSONEmitterE] }, align 8
@_ZTVN8facebook6hermes7tracing10SynthTrace20BigIntToStringRecordE = hidden unnamed_addr constant { [9 x ptr] } { [9 x ptr] [ptr null, ptr @_ZTIN8facebook6hermes7tracing10SynthTrace20BigIntToStringRecordE, ptr @_ZN8facebook6hermes7tracing10SynthTrace20BigIntToStringRecordD2Ev, ptr @_ZN8facebook6hermes7tracing10SynthTrace20BigIntToStringRecordD0Ev, ptr @_ZNK8facebook6hermes7tracing10SynthTrace20BigIntToStringRecord7getTypeEv, ptr @_ZNK8facebook6hermes7tracing10SynthTrace20BigIntToStringRecord4defsEv, ptr @_ZNK8facebook6hermes7tracing10SynthTrace20BigIntToStringRecord4usesEv, ptr @_ZNK8facebook6hermes7tracing10SynthTrace20BigIntToStringRecordeqERKNS2_6RecordE, ptr @_ZNK8facebook6hermes7tracing10SynthTrace20BigIntToStringRecord14toJSONInternalERN6hermes11JSONEmitterE] }, align 8
@_ZTVN8facebook6hermes7tracing10SynthTrace18CreateStringRecordE = hidden unnamed_addr constant { [9 x ptr] } { [9 x ptr] [ptr null, ptr @_ZTIN8facebook6hermes7tracing10SynthTrace18CreateStringRecordE, ptr @_ZN8facebook6hermes7tracing10SynthTrace18CreateStringRecordD2Ev, ptr @_ZN8facebook6hermes7tracing10SynthTrace18CreateStringRecordD0Ev, ptr @_ZNK8facebook6hermes7tracing10SynthTrace18CreateStringRecord7getTypeEv, ptr @_ZNK8facebook6hermes7tracing10SynthTrace18CreateStringRecord4defsEv, ptr @_ZNK8facebook6hermes7tracing10SynthTrace18CreateStringRecord4usesEv, ptr @_ZNK8facebook6hermes7tracing10SynthTrace18CreateStringRecordeqERKNS2_6RecordE, ptr @_ZNK8facebook6hermes7tracing10SynthTrace18CreateStringRecord14toJSONInternalERN6hermes11JSONEmitterE] }, align 8
@_ZTVN8facebook6hermes7tracing10SynthTrace22CreatePropNameIDRecordE = hidden unnamed_addr constant { [9 x ptr] } { [9 x ptr] [ptr null, ptr @_ZTIN8facebook6hermes7tracing10SynthTrace22CreatePropNameIDRecordE, ptr @_ZN8facebook6hermes7tracing10SynthTrace22CreatePropNameIDRecordD2Ev, ptr @_ZN8facebook6hermes7tracing10SynthTrace22CreatePropNameIDRecordD0Ev, ptr @_ZNK8facebook6hermes7tracing10SynthTrace22CreatePropNameIDRecord7getTypeEv, ptr @_ZNK8facebook6hermes7tracing10SynthTrace22CreatePropNameIDRecord4defsEv, ptr @_ZNK8facebook6hermes7tracing10SynthTrace22CreatePropNameIDRecord4usesEv, ptr @_ZNK8facebook6hermes7tracing10SynthTrace22CreatePropNameIDRecordeqERKNS2_6RecordE, ptr @_ZNK8facebook6hermes7tracing10SynthTrace22CreatePropNameIDRecord14toJSONInternalERN6hermes11JSONEmitterE] }, align 8
@_ZTVN8facebook6hermes7tracing10SynthTrace24CreateHostFunctionRecordE = hidden unnamed_addr constant { [9 x ptr] } { [9 x ptr] [ptr null, ptr @_ZTIN8facebook6hermes7tracing10SynthTrace24CreateHostFunctionRecordE, ptr @_ZN8facebook6hermes7tracing10SynthTrace24CreateHostFunctionRecordD2Ev, ptr @_ZN8facebook6hermes7tracing10SynthTrace24CreateHostFunctionRecordD0Ev, ptr @_ZNK8facebook6hermes7tracing10SynthTrace24CreateHostFunctionRecord7getTypeEv, ptr @_ZNK8facebook6hermes7tracing10SynthTrace18CreateObjectRecord4defsEv, ptr @_ZNK8facebook6hermes7tracing10SynthTrace24CreateHostFunctionRecord4usesEv, ptr @_ZNK8facebook6hermes7tracing10SynthTrace24CreateHostFunctionRecordeqERKNS2_6RecordE, ptr @_ZNK8facebook6hermes7tracing10SynthTrace24CreateHostFunctionRecord14toJSONInternalERN6hermes11JSONEmitterE] }, align 8
@_ZTVN8facebook6hermes7tracing10SynthTrace22GetOrSetPropertyRecordE = hidden unnamed_addr constant { [9 x ptr] } { [9 x ptr] [ptr null, ptr @_ZTIN8facebook6hermes7tracing10SynthTrace22GetOrSetPropertyRecordE, ptr @_ZN8facebook6hermes7tracing10SynthTrace22GetOrSetPropertyRecordD2Ev, ptr @_ZN8facebook6hermes7tracing10SynthTrace22GetOrSetPropertyRecordD0Ev, ptr @__cxa_pure_virtual, ptr @_ZNK8facebook6hermes7tracing10SynthTrace6Record4defsEv, ptr @_ZNK8facebook6hermes7tracing10SynthTrace22GetOrSetPropertyRecord4usesEv, ptr @_ZNK8facebook6hermes7tracing10SynthTrace22GetOrSetPropertyRecordeqERKNS2_6RecordE, ptr @_ZNK8facebook6hermes7tracing10SynthTrace22GetOrSetPropertyRecord14toJSONInternalERN6hermes11JSONEmitterE] }, align 8
@_ZTVN8facebook6hermes7tracing10SynthTrace21DrainMicrotasksRecordE = hidden unnamed_addr constant { [9 x ptr] } { [9 x ptr] [ptr null, ptr @_ZTIN8facebook6hermes7tracing10SynthTrace21DrainMicrotasksRecordE, ptr @_ZN8facebook6hermes7tracing10SynthTrace21DrainMicrotasksRecordD2Ev, ptr @_ZN8facebook6hermes7tracing10SynthTrace21DrainMicrotasksRecordD0Ev, ptr @_ZNK8facebook6hermes7tracing10SynthTrace21DrainMicrotasksRecord7getTypeEv, ptr @_ZNK8facebook6hermes7tracing10SynthTrace6Record4defsEv, ptr @_ZNK8facebook6hermes7tracing10SynthTrace6Record4usesEv, ptr @_ZNK8facebook6hermes7tracing10SynthTrace21DrainMicrotasksRecordeqERKNS2_6RecordE, ptr @_ZNK8facebook6hermes7tracing10SynthTrace21DrainMicrotasksRecord14toJSONInternalERN6hermes11JSONEmitterE] }, align 8
@_ZTVN8facebook6hermes7tracing10SynthTrace17HasPropertyRecordE = hidden unnamed_addr constant { [9 x ptr] } { [9 x ptr] [ptr null, ptr @_ZTIN8facebook6hermes7tracing10SynthTrace17HasPropertyRecordE, ptr @_ZN8facebook6hermes7tracing10SynthTrace17HasPropertyRecordD2Ev, ptr @_ZN8facebook6hermes7tracing10SynthTrace17HasPropertyRecordD0Ev, ptr @_ZNK8facebook6hermes7tracing10SynthTrace17HasPropertyRecord7getTypeEv, ptr @_ZNK8facebook6hermes7tracing10SynthTrace6Record4defsEv, ptr @_ZNK8facebook6hermes7tracing10SynthTrace17HasPropertyRecord4usesEv, ptr @_ZNK8facebook6hermes7tracing10SynthTrace17HasPropertyRecordeqERKNS2_6RecordE, ptr @_ZNK8facebook6hermes7tracing10SynthTrace17HasPropertyRecord14toJSONInternalERN6hermes11JSONEmitterE] }, align 8
@_ZTVN8facebook6hermes7tracing10SynthTrace22GetPropertyNamesRecordE = hidden unnamed_addr constant { [9 x ptr] } { [9 x ptr] [ptr null, ptr @_ZTIN8facebook6hermes7tracing10SynthTrace22GetPropertyNamesRecordE, ptr @_ZN8facebook6hermes7tracing10SynthTrace22GetPropertyNamesRecordD2Ev, ptr @_ZN8facebook6hermes7tracing10SynthTrace22GetPropertyNamesRecordD0Ev, ptr @_ZNK8facebook6hermes7tracing10SynthTrace22GetPropertyNamesRecord7getTypeEv, ptr @_ZNK8facebook6hermes7tracing10SynthTrace22GetPropertyNamesRecord4defsEv, ptr @_ZNK8facebook6hermes7tracing10SynthTrace22GetPropertyNamesRecord4usesEv, ptr @_ZNK8facebook6hermes7tracing10SynthTrace22GetPropertyNamesRecordeqERKNS2_6RecordE, ptr @_ZNK8facebook6hermes7tracing10SynthTrace22GetPropertyNamesRecord14toJSONInternalERN6hermes11JSONEmitterE] }, align 8
@_ZTVN8facebook6hermes7tracing10SynthTrace17CreateArrayRecordE = hidden unnamed_addr constant { [9 x ptr] } { [9 x ptr] [ptr null, ptr @_ZTIN8facebook6hermes7tracing10SynthTrace17CreateArrayRecordE, ptr @_ZN8facebook6hermes7tracing10SynthTrace17CreateArrayRecordD2Ev, ptr @_ZN8facebook6hermes7tracing10SynthTrace17CreateArrayRecordD0Ev, ptr @_ZNK8facebook6hermes7tracing10SynthTrace17CreateArrayRecord7getTypeEv, ptr @_ZNK8facebook6hermes7tracing10SynthTrace17CreateArrayRecord4defsEv, ptr @_ZNK8facebook6hermes7tracing10SynthTrace6Record4usesEv, ptr @_ZNK8facebook6hermes7tracing10SynthTrace17CreateArrayRecordeqERKNS2_6RecordE, ptr @_ZNK8facebook6hermes7tracing10SynthTrace17CreateArrayRecord14toJSONInternalERN6hermes11JSONEmitterE] }, align 8
@_ZTVN8facebook6hermes7tracing10SynthTrace22ArrayReadOrWriteRecordE = hidden unnamed_addr constant { [9 x ptr] } { [9 x ptr] [ptr null, ptr @_ZTIN8facebook6hermes7tracing10SynthTrace22ArrayReadOrWriteRecordE, ptr @_ZN8facebook6hermes7tracing10SynthTrace22ArrayReadOrWriteRecordD2Ev, ptr @_ZN8facebook6hermes7tracing10SynthTrace22ArrayReadOrWriteRecordD0Ev, ptr @__cxa_pure_virtual, ptr @_ZNK8facebook6hermes7tracing10SynthTrace6Record4defsEv, ptr @_ZNK8facebook6hermes7tracing10SynthTrace22ArrayReadOrWriteRecord4usesEv, ptr @_ZNK8facebook6hermes7tracing10SynthTrace22ArrayReadOrWriteRecordeqERKNS2_6RecordE, ptr @_ZNK8facebook6hermes7tracing10SynthTrace22ArrayReadOrWriteRecord14toJSONInternalERN6hermes11JSONEmitterE] }, align 8
@_ZTVN8facebook6hermes7tracing10SynthTrace10CallRecordE = hidden unnamed_addr constant { [9 x ptr] } { [9 x ptr] [ptr null, ptr @_ZTIN8facebook6hermes7tracing10SynthTrace10CallRecordE, ptr @_ZN8facebook6hermes7tracing10SynthTrace10CallRecordD2Ev, ptr @_ZN8facebook6hermes7tracing10SynthTrace10CallRecordD0Ev, ptr @__cxa_pure_virtual, ptr @_ZNK8facebook6hermes7tracing10SynthTrace6Record4defsEv, ptr @_ZNK8facebook6hermes7tracing10SynthTrace10CallRecord4usesEv, ptr @_ZNK8facebook6hermes7tracing10SynthTrace10CallRecordeqERKNS2_6RecordE, ptr @_ZNK8facebook6hermes7tracing10SynthTrace10CallRecord14toJSONInternalERN6hermes11JSONEmitterE] }, align 8
@_ZTVN8facebook6hermes7tracing10SynthTrace22ReturnFromNativeRecordE = hidden unnamed_addr constant { [9 x ptr] } { [9 x ptr] [ptr null, ptr @_ZTIN8facebook6hermes7tracing10SynthTrace22ReturnFromNativeRecordE, ptr @_ZN8facebook6hermes7tracing10SynthTrace22ReturnFromNativeRecordD2Ev, ptr @_ZN8facebook6hermes7tracing10SynthTrace22ReturnFromNativeRecordD0Ev, ptr @_ZNK8facebook6hermes7tracing10SynthTrace22ReturnFromNativeRecord7getTypeEv, ptr @_ZNK8facebook6hermes7tracing10SynthTrace6Record4defsEv, ptr @_ZNK8facebook6hermes7tracing10SynthTrace22ReturnFromNativeRecord4usesEv, ptr @_ZNK8facebook6hermes7tracing10SynthTrace22ReturnFromNativeRecordeqERKNS2_6RecordE, ptr @_ZNK8facebook6hermes7tracing10SynthTrace22ReturnFromNativeRecord14toJSONInternalERN6hermes11JSONEmitterE] }, align 8
@_ZTVN8facebook6hermes7tracing10SynthTrace20ReturnToNativeRecordE = hidden unnamed_addr constant { [9 x ptr] } { [9 x ptr] [ptr null, ptr @_ZTIN8facebook6hermes7tracing10SynthTrace20ReturnToNativeRecordE, ptr @_ZN8facebook6hermes7tracing10SynthTrace20ReturnToNativeRecordD2Ev, ptr @_ZN8facebook6hermes7tracing10SynthTrace20ReturnToNativeRecordD0Ev, ptr @_ZNK8facebook6hermes7tracing10SynthTrace20ReturnToNativeRecord7getTypeEv, ptr @_ZNK8facebook6hermes7tracing10SynthTrace20ReturnToNativeRecord4defsEv, ptr @_ZNK8facebook6hermes7tracing10SynthTrace6Record4usesEv, ptr @_ZNK8facebook6hermes7tracing10SynthTrace20ReturnToNativeRecordeqERKNS2_6RecordE, ptr @_ZNK8facebook6hermes7tracing10SynthTrace20ReturnToNativeRecord14toJSONInternalERN6hermes11JSONEmitterE] }, align 8
@_ZTSN8facebook6hermes7tracing10SynthTrace20ReturnToNativeRecordE = hidden constant [61 x i8] c"N8facebook6hermes7tracing10SynthTrace20ReturnToNativeRecordE\00", align 1
@_ZTIN8facebook6hermes7tracing10SynthTrace20ReturnToNativeRecordE = hidden constant { ptr, ptr, i32, i32, ptr, i64, ptr, i64 } { ptr getelementptr inbounds (ptr, ptr @_ZTVN10__cxxabiv121__vmi_class_type_infoE, i64 2), ptr @_ZTSN8facebook6hermes7tracing10SynthTrace20ReturnToNativeRecordE, i32 0, i32 2, ptr @_ZTIN8facebook6hermes7tracing10SynthTrace6RecordE, i64 2, ptr @_ZTIN8facebook6hermes7tracing10SynthTrace11ReturnMixinE, i64 4098 }, align 8
@_ZTVN8facebook6hermes7tracing10SynthTrace28GetOrSetPropertyNativeRecordE = hidden unnamed_addr constant { [9 x ptr] } { [9 x ptr] [ptr null, ptr @_ZTIN8facebook6hermes7tracing10SynthTrace28GetOrSetPropertyNativeRecordE, ptr @_ZN8facebook6hermes7tracing10SynthTrace28GetOrSetPropertyNativeRecordD2Ev, ptr @_ZN8facebook6hermes7tracing10SynthTrace28GetOrSetPropertyNativeRecordD0Ev, ptr @__cxa_pure_virtual, ptr @_ZNK8facebook6hermes7tracing10SynthTrace28GetOrSetPropertyNativeRecord4defsEv, ptr @_ZNK8facebook6hermes7tracing10SynthTrace28GetOrSetPropertyNativeRecord4usesEv, ptr @_ZNK8facebook6hermes7tracing10SynthTrace28GetOrSetPropertyNativeRecordeqERKNS2_6RecordE, ptr @_ZNK8facebook6hermes7tracing10SynthTrace28GetOrSetPropertyNativeRecord14toJSONInternalERN6hermes11JSONEmitterE] }, align 8
@_ZTVN8facebook6hermes7tracing10SynthTrace29GetPropertyNativeReturnRecordE = hidden unnamed_addr constant { [9 x ptr] } { [9 x ptr] [ptr null, ptr @_ZTIN8facebook6hermes7tracing10SynthTrace29GetPropertyNativeReturnRecordE, ptr @_ZN8facebook6hermes7tracing10SynthTrace29GetPropertyNativeReturnRecordD2Ev, ptr @_ZN8facebook6hermes7tracing10SynthTrace29GetPropertyNativeReturnRecordD0Ev, ptr @_ZNK8facebook6hermes7tracing10SynthTrace29GetPropertyNativeReturnRecord7getTypeEv, ptr @_ZNK8facebook6hermes7tracing10SynthTrace6Record4defsEv, ptr @_ZNK8facebook6hermes7tracing10SynthTrace29GetPropertyNativeReturnRecord4usesEv, ptr @_ZNK8facebook6hermes7tracing10SynthTrace29GetPropertyNativeReturnRecordeqERKNS2_6RecordE, ptr @_ZNK8facebook6hermes7tracing10SynthTrace29GetPropertyNativeReturnRecord14toJSONInternalERN6hermes11JSONEmitterE] }, align 8
@_ZTVN8facebook6hermes7tracing10SynthTrace23SetPropertyNativeRecordE = hidden unnamed_addr constant { [9 x ptr] } { [9 x ptr] [ptr null, ptr @_ZTIN8facebook6hermes7tracing10SynthTrace23SetPropertyNativeRecordE, ptr @_ZN8facebook6hermes7tracing10SynthTrace23SetPropertyNativeRecordD2Ev, ptr @_ZN8facebook6hermes7tracing10SynthTrace23SetPropertyNativeRecordD0Ev, ptr @_ZNK8facebook6hermes7tracing10SynthTrace23SetPropertyNativeRecord7getTypeEv, ptr @_ZNK8facebook6hermes7tracing10SynthTrace23SetPropertyNativeRecord4defsEv, ptr @_ZNK8facebook6hermes7tracing10SynthTrace28GetOrSetPropertyNativeRecord4usesEv, ptr @_ZNK8facebook6hermes7tracing10SynthTrace23SetPropertyNativeRecordeqERKNS2_6RecordE, ptr @_ZNK8facebook6hermes7tracing10SynthTrace23SetPropertyNativeRecord14toJSONInternalERN6hermes11JSONEmitterE] }, align 8
@_ZTVN8facebook6hermes7tracing10SynthTrace28GetNativePropertyNamesRecordE = hidden unnamed_addr constant { [9 x ptr] } { [9 x ptr] [ptr null, ptr @_ZTIN8facebook6hermes7tracing10SynthTrace28GetNativePropertyNamesRecordE, ptr @_ZN8facebook6hermes7tracing10SynthTrace28GetNativePropertyNamesRecordD2Ev, ptr @_ZN8facebook6hermes7tracing10SynthTrace28GetNativePropertyNamesRecordD0Ev, ptr @_ZNK8facebook6hermes7tracing10SynthTrace28GetNativePropertyNamesRecord7getTypeEv, ptr @_ZNK8facebook6hermes7tracing10SynthTrace6Record4defsEv, ptr @_ZNK8facebook6hermes7tracing10SynthTrace28GetNativePropertyNamesRecord4usesEv, ptr @_ZNK8facebook6hermes7tracing10SynthTrace28GetNativePropertyNamesRecordeqERKNS2_6RecordE, ptr @_ZNK8facebook6hermes7tracing10SynthTrace28GetNativePropertyNamesRecord14toJSONInternalERN6hermes11JSONEmitterE] }, align 8
@_ZTVN8facebook6hermes7tracing10SynthTrace34GetNativePropertyNamesReturnRecordE = hidden unnamed_addr constant { [9 x ptr] } { [9 x ptr] [ptr null, ptr @_ZTIN8facebook6hermes7tracing10SynthTrace34GetNativePropertyNamesReturnRecordE, ptr @_ZN8facebook6hermes7tracing10SynthTrace34GetNativePropertyNamesReturnRecordD2Ev, ptr @_ZN8facebook6hermes7tracing10SynthTrace34GetNativePropertyNamesReturnRecordD0Ev, ptr @_ZNK8facebook6hermes7tracing10SynthTrace34GetNativePropertyNamesReturnRecord7getTypeEv, ptr @_ZNK8facebook6hermes7tracing10SynthTrace6Record4defsEv, ptr @_ZNK8facebook6hermes7tracing10SynthTrace6Record4usesEv, ptr @_ZNK8facebook6hermes7tracing10SynthTrace34GetNativePropertyNamesReturnRecordeqERKNS2_6RecordE, ptr @_ZNK8facebook6hermes7tracing10SynthTrace34GetNativePropertyNamesReturnRecord14toJSONInternalERN6hermes11JSONEmitterE] }, align 8
@_ZTVN8facebook6hermes7tracing10SynthTrace31SetExternalMemoryPressureRecordE = hidden unnamed_addr constant { [9 x ptr] } { [9 x ptr] [ptr null, ptr @_ZTIN8facebook6hermes7tracing10SynthTrace31SetExternalMemoryPressureRecordE, ptr @_ZN8facebook6hermes7tracing10SynthTrace31SetExternalMemoryPressureRecordD2Ev, ptr @_ZN8facebook6hermes7tracing10SynthTrace31SetExternalMemoryPressureRecordD0Ev, ptr @_ZNK8facebook6hermes7tracing10SynthTrace31SetExternalMemoryPressureRecord7getTypeEv, ptr @_ZNK8facebook6hermes7tracing10SynthTrace6Record4defsEv, ptr @_ZNK8facebook6hermes7tracing10SynthTrace31SetExternalMemoryPressureRecord4usesEv, ptr @_ZNK8facebook6hermes7tracing10SynthTrace31SetExternalMemoryPressureRecordeqERKNS2_6RecordE, ptr @_ZNK8facebook6hermes7tracing10SynthTrace31SetExternalMemoryPressureRecord14toJSONInternalERN6hermes11JSONEmitterE] }, align 8
@_ZTVN8facebook6hermes7tracing10SynthTrace23GetPropertyNativeRecordE = hidden unnamed_addr constant { [9 x ptr] } { [9 x ptr] [ptr null, ptr @_ZTIN8facebook6hermes7tracing10SynthTrace23GetPropertyNativeRecordE, ptr @_ZN8facebook6hermes7tracing10SynthTrace23GetPropertyNativeRecordD2Ev, ptr @_ZN8facebook6hermes7tracing10SynthTrace23GetPropertyNativeRecordD0Ev, ptr @_ZNK8facebook6hermes7tracing10SynthTrace23GetPropertyNativeRecord7getTypeEv, ptr @_ZNK8facebook6hermes7tracing10SynthTrace28GetOrSetPropertyNativeRecord4defsEv, ptr @_ZNK8facebook6hermes7tracing10SynthTrace28GetOrSetPropertyNativeRecord4usesEv, ptr @_ZNK8facebook6hermes7tracing10SynthTrace23GetPropertyNativeRecordeqERKNS2_6RecordE, ptr @_ZNK8facebook6hermes7tracing10SynthTrace28GetOrSetPropertyNativeRecord14toJSONInternalERN6hermes11JSONEmitterE] }, align 8
@_ZTSN8facebook6hermes7tracing10SynthTrace23GetPropertyNativeRecordE = hidden constant [64 x i8] c"N8facebook6hermes7tracing10SynthTrace23GetPropertyNativeRecordE\00", align 1
@_ZTIN8facebook6hermes7tracing10SynthTrace23GetPropertyNativeRecordE = hidden constant { ptr, ptr, ptr } { ptr getelementptr inbounds (ptr, ptr @_ZTVN10__cxxabiv120__si_class_type_infoE, i64 2), ptr @_ZTSN8facebook6hermes7tracing10SynthTrace23GetPropertyNativeRecordE, ptr @_ZTIN8facebook6hermes7tracing10SynthTrace28GetOrSetPropertyNativeRecordE }, align 8
@_ZZNSt8__detail18__to_chars_10_implImEEvPcjT_E8__digits = linkonce_odr constant [201 x i8] c"00010203040506070809101112131415161718192021222324252627282930313233343536373839404142434445464748495051525354555657585960616263646566676869707172737475767778798081828384858687888990919293949596979899\00", comdat, align 16
@_ZTVN4llvh18raw_string_ostreamE = external unnamed_addr constant { [13 x ptr] }, align 8
@_ZTVN4llvh11raw_ostreamE = external unnamed_addr constant { [13 x ptr] }, align 8
@.str.144 = private unnamed_addr constant [10 x i8] c"FromInt64\00", align 1
@.str.145 = private unnamed_addr constant [11 x i8] c"FromUint64\00", align 1
@.str.146 = private unnamed_addr constant [6 x i8] c"ASCII\00", align 1
@.str.147 = private unnamed_addr constant [6 x i8] c"UTF-8\00", align 1
@.str.148 = private unnamed_addr constant [26 x i8] c"vector::_M_realloc_insert\00", align 1
@.str.149 = private unnamed_addr constant [49 x i8] c"cannot create std::vector larger than max_size()\00", align 1
@.str.150 = private unnamed_addr constant [50 x i8] c"basic_string: construction from null is not valid\00", align 1

@_ZN8facebook6hermes7tracing10SynthTraceC1EmRKN6hermes2vm13RuntimeConfigESt10unique_ptrIN4llvh11raw_ostreamESt14default_deleteISA_EE = hidden unnamed_addr alias void (ptr, i64, ptr, ptr), ptr @_ZN8facebook6hermes7tracing10SynthTraceC2EmRKN6hermes2vm13RuntimeConfigESt10unique_ptrIN4llvh11raw_ostreamESt14default_deleteISA_EE

; Function Attrs: mustprogress nounwind uwtable
define hidden noundef zeroext i1 @_ZNK8facebook6hermes7tracing10SynthTrace10TraceValueeqERKS3_(ptr noundef nonnull align 8 dereferenceable(16) %this, ptr noundef nonnull align 8 dereferenceable(16) %that) #0 align 2 {
entry:
  %retval = alloca i1, align 1
  %this.addr = alloca ptr, align 8
  %that.addr = alloca ptr, align 8
  store ptr %this, ptr %this.addr, align 8
  store ptr %that, ptr %that.addr, align 8
  %this1 = load ptr, ptr %this.addr, align 8
  %tag_ = getelementptr inbounds %"class.facebook::hermes::tracing::SynthTrace::TraceValue", ptr %this1, i32 0, i32 0
  %0 = load i32, ptr %tag_, align 8
  %1 = load ptr, ptr %that.addr, align 8
  %tag_2 = getelementptr inbounds %"class.facebook::hermes::tracing::SynthTrace::TraceValue", ptr %1, i32 0, i32 0
  %2 = load i32, ptr %tag_2, align 8
  %cmp = icmp ne i32 %0, %2
  br i1 %cmp, label %if.then, label %if.end

if.then:                                          ; preds = %entry
  store i1 false, ptr %retval, align 1
  br label %return

if.end:                                           ; preds = %entry
  %tag_3 = getelementptr inbounds %"class.facebook::hermes::tracing::SynthTrace::TraceValue", ptr %this1, i32 0, i32 0
  %3 = load i32, ptr %tag_3, align 8
  switch i32 %3, label %sw.default [
    i32 2, label %sw.bb
    i32 3, label %sw.bb8
    i32 4, label %sw.bb12
    i32 5, label %sw.bb12
    i32 6, label %sw.bb12
  ]

sw.bb:                                            ; preds = %if.end
  %val_ = getelementptr inbounds %"class.facebook::hermes::tracing::SynthTrace::TraceValue", ptr %this1, i32 0, i32 1
  %4 = load i8, ptr %val_, align 8
  %tobool = trunc i8 %4 to i1
  %conv = zext i1 %tobool to i32
  %5 = load ptr, ptr %that.addr, align 8
  %val_4 = getelementptr inbounds %"class.facebook::hermes::tracing::SynthTrace::TraceValue", ptr %5, i32 0, i32 1
  %6 = load i8, ptr %val_4, align 8
  %tobool5 = trunc i8 %6 to i1
  %conv6 = zext i1 %tobool5 to i32
  %cmp7 = icmp eq i32 %conv, %conv6
  store i1 %cmp7, ptr %retval, align 1
  br label %return

sw.bb8:                                           ; preds = %if.end
  %val_9 = getelementptr inbounds %"class.facebook::hermes::tracing::SynthTrace::TraceValue", ptr %this1, i32 0, i32 1
  %7 = load double, ptr %val_9, align 8
  %8 = load ptr, ptr %that.addr, align 8
  %val_10 = getelementptr inbounds %"class.facebook::hermes::tracing::SynthTrace::TraceValue", ptr %8, i32 0, i32 1
  %9 = load double, ptr %val_10, align 8
  %cmp11 = fcmp oeq double %7, %9
  store i1 %cmp11, ptr %retval, align 1
  br label %return

sw.bb12:                                          ; preds = %if.end, %if.end, %if.end
  %val_13 = getelementptr inbounds %"class.facebook::hermes::tracing::SynthTrace::TraceValue", ptr %this1, i32 0, i32 1
  %10 = load i64, ptr %val_13, align 8
  %11 = load ptr, ptr %that.addr, align 8
  %val_14 = getelementptr inbounds %"class.facebook::hermes::tracing::SynthTrace::TraceValue", ptr %11, i32 0, i32 1
  %12 = load i64, ptr %val_14, align 8
  %cmp15 = icmp eq i64 %10, %12
  store i1 %cmp15, ptr %retval, align 1
  br label %return

sw.default:                                       ; preds = %if.end
  store i1 true, ptr %retval, align 1
  br label %return

return:                                           ; preds = %sw.default, %sw.bb12, %sw.bb8, %sw.bb, %if.then
  %13 = load i1, ptr %retval, align 1
  ret i1 %13
}

; Function Attrs: mustprogress uwtable
define hidden void @_ZN8facebook6hermes7tracing10SynthTraceC2EmRKN6hermes2vm13RuntimeConfigESt10unique_ptrIN4llvh11raw_ostreamESt14default_deleteISA_EE(ptr noundef nonnull align 8 dereferenceable(48) %this, i64 noundef %globalObjID, ptr noundef nonnull align 8 dereferenceable(373) %conf, ptr noundef %traceStream) unnamed_addr #1 align 2 personality ptr @__gxx_personality_v0 {
entry:
  %this.addr.i546 = alloca ptr, align 8
  %Str.addr.i547 = alloca ptr, align 8
  %this.addr.i536 = alloca ptr, align 8
  %Str.addr.i537 = alloca ptr, align 8
  %this.addr.i526 = alloca ptr, align 8
  %Str.addr.i527 = alloca ptr, align 8
  %this.addr.i516 = alloca ptr, align 8
  %Str.addr.i517 = alloca ptr, align 8
  %this.addr.i506 = alloca ptr, align 8
  %Str.addr.i507 = alloca ptr, align 8
  %this.addr.i496 = alloca ptr, align 8
  %Str.addr.i497 = alloca ptr, align 8
  %this.addr.i486 = alloca ptr, align 8
  %Str.addr.i487 = alloca ptr, align 8
  %this.addr.i476 = alloca ptr, align 8
  %Str.addr.i477 = alloca ptr, align 8
  %this.addr.i466 = alloca ptr, align 8
  %Str.addr.i467 = alloca ptr, align 8
  %this.addr.i456 = alloca ptr, align 8
  %Str.addr.i457 = alloca ptr, align 8
  %this.addr.i446 = alloca ptr, align 8
  %Str.addr.i447 = alloca ptr, align 8
  %this.addr.i436 = alloca ptr, align 8
  %Str.addr.i437 = alloca ptr, align 8
  %this.addr.i426 = alloca ptr, align 8
  %Str.addr.i427 = alloca ptr, align 8
  %this.addr.i416 = alloca ptr, align 8
  %Str.addr.i417 = alloca ptr, align 8
  %this.addr.i406 = alloca ptr, align 8
  %Str.addr.i407 = alloca ptr, align 8
  %this.addr.i396 = alloca ptr, align 8
  %Str.addr.i397 = alloca ptr, align 8
  %this.addr.i386 = alloca ptr, align 8
  %Str.addr.i387 = alloca ptr, align 8
  %this.addr.i376 = alloca ptr, align 8
  %Str.addr.i377 = alloca ptr, align 8
  %this.addr.i366 = alloca ptr, align 8
  %Str.addr.i367 = alloca ptr, align 8
  %this.addr.i356 = alloca ptr, align 8
  %Str.addr.i357 = alloca ptr, align 8
  %this.addr.i346 = alloca ptr, align 8
  %Str.addr.i347 = alloca ptr, align 8
  %this.addr.i336 = alloca ptr, align 8
  %Str.addr.i337 = alloca ptr, align 8
  %this.addr.i326 = alloca ptr, align 8
  %Str.addr.i327 = alloca ptr, align 8
  %this.addr.i316 = alloca ptr, align 8
  %Str.addr.i317 = alloca ptr, align 8
  %this.addr.i306 = alloca ptr, align 8
  %Str.addr.i307 = alloca ptr, align 8
  %this.addr.i296 = alloca ptr, align 8
  %Str.addr.i297 = alloca ptr, align 8
  %this.addr.i286 = alloca ptr, align 8
  %Str.addr.i287 = alloca ptr, align 8
  %this.addr.i276 = alloca ptr, align 8
  %Str.addr.i277 = alloca ptr, align 8
  %this.addr.i = alloca ptr, align 8
  %Str.addr.i = alloca ptr, align 8
  %this.addr = alloca ptr, align 8
  %globalObjID.addr = alloca i64, align 8
  %conf.addr = alloca ptr, align 8
  %traceStream.indirect_addr = alloca ptr, align 8
  %ref.tmp = alloca %"class.std::unique_ptr.2", align 8
  %ref.tmp5 = alloca i8, align 1
  %exn.slot = alloca ptr, align 8
  %ehselector.slot = alloca i32, align 4
  %agg.tmp = alloca %"class.llvh::StringRef", align 8
  %ref.tmp14 = alloca i32, align 4
  %agg.tmp20 = alloca %"class.llvh::StringRef", align 8
  %agg.tmp26 = alloca %"class.llvh::StringRef", align 8
  %agg.tmp34 = alloca %"class.llvh::StringRef", align 8
  %agg.tmp42 = alloca %"class.llvh::StringRef", align 8
  %ref.tmp44 = alloca i32, align 4
  %ref.tmp45 = alloca %"class.hermes::vm::GCConfig", align 8
  %agg.tmp53 = alloca %"class.llvh::StringRef", align 8
  %ref.tmp55 = alloca i32, align 4
  %ref.tmp56 = alloca %"class.hermes::vm::GCConfig", align 8
  %agg.tmp64 = alloca %"class.llvh::StringRef", align 8
  %ref.tmp66 = alloca i32, align 4
  %ref.tmp67 = alloca %"class.hermes::vm::GCConfig", align 8
  %agg.tmp75 = alloca %"class.llvh::StringRef", align 8
  %ref.tmp77 = alloca double, align 8
  %ref.tmp78 = alloca %"class.hermes::vm::GCConfig", align 8
  %agg.tmp86 = alloca %"class.llvh::StringRef", align 8
  %ref.tmp88 = alloca i32, align 4
  %ref.tmp89 = alloca %"class.hermes::vm::GCConfig", align 8
  %agg.tmp97 = alloca %"class.llvh::StringRef", align 8
  %ref.tmp99 = alloca ptr, align 8
  %ref.tmp100 = alloca %"class.hermes::vm::GCConfig", align 8
  %agg.tmp110 = alloca %"class.llvh::StringRef", align 8
  %ref.tmp112 = alloca %"class.std::__cxx11::basic_string", align 8
  %ref.tmp113 = alloca %"class.hermes::vm::GCConfig", align 8
  %agg.tmp121 = alloca %"class.llvh::StringRef", align 8
  %ref.tmp123 = alloca i8, align 1
  %ref.tmp124 = alloca %"class.hermes::vm::GCConfig", align 8
  %agg.tmp133 = alloca %"class.llvh::StringRef", align 8
  %ref.tmp135 = alloca i8, align 1
  %ref.tmp136 = alloca %"class.hermes::vm::GCConfig", align 8
  %agg.tmp149 = alloca %"class.llvh::StringRef", align 8
  %ref.tmp151 = alloca i32, align 4
  %agg.tmp157 = alloca %"class.llvh::StringRef", align 8
  %ref.tmp159 = alloca i8, align 1
  %agg.tmp166 = alloca %"class.llvh::StringRef", align 8
  %ref.tmp168 = alloca i8, align 1
  %agg.tmp175 = alloca %"class.llvh::StringRef", align 8
  %ref.tmp177 = alloca i8, align 1
  %agg.tmp184 = alloca %"class.llvh::StringRef", align 8
  %ref.tmp186 = alloca i8, align 1
  %agg.tmp193 = alloca %"class.llvh::StringRef", align 8
  %ref.tmp195 = alloca i8, align 1
  %agg.tmp202 = alloca %"class.llvh::StringRef", align 8
  %ref.tmp204 = alloca i32, align 4
  %agg.tmp213 = alloca %"class.llvh::StringRef", align 8
  %agg.tmp221 = alloca %"class.llvh::StringRef", align 8
  %ref.tmp223 = alloca i64, align 8
  %agg.tmp227 = alloca %"class.llvh::StringRef", align 8
  %ref.tmp229 = alloca i8, align 1
  %agg.tmp233 = alloca %"class.llvh::StringRef", align 8
  %ref.tmp235 = alloca i8, align 1
  %agg.tmp239 = alloca %"class.llvh::StringRef", align 8
  %ref.tmp241 = alloca i8, align 1
  %agg.tmp245 = alloca %"class.llvh::StringRef", align 8
  %ref.tmp247 = alloca i8, align 1
  %agg.tmp251 = alloca %"class.llvh::StringRef", align 8
  %ref.tmp253 = alloca i8, align 1
  %agg.tmp257 = alloca %"class.llvh::StringRef", align 8
  %ref.tmp259 = alloca i64, align 8
  %agg.tmp266 = alloca %"class.llvh::StringRef", align 8
  store ptr %this, ptr %this.addr, align 8
  store i64 %globalObjID, ptr %globalObjID.addr, align 8
  store ptr %conf, ptr %conf.addr, align 8
  store ptr %traceStream, ptr %traceStream.indirect_addr, align 8
  %this1 = load ptr, ptr %this.addr, align 8
  %traceStream_ = getelementptr inbounds %"class.facebook::hermes::tracing::SynthTrace", ptr %this1, i32 0, i32 0
  call void @_ZNSt10unique_ptrIN4llvh11raw_ostreamESt14default_deleteIS1_EEC2EOS4_(ptr noundef nonnull align 8 dereferenceable(8) %traceStream_, ptr noundef nonnull align 8 dereferenceable(8) %traceStream) #13
  %json_ = getelementptr inbounds %"class.facebook::hermes::tracing::SynthTrace", ptr %this1, i32 0, i32 1
  call void @_ZNSt10unique_ptrIN6hermes11JSONEmitterESt14default_deleteIS1_EEC2IS3_vEEv(ptr noundef nonnull align 8 dereferenceable(8) %json_) #13
  %records_ = getelementptr inbounds %"class.facebook::hermes::tracing::SynthTrace", ptr %this1, i32 0, i32 2
  call void @_ZNSt6vectorISt10unique_ptrIN8facebook6hermes7tracing10SynthTrace6RecordESt14default_deleteIS5_EESaIS8_EEC2Ev(ptr noundef nonnull align 8 dereferenceable(24) %records_) #13
  %globalObjID_ = getelementptr inbounds %"class.facebook::hermes::tracing::SynthTrace", ptr %this1, i32 0, i32 3
  %0 = load i64, ptr %globalObjID.addr, align 8
  store i64 %0, ptr %globalObjID_, align 8
  %traceStream_2 = getelementptr inbounds %"class.facebook::hermes::tracing::SynthTrace", ptr %this1, i32 0, i32 0
  %call = call noundef zeroext i1 @_ZNKSt10unique_ptrIN4llvh11raw_ostreamESt14default_deleteIS1_EEcvbEv(ptr noundef nonnull align 8 dereferenceable(8) %traceStream_2) #13
  br i1 %call, label %if.then, label %if.end

if.then:                                          ; preds = %entry
  %traceStream_3 = getelementptr inbounds %"class.facebook::hermes::tracing::SynthTrace", ptr %this1, i32 0, i32 0
  %call4 = call noundef nonnull align 8 dereferenceable(36) ptr @_ZNKSt10unique_ptrIN4llvh11raw_ostreamESt14default_deleteIS1_EEdeEv(ptr noundef nonnull align 8 dereferenceable(8) %traceStream_3) #13
  store i8 1, ptr %ref.tmp5, align 1
  invoke void @_ZSt11make_uniqueIN6hermes11JSONEmitterEJRN4llvh11raw_ostreamEbEENSt8__detail9_MakeUniqIT_E15__single_objectEDpOT0_(ptr sret(%"class.std::unique_ptr.2") align 8 %ref.tmp, ptr noundef nonnull align 8 dereferenceable(36) %call4, ptr noundef nonnull align 1 dereferenceable(1) %ref.tmp5)
          to label %invoke.cont unwind label %lpad

invoke.cont:                                      ; preds = %if.then
  %json_6 = getelementptr inbounds %"class.facebook::hermes::tracing::SynthTrace", ptr %this1, i32 0, i32 1
  %call7 = call noundef nonnull align 8 dereferenceable(8) ptr @_ZNSt10unique_ptrIN6hermes11JSONEmitterESt14default_deleteIS1_EEaSEOS4_(ptr noundef nonnull align 8 dereferenceable(8) %json_6, ptr noundef nonnull align 8 dereferenceable(8) %ref.tmp) #13
  call void @_ZNSt10unique_ptrIN6hermes11JSONEmitterESt14default_deleteIS1_EED2Ev(ptr noundef nonnull align 8 dereferenceable(8) %ref.tmp) #13
  %json_8 = getelementptr inbounds %"class.facebook::hermes::tracing::SynthTrace", ptr %this1, i32 0, i32 1
  %call9 = call noundef ptr @_ZNKSt10unique_ptrIN6hermes11JSONEmitterESt14default_deleteIS1_EEptEv(ptr noundef nonnull align 8 dereferenceable(8) %json_8) #13
  invoke void @_ZN6hermes11JSONEmitter8openDictEv(ptr noundef nonnull align 8 dereferenceable(72) %call9)
          to label %invoke.cont10 unwind label %lpad

invoke.cont10:                                    ; preds = %invoke.cont
  %json_11 = getelementptr inbounds %"class.facebook::hermes::tracing::SynthTrace", ptr %this1, i32 0, i32 1
  %call12 = call noundef ptr @_ZNKSt10unique_ptrIN6hermes11JSONEmitterESt14default_deleteIS1_EEptEv(ptr noundef nonnull align 8 dereferenceable(8) %json_11) #13
  store ptr %agg.tmp, ptr %this.addr.i, align 8
  store ptr @.str, ptr %Str.addr.i, align 8
  %this1.i = load ptr, ptr %this.addr.i, align 8
  %1 = load ptr, ptr %Str.addr.i, align 8
  store ptr %1, ptr %this1.i, align 8
  %Length.i = getelementptr inbounds %"class.llvh::StringRef", ptr %this1.i, i32 0, i32 1
  %2 = load ptr, ptr %Str.addr.i, align 8
  %tobool.i = icmp ne ptr %2, null
  br i1 %tobool.i, label %cond.true.i, label %cond.false.i

cond.true.i:                                      ; preds = %invoke.cont10
  %3 = load ptr, ptr %Str.addr.i, align 8
  %call.i = call i64 @strlen(ptr noundef %3) #14
  br label %_ZN4llvh9StringRefC2EPKc.exit

cond.false.i:                                     ; preds = %invoke.cont10
  br label %_ZN4llvh9StringRefC2EPKc.exit

_ZN4llvh9StringRefC2EPKc.exit:                    ; preds = %cond.false.i, %cond.true.i
  %cond.i = phi i64 [ %call.i, %cond.true.i ], [ 0, %cond.false.i ]
  store i64 %cond.i, ptr %Length.i, align 8
  br label %invoke.cont13

invoke.cont13:                                    ; preds = %_ZN4llvh9StringRefC2EPKc.exit
  %call16 = invoke noundef i32 @_ZN8facebook6hermes7tracing10SynthTrace12synthVersionEv()
          to label %invoke.cont15 unwind label %lpad

invoke.cont15:                                    ; preds = %invoke.cont13
  store i32 %call16, ptr %ref.tmp14, align 4
  %4 = getelementptr inbounds { ptr, i64 }, ptr %agg.tmp, i32 0, i32 0
  %5 = load ptr, ptr %4, align 8
  %6 = getelementptr inbounds { ptr, i64 }, ptr %agg.tmp, i32 0, i32 1
  %7 = load i64, ptr %6, align 8
  invoke void @_ZN6hermes11JSONEmitter12emitKeyValueIjEEvN4llvh9StringRefERKT_(ptr noundef nonnull align 8 dereferenceable(72) %call12, ptr %5, i64 %7, ptr noundef nonnull align 4 dereferenceable(4) %ref.tmp14)
          to label %invoke.cont17 unwind label %lpad

invoke.cont17:                                    ; preds = %invoke.cont15
  %json_18 = getelementptr inbounds %"class.facebook::hermes::tracing::SynthTrace", ptr %this1, i32 0, i32 1
  %call19 = call noundef ptr @_ZNKSt10unique_ptrIN6hermes11JSONEmitterESt14default_deleteIS1_EEptEv(ptr noundef nonnull align 8 dereferenceable(8) %json_18) #13
  store ptr %agg.tmp20, ptr %this.addr.i276, align 8
  store ptr @.str.1, ptr %Str.addr.i277, align 8
  %this1.i278 = load ptr, ptr %this.addr.i276, align 8
  %8 = load ptr, ptr %Str.addr.i277, align 8
  store ptr %8, ptr %this1.i278, align 8
  %Length.i279 = getelementptr inbounds %"class.llvh::StringRef", ptr %this1.i278, i32 0, i32 1
  %9 = load ptr, ptr %Str.addr.i277, align 8
  %tobool.i280 = icmp ne ptr %9, null
  br i1 %tobool.i280, label %cond.true.i283, label %cond.false.i281

cond.true.i283:                                   ; preds = %invoke.cont17
  %10 = load ptr, ptr %Str.addr.i277, align 8
  %call.i284 = call i64 @strlen(ptr noundef %10) #14
  br label %_ZN4llvh9StringRefC2EPKc.exit285

cond.false.i281:                                  ; preds = %invoke.cont17
  br label %_ZN4llvh9StringRefC2EPKc.exit285

_ZN4llvh9StringRefC2EPKc.exit285:                 ; preds = %cond.false.i281, %cond.true.i283
  %cond.i282 = phi i64 [ %call.i284, %cond.true.i283 ], [ 0, %cond.false.i281 ]
  store i64 %cond.i282, ptr %Length.i279, align 8
  br label %invoke.cont21

invoke.cont21:                                    ; preds = %_ZN4llvh9StringRefC2EPKc.exit285
  %globalObjID_22 = getelementptr inbounds %"class.facebook::hermes::tracing::SynthTrace", ptr %this1, i32 0, i32 3
  %11 = getelementptr inbounds { ptr, i64 }, ptr %agg.tmp20, i32 0, i32 0
  %12 = load ptr, ptr %11, align 8
  %13 = getelementptr inbounds { ptr, i64 }, ptr %agg.tmp20, i32 0, i32 1
  %14 = load i64, ptr %13, align 8
  invoke void @_ZN6hermes11JSONEmitter12emitKeyValueImEEvN4llvh9StringRefERKT_(ptr noundef nonnull align 8 dereferenceable(72) %call19, ptr %12, i64 %14, ptr noundef nonnull align 8 dereferenceable(8) %globalObjID_22)
          to label %invoke.cont23 unwind label %lpad

invoke.cont23:                                    ; preds = %invoke.cont21
  %json_24 = getelementptr inbounds %"class.facebook::hermes::tracing::SynthTrace", ptr %this1, i32 0, i32 1
  %call25 = call noundef ptr @_ZNKSt10unique_ptrIN6hermes11JSONEmitterESt14default_deleteIS1_EEptEv(ptr noundef nonnull align 8 dereferenceable(8) %json_24) #13
  store ptr %agg.tmp26, ptr %this.addr.i286, align 8
  store ptr @.str.2, ptr %Str.addr.i287, align 8
  %this1.i288 = load ptr, ptr %this.addr.i286, align 8
  %15 = load ptr, ptr %Str.addr.i287, align 8
  store ptr %15, ptr %this1.i288, align 8
  %Length.i289 = getelementptr inbounds %"class.llvh::StringRef", ptr %this1.i288, i32 0, i32 1
  %16 = load ptr, ptr %Str.addr.i287, align 8
  %tobool.i290 = icmp ne ptr %16, null
  br i1 %tobool.i290, label %cond.true.i293, label %cond.false.i291

cond.true.i293:                                   ; preds = %invoke.cont23
  %17 = load ptr, ptr %Str.addr.i287, align 8
  %call.i294 = call i64 @strlen(ptr noundef %17) #14
  br label %_ZN4llvh9StringRefC2EPKc.exit295

cond.false.i291:                                  ; preds = %invoke.cont23
  br label %_ZN4llvh9StringRefC2EPKc.exit295

_ZN4llvh9StringRefC2EPKc.exit295:                 ; preds = %cond.false.i291, %cond.true.i293
  %cond.i292 = phi i64 [ %call.i294, %cond.true.i293 ], [ 0, %cond.false.i291 ]
  store i64 %cond.i292, ptr %Length.i289, align 8
  br label %invoke.cont27

invoke.cont27:                                    ; preds = %_ZN4llvh9StringRefC2EPKc.exit295
  %18 = getelementptr inbounds { ptr, i64 }, ptr %agg.tmp26, i32 0, i32 0
  %19 = load ptr, ptr %18, align 8
  %20 = getelementptr inbounds { ptr, i64 }, ptr %agg.tmp26, i32 0, i32 1
  %21 = load i64, ptr %20, align 8
  invoke void @_ZN6hermes11JSONEmitter7emitKeyEN4llvh9StringRefE(ptr noundef nonnull align 8 dereferenceable(72) %call25, ptr %19, i64 %21)
          to label %invoke.cont28 unwind label %lpad

invoke.cont28:                                    ; preds = %invoke.cont27
  %json_29 = getelementptr inbounds %"class.facebook::hermes::tracing::SynthTrace", ptr %this1, i32 0, i32 1
  %call30 = call noundef ptr @_ZNKSt10unique_ptrIN6hermes11JSONEmitterESt14default_deleteIS1_EEptEv(ptr noundef nonnull align 8 dereferenceable(8) %json_29) #13
  invoke void @_ZN6hermes11JSONEmitter8openDictEv(ptr noundef nonnull align 8 dereferenceable(72) %call30)
          to label %invoke.cont31 unwind label %lpad

invoke.cont31:                                    ; preds = %invoke.cont28
  %json_32 = getelementptr inbounds %"class.facebook::hermes::tracing::SynthTrace", ptr %this1, i32 0, i32 1
  %call33 = call noundef ptr @_ZNKSt10unique_ptrIN6hermes11JSONEmitterESt14default_deleteIS1_EEptEv(ptr noundef nonnull align 8 dereferenceable(8) %json_32) #13
  store ptr %agg.tmp34, ptr %this.addr.i296, align 8
  store ptr @.str.3, ptr %Str.addr.i297, align 8
  %this1.i298 = load ptr, ptr %this.addr.i296, align 8
  %22 = load ptr, ptr %Str.addr.i297, align 8
  store ptr %22, ptr %this1.i298, align 8
  %Length.i299 = getelementptr inbounds %"class.llvh::StringRef", ptr %this1.i298, i32 0, i32 1
  %23 = load ptr, ptr %Str.addr.i297, align 8
  %tobool.i300 = icmp ne ptr %23, null
  br i1 %tobool.i300, label %cond.true.i303, label %cond.false.i301

cond.true.i303:                                   ; preds = %invoke.cont31
  %24 = load ptr, ptr %Str.addr.i297, align 8
  %call.i304 = call i64 @strlen(ptr noundef %24) #14
  br label %_ZN4llvh9StringRefC2EPKc.exit305

cond.false.i301:                                  ; preds = %invoke.cont31
  br label %_ZN4llvh9StringRefC2EPKc.exit305

_ZN4llvh9StringRefC2EPKc.exit305:                 ; preds = %cond.false.i301, %cond.true.i303
  %cond.i302 = phi i64 [ %call.i304, %cond.true.i303 ], [ 0, %cond.false.i301 ]
  store i64 %cond.i302, ptr %Length.i299, align 8
  br label %invoke.cont35

invoke.cont35:                                    ; preds = %_ZN4llvh9StringRefC2EPKc.exit305
  %25 = getelementptr inbounds { ptr, i64 }, ptr %agg.tmp34, i32 0, i32 0
  %26 = load ptr, ptr %25, align 8
  %27 = getelementptr inbounds { ptr, i64 }, ptr %agg.tmp34, i32 0, i32 1
  %28 = load i64, ptr %27, align 8
  invoke void @_ZN6hermes11JSONEmitter7emitKeyEN4llvh9StringRefE(ptr noundef nonnull align 8 dereferenceable(72) %call33, ptr %26, i64 %28)
          to label %invoke.cont36 unwind label %lpad

invoke.cont36:                                    ; preds = %invoke.cont35
  %json_37 = getelementptr inbounds %"class.facebook::hermes::tracing::SynthTrace", ptr %this1, i32 0, i32 1
  %call38 = call noundef ptr @_ZNKSt10unique_ptrIN6hermes11JSONEmitterESt14default_deleteIS1_EEptEv(ptr noundef nonnull align 8 dereferenceable(8) %json_37) #13
  invoke void @_ZN6hermes11JSONEmitter8openDictEv(ptr noundef nonnull align 8 dereferenceable(72) %call38)
          to label %invoke.cont39 unwind label %lpad

invoke.cont39:                                    ; preds = %invoke.cont36
  %json_40 = getelementptr inbounds %"class.facebook::hermes::tracing::SynthTrace", ptr %this1, i32 0, i32 1
  %call41 = call noundef ptr @_ZNKSt10unique_ptrIN6hermes11JSONEmitterESt14default_deleteIS1_EEptEv(ptr noundef nonnull align 8 dereferenceable(8) %json_40) #13
  store ptr %agg.tmp42, ptr %this.addr.i306, align 8
  store ptr @.str.4, ptr %Str.addr.i307, align 8
  %this1.i308 = load ptr, ptr %this.addr.i306, align 8
  %29 = load ptr, ptr %Str.addr.i307, align 8
  store ptr %29, ptr %this1.i308, align 8
  %Length.i309 = getelementptr inbounds %"class.llvh::StringRef", ptr %this1.i308, i32 0, i32 1
  %30 = load ptr, ptr %Str.addr.i307, align 8
  %tobool.i310 = icmp ne ptr %30, null
  br i1 %tobool.i310, label %cond.true.i313, label %cond.false.i311

cond.true.i313:                                   ; preds = %invoke.cont39
  %31 = load ptr, ptr %Str.addr.i307, align 8
  %call.i314 = call i64 @strlen(ptr noundef %31) #14
  br label %_ZN4llvh9StringRefC2EPKc.exit315

cond.false.i311:                                  ; preds = %invoke.cont39
  br label %_ZN4llvh9StringRefC2EPKc.exit315

_ZN4llvh9StringRefC2EPKc.exit315:                 ; preds = %cond.false.i311, %cond.true.i313
  %cond.i312 = phi i64 [ %call.i314, %cond.true.i313 ], [ 0, %cond.false.i311 ]
  store i64 %cond.i312, ptr %Length.i309, align 8
  br label %invoke.cont43

invoke.cont43:                                    ; preds = %_ZN4llvh9StringRefC2EPKc.exit315
  %32 = load ptr, ptr %conf.addr, align 8
  invoke void @_ZNK6hermes2vm13RuntimeConfig11getGCConfigEv(ptr sret(%"class.hermes::vm::GCConfig") align 8 %ref.tmp45, ptr noundef nonnull align 8 dereferenceable(373) %32)
          to label %invoke.cont46 unwind label %lpad

invoke.cont46:                                    ; preds = %invoke.cont43
  %call49 = invoke noundef i32 @_ZNK6hermes2vm8GCConfig14getMinHeapSizeEv(ptr noundef nonnull align 8 dereferenceable(200) %ref.tmp45)
          to label %invoke.cont48 unwind label %lpad47

invoke.cont48:                                    ; preds = %invoke.cont46
  store i32 %call49, ptr %ref.tmp44, align 4
  %33 = getelementptr inbounds { ptr, i64 }, ptr %agg.tmp42, i32 0, i32 0
  %34 = load ptr, ptr %33, align 8
  %35 = getelementptr inbounds { ptr, i64 }, ptr %agg.tmp42, i32 0, i32 1
  %36 = load i64, ptr %35, align 8
  invoke void @_ZN6hermes11JSONEmitter12emitKeyValueIjEEvN4llvh9StringRefERKT_(ptr noundef nonnull align 8 dereferenceable(72) %call41, ptr %34, i64 %36, ptr noundef nonnull align 4 dereferenceable(4) %ref.tmp44)
          to label %invoke.cont50 unwind label %lpad47

invoke.cont50:                                    ; preds = %invoke.cont48
  call void @_ZN6hermes2vm8GCConfigD2Ev(ptr noundef nonnull align 8 dereferenceable(200) %ref.tmp45) #13
  %json_51 = getelementptr inbounds %"class.facebook::hermes::tracing::SynthTrace", ptr %this1, i32 0, i32 1
  %call52 = call noundef ptr @_ZNKSt10unique_ptrIN6hermes11JSONEmitterESt14default_deleteIS1_EEptEv(ptr noundef nonnull align 8 dereferenceable(8) %json_51) #13
  store ptr %agg.tmp53, ptr %this.addr.i316, align 8
  store ptr @.str.5, ptr %Str.addr.i317, align 8
  %this1.i318 = load ptr, ptr %this.addr.i316, align 8
  %37 = load ptr, ptr %Str.addr.i317, align 8
  store ptr %37, ptr %this1.i318, align 8
  %Length.i319 = getelementptr inbounds %"class.llvh::StringRef", ptr %this1.i318, i32 0, i32 1
  %38 = load ptr, ptr %Str.addr.i317, align 8
  %tobool.i320 = icmp ne ptr %38, null
  br i1 %tobool.i320, label %cond.true.i323, label %cond.false.i321

cond.true.i323:                                   ; preds = %invoke.cont50
  %39 = load ptr, ptr %Str.addr.i317, align 8
  %call.i324 = call i64 @strlen(ptr noundef %39) #14
  br label %_ZN4llvh9StringRefC2EPKc.exit325

cond.false.i321:                                  ; preds = %invoke.cont50
  br label %_ZN4llvh9StringRefC2EPKc.exit325

_ZN4llvh9StringRefC2EPKc.exit325:                 ; preds = %cond.false.i321, %cond.true.i323
  %cond.i322 = phi i64 [ %call.i324, %cond.true.i323 ], [ 0, %cond.false.i321 ]
  store i64 %cond.i322, ptr %Length.i319, align 8
  br label %invoke.cont54

invoke.cont54:                                    ; preds = %_ZN4llvh9StringRefC2EPKc.exit325
  %40 = load ptr, ptr %conf.addr, align 8
  invoke void @_ZNK6hermes2vm13RuntimeConfig11getGCConfigEv(ptr sret(%"class.hermes::vm::GCConfig") align 8 %ref.tmp56, ptr noundef nonnull align 8 dereferenceable(373) %40)
          to label %invoke.cont57 unwind label %lpad

invoke.cont57:                                    ; preds = %invoke.cont54
  %call60 = invoke noundef i32 @_ZNK6hermes2vm8GCConfig15getInitHeapSizeEv(ptr noundef nonnull align 8 dereferenceable(200) %ref.tmp56)
          to label %invoke.cont59 unwind label %lpad58

invoke.cont59:                                    ; preds = %invoke.cont57
  store i32 %call60, ptr %ref.tmp55, align 4
  %41 = getelementptr inbounds { ptr, i64 }, ptr %agg.tmp53, i32 0, i32 0
  %42 = load ptr, ptr %41, align 8
  %43 = getelementptr inbounds { ptr, i64 }, ptr %agg.tmp53, i32 0, i32 1
  %44 = load i64, ptr %43, align 8
  invoke void @_ZN6hermes11JSONEmitter12emitKeyValueIjEEvN4llvh9StringRefERKT_(ptr noundef nonnull align 8 dereferenceable(72) %call52, ptr %42, i64 %44, ptr noundef nonnull align 4 dereferenceable(4) %ref.tmp55)
          to label %invoke.cont61 unwind label %lpad58

invoke.cont61:                                    ; preds = %invoke.cont59
  call void @_ZN6hermes2vm8GCConfigD2Ev(ptr noundef nonnull align 8 dereferenceable(200) %ref.tmp56) #13
  %json_62 = getelementptr inbounds %"class.facebook::hermes::tracing::SynthTrace", ptr %this1, i32 0, i32 1
  %call63 = call noundef ptr @_ZNKSt10unique_ptrIN6hermes11JSONEmitterESt14default_deleteIS1_EEptEv(ptr noundef nonnull align 8 dereferenceable(8) %json_62) #13
  store ptr %agg.tmp64, ptr %this.addr.i326, align 8
  store ptr @.str.6, ptr %Str.addr.i327, align 8
  %this1.i328 = load ptr, ptr %this.addr.i326, align 8
  %45 = load ptr, ptr %Str.addr.i327, align 8
  store ptr %45, ptr %this1.i328, align 8
  %Length.i329 = getelementptr inbounds %"class.llvh::StringRef", ptr %this1.i328, i32 0, i32 1
  %46 = load ptr, ptr %Str.addr.i327, align 8
  %tobool.i330 = icmp ne ptr %46, null
  br i1 %tobool.i330, label %cond.true.i333, label %cond.false.i331

cond.true.i333:                                   ; preds = %invoke.cont61
  %47 = load ptr, ptr %Str.addr.i327, align 8
  %call.i334 = call i64 @strlen(ptr noundef %47) #14
  br label %_ZN4llvh9StringRefC2EPKc.exit335

cond.false.i331:                                  ; preds = %invoke.cont61
  br label %_ZN4llvh9StringRefC2EPKc.exit335

_ZN4llvh9StringRefC2EPKc.exit335:                 ; preds = %cond.false.i331, %cond.true.i333
  %cond.i332 = phi i64 [ %call.i334, %cond.true.i333 ], [ 0, %cond.false.i331 ]
  store i64 %cond.i332, ptr %Length.i329, align 8
  br label %invoke.cont65

invoke.cont65:                                    ; preds = %_ZN4llvh9StringRefC2EPKc.exit335
  %48 = load ptr, ptr %conf.addr, align 8
  invoke void @_ZNK6hermes2vm13RuntimeConfig11getGCConfigEv(ptr sret(%"class.hermes::vm::GCConfig") align 8 %ref.tmp67, ptr noundef nonnull align 8 dereferenceable(373) %48)
          to label %invoke.cont68 unwind label %lpad

invoke.cont68:                                    ; preds = %invoke.cont65
  %call71 = invoke noundef i32 @_ZNK6hermes2vm8GCConfig14getMaxHeapSizeEv(ptr noundef nonnull align 8 dereferenceable(200) %ref.tmp67)
          to label %invoke.cont70 unwind label %lpad69

invoke.cont70:                                    ; preds = %invoke.cont68
  store i32 %call71, ptr %ref.tmp66, align 4
  %49 = getelementptr inbounds { ptr, i64 }, ptr %agg.tmp64, i32 0, i32 0
  %50 = load ptr, ptr %49, align 8
  %51 = getelementptr inbounds { ptr, i64 }, ptr %agg.tmp64, i32 0, i32 1
  %52 = load i64, ptr %51, align 8
  invoke void @_ZN6hermes11JSONEmitter12emitKeyValueIjEEvN4llvh9StringRefERKT_(ptr noundef nonnull align 8 dereferenceable(72) %call63, ptr %50, i64 %52, ptr noundef nonnull align 4 dereferenceable(4) %ref.tmp66)
          to label %invoke.cont72 unwind label %lpad69

invoke.cont72:                                    ; preds = %invoke.cont70
  call void @_ZN6hermes2vm8GCConfigD2Ev(ptr noundef nonnull align 8 dereferenceable(200) %ref.tmp67) #13
  %json_73 = getelementptr inbounds %"class.facebook::hermes::tracing::SynthTrace", ptr %this1, i32 0, i32 1
  %call74 = call noundef ptr @_ZNKSt10unique_ptrIN6hermes11JSONEmitterESt14default_deleteIS1_EEptEv(ptr noundef nonnull align 8 dereferenceable(8) %json_73) #13
  store ptr %agg.tmp75, ptr %this.addr.i336, align 8
  store ptr @.str.7, ptr %Str.addr.i337, align 8
  %this1.i338 = load ptr, ptr %this.addr.i336, align 8
  %53 = load ptr, ptr %Str.addr.i337, align 8
  store ptr %53, ptr %this1.i338, align 8
  %Length.i339 = getelementptr inbounds %"class.llvh::StringRef", ptr %this1.i338, i32 0, i32 1
  %54 = load ptr, ptr %Str.addr.i337, align 8
  %tobool.i340 = icmp ne ptr %54, null
  br i1 %tobool.i340, label %cond.true.i343, label %cond.false.i341

cond.true.i343:                                   ; preds = %invoke.cont72
  %55 = load ptr, ptr %Str.addr.i337, align 8
  %call.i344 = call i64 @strlen(ptr noundef %55) #14
  br label %_ZN4llvh9StringRefC2EPKc.exit345

cond.false.i341:                                  ; preds = %invoke.cont72
  br label %_ZN4llvh9StringRefC2EPKc.exit345

_ZN4llvh9StringRefC2EPKc.exit345:                 ; preds = %cond.false.i341, %cond.true.i343
  %cond.i342 = phi i64 [ %call.i344, %cond.true.i343 ], [ 0, %cond.false.i341 ]
  store i64 %cond.i342, ptr %Length.i339, align 8
  br label %invoke.cont76

invoke.cont76:                                    ; preds = %_ZN4llvh9StringRefC2EPKc.exit345
  %56 = load ptr, ptr %conf.addr, align 8
  invoke void @_ZNK6hermes2vm13RuntimeConfig11getGCConfigEv(ptr sret(%"class.hermes::vm::GCConfig") align 8 %ref.tmp78, ptr noundef nonnull align 8 dereferenceable(373) %56)
          to label %invoke.cont79 unwind label %lpad

invoke.cont79:                                    ; preds = %invoke.cont76
  %call82 = invoke noundef double @_ZNK6hermes2vm8GCConfig18getOccupancyTargetEv(ptr noundef nonnull align 8 dereferenceable(200) %ref.tmp78)
          to label %invoke.cont81 unwind label %lpad80

invoke.cont81:                                    ; preds = %invoke.cont79
  store double %call82, ptr %ref.tmp77, align 8
  %57 = getelementptr inbounds { ptr, i64 }, ptr %agg.tmp75, i32 0, i32 0
  %58 = load ptr, ptr %57, align 8
  %59 = getelementptr inbounds { ptr, i64 }, ptr %agg.tmp75, i32 0, i32 1
  %60 = load i64, ptr %59, align 8
  invoke void @_ZN6hermes11JSONEmitter12emitKeyValueIdEEvN4llvh9StringRefERKT_(ptr noundef nonnull align 8 dereferenceable(72) %call74, ptr %58, i64 %60, ptr noundef nonnull align 8 dereferenceable(8) %ref.tmp77)
          to label %invoke.cont83 unwind label %lpad80

invoke.cont83:                                    ; preds = %invoke.cont81
  call void @_ZN6hermes2vm8GCConfigD2Ev(ptr noundef nonnull align 8 dereferenceable(200) %ref.tmp78) #13
  %json_84 = getelementptr inbounds %"class.facebook::hermes::tracing::SynthTrace", ptr %this1, i32 0, i32 1
  %call85 = call noundef ptr @_ZNKSt10unique_ptrIN6hermes11JSONEmitterESt14default_deleteIS1_EEptEv(ptr noundef nonnull align 8 dereferenceable(8) %json_84) #13
  store ptr %agg.tmp86, ptr %this.addr.i346, align 8
  store ptr @.str.8, ptr %Str.addr.i347, align 8
  %this1.i348 = load ptr, ptr %this.addr.i346, align 8
  %61 = load ptr, ptr %Str.addr.i347, align 8
  store ptr %61, ptr %this1.i348, align 8
  %Length.i349 = getelementptr inbounds %"class.llvh::StringRef", ptr %this1.i348, i32 0, i32 1
  %62 = load ptr, ptr %Str.addr.i347, align 8
  %tobool.i350 = icmp ne ptr %62, null
  br i1 %tobool.i350, label %cond.true.i353, label %cond.false.i351

cond.true.i353:                                   ; preds = %invoke.cont83
  %63 = load ptr, ptr %Str.addr.i347, align 8
  %call.i354 = call i64 @strlen(ptr noundef %63) #14
  br label %_ZN4llvh9StringRefC2EPKc.exit355

cond.false.i351:                                  ; preds = %invoke.cont83
  br label %_ZN4llvh9StringRefC2EPKc.exit355

_ZN4llvh9StringRefC2EPKc.exit355:                 ; preds = %cond.false.i351, %cond.true.i353
  %cond.i352 = phi i64 [ %call.i354, %cond.true.i353 ], [ 0, %cond.false.i351 ]
  store i64 %cond.i352, ptr %Length.i349, align 8
  br label %invoke.cont87

invoke.cont87:                                    ; preds = %_ZN4llvh9StringRefC2EPKc.exit355
  %64 = load ptr, ptr %conf.addr, align 8
  invoke void @_ZNK6hermes2vm13RuntimeConfig11getGCConfigEv(ptr sret(%"class.hermes::vm::GCConfig") align 8 %ref.tmp89, ptr noundef nonnull align 8 dereferenceable(373) %64)
          to label %invoke.cont90 unwind label %lpad

invoke.cont90:                                    ; preds = %invoke.cont87
  %call93 = invoke noundef i32 @_ZNK6hermes2vm8GCConfig24getEffectiveOOMThresholdEv(ptr noundef nonnull align 8 dereferenceable(200) %ref.tmp89)
          to label %invoke.cont92 unwind label %lpad91

invoke.cont92:                                    ; preds = %invoke.cont90
  store i32 %call93, ptr %ref.tmp88, align 4
  %65 = getelementptr inbounds { ptr, i64 }, ptr %agg.tmp86, i32 0, i32 0
  %66 = load ptr, ptr %65, align 8
  %67 = getelementptr inbounds { ptr, i64 }, ptr %agg.tmp86, i32 0, i32 1
  %68 = load i64, ptr %67, align 8
  invoke void @_ZN6hermes11JSONEmitter12emitKeyValueIjEEvN4llvh9StringRefERKT_(ptr noundef nonnull align 8 dereferenceable(72) %call85, ptr %66, i64 %68, ptr noundef nonnull align 4 dereferenceable(4) %ref.tmp88)
          to label %invoke.cont94 unwind label %lpad91

invoke.cont94:                                    ; preds = %invoke.cont92
  call void @_ZN6hermes2vm8GCConfigD2Ev(ptr noundef nonnull align 8 dereferenceable(200) %ref.tmp89) #13
  %json_95 = getelementptr inbounds %"class.facebook::hermes::tracing::SynthTrace", ptr %this1, i32 0, i32 1
  %call96 = call noundef ptr @_ZNKSt10unique_ptrIN6hermes11JSONEmitterESt14default_deleteIS1_EEptEv(ptr noundef nonnull align 8 dereferenceable(8) %json_95) #13
  store ptr %agg.tmp97, ptr %this.addr.i356, align 8
  store ptr @.str.9, ptr %Str.addr.i357, align 8
  %this1.i358 = load ptr, ptr %this.addr.i356, align 8
  %69 = load ptr, ptr %Str.addr.i357, align 8
  store ptr %69, ptr %this1.i358, align 8
  %Length.i359 = getelementptr inbounds %"class.llvh::StringRef", ptr %this1.i358, i32 0, i32 1
  %70 = load ptr, ptr %Str.addr.i357, align 8
  %tobool.i360 = icmp ne ptr %70, null
  br i1 %tobool.i360, label %cond.true.i363, label %cond.false.i361

cond.true.i363:                                   ; preds = %invoke.cont94
  %71 = load ptr, ptr %Str.addr.i357, align 8
  %call.i364 = call i64 @strlen(ptr noundef %71) #14
  br label %_ZN4llvh9StringRefC2EPKc.exit365

cond.false.i361:                                  ; preds = %invoke.cont94
  br label %_ZN4llvh9StringRefC2EPKc.exit365

_ZN4llvh9StringRefC2EPKc.exit365:                 ; preds = %cond.false.i361, %cond.true.i363
  %cond.i362 = phi i64 [ %call.i364, %cond.true.i363 ], [ 0, %cond.false.i361 ]
  store i64 %cond.i362, ptr %Length.i359, align 8
  br label %invoke.cont98

invoke.cont98:                                    ; preds = %_ZN4llvh9StringRefC2EPKc.exit365
  %72 = load ptr, ptr %conf.addr, align 8
  invoke void @_ZNK6hermes2vm13RuntimeConfig11getGCConfigEv(ptr sret(%"class.hermes::vm::GCConfig") align 8 %ref.tmp100, ptr noundef nonnull align 8 dereferenceable(373) %72)
          to label %invoke.cont101 unwind label %lpad

invoke.cont101:                                   ; preds = %invoke.cont98
  %call104 = invoke noundef i32 @_ZNK6hermes2vm8GCConfig22getShouldReleaseUnusedEv(ptr noundef nonnull align 8 dereferenceable(200) %ref.tmp100)
          to label %invoke.cont103 unwind label %lpad102

invoke.cont103:                                   ; preds = %invoke.cont101
  %call106 = invoke noundef ptr @_ZN8facebook6hermes7tracing10SynthTrace21nameFromReleaseUnusedEN6hermes2vm13ReleaseUnusedE(i32 noundef %call104)
          to label %invoke.cont105 unwind label %lpad102

invoke.cont105:                                   ; preds = %invoke.cont103
  store ptr %call106, ptr %ref.tmp99, align 8
  %73 = getelementptr inbounds { ptr, i64 }, ptr %agg.tmp97, i32 0, i32 0
  %74 = load ptr, ptr %73, align 8
  %75 = getelementptr inbounds { ptr, i64 }, ptr %agg.tmp97, i32 0, i32 1
  %76 = load i64, ptr %75, align 8
  invoke void @_ZN6hermes11JSONEmitter12emitKeyValueIPKcEEvN4llvh9StringRefERKT_(ptr noundef nonnull align 8 dereferenceable(72) %call96, ptr %74, i64 %76, ptr noundef nonnull align 8 dereferenceable(8) %ref.tmp99)
          to label %invoke.cont107 unwind label %lpad102

invoke.cont107:                                   ; preds = %invoke.cont105
  call void @_ZN6hermes2vm8GCConfigD2Ev(ptr noundef nonnull align 8 dereferenceable(200) %ref.tmp100) #13
  %json_108 = getelementptr inbounds %"class.facebook::hermes::tracing::SynthTrace", ptr %this1, i32 0, i32 1
  %call109 = call noundef ptr @_ZNKSt10unique_ptrIN6hermes11JSONEmitterESt14default_deleteIS1_EEptEv(ptr noundef nonnull align 8 dereferenceable(8) %json_108) #13
  store ptr %agg.tmp110, ptr %this.addr.i366, align 8
  store ptr @.str.10, ptr %Str.addr.i367, align 8
  %this1.i368 = load ptr, ptr %this.addr.i366, align 8
  %77 = load ptr, ptr %Str.addr.i367, align 8
  store ptr %77, ptr %this1.i368, align 8
  %Length.i369 = getelementptr inbounds %"class.llvh::StringRef", ptr %this1.i368, i32 0, i32 1
  %78 = load ptr, ptr %Str.addr.i367, align 8
  %tobool.i370 = icmp ne ptr %78, null
  br i1 %tobool.i370, label %cond.true.i373, label %cond.false.i371

cond.true.i373:                                   ; preds = %invoke.cont107
  %79 = load ptr, ptr %Str.addr.i367, align 8
  %call.i374 = call i64 @strlen(ptr noundef %79) #14
  br label %_ZN4llvh9StringRefC2EPKc.exit375

cond.false.i371:                                  ; preds = %invoke.cont107
  br label %_ZN4llvh9StringRefC2EPKc.exit375

_ZN4llvh9StringRefC2EPKc.exit375:                 ; preds = %cond.false.i371, %cond.true.i373
  %cond.i372 = phi i64 [ %call.i374, %cond.true.i373 ], [ 0, %cond.false.i371 ]
  store i64 %cond.i372, ptr %Length.i369, align 8
  br label %invoke.cont111

invoke.cont111:                                   ; preds = %_ZN4llvh9StringRefC2EPKc.exit375
  %80 = load ptr, ptr %conf.addr, align 8
  invoke void @_ZNK6hermes2vm13RuntimeConfig11getGCConfigEv(ptr sret(%"class.hermes::vm::GCConfig") align 8 %ref.tmp113, ptr noundef nonnull align 8 dereferenceable(373) %80)
          to label %invoke.cont114 unwind label %lpad

invoke.cont114:                                   ; preds = %invoke.cont111
  invoke void @_ZNK6hermes2vm8GCConfig7getNameB5cxx11Ev(ptr sret(%"class.std::__cxx11::basic_string") align 8 %ref.tmp112, ptr noundef nonnull align 8 dereferenceable(200) %ref.tmp113)
          to label %invoke.cont116 unwind label %lpad115

invoke.cont116:                                   ; preds = %invoke.cont114
  %81 = getelementptr inbounds { ptr, i64 }, ptr %agg.tmp110, i32 0, i32 0
  %82 = load ptr, ptr %81, align 8
  %83 = getelementptr inbounds { ptr, i64 }, ptr %agg.tmp110, i32 0, i32 1
  %84 = load i64, ptr %83, align 8
  invoke void @_ZN6hermes11JSONEmitter12emitKeyValueINSt7__cxx1112basic_stringIcSt11char_traitsIcESaIcEEEEEvN4llvh9StringRefERKT_(ptr noundef nonnull align 8 dereferenceable(72) %call109, ptr %82, i64 %84, ptr noundef nonnull align 8 dereferenceable(32) %ref.tmp112)
          to label %invoke.cont118 unwind label %lpad117

invoke.cont118:                                   ; preds = %invoke.cont116
  call void @_ZNSt7__cxx1112basic_stringIcSt11char_traitsIcESaIcEED1Ev(ptr noundef nonnull align 8 dereferenceable(32) %ref.tmp112) #13
  call void @_ZN6hermes2vm8GCConfigD2Ev(ptr noundef nonnull align 8 dereferenceable(200) %ref.tmp113) #13
  %json_119 = getelementptr inbounds %"class.facebook::hermes::tracing::SynthTrace", ptr %this1, i32 0, i32 1
  %call120 = call noundef ptr @_ZNKSt10unique_ptrIN6hermes11JSONEmitterESt14default_deleteIS1_EEptEv(ptr noundef nonnull align 8 dereferenceable(8) %json_119) #13
  store ptr %agg.tmp121, ptr %this.addr.i376, align 8
  store ptr @.str.11, ptr %Str.addr.i377, align 8
  %this1.i378 = load ptr, ptr %this.addr.i376, align 8
  %85 = load ptr, ptr %Str.addr.i377, align 8
  store ptr %85, ptr %this1.i378, align 8
  %Length.i379 = getelementptr inbounds %"class.llvh::StringRef", ptr %this1.i378, i32 0, i32 1
  %86 = load ptr, ptr %Str.addr.i377, align 8
  %tobool.i380 = icmp ne ptr %86, null
  br i1 %tobool.i380, label %cond.true.i383, label %cond.false.i381

cond.true.i383:                                   ; preds = %invoke.cont118
  %87 = load ptr, ptr %Str.addr.i377, align 8
  %call.i384 = call i64 @strlen(ptr noundef %87) #14
  br label %_ZN4llvh9StringRefC2EPKc.exit385

cond.false.i381:                                  ; preds = %invoke.cont118
  br label %_ZN4llvh9StringRefC2EPKc.exit385

_ZN4llvh9StringRefC2EPKc.exit385:                 ; preds = %cond.false.i381, %cond.true.i383
  %cond.i382 = phi i64 [ %call.i384, %cond.true.i383 ], [ 0, %cond.false.i381 ]
  store i64 %cond.i382, ptr %Length.i379, align 8
  br label %invoke.cont122

invoke.cont122:                                   ; preds = %_ZN4llvh9StringRefC2EPKc.exit385
  %88 = load ptr, ptr %conf.addr, align 8
  invoke void @_ZNK6hermes2vm13RuntimeConfig11getGCConfigEv(ptr sret(%"class.hermes::vm::GCConfig") align 8 %ref.tmp124, ptr noundef nonnull align 8 dereferenceable(373) %88)
          to label %invoke.cont125 unwind label %lpad

invoke.cont125:                                   ; preds = %invoke.cont122
  %call128 = invoke noundef zeroext i1 @_ZNK6hermes2vm8GCConfig15getAllocInYoungEv(ptr noundef nonnull align 8 dereferenceable(200) %ref.tmp124)
          to label %invoke.cont127 unwind label %lpad126

invoke.cont127:                                   ; preds = %invoke.cont125
  %frombool = zext i1 %call128 to i8
  store i8 %frombool, ptr %ref.tmp123, align 1
  %89 = getelementptr inbounds { ptr, i64 }, ptr %agg.tmp121, i32 0, i32 0
  %90 = load ptr, ptr %89, align 8
  %91 = getelementptr inbounds { ptr, i64 }, ptr %agg.tmp121, i32 0, i32 1
  %92 = load i64, ptr %91, align 8
  invoke void @_ZN6hermes11JSONEmitter12emitKeyValueIbEEvN4llvh9StringRefERKT_(ptr noundef nonnull align 8 dereferenceable(72) %call120, ptr %90, i64 %92, ptr noundef nonnull align 1 dereferenceable(1) %ref.tmp123)
          to label %invoke.cont129 unwind label %lpad126

invoke.cont129:                                   ; preds = %invoke.cont127
  call void @_ZN6hermes2vm8GCConfigD2Ev(ptr noundef nonnull align 8 dereferenceable(200) %ref.tmp124) #13
  %json_131 = getelementptr inbounds %"class.facebook::hermes::tracing::SynthTrace", ptr %this1, i32 0, i32 1
  %call132 = call noundef ptr @_ZNKSt10unique_ptrIN6hermes11JSONEmitterESt14default_deleteIS1_EEptEv(ptr noundef nonnull align 8 dereferenceable(8) %json_131) #13
  store ptr %agg.tmp133, ptr %this.addr.i386, align 8
  store ptr @.str.12, ptr %Str.addr.i387, align 8
  %this1.i388 = load ptr, ptr %this.addr.i386, align 8
  %93 = load ptr, ptr %Str.addr.i387, align 8
  store ptr %93, ptr %this1.i388, align 8
  %Length.i389 = getelementptr inbounds %"class.llvh::StringRef", ptr %this1.i388, i32 0, i32 1
  %94 = load ptr, ptr %Str.addr.i387, align 8
  %tobool.i390 = icmp ne ptr %94, null
  br i1 %tobool.i390, label %cond.true.i393, label %cond.false.i391

cond.true.i393:                                   ; preds = %invoke.cont129
  %95 = load ptr, ptr %Str.addr.i387, align 8
  %call.i394 = call i64 @strlen(ptr noundef %95) #14
  br label %_ZN4llvh9StringRefC2EPKc.exit395

cond.false.i391:                                  ; preds = %invoke.cont129
  br label %_ZN4llvh9StringRefC2EPKc.exit395

_ZN4llvh9StringRefC2EPKc.exit395:                 ; preds = %cond.false.i391, %cond.true.i393
  %cond.i392 = phi i64 [ %call.i394, %cond.true.i393 ], [ 0, %cond.false.i391 ]
  store i64 %cond.i392, ptr %Length.i389, align 8
  br label %invoke.cont134

invoke.cont134:                                   ; preds = %_ZN4llvh9StringRefC2EPKc.exit395
  %96 = load ptr, ptr %conf.addr, align 8
  invoke void @_ZNK6hermes2vm13RuntimeConfig11getGCConfigEv(ptr sret(%"class.hermes::vm::GCConfig") align 8 %ref.tmp136, ptr noundef nonnull align 8 dereferenceable(373) %96)
          to label %invoke.cont137 unwind label %lpad

invoke.cont137:                                   ; preds = %invoke.cont134
  %call140 = invoke noundef zeroext i1 @_ZNK6hermes2vm8GCConfig18getRevertToYGAtTTIEv(ptr noundef nonnull align 8 dereferenceable(200) %ref.tmp136)
          to label %invoke.cont139 unwind label %lpad138

invoke.cont139:                                   ; preds = %invoke.cont137
  %frombool141 = zext i1 %call140 to i8
  store i8 %frombool141, ptr %ref.tmp135, align 1
  %97 = getelementptr inbounds { ptr, i64 }, ptr %agg.tmp133, i32 0, i32 0
  %98 = load ptr, ptr %97, align 8
  %99 = getelementptr inbounds { ptr, i64 }, ptr %agg.tmp133, i32 0, i32 1
  %100 = load i64, ptr %99, align 8
  invoke void @_ZN6hermes11JSONEmitter12emitKeyValueIbEEvN4llvh9StringRefERKT_(ptr noundef nonnull align 8 dereferenceable(72) %call132, ptr %98, i64 %100, ptr noundef nonnull align 1 dereferenceable(1) %ref.tmp135)
          to label %invoke.cont142 unwind label %lpad138

invoke.cont142:                                   ; preds = %invoke.cont139
  call void @_ZN6hermes2vm8GCConfigD2Ev(ptr noundef nonnull align 8 dereferenceable(200) %ref.tmp136) #13
  %json_144 = getelementptr inbounds %"class.facebook::hermes::tracing::SynthTrace", ptr %this1, i32 0, i32 1
  %call145 = call noundef ptr @_ZNKSt10unique_ptrIN6hermes11JSONEmitterESt14default_deleteIS1_EEptEv(ptr noundef nonnull align 8 dereferenceable(8) %json_144) #13
  invoke void @_ZN6hermes11JSONEmitter9closeDictEv(ptr noundef nonnull align 8 dereferenceable(72) %call145)
          to label %invoke.cont146 unwind label %lpad

invoke.cont146:                                   ; preds = %invoke.cont142
  %json_147 = getelementptr inbounds %"class.facebook::hermes::tracing::SynthTrace", ptr %this1, i32 0, i32 1
  %call148 = call noundef ptr @_ZNKSt10unique_ptrIN6hermes11JSONEmitterESt14default_deleteIS1_EEptEv(ptr noundef nonnull align 8 dereferenceable(8) %json_147) #13
  store ptr %agg.tmp149, ptr %this.addr.i396, align 8
  store ptr @.str.13, ptr %Str.addr.i397, align 8
  %this1.i398 = load ptr, ptr %this.addr.i396, align 8
  %101 = load ptr, ptr %Str.addr.i397, align 8
  store ptr %101, ptr %this1.i398, align 8
  %Length.i399 = getelementptr inbounds %"class.llvh::StringRef", ptr %this1.i398, i32 0, i32 1
  %102 = load ptr, ptr %Str.addr.i397, align 8
  %tobool.i400 = icmp ne ptr %102, null
  br i1 %tobool.i400, label %cond.true.i403, label %cond.false.i401

cond.true.i403:                                   ; preds = %invoke.cont146
  %103 = load ptr, ptr %Str.addr.i397, align 8
  %call.i404 = call i64 @strlen(ptr noundef %103) #14
  br label %_ZN4llvh9StringRefC2EPKc.exit405

cond.false.i401:                                  ; preds = %invoke.cont146
  br label %_ZN4llvh9StringRefC2EPKc.exit405

_ZN4llvh9StringRefC2EPKc.exit405:                 ; preds = %cond.false.i401, %cond.true.i403
  %cond.i402 = phi i64 [ %call.i404, %cond.true.i403 ], [ 0, %cond.false.i401 ]
  store i64 %cond.i402, ptr %Length.i399, align 8
  br label %invoke.cont150

invoke.cont150:                                   ; preds = %_ZN4llvh9StringRefC2EPKc.exit405
  %104 = load ptr, ptr %conf.addr, align 8
  %call153 = invoke noundef i32 @_ZNK6hermes2vm13RuntimeConfig18getMaxNumRegistersEv(ptr noundef nonnull align 8 dereferenceable(373) %104)
          to label %invoke.cont152 unwind label %lpad

invoke.cont152:                                   ; preds = %invoke.cont150
  store i32 %call153, ptr %ref.tmp151, align 4
  %105 = getelementptr inbounds { ptr, i64 }, ptr %agg.tmp149, i32 0, i32 0
  %106 = load ptr, ptr %105, align 8
  %107 = getelementptr inbounds { ptr, i64 }, ptr %agg.tmp149, i32 0, i32 1
  %108 = load i64, ptr %107, align 8
  invoke void @_ZN6hermes11JSONEmitter12emitKeyValueIjEEvN4llvh9StringRefERKT_(ptr noundef nonnull align 8 dereferenceable(72) %call148, ptr %106, i64 %108, ptr noundef nonnull align 4 dereferenceable(4) %ref.tmp151)
          to label %invoke.cont154 unwind label %lpad

invoke.cont154:                                   ; preds = %invoke.cont152
  %json_155 = getelementptr inbounds %"class.facebook::hermes::tracing::SynthTrace", ptr %this1, i32 0, i32 1
  %call156 = call noundef ptr @_ZNKSt10unique_ptrIN6hermes11JSONEmitterESt14default_deleteIS1_EEptEv(ptr noundef nonnull align 8 dereferenceable(8) %json_155) #13
  store ptr %agg.tmp157, ptr %this.addr.i406, align 8
  store ptr @.str.14, ptr %Str.addr.i407, align 8
  %this1.i408 = load ptr, ptr %this.addr.i406, align 8
  %109 = load ptr, ptr %Str.addr.i407, align 8
  store ptr %109, ptr %this1.i408, align 8
  %Length.i409 = getelementptr inbounds %"class.llvh::StringRef", ptr %this1.i408, i32 0, i32 1
  %110 = load ptr, ptr %Str.addr.i407, align 8
  %tobool.i410 = icmp ne ptr %110, null
  br i1 %tobool.i410, label %cond.true.i413, label %cond.false.i411

cond.true.i413:                                   ; preds = %invoke.cont154
  %111 = load ptr, ptr %Str.addr.i407, align 8
  %call.i414 = call i64 @strlen(ptr noundef %111) #14
  br label %_ZN4llvh9StringRefC2EPKc.exit415

cond.false.i411:                                  ; preds = %invoke.cont154
  br label %_ZN4llvh9StringRefC2EPKc.exit415

_ZN4llvh9StringRefC2EPKc.exit415:                 ; preds = %cond.false.i411, %cond.true.i413
  %cond.i412 = phi i64 [ %call.i414, %cond.true.i413 ], [ 0, %cond.false.i411 ]
  store i64 %cond.i412, ptr %Length.i409, align 8
  br label %invoke.cont158

invoke.cont158:                                   ; preds = %_ZN4llvh9StringRefC2EPKc.exit415
  %112 = load ptr, ptr %conf.addr, align 8
  %call161 = invoke noundef zeroext i1 @_ZNK6hermes2vm13RuntimeConfig13getES6PromiseEv(ptr noundef nonnull align 8 dereferenceable(373) %112)
          to label %invoke.cont160 unwind label %lpad

invoke.cont160:                                   ; preds = %invoke.cont158
  %frombool162 = zext i1 %call161 to i8
  store i8 %frombool162, ptr %ref.tmp159, align 1
  %113 = getelementptr inbounds { ptr, i64 }, ptr %agg.tmp157, i32 0, i32 0
  %114 = load ptr, ptr %113, align 8
  %115 = getelementptr inbounds { ptr, i64 }, ptr %agg.tmp157, i32 0, i32 1
  %116 = load i64, ptr %115, align 8
  invoke void @_ZN6hermes11JSONEmitter12emitKeyValueIbEEvN4llvh9StringRefERKT_(ptr noundef nonnull align 8 dereferenceable(72) %call156, ptr %114, i64 %116, ptr noundef nonnull align 1 dereferenceable(1) %ref.tmp159)
          to label %invoke.cont163 unwind label %lpad

invoke.cont163:                                   ; preds = %invoke.cont160
  %json_164 = getelementptr inbounds %"class.facebook::hermes::tracing::SynthTrace", ptr %this1, i32 0, i32 1
  %call165 = call noundef ptr @_ZNKSt10unique_ptrIN6hermes11JSONEmitterESt14default_deleteIS1_EEptEv(ptr noundef nonnull align 8 dereferenceable(8) %json_164) #13
  store ptr %agg.tmp166, ptr %this.addr.i416, align 8
  store ptr @.str.15, ptr %Str.addr.i417, align 8
  %this1.i418 = load ptr, ptr %this.addr.i416, align 8
  %117 = load ptr, ptr %Str.addr.i417, align 8
  store ptr %117, ptr %this1.i418, align 8
  %Length.i419 = getelementptr inbounds %"class.llvh::StringRef", ptr %this1.i418, i32 0, i32 1
  %118 = load ptr, ptr %Str.addr.i417, align 8
  %tobool.i420 = icmp ne ptr %118, null
  br i1 %tobool.i420, label %cond.true.i423, label %cond.false.i421

cond.true.i423:                                   ; preds = %invoke.cont163
  %119 = load ptr, ptr %Str.addr.i417, align 8
  %call.i424 = call i64 @strlen(ptr noundef %119) #14
  br label %_ZN4llvh9StringRefC2EPKc.exit425

cond.false.i421:                                  ; preds = %invoke.cont163
  br label %_ZN4llvh9StringRefC2EPKc.exit425

_ZN4llvh9StringRefC2EPKc.exit425:                 ; preds = %cond.false.i421, %cond.true.i423
  %cond.i422 = phi i64 [ %call.i424, %cond.true.i423 ], [ 0, %cond.false.i421 ]
  store i64 %cond.i422, ptr %Length.i419, align 8
  br label %invoke.cont167

invoke.cont167:                                   ; preds = %_ZN4llvh9StringRefC2EPKc.exit425
  %120 = load ptr, ptr %conf.addr, align 8
  %call170 = invoke noundef zeroext i1 @_ZNK6hermes2vm13RuntimeConfig11getES6ProxyEv(ptr noundef nonnull align 8 dereferenceable(373) %120)
          to label %invoke.cont169 unwind label %lpad

invoke.cont169:                                   ; preds = %invoke.cont167
  %frombool171 = zext i1 %call170 to i8
  store i8 %frombool171, ptr %ref.tmp168, align 1
  %121 = getelementptr inbounds { ptr, i64 }, ptr %agg.tmp166, i32 0, i32 0
  %122 = load ptr, ptr %121, align 8
  %123 = getelementptr inbounds { ptr, i64 }, ptr %agg.tmp166, i32 0, i32 1
  %124 = load i64, ptr %123, align 8
  invoke void @_ZN6hermes11JSONEmitter12emitKeyValueIbEEvN4llvh9StringRefERKT_(ptr noundef nonnull align 8 dereferenceable(72) %call165, ptr %122, i64 %124, ptr noundef nonnull align 1 dereferenceable(1) %ref.tmp168)
          to label %invoke.cont172 unwind label %lpad

invoke.cont172:                                   ; preds = %invoke.cont169
  %json_173 = getelementptr inbounds %"class.facebook::hermes::tracing::SynthTrace", ptr %this1, i32 0, i32 1
  %call174 = call noundef ptr @_ZNKSt10unique_ptrIN6hermes11JSONEmitterESt14default_deleteIS1_EEptEv(ptr noundef nonnull align 8 dereferenceable(8) %json_173) #13
  store ptr %agg.tmp175, ptr %this.addr.i426, align 8
  store ptr @.str.16, ptr %Str.addr.i427, align 8
  %this1.i428 = load ptr, ptr %this.addr.i426, align 8
  %125 = load ptr, ptr %Str.addr.i427, align 8
  store ptr %125, ptr %this1.i428, align 8
  %Length.i429 = getelementptr inbounds %"class.llvh::StringRef", ptr %this1.i428, i32 0, i32 1
  %126 = load ptr, ptr %Str.addr.i427, align 8
  %tobool.i430 = icmp ne ptr %126, null
  br i1 %tobool.i430, label %cond.true.i433, label %cond.false.i431

cond.true.i433:                                   ; preds = %invoke.cont172
  %127 = load ptr, ptr %Str.addr.i427, align 8
  %call.i434 = call i64 @strlen(ptr noundef %127) #14
  br label %_ZN4llvh9StringRefC2EPKc.exit435

cond.false.i431:                                  ; preds = %invoke.cont172
  br label %_ZN4llvh9StringRefC2EPKc.exit435

_ZN4llvh9StringRefC2EPKc.exit435:                 ; preds = %cond.false.i431, %cond.true.i433
  %cond.i432 = phi i64 [ %call.i434, %cond.true.i433 ], [ 0, %cond.false.i431 ]
  store i64 %cond.i432, ptr %Length.i429, align 8
  br label %invoke.cont176

invoke.cont176:                                   ; preds = %_ZN4llvh9StringRefC2EPKc.exit435
  %128 = load ptr, ptr %conf.addr, align 8
  %call179 = invoke noundef zeroext i1 @_ZNK6hermes2vm13RuntimeConfig7getIntlEv(ptr noundef nonnull align 8 dereferenceable(373) %128)
          to label %invoke.cont178 unwind label %lpad

invoke.cont178:                                   ; preds = %invoke.cont176
  %frombool180 = zext i1 %call179 to i8
  store i8 %frombool180, ptr %ref.tmp177, align 1
  %129 = getelementptr inbounds { ptr, i64 }, ptr %agg.tmp175, i32 0, i32 0
  %130 = load ptr, ptr %129, align 8
  %131 = getelementptr inbounds { ptr, i64 }, ptr %agg.tmp175, i32 0, i32 1
  %132 = load i64, ptr %131, align 8
  invoke void @_ZN6hermes11JSONEmitter12emitKeyValueIbEEvN4llvh9StringRefERKT_(ptr noundef nonnull align 8 dereferenceable(72) %call174, ptr %130, i64 %132, ptr noundef nonnull align 1 dereferenceable(1) %ref.tmp177)
          to label %invoke.cont181 unwind label %lpad

invoke.cont181:                                   ; preds = %invoke.cont178
  %json_182 = getelementptr inbounds %"class.facebook::hermes::tracing::SynthTrace", ptr %this1, i32 0, i32 1
  %call183 = call noundef ptr @_ZNKSt10unique_ptrIN6hermes11JSONEmitterESt14default_deleteIS1_EEptEv(ptr noundef nonnull align 8 dereferenceable(8) %json_182) #13
  store ptr %agg.tmp184, ptr %this.addr.i436, align 8
  store ptr @.str.17, ptr %Str.addr.i437, align 8
  %this1.i438 = load ptr, ptr %this.addr.i436, align 8
  %133 = load ptr, ptr %Str.addr.i437, align 8
  store ptr %133, ptr %this1.i438, align 8
  %Length.i439 = getelementptr inbounds %"class.llvh::StringRef", ptr %this1.i438, i32 0, i32 1
  %134 = load ptr, ptr %Str.addr.i437, align 8
  %tobool.i440 = icmp ne ptr %134, null
  br i1 %tobool.i440, label %cond.true.i443, label %cond.false.i441

cond.true.i443:                                   ; preds = %invoke.cont181
  %135 = load ptr, ptr %Str.addr.i437, align 8
  %call.i444 = call i64 @strlen(ptr noundef %135) #14
  br label %_ZN4llvh9StringRefC2EPKc.exit445

cond.false.i441:                                  ; preds = %invoke.cont181
  br label %_ZN4llvh9StringRefC2EPKc.exit445

_ZN4llvh9StringRefC2EPKc.exit445:                 ; preds = %cond.false.i441, %cond.true.i443
  %cond.i442 = phi i64 [ %call.i444, %cond.true.i443 ], [ 0, %cond.false.i441 ]
  store i64 %cond.i442, ptr %Length.i439, align 8
  br label %invoke.cont185

invoke.cont185:                                   ; preds = %_ZN4llvh9StringRefC2EPKc.exit445
  %136 = load ptr, ptr %conf.addr, align 8
  %call188 = invoke noundef zeroext i1 @_ZNK6hermes2vm13RuntimeConfig17getMicrotaskQueueEv(ptr noundef nonnull align 8 dereferenceable(373) %136)
          to label %invoke.cont187 unwind label %lpad

invoke.cont187:                                   ; preds = %invoke.cont185
  %frombool189 = zext i1 %call188 to i8
  store i8 %frombool189, ptr %ref.tmp186, align 1
  %137 = getelementptr inbounds { ptr, i64 }, ptr %agg.tmp184, i32 0, i32 0
  %138 = load ptr, ptr %137, align 8
  %139 = getelementptr inbounds { ptr, i64 }, ptr %agg.tmp184, i32 0, i32 1
  %140 = load i64, ptr %139, align 8
  invoke void @_ZN6hermes11JSONEmitter12emitKeyValueIbEEvN4llvh9StringRefERKT_(ptr noundef nonnull align 8 dereferenceable(72) %call183, ptr %138, i64 %140, ptr noundef nonnull align 1 dereferenceable(1) %ref.tmp186)
          to label %invoke.cont190 unwind label %lpad

invoke.cont190:                                   ; preds = %invoke.cont187
  %json_191 = getelementptr inbounds %"class.facebook::hermes::tracing::SynthTrace", ptr %this1, i32 0, i32 1
  %call192 = call noundef ptr @_ZNKSt10unique_ptrIN6hermes11JSONEmitterESt14default_deleteIS1_EEptEv(ptr noundef nonnull align 8 dereferenceable(8) %json_191) #13
  store ptr %agg.tmp193, ptr %this.addr.i446, align 8
  store ptr @.str.18, ptr %Str.addr.i447, align 8
  %this1.i448 = load ptr, ptr %this.addr.i446, align 8
  %141 = load ptr, ptr %Str.addr.i447, align 8
  store ptr %141, ptr %this1.i448, align 8
  %Length.i449 = getelementptr inbounds %"class.llvh::StringRef", ptr %this1.i448, i32 0, i32 1
  %142 = load ptr, ptr %Str.addr.i447, align 8
  %tobool.i450 = icmp ne ptr %142, null
  br i1 %tobool.i450, label %cond.true.i453, label %cond.false.i451

cond.true.i453:                                   ; preds = %invoke.cont190
  %143 = load ptr, ptr %Str.addr.i447, align 8
  %call.i454 = call i64 @strlen(ptr noundef %143) #14
  br label %_ZN4llvh9StringRefC2EPKc.exit455

cond.false.i451:                                  ; preds = %invoke.cont190
  br label %_ZN4llvh9StringRefC2EPKc.exit455

_ZN4llvh9StringRefC2EPKc.exit455:                 ; preds = %cond.false.i451, %cond.true.i453
  %cond.i452 = phi i64 [ %call.i454, %cond.true.i453 ], [ 0, %cond.false.i451 ]
  store i64 %cond.i452, ptr %Length.i449, align 8
  br label %invoke.cont194

invoke.cont194:                                   ; preds = %_ZN4llvh9StringRefC2EPKc.exit455
  %144 = load ptr, ptr %conf.addr, align 8
  %call197 = invoke noundef zeroext i1 @_ZNK6hermes2vm13RuntimeConfig21getEnableSampledStatsEv(ptr noundef nonnull align 8 dereferenceable(373) %144)
          to label %invoke.cont196 unwind label %lpad

invoke.cont196:                                   ; preds = %invoke.cont194
  %frombool198 = zext i1 %call197 to i8
  store i8 %frombool198, ptr %ref.tmp195, align 1
  %145 = getelementptr inbounds { ptr, i64 }, ptr %agg.tmp193, i32 0, i32 0
  %146 = load ptr, ptr %145, align 8
  %147 = getelementptr inbounds { ptr, i64 }, ptr %agg.tmp193, i32 0, i32 1
  %148 = load i64, ptr %147, align 8
  invoke void @_ZN6hermes11JSONEmitter12emitKeyValueIbEEvN4llvh9StringRefERKT_(ptr noundef nonnull align 8 dereferenceable(72) %call192, ptr %146, i64 %148, ptr noundef nonnull align 1 dereferenceable(1) %ref.tmp195)
          to label %invoke.cont199 unwind label %lpad

invoke.cont199:                                   ; preds = %invoke.cont196
  %json_200 = getelementptr inbounds %"class.facebook::hermes::tracing::SynthTrace", ptr %this1, i32 0, i32 1
  %call201 = call noundef ptr @_ZNKSt10unique_ptrIN6hermes11JSONEmitterESt14default_deleteIS1_EEptEv(ptr noundef nonnull align 8 dereferenceable(8) %json_200) #13
  store ptr %agg.tmp202, ptr %this.addr.i456, align 8
  store ptr @.str.19, ptr %Str.addr.i457, align 8
  %this1.i458 = load ptr, ptr %this.addr.i456, align 8
  %149 = load ptr, ptr %Str.addr.i457, align 8
  store ptr %149, ptr %this1.i458, align 8
  %Length.i459 = getelementptr inbounds %"class.llvh::StringRef", ptr %this1.i458, i32 0, i32 1
  %150 = load ptr, ptr %Str.addr.i457, align 8
  %tobool.i460 = icmp ne ptr %150, null
  br i1 %tobool.i460, label %cond.true.i463, label %cond.false.i461

cond.true.i463:                                   ; preds = %invoke.cont199
  %151 = load ptr, ptr %Str.addr.i457, align 8
  %call.i464 = call i64 @strlen(ptr noundef %151) #14
  br label %_ZN4llvh9StringRefC2EPKc.exit465

cond.false.i461:                                  ; preds = %invoke.cont199
  br label %_ZN4llvh9StringRefC2EPKc.exit465

_ZN4llvh9StringRefC2EPKc.exit465:                 ; preds = %cond.false.i461, %cond.true.i463
  %cond.i462 = phi i64 [ %call.i464, %cond.true.i463 ], [ 0, %cond.false.i461 ]
  store i64 %cond.i462, ptr %Length.i459, align 8
  br label %invoke.cont203

invoke.cont203:                                   ; preds = %_ZN4llvh9StringRefC2EPKc.exit465
  %152 = load ptr, ptr %conf.addr, align 8
  %call206 = invoke noundef i32 @_ZNK6hermes2vm13RuntimeConfig20getVMExperimentFlagsEv(ptr noundef nonnull align 8 dereferenceable(373) %152)
          to label %invoke.cont205 unwind label %lpad

invoke.cont205:                                   ; preds = %invoke.cont203
  store i32 %call206, ptr %ref.tmp204, align 4
  %153 = getelementptr inbounds { ptr, i64 }, ptr %agg.tmp202, i32 0, i32 0
  %154 = load ptr, ptr %153, align 8
  %155 = getelementptr inbounds { ptr, i64 }, ptr %agg.tmp202, i32 0, i32 1
  %156 = load i64, ptr %155, align 8
  invoke void @_ZN6hermes11JSONEmitter12emitKeyValueIjEEvN4llvh9StringRefERKT_(ptr noundef nonnull align 8 dereferenceable(72) %call201, ptr %154, i64 %156, ptr noundef nonnull align 4 dereferenceable(4) %ref.tmp204)
          to label %invoke.cont207 unwind label %lpad

invoke.cont207:                                   ; preds = %invoke.cont205
  %json_208 = getelementptr inbounds %"class.facebook::hermes::tracing::SynthTrace", ptr %this1, i32 0, i32 1
  %call209 = call noundef ptr @_ZNKSt10unique_ptrIN6hermes11JSONEmitterESt14default_deleteIS1_EEptEv(ptr noundef nonnull align 8 dereferenceable(8) %json_208) #13
  invoke void @_ZN6hermes11JSONEmitter9closeDictEv(ptr noundef nonnull align 8 dereferenceable(72) %call209)
          to label %invoke.cont210 unwind label %lpad

invoke.cont210:                                   ; preds = %invoke.cont207
  %json_211 = getelementptr inbounds %"class.facebook::hermes::tracing::SynthTrace", ptr %this1, i32 0, i32 1
  %call212 = call noundef ptr @_ZNKSt10unique_ptrIN6hermes11JSONEmitterESt14default_deleteIS1_EEptEv(ptr noundef nonnull align 8 dereferenceable(8) %json_211) #13
  store ptr %agg.tmp213, ptr %this.addr.i466, align 8
  store ptr @.str.20, ptr %Str.addr.i467, align 8
  %this1.i468 = load ptr, ptr %this.addr.i466, align 8
  %157 = load ptr, ptr %Str.addr.i467, align 8
  store ptr %157, ptr %this1.i468, align 8
  %Length.i469 = getelementptr inbounds %"class.llvh::StringRef", ptr %this1.i468, i32 0, i32 1
  %158 = load ptr, ptr %Str.addr.i467, align 8
  %tobool.i470 = icmp ne ptr %158, null
  br i1 %tobool.i470, label %cond.true.i473, label %cond.false.i471

cond.true.i473:                                   ; preds = %invoke.cont210
  %159 = load ptr, ptr %Str.addr.i467, align 8
  %call.i474 = call i64 @strlen(ptr noundef %159) #14
  br label %_ZN4llvh9StringRefC2EPKc.exit475

cond.false.i471:                                  ; preds = %invoke.cont210
  br label %_ZN4llvh9StringRefC2EPKc.exit475

_ZN4llvh9StringRefC2EPKc.exit475:                 ; preds = %cond.false.i471, %cond.true.i473
  %cond.i472 = phi i64 [ %call.i474, %cond.true.i473 ], [ 0, %cond.false.i471 ]
  store i64 %cond.i472, ptr %Length.i469, align 8
  br label %invoke.cont214

invoke.cont214:                                   ; preds = %_ZN4llvh9StringRefC2EPKc.exit475
  %160 = getelementptr inbounds { ptr, i64 }, ptr %agg.tmp213, i32 0, i32 0
  %161 = load ptr, ptr %160, align 8
  %162 = getelementptr inbounds { ptr, i64 }, ptr %agg.tmp213, i32 0, i32 1
  %163 = load i64, ptr %162, align 8
  invoke void @_ZN6hermes11JSONEmitter7emitKeyEN4llvh9StringRefE(ptr noundef nonnull align 8 dereferenceable(72) %call212, ptr %161, i64 %163)
          to label %invoke.cont215 unwind label %lpad

invoke.cont215:                                   ; preds = %invoke.cont214
  %json_216 = getelementptr inbounds %"class.facebook::hermes::tracing::SynthTrace", ptr %this1, i32 0, i32 1
  %call217 = call noundef ptr @_ZNKSt10unique_ptrIN6hermes11JSONEmitterESt14default_deleteIS1_EEptEv(ptr noundef nonnull align 8 dereferenceable(8) %json_216) #13
  invoke void @_ZN6hermes11JSONEmitter8openDictEv(ptr noundef nonnull align 8 dereferenceable(72) %call217)
          to label %invoke.cont218 unwind label %lpad

invoke.cont218:                                   ; preds = %invoke.cont215
  %json_219 = getelementptr inbounds %"class.facebook::hermes::tracing::SynthTrace", ptr %this1, i32 0, i32 1
  %call220 = call noundef ptr @_ZNKSt10unique_ptrIN6hermes11JSONEmitterESt14default_deleteIS1_EEptEv(ptr noundef nonnull align 8 dereferenceable(8) %json_219) #13
  store ptr %agg.tmp221, ptr %this.addr.i476, align 8
  store ptr @.str.21, ptr %Str.addr.i477, align 8
  %this1.i478 = load ptr, ptr %this.addr.i476, align 8
  %164 = load ptr, ptr %Str.addr.i477, align 8
  store ptr %164, ptr %this1.i478, align 8
  %Length.i479 = getelementptr inbounds %"class.llvh::StringRef", ptr %this1.i478, i32 0, i32 1
  %165 = load ptr, ptr %Str.addr.i477, align 8
  %tobool.i480 = icmp ne ptr %165, null
  br i1 %tobool.i480, label %cond.true.i483, label %cond.false.i481

cond.true.i483:                                   ; preds = %invoke.cont218
  %166 = load ptr, ptr %Str.addr.i477, align 8
  %call.i484 = call i64 @strlen(ptr noundef %166) #14
  br label %_ZN4llvh9StringRefC2EPKc.exit485

cond.false.i481:                                  ; preds = %invoke.cont218
  br label %_ZN4llvh9StringRefC2EPKc.exit485

_ZN4llvh9StringRefC2EPKc.exit485:                 ; preds = %cond.false.i481, %cond.true.i483
  %cond.i482 = phi i64 [ %call.i484, %cond.true.i483 ], [ 0, %cond.false.i481 ]
  store i64 %cond.i482, ptr %Length.i479, align 8
  br label %invoke.cont222

invoke.cont222:                                   ; preds = %_ZN4llvh9StringRefC2EPKc.exit485
  store i64 8, ptr %ref.tmp223, align 8
  %167 = getelementptr inbounds { ptr, i64 }, ptr %agg.tmp221, i32 0, i32 0
  %168 = load ptr, ptr %167, align 8
  %169 = getelementptr inbounds { ptr, i64 }, ptr %agg.tmp221, i32 0, i32 1
  %170 = load i64, ptr %169, align 8
  invoke void @_ZN6hermes11JSONEmitter12emitKeyValueImEEvN4llvh9StringRefERKT_(ptr noundef nonnull align 8 dereferenceable(72) %call220, ptr %168, i64 %170, ptr noundef nonnull align 8 dereferenceable(8) %ref.tmp223)
          to label %invoke.cont224 unwind label %lpad

invoke.cont224:                                   ; preds = %invoke.cont222
  %json_225 = getelementptr inbounds %"class.facebook::hermes::tracing::SynthTrace", ptr %this1, i32 0, i32 1
  %call226 = call noundef ptr @_ZNKSt10unique_ptrIN6hermes11JSONEmitterESt14default_deleteIS1_EEptEv(ptr noundef nonnull align 8 dereferenceable(8) %json_225) #13
  store ptr %agg.tmp227, ptr %this.addr.i486, align 8
  store ptr @.str.22, ptr %Str.addr.i487, align 8
  %this1.i488 = load ptr, ptr %this.addr.i486, align 8
  %171 = load ptr, ptr %Str.addr.i487, align 8
  store ptr %171, ptr %this1.i488, align 8
  %Length.i489 = getelementptr inbounds %"class.llvh::StringRef", ptr %this1.i488, i32 0, i32 1
  %172 = load ptr, ptr %Str.addr.i487, align 8
  %tobool.i490 = icmp ne ptr %172, null
  br i1 %tobool.i490, label %cond.true.i493, label %cond.false.i491

cond.true.i493:                                   ; preds = %invoke.cont224
  %173 = load ptr, ptr %Str.addr.i487, align 8
  %call.i494 = call i64 @strlen(ptr noundef %173) #14
  br label %_ZN4llvh9StringRefC2EPKc.exit495

cond.false.i491:                                  ; preds = %invoke.cont224
  br label %_ZN4llvh9StringRefC2EPKc.exit495

_ZN4llvh9StringRefC2EPKc.exit495:                 ; preds = %cond.false.i491, %cond.true.i493
  %cond.i492 = phi i64 [ %call.i494, %cond.true.i493 ], [ 0, %cond.false.i491 ]
  store i64 %cond.i492, ptr %Length.i489, align 8
  br label %invoke.cont228

invoke.cont228:                                   ; preds = %_ZN4llvh9StringRefC2EPKc.exit495
  store i8 1, ptr %ref.tmp229, align 1
  %174 = getelementptr inbounds { ptr, i64 }, ptr %agg.tmp227, i32 0, i32 0
  %175 = load ptr, ptr %174, align 8
  %176 = getelementptr inbounds { ptr, i64 }, ptr %agg.tmp227, i32 0, i32 1
  %177 = load i64, ptr %176, align 8
  invoke void @_ZN6hermes11JSONEmitter12emitKeyValueIbEEvN4llvh9StringRefERKT_(ptr noundef nonnull align 8 dereferenceable(72) %call226, ptr %175, i64 %177, ptr noundef nonnull align 1 dereferenceable(1) %ref.tmp229)
          to label %invoke.cont230 unwind label %lpad

invoke.cont230:                                   ; preds = %invoke.cont228
  %json_231 = getelementptr inbounds %"class.facebook::hermes::tracing::SynthTrace", ptr %this1, i32 0, i32 1
  %call232 = call noundef ptr @_ZNKSt10unique_ptrIN6hermes11JSONEmitterESt14default_deleteIS1_EEptEv(ptr noundef nonnull align 8 dereferenceable(8) %json_231) #13
  store ptr %agg.tmp233, ptr %this.addr.i496, align 8
  store ptr @.str.23, ptr %Str.addr.i497, align 8
  %this1.i498 = load ptr, ptr %this.addr.i496, align 8
  %178 = load ptr, ptr %Str.addr.i497, align 8
  store ptr %178, ptr %this1.i498, align 8
  %Length.i499 = getelementptr inbounds %"class.llvh::StringRef", ptr %this1.i498, i32 0, i32 1
  %179 = load ptr, ptr %Str.addr.i497, align 8
  %tobool.i500 = icmp ne ptr %179, null
  br i1 %tobool.i500, label %cond.true.i503, label %cond.false.i501

cond.true.i503:                                   ; preds = %invoke.cont230
  %180 = load ptr, ptr %Str.addr.i497, align 8
  %call.i504 = call i64 @strlen(ptr noundef %180) #14
  br label %_ZN4llvh9StringRefC2EPKc.exit505

cond.false.i501:                                  ; preds = %invoke.cont230
  br label %_ZN4llvh9StringRefC2EPKc.exit505

_ZN4llvh9StringRefC2EPKc.exit505:                 ; preds = %cond.false.i501, %cond.true.i503
  %cond.i502 = phi i64 [ %call.i504, %cond.true.i503 ], [ 0, %cond.false.i501 ]
  store i64 %cond.i502, ptr %Length.i499, align 8
  br label %invoke.cont234

invoke.cont234:                                   ; preds = %_ZN4llvh9StringRefC2EPKc.exit505
  store i8 0, ptr %ref.tmp235, align 1
  %181 = getelementptr inbounds { ptr, i64 }, ptr %agg.tmp233, i32 0, i32 0
  %182 = load ptr, ptr %181, align 8
  %183 = getelementptr inbounds { ptr, i64 }, ptr %agg.tmp233, i32 0, i32 1
  %184 = load i64, ptr %183, align 8
  invoke void @_ZN6hermes11JSONEmitter12emitKeyValueIbEEvN4llvh9StringRefERKT_(ptr noundef nonnull align 8 dereferenceable(72) %call232, ptr %182, i64 %184, ptr noundef nonnull align 1 dereferenceable(1) %ref.tmp235)
          to label %invoke.cont236 unwind label %lpad

invoke.cont236:                                   ; preds = %invoke.cont234
  %json_237 = getelementptr inbounds %"class.facebook::hermes::tracing::SynthTrace", ptr %this1, i32 0, i32 1
  %call238 = call noundef ptr @_ZNKSt10unique_ptrIN6hermes11JSONEmitterESt14default_deleteIS1_EEptEv(ptr noundef nonnull align 8 dereferenceable(8) %json_237) #13
  store ptr %agg.tmp239, ptr %this.addr.i506, align 8
  store ptr @.str.24, ptr %Str.addr.i507, align 8
  %this1.i508 = load ptr, ptr %this.addr.i506, align 8
  %185 = load ptr, ptr %Str.addr.i507, align 8
  store ptr %185, ptr %this1.i508, align 8
  %Length.i509 = getelementptr inbounds %"class.llvh::StringRef", ptr %this1.i508, i32 0, i32 1
  %186 = load ptr, ptr %Str.addr.i507, align 8
  %tobool.i510 = icmp ne ptr %186, null
  br i1 %tobool.i510, label %cond.true.i513, label %cond.false.i511

cond.true.i513:                                   ; preds = %invoke.cont236
  %187 = load ptr, ptr %Str.addr.i507, align 8
  %call.i514 = call i64 @strlen(ptr noundef %187) #14
  br label %_ZN4llvh9StringRefC2EPKc.exit515

cond.false.i511:                                  ; preds = %invoke.cont236
  br label %_ZN4llvh9StringRefC2EPKc.exit515

_ZN4llvh9StringRefC2EPKc.exit515:                 ; preds = %cond.false.i511, %cond.true.i513
  %cond.i512 = phi i64 [ %call.i514, %cond.true.i513 ], [ 0, %cond.false.i511 ]
  store i64 %cond.i512, ptr %Length.i509, align 8
  br label %invoke.cont240

invoke.cont240:                                   ; preds = %_ZN4llvh9StringRefC2EPKc.exit515
  store i8 0, ptr %ref.tmp241, align 1
  %188 = getelementptr inbounds { ptr, i64 }, ptr %agg.tmp239, i32 0, i32 0
  %189 = load ptr, ptr %188, align 8
  %190 = getelementptr inbounds { ptr, i64 }, ptr %agg.tmp239, i32 0, i32 1
  %191 = load i64, ptr %190, align 8
  invoke void @_ZN6hermes11JSONEmitter12emitKeyValueIbEEvN4llvh9StringRefERKT_(ptr noundef nonnull align 8 dereferenceable(72) %call238, ptr %189, i64 %191, ptr noundef nonnull align 1 dereferenceable(1) %ref.tmp241)
          to label %invoke.cont242 unwind label %lpad

invoke.cont242:                                   ; preds = %invoke.cont240
  %json_243 = getelementptr inbounds %"class.facebook::hermes::tracing::SynthTrace", ptr %this1, i32 0, i32 1
  %call244 = call noundef ptr @_ZNKSt10unique_ptrIN6hermes11JSONEmitterESt14default_deleteIS1_EEptEv(ptr noundef nonnull align 8 dereferenceable(8) %json_243) #13
  store ptr %agg.tmp245, ptr %this.addr.i516, align 8
  store ptr @.str.25, ptr %Str.addr.i517, align 8
  %this1.i518 = load ptr, ptr %this.addr.i516, align 8
  %192 = load ptr, ptr %Str.addr.i517, align 8
  store ptr %192, ptr %this1.i518, align 8
  %Length.i519 = getelementptr inbounds %"class.llvh::StringRef", ptr %this1.i518, i32 0, i32 1
  %193 = load ptr, ptr %Str.addr.i517, align 8
  %tobool.i520 = icmp ne ptr %193, null
  br i1 %tobool.i520, label %cond.true.i523, label %cond.false.i521

cond.true.i523:                                   ; preds = %invoke.cont242
  %194 = load ptr, ptr %Str.addr.i517, align 8
  %call.i524 = call i64 @strlen(ptr noundef %194) #14
  br label %_ZN4llvh9StringRefC2EPKc.exit525

cond.false.i521:                                  ; preds = %invoke.cont242
  br label %_ZN4llvh9StringRefC2EPKc.exit525

_ZN4llvh9StringRefC2EPKc.exit525:                 ; preds = %cond.false.i521, %cond.true.i523
  %cond.i522 = phi i64 [ %call.i524, %cond.true.i523 ], [ 0, %cond.false.i521 ]
  store i64 %cond.i522, ptr %Length.i519, align 8
  br label %invoke.cont246

invoke.cont246:                                   ; preds = %_ZN4llvh9StringRefC2EPKc.exit525
  store i8 0, ptr %ref.tmp247, align 1
  %195 = getelementptr inbounds { ptr, i64 }, ptr %agg.tmp245, i32 0, i32 0
  %196 = load ptr, ptr %195, align 8
  %197 = getelementptr inbounds { ptr, i64 }, ptr %agg.tmp245, i32 0, i32 1
  %198 = load i64, ptr %197, align 8
  invoke void @_ZN6hermes11JSONEmitter12emitKeyValueIbEEvN4llvh9StringRefERKT_(ptr noundef nonnull align 8 dereferenceable(72) %call244, ptr %196, i64 %198, ptr noundef nonnull align 1 dereferenceable(1) %ref.tmp247)
          to label %invoke.cont248 unwind label %lpad

invoke.cont248:                                   ; preds = %invoke.cont246
  %json_249 = getelementptr inbounds %"class.facebook::hermes::tracing::SynthTrace", ptr %this1, i32 0, i32 1
  %call250 = call noundef ptr @_ZNKSt10unique_ptrIN6hermes11JSONEmitterESt14default_deleteIS1_EEptEv(ptr noundef nonnull align 8 dereferenceable(8) %json_249) #13
  store ptr %agg.tmp251, ptr %this.addr.i526, align 8
  store ptr @.str.26, ptr %Str.addr.i527, align 8
  %this1.i528 = load ptr, ptr %this.addr.i526, align 8
  %199 = load ptr, ptr %Str.addr.i527, align 8
  store ptr %199, ptr %this1.i528, align 8
  %Length.i529 = getelementptr inbounds %"class.llvh::StringRef", ptr %this1.i528, i32 0, i32 1
  %200 = load ptr, ptr %Str.addr.i527, align 8
  %tobool.i530 = icmp ne ptr %200, null
  br i1 %tobool.i530, label %cond.true.i533, label %cond.false.i531

cond.true.i533:                                   ; preds = %invoke.cont248
  %201 = load ptr, ptr %Str.addr.i527, align 8
  %call.i534 = call i64 @strlen(ptr noundef %201) #14
  br label %_ZN4llvh9StringRefC2EPKc.exit535

cond.false.i531:                                  ; preds = %invoke.cont248
  br label %_ZN4llvh9StringRefC2EPKc.exit535

_ZN4llvh9StringRefC2EPKc.exit535:                 ; preds = %cond.false.i531, %cond.true.i533
  %cond.i532 = phi i64 [ %call.i534, %cond.true.i533 ], [ 0, %cond.false.i531 ]
  store i64 %cond.i532, ptr %Length.i529, align 8
  br label %invoke.cont252

invoke.cont252:                                   ; preds = %_ZN4llvh9StringRefC2EPKc.exit535
  store i8 0, ptr %ref.tmp253, align 1
  %202 = getelementptr inbounds { ptr, i64 }, ptr %agg.tmp251, i32 0, i32 0
  %203 = load ptr, ptr %202, align 8
  %204 = getelementptr inbounds { ptr, i64 }, ptr %agg.tmp251, i32 0, i32 1
  %205 = load i64, ptr %204, align 8
  invoke void @_ZN6hermes11JSONEmitter12emitKeyValueIbEEvN4llvh9StringRefERKT_(ptr noundef nonnull align 8 dereferenceable(72) %call250, ptr %203, i64 %205, ptr noundef nonnull align 1 dereferenceable(1) %ref.tmp253)
          to label %invoke.cont254 unwind label %lpad

invoke.cont254:                                   ; preds = %invoke.cont252
  %json_255 = getelementptr inbounds %"class.facebook::hermes::tracing::SynthTrace", ptr %this1, i32 0, i32 1
  %call256 = call noundef ptr @_ZNKSt10unique_ptrIN6hermes11JSONEmitterESt14default_deleteIS1_EEptEv(ptr noundef nonnull align 8 dereferenceable(8) %json_255) #13
  store ptr %agg.tmp257, ptr %this.addr.i536, align 8
  store ptr @.str.27, ptr %Str.addr.i537, align 8
  %this1.i538 = load ptr, ptr %this.addr.i536, align 8
  %206 = load ptr, ptr %Str.addr.i537, align 8
  store ptr %206, ptr %this1.i538, align 8
  %Length.i539 = getelementptr inbounds %"class.llvh::StringRef", ptr %this1.i538, i32 0, i32 1
  %207 = load ptr, ptr %Str.addr.i537, align 8
  %tobool.i540 = icmp ne ptr %207, null
  br i1 %tobool.i540, label %cond.true.i543, label %cond.false.i541

cond.true.i543:                                   ; preds = %invoke.cont254
  %208 = load ptr, ptr %Str.addr.i537, align 8
  %call.i544 = call i64 @strlen(ptr noundef %208) #14
  br label %_ZN4llvh9StringRefC2EPKc.exit545

cond.false.i541:                                  ; preds = %invoke.cont254
  br label %_ZN4llvh9StringRefC2EPKc.exit545

_ZN4llvh9StringRefC2EPKc.exit545:                 ; preds = %cond.false.i541, %cond.true.i543
  %cond.i542 = phi i64 [ %call.i544, %cond.true.i543 ], [ 0, %cond.false.i541 ]
  store i64 %cond.i542, ptr %Length.i539, align 8
  br label %invoke.cont258

invoke.cont258:                                   ; preds = %_ZN4llvh9StringRefC2EPKc.exit545
  store i64 48, ptr %ref.tmp259, align 8
  %209 = getelementptr inbounds { ptr, i64 }, ptr %agg.tmp257, i32 0, i32 0
  %210 = load ptr, ptr %209, align 8
  %211 = getelementptr inbounds { ptr, i64 }, ptr %agg.tmp257, i32 0, i32 1
  %212 = load i64, ptr %211, align 8
  invoke void @_ZN6hermes11JSONEmitter12emitKeyValueImEEvN4llvh9StringRefERKT_(ptr noundef nonnull align 8 dereferenceable(72) %call256, ptr %210, i64 %212, ptr noundef nonnull align 8 dereferenceable(8) %ref.tmp259)
          to label %invoke.cont260 unwind label %lpad

invoke.cont260:                                   ; preds = %invoke.cont258
  %json_261 = getelementptr inbounds %"class.facebook::hermes::tracing::SynthTrace", ptr %this1, i32 0, i32 1
  %call262 = call noundef ptr @_ZNKSt10unique_ptrIN6hermes11JSONEmitterESt14default_deleteIS1_EEptEv(ptr noundef nonnull align 8 dereferenceable(8) %json_261) #13
  invoke void @_ZN6hermes11JSONEmitter9closeDictEv(ptr noundef nonnull align 8 dereferenceable(72) %call262)
          to label %invoke.cont263 unwind label %lpad

invoke.cont263:                                   ; preds = %invoke.cont260
  %json_264 = getelementptr inbounds %"class.facebook::hermes::tracing::SynthTrace", ptr %this1, i32 0, i32 1
  %call265 = call noundef ptr @_ZNKSt10unique_ptrIN6hermes11JSONEmitterESt14default_deleteIS1_EEptEv(ptr noundef nonnull align 8 dereferenceable(8) %json_264) #13
  store ptr %agg.tmp266, ptr %this.addr.i546, align 8
  store ptr @.str.28, ptr %Str.addr.i547, align 8
  %this1.i548 = load ptr, ptr %this.addr.i546, align 8
  %213 = load ptr, ptr %Str.addr.i547, align 8
  store ptr %213, ptr %this1.i548, align 8
  %Length.i549 = getelementptr inbounds %"class.llvh::StringRef", ptr %this1.i548, i32 0, i32 1
  %214 = load ptr, ptr %Str.addr.i547, align 8
  %tobool.i550 = icmp ne ptr %214, null
  br i1 %tobool.i550, label %cond.true.i553, label %cond.false.i551

cond.true.i553:                                   ; preds = %invoke.cont263
  %215 = load ptr, ptr %Str.addr.i547, align 8
  %call.i554 = call i64 @strlen(ptr noundef %215) #14
  br label %_ZN4llvh9StringRefC2EPKc.exit555

cond.false.i551:                                  ; preds = %invoke.cont263
  br label %_ZN4llvh9StringRefC2EPKc.exit555

_ZN4llvh9StringRefC2EPKc.exit555:                 ; preds = %cond.false.i551, %cond.true.i553
  %cond.i552 = phi i64 [ %call.i554, %cond.true.i553 ], [ 0, %cond.false.i551 ]
  store i64 %cond.i552, ptr %Length.i549, align 8
  br label %invoke.cont267

invoke.cont267:                                   ; preds = %_ZN4llvh9StringRefC2EPKc.exit555
  %216 = getelementptr inbounds { ptr, i64 }, ptr %agg.tmp266, i32 0, i32 0
  %217 = load ptr, ptr %216, align 8
  %218 = getelementptr inbounds { ptr, i64 }, ptr %agg.tmp266, i32 0, i32 1
  %219 = load i64, ptr %218, align 8
  invoke void @_ZN6hermes11JSONEmitter7emitKeyEN4llvh9StringRefE(ptr noundef nonnull align 8 dereferenceable(72) %call265, ptr %217, i64 %219)
          to label %invoke.cont268 unwind label %lpad

invoke.cont268:                                   ; preds = %invoke.cont267
  %json_269 = getelementptr inbounds %"class.facebook::hermes::tracing::SynthTrace", ptr %this1, i32 0, i32 1
  %call270 = call noundef ptr @_ZNKSt10unique_ptrIN6hermes11JSONEmitterESt14default_deleteIS1_EEptEv(ptr noundef nonnull align 8 dereferenceable(8) %json_269) #13
  invoke void @_ZN6hermes11JSONEmitter9openArrayEv(ptr noundef nonnull align 8 dereferenceable(72) %call270)
          to label %invoke.cont271 unwind label %lpad

invoke.cont271:                                   ; preds = %invoke.cont268
  br label %if.end

lpad:                                             ; preds = %invoke.cont268, %invoke.cont267, %invoke.cont260, %invoke.cont258, %invoke.cont252, %invoke.cont246, %invoke.cont240, %invoke.cont234, %invoke.cont228, %invoke.cont222, %invoke.cont215, %invoke.cont214, %invoke.cont207, %invoke.cont205, %invoke.cont203, %invoke.cont196, %invoke.cont194, %invoke.cont187, %invoke.cont185, %invoke.cont178, %invoke.cont176, %invoke.cont169, %invoke.cont167, %invoke.cont160, %invoke.cont158, %invoke.cont152, %invoke.cont150, %invoke.cont142, %invoke.cont134, %invoke.cont122, %invoke.cont111, %invoke.cont98, %invoke.cont87, %invoke.cont76, %invoke.cont65, %invoke.cont54, %invoke.cont43, %invoke.cont36, %invoke.cont35, %invoke.cont28, %invoke.cont27, %invoke.cont21, %invoke.cont15, %invoke.cont13, %invoke.cont, %if.then
  %220 = landingpad { ptr, i32 }
          cleanup
  %221 = extractvalue { ptr, i32 } %220, 0
  store ptr %221, ptr %exn.slot, align 8
  %222 = extractvalue { ptr, i32 } %220, 1
  store i32 %222, ptr %ehselector.slot, align 4
  br label %ehcleanup272

lpad47:                                           ; preds = %invoke.cont48, %invoke.cont46
  %223 = landingpad { ptr, i32 }
          cleanup
  %224 = extractvalue { ptr, i32 } %223, 0
  store ptr %224, ptr %exn.slot, align 8
  %225 = extractvalue { ptr, i32 } %223, 1
  store i32 %225, ptr %ehselector.slot, align 4
  call void @_ZN6hermes2vm8GCConfigD2Ev(ptr noundef nonnull align 8 dereferenceable(200) %ref.tmp45) #13
  br label %ehcleanup272

lpad58:                                           ; preds = %invoke.cont59, %invoke.cont57
  %226 = landingpad { ptr, i32 }
          cleanup
  %227 = extractvalue { ptr, i32 } %226, 0
  store ptr %227, ptr %exn.slot, align 8
  %228 = extractvalue { ptr, i32 } %226, 1
  store i32 %228, ptr %ehselector.slot, align 4
  call void @_ZN6hermes2vm8GCConfigD2Ev(ptr noundef nonnull align 8 dereferenceable(200) %ref.tmp56) #13
  br label %ehcleanup272

lpad69:                                           ; preds = %invoke.cont70, %invoke.cont68
  %229 = landingpad { ptr, i32 }
          cleanup
  %230 = extractvalue { ptr, i32 } %229, 0
  store ptr %230, ptr %exn.slot, align 8
  %231 = extractvalue { ptr, i32 } %229, 1
  store i32 %231, ptr %ehselector.slot, align 4
  call void @_ZN6hermes2vm8GCConfigD2Ev(ptr noundef nonnull align 8 dereferenceable(200) %ref.tmp67) #13
  br label %ehcleanup272

lpad80:                                           ; preds = %invoke.cont81, %invoke.cont79
  %232 = landingpad { ptr, i32 }
          cleanup
  %233 = extractvalue { ptr, i32 } %232, 0
  store ptr %233, ptr %exn.slot, align 8
  %234 = extractvalue { ptr, i32 } %232, 1
  store i32 %234, ptr %ehselector.slot, align 4
  call void @_ZN6hermes2vm8GCConfigD2Ev(ptr noundef nonnull align 8 dereferenceable(200) %ref.tmp78) #13
  br label %ehcleanup272

lpad91:                                           ; preds = %invoke.cont92, %invoke.cont90
  %235 = landingpad { ptr, i32 }
          cleanup
  %236 = extractvalue { ptr, i32 } %235, 0
  store ptr %236, ptr %exn.slot, align 8
  %237 = extractvalue { ptr, i32 } %235, 1
  store i32 %237, ptr %ehselector.slot, align 4
  call void @_ZN6hermes2vm8GCConfigD2Ev(ptr noundef nonnull align 8 dereferenceable(200) %ref.tmp89) #13
  br label %ehcleanup272

lpad102:                                          ; preds = %invoke.cont105, %invoke.cont103, %invoke.cont101
  %238 = landingpad { ptr, i32 }
          cleanup
  %239 = extractvalue { ptr, i32 } %238, 0
  store ptr %239, ptr %exn.slot, align 8
  %240 = extractvalue { ptr, i32 } %238, 1
  store i32 %240, ptr %ehselector.slot, align 4
  call void @_ZN6hermes2vm8GCConfigD2Ev(ptr noundef nonnull align 8 dereferenceable(200) %ref.tmp100) #13
  br label %ehcleanup272

lpad115:                                          ; preds = %invoke.cont114
  %241 = landingpad { ptr, i32 }
          cleanup
  %242 = extractvalue { ptr, i32 } %241, 0
  store ptr %242, ptr %exn.slot, align 8
  %243 = extractvalue { ptr, i32 } %241, 1
  store i32 %243, ptr %ehselector.slot, align 4
  br label %ehcleanup

lpad117:                                          ; preds = %invoke.cont116
  %244 = landingpad { ptr, i32 }
          cleanup
  %245 = extractvalue { ptr, i32 } %244, 0
  store ptr %245, ptr %exn.slot, align 8
  %246 = extractvalue { ptr, i32 } %244, 1
  store i32 %246, ptr %ehselector.slot, align 4
  call void @_ZNSt7__cxx1112basic_stringIcSt11char_traitsIcESaIcEED1Ev(ptr noundef nonnull align 8 dereferenceable(32) %ref.tmp112) #13
  br label %ehcleanup

ehcleanup:                                        ; preds = %lpad117, %lpad115
  call void @_ZN6hermes2vm8GCConfigD2Ev(ptr noundef nonnull align 8 dereferenceable(200) %ref.tmp113) #13
  br label %ehcleanup272

lpad126:                                          ; preds = %invoke.cont127, %invoke.cont125
  %247 = landingpad { ptr, i32 }
          cleanup
  %248 = extractvalue { ptr, i32 } %247, 0
  store ptr %248, ptr %exn.slot, align 8
  %249 = extractvalue { ptr, i32 } %247, 1
  store i32 %249, ptr %ehselector.slot, align 4
  call void @_ZN6hermes2vm8GCConfigD2Ev(ptr noundef nonnull align 8 dereferenceable(200) %ref.tmp124) #13
  br label %ehcleanup272

lpad138:                                          ; preds = %invoke.cont139, %invoke.cont137
  %250 = landingpad { ptr, i32 }
          cleanup
  %251 = extractvalue { ptr, i32 } %250, 0
  store ptr %251, ptr %exn.slot, align 8
  %252 = extractvalue { ptr, i32 } %250, 1
  store i32 %252, ptr %ehselector.slot, align 4
  call void @_ZN6hermes2vm8GCConfigD2Ev(ptr noundef nonnull align 8 dereferenceable(200) %ref.tmp136) #13
  br label %ehcleanup272

if.end:                                           ; preds = %invoke.cont271, %entry
  ret void

ehcleanup272:                                     ; preds = %lpad138, %lpad126, %ehcleanup, %lpad102, %lpad91, %lpad80, %lpad69, %lpad58, %lpad47, %lpad
  call void @_ZNSt6vectorISt10unique_ptrIN8facebook6hermes7tracing10SynthTrace6RecordESt14default_deleteIS5_EESaIS8_EED2Ev(ptr noundef nonnull align 8 dereferenceable(24) %records_) #13
  call void @_ZNSt10unique_ptrIN6hermes11JSONEmitterESt14default_deleteIS1_EED2Ev(ptr noundef nonnull align 8 dereferenceable(8) %json_) #13
  call void @_ZNSt10unique_ptrIN4llvh11raw_ostreamESt14default_deleteIS1_EED2Ev(ptr noundef nonnull align 8 dereferenceable(8) %traceStream_) #13
  br label %eh.resume

eh.resume:                                        ; preds = %ehcleanup272
  %exn = load ptr, ptr %exn.slot, align 8
  %sel = load i32, ptr %ehselector.slot, align 4
  %lpad.val = insertvalue { ptr, i32 } poison, ptr %exn, 0
  %lpad.val275 = insertvalue { ptr, i32 } %lpad.val, i32 %sel, 1
  resume { ptr, i32 } %lpad.val275
}

; Function Attrs: mustprogress nounwind uwtable
define linkonce_odr hidden void @_ZNSt10unique_ptrIN4llvh11raw_ostreamESt14default_deleteIS1_EEC2EOS4_(ptr noundef nonnull align 8 dereferenceable(8) %this, ptr noundef nonnull align 8 dereferenceable(8) %0) unnamed_addr #0 comdat align 2 {
entry:
  %this.addr = alloca ptr, align 8
  %.addr = alloca ptr, align 8
  store ptr %this, ptr %this.addr, align 8
  store ptr %0, ptr %.addr, align 8
  %this1 = load ptr, ptr %this.addr, align 8
  %_M_t = getelementptr inbounds %"class.std::unique_ptr", ptr %this1, i32 0, i32 0
  %1 = load ptr, ptr %.addr, align 8
  %_M_t2 = getelementptr inbounds %"class.std::unique_ptr", ptr %1, i32 0, i32 0
  call void @_ZNSt15__uniq_ptr_dataIN4llvh11raw_ostreamESt14default_deleteIS1_ELb1ELb1EEC2EOS4_(ptr noundef nonnull align 8 dereferenceable(8) %_M_t, ptr noundef nonnull align 8 dereferenceable(8) %_M_t2) #13
  ret void
}

; Function Attrs: mustprogress nounwind uwtable
define linkonce_odr hidden void @_ZNSt10unique_ptrIN6hermes11JSONEmitterESt14default_deleteIS1_EEC2IS3_vEEv(ptr noundef nonnull align 8 dereferenceable(8) %this) unnamed_addr #0 comdat align 2 {
entry:
  %this.addr = alloca ptr, align 8
  store ptr %this, ptr %this.addr, align 8
  %this1 = load ptr, ptr %this.addr, align 8
  %_M_t = getelementptr inbounds %"class.std::unique_ptr.2", ptr %this1, i32 0, i32 0
  call void @llvm.memset.p0.i64(ptr align 8 %_M_t, i8 0, i64 8, i1 false)
  call void @_ZNSt15__uniq_ptr_dataIN6hermes11JSONEmitterESt14default_deleteIS1_ELb1ELb1EEC2Ev(ptr noundef nonnull align 8 dereferenceable(8) %_M_t) #13
  ret void
}

; Function Attrs: mustprogress nounwind uwtable
define linkonce_odr hidden void @_ZNSt6vectorISt10unique_ptrIN8facebook6hermes7tracing10SynthTrace6RecordESt14default_deleteIS5_EESaIS8_EEC2Ev(ptr noundef nonnull align 8 dereferenceable(24) %this) unnamed_addr #0 comdat align 2 {
entry:
  %this.addr = alloca ptr, align 8
  store ptr %this, ptr %this.addr, align 8
  %this1 = load ptr, ptr %this.addr, align 8
  call void @_ZNSt12_Vector_baseISt10unique_ptrIN8facebook6hermes7tracing10SynthTrace6RecordESt14default_deleteIS5_EESaIS8_EEC2Ev(ptr noundef nonnull align 8 dereferenceable(24) %this1) #13
  ret void
}

; Function Attrs: mustprogress nounwind uwtable
define linkonce_odr hidden noundef zeroext i1 @_ZNKSt10unique_ptrIN4llvh11raw_ostreamESt14default_deleteIS1_EEcvbEv(ptr noundef nonnull align 8 dereferenceable(8) %this) #0 comdat align 2 {
entry:
  %this.addr = alloca ptr, align 8
  store ptr %this, ptr %this.addr, align 8
  %this1 = load ptr, ptr %this.addr, align 8
  %call = call noundef ptr @_ZNKSt10unique_ptrIN4llvh11raw_ostreamESt14default_deleteIS1_EE3getEv(ptr noundef nonnull align 8 dereferenceable(8) %this1) #13
  %cmp = icmp eq ptr %call, null
  %cond = select i1 %cmp, i1 false, i1 true
  ret i1 %cond
}

; Function Attrs: mustprogress uwtable
define linkonce_odr hidden void @_ZSt11make_uniqueIN6hermes11JSONEmitterEJRN4llvh11raw_ostreamEbEENSt8__detail9_MakeUniqIT_E15__single_objectEDpOT0_(ptr noalias sret(%"class.std::unique_ptr.2") align 8 %agg.result, ptr noundef nonnull align 8 dereferenceable(36) %__args, ptr noundef nonnull align 1 dereferenceable(1) %__args1) #1 comdat personality ptr @__gxx_personality_v0 {
entry:
  %result.ptr = alloca ptr, align 8
  %__args.addr = alloca ptr, align 8
  %__args.addr2 = alloca ptr, align 8
  %exn.slot = alloca ptr, align 8
  %ehselector.slot = alloca i32, align 4
  store ptr %agg.result, ptr %result.ptr, align 8
  store ptr %__args, ptr %__args.addr, align 8
  store ptr %__args1, ptr %__args.addr2, align 8
  %call = call noalias noundef nonnull ptr @_Znwm(i64 noundef 72) #15
  %0 = load ptr, ptr %__args.addr, align 8
  %1 = load ptr, ptr %__args.addr2, align 8
  %2 = load i8, ptr %1, align 1
  %tobool = trunc i8 %2 to i1
  invoke void @_ZN6hermes11JSONEmitterC2ERN4llvh11raw_ostreamEb(ptr noundef nonnull align 8 dereferenceable(72) %call, ptr noundef nonnull align 8 dereferenceable(36) %0, i1 noundef zeroext %tobool)
          to label %invoke.cont unwind label %lpad

invoke.cont:                                      ; preds = %entry
  call void @_ZNSt10unique_ptrIN6hermes11JSONEmitterESt14default_deleteIS1_EEC2IS3_vEEPS1_(ptr noundef nonnull align 8 dereferenceable(8) %agg.result, ptr noundef %call) #13
  ret void

lpad:                                             ; preds = %entry
  %3 = landingpad { ptr, i32 }
          cleanup
  %4 = extractvalue { ptr, i32 } %3, 0
  store ptr %4, ptr %exn.slot, align 8
  %5 = extractvalue { ptr, i32 } %3, 1
  store i32 %5, ptr %ehselector.slot, align 4
  call void @_ZdlPv(ptr noundef %call) #16
  br label %eh.resume

eh.resume:                                        ; preds = %lpad
  %exn = load ptr, ptr %exn.slot, align 8
  %sel = load i32, ptr %ehselector.slot, align 4
  %lpad.val = insertvalue { ptr, i32 } poison, ptr %exn, 0
  %lpad.val3 = insertvalue { ptr, i32 } %lpad.val, i32 %sel, 1
  resume { ptr, i32 } %lpad.val3
}

; Function Attrs: mustprogress nounwind uwtable
define linkonce_odr hidden noundef nonnull align 8 dereferenceable(36) ptr @_ZNKSt10unique_ptrIN4llvh11raw_ostreamESt14default_deleteIS1_EEdeEv(ptr noundef nonnull align 8 dereferenceable(8) %this) #0 comdat align 2 {
entry:
  %this.addr = alloca ptr, align 8
  store ptr %this, ptr %this.addr, align 8
  %this1 = load ptr, ptr %this.addr, align 8
  br label %do.body

do.body:                                          ; preds = %entry
  br label %do.cond

do.cond:                                          ; preds = %do.body
  br label %do.end

do.end:                                           ; preds = %do.cond
  %call = call noundef ptr @_ZNKSt10unique_ptrIN4llvh11raw_ostreamESt14default_deleteIS1_EE3getEv(ptr noundef nonnull align 8 dereferenceable(8) %this1) #13
  ret ptr %call
}

declare i32 @__gxx_personality_v0(...)

; Function Attrs: mustprogress nounwind uwtable
define linkonce_odr hidden noundef nonnull align 8 dereferenceable(8) ptr @_ZNSt10unique_ptrIN6hermes11JSONEmitterESt14default_deleteIS1_EEaSEOS4_(ptr noundef nonnull align 8 dereferenceable(8) %this, ptr noundef nonnull align 8 dereferenceable(8) %0) #0 comdat align 2 {
entry:
  %this.addr = alloca ptr, align 8
  %.addr = alloca ptr, align 8
  store ptr %this, ptr %this.addr, align 8
  store ptr %0, ptr %.addr, align 8
  %this1 = load ptr, ptr %this.addr, align 8
  %_M_t = getelementptr inbounds %"class.std::unique_ptr.2", ptr %this1, i32 0, i32 0
  %1 = load ptr, ptr %.addr, align 8
  %_M_t2 = getelementptr inbounds %"class.std::unique_ptr.2", ptr %1, i32 0, i32 0
  %call = call noundef nonnull align 8 dereferenceable(8) ptr @_ZNSt15__uniq_ptr_dataIN6hermes11JSONEmitterESt14default_deleteIS1_ELb1ELb1EEaSEOS4_(ptr noundef nonnull align 8 dereferenceable(8) %_M_t, ptr noundef nonnull align 8 dereferenceable(8) %_M_t2) #13
  ret ptr %this1
}

; Function Attrs: mustprogress nounwind uwtable
define linkonce_odr hidden void @_ZNSt10unique_ptrIN6hermes11JSONEmitterESt14default_deleteIS1_EED2Ev(ptr noundef nonnull align 8 dereferenceable(8) %this) unnamed_addr #0 comdat align 2 {
entry:
  %this.addr = alloca ptr, align 8
  %__ptr = alloca ptr, align 8
  store ptr %this, ptr %this.addr, align 8
  %this1 = load ptr, ptr %this.addr, align 8
  %_M_t = getelementptr inbounds %"class.std::unique_ptr.2", ptr %this1, i32 0, i32 0
  %call = call noundef nonnull align 8 dereferenceable(8) ptr @_ZNSt15__uniq_ptr_implIN6hermes11JSONEmitterESt14default_deleteIS1_EE6_M_ptrEv(ptr noundef nonnull align 8 dereferenceable(8) %_M_t) #13
  store ptr %call, ptr %__ptr, align 8
  %0 = load ptr, ptr %__ptr, align 8
  %1 = load ptr, ptr %0, align 8
  %cmp = icmp ne ptr %1, null
  br i1 %cmp, label %if.then, label %if.end

if.then:                                          ; preds = %entry
  %call2 = call noundef nonnull align 1 dereferenceable(1) ptr @_ZNSt10unique_ptrIN6hermes11JSONEmitterESt14default_deleteIS1_EE11get_deleterEv(ptr noundef nonnull align 8 dereferenceable(8) %this1) #13
  %2 = load ptr, ptr %__ptr, align 8
  %3 = load ptr, ptr %2, align 8
  call void @_ZNKSt14default_deleteIN6hermes11JSONEmitterEEclEPS1_(ptr noundef nonnull align 1 dereferenceable(1) %call2, ptr noundef %3)
  br label %if.end

if.end:                                           ; preds = %if.then, %entry
  %4 = load ptr, ptr %__ptr, align 8
  store ptr null, ptr %4, align 8
  ret void
}

; Function Attrs: mustprogress nounwind uwtable
define linkonce_odr hidden noundef ptr @_ZNKSt10unique_ptrIN6hermes11JSONEmitterESt14default_deleteIS1_EEptEv(ptr noundef nonnull align 8 dereferenceable(8) %this) #0 comdat align 2 {
entry:
  %this.addr = alloca ptr, align 8
  store ptr %this, ptr %this.addr, align 8
  %this1 = load ptr, ptr %this.addr, align 8
  %call = call noundef ptr @_ZNKSt10unique_ptrIN6hermes11JSONEmitterESt14default_deleteIS1_EE3getEv(ptr noundef nonnull align 8 dereferenceable(8) %this1) #13
  ret ptr %call
}

declare void @_ZN6hermes11JSONEmitter8openDictEv(ptr noundef nonnull align 8 dereferenceable(72)) #2

; Function Attrs: mustprogress uwtable
define linkonce_odr hidden void @_ZN6hermes11JSONEmitter12emitKeyValueIjEEvN4llvh9StringRefERKT_(ptr noundef nonnull align 8 dereferenceable(72) %this, ptr %key.coerce0, i64 %key.coerce1, ptr noundef nonnull align 4 dereferenceable(4) %val) #1 comdat align 2 {
entry:
  %key = alloca %"class.llvh::StringRef", align 8
  %this.addr = alloca ptr, align 8
  %val.addr = alloca ptr, align 8
  %agg.tmp = alloca %"class.llvh::StringRef", align 8
  %0 = getelementptr inbounds { ptr, i64 }, ptr %key, i32 0, i32 0
  store ptr %key.coerce0, ptr %0, align 8
  %1 = getelementptr inbounds { ptr, i64 }, ptr %key, i32 0, i32 1
  store i64 %key.coerce1, ptr %1, align 8
  store ptr %this, ptr %this.addr, align 8
  store ptr %val, ptr %val.addr, align 8
  %this1 = load ptr, ptr %this.addr, align 8
  call void @llvm.memcpy.p0.p0.i64(ptr align 8 %agg.tmp, ptr align 8 %key, i64 16, i1 false)
  %2 = getelementptr inbounds { ptr, i64 }, ptr %agg.tmp, i32 0, i32 0
  %3 = load ptr, ptr %2, align 8
  %4 = getelementptr inbounds { ptr, i64 }, ptr %agg.tmp, i32 0, i32 1
  %5 = load i64, ptr %4, align 8
  call void @_ZN6hermes11JSONEmitter7emitKeyEN4llvh9StringRefE(ptr noundef nonnull align 8 dereferenceable(72) %this1, ptr %3, i64 %5)
  %6 = load ptr, ptr %val.addr, align 8
  %7 = load i32, ptr %6, align 4
  call void @_ZN6hermes11JSONEmitter9emitValueEj(ptr noundef nonnull align 8 dereferenceable(72) %this1, i32 noundef %7)
  ret void
}

; Function Attrs: mustprogress nounwind uwtable
define linkonce_odr hidden noundef i32 @_ZN8facebook6hermes7tracing10SynthTrace12synthVersionEv() #0 comdat align 2 {
entry:
  ret i32 4
}

; Function Attrs: mustprogress uwtable
define linkonce_odr hidden void @_ZN6hermes11JSONEmitter12emitKeyValueImEEvN4llvh9StringRefERKT_(ptr noundef nonnull align 8 dereferenceable(72) %this, ptr %key.coerce0, i64 %key.coerce1, ptr noundef nonnull align 8 dereferenceable(8) %val) #1 comdat align 2 {
entry:
  %key = alloca %"class.llvh::StringRef", align 8
  %this.addr = alloca ptr, align 8
  %val.addr = alloca ptr, align 8
  %agg.tmp = alloca %"class.llvh::StringRef", align 8
  %0 = getelementptr inbounds { ptr, i64 }, ptr %key, i32 0, i32 0
  store ptr %key.coerce0, ptr %0, align 8
  %1 = getelementptr inbounds { ptr, i64 }, ptr %key, i32 0, i32 1
  store i64 %key.coerce1, ptr %1, align 8
  store ptr %this, ptr %this.addr, align 8
  store ptr %val, ptr %val.addr, align 8
  %this1 = load ptr, ptr %this.addr, align 8
  call void @llvm.memcpy.p0.p0.i64(ptr align 8 %agg.tmp, ptr align 8 %key, i64 16, i1 false)
  %2 = getelementptr inbounds { ptr, i64 }, ptr %agg.tmp, i32 0, i32 0
  %3 = load ptr, ptr %2, align 8
  %4 = getelementptr inbounds { ptr, i64 }, ptr %agg.tmp, i32 0, i32 1
  %5 = load i64, ptr %4, align 8
  call void @_ZN6hermes11JSONEmitter7emitKeyEN4llvh9StringRefE(ptr noundef nonnull align 8 dereferenceable(72) %this1, ptr %3, i64 %5)
  %6 = load ptr, ptr %val.addr, align 8
  %7 = load i64, ptr %6, align 8
  call void @_ZN6hermes11JSONEmitter9emitValueEm(ptr noundef nonnull align 8 dereferenceable(72) %this1, i64 noundef %7)
  ret void
}

declare void @_ZN6hermes11JSONEmitter7emitKeyEN4llvh9StringRefE(ptr noundef nonnull align 8 dereferenceable(72), ptr, i64) #2

; Function Attrs: mustprogress uwtable
define linkonce_odr hidden void @_ZNK6hermes2vm13RuntimeConfig11getGCConfigEv(ptr noalias sret(%"class.hermes::vm::GCConfig") align 8 %agg.result, ptr noundef nonnull align 8 dereferenceable(373) %this) #1 comdat align 2 {
entry:
  %result.ptr = alloca ptr, align 8
  %this.addr = alloca ptr, align 8
  store ptr %agg.result, ptr %result.ptr, align 8
  store ptr %this, ptr %this.addr, align 8
  %this1 = load ptr, ptr %this.addr, align 8
  %GCConfig_ = getelementptr inbounds %"class.hermes::vm::RuntimeConfig", ptr %this1, i32 0, i32 0
  call void @_ZN6hermes2vm8GCConfigC2ERKS1_(ptr noundef nonnull align 8 dereferenceable(200) %agg.result, ptr noundef nonnull align 8 dereferenceable(200) %GCConfig_)
  ret void
}

; Function Attrs: mustprogress nounwind uwtable
define linkonce_odr hidden noundef i32 @_ZNK6hermes2vm8GCConfig14getMinHeapSizeEv(ptr noundef nonnull align 8 dereferenceable(200) %this) #0 comdat align 2 {
entry:
  %this.addr = alloca ptr, align 8
  store ptr %this, ptr %this.addr, align 8
  %this1 = load ptr, ptr %this.addr, align 8
  %MinHeapSize_ = getelementptr inbounds %"class.hermes::vm::GCConfig", ptr %this1, i32 0, i32 0
  %0 = load i32, ptr %MinHeapSize_, align 8
  ret i32 %0
}

; Function Attrs: mustprogress nounwind uwtable
define linkonce_odr hidden void @_ZN6hermes2vm8GCConfigD2Ev(ptr noundef nonnull align 8 dereferenceable(200) %this) unnamed_addr #0 comdat align 2 {
entry:
  %this.addr = alloca ptr, align 8
  store ptr %this, ptr %this.addr, align 8
  %this1 = load ptr, ptr %this.addr, align 8
  %Callback_ = getelementptr inbounds %"class.hermes::vm::GCConfig", ptr %this1, i32 0, i32 15
  call void @_ZNSt8functionIFvN6hermes2vm11GCEventKindEPKcEED2Ev(ptr noundef nonnull align 8 dereferenceable(32) %Callback_) #13
  %AnalyticsCallback_ = getelementptr inbounds %"class.hermes::vm::GCConfig", ptr %this1, i32 0, i32 14
  call void @_ZNSt8functionIFvRKN6hermes2vm16GCAnalyticsEventEEED2Ev(ptr noundef nonnull align 8 dereferenceable(32) %AnalyticsCallback_) #13
  %TripwireConfig_ = getelementptr inbounds %"class.hermes::vm::GCConfig", ptr %this1, i32 0, i32 9
  call void @_ZN6hermes2vm16GCTripwireConfigD2Ev(ptr noundef nonnull align 8 dereferenceable(40) %TripwireConfig_) #13
  %Name_ = getelementptr inbounds %"class.hermes::vm::GCConfig", ptr %this1, i32 0, i32 8
  call void @_ZNSt7__cxx1112basic_stringIcSt11char_traitsIcESaIcEED1Ev(ptr noundef nonnull align 8 dereferenceable(32) %Name_) #13
  ret void
}

; Function Attrs: mustprogress nounwind uwtable
define linkonce_odr hidden noundef i32 @_ZNK6hermes2vm8GCConfig15getInitHeapSizeEv(ptr noundef nonnull align 8 dereferenceable(200) %this) #0 comdat align 2 {
entry:
  %this.addr = alloca ptr, align 8
  store ptr %this, ptr %this.addr, align 8
  %this1 = load ptr, ptr %this.addr, align 8
  %InitHeapSize_ = getelementptr inbounds %"class.hermes::vm::GCConfig", ptr %this1, i32 0, i32 1
  %0 = load i32, ptr %InitHeapSize_, align 4
  ret i32 %0
}

; Function Attrs: mustprogress nounwind uwtable
define linkonce_odr hidden noundef i32 @_ZNK6hermes2vm8GCConfig14getMaxHeapSizeEv(ptr noundef nonnull align 8 dereferenceable(200) %this) #0 comdat align 2 {
entry:
  %this.addr = alloca ptr, align 8
  store ptr %this, ptr %this.addr, align 8
  %this1 = load ptr, ptr %this.addr, align 8
  %MaxHeapSize_ = getelementptr inbounds %"class.hermes::vm::GCConfig", ptr %this1, i32 0, i32 2
  %0 = load i32, ptr %MaxHeapSize_, align 8
  ret i32 %0
}

; Function Attrs: mustprogress uwtable
define linkonce_odr hidden void @_ZN6hermes11JSONEmitter12emitKeyValueIdEEvN4llvh9StringRefERKT_(ptr noundef nonnull align 8 dereferenceable(72) %this, ptr %key.coerce0, i64 %key.coerce1, ptr noundef nonnull align 8 dereferenceable(8) %val) #1 comdat align 2 {
entry:
  %key = alloca %"class.llvh::StringRef", align 8
  %this.addr = alloca ptr, align 8
  %val.addr = alloca ptr, align 8
  %agg.tmp = alloca %"class.llvh::StringRef", align 8
  %0 = getelementptr inbounds { ptr, i64 }, ptr %key, i32 0, i32 0
  store ptr %key.coerce0, ptr %0, align 8
  %1 = getelementptr inbounds { ptr, i64 }, ptr %key, i32 0, i32 1
  store i64 %key.coerce1, ptr %1, align 8
  store ptr %this, ptr %this.addr, align 8
  store ptr %val, ptr %val.addr, align 8
  %this1 = load ptr, ptr %this.addr, align 8
  call void @llvm.memcpy.p0.p0.i64(ptr align 8 %agg.tmp, ptr align 8 %key, i64 16, i1 false)
  %2 = getelementptr inbounds { ptr, i64 }, ptr %agg.tmp, i32 0, i32 0
  %3 = load ptr, ptr %2, align 8
  %4 = getelementptr inbounds { ptr, i64 }, ptr %agg.tmp, i32 0, i32 1
  %5 = load i64, ptr %4, align 8
  call void @_ZN6hermes11JSONEmitter7emitKeyEN4llvh9StringRefE(ptr noundef nonnull align 8 dereferenceable(72) %this1, ptr %3, i64 %5)
  %6 = load ptr, ptr %val.addr, align 8
  %7 = load double, ptr %6, align 8
  call void @_ZN6hermes11JSONEmitter9emitValueEd(ptr noundef nonnull align 8 dereferenceable(72) %this1, double noundef %7)
  ret void
}

; Function Attrs: mustprogress nounwind uwtable
define linkonce_odr hidden noundef double @_ZNK6hermes2vm8GCConfig18getOccupancyTargetEv(ptr noundef nonnull align 8 dereferenceable(200) %this) #0 comdat align 2 {
entry:
  %this.addr = alloca ptr, align 8
  store ptr %this, ptr %this.addr, align 8
  %this1 = load ptr, ptr %this.addr, align 8
  %OccupancyTarget_ = getelementptr inbounds %"class.hermes::vm::GCConfig", ptr %this1, i32 0, i32 3
  %0 = load double, ptr %OccupancyTarget_, align 8
  ret double %0
}

; Function Attrs: mustprogress nounwind uwtable
define linkonce_odr hidden noundef i32 @_ZNK6hermes2vm8GCConfig24getEffectiveOOMThresholdEv(ptr noundef nonnull align 8 dereferenceable(200) %this) #0 comdat align 2 {
entry:
  %this.addr = alloca ptr, align 8
  store ptr %this, ptr %this.addr, align 8
  %this1 = load ptr, ptr %this.addr, align 8
  %EffectiveOOMThreshold_ = getelementptr inbounds %"class.hermes::vm::GCConfig", ptr %this1, i32 0, i32 4
  %0 = load i32, ptr %EffectiveOOMThreshold_, align 8
  ret i32 %0
}

; Function Attrs: mustprogress uwtable
define linkonce_odr hidden void @_ZN6hermes11JSONEmitter12emitKeyValueIPKcEEvN4llvh9StringRefERKT_(ptr noundef nonnull align 8 dereferenceable(72) %this, ptr %key.coerce0, i64 %key.coerce1, ptr noundef nonnull align 8 dereferenceable(8) %val) #1 comdat align 2 {
entry:
  %key = alloca %"class.llvh::StringRef", align 8
  %this.addr = alloca ptr, align 8
  %val.addr = alloca ptr, align 8
  %agg.tmp = alloca %"class.llvh::StringRef", align 8
  %0 = getelementptr inbounds { ptr, i64 }, ptr %key, i32 0, i32 0
  store ptr %key.coerce0, ptr %0, align 8
  %1 = getelementptr inbounds { ptr, i64 }, ptr %key, i32 0, i32 1
  store i64 %key.coerce1, ptr %1, align 8
  store ptr %this, ptr %this.addr, align 8
  store ptr %val, ptr %val.addr, align 8
  %this1 = load ptr, ptr %this.addr, align 8
  call void @llvm.memcpy.p0.p0.i64(ptr align 8 %agg.tmp, ptr align 8 %key, i64 16, i1 false)
  %2 = getelementptr inbounds { ptr, i64 }, ptr %agg.tmp, i32 0, i32 0
  %3 = load ptr, ptr %2, align 8
  %4 = getelementptr inbounds { ptr, i64 }, ptr %agg.tmp, i32 0, i32 1
  %5 = load i64, ptr %4, align 8
  call void @_ZN6hermes11JSONEmitter7emitKeyEN4llvh9StringRefE(ptr noundef nonnull align 8 dereferenceable(72) %this1, ptr %3, i64 %5)
  %6 = load ptr, ptr %val.addr, align 8
  %7 = load ptr, ptr %6, align 8
  call void @_ZN6hermes11JSONEmitter9emitValueEPKc(ptr noundef nonnull align 8 dereferenceable(72) %this1, ptr noundef %7)
  ret void
}

; Function Attrs: mustprogress nounwind uwtable
define hidden noundef ptr @_ZN8facebook6hermes7tracing10SynthTrace21nameFromReleaseUnusedEN6hermes2vm13ReleaseUnusedE(i32 noundef %ru) #0 align 2 {
entry:
  %retval = alloca ptr, align 8
  %ru.addr = alloca i32, align 4
  store i32 %ru, ptr %ru.addr, align 4
  %0 = load i32, ptr %ru.addr, align 4
  switch i32 %0, label %sw.default [
    i32 0, label %sw.bb
    i32 1, label %sw.bb1
    i32 2, label %sw.bb2
    i32 3, label %sw.bb3
  ]

sw.bb:                                            ; preds = %entry
  store ptr @.str.79, ptr %retval, align 8
  br label %return

sw.bb1:                                           ; preds = %entry
  store ptr @.str.80, ptr %retval, align 8
  br label %return

sw.bb2:                                           ; preds = %entry
  store ptr @.str.81, ptr %retval, align 8
  br label %return

sw.bb3:                                           ; preds = %entry
  store ptr @.str.82, ptr %retval, align 8
  br label %return

sw.default:                                       ; preds = %entry
  unreachable

return:                                           ; preds = %sw.bb3, %sw.bb2, %sw.bb1, %sw.bb
  %1 = load ptr, ptr %retval, align 8
  ret ptr %1
}

; Function Attrs: mustprogress nounwind uwtable
define linkonce_odr hidden noundef i32 @_ZNK6hermes2vm8GCConfig22getShouldReleaseUnusedEv(ptr noundef nonnull align 8 dereferenceable(200) %this) #0 comdat align 2 {
entry:
  %this.addr = alloca ptr, align 8
  store ptr %this, ptr %this.addr, align 8
  %this1 = load ptr, ptr %this.addr, align 8
  %ShouldReleaseUnused_ = getelementptr inbounds %"class.hermes::vm::GCConfig", ptr %this1, i32 0, i32 7
  %0 = load i32, ptr %ShouldReleaseUnused_, align 4
  ret i32 %0
}

; Function Attrs: mustprogress uwtable
define linkonce_odr hidden void @_ZN6hermes11JSONEmitter12emitKeyValueINSt7__cxx1112basic_stringIcSt11char_traitsIcESaIcEEEEEvN4llvh9StringRefERKT_(ptr noundef nonnull align 8 dereferenceable(72) %this, ptr %key.coerce0, i64 %key.coerce1, ptr noundef nonnull align 8 dereferenceable(32) %val) #1 comdat align 2 {
entry:
  %this.addr.i = alloca ptr, align 8
  %Str.addr.i = alloca ptr, align 8
  %key = alloca %"class.llvh::StringRef", align 8
  %this.addr = alloca ptr, align 8
  %val.addr = alloca ptr, align 8
  %agg.tmp = alloca %"class.llvh::StringRef", align 8
  %agg.tmp2 = alloca %"class.llvh::StringRef", align 8
  %0 = getelementptr inbounds { ptr, i64 }, ptr %key, i32 0, i32 0
  store ptr %key.coerce0, ptr %0, align 8
  %1 = getelementptr inbounds { ptr, i64 }, ptr %key, i32 0, i32 1
  store i64 %key.coerce1, ptr %1, align 8
  store ptr %this, ptr %this.addr, align 8
  store ptr %val, ptr %val.addr, align 8
  %this1 = load ptr, ptr %this.addr, align 8
  call void @llvm.memcpy.p0.p0.i64(ptr align 8 %agg.tmp, ptr align 8 %key, i64 16, i1 false)
  %2 = getelementptr inbounds { ptr, i64 }, ptr %agg.tmp, i32 0, i32 0
  %3 = load ptr, ptr %2, align 8
  %4 = getelementptr inbounds { ptr, i64 }, ptr %agg.tmp, i32 0, i32 1
  %5 = load i64, ptr %4, align 8
  call void @_ZN6hermes11JSONEmitter7emitKeyEN4llvh9StringRefE(ptr noundef nonnull align 8 dereferenceable(72) %this1, ptr %3, i64 %5)
  %6 = load ptr, ptr %val.addr, align 8
  store ptr %agg.tmp2, ptr %this.addr.i, align 8
  store ptr %6, ptr %Str.addr.i, align 8
  %this1.i = load ptr, ptr %this.addr.i, align 8
  %7 = load ptr, ptr %Str.addr.i, align 8
  %call.i = call noundef ptr @_ZNKSt7__cxx1112basic_stringIcSt11char_traitsIcESaIcEE4dataEv(ptr noundef nonnull align 8 dereferenceable(32) %7) #13
  store ptr %call.i, ptr %this1.i, align 8
  %Length.i = getelementptr inbounds %"class.llvh::StringRef", ptr %this1.i, i32 0, i32 1
  %8 = load ptr, ptr %Str.addr.i, align 8
  %call2.i = call noundef i64 @_ZNKSt7__cxx1112basic_stringIcSt11char_traitsIcESaIcEE6lengthEv(ptr noundef nonnull align 8 dereferenceable(32) %8) #13
  store i64 %call2.i, ptr %Length.i, align 8
  %9 = getelementptr inbounds { ptr, i64 }, ptr %agg.tmp2, i32 0, i32 0
  %10 = load ptr, ptr %9, align 8
  %11 = getelementptr inbounds { ptr, i64 }, ptr %agg.tmp2, i32 0, i32 1
  %12 = load i64, ptr %11, align 8
  call void @_ZN6hermes11JSONEmitter9emitValueEN4llvh9StringRefE(ptr noundef nonnull align 8 dereferenceable(72) %this1, ptr %10, i64 %12)
  ret void
}

; Function Attrs: mustprogress uwtable
define linkonce_odr hidden void @_ZNK6hermes2vm8GCConfig7getNameB5cxx11Ev(ptr noalias sret(%"class.std::__cxx11::basic_string") align 8 %agg.result, ptr noundef nonnull align 8 dereferenceable(200) %this) #1 comdat align 2 {
entry:
  %result.ptr = alloca ptr, align 8
  %this.addr = alloca ptr, align 8
  store ptr %agg.result, ptr %result.ptr, align 8
  store ptr %this, ptr %this.addr, align 8
  %this1 = load ptr, ptr %this.addr, align 8
  %Name_ = getelementptr inbounds %"class.hermes::vm::GCConfig", ptr %this1, i32 0, i32 8
  call void @_ZNSt7__cxx1112basic_stringIcSt11char_traitsIcESaIcEEC1ERKS4_(ptr noundef nonnull align 8 dereferenceable(32) %agg.result, ptr noundef nonnull align 8 dereferenceable(32) %Name_)
  ret void
}

; Function Attrs: nounwind
declare void @_ZNSt7__cxx1112basic_stringIcSt11char_traitsIcESaIcEED1Ev(ptr noundef nonnull align 8 dereferenceable(32)) unnamed_addr #3

; Function Attrs: mustprogress uwtable
define linkonce_odr hidden void @_ZN6hermes11JSONEmitter12emitKeyValueIbEEvN4llvh9StringRefERKT_(ptr noundef nonnull align 8 dereferenceable(72) %this, ptr %key.coerce0, i64 %key.coerce1, ptr noundef nonnull align 1 dereferenceable(1) %val) #1 comdat align 2 {
entry:
  %key = alloca %"class.llvh::StringRef", align 8
  %this.addr = alloca ptr, align 8
  %val.addr = alloca ptr, align 8
  %agg.tmp = alloca %"class.llvh::StringRef", align 8
  %0 = getelementptr inbounds { ptr, i64 }, ptr %key, i32 0, i32 0
  store ptr %key.coerce0, ptr %0, align 8
  %1 = getelementptr inbounds { ptr, i64 }, ptr %key, i32 0, i32 1
  store i64 %key.coerce1, ptr %1, align 8
  store ptr %this, ptr %this.addr, align 8
  store ptr %val, ptr %val.addr, align 8
  %this1 = load ptr, ptr %this.addr, align 8
  call void @llvm.memcpy.p0.p0.i64(ptr align 8 %agg.tmp, ptr align 8 %key, i64 16, i1 false)
  %2 = getelementptr inbounds { ptr, i64 }, ptr %agg.tmp, i32 0, i32 0
  %3 = load ptr, ptr %2, align 8
  %4 = getelementptr inbounds { ptr, i64 }, ptr %agg.tmp, i32 0, i32 1
  %5 = load i64, ptr %4, align 8
  call void @_ZN6hermes11JSONEmitter7emitKeyEN4llvh9StringRefE(ptr noundef nonnull align 8 dereferenceable(72) %this1, ptr %3, i64 %5)
  %6 = load ptr, ptr %val.addr, align 8
  %7 = load i8, ptr %6, align 1
  %tobool = trunc i8 %7 to i1
  call void @_ZN6hermes11JSONEmitter9emitValueEb(ptr noundef nonnull align 8 dereferenceable(72) %this1, i1 noundef zeroext %tobool)
  ret void
}

; Function Attrs: mustprogress nounwind uwtable
define linkonce_odr hidden noundef zeroext i1 @_ZNK6hermes2vm8GCConfig15getAllocInYoungEv(ptr noundef nonnull align 8 dereferenceable(200) %this) #0 comdat align 2 {
entry:
  %this.addr = alloca ptr, align 8
  store ptr %this, ptr %this.addr, align 8
  %this1 = load ptr, ptr %this.addr, align 8
  %AllocInYoung_ = getelementptr inbounds %"class.hermes::vm::GCConfig", ptr %this1, i32 0, i32 10
  %0 = load i8, ptr %AllocInYoung_, align 8
  %tobool = trunc i8 %0 to i1
  ret i1 %tobool
}

; Function Attrs: mustprogress nounwind uwtable
define linkonce_odr hidden noundef zeroext i1 @_ZNK6hermes2vm8GCConfig18getRevertToYGAtTTIEv(ptr noundef nonnull align 8 dereferenceable(200) %this) #0 comdat align 2 {
entry:
  %this.addr = alloca ptr, align 8
  store ptr %this, ptr %this.addr, align 8
  %this1 = load ptr, ptr %this.addr, align 8
  %RevertToYGAtTTI_ = getelementptr inbounds %"class.hermes::vm::GCConfig", ptr %this1, i32 0, i32 12
  %0 = load i8, ptr %RevertToYGAtTTI_, align 2
  %tobool = trunc i8 %0 to i1
  ret i1 %tobool
}

declare void @_ZN6hermes11JSONEmitter9closeDictEv(ptr noundef nonnull align 8 dereferenceable(72)) #2

; Function Attrs: mustprogress nounwind uwtable
define linkonce_odr hidden noundef i32 @_ZNK6hermes2vm13RuntimeConfig18getMaxNumRegistersEv(ptr noundef nonnull align 8 dereferenceable(373) %this) #0 comdat align 2 {
entry:
  %this.addr = alloca ptr, align 8
  store ptr %this, ptr %this.addr, align 8
  %this1 = load ptr, ptr %this.addr, align 8
  %MaxNumRegisters_ = getelementptr inbounds %"class.hermes::vm::RuntimeConfig", ptr %this1, i32 0, i32 2
  %0 = load i32, ptr %MaxNumRegisters_, align 8
  ret i32 %0
}

; Function Attrs: mustprogress nounwind uwtable
define linkonce_odr hidden noundef zeroext i1 @_ZNK6hermes2vm13RuntimeConfig13getES6PromiseEv(ptr noundef nonnull align 8 dereferenceable(373) %this) #0 comdat align 2 {
entry:
  %this.addr = alloca ptr, align 8
  store ptr %this, ptr %this.addr, align 8
  %this1 = load ptr, ptr %this.addr, align 8
  %ES6Promise_ = getelementptr inbounds %"class.hermes::vm::RuntimeConfig", ptr %this1, i32 0, i32 8
  %0 = load i8, ptr %ES6Promise_, align 4
  %tobool = trunc i8 %0 to i1
  ret i1 %tobool
}

; Function Attrs: mustprogress nounwind uwtable
define linkonce_odr hidden noundef zeroext i1 @_ZNK6hermes2vm13RuntimeConfig11getES6ProxyEv(ptr noundef nonnull align 8 dereferenceable(373) %this) #0 comdat align 2 {
entry:
  %this.addr = alloca ptr, align 8
  store ptr %this, ptr %this.addr, align 8
  %this1 = load ptr, ptr %this.addr, align 8
  %ES6Proxy_ = getelementptr inbounds %"class.hermes::vm::RuntimeConfig", ptr %this1, i32 0, i32 9
  %0 = load i8, ptr %ES6Proxy_, align 1
  %tobool = trunc i8 %0 to i1
  ret i1 %tobool
}

; Function Attrs: mustprogress nounwind uwtable
define linkonce_odr hidden noundef zeroext i1 @_ZNK6hermes2vm13RuntimeConfig7getIntlEv(ptr noundef nonnull align 8 dereferenceable(373) %this) #0 comdat align 2 {
entry:
  %this.addr = alloca ptr, align 8
  store ptr %this, ptr %this.addr, align 8
  %this1 = load ptr, ptr %this.addr, align 8
  %Intl_ = getelementptr inbounds %"class.hermes::vm::RuntimeConfig", ptr %this1, i32 0, i32 11
  %0 = load i8, ptr %Intl_, align 1
  %tobool = trunc i8 %0 to i1
  ret i1 %tobool
}

; Function Attrs: mustprogress nounwind uwtable
define linkonce_odr hidden noundef zeroext i1 @_ZNK6hermes2vm13RuntimeConfig17getMicrotaskQueueEv(ptr noundef nonnull align 8 dereferenceable(373) %this) #0 comdat align 2 {
entry:
  %this.addr = alloca ptr, align 8
  store ptr %this, ptr %this.addr, align 8
  %this1 = load ptr, ptr %this.addr, align 8
  %MicrotaskQueue_ = getelementptr inbounds %"class.hermes::vm::RuntimeConfig", ptr %this1, i32 0, i32 13
  %0 = load i8, ptr %MicrotaskQueue_, align 1
  %tobool = trunc i8 %0 to i1
  ret i1 %tobool
}

; Function Attrs: mustprogress nounwind uwtable
define linkonce_odr hidden noundef zeroext i1 @_ZNK6hermes2vm13RuntimeConfig21getEnableSampledStatsEv(ptr noundef nonnull align 8 dereferenceable(373) %this) #0 comdat align 2 {
entry:
  %this.addr = alloca ptr, align 8
  store ptr %this, ptr %this.addr, align 8
  %this1 = load ptr, ptr %this.addr, align 8
  %EnableSampledStats_ = getelementptr inbounds %"class.hermes::vm::RuntimeConfig", ptr %this1, i32 0, i32 19
  %0 = load i8, ptr %EnableSampledStats_, align 8
  %tobool = trunc i8 %0 to i1
  ret i1 %tobool
}

; Function Attrs: mustprogress nounwind uwtable
define linkonce_odr hidden noundef i32 @_ZNK6hermes2vm13RuntimeConfig20getVMExperimentFlagsEv(ptr noundef nonnull align 8 dereferenceable(373) %this) #0 comdat align 2 {
entry:
  %this.addr = alloca ptr, align 8
  store ptr %this, ptr %this.addr, align 8
  %this1 = load ptr, ptr %this.addr, align 8
  %VMExperimentFlags_ = getelementptr inbounds %"class.hermes::vm::RuntimeConfig", ptr %this1, i32 0, i32 32
  %0 = load i32, ptr %VMExperimentFlags_, align 8
  ret i32 %0
}

declare void @_ZN6hermes11JSONEmitter9openArrayEv(ptr noundef nonnull align 8 dereferenceable(72)) #2

; Function Attrs: mustprogress nounwind uwtable
define linkonce_odr hidden void @_ZNSt6vectorISt10unique_ptrIN8facebook6hermes7tracing10SynthTrace6RecordESt14default_deleteIS5_EESaIS8_EED2Ev(ptr noundef nonnull align 8 dereferenceable(24) %this) unnamed_addr #0 comdat align 2 personality ptr @__gxx_personality_v0 {
entry:
  %this.addr = alloca ptr, align 8
  store ptr %this, ptr %this.addr, align 8
  %this1 = load ptr, ptr %this.addr, align 8
  %_M_impl = getelementptr inbounds %"struct.std::_Vector_base", ptr %this1, i32 0, i32 0
  %_M_start = getelementptr inbounds %"struct.std::_Vector_base<std::unique_ptr<facebook::hermes::tracing::SynthTrace::Record>, std::allocator<std::unique_ptr<facebook::hermes::tracing::SynthTrace::Record>>>::_Vector_impl_data", ptr %_M_impl, i32 0, i32 0
  %0 = load ptr, ptr %_M_start, align 8
  %_M_impl2 = getelementptr inbounds %"struct.std::_Vector_base", ptr %this1, i32 0, i32 0
  %_M_finish = getelementptr inbounds %"struct.std::_Vector_base<std::unique_ptr<facebook::hermes::tracing::SynthTrace::Record>, std::allocator<std::unique_ptr<facebook::hermes::tracing::SynthTrace::Record>>>::_Vector_impl_data", ptr %_M_impl2, i32 0, i32 1
  %1 = load ptr, ptr %_M_finish, align 8
  %call = call noundef nonnull align 1 dereferenceable(1) ptr @_ZNSt12_Vector_baseISt10unique_ptrIN8facebook6hermes7tracing10SynthTrace6RecordESt14default_deleteIS5_EESaIS8_EE19_M_get_Tp_allocatorEv(ptr noundef nonnull align 8 dereferenceable(24) %this1) #13
  invoke void @_ZSt8_DestroyIPSt10unique_ptrIN8facebook6hermes7tracing10SynthTrace6RecordESt14default_deleteIS5_EES8_EvT_SA_RSaIT0_E(ptr noundef %0, ptr noundef %1, ptr noundef nonnull align 1 dereferenceable(1) %call)
          to label %invoke.cont unwind label %terminate.lpad

invoke.cont:                                      ; preds = %entry
  call void @_ZNSt12_Vector_baseISt10unique_ptrIN8facebook6hermes7tracing10SynthTrace6RecordESt14default_deleteIS5_EESaIS8_EED2Ev(ptr noundef nonnull align 8 dereferenceable(24) %this1) #13
  ret void

terminate.lpad:                                   ; preds = %entry
  %2 = landingpad { ptr, i32 }
          catch ptr null
  %3 = extractvalue { ptr, i32 } %2, 0
  call void @__clang_call_terminate(ptr %3) #17
  unreachable
}

; Function Attrs: mustprogress nounwind uwtable
define linkonce_odr hidden void @_ZNSt10unique_ptrIN4llvh11raw_ostreamESt14default_deleteIS1_EED2Ev(ptr noundef nonnull align 8 dereferenceable(8) %this) unnamed_addr #0 comdat align 2 personality ptr @__gxx_personality_v0 {
entry:
  %this.addr = alloca ptr, align 8
  %__ptr = alloca ptr, align 8
  store ptr %this, ptr %this.addr, align 8
  %this1 = load ptr, ptr %this.addr, align 8
  %_M_t = getelementptr inbounds %"class.std::unique_ptr", ptr %this1, i32 0, i32 0
  %call = call noundef nonnull align 8 dereferenceable(8) ptr @_ZNSt15__uniq_ptr_implIN4llvh11raw_ostreamESt14default_deleteIS1_EE6_M_ptrEv(ptr noundef nonnull align 8 dereferenceable(8) %_M_t) #13
  store ptr %call, ptr %__ptr, align 8
  %0 = load ptr, ptr %__ptr, align 8
  %1 = load ptr, ptr %0, align 8
  %cmp = icmp ne ptr %1, null
  br i1 %cmp, label %if.then, label %if.end

if.then:                                          ; preds = %entry
  %call2 = call noundef nonnull align 1 dereferenceable(1) ptr @_ZNSt10unique_ptrIN4llvh11raw_ostreamESt14default_deleteIS1_EE11get_deleterEv(ptr noundef nonnull align 8 dereferenceable(8) %this1) #13
  %2 = load ptr, ptr %__ptr, align 8
  %3 = load ptr, ptr %2, align 8
  invoke void @_ZNKSt14default_deleteIN4llvh11raw_ostreamEEclEPS1_(ptr noundef nonnull align 1 dereferenceable(1) %call2, ptr noundef %3)
          to label %invoke.cont unwind label %terminate.lpad

invoke.cont:                                      ; preds = %if.then
  br label %if.end

if.end:                                           ; preds = %invoke.cont, %entry
  %4 = load ptr, ptr %__ptr, align 8
  store ptr null, ptr %4, align 8
  ret void

terminate.lpad:                                   ; preds = %if.then
  %5 = landingpad { ptr, i32 }
          catch ptr null
  %6 = extractvalue { ptr, i32 } %5, 0
  call void @__clang_call_terminate(ptr %6) #17
  unreachable
}

; Function Attrs: mustprogress uwtable
define hidden { i32, i64 } @_ZN8facebook6hermes7tracing10SynthTrace15encodeUndefinedEv() #1 align 2 {
entry:
  %retval = alloca %"class.facebook::hermes::tracing::SynthTrace::TraceValue", align 8
  %call = call { i32, i64 } @_ZN8facebook6hermes7tracing10SynthTrace10TraceValue20encodeUndefinedValueEv()
  %0 = getelementptr inbounds { i32, i64 }, ptr %retval, i32 0, i32 0
  %1 = extractvalue { i32, i64 } %call, 0
  store i32 %1, ptr %0, align 8
  %2 = getelementptr inbounds { i32, i64 }, ptr %retval, i32 0, i32 1
  %3 = extractvalue { i32, i64 } %call, 1
  store i64 %3, ptr %2, align 8
  %4 = load { i32, i64 }, ptr %retval, align 8
  ret { i32, i64 } %4
}

; Function Attrs: mustprogress uwtable
define linkonce_odr hidden { i32, i64 } @_ZN8facebook6hermes7tracing10SynthTrace10TraceValue20encodeUndefinedValueEv() #1 comdat align 2 {
entry:
  %retval = alloca %"class.facebook::hermes::tracing::SynthTrace::TraceValue", align 8
  call void @_ZN8facebook6hermes7tracing10SynthTrace10TraceValueC2ENS3_3TagE(ptr noundef nonnull align 8 dereferenceable(16) %retval, i32 noundef 0)
  %0 = load { i32, i64 }, ptr %retval, align 8
  ret { i32, i64 } %0
}

; Function Attrs: mustprogress uwtable
define hidden { i32, i64 } @_ZN8facebook6hermes7tracing10SynthTrace10encodeNullEv() #1 align 2 {
entry:
  %retval = alloca %"class.facebook::hermes::tracing::SynthTrace::TraceValue", align 8
  %call = call { i32, i64 } @_ZN8facebook6hermes7tracing10SynthTrace10TraceValue15encodeNullValueEv()
  %0 = getelementptr inbounds { i32, i64 }, ptr %retval, i32 0, i32 0
  %1 = extractvalue { i32, i64 } %call, 0
  store i32 %1, ptr %0, align 8
  %2 = getelementptr inbounds { i32, i64 }, ptr %retval, i32 0, i32 1
  %3 = extractvalue { i32, i64 } %call, 1
  store i64 %3, ptr %2, align 8
  %4 = load { i32, i64 }, ptr %retval, align 8
  ret { i32, i64 } %4
}

; Function Attrs: mustprogress uwtable
define linkonce_odr hidden { i32, i64 } @_ZN8facebook6hermes7tracing10SynthTrace10TraceValue15encodeNullValueEv() #1 comdat align 2 {
entry:
  %retval = alloca %"class.facebook::hermes::tracing::SynthTrace::TraceValue", align 8
  call void @_ZN8facebook6hermes7tracing10SynthTrace10TraceValueC2ENS3_3TagE(ptr noundef nonnull align 8 dereferenceable(16) %retval, i32 noundef 1)
  %0 = load { i32, i64 }, ptr %retval, align 8
  ret { i32, i64 } %0
}

; Function Attrs: mustprogress uwtable
define hidden { i32, i64 } @_ZN8facebook6hermes7tracing10SynthTrace10encodeBoolEb(i1 noundef zeroext %value) #1 align 2 {
entry:
  %retval = alloca %"class.facebook::hermes::tracing::SynthTrace::TraceValue", align 8
  %value.addr = alloca i8, align 1
  %frombool = zext i1 %value to i8
  store i8 %frombool, ptr %value.addr, align 1
  %0 = load i8, ptr %value.addr, align 1
  %tobool = trunc i8 %0 to i1
  %call = call { i32, i64 } @_ZN8facebook6hermes7tracing10SynthTrace10TraceValue15encodeBoolValueEb(i1 noundef zeroext %tobool)
  %1 = getelementptr inbounds { i32, i64 }, ptr %retval, i32 0, i32 0
  %2 = extractvalue { i32, i64 } %call, 0
  store i32 %2, ptr %1, align 8
  %3 = getelementptr inbounds { i32, i64 }, ptr %retval, i32 0, i32 1
  %4 = extractvalue { i32, i64 } %call, 1
  store i64 %4, ptr %3, align 8
  %5 = load { i32, i64 }, ptr %retval, align 8
  ret { i32, i64 } %5
}

; Function Attrs: mustprogress uwtable
define linkonce_odr hidden { i32, i64 } @_ZN8facebook6hermes7tracing10SynthTrace10TraceValue15encodeBoolValueEb(i1 noundef zeroext %value) #1 comdat align 2 {
entry:
  %retval = alloca %"class.facebook::hermes::tracing::SynthTrace::TraceValue", align 8
  %value.addr = alloca i8, align 1
  %frombool = zext i1 %value to i8
  store i8 %frombool, ptr %value.addr, align 1
  %0 = load i8, ptr %value.addr, align 1
  %tobool = trunc i8 %0 to i1
  call void @_ZN8facebook6hermes7tracing10SynthTrace10TraceValueC2Eb(ptr noundef nonnull align 8 dereferenceable(16) %retval, i1 noundef zeroext %tobool)
  %1 = load { i32, i64 }, ptr %retval, align 8
  ret { i32, i64 } %1
}

; Function Attrs: mustprogress uwtable
define hidden { i32, i64 } @_ZN8facebook6hermes7tracing10SynthTrace12encodeNumberEd(double noundef %value) #1 align 2 {
entry:
  %retval = alloca %"class.facebook::hermes::tracing::SynthTrace::TraceValue", align 8
  %value.addr = alloca double, align 8
  store double %value, ptr %value.addr, align 8
  %0 = load double, ptr %value.addr, align 8
  %call = call { i32, i64 } @_ZN8facebook6hermes7tracing10SynthTrace10TraceValue17encodeNumberValueEd(double noundef %0)
  %1 = getelementptr inbounds { i32, i64 }, ptr %retval, i32 0, i32 0
  %2 = extractvalue { i32, i64 } %call, 0
  store i32 %2, ptr %1, align 8
  %3 = getelementptr inbounds { i32, i64 }, ptr %retval, i32 0, i32 1
  %4 = extractvalue { i32, i64 } %call, 1
  store i64 %4, ptr %3, align 8
  %5 = load { i32, i64 }, ptr %retval, align 8
  ret { i32, i64 } %5
}

; Function Attrs: mustprogress uwtable
define linkonce_odr hidden { i32, i64 } @_ZN8facebook6hermes7tracing10SynthTrace10TraceValue17encodeNumberValueEd(double noundef %value) #1 comdat align 2 {
entry:
  %retval = alloca %"class.facebook::hermes::tracing::SynthTrace::TraceValue", align 8
  %value.addr = alloca double, align 8
  store double %value, ptr %value.addr, align 8
  %0 = load double, ptr %value.addr, align 8
  call void @_ZN8facebook6hermes7tracing10SynthTrace10TraceValueC2Ed(ptr noundef nonnull align 8 dereferenceable(16) %retval, double noundef %0)
  %1 = load { i32, i64 }, ptr %retval, align 8
  ret { i32, i64 } %1
}

; Function Attrs: mustprogress uwtable
define hidden { i32, i64 } @_ZN8facebook6hermes7tracing10SynthTrace12encodeObjectEm(i64 noundef %objID) #1 align 2 {
entry:
  %retval = alloca %"class.facebook::hermes::tracing::SynthTrace::TraceValue", align 8
  %objID.addr = alloca i64, align 8
  store i64 %objID, ptr %objID.addr, align 8
  %0 = load i64, ptr %objID.addr, align 8
  %call = call { i32, i64 } @_ZN8facebook6hermes7tracing10SynthTrace10TraceValue17encodeObjectValueEm(i64 noundef %0)
  %1 = getelementptr inbounds { i32, i64 }, ptr %retval, i32 0, i32 0
  %2 = extractvalue { i32, i64 } %call, 0
  store i32 %2, ptr %1, align 8
  %3 = getelementptr inbounds { i32, i64 }, ptr %retval, i32 0, i32 1
  %4 = extractvalue { i32, i64 } %call, 1
  store i64 %4, ptr %3, align 8
  %5 = load { i32, i64 }, ptr %retval, align 8
  ret { i32, i64 } %5
}

; Function Attrs: mustprogress uwtable
define linkonce_odr hidden { i32, i64 } @_ZN8facebook6hermes7tracing10SynthTrace10TraceValue17encodeObjectValueEm(i64 noundef %uid) #1 comdat align 2 {
entry:
  %retval = alloca %"class.facebook::hermes::tracing::SynthTrace::TraceValue", align 8
  %uid.addr = alloca i64, align 8
  store i64 %uid, ptr %uid.addr, align 8
  %0 = load i64, ptr %uid.addr, align 8
  call void @_ZN8facebook6hermes7tracing10SynthTrace10TraceValueC2ENS3_3TagEm(ptr noundef nonnull align 8 dereferenceable(16) %retval, i32 noundef 4, i64 noundef %0)
  %1 = load { i32, i64 }, ptr %retval, align 8
  ret { i32, i64 } %1
}

; Function Attrs: mustprogress uwtable
define hidden { i32, i64 } @_ZN8facebook6hermes7tracing10SynthTrace12encodeBigIntEm(i64 noundef %objID) #1 align 2 {
entry:
  %retval = alloca %"class.facebook::hermes::tracing::SynthTrace::TraceValue", align 8
  %objID.addr = alloca i64, align 8
  store i64 %objID, ptr %objID.addr, align 8
  %0 = load i64, ptr %objID.addr, align 8
  %call = call { i32, i64 } @_ZN8facebook6hermes7tracing10SynthTrace10TraceValue17encodeBigIntValueEm(i64 noundef %0)
  %1 = getelementptr inbounds { i32, i64 }, ptr %retval, i32 0, i32 0
  %2 = extractvalue { i32, i64 } %call, 0
  store i32 %2, ptr %1, align 8
  %3 = getelementptr inbounds { i32, i64 }, ptr %retval, i32 0, i32 1
  %4 = extractvalue { i32, i64 } %call, 1
  store i64 %4, ptr %3, align 8
  %5 = load { i32, i64 }, ptr %retval, align 8
  ret { i32, i64 } %5
}

; Function Attrs: mustprogress uwtable
define linkonce_odr hidden { i32, i64 } @_ZN8facebook6hermes7tracing10SynthTrace10TraceValue17encodeBigIntValueEm(i64 noundef %uid) #1 comdat align 2 {
entry:
  %retval = alloca %"class.facebook::hermes::tracing::SynthTrace::TraceValue", align 8
  %uid.addr = alloca i64, align 8
  store i64 %uid, ptr %uid.addr, align 8
  %0 = load i64, ptr %uid.addr, align 8
  call void @_ZN8facebook6hermes7tracing10SynthTrace10TraceValueC2ENS3_3TagEm(ptr noundef nonnull align 8 dereferenceable(16) %retval, i32 noundef 8, i64 noundef %0)
  %1 = load { i32, i64 }, ptr %retval, align 8
  ret { i32, i64 } %1
}

; Function Attrs: mustprogress uwtable
define hidden { i32, i64 } @_ZN8facebook6hermes7tracing10SynthTrace12encodeStringEm(i64 noundef %objID) #1 align 2 {
entry:
  %retval = alloca %"class.facebook::hermes::tracing::SynthTrace::TraceValue", align 8
  %objID.addr = alloca i64, align 8
  store i64 %objID, ptr %objID.addr, align 8
  %0 = load i64, ptr %objID.addr, align 8
  %call = call { i32, i64 } @_ZN8facebook6hermes7tracing10SynthTrace10TraceValue17encodeStringValueEm(i64 noundef %0)
  %1 = getelementptr inbounds { i32, i64 }, ptr %retval, i32 0, i32 0
  %2 = extractvalue { i32, i64 } %call, 0
  store i32 %2, ptr %1, align 8
  %3 = getelementptr inbounds { i32, i64 }, ptr %retval, i32 0, i32 1
  %4 = extractvalue { i32, i64 } %call, 1
  store i64 %4, ptr %3, align 8
  %5 = load { i32, i64 }, ptr %retval, align 8
  ret { i32, i64 } %5
}

; Function Attrs: mustprogress uwtable
define linkonce_odr hidden { i32, i64 } @_ZN8facebook6hermes7tracing10SynthTrace10TraceValue17encodeStringValueEm(i64 noundef %uid) #1 comdat align 2 {
entry:
  %retval = alloca %"class.facebook::hermes::tracing::SynthTrace::TraceValue", align 8
  %uid.addr = alloca i64, align 8
  store i64 %uid, ptr %uid.addr, align 8
  %0 = load i64, ptr %uid.addr, align 8
  call void @_ZN8facebook6hermes7tracing10SynthTrace10TraceValueC2ENS3_3TagEm(ptr noundef nonnull align 8 dereferenceable(16) %retval, i32 noundef 5, i64 noundef %0)
  %1 = load { i32, i64 }, ptr %retval, align 8
  ret { i32, i64 } %1
}

; Function Attrs: mustprogress uwtable
define hidden { i32, i64 } @_ZN8facebook6hermes7tracing10SynthTrace16encodePropNameIDEm(i64 noundef %objID) #1 align 2 {
entry:
  %retval = alloca %"class.facebook::hermes::tracing::SynthTrace::TraceValue", align 8
  %objID.addr = alloca i64, align 8
  store i64 %objID, ptr %objID.addr, align 8
  %0 = load i64, ptr %objID.addr, align 8
  %call = call { i32, i64 } @_ZN8facebook6hermes7tracing10SynthTrace10TraceValue21encodePropNameIDValueEm(i64 noundef %0)
  %1 = getelementptr inbounds { i32, i64 }, ptr %retval, i32 0, i32 0
  %2 = extractvalue { i32, i64 } %call, 0
  store i32 %2, ptr %1, align 8
  %3 = getelementptr inbounds { i32, i64 }, ptr %retval, i32 0, i32 1
  %4 = extractvalue { i32, i64 } %call, 1
  store i64 %4, ptr %3, align 8
  %5 = load { i32, i64 }, ptr %retval, align 8
  ret { i32, i64 } %5
}

; Function Attrs: mustprogress uwtable
define linkonce_odr hidden { i32, i64 } @_ZN8facebook6hermes7tracing10SynthTrace10TraceValue21encodePropNameIDValueEm(i64 noundef %uid) #1 comdat align 2 {
entry:
  %retval = alloca %"class.facebook::hermes::tracing::SynthTrace::TraceValue", align 8
  %uid.addr = alloca i64, align 8
  store i64 %uid, ptr %uid.addr, align 8
  %0 = load i64, ptr %uid.addr, align 8
  call void @_ZN8facebook6hermes7tracing10SynthTrace10TraceValueC2ENS3_3TagEm(ptr noundef nonnull align 8 dereferenceable(16) %retval, i32 noundef 6, i64 noundef %0)
  %1 = load { i32, i64 }, ptr %retval, align 8
  ret { i32, i64 } %1
}

; Function Attrs: mustprogress uwtable
define hidden { i32, i64 } @_ZN8facebook6hermes7tracing10SynthTrace12encodeSymbolEm(i64 noundef %objID) #1 align 2 {
entry:
  %retval = alloca %"class.facebook::hermes::tracing::SynthTrace::TraceValue", align 8
  %objID.addr = alloca i64, align 8
  store i64 %objID, ptr %objID.addr, align 8
  %0 = load i64, ptr %objID.addr, align 8
  %call = call { i32, i64 } @_ZN8facebook6hermes7tracing10SynthTrace10TraceValue17encodeSymbolValueEm(i64 noundef %0)
  %1 = getelementptr inbounds { i32, i64 }, ptr %retval, i32 0, i32 0
  %2 = extractvalue { i32, i64 } %call, 0
  store i32 %2, ptr %1, align 8
  %3 = getelementptr inbounds { i32, i64 }, ptr %retval, i32 0, i32 1
  %4 = extractvalue { i32, i64 } %call, 1
  store i64 %4, ptr %3, align 8
  %5 = load { i32, i64 }, ptr %retval, align 8
  ret { i32, i64 } %5
}

; Function Attrs: mustprogress uwtable
define linkonce_odr hidden { i32, i64 } @_ZN8facebook6hermes7tracing10SynthTrace10TraceValue17encodeSymbolValueEm(i64 noundef %uid) #1 comdat align 2 {
entry:
  %retval = alloca %"class.facebook::hermes::tracing::SynthTrace::TraceValue", align 8
  %uid.addr = alloca i64, align 8
  store i64 %uid, ptr %uid.addr, align 8
  %0 = load i64, ptr %uid.addr, align 8
  call void @_ZN8facebook6hermes7tracing10SynthTrace10TraceValueC2ENS3_3TagEm(ptr noundef nonnull align 8 dereferenceable(16) %retval, i32 noundef 7, i64 noundef %0)
  %1 = load { i32, i64 }, ptr %retval, align 8
  ret { i32, i64 } %1
}

; Function Attrs: mustprogress uwtable
define hidden void @_ZN8facebook6hermes7tracing10SynthTrace6encodeB5cxx11ENS2_10TraceValueE(ptr noalias sret(%"class.std::__cxx11::basic_string") align 8 %agg.result, i32 %value.coerce0, i64 %value.coerce1) #1 align 2 personality ptr @__gxx_personality_v0 {
entry:
  %result.ptr = alloca ptr, align 8
  %value = alloca %"class.facebook::hermes::tracing::SynthTrace::TraceValue", align 8
  %ref.tmp = alloca %"class.std::allocator.10", align 1
  %exn.slot = alloca ptr, align 8
  %ehselector.slot = alloca i32, align 4
  %ref.tmp3 = alloca %"class.std::allocator.10", align 1
  %ref.tmp9 = alloca %"class.std::__cxx11::basic_string", align 8
  %ref.tmp10 = alloca %"class.std::allocator.10", align 1
  %ref.tmp13 = alloca %"class.std::__cxx11::basic_string", align 8
  %ref.tmp24 = alloca %"class.std::__cxx11::basic_string", align 8
  %ref.tmp25 = alloca %"class.std::allocator.10", align 1
  %ref.tmp28 = alloca %"class.std::__cxx11::basic_string", align 8
  %ref.tmp41 = alloca %"class.std::__cxx11::basic_string", align 8
  %ref.tmp42 = alloca %"class.std::allocator.10", align 1
  %ref.tmp45 = alloca %"class.std::__cxx11::basic_string", align 8
  %ref.tmp58 = alloca %"class.std::__cxx11::basic_string", align 8
  %ref.tmp59 = alloca %"class.std::allocator.10", align 1
  %ref.tmp62 = alloca %"class.std::__cxx11::basic_string", align 8
  %ref.tmp75 = alloca %"class.std::__cxx11::basic_string", align 8
  %ref.tmp76 = alloca %"class.std::allocator.10", align 1
  %ref.tmp79 = alloca %"class.std::__cxx11::basic_string", align 8
  %ref.tmp92 = alloca %"class.std::__cxx11::basic_string", align 8
  %ref.tmp93 = alloca %"class.std::allocator.10", align 1
  %ref.tmp96 = alloca %"class.std::__cxx11::basic_string", align 8
  %ref.tmp109 = alloca %"class.std::__cxx11::basic_string", align 8
  %ref.tmp110 = alloca %"class.std::allocator.10", align 1
  store ptr %agg.result, ptr %result.ptr, align 8
  %0 = getelementptr inbounds { i32, i64 }, ptr %value, i32 0, i32 0
  store i32 %value.coerce0, ptr %0, align 8
  %1 = getelementptr inbounds { i32, i64 }, ptr %value, i32 0, i32 1
  store i64 %value.coerce1, ptr %1, align 8
  %call = call noundef zeroext i1 @_ZNK8facebook6hermes7tracing10SynthTrace10TraceValue11isUndefinedEv(ptr noundef nonnull align 8 dereferenceable(16) %value)
  br i1 %call, label %if.then, label %if.else

if.then:                                          ; preds = %entry
  call void @_ZNSaIcEC1Ev(ptr noundef nonnull align 1 dereferenceable(1) %ref.tmp) #13
  invoke void @_ZNSt7__cxx1112basic_stringIcSt11char_traitsIcESaIcEEC2IS3_EEPKcRKS3_(ptr noundef nonnull align 8 dereferenceable(32) %agg.result, ptr noundef @.str.29, ptr noundef nonnull align 1 dereferenceable(1) %ref.tmp)
          to label %invoke.cont unwind label %lpad

invoke.cont:                                      ; preds = %if.then
  call void @_ZNSaIcED1Ev(ptr noundef nonnull align 1 dereferenceable(1) %ref.tmp) #13
  br label %return

lpad:                                             ; preds = %if.then
  %2 = landingpad { ptr, i32 }
          cleanup
  %3 = extractvalue { ptr, i32 } %2, 0
  store ptr %3, ptr %exn.slot, align 8
  %4 = extractvalue { ptr, i32 } %2, 1
  store i32 %4, ptr %ehselector.slot, align 4
  call void @_ZNSaIcED1Ev(ptr noundef nonnull align 1 dereferenceable(1) %ref.tmp) #13
  br label %eh.resume

if.else:                                          ; preds = %entry
  %call1 = call noundef zeroext i1 @_ZNK8facebook6hermes7tracing10SynthTrace10TraceValue6isNullEv(ptr noundef nonnull align 8 dereferenceable(16) %value)
  br i1 %call1, label %if.then2, label %if.else6

if.then2:                                         ; preds = %if.else
  call void @_ZNSaIcEC1Ev(ptr noundef nonnull align 1 dereferenceable(1) %ref.tmp3) #13
  invoke void @_ZNSt7__cxx1112basic_stringIcSt11char_traitsIcESaIcEEC2IS3_EEPKcRKS3_(ptr noundef nonnull align 8 dereferenceable(32) %agg.result, ptr noundef @.str.30, ptr noundef nonnull align 1 dereferenceable(1) %ref.tmp3)
          to label %invoke.cont5 unwind label %lpad4

invoke.cont5:                                     ; preds = %if.then2
  call void @_ZNSaIcED1Ev(ptr noundef nonnull align 1 dereferenceable(1) %ref.tmp3) #13
  br label %return

lpad4:                                            ; preds = %if.then2
  %5 = landingpad { ptr, i32 }
          cleanup
  %6 = extractvalue { ptr, i32 } %5, 0
  store ptr %6, ptr %exn.slot, align 8
  %7 = extractvalue { ptr, i32 } %5, 1
  store i32 %7, ptr %ehselector.slot, align 4
  call void @_ZNSaIcED1Ev(ptr noundef nonnull align 1 dereferenceable(1) %ref.tmp3) #13
  br label %eh.resume

if.else6:                                         ; preds = %if.else
  %call7 = call noundef zeroext i1 @_ZNK8facebook6hermes7tracing10SynthTrace10TraceValue8isObjectEv(ptr noundef nonnull align 8 dereferenceable(16) %value)
  br i1 %call7, label %if.then8, label %if.else21

if.then8:                                         ; preds = %if.else6
  call void @_ZNSaIcEC1Ev(ptr noundef nonnull align 1 dereferenceable(1) %ref.tmp10) #13
  invoke void @_ZNSt7__cxx1112basic_stringIcSt11char_traitsIcESaIcEEC2IS3_EEPKcRKS3_(ptr noundef nonnull align 8 dereferenceable(32) %ref.tmp9, ptr noundef @.str.31, ptr noundef nonnull align 1 dereferenceable(1) %ref.tmp10)
          to label %invoke.cont12 unwind label %lpad11

invoke.cont12:                                    ; preds = %if.then8
  %call16 = invoke noundef i64 @_ZNK8facebook6hermes7tracing10SynthTrace10TraceValue6getUIDEv(ptr noundef nonnull align 8 dereferenceable(16) %value)
          to label %invoke.cont15 unwind label %lpad14

invoke.cont15:                                    ; preds = %invoke.cont12
  invoke void @_ZNSt7__cxx119to_stringEm(ptr sret(%"class.std::__cxx11::basic_string") align 8 %ref.tmp13, i64 noundef %call16)
          to label %invoke.cont17 unwind label %lpad14

invoke.cont17:                                    ; preds = %invoke.cont15
  invoke void @_ZStplIcSt11char_traitsIcESaIcEENSt7__cxx1112basic_stringIT_T0_T1_EEOS8_S9_(ptr sret(%"class.std::__cxx11::basic_string") align 8 %agg.result, ptr noundef nonnull align 8 dereferenceable(32) %ref.tmp9, ptr noundef nonnull align 8 dereferenceable(32) %ref.tmp13)
          to label %invoke.cont19 unwind label %lpad18

invoke.cont19:                                    ; preds = %invoke.cont17
  call void @_ZNSt7__cxx1112basic_stringIcSt11char_traitsIcESaIcEED1Ev(ptr noundef nonnull align 8 dereferenceable(32) %ref.tmp13) #13
  call void @_ZNSt7__cxx1112basic_stringIcSt11char_traitsIcESaIcEED1Ev(ptr noundef nonnull align 8 dereferenceable(32) %ref.tmp9) #13
  call void @_ZNSaIcED1Ev(ptr noundef nonnull align 1 dereferenceable(1) %ref.tmp10) #13
  br label %return

lpad11:                                           ; preds = %if.then8
  %8 = landingpad { ptr, i32 }
          cleanup
  %9 = extractvalue { ptr, i32 } %8, 0
  store ptr %9, ptr %exn.slot, align 8
  %10 = extractvalue { ptr, i32 } %8, 1
  store i32 %10, ptr %ehselector.slot, align 4
  br label %ehcleanup20

lpad14:                                           ; preds = %invoke.cont15, %invoke.cont12
  %11 = landingpad { ptr, i32 }
          cleanup
  %12 = extractvalue { ptr, i32 } %11, 0
  store ptr %12, ptr %exn.slot, align 8
  %13 = extractvalue { ptr, i32 } %11, 1
  store i32 %13, ptr %ehselector.slot, align 4
  br label %ehcleanup

lpad18:                                           ; preds = %invoke.cont17
  %14 = landingpad { ptr, i32 }
          cleanup
  %15 = extractvalue { ptr, i32 } %14, 0
  store ptr %15, ptr %exn.slot, align 8
  %16 = extractvalue { ptr, i32 } %14, 1
  store i32 %16, ptr %ehselector.slot, align 4
  call void @_ZNSt7__cxx1112basic_stringIcSt11char_traitsIcESaIcEED1Ev(ptr noundef nonnull align 8 dereferenceable(32) %ref.tmp13) #13
  br label %ehcleanup

ehcleanup:                                        ; preds = %lpad18, %lpad14
  call void @_ZNSt7__cxx1112basic_stringIcSt11char_traitsIcESaIcEED1Ev(ptr noundef nonnull align 8 dereferenceable(32) %ref.tmp9) #13
  br label %ehcleanup20

ehcleanup20:                                      ; preds = %ehcleanup, %lpad11
  call void @_ZNSaIcED1Ev(ptr noundef nonnull align 1 dereferenceable(1) %ref.tmp10) #13
  br label %eh.resume

if.else21:                                        ; preds = %if.else6
  %call22 = call noundef zeroext i1 @_ZNK8facebook6hermes7tracing10SynthTrace10TraceValue8isBigIntEv(ptr noundef nonnull align 8 dereferenceable(16) %value)
  br i1 %call22, label %if.then23, label %if.else38

if.then23:                                        ; preds = %if.else21
  call void @_ZNSaIcEC1Ev(ptr noundef nonnull align 1 dereferenceable(1) %ref.tmp25) #13
  invoke void @_ZNSt7__cxx1112basic_stringIcSt11char_traitsIcESaIcEEC2IS3_EEPKcRKS3_(ptr noundef nonnull align 8 dereferenceable(32) %ref.tmp24, ptr noundef @.str.32, ptr noundef nonnull align 1 dereferenceable(1) %ref.tmp25)
          to label %invoke.cont27 unwind label %lpad26

invoke.cont27:                                    ; preds = %if.then23
  %call31 = invoke noundef i64 @_ZNK8facebook6hermes7tracing10SynthTrace10TraceValue6getUIDEv(ptr noundef nonnull align 8 dereferenceable(16) %value)
          to label %invoke.cont30 unwind label %lpad29

invoke.cont30:                                    ; preds = %invoke.cont27
  invoke void @_ZNSt7__cxx119to_stringEm(ptr sret(%"class.std::__cxx11::basic_string") align 8 %ref.tmp28, i64 noundef %call31)
          to label %invoke.cont32 unwind label %lpad29

invoke.cont32:                                    ; preds = %invoke.cont30
  invoke void @_ZStplIcSt11char_traitsIcESaIcEENSt7__cxx1112basic_stringIT_T0_T1_EEOS8_S9_(ptr sret(%"class.std::__cxx11::basic_string") align 8 %agg.result, ptr noundef nonnull align 8 dereferenceable(32) %ref.tmp24, ptr noundef nonnull align 8 dereferenceable(32) %ref.tmp28)
          to label %invoke.cont34 unwind label %lpad33

invoke.cont34:                                    ; preds = %invoke.cont32
  call void @_ZNSt7__cxx1112basic_stringIcSt11char_traitsIcESaIcEED1Ev(ptr noundef nonnull align 8 dereferenceable(32) %ref.tmp28) #13
  call void @_ZNSt7__cxx1112basic_stringIcSt11char_traitsIcESaIcEED1Ev(ptr noundef nonnull align 8 dereferenceable(32) %ref.tmp24) #13
  call void @_ZNSaIcED1Ev(ptr noundef nonnull align 1 dereferenceable(1) %ref.tmp25) #13
  br label %return

lpad26:                                           ; preds = %if.then23
  %17 = landingpad { ptr, i32 }
          cleanup
  %18 = extractvalue { ptr, i32 } %17, 0
  store ptr %18, ptr %exn.slot, align 8
  %19 = extractvalue { ptr, i32 } %17, 1
  store i32 %19, ptr %ehselector.slot, align 4
  br label %ehcleanup37

lpad29:                                           ; preds = %invoke.cont30, %invoke.cont27
  %20 = landingpad { ptr, i32 }
          cleanup
  %21 = extractvalue { ptr, i32 } %20, 0
  store ptr %21, ptr %exn.slot, align 8
  %22 = extractvalue { ptr, i32 } %20, 1
  store i32 %22, ptr %ehselector.slot, align 4
  br label %ehcleanup36

lpad33:                                           ; preds = %invoke.cont32
  %23 = landingpad { ptr, i32 }
          cleanup
  %24 = extractvalue { ptr, i32 } %23, 0
  store ptr %24, ptr %exn.slot, align 8
  %25 = extractvalue { ptr, i32 } %23, 1
  store i32 %25, ptr %ehselector.slot, align 4
  call void @_ZNSt7__cxx1112basic_stringIcSt11char_traitsIcESaIcEED1Ev(ptr noundef nonnull align 8 dereferenceable(32) %ref.tmp28) #13
  br label %ehcleanup36

ehcleanup36:                                      ; preds = %lpad33, %lpad29
  call void @_ZNSt7__cxx1112basic_stringIcSt11char_traitsIcESaIcEED1Ev(ptr noundef nonnull align 8 dereferenceable(32) %ref.tmp24) #13
  br label %ehcleanup37

ehcleanup37:                                      ; preds = %ehcleanup36, %lpad26
  call void @_ZNSaIcED1Ev(ptr noundef nonnull align 1 dereferenceable(1) %ref.tmp25) #13
  br label %eh.resume

if.else38:                                        ; preds = %if.else21
  %call39 = call noundef zeroext i1 @_ZNK8facebook6hermes7tracing10SynthTrace10TraceValue8isStringEv(ptr noundef nonnull align 8 dereferenceable(16) %value)
  br i1 %call39, label %if.then40, label %if.else55

if.then40:                                        ; preds = %if.else38
  call void @_ZNSaIcEC1Ev(ptr noundef nonnull align 1 dereferenceable(1) %ref.tmp42) #13
  invoke void @_ZNSt7__cxx1112basic_stringIcSt11char_traitsIcESaIcEEC2IS3_EEPKcRKS3_(ptr noundef nonnull align 8 dereferenceable(32) %ref.tmp41, ptr noundef @.str.33, ptr noundef nonnull align 1 dereferenceable(1) %ref.tmp42)
          to label %invoke.cont44 unwind label %lpad43

invoke.cont44:                                    ; preds = %if.then40
  %call48 = invoke noundef i64 @_ZNK8facebook6hermes7tracing10SynthTrace10TraceValue6getUIDEv(ptr noundef nonnull align 8 dereferenceable(16) %value)
          to label %invoke.cont47 unwind label %lpad46

invoke.cont47:                                    ; preds = %invoke.cont44
  invoke void @_ZNSt7__cxx119to_stringEm(ptr sret(%"class.std::__cxx11::basic_string") align 8 %ref.tmp45, i64 noundef %call48)
          to label %invoke.cont49 unwind label %lpad46

invoke.cont49:                                    ; preds = %invoke.cont47
  invoke void @_ZStplIcSt11char_traitsIcESaIcEENSt7__cxx1112basic_stringIT_T0_T1_EEOS8_S9_(ptr sret(%"class.std::__cxx11::basic_string") align 8 %agg.result, ptr noundef nonnull align 8 dereferenceable(32) %ref.tmp41, ptr noundef nonnull align 8 dereferenceable(32) %ref.tmp45)
          to label %invoke.cont51 unwind label %lpad50

invoke.cont51:                                    ; preds = %invoke.cont49
  call void @_ZNSt7__cxx1112basic_stringIcSt11char_traitsIcESaIcEED1Ev(ptr noundef nonnull align 8 dereferenceable(32) %ref.tmp45) #13
  call void @_ZNSt7__cxx1112basic_stringIcSt11char_traitsIcESaIcEED1Ev(ptr noundef nonnull align 8 dereferenceable(32) %ref.tmp41) #13
  call void @_ZNSaIcED1Ev(ptr noundef nonnull align 1 dereferenceable(1) %ref.tmp42) #13
  br label %return

lpad43:                                           ; preds = %if.then40
  %26 = landingpad { ptr, i32 }
          cleanup
  %27 = extractvalue { ptr, i32 } %26, 0
  store ptr %27, ptr %exn.slot, align 8
  %28 = extractvalue { ptr, i32 } %26, 1
  store i32 %28, ptr %ehselector.slot, align 4
  br label %ehcleanup54

lpad46:                                           ; preds = %invoke.cont47, %invoke.cont44
  %29 = landingpad { ptr, i32 }
          cleanup
  %30 = extractvalue { ptr, i32 } %29, 0
  store ptr %30, ptr %exn.slot, align 8
  %31 = extractvalue { ptr, i32 } %29, 1
  store i32 %31, ptr %ehselector.slot, align 4
  br label %ehcleanup53

lpad50:                                           ; preds = %invoke.cont49
  %32 = landingpad { ptr, i32 }
          cleanup
  %33 = extractvalue { ptr, i32 } %32, 0
  store ptr %33, ptr %exn.slot, align 8
  %34 = extractvalue { ptr, i32 } %32, 1
  store i32 %34, ptr %ehselector.slot, align 4
  call void @_ZNSt7__cxx1112basic_stringIcSt11char_traitsIcESaIcEED1Ev(ptr noundef nonnull align 8 dereferenceable(32) %ref.tmp45) #13
  br label %ehcleanup53

ehcleanup53:                                      ; preds = %lpad50, %lpad46
  call void @_ZNSt7__cxx1112basic_stringIcSt11char_traitsIcESaIcEED1Ev(ptr noundef nonnull align 8 dereferenceable(32) %ref.tmp41) #13
  br label %ehcleanup54

ehcleanup54:                                      ; preds = %ehcleanup53, %lpad43
  call void @_ZNSaIcED1Ev(ptr noundef nonnull align 1 dereferenceable(1) %ref.tmp42) #13
  br label %eh.resume

if.else55:                                        ; preds = %if.else38
  %call56 = call noundef zeroext i1 @_ZNK8facebook6hermes7tracing10SynthTrace10TraceValue12isPropNameIDEv(ptr noundef nonnull align 8 dereferenceable(16) %value)
  br i1 %call56, label %if.then57, label %if.else72

if.then57:                                        ; preds = %if.else55
  call void @_ZNSaIcEC1Ev(ptr noundef nonnull align 1 dereferenceable(1) %ref.tmp59) #13
  invoke void @_ZNSt7__cxx1112basic_stringIcSt11char_traitsIcESaIcEEC2IS3_EEPKcRKS3_(ptr noundef nonnull align 8 dereferenceable(32) %ref.tmp58, ptr noundef @.str.34, ptr noundef nonnull align 1 dereferenceable(1) %ref.tmp59)
          to label %invoke.cont61 unwind label %lpad60

invoke.cont61:                                    ; preds = %if.then57
  %call65 = invoke noundef i64 @_ZNK8facebook6hermes7tracing10SynthTrace10TraceValue6getUIDEv(ptr noundef nonnull align 8 dereferenceable(16) %value)
          to label %invoke.cont64 unwind label %lpad63

invoke.cont64:                                    ; preds = %invoke.cont61
  invoke void @_ZNSt7__cxx119to_stringEm(ptr sret(%"class.std::__cxx11::basic_string") align 8 %ref.tmp62, i64 noundef %call65)
          to label %invoke.cont66 unwind label %lpad63

invoke.cont66:                                    ; preds = %invoke.cont64
  invoke void @_ZStplIcSt11char_traitsIcESaIcEENSt7__cxx1112basic_stringIT_T0_T1_EEOS8_S9_(ptr sret(%"class.std::__cxx11::basic_string") align 8 %agg.result, ptr noundef nonnull align 8 dereferenceable(32) %ref.tmp58, ptr noundef nonnull align 8 dereferenceable(32) %ref.tmp62)
          to label %invoke.cont68 unwind label %lpad67

invoke.cont68:                                    ; preds = %invoke.cont66
  call void @_ZNSt7__cxx1112basic_stringIcSt11char_traitsIcESaIcEED1Ev(ptr noundef nonnull align 8 dereferenceable(32) %ref.tmp62) #13
  call void @_ZNSt7__cxx1112basic_stringIcSt11char_traitsIcESaIcEED1Ev(ptr noundef nonnull align 8 dereferenceable(32) %ref.tmp58) #13
  call void @_ZNSaIcED1Ev(ptr noundef nonnull align 1 dereferenceable(1) %ref.tmp59) #13
  br label %return

lpad60:                                           ; preds = %if.then57
  %35 = landingpad { ptr, i32 }
          cleanup
  %36 = extractvalue { ptr, i32 } %35, 0
  store ptr %36, ptr %exn.slot, align 8
  %37 = extractvalue { ptr, i32 } %35, 1
  store i32 %37, ptr %ehselector.slot, align 4
  br label %ehcleanup71

lpad63:                                           ; preds = %invoke.cont64, %invoke.cont61
  %38 = landingpad { ptr, i32 }
          cleanup
  %39 = extractvalue { ptr, i32 } %38, 0
  store ptr %39, ptr %exn.slot, align 8
  %40 = extractvalue { ptr, i32 } %38, 1
  store i32 %40, ptr %ehselector.slot, align 4
  br label %ehcleanup70

lpad67:                                           ; preds = %invoke.cont66
  %41 = landingpad { ptr, i32 }
          cleanup
  %42 = extractvalue { ptr, i32 } %41, 0
  store ptr %42, ptr %exn.slot, align 8
  %43 = extractvalue { ptr, i32 } %41, 1
  store i32 %43, ptr %ehselector.slot, align 4
  call void @_ZNSt7__cxx1112basic_stringIcSt11char_traitsIcESaIcEED1Ev(ptr noundef nonnull align 8 dereferenceable(32) %ref.tmp62) #13
  br label %ehcleanup70

ehcleanup70:                                      ; preds = %lpad67, %lpad63
  call void @_ZNSt7__cxx1112basic_stringIcSt11char_traitsIcESaIcEED1Ev(ptr noundef nonnull align 8 dereferenceable(32) %ref.tmp58) #13
  br label %ehcleanup71

ehcleanup71:                                      ; preds = %ehcleanup70, %lpad60
  call void @_ZNSaIcED1Ev(ptr noundef nonnull align 1 dereferenceable(1) %ref.tmp59) #13
  br label %eh.resume

if.else72:                                        ; preds = %if.else55
  %call73 = call noundef zeroext i1 @_ZNK8facebook6hermes7tracing10SynthTrace10TraceValue8isSymbolEv(ptr noundef nonnull align 8 dereferenceable(16) %value)
  br i1 %call73, label %if.then74, label %if.else89

if.then74:                                        ; preds = %if.else72
  call void @_ZNSaIcEC1Ev(ptr noundef nonnull align 1 dereferenceable(1) %ref.tmp76) #13
  invoke void @_ZNSt7__cxx1112basic_stringIcSt11char_traitsIcESaIcEEC2IS3_EEPKcRKS3_(ptr noundef nonnull align 8 dereferenceable(32) %ref.tmp75, ptr noundef @.str.35, ptr noundef nonnull align 1 dereferenceable(1) %ref.tmp76)
          to label %invoke.cont78 unwind label %lpad77

invoke.cont78:                                    ; preds = %if.then74
  %call82 = invoke noundef i64 @_ZNK8facebook6hermes7tracing10SynthTrace10TraceValue6getUIDEv(ptr noundef nonnull align 8 dereferenceable(16) %value)
          to label %invoke.cont81 unwind label %lpad80

invoke.cont81:                                    ; preds = %invoke.cont78
  invoke void @_ZNSt7__cxx119to_stringEm(ptr sret(%"class.std::__cxx11::basic_string") align 8 %ref.tmp79, i64 noundef %call82)
          to label %invoke.cont83 unwind label %lpad80

invoke.cont83:                                    ; preds = %invoke.cont81
  invoke void @_ZStplIcSt11char_traitsIcESaIcEENSt7__cxx1112basic_stringIT_T0_T1_EEOS8_S9_(ptr sret(%"class.std::__cxx11::basic_string") align 8 %agg.result, ptr noundef nonnull align 8 dereferenceable(32) %ref.tmp75, ptr noundef nonnull align 8 dereferenceable(32) %ref.tmp79)
          to label %invoke.cont85 unwind label %lpad84

invoke.cont85:                                    ; preds = %invoke.cont83
  call void @_ZNSt7__cxx1112basic_stringIcSt11char_traitsIcESaIcEED1Ev(ptr noundef nonnull align 8 dereferenceable(32) %ref.tmp79) #13
  call void @_ZNSt7__cxx1112basic_stringIcSt11char_traitsIcESaIcEED1Ev(ptr noundef nonnull align 8 dereferenceable(32) %ref.tmp75) #13
  call void @_ZNSaIcED1Ev(ptr noundef nonnull align 1 dereferenceable(1) %ref.tmp76) #13
  br label %return

lpad77:                                           ; preds = %if.then74
  %44 = landingpad { ptr, i32 }
          cleanup
  %45 = extractvalue { ptr, i32 } %44, 0
  store ptr %45, ptr %exn.slot, align 8
  %46 = extractvalue { ptr, i32 } %44, 1
  store i32 %46, ptr %ehselector.slot, align 4
  br label %ehcleanup88

lpad80:                                           ; preds = %invoke.cont81, %invoke.cont78
  %47 = landingpad { ptr, i32 }
          cleanup
  %48 = extractvalue { ptr, i32 } %47, 0
  store ptr %48, ptr %exn.slot, align 8
  %49 = extractvalue { ptr, i32 } %47, 1
  store i32 %49, ptr %ehselector.slot, align 4
  br label %ehcleanup87

lpad84:                                           ; preds = %invoke.cont83
  %50 = landingpad { ptr, i32 }
          cleanup
  %51 = extractvalue { ptr, i32 } %50, 0
  store ptr %51, ptr %exn.slot, align 8
  %52 = extractvalue { ptr, i32 } %50, 1
  store i32 %52, ptr %ehselector.slot, align 4
  call void @_ZNSt7__cxx1112basic_stringIcSt11char_traitsIcESaIcEED1Ev(ptr noundef nonnull align 8 dereferenceable(32) %ref.tmp79) #13
  br label %ehcleanup87

ehcleanup87:                                      ; preds = %lpad84, %lpad80
  call void @_ZNSt7__cxx1112basic_stringIcSt11char_traitsIcESaIcEED1Ev(ptr noundef nonnull align 8 dereferenceable(32) %ref.tmp75) #13
  br label %ehcleanup88

ehcleanup88:                                      ; preds = %ehcleanup87, %lpad77
  call void @_ZNSaIcED1Ev(ptr noundef nonnull align 1 dereferenceable(1) %ref.tmp76) #13
  br label %eh.resume

if.else89:                                        ; preds = %if.else72
  %call90 = call noundef zeroext i1 @_ZNK8facebook6hermes7tracing10SynthTrace10TraceValue8isNumberEv(ptr noundef nonnull align 8 dereferenceable(16) %value)
  br i1 %call90, label %if.then91, label %if.else106

if.then91:                                        ; preds = %if.else89
  call void @_ZNSaIcEC1Ev(ptr noundef nonnull align 1 dereferenceable(1) %ref.tmp93) #13
  invoke void @_ZNSt7__cxx1112basic_stringIcSt11char_traitsIcESaIcEEC2IS3_EEPKcRKS3_(ptr noundef nonnull align 8 dereferenceable(32) %ref.tmp92, ptr noundef @.str.36, ptr noundef nonnull align 1 dereferenceable(1) %ref.tmp93)
          to label %invoke.cont95 unwind label %lpad94

invoke.cont95:                                    ; preds = %if.then91
  %call99 = invoke noundef double @_ZNK8facebook6hermes7tracing10SynthTrace10TraceValue9getNumberEv(ptr noundef nonnull align 8 dereferenceable(16) %value)
          to label %invoke.cont98 unwind label %lpad97

invoke.cont98:                                    ; preds = %invoke.cont95
  invoke void @_ZN8facebook6hermes7tracing12_GLOBAL__N_113doublePrinterB5cxx11Ed(ptr sret(%"class.std::__cxx11::basic_string") align 8 %ref.tmp96, double noundef %call99)
          to label %invoke.cont100 unwind label %lpad97

invoke.cont100:                                   ; preds = %invoke.cont98
  invoke void @_ZStplIcSt11char_traitsIcESaIcEENSt7__cxx1112basic_stringIT_T0_T1_EEOS8_S9_(ptr sret(%"class.std::__cxx11::basic_string") align 8 %agg.result, ptr noundef nonnull align 8 dereferenceable(32) %ref.tmp92, ptr noundef nonnull align 8 dereferenceable(32) %ref.tmp96)
          to label %invoke.cont102 unwind label %lpad101

invoke.cont102:                                   ; preds = %invoke.cont100
  call void @_ZNSt7__cxx1112basic_stringIcSt11char_traitsIcESaIcEED1Ev(ptr noundef nonnull align 8 dereferenceable(32) %ref.tmp96) #13
  call void @_ZNSt7__cxx1112basic_stringIcSt11char_traitsIcESaIcEED1Ev(ptr noundef nonnull align 8 dereferenceable(32) %ref.tmp92) #13
  call void @_ZNSaIcED1Ev(ptr noundef nonnull align 1 dereferenceable(1) %ref.tmp93) #13
  br label %return

lpad94:                                           ; preds = %if.then91
  %53 = landingpad { ptr, i32 }
          cleanup
  %54 = extractvalue { ptr, i32 } %53, 0
  store ptr %54, ptr %exn.slot, align 8
  %55 = extractvalue { ptr, i32 } %53, 1
  store i32 %55, ptr %ehselector.slot, align 4
  br label %ehcleanup105

lpad97:                                           ; preds = %invoke.cont98, %invoke.cont95
  %56 = landingpad { ptr, i32 }
          cleanup
  %57 = extractvalue { ptr, i32 } %56, 0
  store ptr %57, ptr %exn.slot, align 8
  %58 = extractvalue { ptr, i32 } %56, 1
  store i32 %58, ptr %ehselector.slot, align 4
  br label %ehcleanup104

lpad101:                                          ; preds = %invoke.cont100
  %59 = landingpad { ptr, i32 }
          cleanup
  %60 = extractvalue { ptr, i32 } %59, 0
  store ptr %60, ptr %exn.slot, align 8
  %61 = extractvalue { ptr, i32 } %59, 1
  store i32 %61, ptr %ehselector.slot, align 4
  call void @_ZNSt7__cxx1112basic_stringIcSt11char_traitsIcESaIcEED1Ev(ptr noundef nonnull align 8 dereferenceable(32) %ref.tmp96) #13
  br label %ehcleanup104

ehcleanup104:                                     ; preds = %lpad101, %lpad97
  call void @_ZNSt7__cxx1112basic_stringIcSt11char_traitsIcESaIcEED1Ev(ptr noundef nonnull align 8 dereferenceable(32) %ref.tmp92) #13
  br label %ehcleanup105

ehcleanup105:                                     ; preds = %ehcleanup104, %lpad94
  call void @_ZNSaIcED1Ev(ptr noundef nonnull align 1 dereferenceable(1) %ref.tmp93) #13
  br label %eh.resume

if.else106:                                       ; preds = %if.else89
  %call107 = call noundef zeroext i1 @_ZNK8facebook6hermes7tracing10SynthTrace10TraceValue6isBoolEv(ptr noundef nonnull align 8 dereferenceable(16) %value)
  br i1 %call107, label %if.then108, label %if.else119

if.then108:                                       ; preds = %if.else106
  call void @_ZNSaIcEC1Ev(ptr noundef nonnull align 1 dereferenceable(1) %ref.tmp110) #13
  invoke void @_ZNSt7__cxx1112basic_stringIcSt11char_traitsIcESaIcEEC2IS3_EEPKcRKS3_(ptr noundef nonnull align 8 dereferenceable(32) %ref.tmp109, ptr noundef @.str.37, ptr noundef nonnull align 1 dereferenceable(1) %ref.tmp110)
          to label %invoke.cont112 unwind label %lpad111

invoke.cont112:                                   ; preds = %if.then108
  %call115 = invoke noundef zeroext i1 @_ZNK8facebook6hermes7tracing10SynthTrace10TraceValue7getBoolEv(ptr noundef nonnull align 8 dereferenceable(16) %value)
          to label %invoke.cont114 unwind label %lpad113

invoke.cont114:                                   ; preds = %invoke.cont112
  %cond = select i1 %call115, ptr @.str.38, ptr @.str.39
  invoke void @_ZStplIcSt11char_traitsIcESaIcEENSt7__cxx1112basic_stringIT_T0_T1_EEOS8_PKS5_(ptr sret(%"class.std::__cxx11::basic_string") align 8 %agg.result, ptr noundef nonnull align 8 dereferenceable(32) %ref.tmp109, ptr noundef %cond)
          to label %invoke.cont116 unwind label %lpad113

invoke.cont116:                                   ; preds = %invoke.cont114
  call void @_ZNSt7__cxx1112basic_stringIcSt11char_traitsIcESaIcEED1Ev(ptr noundef nonnull align 8 dereferenceable(32) %ref.tmp109) #13
  call void @_ZNSaIcED1Ev(ptr noundef nonnull align 1 dereferenceable(1) %ref.tmp110) #13
  br label %return

lpad111:                                          ; preds = %if.then108
  %62 = landingpad { ptr, i32 }
          cleanup
  %63 = extractvalue { ptr, i32 } %62, 0
  store ptr %63, ptr %exn.slot, align 8
  %64 = extractvalue { ptr, i32 } %62, 1
  store i32 %64, ptr %ehselector.slot, align 4
  br label %ehcleanup118

lpad113:                                          ; preds = %invoke.cont114, %invoke.cont112
  %65 = landingpad { ptr, i32 }
          cleanup
  %66 = extractvalue { ptr, i32 } %65, 0
  store ptr %66, ptr %exn.slot, align 8
  %67 = extractvalue { ptr, i32 } %65, 1
  store i32 %67, ptr %ehselector.slot, align 4
  call void @_ZNSt7__cxx1112basic_stringIcSt11char_traitsIcESaIcEED1Ev(ptr noundef nonnull align 8 dereferenceable(32) %ref.tmp109) #13
  br label %ehcleanup118

ehcleanup118:                                     ; preds = %lpad113, %lpad111
  call void @_ZNSaIcED1Ev(ptr noundef nonnull align 1 dereferenceable(1) %ref.tmp110) #13
  br label %eh.resume

if.else119:                                       ; preds = %if.else106
  unreachable

return:                                           ; preds = %invoke.cont116, %invoke.cont102, %invoke.cont85, %invoke.cont68, %invoke.cont51, %invoke.cont34, %invoke.cont19, %invoke.cont5, %invoke.cont
  ret void

eh.resume:                                        ; preds = %ehcleanup118, %ehcleanup105, %ehcleanup88, %ehcleanup71, %ehcleanup54, %ehcleanup37, %ehcleanup20, %lpad4, %lpad
  %exn = load ptr, ptr %exn.slot, align 8
  %sel = load i32, ptr %ehselector.slot, align 4
  %lpad.val = insertvalue { ptr, i32 } poison, ptr %exn, 0
  %lpad.val120 = insertvalue { ptr, i32 } %lpad.val, i32 %sel, 1
  resume { ptr, i32 } %lpad.val120
}

; Function Attrs: mustprogress nounwind uwtable
define linkonce_odr hidden noundef zeroext i1 @_ZNK8facebook6hermes7tracing10SynthTrace10TraceValue11isUndefinedEv(ptr noundef nonnull align 8 dereferenceable(16) %this) #0 comdat align 2 {
entry:
  %this.addr = alloca ptr, align 8
  store ptr %this, ptr %this.addr, align 8
  %this1 = load ptr, ptr %this.addr, align 8
  %tag_ = getelementptr inbounds %"class.facebook::hermes::tracing::SynthTrace::TraceValue", ptr %this1, i32 0, i32 0
  %0 = load i32, ptr %tag_, align 8
  %cmp = icmp eq i32 %0, 0
  ret i1 %cmp
}

; Function Attrs: nounwind
declare void @_ZNSaIcEC1Ev(ptr noundef nonnull align 1 dereferenceable(1)) unnamed_addr #3

; Function Attrs: mustprogress uwtable
define linkonce_odr void @_ZNSt7__cxx1112basic_stringIcSt11char_traitsIcESaIcEEC2IS3_EEPKcRKS3_(ptr noundef nonnull align 8 dereferenceable(32) %this, ptr noundef %__s, ptr noundef nonnull align 1 dereferenceable(1) %__a) unnamed_addr #1 comdat align 2 personality ptr @__gxx_personality_v0 {
entry:
  %this.addr = alloca ptr, align 8
  %__s.addr = alloca ptr, align 8
  %__a.addr = alloca ptr, align 8
  %exn.slot = alloca ptr, align 8
  %ehselector.slot = alloca i32, align 4
  %__end = alloca ptr, align 8
  store ptr %this, ptr %this.addr, align 8
  store ptr %__s, ptr %__s.addr, align 8
  store ptr %__a, ptr %__a.addr, align 8
  %this1 = load ptr, ptr %this.addr, align 8
  %_M_dataplus = getelementptr inbounds %"class.std::__cxx11::basic_string", ptr %this1, i32 0, i32 0
  %call = call noundef ptr @_ZNSt7__cxx1112basic_stringIcSt11char_traitsIcESaIcEE13_M_local_dataEv(ptr noundef nonnull align 8 dereferenceable(32) %this1)
  %0 = load ptr, ptr %__a.addr, align 8
  call void @_ZNSt7__cxx1112basic_stringIcSt11char_traitsIcESaIcEE12_Alloc_hiderC1EPcRKS3_(ptr noundef nonnull align 8 dereferenceable(8) %_M_dataplus, ptr noundef %call, ptr noundef nonnull align 1 dereferenceable(1) %0)
  %1 = load ptr, ptr %__s.addr, align 8
  %cmp = icmp eq ptr %1, null
  br i1 %cmp, label %if.then, label %if.end

if.then:                                          ; preds = %entry
  invoke void @_ZSt19__throw_logic_errorPKc(ptr noundef @.str.150) #18
          to label %invoke.cont unwind label %lpad

invoke.cont:                                      ; preds = %if.then
  unreachable

lpad:                                             ; preds = %invoke.cont2, %if.end, %if.then
  %2 = landingpad { ptr, i32 }
          cleanup
  %3 = extractvalue { ptr, i32 } %2, 0
  store ptr %3, ptr %exn.slot, align 8
  %4 = extractvalue { ptr, i32 } %2, 1
  store i32 %4, ptr %ehselector.slot, align 4
  call void @_ZNSt7__cxx1112basic_stringIcSt11char_traitsIcESaIcEE12_Alloc_hiderD2Ev(ptr noundef nonnull align 8 dereferenceable(8) %_M_dataplus) #13
  br label %eh.resume

if.end:                                           ; preds = %entry
  %5 = load ptr, ptr %__s.addr, align 8
  %6 = load ptr, ptr %__s.addr, align 8
  %call3 = invoke noundef i64 @_ZNSt11char_traitsIcE6lengthEPKc(ptr noundef %6)
          to label %invoke.cont2 unwind label %lpad

invoke.cont2:                                     ; preds = %if.end
  %add.ptr = getelementptr inbounds i8, ptr %5, i64 %call3
  store ptr %add.ptr, ptr %__end, align 8
  %7 = load ptr, ptr %__s.addr, align 8
  %8 = load ptr, ptr %__end, align 8
  invoke void @_ZNSt7__cxx1112basic_stringIcSt11char_traitsIcESaIcEE12_M_constructIPKcEEvT_S8_St20forward_iterator_tag(ptr noundef nonnull align 8 dereferenceable(32) %this1, ptr noundef %7, ptr noundef %8)
          to label %invoke.cont4 unwind label %lpad

invoke.cont4:                                     ; preds = %invoke.cont2
  ret void

eh.resume:                                        ; preds = %lpad
  %exn = load ptr, ptr %exn.slot, align 8
  %sel = load i32, ptr %ehselector.slot, align 4
  %lpad.val = insertvalue { ptr, i32 } poison, ptr %exn, 0
  %lpad.val5 = insertvalue { ptr, i32 } %lpad.val, i32 %sel, 1
  resume { ptr, i32 } %lpad.val5
}

; Function Attrs: nounwind
declare void @_ZNSaIcED1Ev(ptr noundef nonnull align 1 dereferenceable(1)) unnamed_addr #3

; Function Attrs: mustprogress nounwind uwtable
define linkonce_odr hidden noundef zeroext i1 @_ZNK8facebook6hermes7tracing10SynthTrace10TraceValue6isNullEv(ptr noundef nonnull align 8 dereferenceable(16) %this) #0 comdat align 2 {
entry:
  %this.addr = alloca ptr, align 8
  store ptr %this, ptr %this.addr, align 8
  %this1 = load ptr, ptr %this.addr, align 8
  %tag_ = getelementptr inbounds %"class.facebook::hermes::tracing::SynthTrace::TraceValue", ptr %this1, i32 0, i32 0
  %0 = load i32, ptr %tag_, align 8
  %cmp = icmp eq i32 %0, 1
  ret i1 %cmp
}

; Function Attrs: mustprogress nounwind uwtable
define linkonce_odr hidden noundef zeroext i1 @_ZNK8facebook6hermes7tracing10SynthTrace10TraceValue8isObjectEv(ptr noundef nonnull align 8 dereferenceable(16) %this) #0 comdat align 2 {
entry:
  %this.addr = alloca ptr, align 8
  store ptr %this, ptr %this.addr, align 8
  %this1 = load ptr, ptr %this.addr, align 8
  %tag_ = getelementptr inbounds %"class.facebook::hermes::tracing::SynthTrace::TraceValue", ptr %this1, i32 0, i32 0
  %0 = load i32, ptr %tag_, align 8
  %cmp = icmp eq i32 %0, 4
  ret i1 %cmp
}

; Function Attrs: mustprogress uwtable
define linkonce_odr void @_ZStplIcSt11char_traitsIcESaIcEENSt7__cxx1112basic_stringIT_T0_T1_EEOS8_S9_(ptr noalias sret(%"class.std::__cxx11::basic_string") align 8 %agg.result, ptr noundef nonnull align 8 dereferenceable(32) %__lhs, ptr noundef nonnull align 8 dereferenceable(32) %__rhs) #1 comdat {
entry:
  %result.ptr = alloca ptr, align 8
  %__lhs.addr = alloca ptr, align 8
  %__rhs.addr = alloca ptr, align 8
  %__use_rhs = alloca i8, align 1
  %__size = alloca i64, align 8
  store ptr %agg.result, ptr %result.ptr, align 8
  store ptr %__lhs, ptr %__lhs.addr, align 8
  store ptr %__rhs, ptr %__rhs.addr, align 8
  store i8 0, ptr %__use_rhs, align 1
  store i8 1, ptr %__use_rhs, align 1
  %0 = load i8, ptr %__use_rhs, align 1
  %tobool = trunc i8 %0 to i1
  br i1 %tobool, label %if.then, label %if.end7

if.then:                                          ; preds = %entry
  %1 = load ptr, ptr %__lhs.addr, align 8
  %call = call noundef i64 @_ZNKSt7__cxx1112basic_stringIcSt11char_traitsIcESaIcEE4sizeEv(ptr noundef nonnull align 8 dereferenceable(32) %1) #13
  %2 = load ptr, ptr %__rhs.addr, align 8
  %call1 = call noundef i64 @_ZNKSt7__cxx1112basic_stringIcSt11char_traitsIcESaIcEE4sizeEv(ptr noundef nonnull align 8 dereferenceable(32) %2) #13
  %add = add i64 %call, %call1
  store i64 %add, ptr %__size, align 8
  %3 = load i64, ptr %__size, align 8
  %4 = load ptr, ptr %__lhs.addr, align 8
  %call2 = call noundef i64 @_ZNKSt7__cxx1112basic_stringIcSt11char_traitsIcESaIcEE8capacityEv(ptr noundef nonnull align 8 dereferenceable(32) %4) #13
  %cmp = icmp ugt i64 %3, %call2
  br i1 %cmp, label %land.lhs.true, label %if.end

land.lhs.true:                                    ; preds = %if.then
  %5 = load i64, ptr %__size, align 8
  %6 = load ptr, ptr %__rhs.addr, align 8
  %call3 = call noundef i64 @_ZNKSt7__cxx1112basic_stringIcSt11char_traitsIcESaIcEE8capacityEv(ptr noundef nonnull align 8 dereferenceable(32) %6) #13
  %cmp4 = icmp ule i64 %5, %call3
  br i1 %cmp4, label %if.then5, label %if.end

if.then5:                                         ; preds = %land.lhs.true
  %7 = load ptr, ptr %__rhs.addr, align 8
  %8 = load ptr, ptr %__lhs.addr, align 8
  %call6 = call noundef nonnull align 8 dereferenceable(32) ptr @_ZNSt7__cxx1112basic_stringIcSt11char_traitsIcESaIcEE6insertEmRKS4_(ptr noundef nonnull align 8 dereferenceable(32) %7, i64 noundef 0, ptr noundef nonnull align 8 dereferenceable(32) %8)
  call void @_ZNSt7__cxx1112basic_stringIcSt11char_traitsIcESaIcEEC1EOS4_(ptr noundef nonnull align 8 dereferenceable(32) %agg.result, ptr noundef nonnull align 8 dereferenceable(32) %call6) #13
  br label %return

if.end:                                           ; preds = %land.lhs.true, %if.then
  br label %if.end7

if.end7:                                          ; preds = %if.end, %entry
  %9 = load ptr, ptr %__lhs.addr, align 8
  %10 = load ptr, ptr %__rhs.addr, align 8
  %call8 = call noundef nonnull align 8 dereferenceable(32) ptr @_ZNSt7__cxx1112basic_stringIcSt11char_traitsIcESaIcEE6appendERKS4_(ptr noundef nonnull align 8 dereferenceable(32) %9, ptr noundef nonnull align 8 dereferenceable(32) %10)
  call void @_ZNSt7__cxx1112basic_stringIcSt11char_traitsIcESaIcEEC1EOS4_(ptr noundef nonnull align 8 dereferenceable(32) %agg.result, ptr noundef nonnull align 8 dereferenceable(32) %call8) #13
  br label %return

return:                                           ; preds = %if.end7, %if.then5
  ret void
}

; Function Attrs: mustprogress uwtable
define linkonce_odr void @_ZNSt7__cxx119to_stringEm(ptr noalias sret(%"class.std::__cxx11::basic_string") align 8 %agg.result, i64 noundef %__val) #1 comdat personality ptr @__gxx_personality_v0 {
entry:
  %result.ptr = alloca ptr, align 8
  %__val.addr = alloca i64, align 8
  %nrvo = alloca i1, align 1
  %ref.tmp = alloca %"class.std::allocator.10", align 1
  %exn.slot = alloca ptr, align 8
  %ehselector.slot = alloca i32, align 4
  store ptr %agg.result, ptr %result.ptr, align 8
  store i64 %__val, ptr %__val.addr, align 8
  store i1 false, ptr %nrvo, align 1
  %0 = load i64, ptr %__val.addr, align 8
  %call = call noundef i32 @_ZNSt8__detail14__to_chars_lenImEEjT_i(i64 noundef %0, i32 noundef 10) #13
  %conv = zext i32 %call to i64
  call void @_ZNSaIcEC1Ev(ptr noundef nonnull align 1 dereferenceable(1) %ref.tmp) #13
  invoke void @_ZNSt7__cxx1112basic_stringIcSt11char_traitsIcESaIcEEC2IS3_EEmcRKS3_(ptr noundef nonnull align 8 dereferenceable(32) %agg.result, i64 noundef %conv, i8 noundef signext 0, ptr noundef nonnull align 1 dereferenceable(1) %ref.tmp)
          to label %invoke.cont unwind label %lpad

invoke.cont:                                      ; preds = %entry
  call void @_ZNSaIcED1Ev(ptr noundef nonnull align 1 dereferenceable(1) %ref.tmp) #13
  %call3 = invoke noundef nonnull align 1 dereferenceable(1) ptr @_ZNSt7__cxx1112basic_stringIcSt11char_traitsIcESaIcEEixEm(ptr noundef nonnull align 8 dereferenceable(32) %agg.result, i64 noundef 0)
          to label %invoke.cont2 unwind label %lpad1

invoke.cont2:                                     ; preds = %invoke.cont
  %call4 = call noundef i64 @_ZNKSt7__cxx1112basic_stringIcSt11char_traitsIcESaIcEE4sizeEv(ptr noundef nonnull align 8 dereferenceable(32) %agg.result) #13
  %conv5 = trunc i64 %call4 to i32
  %1 = load i64, ptr %__val.addr, align 8
  call void @_ZNSt8__detail18__to_chars_10_implImEEvPcjT_(ptr noundef %call3, i32 noundef %conv5, i64 noundef %1) #13
  store i1 true, ptr %nrvo, align 1
  %nrvo.val = load i1, ptr %nrvo, align 1
  br i1 %nrvo.val, label %nrvo.skipdtor, label %nrvo.unused

lpad:                                             ; preds = %entry
  %2 = landingpad { ptr, i32 }
          cleanup
  %3 = extractvalue { ptr, i32 } %2, 0
  store ptr %3, ptr %exn.slot, align 8
  %4 = extractvalue { ptr, i32 } %2, 1
  store i32 %4, ptr %ehselector.slot, align 4
  call void @_ZNSaIcED1Ev(ptr noundef nonnull align 1 dereferenceable(1) %ref.tmp) #13
  br label %eh.resume

lpad1:                                            ; preds = %invoke.cont
  %5 = landingpad { ptr, i32 }
          cleanup
  %6 = extractvalue { ptr, i32 } %5, 0
  store ptr %6, ptr %exn.slot, align 8
  %7 = extractvalue { ptr, i32 } %5, 1
  store i32 %7, ptr %ehselector.slot, align 4
  call void @_ZNSt7__cxx1112basic_stringIcSt11char_traitsIcESaIcEED1Ev(ptr noundef nonnull align 8 dereferenceable(32) %agg.result) #13
  br label %eh.resume

nrvo.unused:                                      ; preds = %invoke.cont2
  call void @_ZNSt7__cxx1112basic_stringIcSt11char_traitsIcESaIcEED1Ev(ptr noundef nonnull align 8 dereferenceable(32) %agg.result) #13
  br label %nrvo.skipdtor

nrvo.skipdtor:                                    ; preds = %nrvo.unused, %invoke.cont2
  ret void

eh.resume:                                        ; preds = %lpad1, %lpad
  %exn = load ptr, ptr %exn.slot, align 8
  %sel = load i32, ptr %ehselector.slot, align 4
  %lpad.val = insertvalue { ptr, i32 } poison, ptr %exn, 0
  %lpad.val6 = insertvalue { ptr, i32 } %lpad.val, i32 %sel, 1
  resume { ptr, i32 } %lpad.val6
}

; Function Attrs: mustprogress nounwind uwtable
define linkonce_odr hidden noundef i64 @_ZNK8facebook6hermes7tracing10SynthTrace10TraceValue6getUIDEv(ptr noundef nonnull align 8 dereferenceable(16) %this) #0 comdat align 2 {
entry:
  %this.addr = alloca ptr, align 8
  store ptr %this, ptr %this.addr, align 8
  %this1 = load ptr, ptr %this.addr, align 8
  %val_ = getelementptr inbounds %"class.facebook::hermes::tracing::SynthTrace::TraceValue", ptr %this1, i32 0, i32 1
  %0 = load i64, ptr %val_, align 8
  ret i64 %0
}

; Function Attrs: mustprogress nounwind uwtable
define linkonce_odr hidden noundef zeroext i1 @_ZNK8facebook6hermes7tracing10SynthTrace10TraceValue8isBigIntEv(ptr noundef nonnull align 8 dereferenceable(16) %this) #0 comdat align 2 {
entry:
  %this.addr = alloca ptr, align 8
  store ptr %this, ptr %this.addr, align 8
  %this1 = load ptr, ptr %this.addr, align 8
  %tag_ = getelementptr inbounds %"class.facebook::hermes::tracing::SynthTrace::TraceValue", ptr %this1, i32 0, i32 0
  %0 = load i32, ptr %tag_, align 8
  %cmp = icmp eq i32 %0, 8
  ret i1 %cmp
}

; Function Attrs: mustprogress nounwind uwtable
define linkonce_odr hidden noundef zeroext i1 @_ZNK8facebook6hermes7tracing10SynthTrace10TraceValue8isStringEv(ptr noundef nonnull align 8 dereferenceable(16) %this) #0 comdat align 2 {
entry:
  %this.addr = alloca ptr, align 8
  store ptr %this, ptr %this.addr, align 8
  %this1 = load ptr, ptr %this.addr, align 8
  %tag_ = getelementptr inbounds %"class.facebook::hermes::tracing::SynthTrace::TraceValue", ptr %this1, i32 0, i32 0
  %0 = load i32, ptr %tag_, align 8
  %cmp = icmp eq i32 %0, 5
  ret i1 %cmp
}

; Function Attrs: mustprogress nounwind uwtable
define linkonce_odr hidden noundef zeroext i1 @_ZNK8facebook6hermes7tracing10SynthTrace10TraceValue12isPropNameIDEv(ptr noundef nonnull align 8 dereferenceable(16) %this) #0 comdat align 2 {
entry:
  %this.addr = alloca ptr, align 8
  store ptr %this, ptr %this.addr, align 8
  %this1 = load ptr, ptr %this.addr, align 8
  %tag_ = getelementptr inbounds %"class.facebook::hermes::tracing::SynthTrace::TraceValue", ptr %this1, i32 0, i32 0
  %0 = load i32, ptr %tag_, align 8
  %cmp = icmp eq i32 %0, 6
  ret i1 %cmp
}

; Function Attrs: mustprogress nounwind uwtable
define linkonce_odr hidden noundef zeroext i1 @_ZNK8facebook6hermes7tracing10SynthTrace10TraceValue8isSymbolEv(ptr noundef nonnull align 8 dereferenceable(16) %this) #0 comdat align 2 {
entry:
  %this.addr = alloca ptr, align 8
  store ptr %this, ptr %this.addr, align 8
  %this1 = load ptr, ptr %this.addr, align 8
  %tag_ = getelementptr inbounds %"class.facebook::hermes::tracing::SynthTrace::TraceValue", ptr %this1, i32 0, i32 0
  %0 = load i32, ptr %tag_, align 8
  %cmp = icmp eq i32 %0, 7
  ret i1 %cmp
}

; Function Attrs: mustprogress nounwind uwtable
define linkonce_odr hidden noundef zeroext i1 @_ZNK8facebook6hermes7tracing10SynthTrace10TraceValue8isNumberEv(ptr noundef nonnull align 8 dereferenceable(16) %this) #0 comdat align 2 {
entry:
  %this.addr = alloca ptr, align 8
  store ptr %this, ptr %this.addr, align 8
  %this1 = load ptr, ptr %this.addr, align 8
  %tag_ = getelementptr inbounds %"class.facebook::hermes::tracing::SynthTrace::TraceValue", ptr %this1, i32 0, i32 0
  %0 = load i32, ptr %tag_, align 8
  %cmp = icmp eq i32 %0, 3
  ret i1 %cmp
}

; Function Attrs: mustprogress uwtable
define internal void @_ZN8facebook6hermes7tracing12_GLOBAL__N_113doublePrinterB5cxx11Ed(ptr noalias sret(%"class.std::__cxx11::basic_string") align 8 %agg.result, double noundef %x) #1 personality ptr @__gxx_personality_v0 {
entry:
  %result.ptr = alloca ptr, align 8
  %x.addr = alloca double, align 8
  %nrvo = alloca i1, align 1
  %resultStream = alloca %"class.llvh::raw_string_ostream", align 8
  %exn.slot = alloca ptr, align 8
  %ehselector.slot = alloca i32, align 4
  %agg.tmp = alloca %"class.llvh::Optional", align 8
  %ref.tmp = alloca i64, align 8
  store ptr %agg.result, ptr %result.ptr, align 8
  store double %x, ptr %x.addr, align 8
  store i1 false, ptr %nrvo, align 1
  call void @_ZNSt7__cxx1112basic_stringIcSt11char_traitsIcESaIcEEC1Ev(ptr noundef nonnull align 8 dereferenceable(32) %agg.result) #13
  invoke void @_ZN4llvh18raw_string_ostreamC2ERNSt7__cxx1112basic_stringIcSt11char_traitsIcESaIcEEE(ptr noundef nonnull align 8 dereferenceable(48) %resultStream, ptr noundef nonnull align 8 dereferenceable(32) %agg.result)
          to label %invoke.cont unwind label %lpad

invoke.cont:                                      ; preds = %entry
  %0 = load double, ptr %x.addr, align 8
  %call = invoke noundef i64 @_ZN4llvh12DoubleToBitsEd(double noundef %0)
          to label %invoke.cont2 unwind label %lpad1

invoke.cont2:                                     ; preds = %invoke.cont
  store i64 16, ptr %ref.tmp, align 8
  invoke void @_ZN4llvh8OptionalImEC2EOm(ptr noundef nonnull align 8 dereferenceable(16) %agg.tmp, ptr noundef nonnull align 8 dereferenceable(8) %ref.tmp)
          to label %invoke.cont3 unwind label %lpad1

invoke.cont3:                                     ; preds = %invoke.cont2
  %1 = getelementptr inbounds { i64, i8 }, ptr %agg.tmp, i32 0, i32 0
  %2 = load i64, ptr %1, align 8
  %3 = getelementptr inbounds { i64, i8 }, ptr %agg.tmp, i32 0, i32 1
  %4 = load i8, ptr %3, align 8
  invoke void @_ZN4llvh9write_hexERNS_11raw_ostreamEmNS_13HexPrintStyleENS_8OptionalImEE(ptr noundef nonnull align 8 dereferenceable(36) %resultStream, i64 noundef %call, i32 noundef 3, i64 %2, i8 %4)
          to label %invoke.cont4 unwind label %lpad1

invoke.cont4:                                     ; preds = %invoke.cont3
  invoke void @_ZN4llvh11raw_ostream5flushEv(ptr noundef nonnull align 8 dereferenceable(36) %resultStream)
          to label %invoke.cont5 unwind label %lpad1

invoke.cont5:                                     ; preds = %invoke.cont4
  store i1 true, ptr %nrvo, align 1
  call void @_ZN4llvh18raw_string_ostreamD1Ev(ptr noundef nonnull align 8 dereferenceable(48) %resultStream) #13
  %nrvo.val = load i1, ptr %nrvo, align 1
  br i1 %nrvo.val, label %nrvo.skipdtor, label %nrvo.unused

lpad:                                             ; preds = %entry
  %5 = landingpad { ptr, i32 }
          cleanup
  %6 = extractvalue { ptr, i32 } %5, 0
  store ptr %6, ptr %exn.slot, align 8
  %7 = extractvalue { ptr, i32 } %5, 1
  store i32 %7, ptr %ehselector.slot, align 4
  br label %ehcleanup

lpad1:                                            ; preds = %invoke.cont4, %invoke.cont3, %invoke.cont2, %invoke.cont
  %8 = landingpad { ptr, i32 }
          cleanup
  %9 = extractvalue { ptr, i32 } %8, 0
  store ptr %9, ptr %exn.slot, align 8
  %10 = extractvalue { ptr, i32 } %8, 1
  store i32 %10, ptr %ehselector.slot, align 4
  call void @_ZN4llvh18raw_string_ostreamD1Ev(ptr noundef nonnull align 8 dereferenceable(48) %resultStream) #13
  br label %ehcleanup

nrvo.unused:                                      ; preds = %invoke.cont5
  call void @_ZNSt7__cxx1112basic_stringIcSt11char_traitsIcESaIcEED1Ev(ptr noundef nonnull align 8 dereferenceable(32) %agg.result) #13
  br label %nrvo.skipdtor

nrvo.skipdtor:                                    ; preds = %nrvo.unused, %invoke.cont5
  ret void

ehcleanup:                                        ; preds = %lpad1, %lpad
  call void @_ZNSt7__cxx1112basic_stringIcSt11char_traitsIcESaIcEED1Ev(ptr noundef nonnull align 8 dereferenceable(32) %agg.result) #13
  br label %eh.resume

eh.resume:                                        ; preds = %ehcleanup
  %exn = load ptr, ptr %exn.slot, align 8
  %sel = load i32, ptr %ehselector.slot, align 4
  %lpad.val = insertvalue { ptr, i32 } poison, ptr %exn, 0
  %lpad.val6 = insertvalue { ptr, i32 } %lpad.val, i32 %sel, 1
  resume { ptr, i32 } %lpad.val6
}

; Function Attrs: mustprogress nounwind uwtable
define linkonce_odr hidden noundef double @_ZNK8facebook6hermes7tracing10SynthTrace10TraceValue9getNumberEv(ptr noundef nonnull align 8 dereferenceable(16) %this) #0 comdat align 2 {
entry:
  %this.addr = alloca ptr, align 8
  store ptr %this, ptr %this.addr, align 8
  %this1 = load ptr, ptr %this.addr, align 8
  %val_ = getelementptr inbounds %"class.facebook::hermes::tracing::SynthTrace::TraceValue", ptr %this1, i32 0, i32 1
  %0 = load double, ptr %val_, align 8
  ret double %0
}

; Function Attrs: mustprogress nounwind uwtable
define linkonce_odr hidden noundef zeroext i1 @_ZNK8facebook6hermes7tracing10SynthTrace10TraceValue6isBoolEv(ptr noundef nonnull align 8 dereferenceable(16) %this) #0 comdat align 2 {
entry:
  %this.addr = alloca ptr, align 8
  store ptr %this, ptr %this.addr, align 8
  %this1 = load ptr, ptr %this.addr, align 8
  %tag_ = getelementptr inbounds %"class.facebook::hermes::tracing::SynthTrace::TraceValue", ptr %this1, i32 0, i32 0
  %0 = load i32, ptr %tag_, align 8
  %cmp = icmp eq i32 %0, 2
  ret i1 %cmp
}

; Function Attrs: mustprogress uwtable
define linkonce_odr void @_ZStplIcSt11char_traitsIcESaIcEENSt7__cxx1112basic_stringIT_T0_T1_EEOS8_PKS5_(ptr noalias sret(%"class.std::__cxx11::basic_string") align 8 %agg.result, ptr noundef nonnull align 8 dereferenceable(32) %__lhs, ptr noundef %__rhs) #1 comdat {
entry:
  %result.ptr = alloca ptr, align 8
  %__lhs.addr = alloca ptr, align 8
  %__rhs.addr = alloca ptr, align 8
  store ptr %agg.result, ptr %result.ptr, align 8
  store ptr %__lhs, ptr %__lhs.addr, align 8
  store ptr %__rhs, ptr %__rhs.addr, align 8
  %0 = load ptr, ptr %__lhs.addr, align 8
  %1 = load ptr, ptr %__rhs.addr, align 8
  %call = call noundef nonnull align 8 dereferenceable(32) ptr @_ZNSt7__cxx1112basic_stringIcSt11char_traitsIcESaIcEE6appendEPKc(ptr noundef nonnull align 8 dereferenceable(32) %0, ptr noundef %1)
  call void @_ZNSt7__cxx1112basic_stringIcSt11char_traitsIcESaIcEEC1EOS4_(ptr noundef nonnull align 8 dereferenceable(32) %agg.result, ptr noundef nonnull align 8 dereferenceable(32) %call) #13
  ret void
}

; Function Attrs: mustprogress nounwind uwtable
define linkonce_odr hidden noundef zeroext i1 @_ZNK8facebook6hermes7tracing10SynthTrace10TraceValue7getBoolEv(ptr noundef nonnull align 8 dereferenceable(16) %this) #0 comdat align 2 {
entry:
  %this.addr = alloca ptr, align 8
  store ptr %this, ptr %this.addr, align 8
  %this1 = load ptr, ptr %this.addr, align 8
  %val_ = getelementptr inbounds %"class.facebook::hermes::tracing::SynthTrace::TraceValue", ptr %this1, i32 0, i32 1
  %0 = load i8, ptr %val_, align 8
  %tobool = trunc i8 %0 to i1
  ret i1 %tobool
}

; Function Attrs: mustprogress uwtable
define hidden { i32, i64 } @_ZN8facebook6hermes7tracing10SynthTrace6decodeERKNSt7__cxx1112basic_stringIcSt11char_traitsIcESaIcEEE(ptr noundef nonnull align 8 dereferenceable(32) %str) #1 align 2 personality ptr @__gxx_personality_v0 {
entry:
  %retval = alloca %"class.facebook::hermes::tracing::SynthTrace::TraceValue", align 8
  %str.addr = alloca ptr, align 8
  %location = alloca i64, align 8
  %tag = alloca %"class.std::__cxx11::basic_string", align 8
  %agg.tmp = alloca %"class.__gnu_cxx::__normal_iterator", align 8
  %agg.tmp2 = alloca %"class.__gnu_cxx::__normal_iterator", align 8
  %ref.tmp = alloca %"class.__gnu_cxx::__normal_iterator", align 8
  %ref.tmp7 = alloca %"class.std::allocator.10", align 1
  %exn.slot = alloca ptr, align 8
  %ehselector.slot = alloca i32, align 4
  %rest = alloca %"class.std::__cxx11::basic_string", align 8
  %agg.tmp10 = alloca %"class.__gnu_cxx::__normal_iterator", align 8
  %ref.tmp11 = alloca %"class.__gnu_cxx::__normal_iterator", align 8
  %ref.tmp12 = alloca %"class.__gnu_cxx::__normal_iterator", align 8
  %agg.tmp19 = alloca %"class.__gnu_cxx::__normal_iterator", align 8
  %ref.tmp22 = alloca %"class.std::allocator.10", align 1
  %cleanup.dest.slot = alloca i32, align 4
  store ptr %str, ptr %str.addr, align 8
  %0 = load ptr, ptr %str.addr, align 8
  %call = call noundef i64 @_ZNKSt7__cxx1112basic_stringIcSt11char_traitsIcESaIcEE4findEcm(ptr noundef nonnull align 8 dereferenceable(32) %0, i8 noundef signext 58, i64 noundef 0) #13
  store i64 %call, ptr %location, align 8
  %1 = load ptr, ptr %str.addr, align 8
  %call1 = call ptr @_ZNKSt7__cxx1112basic_stringIcSt11char_traitsIcESaIcEE5beginEv(ptr noundef nonnull align 8 dereferenceable(32) %1) #13
  %coerce.dive = getelementptr inbounds %"class.__gnu_cxx::__normal_iterator", ptr %agg.tmp, i32 0, i32 0
  store ptr %call1, ptr %coerce.dive, align 8
  %2 = load ptr, ptr %str.addr, align 8
  %call3 = call ptr @_ZNKSt7__cxx1112basic_stringIcSt11char_traitsIcESaIcEE5beginEv(ptr noundef nonnull align 8 dereferenceable(32) %2) #13
  %coerce.dive4 = getelementptr inbounds %"class.__gnu_cxx::__normal_iterator", ptr %ref.tmp, i32 0, i32 0
  store ptr %call3, ptr %coerce.dive4, align 8
  %3 = load i64, ptr %location, align 8
  %call5 = call ptr @_ZNK9__gnu_cxx17__normal_iteratorIPKcNSt7__cxx1112basic_stringIcSt11char_traitsIcESaIcEEEEplEl(ptr noundef nonnull align 8 dereferenceable(8) %ref.tmp, i64 noundef %3) #13
  %coerce.dive6 = getelementptr inbounds %"class.__gnu_cxx::__normal_iterator", ptr %agg.tmp2, i32 0, i32 0
  store ptr %call5, ptr %coerce.dive6, align 8
  call void @_ZNSaIcEC1Ev(ptr noundef nonnull align 1 dereferenceable(1) %ref.tmp7) #13
  %coerce.dive8 = getelementptr inbounds %"class.__gnu_cxx::__normal_iterator", ptr %agg.tmp, i32 0, i32 0
  %4 = load ptr, ptr %coerce.dive8, align 8
  %coerce.dive9 = getelementptr inbounds %"class.__gnu_cxx::__normal_iterator", ptr %agg.tmp2, i32 0, i32 0
  %5 = load ptr, ptr %coerce.dive9, align 8
  invoke void @_ZNSt7__cxx1112basic_stringIcSt11char_traitsIcESaIcEEC2IN9__gnu_cxx17__normal_iteratorIPKcS4_EEvEET_SB_RKS3_(ptr noundef nonnull align 8 dereferenceable(32) %tag, ptr %4, ptr %5, ptr noundef nonnull align 1 dereferenceable(1) %ref.tmp7)
          to label %invoke.cont unwind label %lpad

invoke.cont:                                      ; preds = %entry
  call void @_ZNSaIcED1Ev(ptr noundef nonnull align 1 dereferenceable(1) %ref.tmp7) #13
  %6 = load ptr, ptr %str.addr, align 8
  %call13 = call ptr @_ZNKSt7__cxx1112basic_stringIcSt11char_traitsIcESaIcEE5beginEv(ptr noundef nonnull align 8 dereferenceable(32) %6) #13
  %coerce.dive14 = getelementptr inbounds %"class.__gnu_cxx::__normal_iterator", ptr %ref.tmp12, i32 0, i32 0
  store ptr %call13, ptr %coerce.dive14, align 8
  %7 = load i64, ptr %location, align 8
  %call15 = call ptr @_ZNK9__gnu_cxx17__normal_iteratorIPKcNSt7__cxx1112basic_stringIcSt11char_traitsIcESaIcEEEEplEl(ptr noundef nonnull align 8 dereferenceable(8) %ref.tmp12, i64 noundef %7) #13
  %coerce.dive16 = getelementptr inbounds %"class.__gnu_cxx::__normal_iterator", ptr %ref.tmp11, i32 0, i32 0
  store ptr %call15, ptr %coerce.dive16, align 8
  %call17 = call ptr @_ZNK9__gnu_cxx17__normal_iteratorIPKcNSt7__cxx1112basic_stringIcSt11char_traitsIcESaIcEEEEplEl(ptr noundef nonnull align 8 dereferenceable(8) %ref.tmp11, i64 noundef 1) #13
  %coerce.dive18 = getelementptr inbounds %"class.__gnu_cxx::__normal_iterator", ptr %agg.tmp10, i32 0, i32 0
  store ptr %call17, ptr %coerce.dive18, align 8
  %8 = load ptr, ptr %str.addr, align 8
  %call20 = call ptr @_ZNKSt7__cxx1112basic_stringIcSt11char_traitsIcESaIcEE3endEv(ptr noundef nonnull align 8 dereferenceable(32) %8) #13
  %coerce.dive21 = getelementptr inbounds %"class.__gnu_cxx::__normal_iterator", ptr %agg.tmp19, i32 0, i32 0
  store ptr %call20, ptr %coerce.dive21, align 8
  call void @_ZNSaIcEC1Ev(ptr noundef nonnull align 1 dereferenceable(1) %ref.tmp22) #13
  %coerce.dive23 = getelementptr inbounds %"class.__gnu_cxx::__normal_iterator", ptr %agg.tmp10, i32 0, i32 0
  %9 = load ptr, ptr %coerce.dive23, align 8
  %coerce.dive24 = getelementptr inbounds %"class.__gnu_cxx::__normal_iterator", ptr %agg.tmp19, i32 0, i32 0
  %10 = load ptr, ptr %coerce.dive24, align 8
  invoke void @_ZNSt7__cxx1112basic_stringIcSt11char_traitsIcESaIcEEC2IN9__gnu_cxx17__normal_iteratorIPKcS4_EEvEET_SB_RKS3_(ptr noundef nonnull align 8 dereferenceable(32) %rest, ptr %9, ptr %10, ptr noundef nonnull align 1 dereferenceable(1) %ref.tmp22)
          to label %invoke.cont26 unwind label %lpad25

invoke.cont26:                                    ; preds = %invoke.cont
  call void @_ZNSaIcED1Ev(ptr noundef nonnull align 1 dereferenceable(1) %ref.tmp22) #13
  %call29 = invoke noundef zeroext i1 @_ZSteqIcSt11char_traitsIcESaIcEEbRKNSt7__cxx1112basic_stringIT_T0_T1_EEPKS5_(ptr noundef nonnull align 8 dereferenceable(32) %tag, ptr noundef @.str.40)
          to label %invoke.cont28 unwind label %lpad27

invoke.cont28:                                    ; preds = %invoke.cont26
  br i1 %call29, label %if.then, label %if.else

if.then:                                          ; preds = %invoke.cont28
  %call31 = invoke { i32, i64 } @_ZN8facebook6hermes7tracing10SynthTrace15encodeUndefinedEv()
          to label %invoke.cont30 unwind label %lpad27

invoke.cont30:                                    ; preds = %if.then
  %11 = getelementptr inbounds { i32, i64 }, ptr %retval, i32 0, i32 0
  %12 = extractvalue { i32, i64 } %call31, 0
  store i32 %12, ptr %11, align 8
  %13 = getelementptr inbounds { i32, i64 }, ptr %retval, i32 0, i32 1
  %14 = extractvalue { i32, i64 } %call31, 1
  store i64 %14, ptr %13, align 8
  store i32 1, ptr %cleanup.dest.slot, align 4
  br label %cleanup

lpad:                                             ; preds = %entry
  %15 = landingpad { ptr, i32 }
          cleanup
  %16 = extractvalue { ptr, i32 } %15, 0
  store ptr %16, ptr %exn.slot, align 8
  %17 = extractvalue { ptr, i32 } %15, 1
  store i32 %17, ptr %ehselector.slot, align 4
  call void @_ZNSaIcED1Ev(ptr noundef nonnull align 1 dereferenceable(1) %ref.tmp7) #13
  br label %eh.resume

lpad25:                                           ; preds = %invoke.cont
  %18 = landingpad { ptr, i32 }
          cleanup
  %19 = extractvalue { ptr, i32 } %18, 0
  store ptr %19, ptr %exn.slot, align 8
  %20 = extractvalue { ptr, i32 } %18, 1
  store i32 %20, ptr %ehselector.slot, align 4
  call void @_ZNSaIcED1Ev(ptr noundef nonnull align 1 dereferenceable(1) %ref.tmp22) #13
  br label %ehcleanup

lpad27:                                           ; preds = %invoke.cont89, %if.then88, %if.else85, %invoke.cont81, %if.then80, %if.else77, %invoke.cont73, %if.then72, %if.else69, %invoke.cont65, %if.then64, %if.else61, %invoke.cont57, %if.then56, %if.else53, %invoke.cont49, %if.then48, %if.else45, %invoke.cont41, %if.then40, %if.else37, %if.then34, %if.else, %if.then, %invoke.cont26
  %21 = landingpad { ptr, i32 }
          cleanup
  %22 = extractvalue { ptr, i32 } %21, 0
  store ptr %22, ptr %exn.slot, align 8
  %23 = extractvalue { ptr, i32 } %21, 1
  store i32 %23, ptr %ehselector.slot, align 4
  call void @_ZNSt7__cxx1112basic_stringIcSt11char_traitsIcESaIcEED1Ev(ptr noundef nonnull align 8 dereferenceable(32) %rest) #13
  br label %ehcleanup

if.else:                                          ; preds = %invoke.cont28
  %call33 = invoke noundef zeroext i1 @_ZSteqIcSt11char_traitsIcESaIcEEbRKNSt7__cxx1112basic_stringIT_T0_T1_EEPKS5_(ptr noundef nonnull align 8 dereferenceable(32) %tag, ptr noundef @.str.41)
          to label %invoke.cont32 unwind label %lpad27

invoke.cont32:                                    ; preds = %if.else
  br i1 %call33, label %if.then34, label %if.else37

if.then34:                                        ; preds = %invoke.cont32
  %call36 = invoke { i32, i64 } @_ZN8facebook6hermes7tracing10SynthTrace10encodeNullEv()
          to label %invoke.cont35 unwind label %lpad27

invoke.cont35:                                    ; preds = %if.then34
  %24 = getelementptr inbounds { i32, i64 }, ptr %retval, i32 0, i32 0
  %25 = extractvalue { i32, i64 } %call36, 0
  store i32 %25, ptr %24, align 8
  %26 = getelementptr inbounds { i32, i64 }, ptr %retval, i32 0, i32 1
  %27 = extractvalue { i32, i64 } %call36, 1
  store i64 %27, ptr %26, align 8
  store i32 1, ptr %cleanup.dest.slot, align 4
  br label %cleanup

if.else37:                                        ; preds = %invoke.cont32
  %call39 = invoke noundef zeroext i1 @_ZSteqIcSt11char_traitsIcESaIcEEbRKNSt7__cxx1112basic_stringIT_T0_T1_EEPKS5_(ptr noundef nonnull align 8 dereferenceable(32) %tag, ptr noundef @.str.42)
          to label %invoke.cont38 unwind label %lpad27

invoke.cont38:                                    ; preds = %if.else37
  br i1 %call39, label %if.then40, label %if.else45

if.then40:                                        ; preds = %invoke.cont38
  %call42 = invoke noundef zeroext i1 @_ZSteqIcSt11char_traitsIcESaIcEEbRKNSt7__cxx1112basic_stringIT_T0_T1_EEPKS5_(ptr noundef nonnull align 8 dereferenceable(32) %rest, ptr noundef @.str.38)
          to label %invoke.cont41 unwind label %lpad27

invoke.cont41:                                    ; preds = %if.then40
  %call44 = invoke { i32, i64 } @_ZN8facebook6hermes7tracing10SynthTrace10encodeBoolEb(i1 noundef zeroext %call42)
          to label %invoke.cont43 unwind label %lpad27

invoke.cont43:                                    ; preds = %invoke.cont41
  %28 = getelementptr inbounds { i32, i64 }, ptr %retval, i32 0, i32 0
  %29 = extractvalue { i32, i64 } %call44, 0
  store i32 %29, ptr %28, align 8
  %30 = getelementptr inbounds { i32, i64 }, ptr %retval, i32 0, i32 1
  %31 = extractvalue { i32, i64 } %call44, 1
  store i64 %31, ptr %30, align 8
  store i32 1, ptr %cleanup.dest.slot, align 4
  br label %cleanup

if.else45:                                        ; preds = %invoke.cont38
  %call47 = invoke noundef zeroext i1 @_ZSteqIcSt11char_traitsIcESaIcEEbRKNSt7__cxx1112basic_stringIT_T0_T1_EEPKS5_(ptr noundef nonnull align 8 dereferenceable(32) %tag, ptr noundef @.str.43)
          to label %invoke.cont46 unwind label %lpad27

invoke.cont46:                                    ; preds = %if.else45
  br i1 %call47, label %if.then48, label %if.else53

if.then48:                                        ; preds = %invoke.cont46
  %call50 = invoke noundef double @_ZN8facebook6hermes7tracing12_GLOBAL__N_112decodeNumberERKNSt7__cxx1112basic_stringIcSt11char_traitsIcESaIcEEE(ptr noundef nonnull align 8 dereferenceable(32) %rest)
          to label %invoke.cont49 unwind label %lpad27

invoke.cont49:                                    ; preds = %if.then48
  %call52 = invoke { i32, i64 } @_ZN8facebook6hermes7tracing10SynthTrace12encodeNumberEd(double noundef %call50)
          to label %invoke.cont51 unwind label %lpad27

invoke.cont51:                                    ; preds = %invoke.cont49
  %32 = getelementptr inbounds { i32, i64 }, ptr %retval, i32 0, i32 0
  %33 = extractvalue { i32, i64 } %call52, 0
  store i32 %33, ptr %32, align 8
  %34 = getelementptr inbounds { i32, i64 }, ptr %retval, i32 0, i32 1
  %35 = extractvalue { i32, i64 } %call52, 1
  store i64 %35, ptr %34, align 8
  store i32 1, ptr %cleanup.dest.slot, align 4
  br label %cleanup

if.else53:                                        ; preds = %invoke.cont46
  %call55 = invoke noundef zeroext i1 @_ZSteqIcSt11char_traitsIcESaIcEEbRKNSt7__cxx1112basic_stringIT_T0_T1_EEPKS5_(ptr noundef nonnull align 8 dereferenceable(32) %tag, ptr noundef @.str.44)
          to label %invoke.cont54 unwind label %lpad27

invoke.cont54:                                    ; preds = %if.else53
  br i1 %call55, label %if.then56, label %if.else61

if.then56:                                        ; preds = %invoke.cont54
  %call58 = invoke noundef i64 @_ZN8facebook6hermes7tracing12_GLOBAL__N_18decodeIDERKNSt7__cxx1112basic_stringIcSt11char_traitsIcESaIcEEE(ptr noundef nonnull align 8 dereferenceable(32) %rest)
          to label %invoke.cont57 unwind label %lpad27

invoke.cont57:                                    ; preds = %if.then56
  %call60 = invoke { i32, i64 } @_ZN8facebook6hermes7tracing10SynthTrace12encodeObjectEm(i64 noundef %call58)
          to label %invoke.cont59 unwind label %lpad27

invoke.cont59:                                    ; preds = %invoke.cont57
  %36 = getelementptr inbounds { i32, i64 }, ptr %retval, i32 0, i32 0
  %37 = extractvalue { i32, i64 } %call60, 0
  store i32 %37, ptr %36, align 8
  %38 = getelementptr inbounds { i32, i64 }, ptr %retval, i32 0, i32 1
  %39 = extractvalue { i32, i64 } %call60, 1
  store i64 %39, ptr %38, align 8
  store i32 1, ptr %cleanup.dest.slot, align 4
  br label %cleanup

if.else61:                                        ; preds = %invoke.cont54
  %call63 = invoke noundef zeroext i1 @_ZSteqIcSt11char_traitsIcESaIcEEbRKNSt7__cxx1112basic_stringIT_T0_T1_EEPKS5_(ptr noundef nonnull align 8 dereferenceable(32) %tag, ptr noundef @.str.45)
          to label %invoke.cont62 unwind label %lpad27

invoke.cont62:                                    ; preds = %if.else61
  br i1 %call63, label %if.then64, label %if.else69

if.then64:                                        ; preds = %invoke.cont62
  %call66 = invoke noundef i64 @_ZN8facebook6hermes7tracing12_GLOBAL__N_18decodeIDERKNSt7__cxx1112basic_stringIcSt11char_traitsIcESaIcEEE(ptr noundef nonnull align 8 dereferenceable(32) %rest)
          to label %invoke.cont65 unwind label %lpad27

invoke.cont65:                                    ; preds = %if.then64
  %call68 = invoke { i32, i64 } @_ZN8facebook6hermes7tracing10SynthTrace12encodeStringEm(i64 noundef %call66)
          to label %invoke.cont67 unwind label %lpad27

invoke.cont67:                                    ; preds = %invoke.cont65
  %40 = getelementptr inbounds { i32, i64 }, ptr %retval, i32 0, i32 0
  %41 = extractvalue { i32, i64 } %call68, 0
  store i32 %41, ptr %40, align 8
  %42 = getelementptr inbounds { i32, i64 }, ptr %retval, i32 0, i32 1
  %43 = extractvalue { i32, i64 } %call68, 1
  store i64 %43, ptr %42, align 8
  store i32 1, ptr %cleanup.dest.slot, align 4
  br label %cleanup

if.else69:                                        ; preds = %invoke.cont62
  %call71 = invoke noundef zeroext i1 @_ZSteqIcSt11char_traitsIcESaIcEEbRKNSt7__cxx1112basic_stringIT_T0_T1_EEPKS5_(ptr noundef nonnull align 8 dereferenceable(32) %tag, ptr noundef @.str.46)
          to label %invoke.cont70 unwind label %lpad27

invoke.cont70:                                    ; preds = %if.else69
  br i1 %call71, label %if.then72, label %if.else77

if.then72:                                        ; preds = %invoke.cont70
  %call74 = invoke noundef i64 @_ZN8facebook6hermes7tracing12_GLOBAL__N_18decodeIDERKNSt7__cxx1112basic_stringIcSt11char_traitsIcESaIcEEE(ptr noundef nonnull align 8 dereferenceable(32) %rest)
          to label %invoke.cont73 unwind label %lpad27

invoke.cont73:                                    ; preds = %if.then72
  %call76 = invoke { i32, i64 } @_ZN8facebook6hermes7tracing10SynthTrace12encodeBigIntEm(i64 noundef %call74)
          to label %invoke.cont75 unwind label %lpad27

invoke.cont75:                                    ; preds = %invoke.cont73
  %44 = getelementptr inbounds { i32, i64 }, ptr %retval, i32 0, i32 0
  %45 = extractvalue { i32, i64 } %call76, 0
  store i32 %45, ptr %44, align 8
  %46 = getelementptr inbounds { i32, i64 }, ptr %retval, i32 0, i32 1
  %47 = extractvalue { i32, i64 } %call76, 1
  store i64 %47, ptr %46, align 8
  store i32 1, ptr %cleanup.dest.slot, align 4
  br label %cleanup

if.else77:                                        ; preds = %invoke.cont70
  %call79 = invoke noundef zeroext i1 @_ZSteqIcSt11char_traitsIcESaIcEEbRKNSt7__cxx1112basic_stringIT_T0_T1_EEPKS5_(ptr noundef nonnull align 8 dereferenceable(32) %tag, ptr noundef @.str.47)
          to label %invoke.cont78 unwind label %lpad27

invoke.cont78:                                    ; preds = %if.else77
  br i1 %call79, label %if.then80, label %if.else85

if.then80:                                        ; preds = %invoke.cont78
  %call82 = invoke noundef i64 @_ZN8facebook6hermes7tracing12_GLOBAL__N_18decodeIDERKNSt7__cxx1112basic_stringIcSt11char_traitsIcESaIcEEE(ptr noundef nonnull align 8 dereferenceable(32) %rest)
          to label %invoke.cont81 unwind label %lpad27

invoke.cont81:                                    ; preds = %if.then80
  %call84 = invoke { i32, i64 } @_ZN8facebook6hermes7tracing10SynthTrace16encodePropNameIDEm(i64 noundef %call82)
          to label %invoke.cont83 unwind label %lpad27

invoke.cont83:                                    ; preds = %invoke.cont81
  %48 = getelementptr inbounds { i32, i64 }, ptr %retval, i32 0, i32 0
  %49 = extractvalue { i32, i64 } %call84, 0
  store i32 %49, ptr %48, align 8
  %50 = getelementptr inbounds { i32, i64 }, ptr %retval, i32 0, i32 1
  %51 = extractvalue { i32, i64 } %call84, 1
  store i64 %51, ptr %50, align 8
  store i32 1, ptr %cleanup.dest.slot, align 4
  br label %cleanup

if.else85:                                        ; preds = %invoke.cont78
  %call87 = invoke noundef zeroext i1 @_ZSteqIcSt11char_traitsIcESaIcEEbRKNSt7__cxx1112basic_stringIT_T0_T1_EEPKS5_(ptr noundef nonnull align 8 dereferenceable(32) %tag, ptr noundef @.str.48)
          to label %invoke.cont86 unwind label %lpad27

invoke.cont86:                                    ; preds = %if.else85
  br i1 %call87, label %if.then88, label %if.else93

if.then88:                                        ; preds = %invoke.cont86
  %call90 = invoke noundef i64 @_ZN8facebook6hermes7tracing12_GLOBAL__N_18decodeIDERKNSt7__cxx1112basic_stringIcSt11char_traitsIcESaIcEEE(ptr noundef nonnull align 8 dereferenceable(32) %rest)
          to label %invoke.cont89 unwind label %lpad27

invoke.cont89:                                    ; preds = %if.then88
  %call92 = invoke { i32, i64 } @_ZN8facebook6hermes7tracing10SynthTrace12encodeSymbolEm(i64 noundef %call90)
          to label %invoke.cont91 unwind label %lpad27

invoke.cont91:                                    ; preds = %invoke.cont89
  %52 = getelementptr inbounds { i32, i64 }, ptr %retval, i32 0, i32 0
  %53 = extractvalue { i32, i64 } %call92, 0
  store i32 %53, ptr %52, align 8
  %54 = getelementptr inbounds { i32, i64 }, ptr %retval, i32 0, i32 1
  %55 = extractvalue { i32, i64 } %call92, 1
  store i64 %55, ptr %54, align 8
  store i32 1, ptr %cleanup.dest.slot, align 4
  br label %cleanup

if.else93:                                        ; preds = %invoke.cont86
  unreachable

cleanup:                                          ; preds = %invoke.cont91, %invoke.cont83, %invoke.cont75, %invoke.cont67, %invoke.cont59, %invoke.cont51, %invoke.cont43, %invoke.cont35, %invoke.cont30
  call void @_ZNSt7__cxx1112basic_stringIcSt11char_traitsIcESaIcEED1Ev(ptr noundef nonnull align 8 dereferenceable(32) %rest) #13
  call void @_ZNSt7__cxx1112basic_stringIcSt11char_traitsIcESaIcEED1Ev(ptr noundef nonnull align 8 dereferenceable(32) %tag) #13
  %56 = load { i32, i64 }, ptr %retval, align 8
  ret { i32, i64 } %56

ehcleanup:                                        ; preds = %lpad27, %lpad25
  call void @_ZNSt7__cxx1112basic_stringIcSt11char_traitsIcESaIcEED1Ev(ptr noundef nonnull align 8 dereferenceable(32) %tag) #13
  br label %eh.resume

eh.resume:                                        ; preds = %ehcleanup, %lpad
  %exn = load ptr, ptr %exn.slot, align 8
  %sel = load i32, ptr %ehselector.slot, align 4
  %lpad.val = insertvalue { ptr, i32 } poison, ptr %exn, 0
  %lpad.val95 = insertvalue { ptr, i32 } %lpad.val, i32 %sel, 1
  resume { ptr, i32 } %lpad.val95
}

; Function Attrs: nounwind
declare noundef i64 @_ZNKSt7__cxx1112basic_stringIcSt11char_traitsIcESaIcEE4findEcm(ptr noundef nonnull align 8 dereferenceable(32), i8 noundef signext, i64 noundef) #3

; Function Attrs: nounwind
declare ptr @_ZNKSt7__cxx1112basic_stringIcSt11char_traitsIcESaIcEE5beginEv(ptr noundef nonnull align 8 dereferenceable(32)) #3

; Function Attrs: mustprogress nounwind uwtable
define linkonce_odr ptr @_ZNK9__gnu_cxx17__normal_iteratorIPKcNSt7__cxx1112basic_stringIcSt11char_traitsIcESaIcEEEEplEl(ptr noundef nonnull align 8 dereferenceable(8) %this, i64 noundef %__n) #0 comdat align 2 {
entry:
  %retval = alloca %"class.__gnu_cxx::__normal_iterator", align 8
  %this.addr = alloca ptr, align 8
  %__n.addr = alloca i64, align 8
  %ref.tmp = alloca ptr, align 8
  store ptr %this, ptr %this.addr, align 8
  store i64 %__n, ptr %__n.addr, align 8
  %this1 = load ptr, ptr %this.addr, align 8
  %_M_current = getelementptr inbounds %"class.__gnu_cxx::__normal_iterator", ptr %this1, i32 0, i32 0
  %0 = load ptr, ptr %_M_current, align 8
  %1 = load i64, ptr %__n.addr, align 8
  %add.ptr = getelementptr inbounds i8, ptr %0, i64 %1
  store ptr %add.ptr, ptr %ref.tmp, align 8
  call void @_ZN9__gnu_cxx17__normal_iteratorIPKcNSt7__cxx1112basic_stringIcSt11char_traitsIcESaIcEEEEC2ERKS2_(ptr noundef nonnull align 8 dereferenceable(8) %retval, ptr noundef nonnull align 8 dereferenceable(8) %ref.tmp) #13
  %coerce.dive = getelementptr inbounds %"class.__gnu_cxx::__normal_iterator", ptr %retval, i32 0, i32 0
  %2 = load ptr, ptr %coerce.dive, align 8
  ret ptr %2
}

; Function Attrs: mustprogress uwtable
define linkonce_odr void @_ZNSt7__cxx1112basic_stringIcSt11char_traitsIcESaIcEEC2IN9__gnu_cxx17__normal_iteratorIPKcS4_EEvEET_SB_RKS3_(ptr noundef nonnull align 8 dereferenceable(32) %this, ptr %__beg.coerce, ptr %__end.coerce, ptr noundef nonnull align 1 dereferenceable(1) %__a) unnamed_addr #1 comdat align 2 personality ptr @__gxx_personality_v0 {
entry:
  %__beg = alloca %"class.__gnu_cxx::__normal_iterator", align 8
  %__end = alloca %"class.__gnu_cxx::__normal_iterator", align 8
  %this.addr = alloca ptr, align 8
  %__a.addr = alloca ptr, align 8
  %agg.tmp = alloca %"class.__gnu_cxx::__normal_iterator", align 8
  %agg.tmp3 = alloca %"class.__gnu_cxx::__normal_iterator", align 8
  %exn.slot = alloca ptr, align 8
  %ehselector.slot = alloca i32, align 4
  %coerce.dive = getelementptr inbounds %"class.__gnu_cxx::__normal_iterator", ptr %__beg, i32 0, i32 0
  store ptr %__beg.coerce, ptr %coerce.dive, align 8
  %coerce.dive1 = getelementptr inbounds %"class.__gnu_cxx::__normal_iterator", ptr %__end, i32 0, i32 0
  store ptr %__end.coerce, ptr %coerce.dive1, align 8
  store ptr %this, ptr %this.addr, align 8
  store ptr %__a, ptr %__a.addr, align 8
  %this2 = load ptr, ptr %this.addr, align 8
  %_M_dataplus = getelementptr inbounds %"class.std::__cxx11::basic_string", ptr %this2, i32 0, i32 0
  %call = call noundef ptr @_ZNSt7__cxx1112basic_stringIcSt11char_traitsIcESaIcEE13_M_local_dataEv(ptr noundef nonnull align 8 dereferenceable(32) %this2)
  %0 = load ptr, ptr %__a.addr, align 8
  call void @_ZNSt7__cxx1112basic_stringIcSt11char_traitsIcESaIcEE12_Alloc_hiderC1EPcRKS3_(ptr noundef nonnull align 8 dereferenceable(8) %_M_dataplus, ptr noundef %call, ptr noundef nonnull align 1 dereferenceable(1) %0)
  %_M_string_length = getelementptr inbounds %"class.std::__cxx11::basic_string", ptr %this2, i32 0, i32 1
  store i64 0, ptr %_M_string_length, align 8
  call void @llvm.memcpy.p0.p0.i64(ptr align 8 %agg.tmp, ptr align 8 %__beg, i64 8, i1 false)
  call void @llvm.memcpy.p0.p0.i64(ptr align 8 %agg.tmp3, ptr align 8 %__end, i64 8, i1 false)
  invoke void @_ZSt19__iterator_categoryIN9__gnu_cxx17__normal_iteratorIPKcNSt7__cxx1112basic_stringIcSt11char_traitsIcESaIcEEEEEENSt15iterator_traitsIT_E17iterator_categoryERKSC_(ptr noundef nonnull align 8 dereferenceable(8) %__beg)
          to label %invoke.cont unwind label %lpad

invoke.cont:                                      ; preds = %entry
  %coerce.dive5 = getelementptr inbounds %"class.__gnu_cxx::__normal_iterator", ptr %agg.tmp, i32 0, i32 0
  %1 = load ptr, ptr %coerce.dive5, align 8
  %coerce.dive6 = getelementptr inbounds %"class.__gnu_cxx::__normal_iterator", ptr %agg.tmp3, i32 0, i32 0
  %2 = load ptr, ptr %coerce.dive6, align 8
  invoke void @_ZNSt7__cxx1112basic_stringIcSt11char_traitsIcESaIcEE12_M_constructIN9__gnu_cxx17__normal_iteratorIPKcS4_EEEEvT_SB_St20forward_iterator_tag(ptr noundef nonnull align 8 dereferenceable(32) %this2, ptr %1, ptr %2)
          to label %invoke.cont7 unwind label %lpad

invoke.cont7:                                     ; preds = %invoke.cont
  ret void

lpad:                                             ; preds = %invoke.cont, %entry
  %3 = landingpad { ptr, i32 }
          cleanup
  %4 = extractvalue { ptr, i32 } %3, 0
  store ptr %4, ptr %exn.slot, align 8
  %5 = extractvalue { ptr, i32 } %3, 1
  store i32 %5, ptr %ehselector.slot, align 4
  call void @_ZNSt7__cxx1112basic_stringIcSt11char_traitsIcESaIcEE12_Alloc_hiderD2Ev(ptr noundef nonnull align 8 dereferenceable(8) %_M_dataplus) #13
  br label %eh.resume

eh.resume:                                        ; preds = %lpad
  %exn = load ptr, ptr %exn.slot, align 8
  %sel = load i32, ptr %ehselector.slot, align 4
  %lpad.val = insertvalue { ptr, i32 } poison, ptr %exn, 0
  %lpad.val8 = insertvalue { ptr, i32 } %lpad.val, i32 %sel, 1
  resume { ptr, i32 } %lpad.val8
}

; Function Attrs: nounwind
declare ptr @_ZNKSt7__cxx1112basic_stringIcSt11char_traitsIcESaIcEE3endEv(ptr noundef nonnull align 8 dereferenceable(32)) #3

; Function Attrs: mustprogress nounwind uwtable
define linkonce_odr noundef zeroext i1 @_ZSteqIcSt11char_traitsIcESaIcEEbRKNSt7__cxx1112basic_stringIT_T0_T1_EEPKS5_(ptr noundef nonnull align 8 dereferenceable(32) %__lhs, ptr noundef %__rhs) #0 comdat {
entry:
  %__lhs.addr = alloca ptr, align 8
  %__rhs.addr = alloca ptr, align 8
  store ptr %__lhs, ptr %__lhs.addr, align 8
  store ptr %__rhs, ptr %__rhs.addr, align 8
  %0 = load ptr, ptr %__lhs.addr, align 8
  %1 = load ptr, ptr %__rhs.addr, align 8
  %call = call noundef i32 @_ZNKSt7__cxx1112basic_stringIcSt11char_traitsIcESaIcEE7compareEPKc(ptr noundef nonnull align 8 dereferenceable(32) %0, ptr noundef %1) #13
  %cmp = icmp eq i32 %call, 0
  ret i1 %cmp
}

; Function Attrs: mustprogress uwtable
define internal noundef double @_ZN8facebook6hermes7tracing12_GLOBAL__N_112decodeNumberERKNSt7__cxx1112basic_stringIcSt11char_traitsIcESaIcEEE(ptr noundef nonnull align 8 dereferenceable(32) %numberAsString) #1 personality ptr @__gxx_personality_v0 {
entry:
  %numberAsString.addr = alloca ptr, align 8
  %ss = alloca %"class.std::__cxx11::basic_stringstream", align 8
  %exn.slot = alloca ptr, align 8
  %ehselector.slot = alloca i32, align 4
  %x = alloca i64, align 8
  store ptr %numberAsString, ptr %numberAsString.addr, align 8
  call void @_ZNSt7__cxx1118basic_stringstreamIcSt11char_traitsIcESaIcEEC1Ev(ptr noundef nonnull align 8 dereferenceable(128) %ss)
  %add.ptr = getelementptr inbounds i8, ptr %ss, i64 16
  %call = invoke noundef nonnull align 8 dereferenceable(8) ptr @_ZNSolsEPFRSt8ios_baseS0_E(ptr noundef nonnull align 8 dereferenceable(8) %add.ptr, ptr noundef @_ZSt3hexRSt8ios_base)
          to label %invoke.cont unwind label %lpad

invoke.cont:                                      ; preds = %entry
  %0 = load ptr, ptr %numberAsString.addr, align 8
  %call2 = invoke noundef nonnull align 8 dereferenceable(8) ptr @_ZStlsIcSt11char_traitsIcESaIcEERSt13basic_ostreamIT_T0_ES7_RKNSt7__cxx1112basic_stringIS4_S5_T1_EE(ptr noundef nonnull align 8 dereferenceable(8) %call, ptr noundef nonnull align 8 dereferenceable(32) %0)
          to label %invoke.cont1 unwind label %lpad

invoke.cont1:                                     ; preds = %invoke.cont
  %call4 = invoke noundef nonnull align 8 dereferenceable(16) ptr @_ZNSirsERm(ptr noundef nonnull align 8 dereferenceable(16) %ss, ptr noundef nonnull align 8 dereferenceable(8) %x)
          to label %invoke.cont3 unwind label %lpad

invoke.cont3:                                     ; preds = %invoke.cont1
  %1 = load i64, ptr %x, align 8
  %call6 = invoke noundef double @_ZN4llvh12BitsToDoubleEm(i64 noundef %1)
          to label %invoke.cont5 unwind label %lpad

invoke.cont5:                                     ; preds = %invoke.cont3
  call void @_ZNSt7__cxx1118basic_stringstreamIcSt11char_traitsIcESaIcEED1Ev(ptr noundef nonnull align 8 dereferenceable(128) %ss) #13
  ret double %call6

lpad:                                             ; preds = %invoke.cont3, %invoke.cont1, %invoke.cont, %entry
  %2 = landingpad { ptr, i32 }
          cleanup
  %3 = extractvalue { ptr, i32 } %2, 0
  store ptr %3, ptr %exn.slot, align 8
  %4 = extractvalue { ptr, i32 } %2, 1
  store i32 %4, ptr %ehselector.slot, align 4
  call void @_ZNSt7__cxx1118basic_stringstreamIcSt11char_traitsIcESaIcEED1Ev(ptr noundef nonnull align 8 dereferenceable(128) %ss) #13
  br label %eh.resume

eh.resume:                                        ; preds = %lpad
  %exn = load ptr, ptr %exn.slot, align 8
  %sel = load i32, ptr %ehselector.slot, align 4
  %lpad.val = insertvalue { ptr, i32 } poison, ptr %exn, 0
  %lpad.val7 = insertvalue { ptr, i32 } %lpad.val, i32 %sel, 1
  resume { ptr, i32 } %lpad.val7
}

; Function Attrs: mustprogress nounwind uwtable
define internal noundef i64 @_ZN8facebook6hermes7tracing12_GLOBAL__N_18decodeIDERKNSt7__cxx1112basic_stringIcSt11char_traitsIcESaIcEEE(ptr noundef nonnull align 8 dereferenceable(32) %s) #0 {
entry:
  %s.addr = alloca ptr, align 8
  %str_end = alloca ptr, align 8
  %id = alloca i64, align 8
  store ptr %s, ptr %s.addr, align 8
  %0 = load ptr, ptr %s.addr, align 8
  %call = call noundef ptr @_ZNKSt7__cxx1112basic_stringIcSt11char_traitsIcESaIcEE5c_strEv(ptr noundef nonnull align 8 dereferenceable(32) %0) #13
  %call1 = call i64 @strtoll(ptr noundef %call, ptr noundef %str_end, i32 noundef 10) #13
  store i64 %call1, ptr %id, align 8
  %1 = load i64, ptr %id, align 8
  ret i64 %1
}

; Function Attrs: mustprogress uwtable
define hidden void @_ZNK8facebook6hermes7tracing10SynthTrace6Record6toJSONERN6hermes11JSONEmitterE(ptr noundef nonnull align 8 dereferenceable(16) %this, ptr noundef nonnull align 8 dereferenceable(72) %json) #1 align 2 {
entry:
  %this.addr = alloca ptr, align 8
  %json.addr = alloca ptr, align 8
  store ptr %this, ptr %this.addr, align 8
  store ptr %json, ptr %json.addr, align 8
  %this1 = load ptr, ptr %this.addr, align 8
  %0 = load ptr, ptr %json.addr, align 8
  call void @_ZN6hermes11JSONEmitter8openDictEv(ptr noundef nonnull align 8 dereferenceable(72) %0)
  %1 = load ptr, ptr %json.addr, align 8
  %vtable = load ptr, ptr %this1, align 8
  %vfn = getelementptr inbounds ptr, ptr %vtable, i64 6
  %2 = load ptr, ptr %vfn, align 8
  call void %2(ptr noundef nonnull align 8 dereferenceable(16) %this1, ptr noundef nonnull align 8 dereferenceable(72) %1)
  %3 = load ptr, ptr %json.addr, align 8
  call void @_ZN6hermes11JSONEmitter9closeDictEv(ptr noundef nonnull align 8 dereferenceable(72) %3)
  ret void
}

; Function Attrs: mustprogress uwtable
define hidden noundef zeroext i1 @_ZNK8facebook6hermes7tracing10SynthTrace12MarkerRecordeqERKNS2_6RecordE(ptr noundef nonnull align 8 dereferenceable(48) %this, ptr noundef nonnull align 8 dereferenceable(16) %that) unnamed_addr #1 align 2 {
entry:
  %this.addr = alloca ptr, align 8
  %that.addr = alloca ptr, align 8
  store ptr %this, ptr %this.addr, align 8
  store ptr %that, ptr %that.addr, align 8
  %this1 = load ptr, ptr %this.addr, align 8
  %0 = load ptr, ptr %that.addr, align 8
  %call = call noundef zeroext i1 @_ZNK8facebook6hermes7tracing10SynthTrace6RecordeqERKS3_(ptr noundef nonnull align 8 dereferenceable(16) %this1, ptr noundef nonnull align 8 dereferenceable(16) %0)
  br i1 %call, label %land.rhs, label %land.end

land.rhs:                                         ; preds = %entry
  %tag_ = getelementptr inbounds %"struct.facebook::hermes::tracing::SynthTrace::MarkerRecord", ptr %this1, i32 0, i32 1
  %1 = load ptr, ptr %that.addr, align 8
  %2 = call ptr @__dynamic_cast(ptr %1, ptr @_ZTIN8facebook6hermes7tracing10SynthTrace6RecordE, ptr @_ZTIN8facebook6hermes7tracing10SynthTrace12MarkerRecordE, i64 0) #13
  %3 = icmp eq ptr %2, null
  br i1 %3, label %dynamic_cast.bad_cast, label %dynamic_cast.end

dynamic_cast.bad_cast:                            ; preds = %land.rhs
  call void @__cxa_bad_cast() #18
  unreachable

dynamic_cast.end:                                 ; preds = %land.rhs
  %tag_2 = getelementptr inbounds %"struct.facebook::hermes::tracing::SynthTrace::MarkerRecord", ptr %2, i32 0, i32 1
  %call3 = call noundef zeroext i1 @_ZSteqIcEN9__gnu_cxx11__enable_ifIXsr9__is_charIT_EE7__valueEbE6__typeERKNSt7__cxx1112basic_stringIS2_St11char_traitsIS2_ESaIS2_EEESC_(ptr noundef nonnull align 8 dereferenceable(32) %tag_, ptr noundef nonnull align 8 dereferenceable(32) %tag_2) #13
  br label %land.end

land.end:                                         ; preds = %dynamic_cast.end, %entry
  %4 = phi i1 [ false, %entry ], [ %call3, %dynamic_cast.end ]
  ret i1 %4
}

; Function Attrs: mustprogress uwtable
define linkonce_odr hidden noundef zeroext i1 @_ZNK8facebook6hermes7tracing10SynthTrace6RecordeqERKS3_(ptr noundef nonnull align 8 dereferenceable(16) %this, ptr noundef nonnull align 8 dereferenceable(16) %that) unnamed_addr #1 comdat align 2 {
entry:
  %this.addr = alloca ptr, align 8
  %that.addr = alloca ptr, align 8
  store ptr %this, ptr %this.addr, align 8
  store ptr %that, ptr %that.addr, align 8
  %this1 = load ptr, ptr %this.addr, align 8
  %vtable = load ptr, ptr %this1, align 8
  %vfn = getelementptr inbounds ptr, ptr %vtable, i64 2
  %0 = load ptr, ptr %vfn, align 8
  %call = call noundef i32 %0(ptr noundef nonnull align 8 dereferenceable(16) %this1)
  %1 = load ptr, ptr %that.addr, align 8
  %vtable2 = load ptr, ptr %1, align 8
  %vfn3 = getelementptr inbounds ptr, ptr %vtable2, i64 2
  %2 = load ptr, ptr %vfn3, align 8
  %call4 = call noundef i32 %2(ptr noundef nonnull align 8 dereferenceable(16) %1)
  %cmp = icmp eq i32 %call, %call4
  ret i1 %cmp
}

; Function Attrs: mustprogress nounwind uwtable
define linkonce_odr noundef zeroext i1 @_ZSteqIcEN9__gnu_cxx11__enable_ifIXsr9__is_charIT_EE7__valueEbE6__typeERKNSt7__cxx1112basic_stringIS2_St11char_traitsIS2_ESaIS2_EEESC_(ptr noundef nonnull align 8 dereferenceable(32) %__lhs, ptr noundef nonnull align 8 dereferenceable(32) %__rhs) #0 comdat personality ptr @__gxx_personality_v0 {
entry:
  %__lhs.addr = alloca ptr, align 8
  %__rhs.addr = alloca ptr, align 8
  store ptr %__lhs, ptr %__lhs.addr, align 8
  store ptr %__rhs, ptr %__rhs.addr, align 8
  %0 = load ptr, ptr %__lhs.addr, align 8
  %call = call noundef i64 @_ZNKSt7__cxx1112basic_stringIcSt11char_traitsIcESaIcEE4sizeEv(ptr noundef nonnull align 8 dereferenceable(32) %0) #13
  %1 = load ptr, ptr %__rhs.addr, align 8
  %call1 = call noundef i64 @_ZNKSt7__cxx1112basic_stringIcSt11char_traitsIcESaIcEE4sizeEv(ptr noundef nonnull align 8 dereferenceable(32) %1) #13
  %cmp = icmp eq i64 %call, %call1
  br i1 %cmp, label %land.rhs, label %land.end

land.rhs:                                         ; preds = %entry
  %2 = load ptr, ptr %__lhs.addr, align 8
  %call2 = call noundef ptr @_ZNKSt7__cxx1112basic_stringIcSt11char_traitsIcESaIcEE4dataEv(ptr noundef nonnull align 8 dereferenceable(32) %2) #13
  %3 = load ptr, ptr %__rhs.addr, align 8
  %call3 = call noundef ptr @_ZNKSt7__cxx1112basic_stringIcSt11char_traitsIcESaIcEE4dataEv(ptr noundef nonnull align 8 dereferenceable(32) %3) #13
  %4 = load ptr, ptr %__lhs.addr, align 8
  %call4 = call noundef i64 @_ZNKSt7__cxx1112basic_stringIcSt11char_traitsIcESaIcEE4sizeEv(ptr noundef nonnull align 8 dereferenceable(32) %4) #13
  %call5 = invoke noundef i32 @_ZNSt11char_traitsIcE7compareEPKcS2_m(ptr noundef %call2, ptr noundef %call3, i64 noundef %call4)
          to label %invoke.cont unwind label %terminate.lpad

invoke.cont:                                      ; preds = %land.rhs
  %tobool = icmp ne i32 %call5, 0
  %lnot = xor i1 %tobool, true
  br label %land.end

land.end:                                         ; preds = %invoke.cont, %entry
  %5 = phi i1 [ false, %entry ], [ %lnot, %invoke.cont ]
  ret i1 %5

terminate.lpad:                                   ; preds = %land.rhs
  %6 = landingpad { ptr, i32 }
          catch ptr null
  %7 = extractvalue { ptr, i32 } %6, 0
  call void @__clang_call_terminate(ptr %7) #17
  unreachable
}

; Function Attrs: nounwind memory(read)
declare ptr @__dynamic_cast(ptr, ptr, ptr, i64) #4

declare void @__cxa_bad_cast()

; Function Attrs: mustprogress nounwind uwtable
define hidden noundef zeroext i1 @_ZNK8facebook6hermes7tracing10SynthTrace11ReturnMixineqERKS3_(ptr noundef nonnull align 8 dereferenceable(16) %this, ptr noundef nonnull align 8 dereferenceable(16) %that) #0 align 2 {
entry:
  %this.addr = alloca ptr, align 8
  %that.addr = alloca ptr, align 8
  store ptr %this, ptr %this.addr, align 8
  store ptr %that, ptr %that.addr, align 8
  %this1 = load ptr, ptr %this.addr, align 8
  %retVal_ = getelementptr inbounds %"struct.facebook::hermes::tracing::SynthTrace::ReturnMixin", ptr %this1, i32 0, i32 0
  %0 = load ptr, ptr %that.addr, align 8
  %retVal_2 = getelementptr inbounds %"struct.facebook::hermes::tracing::SynthTrace::ReturnMixin", ptr %0, i32 0, i32 0
  %call = call noundef zeroext i1 @_ZNK8facebook6hermes7tracing10SynthTrace10TraceValueeqERKS3_(ptr noundef nonnull align 8 dereferenceable(16) %retVal_, ptr noundef nonnull align 8 dereferenceable(16) %retVal_2)
  ret i1 %call
}

; Function Attrs: mustprogress uwtable
define hidden noundef zeroext i1 @_ZNK8facebook6hermes7tracing10SynthTrace17BeginExecJSRecordeqERKNS2_6RecordE(ptr noundef nonnull align 8 dereferenceable(72) %this, ptr noundef nonnull align 8 dereferenceable(16) %that) unnamed_addr #1 align 2 {
entry:
  %retval = alloca i1, align 1
  %this.addr = alloca ptr, align 8
  %that.addr = alloca ptr, align 8
  %thatCasted = alloca ptr, align 8
  store ptr %this, ptr %this.addr, align 8
  store ptr %that, ptr %that.addr, align 8
  %this1 = load ptr, ptr %this.addr, align 8
  %0 = load ptr, ptr %that.addr, align 8
  %call = call noundef zeroext i1 @_ZNK8facebook6hermes7tracing10SynthTrace6RecordeqERKS3_(ptr noundef nonnull align 8 dereferenceable(16) %this1, ptr noundef nonnull align 8 dereferenceable(16) %0)
  br i1 %call, label %if.end, label %if.then

if.then:                                          ; preds = %entry
  store i1 false, ptr %retval, align 1
  br label %return

if.end:                                           ; preds = %entry
  %1 = load ptr, ptr %that.addr, align 8
  %2 = call ptr @__dynamic_cast(ptr %1, ptr @_ZTIN8facebook6hermes7tracing10SynthTrace6RecordE, ptr @_ZTIN8facebook6hermes7tracing10SynthTrace17BeginExecJSRecordE, i64 0) #13
  %3 = icmp eq ptr %2, null
  br i1 %3, label %dynamic_cast.bad_cast, label %dynamic_cast.end

dynamic_cast.bad_cast:                            ; preds = %if.end
  call void @__cxa_bad_cast() #18
  unreachable

dynamic_cast.end:                                 ; preds = %if.end
  store ptr %2, ptr %thatCasted, align 8
  %sourceURL_ = getelementptr inbounds %"struct.facebook::hermes::tracing::SynthTrace::BeginExecJSRecord", ptr %this1, i32 0, i32 1
  %4 = load ptr, ptr %thatCasted, align 8
  %sourceURL_2 = getelementptr inbounds %"struct.facebook::hermes::tracing::SynthTrace::BeginExecJSRecord", ptr %4, i32 0, i32 1
  %call3 = call noundef zeroext i1 @_ZSteqIcEN9__gnu_cxx11__enable_ifIXsr9__is_charIT_EE7__valueEbE6__typeERKNSt7__cxx1112basic_stringIS2_St11char_traitsIS2_ESaIS2_EEESC_(ptr noundef nonnull align 8 dereferenceable(32) %sourceURL_, ptr noundef nonnull align 8 dereferenceable(32) %sourceURL_2) #13
  br i1 %call3, label %land.lhs.true, label %land.end

land.lhs.true:                                    ; preds = %dynamic_cast.end
  %sourceHash_ = getelementptr inbounds %"struct.facebook::hermes::tracing::SynthTrace::BeginExecJSRecord", ptr %this1, i32 0, i32 2
  %5 = load ptr, ptr %thatCasted, align 8
  %sourceHash_4 = getelementptr inbounds %"struct.facebook::hermes::tracing::SynthTrace::BeginExecJSRecord", ptr %5, i32 0, i32 2
  %call5 = call noundef zeroext i1 @_ZSteqIhLm20EEbRKSt5arrayIT_XT0_EES4_(ptr noundef nonnull align 1 dereferenceable(20) %sourceHash_, ptr noundef nonnull align 1 dereferenceable(20) %sourceHash_4)
  br i1 %call5, label %land.rhs, label %land.end

land.rhs:                                         ; preds = %land.lhs.true
  %sourceIsBytecode_ = getelementptr inbounds %"struct.facebook::hermes::tracing::SynthTrace::BeginExecJSRecord", ptr %this1, i32 0, i32 3
  %6 = load i8, ptr %sourceIsBytecode_, align 4
  %tobool = trunc i8 %6 to i1
  %conv = zext i1 %tobool to i32
  %7 = load ptr, ptr %thatCasted, align 8
  %sourceIsBytecode_6 = getelementptr inbounds %"struct.facebook::hermes::tracing::SynthTrace::BeginExecJSRecord", ptr %7, i32 0, i32 3
  %8 = load i8, ptr %sourceIsBytecode_6, align 4
  %tobool7 = trunc i8 %8 to i1
  %conv8 = zext i1 %tobool7 to i32
  %cmp = icmp eq i32 %conv, %conv8
  br label %land.end

land.end:                                         ; preds = %land.rhs, %land.lhs.true, %dynamic_cast.end
  %9 = phi i1 [ false, %land.lhs.true ], [ false, %dynamic_cast.end ], [ %cmp, %land.rhs ]
  store i1 %9, ptr %retval, align 1
  br label %return

return:                                           ; preds = %land.end, %if.then
  %10 = load i1, ptr %retval, align 1
  ret i1 %10
}

; Function Attrs: mustprogress uwtable
define linkonce_odr noundef zeroext i1 @_ZSteqIhLm20EEbRKSt5arrayIT_XT0_EES4_(ptr noundef nonnull align 1 dereferenceable(20) %__one, ptr noundef nonnull align 1 dereferenceable(20) %__two) #1 comdat {
entry:
  %__one.addr = alloca ptr, align 8
  %__two.addr = alloca ptr, align 8
  store ptr %__one, ptr %__one.addr, align 8
  store ptr %__two, ptr %__two.addr, align 8
  %0 = load ptr, ptr %__one.addr, align 8
  %call = call noundef ptr @_ZNKSt5arrayIhLm20EE5beginEv(ptr noundef nonnull align 1 dereferenceable(20) %0) #13
  %1 = load ptr, ptr %__one.addr, align 8
  %call1 = call noundef ptr @_ZNKSt5arrayIhLm20EE3endEv(ptr noundef nonnull align 1 dereferenceable(20) %1) #13
  %2 = load ptr, ptr %__two.addr, align 8
  %call2 = call noundef ptr @_ZNKSt5arrayIhLm20EE5beginEv(ptr noundef nonnull align 1 dereferenceable(20) %2) #13
  %call3 = call noundef zeroext i1 @_ZSt5equalIPKhS1_EbT_S2_T0_(ptr noundef %call, ptr noundef %call1, ptr noundef %call2)
  ret i1 %call3
}

; Function Attrs: mustprogress uwtable
define hidden noundef zeroext i1 @_ZNK8facebook6hermes7tracing10SynthTrace15EndExecJSRecordeqERKNS2_6RecordE(ptr noundef nonnull align 8 dereferenceable(64) %this, ptr noundef nonnull align 8 dereferenceable(16) %that) unnamed_addr #1 align 2 {
entry:
  %retval = alloca i1, align 1
  %this.addr = alloca ptr, align 8
  %that.addr = alloca ptr, align 8
  %thatCasted = alloca ptr, align 8
  store ptr %this, ptr %this.addr, align 8
  store ptr %that, ptr %that.addr, align 8
  %this1 = load ptr, ptr %this.addr, align 8
  %0 = load ptr, ptr %that.addr, align 8
  %call = call noundef zeroext i1 @_ZNK8facebook6hermes7tracing10SynthTrace6RecordeqERKS3_(ptr noundef nonnull align 8 dereferenceable(16) %this1, ptr noundef nonnull align 8 dereferenceable(16) %0)
  br i1 %call, label %if.end, label %if.then

if.then:                                          ; preds = %entry
  store i1 false, ptr %retval, align 1
  br label %return

if.end:                                           ; preds = %entry
  %1 = load ptr, ptr %that.addr, align 8
  %2 = call ptr @__dynamic_cast(ptr %1, ptr @_ZTIN8facebook6hermes7tracing10SynthTrace6RecordE, ptr @_ZTIN8facebook6hermes7tracing10SynthTrace15EndExecJSRecordE, i64 0) #13
  %3 = icmp eq ptr %2, null
  br i1 %3, label %dynamic_cast.bad_cast, label %dynamic_cast.end

dynamic_cast.bad_cast:                            ; preds = %if.end
  call void @__cxa_bad_cast() #18
  unreachable

dynamic_cast.end:                                 ; preds = %if.end
  store ptr %2, ptr %thatCasted, align 8
  %4 = load ptr, ptr %thatCasted, align 8
  %call2 = call noundef zeroext i1 @_ZNK8facebook6hermes7tracing10SynthTrace12MarkerRecordeqERKNS2_6RecordE(ptr noundef nonnull align 8 dereferenceable(48) %this1, ptr noundef nonnull align 8 dereferenceable(16) %4)
  br i1 %call2, label %land.rhs, label %land.end

land.rhs:                                         ; preds = %dynamic_cast.end
  %add.ptr = getelementptr inbounds i8, ptr %this1, i64 48
  %5 = load ptr, ptr %thatCasted, align 8
  %add.ptr3 = getelementptr inbounds i8, ptr %5, i64 48
  %call4 = call noundef zeroext i1 @_ZNK8facebook6hermes7tracing10SynthTrace11ReturnMixineqERKS3_(ptr noundef nonnull align 8 dereferenceable(16) %add.ptr, ptr noundef nonnull align 8 dereferenceable(16) %add.ptr3)
  br label %land.end

land.end:                                         ; preds = %land.rhs, %dynamic_cast.end
  %6 = phi i1 [ false, %dynamic_cast.end ], [ %call4, %land.rhs ]
  store i1 %6, ptr %retval, align 1
  br label %return

return:                                           ; preds = %land.end, %if.then
  %7 = load i1, ptr %retval, align 1
  ret i1 %7
}

; Function Attrs: mustprogress uwtable
define hidden noundef zeroext i1 @_ZNK8facebook6hermes7tracing10SynthTrace18CreateObjectRecordeqERKNS2_6RecordE(ptr noundef nonnull align 8 dereferenceable(24) %this, ptr noundef nonnull align 8 dereferenceable(16) %that) unnamed_addr #1 align 2 {
entry:
  %retval = alloca i1, align 1
  %this.addr = alloca ptr, align 8
  %that.addr = alloca ptr, align 8
  %thatCasted = alloca ptr, align 8
  store ptr %this, ptr %this.addr, align 8
  store ptr %that, ptr %that.addr, align 8
  %this1 = load ptr, ptr %this.addr, align 8
  %0 = load ptr, ptr %that.addr, align 8
  %call = call noundef zeroext i1 @_ZNK8facebook6hermes7tracing10SynthTrace6RecordeqERKS3_(ptr noundef nonnull align 8 dereferenceable(16) %this1, ptr noundef nonnull align 8 dereferenceable(16) %0)
  br i1 %call, label %if.end, label %if.then

if.then:                                          ; preds = %entry
  store i1 false, ptr %retval, align 1
  br label %return

if.end:                                           ; preds = %entry
  %1 = load ptr, ptr %that.addr, align 8
  %2 = call ptr @__dynamic_cast(ptr %1, ptr @_ZTIN8facebook6hermes7tracing10SynthTrace6RecordE, ptr @_ZTIN8facebook6hermes7tracing10SynthTrace18CreateObjectRecordE, i64 0) #13
  %3 = icmp eq ptr %2, null
  br i1 %3, label %dynamic_cast.bad_cast, label %dynamic_cast.end

dynamic_cast.bad_cast:                            ; preds = %if.end
  call void @__cxa_bad_cast() #18
  unreachable

dynamic_cast.end:                                 ; preds = %if.end
  store ptr %2, ptr %thatCasted, align 8
  %objID_ = getelementptr inbounds %"struct.facebook::hermes::tracing::SynthTrace::CreateObjectRecord", ptr %this1, i32 0, i32 1
  %4 = load i64, ptr %objID_, align 8
  %5 = load ptr, ptr %thatCasted, align 8
  %objID_2 = getelementptr inbounds %"struct.facebook::hermes::tracing::SynthTrace::CreateObjectRecord", ptr %5, i32 0, i32 1
  %6 = load i64, ptr %objID_2, align 8
  %cmp = icmp eq i64 %4, %6
  store i1 %cmp, ptr %retval, align 1
  br label %return

return:                                           ; preds = %dynamic_cast.end, %if.then
  %7 = load i1, ptr %retval, align 1
  ret i1 %7
}

; Function Attrs: mustprogress uwtable
define hidden noundef zeroext i1 @_ZNK8facebook6hermes7tracing10SynthTrace21DrainMicrotasksRecordeqERKNS2_6RecordE(ptr noundef nonnull align 8 dereferenceable(20) %this, ptr noundef nonnull align 8 dereferenceable(16) %that) unnamed_addr #1 align 2 {
entry:
  %retval = alloca i1, align 1
  %this.addr = alloca ptr, align 8
  %that.addr = alloca ptr, align 8
  %thatCasted = alloca ptr, align 8
  store ptr %this, ptr %this.addr, align 8
  store ptr %that, ptr %that.addr, align 8
  %this1 = load ptr, ptr %this.addr, align 8
  %0 = load ptr, ptr %that.addr, align 8
  %call = call noundef zeroext i1 @_ZNK8facebook6hermes7tracing10SynthTrace6RecordeqERKS3_(ptr noundef nonnull align 8 dereferenceable(16) %this1, ptr noundef nonnull align 8 dereferenceable(16) %0)
  br i1 %call, label %if.end, label %if.then

if.then:                                          ; preds = %entry
  store i1 false, ptr %retval, align 1
  br label %return

if.end:                                           ; preds = %entry
  %1 = load ptr, ptr %that.addr, align 8
  %2 = call ptr @__dynamic_cast(ptr %1, ptr @_ZTIN8facebook6hermes7tracing10SynthTrace6RecordE, ptr @_ZTIN8facebook6hermes7tracing10SynthTrace21DrainMicrotasksRecordE, i64 0) #13
  %3 = icmp eq ptr %2, null
  br i1 %3, label %dynamic_cast.bad_cast, label %dynamic_cast.end

dynamic_cast.bad_cast:                            ; preds = %if.end
  call void @__cxa_bad_cast() #18
  unreachable

dynamic_cast.end:                                 ; preds = %if.end
  store ptr %2, ptr %thatCasted, align 8
  %maxMicrotasksHint_ = getelementptr inbounds %"struct.facebook::hermes::tracing::SynthTrace::DrainMicrotasksRecord", ptr %this1, i32 0, i32 1
  %4 = load i32, ptr %maxMicrotasksHint_, align 8
  %5 = load ptr, ptr %thatCasted, align 8
  %maxMicrotasksHint_2 = getelementptr inbounds %"struct.facebook::hermes::tracing::SynthTrace::DrainMicrotasksRecord", ptr %5, i32 0, i32 1
  %6 = load i32, ptr %maxMicrotasksHint_2, align 8
  %cmp = icmp eq i32 %4, %6
  store i1 %cmp, ptr %retval, align 1
  br label %return

return:                                           ; preds = %dynamic_cast.end, %if.then
  %7 = load i1, ptr %retval, align 1
  ret i1 %7
}

; Function Attrs: mustprogress uwtable
define hidden noundef zeroext i1 @_ZNK8facebook6hermes7tracing10SynthTrace18CreateBigIntRecordeqERKNS2_6RecordE(ptr noundef nonnull align 8 dereferenceable(40) %this, ptr noundef nonnull align 8 dereferenceable(16) %that) unnamed_addr #1 align 2 {
entry:
  %retval = alloca i1, align 1
  %this.addr = alloca ptr, align 8
  %that.addr = alloca ptr, align 8
  %thatCasted = alloca ptr, align 8
  store ptr %this, ptr %this.addr, align 8
  store ptr %that, ptr %that.addr, align 8
  %this1 = load ptr, ptr %this.addr, align 8
  %0 = load ptr, ptr %that.addr, align 8
  %call = call noundef zeroext i1 @_ZNK8facebook6hermes7tracing10SynthTrace6RecordeqERKS3_(ptr noundef nonnull align 8 dereferenceable(16) %this1, ptr noundef nonnull align 8 dereferenceable(16) %0)
  br i1 %call, label %if.end, label %if.then

if.then:                                          ; preds = %entry
  store i1 false, ptr %retval, align 1
  br label %return

if.end:                                           ; preds = %entry
  %1 = load ptr, ptr %that.addr, align 8
  %2 = call ptr @__dynamic_cast(ptr %1, ptr @_ZTIN8facebook6hermes7tracing10SynthTrace6RecordE, ptr @_ZTIN8facebook6hermes7tracing10SynthTrace18CreateBigIntRecordE, i64 0) #13
  %3 = icmp eq ptr %2, null
  br i1 %3, label %dynamic_cast.bad_cast, label %dynamic_cast.end

dynamic_cast.bad_cast:                            ; preds = %if.end
  call void @__cxa_bad_cast() #18
  unreachable

dynamic_cast.end:                                 ; preds = %if.end
  store ptr %2, ptr %thatCasted, align 8
  %objID_ = getelementptr inbounds %"struct.facebook::hermes::tracing::SynthTrace::CreateBigIntRecord", ptr %this1, i32 0, i32 1
  %4 = load i64, ptr %objID_, align 8
  %5 = load ptr, ptr %thatCasted, align 8
  %objID_2 = getelementptr inbounds %"struct.facebook::hermes::tracing::SynthTrace::CreateBigIntRecord", ptr %5, i32 0, i32 1
  %6 = load i64, ptr %objID_2, align 8
  %cmp = icmp eq i64 %4, %6
  br i1 %cmp, label %land.lhs.true, label %land.end

land.lhs.true:                                    ; preds = %dynamic_cast.end
  %method_ = getelementptr inbounds %"struct.facebook::hermes::tracing::SynthTrace::CreateBigIntRecord", ptr %this1, i32 0, i32 2
  %7 = load i32, ptr %method_, align 8
  %8 = load ptr, ptr %thatCasted, align 8
  %method_3 = getelementptr inbounds %"struct.facebook::hermes::tracing::SynthTrace::CreateBigIntRecord", ptr %8, i32 0, i32 2
  %9 = load i32, ptr %method_3, align 8
  %cmp4 = icmp eq i32 %7, %9
  br i1 %cmp4, label %land.rhs, label %land.end

land.rhs:                                         ; preds = %land.lhs.true
  %bits_ = getelementptr inbounds %"struct.facebook::hermes::tracing::SynthTrace::CreateBigIntRecord", ptr %this1, i32 0, i32 3
  %10 = load i64, ptr %bits_, align 8
  %11 = load ptr, ptr %thatCasted, align 8
  %bits_5 = getelementptr inbounds %"struct.facebook::hermes::tracing::SynthTrace::CreateBigIntRecord", ptr %11, i32 0, i32 3
  %12 = load i64, ptr %bits_5, align 8
  %cmp6 = icmp eq i64 %10, %12
  br label %land.end

land.end:                                         ; preds = %land.rhs, %land.lhs.true, %dynamic_cast.end
  %13 = phi i1 [ false, %land.lhs.true ], [ false, %dynamic_cast.end ], [ %cmp6, %land.rhs ]
  store i1 %13, ptr %retval, align 1
  br label %return

return:                                           ; preds = %land.end, %if.then
  %14 = load i1, ptr %retval, align 1
  ret i1 %14
}

; Function Attrs: mustprogress uwtable
define hidden noundef zeroext i1 @_ZNK8facebook6hermes7tracing10SynthTrace20BigIntToStringRecordeqERKNS2_6RecordE(ptr noundef nonnull align 8 dereferenceable(36) %this, ptr noundef nonnull align 8 dereferenceable(16) %that) unnamed_addr #1 align 2 {
entry:
  %retval = alloca i1, align 1
  %this.addr = alloca ptr, align 8
  %that.addr = alloca ptr, align 8
  %thatCasted = alloca ptr, align 8
  store ptr %this, ptr %this.addr, align 8
  store ptr %that, ptr %that.addr, align 8
  %this1 = load ptr, ptr %this.addr, align 8
  %0 = load ptr, ptr %that.addr, align 8
  %call = call noundef zeroext i1 @_ZNK8facebook6hermes7tracing10SynthTrace6RecordeqERKS3_(ptr noundef nonnull align 8 dereferenceable(16) %this1, ptr noundef nonnull align 8 dereferenceable(16) %0)
  br i1 %call, label %if.end, label %if.then

if.then:                                          ; preds = %entry
  store i1 false, ptr %retval, align 1
  br label %return

if.end:                                           ; preds = %entry
  %1 = load ptr, ptr %that.addr, align 8
  %2 = call ptr @__dynamic_cast(ptr %1, ptr @_ZTIN8facebook6hermes7tracing10SynthTrace6RecordE, ptr @_ZTIN8facebook6hermes7tracing10SynthTrace20BigIntToStringRecordE, i64 0) #13
  %3 = icmp eq ptr %2, null
  br i1 %3, label %dynamic_cast.bad_cast, label %dynamic_cast.end

dynamic_cast.bad_cast:                            ; preds = %if.end
  call void @__cxa_bad_cast() #18
  unreachable

dynamic_cast.end:                                 ; preds = %if.end
  store ptr %2, ptr %thatCasted, align 8
  %strID_ = getelementptr inbounds %"struct.facebook::hermes::tracing::SynthTrace::BigIntToStringRecord", ptr %this1, i32 0, i32 1
  %4 = load i64, ptr %strID_, align 8
  %5 = load ptr, ptr %thatCasted, align 8
  %strID_2 = getelementptr inbounds %"struct.facebook::hermes::tracing::SynthTrace::BigIntToStringRecord", ptr %5, i32 0, i32 1
  %6 = load i64, ptr %strID_2, align 8
  %cmp = icmp eq i64 %4, %6
  br i1 %cmp, label %land.lhs.true, label %land.end

land.lhs.true:                                    ; preds = %dynamic_cast.end
  %bigintID_ = getelementptr inbounds %"struct.facebook::hermes::tracing::SynthTrace::BigIntToStringRecord", ptr %this1, i32 0, i32 2
  %7 = load i64, ptr %bigintID_, align 8
  %8 = load ptr, ptr %thatCasted, align 8
  %bigintID_3 = getelementptr inbounds %"struct.facebook::hermes::tracing::SynthTrace::BigIntToStringRecord", ptr %8, i32 0, i32 2
  %9 = load i64, ptr %bigintID_3, align 8
  %cmp4 = icmp eq i64 %7, %9
  br i1 %cmp4, label %land.rhs, label %land.end

land.rhs:                                         ; preds = %land.lhs.true
  %radix_ = getelementptr inbounds %"struct.facebook::hermes::tracing::SynthTrace::BigIntToStringRecord", ptr %this1, i32 0, i32 3
  %10 = load i32, ptr %radix_, align 8
  %11 = load ptr, ptr %thatCasted, align 8
  %radix_5 = getelementptr inbounds %"struct.facebook::hermes::tracing::SynthTrace::BigIntToStringRecord", ptr %11, i32 0, i32 3
  %12 = load i32, ptr %radix_5, align 8
  %cmp6 = icmp eq i32 %10, %12
  br label %land.end

land.end:                                         ; preds = %land.rhs, %land.lhs.true, %dynamic_cast.end
  %13 = phi i1 [ false, %land.lhs.true ], [ false, %dynamic_cast.end ], [ %cmp6, %land.rhs ]
  store i1 %13, ptr %retval, align 1
  br label %return

return:                                           ; preds = %land.end, %if.then
  %14 = load i1, ptr %retval, align 1
  ret i1 %14
}

; Function Attrs: mustprogress uwtable
define hidden noundef zeroext i1 @_ZNK8facebook6hermes7tracing10SynthTrace18CreateStringRecordeqERKNS2_6RecordE(ptr noundef nonnull align 8 dereferenceable(57) %this, ptr noundef nonnull align 8 dereferenceable(16) %that) unnamed_addr #1 align 2 {
entry:
  %retval = alloca i1, align 1
  %this.addr = alloca ptr, align 8
  %that.addr = alloca ptr, align 8
  %thatCasted = alloca ptr, align 8
  store ptr %this, ptr %this.addr, align 8
  store ptr %that, ptr %that.addr, align 8
  %this1 = load ptr, ptr %this.addr, align 8
  %0 = load ptr, ptr %that.addr, align 8
  %call = call noundef zeroext i1 @_ZNK8facebook6hermes7tracing10SynthTrace6RecordeqERKS3_(ptr noundef nonnull align 8 dereferenceable(16) %this1, ptr noundef nonnull align 8 dereferenceable(16) %0)
  br i1 %call, label %if.end, label %if.then

if.then:                                          ; preds = %entry
  store i1 false, ptr %retval, align 1
  br label %return

if.end:                                           ; preds = %entry
  %1 = load ptr, ptr %that.addr, align 8
  %2 = call ptr @__dynamic_cast(ptr %1, ptr @_ZTIN8facebook6hermes7tracing10SynthTrace6RecordE, ptr @_ZTIN8facebook6hermes7tracing10SynthTrace18CreateStringRecordE, i64 0) #13
  %3 = icmp eq ptr %2, null
  br i1 %3, label %dynamic_cast.bad_cast, label %dynamic_cast.end

dynamic_cast.bad_cast:                            ; preds = %if.end
  call void @__cxa_bad_cast() #18
  unreachable

dynamic_cast.end:                                 ; preds = %if.end
  store ptr %2, ptr %thatCasted, align 8
  %objID_ = getelementptr inbounds %"struct.facebook::hermes::tracing::SynthTrace::CreateStringRecord", ptr %this1, i32 0, i32 1
  %4 = load i64, ptr %objID_, align 8
  %5 = load ptr, ptr %thatCasted, align 8
  %objID_2 = getelementptr inbounds %"struct.facebook::hermes::tracing::SynthTrace::CreateStringRecord", ptr %5, i32 0, i32 1
  %6 = load i64, ptr %objID_2, align 8
  %cmp = icmp eq i64 %4, %6
  br i1 %cmp, label %land.lhs.true, label %land.end

land.lhs.true:                                    ; preds = %dynamic_cast.end
  %ascii_ = getelementptr inbounds %"struct.facebook::hermes::tracing::SynthTrace::CreateStringRecord", ptr %this1, i32 0, i32 3
  %7 = load i8, ptr %ascii_, align 8
  %tobool = trunc i8 %7 to i1
  %conv = zext i1 %tobool to i32
  %8 = load ptr, ptr %thatCasted, align 8
  %ascii_3 = getelementptr inbounds %"struct.facebook::hermes::tracing::SynthTrace::CreateStringRecord", ptr %8, i32 0, i32 3
  %9 = load i8, ptr %ascii_3, align 8
  %tobool4 = trunc i8 %9 to i1
  %conv5 = zext i1 %tobool4 to i32
  %cmp6 = icmp eq i32 %conv, %conv5
  br i1 %cmp6, label %land.rhs, label %land.end

land.rhs:                                         ; preds = %land.lhs.true
  %chars_ = getelementptr inbounds %"struct.facebook::hermes::tracing::SynthTrace::CreateStringRecord", ptr %this1, i32 0, i32 2
  %10 = load ptr, ptr %thatCasted, align 8
  %chars_7 = getelementptr inbounds %"struct.facebook::hermes::tracing::SynthTrace::CreateStringRecord", ptr %10, i32 0, i32 2
  %call8 = call noundef zeroext i1 @_ZSteqIcEN9__gnu_cxx11__enable_ifIXsr9__is_charIT_EE7__valueEbE6__typeERKNSt7__cxx1112basic_stringIS2_St11char_traitsIS2_ESaIS2_EEESC_(ptr noundef nonnull align 8 dereferenceable(32) %chars_, ptr noundef nonnull align 8 dereferenceable(32) %chars_7) #13
  br label %land.end

land.end:                                         ; preds = %land.rhs, %land.lhs.true, %dynamic_cast.end
  %11 = phi i1 [ false, %land.lhs.true ], [ false, %dynamic_cast.end ], [ %call8, %land.rhs ]
  store i1 %11, ptr %retval, align 1
  br label %return

return:                                           ; preds = %land.end, %if.then
  %12 = load i1, ptr %retval, align 1
  ret i1 %12
}

; Function Attrs: mustprogress uwtable
define hidden noundef zeroext i1 @_ZNK8facebook6hermes7tracing10SynthTrace22CreatePropNameIDRecordeqERKNS2_6RecordE(ptr noundef nonnull align 8 dereferenceable(76) %this, ptr noundef nonnull align 8 dereferenceable(16) %that) unnamed_addr #1 align 2 {
entry:
  %retval = alloca i1, align 1
  %this.addr = alloca ptr, align 8
  %that.addr = alloca ptr, align 8
  %thatCasted = alloca ptr, align 8
  store ptr %this, ptr %this.addr, align 8
  store ptr %that, ptr %that.addr, align 8
  %this1 = load ptr, ptr %this.addr, align 8
  %0 = load ptr, ptr %that.addr, align 8
  %call = call noundef zeroext i1 @_ZNK8facebook6hermes7tracing10SynthTrace6RecordeqERKS3_(ptr noundef nonnull align 8 dereferenceable(16) %this1, ptr noundef nonnull align 8 dereferenceable(16) %0)
  br i1 %call, label %if.end, label %if.then

if.then:                                          ; preds = %entry
  store i1 false, ptr %retval, align 1
  br label %return

if.end:                                           ; preds = %entry
  %1 = load ptr, ptr %that.addr, align 8
  %2 = call ptr @__dynamic_cast(ptr %1, ptr @_ZTIN8facebook6hermes7tracing10SynthTrace6RecordE, ptr @_ZTIN8facebook6hermes7tracing10SynthTrace22CreatePropNameIDRecordE, i64 0) #13
  %3 = icmp eq ptr %2, null
  br i1 %3, label %dynamic_cast.bad_cast, label %dynamic_cast.end

dynamic_cast.bad_cast:                            ; preds = %if.end
  call void @__cxa_bad_cast() #18
  unreachable

dynamic_cast.end:                                 ; preds = %if.end
  store ptr %2, ptr %thatCasted, align 8
  %propNameID_ = getelementptr inbounds %"struct.facebook::hermes::tracing::SynthTrace::CreatePropNameIDRecord", ptr %this1, i32 0, i32 1
  %4 = load i64, ptr %propNameID_, align 8
  %5 = load ptr, ptr %thatCasted, align 8
  %propNameID_2 = getelementptr inbounds %"struct.facebook::hermes::tracing::SynthTrace::CreatePropNameIDRecord", ptr %5, i32 0, i32 1
  %6 = load i64, ptr %propNameID_2, align 8
  %cmp = icmp eq i64 %4, %6
  br i1 %cmp, label %land.lhs.true, label %land.end

land.lhs.true:                                    ; preds = %dynamic_cast.end
  %valueType_ = getelementptr inbounds %"struct.facebook::hermes::tracing::SynthTrace::CreatePropNameIDRecord", ptr %this1, i32 0, i32 4
  %7 = load i32, ptr %valueType_, align 8
  %8 = load ptr, ptr %thatCasted, align 8
  %valueType_3 = getelementptr inbounds %"struct.facebook::hermes::tracing::SynthTrace::CreatePropNameIDRecord", ptr %8, i32 0, i32 4
  %9 = load i32, ptr %valueType_3, align 8
  %cmp4 = icmp eq i32 %7, %9
  br i1 %cmp4, label %land.lhs.true5, label %land.end

land.lhs.true5:                                   ; preds = %land.lhs.true
  %traceValue_ = getelementptr inbounds %"struct.facebook::hermes::tracing::SynthTrace::CreatePropNameIDRecord", ptr %this1, i32 0, i32 3
  %10 = load ptr, ptr %thatCasted, align 8
  %traceValue_6 = getelementptr inbounds %"struct.facebook::hermes::tracing::SynthTrace::CreatePropNameIDRecord", ptr %10, i32 0, i32 3
  %call7 = call noundef zeroext i1 @_ZNK8facebook6hermes7tracing10SynthTrace10TraceValueeqERKS3_(ptr noundef nonnull align 8 dereferenceable(16) %traceValue_, ptr noundef nonnull align 8 dereferenceable(16) %traceValue_6)
  br i1 %call7, label %land.rhs, label %land.end

land.rhs:                                         ; preds = %land.lhs.true5
  %chars_ = getelementptr inbounds %"struct.facebook::hermes::tracing::SynthTrace::CreatePropNameIDRecord", ptr %this1, i32 0, i32 2
  %11 = load ptr, ptr %thatCasted, align 8
  %chars_8 = getelementptr inbounds %"struct.facebook::hermes::tracing::SynthTrace::CreatePropNameIDRecord", ptr %11, i32 0, i32 2
  %call9 = call noundef zeroext i1 @_ZSteqIcEN9__gnu_cxx11__enable_ifIXsr9__is_charIT_EE7__valueEbE6__typeERKNSt7__cxx1112basic_stringIS2_St11char_traitsIS2_ESaIS2_EEESC_(ptr noundef nonnull align 8 dereferenceable(32) %chars_, ptr noundef nonnull align 8 dereferenceable(32) %chars_8) #13
  br label %land.end

land.end:                                         ; preds = %land.rhs, %land.lhs.true5, %land.lhs.true, %dynamic_cast.end
  %12 = phi i1 [ false, %land.lhs.true5 ], [ false, %land.lhs.true ], [ false, %dynamic_cast.end ], [ %call9, %land.rhs ]
  store i1 %12, ptr %retval, align 1
  br label %return

return:                                           ; preds = %land.end, %if.then
  %13 = load i1, ptr %retval, align 1
  ret i1 %13
}

; Function Attrs: mustprogress uwtable
define hidden noundef zeroext i1 @_ZNK8facebook6hermes7tracing10SynthTrace24CreateHostFunctionRecordeqERKNS2_6RecordE(ptr noundef nonnull align 8 dereferenceable(32) %this, ptr noundef nonnull align 8 dereferenceable(16) %that) unnamed_addr #1 align 2 {
entry:
  %retval = alloca i1, align 1
  %this.addr = alloca ptr, align 8
  %that.addr = alloca ptr, align 8
  %thatCasted = alloca ptr, align 8
  store ptr %this, ptr %this.addr, align 8
  store ptr %that, ptr %that.addr, align 8
  %this1 = load ptr, ptr %this.addr, align 8
  %0 = load ptr, ptr %that.addr, align 8
  %call = call noundef zeroext i1 @_ZNK8facebook6hermes7tracing10SynthTrace18CreateObjectRecordeqERKNS2_6RecordE(ptr noundef nonnull align 8 dereferenceable(24) %this1, ptr noundef nonnull align 8 dereferenceable(16) %0)
  br i1 %call, label %if.end, label %if.then

if.then:                                          ; preds = %entry
  store i1 false, ptr %retval, align 1
  br label %return

if.end:                                           ; preds = %entry
  %1 = load ptr, ptr %that.addr, align 8
  %2 = call ptr @__dynamic_cast(ptr %1, ptr @_ZTIN8facebook6hermes7tracing10SynthTrace6RecordE, ptr @_ZTIN8facebook6hermes7tracing10SynthTrace24CreateHostFunctionRecordE, i64 0) #13
  %3 = icmp eq ptr %2, null
  br i1 %3, label %dynamic_cast.bad_cast, label %dynamic_cast.end

dynamic_cast.bad_cast:                            ; preds = %if.end
  call void @__cxa_bad_cast() #18
  unreachable

dynamic_cast.end:                                 ; preds = %if.end
  store ptr %2, ptr %thatCasted, align 8
  %propNameID_ = getelementptr inbounds %"struct.facebook::hermes::tracing::SynthTrace::CreateHostFunctionRecord", ptr %this1, i32 0, i32 1
  %4 = load i32, ptr %propNameID_, align 8
  %5 = load ptr, ptr %thatCasted, align 8
  %propNameID_2 = getelementptr inbounds %"struct.facebook::hermes::tracing::SynthTrace::CreateHostFunctionRecord", ptr %5, i32 0, i32 1
  %6 = load i32, ptr %propNameID_2, align 8
  %cmp = icmp eq i32 %4, %6
  br i1 %cmp, label %land.lhs.true, label %if.then5

land.lhs.true:                                    ; preds = %dynamic_cast.end
  %paramCount_ = getelementptr inbounds %"struct.facebook::hermes::tracing::SynthTrace::CreateHostFunctionRecord", ptr %this1, i32 0, i32 2
  %7 = load i32, ptr %paramCount_, align 4
  %8 = load ptr, ptr %thatCasted, align 8
  %paramCount_3 = getelementptr inbounds %"struct.facebook::hermes::tracing::SynthTrace::CreateHostFunctionRecord", ptr %8, i32 0, i32 2
  %9 = load i32, ptr %paramCount_3, align 4
  %cmp4 = icmp eq i32 %7, %9
  br i1 %cmp4, label %if.end6, label %if.then5

if.then5:                                         ; preds = %land.lhs.true, %dynamic_cast.end
  store i1 false, ptr %retval, align 1
  br label %return

if.end6:                                          ; preds = %land.lhs.true
  store i1 true, ptr %retval, align 1
  br label %return

return:                                           ; preds = %if.end6, %if.then5, %if.then
  %10 = load i1, ptr %retval, align 1
  ret i1 %10
}

; Function Attrs: mustprogress uwtable
define hidden noundef zeroext i1 @_ZNK8facebook6hermes7tracing10SynthTrace22GetOrSetPropertyRecordeqERKNS2_6RecordE(ptr noundef nonnull align 8 dereferenceable(56) %this, ptr noundef nonnull align 8 dereferenceable(16) %that) unnamed_addr #1 align 2 {
entry:
  %retval = alloca i1, align 1
  %this.addr = alloca ptr, align 8
  %that.addr = alloca ptr, align 8
  %thatCasted = alloca ptr, align 8
  store ptr %this, ptr %this.addr, align 8
  store ptr %that, ptr %that.addr, align 8
  %this1 = load ptr, ptr %this.addr, align 8
  %0 = load ptr, ptr %that.addr, align 8
  %call = call noundef zeroext i1 @_ZNK8facebook6hermes7tracing10SynthTrace6RecordeqERKS3_(ptr noundef nonnull align 8 dereferenceable(16) %this1, ptr noundef nonnull align 8 dereferenceable(16) %0)
  br i1 %call, label %if.end, label %if.then

if.then:                                          ; preds = %entry
  store i1 false, ptr %retval, align 1
  br label %return

if.end:                                           ; preds = %entry
  %1 = load ptr, ptr %that.addr, align 8
  %2 = call ptr @__dynamic_cast(ptr %1, ptr @_ZTIN8facebook6hermes7tracing10SynthTrace6RecordE, ptr @_ZTIN8facebook6hermes7tracing10SynthTrace22GetOrSetPropertyRecordE, i64 0) #13
  %3 = icmp eq ptr %2, null
  br i1 %3, label %dynamic_cast.bad_cast, label %dynamic_cast.end

dynamic_cast.bad_cast:                            ; preds = %if.end
  call void @__cxa_bad_cast() #18
  unreachable

dynamic_cast.end:                                 ; preds = %if.end
  store ptr %2, ptr %thatCasted, align 8
  %objID_ = getelementptr inbounds %"struct.facebook::hermes::tracing::SynthTrace::GetOrSetPropertyRecord", ptr %this1, i32 0, i32 1
  %4 = load i64, ptr %objID_, align 8
  %5 = load ptr, ptr %thatCasted, align 8
  %objID_2 = getelementptr inbounds %"struct.facebook::hermes::tracing::SynthTrace::GetOrSetPropertyRecord", ptr %5, i32 0, i32 1
  %6 = load i64, ptr %objID_2, align 8
  %cmp = icmp eq i64 %4, %6
  br i1 %cmp, label %land.lhs.true, label %if.then8

land.lhs.true:                                    ; preds = %dynamic_cast.end
  %propID_ = getelementptr inbounds %"struct.facebook::hermes::tracing::SynthTrace::GetOrSetPropertyRecord", ptr %this1, i32 0, i32 2
  %7 = load ptr, ptr %thatCasted, align 8
  %propID_3 = getelementptr inbounds %"struct.facebook::hermes::tracing::SynthTrace::GetOrSetPropertyRecord", ptr %7, i32 0, i32 2
  %call4 = call noundef zeroext i1 @_ZNK8facebook6hermes7tracing10SynthTrace10TraceValueeqERKS3_(ptr noundef nonnull align 8 dereferenceable(16) %propID_, ptr noundef nonnull align 8 dereferenceable(16) %propID_3)
  br i1 %call4, label %land.lhs.true5, label %if.then8

land.lhs.true5:                                   ; preds = %land.lhs.true
  %value_ = getelementptr inbounds %"struct.facebook::hermes::tracing::SynthTrace::GetOrSetPropertyRecord", ptr %this1, i32 0, i32 3
  %8 = load ptr, ptr %thatCasted, align 8
  %value_6 = getelementptr inbounds %"struct.facebook::hermes::tracing::SynthTrace::GetOrSetPropertyRecord", ptr %8, i32 0, i32 3
  %call7 = call noundef zeroext i1 @_ZNK8facebook6hermes7tracing10SynthTrace10TraceValueeqERKS3_(ptr noundef nonnull align 8 dereferenceable(16) %value_, ptr noundef nonnull align 8 dereferenceable(16) %value_6)
  br i1 %call7, label %if.end9, label %if.then8

if.then8:                                         ; preds = %land.lhs.true5, %land.lhs.true, %dynamic_cast.end
  store i1 false, ptr %retval, align 1
  br label %return

if.end9:                                          ; preds = %land.lhs.true5
  store i1 true, ptr %retval, align 1
  br label %return

return:                                           ; preds = %if.end9, %if.then8, %if.then
  %9 = load i1, ptr %retval, align 1
  ret i1 %9
}

; Function Attrs: mustprogress uwtable
define hidden noundef zeroext i1 @_ZNK8facebook6hermes7tracing10SynthTrace17HasPropertyRecordeqERKNS2_6RecordE(ptr noundef nonnull align 8 dereferenceable(40) %this, ptr noundef nonnull align 8 dereferenceable(16) %that) unnamed_addr #1 align 2 {
entry:
  %retval = alloca i1, align 1
  %this.addr = alloca ptr, align 8
  %that.addr = alloca ptr, align 8
  %thatCasted = alloca ptr, align 8
  store ptr %this, ptr %this.addr, align 8
  store ptr %that, ptr %that.addr, align 8
  %this1 = load ptr, ptr %this.addr, align 8
  %0 = load ptr, ptr %that.addr, align 8
  %call = call noundef zeroext i1 @_ZNK8facebook6hermes7tracing10SynthTrace6RecordeqERKS3_(ptr noundef nonnull align 8 dereferenceable(16) %this1, ptr noundef nonnull align 8 dereferenceable(16) %0)
  br i1 %call, label %if.end, label %if.then

if.then:                                          ; preds = %entry
  store i1 false, ptr %retval, align 1
  br label %return

if.end:                                           ; preds = %entry
  %1 = load ptr, ptr %that.addr, align 8
  %2 = call ptr @__dynamic_cast(ptr %1, ptr @_ZTIN8facebook6hermes7tracing10SynthTrace6RecordE, ptr @_ZTIN8facebook6hermes7tracing10SynthTrace17HasPropertyRecordE, i64 0) #13
  %3 = icmp eq ptr %2, null
  br i1 %3, label %dynamic_cast.bad_cast, label %dynamic_cast.end

dynamic_cast.bad_cast:                            ; preds = %if.end
  call void @__cxa_bad_cast() #18
  unreachable

dynamic_cast.end:                                 ; preds = %if.end
  store ptr %2, ptr %thatCasted, align 8
  %objID_ = getelementptr inbounds %"struct.facebook::hermes::tracing::SynthTrace::HasPropertyRecord", ptr %this1, i32 0, i32 1
  %4 = load i64, ptr %objID_, align 8
  %5 = load ptr, ptr %thatCasted, align 8
  %objID_2 = getelementptr inbounds %"struct.facebook::hermes::tracing::SynthTrace::HasPropertyRecord", ptr %5, i32 0, i32 1
  %6 = load i64, ptr %objID_2, align 8
  %cmp = icmp eq i64 %4, %6
  br i1 %cmp, label %land.rhs, label %land.end

land.rhs:                                         ; preds = %dynamic_cast.end
  %propID_ = getelementptr inbounds %"struct.facebook::hermes::tracing::SynthTrace::HasPropertyRecord", ptr %this1, i32 0, i32 2
  %7 = load ptr, ptr %thatCasted, align 8
  %propID_3 = getelementptr inbounds %"struct.facebook::hermes::tracing::SynthTrace::HasPropertyRecord", ptr %7, i32 0, i32 2
  %call4 = call noundef zeroext i1 @_ZNK8facebook6hermes7tracing10SynthTrace10TraceValueeqERKS3_(ptr noundef nonnull align 8 dereferenceable(16) %propID_, ptr noundef nonnull align 8 dereferenceable(16) %propID_3)
  br label %land.end

land.end:                                         ; preds = %land.rhs, %dynamic_cast.end
  %8 = phi i1 [ false, %dynamic_cast.end ], [ %call4, %land.rhs ]
  store i1 %8, ptr %retval, align 1
  br label %return

return:                                           ; preds = %land.end, %if.then
  %9 = load i1, ptr %retval, align 1
  ret i1 %9
}

; Function Attrs: mustprogress uwtable
define hidden noundef zeroext i1 @_ZNK8facebook6hermes7tracing10SynthTrace22GetPropertyNamesRecordeqERKNS2_6RecordE(ptr noundef nonnull align 8 dereferenceable(32) %this, ptr noundef nonnull align 8 dereferenceable(16) %that) unnamed_addr #1 align 2 {
entry:
  %retval = alloca i1, align 1
  %this.addr = alloca ptr, align 8
  %that.addr = alloca ptr, align 8
  %thatCasted = alloca ptr, align 8
  store ptr %this, ptr %this.addr, align 8
  store ptr %that, ptr %that.addr, align 8
  %this1 = load ptr, ptr %this.addr, align 8
  %0 = load ptr, ptr %that.addr, align 8
  %call = call noundef zeroext i1 @_ZNK8facebook6hermes7tracing10SynthTrace6RecordeqERKS3_(ptr noundef nonnull align 8 dereferenceable(16) %this1, ptr noundef nonnull align 8 dereferenceable(16) %0)
  br i1 %call, label %if.end, label %if.then

if.then:                                          ; preds = %entry
  store i1 false, ptr %retval, align 1
  br label %return

if.end:                                           ; preds = %entry
  %1 = load ptr, ptr %that.addr, align 8
  %2 = call ptr @__dynamic_cast(ptr %1, ptr @_ZTIN8facebook6hermes7tracing10SynthTrace6RecordE, ptr @_ZTIN8facebook6hermes7tracing10SynthTrace22GetPropertyNamesRecordE, i64 0) #13
  %3 = icmp eq ptr %2, null
  br i1 %3, label %dynamic_cast.bad_cast, label %dynamic_cast.end

dynamic_cast.bad_cast:                            ; preds = %if.end
  call void @__cxa_bad_cast() #18
  unreachable

dynamic_cast.end:                                 ; preds = %if.end
  store ptr %2, ptr %thatCasted, align 8
  %objID_ = getelementptr inbounds %"struct.facebook::hermes::tracing::SynthTrace::GetPropertyNamesRecord", ptr %this1, i32 0, i32 1
  %4 = load i64, ptr %objID_, align 8
  %5 = load ptr, ptr %thatCasted, align 8
  %objID_2 = getelementptr inbounds %"struct.facebook::hermes::tracing::SynthTrace::GetPropertyNamesRecord", ptr %5, i32 0, i32 1
  %6 = load i64, ptr %objID_2, align 8
  %cmp = icmp eq i64 %4, %6
  br i1 %cmp, label %land.rhs, label %land.end

land.rhs:                                         ; preds = %dynamic_cast.end
  %propNamesID_ = getelementptr inbounds %"struct.facebook::hermes::tracing::SynthTrace::GetPropertyNamesRecord", ptr %this1, i32 0, i32 2
  %7 = load i64, ptr %propNamesID_, align 8
  %8 = load ptr, ptr %thatCasted, align 8
  %propNamesID_3 = getelementptr inbounds %"struct.facebook::hermes::tracing::SynthTrace::GetPropertyNamesRecord", ptr %8, i32 0, i32 2
  %9 = load i64, ptr %propNamesID_3, align 8
  %cmp4 = icmp eq i64 %7, %9
  br label %land.end

land.end:                                         ; preds = %land.rhs, %dynamic_cast.end
  %10 = phi i1 [ false, %dynamic_cast.end ], [ %cmp4, %land.rhs ]
  store i1 %10, ptr %retval, align 1
  br label %return

return:                                           ; preds = %land.end, %if.then
  %11 = load i1, ptr %retval, align 1
  ret i1 %11
}

; Function Attrs: mustprogress uwtable
define hidden noundef zeroext i1 @_ZNK8facebook6hermes7tracing10SynthTrace17CreateArrayRecordeqERKNS2_6RecordE(ptr noundef nonnull align 8 dereferenceable(32) %this, ptr noundef nonnull align 8 dereferenceable(16) %that) unnamed_addr #1 align 2 {
entry:
  %retval = alloca i1, align 1
  %this.addr = alloca ptr, align 8
  %that.addr = alloca ptr, align 8
  %thatCasted = alloca ptr, align 8
  store ptr %this, ptr %this.addr, align 8
  store ptr %that, ptr %that.addr, align 8
  %this1 = load ptr, ptr %this.addr, align 8
  %0 = load ptr, ptr %that.addr, align 8
  %call = call noundef zeroext i1 @_ZNK8facebook6hermes7tracing10SynthTrace6RecordeqERKS3_(ptr noundef nonnull align 8 dereferenceable(16) %this1, ptr noundef nonnull align 8 dereferenceable(16) %0)
  br i1 %call, label %if.end, label %if.then

if.then:                                          ; preds = %entry
  store i1 false, ptr %retval, align 1
  br label %return

if.end:                                           ; preds = %entry
  %1 = load ptr, ptr %that.addr, align 8
  %2 = call ptr @__dynamic_cast(ptr %1, ptr @_ZTIN8facebook6hermes7tracing10SynthTrace6RecordE, ptr @_ZTIN8facebook6hermes7tracing10SynthTrace17CreateArrayRecordE, i64 0) #13
  %3 = icmp eq ptr %2, null
  br i1 %3, label %dynamic_cast.bad_cast, label %dynamic_cast.end

dynamic_cast.bad_cast:                            ; preds = %if.end
  call void @__cxa_bad_cast() #18
  unreachable

dynamic_cast.end:                                 ; preds = %if.end
  store ptr %2, ptr %thatCasted, align 8
  %objID_ = getelementptr inbounds %"struct.facebook::hermes::tracing::SynthTrace::CreateArrayRecord", ptr %this1, i32 0, i32 1
  %4 = load i64, ptr %objID_, align 8
  %5 = load ptr, ptr %thatCasted, align 8
  %objID_2 = getelementptr inbounds %"struct.facebook::hermes::tracing::SynthTrace::CreateArrayRecord", ptr %5, i32 0, i32 1
  %6 = load i64, ptr %objID_2, align 8
  %cmp = icmp eq i64 %4, %6
  br i1 %cmp, label %land.rhs, label %land.end

land.rhs:                                         ; preds = %dynamic_cast.end
  %length_ = getelementptr inbounds %"struct.facebook::hermes::tracing::SynthTrace::CreateArrayRecord", ptr %this1, i32 0, i32 2
  %7 = load i64, ptr %length_, align 8
  %8 = load ptr, ptr %thatCasted, align 8
  %length_3 = getelementptr inbounds %"struct.facebook::hermes::tracing::SynthTrace::CreateArrayRecord", ptr %8, i32 0, i32 2
  %9 = load i64, ptr %length_3, align 8
  %cmp4 = icmp eq i64 %7, %9
  br label %land.end

land.end:                                         ; preds = %land.rhs, %dynamic_cast.end
  %10 = phi i1 [ false, %dynamic_cast.end ], [ %cmp4, %land.rhs ]
  store i1 %10, ptr %retval, align 1
  br label %return

return:                                           ; preds = %land.end, %if.then
  %11 = load i1, ptr %retval, align 1
  ret i1 %11
}

; Function Attrs: mustprogress uwtable
define hidden noundef zeroext i1 @_ZNK8facebook6hermes7tracing10SynthTrace22ArrayReadOrWriteRecordeqERKNS2_6RecordE(ptr noundef nonnull align 8 dereferenceable(48) %this, ptr noundef nonnull align 8 dereferenceable(16) %that) unnamed_addr #1 align 2 {
entry:
  %retval = alloca i1, align 1
  %this.addr = alloca ptr, align 8
  %that.addr = alloca ptr, align 8
  %thatCasted = alloca ptr, align 8
  store ptr %this, ptr %this.addr, align 8
  store ptr %that, ptr %that.addr, align 8
  %this1 = load ptr, ptr %this.addr, align 8
  %0 = load ptr, ptr %that.addr, align 8
  %call = call noundef zeroext i1 @_ZNK8facebook6hermes7tracing10SynthTrace6RecordeqERKS3_(ptr noundef nonnull align 8 dereferenceable(16) %this1, ptr noundef nonnull align 8 dereferenceable(16) %0)
  br i1 %call, label %if.end, label %if.then

if.then:                                          ; preds = %entry
  store i1 false, ptr %retval, align 1
  br label %return

if.end:                                           ; preds = %entry
  %1 = load ptr, ptr %that.addr, align 8
  %2 = call ptr @__dynamic_cast(ptr %1, ptr @_ZTIN8facebook6hermes7tracing10SynthTrace6RecordE, ptr @_ZTIN8facebook6hermes7tracing10SynthTrace22ArrayReadOrWriteRecordE, i64 0) #13
  %3 = icmp eq ptr %2, null
  br i1 %3, label %dynamic_cast.bad_cast, label %dynamic_cast.end

dynamic_cast.bad_cast:                            ; preds = %if.end
  call void @__cxa_bad_cast() #18
  unreachable

dynamic_cast.end:                                 ; preds = %if.end
  store ptr %2, ptr %thatCasted, align 8
  %objID_ = getelementptr inbounds %"struct.facebook::hermes::tracing::SynthTrace::ArrayReadOrWriteRecord", ptr %this1, i32 0, i32 1
  %4 = load i64, ptr %objID_, align 8
  %5 = load ptr, ptr %thatCasted, align 8
  %objID_2 = getelementptr inbounds %"struct.facebook::hermes::tracing::SynthTrace::ArrayReadOrWriteRecord", ptr %5, i32 0, i32 1
  %6 = load i64, ptr %objID_2, align 8
  %cmp = icmp eq i64 %4, %6
  br i1 %cmp, label %land.lhs.true, label %land.end

land.lhs.true:                                    ; preds = %dynamic_cast.end
  %index_ = getelementptr inbounds %"struct.facebook::hermes::tracing::SynthTrace::ArrayReadOrWriteRecord", ptr %this1, i32 0, i32 2
  %7 = load i64, ptr %index_, align 8
  %8 = load ptr, ptr %thatCasted, align 8
  %index_3 = getelementptr inbounds %"struct.facebook::hermes::tracing::SynthTrace::ArrayReadOrWriteRecord", ptr %8, i32 0, i32 2
  %9 = load i64, ptr %index_3, align 8
  %cmp4 = icmp eq i64 %7, %9
  br i1 %cmp4, label %land.rhs, label %land.end

land.rhs:                                         ; preds = %land.lhs.true
  %value_ = getelementptr inbounds %"struct.facebook::hermes::tracing::SynthTrace::ArrayReadOrWriteRecord", ptr %this1, i32 0, i32 3
  %10 = load ptr, ptr %thatCasted, align 8
  %value_5 = getelementptr inbounds %"struct.facebook::hermes::tracing::SynthTrace::ArrayReadOrWriteRecord", ptr %10, i32 0, i32 3
  %call6 = call noundef zeroext i1 @_ZNK8facebook6hermes7tracing10SynthTrace10TraceValueeqERKS3_(ptr noundef nonnull align 8 dereferenceable(16) %value_, ptr noundef nonnull align 8 dereferenceable(16) %value_5)
  br label %land.end

land.end:                                         ; preds = %land.rhs, %land.lhs.true, %dynamic_cast.end
  %11 = phi i1 [ false, %land.lhs.true ], [ false, %dynamic_cast.end ], [ %call6, %land.rhs ]
  store i1 %11, ptr %retval, align 1
  br label %return

return:                                           ; preds = %land.end, %if.then
  %12 = load i1, ptr %retval, align 1
  ret i1 %12
}

; Function Attrs: mustprogress uwtable
define hidden noundef zeroext i1 @_ZNK8facebook6hermes7tracing10SynthTrace10CallRecordeqERKNS2_6RecordE(ptr noundef nonnull align 8 dereferenceable(64) %this, ptr noundef nonnull align 8 dereferenceable(16) %that) unnamed_addr #1 align 2 {
entry:
  %retval = alloca i1, align 1
  %this.addr = alloca ptr, align 8
  %that.addr = alloca ptr, align 8
  %thatCasted = alloca ptr, align 8
  %agg.tmp = alloca %"class.__gnu_cxx::__normal_iterator.26", align 8
  %agg.tmp4 = alloca %"class.__gnu_cxx::__normal_iterator.26", align 8
  %agg.tmp8 = alloca %"class.__gnu_cxx::__normal_iterator.26", align 8
  store ptr %this, ptr %this.addr, align 8
  store ptr %that, ptr %that.addr, align 8
  %this1 = load ptr, ptr %this.addr, align 8
  %0 = load ptr, ptr %that.addr, align 8
  %call = call noundef zeroext i1 @_ZNK8facebook6hermes7tracing10SynthTrace6RecordeqERKS3_(ptr noundef nonnull align 8 dereferenceable(16) %this1, ptr noundef nonnull align 8 dereferenceable(16) %0)
  br i1 %call, label %if.end, label %if.then

if.then:                                          ; preds = %entry
  store i1 false, ptr %retval, align 1
  br label %return

if.end:                                           ; preds = %entry
  %1 = load ptr, ptr %that.addr, align 8
  %2 = call ptr @__dynamic_cast(ptr %1, ptr @_ZTIN8facebook6hermes7tracing10SynthTrace6RecordE, ptr @_ZTIN8facebook6hermes7tracing10SynthTrace10CallRecordE, i64 0) #13
  %3 = icmp eq ptr %2, null
  br i1 %3, label %dynamic_cast.bad_cast, label %dynamic_cast.end

dynamic_cast.bad_cast:                            ; preds = %if.end
  call void @__cxa_bad_cast() #18
  unreachable

dynamic_cast.end:                                 ; preds = %if.end
  store ptr %2, ptr %thatCasted, align 8
  %functionID_ = getelementptr inbounds %"struct.facebook::hermes::tracing::SynthTrace::CallRecord", ptr %this1, i32 0, i32 1
  %4 = load i64, ptr %functionID_, align 8
  %5 = load ptr, ptr %thatCasted, align 8
  %functionID_2 = getelementptr inbounds %"struct.facebook::hermes::tracing::SynthTrace::CallRecord", ptr %5, i32 0, i32 1
  %6 = load i64, ptr %functionID_2, align 8
  %cmp = icmp eq i64 %4, %6
  br i1 %cmp, label %land.rhs, label %land.end

land.rhs:                                         ; preds = %dynamic_cast.end
  %args_ = getelementptr inbounds %"struct.facebook::hermes::tracing::SynthTrace::CallRecord", ptr %this1, i32 0, i32 3
  %call3 = call ptr @_ZNKSt6vectorIN8facebook6hermes7tracing10SynthTrace10TraceValueESaIS4_EE5beginEv(ptr noundef nonnull align 8 dereferenceable(24) %args_) #13
  %coerce.dive = getelementptr inbounds %"class.__gnu_cxx::__normal_iterator.26", ptr %agg.tmp, i32 0, i32 0
  store ptr %call3, ptr %coerce.dive, align 8
  %args_5 = getelementptr inbounds %"struct.facebook::hermes::tracing::SynthTrace::CallRecord", ptr %this1, i32 0, i32 3
  %call6 = call ptr @_ZNKSt6vectorIN8facebook6hermes7tracing10SynthTrace10TraceValueESaIS4_EE3endEv(ptr noundef nonnull align 8 dereferenceable(24) %args_5) #13
  %coerce.dive7 = getelementptr inbounds %"class.__gnu_cxx::__normal_iterator.26", ptr %agg.tmp4, i32 0, i32 0
  store ptr %call6, ptr %coerce.dive7, align 8
  %7 = load ptr, ptr %thatCasted, align 8
  %args_9 = getelementptr inbounds %"struct.facebook::hermes::tracing::SynthTrace::CallRecord", ptr %7, i32 0, i32 3
  %call10 = call ptr @_ZNKSt6vectorIN8facebook6hermes7tracing10SynthTrace10TraceValueESaIS4_EE5beginEv(ptr noundef nonnull align 8 dereferenceable(24) %args_9) #13
  %coerce.dive11 = getelementptr inbounds %"class.__gnu_cxx::__normal_iterator.26", ptr %agg.tmp8, i32 0, i32 0
  store ptr %call10, ptr %coerce.dive11, align 8
  %coerce.dive13 = getelementptr inbounds %"class.__gnu_cxx::__normal_iterator.26", ptr %agg.tmp, i32 0, i32 0
  %8 = load ptr, ptr %coerce.dive13, align 8
  %coerce.dive14 = getelementptr inbounds %"class.__gnu_cxx::__normal_iterator.26", ptr %agg.tmp4, i32 0, i32 0
  %9 = load ptr, ptr %coerce.dive14, align 8
  %coerce.dive15 = getelementptr inbounds %"class.__gnu_cxx::__normal_iterator.26", ptr %agg.tmp8, i32 0, i32 0
  %10 = load ptr, ptr %coerce.dive15, align 8
  %call16 = call noundef zeroext i1 @"_ZSt5equalIN9__gnu_cxx17__normal_iteratorIPKN8facebook6hermes7tracing10SynthTrace10TraceValueESt6vectorIS6_SaIS6_EEEESC_ZNKS5_10CallRecordeqERKNS5_6RecordEE3$_0EbT_SI_T0_T1_"(ptr %8, ptr %9, ptr %10)
  br label %land.end

land.end:                                         ; preds = %land.rhs, %dynamic_cast.end
  %11 = phi i1 [ false, %dynamic_cast.end ], [ %call16, %land.rhs ]
  store i1 %11, ptr %retval, align 1
  br label %return

return:                                           ; preds = %land.end, %if.then
  %12 = load i1, ptr %retval, align 1
  ret i1 %12
}

; Function Attrs: mustprogress uwtable
define internal noundef zeroext i1 @"_ZSt5equalIN9__gnu_cxx17__normal_iteratorIPKN8facebook6hermes7tracing10SynthTrace10TraceValueESt6vectorIS6_SaIS6_EEEESC_ZNKS5_10CallRecordeqERKNS5_6RecordEE3$_0EbT_SI_T0_T1_"(ptr %__first1.coerce, ptr %__last1.coerce, ptr %__first2.coerce) #1 {
entry:
  %retval = alloca i1, align 1
  %__first1 = alloca %"class.__gnu_cxx::__normal_iterator.26", align 8
  %__last1 = alloca %"class.__gnu_cxx::__normal_iterator.26", align 8
  %__first2 = alloca %"class.__gnu_cxx::__normal_iterator.26", align 8
  %__binary_pred = alloca %class.anon, align 1
  %agg.tmp = alloca %"class.facebook::hermes::tracing::SynthTrace::TraceValue", align 8
  %agg.tmp4 = alloca %"class.facebook::hermes::tracing::SynthTrace::TraceValue", align 8
  %coerce.dive = getelementptr inbounds %"class.__gnu_cxx::__normal_iterator.26", ptr %__first1, i32 0, i32 0
  store ptr %__first1.coerce, ptr %coerce.dive, align 8
  %coerce.dive1 = getelementptr inbounds %"class.__gnu_cxx::__normal_iterator.26", ptr %__last1, i32 0, i32 0
  store ptr %__last1.coerce, ptr %coerce.dive1, align 8
  %coerce.dive2 = getelementptr inbounds %"class.__gnu_cxx::__normal_iterator.26", ptr %__first2, i32 0, i32 0
  store ptr %__first2.coerce, ptr %coerce.dive2, align 8
  br label %for.cond

for.cond:                                         ; preds = %for.inc, %entry
  %call = call noundef zeroext i1 @_ZN9__gnu_cxxneIPKN8facebook6hermes7tracing10SynthTrace10TraceValueESt6vectorIS5_SaIS5_EEEEbRKNS_17__normal_iteratorIT_T0_EESG_(ptr noundef nonnull align 8 dereferenceable(8) %__first1, ptr noundef nonnull align 8 dereferenceable(8) %__last1) #13
  br i1 %call, label %for.body, label %for.end

for.body:                                         ; preds = %for.cond
  %call3 = call noundef nonnull align 8 dereferenceable(16) ptr @_ZNK9__gnu_cxx17__normal_iteratorIPKN8facebook6hermes7tracing10SynthTrace10TraceValueESt6vectorIS5_SaIS5_EEEdeEv(ptr noundef nonnull align 8 dereferenceable(8) %__first1) #13
  call void @llvm.memcpy.p0.p0.i64(ptr align 8 %agg.tmp, ptr align 8 %call3, i64 16, i1 false)
  %call5 = call noundef nonnull align 8 dereferenceable(16) ptr @_ZNK9__gnu_cxx17__normal_iteratorIPKN8facebook6hermes7tracing10SynthTrace10TraceValueESt6vectorIS5_SaIS5_EEEdeEv(ptr noundef nonnull align 8 dereferenceable(8) %__first2) #13
  call void @llvm.memcpy.p0.p0.i64(ptr align 8 %agg.tmp4, ptr align 8 %call5, i64 16, i1 false)
  %0 = getelementptr inbounds { i32, i64 }, ptr %agg.tmp, i32 0, i32 0
  %1 = load i32, ptr %0, align 8
  %2 = getelementptr inbounds { i32, i64 }, ptr %agg.tmp, i32 0, i32 1
  %3 = load i64, ptr %2, align 8
  %4 = getelementptr inbounds { i32, i64 }, ptr %agg.tmp4, i32 0, i32 0
  %5 = load i32, ptr %4, align 8
  %6 = getelementptr inbounds { i32, i64 }, ptr %agg.tmp4, i32 0, i32 1
  %7 = load i64, ptr %6, align 8
  %call6 = call noundef zeroext i1 @"_ZZNK8facebook6hermes7tracing10SynthTrace10CallRecordeqERKNS2_6RecordEENK3$_0clENS2_10TraceValueES8_"(ptr noundef nonnull align 1 dereferenceable(1) %__binary_pred, i32 %1, i64 %3, i32 %5, i64 %7)
  br i1 %call6, label %if.end, label %if.then

if.then:                                          ; preds = %for.body
  store i1 false, ptr %retval, align 1
  br label %return

if.end:                                           ; preds = %for.body
  br label %for.inc

for.inc:                                          ; preds = %if.end
  %call7 = call noundef nonnull align 8 dereferenceable(8) ptr @_ZN9__gnu_cxx17__normal_iteratorIPKN8facebook6hermes7tracing10SynthTrace10TraceValueESt6vectorIS5_SaIS5_EEEppEv(ptr noundef nonnull align 8 dereferenceable(8) %__first1) #13
  %call8 = call noundef nonnull align 8 dereferenceable(8) ptr @_ZN9__gnu_cxx17__normal_iteratorIPKN8facebook6hermes7tracing10SynthTrace10TraceValueESt6vectorIS5_SaIS5_EEEppEv(ptr noundef nonnull align 8 dereferenceable(8) %__first2) #13
  br label %for.cond, !llvm.loop !4

for.end:                                          ; preds = %for.cond
  store i1 true, ptr %retval, align 1
  br label %return

return:                                           ; preds = %for.end, %if.then
  %8 = load i1, ptr %retval, align 1
  ret i1 %8
}

; Function Attrs: mustprogress nounwind uwtable
define linkonce_odr hidden ptr @_ZNKSt6vectorIN8facebook6hermes7tracing10SynthTrace10TraceValueESaIS4_EE5beginEv(ptr noundef nonnull align 8 dereferenceable(24) %this) #0 comdat align 2 {
entry:
  %retval = alloca %"class.__gnu_cxx::__normal_iterator.26", align 8
  %this.addr = alloca ptr, align 8
  store ptr %this, ptr %this.addr, align 8
  %this1 = load ptr, ptr %this.addr, align 8
  %_M_impl = getelementptr inbounds %"struct.std::_Vector_base.22", ptr %this1, i32 0, i32 0
  %_M_start = getelementptr inbounds %"struct.std::_Vector_base<facebook::hermes::tracing::SynthTrace::TraceValue, std::allocator<facebook::hermes::tracing::SynthTrace::TraceValue>>::_Vector_impl_data", ptr %_M_impl, i32 0, i32 0
  call void @_ZN9__gnu_cxx17__normal_iteratorIPKN8facebook6hermes7tracing10SynthTrace10TraceValueESt6vectorIS5_SaIS5_EEEC2ERKS7_(ptr noundef nonnull align 8 dereferenceable(8) %retval, ptr noundef nonnull align 8 dereferenceable(8) %_M_start) #13
  %coerce.dive = getelementptr inbounds %"class.__gnu_cxx::__normal_iterator.26", ptr %retval, i32 0, i32 0
  %0 = load ptr, ptr %coerce.dive, align 8
  ret ptr %0
}

; Function Attrs: mustprogress nounwind uwtable
define linkonce_odr hidden ptr @_ZNKSt6vectorIN8facebook6hermes7tracing10SynthTrace10TraceValueESaIS4_EE3endEv(ptr noundef nonnull align 8 dereferenceable(24) %this) #0 comdat align 2 {
entry:
  %retval = alloca %"class.__gnu_cxx::__normal_iterator.26", align 8
  %this.addr = alloca ptr, align 8
  store ptr %this, ptr %this.addr, align 8
  %this1 = load ptr, ptr %this.addr, align 8
  %_M_impl = getelementptr inbounds %"struct.std::_Vector_base.22", ptr %this1, i32 0, i32 0
  %_M_finish = getelementptr inbounds %"struct.std::_Vector_base<facebook::hermes::tracing::SynthTrace::TraceValue, std::allocator<facebook::hermes::tracing::SynthTrace::TraceValue>>::_Vector_impl_data", ptr %_M_impl, i32 0, i32 1
  call void @_ZN9__gnu_cxx17__normal_iteratorIPKN8facebook6hermes7tracing10SynthTrace10TraceValueESt6vectorIS5_SaIS5_EEEC2ERKS7_(ptr noundef nonnull align 8 dereferenceable(8) %retval, ptr noundef nonnull align 8 dereferenceable(8) %_M_finish) #13
  %coerce.dive = getelementptr inbounds %"class.__gnu_cxx::__normal_iterator.26", ptr %retval, i32 0, i32 0
  %0 = load ptr, ptr %coerce.dive, align 8
  ret ptr %0
}

; Function Attrs: mustprogress uwtable
define hidden noundef zeroext i1 @_ZNK8facebook6hermes7tracing10SynthTrace22ReturnFromNativeRecordeqERKNS2_6RecordE(ptr noundef nonnull align 8 dereferenceable(32) %this, ptr noundef nonnull align 8 dereferenceable(16) %that) unnamed_addr #1 align 2 {
entry:
  %retval = alloca i1, align 1
  %this.addr = alloca ptr, align 8
  %that.addr = alloca ptr, align 8
  store ptr %this, ptr %this.addr, align 8
  store ptr %that, ptr %that.addr, align 8
  %this1 = load ptr, ptr %this.addr, align 8
  %0 = load ptr, ptr %that.addr, align 8
  %call = call noundef zeroext i1 @_ZNK8facebook6hermes7tracing10SynthTrace6RecordeqERKS3_(ptr noundef nonnull align 8 dereferenceable(16) %this1, ptr noundef nonnull align 8 dereferenceable(16) %0)
  br i1 %call, label %if.end, label %if.then

if.then:                                          ; preds = %entry
  store i1 false, ptr %retval, align 1
  br label %return

if.end:                                           ; preds = %entry
  %add.ptr = getelementptr inbounds i8, ptr %this1, i64 16
  %1 = load ptr, ptr %that.addr, align 8
  %2 = call ptr @__dynamic_cast(ptr %1, ptr @_ZTIN8facebook6hermes7tracing10SynthTrace6RecordE, ptr @_ZTIN8facebook6hermes7tracing10SynthTrace22ReturnFromNativeRecordE, i64 0) #13
  %3 = icmp eq ptr %2, null
  br i1 %3, label %dynamic_cast.bad_cast, label %dynamic_cast.end

dynamic_cast.bad_cast:                            ; preds = %if.end
  call void @__cxa_bad_cast() #18
  unreachable

dynamic_cast.end:                                 ; preds = %if.end
  %add.ptr2 = getelementptr inbounds i8, ptr %2, i64 16
  %call3 = call noundef zeroext i1 @_ZNK8facebook6hermes7tracing10SynthTrace11ReturnMixineqERKS3_(ptr noundef nonnull align 8 dereferenceable(16) %add.ptr, ptr noundef nonnull align 8 dereferenceable(16) %add.ptr2)
  store i1 %call3, ptr %retval, align 1
  br label %return

return:                                           ; preds = %dynamic_cast.end, %if.then
  %4 = load i1, ptr %retval, align 1
  ret i1 %4
}

; Function Attrs: mustprogress uwtable
define hidden noundef zeroext i1 @_ZNK8facebook6hermes7tracing10SynthTrace20ReturnToNativeRecordeqERKNS2_6RecordE(ptr noundef nonnull align 8 dereferenceable(32) %this, ptr noundef nonnull align 8 dereferenceable(16) %that) unnamed_addr #1 align 2 {
entry:
  %retval = alloca i1, align 1
  %this.addr = alloca ptr, align 8
  %that.addr = alloca ptr, align 8
  store ptr %this, ptr %this.addr, align 8
  store ptr %that, ptr %that.addr, align 8
  %this1 = load ptr, ptr %this.addr, align 8
  %0 = load ptr, ptr %that.addr, align 8
  %call = call noundef zeroext i1 @_ZNK8facebook6hermes7tracing10SynthTrace6RecordeqERKS3_(ptr noundef nonnull align 8 dereferenceable(16) %this1, ptr noundef nonnull align 8 dereferenceable(16) %0)
  br i1 %call, label %if.end, label %if.then

if.then:                                          ; preds = %entry
  store i1 false, ptr %retval, align 1
  br label %return

if.end:                                           ; preds = %entry
  %add.ptr = getelementptr inbounds i8, ptr %this1, i64 16
  %1 = load ptr, ptr %that.addr, align 8
  %2 = call ptr @__dynamic_cast(ptr %1, ptr @_ZTIN8facebook6hermes7tracing10SynthTrace6RecordE, ptr @_ZTIN8facebook6hermes7tracing10SynthTrace11ReturnMixinE, i64 -2) #13
  %3 = icmp eq ptr %2, null
  br i1 %3, label %dynamic_cast.bad_cast, label %dynamic_cast.end

dynamic_cast.bad_cast:                            ; preds = %if.end
  call void @__cxa_bad_cast() #18
  unreachable

dynamic_cast.end:                                 ; preds = %if.end
  %call2 = call noundef zeroext i1 @_ZNK8facebook6hermes7tracing10SynthTrace11ReturnMixineqERKS3_(ptr noundef nonnull align 8 dereferenceable(16) %add.ptr, ptr noundef nonnull align 8 dereferenceable(16) %2)
  store i1 %call2, ptr %retval, align 1
  br label %return

return:                                           ; preds = %dynamic_cast.end, %if.then
  %4 = load i1, ptr %retval, align 1
  ret i1 %4
}

; Function Attrs: mustprogress uwtable
define hidden noundef zeroext i1 @_ZNK8facebook6hermes7tracing10SynthTrace28GetOrSetPropertyNativeRecordeqERKNS2_6RecordE(ptr noundef nonnull align 8 dereferenceable(64) %this, ptr noundef nonnull align 8 dereferenceable(16) %that) unnamed_addr #1 align 2 {
entry:
  %retval = alloca i1, align 1
  %this.addr = alloca ptr, align 8
  %that.addr = alloca ptr, align 8
  %thatCasted = alloca ptr, align 8
  store ptr %this, ptr %this.addr, align 8
  store ptr %that, ptr %that.addr, align 8
  %this1 = load ptr, ptr %this.addr, align 8
  %0 = load ptr, ptr %that.addr, align 8
  %call = call noundef zeroext i1 @_ZNK8facebook6hermes7tracing10SynthTrace6RecordeqERKS3_(ptr noundef nonnull align 8 dereferenceable(16) %this1, ptr noundef nonnull align 8 dereferenceable(16) %0)
  br i1 %call, label %if.end, label %if.then

if.then:                                          ; preds = %entry
  store i1 false, ptr %retval, align 1
  br label %return

if.end:                                           ; preds = %entry
  %1 = load ptr, ptr %that.addr, align 8
  %2 = icmp eq ptr %1, null
  br i1 %2, label %dynamic_cast.null, label %dynamic_cast.notnull

dynamic_cast.notnull:                             ; preds = %if.end
  %3 = call ptr @__dynamic_cast(ptr %1, ptr @_ZTIN8facebook6hermes7tracing10SynthTrace6RecordE, ptr @_ZTIN8facebook6hermes7tracing10SynthTrace28GetOrSetPropertyNativeRecordE, i64 0) #13
  br label %dynamic_cast.end

dynamic_cast.null:                                ; preds = %if.end
  br label %dynamic_cast.end

dynamic_cast.end:                                 ; preds = %dynamic_cast.null, %dynamic_cast.notnull
  %4 = phi ptr [ %3, %dynamic_cast.notnull ], [ null, %dynamic_cast.null ]
  store ptr %4, ptr %thatCasted, align 8
  %hostObjectID_ = getelementptr inbounds %"struct.facebook::hermes::tracing::SynthTrace::GetOrSetPropertyNativeRecord", ptr %this1, i32 0, i32 1
  %5 = load i64, ptr %hostObjectID_, align 8
  %6 = load ptr, ptr %thatCasted, align 8
  %hostObjectID_2 = getelementptr inbounds %"struct.facebook::hermes::tracing::SynthTrace::GetOrSetPropertyNativeRecord", ptr %6, i32 0, i32 1
  %7 = load i64, ptr %hostObjectID_2, align 8
  %cmp = icmp eq i64 %5, %7
  br i1 %cmp, label %land.lhs.true, label %land.end

land.lhs.true:                                    ; preds = %dynamic_cast.end
  %propNameID_ = getelementptr inbounds %"struct.facebook::hermes::tracing::SynthTrace::GetOrSetPropertyNativeRecord", ptr %this1, i32 0, i32 2
  %8 = load i64, ptr %propNameID_, align 8
  %9 = load ptr, ptr %thatCasted, align 8
  %propNameID_3 = getelementptr inbounds %"struct.facebook::hermes::tracing::SynthTrace::GetOrSetPropertyNativeRecord", ptr %9, i32 0, i32 2
  %10 = load i64, ptr %propNameID_3, align 8
  %cmp4 = icmp eq i64 %8, %10
  br i1 %cmp4, label %land.rhs, label %land.end

land.rhs:                                         ; preds = %land.lhs.true
  %propName_ = getelementptr inbounds %"struct.facebook::hermes::tracing::SynthTrace::GetOrSetPropertyNativeRecord", ptr %this1, i32 0, i32 3
  %11 = load ptr, ptr %thatCasted, align 8
  %propName_5 = getelementptr inbounds %"struct.facebook::hermes::tracing::SynthTrace::GetOrSetPropertyNativeRecord", ptr %11, i32 0, i32 3
  %call6 = call noundef zeroext i1 @_ZSteqIcEN9__gnu_cxx11__enable_ifIXsr9__is_charIT_EE7__valueEbE6__typeERKNSt7__cxx1112basic_stringIS2_St11char_traitsIS2_ESaIS2_EEESC_(ptr noundef nonnull align 8 dereferenceable(32) %propName_, ptr noundef nonnull align 8 dereferenceable(32) %propName_5) #13
  br label %land.end

land.end:                                         ; preds = %land.rhs, %land.lhs.true, %dynamic_cast.end
  %12 = phi i1 [ false, %land.lhs.true ], [ false, %dynamic_cast.end ], [ %call6, %land.rhs ]
  store i1 %12, ptr %retval, align 1
  br label %return

return:                                           ; preds = %land.end, %if.then
  %13 = load i1, ptr %retval, align 1
  ret i1 %13
}

; Function Attrs: mustprogress uwtable
define hidden noundef zeroext i1 @_ZNK8facebook6hermes7tracing10SynthTrace23GetPropertyNativeRecordeqERKNS2_6RecordE(ptr noundef nonnull align 8 dereferenceable(64) %this, ptr noundef nonnull align 8 dereferenceable(16) %that) unnamed_addr #1 align 2 {
entry:
  %this.addr = alloca ptr, align 8
  %that.addr = alloca ptr, align 8
  store ptr %this, ptr %this.addr, align 8
  store ptr %that, ptr %that.addr, align 8
  %this1 = load ptr, ptr %this.addr, align 8
  %0 = load ptr, ptr %that.addr, align 8
  %call = call noundef zeroext i1 @_ZNK8facebook6hermes7tracing10SynthTrace28GetOrSetPropertyNativeRecordeqERKNS2_6RecordE(ptr noundef nonnull align 8 dereferenceable(64) %this1, ptr noundef nonnull align 8 dereferenceable(16) %0)
  ret i1 %call
}

; Function Attrs: mustprogress uwtable
define hidden noundef zeroext i1 @_ZNK8facebook6hermes7tracing10SynthTrace29GetPropertyNativeReturnRecordeqERKNS2_6RecordE(ptr noundef nonnull align 8 dereferenceable(32) %this, ptr noundef nonnull align 8 dereferenceable(16) %that) unnamed_addr #1 align 2 {
entry:
  %retval = alloca i1, align 1
  %this.addr = alloca ptr, align 8
  %that.addr = alloca ptr, align 8
  %thatCasted = alloca %"struct.facebook::hermes::tracing::SynthTrace::GetPropertyNativeReturnRecord", align 8
  store ptr %this, ptr %this.addr, align 8
  store ptr %that, ptr %that.addr, align 8
  %this1 = load ptr, ptr %this.addr, align 8
  %0 = load ptr, ptr %that.addr, align 8
  %call = call noundef zeroext i1 @_ZNK8facebook6hermes7tracing10SynthTrace6RecordeqERKS3_(ptr noundef nonnull align 8 dereferenceable(16) %this1, ptr noundef nonnull align 8 dereferenceable(16) %0)
  br i1 %call, label %if.end, label %if.then

if.then:                                          ; preds = %entry
  store i1 false, ptr %retval, align 1
  br label %return

if.end:                                           ; preds = %entry
  %1 = load ptr, ptr %that.addr, align 8
  %2 = call ptr @__dynamic_cast(ptr %1, ptr @_ZTIN8facebook6hermes7tracing10SynthTrace6RecordE, ptr @_ZTIN8facebook6hermes7tracing10SynthTrace29GetPropertyNativeReturnRecordE, i64 0) #13
  %3 = icmp eq ptr %2, null
  br i1 %3, label %dynamic_cast.bad_cast, label %dynamic_cast.end

dynamic_cast.bad_cast:                            ; preds = %if.end
  call void @__cxa_bad_cast() #18
  unreachable

dynamic_cast.end:                                 ; preds = %if.end
  call void @_ZN8facebook6hermes7tracing10SynthTrace29GetPropertyNativeReturnRecordC2ERKS3_(ptr noundef nonnull align 8 dereferenceable(32) %thatCasted, ptr noundef nonnull align 8 dereferenceable(32) %2) #13
  %add.ptr = getelementptr inbounds i8, ptr %this1, i64 16
  %add.ptr2 = getelementptr inbounds i8, ptr %thatCasted, i64 16
  %call3 = call noundef zeroext i1 @_ZNK8facebook6hermes7tracing10SynthTrace11ReturnMixineqERKS3_(ptr noundef nonnull align 8 dereferenceable(16) %add.ptr, ptr noundef nonnull align 8 dereferenceable(16) %add.ptr2)
  store i1 %call3, ptr %retval, align 1
  call void @_ZN8facebook6hermes7tracing10SynthTrace29GetPropertyNativeReturnRecordD2Ev(ptr noundef nonnull align 8 dereferenceable(32) %thatCasted) #13
  br label %return

return:                                           ; preds = %dynamic_cast.end, %if.then
  %4 = load i1, ptr %retval, align 1
  ret i1 %4
}

; Function Attrs: mustprogress nounwind uwtable
define linkonce_odr hidden void @_ZN8facebook6hermes7tracing10SynthTrace29GetPropertyNativeReturnRecordC2ERKS3_(ptr noundef nonnull align 8 dereferenceable(32) %this, ptr noundef nonnull align 8 dereferenceable(32) %0) unnamed_addr #0 comdat align 2 {
entry:
  %this.addr = alloca ptr, align 8
  %.addr = alloca ptr, align 8
  store ptr %this, ptr %this.addr, align 8
  store ptr %0, ptr %.addr, align 8
  %this1 = load ptr, ptr %this.addr, align 8
  %1 = load ptr, ptr %.addr, align 8
  call void @_ZN8facebook6hermes7tracing10SynthTrace6RecordC2ERKS3_(ptr noundef nonnull align 8 dereferenceable(16) %this1, ptr noundef nonnull align 8 dereferenceable(16) %1) #13
  %2 = getelementptr inbounds i8, ptr %this1, i64 16
  %3 = load ptr, ptr %.addr, align 8
  %add.ptr = getelementptr inbounds i8, ptr %3, i64 16
  call void @llvm.memcpy.p0.p0.i64(ptr align 8 %2, ptr align 8 %add.ptr, i64 16, i1 false)
  store ptr getelementptr inbounds ({ [9 x ptr] }, ptr @_ZTVN8facebook6hermes7tracing10SynthTrace29GetPropertyNativeReturnRecordE, i32 0, inrange i32 0, i32 2), ptr %this1, align 8
  ret void
}

; Function Attrs: mustprogress nounwind uwtable
define linkonce_odr hidden void @_ZN8facebook6hermes7tracing10SynthTrace29GetPropertyNativeReturnRecordD2Ev(ptr noundef nonnull align 8 dereferenceable(32) %this) unnamed_addr #0 comdat align 2 {
entry:
  %this.addr = alloca ptr, align 8
  store ptr %this, ptr %this.addr, align 8
  %this1 = load ptr, ptr %this.addr, align 8
  call void @_ZN8facebook6hermes7tracing10SynthTrace6RecordD2Ev(ptr noundef nonnull align 8 dereferenceable(16) %this1) #13
  ret void
}

; Function Attrs: mustprogress uwtable
define hidden noundef zeroext i1 @_ZNK8facebook6hermes7tracing10SynthTrace23SetPropertyNativeRecordeqERKNS2_6RecordE(ptr noundef nonnull align 8 dereferenceable(80) %this, ptr noundef nonnull align 8 dereferenceable(16) %that) unnamed_addr #1 align 2 {
entry:
  %this.addr = alloca ptr, align 8
  %that.addr = alloca ptr, align 8
  store ptr %this, ptr %this.addr, align 8
  store ptr %that, ptr %that.addr, align 8
  %this1 = load ptr, ptr %this.addr, align 8
  %0 = load ptr, ptr %that.addr, align 8
  %call = call noundef zeroext i1 @_ZNK8facebook6hermes7tracing10SynthTrace28GetOrSetPropertyNativeRecordeqERKNS2_6RecordE(ptr noundef nonnull align 8 dereferenceable(64) %this1, ptr noundef nonnull align 8 dereferenceable(16) %0)
  br i1 %call, label %land.rhs, label %land.end

land.rhs:                                         ; preds = %entry
  %value_ = getelementptr inbounds %"struct.facebook::hermes::tracing::SynthTrace::SetPropertyNativeRecord", ptr %this1, i32 0, i32 1
  %1 = load ptr, ptr %that.addr, align 8
  %2 = call ptr @__dynamic_cast(ptr %1, ptr @_ZTIN8facebook6hermes7tracing10SynthTrace6RecordE, ptr @_ZTIN8facebook6hermes7tracing10SynthTrace23SetPropertyNativeRecordE, i64 0) #13
  %3 = icmp eq ptr %2, null
  br i1 %3, label %dynamic_cast.bad_cast, label %dynamic_cast.end

dynamic_cast.bad_cast:                            ; preds = %land.rhs
  call void @__cxa_bad_cast() #18
  unreachable

dynamic_cast.end:                                 ; preds = %land.rhs
  %value_2 = getelementptr inbounds %"struct.facebook::hermes::tracing::SynthTrace::SetPropertyNativeRecord", ptr %2, i32 0, i32 1
  %call3 = call noundef zeroext i1 @_ZNK8facebook6hermes7tracing10SynthTrace10TraceValueeqERKS3_(ptr noundef nonnull align 8 dereferenceable(16) %value_, ptr noundef nonnull align 8 dereferenceable(16) %value_2)
  br label %land.end

land.end:                                         ; preds = %dynamic_cast.end, %entry
  %4 = phi i1 [ false, %entry ], [ %call3, %dynamic_cast.end ]
  ret i1 %4
}

; Function Attrs: mustprogress uwtable
define hidden noundef zeroext i1 @_ZNK8facebook6hermes7tracing10SynthTrace28GetNativePropertyNamesRecordeqERKNS2_6RecordE(ptr noundef nonnull align 8 dereferenceable(24) %this, ptr noundef nonnull align 8 dereferenceable(16) %that) unnamed_addr #1 align 2 {
entry:
  %retval = alloca i1, align 1
  %this.addr = alloca ptr, align 8
  %that.addr = alloca ptr, align 8
  %thatCasted = alloca ptr, align 8
  store ptr %this, ptr %this.addr, align 8
  store ptr %that, ptr %that.addr, align 8
  %this1 = load ptr, ptr %this.addr, align 8
  %0 = load ptr, ptr %that.addr, align 8
  %call = call noundef zeroext i1 @_ZNK8facebook6hermes7tracing10SynthTrace6RecordeqERKS3_(ptr noundef nonnull align 8 dereferenceable(16) %this1, ptr noundef nonnull align 8 dereferenceable(16) %0)
  br i1 %call, label %if.end, label %if.then

if.then:                                          ; preds = %entry
  store i1 false, ptr %retval, align 1
  br label %return

if.end:                                           ; preds = %entry
  %1 = load ptr, ptr %that.addr, align 8
  %2 = call ptr @__dynamic_cast(ptr %1, ptr @_ZTIN8facebook6hermes7tracing10SynthTrace6RecordE, ptr @_ZTIN8facebook6hermes7tracing10SynthTrace28GetNativePropertyNamesRecordE, i64 0) #13
  %3 = icmp eq ptr %2, null
  br i1 %3, label %dynamic_cast.bad_cast, label %dynamic_cast.end

dynamic_cast.bad_cast:                            ; preds = %if.end
  call void @__cxa_bad_cast() #18
  unreachable

dynamic_cast.end:                                 ; preds = %if.end
  store ptr %2, ptr %thatCasted, align 8
  %hostObjectID_ = getelementptr inbounds %"struct.facebook::hermes::tracing::SynthTrace::GetNativePropertyNamesRecord", ptr %this1, i32 0, i32 1
  %4 = load i64, ptr %hostObjectID_, align 8
  %5 = load ptr, ptr %thatCasted, align 8
  %hostObjectID_2 = getelementptr inbounds %"struct.facebook::hermes::tracing::SynthTrace::GetNativePropertyNamesRecord", ptr %5, i32 0, i32 1
  %6 = load i64, ptr %hostObjectID_2, align 8
  %cmp = icmp eq i64 %4, %6
  store i1 %cmp, ptr %retval, align 1
  br label %return

return:                                           ; preds = %dynamic_cast.end, %if.then
  %7 = load i1, ptr %retval, align 1
  ret i1 %7
}

; Function Attrs: mustprogress uwtable
define hidden noundef zeroext i1 @_ZNK8facebook6hermes7tracing10SynthTrace34GetNativePropertyNamesReturnRecordeqERKNS2_6RecordE(ptr noundef nonnull align 8 dereferenceable(40) %this, ptr noundef nonnull align 8 dereferenceable(16) %that) unnamed_addr #1 align 2 {
entry:
  %retval = alloca i1, align 1
  %this.addr = alloca ptr, align 8
  %that.addr = alloca ptr, align 8
  %thatCasted = alloca ptr, align 8
  store ptr %this, ptr %this.addr, align 8
  store ptr %that, ptr %that.addr, align 8
  %this1 = load ptr, ptr %this.addr, align 8
  %0 = load ptr, ptr %that.addr, align 8
  %call = call noundef zeroext i1 @_ZNK8facebook6hermes7tracing10SynthTrace6RecordeqERKS3_(ptr noundef nonnull align 8 dereferenceable(16) %this1, ptr noundef nonnull align 8 dereferenceable(16) %0)
  br i1 %call, label %if.end, label %if.then

if.then:                                          ; preds = %entry
  store i1 false, ptr %retval, align 1
  br label %return

if.end:                                           ; preds = %entry
  %1 = load ptr, ptr %that.addr, align 8
  %2 = call ptr @__dynamic_cast(ptr %1, ptr @_ZTIN8facebook6hermes7tracing10SynthTrace6RecordE, ptr @_ZTIN8facebook6hermes7tracing10SynthTrace34GetNativePropertyNamesReturnRecordE, i64 0) #13
  %3 = icmp eq ptr %2, null
  br i1 %3, label %dynamic_cast.bad_cast, label %dynamic_cast.end

dynamic_cast.bad_cast:                            ; preds = %if.end
  call void @__cxa_bad_cast() #18
  unreachable

dynamic_cast.end:                                 ; preds = %if.end
  store ptr %2, ptr %thatCasted, align 8
  %propNames_ = getelementptr inbounds %"struct.facebook::hermes::tracing::SynthTrace::GetNativePropertyNamesReturnRecord", ptr %this1, i32 0, i32 1
  %4 = load ptr, ptr %thatCasted, align 8
  %propNames_2 = getelementptr inbounds %"struct.facebook::hermes::tracing::SynthTrace::GetNativePropertyNamesReturnRecord", ptr %4, i32 0, i32 1
  %call3 = call noundef zeroext i1 @_ZSteqINSt7__cxx1112basic_stringIcSt11char_traitsIcESaIcEEESaIS5_EEbRKSt6vectorIT_T0_ESC_(ptr noundef nonnull align 8 dereferenceable(24) %propNames_, ptr noundef nonnull align 8 dereferenceable(24) %propNames_2)
  store i1 %call3, ptr %retval, align 1
  br label %return

return:                                           ; preds = %dynamic_cast.end, %if.then
  %5 = load i1, ptr %retval, align 1
  ret i1 %5
}

; Function Attrs: mustprogress uwtable
define linkonce_odr noundef zeroext i1 @_ZSteqINSt7__cxx1112basic_stringIcSt11char_traitsIcESaIcEEESaIS5_EEbRKSt6vectorIT_T0_ESC_(ptr noundef nonnull align 8 dereferenceable(24) %__x, ptr noundef nonnull align 8 dereferenceable(24) %__y) #1 comdat {
entry:
  %__x.addr = alloca ptr, align 8
  %__y.addr = alloca ptr, align 8
  %agg.tmp = alloca %"class.__gnu_cxx::__normal_iterator.32", align 8
  %agg.tmp3 = alloca %"class.__gnu_cxx::__normal_iterator.32", align 8
  %agg.tmp6 = alloca %"class.__gnu_cxx::__normal_iterator.32", align 8
  store ptr %__x, ptr %__x.addr, align 8
  store ptr %__y, ptr %__y.addr, align 8
  %0 = load ptr, ptr %__x.addr, align 8
  %call = call noundef i64 @_ZNKSt6vectorINSt7__cxx1112basic_stringIcSt11char_traitsIcESaIcEEESaIS5_EE4sizeEv(ptr noundef nonnull align 8 dereferenceable(24) %0) #13
  %1 = load ptr, ptr %__y.addr, align 8
  %call1 = call noundef i64 @_ZNKSt6vectorINSt7__cxx1112basic_stringIcSt11char_traitsIcESaIcEEESaIS5_EE4sizeEv(ptr noundef nonnull align 8 dereferenceable(24) %1) #13
  %cmp = icmp eq i64 %call, %call1
  br i1 %cmp, label %land.rhs, label %land.end

land.rhs:                                         ; preds = %entry
  %2 = load ptr, ptr %__x.addr, align 8
  %call2 = call ptr @_ZNKSt6vectorINSt7__cxx1112basic_stringIcSt11char_traitsIcESaIcEEESaIS5_EE5beginEv(ptr noundef nonnull align 8 dereferenceable(24) %2) #13
  %coerce.dive = getelementptr inbounds %"class.__gnu_cxx::__normal_iterator.32", ptr %agg.tmp, i32 0, i32 0
  store ptr %call2, ptr %coerce.dive, align 8
  %3 = load ptr, ptr %__x.addr, align 8
  %call4 = call ptr @_ZNKSt6vectorINSt7__cxx1112basic_stringIcSt11char_traitsIcESaIcEEESaIS5_EE3endEv(ptr noundef nonnull align 8 dereferenceable(24) %3) #13
  %coerce.dive5 = getelementptr inbounds %"class.__gnu_cxx::__normal_iterator.32", ptr %agg.tmp3, i32 0, i32 0
  store ptr %call4, ptr %coerce.dive5, align 8
  %4 = load ptr, ptr %__y.addr, align 8
  %call7 = call ptr @_ZNKSt6vectorINSt7__cxx1112basic_stringIcSt11char_traitsIcESaIcEEESaIS5_EE5beginEv(ptr noundef nonnull align 8 dereferenceable(24) %4) #13
  %coerce.dive8 = getelementptr inbounds %"class.__gnu_cxx::__normal_iterator.32", ptr %agg.tmp6, i32 0, i32 0
  store ptr %call7, ptr %coerce.dive8, align 8
  %coerce.dive9 = getelementptr inbounds %"class.__gnu_cxx::__normal_iterator.32", ptr %agg.tmp, i32 0, i32 0
  %5 = load ptr, ptr %coerce.dive9, align 8
  %coerce.dive10 = getelementptr inbounds %"class.__gnu_cxx::__normal_iterator.32", ptr %agg.tmp3, i32 0, i32 0
  %6 = load ptr, ptr %coerce.dive10, align 8
  %coerce.dive11 = getelementptr inbounds %"class.__gnu_cxx::__normal_iterator.32", ptr %agg.tmp6, i32 0, i32 0
  %7 = load ptr, ptr %coerce.dive11, align 8
  %call12 = call noundef zeroext i1 @_ZSt5equalIN9__gnu_cxx17__normal_iteratorIPKNSt7__cxx1112basic_stringIcSt11char_traitsIcESaIcEEESt6vectorIS7_SaIS7_EEEESD_EbT_SE_T0_(ptr %5, ptr %6, ptr %7)
  br label %land.end

land.end:                                         ; preds = %land.rhs, %entry
  %8 = phi i1 [ false, %entry ], [ %call12, %land.rhs ]
  ret i1 %8
}

; Function Attrs: mustprogress uwtable
define hidden noundef zeroext i1 @_ZNK8facebook6hermes7tracing10SynthTrace31SetExternalMemoryPressureRecordeqERKNS2_6RecordE(ptr noundef nonnull align 8 dereferenceable(32) %this, ptr noundef nonnull align 8 dereferenceable(16) %that) unnamed_addr #1 align 2 {
entry:
  %retval = alloca i1, align 1
  %this.addr = alloca ptr, align 8
  %that.addr = alloca ptr, align 8
  %thatCasted = alloca ptr, align 8
  store ptr %this, ptr %this.addr, align 8
  store ptr %that, ptr %that.addr, align 8
  %this1 = load ptr, ptr %this.addr, align 8
  %0 = load ptr, ptr %that.addr, align 8
  %call = call noundef zeroext i1 @_ZNK8facebook6hermes7tracing10SynthTrace6RecordeqERKS3_(ptr noundef nonnull align 8 dereferenceable(16) %this1, ptr noundef nonnull align 8 dereferenceable(16) %0)
  br i1 %call, label %if.end, label %if.then

if.then:                                          ; preds = %entry
  store i1 false, ptr %retval, align 1
  br label %return

if.end:                                           ; preds = %entry
  %1 = load ptr, ptr %that.addr, align 8
  %2 = call ptr @__dynamic_cast(ptr %1, ptr @_ZTIN8facebook6hermes7tracing10SynthTrace6RecordE, ptr @_ZTIN8facebook6hermes7tracing10SynthTrace31SetExternalMemoryPressureRecordE, i64 0) #13
  %3 = icmp eq ptr %2, null
  br i1 %3, label %dynamic_cast.bad_cast, label %dynamic_cast.end

dynamic_cast.bad_cast:                            ; preds = %if.end
  call void @__cxa_bad_cast() #18
  unreachable

dynamic_cast.end:                                 ; preds = %if.end
  store ptr %2, ptr %thatCasted, align 8
  %objID_ = getelementptr inbounds %"struct.facebook::hermes::tracing::SynthTrace::SetExternalMemoryPressureRecord", ptr %this1, i32 0, i32 1
  %4 = load i64, ptr %objID_, align 8
  %5 = load ptr, ptr %thatCasted, align 8
  %objID_2 = getelementptr inbounds %"struct.facebook::hermes::tracing::SynthTrace::SetExternalMemoryPressureRecord", ptr %5, i32 0, i32 1
  %6 = load i64, ptr %objID_2, align 8
  %cmp = icmp eq i64 %4, %6
  br i1 %cmp, label %land.rhs, label %land.end

land.rhs:                                         ; preds = %dynamic_cast.end
  %amount_ = getelementptr inbounds %"struct.facebook::hermes::tracing::SynthTrace::SetExternalMemoryPressureRecord", ptr %this1, i32 0, i32 2
  %7 = load i64, ptr %amount_, align 8
  %8 = load ptr, ptr %thatCasted, align 8
  %amount_3 = getelementptr inbounds %"struct.facebook::hermes::tracing::SynthTrace::SetExternalMemoryPressureRecord", ptr %8, i32 0, i32 2
  %9 = load i64, ptr %amount_3, align 8
  %cmp4 = icmp eq i64 %7, %9
  br label %land.end

land.end:                                         ; preds = %land.rhs, %dynamic_cast.end
  %10 = phi i1 [ false, %dynamic_cast.end ], [ %cmp4, %land.rhs ]
  store i1 %10, ptr %retval, align 1
  br label %return

return:                                           ; preds = %land.end, %if.then
  %11 = load i1, ptr %retval, align 1
  ret i1 %11
}

; Function Attrs: mustprogress uwtable
define hidden void @_ZNK8facebook6hermes7tracing10SynthTrace6Record14toJSONInternalERN6hermes11JSONEmitterE(ptr noundef nonnull align 8 dereferenceable(16) %this, ptr noundef nonnull align 8 dereferenceable(72) %json) unnamed_addr #1 align 2 personality ptr @__gxx_personality_v0 {
entry:
  %this.addr.i17 = alloca ptr, align 8
  %Str.addr.i18 = alloca ptr, align 8
  %this.addr.i = alloca ptr, align 8
  %Str.addr.i = alloca ptr, align 8
  %this.addr = alloca ptr, align 8
  %json.addr = alloca ptr, align 8
  %storage = alloca %"class.std::__cxx11::basic_string", align 8
  %os = alloca %"class.llvh::raw_string_ostream", align 8
  %exn.slot = alloca ptr, align 8
  %ehselector.slot = alloca i32, align 4
  %agg.tmp = alloca %"class.llvh::StringRef", align 8
  %agg.tmp11 = alloca %"class.llvh::StringRef", align 8
  %ref.tmp = alloca i64, align 8
  store ptr %this, ptr %this.addr, align 8
  store ptr %json, ptr %json.addr, align 8
  %this1 = load ptr, ptr %this.addr, align 8
  call void @_ZNSt7__cxx1112basic_stringIcSt11char_traitsIcESaIcEEC1Ev(ptr noundef nonnull align 8 dereferenceable(32) %storage) #13
  invoke void @_ZN4llvh18raw_string_ostreamC2ERNSt7__cxx1112basic_stringIcSt11char_traitsIcESaIcEEE(ptr noundef nonnull align 8 dereferenceable(48) %os, ptr noundef nonnull align 8 dereferenceable(32) %storage)
          to label %invoke.cont unwind label %lpad

invoke.cont:                                      ; preds = %entry
  %vtable = load ptr, ptr %this1, align 8
  %vfn = getelementptr inbounds ptr, ptr %vtable, i64 2
  %0 = load ptr, ptr %vfn, align 8
  %call = invoke noundef i32 %0(ptr noundef nonnull align 8 dereferenceable(16) %this1)
          to label %invoke.cont3 unwind label %lpad2

invoke.cont3:                                     ; preds = %invoke.cont
  %call5 = invoke noundef nonnull align 8 dereferenceable(36) ptr @_ZN8facebook6hermes7tracinglsERN4llvh11raw_ostreamENS1_10SynthTrace10RecordTypeE(ptr noundef nonnull align 8 dereferenceable(36) %os, i32 noundef %call)
          to label %invoke.cont4 unwind label %lpad2

invoke.cont4:                                     ; preds = %invoke.cont3
  %call7 = invoke noundef nonnull align 8 dereferenceable(36) ptr @_ZN4llvh11raw_ostreamlsEPKc(ptr noundef nonnull align 8 dereferenceable(36) %call5, ptr noundef @.str.49)
          to label %invoke.cont6 unwind label %lpad2

invoke.cont6:                                     ; preds = %invoke.cont4
  invoke void @_ZN4llvh11raw_ostream5flushEv(ptr noundef nonnull align 8 dereferenceable(36) %os)
          to label %invoke.cont8 unwind label %lpad2

invoke.cont8:                                     ; preds = %invoke.cont6
  %1 = load ptr, ptr %json.addr, align 8
  store ptr %agg.tmp, ptr %this.addr.i, align 8
  store ptr @.str.50, ptr %Str.addr.i, align 8
  %this1.i = load ptr, ptr %this.addr.i, align 8
  %2 = load ptr, ptr %Str.addr.i, align 8
  store ptr %2, ptr %this1.i, align 8
  %Length.i = getelementptr inbounds %"class.llvh::StringRef", ptr %this1.i, i32 0, i32 1
  %3 = load ptr, ptr %Str.addr.i, align 8
  %tobool.i = icmp ne ptr %3, null
  br i1 %tobool.i, label %cond.true.i, label %cond.false.i

cond.true.i:                                      ; preds = %invoke.cont8
  %4 = load ptr, ptr %Str.addr.i, align 8
  %call.i = call i64 @strlen(ptr noundef %4) #14
  br label %_ZN4llvh9StringRefC2EPKc.exit

cond.false.i:                                     ; preds = %invoke.cont8
  br label %_ZN4llvh9StringRefC2EPKc.exit

_ZN4llvh9StringRefC2EPKc.exit:                    ; preds = %cond.false.i, %cond.true.i
  %cond.i = phi i64 [ %call.i, %cond.true.i ], [ 0, %cond.false.i ]
  store i64 %cond.i, ptr %Length.i, align 8
  br label %invoke.cont9

invoke.cont9:                                     ; preds = %_ZN4llvh9StringRefC2EPKc.exit
  %5 = getelementptr inbounds { ptr, i64 }, ptr %agg.tmp, i32 0, i32 0
  %6 = load ptr, ptr %5, align 8
  %7 = getelementptr inbounds { ptr, i64 }, ptr %agg.tmp, i32 0, i32 1
  %8 = load i64, ptr %7, align 8
  invoke void @_ZN6hermes11JSONEmitter12emitKeyValueINSt7__cxx1112basic_stringIcSt11char_traitsIcESaIcEEEEEvN4llvh9StringRefERKT_(ptr noundef nonnull align 8 dereferenceable(72) %1, ptr %6, i64 %8, ptr noundef nonnull align 8 dereferenceable(32) %storage)
          to label %invoke.cont10 unwind label %lpad2

invoke.cont10:                                    ; preds = %invoke.cont9
  %9 = load ptr, ptr %json.addr, align 8
  store ptr %agg.tmp11, ptr %this.addr.i17, align 8
  store ptr @.str.51, ptr %Str.addr.i18, align 8
  %this1.i19 = load ptr, ptr %this.addr.i17, align 8
  %10 = load ptr, ptr %Str.addr.i18, align 8
  store ptr %10, ptr %this1.i19, align 8
  %Length.i20 = getelementptr inbounds %"class.llvh::StringRef", ptr %this1.i19, i32 0, i32 1
  %11 = load ptr, ptr %Str.addr.i18, align 8
  %tobool.i21 = icmp ne ptr %11, null
  br i1 %tobool.i21, label %cond.true.i24, label %cond.false.i22

cond.true.i24:                                    ; preds = %invoke.cont10
  %12 = load ptr, ptr %Str.addr.i18, align 8
  %call.i25 = call i64 @strlen(ptr noundef %12) #14
  br label %_ZN4llvh9StringRefC2EPKc.exit26

cond.false.i22:                                   ; preds = %invoke.cont10
  br label %_ZN4llvh9StringRefC2EPKc.exit26

_ZN4llvh9StringRefC2EPKc.exit26:                  ; preds = %cond.false.i22, %cond.true.i24
  %cond.i23 = phi i64 [ %call.i25, %cond.true.i24 ], [ 0, %cond.false.i22 ]
  store i64 %cond.i23, ptr %Length.i20, align 8
  br label %invoke.cont12

invoke.cont12:                                    ; preds = %_ZN4llvh9StringRefC2EPKc.exit26
  %time_ = getelementptr inbounds %"struct.facebook::hermes::tracing::SynthTrace::Record", ptr %this1, i32 0, i32 1
  %call14 = invoke noundef i64 @_ZNKSt6chrono8durationIlSt5ratioILl1ELl1000EEE5countEv(ptr noundef nonnull align 8 dereferenceable(8) %time_)
          to label %invoke.cont13 unwind label %lpad2

invoke.cont13:                                    ; preds = %invoke.cont12
  store i64 %call14, ptr %ref.tmp, align 8
  %13 = getelementptr inbounds { ptr, i64 }, ptr %agg.tmp11, i32 0, i32 0
  %14 = load ptr, ptr %13, align 8
  %15 = getelementptr inbounds { ptr, i64 }, ptr %agg.tmp11, i32 0, i32 1
  %16 = load i64, ptr %15, align 8
  invoke void @_ZN6hermes11JSONEmitter12emitKeyValueIlEEvN4llvh9StringRefERKT_(ptr noundef nonnull align 8 dereferenceable(72) %9, ptr %14, i64 %16, ptr noundef nonnull align 8 dereferenceable(8) %ref.tmp)
          to label %invoke.cont15 unwind label %lpad2

invoke.cont15:                                    ; preds = %invoke.cont13
  call void @_ZN4llvh18raw_string_ostreamD1Ev(ptr noundef nonnull align 8 dereferenceable(48) %os) #13
  call void @_ZNSt7__cxx1112basic_stringIcSt11char_traitsIcESaIcEED1Ev(ptr noundef nonnull align 8 dereferenceable(32) %storage) #13
  ret void

lpad:                                             ; preds = %entry
  %17 = landingpad { ptr, i32 }
          cleanup
  %18 = extractvalue { ptr, i32 } %17, 0
  store ptr %18, ptr %exn.slot, align 8
  %19 = extractvalue { ptr, i32 } %17, 1
  store i32 %19, ptr %ehselector.slot, align 4
  br label %ehcleanup

lpad2:                                            ; preds = %invoke.cont13, %invoke.cont12, %invoke.cont9, %invoke.cont6, %invoke.cont4, %invoke.cont3, %invoke.cont
  %20 = landingpad { ptr, i32 }
          cleanup
  %21 = extractvalue { ptr, i32 } %20, 0
  store ptr %21, ptr %exn.slot, align 8
  %22 = extractvalue { ptr, i32 } %20, 1
  store i32 %22, ptr %ehselector.slot, align 4
  call void @_ZN4llvh18raw_string_ostreamD1Ev(ptr noundef nonnull align 8 dereferenceable(48) %os) #13
  br label %ehcleanup

ehcleanup:                                        ; preds = %lpad2, %lpad
  call void @_ZNSt7__cxx1112basic_stringIcSt11char_traitsIcESaIcEED1Ev(ptr noundef nonnull align 8 dereferenceable(32) %storage) #13
  br label %eh.resume

eh.resume:                                        ; preds = %ehcleanup
  %exn = load ptr, ptr %exn.slot, align 8
  %sel = load i32, ptr %ehselector.slot, align 4
  %lpad.val = insertvalue { ptr, i32 } poison, ptr %exn, 0
  %lpad.val16 = insertvalue { ptr, i32 } %lpad.val, i32 %sel, 1
  resume { ptr, i32 } %lpad.val16
}

; Function Attrs: nounwind
declare void @_ZNSt7__cxx1112basic_stringIcSt11char_traitsIcESaIcEEC1Ev(ptr noundef nonnull align 8 dereferenceable(32)) unnamed_addr #3

; Function Attrs: mustprogress uwtable
define linkonce_odr hidden void @_ZN4llvh18raw_string_ostreamC2ERNSt7__cxx1112basic_stringIcSt11char_traitsIcESaIcEEE(ptr noundef nonnull align 8 dereferenceable(48) %this, ptr noundef nonnull align 8 dereferenceable(32) %O) unnamed_addr #1 comdat align 2 {
entry:
  %this.addr = alloca ptr, align 8
  %O.addr = alloca ptr, align 8
  store ptr %this, ptr %this.addr, align 8
  store ptr %O, ptr %O.addr, align 8
  %this1 = load ptr, ptr %this.addr, align 8
  call void @_ZN4llvh11raw_ostreamC2Eb(ptr noundef nonnull align 8 dereferenceable(36) %this1, i1 noundef zeroext false)
  store ptr getelementptr inbounds ({ [13 x ptr] }, ptr @_ZTVN4llvh18raw_string_ostreamE, i32 0, inrange i32 0, i32 2), ptr %this1, align 8
  %OS = getelementptr inbounds %"class.llvh::raw_string_ostream", ptr %this1, i32 0, i32 1
  %0 = load ptr, ptr %O.addr, align 8
  store ptr %0, ptr %OS, align 8
  ret void
}

; Function Attrs: mustprogress uwtable
define hidden noundef nonnull align 8 dereferenceable(36) ptr @_ZN8facebook6hermes7tracinglsERN4llvh11raw_ostreamENS1_10SynthTrace10RecordTypeE(ptr noundef nonnull align 8 dereferenceable(36) %os, i32 noundef %type) #1 {
entry:
  %retval = alloca ptr, align 8
  %os.addr = alloca ptr, align 8
  %type.addr = alloca i32, align 4
  store ptr %os, ptr %os.addr, align 8
  store i32 %type, ptr %type.addr, align 4
  %0 = load i32, ptr %type.addr, align 4
  switch i32 %0, label %sw.epilog [
    i32 0, label %sw.bb
    i32 1, label %sw.bb1
    i32 2, label %sw.bb3
    i32 3, label %sw.bb5
    i32 4, label %sw.bb7
    i32 5, label %sw.bb9
    i32 6, label %sw.bb11
    i32 7, label %sw.bb13
    i32 8, label %sw.bb15
    i32 9, label %sw.bb17
    i32 10, label %sw.bb19
    i32 11, label %sw.bb21
    i32 12, label %sw.bb23
    i32 13, label %sw.bb25
    i32 14, label %sw.bb27
    i32 15, label %sw.bb29
    i32 16, label %sw.bb31
    i32 17, label %sw.bb33
    i32 18, label %sw.bb35
    i32 19, label %sw.bb37
    i32 20, label %sw.bb39
    i32 21, label %sw.bb41
    i32 22, label %sw.bb43
    i32 23, label %sw.bb45
    i32 24, label %sw.bb47
    i32 25, label %sw.bb49
    i32 26, label %sw.bb51
    i32 27, label %sw.bb53
    i32 28, label %sw.bb55
    i32 29, label %sw.bb57
  ]

sw.bb:                                            ; preds = %entry
  %1 = load ptr, ptr %os.addr, align 8
  %call = call noundef nonnull align 8 dereferenceable(36) ptr @_ZN4llvh11raw_ostreamlsEPKc(ptr noundef nonnull align 8 dereferenceable(36) %1, ptr noundef @.str.84)
  store ptr %call, ptr %retval, align 8
  br label %return

sw.bb1:                                           ; preds = %entry
  %2 = load ptr, ptr %os.addr, align 8
  %call2 = call noundef nonnull align 8 dereferenceable(36) ptr @_ZN4llvh11raw_ostreamlsEPKc(ptr noundef nonnull align 8 dereferenceable(36) %2, ptr noundef @.str.85)
  store ptr %call2, ptr %retval, align 8
  br label %return

sw.bb3:                                           ; preds = %entry
  %3 = load ptr, ptr %os.addr, align 8
  %call4 = call noundef nonnull align 8 dereferenceable(36) ptr @_ZN4llvh11raw_ostreamlsEPKc(ptr noundef nonnull align 8 dereferenceable(36) %3, ptr noundef @.str.86)
  store ptr %call4, ptr %retval, align 8
  br label %return

sw.bb5:                                           ; preds = %entry
  %4 = load ptr, ptr %os.addr, align 8
  %call6 = call noundef nonnull align 8 dereferenceable(36) ptr @_ZN4llvh11raw_ostreamlsEPKc(ptr noundef nonnull align 8 dereferenceable(36) %4, ptr noundef @.str.87)
  store ptr %call6, ptr %retval, align 8
  br label %return

sw.bb7:                                           ; preds = %entry
  %5 = load ptr, ptr %os.addr, align 8
  %call8 = call noundef nonnull align 8 dereferenceable(36) ptr @_ZN4llvh11raw_ostreamlsEPKc(ptr noundef nonnull align 8 dereferenceable(36) %5, ptr noundef @.str.88)
  store ptr %call8, ptr %retval, align 8
  br label %return

sw.bb9:                                           ; preds = %entry
  %6 = load ptr, ptr %os.addr, align 8
  %call10 = call noundef nonnull align 8 dereferenceable(36) ptr @_ZN4llvh11raw_ostreamlsEPKc(ptr noundef nonnull align 8 dereferenceable(36) %6, ptr noundef @.str.89)
  store ptr %call10, ptr %retval, align 8
  br label %return

sw.bb11:                                          ; preds = %entry
  %7 = load ptr, ptr %os.addr, align 8
  %call12 = call noundef nonnull align 8 dereferenceable(36) ptr @_ZN4llvh11raw_ostreamlsEPKc(ptr noundef nonnull align 8 dereferenceable(36) %7, ptr noundef @.str.90)
  store ptr %call12, ptr %retval, align 8
  br label %return

sw.bb13:                                          ; preds = %entry
  %8 = load ptr, ptr %os.addr, align 8
  %call14 = call noundef nonnull align 8 dereferenceable(36) ptr @_ZN4llvh11raw_ostreamlsEPKc(ptr noundef nonnull align 8 dereferenceable(36) %8, ptr noundef @.str.91)
  store ptr %call14, ptr %retval, align 8
  br label %return

sw.bb15:                                          ; preds = %entry
  %9 = load ptr, ptr %os.addr, align 8
  %call16 = call noundef nonnull align 8 dereferenceable(36) ptr @_ZN4llvh11raw_ostreamlsEPKc(ptr noundef nonnull align 8 dereferenceable(36) %9, ptr noundef @.str.92)
  store ptr %call16, ptr %retval, align 8
  br label %return

sw.bb17:                                          ; preds = %entry
  %10 = load ptr, ptr %os.addr, align 8
  %call18 = call noundef nonnull align 8 dereferenceable(36) ptr @_ZN4llvh11raw_ostreamlsEPKc(ptr noundef nonnull align 8 dereferenceable(36) %10, ptr noundef @.str.93)
  store ptr %call18, ptr %retval, align 8
  br label %return

sw.bb19:                                          ; preds = %entry
  %11 = load ptr, ptr %os.addr, align 8
  %call20 = call noundef nonnull align 8 dereferenceable(36) ptr @_ZN4llvh11raw_ostreamlsEPKc(ptr noundef nonnull align 8 dereferenceable(36) %11, ptr noundef @.str.94)
  store ptr %call20, ptr %retval, align 8
  br label %return

sw.bb21:                                          ; preds = %entry
  %12 = load ptr, ptr %os.addr, align 8
  %call22 = call noundef nonnull align 8 dereferenceable(36) ptr @_ZN4llvh11raw_ostreamlsEPKc(ptr noundef nonnull align 8 dereferenceable(36) %12, ptr noundef @.str.95)
  store ptr %call22, ptr %retval, align 8
  br label %return

sw.bb23:                                          ; preds = %entry
  %13 = load ptr, ptr %os.addr, align 8
  %call24 = call noundef nonnull align 8 dereferenceable(36) ptr @_ZN4llvh11raw_ostreamlsEPKc(ptr noundef nonnull align 8 dereferenceable(36) %13, ptr noundef @.str.96)
  store ptr %call24, ptr %retval, align 8
  br label %return

sw.bb25:                                          ; preds = %entry
  %14 = load ptr, ptr %os.addr, align 8
  %call26 = call noundef nonnull align 8 dereferenceable(36) ptr @_ZN4llvh11raw_ostreamlsEPKc(ptr noundef nonnull align 8 dereferenceable(36) %14, ptr noundef @.str.97)
  store ptr %call26, ptr %retval, align 8
  br label %return

sw.bb27:                                          ; preds = %entry
  %15 = load ptr, ptr %os.addr, align 8
  %call28 = call noundef nonnull align 8 dereferenceable(36) ptr @_ZN4llvh11raw_ostreamlsEPKc(ptr noundef nonnull align 8 dereferenceable(36) %15, ptr noundef @.str.98)
  store ptr %call28, ptr %retval, align 8
  br label %return

sw.bb29:                                          ; preds = %entry
  %16 = load ptr, ptr %os.addr, align 8
  %call30 = call noundef nonnull align 8 dereferenceable(36) ptr @_ZN4llvh11raw_ostreamlsEPKc(ptr noundef nonnull align 8 dereferenceable(36) %16, ptr noundef @.str.99)
  store ptr %call30, ptr %retval, align 8
  br label %return

sw.bb31:                                          ; preds = %entry
  %17 = load ptr, ptr %os.addr, align 8
  %call32 = call noundef nonnull align 8 dereferenceable(36) ptr @_ZN4llvh11raw_ostreamlsEPKc(ptr noundef nonnull align 8 dereferenceable(36) %17, ptr noundef @.str.100)
  store ptr %call32, ptr %retval, align 8
  br label %return

sw.bb33:                                          ; preds = %entry
  %18 = load ptr, ptr %os.addr, align 8
  %call34 = call noundef nonnull align 8 dereferenceable(36) ptr @_ZN4llvh11raw_ostreamlsEPKc(ptr noundef nonnull align 8 dereferenceable(36) %18, ptr noundef @.str.101)
  store ptr %call34, ptr %retval, align 8
  br label %return

sw.bb35:                                          ; preds = %entry
  %19 = load ptr, ptr %os.addr, align 8
  %call36 = call noundef nonnull align 8 dereferenceable(36) ptr @_ZN4llvh11raw_ostreamlsEPKc(ptr noundef nonnull align 8 dereferenceable(36) %19, ptr noundef @.str.102)
  store ptr %call36, ptr %retval, align 8
  br label %return

sw.bb37:                                          ; preds = %entry
  %20 = load ptr, ptr %os.addr, align 8
  %call38 = call noundef nonnull align 8 dereferenceable(36) ptr @_ZN4llvh11raw_ostreamlsEPKc(ptr noundef nonnull align 8 dereferenceable(36) %20, ptr noundef @.str.103)
  store ptr %call38, ptr %retval, align 8
  br label %return

sw.bb39:                                          ; preds = %entry
  %21 = load ptr, ptr %os.addr, align 8
  %call40 = call noundef nonnull align 8 dereferenceable(36) ptr @_ZN4llvh11raw_ostreamlsEPKc(ptr noundef nonnull align 8 dereferenceable(36) %21, ptr noundef @.str.104)
  store ptr %call40, ptr %retval, align 8
  br label %return

sw.bb41:                                          ; preds = %entry
  %22 = load ptr, ptr %os.addr, align 8
  %call42 = call noundef nonnull align 8 dereferenceable(36) ptr @_ZN4llvh11raw_ostreamlsEPKc(ptr noundef nonnull align 8 dereferenceable(36) %22, ptr noundef @.str.105)
  store ptr %call42, ptr %retval, align 8
  br label %return

sw.bb43:                                          ; preds = %entry
  %23 = load ptr, ptr %os.addr, align 8
  %call44 = call noundef nonnull align 8 dereferenceable(36) ptr @_ZN4llvh11raw_ostreamlsEPKc(ptr noundef nonnull align 8 dereferenceable(36) %23, ptr noundef @.str.106)
  store ptr %call44, ptr %retval, align 8
  br label %return

sw.bb45:                                          ; preds = %entry
  %24 = load ptr, ptr %os.addr, align 8
  %call46 = call noundef nonnull align 8 dereferenceable(36) ptr @_ZN4llvh11raw_ostreamlsEPKc(ptr noundef nonnull align 8 dereferenceable(36) %24, ptr noundef @.str.107)
  store ptr %call46, ptr %retval, align 8
  br label %return

sw.bb47:                                          ; preds = %entry
  %25 = load ptr, ptr %os.addr, align 8
  %call48 = call noundef nonnull align 8 dereferenceable(36) ptr @_ZN4llvh11raw_ostreamlsEPKc(ptr noundef nonnull align 8 dereferenceable(36) %25, ptr noundef @.str.108)
  store ptr %call48, ptr %retval, align 8
  br label %return

sw.bb49:                                          ; preds = %entry
  %26 = load ptr, ptr %os.addr, align 8
  %call50 = call noundef nonnull align 8 dereferenceable(36) ptr @_ZN4llvh11raw_ostreamlsEPKc(ptr noundef nonnull align 8 dereferenceable(36) %26, ptr noundef @.str.109)
  store ptr %call50, ptr %retval, align 8
  br label %return

sw.bb51:                                          ; preds = %entry
  %27 = load ptr, ptr %os.addr, align 8
  %call52 = call noundef nonnull align 8 dereferenceable(36) ptr @_ZN4llvh11raw_ostreamlsEPKc(ptr noundef nonnull align 8 dereferenceable(36) %27, ptr noundef @.str.110)
  store ptr %call52, ptr %retval, align 8
  br label %return

sw.bb53:                                          ; preds = %entry
  %28 = load ptr, ptr %os.addr, align 8
  %call54 = call noundef nonnull align 8 dereferenceable(36) ptr @_ZN4llvh11raw_ostreamlsEPKc(ptr noundef nonnull align 8 dereferenceable(36) %28, ptr noundef @.str.111)
  store ptr %call54, ptr %retval, align 8
  br label %return

sw.bb55:                                          ; preds = %entry
  %29 = load ptr, ptr %os.addr, align 8
  %call56 = call noundef nonnull align 8 dereferenceable(36) ptr @_ZN4llvh11raw_ostreamlsEPKc(ptr noundef nonnull align 8 dereferenceable(36) %29, ptr noundef @.str.112)
  store ptr %call56, ptr %retval, align 8
  br label %return

sw.bb57:                                          ; preds = %entry
  %30 = load ptr, ptr %os.addr, align 8
  %call58 = call noundef nonnull align 8 dereferenceable(36) ptr @_ZN4llvh11raw_ostreamlsEPKc(ptr noundef nonnull align 8 dereferenceable(36) %30, ptr noundef @.str.113)
  store ptr %call58, ptr %retval, align 8
  br label %return

sw.epilog:                                        ; preds = %entry
  %31 = load ptr, ptr %os.addr, align 8
  store ptr %31, ptr %retval, align 8
  br label %return

return:                                           ; preds = %sw.epilog, %sw.bb57, %sw.bb55, %sw.bb53, %sw.bb51, %sw.bb49, %sw.bb47, %sw.bb45, %sw.bb43, %sw.bb41, %sw.bb39, %sw.bb37, %sw.bb35, %sw.bb33, %sw.bb31, %sw.bb29, %sw.bb27, %sw.bb25, %sw.bb23, %sw.bb21, %sw.bb19, %sw.bb17, %sw.bb15, %sw.bb13, %sw.bb11, %sw.bb9, %sw.bb7, %sw.bb5, %sw.bb3, %sw.bb1, %sw.bb
  %32 = load ptr, ptr %retval, align 8
  ret ptr %32
}

; Function Attrs: mustprogress uwtable
define linkonce_odr hidden noundef nonnull align 8 dereferenceable(36) ptr @_ZN4llvh11raw_ostreamlsEPKc(ptr noundef nonnull align 8 dereferenceable(36) %this, ptr noundef %Str) #1 comdat align 2 {
entry:
  %this.addr.i = alloca ptr, align 8
  %Str.addr.i = alloca ptr, align 8
  %this.addr = alloca ptr, align 8
  %Str.addr = alloca ptr, align 8
  %agg.tmp = alloca %"class.llvh::StringRef", align 8
  store ptr %this, ptr %this.addr, align 8
  store ptr %Str, ptr %Str.addr, align 8
  %this1 = load ptr, ptr %this.addr, align 8
  %0 = load ptr, ptr %Str.addr, align 8
  store ptr %agg.tmp, ptr %this.addr.i, align 8
  store ptr %0, ptr %Str.addr.i, align 8
  %this1.i = load ptr, ptr %this.addr.i, align 8
  %1 = load ptr, ptr %Str.addr.i, align 8
  store ptr %1, ptr %this1.i, align 8
  %Length.i = getelementptr inbounds %"class.llvh::StringRef", ptr %this1.i, i32 0, i32 1
  %2 = load ptr, ptr %Str.addr.i, align 8
  %tobool.i = icmp ne ptr %2, null
  br i1 %tobool.i, label %cond.true.i, label %cond.false.i

cond.true.i:                                      ; preds = %entry
  %3 = load ptr, ptr %Str.addr.i, align 8
  %call.i = call i64 @strlen(ptr noundef %3) #14
  br label %_ZN4llvh9StringRefC2EPKc.exit

cond.false.i:                                     ; preds = %entry
  br label %_ZN4llvh9StringRefC2EPKc.exit

_ZN4llvh9StringRefC2EPKc.exit:                    ; preds = %cond.false.i, %cond.true.i
  %cond.i = phi i64 [ %call.i, %cond.true.i ], [ 0, %cond.false.i ]
  store i64 %cond.i, ptr %Length.i, align 8
  %4 = getelementptr inbounds { ptr, i64 }, ptr %agg.tmp, i32 0, i32 0
  %5 = load ptr, ptr %4, align 8
  %6 = getelementptr inbounds { ptr, i64 }, ptr %agg.tmp, i32 0, i32 1
  %7 = load i64, ptr %6, align 8
  %call = call noundef nonnull align 8 dereferenceable(36) ptr @_ZN4llvh11raw_ostreamlsENS_9StringRefE(ptr noundef nonnull align 8 dereferenceable(36) %this1, ptr %5, i64 %7)
  ret ptr %call
}

; Function Attrs: mustprogress uwtable
define linkonce_odr hidden void @_ZN4llvh11raw_ostream5flushEv(ptr noundef nonnull align 8 dereferenceable(36) %this) #1 comdat align 2 {
entry:
  %this.addr = alloca ptr, align 8
  store ptr %this, ptr %this.addr, align 8
  %this1 = load ptr, ptr %this.addr, align 8
  %OutBufCur = getelementptr inbounds %"class.llvh::raw_ostream", ptr %this1, i32 0, i32 3
  %0 = load ptr, ptr %OutBufCur, align 8
  %OutBufStart = getelementptr inbounds %"class.llvh::raw_ostream", ptr %this1, i32 0, i32 1
  %1 = load ptr, ptr %OutBufStart, align 8
  %cmp = icmp ne ptr %0, %1
  br i1 %cmp, label %if.then, label %if.end

if.then:                                          ; preds = %entry
  call void @_ZN4llvh11raw_ostream14flush_nonemptyEv(ptr noundef nonnull align 8 dereferenceable(36) %this1)
  br label %if.end

if.end:                                           ; preds = %if.then, %entry
  ret void
}

; Function Attrs: mustprogress uwtable
define linkonce_odr hidden void @_ZN6hermes11JSONEmitter12emitKeyValueIlEEvN4llvh9StringRefERKT_(ptr noundef nonnull align 8 dereferenceable(72) %this, ptr %key.coerce0, i64 %key.coerce1, ptr noundef nonnull align 8 dereferenceable(8) %val) #1 comdat align 2 {
entry:
  %key = alloca %"class.llvh::StringRef", align 8
  %this.addr = alloca ptr, align 8
  %val.addr = alloca ptr, align 8
  %agg.tmp = alloca %"class.llvh::StringRef", align 8
  %0 = getelementptr inbounds { ptr, i64 }, ptr %key, i32 0, i32 0
  store ptr %key.coerce0, ptr %0, align 8
  %1 = getelementptr inbounds { ptr, i64 }, ptr %key, i32 0, i32 1
  store i64 %key.coerce1, ptr %1, align 8
  store ptr %this, ptr %this.addr, align 8
  store ptr %val, ptr %val.addr, align 8
  %this1 = load ptr, ptr %this.addr, align 8
  call void @llvm.memcpy.p0.p0.i64(ptr align 8 %agg.tmp, ptr align 8 %key, i64 16, i1 false)
  %2 = getelementptr inbounds { ptr, i64 }, ptr %agg.tmp, i32 0, i32 0
  %3 = load ptr, ptr %2, align 8
  %4 = getelementptr inbounds { ptr, i64 }, ptr %agg.tmp, i32 0, i32 1
  %5 = load i64, ptr %4, align 8
  call void @_ZN6hermes11JSONEmitter7emitKeyEN4llvh9StringRefE(ptr noundef nonnull align 8 dereferenceable(72) %this1, ptr %3, i64 %5)
  %6 = load ptr, ptr %val.addr, align 8
  %7 = load i64, ptr %6, align 8
  call void @_ZN6hermes11JSONEmitter9emitValueEl(ptr noundef nonnull align 8 dereferenceable(72) %this1, i64 noundef %7)
  ret void
}

; Function Attrs: mustprogress nounwind uwtable
define linkonce_odr noundef i64 @_ZNKSt6chrono8durationIlSt5ratioILl1ELl1000EEE5countEv(ptr noundef nonnull align 8 dereferenceable(8) %this) #0 comdat align 2 {
entry:
  %this.addr = alloca ptr, align 8
  store ptr %this, ptr %this.addr, align 8
  %this1 = load ptr, ptr %this.addr, align 8
  %__r = getelementptr inbounds %"class.std::chrono::duration", ptr %this1, i32 0, i32 0
  %0 = load i64, ptr %__r, align 8
  ret i64 %0
}

; Function Attrs: nounwind
declare void @_ZN4llvh18raw_string_ostreamD1Ev(ptr noundef nonnull align 8 dereferenceable(48)) unnamed_addr #3

; Function Attrs: mustprogress uwtable
define hidden void @_ZNK8facebook6hermes7tracing10SynthTrace12MarkerRecord14toJSONInternalERN6hermes11JSONEmitterE(ptr noundef nonnull align 8 dereferenceable(48) %this, ptr noundef nonnull align 8 dereferenceable(72) %json) unnamed_addr #1 align 2 {
entry:
  %this.addr.i = alloca ptr, align 8
  %Str.addr.i = alloca ptr, align 8
  %this.addr = alloca ptr, align 8
  %json.addr = alloca ptr, align 8
  %agg.tmp = alloca %"class.llvh::StringRef", align 8
  store ptr %this, ptr %this.addr, align 8
  store ptr %json, ptr %json.addr, align 8
  %this1 = load ptr, ptr %this.addr, align 8
  %0 = load ptr, ptr %json.addr, align 8
  call void @_ZNK8facebook6hermes7tracing10SynthTrace6Record14toJSONInternalERN6hermes11JSONEmitterE(ptr noundef nonnull align 8 dereferenceable(16) %this1, ptr noundef nonnull align 8 dereferenceable(72) %0)
  %1 = load ptr, ptr %json.addr, align 8
  store ptr %agg.tmp, ptr %this.addr.i, align 8
  store ptr @.str.52, ptr %Str.addr.i, align 8
  %this1.i = load ptr, ptr %this.addr.i, align 8
  %2 = load ptr, ptr %Str.addr.i, align 8
  store ptr %2, ptr %this1.i, align 8
  %Length.i = getelementptr inbounds %"class.llvh::StringRef", ptr %this1.i, i32 0, i32 1
  %3 = load ptr, ptr %Str.addr.i, align 8
  %tobool.i = icmp ne ptr %3, null
  br i1 %tobool.i, label %cond.true.i, label %cond.false.i

cond.true.i:                                      ; preds = %entry
  %4 = load ptr, ptr %Str.addr.i, align 8
  %call.i = call i64 @strlen(ptr noundef %4) #14
  br label %_ZN4llvh9StringRefC2EPKc.exit

cond.false.i:                                     ; preds = %entry
  br label %_ZN4llvh9StringRefC2EPKc.exit

_ZN4llvh9StringRefC2EPKc.exit:                    ; preds = %cond.false.i, %cond.true.i
  %cond.i = phi i64 [ %call.i, %cond.true.i ], [ 0, %cond.false.i ]
  store i64 %cond.i, ptr %Length.i, align 8
  %tag_ = getelementptr inbounds %"struct.facebook::hermes::tracing::SynthTrace::MarkerRecord", ptr %this1, i32 0, i32 1
  %5 = getelementptr inbounds { ptr, i64 }, ptr %agg.tmp, i32 0, i32 0
  %6 = load ptr, ptr %5, align 8
  %7 = getelementptr inbounds { ptr, i64 }, ptr %agg.tmp, i32 0, i32 1
  %8 = load i64, ptr %7, align 8
  call void @_ZN6hermes11JSONEmitter12emitKeyValueINSt7__cxx1112basic_stringIcSt11char_traitsIcESaIcEEEEEvN4llvh9StringRefERKT_(ptr noundef nonnull align 8 dereferenceable(72) %1, ptr %6, i64 %8, ptr noundef nonnull align 8 dereferenceable(32) %tag_)
  ret void
}

; Function Attrs: mustprogress uwtable
define hidden void @_ZNK8facebook6hermes7tracing10SynthTrace18CreateObjectRecord14toJSONInternalERN6hermes11JSONEmitterE(ptr noundef nonnull align 8 dereferenceable(24) %this, ptr noundef nonnull align 8 dereferenceable(72) %json) unnamed_addr #1 align 2 {
entry:
  %this.addr.i = alloca ptr, align 8
  %Str.addr.i = alloca ptr, align 8
  %this.addr = alloca ptr, align 8
  %json.addr = alloca ptr, align 8
  %agg.tmp = alloca %"class.llvh::StringRef", align 8
  store ptr %this, ptr %this.addr, align 8
  store ptr %json, ptr %json.addr, align 8
  %this1 = load ptr, ptr %this.addr, align 8
  %0 = load ptr, ptr %json.addr, align 8
  call void @_ZNK8facebook6hermes7tracing10SynthTrace6Record14toJSONInternalERN6hermes11JSONEmitterE(ptr noundef nonnull align 8 dereferenceable(16) %this1, ptr noundef nonnull align 8 dereferenceable(72) %0)
  %1 = load ptr, ptr %json.addr, align 8
  store ptr %agg.tmp, ptr %this.addr.i, align 8
  store ptr @.str.53, ptr %Str.addr.i, align 8
  %this1.i = load ptr, ptr %this.addr.i, align 8
  %2 = load ptr, ptr %Str.addr.i, align 8
  store ptr %2, ptr %this1.i, align 8
  %Length.i = getelementptr inbounds %"class.llvh::StringRef", ptr %this1.i, i32 0, i32 1
  %3 = load ptr, ptr %Str.addr.i, align 8
  %tobool.i = icmp ne ptr %3, null
  br i1 %tobool.i, label %cond.true.i, label %cond.false.i

cond.true.i:                                      ; preds = %entry
  %4 = load ptr, ptr %Str.addr.i, align 8
  %call.i = call i64 @strlen(ptr noundef %4) #14
  br label %_ZN4llvh9StringRefC2EPKc.exit

cond.false.i:                                     ; preds = %entry
  br label %_ZN4llvh9StringRefC2EPKc.exit

_ZN4llvh9StringRefC2EPKc.exit:                    ; preds = %cond.false.i, %cond.true.i
  %cond.i = phi i64 [ %call.i, %cond.true.i ], [ 0, %cond.false.i ]
  store i64 %cond.i, ptr %Length.i, align 8
  %objID_ = getelementptr inbounds %"struct.facebook::hermes::tracing::SynthTrace::CreateObjectRecord", ptr %this1, i32 0, i32 1
  %5 = getelementptr inbounds { ptr, i64 }, ptr %agg.tmp, i32 0, i32 0
  %6 = load ptr, ptr %5, align 8
  %7 = getelementptr inbounds { ptr, i64 }, ptr %agg.tmp, i32 0, i32 1
  %8 = load i64, ptr %7, align 8
  call void @_ZN6hermes11JSONEmitter12emitKeyValueImEEvN4llvh9StringRefERKT_(ptr noundef nonnull align 8 dereferenceable(72) %1, ptr %6, i64 %8, ptr noundef nonnull align 8 dereferenceable(8) %objID_)
  ret void
}

; Function Attrs: mustprogress uwtable
define hidden void @_ZNK8facebook6hermes7tracing10SynthTrace18CreateBigIntRecord14toJSONInternalERN6hermes11JSONEmitterE(ptr noundef nonnull align 8 dereferenceable(40) %this, ptr noundef nonnull align 8 dereferenceable(72) %json) unnamed_addr #1 align 2 personality ptr @__gxx_personality_v0 {
entry:
  %this.addr.i18 = alloca ptr, align 8
  %Str.addr.i19 = alloca ptr, align 8
  %this.addr.i8 = alloca ptr, align 8
  %Str.addr.i9 = alloca ptr, align 8
  %this.addr.i = alloca ptr, align 8
  %Str.addr.i = alloca ptr, align 8
  %this.addr = alloca ptr, align 8
  %json.addr = alloca ptr, align 8
  %agg.tmp = alloca %"class.llvh::StringRef", align 8
  %agg.tmp2 = alloca %"class.llvh::StringRef", align 8
  %ref.tmp = alloca %"class.std::__cxx11::basic_string", align 8
  %exn.slot = alloca ptr, align 8
  %ehselector.slot = alloca i32, align 4
  %agg.tmp3 = alloca %"class.llvh::StringRef", align 8
  %ref.tmp4 = alloca %"class.std::__cxx11::basic_string", align 8
  store ptr %this, ptr %this.addr, align 8
  store ptr %json, ptr %json.addr, align 8
  %this1 = load ptr, ptr %this.addr, align 8
  %0 = load ptr, ptr %json.addr, align 8
  call void @_ZNK8facebook6hermes7tracing10SynthTrace6Record14toJSONInternalERN6hermes11JSONEmitterE(ptr noundef nonnull align 8 dereferenceable(16) %this1, ptr noundef nonnull align 8 dereferenceable(72) %0)
  %1 = load ptr, ptr %json.addr, align 8
  store ptr %agg.tmp, ptr %this.addr.i, align 8
  store ptr @.str.53, ptr %Str.addr.i, align 8
  %this1.i = load ptr, ptr %this.addr.i, align 8
  %2 = load ptr, ptr %Str.addr.i, align 8
  store ptr %2, ptr %this1.i, align 8
  %Length.i = getelementptr inbounds %"class.llvh::StringRef", ptr %this1.i, i32 0, i32 1
  %3 = load ptr, ptr %Str.addr.i, align 8
  %tobool.i = icmp ne ptr %3, null
  br i1 %tobool.i, label %cond.true.i, label %cond.false.i

cond.true.i:                                      ; preds = %entry
  %4 = load ptr, ptr %Str.addr.i, align 8
  %call.i = call i64 @strlen(ptr noundef %4) #14
  br label %_ZN4llvh9StringRefC2EPKc.exit

cond.false.i:                                     ; preds = %entry
  br label %_ZN4llvh9StringRefC2EPKc.exit

_ZN4llvh9StringRefC2EPKc.exit:                    ; preds = %cond.false.i, %cond.true.i
  %cond.i = phi i64 [ %call.i, %cond.true.i ], [ 0, %cond.false.i ]
  store i64 %cond.i, ptr %Length.i, align 8
  %objID_ = getelementptr inbounds %"struct.facebook::hermes::tracing::SynthTrace::CreateBigIntRecord", ptr %this1, i32 0, i32 1
  %5 = getelementptr inbounds { ptr, i64 }, ptr %agg.tmp, i32 0, i32 0
  %6 = load ptr, ptr %5, align 8
  %7 = getelementptr inbounds { ptr, i64 }, ptr %agg.tmp, i32 0, i32 1
  %8 = load i64, ptr %7, align 8
  call void @_ZN6hermes11JSONEmitter12emitKeyValueImEEvN4llvh9StringRefERKT_(ptr noundef nonnull align 8 dereferenceable(72) %1, ptr %6, i64 %8, ptr noundef nonnull align 8 dereferenceable(8) %objID_)
  %9 = load ptr, ptr %json.addr, align 8
  store ptr %agg.tmp2, ptr %this.addr.i8, align 8
  store ptr @.str.54, ptr %Str.addr.i9, align 8
  %this1.i10 = load ptr, ptr %this.addr.i8, align 8
  %10 = load ptr, ptr %Str.addr.i9, align 8
  store ptr %10, ptr %this1.i10, align 8
  %Length.i11 = getelementptr inbounds %"class.llvh::StringRef", ptr %this1.i10, i32 0, i32 1
  %11 = load ptr, ptr %Str.addr.i9, align 8
  %tobool.i12 = icmp ne ptr %11, null
  br i1 %tobool.i12, label %cond.true.i15, label %cond.false.i13

cond.true.i15:                                    ; preds = %_ZN4llvh9StringRefC2EPKc.exit
  %12 = load ptr, ptr %Str.addr.i9, align 8
  %call.i16 = call i64 @strlen(ptr noundef %12) #14
  br label %_ZN4llvh9StringRefC2EPKc.exit17

cond.false.i13:                                   ; preds = %_ZN4llvh9StringRefC2EPKc.exit
  br label %_ZN4llvh9StringRefC2EPKc.exit17

_ZN4llvh9StringRefC2EPKc.exit17:                  ; preds = %cond.false.i13, %cond.true.i15
  %cond.i14 = phi i64 [ %call.i16, %cond.true.i15 ], [ 0, %cond.false.i13 ]
  store i64 %cond.i14, ptr %Length.i11, align 8
  %method_ = getelementptr inbounds %"struct.facebook::hermes::tracing::SynthTrace::CreateBigIntRecord", ptr %this1, i32 0, i32 2
  %13 = load i32, ptr %method_, align 8
  call void @_ZN8facebook6hermes7tracingL26createBigIntMethodToStringB5cxx11ENS1_10SynthTrace18CreateBigIntRecord6MethodE(ptr sret(%"class.std::__cxx11::basic_string") align 8 %ref.tmp, i32 noundef %13)
  %14 = getelementptr inbounds { ptr, i64 }, ptr %agg.tmp2, i32 0, i32 0
  %15 = load ptr, ptr %14, align 8
  %16 = getelementptr inbounds { ptr, i64 }, ptr %agg.tmp2, i32 0, i32 1
  %17 = load i64, ptr %16, align 8
  invoke void @_ZN6hermes11JSONEmitter12emitKeyValueINSt7__cxx1112basic_stringIcSt11char_traitsIcESaIcEEEEEvN4llvh9StringRefERKT_(ptr noundef nonnull align 8 dereferenceable(72) %9, ptr %15, i64 %17, ptr noundef nonnull align 8 dereferenceable(32) %ref.tmp)
          to label %invoke.cont unwind label %lpad

invoke.cont:                                      ; preds = %_ZN4llvh9StringRefC2EPKc.exit17
  call void @_ZNSt7__cxx1112basic_stringIcSt11char_traitsIcESaIcEED1Ev(ptr noundef nonnull align 8 dereferenceable(32) %ref.tmp) #13
  %18 = load ptr, ptr %json.addr, align 8
  store ptr %agg.tmp3, ptr %this.addr.i18, align 8
  store ptr @.str.55, ptr %Str.addr.i19, align 8
  %this1.i20 = load ptr, ptr %this.addr.i18, align 8
  %19 = load ptr, ptr %Str.addr.i19, align 8
  store ptr %19, ptr %this1.i20, align 8
  %Length.i21 = getelementptr inbounds %"class.llvh::StringRef", ptr %this1.i20, i32 0, i32 1
  %20 = load ptr, ptr %Str.addr.i19, align 8
  %tobool.i22 = icmp ne ptr %20, null
  br i1 %tobool.i22, label %cond.true.i25, label %cond.false.i23

cond.true.i25:                                    ; preds = %invoke.cont
  %21 = load ptr, ptr %Str.addr.i19, align 8
  %call.i26 = call i64 @strlen(ptr noundef %21) #14
  br label %_ZN4llvh9StringRefC2EPKc.exit27

cond.false.i23:                                   ; preds = %invoke.cont
  br label %_ZN4llvh9StringRefC2EPKc.exit27

_ZN4llvh9StringRefC2EPKc.exit27:                  ; preds = %cond.false.i23, %cond.true.i25
  %cond.i24 = phi i64 [ %call.i26, %cond.true.i25 ], [ 0, %cond.false.i23 ]
  store i64 %cond.i24, ptr %Length.i21, align 8
  %bits_ = getelementptr inbounds %"struct.facebook::hermes::tracing::SynthTrace::CreateBigIntRecord", ptr %this1, i32 0, i32 3
  %22 = load i64, ptr %bits_, align 8
  call void @_ZNSt7__cxx119to_stringEm(ptr sret(%"class.std::__cxx11::basic_string") align 8 %ref.tmp4, i64 noundef %22)
  %23 = getelementptr inbounds { ptr, i64 }, ptr %agg.tmp3, i32 0, i32 0
  %24 = load ptr, ptr %23, align 8
  %25 = getelementptr inbounds { ptr, i64 }, ptr %agg.tmp3, i32 0, i32 1
  %26 = load i64, ptr %25, align 8
  invoke void @_ZN6hermes11JSONEmitter12emitKeyValueINSt7__cxx1112basic_stringIcSt11char_traitsIcESaIcEEEEEvN4llvh9StringRefERKT_(ptr noundef nonnull align 8 dereferenceable(72) %18, ptr %24, i64 %26, ptr noundef nonnull align 8 dereferenceable(32) %ref.tmp4)
          to label %invoke.cont6 unwind label %lpad5

invoke.cont6:                                     ; preds = %_ZN4llvh9StringRefC2EPKc.exit27
  call void @_ZNSt7__cxx1112basic_stringIcSt11char_traitsIcESaIcEED1Ev(ptr noundef nonnull align 8 dereferenceable(32) %ref.tmp4) #13
  ret void

lpad:                                             ; preds = %_ZN4llvh9StringRefC2EPKc.exit17
  %27 = landingpad { ptr, i32 }
          cleanup
  %28 = extractvalue { ptr, i32 } %27, 0
  store ptr %28, ptr %exn.slot, align 8
  %29 = extractvalue { ptr, i32 } %27, 1
  store i32 %29, ptr %ehselector.slot, align 4
  call void @_ZNSt7__cxx1112basic_stringIcSt11char_traitsIcESaIcEED1Ev(ptr noundef nonnull align 8 dereferenceable(32) %ref.tmp) #13
  br label %eh.resume

lpad5:                                            ; preds = %_ZN4llvh9StringRefC2EPKc.exit27
  %30 = landingpad { ptr, i32 }
          cleanup
  %31 = extractvalue { ptr, i32 } %30, 0
  store ptr %31, ptr %exn.slot, align 8
  %32 = extractvalue { ptr, i32 } %30, 1
  store i32 %32, ptr %ehselector.slot, align 4
  call void @_ZNSt7__cxx1112basic_stringIcSt11char_traitsIcESaIcEED1Ev(ptr noundef nonnull align 8 dereferenceable(32) %ref.tmp4) #13
  br label %eh.resume

eh.resume:                                        ; preds = %lpad5, %lpad
  %exn = load ptr, ptr %exn.slot, align 8
  %sel = load i32, ptr %ehselector.slot, align 4
  %lpad.val = insertvalue { ptr, i32 } poison, ptr %exn, 0
  %lpad.val7 = insertvalue { ptr, i32 } %lpad.val, i32 %sel, 1
  resume { ptr, i32 } %lpad.val7
}

; Function Attrs: mustprogress uwtable
define internal void @_ZN8facebook6hermes7tracingL26createBigIntMethodToStringB5cxx11ENS1_10SynthTrace18CreateBigIntRecord6MethodE(ptr noalias sret(%"class.std::__cxx11::basic_string") align 8 %agg.result, i32 noundef %m) #1 personality ptr @__gxx_personality_v0 {
entry:
  %result.ptr = alloca ptr, align 8
  %m.addr = alloca i32, align 4
  %ref.tmp = alloca %"class.std::allocator.10", align 1
  %exn.slot = alloca ptr, align 8
  %ehselector.slot = alloca i32, align 4
  %ref.tmp2 = alloca %"class.std::allocator.10", align 1
  store ptr %agg.result, ptr %result.ptr, align 8
  store i32 %m, ptr %m.addr, align 4
  %0 = load i32, ptr %m.addr, align 4
  switch i32 %0, label %sw.default [
    i32 0, label %sw.bb
    i32 1, label %sw.bb1
  ]

sw.bb:                                            ; preds = %entry
  call void @_ZNSaIcEC1Ev(ptr noundef nonnull align 1 dereferenceable(1) %ref.tmp) #13
  invoke void @_ZNSt7__cxx1112basic_stringIcSt11char_traitsIcESaIcEEC2IS3_EEPKcRKS3_(ptr noundef nonnull align 8 dereferenceable(32) %agg.result, ptr noundef @.str.144, ptr noundef nonnull align 1 dereferenceable(1) %ref.tmp)
          to label %invoke.cont unwind label %lpad

invoke.cont:                                      ; preds = %sw.bb
  call void @_ZNSaIcED1Ev(ptr noundef nonnull align 1 dereferenceable(1) %ref.tmp) #13
  br label %return

lpad:                                             ; preds = %sw.bb
  %1 = landingpad { ptr, i32 }
          cleanup
  %2 = extractvalue { ptr, i32 } %1, 0
  store ptr %2, ptr %exn.slot, align 8
  %3 = extractvalue { ptr, i32 } %1, 1
  store i32 %3, ptr %ehselector.slot, align 4
  call void @_ZNSaIcED1Ev(ptr noundef nonnull align 1 dereferenceable(1) %ref.tmp) #13
  br label %eh.resume

sw.bb1:                                           ; preds = %entry
  call void @_ZNSaIcEC1Ev(ptr noundef nonnull align 1 dereferenceable(1) %ref.tmp2) #13
  invoke void @_ZNSt7__cxx1112basic_stringIcSt11char_traitsIcESaIcEEC2IS3_EEPKcRKS3_(ptr noundef nonnull align 8 dereferenceable(32) %agg.result, ptr noundef @.str.145, ptr noundef nonnull align 1 dereferenceable(1) %ref.tmp2)
          to label %invoke.cont4 unwind label %lpad3

invoke.cont4:                                     ; preds = %sw.bb1
  call void @_ZNSaIcED1Ev(ptr noundef nonnull align 1 dereferenceable(1) %ref.tmp2) #13
  br label %return

lpad3:                                            ; preds = %sw.bb1
  %4 = landingpad { ptr, i32 }
          cleanup
  %5 = extractvalue { ptr, i32 } %4, 0
  store ptr %5, ptr %exn.slot, align 8
  %6 = extractvalue { ptr, i32 } %4, 1
  store i32 %6, ptr %ehselector.slot, align 4
  call void @_ZNSaIcED1Ev(ptr noundef nonnull align 1 dereferenceable(1) %ref.tmp2) #13
  br label %eh.resume

sw.default:                                       ; preds = %entry
  unreachable

return:                                           ; preds = %invoke.cont4, %invoke.cont
  ret void

eh.resume:                                        ; preds = %lpad3, %lpad
  %exn = load ptr, ptr %exn.slot, align 8
  %sel = load i32, ptr %ehselector.slot, align 4
  %lpad.val = insertvalue { ptr, i32 } poison, ptr %exn, 0
  %lpad.val5 = insertvalue { ptr, i32 } %lpad.val, i32 %sel, 1
  resume { ptr, i32 } %lpad.val5
}

; Function Attrs: mustprogress uwtable
define hidden void @_ZNK8facebook6hermes7tracing10SynthTrace20BigIntToStringRecord14toJSONInternalERN6hermes11JSONEmitterE(ptr noundef nonnull align 8 dereferenceable(36) %this, ptr noundef nonnull align 8 dereferenceable(72) %json) unnamed_addr #1 align 2 {
entry:
  %this.addr.i14 = alloca ptr, align 8
  %Str.addr.i15 = alloca ptr, align 8
  %this.addr.i4 = alloca ptr, align 8
  %Str.addr.i5 = alloca ptr, align 8
  %this.addr.i = alloca ptr, align 8
  %Str.addr.i = alloca ptr, align 8
  %this.addr = alloca ptr, align 8
  %json.addr = alloca ptr, align 8
  %agg.tmp = alloca %"class.llvh::StringRef", align 8
  %agg.tmp2 = alloca %"class.llvh::StringRef", align 8
  %agg.tmp3 = alloca %"class.llvh::StringRef", align 8
  store ptr %this, ptr %this.addr, align 8
  store ptr %json, ptr %json.addr, align 8
  %this1 = load ptr, ptr %this.addr, align 8
  %0 = load ptr, ptr %json.addr, align 8
  call void @_ZNK8facebook6hermes7tracing10SynthTrace6Record14toJSONInternalERN6hermes11JSONEmitterE(ptr noundef nonnull align 8 dereferenceable(16) %this1, ptr noundef nonnull align 8 dereferenceable(72) %0)
  %1 = load ptr, ptr %json.addr, align 8
  store ptr %agg.tmp, ptr %this.addr.i, align 8
  store ptr @.str.56, ptr %Str.addr.i, align 8
  %this1.i = load ptr, ptr %this.addr.i, align 8
  %2 = load ptr, ptr %Str.addr.i, align 8
  store ptr %2, ptr %this1.i, align 8
  %Length.i = getelementptr inbounds %"class.llvh::StringRef", ptr %this1.i, i32 0, i32 1
  %3 = load ptr, ptr %Str.addr.i, align 8
  %tobool.i = icmp ne ptr %3, null
  br i1 %tobool.i, label %cond.true.i, label %cond.false.i

cond.true.i:                                      ; preds = %entry
  %4 = load ptr, ptr %Str.addr.i, align 8
  %call.i = call i64 @strlen(ptr noundef %4) #14
  br label %_ZN4llvh9StringRefC2EPKc.exit

cond.false.i:                                     ; preds = %entry
  br label %_ZN4llvh9StringRefC2EPKc.exit

_ZN4llvh9StringRefC2EPKc.exit:                    ; preds = %cond.false.i, %cond.true.i
  %cond.i = phi i64 [ %call.i, %cond.true.i ], [ 0, %cond.false.i ]
  store i64 %cond.i, ptr %Length.i, align 8
  %strID_ = getelementptr inbounds %"struct.facebook::hermes::tracing::SynthTrace::BigIntToStringRecord", ptr %this1, i32 0, i32 1
  %5 = getelementptr inbounds { ptr, i64 }, ptr %agg.tmp, i32 0, i32 0
  %6 = load ptr, ptr %5, align 8
  %7 = getelementptr inbounds { ptr, i64 }, ptr %agg.tmp, i32 0, i32 1
  %8 = load i64, ptr %7, align 8
  call void @_ZN6hermes11JSONEmitter12emitKeyValueImEEvN4llvh9StringRefERKT_(ptr noundef nonnull align 8 dereferenceable(72) %1, ptr %6, i64 %8, ptr noundef nonnull align 8 dereferenceable(8) %strID_)
  %9 = load ptr, ptr %json.addr, align 8
  store ptr %agg.tmp2, ptr %this.addr.i4, align 8
  store ptr @.str.57, ptr %Str.addr.i5, align 8
  %this1.i6 = load ptr, ptr %this.addr.i4, align 8
  %10 = load ptr, ptr %Str.addr.i5, align 8
  store ptr %10, ptr %this1.i6, align 8
  %Length.i7 = getelementptr inbounds %"class.llvh::StringRef", ptr %this1.i6, i32 0, i32 1
  %11 = load ptr, ptr %Str.addr.i5, align 8
  %tobool.i8 = icmp ne ptr %11, null
  br i1 %tobool.i8, label %cond.true.i11, label %cond.false.i9

cond.true.i11:                                    ; preds = %_ZN4llvh9StringRefC2EPKc.exit
  %12 = load ptr, ptr %Str.addr.i5, align 8
  %call.i12 = call i64 @strlen(ptr noundef %12) #14
  br label %_ZN4llvh9StringRefC2EPKc.exit13

cond.false.i9:                                    ; preds = %_ZN4llvh9StringRefC2EPKc.exit
  br label %_ZN4llvh9StringRefC2EPKc.exit13

_ZN4llvh9StringRefC2EPKc.exit13:                  ; preds = %cond.false.i9, %cond.true.i11
  %cond.i10 = phi i64 [ %call.i12, %cond.true.i11 ], [ 0, %cond.false.i9 ]
  store i64 %cond.i10, ptr %Length.i7, align 8
  %bigintID_ = getelementptr inbounds %"struct.facebook::hermes::tracing::SynthTrace::BigIntToStringRecord", ptr %this1, i32 0, i32 2
  %13 = getelementptr inbounds { ptr, i64 }, ptr %agg.tmp2, i32 0, i32 0
  %14 = load ptr, ptr %13, align 8
  %15 = getelementptr inbounds { ptr, i64 }, ptr %agg.tmp2, i32 0, i32 1
  %16 = load i64, ptr %15, align 8
  call void @_ZN6hermes11JSONEmitter12emitKeyValueImEEvN4llvh9StringRefERKT_(ptr noundef nonnull align 8 dereferenceable(72) %9, ptr %14, i64 %16, ptr noundef nonnull align 8 dereferenceable(8) %bigintID_)
  %17 = load ptr, ptr %json.addr, align 8
  store ptr %agg.tmp3, ptr %this.addr.i14, align 8
  store ptr @.str.58, ptr %Str.addr.i15, align 8
  %this1.i16 = load ptr, ptr %this.addr.i14, align 8
  %18 = load ptr, ptr %Str.addr.i15, align 8
  store ptr %18, ptr %this1.i16, align 8
  %Length.i17 = getelementptr inbounds %"class.llvh::StringRef", ptr %this1.i16, i32 0, i32 1
  %19 = load ptr, ptr %Str.addr.i15, align 8
  %tobool.i18 = icmp ne ptr %19, null
  br i1 %tobool.i18, label %cond.true.i21, label %cond.false.i19

cond.true.i21:                                    ; preds = %_ZN4llvh9StringRefC2EPKc.exit13
  %20 = load ptr, ptr %Str.addr.i15, align 8
  %call.i22 = call i64 @strlen(ptr noundef %20) #14
  br label %_ZN4llvh9StringRefC2EPKc.exit23

cond.false.i19:                                   ; preds = %_ZN4llvh9StringRefC2EPKc.exit13
  br label %_ZN4llvh9StringRefC2EPKc.exit23

_ZN4llvh9StringRefC2EPKc.exit23:                  ; preds = %cond.false.i19, %cond.true.i21
  %cond.i20 = phi i64 [ %call.i22, %cond.true.i21 ], [ 0, %cond.false.i19 ]
  store i64 %cond.i20, ptr %Length.i17, align 8
  %radix_ = getelementptr inbounds %"struct.facebook::hermes::tracing::SynthTrace::BigIntToStringRecord", ptr %this1, i32 0, i32 3
  %21 = getelementptr inbounds { ptr, i64 }, ptr %agg.tmp3, i32 0, i32 0
  %22 = load ptr, ptr %21, align 8
  %23 = getelementptr inbounds { ptr, i64 }, ptr %agg.tmp3, i32 0, i32 1
  %24 = load i64, ptr %23, align 8
  call void @_ZN6hermes11JSONEmitter12emitKeyValueIiEEvN4llvh9StringRefERKT_(ptr noundef nonnull align 8 dereferenceable(72) %17, ptr %22, i64 %24, ptr noundef nonnull align 4 dereferenceable(4) %radix_)
  ret void
}

; Function Attrs: mustprogress uwtable
define linkonce_odr hidden void @_ZN6hermes11JSONEmitter12emitKeyValueIiEEvN4llvh9StringRefERKT_(ptr noundef nonnull align 8 dereferenceable(72) %this, ptr %key.coerce0, i64 %key.coerce1, ptr noundef nonnull align 4 dereferenceable(4) %val) #1 comdat align 2 {
entry:
  %key = alloca %"class.llvh::StringRef", align 8
  %this.addr = alloca ptr, align 8
  %val.addr = alloca ptr, align 8
  %agg.tmp = alloca %"class.llvh::StringRef", align 8
  %0 = getelementptr inbounds { ptr, i64 }, ptr %key, i32 0, i32 0
  store ptr %key.coerce0, ptr %0, align 8
  %1 = getelementptr inbounds { ptr, i64 }, ptr %key, i32 0, i32 1
  store i64 %key.coerce1, ptr %1, align 8
  store ptr %this, ptr %this.addr, align 8
  store ptr %val, ptr %val.addr, align 8
  %this1 = load ptr, ptr %this.addr, align 8
  call void @llvm.memcpy.p0.p0.i64(ptr align 8 %agg.tmp, ptr align 8 %key, i64 16, i1 false)
  %2 = getelementptr inbounds { ptr, i64 }, ptr %agg.tmp, i32 0, i32 0
  %3 = load ptr, ptr %2, align 8
  %4 = getelementptr inbounds { ptr, i64 }, ptr %agg.tmp, i32 0, i32 1
  %5 = load i64, ptr %4, align 8
  call void @_ZN6hermes11JSONEmitter7emitKeyEN4llvh9StringRefE(ptr noundef nonnull align 8 dereferenceable(72) %this1, ptr %3, i64 %5)
  %6 = load ptr, ptr %val.addr, align 8
  %7 = load i32, ptr %6, align 4
  call void @_ZN6hermes11JSONEmitter9emitValueEi(ptr noundef nonnull align 8 dereferenceable(72) %this1, i32 noundef %7)
  ret void
}

; Function Attrs: mustprogress uwtable
define hidden void @_ZNK8facebook6hermes7tracing10SynthTrace18CreateStringRecord14toJSONInternalERN6hermes11JSONEmitterE(ptr noundef nonnull align 8 dereferenceable(57) %this, ptr noundef nonnull align 8 dereferenceable(72) %json) unnamed_addr #1 align 2 personality ptr @__gxx_personality_v0 {
entry:
  %this.addr.i28 = alloca ptr, align 8
  %data.addr.i = alloca ptr, align 8
  %length.addr.i = alloca i64, align 8
  %this.addr.i18 = alloca ptr, align 8
  %Str.addr.i19 = alloca ptr, align 8
  %this.addr.i8 = alloca ptr, align 8
  %Str.addr.i9 = alloca ptr, align 8
  %this.addr.i = alloca ptr, align 8
  %Str.addr.i = alloca ptr, align 8
  %this.addr = alloca ptr, align 8
  %json.addr = alloca ptr, align 8
  %agg.tmp = alloca %"class.llvh::StringRef", align 8
  %agg.tmp2 = alloca %"class.llvh::StringRef", align 8
  %ref.tmp = alloca %"class.std::__cxx11::basic_string", align 8
  %exn.slot = alloca ptr, align 8
  %ehselector.slot = alloca i32, align 4
  %agg.tmp3 = alloca %"class.llvh::StringRef", align 8
  %ref.tmp4 = alloca %"class.llvh::StringRef", align 8
  store ptr %this, ptr %this.addr, align 8
  store ptr %json, ptr %json.addr, align 8
  %this1 = load ptr, ptr %this.addr, align 8
  %0 = load ptr, ptr %json.addr, align 8
  call void @_ZNK8facebook6hermes7tracing10SynthTrace6Record14toJSONInternalERN6hermes11JSONEmitterE(ptr noundef nonnull align 8 dereferenceable(16) %this1, ptr noundef nonnull align 8 dereferenceable(72) %0)
  %1 = load ptr, ptr %json.addr, align 8
  store ptr %agg.tmp, ptr %this.addr.i, align 8
  store ptr @.str.53, ptr %Str.addr.i, align 8
  %this1.i = load ptr, ptr %this.addr.i, align 8
  %2 = load ptr, ptr %Str.addr.i, align 8
  store ptr %2, ptr %this1.i, align 8
  %Length.i = getelementptr inbounds %"class.llvh::StringRef", ptr %this1.i, i32 0, i32 1
  %3 = load ptr, ptr %Str.addr.i, align 8
  %tobool.i = icmp ne ptr %3, null
  br i1 %tobool.i, label %cond.true.i, label %cond.false.i

cond.true.i:                                      ; preds = %entry
  %4 = load ptr, ptr %Str.addr.i, align 8
  %call.i = call i64 @strlen(ptr noundef %4) #14
  br label %_ZN4llvh9StringRefC2EPKc.exit

cond.false.i:                                     ; preds = %entry
  br label %_ZN4llvh9StringRefC2EPKc.exit

_ZN4llvh9StringRefC2EPKc.exit:                    ; preds = %cond.false.i, %cond.true.i
  %cond.i = phi i64 [ %call.i, %cond.true.i ], [ 0, %cond.false.i ]
  store i64 %cond.i, ptr %Length.i, align 8
  %objID_ = getelementptr inbounds %"struct.facebook::hermes::tracing::SynthTrace::CreateStringRecord", ptr %this1, i32 0, i32 1
  %5 = getelementptr inbounds { ptr, i64 }, ptr %agg.tmp, i32 0, i32 0
  %6 = load ptr, ptr %5, align 8
  %7 = getelementptr inbounds { ptr, i64 }, ptr %agg.tmp, i32 0, i32 1
  %8 = load i64, ptr %7, align 8
  call void @_ZN6hermes11JSONEmitter12emitKeyValueImEEvN4llvh9StringRefERKT_(ptr noundef nonnull align 8 dereferenceable(72) %1, ptr %6, i64 %8, ptr noundef nonnull align 8 dereferenceable(8) %objID_)
  %9 = load ptr, ptr %json.addr, align 8
  store ptr %agg.tmp2, ptr %this.addr.i8, align 8
  store ptr @.str.59, ptr %Str.addr.i9, align 8
  %this1.i10 = load ptr, ptr %this.addr.i8, align 8
  %10 = load ptr, ptr %Str.addr.i9, align 8
  store ptr %10, ptr %this1.i10, align 8
  %Length.i11 = getelementptr inbounds %"class.llvh::StringRef", ptr %this1.i10, i32 0, i32 1
  %11 = load ptr, ptr %Str.addr.i9, align 8
  %tobool.i12 = icmp ne ptr %11, null
  br i1 %tobool.i12, label %cond.true.i15, label %cond.false.i13

cond.true.i15:                                    ; preds = %_ZN4llvh9StringRefC2EPKc.exit
  %12 = load ptr, ptr %Str.addr.i9, align 8
  %call.i16 = call i64 @strlen(ptr noundef %12) #14
  br label %_ZN4llvh9StringRefC2EPKc.exit17

cond.false.i13:                                   ; preds = %_ZN4llvh9StringRefC2EPKc.exit
  br label %_ZN4llvh9StringRefC2EPKc.exit17

_ZN4llvh9StringRefC2EPKc.exit17:                  ; preds = %cond.false.i13, %cond.true.i15
  %cond.i14 = phi i64 [ %call.i16, %cond.true.i15 ], [ 0, %cond.false.i13 ]
  store i64 %cond.i14, ptr %Length.i11, align 8
  %ascii_ = getelementptr inbounds %"struct.facebook::hermes::tracing::SynthTrace::CreateStringRecord", ptr %this1, i32 0, i32 3
  %13 = load i8, ptr %ascii_, align 8
  %tobool = trunc i8 %13 to i1
  call void @_ZN8facebook6hermes7tracingL12encodingNameB5cxx11Eb(ptr sret(%"class.std::__cxx11::basic_string") align 8 %ref.tmp, i1 noundef zeroext %tobool)
  %14 = getelementptr inbounds { ptr, i64 }, ptr %agg.tmp2, i32 0, i32 0
  %15 = load ptr, ptr %14, align 8
  %16 = getelementptr inbounds { ptr, i64 }, ptr %agg.tmp2, i32 0, i32 1
  %17 = load i64, ptr %16, align 8
  invoke void @_ZN6hermes11JSONEmitter12emitKeyValueINSt7__cxx1112basic_stringIcSt11char_traitsIcESaIcEEEEEvN4llvh9StringRefERKT_(ptr noundef nonnull align 8 dereferenceable(72) %9, ptr %15, i64 %17, ptr noundef nonnull align 8 dereferenceable(32) %ref.tmp)
          to label %invoke.cont unwind label %lpad

invoke.cont:                                      ; preds = %_ZN4llvh9StringRefC2EPKc.exit17
  call void @_ZNSt7__cxx1112basic_stringIcSt11char_traitsIcESaIcEED1Ev(ptr noundef nonnull align 8 dereferenceable(32) %ref.tmp) #13
  %18 = load ptr, ptr %json.addr, align 8
  store ptr %agg.tmp3, ptr %this.addr.i18, align 8
  store ptr @.str.60, ptr %Str.addr.i19, align 8
  %this1.i20 = load ptr, ptr %this.addr.i18, align 8
  %19 = load ptr, ptr %Str.addr.i19, align 8
  store ptr %19, ptr %this1.i20, align 8
  %Length.i21 = getelementptr inbounds %"class.llvh::StringRef", ptr %this1.i20, i32 0, i32 1
  %20 = load ptr, ptr %Str.addr.i19, align 8
  %tobool.i22 = icmp ne ptr %20, null
  br i1 %tobool.i22, label %cond.true.i25, label %cond.false.i23

cond.true.i25:                                    ; preds = %invoke.cont
  %21 = load ptr, ptr %Str.addr.i19, align 8
  %call.i26 = call i64 @strlen(ptr noundef %21) #14
  br label %_ZN4llvh9StringRefC2EPKc.exit27

cond.false.i23:                                   ; preds = %invoke.cont
  br label %_ZN4llvh9StringRefC2EPKc.exit27

_ZN4llvh9StringRefC2EPKc.exit27:                  ; preds = %cond.false.i23, %cond.true.i25
  %cond.i24 = phi i64 [ %call.i26, %cond.true.i25 ], [ 0, %cond.false.i23 ]
  store i64 %cond.i24, ptr %Length.i21, align 8
  %chars_ = getelementptr inbounds %"struct.facebook::hermes::tracing::SynthTrace::CreateStringRecord", ptr %this1, i32 0, i32 2
  %call = call noundef ptr @_ZNKSt7__cxx1112basic_stringIcSt11char_traitsIcESaIcEE4dataEv(ptr noundef nonnull align 8 dereferenceable(32) %chars_) #13
  %chars_5 = getelementptr inbounds %"struct.facebook::hermes::tracing::SynthTrace::CreateStringRecord", ptr %this1, i32 0, i32 2
  %call6 = call noundef i64 @_ZNKSt7__cxx1112basic_stringIcSt11char_traitsIcESaIcEE4sizeEv(ptr noundef nonnull align 8 dereferenceable(32) %chars_5) #13
  store ptr %ref.tmp4, ptr %this.addr.i28, align 8
  store ptr %call, ptr %data.addr.i, align 8
  store i64 %call6, ptr %length.addr.i, align 8
  %this1.i29 = load ptr, ptr %this.addr.i28, align 8
  %22 = load ptr, ptr %data.addr.i, align 8
  store ptr %22, ptr %this1.i29, align 8
  %Length.i30 = getelementptr inbounds %"class.llvh::StringRef", ptr %this1.i29, i32 0, i32 1
  %23 = load i64, ptr %length.addr.i, align 8
  store i64 %23, ptr %Length.i30, align 8
  %24 = getelementptr inbounds { ptr, i64 }, ptr %agg.tmp3, i32 0, i32 0
  %25 = load ptr, ptr %24, align 8
  %26 = getelementptr inbounds { ptr, i64 }, ptr %agg.tmp3, i32 0, i32 1
  %27 = load i64, ptr %26, align 8
  call void @_ZN6hermes11JSONEmitter12emitKeyValueIN4llvh9StringRefEEEvS3_RKT_(ptr noundef nonnull align 8 dereferenceable(72) %18, ptr %25, i64 %27, ptr noundef nonnull align 8 dereferenceable(16) %ref.tmp4)
  ret void

lpad:                                             ; preds = %_ZN4llvh9StringRefC2EPKc.exit17
  %28 = landingpad { ptr, i32 }
          cleanup
  %29 = extractvalue { ptr, i32 } %28, 0
  store ptr %29, ptr %exn.slot, align 8
  %30 = extractvalue { ptr, i32 } %28, 1
  store i32 %30, ptr %ehselector.slot, align 4
  call void @_ZNSt7__cxx1112basic_stringIcSt11char_traitsIcESaIcEED1Ev(ptr noundef nonnull align 8 dereferenceable(32) %ref.tmp) #13
  br label %eh.resume

eh.resume:                                        ; preds = %lpad
  %exn = load ptr, ptr %exn.slot, align 8
  %sel = load i32, ptr %ehselector.slot, align 4
  %lpad.val = insertvalue { ptr, i32 } poison, ptr %exn, 0
  %lpad.val7 = insertvalue { ptr, i32 } %lpad.val, i32 %sel, 1
  resume { ptr, i32 } %lpad.val7
}

; Function Attrs: mustprogress uwtable
define internal void @_ZN8facebook6hermes7tracingL12encodingNameB5cxx11Eb(ptr noalias sret(%"class.std::__cxx11::basic_string") align 8 %agg.result, i1 noundef zeroext %isASCII) #1 personality ptr @__gxx_personality_v0 {
entry:
  %result.ptr = alloca ptr, align 8
  %isASCII.addr = alloca i8, align 1
  %ref.tmp = alloca %"class.std::allocator.10", align 1
  %exn.slot = alloca ptr, align 8
  %ehselector.slot = alloca i32, align 4
  store ptr %agg.result, ptr %result.ptr, align 8
  %frombool = zext i1 %isASCII to i8
  store i8 %frombool, ptr %isASCII.addr, align 1
  %0 = load i8, ptr %isASCII.addr, align 1
  %tobool = trunc i8 %0 to i1
  br i1 %tobool, label %cond.true, label %cond.false

cond.true:                                        ; preds = %entry
  br label %cond.end

cond.false:                                       ; preds = %entry
  br label %cond.end

cond.end:                                         ; preds = %cond.false, %cond.true
  %cond-lvalue = phi ptr [ @.str.146, %cond.true ], [ @.str.147, %cond.false ]
  %arraydecay = getelementptr inbounds [6 x i8], ptr %cond-lvalue, i64 0, i64 0
  call void @_ZNSaIcEC1Ev(ptr noundef nonnull align 1 dereferenceable(1) %ref.tmp) #13
  invoke void @_ZNSt7__cxx1112basic_stringIcSt11char_traitsIcESaIcEEC2IS3_EEPKcRKS3_(ptr noundef nonnull align 8 dereferenceable(32) %agg.result, ptr noundef %arraydecay, ptr noundef nonnull align 1 dereferenceable(1) %ref.tmp)
          to label %invoke.cont unwind label %lpad

invoke.cont:                                      ; preds = %cond.end
  call void @_ZNSaIcED1Ev(ptr noundef nonnull align 1 dereferenceable(1) %ref.tmp) #13
  ret void

lpad:                                             ; preds = %cond.end
  %1 = landingpad { ptr, i32 }
          cleanup
  %2 = extractvalue { ptr, i32 } %1, 0
  store ptr %2, ptr %exn.slot, align 8
  %3 = extractvalue { ptr, i32 } %1, 1
  store i32 %3, ptr %ehselector.slot, align 4
  call void @_ZNSaIcED1Ev(ptr noundef nonnull align 1 dereferenceable(1) %ref.tmp) #13
  br label %eh.resume

eh.resume:                                        ; preds = %lpad
  %exn = load ptr, ptr %exn.slot, align 8
  %sel = load i32, ptr %ehselector.slot, align 4
  %lpad.val = insertvalue { ptr, i32 } poison, ptr %exn, 0
  %lpad.val1 = insertvalue { ptr, i32 } %lpad.val, i32 %sel, 1
  resume { ptr, i32 } %lpad.val1
}

; Function Attrs: mustprogress uwtable
define linkonce_odr hidden void @_ZN6hermes11JSONEmitter12emitKeyValueIN4llvh9StringRefEEEvS3_RKT_(ptr noundef nonnull align 8 dereferenceable(72) %this, ptr %key.coerce0, i64 %key.coerce1, ptr noundef nonnull align 8 dereferenceable(16) %val) #1 comdat align 2 {
entry:
  %key = alloca %"class.llvh::StringRef", align 8
  %this.addr = alloca ptr, align 8
  %val.addr = alloca ptr, align 8
  %agg.tmp = alloca %"class.llvh::StringRef", align 8
  %agg.tmp2 = alloca %"class.llvh::StringRef", align 8
  %0 = getelementptr inbounds { ptr, i64 }, ptr %key, i32 0, i32 0
  store ptr %key.coerce0, ptr %0, align 8
  %1 = getelementptr inbounds { ptr, i64 }, ptr %key, i32 0, i32 1
  store i64 %key.coerce1, ptr %1, align 8
  store ptr %this, ptr %this.addr, align 8
  store ptr %val, ptr %val.addr, align 8
  %this1 = load ptr, ptr %this.addr, align 8
  call void @llvm.memcpy.p0.p0.i64(ptr align 8 %agg.tmp, ptr align 8 %key, i64 16, i1 false)
  %2 = getelementptr inbounds { ptr, i64 }, ptr %agg.tmp, i32 0, i32 0
  %3 = load ptr, ptr %2, align 8
  %4 = getelementptr inbounds { ptr, i64 }, ptr %agg.tmp, i32 0, i32 1
  %5 = load i64, ptr %4, align 8
  call void @_ZN6hermes11JSONEmitter7emitKeyEN4llvh9StringRefE(ptr noundef nonnull align 8 dereferenceable(72) %this1, ptr %3, i64 %5)
  %6 = load ptr, ptr %val.addr, align 8
  call void @llvm.memcpy.p0.p0.i64(ptr align 8 %agg.tmp2, ptr align 8 %6, i64 16, i1 false)
  %7 = getelementptr inbounds { ptr, i64 }, ptr %agg.tmp2, i32 0, i32 0
  %8 = load ptr, ptr %7, align 8
  %9 = getelementptr inbounds { ptr, i64 }, ptr %agg.tmp2, i32 0, i32 1
  %10 = load i64, ptr %9, align 8
  call void @_ZN6hermes11JSONEmitter9emitValueEN4llvh9StringRefE(ptr noundef nonnull align 8 dereferenceable(72) %this1, ptr %8, i64 %10)
  ret void
}

; Function Attrs: nounwind
declare noundef ptr @_ZNKSt7__cxx1112basic_stringIcSt11char_traitsIcESaIcEE4dataEv(ptr noundef nonnull align 8 dereferenceable(32)) #3

; Function Attrs: nounwind
declare noundef i64 @_ZNKSt7__cxx1112basic_stringIcSt11char_traitsIcESaIcEE4sizeEv(ptr noundef nonnull align 8 dereferenceable(32)) #3

; Function Attrs: mustprogress uwtable
define hidden void @_ZNK8facebook6hermes7tracing10SynthTrace22CreatePropNameIDRecord14toJSONInternalERN6hermes11JSONEmitterE(ptr noundef nonnull align 8 dereferenceable(76) %this, ptr noundef nonnull align 8 dereferenceable(72) %json) unnamed_addr #1 align 2 personality ptr @__gxx_personality_v0 {
entry:
  %this.addr.i45 = alloca ptr, align 8
  %data.addr.i = alloca ptr, align 8
  %length.addr.i = alloca i64, align 8
  %this.addr.i35 = alloca ptr, align 8
  %Str.addr.i36 = alloca ptr, align 8
  %this.addr.i25 = alloca ptr, align 8
  %Str.addr.i26 = alloca ptr, align 8
  %this.addr.i15 = alloca ptr, align 8
  %Str.addr.i16 = alloca ptr, align 8
  %this.addr.i = alloca ptr, align 8
  %Str.addr.i = alloca ptr, align 8
  %this.addr = alloca ptr, align 8
  %json.addr = alloca ptr, align 8
  %agg.tmp = alloca %"class.llvh::StringRef", align 8
  %agg.tmp2 = alloca %"class.llvh::StringRef", align 8
  %ref.tmp = alloca %"class.std::__cxx11::basic_string", align 8
  %agg.tmp3 = alloca %"class.facebook::hermes::tracing::SynthTrace::TraceValue", align 8
  %exn.slot = alloca ptr, align 8
  %ehselector.slot = alloca i32, align 4
  %agg.tmp4 = alloca %"class.llvh::StringRef", align 8
  %ref.tmp5 = alloca %"class.std::__cxx11::basic_string", align 8
  %agg.tmp10 = alloca %"class.llvh::StringRef", align 8
  %ref.tmp11 = alloca %"class.llvh::StringRef", align 8
  store ptr %this, ptr %this.addr, align 8
  store ptr %json, ptr %json.addr, align 8
  %this1 = load ptr, ptr %this.addr, align 8
  %0 = load ptr, ptr %json.addr, align 8
  call void @_ZNK8facebook6hermes7tracing10SynthTrace6Record14toJSONInternalERN6hermes11JSONEmitterE(ptr noundef nonnull align 8 dereferenceable(16) %this1, ptr noundef nonnull align 8 dereferenceable(72) %0)
  %1 = load ptr, ptr %json.addr, align 8
  store ptr %agg.tmp, ptr %this.addr.i, align 8
  store ptr @.str.53, ptr %Str.addr.i, align 8
  %this1.i = load ptr, ptr %this.addr.i, align 8
  %2 = load ptr, ptr %Str.addr.i, align 8
  store ptr %2, ptr %this1.i, align 8
  %Length.i = getelementptr inbounds %"class.llvh::StringRef", ptr %this1.i, i32 0, i32 1
  %3 = load ptr, ptr %Str.addr.i, align 8
  %tobool.i = icmp ne ptr %3, null
  br i1 %tobool.i, label %cond.true.i, label %cond.false.i

cond.true.i:                                      ; preds = %entry
  %4 = load ptr, ptr %Str.addr.i, align 8
  %call.i = call i64 @strlen(ptr noundef %4) #14
  br label %_ZN4llvh9StringRefC2EPKc.exit

cond.false.i:                                     ; preds = %entry
  br label %_ZN4llvh9StringRefC2EPKc.exit

_ZN4llvh9StringRefC2EPKc.exit:                    ; preds = %cond.false.i, %cond.true.i
  %cond.i = phi i64 [ %call.i, %cond.true.i ], [ 0, %cond.false.i ]
  store i64 %cond.i, ptr %Length.i, align 8
  %propNameID_ = getelementptr inbounds %"struct.facebook::hermes::tracing::SynthTrace::CreatePropNameIDRecord", ptr %this1, i32 0, i32 1
  %5 = getelementptr inbounds { ptr, i64 }, ptr %agg.tmp, i32 0, i32 0
  %6 = load ptr, ptr %5, align 8
  %7 = getelementptr inbounds { ptr, i64 }, ptr %agg.tmp, i32 0, i32 1
  %8 = load i64, ptr %7, align 8
  call void @_ZN6hermes11JSONEmitter12emitKeyValueImEEvN4llvh9StringRefERKT_(ptr noundef nonnull align 8 dereferenceable(72) %1, ptr %6, i64 %8, ptr noundef nonnull align 8 dereferenceable(8) %propNameID_)
  %valueType_ = getelementptr inbounds %"struct.facebook::hermes::tracing::SynthTrace::CreatePropNameIDRecord", ptr %this1, i32 0, i32 4
  %9 = load i32, ptr %valueType_, align 8
  %cmp = icmp eq i32 %9, 2
  br i1 %cmp, label %if.then, label %if.else

if.then:                                          ; preds = %_ZN4llvh9StringRefC2EPKc.exit
  %10 = load ptr, ptr %json.addr, align 8
  store ptr %agg.tmp2, ptr %this.addr.i15, align 8
  store ptr @.str.61, ptr %Str.addr.i16, align 8
  %this1.i17 = load ptr, ptr %this.addr.i15, align 8
  %11 = load ptr, ptr %Str.addr.i16, align 8
  store ptr %11, ptr %this1.i17, align 8
  %Length.i18 = getelementptr inbounds %"class.llvh::StringRef", ptr %this1.i17, i32 0, i32 1
  %12 = load ptr, ptr %Str.addr.i16, align 8
  %tobool.i19 = icmp ne ptr %12, null
  br i1 %tobool.i19, label %cond.true.i22, label %cond.false.i20

cond.true.i22:                                    ; preds = %if.then
  %13 = load ptr, ptr %Str.addr.i16, align 8
  %call.i23 = call i64 @strlen(ptr noundef %13) #14
  br label %_ZN4llvh9StringRefC2EPKc.exit24

cond.false.i20:                                   ; preds = %if.then
  br label %_ZN4llvh9StringRefC2EPKc.exit24

_ZN4llvh9StringRefC2EPKc.exit24:                  ; preds = %cond.false.i20, %cond.true.i22
  %cond.i21 = phi i64 [ %call.i23, %cond.true.i22 ], [ 0, %cond.false.i20 ]
  store i64 %cond.i21, ptr %Length.i18, align 8
  %traceValue_ = getelementptr inbounds %"struct.facebook::hermes::tracing::SynthTrace::CreatePropNameIDRecord", ptr %this1, i32 0, i32 3
  call void @llvm.memcpy.p0.p0.i64(ptr align 8 %agg.tmp3, ptr align 8 %traceValue_, i64 16, i1 false)
  %14 = getelementptr inbounds { i32, i64 }, ptr %agg.tmp3, i32 0, i32 0
  %15 = load i32, ptr %14, align 8
  %16 = getelementptr inbounds { i32, i64 }, ptr %agg.tmp3, i32 0, i32 1
  %17 = load i64, ptr %16, align 8
  call void @_ZN8facebook6hermes7tracing10SynthTrace6encodeB5cxx11ENS2_10TraceValueE(ptr sret(%"class.std::__cxx11::basic_string") align 8 %ref.tmp, i32 %15, i64 %17)
  %18 = getelementptr inbounds { ptr, i64 }, ptr %agg.tmp2, i32 0, i32 0
  %19 = load ptr, ptr %18, align 8
  %20 = getelementptr inbounds { ptr, i64 }, ptr %agg.tmp2, i32 0, i32 1
  %21 = load i64, ptr %20, align 8
  invoke void @_ZN6hermes11JSONEmitter12emitKeyValueINSt7__cxx1112basic_stringIcSt11char_traitsIcESaIcEEEEEvN4llvh9StringRefERKT_(ptr noundef nonnull align 8 dereferenceable(72) %10, ptr %19, i64 %21, ptr noundef nonnull align 8 dereferenceable(32) %ref.tmp)
          to label %invoke.cont unwind label %lpad

invoke.cont:                                      ; preds = %_ZN4llvh9StringRefC2EPKc.exit24
  call void @_ZNSt7__cxx1112basic_stringIcSt11char_traitsIcESaIcEED1Ev(ptr noundef nonnull align 8 dereferenceable(32) %ref.tmp) #13
  br label %if.end

lpad:                                             ; preds = %_ZN4llvh9StringRefC2EPKc.exit24
  %22 = landingpad { ptr, i32 }
          cleanup
  %23 = extractvalue { ptr, i32 } %22, 0
  store ptr %23, ptr %exn.slot, align 8
  %24 = extractvalue { ptr, i32 } %22, 1
  store i32 %24, ptr %ehselector.slot, align 4
  call void @_ZNSt7__cxx1112basic_stringIcSt11char_traitsIcESaIcEED1Ev(ptr noundef nonnull align 8 dereferenceable(32) %ref.tmp) #13
  br label %eh.resume

if.else:                                          ; preds = %_ZN4llvh9StringRefC2EPKc.exit
  %25 = load ptr, ptr %json.addr, align 8
  store ptr %agg.tmp4, ptr %this.addr.i25, align 8
  store ptr @.str.59, ptr %Str.addr.i26, align 8
  %this1.i27 = load ptr, ptr %this.addr.i25, align 8
  %26 = load ptr, ptr %Str.addr.i26, align 8
  store ptr %26, ptr %this1.i27, align 8
  %Length.i28 = getelementptr inbounds %"class.llvh::StringRef", ptr %this1.i27, i32 0, i32 1
  %27 = load ptr, ptr %Str.addr.i26, align 8
  %tobool.i29 = icmp ne ptr %27, null
  br i1 %tobool.i29, label %cond.true.i32, label %cond.false.i30

cond.true.i32:                                    ; preds = %if.else
  %28 = load ptr, ptr %Str.addr.i26, align 8
  %call.i33 = call i64 @strlen(ptr noundef %28) #14
  br label %_ZN4llvh9StringRefC2EPKc.exit34

cond.false.i30:                                   ; preds = %if.else
  br label %_ZN4llvh9StringRefC2EPKc.exit34

_ZN4llvh9StringRefC2EPKc.exit34:                  ; preds = %cond.false.i30, %cond.true.i32
  %cond.i31 = phi i64 [ %call.i33, %cond.true.i32 ], [ 0, %cond.false.i30 ]
  store i64 %cond.i31, ptr %Length.i28, align 8
  %valueType_6 = getelementptr inbounds %"struct.facebook::hermes::tracing::SynthTrace::CreatePropNameIDRecord", ptr %this1, i32 0, i32 4
  %29 = load i32, ptr %valueType_6, align 8
  %cmp7 = icmp eq i32 %29, 0
  call void @_ZN8facebook6hermes7tracingL12encodingNameB5cxx11Eb(ptr sret(%"class.std::__cxx11::basic_string") align 8 %ref.tmp5, i1 noundef zeroext %cmp7)
  %30 = getelementptr inbounds { ptr, i64 }, ptr %agg.tmp4, i32 0, i32 0
  %31 = load ptr, ptr %30, align 8
  %32 = getelementptr inbounds { ptr, i64 }, ptr %agg.tmp4, i32 0, i32 1
  %33 = load i64, ptr %32, align 8
  invoke void @_ZN6hermes11JSONEmitter12emitKeyValueINSt7__cxx1112basic_stringIcSt11char_traitsIcESaIcEEEEEvN4llvh9StringRefERKT_(ptr noundef nonnull align 8 dereferenceable(72) %25, ptr %31, i64 %33, ptr noundef nonnull align 8 dereferenceable(32) %ref.tmp5)
          to label %invoke.cont9 unwind label %lpad8

invoke.cont9:                                     ; preds = %_ZN4llvh9StringRefC2EPKc.exit34
  call void @_ZNSt7__cxx1112basic_stringIcSt11char_traitsIcESaIcEED1Ev(ptr noundef nonnull align 8 dereferenceable(32) %ref.tmp5) #13
  %34 = load ptr, ptr %json.addr, align 8
  store ptr %agg.tmp10, ptr %this.addr.i35, align 8
  store ptr @.str.60, ptr %Str.addr.i36, align 8
  %this1.i37 = load ptr, ptr %this.addr.i35, align 8
  %35 = load ptr, ptr %Str.addr.i36, align 8
  store ptr %35, ptr %this1.i37, align 8
  %Length.i38 = getelementptr inbounds %"class.llvh::StringRef", ptr %this1.i37, i32 0, i32 1
  %36 = load ptr, ptr %Str.addr.i36, align 8
  %tobool.i39 = icmp ne ptr %36, null
  br i1 %tobool.i39, label %cond.true.i42, label %cond.false.i40

cond.true.i42:                                    ; preds = %invoke.cont9
  %37 = load ptr, ptr %Str.addr.i36, align 8
  %call.i43 = call i64 @strlen(ptr noundef %37) #14
  br label %_ZN4llvh9StringRefC2EPKc.exit44

cond.false.i40:                                   ; preds = %invoke.cont9
  br label %_ZN4llvh9StringRefC2EPKc.exit44

_ZN4llvh9StringRefC2EPKc.exit44:                  ; preds = %cond.false.i40, %cond.true.i42
  %cond.i41 = phi i64 [ %call.i43, %cond.true.i42 ], [ 0, %cond.false.i40 ]
  store i64 %cond.i41, ptr %Length.i38, align 8
  %chars_ = getelementptr inbounds %"struct.facebook::hermes::tracing::SynthTrace::CreatePropNameIDRecord", ptr %this1, i32 0, i32 2
  %call = call noundef ptr @_ZNKSt7__cxx1112basic_stringIcSt11char_traitsIcESaIcEE4dataEv(ptr noundef nonnull align 8 dereferenceable(32) %chars_) #13
  %chars_12 = getelementptr inbounds %"struct.facebook::hermes::tracing::SynthTrace::CreatePropNameIDRecord", ptr %this1, i32 0, i32 2
  %call13 = call noundef i64 @_ZNKSt7__cxx1112basic_stringIcSt11char_traitsIcESaIcEE4sizeEv(ptr noundef nonnull align 8 dereferenceable(32) %chars_12) #13
  store ptr %ref.tmp11, ptr %this.addr.i45, align 8
  store ptr %call, ptr %data.addr.i, align 8
  store i64 %call13, ptr %length.addr.i, align 8
  %this1.i46 = load ptr, ptr %this.addr.i45, align 8
  %38 = load ptr, ptr %data.addr.i, align 8
  store ptr %38, ptr %this1.i46, align 8
  %Length.i47 = getelementptr inbounds %"class.llvh::StringRef", ptr %this1.i46, i32 0, i32 1
  %39 = load i64, ptr %length.addr.i, align 8
  store i64 %39, ptr %Length.i47, align 8
  %40 = getelementptr inbounds { ptr, i64 }, ptr %agg.tmp10, i32 0, i32 0
  %41 = load ptr, ptr %40, align 8
  %42 = getelementptr inbounds { ptr, i64 }, ptr %agg.tmp10, i32 0, i32 1
  %43 = load i64, ptr %42, align 8
  call void @_ZN6hermes11JSONEmitter12emitKeyValueIN4llvh9StringRefEEEvS3_RKT_(ptr noundef nonnull align 8 dereferenceable(72) %34, ptr %41, i64 %43, ptr noundef nonnull align 8 dereferenceable(16) %ref.tmp11)
  br label %if.end

lpad8:                                            ; preds = %_ZN4llvh9StringRefC2EPKc.exit34
  %44 = landingpad { ptr, i32 }
          cleanup
  %45 = extractvalue { ptr, i32 } %44, 0
  store ptr %45, ptr %exn.slot, align 8
  %46 = extractvalue { ptr, i32 } %44, 1
  store i32 %46, ptr %ehselector.slot, align 4
  call void @_ZNSt7__cxx1112basic_stringIcSt11char_traitsIcESaIcEED1Ev(ptr noundef nonnull align 8 dereferenceable(32) %ref.tmp5) #13
  br label %eh.resume

if.end:                                           ; preds = %_ZN4llvh9StringRefC2EPKc.exit44, %invoke.cont
  ret void

eh.resume:                                        ; preds = %lpad8, %lpad
  %exn = load ptr, ptr %exn.slot, align 8
  %sel = load i32, ptr %ehselector.slot, align 4
  %lpad.val = insertvalue { ptr, i32 } poison, ptr %exn, 0
  %lpad.val14 = insertvalue { ptr, i32 } %lpad.val, i32 %sel, 1
  resume { ptr, i32 } %lpad.val14
}

; Function Attrs: nocallback nofree nounwind willreturn memory(argmem: readwrite)
declare void @llvm.memcpy.p0.p0.i64(ptr noalias nocapture writeonly, ptr noalias nocapture readonly, i64, i1 immarg) #5

; Function Attrs: mustprogress uwtable
define hidden void @_ZNK8facebook6hermes7tracing10SynthTrace24CreateHostFunctionRecord14toJSONInternalERN6hermes11JSONEmitterE(ptr noundef nonnull align 8 dereferenceable(32) %this, ptr noundef nonnull align 8 dereferenceable(72) %json) unnamed_addr #1 align 2 {
entry:
  %this.addr.i3 = alloca ptr, align 8
  %Str.addr.i4 = alloca ptr, align 8
  %this.addr.i = alloca ptr, align 8
  %Str.addr.i = alloca ptr, align 8
  %this.addr = alloca ptr, align 8
  %json.addr = alloca ptr, align 8
  %agg.tmp = alloca %"class.llvh::StringRef", align 8
  %agg.tmp2 = alloca %"class.llvh::StringRef", align 8
  store ptr %this, ptr %this.addr, align 8
  store ptr %json, ptr %json.addr, align 8
  %this1 = load ptr, ptr %this.addr, align 8
  %0 = load ptr, ptr %json.addr, align 8
  call void @_ZNK8facebook6hermes7tracing10SynthTrace18CreateObjectRecord14toJSONInternalERN6hermes11JSONEmitterE(ptr noundef nonnull align 8 dereferenceable(24) %this1, ptr noundef nonnull align 8 dereferenceable(72) %0)
  %1 = load ptr, ptr %json.addr, align 8
  store ptr %agg.tmp, ptr %this.addr.i, align 8
  store ptr @.str.47, ptr %Str.addr.i, align 8
  %this1.i = load ptr, ptr %this.addr.i, align 8
  %2 = load ptr, ptr %Str.addr.i, align 8
  store ptr %2, ptr %this1.i, align 8
  %Length.i = getelementptr inbounds %"class.llvh::StringRef", ptr %this1.i, i32 0, i32 1
  %3 = load ptr, ptr %Str.addr.i, align 8
  %tobool.i = icmp ne ptr %3, null
  br i1 %tobool.i, label %cond.true.i, label %cond.false.i

cond.true.i:                                      ; preds = %entry
  %4 = load ptr, ptr %Str.addr.i, align 8
  %call.i = call i64 @strlen(ptr noundef %4) #14
  br label %_ZN4llvh9StringRefC2EPKc.exit

cond.false.i:                                     ; preds = %entry
  br label %_ZN4llvh9StringRefC2EPKc.exit

_ZN4llvh9StringRefC2EPKc.exit:                    ; preds = %cond.false.i, %cond.true.i
  %cond.i = phi i64 [ %call.i, %cond.true.i ], [ 0, %cond.false.i ]
  store i64 %cond.i, ptr %Length.i, align 8
  %propNameID_ = getelementptr inbounds %"struct.facebook::hermes::tracing::SynthTrace::CreateHostFunctionRecord", ptr %this1, i32 0, i32 1
  %5 = getelementptr inbounds { ptr, i64 }, ptr %agg.tmp, i32 0, i32 0
  %6 = load ptr, ptr %5, align 8
  %7 = getelementptr inbounds { ptr, i64 }, ptr %agg.tmp, i32 0, i32 1
  %8 = load i64, ptr %7, align 8
  call void @_ZN6hermes11JSONEmitter12emitKeyValueIjEEvN4llvh9StringRefERKT_(ptr noundef nonnull align 8 dereferenceable(72) %1, ptr %6, i64 %8, ptr noundef nonnull align 4 dereferenceable(4) %propNameID_)
  %9 = load ptr, ptr %json.addr, align 8
  store ptr %agg.tmp2, ptr %this.addr.i3, align 8
  store ptr @.str.62, ptr %Str.addr.i4, align 8
  %this1.i5 = load ptr, ptr %this.addr.i3, align 8
  %10 = load ptr, ptr %Str.addr.i4, align 8
  store ptr %10, ptr %this1.i5, align 8
  %Length.i6 = getelementptr inbounds %"class.llvh::StringRef", ptr %this1.i5, i32 0, i32 1
  %11 = load ptr, ptr %Str.addr.i4, align 8
  %tobool.i7 = icmp ne ptr %11, null
  br i1 %tobool.i7, label %cond.true.i10, label %cond.false.i8

cond.true.i10:                                    ; preds = %_ZN4llvh9StringRefC2EPKc.exit
  %12 = load ptr, ptr %Str.addr.i4, align 8
  %call.i11 = call i64 @strlen(ptr noundef %12) #14
  br label %_ZN4llvh9StringRefC2EPKc.exit12

cond.false.i8:                                    ; preds = %_ZN4llvh9StringRefC2EPKc.exit
  br label %_ZN4llvh9StringRefC2EPKc.exit12

_ZN4llvh9StringRefC2EPKc.exit12:                  ; preds = %cond.false.i8, %cond.true.i10
  %cond.i9 = phi i64 [ %call.i11, %cond.true.i10 ], [ 0, %cond.false.i8 ]
  store i64 %cond.i9, ptr %Length.i6, align 8
  %paramCount_ = getelementptr inbounds %"struct.facebook::hermes::tracing::SynthTrace::CreateHostFunctionRecord", ptr %this1, i32 0, i32 2
  %13 = getelementptr inbounds { ptr, i64 }, ptr %agg.tmp2, i32 0, i32 0
  %14 = load ptr, ptr %13, align 8
  %15 = getelementptr inbounds { ptr, i64 }, ptr %agg.tmp2, i32 0, i32 1
  %16 = load i64, ptr %15, align 8
