target datalayout = "e-m:e-p270:32:32-p271:32:32-p272:64:64-i64:64-i128:128-f80:128-n8:16:32:64-S128"
target triple = "x86_64-unknown-linux-gnu"

%struct.anon = type { ptr, i64, i32, i32, i32, i32 }
%"struct.(anonymous namespace)::ArchNames" = type { ptr, i64, ptr, i64, ptr, i64, i32, i32, i32, i32 }
%struct.anon.0 = type { ptr, i64, i32, ptr, ptr }
%struct.anon.1 = type { ptr, i64, i32 }
%"struct.(anonymous namespace)::CpuNames" = type { ptr, i64, i32, i8, i32 }
%"struct.(anonymous namespace)::ArchNames.2" = type { ptr, i64, ptr, i64, ptr, i64, i32, i32, i32, i32 }
%"struct.(anonymous namespace)::CpuNames.8" = type { ptr, i64, i32, i8, i32 }
%"class.llvh::StringRef" = type { ptr, i64 }
%"class.llvh::StringLiteral" = type { %"class.llvh::StringRef" }
%"class.llvh::StringSwitch" = type { %"class.llvh::StringRef", %"class.llvh::Optional" }
%"class.llvh::Optional" = type { %"struct.llvh::optional_detail::OptionalStorage" }
%"struct.llvh::optional_detail::OptionalStorage" = type { %"struct.llvh::AlignedCharArrayUnion", i8, [3 x i8] }
%"struct.llvh::AlignedCharArrayUnion" = type { %"struct.llvh::AlignedCharArray" }
%"struct.llvh::AlignedCharArray" = type { [4 x i8] }
%"class.llvh::StringSwitch.3" = type { %"class.llvh::StringRef", %"class.llvh::Optional.4" }
%"class.llvh::Optional.4" = type { %"struct.llvh::optional_detail::OptionalStorage.5" }
%"struct.llvh::optional_detail::OptionalStorage.5" = type { %"struct.llvh::AlignedCharArrayUnion.6", i8, [3 x i8] }
%"struct.llvh::AlignedCharArrayUnion.6" = type { %"struct.llvh::AlignedCharArray" }
%"class.llvh::StringSwitch.17" = type { %"class.llvh::StringRef", %"class.llvh::Optional.18" }
%"class.llvh::Optional.18" = type { %"struct.llvh::optional_detail::OptionalStorage.19" }
%"struct.llvh::optional_detail::OptionalStorage.19" = type { %"struct.llvh::AlignedCharArrayUnion.20", i8, [7 x i8] }
%"struct.llvh::AlignedCharArrayUnion.20" = type { %"struct.llvh::AlignedCharArray.21" }
%"struct.llvh::AlignedCharArray.21" = type { [16 x i8] }
%"class.llvh::StringSwitch.9" = type { %"class.llvh::StringRef", %"class.llvh::Optional.10" }
%"class.llvh::Optional.10" = type { %"struct.llvh::optional_detail::OptionalStorage.11" }
%"struct.llvh::optional_detail::OptionalStorage.11" = type { %"struct.llvh::AlignedCharArrayUnion.12", i8, [3 x i8] }
%"struct.llvh::AlignedCharArrayUnion.12" = type { %"struct.llvh::AlignedCharArray" }
%"class.llvh::Triple" = type { %"class.std::__cxx11::basic_string", i32, i32, i32, i32, i32, i32 }
%"class.std::__cxx11::basic_string" = type { %"struct.std::__cxx11::basic_string<char>::_Alloc_hider", i64, %union.anon }
%"struct.std::__cxx11::basic_string<char>::_Alloc_hider" = type { ptr }
%union.anon = type { i64, [8 x i8] }
%"class.llvh::ArrayRef" = type { ptr, i64 }
%"struct.(anonymous namespace)::GPUInfo" = type { %"class.llvh::StringLiteral", %"class.llvh::StringLiteral", i32, i32 }
%"struct.llvh::AMDGPU::IsaVersion" = type { i32, i32, i32 }
%"struct.__gnu_cxx::__ops::_Iter_comp_val" = type { %class.anon }
%class.anon = type { i8 }
%"class.__gnu_cxx::__normal_iterator" = type { ptr }
%"struct.std::_Vector_base" = type { %"struct.std::_Vector_base<llvh::StringRef, std::allocator<llvh::StringRef>>::_Vector_impl" }
%"struct.std::_Vector_base<llvh::StringRef, std::allocator<llvh::StringRef>>::_Vector_impl" = type { %"struct.std::_Vector_base<llvh::StringRef, std::allocator<llvh::StringRef>>::_Vector_impl_data" }
%"struct.std::_Vector_base<llvh::StringRef, std::allocator<llvh::StringRef>>::_Vector_impl_data" = type { ptr, ptr, ptr }
%"class.llvh::SmallVectorBase" = type { ptr, i32, i32 }

$_ZN4llvh9StringRefC2Ev = comdat any

$_ZN4llvh13StringLiteralC2ILm5EEEUa9enable_ifIXeqclL_Z16__builtin_strlenEfL0p_EmiLm5ELi1EEERAT__Kc = comdat any

$_ZN4llvh13StringLiteralC2ILm6EEEUa9enable_ifIXeqclL_Z16__builtin_strlenEfL0p_EmiLm6ELi1EEERAT__Kc = comdat any

$_ZN4llvh13StringLiteralC2ILm7EEEUa9enable_ifIXeqclL_Z16__builtin_strlenEfL0p_EmiLm7ELi1EEERAT__Kc = comdat any

$_ZN4llvh13StringLiteralC2ILm10EEEUa9enable_ifIXeqclL_Z16__builtin_strlenEfL0p_EmiLm10ELi1EEERAT__Kc = comdat any

$_ZN4llvh13StringLiteralC2ILm13EEEUa9enable_ifIXeqclL_Z16__builtin_strlenEfL0p_EmiLm13ELi1EEERAT__Kc = comdat any

$_ZN4llvh13StringLiteralC2ILm14EEEUa9enable_ifIXeqclL_Z16__builtin_strlenEfL0p_EmiLm14ELi1EEERAT__Kc = comdat any

$_ZN4llvh13StringLiteralC2ILm9EEEUa9enable_ifIXeqclL_Z16__builtin_strlenEfL0p_EmiLm9ELi1EEERAT__Kc = comdat any

$_ZN4llvh13StringLiteralC2ILm11EEEUa9enable_ifIXeqclL_Z16__builtin_strlenEfL0p_EmiLm11ELi1EEERAT__Kc = comdat any

$_ZN4llvh13StringLiteralC2ILm8EEEUa9enable_ifIXeqclL_Z16__builtin_strlenEfL0p_EmiLm8ELi1EEERAT__Kc = comdat any

$_ZN4llvh13StringLiteralC2ILm12EEEUa9enable_ifIXeqclL_Z16__builtin_strlenEfL0p_EmiLm12ELi1EEERAT__Kc = comdat any

$_ZNSt6vectorIN4llvh9StringRefESaIS1_EE9push_backEOS1_ = comdat any

$_ZNK4llvh9StringRefixEm = comdat any

$_ZN4llvh23SmallVectorTemplateBaseINS_9StringRefELb1EE9push_backERKS1_ = comdat any

$_ZN4llvh13StringLiteralC2ILm4EEEUa9enable_ifIXeqclL_Z16__builtin_strlenEfL0p_EmiLm4ELi1EEERAT__Kc = comdat any

$_ZNK4llvh6Triple18isOSBinFormatMachOEv = comdat any

$_ZNK4llvh6Triple14getEnvironmentEv = comdat any

$_ZNK4llvh6Triple5getOSEv = comdat any

$_ZNK4llvh6Triple10isWatchABIEv = comdat any

$_ZNK4llvh6Triple11isOSWindowsEv = comdat any

$_ZNK4llvh6Triple10isOSNetBSDEv = comdat any

$_ZNK4llvh6Triple11isOSOpenBSDEv = comdat any

$_ZNK4llvh6Triple9isAndroidEv = comdat any

$_ZNK4llvh6Triple10isOSDarwinEv = comdat any

$_ZNK4llvh6Triple11isOSFuchsiaEv = comdat any

$_ZSt3minImERKT_S2_S2_ = comdat any

$_ZNK4llvh9StringRef3endEv = comdat any

$_ZN4llvh8OptionalINS_9StringRefEEC2Ev = comdat any

$_ZN4llvh15optional_detail15OptionalStorageINS_9StringRefELb1EEC2Ev = comdat any

$_ZNK4llvh8OptionalINS_9StringRefEEcvbEv = comdat any

$_ZN4llvh8OptionalINS_9StringRefEEaSEOS1_ = comdat any

$_ZN4llvh15optional_detail15OptionalStorageINS_9StringRefELb1EEaSERKS2_ = comdat any

$_ZNR4llvh8OptionalINS_9StringRefEEdeEv = comdat any

$_ZN4llvh8OptionalINS_9StringRefEE10getPointerEv = comdat any

$_ZN4llvh13StringLiteralC2ILm3EEEUa9enable_ifIXeqclL_Z16__builtin_strlenEfL0p_EmiLm3ELi1EEERAT__Kc = comdat any

$_ZNK4llvh6Triple15getObjectFormatEv = comdat any

$_ZNK4llvh6Triple10getSubArchEv = comdat any

$_ZNK4llvh6Triple8isMacOSXEv = comdat any

$_ZNK4llvh6Triple5isiOSEv = comdat any

$_ZNK4llvh6Triple9isWatchOSEv = comdat any

$_ZNK4llvh6Triple6isTvOSEv = comdat any

$_ZN4llvh13StringLiteralC2ILm1EEEUa9enable_ifIXeqclL_Z16__builtin_strlenEfL0p_EmiLm1ELi1EEERAT__Kc = comdat any

$_ZN4llvh8OptionalIjEC2Ev = comdat any

$_ZN4llvh15optional_detail15OptionalStorageIjLb1EEC2Ev = comdat any

$_ZNK4llvh8OptionalIjEcvbEv = comdat any

$_ZN4llvh8OptionalIjEaSEOj = comdat any

$_ZN4llvh15optional_detail15OptionalStorageIjLb1EEaSERKj = comdat any

$_ZNR4llvh8OptionalIjEdeEv = comdat any

$_ZN4llvh8OptionalIjE10getPointerEv = comdat any

$_ZNSt6vectorIN4llvh9StringRefESaIS1_EE12emplace_backIJS1_EEERS1_DpOT_ = comdat any

$_ZNSt16allocator_traitsISaIN4llvh9StringRefEEE9constructIS1_JS1_EEEvRS2_PT_DpOT0_ = comdat any

$_ZNSt6vectorIN4llvh9StringRefESaIS1_EE17_M_realloc_insertIJS1_EEEvN9__gnu_cxx17__normal_iteratorIPS1_S3_EEDpOT_ = comdat any

$_ZNSt6vectorIN4llvh9StringRefESaIS1_EE3endEv = comdat any

$_ZNSt6vectorIN4llvh9StringRefESaIS1_EE4backEv = comdat any

$_ZNSt15__new_allocatorIN4llvh9StringRefEE9constructIS1_JS1_EEEvPT_DpOT0_ = comdat any

$_ZNKSt6vectorIN4llvh9StringRefESaIS1_EE12_M_check_lenEmPKc = comdat any

$_ZN9__gnu_cxxmiIPN4llvh9StringRefESt6vectorIS2_SaIS2_EEEENS_17__normal_iteratorIT_T0_E15difference_typeERKSA_SD_ = comdat any

$_ZNSt6vectorIN4llvh9StringRefESaIS1_EE5beginEv = comdat any

$_ZNSt12_Vector_baseIN4llvh9StringRefESaIS1_EE11_M_allocateEm = comdat any

$_ZNSt6vectorIN4llvh9StringRefESaIS1_EE11_S_relocateEPS1_S4_S4_RS2_ = comdat any

$_ZNK9__gnu_cxx17__normal_iteratorIPN4llvh9StringRefESt6vectorIS2_SaIS2_EEE4baseEv = comdat any

$_ZNSt12_Vector_baseIN4llvh9StringRefESaIS1_EE19_M_get_Tp_allocatorEv = comdat any

$_ZNSt12_Vector_baseIN4llvh9StringRefESaIS1_EE13_M_deallocateEPS1_m = comdat any

$_ZNKSt6vectorIN4llvh9StringRefESaIS1_EE8max_sizeEv = comdat any

$_ZNKSt6vectorIN4llvh9StringRefESaIS1_EE4sizeEv = comdat any

$_ZSt3maxImERKT_S2_S2_ = comdat any

$_ZNSt6vectorIN4llvh9StringRefESaIS1_EE11_S_max_sizeERKS2_ = comdat any

$_ZNKSt12_Vector_baseIN4llvh9StringRefESaIS1_EE19_M_get_Tp_allocatorEv = comdat any

$_ZNSt16allocator_traitsISaIN4llvh9StringRefEEE8max_sizeERKS2_ = comdat any

$_ZNKSt15__new_allocatorIN4llvh9StringRefEE8max_sizeEv = comdat any

$_ZNKSt15__new_allocatorIN4llvh9StringRefEE11_M_max_sizeEv = comdat any

$_ZN9__gnu_cxx17__normal_iteratorIPN4llvh9StringRefESt6vectorIS2_SaIS2_EEEC2ERKS3_ = comdat any

$_ZNSt16allocator_traitsISaIN4llvh9StringRefEEE8allocateERS2_m = comdat any

$_ZNSt15__new_allocatorIN4llvh9StringRefEE8allocateEmPKv = comdat any

$_ZSt12__relocate_aIPN4llvh9StringRefES2_SaIS1_EET0_T_S5_S4_RT1_ = comdat any

$_ZSt14__relocate_a_1IPN4llvh9StringRefES2_SaIS1_EET0_T_S5_S4_RT1_ = comdat any

$_ZSt12__niter_baseIPN4llvh9StringRefEET_S3_ = comdat any

$_ZSt19__relocate_object_aIN4llvh9StringRefES1_SaIS1_EEvPT_PT0_RT1_ = comdat any

$_ZNSt16allocator_traitsISaIN4llvh9StringRefEEE7destroyIS1_EEvRS2_PT_ = comdat any

$_ZNSt15__new_allocatorIN4llvh9StringRefEE7destroyIS1_EEvPT_ = comdat any

$_ZNSt16allocator_traitsISaIN4llvh9StringRefEEE10deallocateERS2_PS1_m = comdat any

$_ZNSt15__new_allocatorIN4llvh9StringRefEE10deallocateEPS1_m = comdat any

$_ZNK9__gnu_cxx17__normal_iteratorIPN4llvh9StringRefESt6vectorIS2_SaIS2_EEEmiEl = comdat any

$_ZNK9__gnu_cxx17__normal_iteratorIPN4llvh9StringRefESt6vectorIS2_SaIS2_EEEdeEv = comdat any

$_ZN4llvh8OptionalINS_7AArch648ArchKindEEC2Ev = comdat any

$_ZN4llvh15optional_detail15OptionalStorageINS_7AArch648ArchKindELb1EEC2Ev = comdat any

$_ZNK4llvh8OptionalINS_7AArch648ArchKindEEcvbEv = comdat any

$_ZN4llvh8OptionalINS_7AArch648ArchKindEEaSEOS2_ = comdat any

$_ZN4llvh15optional_detail15OptionalStorageINS_7AArch648ArchKindELb1EEaSERKS3_ = comdat any

$_ZNR4llvh8OptionalINS_7AArch648ArchKindEEdeEv = comdat any

$_ZN4llvh8OptionalINS_7AArch648ArchKindEE10getPointerEv = comdat any

$_ZNK4llvh15SmallVectorBase4sizeEv = comdat any

$_ZNK4llvh15SmallVectorBase8capacityEv = comdat any

$_ZN4llvh23SmallVectorTemplateBaseINS_9StringRefELb1EE4growEm = comdat any

$_ZN4llvh15SmallVectorBase8set_sizeEm = comdat any

$_ZN4llvh25SmallVectorTemplateCommonINS_9StringRefEvE8grow_podEmm = comdat any

$_ZNK4llvh25SmallVectorTemplateCommonINS_9StringRefEvE10getFirstElEv = comdat any

$_ZN4llvh8OptionalINS_3ARM7ISAKindEEC2Ev = comdat any

$_ZN4llvh15optional_detail15OptionalStorageINS_3ARM7ISAKindELb1EEC2Ev = comdat any

$_ZNK4llvh8OptionalINS_3ARM7ISAKindEEcvbEv = comdat any

$_ZN4llvh8OptionalINS_3ARM7ISAKindEEaSEOS2_ = comdat any

$_ZN4llvh15optional_detail15OptionalStorageINS_3ARM7ISAKindELb1EEaSERKS3_ = comdat any

$_ZNR4llvh8OptionalINS_3ARM7ISAKindEEdeEv = comdat any

$_ZN4llvh8OptionalINS_3ARM7ISAKindEE10getPointerEv = comdat any

@_ZN12_GLOBAL__N_18FPUNamesE = internal constant [22 x %struct.anon] [%struct.anon { ptr @.str.83, i64 7, i32 0, i32 0, i32 0, i32 0 }, %struct.anon { ptr @.str.149, i64 4, i32 1, i32 0, i32 0, i32 0 }, %struct.anon { ptr @.str.150, i64 3, i32 2, i32 1, i32 0, i32 0 }, %struct.anon { ptr @.str.151, i64 5, i32 3, i32 1, i32 0, i32 0 }, %struct.anon { ptr @.str.152, i64 5, i32 4, i32 2, i32 0, i32 0 }, %struct.anon { ptr @.str.153, i64 10, i32 5, i32 3, i32 0, i32 0 }, %struct.anon { ptr @.str.154, i64 9, i32 6, i32 2, i32 0, i32 1 }, %struct.anon { ptr @.str.155, i64 14, i32 7, i32 3, i32 0, i32 1 }, %struct.anon { ptr @.str.156, i64 7, i32 8, i32 2, i32 0, i32 2 }, %struct.anon { ptr @.str.157, i64 12, i32 9, i32 3, i32 0, i32 2 }, %struct.anon { ptr @.str.158, i64 5, i32 10, i32 4, i32 0, i32 0 }, %struct.anon { ptr @.str.159, i64 9, i32 11, i32 4, i32 0, i32 1 }, %struct.anon { ptr @.str.160, i64 11, i32 12, i32 4, i32 0, i32 2 }, %struct.anon { ptr @.str.161, i64 8, i32 13, i32 5, i32 0, i32 1 }, %struct.anon { ptr @.str.162, i64 11, i32 14, i32 5, i32 0, i32 2 }, %struct.anon { ptr @.str.163, i64 8, i32 15, i32 5, i32 0, i32 0 }, %struct.anon { ptr @.str.164, i64 4, i32 16, i32 2, i32 1, i32 0 }, %struct.anon { ptr @.str.165, i64 9, i32 17, i32 3, i32 1, i32 0 }, %struct.anon { ptr @.str.166, i64 10, i32 18, i32 4, i32 1, i32 0 }, %struct.anon { ptr @.str.167, i64 13, i32 19, i32 5, i32 1, i32 0 }, %struct.anon { ptr @.str.168, i64 20, i32 20, i32 5, i32 2, i32 0 }, %struct.anon { ptr @.str.169, i64 7, i32 21, i32 0, i32 0, i32 0 }], align 16
@.str = private unnamed_addr constant [8 x i8] c"generic\00", align 1
@_ZN12_GLOBAL__N_19ARCHNamesE = internal global [34 x %"struct.(anonymous namespace)::ArchNames"] [%"struct.(anonymous namespace)::ArchNames" { ptr @.str.83, i64 7, ptr @.str.135, i64 0, ptr @.str.135, i64 0, i32 1, i32 1, i32 0, i32 0 }, %"struct.(anonymous namespace)::ArchNames" { ptr @.str.170, i64 5, ptr @.str.171, i64 1, ptr @.str.172, i64 2, i32 1, i32 1, i32 1, i32 0 }, %"struct.(anonymous namespace)::ArchNames" { ptr @.str.173, i64 6, ptr @.str.174, i64 2, ptr @.str.175, i64 3, i32 1, i32 1, i32 2, i32 0 }, %"struct.(anonymous namespace)::ArchNames" { ptr @.str.176, i64 5, ptr @.str.177, i64 1, ptr @.str.178, i64 2, i32 1, i32 1, i32 3, i32 0 }, %"struct.(anonymous namespace)::ArchNames" { ptr @.str.179, i64 6, ptr @.str.180, i64 2, ptr @.str.181, i64 3, i32 1, i32 1, i32 4, i32 0 }, %"struct.(anonymous namespace)::ArchNames" { ptr @.str.182, i64 5, ptr @.str.183, i64 1, ptr @.str.184, i64 2, i32 1, i32 1, i32 5, i32 1 }, %"struct.(anonymous namespace)::ArchNames" { ptr @.str.185, i64 6, ptr @.str.186, i64 2, ptr @.str.187, i64 3, i32 1, i32 1, i32 6, i32 2 }, %"struct.(anonymous namespace)::ArchNames" { ptr @.str.188, i64 6, ptr @.str.189, i64 2, ptr @.str.190, i64 2, i32 1, i32 1, i32 7, i32 3 }, %"struct.(anonymous namespace)::ArchNames" { ptr @.str.191, i64 7, ptr @.str.192, i64 3, ptr @.str.193, i64 3, i32 1, i32 1024, i32 8, i32 4 }, %"struct.(anonymous namespace)::ArchNames" { ptr @.str.194, i64 8, ptr @.str.195, i64 4, ptr @.str.193, i64 3, i32 1, i32 1024, i32 9, i32 5 }, %"struct.(anonymous namespace)::ArchNames" { ptr @.str.196, i64 5, ptr @.str.197, i64 1, ptr @.str.198, i64 2, i32 3, i32 1024, i32 10, i32 6 }, %"struct.(anonymous namespace)::ArchNames" { ptr @.str.199, i64 6, ptr @.str.200, i64 2, ptr @.str.201, i64 3, i32 3, i32 1024, i32 11, i32 9 }, %"struct.(anonymous namespace)::ArchNames" { ptr @.str.202, i64 7, ptr @.str.203, i64 3, ptr @.str.204, i64 4, i32 1, i32 1024, i32 12, i32 8 }, %"struct.(anonymous namespace)::ArchNames" { ptr @.str.205, i64 7, ptr @.str.206, i64 3, ptr @.str.207, i64 4, i32 3, i32 1280, i32 13, i32 7 }, %"struct.(anonymous namespace)::ArchNames" { ptr @.str.208, i64 7, ptr @.str.209, i64 3, ptr @.str.210, i64 3, i32 1, i32 1, i32 14, i32 11 }, %"struct.(anonymous namespace)::ArchNames" { ptr @.str.211, i64 7, ptr @.str.212, i64 3, ptr @.str.213, i64 2, i32 16, i32 1024, i32 15, i32 10 }, %"struct.(anonymous namespace)::ArchNames" { ptr @.str.214, i64 7, ptr @.str.215, i64 3, ptr @.str.216, i64 4, i32 16, i32 1904, i32 16, i32 10 }, %"struct.(anonymous namespace)::ArchNames" { ptr @.str.217, i64 7, ptr @.str.218, i64 3, ptr @.str.219, i64 3, i32 1, i32 1040, i32 17, i32 10 }, %"struct.(anonymous namespace)::ArchNames" { ptr @.str.220, i64 7, ptr @.str.221, i64 3, ptr @.str.222, i64 3, i32 1, i32 16, i32 18, i32 10 }, %"struct.(anonymous namespace)::ArchNames" { ptr @.str.223, i64 8, ptr @.str.224, i64 4, ptr @.str.225, i64 4, i32 1, i32 1040, i32 19, i32 13 }, %"struct.(anonymous namespace)::ArchNames" { ptr @.str.226, i64 7, ptr @.str.227, i64 3, ptr @.str.228, i64 2, i32 20, i32 1906, i32 20, i32 14 }, %"struct.(anonymous namespace)::ArchNames" { ptr @.str.229, i64 9, ptr @.str.230, i64 5, ptr @.str.231, i64 5, i32 20, i32 1906, i32 21, i32 14 }, %"struct.(anonymous namespace)::ArchNames" { ptr @.str.232, i64 9, ptr @.str.233, i64 5, ptr @.str.234, i64 5, i32 20, i32 6002, i32 22, i32 14 }, %"struct.(anonymous namespace)::ArchNames" { ptr @.str.235, i64 9, ptr @.str.236, i64 5, ptr @.str.237, i64 5, i32 20, i32 6002, i32 23, i32 14 }, %"struct.(anonymous namespace)::ArchNames" { ptr @.str.238, i64 9, ptr @.str.239, i64 5, ptr @.str.240, i64 5, i32 20, i32 22386, i32 24, i32 14 }, %"struct.(anonymous namespace)::ArchNames" { ptr @.str.241, i64 9, ptr @.str.242, i64 5, ptr @.str.243, i64 5, i32 20, i32 22386, i32 25, i32 14 }, %"struct.(anonymous namespace)::ArchNames" { ptr @.str.244, i64 7, ptr @.str.245, i64 3, ptr @.str.246, i64 3, i32 19, i32 1650, i32 26, i32 15 }, %"struct.(anonymous namespace)::ArchNames" { ptr @.str.247, i64 12, ptr @.str.248, i64 12, ptr @.str.249, i64 8, i32 1, i32 16, i32 27, i32 16 }, %"struct.(anonymous namespace)::ArchNames" { ptr @.str.250, i64 12, ptr @.str.251, i64 12, ptr @.str.252, i64 8, i32 13, i32 16, i32 28, i32 17 }, %"struct.(anonymous namespace)::ArchNames" { ptr @.str.80, i64 6, ptr @.str.80, i64 6, ptr @.str.135, i64 0, i32 1, i32 1, i32 29, i32 4 }, %"struct.(anonymous namespace)::ArchNames" { ptr @.str.253, i64 7, ptr @.str.253, i64 7, ptr @.str.135, i64 0, i32 1, i32 1, i32 30, i32 4 }, %"struct.(anonymous namespace)::ArchNames" { ptr @.str.81, i64 6, ptr @.str.81, i64 6, ptr @.str.193, i64 3, i32 1, i32 1, i32 31, i32 4 }, %"struct.(anonymous namespace)::ArchNames" { ptr @.str.254, i64 6, ptr @.str.255, i64 3, ptr @.str.256, i64 3, i32 18, i32 1024, i32 32, i32 10 }, %"struct.(anonymous namespace)::ArchNames" { ptr @.str.257, i64 6, ptr @.str.258, i64 3, ptr @.str.259, i64 3, i32 1, i32 1024, i32 33, i32 10 }], align 16
@.str.1 = private unnamed_addr constant [5 x i8] c"arm2\00", align 1
@.str.2 = private unnamed_addr constant [5 x i8] c"arm3\00", align 1
@.str.3 = private unnamed_addr constant [5 x i8] c"arm6\00", align 1
@.str.4 = private unnamed_addr constant [6 x i8] c"arm7m\00", align 1
@.str.5 = private unnamed_addr constant [5 x i8] c"arm8\00", align 1
@.str.6 = private unnamed_addr constant [7 x i8] c"arm810\00", align 1
@.str.7 = private unnamed_addr constant [10 x i8] c"strongarm\00", align 1
@.str.8 = private unnamed_addr constant [13 x i8] c"strongarm110\00", align 1
@.str.9 = private unnamed_addr constant [14 x i8] c"strongarm1100\00", align 1
@.str.10 = private unnamed_addr constant [14 x i8] c"strongarm1110\00", align 1
@.str.11 = private unnamed_addr constant [9 x i8] c"arm7tdmi\00", align 1
@.str.12 = private unnamed_addr constant [11 x i8] c"arm7tdmi-s\00", align 1
@.str.13 = private unnamed_addr constant [8 x i8] c"arm710t\00", align 1
@.str.14 = private unnamed_addr constant [8 x i8] c"arm720t\00", align 1
@.str.15 = private unnamed_addr constant [5 x i8] c"arm9\00", align 1
@.str.16 = private unnamed_addr constant [9 x i8] c"arm9tdmi\00", align 1
@.str.17 = private unnamed_addr constant [7 x i8] c"arm920\00", align 1
@.str.18 = private unnamed_addr constant [8 x i8] c"arm920t\00", align 1
@.str.19 = private unnamed_addr constant [8 x i8] c"arm922t\00", align 1
@.str.20 = private unnamed_addr constant [8 x i8] c"arm9312\00", align 1
@.str.21 = private unnamed_addr constant [8 x i8] c"arm940t\00", align 1
@.str.22 = private unnamed_addr constant [7 x i8] c"ep9312\00", align 1
@.str.23 = private unnamed_addr constant [10 x i8] c"arm10tdmi\00", align 1
@.str.24 = private unnamed_addr constant [9 x i8] c"arm1020t\00", align 1
@.str.25 = private unnamed_addr constant [6 x i8] c"arm9e\00", align 1
@.str.26 = private unnamed_addr constant [10 x i8] c"arm946e-s\00", align 1
@.str.27 = private unnamed_addr constant [10 x i8] c"arm966e-s\00", align 1
@.str.28 = private unnamed_addr constant [10 x i8] c"arm968e-s\00", align 1
@.str.29 = private unnamed_addr constant [7 x i8] c"arm10e\00", align 1
@.str.30 = private unnamed_addr constant [9 x i8] c"arm1020e\00", align 1
@.str.31 = private unnamed_addr constant [9 x i8] c"arm1022e\00", align 1
@.str.32 = private unnamed_addr constant [11 x i8] c"arm926ej-s\00", align 1
@.str.33 = private unnamed_addr constant [11 x i8] c"arm1136j-s\00", align 1
@.str.34 = private unnamed_addr constant [12 x i8] c"arm1136jf-s\00", align 1
@.str.35 = private unnamed_addr constant [12 x i8] c"arm1136jz-s\00", align 1
@.str.36 = private unnamed_addr constant [7 x i8] c"mpcore\00", align 1
@.str.37 = private unnamed_addr constant [12 x i8] c"mpcorenovfp\00", align 1
@.str.38 = private unnamed_addr constant [12 x i8] c"arm1176jz-s\00", align 1
@.str.39 = private unnamed_addr constant [13 x i8] c"arm1176jzf-s\00", align 1
@.str.40 = private unnamed_addr constant [12 x i8] c"arm1156t2-s\00", align 1
@.str.41 = private unnamed_addr constant [13 x i8] c"arm1156t2f-s\00", align 1
@.str.42 = private unnamed_addr constant [10 x i8] c"cortex-m0\00", align 1
@.str.43 = private unnamed_addr constant [14 x i8] c"cortex-m0plus\00", align 1
@.str.44 = private unnamed_addr constant [10 x i8] c"cortex-m1\00", align 1
@.str.45 = private unnamed_addr constant [6 x i8] c"sc000\00", align 1
@.str.46 = private unnamed_addr constant [10 x i8] c"cortex-a5\00", align 1
@.str.47 = private unnamed_addr constant [10 x i8] c"cortex-a7\00", align 1
@.str.48 = private unnamed_addr constant [10 x i8] c"cortex-a8\00", align 1
@.str.49 = private unnamed_addr constant [10 x i8] c"cortex-a9\00", align 1
@.str.50 = private unnamed_addr constant [11 x i8] c"cortex-a12\00", align 1
@.str.51 = private unnamed_addr constant [11 x i8] c"cortex-a15\00", align 1
@.str.52 = private unnamed_addr constant [11 x i8] c"cortex-a17\00", align 1
@.str.53 = private unnamed_addr constant [6 x i8] c"krait\00", align 1
@.str.54 = private unnamed_addr constant [10 x i8] c"cortex-r4\00", align 1
@.str.55 = private unnamed_addr constant [11 x i8] c"cortex-r4f\00", align 1
@.str.56 = private unnamed_addr constant [10 x i8] c"cortex-r5\00", align 1
@.str.57 = private unnamed_addr constant [10 x i8] c"cortex-r7\00", align 1
@.str.58 = private unnamed_addr constant [10 x i8] c"cortex-r8\00", align 1
@.str.59 = private unnamed_addr constant [11 x i8] c"cortex-r52\00", align 1
@.str.60 = private unnamed_addr constant [6 x i8] c"sc300\00", align 1
@.str.61 = private unnamed_addr constant [10 x i8] c"cortex-m3\00", align 1
@.str.62 = private unnamed_addr constant [10 x i8] c"cortex-m4\00", align 1
@.str.63 = private unnamed_addr constant [10 x i8] c"cortex-m7\00", align 1
@.str.64 = private unnamed_addr constant [11 x i8] c"cortex-m23\00", align 1
@.str.65 = private unnamed_addr constant [11 x i8] c"cortex-m33\00", align 1
@.str.66 = private unnamed_addr constant [11 x i8] c"cortex-a32\00", align 1
@.str.67 = private unnamed_addr constant [11 x i8] c"cortex-a35\00", align 1
@.str.68 = private unnamed_addr constant [11 x i8] c"cortex-a53\00", align 1
@.str.69 = private unnamed_addr constant [11 x i8] c"cortex-a55\00", align 1
@.str.70 = private unnamed_addr constant [11 x i8] c"cortex-a57\00", align 1
@.str.71 = private unnamed_addr constant [11 x i8] c"cortex-a72\00", align 1
@.str.72 = private unnamed_addr constant [11 x i8] c"cortex-a73\00", align 1
@.str.73 = private unnamed_addr constant [11 x i8] c"cortex-a75\00", align 1
@.str.74 = private unnamed_addr constant [8 x i8] c"cyclone\00", align 1
@.str.75 = private unnamed_addr constant [10 x i8] c"exynos-m1\00", align 1
@.str.76 = private unnamed_addr constant [10 x i8] c"exynos-m2\00", align 1
@.str.77 = private unnamed_addr constant [10 x i8] c"exynos-m3\00", align 1
@.str.78 = private unnamed_addr constant [10 x i8] c"exynos-m4\00", align 1
@.str.79 = private unnamed_addr constant [5 x i8] c"kryo\00", align 1
@.str.80 = private unnamed_addr constant [7 x i8] c"iwmmxt\00", align 1
@.str.81 = private unnamed_addr constant [7 x i8] c"xscale\00", align 1
@.str.82 = private unnamed_addr constant [6 x i8] c"swift\00", align 1
@.str.83 = private unnamed_addr constant [8 x i8] c"invalid\00", align 1
@.str.84 = private unnamed_addr constant [11 x i8] c"+hwdiv-arm\00", align 1
@.str.85 = private unnamed_addr constant [11 x i8] c"-hwdiv-arm\00", align 1
@.str.86 = private unnamed_addr constant [7 x i8] c"+hwdiv\00", align 1
@.str.87 = private unnamed_addr constant [7 x i8] c"-hwdiv\00", align 1
@.str.88 = private unnamed_addr constant [5 x i8] c"+crc\00", align 1
@.str.89 = private unnamed_addr constant [5 x i8] c"-crc\00", align 1
@.str.90 = private unnamed_addr constant [5 x i8] c"+dsp\00", align 1
@.str.91 = private unnamed_addr constant [5 x i8] c"-dsp\00", align 1
@.str.92 = private unnamed_addr constant [9 x i8] c"+fp16fml\00", align 1
@.str.93 = private unnamed_addr constant [9 x i8] c"-fp16fml\00", align 1
@.str.94 = private unnamed_addr constant [5 x i8] c"+ras\00", align 1
@.str.95 = private unnamed_addr constant [5 x i8] c"-ras\00", align 1
@.str.96 = private unnamed_addr constant [9 x i8] c"+dotprod\00", align 1
@.str.97 = private unnamed_addr constant [9 x i8] c"-dotprod\00", align 1
@.str.98 = private unnamed_addr constant [12 x i8] c"+fp-only-sp\00", align 1
@.str.99 = private unnamed_addr constant [5 x i8] c"+d16\00", align 1
@.str.100 = private unnamed_addr constant [12 x i8] c"-fp-only-sp\00", align 1
@.str.101 = private unnamed_addr constant [5 x i8] c"-d16\00", align 1
@.str.102 = private unnamed_addr constant [10 x i8] c"+fp-armv8\00", align 1
@.str.103 = private unnamed_addr constant [6 x i8] c"+vfp4\00", align 1
@.str.104 = private unnamed_addr constant [10 x i8] c"-fp-armv8\00", align 1
@.str.105 = private unnamed_addr constant [6 x i8] c"+vfp3\00", align 1
@.str.106 = private unnamed_addr constant [6 x i8] c"+fp16\00", align 1
@.str.107 = private unnamed_addr constant [6 x i8] c"-vfp4\00", align 1
@.str.108 = private unnamed_addr constant [6 x i8] c"-fp16\00", align 1
@.str.109 = private unnamed_addr constant [6 x i8] c"+vfp2\00", align 1
@.str.110 = private unnamed_addr constant [6 x i8] c"-vfp3\00", align 1
@.str.111 = private unnamed_addr constant [6 x i8] c"-vfp2\00", align 1
@.str.112 = private unnamed_addr constant [6 x i8] c"+neon\00", align 1
@.str.113 = private unnamed_addr constant [8 x i8] c"+crypto\00", align 1
@.str.114 = private unnamed_addr constant [8 x i8] c"-crypto\00", align 1
@.str.115 = private unnamed_addr constant [6 x i8] c"-neon\00", align 1
@_ZN12_GLOBAL__N_112ARCHExtNamesE = internal constant [22 x %struct.anon.0] [%struct.anon.0 { ptr @.str.83, i64 7, i32 0, ptr null, ptr null }, %struct.anon.0 { ptr @.str.149, i64 4, i32 1, ptr null, ptr null }, %struct.anon.0 { ptr @.str.260, i64 3, i32 2, ptr @.str.88, ptr @.str.89 }, %struct.anon.0 { ptr @.str.261, i64 6, i32 4, ptr @.str.113, ptr @.str.114 }, %struct.anon.0 { ptr @.str.262, i64 4, i32 32768, ptr @.str.263, ptr @.str.264 }, %struct.anon.0 { ptr @.str.265, i64 3, i32 65536, ptr @.str.266, ptr @.str.267 }, %struct.anon.0 { ptr @.str.268, i64 7, i32 16384, ptr @.str.96, ptr @.str.97 }, %struct.anon.0 { ptr @.str.269, i64 3, i32 1024, ptr @.str.90, ptr @.str.91 }, %struct.anon.0 { ptr @.str.270, i64 2, i32 8, ptr null, ptr null }, %struct.anon.0 { ptr @.str.271, i64 4, i32 48, ptr null, ptr null }, %struct.anon.0 { ptr @.str.272, i64 2, i32 64, ptr null, ptr null }, %struct.anon.0 { ptr @.str.273, i64 4, i32 128, ptr null, ptr null }, %struct.anon.0 { ptr @.str.274, i64 3, i32 256, ptr null, ptr null }, %struct.anon.0 { ptr @.str.275, i64 4, i32 512, ptr null, ptr null }, %struct.anon.0 { ptr @.str.276, i64 4, i32 2048, ptr @.str.124, ptr @.str.277 }, %struct.anon.0 { ptr @.str.278, i64 3, i32 4096, ptr @.str.94, ptr @.str.95 }, %struct.anon.0 { ptr @.str.279, i64 2, i32 134217728, ptr null, ptr null }, %struct.anon.0 { ptr @.str.80, i64 6, i32 268435456, ptr null, ptr null }, %struct.anon.0 { ptr @.str.253, i64 7, i32 536870912, ptr null, ptr null }, %struct.anon.0 { ptr @.str.280, i64 8, i32 1073741824, ptr null, ptr null }, %struct.anon.0 { ptr @.str.81, i64 6, i32 -2147483648, ptr null, ptr null }, %struct.anon.0 { ptr @.str.281, i64 7, i32 131072, ptr @.str.92, ptr @.str.93 }], align 16
@.str.116 = private unnamed_addr constant [3 x i8] c"no\00", align 1
@_ZN12_GLOBAL__N_110HWDivNamesE = internal constant [5 x %struct.anon.1] [%struct.anon.1 { ptr @.str.83, i64 7, i32 0 }, %struct.anon.1 { ptr @.str.149, i64 4, i32 1 }, %struct.anon.1 { ptr @.str.138, i64 5, i32 16 }, %struct.anon.1 { ptr @.str.137, i64 3, i32 32 }, %struct.anon.1 { ptr @.str.282, i64 9, i32 48 }], align 16
@_ZN12_GLOBAL__N_18CPUNamesE = internal global [83 x %"struct.(anonymous namespace)::CpuNames"] [%"struct.(anonymous namespace)::CpuNames" { ptr @.str.1, i64 4, i32 1, i8 1, i32 1 }, %"struct.(anonymous namespace)::CpuNames" { ptr @.str.2, i64 4, i32 2, i8 1, i32 1 }, %"struct.(anonymous namespace)::CpuNames" { ptr @.str.3, i64 4, i32 3, i8 1, i32 1 }, %"struct.(anonymous namespace)::CpuNames" { ptr @.str.4, i64 5, i32 4, i8 1, i32 1 }, %"struct.(anonymous namespace)::CpuNames" { ptr @.str.5, i64 4, i32 5, i8 0, i32 1 }, %"struct.(anonymous namespace)::CpuNames" { ptr @.str.6, i64 6, i32 5, i8 0, i32 1 }, %"struct.(anonymous namespace)::CpuNames" { ptr @.str.7, i64 9, i32 5, i8 1, i32 1 }, %"struct.(anonymous namespace)::CpuNames" { ptr @.str.8, i64 12, i32 5, i8 0, i32 1 }, %"struct.(anonymous namespace)::CpuNames" { ptr @.str.9, i64 13, i32 5, i8 0, i32 1 }, %"struct.(anonymous namespace)::CpuNames" { ptr @.str.10, i64 13, i32 5, i8 0, i32 1 }, %"struct.(anonymous namespace)::CpuNames" { ptr @.str.11, i64 8, i32 6, i8 1, i32 1 }, %"struct.(anonymous namespace)::CpuNames" { ptr @.str.12, i64 10, i32 6, i8 0, i32 1 }, %"struct.(anonymous namespace)::CpuNames" { ptr @.str.13, i64 7, i32 6, i8 0, i32 1 }, %"struct.(anonymous namespace)::CpuNames" { ptr @.str.14, i64 7, i32 6, i8 0, i32 1 }, %"struct.(anonymous namespace)::CpuNames" { ptr @.str.15, i64 4, i32 6, i8 0, i32 1 }, %"struct.(anonymous namespace)::CpuNames" { ptr @.str.16, i64 8, i32 6, i8 0, i32 1 }, %"struct.(anonymous namespace)::CpuNames" { ptr @.str.17, i64 6, i32 6, i8 0, i32 1 }, %"struct.(anonymous namespace)::CpuNames" { ptr @.str.18, i64 7, i32 6, i8 0, i32 1 }, %"struct.(anonymous namespace)::CpuNames" { ptr @.str.19, i64 7, i32 6, i8 0, i32 1 }, %"struct.(anonymous namespace)::CpuNames" { ptr @.str.20, i64 7, i32 6, i8 0, i32 1 }, %"struct.(anonymous namespace)::CpuNames" { ptr @.str.21, i64 7, i32 6, i8 0, i32 1 }, %"struct.(anonymous namespace)::CpuNames" { ptr @.str.22, i64 6, i32 6, i8 0, i32 1 }, %"struct.(anonymous namespace)::CpuNames" { ptr @.str.23, i64 9, i32 7, i8 1, i32 1 }, %"struct.(anonymous namespace)::CpuNames" { ptr @.str.24, i64 8, i32 7, i8 0, i32 1 }, %"struct.(anonymous namespace)::CpuNames" { ptr @.str.25, i64 5, i32 8, i8 0, i32 1 }, %"struct.(anonymous namespace)::CpuNames" { ptr @.str.26, i64 9, i32 8, i8 0, i32 1 }, %"struct.(anonymous namespace)::CpuNames" { ptr @.str.27, i64 9, i32 8, i8 0, i32 1 }, %"struct.(anonymous namespace)::CpuNames" { ptr @.str.28, i64 9, i32 8, i8 0, i32 1 }, %"struct.(anonymous namespace)::CpuNames" { ptr @.str.29, i64 6, i32 8, i8 0, i32 1 }, %"struct.(anonymous namespace)::CpuNames" { ptr @.str.30, i64 8, i32 8, i8 0, i32 1 }, %"struct.(anonymous namespace)::CpuNames" { ptr @.str.31, i64 8, i32 8, i8 1, i32 1 }, %"struct.(anonymous namespace)::CpuNames" { ptr @.str.32, i64 10, i32 9, i8 1, i32 1 }, %"struct.(anonymous namespace)::CpuNames" { ptr @.str.33, i64 10, i32 10, i8 0, i32 1 }, %"struct.(anonymous namespace)::CpuNames" { ptr @.str.34, i64 11, i32 10, i8 1, i32 1 }, %"struct.(anonymous namespace)::CpuNames" { ptr @.str.35, i64 11, i32 10, i8 0, i32 1 }, %"struct.(anonymous namespace)::CpuNames" { ptr @.str.36, i64 6, i32 11, i8 1, i32 1 }, %"struct.(anonymous namespace)::CpuNames" { ptr @.str.37, i64 11, i32 11, i8 0, i32 1 }, %"struct.(anonymous namespace)::CpuNames" { ptr @.str.38, i64 11, i32 13, i8 0, i32 1 }, %"struct.(anonymous namespace)::CpuNames" { ptr @.str.39, i64 12, i32 13, i8 1, i32 1 }, %"struct.(anonymous namespace)::CpuNames" { ptr @.str.40, i64 11, i32 12, i8 1, i32 1 }, %"struct.(anonymous namespace)::CpuNames" { ptr @.str.41, i64 12, i32 12, i8 0, i32 1 }, %"struct.(anonymous namespace)::CpuNames" { ptr @.str.42, i64 9, i32 14, i8 1, i32 1 }, %"struct.(anonymous namespace)::CpuNames" { ptr @.str.43, i64 13, i32 14, i8 0, i32 1 }, %"struct.(anonymous namespace)::CpuNames" { ptr @.str.44, i64 9, i32 14, i8 0, i32 1 }, %"struct.(anonymous namespace)::CpuNames" { ptr @.str.45, i64 5, i32 14, i8 0, i32 1 }, %"struct.(anonymous namespace)::CpuNames" { ptr @.str.46, i64 9, i32 15, i8 0, i32 320 }, %"struct.(anonymous namespace)::CpuNames" { ptr @.str.47, i64 9, i32 15, i8 0, i32 880 }, %"struct.(anonymous namespace)::CpuNames" { ptr @.str.48, i64 9, i32 15, i8 0, i32 256 }, %"struct.(anonymous namespace)::CpuNames" { ptr @.str.49, i64 9, i32 15, i8 0, i32 320 }, %"struct.(anonymous namespace)::CpuNames" { ptr @.str.50, i64 10, i32 15, i8 0, i32 880 }, %"struct.(anonymous namespace)::CpuNames" { ptr @.str.51, i64 10, i32 15, i8 0, i32 880 }, %"struct.(anonymous namespace)::CpuNames" { ptr @.str.52, i64 10, i32 15, i8 0, i32 880 }, %"struct.(anonymous namespace)::CpuNames" { ptr @.str.53, i64 5, i32 15, i8 0, i32 48 }, %"struct.(anonymous namespace)::CpuNames" { ptr @.str.54, i64 9, i32 17, i8 1, i32 1 }, %"struct.(anonymous namespace)::CpuNames" { ptr @.str.55, i64 10, i32 17, i8 0, i32 1 }, %"struct.(anonymous namespace)::CpuNames" { ptr @.str.56, i64 9, i32 17, i8 0, i32 96 }, %"struct.(anonymous namespace)::CpuNames" { ptr @.str.57, i64 9, i32 17, i8 0, i32 96 }, %"struct.(anonymous namespace)::CpuNames" { ptr @.str.58, i64 9, i32 17, i8 0, i32 96 }, %"struct.(anonymous namespace)::CpuNames" { ptr @.str.59, i64 10, i32 26, i8 1, i32 1 }, %"struct.(anonymous namespace)::CpuNames" { ptr @.str.60, i64 5, i32 18, i8 0, i32 1 }, %"struct.(anonymous namespace)::CpuNames" { ptr @.str.61, i64 9, i32 18, i8 1, i32 1 }, %"struct.(anonymous namespace)::CpuNames" { ptr @.str.62, i64 9, i32 19, i8 1, i32 1 }, %"struct.(anonymous namespace)::CpuNames" { ptr @.str.63, i64 9, i32 19, i8 0, i32 1 }, %"struct.(anonymous namespace)::CpuNames" { ptr @.str.64, i64 10, i32 27, i8 0, i32 1 }, %"struct.(anonymous namespace)::CpuNames" { ptr @.str.65, i64 10, i32 28, i8 0, i32 1024 }, %"struct.(anonymous namespace)::CpuNames" { ptr @.str.66, i64 10, i32 20, i8 0, i32 2 }, %"struct.(anonymous namespace)::CpuNames" { ptr @.str.67, i64 10, i32 20, i8 0, i32 2 }, %"struct.(anonymous namespace)::CpuNames" { ptr @.str.68, i64 10, i32 20, i8 0, i32 2 }, %"struct.(anonymous namespace)::CpuNames" { ptr @.str.69, i64 10, i32 22, i8 0, i32 18432 }, %"struct.(anonymous namespace)::CpuNames" { ptr @.str.70, i64 10, i32 20, i8 0, i32 2 }, %"struct.(anonymous namespace)::CpuNames" { ptr @.str.71, i64 10, i32 20, i8 0, i32 2 }, %"struct.(anonymous namespace)::CpuNames" { ptr @.str.72, i64 10, i32 20, i8 0, i32 2 }, %"struct.(anonymous namespace)::CpuNames" { ptr @.str.73, i64 10, i32 22, i8 0, i32 18432 }, %"struct.(anonymous namespace)::CpuNames" { ptr @.str.74, i64 7, i32 20, i8 0, i32 2 }, %"struct.(anonymous namespace)::CpuNames" { ptr @.str.75, i64 9, i32 20, i8 0, i32 2 }, %"struct.(anonymous namespace)::CpuNames" { ptr @.str.76, i64 9, i32 20, i8 0, i32 2 }, %"struct.(anonymous namespace)::CpuNames" { ptr @.str.77, i64 9, i32 20, i8 0, i32 2 }, %"struct.(anonymous namespace)::CpuNames" { ptr @.str.78, i64 9, i32 20, i8 0, i32 2 }, %"struct.(anonymous namespace)::CpuNames" { ptr @.str.79, i64 4, i32 20, i8 0, i32 2 }, %"struct.(anonymous namespace)::CpuNames" { ptr @.str.80, i64 6, i32 29, i8 1, i32 1 }, %"struct.(anonymous namespace)::CpuNames" { ptr @.str.81, i64 6, i32 31, i8 1, i32 1 }, %"struct.(anonymous namespace)::CpuNames" { ptr @.str.82, i64 5, i32 32, i8 1, i32 48 }, %"struct.(anonymous namespace)::CpuNames" { ptr @.str.83, i64 7, i32 0, i8 1, i32 0 }], align 16
@_ZN12_GLOBAL__N_116AArch64ARCHNamesE = internal global [7 x %"struct.(anonymous namespace)::ArchNames.2"] [%"struct.(anonymous namespace)::ArchNames.2" { ptr @.str.83, i64 7, ptr @.str.135, i64 0, ptr @.str.135, i64 0, i32 1, i32 1, i32 0, i32 14 }, %"struct.(anonymous namespace)::ArchNames.2" { ptr @.str.226, i64 7, ptr @.str.227, i64 3, ptr @.str.228, i64 2, i32 20, i32 28, i32 1, i32 14 }, %"struct.(anonymous namespace)::ArchNames.2" { ptr @.str.229, i64 9, ptr @.str.230, i64 5, ptr @.str.231, i64 5, i32 20, i32 4382, i32 2, i32 14 }, %"struct.(anonymous namespace)::ArchNames.2" { ptr @.str.232, i64 9, ptr @.str.233, i64 5, ptr @.str.234, i64 5, i32 20, i32 4510, i32 3, i32 14 }, %"struct.(anonymous namespace)::ArchNames.2" { ptr @.str.235, i64 9, ptr @.str.236, i64 5, ptr @.str.237, i64 5, i32 20, i32 6558, i32 4, i32 14 }, %"struct.(anonymous namespace)::ArchNames.2" { ptr @.str.238, i64 9, ptr @.str.239, i64 5, ptr @.str.240, i64 5, i32 20, i32 7582, i32 5, i32 14 }, %"struct.(anonymous namespace)::ArchNames.2" { ptr @.str.241, i64 9, ptr @.str.242, i64 5, ptr @.str.243, i64 5, i32 20, i32 7582, i32 6, i32 14 }], align 16
@.str.117 = private unnamed_addr constant [7 x i8] c"falkor\00", align 1
@.str.118 = private unnamed_addr constant [8 x i8] c"saphira\00", align 1
@.str.119 = private unnamed_addr constant [13 x i8] c"thunderx2t99\00", align 1
@.str.120 = private unnamed_addr constant [9 x i8] c"thunderx\00", align 1
@.str.121 = private unnamed_addr constant [12 x i8] c"thunderxt88\00", align 1
@.str.122 = private unnamed_addr constant [12 x i8] c"thunderxt81\00", align 1
@.str.123 = private unnamed_addr constant [12 x i8] c"thunderxt83\00", align 1
@.str.124 = private unnamed_addr constant [10 x i8] c"+fullfp16\00", align 1
@.str.125 = private unnamed_addr constant [5 x i8] c"+spe\00", align 1
@.str.126 = private unnamed_addr constant [5 x i8] c"+lse\00", align 1
@.str.127 = private unnamed_addr constant [5 x i8] c"+rdm\00", align 1
@.str.128 = private unnamed_addr constant [5 x i8] c"+sve\00", align 1
@.str.129 = private unnamed_addr constant [6 x i8] c"+rcpc\00", align 1
@.str.130 = private unnamed_addr constant [7 x i8] c"+v8.1a\00", align 1
@.str.131 = private unnamed_addr constant [7 x i8] c"+v8.2a\00", align 1
@.str.132 = private unnamed_addr constant [7 x i8] c"+v8.3a\00", align 1
@.str.133 = private unnamed_addr constant [7 x i8] c"+v8.4a\00", align 1
@.str.134 = private unnamed_addr constant [7 x i8] c"+v8.5a\00", align 1
@_ZN12_GLOBAL__N_119AArch64ARCHExtNamesE = internal constant [21 x %struct.anon.0] [%struct.anon.0 { ptr @.str.83, i64 7, i32 0, ptr null, ptr null }, %struct.anon.0 { ptr @.str.149, i64 4, i32 1, ptr null, ptr null }, %struct.anon.0 { ptr @.str.260, i64 3, i32 2, ptr @.str.88, ptr @.str.89 }, %struct.anon.0 { ptr @.str.283, i64 3, i32 256, ptr @.str.126, ptr @.str.284 }, %struct.anon.0 { ptr @.str.285, i64 3, i32 4096, ptr @.str.127, ptr @.str.286 }, %struct.anon.0 { ptr @.str.261, i64 6, i32 4, ptr @.str.113, ptr @.str.114 }, %struct.anon.0 { ptr @.str.287, i64 3, i32 8192, ptr @.str.288, ptr @.str.289 }, %struct.anon.0 { ptr @.str.290, i64 4, i32 16384, ptr @.str.291, ptr @.str.292 }, %struct.anon.0 { ptr @.str.262, i64 4, i32 32768, ptr @.str.263, ptr @.str.264 }, %struct.anon.0 { ptr @.str.265, i64 3, i32 65536, ptr @.str.266, ptr @.str.267 }, %struct.anon.0 { ptr @.str.268, i64 7, i32 1024, ptr @.str.96, ptr @.str.97 }, %struct.anon.0 { ptr @.str.270, i64 2, i32 8, ptr @.str.102, ptr @.str.104 }, %struct.anon.0 { ptr @.str.273, i64 4, i32 16, ptr @.str.112, ptr @.str.115 }, %struct.anon.0 { ptr @.str.276, i64 4, i32 32, ptr @.str.124, ptr @.str.277 }, %struct.anon.0 { ptr @.str.281, i64 7, i32 131072, ptr @.str.92, ptr @.str.93 }, %struct.anon.0 { ptr @.str.293, i64 7, i32 64, ptr @.str.125, ptr @.str.294 }, %struct.anon.0 { ptr @.str.278, i64 3, i32 128, ptr @.str.94, ptr @.str.95 }, %struct.anon.0 { ptr @.str.295, i64 3, i32 512, ptr @.str.128, ptr @.str.296 }, %struct.anon.0 { ptr @.str.297, i64 4, i32 2048, ptr @.str.129, ptr @.str.298 }, %struct.anon.0 { ptr @.str.299, i64 3, i32 262144, ptr @.str.300, ptr @.str.301 }, %struct.anon.0 { ptr @.str.302, i64 6, i32 524288, ptr @.str.303, ptr @.str.304 }], align 16
@_ZN12_GLOBAL__N_115AArch64CPUNamesE = internal global [21 x %"struct.(anonymous namespace)::CpuNames.8"] [%"struct.(anonymous namespace)::CpuNames.8" { ptr @.str.67, i64 10, i32 1, i8 0, i32 2 }, %"struct.(anonymous namespace)::CpuNames.8" { ptr @.str.68, i64 10, i32 1, i8 1, i32 2 }, %"struct.(anonymous namespace)::CpuNames.8" { ptr @.str.69, i64 10, i32 3, i8 0, i32 3104 }, %"struct.(anonymous namespace)::CpuNames.8" { ptr @.str.70, i64 10, i32 1, i8 0, i32 2 }, %"struct.(anonymous namespace)::CpuNames.8" { ptr @.str.71, i64 10, i32 1, i8 0, i32 2 }, %"struct.(anonymous namespace)::CpuNames.8" { ptr @.str.72, i64 10, i32 1, i8 0, i32 2 }, %"struct.(anonymous namespace)::CpuNames.8" { ptr @.str.73, i64 10, i32 3, i8 0, i32 3104 }, %"struct.(anonymous namespace)::CpuNames.8" { ptr @.str.74, i64 7, i32 1, i8 0, i32 1 }, %"struct.(anonymous namespace)::CpuNames.8" { ptr @.str.75, i64 9, i32 1, i8 0, i32 2 }, %"struct.(anonymous namespace)::CpuNames.8" { ptr @.str.76, i64 9, i32 1, i8 0, i32 2 }, %"struct.(anonymous namespace)::CpuNames.8" { ptr @.str.77, i64 9, i32 1, i8 0, i32 2 }, %"struct.(anonymous namespace)::CpuNames.8" { ptr @.str.78, i64 9, i32 1, i8 0, i32 2 }, %"struct.(anonymous namespace)::CpuNames.8" { ptr @.str.117, i64 6, i32 1, i8 0, i32 4098 }, %"struct.(anonymous namespace)::CpuNames.8" { ptr @.str.118, i64 7, i32 4, i8 0, i32 64 }, %"struct.(anonymous namespace)::CpuNames.8" { ptr @.str.79, i64 4, i32 1, i8 0, i32 2 }, %"struct.(anonymous namespace)::CpuNames.8" { ptr @.str.119, i64 12, i32 2, i8 0, i32 1 }, %"struct.(anonymous namespace)::CpuNames.8" { ptr @.str.120, i64 8, i32 1, i8 0, i32 66 }, %"struct.(anonymous namespace)::CpuNames.8" { ptr @.str.121, i64 11, i32 1, i8 0, i32 66 }, %"struct.(anonymous namespace)::CpuNames.8" { ptr @.str.122, i64 11, i32 1, i8 0, i32 66 }, %"struct.(anonymous namespace)::CpuNames.8" { ptr @.str.123, i64 11, i32 1, i8 0, i32 66 }, %"struct.(anonymous namespace)::CpuNames.8" { ptr @.str.83, i64 7, i32 0, i8 1, i32 0 }], align 16
@.str.135 = private unnamed_addr constant [1 x i8] zeroinitializer, align 1
@.str.136 = private unnamed_addr constant [6 x i8] c"arm64\00", align 1
@.str.137 = private unnamed_addr constant [4 x i8] c"arm\00", align 1
@.str.138 = private unnamed_addr constant [6 x i8] c"thumb\00", align 1
@.str.139 = private unnamed_addr constant [8 x i8] c"aarch64\00", align 1
@.str.140 = private unnamed_addr constant [3 x i8] c"eb\00", align 1
@.str.141 = private unnamed_addr constant [4 x i8] c"_be\00", align 1
@.str.142 = private unnamed_addr constant [6 x i8] c"armeb\00", align 1
@.str.143 = private unnamed_addr constant [8 x i8] c"thumbeb\00", align 1
@.str.144 = private unnamed_addr constant [11 x i8] c"aarch64_be\00", align 1
@.str.145 = private unnamed_addr constant [6 x i8] c"aapcs\00", align 1
@.str.146 = private unnamed_addr constant [8 x i8] c"aapcs16\00", align 1
@.str.147 = private unnamed_addr constant [9 x i8] c"apcs-gnu\00", align 1
@.str.148 = private unnamed_addr constant [12 x i8] c"aapcs-linux\00", align 1
@.str.149 = private unnamed_addr constant [5 x i8] c"none\00", align 1
@.str.150 = private unnamed_addr constant [4 x i8] c"vfp\00", align 1
@.str.151 = private unnamed_addr constant [6 x i8] c"vfpv2\00", align 1
@.str.152 = private unnamed_addr constant [6 x i8] c"vfpv3\00", align 1
@.str.153 = private unnamed_addr constant [11 x i8] c"vfpv3-fp16\00", align 1
@.str.154 = private unnamed_addr constant [10 x i8] c"vfpv3-d16\00", align 1
@.str.155 = private unnamed_addr constant [15 x i8] c"vfpv3-d16-fp16\00", align 1
@.str.156 = private unnamed_addr constant [8 x i8] c"vfpv3xd\00", align 1
@.str.157 = private unnamed_addr constant [13 x i8] c"vfpv3xd-fp16\00", align 1
@.str.158 = private unnamed_addr constant [6 x i8] c"vfpv4\00", align 1
@.str.159 = private unnamed_addr constant [10 x i8] c"vfpv4-d16\00", align 1
@.str.160 = private unnamed_addr constant [12 x i8] c"fpv4-sp-d16\00", align 1
@.str.161 = private unnamed_addr constant [9 x i8] c"fpv5-d16\00", align 1
@.str.162 = private unnamed_addr constant [12 x i8] c"fpv5-sp-d16\00", align 1
@.str.163 = private unnamed_addr constant [9 x i8] c"fp-armv8\00", align 1
@.str.164 = private unnamed_addr constant [5 x i8] c"neon\00", align 1
@.str.165 = private unnamed_addr constant [10 x i8] c"neon-fp16\00", align 1
@.str.166 = private unnamed_addr constant [11 x i8] c"neon-vfpv4\00", align 1
@.str.167 = private unnamed_addr constant [14 x i8] c"neon-fp-armv8\00", align 1
@.str.168 = private unnamed_addr constant [21 x i8] c"crypto-neon-fp-armv8\00", align 1
@.str.169 = private unnamed_addr constant [8 x i8] c"softvfp\00", align 1
@.str.170 = private unnamed_addr constant [6 x i8] c"armv2\00", align 1
@.str.171 = private unnamed_addr constant [2 x i8] c"2\00", align 1
@.str.172 = private unnamed_addr constant [3 x i8] c"v2\00", align 1
@.str.173 = private unnamed_addr constant [7 x i8] c"armv2a\00", align 1
@.str.174 = private unnamed_addr constant [3 x i8] c"2A\00", align 1
@.str.175 = private unnamed_addr constant [4 x i8] c"v2a\00", align 1
@.str.176 = private unnamed_addr constant [6 x i8] c"armv3\00", align 1
@.str.177 = private unnamed_addr constant [2 x i8] c"3\00", align 1
@.str.178 = private unnamed_addr constant [3 x i8] c"v3\00", align 1
@.str.179 = private unnamed_addr constant [7 x i8] c"armv3m\00", align 1
@.str.180 = private unnamed_addr constant [3 x i8] c"3M\00", align 1
@.str.181 = private unnamed_addr constant [4 x i8] c"v3m\00", align 1
@.str.182 = private unnamed_addr constant [6 x i8] c"armv4\00", align 1
@.str.183 = private unnamed_addr constant [2 x i8] c"4\00", align 1
@.str.184 = private unnamed_addr constant [3 x i8] c"v4\00", align 1
@.str.185 = private unnamed_addr constant [7 x i8] c"armv4t\00", align 1
@.str.186 = private unnamed_addr constant [3 x i8] c"4T\00", align 1
@.str.187 = private unnamed_addr constant [4 x i8] c"v4t\00", align 1
@.str.188 = private unnamed_addr constant [7 x i8] c"armv5t\00", align 1
@.str.189 = private unnamed_addr constant [3 x i8] c"5T\00", align 1
@.str.190 = private unnamed_addr constant [3 x i8] c"v5\00", align 1
@.str.191 = private unnamed_addr constant [8 x i8] c"armv5te\00", align 1
@.str.192 = private unnamed_addr constant [4 x i8] c"5TE\00", align 1
@.str.193 = private unnamed_addr constant [4 x i8] c"v5e\00", align 1
@.str.194 = private unnamed_addr constant [9 x i8] c"armv5tej\00", align 1
@.str.195 = private unnamed_addr constant [5 x i8] c"5TEJ\00", align 1
@.str.196 = private unnamed_addr constant [6 x i8] c"armv6\00", align 1
@.str.197 = private unnamed_addr constant [2 x i8] c"6\00", align 1
@.str.198 = private unnamed_addr constant [3 x i8] c"v6\00", align 1
@.str.199 = private unnamed_addr constant [7 x i8] c"armv6k\00", align 1
@.str.200 = private unnamed_addr constant [3 x i8] c"6K\00", align 1
@.str.201 = private unnamed_addr constant [4 x i8] c"v6k\00", align 1
@.str.202 = private unnamed_addr constant [8 x i8] c"armv6t2\00", align 1
@.str.203 = private unnamed_addr constant [4 x i8] c"6T2\00", align 1
@.str.204 = private unnamed_addr constant [5 x i8] c"v6t2\00", align 1
@.str.205 = private unnamed_addr constant [8 x i8] c"armv6kz\00", align 1
@.str.206 = private unnamed_addr constant [4 x i8] c"6KZ\00", align 1
@.str.207 = private unnamed_addr constant [5 x i8] c"v6kz\00", align 1
@.str.208 = private unnamed_addr constant [8 x i8] c"armv6-m\00", align 1
@.str.209 = private unnamed_addr constant [4 x i8] c"6-M\00", align 1
@.str.210 = private unnamed_addr constant [4 x i8] c"v6m\00", align 1
@.str.211 = private unnamed_addr constant [8 x i8] c"armv7-a\00", align 1
@.str.212 = private unnamed_addr constant [4 x i8] c"7-A\00", align 1
@.str.213 = private unnamed_addr constant [3 x i8] c"v7\00", align 1
@.str.214 = private unnamed_addr constant [8 x i8] c"armv7ve\00", align 1
@.str.215 = private unnamed_addr constant [4 x i8] c"7VE\00", align 1
@.str.216 = private unnamed_addr constant [5 x i8] c"v7ve\00", align 1
@.str.217 = private unnamed_addr constant [8 x i8] c"armv7-r\00", align 1
@.str.218 = private unnamed_addr constant [4 x i8] c"7-R\00", align 1
@.str.219 = private unnamed_addr constant [4 x i8] c"v7r\00", align 1
@.str.220 = private unnamed_addr constant [8 x i8] c"armv7-m\00", align 1
@.str.221 = private unnamed_addr constant [4 x i8] c"7-M\00", align 1
@.str.222 = private unnamed_addr constant [4 x i8] c"v7m\00", align 1
@.str.223 = private unnamed_addr constant [9 x i8] c"armv7e-m\00", align 1
@.str.224 = private unnamed_addr constant [5 x i8] c"7E-M\00", align 1
@.str.225 = private unnamed_addr constant [5 x i8] c"v7em\00", align 1
@.str.226 = private unnamed_addr constant [8 x i8] c"armv8-a\00", align 1
@.str.227 = private unnamed_addr constant [4 x i8] c"8-A\00", align 1
@.str.228 = private unnamed_addr constant [3 x i8] c"v8\00", align 1
@.str.229 = private unnamed_addr constant [10 x i8] c"armv8.1-a\00", align 1
@.str.230 = private unnamed_addr constant [6 x i8] c"8.1-A\00", align 1
@.str.231 = private unnamed_addr constant [6 x i8] c"v8.1a\00", align 1
@.str.232 = private unnamed_addr constant [10 x i8] c"armv8.2-a\00", align 1
@.str.233 = private unnamed_addr constant [6 x i8] c"8.2-A\00", align 1
@.str.234 = private unnamed_addr constant [6 x i8] c"v8.2a\00", align 1
@.str.235 = private unnamed_addr constant [10 x i8] c"armv8.3-a\00", align 1
@.str.236 = private unnamed_addr constant [6 x i8] c"8.3-A\00", align 1
@.str.237 = private unnamed_addr constant [6 x i8] c"v8.3a\00", align 1
@.str.238 = private unnamed_addr constant [10 x i8] c"armv8.4-a\00", align 1
@.str.239 = private unnamed_addr constant [6 x i8] c"8.4-A\00", align 1
@.str.240 = private unnamed_addr constant [6 x i8] c"v8.4a\00", align 1
@.str.241 = private unnamed_addr constant [10 x i8] c"armv8.5-a\00", align 1
@.str.242 = private unnamed_addr constant [6 x i8] c"8.5-A\00", align 1
@.str.243 = private unnamed_addr constant [6 x i8] c"v8.5a\00", align 1
@.str.244 = private unnamed_addr constant [8 x i8] c"armv8-r\00", align 1
@.str.245 = private unnamed_addr constant [4 x i8] c"8-R\00", align 1
@.str.246 = private unnamed_addr constant [4 x i8] c"v8r\00", align 1
@.str.247 = private unnamed_addr constant [13 x i8] c"armv8-m.base\00", align 1
@.str.248 = private unnamed_addr constant [13 x i8] c"8-M.Baseline\00", align 1
@.str.249 = private unnamed_addr constant [9 x i8] c"v8m.base\00", align 1
@.str.250 = private unnamed_addr constant [13 x i8] c"armv8-m.main\00", align 1
@.str.251 = private unnamed_addr constant [13 x i8] c"8-M.Mainline\00", align 1
@.str.252 = private unnamed_addr constant [9 x i8] c"v8m.main\00", align 1
@.str.253 = private unnamed_addr constant [8 x i8] c"iwmmxt2\00", align 1
@.str.254 = private unnamed_addr constant [7 x i8] c"armv7s\00", align 1
@.str.255 = private unnamed_addr constant [4 x i8] c"7-S\00", align 1
@.str.256 = private unnamed_addr constant [4 x i8] c"v7s\00", align 1
@.str.257 = private unnamed_addr constant [7 x i8] c"armv7k\00", align 1
@.str.258 = private unnamed_addr constant [4 x i8] c"7-K\00", align 1
@.str.259 = private unnamed_addr constant [4 x i8] c"v7k\00", align 1
@.str.260 = private unnamed_addr constant [4 x i8] c"crc\00", align 1
@.str.261 = private unnamed_addr constant [7 x i8] c"crypto\00", align 1
@.str.262 = private unnamed_addr constant [5 x i8] c"sha2\00", align 1
@.str.263 = private unnamed_addr constant [6 x i8] c"+sha2\00", align 1
@.str.264 = private unnamed_addr constant [6 x i8] c"-sha2\00", align 1
@.str.265 = private unnamed_addr constant [4 x i8] c"aes\00", align 1
@.str.266 = private unnamed_addr constant [5 x i8] c"+aes\00", align 1
@.str.267 = private unnamed_addr constant [5 x i8] c"-aes\00", align 1
@.str.268 = private unnamed_addr constant [8 x i8] c"dotprod\00", align 1
@.str.269 = private unnamed_addr constant [4 x i8] c"dsp\00", align 1
@.str.270 = private unnamed_addr constant [3 x i8] c"fp\00", align 1
@.str.271 = private unnamed_addr constant [5 x i8] c"idiv\00", align 1
@.str.272 = private unnamed_addr constant [3 x i8] c"mp\00", align 1
@.str.273 = private unnamed_addr constant [5 x i8] c"simd\00", align 1
@.str.274 = private unnamed_addr constant [4 x i8] c"sec\00", align 1
@.str.275 = private unnamed_addr constant [5 x i8] c"virt\00", align 1
@.str.276 = private unnamed_addr constant [5 x i8] c"fp16\00", align 1
@.str.277 = private unnamed_addr constant [10 x i8] c"-fullfp16\00", align 1
@.str.278 = private unnamed_addr constant [4 x i8] c"ras\00", align 1
@.str.279 = private unnamed_addr constant [3 x i8] c"os\00", align 1
@.str.280 = private unnamed_addr constant [9 x i8] c"maverick\00", align 1
@.str.281 = private unnamed_addr constant [8 x i8] c"fp16fml\00", align 1
@.str.282 = private unnamed_addr constant [10 x i8] c"arm,thumb\00", align 1
@.str.283 = private unnamed_addr constant [4 x i8] c"lse\00", align 1
@.str.284 = private unnamed_addr constant [5 x i8] c"-lse\00", align 1
@.str.285 = private unnamed_addr constant [4 x i8] c"rdm\00", align 1
@.str.286 = private unnamed_addr constant [5 x i8] c"-rdm\00", align 1
@.str.287 = private unnamed_addr constant [4 x i8] c"sm4\00", align 1
@.str.288 = private unnamed_addr constant [5 x i8] c"+sm4\00", align 1
@.str.289 = private unnamed_addr constant [5 x i8] c"-sm4\00", align 1
@.str.290 = private unnamed_addr constant [5 x i8] c"sha3\00", align 1
@.str.291 = private unnamed_addr constant [6 x i8] c"+sha3\00", align 1
@.str.292 = private unnamed_addr constant [6 x i8] c"-sha3\00", align 1
@.str.293 = private unnamed_addr constant [8 x i8] c"profile\00", align 1
@.str.294 = private unnamed_addr constant [5 x i8] c"-spe\00", align 1
@.str.295 = private unnamed_addr constant [4 x i8] c"sve\00", align 1
@.str.296 = private unnamed_addr constant [5 x i8] c"-sve\00", align 1
@.str.297 = private unnamed_addr constant [5 x i8] c"rcpc\00", align 1
@.str.298 = private unnamed_addr constant [6 x i8] c"-rcpc\00", align 1
@.str.299 = private unnamed_addr constant [4 x i8] c"rng\00", align 1
@.str.300 = private unnamed_addr constant [6 x i8] c"+rand\00", align 1
@.str.301 = private unnamed_addr constant [6 x i8] c"-rand\00", align 1
@.str.302 = private unnamed_addr constant [7 x i8] c"memtag\00", align 1
@.str.303 = private unnamed_addr constant [5 x i8] c"+mte\00", align 1
@.str.304 = private unnamed_addr constant [5 x i8] c"-mte\00", align 1
@.str.305 = private unnamed_addr constant [10 x i8] c"thumb,arm\00", align 1
@.str.306 = private unnamed_addr constant [4 x i8] c"fpa\00", align 1
@.str.307 = private unnamed_addr constant [5 x i8] c"fpe2\00", align 1
@.str.308 = private unnamed_addr constant [5 x i8] c"fpe3\00", align 1
@.str.309 = private unnamed_addr constant [5 x i8] c"vfp2\00", align 1
@.str.310 = private unnamed_addr constant [5 x i8] c"vfp3\00", align 1
@.str.311 = private unnamed_addr constant [5 x i8] c"vfp4\00", align 1
@.str.312 = private unnamed_addr constant [9 x i8] c"vfp3-d16\00", align 1
@.str.313 = private unnamed_addr constant [9 x i8] c"vfp4-d16\00", align 1
@.str.314 = private unnamed_addr constant [11 x i8] c"fp4-sp-d16\00", align 1
@.str.315 = private unnamed_addr constant [13 x i8] c"vfpv4-sp-d16\00", align 1
@.str.316 = private unnamed_addr constant [11 x i8] c"fp4-dp-d16\00", align 1
@.str.317 = private unnamed_addr constant [12 x i8] c"fpv4-dp-d16\00", align 1
@.str.318 = private unnamed_addr constant [11 x i8] c"fp5-sp-d16\00", align 1
@.str.319 = private unnamed_addr constant [11 x i8] c"fp5-dp-d16\00", align 1
@.str.320 = private unnamed_addr constant [12 x i8] c"fpv5-dp-d16\00", align 1
@.str.321 = private unnamed_addr constant [11 x i8] c"neon-vfpv3\00", align 1
@.str.322 = private unnamed_addr constant [4 x i8] c"v5t\00", align 1
@.str.323 = private unnamed_addr constant [5 x i8] c"v5te\00", align 1
@.str.324 = private unnamed_addr constant [4 x i8] c"v6j\00", align 1
@.str.325 = private unnamed_addr constant [5 x i8] c"v6hl\00", align 1
@.str.326 = private unnamed_addr constant [5 x i8] c"v6sm\00", align 1
@.str.327 = private unnamed_addr constant [6 x i8] c"v6s-m\00", align 1
@.str.328 = private unnamed_addr constant [5 x i8] c"v6-m\00", align 1
@.str.329 = private unnamed_addr constant [4 x i8] c"v6z\00", align 1
@.str.330 = private unnamed_addr constant [5 x i8] c"v6zk\00", align 1
@.str.331 = private unnamed_addr constant [4 x i8] c"v7a\00", align 1
@.str.332 = private unnamed_addr constant [5 x i8] c"v7hl\00", align 1
@.str.333 = private unnamed_addr constant [4 x i8] c"v7l\00", align 1
@.str.334 = private unnamed_addr constant [5 x i8] c"v7-a\00", align 1
@.str.335 = private unnamed_addr constant [5 x i8] c"v7-r\00", align 1
@.str.336 = private unnamed_addr constant [5 x i8] c"v7-m\00", align 1
@.str.337 = private unnamed_addr constant [6 x i8] c"v7e-m\00", align 1
@.str.338 = private unnamed_addr constant [4 x i8] c"v8a\00", align 1
@.str.339 = private unnamed_addr constant [4 x i8] c"v8l\00", align 1
@.str.340 = private unnamed_addr constant [5 x i8] c"v8-a\00", align 1
@.str.341 = private unnamed_addr constant [7 x i8] c"v8.1-a\00", align 1
@.str.342 = private unnamed_addr constant [7 x i8] c"v8.2-a\00", align 1
@.str.343 = private unnamed_addr constant [7 x i8] c"v8.3-a\00", align 1
@.str.344 = private unnamed_addr constant [7 x i8] c"v8.4-a\00", align 1
@.str.345 = private unnamed_addr constant [7 x i8] c"v8.5-a\00", align 1
@.str.346 = private unnamed_addr constant [5 x i8] c"v8-r\00", align 1
@.str.347 = private unnamed_addr constant [10 x i8] c"v8-m.base\00", align 1
@.str.348 = private unnamed_addr constant [10 x i8] c"v8-m.main\00", align 1
@.str.349 = private unnamed_addr constant [7 x i8] c"gfx600\00", align 1
@.str.350 = private unnamed_addr constant [7 x i8] c"tahiti\00", align 1
@.str.351 = private unnamed_addr constant [7 x i8] c"gfx601\00", align 1
@.str.352 = private unnamed_addr constant [7 x i8] c"hainan\00", align 1
@.str.353 = private unnamed_addr constant [6 x i8] c"oland\00", align 1
@.str.354 = private unnamed_addr constant [9 x i8] c"pitcairn\00", align 1
@.str.355 = private unnamed_addr constant [6 x i8] c"verde\00", align 1
@.str.356 = private unnamed_addr constant [7 x i8] c"gfx700\00", align 1
@.str.357 = private unnamed_addr constant [7 x i8] c"kaveri\00", align 1
@.str.358 = private unnamed_addr constant [7 x i8] c"gfx701\00", align 1
@.str.359 = private unnamed_addr constant [7 x i8] c"hawaii\00", align 1
@.str.360 = private unnamed_addr constant [7 x i8] c"gfx702\00", align 1
@.str.361 = private unnamed_addr constant [7 x i8] c"gfx703\00", align 1
@.str.362 = private unnamed_addr constant [7 x i8] c"kabini\00", align 1
@.str.363 = private unnamed_addr constant [8 x i8] c"mullins\00", align 1
@.str.364 = private unnamed_addr constant [7 x i8] c"gfx704\00", align 1
@.str.365 = private unnamed_addr constant [8 x i8] c"bonaire\00", align 1
@.str.366 = private unnamed_addr constant [7 x i8] c"gfx801\00", align 1
@.str.367 = private unnamed_addr constant [8 x i8] c"carrizo\00", align 1
@.str.368 = private unnamed_addr constant [7 x i8] c"gfx802\00", align 1
@.str.369 = private unnamed_addr constant [8 x i8] c"iceland\00", align 1
@.str.370 = private unnamed_addr constant [6 x i8] c"tonga\00", align 1
@.str.371 = private unnamed_addr constant [7 x i8] c"gfx803\00", align 1
@.str.372 = private unnamed_addr constant [5 x i8] c"fiji\00", align 1
@.str.373 = private unnamed_addr constant [10 x i8] c"polaris10\00", align 1
@.str.374 = private unnamed_addr constant [10 x i8] c"polaris11\00", align 1
@.str.375 = private unnamed_addr constant [7 x i8] c"gfx810\00", align 1
@.str.376 = private unnamed_addr constant [7 x i8] c"stoney\00", align 1
@.str.377 = private unnamed_addr constant [7 x i8] c"gfx900\00", align 1
@.str.378 = private unnamed_addr constant [7 x i8] c"gfx902\00", align 1
@.str.379 = private unnamed_addr constant [7 x i8] c"gfx904\00", align 1
@.str.380 = private unnamed_addr constant [7 x i8] c"gfx906\00", align 1
@_ZN12_GLOBAL__N_110AMDGCNGPUsE = internal constant [32 x { { ptr, i64 }, { ptr, i64 }, i32, i32 }] [{ { ptr, i64 }, { ptr, i64 }, i32, i32 } { { ptr, i64 } { ptr @.str.349, i64 6 }, { ptr, i64 } { ptr @.str.349, i64 6 }, i32 32, i32 16 }, { { ptr, i64 }, { ptr, i64 }, i32, i32 } { { ptr, i64 } { ptr @.str.350, i64 6 }, { ptr, i64 } { ptr @.str.349, i64 6 }, i32 32, i32 16 }, { { ptr, i64 }, { ptr, i64 }, i32, i32 } { { ptr, i64 } { ptr @.str.351, i64 6 }, { ptr, i64 } { ptr @.str.351, i64 6 }, i32 33, i32 0 }, { { ptr, i64 }, { ptr, i64 }, i32, i32 } { { ptr, i64 } { ptr @.str.352, i64 6 }, { ptr, i64 } { ptr @.str.351, i64 6 }, i32 33, i32 0 }, { { ptr, i64 }, { ptr, i64 }, i32, i32 } { { ptr, i64 } { ptr @.str.353, i64 5 }, { ptr, i64 } { ptr @.str.351, i64 6 }, i32 33, i32 0 }, { { ptr, i64 }, { ptr, i64 }, i32, i32 } { { ptr, i64 } { ptr @.str.354, i64 8 }, { ptr, i64 } { ptr @.str.351, i64 6 }, i32 33, i32 0 }, { { ptr, i64 }, { ptr, i64 }, i32, i32 } { { ptr, i64 } { ptr @.str.355, i64 5 }, { ptr, i64 } { ptr @.str.351, i64 6 }, i32 33, i32 0 }, { { ptr, i64 }, { ptr, i64 }, i32, i32 } { { ptr, i64 } { ptr @.str.356, i64 6 }, { ptr, i64 } { ptr @.str.356, i64 6 }, i32 40, i32 0 }, { { ptr, i64 }, { ptr, i64 }, i32, i32 } { { ptr, i64 } { ptr @.str.357, i64 6 }, { ptr, i64 } { ptr @.str.356, i64 6 }, i32 40, i32 0 }, { { ptr, i64 }, { ptr, i64 }, i32, i32 } { { ptr, i64 } { ptr @.str.358, i64 6 }, { ptr, i64 } { ptr @.str.358, i64 6 }, i32 41, i32 16 }, { { ptr, i64 }, { ptr, i64 }, i32, i32 } { { ptr, i64 } { ptr @.str.359, i64 6 }, { ptr, i64 } { ptr @.str.358, i64 6 }, i32 41, i32 16 }, { { ptr, i64 }, { ptr, i64 }, i32, i32 } { { ptr, i64 } { ptr @.str.360, i64 6 }, { ptr, i64 } { ptr @.str.360, i64 6 }, i32 42, i32 16 }, { { ptr, i64 }, { ptr, i64 }, i32, i32 } { { ptr, i64 } { ptr @.str.361, i64 6 }, { ptr, i64 } { ptr @.str.361, i64 6 }, i32 43, i32 0 }, { { ptr, i64 }, { ptr, i64 }, i32, i32 } { { ptr, i64 } { ptr @.str.362, i64 6 }, { ptr, i64 } { ptr @.str.361, i64 6 }, i32 43, i32 0 }, { { ptr, i64 }, { ptr, i64 }, i32, i32 } { { ptr, i64 } { ptr @.str.363, i64 7 }, { ptr, i64 } { ptr @.str.361, i64 6 }, i32 43, i32 0 }, { { ptr, i64 }, { ptr, i64 }, i32, i32 } { { ptr, i64 } { ptr @.str.364, i64 6 }, { ptr, i64 } { ptr @.str.364, i64 6 }, i32 44, i32 0 }, { { ptr, i64 }, { ptr, i64 }, i32, i32 } { { ptr, i64 } { ptr @.str.365, i64 7 }, { ptr, i64 } { ptr @.str.364, i64 6 }, i32 44, i32 0 }, { { ptr, i64 }, { ptr, i64 }, i32, i32 } { { ptr, i64 } { ptr @.str.366, i64 6 }, { ptr, i64 } { ptr @.str.366, i64 6 }, i32 50, i32 48 }, { { ptr, i64 }, { ptr, i64 }, i32, i32 } { { ptr, i64 } { ptr @.str.367, i64 7 }, { ptr, i64 } { ptr @.str.366, i64 6 }, i32 50, i32 48 }, { { ptr, i64 }, { ptr, i64 }, i32, i32 } { { ptr, i64 } { ptr @.str.368, i64 6 }, { ptr, i64 } { ptr @.str.368, i64 6 }, i32 51, i32 32 }, { { ptr, i64 }, { ptr, i64 }, i32, i32 } { { ptr, i64 } { ptr @.str.369, i64 7 }, { ptr, i64 } { ptr @.str.368, i64 6 }, i32 51, i32 32 }, { { ptr, i64 }, { ptr, i64 }, i32, i32 } { { ptr, i64 } { ptr @.str.370, i64 5 }, { ptr, i64 } { ptr @.str.368, i64 6 }, i32 51, i32 32 }, { { ptr, i64 }, { ptr, i64 }, i32, i32 } { { ptr, i64 } { ptr @.str.371, i64 6 }, { ptr, i64 } { ptr @.str.371, i64 6 }, i32 52, i32 32 }, { { ptr, i64 }, { ptr, i64 }, i32, i32 } { { ptr, i64 } { ptr @.str.372, i64 4 }, { ptr, i64 } { ptr @.str.371, i64 6 }, i32 52, i32 32 }, { { ptr, i64 }, { ptr, i64 }, i32, i32 } { { ptr, i64 } { ptr @.str.373, i64 9 }, { ptr, i64 } { ptr @.str.371, i64 6 }, i32 52, i32 32 }, { { ptr, i64 }, { ptr, i64 }, i32, i32 } { { ptr, i64 } { ptr @.str.374, i64 9 }, { ptr, i64 } { ptr @.str.371, i64 6 }, i32 52, i32 32 }, { { ptr, i64 }, { ptr, i64 }, i32, i32 } { { ptr, i64 } { ptr @.str.375, i64 6 }, { ptr, i64 } { ptr @.str.375, i64 6 }, i32 53, i32 32 }, { { ptr, i64 }, { ptr, i64 }, i32, i32 } { { ptr, i64 } { ptr @.str.376, i64 6 }, { ptr, i64 } { ptr @.str.375, i64 6 }, i32 53, i32 32 }, { { ptr, i64 }, { ptr, i64 }, i32, i32 } { { ptr, i64 } { ptr @.str.377, i64 6 }, { ptr, i64 } { ptr @.str.377, i64 6 }, i32 60, i32 48 }, { { ptr, i64 }, { ptr, i64 }, i32, i32 } { { ptr, i64 } { ptr @.str.378, i64 6 }, { ptr, i64 } { ptr @.str.378, i64 6 }, i32 61, i32 48 }, { { ptr, i64 }, { ptr, i64 }, i32, i32 } { { ptr, i64 } { ptr @.str.379, i64 6 }, { ptr, i64 } { ptr @.str.379, i64 6 }, i32 62, i32 48 }, { { ptr, i64 }, { ptr, i64 }, i32, i32 } { { ptr, i64 } { ptr @.str.380, i64 6 }, { ptr, i64 } { ptr @.str.380, i64 6 }, i32 63, i32 48 }], align 16
@.str.382 = private unnamed_addr constant [5 x i8] c"r600\00", align 1
@.str.383 = private unnamed_addr constant [6 x i8] c"rv630\00", align 1
@.str.384 = private unnamed_addr constant [6 x i8] c"rv635\00", align 1
@.str.385 = private unnamed_addr constant [5 x i8] c"r630\00", align 1
@.str.386 = private unnamed_addr constant [6 x i8] c"rs780\00", align 1
@.str.387 = private unnamed_addr constant [6 x i8] c"rs880\00", align 1
@.str.388 = private unnamed_addr constant [6 x i8] c"rv610\00", align 1
@.str.389 = private unnamed_addr constant [6 x i8] c"rv620\00", align 1
@.str.390 = private unnamed_addr constant [6 x i8] c"rv670\00", align 1
@.str.391 = private unnamed_addr constant [6 x i8] c"rv710\00", align 1
@.str.392 = private unnamed_addr constant [6 x i8] c"rv730\00", align 1
@.str.393 = private unnamed_addr constant [6 x i8] c"rv740\00", align 1
@.str.394 = private unnamed_addr constant [6 x i8] c"rv770\00", align 1
@.str.395 = private unnamed_addr constant [6 x i8] c"cedar\00", align 1
@.str.396 = private unnamed_addr constant [5 x i8] c"palm\00", align 1
@.str.397 = private unnamed_addr constant [8 x i8] c"cypress\00", align 1
@.str.398 = private unnamed_addr constant [8 x i8] c"hemlock\00", align 1
@.str.399 = private unnamed_addr constant [8 x i8] c"juniper\00", align 1
@.str.400 = private unnamed_addr constant [8 x i8] c"redwood\00", align 1
@.str.401 = private unnamed_addr constant [5 x i8] c"sumo\00", align 1
@.str.402 = private unnamed_addr constant [6 x i8] c"sumo2\00", align 1
@.str.403 = private unnamed_addr constant [6 x i8] c"barts\00", align 1
@.str.404 = private unnamed_addr constant [7 x i8] c"caicos\00", align 1
@.str.405 = private unnamed_addr constant [6 x i8] c"aruba\00", align 1
@.str.406 = private unnamed_addr constant [7 x i8] c"cayman\00", align 1
@.str.407 = private unnamed_addr constant [6 x i8] c"turks\00", align 1
@_ZN12_GLOBAL__N_18R600GPUsE = internal constant [26 x { { ptr, i64 }, { ptr, i64 }, i32, i32 }] [{ { ptr, i64 }, { ptr, i64 }, i32, i32 } { { ptr, i64 } { ptr @.str.382, i64 4 }, { ptr, i64 } { ptr @.str.382, i64 4 }, i32 1, i32 0 }, { { ptr, i64 }, { ptr, i64 }, i32, i32 } { { ptr, i64 } { ptr @.str.383, i64 5 }, { ptr, i64 } { ptr @.str.382, i64 4 }, i32 1, i32 0 }, { { ptr, i64 }, { ptr, i64 }, i32, i32 } { { ptr, i64 } { ptr @.str.384, i64 5 }, { ptr, i64 } { ptr @.str.382, i64 4 }, i32 1, i32 0 }, { { ptr, i64 }, { ptr, i64 }, i32, i32 } { { ptr, i64 } { ptr @.str.385, i64 4 }, { ptr, i64 } { ptr @.str.385, i64 4 }, i32 2, i32 0 }, { { ptr, i64 }, { ptr, i64 }, i32, i32 } { { ptr, i64 } { ptr @.str.386, i64 5 }, { ptr, i64 } { ptr @.str.387, i64 5 }, i32 3, i32 0 }, { { ptr, i64 }, { ptr, i64 }, i32, i32 } { { ptr, i64 } { ptr @.str.387, i64 5 }, { ptr, i64 } { ptr @.str.387, i64 5 }, i32 3, i32 0 }, { { ptr, i64 }, { ptr, i64 }, i32, i32 } { { ptr, i64 } { ptr @.str.388, i64 5 }, { ptr, i64 } { ptr @.str.387, i64 5 }, i32 3, i32 0 }, { { ptr, i64 }, { ptr, i64 }, i32, i32 } { { ptr, i64 } { ptr @.str.389, i64 5 }, { ptr, i64 } { ptr @.str.387, i64 5 }, i32 3, i32 0 }, { { ptr, i64 }, { ptr, i64 }, i32, i32 } { { ptr, i64 } { ptr @.str.390, i64 5 }, { ptr, i64 } { ptr @.str.390, i64 5 }, i32 4, i32 0 }, { { ptr, i64 }, { ptr, i64 }, i32, i32 } { { ptr, i64 } { ptr @.str.391, i64 5 }, { ptr, i64 } { ptr @.str.391, i64 5 }, i32 5, i32 0 }, { { ptr, i64 }, { ptr, i64 }, i32, i32 } { { ptr, i64 } { ptr @.str.392, i64 5 }, { ptr, i64 } { ptr @.str.392, i64 5 }, i32 6, i32 0 }, { { ptr, i64 }, { ptr, i64 }, i32, i32 } { { ptr, i64 } { ptr @.str.393, i64 5 }, { ptr, i64 } { ptr @.str.394, i64 5 }, i32 7, i32 0 }, { { ptr, i64 }, { ptr, i64 }, i32, i32 } { { ptr, i64 } { ptr @.str.394, i64 5 }, { ptr, i64 } { ptr @.str.394, i64 5 }, i32 7, i32 0 }, { { ptr, i64 }, { ptr, i64 }, i32, i32 } { { ptr, i64 } { ptr @.str.395, i64 5 }, { ptr, i64 } { ptr @.str.395, i64 5 }, i32 8, i32 0 }, { { ptr, i64 }, { ptr, i64 }, i32, i32 } { { ptr, i64 } { ptr @.str.396, i64 4 }, { ptr, i64 } { ptr @.str.395, i64 5 }, i32 8, i32 0 }, { { ptr, i64 }, { ptr, i64 }, i32, i32 } { { ptr, i64 } { ptr @.str.397, i64 7 }, { ptr, i64 } { ptr @.str.397, i64 7 }, i32 9, i32 2 }, { { ptr, i64 }, { ptr, i64 }, i32, i32 } { { ptr, i64 } { ptr @.str.398, i64 7 }, { ptr, i64 } { ptr @.str.397, i64 7 }, i32 9, i32 2 }, { { ptr, i64 }, { ptr, i64 }, i32, i32 } { { ptr, i64 } { ptr @.str.399, i64 7 }, { ptr, i64 } { ptr @.str.399, i64 7 }, i32 10, i32 0 }, { { ptr, i64 }, { ptr, i64 }, i32, i32 } { { ptr, i64 } { ptr @.str.400, i64 7 }, { ptr, i64 } { ptr @.str.400, i64 7 }, i32 11, i32 0 }, { { ptr, i64 }, { ptr, i64 }, i32, i32 } { { ptr, i64 } { ptr @.str.401, i64 4 }, { ptr, i64 } { ptr @.str.401, i64 4 }, i32 12, i32 0 }, { { ptr, i64 }, { ptr, i64 }, i32, i32 } { { ptr, i64 } { ptr @.str.402, i64 5 }, { ptr, i64 } { ptr @.str.401, i64 4 }, i32 12, i32 0 }, { { ptr, i64 }, { ptr, i64 }, i32, i32 } { { ptr, i64 } { ptr @.str.403, i64 5 }, { ptr, i64 } { ptr @.str.403, i64 5 }, i32 13, i32 0 }, { { ptr, i64 }, { ptr, i64 }, i32, i32 } { { ptr, i64 } { ptr @.str.404, i64 6 }, { ptr, i64 } { ptr @.str.404, i64 6 }, i32 14, i32 0 }, { { ptr, i64 }, { ptr, i64 }, i32, i32 } { { ptr, i64 } { ptr @.str.405, i64 5 }, { ptr, i64 } { ptr @.str.406, i64 6 }, i32 15, i32 2 }, { { ptr, i64 }, { ptr, i64 }, i32, i32 } { { ptr, i64 } { ptr @.str.406, i64 6 }, { ptr, i64 } { ptr @.str.406, i64 6 }, i32 15, i32 2 }, { { ptr, i64 }, { ptr, i64 }, i32, i32 } { { ptr, i64 } { ptr @.str.407, i64 5 }, { ptr, i64 } { ptr @.str.407, i64 5 }, i32 16, i32 0 }], align 16
@.str.409 = private unnamed_addr constant [26 x i8] c"vector::_M_realloc_insert\00", align 1

; Function Attrs: mustprogress nounwind uwtable
define hidden { ptr, i64 } @_ZN4llvh3ARM10getFPUNameEj(i32 noundef %FPUKind) #0 {
entry:
  %retval = alloca %"class.llvh::StringRef", align 8
  %FPUKind.addr = alloca i32, align 4
  store i32 %FPUKind, ptr %FPUKind.addr, align 4
  %0 = load i32, ptr %FPUKind.addr, align 4
  %cmp = icmp uge i32 %0, 22
  br i1 %cmp, label %if.then, label %if.end

if.then:                                          ; preds = %entry
  call void @llvm.memset.p0.i64(ptr align 8 %retval, i8 0, i64 16, i1 false)
  call void @_ZN4llvh9StringRefC2Ev(ptr noundef nonnull align 8 dereferenceable(16) %retval) #9
  br label %return

if.end:                                           ; preds = %entry
  %1 = load i32, ptr %FPUKind.addr, align 4
  %idxprom = zext i32 %1 to i64
  %arrayidx = getelementptr inbounds [22 x %struct.anon], ptr @_ZN12_GLOBAL__N_18FPUNamesE, i64 0, i64 %idxprom
  %call = call { ptr, i64 } @"_ZNK12_GLOBAL__N_13$_07getNameEv"(ptr noundef nonnull align 8 dereferenceable(32) %arrayidx)
  %2 = getelementptr inbounds { ptr, i64 }, ptr %retval, i32 0, i32 0
  %3 = extractvalue { ptr, i64 } %call, 0
  store ptr %3, ptr %2, align 8
  %4 = getelementptr inbounds { ptr, i64 }, ptr %retval, i32 0, i32 1
  %5 = extractvalue { ptr, i64 } %call, 1
  store i64 %5, ptr %4, align 8
  br label %return

return:                                           ; preds = %if.end, %if.then
  %6 = load { ptr, i64 }, ptr %retval, align 8
  ret { ptr, i64 } %6
}

; Function Attrs: nocallback nofree nounwind willreturn memory(argmem: write)
declare void @llvm.memset.p0.i64(ptr nocapture writeonly, i8, i64, i1 immarg) #1

; Function Attrs: mustprogress nounwind uwtable
define linkonce_odr hidden void @_ZN4llvh9StringRefC2Ev(ptr noundef nonnull align 8 dereferenceable(16) %this) unnamed_addr #0 comdat align 2 {
entry:
  %this.addr = alloca ptr, align 8
  store ptr %this, ptr %this.addr, align 8
  %this1 = load ptr, ptr %this.addr, align 8
  %Data = getelementptr inbounds %"class.llvh::StringRef", ptr %this1, i32 0, i32 0
  store ptr null, ptr %Data, align 8
  %Length = getelementptr inbounds %"class.llvh::StringRef", ptr %this1, i32 0, i32 1
  store i64 0, ptr %Length, align 8
  ret void
}

; Function Attrs: mustprogress nounwind uwtable
define internal { ptr, i64 } @"_ZNK12_GLOBAL__N_13$_07getNameEv"(ptr noundef nonnull align 8 dereferenceable(32) %this) #0 align 2 {
entry:
  %this.addr.i = alloca ptr, align 8
  %data.addr.i = alloca ptr, align 8
  %length.addr.i = alloca i64, align 8
  %retval = alloca %"class.llvh::StringRef", align 8
  %this.addr = alloca ptr, align 8
  store ptr %this, ptr %this.addr, align 8
  %this1 = load ptr, ptr %this.addr, align 8
  %NameCStr = getelementptr inbounds %struct.anon, ptr %this1, i32 0, i32 0
  %0 = load ptr, ptr %NameCStr, align 8
  %NameLength = getelementptr inbounds %struct.anon, ptr %this1, i32 0, i32 1
  %1 = load i64, ptr %NameLength, align 8
  store ptr %retval, ptr %this.addr.i, align 8
  store ptr %0, ptr %data.addr.i, align 8
  store i64 %1, ptr %length.addr.i, align 8
  %this1.i = load ptr, ptr %this.addr.i, align 8
  %2 = load ptr, ptr %data.addr.i, align 8
  store ptr %2, ptr %this1.i, align 8
  %Length.i = getelementptr inbounds %"class.llvh::StringRef", ptr %this1.i, i32 0, i32 1
  %3 = load i64, ptr %length.addr.i, align 8
  store i64 %3, ptr %Length.i, align 8
  %4 = load { ptr, i64 }, ptr %retval, align 8
  ret { ptr, i64 } %4
}

; Function Attrs: mustprogress nounwind uwtable
define hidden noundef i32 @_ZN4llvh3ARM13getFPUVersionEj(i32 noundef %FPUKind) #0 {
entry:
  %retval = alloca i32, align 4
  %FPUKind.addr = alloca i32, align 4
  store i32 %FPUKind, ptr %FPUKind.addr, align 4
  %0 = load i32, ptr %FPUKind.addr, align 4
  %cmp = icmp uge i32 %0, 22
  br i1 %cmp, label %if.then, label %if.end

if.then:                                          ; preds = %entry
  store i32 0, ptr %retval, align 4
  br label %return

if.end:                                           ; preds = %entry
  %1 = load i32, ptr %FPUKind.addr, align 4
  %idxprom = zext i32 %1 to i64
  %arrayidx = getelementptr inbounds [22 x %struct.anon], ptr @_ZN12_GLOBAL__N_18FPUNamesE, i64 0, i64 %idxprom
  %FPUVersion = getelementptr inbounds %struct.anon, ptr %arrayidx, i32 0, i32 3
  %2 = load i32, ptr %FPUVersion, align 4
  store i32 %2, ptr %retval, align 4
  br label %return

return:                                           ; preds = %if.end, %if.then
  %3 = load i32, ptr %retval, align 4
  ret i32 %3
}

; Function Attrs: mustprogress nounwind uwtable
define hidden noundef i32 @_ZN4llvh3ARM22getFPUNeonSupportLevelEj(i32 noundef %FPUKind) #0 {
entry:
  %retval = alloca i32, align 4
  %FPUKind.addr = alloca i32, align 4
  store i32 %FPUKind, ptr %FPUKind.addr, align 4
  %0 = load i32, ptr %FPUKind.addr, align 4
  %cmp = icmp uge i32 %0, 22
  br i1 %cmp, label %if.then, label %if.end

if.then:                                          ; preds = %entry
  store i32 0, ptr %retval, align 4
  br label %return

if.end:                                           ; preds = %entry
  %1 = load i32, ptr %FPUKind.addr, align 4
  %idxprom = zext i32 %1 to i64
  %arrayidx = getelementptr inbounds [22 x %struct.anon], ptr @_ZN12_GLOBAL__N_18FPUNamesE, i64 0, i64 %idxprom
  %NeonSupport = getelementptr inbounds %struct.anon, ptr %arrayidx, i32 0, i32 4
  %2 = load i32, ptr %NeonSupport, align 8
  store i32 %2, ptr %retval, align 4
  br label %return

return:                                           ; preds = %if.end, %if.then
  %3 = load i32, ptr %retval, align 4
  ret i32 %3
}

; Function Attrs: mustprogress nounwind uwtable
define hidden noundef i32 @_ZN4llvh3ARM17getFPURestrictionEj(i32 noundef %FPUKind) #0 {
entry:
  %retval = alloca i32, align 4
  %FPUKind.addr = alloca i32, align 4
  store i32 %FPUKind, ptr %FPUKind.addr, align 4
  %0 = load i32, ptr %FPUKind.addr, align 4
  %cmp = icmp uge i32 %0, 22
  br i1 %cmp, label %if.then, label %if.end

if.then:                                          ; preds = %entry
  store i32 0, ptr %retval, align 4
  br label %return

if.end:                                           ; preds = %entry
  %1 = load i32, ptr %FPUKind.addr, align 4
  %idxprom = zext i32 %1 to i64
  %arrayidx = getelementptr inbounds [22 x %struct.anon], ptr @_ZN12_GLOBAL__N_18FPUNamesE, i64 0, i64 %idxprom
  %Restriction = getelementptr inbounds %struct.anon, ptr %arrayidx, i32 0, i32 5
  %2 = load i32, ptr %Restriction, align 4
  store i32 %2, ptr %retval, align 4
  br label %return

return:                                           ; preds = %if.end, %if.then
  %3 = load i32, ptr %retval, align 4
  ret i32 %3
}

; Function Attrs: mustprogress nounwind uwtable
define hidden noundef i32 @_ZN4llvh3ARM13getDefaultFPUENS_9StringRefENS0_8ArchKindE(ptr %CPU.coerce0, i64 %CPU.coerce1, i32 noundef %AK) #0 {
entry:
  %retval.i3239 = alloca i32, align 4
  %Lhs.addr.i3240 = alloca ptr, align 8
  %Rhs.addr.i3241 = alloca ptr, align 8
  %Length.addr.i3242 = alloca i64, align 8
  %retval.i3230 = alloca i32, align 4
  %Lhs.addr.i3231 = alloca ptr, align 8
  %Rhs.addr.i3232 = alloca ptr, align 8
  %Length.addr.i3233 = alloca i64, align 8
  %retval.i3221 = alloca i32, align 4
  %Lhs.addr.i3222 = alloca ptr, align 8
  %Rhs.addr.i3223 = alloca ptr, align 8
  %Length.addr.i3224 = alloca i64, align 8
  %retval.i3212 = alloca i32, align 4
  %Lhs.addr.i3213 = alloca ptr, align 8
  %Rhs.addr.i3214 = alloca ptr, align 8
  %Length.addr.i3215 = alloca i64, align 8
  %retval.i3203 = alloca i32, align 4
  %Lhs.addr.i3204 = alloca ptr, align 8
  %Rhs.addr.i3205 = alloca ptr, align 8
  %Length.addr.i3206 = alloca i64, align 8
  %retval.i3194 = alloca i32, align 4
  %Lhs.addr.i3195 = alloca ptr, align 8
  %Rhs.addr.i3196 = alloca ptr, align 8
  %Length.addr.i3197 = alloca i64, align 8
  %retval.i3185 = alloca i32, align 4
  %Lhs.addr.i3186 = alloca ptr, align 8
  %Rhs.addr.i3187 = alloca ptr, align 8
  %Length.addr.i3188 = alloca i64, align 8
  %retval.i3176 = alloca i32, align 4
  %Lhs.addr.i3177 = alloca ptr, align 8
  %Rhs.addr.i3178 = alloca ptr, align 8
  %Length.addr.i3179 = alloca i64, align 8
  %retval.i3167 = alloca i32, align 4
  %Lhs.addr.i3168 = alloca ptr, align 8
  %Rhs.addr.i3169 = alloca ptr, align 8
  %Length.addr.i3170 = alloca i64, align 8
  %retval.i3158 = alloca i32, align 4
  %Lhs.addr.i3159 = alloca ptr, align 8
  %Rhs.addr.i3160 = alloca ptr, align 8
  %Length.addr.i3161 = alloca i64, align 8
  %retval.i3149 = alloca i32, align 4
  %Lhs.addr.i3150 = alloca ptr, align 8
  %Rhs.addr.i3151 = alloca ptr, align 8
  %Length.addr.i3152 = alloca i64, align 8
  %retval.i3140 = alloca i32, align 4
  %Lhs.addr.i3141 = alloca ptr, align 8
  %Rhs.addr.i3142 = alloca ptr, align 8
  %Length.addr.i3143 = alloca i64, align 8
  %retval.i3131 = alloca i32, align 4
  %Lhs.addr.i3132 = alloca ptr, align 8
  %Rhs.addr.i3133 = alloca ptr, align 8
  %Length.addr.i3134 = alloca i64, align 8
  %retval.i3122 = alloca i32, align 4
  %Lhs.addr.i3123 = alloca ptr, align 8
  %Rhs.addr.i3124 = alloca ptr, align 8
  %Length.addr.i3125 = alloca i64, align 8
  %retval.i3113 = alloca i32, align 4
  %Lhs.addr.i3114 = alloca ptr, align 8
  %Rhs.addr.i3115 = alloca ptr, align 8
  %Length.addr.i3116 = alloca i64, align 8
  %retval.i3104 = alloca i32, align 4
  %Lhs.addr.i3105 = alloca ptr, align 8
  %Rhs.addr.i3106 = alloca ptr, align 8
  %Length.addr.i3107 = alloca i64, align 8
  %retval.i3095 = alloca i32, align 4
  %Lhs.addr.i3096 = alloca ptr, align 8
  %Rhs.addr.i3097 = alloca ptr, align 8
  %Length.addr.i3098 = alloca i64, align 8
  %retval.i3086 = alloca i32, align 4
  %Lhs.addr.i3087 = alloca ptr, align 8
  %Rhs.addr.i3088 = alloca ptr, align 8
  %Length.addr.i3089 = alloca i64, align 8
  %retval.i3077 = alloca i32, align 4
  %Lhs.addr.i3078 = alloca ptr, align 8
  %Rhs.addr.i3079 = alloca ptr, align 8
  %Length.addr.i3080 = alloca i64, align 8
  %retval.i3068 = alloca i32, align 4
  %Lhs.addr.i3069 = alloca ptr, align 8
  %Rhs.addr.i3070 = alloca ptr, align 8
  %Length.addr.i3071 = alloca i64, align 8
  %retval.i3059 = alloca i32, align 4
  %Lhs.addr.i3060 = alloca ptr, align 8
  %Rhs.addr.i3061 = alloca ptr, align 8
  %Length.addr.i3062 = alloca i64, align 8
  %retval.i3050 = alloca i32, align 4
  %Lhs.addr.i3051 = alloca ptr, align 8
  %Rhs.addr.i3052 = alloca ptr, align 8
  %Length.addr.i3053 = alloca i64, align 8
  %retval.i3041 = alloca i32, align 4
  %Lhs.addr.i3042 = alloca ptr, align 8
  %Rhs.addr.i3043 = alloca ptr, align 8
  %Length.addr.i3044 = alloca i64, align 8
  %retval.i3032 = alloca i32, align 4
  %Lhs.addr.i3033 = alloca ptr, align 8
  %Rhs.addr.i3034 = alloca ptr, align 8
  %Length.addr.i3035 = alloca i64, align 8
  %retval.i3023 = alloca i32, align 4
  %Lhs.addr.i3024 = alloca ptr, align 8
  %Rhs.addr.i3025 = alloca ptr, align 8
  %Length.addr.i3026 = alloca i64, align 8
  %retval.i3014 = alloca i32, align 4
  %Lhs.addr.i3015 = alloca ptr, align 8
  %Rhs.addr.i3016 = alloca ptr, align 8
  %Length.addr.i3017 = alloca i64, align 8
  %retval.i3005 = alloca i32, align 4
  %Lhs.addr.i3006 = alloca ptr, align 8
  %Rhs.addr.i3007 = alloca ptr, align 8
  %Length.addr.i3008 = alloca i64, align 8
  %retval.i2996 = alloca i32, align 4
  %Lhs.addr.i2997 = alloca ptr, align 8
  %Rhs.addr.i2998 = alloca ptr, align 8
  %Length.addr.i2999 = alloca i64, align 8
  %retval.i2987 = alloca i32, align 4
  %Lhs.addr.i2988 = alloca ptr, align 8
  %Rhs.addr.i2989 = alloca ptr, align 8
  %Length.addr.i2990 = alloca i64, align 8
  %retval.i2978 = alloca i32, align 4
  %Lhs.addr.i2979 = alloca ptr, align 8
  %Rhs.addr.i2980 = alloca ptr, align 8
  %Length.addr.i2981 = alloca i64, align 8
  %retval.i2969 = alloca i32, align 4
  %Lhs.addr.i2970 = alloca ptr, align 8
  %Rhs.addr.i2971 = alloca ptr, align 8
  %Length.addr.i2972 = alloca i64, align 8
  %retval.i2960 = alloca i32, align 4
  %Lhs.addr.i2961 = alloca ptr, align 8
  %Rhs.addr.i2962 = alloca ptr, align 8
  %Length.addr.i2963 = alloca i64, align 8
  %retval.i2951 = alloca i32, align 4
  %Lhs.addr.i2952 = alloca ptr, align 8
  %Rhs.addr.i2953 = alloca ptr, align 8
  %Length.addr.i2954 = alloca i64, align 8
  %retval.i2942 = alloca i32, align 4
  %Lhs.addr.i2943 = alloca ptr, align 8
  %Rhs.addr.i2944 = alloca ptr, align 8
  %Length.addr.i2945 = alloca i64, align 8
  %retval.i2933 = alloca i32, align 4
  %Lhs.addr.i2934 = alloca ptr, align 8
  %Rhs.addr.i2935 = alloca ptr, align 8
  %Length.addr.i2936 = alloca i64, align 8
  %retval.i2924 = alloca i32, align 4
  %Lhs.addr.i2925 = alloca ptr, align 8
  %Rhs.addr.i2926 = alloca ptr, align 8
  %Length.addr.i2927 = alloca i64, align 8
  %retval.i2915 = alloca i32, align 4
  %Lhs.addr.i2916 = alloca ptr, align 8
  %Rhs.addr.i2917 = alloca ptr, align 8
  %Length.addr.i2918 = alloca i64, align 8
  %retval.i2906 = alloca i32, align 4
  %Lhs.addr.i2907 = alloca ptr, align 8
  %Rhs.addr.i2908 = alloca ptr, align 8
  %Length.addr.i2909 = alloca i64, align 8
  %retval.i2897 = alloca i32, align 4
  %Lhs.addr.i2898 = alloca ptr, align 8
  %Rhs.addr.i2899 = alloca ptr, align 8
  %Length.addr.i2900 = alloca i64, align 8
  %retval.i2888 = alloca i32, align 4
  %Lhs.addr.i2889 = alloca ptr, align 8
  %Rhs.addr.i2890 = alloca ptr, align 8
  %Length.addr.i2891 = alloca i64, align 8
  %retval.i2879 = alloca i32, align 4
  %Lhs.addr.i2880 = alloca ptr, align 8
  %Rhs.addr.i2881 = alloca ptr, align 8
  %Length.addr.i2882 = alloca i64, align 8
  %retval.i2870 = alloca i32, align 4
  %Lhs.addr.i2871 = alloca ptr, align 8
  %Rhs.addr.i2872 = alloca ptr, align 8
  %Length.addr.i2873 = alloca i64, align 8
  %retval.i2861 = alloca i32, align 4
  %Lhs.addr.i2862 = alloca ptr, align 8
  %Rhs.addr.i2863 = alloca ptr, align 8
  %Length.addr.i2864 = alloca i64, align 8
  %retval.i2852 = alloca i32, align 4
  %Lhs.addr.i2853 = alloca ptr, align 8
  %Rhs.addr.i2854 = alloca ptr, align 8
  %Length.addr.i2855 = alloca i64, align 8
  %retval.i2843 = alloca i32, align 4
  %Lhs.addr.i2844 = alloca ptr, align 8
  %Rhs.addr.i2845 = alloca ptr, align 8
  %Length.addr.i2846 = alloca i64, align 8
  %retval.i2834 = alloca i32, align 4
  %Lhs.addr.i2835 = alloca ptr, align 8
  %Rhs.addr.i2836 = alloca ptr, align 8
  %Length.addr.i2837 = alloca i64, align 8
  %retval.i2825 = alloca i32, align 4
  %Lhs.addr.i2826 = alloca ptr, align 8
  %Rhs.addr.i2827 = alloca ptr, align 8
  %Length.addr.i2828 = alloca i64, align 8
  %retval.i2816 = alloca i32, align 4
  %Lhs.addr.i2817 = alloca ptr, align 8
  %Rhs.addr.i2818 = alloca ptr, align 8
  %Length.addr.i2819 = alloca i64, align 8
  %retval.i2807 = alloca i32, align 4
  %Lhs.addr.i2808 = alloca ptr, align 8
  %Rhs.addr.i2809 = alloca ptr, align 8
  %Length.addr.i2810 = alloca i64, align 8
  %retval.i2798 = alloca i32, align 4
  %Lhs.addr.i2799 = alloca ptr, align 8
  %Rhs.addr.i2800 = alloca ptr, align 8
  %Length.addr.i2801 = alloca i64, align 8
  %retval.i2789 = alloca i32, align 4
  %Lhs.addr.i2790 = alloca ptr, align 8
  %Rhs.addr.i2791 = alloca ptr, align 8
  %Length.addr.i2792 = alloca i64, align 8
  %retval.i2780 = alloca i32, align 4
  %Lhs.addr.i2781 = alloca ptr, align 8
  %Rhs.addr.i2782 = alloca ptr, align 8
  %Length.addr.i2783 = alloca i64, align 8
  %retval.i2771 = alloca i32, align 4
  %Lhs.addr.i2772 = alloca ptr, align 8
  %Rhs.addr.i2773 = alloca ptr, align 8
  %Length.addr.i2774 = alloca i64, align 8
  %retval.i2762 = alloca i32, align 4
  %Lhs.addr.i2763 = alloca ptr, align 8
  %Rhs.addr.i2764 = alloca ptr, align 8
  %Length.addr.i2765 = alloca i64, align 8
  %retval.i2753 = alloca i32, align 4
  %Lhs.addr.i2754 = alloca ptr, align 8
  %Rhs.addr.i2755 = alloca ptr, align 8
  %Length.addr.i2756 = alloca i64, align 8
  %retval.i2744 = alloca i32, align 4
  %Lhs.addr.i2745 = alloca ptr, align 8
  %Rhs.addr.i2746 = alloca ptr, align 8
  %Length.addr.i2747 = alloca i64, align 8
  %retval.i2735 = alloca i32, align 4
  %Lhs.addr.i2736 = alloca ptr, align 8
  %Rhs.addr.i2737 = alloca ptr, align 8
  %Length.addr.i2738 = alloca i64, align 8
  %retval.i2726 = alloca i32, align 4
  %Lhs.addr.i2727 = alloca ptr, align 8
  %Rhs.addr.i2728 = alloca ptr, align 8
  %Length.addr.i2729 = alloca i64, align 8
  %retval.i2717 = alloca i32, align 4
  %Lhs.addr.i2718 = alloca ptr, align 8
  %Rhs.addr.i2719 = alloca ptr, align 8
  %Length.addr.i2720 = alloca i64, align 8
  %retval.i2708 = alloca i32, align 4
  %Lhs.addr.i2709 = alloca ptr, align 8
  %Rhs.addr.i2710 = alloca ptr, align 8
  %Length.addr.i2711 = alloca i64, align 8
  %retval.i2699 = alloca i32, align 4
  %Lhs.addr.i2700 = alloca ptr, align 8
  %Rhs.addr.i2701 = alloca ptr, align 8
  %Length.addr.i2702 = alloca i64, align 8
  %retval.i2690 = alloca i32, align 4
  %Lhs.addr.i2691 = alloca ptr, align 8
  %Rhs.addr.i2692 = alloca ptr, align 8
  %Length.addr.i2693 = alloca i64, align 8
  %retval.i2681 = alloca i32, align 4
  %Lhs.addr.i2682 = alloca ptr, align 8
  %Rhs.addr.i2683 = alloca ptr, align 8
  %Length.addr.i2684 = alloca i64, align 8
  %retval.i2672 = alloca i32, align 4
  %Lhs.addr.i2673 = alloca ptr, align 8
  %Rhs.addr.i2674 = alloca ptr, align 8
  %Length.addr.i2675 = alloca i64, align 8
  %retval.i2663 = alloca i32, align 4
  %Lhs.addr.i2664 = alloca ptr, align 8
  %Rhs.addr.i2665 = alloca ptr, align 8
  %Length.addr.i2666 = alloca i64, align 8
  %retval.i2654 = alloca i32, align 4
  %Lhs.addr.i2655 = alloca ptr, align 8
  %Rhs.addr.i2656 = alloca ptr, align 8
  %Length.addr.i2657 = alloca i64, align 8
  %retval.i2645 = alloca i32, align 4
  %Lhs.addr.i2646 = alloca ptr, align 8
  %Rhs.addr.i2647 = alloca ptr, align 8
  %Length.addr.i2648 = alloca i64, align 8
  %retval.i2636 = alloca i32, align 4
  %Lhs.addr.i2637 = alloca ptr, align 8
  %Rhs.addr.i2638 = alloca ptr, align 8
  %Length.addr.i2639 = alloca i64, align 8
  %retval.i2627 = alloca i32, align 4
  %Lhs.addr.i2628 = alloca ptr, align 8
  %Rhs.addr.i2629 = alloca ptr, align 8
  %Length.addr.i2630 = alloca i64, align 8
  %retval.i2618 = alloca i32, align 4
  %Lhs.addr.i2619 = alloca ptr, align 8
  %Rhs.addr.i2620 = alloca ptr, align 8
  %Length.addr.i2621 = alloca i64, align 8
  %retval.i2609 = alloca i32, align 4
  %Lhs.addr.i2610 = alloca ptr, align 8
  %Rhs.addr.i2611 = alloca ptr, align 8
  %Length.addr.i2612 = alloca i64, align 8
  %retval.i2600 = alloca i32, align 4
  %Lhs.addr.i2601 = alloca ptr, align 8
  %Rhs.addr.i2602 = alloca ptr, align 8
  %Length.addr.i2603 = alloca i64, align 8
  %retval.i2591 = alloca i32, align 4
  %Lhs.addr.i2592 = alloca ptr, align 8
  %Rhs.addr.i2593 = alloca ptr, align 8
  %Length.addr.i2594 = alloca i64, align 8
  %retval.i2582 = alloca i32, align 4
  %Lhs.addr.i2583 = alloca ptr, align 8
  %Rhs.addr.i2584 = alloca ptr, align 8
  %Length.addr.i2585 = alloca i64, align 8
  %retval.i2573 = alloca i32, align 4
  %Lhs.addr.i2574 = alloca ptr, align 8
  %Rhs.addr.i2575 = alloca ptr, align 8
  %Length.addr.i2576 = alloca i64, align 8
  %retval.i2564 = alloca i32, align 4
  %Lhs.addr.i2565 = alloca ptr, align 8
  %Rhs.addr.i2566 = alloca ptr, align 8
  %Length.addr.i2567 = alloca i64, align 8
  %retval.i2555 = alloca i32, align 4
  %Lhs.addr.i2556 = alloca ptr, align 8
  %Rhs.addr.i2557 = alloca ptr, align 8
  %Length.addr.i2558 = alloca i64, align 8
  %retval.i2546 = alloca i32, align 4
  %Lhs.addr.i2547 = alloca ptr, align 8
  %Rhs.addr.i2548 = alloca ptr, align 8
  %Length.addr.i2549 = alloca i64, align 8
  %retval.i2537 = alloca i32, align 4
  %Lhs.addr.i2538 = alloca ptr, align 8
  %Rhs.addr.i2539 = alloca ptr, align 8
  %Length.addr.i2540 = alloca i64, align 8
  %retval.i2528 = alloca i32, align 4
  %Lhs.addr.i2529 = alloca ptr, align 8
  %Rhs.addr.i2530 = alloca ptr, align 8
  %Length.addr.i2531 = alloca i64, align 8
  %retval.i2519 = alloca i32, align 4
  %Lhs.addr.i2520 = alloca ptr, align 8
  %Rhs.addr.i2521 = alloca ptr, align 8
  %Length.addr.i2522 = alloca i64, align 8
  %retval.i2510 = alloca i32, align 4
  %Lhs.addr.i2511 = alloca ptr, align 8
  %Rhs.addr.i2512 = alloca ptr, align 8
  %Length.addr.i2513 = alloca i64, align 8
  %retval.i2501 = alloca i32, align 4
  %Lhs.addr.i2502 = alloca ptr, align 8
  %Rhs.addr.i2503 = alloca ptr, align 8
  %Length.addr.i2504 = alloca i64, align 8
  %retval.i2497 = alloca i32, align 4
  %Lhs.addr.i = alloca ptr, align 8
  %Rhs.addr.i = alloca ptr, align 8
  %Length.addr.i = alloca i64, align 8
  %RHS.i2486 = alloca %"class.llvh::StringRef", align 8
  %this.addr.i2487 = alloca ptr, align 8
  %RHS.i2475 = alloca %"class.llvh::StringRef", align 8
  %this.addr.i2476 = alloca ptr, align 8
  %RHS.i2464 = alloca %"class.llvh::StringRef", align 8
  %this.addr.i2465 = alloca ptr, align 8
  %RHS.i2453 = alloca %"class.llvh::StringRef", align 8
  %this.addr.i2454 = alloca ptr, align 8
  %RHS.i2442 = alloca %"class.llvh::StringRef", align 8
  %this.addr.i2443 = alloca ptr, align 8
  %RHS.i2431 = alloca %"class.llvh::StringRef", align 8
  %this.addr.i2432 = alloca ptr, align 8
  %RHS.i2420 = alloca %"class.llvh::StringRef", align 8
  %this.addr.i2421 = alloca ptr, align 8
  %RHS.i2409 = alloca %"class.llvh::StringRef", align 8
  %this.addr.i2410 = alloca ptr, align 8
  %RHS.i2398 = alloca %"class.llvh::StringRef", align 8
  %this.addr.i2399 = alloca ptr, align 8
  %RHS.i2387 = alloca %"class.llvh::StringRef", align 8
  %this.addr.i2388 = alloca ptr, align 8
  %RHS.i2376 = alloca %"class.llvh::StringRef", align 8
  %this.addr.i2377 = alloca ptr, align 8
  %RHS.i2365 = alloca %"class.llvh::StringRef", align 8
  %this.addr.i2366 = alloca ptr, align 8
  %RHS.i2354 = alloca %"class.llvh::StringRef", align 8
  %this.addr.i2355 = alloca ptr, align 8
  %RHS.i2343 = alloca %"class.llvh::StringRef", align 8
  %this.addr.i2344 = alloca ptr, align 8
  %RHS.i2332 = alloca %"class.llvh::StringRef", align 8
  %this.addr.i2333 = alloca ptr, align 8
  %RHS.i2321 = alloca %"class.llvh::StringRef", align 8
  %this.addr.i2322 = alloca ptr, align 8
  %RHS.i2310 = alloca %"class.llvh::StringRef", align 8
  %this.addr.i2311 = alloca ptr, align 8
  %RHS.i2299 = alloca %"class.llvh::StringRef", align 8
  %this.addr.i2300 = alloca ptr, align 8
  %RHS.i2288 = alloca %"class.llvh::StringRef", align 8
  %this.addr.i2289 = alloca ptr, align 8
  %RHS.i2277 = alloca %"class.llvh::StringRef", align 8
  %this.addr.i2278 = alloca ptr, align 8
  %RHS.i2266 = alloca %"class.llvh::StringRef", align 8
  %this.addr.i2267 = alloca ptr, align 8
  %RHS.i2255 = alloca %"class.llvh::StringRef", align 8
  %this.addr.i2256 = alloca ptr, align 8
  %RHS.i2244 = alloca %"class.llvh::StringRef", align 8
  %this.addr.i2245 = alloca ptr, align 8
  %RHS.i2233 = alloca %"class.llvh::StringRef", align 8
  %this.addr.i2234 = alloca ptr, align 8
  %RHS.i2222 = alloca %"class.llvh::StringRef", align 8
  %this.addr.i2223 = alloca ptr, align 8
  %RHS.i2211 = alloca %"class.llvh::StringRef", align 8
  %this.addr.i2212 = alloca ptr, align 8
  %RHS.i2200 = alloca %"class.llvh::StringRef", align 8
  %this.addr.i2201 = alloca ptr, align 8
  %RHS.i2189 = alloca %"class.llvh::StringRef", align 8
  %this.addr.i2190 = alloca ptr, align 8
  %RHS.i2178 = alloca %"class.llvh::StringRef", align 8
  %this.addr.i2179 = alloca ptr, align 8
  %RHS.i2167 = alloca %"class.llvh::StringRef", align 8
  %this.addr.i2168 = alloca ptr, align 8
  %RHS.i2156 = alloca %"class.llvh::StringRef", align 8
  %this.addr.i2157 = alloca ptr, align 8
  %RHS.i2145 = alloca %"class.llvh::StringRef", align 8
  %this.addr.i2146 = alloca ptr, align 8
  %RHS.i2134 = alloca %"class.llvh::StringRef", align 8
  %this.addr.i2135 = alloca ptr, align 8
  %RHS.i2123 = alloca %"class.llvh::StringRef", align 8
  %this.addr.i2124 = alloca ptr, align 8
  %RHS.i2112 = alloca %"class.llvh::StringRef", align 8
  %this.addr.i2113 = alloca ptr, align 8
  %RHS.i2101 = alloca %"class.llvh::StringRef", align 8
  %this.addr.i2102 = alloca ptr, align 8
  %RHS.i2090 = alloca %"class.llvh::StringRef", align 8
  %this.addr.i2091 = alloca ptr, align 8
  %RHS.i2079 = alloca %"class.llvh::StringRef", align 8
  %this.addr.i2080 = alloca ptr, align 8
  %RHS.i2068 = alloca %"class.llvh::StringRef", align 8
  %this.addr.i2069 = alloca ptr, align 8
  %RHS.i2057 = alloca %"class.llvh::StringRef", align 8
  %this.addr.i2058 = alloca ptr, align 8
  %RHS.i2046 = alloca %"class.llvh::StringRef", align 8
  %this.addr.i2047 = alloca ptr, align 8
  %RHS.i2035 = alloca %"class.llvh::StringRef", align 8
  %this.addr.i2036 = alloca ptr, align 8
  %RHS.i2024 = alloca %"class.llvh::StringRef", align 8
  %this.addr.i2025 = alloca ptr, align 8
  %RHS.i2013 = alloca %"class.llvh::StringRef", align 8
  %this.addr.i2014 = alloca ptr, align 8
  %RHS.i2002 = alloca %"class.llvh::StringRef", align 8
  %this.addr.i2003 = alloca ptr, align 8
  %RHS.i1991 = alloca %"class.llvh::StringRef", align 8
  %this.addr.i1992 = alloca ptr, align 8
  %RHS.i1980 = alloca %"class.llvh::StringRef", align 8
  %this.addr.i1981 = alloca ptr, align 8
  %RHS.i1969 = alloca %"class.llvh::StringRef", align 8
  %this.addr.i1970 = alloca ptr, align 8
  %RHS.i1958 = alloca %"class.llvh::StringRef", align 8
  %this.addr.i1959 = alloca ptr, align 8
  %RHS.i1947 = alloca %"class.llvh::StringRef", align 8
  %this.addr.i1948 = alloca ptr, align 8
  %RHS.i1936 = alloca %"class.llvh::StringRef", align 8
  %this.addr.i1937 = alloca ptr, align 8
  %RHS.i1925 = alloca %"class.llvh::StringRef", align 8
  %this.addr.i1926 = alloca ptr, align 8
  %RHS.i1914 = alloca %"class.llvh::StringRef", align 8
  %this.addr.i1915 = alloca ptr, align 8
  %RHS.i1903 = alloca %"class.llvh::StringRef", align 8
  %this.addr.i1904 = alloca ptr, align 8
  %RHS.i1892 = alloca %"class.llvh::StringRef", align 8
  %this.addr.i1893 = alloca ptr, align 8
  %RHS.i1881 = alloca %"class.llvh::StringRef", align 8
  %this.addr.i1882 = alloca ptr, align 8
  %RHS.i1870 = alloca %"class.llvh::StringRef", align 8
  %this.addr.i1871 = alloca ptr, align 8
  %RHS.i1859 = alloca %"class.llvh::StringRef", align 8
  %this.addr.i1860 = alloca ptr, align 8
  %RHS.i1848 = alloca %"class.llvh::StringRef", align 8
  %this.addr.i1849 = alloca ptr, align 8
  %RHS.i1837 = alloca %"class.llvh::StringRef", align 8
  %this.addr.i1838 = alloca ptr, align 8
  %RHS.i1826 = alloca %"class.llvh::StringRef", align 8
  %this.addr.i1827 = alloca ptr, align 8
  %RHS.i1815 = alloca %"class.llvh::StringRef", align 8
  %this.addr.i1816 = alloca ptr, align 8
  %RHS.i1804 = alloca %"class.llvh::StringRef", align 8
  %this.addr.i1805 = alloca ptr, align 8
  %RHS.i1793 = alloca %"class.llvh::StringRef", align 8
  %this.addr.i1794 = alloca ptr, align 8
  %RHS.i1782 = alloca %"class.llvh::StringRef", align 8
  %this.addr.i1783 = alloca ptr, align 8
  %RHS.i1771 = alloca %"class.llvh::StringRef", align 8
  %this.addr.i1772 = alloca ptr, align 8
  %RHS.i1760 = alloca %"class.llvh::StringRef", align 8
  %this.addr.i1761 = alloca ptr, align 8
  %RHS.i1749 = alloca %"class.llvh::StringRef", align 8
  %this.addr.i1750 = alloca ptr, align 8
  %RHS.i1738 = alloca %"class.llvh::StringRef", align 8
  %this.addr.i1739 = alloca ptr, align 8
  %RHS.i1727 = alloca %"class.llvh::StringRef", align 8
  %this.addr.i1728 = alloca ptr, align 8
  %RHS.i1716 = alloca %"class.llvh::StringRef", align 8
  %this.addr.i1717 = alloca ptr, align 8
  %RHS.i1705 = alloca %"class.llvh::StringRef", align 8
  %this.addr.i1706 = alloca ptr, align 8
  %RHS.i1694 = alloca %"class.llvh::StringRef", align 8
  %this.addr.i1695 = alloca ptr, align 8
  %RHS.i1683 = alloca %"class.llvh::StringRef", align 8
  %this.addr.i1684 = alloca ptr, align 8
  %RHS.i1672 = alloca %"class.llvh::StringRef", align 8
  %this.addr.i1673 = alloca ptr, align 8
  %RHS.i1661 = alloca %"class.llvh::StringRef", align 8
  %this.addr.i1662 = alloca ptr, align 8
  %RHS.i1650 = alloca %"class.llvh::StringRef", align 8
  %this.addr.i1651 = alloca ptr, align 8
  %RHS.i1639 = alloca %"class.llvh::StringRef", align 8
  %this.addr.i1640 = alloca ptr, align 8
  %RHS.i1628 = alloca %"class.llvh::StringRef", align 8
  %this.addr.i1629 = alloca ptr, align 8
  %RHS.i1617 = alloca %"class.llvh::StringRef", align 8
  %this.addr.i1618 = alloca ptr, align 8
  %RHS.i1606 = alloca %"class.llvh::StringRef", align 8
  %this.addr.i1607 = alloca ptr, align 8
  %RHS.i1595 = alloca %"class.llvh::StringRef", align 8
  %this.addr.i1596 = alloca ptr, align 8
  %RHS.i1584 = alloca %"class.llvh::StringRef", align 8
  %this.addr.i1585 = alloca ptr, align 8
  %RHS.i1579 = alloca %"class.llvh::StringRef", align 8
  %this.addr.i1580 = alloca ptr, align 8
  %retval.i = alloca i32, align 4
  %this.addr.i1573 = alloca ptr, align 8
  %Value.addr.i1574 = alloca i32, align 4
  %LHS.i.i1556 = alloca %"class.llvh::StringRef", align 8
  %RHS.i.i1557 = alloca %"class.llvh::StringRef", align 8
  %agg.tmp.i.i1558 = alloca %"class.llvh::StringRef", align 8
  %S.i1559 = alloca %"class.llvh::StringLiteral", align 8
  %this.addr.i1560 = alloca ptr, align 8
  %Value.addr.i1561 = alloca i32, align 4
  %agg.tmp.i1562 = alloca %"class.llvh::StringRef", align 8
  %agg.tmp2.i1563 = alloca %"class.llvh::StringRef", align 8
  %LHS.i.i1539 = alloca %"class.llvh::StringRef", align 8
  %RHS.i.i1540 = alloca %"class.llvh::StringRef", align 8
  %agg.tmp.i.i1541 = alloca %"class.llvh::StringRef", align 8
  %S.i1542 = alloca %"class.llvh::StringLiteral", align 8
  %this.addr.i1543 = alloca ptr, align 8
  %Value.addr.i1544 = alloca i32, align 4
  %agg.tmp.i1545 = alloca %"class.llvh::StringRef", align 8
  %agg.tmp2.i1546 = alloca %"class.llvh::StringRef", align 8
  %LHS.i.i1522 = alloca %"class.llvh::StringRef", align 8
  %RHS.i.i1523 = alloca %"class.llvh::StringRef", align 8
  %agg.tmp.i.i1524 = alloca %"class.llvh::StringRef", align 8
  %S.i1525 = alloca %"class.llvh::StringLiteral", align 8
  %this.addr.i1526 = alloca ptr, align 8
  %Value.addr.i1527 = alloca i32, align 4
  %agg.tmp.i1528 = alloca %"class.llvh::StringRef", align 8
  %agg.tmp2.i1529 = alloca %"class.llvh::StringRef", align 8
  %LHS.i.i1505 = alloca %"class.llvh::StringRef", align 8
  %RHS.i.i1506 = alloca %"class.llvh::StringRef", align 8
  %agg.tmp.i.i1507 = alloca %"class.llvh::StringRef", align 8
  %S.i1508 = alloca %"class.llvh::StringLiteral", align 8
  %this.addr.i1509 = alloca ptr, align 8
  %Value.addr.i1510 = alloca i32, align 4
  %agg.tmp.i1511 = alloca %"class.llvh::StringRef", align 8
  %agg.tmp2.i1512 = alloca %"class.llvh::StringRef", align 8
  %LHS.i.i1488 = alloca %"class.llvh::StringRef", align 8
  %RHS.i.i1489 = alloca %"class.llvh::StringRef", align 8
  %agg.tmp.i.i1490 = alloca %"class.llvh::StringRef", align 8
  %S.i1491 = alloca %"class.llvh::StringLiteral", align 8
  %this.addr.i1492 = alloca ptr, align 8
  %Value.addr.i1493 = alloca i32, align 4
  %agg.tmp.i1494 = alloca %"class.llvh::StringRef", align 8
  %agg.tmp2.i1495 = alloca %"class.llvh::StringRef", align 8
  %LHS.i.i1471 = alloca %"class.llvh::StringRef", align 8
  %RHS.i.i1472 = alloca %"class.llvh::StringRef", align 8
  %agg.tmp.i.i1473 = alloca %"class.llvh::StringRef", align 8
  %S.i1474 = alloca %"class.llvh::StringLiteral", align 8
  %this.addr.i1475 = alloca ptr, align 8
  %Value.addr.i1476 = alloca i32, align 4
  %agg.tmp.i1477 = alloca %"class.llvh::StringRef", align 8
  %agg.tmp2.i1478 = alloca %"class.llvh::StringRef", align 8
  %LHS.i.i1454 = alloca %"class.llvh::StringRef", align 8
  %RHS.i.i1455 = alloca %"class.llvh::StringRef", align 8
  %agg.tmp.i.i1456 = alloca %"class.llvh::StringRef", align 8
  %S.i1457 = alloca %"class.llvh::StringLiteral", align 8
  %this.addr.i1458 = alloca ptr, align 8
  %Value.addr.i1459 = alloca i32, align 4
  %agg.tmp.i1460 = alloca %"class.llvh::StringRef", align 8
  %agg.tmp2.i1461 = alloca %"class.llvh::StringRef", align 8
  %LHS.i.i1437 = alloca %"class.llvh::StringRef", align 8
  %RHS.i.i1438 = alloca %"class.llvh::StringRef", align 8
  %agg.tmp.i.i1439 = alloca %"class.llvh::StringRef", align 8
  %S.i1440 = alloca %"class.llvh::StringLiteral", align 8
  %this.addr.i1441 = alloca ptr, align 8
  %Value.addr.i1442 = alloca i32, align 4
  %agg.tmp.i1443 = alloca %"class.llvh::StringRef", align 8
  %agg.tmp2.i1444 = alloca %"class.llvh::StringRef", align 8
  %LHS.i.i1420 = alloca %"class.llvh::StringRef", align 8
  %RHS.i.i1421 = alloca %"class.llvh::StringRef", align 8
  %agg.tmp.i.i1422 = alloca %"class.llvh::StringRef", align 8
  %S.i1423 = alloca %"class.llvh::StringLiteral", align 8
  %this.addr.i1424 = alloca ptr, align 8
  %Value.addr.i1425 = alloca i32, align 4
  %agg.tmp.i1426 = alloca %"class.llvh::StringRef", align 8
  %agg.tmp2.i1427 = alloca %"class.llvh::StringRef", align 8
  %LHS.i.i1403 = alloca %"class.llvh::StringRef", align 8
  %RHS.i.i1404 = alloca %"class.llvh::StringRef", align 8
  %agg.tmp.i.i1405 = alloca %"class.llvh::StringRef", align 8
  %S.i1406 = alloca %"class.llvh::StringLiteral", align 8
  %this.addr.i1407 = alloca ptr, align 8
  %Value.addr.i1408 = alloca i32, align 4
  %agg.tmp.i1409 = alloca %"class.llvh::StringRef", align 8
  %agg.tmp2.i1410 = alloca %"class.llvh::StringRef", align 8
  %LHS.i.i1386 = alloca %"class.llvh::StringRef", align 8
  %RHS.i.i1387 = alloca %"class.llvh::StringRef", align 8
  %agg.tmp.i.i1388 = alloca %"class.llvh::StringRef", align 8
  %S.i1389 = alloca %"class.llvh::StringLiteral", align 8
  %this.addr.i1390 = alloca ptr, align 8
  %Value.addr.i1391 = alloca i32, align 4
  %agg.tmp.i1392 = alloca %"class.llvh::StringRef", align 8
  %agg.tmp2.i1393 = alloca %"class.llvh::StringRef", align 8
  %LHS.i.i1369 = alloca %"class.llvh::StringRef", align 8
  %RHS.i.i1370 = alloca %"class.llvh::StringRef", align 8
  %agg.tmp.i.i1371 = alloca %"class.llvh::StringRef", align 8
  %S.i1372 = alloca %"class.llvh::StringLiteral", align 8
  %this.addr.i1373 = alloca ptr, align 8
  %Value.addr.i1374 = alloca i32, align 4
  %agg.tmp.i1375 = alloca %"class.llvh::StringRef", align 8
  %agg.tmp2.i1376 = alloca %"class.llvh::StringRef", align 8
  %LHS.i.i1352 = alloca %"class.llvh::StringRef", align 8
  %RHS.i.i1353 = alloca %"class.llvh::StringRef", align 8
  %agg.tmp.i.i1354 = alloca %"class.llvh::StringRef", align 8
  %S.i1355 = alloca %"class.llvh::StringLiteral", align 8
  %this.addr.i1356 = alloca ptr, align 8
  %Value.addr.i1357 = alloca i32, align 4
  %agg.tmp.i1358 = alloca %"class.llvh::StringRef", align 8
  %agg.tmp2.i1359 = alloca %"class.llvh::StringRef", align 8
  %LHS.i.i1335 = alloca %"class.llvh::StringRef", align 8
  %RHS.i.i1336 = alloca %"class.llvh::StringRef", align 8
  %agg.tmp.i.i1337 = alloca %"class.llvh::StringRef", align 8
  %S.i1338 = alloca %"class.llvh::StringLiteral", align 8
  %this.addr.i1339 = alloca ptr, align 8
  %Value.addr.i1340 = alloca i32, align 4
  %agg.tmp.i1341 = alloca %"class.llvh::StringRef", align 8
  %agg.tmp2.i1342 = alloca %"class.llvh::StringRef", align 8
  %LHS.i.i1318 = alloca %"class.llvh::StringRef", align 8
  %RHS.i.i1319 = alloca %"class.llvh::StringRef", align 8
  %agg.tmp.i.i1320 = alloca %"class.llvh::StringRef", align 8
  %S.i1321 = alloca %"class.llvh::StringLiteral", align 8
  %this.addr.i1322 = alloca ptr, align 8
  %Value.addr.i1323 = alloca i32, align 4
  %agg.tmp.i1324 = alloca %"class.llvh::StringRef", align 8
  %agg.tmp2.i1325 = alloca %"class.llvh::StringRef", align 8
  %LHS.i.i1301 = alloca %"class.llvh::StringRef", align 8
  %RHS.i.i1302 = alloca %"class.llvh::StringRef", align 8
  %agg.tmp.i.i1303 = alloca %"class.llvh::StringRef", align 8
  %S.i1304 = alloca %"class.llvh::StringLiteral", align 8
  %this.addr.i1305 = alloca ptr, align 8
  %Value.addr.i1306 = alloca i32, align 4
  %agg.tmp.i1307 = alloca %"class.llvh::StringRef", align 8
  %agg.tmp2.i1308 = alloca %"class.llvh::StringRef", align 8
  %LHS.i.i1284 = alloca %"class.llvh::StringRef", align 8
  %RHS.i.i1285 = alloca %"class.llvh::StringRef", align 8
  %agg.tmp.i.i1286 = alloca %"class.llvh::StringRef", align 8
  %S.i1287 = alloca %"class.llvh::StringLiteral", align 8
  %this.addr.i1288 = alloca ptr, align 8
  %Value.addr.i1289 = alloca i32, align 4
  %agg.tmp.i1290 = alloca %"class.llvh::StringRef", align 8
  %agg.tmp2.i1291 = alloca %"class.llvh::StringRef", align 8
  %LHS.i.i1267 = alloca %"class.llvh::StringRef", align 8
  %RHS.i.i1268 = alloca %"class.llvh::StringRef", align 8
  %agg.tmp.i.i1269 = alloca %"class.llvh::StringRef", align 8
  %S.i1270 = alloca %"class.llvh::StringLiteral", align 8
  %this.addr.i1271 = alloca ptr, align 8
  %Value.addr.i1272 = alloca i32, align 4
  %agg.tmp.i1273 = alloca %"class.llvh::StringRef", align 8
  %agg.tmp2.i1274 = alloca %"class.llvh::StringRef", align 8
  %LHS.i.i1250 = alloca %"class.llvh::StringRef", align 8
  %RHS.i.i1251 = alloca %"class.llvh::StringRef", align 8
  %agg.tmp.i.i1252 = alloca %"class.llvh::StringRef", align 8
  %S.i1253 = alloca %"class.llvh::StringLiteral", align 8
  %this.addr.i1254 = alloca ptr, align 8
  %Value.addr.i1255 = alloca i32, align 4
  %agg.tmp.i1256 = alloca %"class.llvh::StringRef", align 8
  %agg.tmp2.i1257 = alloca %"class.llvh::StringRef", align 8
  %LHS.i.i1233 = alloca %"class.llvh::StringRef", align 8
  %RHS.i.i1234 = alloca %"class.llvh::StringRef", align 8
  %agg.tmp.i.i1235 = alloca %"class.llvh::StringRef", align 8
  %S.i1236 = alloca %"class.llvh::StringLiteral", align 8
  %this.addr.i1237 = alloca ptr, align 8
  %Value.addr.i1238 = alloca i32, align 4
  %agg.tmp.i1239 = alloca %"class.llvh::StringRef", align 8
  %agg.tmp2.i1240 = alloca %"class.llvh::StringRef", align 8
  %LHS.i.i1216 = alloca %"class.llvh::StringRef", align 8
  %RHS.i.i1217 = alloca %"class.llvh::StringRef", align 8
  %agg.tmp.i.i1218 = alloca %"class.llvh::StringRef", align 8
  %S.i1219 = alloca %"class.llvh::StringLiteral", align 8
  %this.addr.i1220 = alloca ptr, align 8
  %Value.addr.i1221 = alloca i32, align 4
  %agg.tmp.i1222 = alloca %"class.llvh::StringRef", align 8
  %agg.tmp2.i1223 = alloca %"class.llvh::StringRef", align 8
  %LHS.i.i1199 = alloca %"class.llvh::StringRef", align 8
  %RHS.i.i1200 = alloca %"class.llvh::StringRef", align 8
  %agg.tmp.i.i1201 = alloca %"class.llvh::StringRef", align 8
  %S.i1202 = alloca %"class.llvh::StringLiteral", align 8
  %this.addr.i1203 = alloca ptr, align 8
  %Value.addr.i1204 = alloca i32, align 4
  %agg.tmp.i1205 = alloca %"class.llvh::StringRef", align 8
  %agg.tmp2.i1206 = alloca %"class.llvh::StringRef", align 8
  %LHS.i.i1182 = alloca %"class.llvh::StringRef", align 8
  %RHS.i.i1183 = alloca %"class.llvh::StringRef", align 8
  %agg.tmp.i.i1184 = alloca %"class.llvh::StringRef", align 8
  %S.i1185 = alloca %"class.llvh::StringLiteral", align 8
  %this.addr.i1186 = alloca ptr, align 8
  %Value.addr.i1187 = alloca i32, align 4
  %agg.tmp.i1188 = alloca %"class.llvh::StringRef", align 8
  %agg.tmp2.i1189 = alloca %"class.llvh::StringRef", align 8
  %LHS.i.i1165 = alloca %"class.llvh::StringRef", align 8
  %RHS.i.i1166 = alloca %"class.llvh::StringRef", align 8
  %agg.tmp.i.i1167 = alloca %"class.llvh::StringRef", align 8
  %S.i1168 = alloca %"class.llvh::StringLiteral", align 8
  %this.addr.i1169 = alloca ptr, align 8
  %Value.addr.i1170 = alloca i32, align 4
  %agg.tmp.i1171 = alloca %"class.llvh::StringRef", align 8
  %agg.tmp2.i1172 = alloca %"class.llvh::StringRef", align 8
  %LHS.i.i1148 = alloca %"class.llvh::StringRef", align 8
  %RHS.i.i1149 = alloca %"class.llvh::StringRef", align 8
  %agg.tmp.i.i1150 = alloca %"class.llvh::StringRef", align 8
  %S.i1151 = alloca %"class.llvh::StringLiteral", align 8
  %this.addr.i1152 = alloca ptr, align 8
  %Value.addr.i1153 = alloca i32, align 4
  %agg.tmp.i1154 = alloca %"class.llvh::StringRef", align 8
  %agg.tmp2.i1155 = alloca %"class.llvh::StringRef", align 8
  %LHS.i.i1131 = alloca %"class.llvh::StringRef", align 8
  %RHS.i.i1132 = alloca %"class.llvh::StringRef", align 8
  %agg.tmp.i.i1133 = alloca %"class.llvh::StringRef", align 8
  %S.i1134 = alloca %"class.llvh::StringLiteral", align 8
  %this.addr.i1135 = alloca ptr, align 8
  %Value.addr.i1136 = alloca i32, align 4
  %agg.tmp.i1137 = alloca %"class.llvh::StringRef", align 8
  %agg.tmp2.i1138 = alloca %"class.llvh::StringRef", align 8
  %LHS.i.i1114 = alloca %"class.llvh::StringRef", align 8
  %RHS.i.i1115 = alloca %"class.llvh::StringRef", align 8
  %agg.tmp.i.i1116 = alloca %"class.llvh::StringRef", align 8
  %S.i1117 = alloca %"class.llvh::StringLiteral", align 8
  %this.addr.i1118 = alloca ptr, align 8
  %Value.addr.i1119 = alloca i32, align 4
  %agg.tmp.i1120 = alloca %"class.llvh::StringRef", align 8
  %agg.tmp2.i1121 = alloca %"class.llvh::StringRef", align 8
  %LHS.i.i1097 = alloca %"class.llvh::StringRef", align 8
  %RHS.i.i1098 = alloca %"class.llvh::StringRef", align 8
  %agg.tmp.i.i1099 = alloca %"class.llvh::StringRef", align 8
  %S.i1100 = alloca %"class.llvh::StringLiteral", align 8
  %this.addr.i1101 = alloca ptr, align 8
  %Value.addr.i1102 = alloca i32, align 4
  %agg.tmp.i1103 = alloca %"class.llvh::StringRef", align 8
  %agg.tmp2.i1104 = alloca %"class.llvh::StringRef", align 8
  %LHS.i.i1080 = alloca %"class.llvh::StringRef", align 8
  %RHS.i.i1081 = alloca %"class.llvh::StringRef", align 8
  %agg.tmp.i.i1082 = alloca %"class.llvh::StringRef", align 8
  %S.i1083 = alloca %"class.llvh::StringLiteral", align 8
  %this.addr.i1084 = alloca ptr, align 8
  %Value.addr.i1085 = alloca i32, align 4
  %agg.tmp.i1086 = alloca %"class.llvh::StringRef", align 8
  %agg.tmp2.i1087 = alloca %"class.llvh::StringRef", align 8
  %LHS.i.i1063 = alloca %"class.llvh::StringRef", align 8
  %RHS.i.i1064 = alloca %"class.llvh::StringRef", align 8
  %agg.tmp.i.i1065 = alloca %"class.llvh::StringRef", align 8
  %S.i1066 = alloca %"class.llvh::StringLiteral", align 8
  %this.addr.i1067 = alloca ptr, align 8
  %Value.addr.i1068 = alloca i32, align 4
  %agg.tmp.i1069 = alloca %"class.llvh::StringRef", align 8
  %agg.tmp2.i1070 = alloca %"class.llvh::StringRef", align 8
  %LHS.i.i1046 = alloca %"class.llvh::StringRef", align 8
  %RHS.i.i1047 = alloca %"class.llvh::StringRef", align 8
  %agg.tmp.i.i1048 = alloca %"class.llvh::StringRef", align 8
  %S.i1049 = alloca %"class.llvh::StringLiteral", align 8
  %this.addr.i1050 = alloca ptr, align 8
  %Value.addr.i1051 = alloca i32, align 4
  %agg.tmp.i1052 = alloca %"class.llvh::StringRef", align 8
  %agg.tmp2.i1053 = alloca %"class.llvh::StringRef", align 8
  %LHS.i.i1029 = alloca %"class.llvh::StringRef", align 8
  %RHS.i.i1030 = alloca %"class.llvh::StringRef", align 8
  %agg.tmp.i.i1031 = alloca %"class.llvh::StringRef", align 8
  %S.i1032 = alloca %"class.llvh::StringLiteral", align 8
  %this.addr.i1033 = alloca ptr, align 8
  %Value.addr.i1034 = alloca i32, align 4
  %agg.tmp.i1035 = alloca %"class.llvh::StringRef", align 8
  %agg.tmp2.i1036 = alloca %"class.llvh::StringRef", align 8
  %LHS.i.i1012 = alloca %"class.llvh::StringRef", align 8
  %RHS.i.i1013 = alloca %"class.llvh::StringRef", align 8
  %agg.tmp.i.i1014 = alloca %"class.llvh::StringRef", align 8
  %S.i1015 = alloca %"class.llvh::StringLiteral", align 8
  %this.addr.i1016 = alloca ptr, align 8
  %Value.addr.i1017 = alloca i32, align 4
  %agg.tmp.i1018 = alloca %"class.llvh::StringRef", align 8
  %agg.tmp2.i1019 = alloca %"class.llvh::StringRef", align 8
  %LHS.i.i995 = alloca %"class.llvh::StringRef", align 8
  %RHS.i.i996 = alloca %"class.llvh::StringRef", align 8
  %agg.tmp.i.i997 = alloca %"class.llvh::StringRef", align 8
  %S.i998 = alloca %"class.llvh::StringLiteral", align 8
  %this.addr.i999 = alloca ptr, align 8
  %Value.addr.i1000 = alloca i32, align 4
  %agg.tmp.i1001 = alloca %"class.llvh::StringRef", align 8
  %agg.tmp2.i1002 = alloca %"class.llvh::StringRef", align 8
  %LHS.i.i978 = alloca %"class.llvh::StringRef", align 8
  %RHS.i.i979 = alloca %"class.llvh::StringRef", align 8
  %agg.tmp.i.i980 = alloca %"class.llvh::StringRef", align 8
  %S.i981 = alloca %"class.llvh::StringLiteral", align 8
  %this.addr.i982 = alloca ptr, align 8
  %Value.addr.i983 = alloca i32, align 4
  %agg.tmp.i984 = alloca %"class.llvh::StringRef", align 8
  %agg.tmp2.i985 = alloca %"class.llvh::StringRef", align 8
  %LHS.i.i961 = alloca %"class.llvh::StringRef", align 8
  %RHS.i.i962 = alloca %"class.llvh::StringRef", align 8
  %agg.tmp.i.i963 = alloca %"class.llvh::StringRef", align 8
  %S.i964 = alloca %"class.llvh::StringLiteral", align 8
  %this.addr.i965 = alloca ptr, align 8
  %Value.addr.i966 = alloca i32, align 4
  %agg.tmp.i967 = alloca %"class.llvh::StringRef", align 8
  %agg.tmp2.i968 = alloca %"class.llvh::StringRef", align 8
  %LHS.i.i944 = alloca %"class.llvh::StringRef", align 8
  %RHS.i.i945 = alloca %"class.llvh::StringRef", align 8
  %agg.tmp.i.i946 = alloca %"class.llvh::StringRef", align 8
  %S.i947 = alloca %"class.llvh::StringLiteral", align 8
  %this.addr.i948 = alloca ptr, align 8
  %Value.addr.i949 = alloca i32, align 4
  %agg.tmp.i950 = alloca %"class.llvh::StringRef", align 8
  %agg.tmp2.i951 = alloca %"class.llvh::StringRef", align 8
  %LHS.i.i927 = alloca %"class.llvh::StringRef", align 8
  %RHS.i.i928 = alloca %"class.llvh::StringRef", align 8
  %agg.tmp.i.i929 = alloca %"class.llvh::StringRef", align 8
  %S.i930 = alloca %"class.llvh::StringLiteral", align 8
  %this.addr.i931 = alloca ptr, align 8
  %Value.addr.i932 = alloca i32, align 4
  %agg.tmp.i933 = alloca %"class.llvh::StringRef", align 8
  %agg.tmp2.i934 = alloca %"class.llvh::StringRef", align 8
  %LHS.i.i910 = alloca %"class.llvh::StringRef", align 8
  %RHS.i.i911 = alloca %"class.llvh::StringRef", align 8
  %agg.tmp.i.i912 = alloca %"class.llvh::StringRef", align 8
  %S.i913 = alloca %"class.llvh::StringLiteral", align 8
  %this.addr.i914 = alloca ptr, align 8
  %Value.addr.i915 = alloca i32, align 4
  %agg.tmp.i916 = alloca %"class.llvh::StringRef", align 8
  %agg.tmp2.i917 = alloca %"class.llvh::StringRef", align 8
  %LHS.i.i893 = alloca %"class.llvh::StringRef", align 8
  %RHS.i.i894 = alloca %"class.llvh::StringRef", align 8
  %agg.tmp.i.i895 = alloca %"class.llvh::StringRef", align 8
  %S.i896 = alloca %"class.llvh::StringLiteral", align 8
  %this.addr.i897 = alloca ptr, align 8
  %Value.addr.i898 = alloca i32, align 4
  %agg.tmp.i899 = alloca %"class.llvh::StringRef", align 8
  %agg.tmp2.i900 = alloca %"class.llvh::StringRef", align 8
  %LHS.i.i876 = alloca %"class.llvh::StringRef", align 8
  %RHS.i.i877 = alloca %"class.llvh::StringRef", align 8
  %agg.tmp.i.i878 = alloca %"class.llvh::StringRef", align 8
  %S.i879 = alloca %"class.llvh::StringLiteral", align 8
  %this.addr.i880 = alloca ptr, align 8
  %Value.addr.i881 = alloca i32, align 4
  %agg.tmp.i882 = alloca %"class.llvh::StringRef", align 8
  %agg.tmp2.i883 = alloca %"class.llvh::StringRef", align 8
  %LHS.i.i859 = alloca %"class.llvh::StringRef", align 8
  %RHS.i.i860 = alloca %"class.llvh::StringRef", align 8
  %agg.tmp.i.i861 = alloca %"class.llvh::StringRef", align 8
  %S.i862 = alloca %"class.llvh::StringLiteral", align 8
  %this.addr.i863 = alloca ptr, align 8
  %Value.addr.i864 = alloca i32, align 4
  %agg.tmp.i865 = alloca %"class.llvh::StringRef", align 8
  %agg.tmp2.i866 = alloca %"class.llvh::StringRef", align 8
  %LHS.i.i842 = alloca %"class.llvh::StringRef", align 8
  %RHS.i.i843 = alloca %"class.llvh::StringRef", align 8
  %agg.tmp.i.i844 = alloca %"class.llvh::StringRef", align 8
  %S.i845 = alloca %"class.llvh::StringLiteral", align 8
  %this.addr.i846 = alloca ptr, align 8
  %Value.addr.i847 = alloca i32, align 4
  %agg.tmp.i848 = alloca %"class.llvh::StringRef", align 8
  %agg.tmp2.i849 = alloca %"class.llvh::StringRef", align 8
  %LHS.i.i825 = alloca %"class.llvh::StringRef", align 8
  %RHS.i.i826 = alloca %"class.llvh::StringRef", align 8
  %agg.tmp.i.i827 = alloca %"class.llvh::StringRef", align 8
  %S.i828 = alloca %"class.llvh::StringLiteral", align 8
  %this.addr.i829 = alloca ptr, align 8
  %Value.addr.i830 = alloca i32, align 4
  %agg.tmp.i831 = alloca %"class.llvh::StringRef", align 8
  %agg.tmp2.i832 = alloca %"class.llvh::StringRef", align 8
  %LHS.i.i808 = alloca %"class.llvh::StringRef", align 8
  %RHS.i.i809 = alloca %"class.llvh::StringRef", align 8
  %agg.tmp.i.i810 = alloca %"class.llvh::StringRef", align 8
  %S.i811 = alloca %"class.llvh::StringLiteral", align 8
  %this.addr.i812 = alloca ptr, align 8
  %Value.addr.i813 = alloca i32, align 4
  %agg.tmp.i814 = alloca %"class.llvh::StringRef", align 8
  %agg.tmp2.i815 = alloca %"class.llvh::StringRef", align 8
  %LHS.i.i791 = alloca %"class.llvh::StringRef", align 8
  %RHS.i.i792 = alloca %"class.llvh::StringRef", align 8
  %agg.tmp.i.i793 = alloca %"class.llvh::StringRef", align 8
  %S.i794 = alloca %"class.llvh::StringLiteral", align 8
  %this.addr.i795 = alloca ptr, align 8
  %Value.addr.i796 = alloca i32, align 4
  %agg.tmp.i797 = alloca %"class.llvh::StringRef", align 8
  %agg.tmp2.i798 = alloca %"class.llvh::StringRef", align 8
  %LHS.i.i774 = alloca %"class.llvh::StringRef", align 8
  %RHS.i.i775 = alloca %"class.llvh::StringRef", align 8
  %agg.tmp.i.i776 = alloca %"class.llvh::StringRef", align 8
  %S.i777 = alloca %"class.llvh::StringLiteral", align 8
  %this.addr.i778 = alloca ptr, align 8
  %Value.addr.i779 = alloca i32, align 4
  %agg.tmp.i780 = alloca %"class.llvh::StringRef", align 8
  %agg.tmp2.i781 = alloca %"class.llvh::StringRef", align 8
  %LHS.i.i757 = alloca %"class.llvh::StringRef", align 8
  %RHS.i.i758 = alloca %"class.llvh::StringRef", align 8
  %agg.tmp.i.i759 = alloca %"class.llvh::StringRef", align 8
  %S.i760 = alloca %"class.llvh::StringLiteral", align 8
  %this.addr.i761 = alloca ptr, align 8
  %Value.addr.i762 = alloca i32, align 4
  %agg.tmp.i763 = alloca %"class.llvh::StringRef", align 8
  %agg.tmp2.i764 = alloca %"class.llvh::StringRef", align 8
  %LHS.i.i740 = alloca %"class.llvh::StringRef", align 8
  %RHS.i.i741 = alloca %"class.llvh::StringRef", align 8
  %agg.tmp.i.i742 = alloca %"class.llvh::StringRef", align 8
  %S.i743 = alloca %"class.llvh::StringLiteral", align 8
  %this.addr.i744 = alloca ptr, align 8
  %Value.addr.i745 = alloca i32, align 4
  %agg.tmp.i746 = alloca %"class.llvh::StringRef", align 8
  %agg.tmp2.i747 = alloca %"class.llvh::StringRef", align 8
  %LHS.i.i723 = alloca %"class.llvh::StringRef", align 8
  %RHS.i.i724 = alloca %"class.llvh::StringRef", align 8
  %agg.tmp.i.i725 = alloca %"class.llvh::StringRef", align 8
  %S.i726 = alloca %"class.llvh::StringLiteral", align 8
  %this.addr.i727 = alloca ptr, align 8
  %Value.addr.i728 = alloca i32, align 4
  %agg.tmp.i729 = alloca %"class.llvh::StringRef", align 8
  %agg.tmp2.i730 = alloca %"class.llvh::StringRef", align 8
  %LHS.i.i706 = alloca %"class.llvh::StringRef", align 8
  %RHS.i.i707 = alloca %"class.llvh::StringRef", align 8
  %agg.tmp.i.i708 = alloca %"class.llvh::StringRef", align 8
  %S.i709 = alloca %"class.llvh::StringLiteral", align 8
  %this.addr.i710 = alloca ptr, align 8
  %Value.addr.i711 = alloca i32, align 4
  %agg.tmp.i712 = alloca %"class.llvh::StringRef", align 8
  %agg.tmp2.i713 = alloca %"class.llvh::StringRef", align 8
  %LHS.i.i689 = alloca %"class.llvh::StringRef", align 8
  %RHS.i.i690 = alloca %"class.llvh::StringRef", align 8
  %agg.tmp.i.i691 = alloca %"class.llvh::StringRef", align 8
  %S.i692 = alloca %"class.llvh::StringLiteral", align 8
  %this.addr.i693 = alloca ptr, align 8
  %Value.addr.i694 = alloca i32, align 4
  %agg.tmp.i695 = alloca %"class.llvh::StringRef", align 8
  %agg.tmp2.i696 = alloca %"class.llvh::StringRef", align 8
  %LHS.i.i672 = alloca %"class.llvh::StringRef", align 8
  %RHS.i.i673 = alloca %"class.llvh::StringRef", align 8
  %agg.tmp.i.i674 = alloca %"class.llvh::StringRef", align 8
  %S.i675 = alloca %"class.llvh::StringLiteral", align 8
  %this.addr.i676 = alloca ptr, align 8
  %Value.addr.i677 = alloca i32, align 4
  %agg.tmp.i678 = alloca %"class.llvh::StringRef", align 8
  %agg.tmp2.i679 = alloca %"class.llvh::StringRef", align 8
  %LHS.i.i655 = alloca %"class.llvh::StringRef", align 8
  %RHS.i.i656 = alloca %"class.llvh::StringRef", align 8
  %agg.tmp.i.i657 = alloca %"class.llvh::StringRef", align 8
  %S.i658 = alloca %"class.llvh::StringLiteral", align 8
  %this.addr.i659 = alloca ptr, align 8
  %Value.addr.i660 = alloca i32, align 4
  %agg.tmp.i661 = alloca %"class.llvh::StringRef", align 8
  %agg.tmp2.i662 = alloca %"class.llvh::StringRef", align 8
  %LHS.i.i638 = alloca %"class.llvh::StringRef", align 8
  %RHS.i.i639 = alloca %"class.llvh::StringRef", align 8
  %agg.tmp.i.i640 = alloca %"class.llvh::StringRef", align 8
  %S.i641 = alloca %"class.llvh::StringLiteral", align 8
  %this.addr.i642 = alloca ptr, align 8
  %Value.addr.i643 = alloca i32, align 4
  %agg.tmp.i644 = alloca %"class.llvh::StringRef", align 8
  %agg.tmp2.i645 = alloca %"class.llvh::StringRef", align 8
  %LHS.i.i621 = alloca %"class.llvh::StringRef", align 8
  %RHS.i.i622 = alloca %"class.llvh::StringRef", align 8
  %agg.tmp.i.i623 = alloca %"class.llvh::StringRef", align 8
  %S.i624 = alloca %"class.llvh::StringLiteral", align 8
  %this.addr.i625 = alloca ptr, align 8
  %Value.addr.i626 = alloca i32, align 4
  %agg.tmp.i627 = alloca %"class.llvh::StringRef", align 8
  %agg.tmp2.i628 = alloca %"class.llvh::StringRef", align 8
  %LHS.i.i604 = alloca %"class.llvh::StringRef", align 8
  %RHS.i.i605 = alloca %"class.llvh::StringRef", align 8
  %agg.tmp.i.i606 = alloca %"class.llvh::StringRef", align 8
  %S.i607 = alloca %"class.llvh::StringLiteral", align 8
  %this.addr.i608 = alloca ptr, align 8
  %Value.addr.i609 = alloca i32, align 4
  %agg.tmp.i610 = alloca %"class.llvh::StringRef", align 8
  %agg.tmp2.i611 = alloca %"class.llvh::StringRef", align 8
  %LHS.i.i587 = alloca %"class.llvh::StringRef", align 8
  %RHS.i.i588 = alloca %"class.llvh::StringRef", align 8
  %agg.tmp.i.i589 = alloca %"class.llvh::StringRef", align 8
  %S.i590 = alloca %"class.llvh::StringLiteral", align 8
  %this.addr.i591 = alloca ptr, align 8
  %Value.addr.i592 = alloca i32, align 4
  %agg.tmp.i593 = alloca %"class.llvh::StringRef", align 8
  %agg.tmp2.i594 = alloca %"class.llvh::StringRef", align 8
  %LHS.i.i570 = alloca %"class.llvh::StringRef", align 8
  %RHS.i.i571 = alloca %"class.llvh::StringRef", align 8
  %agg.tmp.i.i572 = alloca %"class.llvh::StringRef", align 8
  %S.i573 = alloca %"class.llvh::StringLiteral", align 8
  %this.addr.i574 = alloca ptr, align 8
  %Value.addr.i575 = alloca i32, align 4
  %agg.tmp.i576 = alloca %"class.llvh::StringRef", align 8
  %agg.tmp2.i577 = alloca %"class.llvh::StringRef", align 8
  %LHS.i.i553 = alloca %"class.llvh::StringRef", align 8
  %RHS.i.i554 = alloca %"class.llvh::StringRef", align 8
  %agg.tmp.i.i555 = alloca %"class.llvh::StringRef", align 8
  %S.i556 = alloca %"class.llvh::StringLiteral", align 8
  %this.addr.i557 = alloca ptr, align 8
  %Value.addr.i558 = alloca i32, align 4
  %agg.tmp.i559 = alloca %"class.llvh::StringRef", align 8
  %agg.tmp2.i560 = alloca %"class.llvh::StringRef", align 8
  %LHS.i.i536 = alloca %"class.llvh::StringRef", align 8
  %RHS.i.i537 = alloca %"class.llvh::StringRef", align 8
  %agg.tmp.i.i538 = alloca %"class.llvh::StringRef", align 8
  %S.i539 = alloca %"class.llvh::StringLiteral", align 8
  %this.addr.i540 = alloca ptr, align 8
  %Value.addr.i541 = alloca i32, align 4
  %agg.tmp.i542 = alloca %"class.llvh::StringRef", align 8
  %agg.tmp2.i543 = alloca %"class.llvh::StringRef", align 8
  %LHS.i.i519 = alloca %"class.llvh::StringRef", align 8
  %RHS.i.i520 = alloca %"class.llvh::StringRef", align 8
  %agg.tmp.i.i521 = alloca %"class.llvh::StringRef", align 8
  %S.i522 = alloca %"class.llvh::StringLiteral", align 8
  %this.addr.i523 = alloca ptr, align 8
  %Value.addr.i524 = alloca i32, align 4
  %agg.tmp.i525 = alloca %"class.llvh::StringRef", align 8
  %agg.tmp2.i526 = alloca %"class.llvh::StringRef", align 8
  %LHS.i.i502 = alloca %"class.llvh::StringRef", align 8
  %RHS.i.i503 = alloca %"class.llvh::StringRef", align 8
  %agg.tmp.i.i504 = alloca %"class.llvh::StringRef", align 8
  %S.i505 = alloca %"class.llvh::StringLiteral", align 8
  %this.addr.i506 = alloca ptr, align 8
  %Value.addr.i507 = alloca i32, align 4
  %agg.tmp.i508 = alloca %"class.llvh::StringRef", align 8
  %agg.tmp2.i509 = alloca %"class.llvh::StringRef", align 8
  %LHS.i.i485 = alloca %"class.llvh::StringRef", align 8
  %RHS.i.i486 = alloca %"class.llvh::StringRef", align 8
  %agg.tmp.i.i487 = alloca %"class.llvh::StringRef", align 8
  %S.i488 = alloca %"class.llvh::StringLiteral", align 8
  %this.addr.i489 = alloca ptr, align 8
  %Value.addr.i490 = alloca i32, align 4
  %agg.tmp.i491 = alloca %"class.llvh::StringRef", align 8
  %agg.tmp2.i492 = alloca %"class.llvh::StringRef", align 8
  %LHS.i.i468 = alloca %"class.llvh::StringRef", align 8
  %RHS.i.i469 = alloca %"class.llvh::StringRef", align 8
  %agg.tmp.i.i470 = alloca %"class.llvh::StringRef", align 8
  %S.i471 = alloca %"class.llvh::StringLiteral", align 8
  %this.addr.i472 = alloca ptr, align 8
  %Value.addr.i473 = alloca i32, align 4
  %agg.tmp.i474 = alloca %"class.llvh::StringRef", align 8
  %agg.tmp2.i475 = alloca %"class.llvh::StringRef", align 8
  %LHS.i.i451 = alloca %"class.llvh::StringRef", align 8
  %RHS.i.i452 = alloca %"class.llvh::StringRef", align 8
  %agg.tmp.i.i453 = alloca %"class.llvh::StringRef", align 8
  %S.i454 = alloca %"class.llvh::StringLiteral", align 8
  %this.addr.i455 = alloca ptr, align 8
  %Value.addr.i456 = alloca i32, align 4
  %agg.tmp.i457 = alloca %"class.llvh::StringRef", align 8
  %agg.tmp2.i458 = alloca %"class.llvh::StringRef", align 8
  %LHS.i.i434 = alloca %"class.llvh::StringRef", align 8
  %RHS.i.i435 = alloca %"class.llvh::StringRef", align 8
  %agg.tmp.i.i436 = alloca %"class.llvh::StringRef", align 8
  %S.i437 = alloca %"class.llvh::StringLiteral", align 8
  %this.addr.i438 = alloca ptr, align 8
  %Value.addr.i439 = alloca i32, align 4
  %agg.tmp.i440 = alloca %"class.llvh::StringRef", align 8
  %agg.tmp2.i441 = alloca %"class.llvh::StringRef", align 8
  %LHS.i.i417 = alloca %"class.llvh::StringRef", align 8
  %RHS.i.i418 = alloca %"class.llvh::StringRef", align 8
  %agg.tmp.i.i419 = alloca %"class.llvh::StringRef", align 8
  %S.i420 = alloca %"class.llvh::StringLiteral", align 8
  %this.addr.i421 = alloca ptr, align 8
  %Value.addr.i422 = alloca i32, align 4
  %agg.tmp.i423 = alloca %"class.llvh::StringRef", align 8
  %agg.tmp2.i424 = alloca %"class.llvh::StringRef", align 8
  %LHS.i.i400 = alloca %"class.llvh::StringRef", align 8
  %RHS.i.i401 = alloca %"class.llvh::StringRef", align 8
  %agg.tmp.i.i402 = alloca %"class.llvh::StringRef", align 8
  %S.i403 = alloca %"class.llvh::StringLiteral", align 8
  %this.addr.i404 = alloca ptr, align 8
  %Value.addr.i405 = alloca i32, align 4
  %agg.tmp.i406 = alloca %"class.llvh::StringRef", align 8
  %agg.tmp2.i407 = alloca %"class.llvh::StringRef", align 8
  %LHS.i.i383 = alloca %"class.llvh::StringRef", align 8
  %RHS.i.i384 = alloca %"class.llvh::StringRef", align 8
  %agg.tmp.i.i385 = alloca %"class.llvh::StringRef", align 8
  %S.i386 = alloca %"class.llvh::StringLiteral", align 8
  %this.addr.i387 = alloca ptr, align 8
  %Value.addr.i388 = alloca i32, align 4
  %agg.tmp.i389 = alloca %"class.llvh::StringRef", align 8
  %agg.tmp2.i390 = alloca %"class.llvh::StringRef", align 8
  %LHS.i.i366 = alloca %"class.llvh::StringRef", align 8
  %RHS.i.i367 = alloca %"class.llvh::StringRef", align 8
  %agg.tmp.i.i368 = alloca %"class.llvh::StringRef", align 8
  %S.i369 = alloca %"class.llvh::StringLiteral", align 8
  %this.addr.i370 = alloca ptr, align 8
  %Value.addr.i371 = alloca i32, align 4
  %agg.tmp.i372 = alloca %"class.llvh::StringRef", align 8
  %agg.tmp2.i373 = alloca %"class.llvh::StringRef", align 8
  %LHS.i.i349 = alloca %"class.llvh::StringRef", align 8
  %RHS.i.i350 = alloca %"class.llvh::StringRef", align 8
  %agg.tmp.i.i351 = alloca %"class.llvh::StringRef", align 8
  %S.i352 = alloca %"class.llvh::StringLiteral", align 8
  %this.addr.i353 = alloca ptr, align 8
  %Value.addr.i354 = alloca i32, align 4
  %agg.tmp.i355 = alloca %"class.llvh::StringRef", align 8
  %agg.tmp2.i356 = alloca %"class.llvh::StringRef", align 8
  %LHS.i.i332 = alloca %"class.llvh::StringRef", align 8
  %RHS.i.i333 = alloca %"class.llvh::StringRef", align 8
  %agg.tmp.i.i334 = alloca %"class.llvh::StringRef", align 8
  %S.i335 = alloca %"class.llvh::StringLiteral", align 8
  %this.addr.i336 = alloca ptr, align 8
  %Value.addr.i337 = alloca i32, align 4
  %agg.tmp.i338 = alloca %"class.llvh::StringRef", align 8
  %agg.tmp2.i339 = alloca %"class.llvh::StringRef", align 8
  %LHS.i.i315 = alloca %"class.llvh::StringRef", align 8
  %RHS.i.i316 = alloca %"class.llvh::StringRef", align 8
  %agg.tmp.i.i317 = alloca %"class.llvh::StringRef", align 8
  %S.i318 = alloca %"class.llvh::StringLiteral", align 8
  %this.addr.i319 = alloca ptr, align 8
  %Value.addr.i320 = alloca i32, align 4
  %agg.tmp.i321 = alloca %"class.llvh::StringRef", align 8
  %agg.tmp2.i322 = alloca %"class.llvh::StringRef", align 8
  %LHS.i.i298 = alloca %"class.llvh::StringRef", align 8
  %RHS.i.i299 = alloca %"class.llvh::StringRef", align 8
  %agg.tmp.i.i300 = alloca %"class.llvh::StringRef", align 8
  %S.i301 = alloca %"class.llvh::StringLiteral", align 8
  %this.addr.i302 = alloca ptr, align 8
  %Value.addr.i303 = alloca i32, align 4
  %agg.tmp.i304 = alloca %"class.llvh::StringRef", align 8
  %agg.tmp2.i305 = alloca %"class.llvh::StringRef", align 8
  %LHS.i.i281 = alloca %"class.llvh::StringRef", align 8
  %RHS.i.i282 = alloca %"class.llvh::StringRef", align 8
  %agg.tmp.i.i283 = alloca %"class.llvh::StringRef", align 8
  %S.i284 = alloca %"class.llvh::StringLiteral", align 8
  %this.addr.i285 = alloca ptr, align 8
  %Value.addr.i286 = alloca i32, align 4
  %agg.tmp.i287 = alloca %"class.llvh::StringRef", align 8
  %agg.tmp2.i288 = alloca %"class.llvh::StringRef", align 8
  %LHS.i.i264 = alloca %"class.llvh::StringRef", align 8
  %RHS.i.i265 = alloca %"class.llvh::StringRef", align 8
  %agg.tmp.i.i266 = alloca %"class.llvh::StringRef", align 8
  %S.i267 = alloca %"class.llvh::StringLiteral", align 8
  %this.addr.i268 = alloca ptr, align 8
  %Value.addr.i269 = alloca i32, align 4
  %agg.tmp.i270 = alloca %"class.llvh::StringRef", align 8
  %agg.tmp2.i271 = alloca %"class.llvh::StringRef", align 8
  %LHS.i.i247 = alloca %"class.llvh::StringRef", align 8
  %RHS.i.i248 = alloca %"class.llvh::StringRef", align 8
  %agg.tmp.i.i249 = alloca %"class.llvh::StringRef", align 8
  %S.i250 = alloca %"class.llvh::StringLiteral", align 8
  %this.addr.i251 = alloca ptr, align 8
  %Value.addr.i252 = alloca i32, align 4
  %agg.tmp.i253 = alloca %"class.llvh::StringRef", align 8
  %agg.tmp2.i254 = alloca %"class.llvh::StringRef", align 8
  %LHS.i.i230 = alloca %"class.llvh::StringRef", align 8
  %RHS.i.i231 = alloca %"class.llvh::StringRef", align 8
  %agg.tmp.i.i232 = alloca %"class.llvh::StringRef", align 8
  %S.i233 = alloca %"class.llvh::StringLiteral", align 8
  %this.addr.i234 = alloca ptr, align 8
  %Value.addr.i235 = alloca i32, align 4
  %agg.tmp.i236 = alloca %"class.llvh::StringRef", align 8
  %agg.tmp2.i237 = alloca %"class.llvh::StringRef", align 8
  %LHS.i.i213 = alloca %"class.llvh::StringRef", align 8
  %RHS.i.i214 = alloca %"class.llvh::StringRef", align 8
  %agg.tmp.i.i215 = alloca %"class.llvh::StringRef", align 8
  %S.i216 = alloca %"class.llvh::StringLiteral", align 8
  %this.addr.i217 = alloca ptr, align 8
  %Value.addr.i218 = alloca i32, align 4
  %agg.tmp.i219 = alloca %"class.llvh::StringRef", align 8
  %agg.tmp2.i220 = alloca %"class.llvh::StringRef", align 8
  %LHS.i.i196 = alloca %"class.llvh::StringRef", align 8
  %RHS.i.i197 = alloca %"class.llvh::StringRef", align 8
  %agg.tmp.i.i198 = alloca %"class.llvh::StringRef", align 8
  %S.i199 = alloca %"class.llvh::StringLiteral", align 8
  %this.addr.i200 = alloca ptr, align 8
  %Value.addr.i201 = alloca i32, align 4
  %agg.tmp.i202 = alloca %"class.llvh::StringRef", align 8
  %agg.tmp2.i203 = alloca %"class.llvh::StringRef", align 8
  %LHS.i.i179 = alloca %"class.llvh::StringRef", align 8
  %RHS.i.i180 = alloca %"class.llvh::StringRef", align 8
  %agg.tmp.i.i181 = alloca %"class.llvh::StringRef", align 8
  %S.i182 = alloca %"class.llvh::StringLiteral", align 8
  %this.addr.i183 = alloca ptr, align 8
  %Value.addr.i184 = alloca i32, align 4
  %agg.tmp.i185 = alloca %"class.llvh::StringRef", align 8
  %agg.tmp2.i186 = alloca %"class.llvh::StringRef", align 8
  %LHS.i.i = alloca %"class.llvh::StringRef", align 8
  %RHS.i.i = alloca %"class.llvh::StringRef", align 8
  %agg.tmp.i.i = alloca %"class.llvh::StringRef", align 8
  %S.i173 = alloca %"class.llvh::StringLiteral", align 8
  %this.addr.i174 = alloca ptr, align 8
  %Value.addr.i = alloca i32, align 4
  %agg.tmp.i175 = alloca %"class.llvh::StringRef", align 8
  %agg.tmp2.i = alloca %"class.llvh::StringRef", align 8
  %S.i = alloca %"class.llvh::StringRef", align 8
  %this.addr.i171 = alloca ptr, align 8
  %this.addr.i = alloca ptr, align 8
  %Str.addr.i = alloca ptr, align 8
  %LHS.i = alloca %"class.llvh::StringRef", align 8
  %RHS.i = alloca %"class.llvh::StringRef", align 8
  %agg.tmp.i = alloca %"class.llvh::StringRef", align 8
  %retval = alloca i32, align 4
  %CPU = alloca %"class.llvh::StringRef", align 8
  %AK.addr = alloca i32, align 4
  %agg.tmp = alloca %"class.llvh::StringRef", align 8
  %agg.tmp1 = alloca %"class.llvh::StringRef", align 8
  %ref.tmp = alloca %"class.llvh::StringSwitch", align 8
  %agg.tmp2 = alloca %"class.llvh::StringRef", align 8
  %agg.tmp3 = alloca %"class.llvh::StringLiteral", align 8
  %agg.tmp5 = alloca %"class.llvh::StringLiteral", align 8
  %agg.tmp7 = alloca %"class.llvh::StringLiteral", align 8
  %agg.tmp9 = alloca %"class.llvh::StringLiteral", align 8
  %agg.tmp11 = alloca %"class.llvh::StringLiteral", align 8
  %agg.tmp13 = alloca %"class.llvh::StringLiteral", align 8
  %agg.tmp15 = alloca %"class.llvh::StringLiteral", align 8
  %agg.tmp17 = alloca %"class.llvh::StringLiteral", align 8
  %agg.tmp19 = alloca %"class.llvh::StringLiteral", align 8
  %agg.tmp21 = alloca %"class.llvh::StringLiteral", align 8
  %agg.tmp23 = alloca %"class.llvh::StringLiteral", align 8
  %agg.tmp25 = alloca %"class.llvh::StringLiteral", align 8
  %agg.tmp27 = alloca %"class.llvh::StringLiteral", align 8
  %agg.tmp29 = alloca %"class.llvh::StringLiteral", align 8
  %agg.tmp31 = alloca %"class.llvh::StringLiteral", align 8
  %agg.tmp33 = alloca %"class.llvh::StringLiteral", align 8
  %agg.tmp35 = alloca %"class.llvh::StringLiteral", align 8
  %agg.tmp37 = alloca %"class.llvh::StringLiteral", align 8
  %agg.tmp39 = alloca %"class.llvh::StringLiteral", align 8
  %agg.tmp41 = alloca %"class.llvh::StringLiteral", align 8
  %agg.tmp43 = alloca %"class.llvh::StringLiteral", align 8
  %agg.tmp45 = alloca %"class.llvh::StringLiteral", align 8
  %agg.tmp47 = alloca %"class.llvh::StringLiteral", align 8
  %agg.tmp49 = alloca %"class.llvh::StringLiteral", align 8
  %agg.tmp51 = alloca %"class.llvh::StringLiteral", align 8
  %agg.tmp53 = alloca %"class.llvh::StringLiteral", align 8
  %agg.tmp55 = alloca %"class.llvh::StringLiteral", align 8
  %agg.tmp57 = alloca %"class.llvh::StringLiteral", align 8
  %agg.tmp59 = alloca %"class.llvh::StringLiteral", align 8
  %agg.tmp61 = alloca %"class.llvh::StringLiteral", align 8
  %agg.tmp63 = alloca %"class.llvh::StringLiteral", align 8
  %agg.tmp65 = alloca %"class.llvh::StringLiteral", align 8
  %agg.tmp67 = alloca %"class.llvh::StringLiteral", align 8
  %agg.tmp69 = alloca %"class.llvh::StringLiteral", align 8
  %agg.tmp71 = alloca %"class.llvh::StringLiteral", align 8
  %agg.tmp73 = alloca %"class.llvh::StringLiteral", align 8
  %agg.tmp75 = alloca %"class.llvh::StringLiteral", align 8
  %agg.tmp77 = alloca %"class.llvh::StringLiteral", align 8
  %agg.tmp79 = alloca %"class.llvh::StringLiteral", align 8
  %agg.tmp81 = alloca %"class.llvh::StringLiteral", align 8
  %agg.tmp83 = alloca %"class.llvh::StringLiteral", align 8
  %agg.tmp85 = alloca %"class.llvh::StringLiteral", align 8
  %agg.tmp87 = alloca %"class.llvh::StringLiteral", align 8
  %agg.tmp89 = alloca %"class.llvh::StringLiteral", align 8
  %agg.tmp91 = alloca %"class.llvh::StringLiteral", align 8
  %agg.tmp93 = alloca %"class.llvh::StringLiteral", align 8
  %agg.tmp95 = alloca %"class.llvh::StringLiteral", align 8
  %agg.tmp97 = alloca %"class.llvh::StringLiteral", align 8
  %agg.tmp99 = alloca %"class.llvh::StringLiteral", align 8
  %agg.tmp101 = alloca %"class.llvh::StringLiteral", align 8
  %agg.tmp103 = alloca %"class.llvh::StringLiteral", align 8
  %agg.tmp105 = alloca %"class.llvh::StringLiteral", align 8
  %agg.tmp107 = alloca %"class.llvh::StringLiteral", align 8
  %agg.tmp109 = alloca %"class.llvh::StringLiteral", align 8
  %agg.tmp111 = alloca %"class.llvh::StringLiteral", align 8
  %agg.tmp113 = alloca %"class.llvh::StringLiteral", align 8
  %agg.tmp115 = alloca %"class.llvh::StringLiteral", align 8
  %agg.tmp117 = alloca %"class.llvh::StringLiteral", align 8
  %agg.tmp119 = alloca %"class.llvh::StringLiteral", align 8
  %agg.tmp121 = alloca %"class.llvh::StringLiteral", align 8
  %agg.tmp123 = alloca %"class.llvh::StringLiteral", align 8
  %agg.tmp125 = alloca %"class.llvh::StringLiteral", align 8
  %agg.tmp127 = alloca %"class.llvh::StringLiteral", align 8
  %agg.tmp129 = alloca %"class.llvh::StringLiteral", align 8
  %agg.tmp131 = alloca %"class.llvh::StringLiteral", align 8
  %agg.tmp133 = alloca %"class.llvh::StringLiteral", align 8
  %agg.tmp135 = alloca %"class.llvh::StringLiteral", align 8
  %agg.tmp137 = alloca %"class.llvh::StringLiteral", align 8
  %agg.tmp139 = alloca %"class.llvh::StringLiteral", align 8
  %agg.tmp141 = alloca %"class.llvh::StringLiteral", align 8
  %agg.tmp143 = alloca %"class.llvh::StringLiteral", align 8
  %agg.tmp145 = alloca %"class.llvh::StringLiteral", align 8
  %agg.tmp147 = alloca %"class.llvh::StringLiteral", align 8
  %agg.tmp149 = alloca %"class.llvh::StringLiteral", align 8
  %agg.tmp151 = alloca %"class.llvh::StringLiteral", align 8
  %agg.tmp153 = alloca %"class.llvh::StringLiteral", align 8
  %agg.tmp155 = alloca %"class.llvh::StringLiteral", align 8
  %agg.tmp157 = alloca %"class.llvh::StringLiteral", align 8
  %agg.tmp159 = alloca %"class.llvh::StringLiteral", align 8
  %agg.tmp161 = alloca %"class.llvh::StringLiteral", align 8
  %agg.tmp163 = alloca %"class.llvh::StringLiteral", align 8
  %agg.tmp165 = alloca %"class.llvh::StringLiteral", align 8
  %agg.tmp167 = alloca %"class.llvh::StringLiteral", align 8
  %0 = getelementptr inbounds { ptr, i64 }, ptr %CPU, i32 0, i32 0
  store ptr %CPU.coerce0, ptr %0, align 8
  %1 = getelementptr inbounds { ptr, i64 }, ptr %CPU, i32 0, i32 1
  store i64 %CPU.coerce1, ptr %1, align 8
  store i32 %AK, ptr %AK.addr, align 4
  call void @llvm.memcpy.p0.p0.i64(ptr align 8 %agg.tmp, ptr align 8 %CPU, i64 16, i1 false)
  store ptr %agg.tmp1, ptr %this.addr.i, align 8
  store ptr @.str, ptr %Str.addr.i, align 8
  %this1.i = load ptr, ptr %this.addr.i, align 8
  %2 = load ptr, ptr %Str.addr.i, align 8
  store ptr %2, ptr %this1.i, align 8
  %Length.i = getelementptr inbounds %"class.llvh::StringRef", ptr %this1.i, i32 0, i32 1
  %3 = load ptr, ptr %Str.addr.i, align 8
  %tobool.i = icmp ne ptr %3, null
  br i1 %tobool.i, label %cond.true.i, label %cond.false.i

cond.true.i:                                      ; preds = %entry
  %4 = load ptr, ptr %Str.addr.i, align 8
  %call.i170 = call i64 @strlen(ptr noundef %4) #10
  br label %_ZN4llvh9StringRefC2EPKc.exit

cond.false.i:                                     ; preds = %entry
  br label %_ZN4llvh9StringRefC2EPKc.exit

_ZN4llvh9StringRefC2EPKc.exit:                    ; preds = %cond.false.i, %cond.true.i
  %cond.i = phi i64 [ %call.i170, %cond.true.i ], [ 0, %cond.false.i ]
  store i64 %cond.i, ptr %Length.i, align 8
  %5 = getelementptr inbounds { ptr, i64 }, ptr %agg.tmp, i32 0, i32 0
  %6 = load ptr, ptr %5, align 8
  %7 = getelementptr inbounds { ptr, i64 }, ptr %agg.tmp, i32 0, i32 1
  %8 = load i64, ptr %7, align 8
  %9 = getelementptr inbounds { ptr, i64 }, ptr %agg.tmp1, i32 0, i32 0
  %10 = load ptr, ptr %9, align 8
  %11 = getelementptr inbounds { ptr, i64 }, ptr %agg.tmp1, i32 0, i32 1
  %12 = load i64, ptr %11, align 8
  store ptr %6, ptr %LHS.i, align 8
  %13 = getelementptr inbounds { ptr, i64 }, ptr %LHS.i, i32 0, i32 1
  store i64 %8, ptr %13, align 8
  store ptr %10, ptr %RHS.i, align 8
  %14 = getelementptr inbounds { ptr, i64 }, ptr %RHS.i, i32 0, i32 1
  store i64 %12, ptr %14, align 8
  call void @llvm.memcpy.p0.p0.i64(ptr align 8 %agg.tmp.i, ptr align 8 %RHS.i, i64 16, i1 false)
  %15 = load ptr, ptr %agg.tmp.i, align 8
  %16 = getelementptr inbounds { ptr, i64 }, ptr %agg.tmp.i, i32 0, i32 1
  %17 = load i64, ptr %16, align 8
  store ptr %15, ptr %RHS.i2486, align 8
  %18 = getelementptr inbounds { ptr, i64 }, ptr %RHS.i2486, i32 0, i32 1
  store i64 %17, ptr %18, align 8
  store ptr %LHS.i, ptr %this.addr.i2487, align 8
  %this1.i2488 = load ptr, ptr %this.addr.i2487, align 8
  %Length.i2489 = getelementptr inbounds %"class.llvh::StringRef", ptr %this1.i2488, i32 0, i32 1
  %19 = load i64, ptr %Length.i2489, align 8
  %Length2.i2490 = getelementptr inbounds %"class.llvh::StringRef", ptr %RHS.i2486, i32 0, i32 1
  %20 = load i64, ptr %Length2.i2490, align 8
  %cmp.i2491 = icmp eq i64 %19, %20
  br i1 %cmp.i2491, label %land.rhs.i2492, label %_ZNK4llvh9StringRef6equalsES0_.exit2496

land.rhs.i2492:                                   ; preds = %_ZN4llvh9StringRefC2EPKc.exit
  %21 = load ptr, ptr %this1.i2488, align 8
  %22 = load ptr, ptr %RHS.i2486, align 8
  %Length4.i2493 = getelementptr inbounds %"class.llvh::StringRef", ptr %RHS.i2486, i32 0, i32 1
  %23 = load i64, ptr %Length4.i2493, align 8
  store ptr %21, ptr %Lhs.addr.i, align 8
  store ptr %22, ptr %Rhs.addr.i, align 8
  store i64 %23, ptr %Length.addr.i, align 8
  %24 = load i64, ptr %Length.addr.i, align 8
  %cmp.i2498 = icmp eq i64 %24, 0
  br i1 %cmp.i2498, label %if.then.i2500, label %if.end.i2499

if.then.i2500:                                    ; preds = %land.rhs.i2492
  store i32 0, ptr %retval.i2497, align 4
  br label %_ZN4llvh9StringRef13compareMemoryEPKcS2_m.exit

if.end.i2499:                                     ; preds = %land.rhs.i2492
  %25 = load ptr, ptr %Lhs.addr.i, align 8
  %26 = load ptr, ptr %Rhs.addr.i, align 8
  %27 = load i64, ptr %Length.addr.i, align 8
  %call.i = call i32 @memcmp(ptr noundef %25, ptr noundef %26, i64 noundef %27) #10
  store i32 %call.i, ptr %retval.i2497, align 4
  br label %_ZN4llvh9StringRef13compareMemoryEPKcS2_m.exit

_ZN4llvh9StringRef13compareMemoryEPKcS2_m.exit:   ; preds = %if.end.i2499, %if.then.i2500
  %28 = load i32, ptr %retval.i2497, align 4
  %cmp5.i2495 = icmp eq i32 %28, 0
  br label %_ZNK4llvh9StringRef6equalsES0_.exit2496

_ZNK4llvh9StringRef6equalsES0_.exit2496:          ; preds = %_ZN4llvh9StringRef13compareMemoryEPKcS2_m.exit, %_ZN4llvh9StringRefC2EPKc.exit
  %29 = phi i1 [ false, %_ZN4llvh9StringRefC2EPKc.exit ], [ %cmp5.i2495, %_ZN4llvh9StringRef13compareMemoryEPKcS2_m.exit ]
  br i1 %29, label %if.then, label %if.end

if.then:                                          ; preds = %_ZNK4llvh9StringRef6equalsES0_.exit2496
  %30 = load i32, ptr %AK.addr, align 4
  %idxprom = zext i32 %30 to i64
  %arrayidx = getelementptr inbounds [34 x %"struct.(anonymous namespace)::ArchNames"], ptr @_ZN12_GLOBAL__N_19ARCHNamesE, i64 0, i64 %idxprom
  %DefaultFPU = getelementptr inbounds %"struct.(anonymous namespace)::ArchNames", ptr %arrayidx, i32 0, i32 6
  %31 = load i32, ptr %DefaultFPU, align 16
  store i32 %31, ptr %retval, align 4
  br label %return

if.end:                                           ; preds = %_ZNK4llvh9StringRef6equalsES0_.exit2496
  call void @llvm.memcpy.p0.p0.i64(ptr align 8 %agg.tmp2, ptr align 8 %CPU, i64 16, i1 false)
  %32 = getelementptr inbounds { ptr, i64 }, ptr %agg.tmp2, i32 0, i32 0
  %33 = load ptr, ptr %32, align 8
  %34 = getelementptr inbounds { ptr, i64 }, ptr %agg.tmp2, i32 0, i32 1
  %35 = load i64, ptr %34, align 8
  store ptr %33, ptr %S.i, align 8
  %36 = getelementptr inbounds { ptr, i64 }, ptr %S.i, i32 0, i32 1
  store i64 %35, ptr %36, align 8
  store ptr %ref.tmp, ptr %this.addr.i171, align 8
  %this1.i172 = load ptr, ptr %this.addr.i171, align 8
  call void @llvm.memcpy.p0.p0.i64(ptr align 8 %this1.i172, ptr align 8 %S.i, i64 16, i1 false)
  %Result.i = getelementptr inbounds %"class.llvh::StringSwitch", ptr %this1.i172, i32 0, i32 1
  call void @_ZN4llvh8OptionalIjEC2Ev(ptr noundef nonnull align 4 dereferenceable(8) %Result.i)
  call void @_ZN4llvh13StringLiteralC2ILm5EEEUa9enable_ifIXeqclL_Z16__builtin_strlenEfL0p_EmiLm5ELi1EEERAT__Kc(ptr noundef nonnull align 8 dereferenceable(16) %agg.tmp3, ptr noundef nonnull align 1 dereferenceable(5) @.str.1)
  %37 = getelementptr inbounds { ptr, i64 }, ptr %agg.tmp3, i32 0, i32 0
  %38 = load ptr, ptr %37, align 8
  %39 = getelementptr inbounds { ptr, i64 }, ptr %agg.tmp3, i32 0, i32 1
  %40 = load i64, ptr %39, align 8
  store ptr %38, ptr %S.i1559, align 8
  %41 = getelementptr inbounds { ptr, i64 }, ptr %S.i1559, i32 0, i32 1
  store i64 %40, ptr %41, align 8
  store ptr %ref.tmp, ptr %this.addr.i1560, align 8
  store i32 1, ptr %Value.addr.i1561, align 4
  %this1.i1564 = load ptr, ptr %this.addr.i1560, align 8
  %Result.i1565 = getelementptr inbounds %"class.llvh::StringSwitch", ptr %this1.i1564, i32 0, i32 1
  %call.i1566 = call noundef zeroext i1 @_ZNK4llvh8OptionalIjEcvbEv(ptr noundef nonnull align 4 dereferenceable(8) %Result.i1565)
  br i1 %call.i1566, label %_ZN4llvh12StringSwitchIjjE4CaseENS_13StringLiteralEj.exit1572, label %land.lhs.true.i1567

land.lhs.true.i1567:                              ; preds = %if.end
  call void @llvm.memcpy.p0.p0.i64(ptr align 8 %agg.tmp.i1562, ptr align 8 %this1.i1564, i64 16, i1 false)
  call void @llvm.memcpy.p0.p0.i64(ptr align 8 %agg.tmp2.i1563, ptr align 8 %S.i1559, i64 16, i1 false)
  %42 = load ptr, ptr %agg.tmp.i1562, align 8
  %43 = getelementptr inbounds { ptr, i64 }, ptr %agg.tmp.i1562, i32 0, i32 1
  %44 = load i64, ptr %43, align 8
  %45 = load ptr, ptr %agg.tmp2.i1563, align 8
  %46 = getelementptr inbounds { ptr, i64 }, ptr %agg.tmp2.i1563, i32 0, i32 1
  %47 = load i64, ptr %46, align 8
  store ptr %42, ptr %LHS.i.i1556, align 8
  %48 = getelementptr inbounds { ptr, i64 }, ptr %LHS.i.i1556, i32 0, i32 1
  store i64 %44, ptr %48, align 8
  store ptr %45, ptr %RHS.i.i1557, align 8
  %49 = getelementptr inbounds { ptr, i64 }, ptr %RHS.i.i1557, i32 0, i32 1
  store i64 %47, ptr %49, align 8
  call void @llvm.memcpy.p0.p0.i64(ptr align 8 %agg.tmp.i.i1558, ptr align 8 %RHS.i.i1557, i64 16, i1 false)
  %50 = load ptr, ptr %agg.tmp.i.i1558, align 8
  %51 = getelementptr inbounds { ptr, i64 }, ptr %agg.tmp.i.i1558, i32 0, i32 1
  %52 = load i64, ptr %51, align 8
  store ptr %50, ptr %RHS.i1579, align 8
  %53 = getelementptr inbounds { ptr, i64 }, ptr %RHS.i1579, i32 0, i32 1
  store i64 %52, ptr %53, align 8
  store ptr %LHS.i.i1556, ptr %this.addr.i1580, align 8
  %this1.i1581 = load ptr, ptr %this.addr.i1580, align 8
  %Length.i1582 = getelementptr inbounds %"class.llvh::StringRef", ptr %this1.i1581, i32 0, i32 1
  %54 = load i64, ptr %Length.i1582, align 8
  %Length2.i = getelementptr inbounds %"class.llvh::StringRef", ptr %RHS.i1579, i32 0, i32 1
  %55 = load i64, ptr %Length2.i, align 8
  %cmp.i = icmp eq i64 %54, %55
  br i1 %cmp.i, label %land.rhs.i, label %_ZNK4llvh9StringRef6equalsES0_.exit

land.rhs.i:                                       ; preds = %land.lhs.true.i1567
  %56 = load ptr, ptr %this1.i1581, align 8
  %57 = load ptr, ptr %RHS.i1579, align 8
  %Length4.i = getelementptr inbounds %"class.llvh::StringRef", ptr %RHS.i1579, i32 0, i32 1
  %58 = load i64, ptr %Length4.i, align 8
  store ptr %56, ptr %Lhs.addr.i3240, align 8
  store ptr %57, ptr %Rhs.addr.i3241, align 8
  store i64 %58, ptr %Length.addr.i3242, align 8
  %59 = load i64, ptr %Length.addr.i3242, align 8
  %cmp.i3243 = icmp eq i64 %59, 0
  br i1 %cmp.i3243, label %if.then.i3246, label %if.end.i3244

if.then.i3246:                                    ; preds = %land.rhs.i
  store i32 0, ptr %retval.i3239, align 4
  br label %_ZN4llvh9StringRef13compareMemoryEPKcS2_m.exit3247

if.end.i3244:                                     ; preds = %land.rhs.i
  %60 = load ptr, ptr %Lhs.addr.i3240, align 8
  %61 = load ptr, ptr %Rhs.addr.i3241, align 8
  %62 = load i64, ptr %Length.addr.i3242, align 8
  %call.i3245 = call i32 @memcmp(ptr noundef %60, ptr noundef %61, i64 noundef %62) #10
  store i32 %call.i3245, ptr %retval.i3239, align 4
  br label %_ZN4llvh9StringRef13compareMemoryEPKcS2_m.exit3247

_ZN4llvh9StringRef13compareMemoryEPKcS2_m.exit3247: ; preds = %if.end.i3244, %if.then.i3246
  %63 = load i32, ptr %retval.i3239, align 4
  %cmp5.i = icmp eq i32 %63, 0
  br label %_ZNK4llvh9StringRef6equalsES0_.exit

_ZNK4llvh9StringRef6equalsES0_.exit:              ; preds = %_ZN4llvh9StringRef13compareMemoryEPKcS2_m.exit3247, %land.lhs.true.i1567
  %64 = phi i1 [ false, %land.lhs.true.i1567 ], [ %cmp5.i, %_ZN4llvh9StringRef13compareMemoryEPKcS2_m.exit3247 ]
  br i1 %64, label %if.then.i1569, label %_ZN4llvh12StringSwitchIjjE4CaseENS_13StringLiteralEj.exit1572

if.then.i1569:                                    ; preds = %_ZNK4llvh9StringRef6equalsES0_.exit
  %Result4.i1570 = getelementptr inbounds %"class.llvh::StringSwitch", ptr %this1.i1564, i32 0, i32 1
  %call5.i1571 = call noundef nonnull align 4 dereferenceable(8) ptr @_ZN4llvh8OptionalIjEaSEOj(ptr noundef nonnull align 4 dereferenceable(8) %Result4.i1570, ptr noundef nonnull align 4 dereferenceable(4) %Value.addr.i1561)
  br label %_ZN4llvh12StringSwitchIjjE4CaseENS_13StringLiteralEj.exit1572

_ZN4llvh12StringSwitchIjjE4CaseENS_13StringLiteralEj.exit1572: ; preds = %if.then.i1569, %_ZNK4llvh9StringRef6equalsES0_.exit, %if.end
  call void @_ZN4llvh13StringLiteralC2ILm5EEEUa9enable_ifIXeqclL_Z16__builtin_strlenEfL0p_EmiLm5ELi1EEERAT__Kc(ptr noundef nonnull align 8 dereferenceable(16) %agg.tmp5, ptr noundef nonnull align 1 dereferenceable(5) @.str.2)
  %65 = getelementptr inbounds { ptr, i64 }, ptr %agg.tmp5, i32 0, i32 0
  %66 = load ptr, ptr %65, align 8
  %67 = getelementptr inbounds { ptr, i64 }, ptr %agg.tmp5, i32 0, i32 1
  %68 = load i64, ptr %67, align 8
  store ptr %66, ptr %S.i1542, align 8
  %69 = getelementptr inbounds { ptr, i64 }, ptr %S.i1542, i32 0, i32 1
  store i64 %68, ptr %69, align 8
  store ptr %this1.i1564, ptr %this.addr.i1543, align 8
  store i32 1, ptr %Value.addr.i1544, align 4
  %this1.i1547 = load ptr, ptr %this.addr.i1543, align 8
  %Result.i1548 = getelementptr inbounds %"class.llvh::StringSwitch", ptr %this1.i1547, i32 0, i32 1
  %call.i1549 = call noundef zeroext i1 @_ZNK4llvh8OptionalIjEcvbEv(ptr noundef nonnull align 4 dereferenceable(8) %Result.i1548)
  br i1 %call.i1549, label %_ZN4llvh12StringSwitchIjjE4CaseENS_13StringLiteralEj.exit1555, label %land.lhs.true.i1550

land.lhs.true.i1550:                              ; preds = %_ZN4llvh12StringSwitchIjjE4CaseENS_13StringLiteralEj.exit1572
  call void @llvm.memcpy.p0.p0.i64(ptr align 8 %agg.tmp.i1545, ptr align 8 %this1.i1547, i64 16, i1 false)
  call void @llvm.memcpy.p0.p0.i64(ptr align 8 %agg.tmp2.i1546, ptr align 8 %S.i1542, i64 16, i1 false)
  %70 = load ptr, ptr %agg.tmp.i1545, align 8
  %71 = getelementptr inbounds { ptr, i64 }, ptr %agg.tmp.i1545, i32 0, i32 1
  %72 = load i64, ptr %71, align 8
  %73 = load ptr, ptr %agg.tmp2.i1546, align 8
  %74 = getelementptr inbounds { ptr, i64 }, ptr %agg.tmp2.i1546, i32 0, i32 1
  %75 = load i64, ptr %74, align 8
  store ptr %70, ptr %LHS.i.i1539, align 8
  %76 = getelementptr inbounds { ptr, i64 }, ptr %LHS.i.i1539, i32 0, i32 1
  store i64 %72, ptr %76, align 8
  store ptr %73, ptr %RHS.i.i1540, align 8
  %77 = getelementptr inbounds { ptr, i64 }, ptr %RHS.i.i1540, i32 0, i32 1
  store i64 %75, ptr %77, align 8
  call void @llvm.memcpy.p0.p0.i64(ptr align 8 %agg.tmp.i.i1541, ptr align 8 %RHS.i.i1540, i64 16, i1 false)
  %78 = load ptr, ptr %agg.tmp.i.i1541, align 8
  %79 = getelementptr inbounds { ptr, i64 }, ptr %agg.tmp.i.i1541, i32 0, i32 1
  %80 = load i64, ptr %79, align 8
  store ptr %78, ptr %RHS.i1584, align 8
  %81 = getelementptr inbounds { ptr, i64 }, ptr %RHS.i1584, i32 0, i32 1
  store i64 %80, ptr %81, align 8
  store ptr %LHS.i.i1539, ptr %this.addr.i1585, align 8
  %this1.i1586 = load ptr, ptr %this.addr.i1585, align 8
  %Length.i1587 = getelementptr inbounds %"class.llvh::StringRef", ptr %this1.i1586, i32 0, i32 1
  %82 = load i64, ptr %Length.i1587, align 8
  %Length2.i1588 = getelementptr inbounds %"class.llvh::StringRef", ptr %RHS.i1584, i32 0, i32 1
  %83 = load i64, ptr %Length2.i1588, align 8
  %cmp.i1589 = icmp eq i64 %82, %83
  br i1 %cmp.i1589, label %land.rhs.i1590, label %_ZNK4llvh9StringRef6equalsES0_.exit1594

land.rhs.i1590:                                   ; preds = %land.lhs.true.i1550
  %84 = load ptr, ptr %this1.i1586, align 8
  %85 = load ptr, ptr %RHS.i1584, align 8
  %Length4.i1591 = getelementptr inbounds %"class.llvh::StringRef", ptr %RHS.i1584, i32 0, i32 1
  %86 = load i64, ptr %Length4.i1591, align 8
  store ptr %84, ptr %Lhs.addr.i3231, align 8
  store ptr %85, ptr %Rhs.addr.i3232, align 8
  store i64 %86, ptr %Length.addr.i3233, align 8
  %87 = load i64, ptr %Length.addr.i3233, align 8
  %cmp.i3234 = icmp eq i64 %87, 0
  br i1 %cmp.i3234, label %if.then.i3237, label %if.end.i3235

if.then.i3237:                                    ; preds = %land.rhs.i1590
  store i32 0, ptr %retval.i3230, align 4
  br label %_ZN4llvh9StringRef13compareMemoryEPKcS2_m.exit3238

if.end.i3235:                                     ; preds = %land.rhs.i1590
  %88 = load ptr, ptr %Lhs.addr.i3231, align 8
  %89 = load ptr, ptr %Rhs.addr.i3232, align 8
  %90 = load i64, ptr %Length.addr.i3233, align 8
  %call.i3236 = call i32 @memcmp(ptr noundef %88, ptr noundef %89, i64 noundef %90) #10
  store i32 %call.i3236, ptr %retval.i3230, align 4
  br label %_ZN4llvh9StringRef13compareMemoryEPKcS2_m.exit3238

_ZN4llvh9StringRef13compareMemoryEPKcS2_m.exit3238: ; preds = %if.end.i3235, %if.then.i3237
  %91 = load i32, ptr %retval.i3230, align 4
  %cmp5.i1593 = icmp eq i32 %91, 0
  br label %_ZNK4llvh9StringRef6equalsES0_.exit1594

_ZNK4llvh9StringRef6equalsES0_.exit1594:          ; preds = %_ZN4llvh9StringRef13compareMemoryEPKcS2_m.exit3238, %land.lhs.true.i1550
  %92 = phi i1 [ false, %land.lhs.true.i1550 ], [ %cmp5.i1593, %_ZN4llvh9StringRef13compareMemoryEPKcS2_m.exit3238 ]
  br i1 %92, label %if.then.i1552, label %_ZN4llvh12StringSwitchIjjE4CaseENS_13StringLiteralEj.exit1555

if.then.i1552:                                    ; preds = %_ZNK4llvh9StringRef6equalsES0_.exit1594
  %Result4.i1553 = getelementptr inbounds %"class.llvh::StringSwitch", ptr %this1.i1547, i32 0, i32 1
  %call5.i1554 = call noundef nonnull align 4 dereferenceable(8) ptr @_ZN4llvh8OptionalIjEaSEOj(ptr noundef nonnull align 4 dereferenceable(8) %Result4.i1553, ptr noundef nonnull align 4 dereferenceable(4) %Value.addr.i1544)
  br label %_ZN4llvh12StringSwitchIjjE4CaseENS_13StringLiteralEj.exit1555

_ZN4llvh12StringSwitchIjjE4CaseENS_13StringLiteralEj.exit1555: ; preds = %if.then.i1552, %_ZNK4llvh9StringRef6equalsES0_.exit1594, %_ZN4llvh12StringSwitchIjjE4CaseENS_13StringLiteralEj.exit1572
  call void @_ZN4llvh13StringLiteralC2ILm5EEEUa9enable_ifIXeqclL_Z16__builtin_strlenEfL0p_EmiLm5ELi1EEERAT__Kc(ptr noundef nonnull align 8 dereferenceable(16) %agg.tmp7, ptr noundef nonnull align 1 dereferenceable(5) @.str.3)
  %93 = getelementptr inbounds { ptr, i64 }, ptr %agg.tmp7, i32 0, i32 0
  %94 = load ptr, ptr %93, align 8
  %95 = getelementptr inbounds { ptr, i64 }, ptr %agg.tmp7, i32 0, i32 1
  %96 = load i64, ptr %95, align 8
  store ptr %94, ptr %S.i1525, align 8
  %97 = getelementptr inbounds { ptr, i64 }, ptr %S.i1525, i32 0, i32 1
  store i64 %96, ptr %97, align 8
  store ptr %this1.i1547, ptr %this.addr.i1526, align 8
  store i32 1, ptr %Value.addr.i1527, align 4
  %this1.i1530 = load ptr, ptr %this.addr.i1526, align 8
  %Result.i1531 = getelementptr inbounds %"class.llvh::StringSwitch", ptr %this1.i1530, i32 0, i32 1
  %call.i1532 = call noundef zeroext i1 @_ZNK4llvh8OptionalIjEcvbEv(ptr noundef nonnull align 4 dereferenceable(8) %Result.i1531)
  br i1 %call.i1532, label %_ZN4llvh12StringSwitchIjjE4CaseENS_13StringLiteralEj.exit1538, label %land.lhs.true.i1533

land.lhs.true.i1533:                              ; preds = %_ZN4llvh12StringSwitchIjjE4CaseENS_13StringLiteralEj.exit1555
  call void @llvm.memcpy.p0.p0.i64(ptr align 8 %agg.tmp.i1528, ptr align 8 %this1.i1530, i64 16, i1 false)
  call void @llvm.memcpy.p0.p0.i64(ptr align 8 %agg.tmp2.i1529, ptr align 8 %S.i1525, i64 16, i1 false)
  %98 = load ptr, ptr %agg.tmp.i1528, align 8
  %99 = getelementptr inbounds { ptr, i64 }, ptr %agg.tmp.i1528, i32 0, i32 1
  %100 = load i64, ptr %99, align 8
  %101 = load ptr, ptr %agg.tmp2.i1529, align 8
  %102 = getelementptr inbounds { ptr, i64 }, ptr %agg.tmp2.i1529, i32 0, i32 1
  %103 = load i64, ptr %102, align 8
  store ptr %98, ptr %LHS.i.i1522, align 8
  %104 = getelementptr inbounds { ptr, i64 }, ptr %LHS.i.i1522, i32 0, i32 1
  store i64 %100, ptr %104, align 8
  store ptr %101, ptr %RHS.i.i1523, align 8
  %105 = getelementptr inbounds { ptr, i64 }, ptr %RHS.i.i1523, i32 0, i32 1
  store i64 %103, ptr %105, align 8
  call void @llvm.memcpy.p0.p0.i64(ptr align 8 %agg.tmp.i.i1524, ptr align 8 %RHS.i.i1523, i64 16, i1 false)
  %106 = load ptr, ptr %agg.tmp.i.i1524, align 8
  %107 = getelementptr inbounds { ptr, i64 }, ptr %agg.tmp.i.i1524, i32 0, i32 1
  %108 = load i64, ptr %107, align 8
  store ptr %106, ptr %RHS.i1595, align 8
  %109 = getelementptr inbounds { ptr, i64 }, ptr %RHS.i1595, i32 0, i32 1
  store i64 %108, ptr %109, align 8
  store ptr %LHS.i.i1522, ptr %this.addr.i1596, align 8
  %this1.i1597 = load ptr, ptr %this.addr.i1596, align 8
  %Length.i1598 = getelementptr inbounds %"class.llvh::StringRef", ptr %this1.i1597, i32 0, i32 1
  %110 = load i64, ptr %Length.i1598, align 8
  %Length2.i1599 = getelementptr inbounds %"class.llvh::StringRef", ptr %RHS.i1595, i32 0, i32 1
  %111 = load i64, ptr %Length2.i1599, align 8
  %cmp.i1600 = icmp eq i64 %110, %111
  br i1 %cmp.i1600, label %land.rhs.i1601, label %_ZNK4llvh9StringRef6equalsES0_.exit1605

land.rhs.i1601:                                   ; preds = %land.lhs.true.i1533
  %112 = load ptr, ptr %this1.i1597, align 8
  %113 = load ptr, ptr %RHS.i1595, align 8
  %Length4.i1602 = getelementptr inbounds %"class.llvh::StringRef", ptr %RHS.i1595, i32 0, i32 1
  %114 = load i64, ptr %Length4.i1602, align 8
  store ptr %112, ptr %Lhs.addr.i3222, align 8
  store ptr %113, ptr %Rhs.addr.i3223, align 8
  store i64 %114, ptr %Length.addr.i3224, align 8
  %115 = load i64, ptr %Length.addr.i3224, align 8
  %cmp.i3225 = icmp eq i64 %115, 0
  br i1 %cmp.i3225, label %if.then.i3228, label %if.end.i3226

if.then.i3228:                                    ; preds = %land.rhs.i1601
  store i32 0, ptr %retval.i3221, align 4
  br label %_ZN4llvh9StringRef13compareMemoryEPKcS2_m.exit3229

if.end.i3226:                                     ; preds = %land.rhs.i1601
  %116 = load ptr, ptr %Lhs.addr.i3222, align 8
  %117 = load ptr, ptr %Rhs.addr.i3223, align 8
  %118 = load i64, ptr %Length.addr.i3224, align 8
  %call.i3227 = call i32 @memcmp(ptr noundef %116, ptr noundef %117, i64 noundef %118) #10
  store i32 %call.i3227, ptr %retval.i3221, align 4
  br label %_ZN4llvh9StringRef13compareMemoryEPKcS2_m.exit3229

_ZN4llvh9StringRef13compareMemoryEPKcS2_m.exit3229: ; preds = %if.end.i3226, %if.then.i3228
  %119 = load i32, ptr %retval.i3221, align 4
  %cmp5.i1604 = icmp eq i32 %119, 0
  br label %_ZNK4llvh9StringRef6equalsES0_.exit1605

_ZNK4llvh9StringRef6equalsES0_.exit1605:          ; preds = %_ZN4llvh9StringRef13compareMemoryEPKcS2_m.exit3229, %land.lhs.true.i1533
  %120 = phi i1 [ false, %land.lhs.true.i1533 ], [ %cmp5.i1604, %_ZN4llvh9StringRef13compareMemoryEPKcS2_m.exit3229 ]
  br i1 %120, label %if.then.i1535, label %_ZN4llvh12StringSwitchIjjE4CaseENS_13StringLiteralEj.exit1538

if.then.i1535:                                    ; preds = %_ZNK4llvh9StringRef6equalsES0_.exit1605
  %Result4.i1536 = getelementptr inbounds %"class.llvh::StringSwitch", ptr %this1.i1530, i32 0, i32 1
  %call5.i1537 = call noundef nonnull align 4 dereferenceable(8) ptr @_ZN4llvh8OptionalIjEaSEOj(ptr noundef nonnull align 4 dereferenceable(8) %Result4.i1536, ptr noundef nonnull align 4 dereferenceable(4) %Value.addr.i1527)
  br label %_ZN4llvh12StringSwitchIjjE4CaseENS_13StringLiteralEj.exit1538

_ZN4llvh12StringSwitchIjjE4CaseENS_13StringLiteralEj.exit1538: ; preds = %if.then.i1535, %_ZNK4llvh9StringRef6equalsES0_.exit1605, %_ZN4llvh12StringSwitchIjjE4CaseENS_13StringLiteralEj.exit1555
  call void @_ZN4llvh13StringLiteralC2ILm6EEEUa9enable_ifIXeqclL_Z16__builtin_strlenEfL0p_EmiLm6ELi1EEERAT__Kc(ptr noundef nonnull align 8 dereferenceable(16) %agg.tmp9, ptr noundef nonnull align 1 dereferenceable(6) @.str.4)
  %121 = getelementptr inbounds { ptr, i64 }, ptr %agg.tmp9, i32 0, i32 0
  %122 = load ptr, ptr %121, align 8
  %123 = getelementptr inbounds { ptr, i64 }, ptr %agg.tmp9, i32 0, i32 1
  %124 = load i64, ptr %123, align 8
  store ptr %122, ptr %S.i1508, align 8
  %125 = getelementptr inbounds { ptr, i64 }, ptr %S.i1508, i32 0, i32 1
  store i64 %124, ptr %125, align 8
  store ptr %this1.i1530, ptr %this.addr.i1509, align 8
  store i32 1, ptr %Value.addr.i1510, align 4
  %this1.i1513 = load ptr, ptr %this.addr.i1509, align 8
  %Result.i1514 = getelementptr inbounds %"class.llvh::StringSwitch", ptr %this1.i1513, i32 0, i32 1
  %call.i1515 = call noundef zeroext i1 @_ZNK4llvh8OptionalIjEcvbEv(ptr noundef nonnull align 4 dereferenceable(8) %Result.i1514)
  br i1 %call.i1515, label %_ZN4llvh12StringSwitchIjjE4CaseENS_13StringLiteralEj.exit1521, label %land.lhs.true.i1516

land.lhs.true.i1516:                              ; preds = %_ZN4llvh12StringSwitchIjjE4CaseENS_13StringLiteralEj.exit1538
  call void @llvm.memcpy.p0.p0.i64(ptr align 8 %agg.tmp.i1511, ptr align 8 %this1.i1513, i64 16, i1 false)
  call void @llvm.memcpy.p0.p0.i64(ptr align 8 %agg.tmp2.i1512, ptr align 8 %S.i1508, i64 16, i1 false)
  %126 = load ptr, ptr %agg.tmp.i1511, align 8
  %127 = getelementptr inbounds { ptr, i64 }, ptr %agg.tmp.i1511, i32 0, i32 1
  %128 = load i64, ptr %127, align 8
  %129 = load ptr, ptr %agg.tmp2.i1512, align 8
  %130 = getelementptr inbounds { ptr, i64 }, ptr %agg.tmp2.i1512, i32 0, i32 1
  %131 = load i64, ptr %130, align 8
  store ptr %126, ptr %LHS.i.i1505, align 8
  %132 = getelementptr inbounds { ptr, i64 }, ptr %LHS.i.i1505, i32 0, i32 1
  store i64 %128, ptr %132, align 8
  store ptr %129, ptr %RHS.i.i1506, align 8
  %133 = getelementptr inbounds { ptr, i64 }, ptr %RHS.i.i1506, i32 0, i32 1
  store i64 %131, ptr %133, align 8
  call void @llvm.memcpy.p0.p0.i64(ptr align 8 %agg.tmp.i.i1507, ptr align 8 %RHS.i.i1506, i64 16, i1 false)
  %134 = load ptr, ptr %agg.tmp.i.i1507, align 8
  %135 = getelementptr inbounds { ptr, i64 }, ptr %agg.tmp.i.i1507, i32 0, i32 1
  %136 = load i64, ptr %135, align 8
  store ptr %134, ptr %RHS.i1606, align 8
  %137 = getelementptr inbounds { ptr, i64 }, ptr %RHS.i1606, i32 0, i32 1
  store i64 %136, ptr %137, align 8
  store ptr %LHS.i.i1505, ptr %this.addr.i1607, align 8
  %this1.i1608 = load ptr, ptr %this.addr.i1607, align 8
  %Length.i1609 = getelementptr inbounds %"class.llvh::StringRef", ptr %this1.i1608, i32 0, i32 1
  %138 = load i64, ptr %Length.i1609, align 8
  %Length2.i1610 = getelementptr inbounds %"class.llvh::StringRef", ptr %RHS.i1606, i32 0, i32 1
  %139 = load i64, ptr %Length2.i1610, align 8
  %cmp.i1611 = icmp eq i64 %138, %139
  br i1 %cmp.i1611, label %land.rhs.i1612, label %_ZNK4llvh9StringRef6equalsES0_.exit1616

land.rhs.i1612:                                   ; preds = %land.lhs.true.i1516
  %140 = load ptr, ptr %this1.i1608, align 8
  %141 = load ptr, ptr %RHS.i1606, align 8
  %Length4.i1613 = getelementptr inbounds %"class.llvh::StringRef", ptr %RHS.i1606, i32 0, i32 1
  %142 = load i64, ptr %Length4.i1613, align 8
  store ptr %140, ptr %Lhs.addr.i3213, align 8
  store ptr %141, ptr %Rhs.addr.i3214, align 8
  store i64 %142, ptr %Length.addr.i3215, align 8
  %143 = load i64, ptr %Length.addr.i3215, align 8
  %cmp.i3216 = icmp eq i64 %143, 0
  br i1 %cmp.i3216, label %if.then.i3219, label %if.end.i3217

if.then.i3219:                                    ; preds = %land.rhs.i1612
  store i32 0, ptr %retval.i3212, align 4
  br label %_ZN4llvh9StringRef13compareMemoryEPKcS2_m.exit3220

if.end.i3217:                                     ; preds = %land.rhs.i1612
  %144 = load ptr, ptr %Lhs.addr.i3213, align 8
  %145 = load ptr, ptr %Rhs.addr.i3214, align 8
  %146 = load i64, ptr %Length.addr.i3215, align 8
  %call.i3218 = call i32 @memcmp(ptr noundef %144, ptr noundef %145, i64 noundef %146) #10
  store i32 %call.i3218, ptr %retval.i3212, align 4
  br label %_ZN4llvh9StringRef13compareMemoryEPKcS2_m.exit3220

_ZN4llvh9StringRef13compareMemoryEPKcS2_m.exit3220: ; preds = %if.end.i3217, %if.then.i3219
  %147 = load i32, ptr %retval.i3212, align 4
  %cmp5.i1615 = icmp eq i32 %147, 0
  br label %_ZNK4llvh9StringRef6equalsES0_.exit1616

_ZNK4llvh9StringRef6equalsES0_.exit1616:          ; preds = %_ZN4llvh9StringRef13compareMemoryEPKcS2_m.exit3220, %land.lhs.true.i1516
  %148 = phi i1 [ false, %land.lhs.true.i1516 ], [ %cmp5.i1615, %_ZN4llvh9StringRef13compareMemoryEPKcS2_m.exit3220 ]
  br i1 %148, label %if.then.i1518, label %_ZN4llvh12StringSwitchIjjE4CaseENS_13StringLiteralEj.exit1521

if.then.i1518:                                    ; preds = %_ZNK4llvh9StringRef6equalsES0_.exit1616
  %Result4.i1519 = getelementptr inbounds %"class.llvh::StringSwitch", ptr %this1.i1513, i32 0, i32 1
  %call5.i1520 = call noundef nonnull align 4 dereferenceable(8) ptr @_ZN4llvh8OptionalIjEaSEOj(ptr noundef nonnull align 4 dereferenceable(8) %Result4.i1519, ptr noundef nonnull align 4 dereferenceable(4) %Value.addr.i1510)
  br label %_ZN4llvh12StringSwitchIjjE4CaseENS_13StringLiteralEj.exit1521

_ZN4llvh12StringSwitchIjjE4CaseENS_13StringLiteralEj.exit1521: ; preds = %if.then.i1518, %_ZNK4llvh9StringRef6equalsES0_.exit1616, %_ZN4llvh12StringSwitchIjjE4CaseENS_13StringLiteralEj.exit1538
  call void @_ZN4llvh13StringLiteralC2ILm5EEEUa9enable_ifIXeqclL_Z16__builtin_strlenEfL0p_EmiLm5ELi1EEERAT__Kc(ptr noundef nonnull align 8 dereferenceable(16) %agg.tmp11, ptr noundef nonnull align 1 dereferenceable(5) @.str.5)
  %149 = getelementptr inbounds { ptr, i64 }, ptr %agg.tmp11, i32 0, i32 0
  %150 = load ptr, ptr %149, align 8
  %151 = getelementptr inbounds { ptr, i64 }, ptr %agg.tmp11, i32 0, i32 1
  %152 = load i64, ptr %151, align 8
  store ptr %150, ptr %S.i1491, align 8
  %153 = getelementptr inbounds { ptr, i64 }, ptr %S.i1491, i32 0, i32 1
  store i64 %152, ptr %153, align 8
  store ptr %this1.i1513, ptr %this.addr.i1492, align 8
  store i32 1, ptr %Value.addr.i1493, align 4
  %this1.i1496 = load ptr, ptr %this.addr.i1492, align 8
  %Result.i1497 = getelementptr inbounds %"class.llvh::StringSwitch", ptr %this1.i1496, i32 0, i32 1
  %call.i1498 = call noundef zeroext i1 @_ZNK4llvh8OptionalIjEcvbEv(ptr noundef nonnull align 4 dereferenceable(8) %Result.i1497)
  br i1 %call.i1498, label %_ZN4llvh12StringSwitchIjjE4CaseENS_13StringLiteralEj.exit1504, label %land.lhs.true.i1499

land.lhs.true.i1499:                              ; preds = %_ZN4llvh12StringSwitchIjjE4CaseENS_13StringLiteralEj.exit1521
  call void @llvm.memcpy.p0.p0.i64(ptr align 8 %agg.tmp.i1494, ptr align 8 %this1.i1496, i64 16, i1 false)
  call void @llvm.memcpy.p0.p0.i64(ptr align 8 %agg.tmp2.i1495, ptr align 8 %S.i1491, i64 16, i1 false)
  %154 = load ptr, ptr %agg.tmp.i1494, align 8
  %155 = getelementptr inbounds { ptr, i64 }, ptr %agg.tmp.i1494, i32 0, i32 1
  %156 = load i64, ptr %155, align 8
  %157 = load ptr, ptr %agg.tmp2.i1495, align 8
  %158 = getelementptr inbounds { ptr, i64 }, ptr %agg.tmp2.i1495, i32 0, i32 1
  %159 = load i64, ptr %158, align 8
  store ptr %154, ptr %LHS.i.i1488, align 8
  %160 = getelementptr inbounds { ptr, i64 }, ptr %LHS.i.i1488, i32 0, i32 1
  store i64 %156, ptr %160, align 8
  store ptr %157, ptr %RHS.i.i1489, align 8
  %161 = getelementptr inbounds { ptr, i64 }, ptr %RHS.i.i1489, i32 0, i32 1
  store i64 %159, ptr %161, align 8
  call void @llvm.memcpy.p0.p0.i64(ptr align 8 %agg.tmp.i.i1490, ptr align 8 %RHS.i.i1489, i64 16, i1 false)
  %162 = load ptr, ptr %agg.tmp.i.i1490, align 8
  %163 = getelementptr inbounds { ptr, i64 }, ptr %agg.tmp.i.i1490, i32 0, i32 1
  %164 = load i64, ptr %163, align 8
  store ptr %162, ptr %RHS.i1617, align 8
  %165 = getelementptr inbounds { ptr, i64 }, ptr %RHS.i1617, i32 0, i32 1
  store i64 %164, ptr %165, align 8
  store ptr %LHS.i.i1488, ptr %this.addr.i1618, align 8
  %this1.i1619 = load ptr, ptr %this.addr.i1618, align 8
  %Length.i1620 = getelementptr inbounds %"class.llvh::StringRef", ptr %this1.i1619, i32 0, i32 1
  %166 = load i64, ptr %Length.i1620, align 8
  %Length2.i1621 = getelementptr inbounds %"class.llvh::StringRef", ptr %RHS.i1617, i32 0, i32 1
  %167 = load i64, ptr %Length2.i1621, align 8
  %cmp.i1622 = icmp eq i64 %166, %167
  br i1 %cmp.i1622, label %land.rhs.i1623, label %_ZNK4llvh9StringRef6equalsES0_.exit1627

land.rhs.i1623:                                   ; preds = %land.lhs.true.i1499
  %168 = load ptr, ptr %this1.i1619, align 8
  %169 = load ptr, ptr %RHS.i1617, align 8
  %Length4.i1624 = getelementptr inbounds %"class.llvh::StringRef", ptr %RHS.i1617, i32 0, i32 1
  %170 = load i64, ptr %Length4.i1624, align 8
  store ptr %168, ptr %Lhs.addr.i3204, align 8
  store ptr %169, ptr %Rhs.addr.i3205, align 8
  store i64 %170, ptr %Length.addr.i3206, align 8
  %171 = load i64, ptr %Length.addr.i3206, align 8
  %cmp.i3207 = icmp eq i64 %171, 0
  br i1 %cmp.i3207, label %if.then.i3210, label %if.end.i3208

if.then.i3210:                                    ; preds = %land.rhs.i1623
  store i32 0, ptr %retval.i3203, align 4
  br label %_ZN4llvh9StringRef13compareMemoryEPKcS2_m.exit3211

if.end.i3208:                                     ; preds = %land.rhs.i1623
  %172 = load ptr, ptr %Lhs.addr.i3204, align 8
  %173 = load ptr, ptr %Rhs.addr.i3205, align 8
  %174 = load i64, ptr %Length.addr.i3206, align 8
  %call.i3209 = call i32 @memcmp(ptr noundef %172, ptr noundef %173, i64 noundef %174) #10
  store i32 %call.i3209, ptr %retval.i3203, align 4
  br label %_ZN4llvh9StringRef13compareMemoryEPKcS2_m.exit3211

_ZN4llvh9StringRef13compareMemoryEPKcS2_m.exit3211: ; preds = %if.end.i3208, %if.then.i3210
  %175 = load i32, ptr %retval.i3203, align 4
  %cmp5.i1626 = icmp eq i32 %175, 0
  br label %_ZNK4llvh9StringRef6equalsES0_.exit1627

_ZNK4llvh9StringRef6equalsES0_.exit1627:          ; preds = %_ZN4llvh9StringRef13compareMemoryEPKcS2_m.exit3211, %land.lhs.true.i1499
  %176 = phi i1 [ false, %land.lhs.true.i1499 ], [ %cmp5.i1626, %_ZN4llvh9StringRef13compareMemoryEPKcS2_m.exit3211 ]
  br i1 %176, label %if.then.i1501, label %_ZN4llvh12StringSwitchIjjE4CaseENS_13StringLiteralEj.exit1504

if.then.i1501:                                    ; preds = %_ZNK4llvh9StringRef6equalsES0_.exit1627
  %Result4.i1502 = getelementptr inbounds %"class.llvh::StringSwitch", ptr %this1.i1496, i32 0, i32 1
  %call5.i1503 = call noundef nonnull align 4 dereferenceable(8) ptr @_ZN4llvh8OptionalIjEaSEOj(ptr noundef nonnull align 4 dereferenceable(8) %Result4.i1502, ptr noundef nonnull align 4 dereferenceable(4) %Value.addr.i1493)
  br label %_ZN4llvh12StringSwitchIjjE4CaseENS_13StringLiteralEj.exit1504

_ZN4llvh12StringSwitchIjjE4CaseENS_13StringLiteralEj.exit1504: ; preds = %if.then.i1501, %_ZNK4llvh9StringRef6equalsES0_.exit1627, %_ZN4llvh12StringSwitchIjjE4CaseENS_13StringLiteralEj.exit1521
  call void @_ZN4llvh13StringLiteralC2ILm7EEEUa9enable_ifIXeqclL_Z16__builtin_strlenEfL0p_EmiLm7ELi1EEERAT__Kc(ptr noundef nonnull align 8 dereferenceable(16) %agg.tmp13, ptr noundef nonnull align 1 dereferenceable(7) @.str.6)
  %177 = getelementptr inbounds { ptr, i64 }, ptr %agg.tmp13, i32 0, i32 0
  %178 = load ptr, ptr %177, align 8
  %179 = getelementptr inbounds { ptr, i64 }, ptr %agg.tmp13, i32 0, i32 1
  %180 = load i64, ptr %179, align 8
  store ptr %178, ptr %S.i1474, align 8
  %181 = getelementptr inbounds { ptr, i64 }, ptr %S.i1474, i32 0, i32 1
  store i64 %180, ptr %181, align 8
  store ptr %this1.i1496, ptr %this.addr.i1475, align 8
  store i32 1, ptr %Value.addr.i1476, align 4
  %this1.i1479 = load ptr, ptr %this.addr.i1475, align 8
  %Result.i1480 = getelementptr inbounds %"class.llvh::StringSwitch", ptr %this1.i1479, i32 0, i32 1
  %call.i1481 = call noundef zeroext i1 @_ZNK4llvh8OptionalIjEcvbEv(ptr noundef nonnull align 4 dereferenceable(8) %Result.i1480)
  br i1 %call.i1481, label %_ZN4llvh12StringSwitchIjjE4CaseENS_13StringLiteralEj.exit1487, label %land.lhs.true.i1482

land.lhs.true.i1482:                              ; preds = %_ZN4llvh12StringSwitchIjjE4CaseENS_13StringLiteralEj.exit1504
  call void @llvm.memcpy.p0.p0.i64(ptr align 8 %agg.tmp.i1477, ptr align 8 %this1.i1479, i64 16, i1 false)
  call void @llvm.memcpy.p0.p0.i64(ptr align 8 %agg.tmp2.i1478, ptr align 8 %S.i1474, i64 16, i1 false)
  %182 = load ptr, ptr %agg.tmp.i1477, align 8
  %183 = getelementptr inbounds { ptr, i64 }, ptr %agg.tmp.i1477, i32 0, i32 1
  %184 = load i64, ptr %183, align 8
  %185 = load ptr, ptr %agg.tmp2.i1478, align 8
  %186 = getelementptr inbounds { ptr, i64 }, ptr %agg.tmp2.i1478, i32 0, i32 1
  %187 = load i64, ptr %186, align 8
  store ptr %182, ptr %LHS.i.i1471, align 8
  %188 = getelementptr inbounds { ptr, i64 }, ptr %LHS.i.i1471, i32 0, i32 1
  store i64 %184, ptr %188, align 8
  store ptr %185, ptr %RHS.i.i1472, align 8
  %189 = getelementptr inbounds { ptr, i64 }, ptr %RHS.i.i1472, i32 0, i32 1
  store i64 %187, ptr %189, align 8
  call void @llvm.memcpy.p0.p0.i64(ptr align 8 %agg.tmp.i.i1473, ptr align 8 %RHS.i.i1472, i64 16, i1 false)
  %190 = load ptr, ptr %agg.tmp.i.i1473, align 8
  %191 = getelementptr inbounds { ptr, i64 }, ptr %agg.tmp.i.i1473, i32 0, i32 1
  %192 = load i64, ptr %191, align 8
  store ptr %190, ptr %RHS.i1628, align 8
  %193 = getelementptr inbounds { ptr, i64 }, ptr %RHS.i1628, i32 0, i32 1
  store i64 %192, ptr %193, align 8
  store ptr %LHS.i.i1471, ptr %this.addr.i1629, align 8
  %this1.i1630 = load ptr, ptr %this.addr.i1629, align 8
  %Length.i1631 = getelementptr inbounds %"class.llvh::StringRef", ptr %this1.i1630, i32 0, i32 1
  %194 = load i64, ptr %Length.i1631, align 8
  %Length2.i1632 = getelementptr inbounds %"class.llvh::StringRef", ptr %RHS.i1628, i32 0, i32 1
  %195 = load i64, ptr %Length2.i1632, align 8
  %cmp.i1633 = icmp eq i64 %194, %195
  br i1 %cmp.i1633, label %land.rhs.i1634, label %_ZNK4llvh9StringRef6equalsES0_.exit1638

land.rhs.i1634:                                   ; preds = %land.lhs.true.i1482
  %196 = load ptr, ptr %this1.i1630, align 8
  %197 = load ptr, ptr %RHS.i1628, align 8
  %Length4.i1635 = getelementptr inbounds %"class.llvh::StringRef", ptr %RHS.i1628, i32 0, i32 1
  %198 = load i64, ptr %Length4.i1635, align 8
  store ptr %196, ptr %Lhs.addr.i3195, align 8
  store ptr %197, ptr %Rhs.addr.i3196, align 8
  store i64 %198, ptr %Length.addr.i3197, align 8
  %199 = load i64, ptr %Length.addr.i3197, align 8
  %cmp.i3198 = icmp eq i64 %199, 0
  br i1 %cmp.i3198, label %if.then.i3201, label %if.end.i3199

if.then.i3201:                                    ; preds = %land.rhs.i1634
  store i32 0, ptr %retval.i3194, align 4
  br label %_ZN4llvh9StringRef13compareMemoryEPKcS2_m.exit3202

if.end.i3199:                                     ; preds = %land.rhs.i1634
  %200 = load ptr, ptr %Lhs.addr.i3195, align 8
  %201 = load ptr, ptr %Rhs.addr.i3196, align 8
  %202 = load i64, ptr %Length.addr.i3197, align 8
  %call.i3200 = call i32 @memcmp(ptr noundef %200, ptr noundef %201, i64 noundef %202) #10
  store i32 %call.i3200, ptr %retval.i3194, align 4
  br label %_ZN4llvh9StringRef13compareMemoryEPKcS2_m.exit3202

_ZN4llvh9StringRef13compareMemoryEPKcS2_m.exit3202: ; preds = %if.end.i3199, %if.then.i3201
  %203 = load i32, ptr %retval.i3194, align 4
  %cmp5.i1637 = icmp eq i32 %203, 0
  br label %_ZNK4llvh9StringRef6equalsES0_.exit1638

_ZNK4llvh9StringRef6equalsES0_.exit1638:          ; preds = %_ZN4llvh9StringRef13compareMemoryEPKcS2_m.exit3202, %land.lhs.true.i1482
  %204 = phi i1 [ false, %land.lhs.true.i1482 ], [ %cmp5.i1637, %_ZN4llvh9StringRef13compareMemoryEPKcS2_m.exit3202 ]
  br i1 %204, label %if.then.i1484, label %_ZN4llvh12StringSwitchIjjE4CaseENS_13StringLiteralEj.exit1487

if.then.i1484:                                    ; preds = %_ZNK4llvh9StringRef6equalsES0_.exit1638
  %Result4.i1485 = getelementptr inbounds %"class.llvh::StringSwitch", ptr %this1.i1479, i32 0, i32 1
  %call5.i1486 = call noundef nonnull align 4 dereferenceable(8) ptr @_ZN4llvh8OptionalIjEaSEOj(ptr noundef nonnull align 4 dereferenceable(8) %Result4.i1485, ptr noundef nonnull align 4 dereferenceable(4) %Value.addr.i1476)
  br label %_ZN4llvh12StringSwitchIjjE4CaseENS_13StringLiteralEj.exit1487

_ZN4llvh12StringSwitchIjjE4CaseENS_13StringLiteralEj.exit1487: ; preds = %if.then.i1484, %_ZNK4llvh9StringRef6equalsES0_.exit1638, %_ZN4llvh12StringSwitchIjjE4CaseENS_13StringLiteralEj.exit1504
  call void @_ZN4llvh13StringLiteralC2ILm10EEEUa9enable_ifIXeqclL_Z16__builtin_strlenEfL0p_EmiLm10ELi1EEERAT__Kc(ptr noundef nonnull align 8 dereferenceable(16) %agg.tmp15, ptr noundef nonnull align 1 dereferenceable(10) @.str.7)
  %205 = getelementptr inbounds { ptr, i64 }, ptr %agg.tmp15, i32 0, i32 0
  %206 = load ptr, ptr %205, align 8
  %207 = getelementptr inbounds { ptr, i64 }, ptr %agg.tmp15, i32 0, i32 1
  %208 = load i64, ptr %207, align 8
  store ptr %206, ptr %S.i1457, align 8
  %209 = getelementptr inbounds { ptr, i64 }, ptr %S.i1457, i32 0, i32 1
  store i64 %208, ptr %209, align 8
  store ptr %this1.i1479, ptr %this.addr.i1458, align 8
  store i32 1, ptr %Value.addr.i1459, align 4
  %this1.i1462 = load ptr, ptr %this.addr.i1458, align 8
  %Result.i1463 = getelementptr inbounds %"class.llvh::StringSwitch", ptr %this1.i1462, i32 0, i32 1
  %call.i1464 = call noundef zeroext i1 @_ZNK4llvh8OptionalIjEcvbEv(ptr noundef nonnull align 4 dereferenceable(8) %Result.i1463)
  br i1 %call.i1464, label %_ZN4llvh12StringSwitchIjjE4CaseENS_13StringLiteralEj.exit1470, label %land.lhs.true.i1465

land.lhs.true.i1465:                              ; preds = %_ZN4llvh12StringSwitchIjjE4CaseENS_13StringLiteralEj.exit1487
  call void @llvm.memcpy.p0.p0.i64(ptr align 8 %agg.tmp.i1460, ptr align 8 %this1.i1462, i64 16, i1 false)
  call void @llvm.memcpy.p0.p0.i64(ptr align 8 %agg.tmp2.i1461, ptr align 8 %S.i1457, i64 16, i1 false)
  %210 = load ptr, ptr %agg.tmp.i1460, align 8
  %211 = getelementptr inbounds { ptr, i64 }, ptr %agg.tmp.i1460, i32 0, i32 1
  %212 = load i64, ptr %211, align 8
  %213 = load ptr, ptr %agg.tmp2.i1461, align 8
  %214 = getelementptr inbounds { ptr, i64 }, ptr %agg.tmp2.i1461, i32 0, i32 1
  %215 = load i64, ptr %214, align 8
  store ptr %210, ptr %LHS.i.i1454, align 8
  %216 = getelementptr inbounds { ptr, i64 }, ptr %LHS.i.i1454, i32 0, i32 1
  store i64 %212, ptr %216, align 8
  store ptr %213, ptr %RHS.i.i1455, align 8
  %217 = getelementptr inbounds { ptr, i64 }, ptr %RHS.i.i1455, i32 0, i32 1
  store i64 %215, ptr %217, align 8
  call void @llvm.memcpy.p0.p0.i64(ptr align 8 %agg.tmp.i.i1456, ptr align 8 %RHS.i.i1455, i64 16, i1 false)
  %218 = load ptr, ptr %agg.tmp.i.i1456, align 8
  %219 = getelementptr inbounds { ptr, i64 }, ptr %agg.tmp.i.i1456, i32 0, i32 1
  %220 = load i64, ptr %219, align 8
  store ptr %218, ptr %RHS.i1639, align 8
  %221 = getelementptr inbounds { ptr, i64 }, ptr %RHS.i1639, i32 0, i32 1
  store i64 %220, ptr %221, align 8
  store ptr %LHS.i.i1454, ptr %this.addr.i1640, align 8
  %this1.i1641 = load ptr, ptr %this.addr.i1640, align 8
  %Length.i1642 = getelementptr inbounds %"class.llvh::StringRef", ptr %this1.i1641, i32 0, i32 1
  %222 = load i64, ptr %Length.i1642, align 8
  %Length2.i1643 = getelementptr inbounds %"class.llvh::StringRef", ptr %RHS.i1639, i32 0, i32 1
  %223 = load i64, ptr %Length2.i1643, align 8
  %cmp.i1644 = icmp eq i64 %222, %223
  br i1 %cmp.i1644, label %land.rhs.i1645, label %_ZNK4llvh9StringRef6equalsES0_.exit1649

land.rhs.i1645:                                   ; preds = %land.lhs.true.i1465
  %224 = load ptr, ptr %this1.i1641, align 8
  %225 = load ptr, ptr %RHS.i1639, align 8
  %Length4.i1646 = getelementptr inbounds %"class.llvh::StringRef", ptr %RHS.i1639, i32 0, i32 1
  %226 = load i64, ptr %Length4.i1646, align 8
  store ptr %224, ptr %Lhs.addr.i3186, align 8
  store ptr %225, ptr %Rhs.addr.i3187, align 8
  store i64 %226, ptr %Length.addr.i3188, align 8
  %227 = load i64, ptr %Length.addr.i3188, align 8
  %cmp.i3189 = icmp eq i64 %227, 0
  br i1 %cmp.i3189, label %if.then.i3192, label %if.end.i3190

if.then.i3192:                                    ; preds = %land.rhs.i1645
  store i32 0, ptr %retval.i3185, align 4
  br label %_ZN4llvh9StringRef13compareMemoryEPKcS2_m.exit3193

if.end.i3190:                                     ; preds = %land.rhs.i1645
  %228 = load ptr, ptr %Lhs.addr.i3186, align 8
  %229 = load ptr, ptr %Rhs.addr.i3187, align 8
  %230 = load i64, ptr %Length.addr.i3188, align 8
  %call.i3191 = call i32 @memcmp(ptr noundef %228, ptr noundef %229, i64 noundef %230) #10
  store i32 %call.i3191, ptr %retval.i3185, align 4
  br label %_ZN4llvh9StringRef13compareMemoryEPKcS2_m.exit3193

_ZN4llvh9StringRef13compareMemoryEPKcS2_m.exit3193: ; preds = %if.end.i3190, %if.then.i3192
  %231 = load i32, ptr %retval.i3185, align 4
  %cmp5.i1648 = icmp eq i32 %231, 0
  br label %_ZNK4llvh9StringRef6equalsES0_.exit1649

_ZNK4llvh9StringRef6equalsES0_.exit1649:          ; preds = %_ZN4llvh9StringRef13compareMemoryEPKcS2_m.exit3193, %land.lhs.true.i1465
  %232 = phi i1 [ false, %land.lhs.true.i1465 ], [ %cmp5.i1648, %_ZN4llvh9StringRef13compareMemoryEPKcS2_m.exit3193 ]
  br i1 %232, label %if.then.i1467, label %_ZN4llvh12StringSwitchIjjE4CaseENS_13StringLiteralEj.exit1470

if.then.i1467:                                    ; preds = %_ZNK4llvh9StringRef6equalsES0_.exit1649
  %Result4.i1468 = getelementptr inbounds %"class.llvh::StringSwitch", ptr %this1.i1462, i32 0, i32 1
  %call5.i1469 = call noundef nonnull align 4 dereferenceable(8) ptr @_ZN4llvh8OptionalIjEaSEOj(ptr noundef nonnull align 4 dereferenceable(8) %Result4.i1468, ptr noundef nonnull align 4 dereferenceable(4) %Value.addr.i1459)
  br label %_ZN4llvh12StringSwitchIjjE4CaseENS_13StringLiteralEj.exit1470

_ZN4llvh12StringSwitchIjjE4CaseENS_13StringLiteralEj.exit1470: ; preds = %if.then.i1467, %_ZNK4llvh9StringRef6equalsES0_.exit1649, %_ZN4llvh12StringSwitchIjjE4CaseENS_13StringLiteralEj.exit1487
  call void @_ZN4llvh13StringLiteralC2ILm13EEEUa9enable_ifIXeqclL_Z16__builtin_strlenEfL0p_EmiLm13ELi1EEERAT__Kc(ptr noundef nonnull align 8 dereferenceable(16) %agg.tmp17, ptr noundef nonnull align 1 dereferenceable(13) @.str.8)
  %233 = getelementptr inbounds { ptr, i64 }, ptr %agg.tmp17, i32 0, i32 0
  %234 = load ptr, ptr %233, align 8
  %235 = getelementptr inbounds { ptr, i64 }, ptr %agg.tmp17, i32 0, i32 1
  %236 = load i64, ptr %235, align 8
  store ptr %234, ptr %S.i1440, align 8
  %237 = getelementptr inbounds { ptr, i64 }, ptr %S.i1440, i32 0, i32 1
  store i64 %236, ptr %237, align 8
  store ptr %this1.i1462, ptr %this.addr.i1441, align 8
  store i32 1, ptr %Value.addr.i1442, align 4
  %this1.i1445 = load ptr, ptr %this.addr.i1441, align 8
  %Result.i1446 = getelementptr inbounds %"class.llvh::StringSwitch", ptr %this1.i1445, i32 0, i32 1
  %call.i1447 = call noundef zeroext i1 @_ZNK4llvh8OptionalIjEcvbEv(ptr noundef nonnull align 4 dereferenceable(8) %Result.i1446)
  br i1 %call.i1447, label %_ZN4llvh12StringSwitchIjjE4CaseENS_13StringLiteralEj.exit1453, label %land.lhs.true.i1448

land.lhs.true.i1448:                              ; preds = %_ZN4llvh12StringSwitchIjjE4CaseENS_13StringLiteralEj.exit1470
  call void @llvm.memcpy.p0.p0.i64(ptr align 8 %agg.tmp.i1443, ptr align 8 %this1.i1445, i64 16, i1 false)
  call void @llvm.memcpy.p0.p0.i64(ptr align 8 %agg.tmp2.i1444, ptr align 8 %S.i1440, i64 16, i1 false)
  %238 = load ptr, ptr %agg.tmp.i1443, align 8
  %239 = getelementptr inbounds { ptr, i64 }, ptr %agg.tmp.i1443, i32 0, i32 1
  %240 = load i64, ptr %239, align 8
  %241 = load ptr, ptr %agg.tmp2.i1444, align 8
  %242 = getelementptr inbounds { ptr, i64 }, ptr %agg.tmp2.i1444, i32 0, i32 1
  %243 = load i64, ptr %242, align 8
  store ptr %238, ptr %LHS.i.i1437, align 8
  %244 = getelementptr inbounds { ptr, i64 }, ptr %LHS.i.i1437, i32 0, i32 1
  store i64 %240, ptr %244, align 8
  store ptr %241, ptr %RHS.i.i1438, align 8
  %245 = getelementptr inbounds { ptr, i64 }, ptr %RHS.i.i1438, i32 0, i32 1
  store i64 %243, ptr %245, align 8
  call void @llvm.memcpy.p0.p0.i64(ptr align 8 %agg.tmp.i.i1439, ptr align 8 %RHS.i.i1438, i64 16, i1 false)
  %246 = load ptr, ptr %agg.tmp.i.i1439, align 8
  %247 = getelementptr inbounds { ptr, i64 }, ptr %agg.tmp.i.i1439, i32 0, i32 1
  %248 = load i64, ptr %247, align 8
  store ptr %246, ptr %RHS.i1650, align 8
  %249 = getelementptr inbounds { ptr, i64 }, ptr %RHS.i1650, i32 0, i32 1
  store i64 %248, ptr %249, align 8
  store ptr %LHS.i.i1437, ptr %this.addr.i1651, align 8
  %this1.i1652 = load ptr, ptr %this.addr.i1651, align 8
  %Length.i1653 = getelementptr inbounds %"class.llvh::StringRef", ptr %this1.i1652, i32 0, i32 1
  %250 = load i64, ptr %Length.i1653, align 8
  %Length2.i1654 = getelementptr inbounds %"class.llvh::StringRef", ptr %RHS.i1650, i32 0, i32 1
  %251 = load i64, ptr %Length2.i1654, align 8
  %cmp.i1655 = icmp eq i64 %250, %251
  br i1 %cmp.i1655, label %land.rhs.i1656, label %_ZNK4llvh9StringRef6equalsES0_.exit1660

land.rhs.i1656:                                   ; preds = %land.lhs.true.i1448
  %252 = load ptr, ptr %this1.i1652, align 8
  %253 = load ptr, ptr %RHS.i1650, align 8
  %Length4.i1657 = getelementptr inbounds %"class.llvh::StringRef", ptr %RHS.i1650, i32 0, i32 1
  %254 = load i64, ptr %Length4.i1657, align 8
  store ptr %252, ptr %Lhs.addr.i3177, align 8
  store ptr %253, ptr %Rhs.addr.i3178, align 8
  store i64 %254, ptr %Length.addr.i3179, align 8
  %255 = load i64, ptr %Length.addr.i3179, align 8
  %cmp.i3180 = icmp eq i64 %255, 0
  br i1 %cmp.i3180, label %if.then.i3183, label %if.end.i3181

if.then.i3183:                                    ; preds = %land.rhs.i1656
  store i32 0, ptr %retval.i3176, align 4
  br label %_ZN4llvh9StringRef13compareMemoryEPKcS2_m.exit3184

if.end.i3181:                                     ; preds = %land.rhs.i1656
  %256 = load ptr, ptr %Lhs.addr.i3177, align 8
  %257 = load ptr, ptr %Rhs.addr.i3178, align 8
  %258 = load i64, ptr %Length.addr.i3179, align 8
  %call.i3182 = call i32 @memcmp(ptr noundef %256, ptr noundef %257, i64 noundef %258) #10
  store i32 %call.i3182, ptr %retval.i3176, align 4
  br label %_ZN4llvh9StringRef13compareMemoryEPKcS2_m.exit3184

_ZN4llvh9StringRef13compareMemoryEPKcS2_m.exit3184: ; preds = %if.end.i3181, %if.then.i3183
  %259 = load i32, ptr %retval.i3176, align 4
  %cmp5.i1659 = icmp eq i32 %259, 0
  br label %_ZNK4llvh9StringRef6equalsES0_.exit1660

_ZNK4llvh9StringRef6equalsES0_.exit1660:          ; preds = %_ZN4llvh9StringRef13compareMemoryEPKcS2_m.exit3184, %land.lhs.true.i1448
  %260 = phi i1 [ false, %land.lhs.true.i1448 ], [ %cmp5.i1659, %_ZN4llvh9StringRef13compareMemoryEPKcS2_m.exit3184 ]
  br i1 %260, label %if.then.i1450, label %_ZN4llvh12StringSwitchIjjE4CaseENS_13StringLiteralEj.exit1453

if.then.i1450:                                    ; preds = %_ZNK4llvh9StringRef6equalsES0_.exit1660
  %Result4.i1451 = getelementptr inbounds %"class.llvh::StringSwitch", ptr %this1.i1445, i32 0, i32 1
  %call5.i1452 = call noundef nonnull align 4 dereferenceable(8) ptr @_ZN4llvh8OptionalIjEaSEOj(ptr noundef nonnull align 4 dereferenceable(8) %Result4.i1451, ptr noundef nonnull align 4 dereferenceable(4) %Value.addr.i1442)
  br label %_ZN4llvh12StringSwitchIjjE4CaseENS_13StringLiteralEj.exit1453

_ZN4llvh12StringSwitchIjjE4CaseENS_13StringLiteralEj.exit1453: ; preds = %if.then.i1450, %_ZNK4llvh9StringRef6equalsES0_.exit1660, %_ZN4llvh12StringSwitchIjjE4CaseENS_13StringLiteralEj.exit1470
  call void @_ZN4llvh13StringLiteralC2ILm14EEEUa9enable_ifIXeqclL_Z16__builtin_strlenEfL0p_EmiLm14ELi1EEERAT__Kc(ptr noundef nonnull align 8 dereferenceable(16) %agg.tmp19, ptr noundef nonnull align 1 dereferenceable(14) @.str.9)
  %261 = getelementptr inbounds { ptr, i64 }, ptr %agg.tmp19, i32 0, i32 0
  %262 = load ptr, ptr %261, align 8
  %263 = getelementptr inbounds { ptr, i64 }, ptr %agg.tmp19, i32 0, i32 1
  %264 = load i64, ptr %263, align 8
  store ptr %262, ptr %S.i1423, align 8
  %265 = getelementptr inbounds { ptr, i64 }, ptr %S.i1423, i32 0, i32 1
  store i64 %264, ptr %265, align 8
  store ptr %this1.i1445, ptr %this.addr.i1424, align 8
  store i32 1, ptr %Value.addr.i1425, align 4
  %this1.i1428 = load ptr, ptr %this.addr.i1424, align 8
  %Result.i1429 = getelementptr inbounds %"class.llvh::StringSwitch", ptr %this1.i1428, i32 0, i32 1
  %call.i1430 = call noundef zeroext i1 @_ZNK4llvh8OptionalIjEcvbEv(ptr noundef nonnull align 4 dereferenceable(8) %Result.i1429)
  br i1 %call.i1430, label %_ZN4llvh12StringSwitchIjjE4CaseENS_13StringLiteralEj.exit1436, label %land.lhs.true.i1431

land.lhs.true.i1431:                              ; preds = %_ZN4llvh12StringSwitchIjjE4CaseENS_13StringLiteralEj.exit1453
  call void @llvm.memcpy.p0.p0.i64(ptr align 8 %agg.tmp.i1426, ptr align 8 %this1.i1428, i64 16, i1 false)
  call void @llvm.memcpy.p0.p0.i64(ptr align 8 %agg.tmp2.i1427, ptr align 8 %S.i1423, i64 16, i1 false)
  %266 = load ptr, ptr %agg.tmp.i1426, align 8
  %267 = getelementptr inbounds { ptr, i64 }, ptr %agg.tmp.i1426, i32 0, i32 1
  %268 = load i64, ptr %267, align 8
  %269 = load ptr, ptr %agg.tmp2.i1427, align 8
  %270 = getelementptr inbounds { ptr, i64 }, ptr %agg.tmp2.i1427, i32 0, i32 1
  %271 = load i64, ptr %270, align 8
  store ptr %266, ptr %LHS.i.i1420, align 8
  %272 = getelementptr inbounds { ptr, i64 }, ptr %LHS.i.i1420, i32 0, i32 1
  store i64 %268, ptr %272, align 8
  store ptr %269, ptr %RHS.i.i1421, align 8
  %273 = getelementptr inbounds { ptr, i64 }, ptr %RHS.i.i1421, i32 0, i32 1
  store i64 %271, ptr %273, align 8
  call void @llvm.memcpy.p0.p0.i64(ptr align 8 %agg.tmp.i.i1422, ptr align 8 %RHS.i.i1421, i64 16, i1 false)
  %274 = load ptr, ptr %agg.tmp.i.i1422, align 8
  %275 = getelementptr inbounds { ptr, i64 }, ptr %agg.tmp.i.i1422, i32 0, i32 1
  %276 = load i64, ptr %275, align 8
  store ptr %274, ptr %RHS.i1661, align 8
  %277 = getelementptr inbounds { ptr, i64 }, ptr %RHS.i1661, i32 0, i32 1
  store i64 %276, ptr %277, align 8
  store ptr %LHS.i.i1420, ptr %this.addr.i1662, align 8
  %this1.i1663 = load ptr, ptr %this.addr.i1662, align 8
  %Length.i1664 = getelementptr inbounds %"class.llvh::StringRef", ptr %this1.i1663, i32 0, i32 1
  %278 = load i64, ptr %Length.i1664, align 8
  %Length2.i1665 = getelementptr inbounds %"class.llvh::StringRef", ptr %RHS.i1661, i32 0, i32 1
  %279 = load i64, ptr %Length2.i1665, align 8
  %cmp.i1666 = icmp eq i64 %278, %279
  br i1 %cmp.i1666, label %land.rhs.i1667, label %_ZNK4llvh9StringRef6equalsES0_.exit1671

land.rhs.i1667:                                   ; preds = %land.lhs.true.i1431
  %280 = load ptr, ptr %this1.i1663, align 8
  %281 = load ptr, ptr %RHS.i1661, align 8
  %Length4.i1668 = getelementptr inbounds %"class.llvh::StringRef", ptr %RHS.i1661, i32 0, i32 1
  %282 = load i64, ptr %Length4.i1668, align 8
  store ptr %280, ptr %Lhs.addr.i3168, align 8
  store ptr %281, ptr %Rhs.addr.i3169, align 8
  store i64 %282, ptr %Length.addr.i3170, align 8
  %283 = load i64, ptr %Length.addr.i3170, align 8
  %cmp.i3171 = icmp eq i64 %283, 0
  br i1 %cmp.i3171, label %if.then.i3174, label %if.end.i3172

if.then.i3174:                                    ; preds = %land.rhs.i1667
  store i32 0, ptr %retval.i3167, align 4
  br label %_ZN4llvh9StringRef13compareMemoryEPKcS2_m.exit3175

if.end.i3172:                                     ; preds = %land.rhs.i1667
  %284 = load ptr, ptr %Lhs.addr.i3168, align 8
  %285 = load ptr, ptr %Rhs.addr.i3169, align 8
  %286 = load i64, ptr %Length.addr.i3170, align 8
  %call.i3173 = call i32 @memcmp(ptr noundef %284, ptr noundef %285, i64 noundef %286) #10
  store i32 %call.i3173, ptr %retval.i3167, align 4
  br label %_ZN4llvh9StringRef13compareMemoryEPKcS2_m.exit3175

_ZN4llvh9StringRef13compareMemoryEPKcS2_m.exit3175: ; preds = %if.end.i3172, %if.then.i3174
  %287 = load i32, ptr %retval.i3167, align 4
  %cmp5.i1670 = icmp eq i32 %287, 0
  br label %_ZNK4llvh9StringRef6equalsES0_.exit1671

_ZNK4llvh9StringRef6equalsES0_.exit1671:          ; preds = %_ZN4llvh9StringRef13compareMemoryEPKcS2_m.exit3175, %land.lhs.true.i1431
  %288 = phi i1 [ false, %land.lhs.true.i1431 ], [ %cmp5.i1670, %_ZN4llvh9StringRef13compareMemoryEPKcS2_m.exit3175 ]
  br i1 %288, label %if.then.i1433, label %_ZN4llvh12StringSwitchIjjE4CaseENS_13StringLiteralEj.exit1436

if.then.i1433:                                    ; preds = %_ZNK4llvh9StringRef6equalsES0_.exit1671
  %Result4.i1434 = getelementptr inbounds %"class.llvh::StringSwitch", ptr %this1.i1428, i32 0, i32 1
  %call5.i1435 = call noundef nonnull align 4 dereferenceable(8) ptr @_ZN4llvh8OptionalIjEaSEOj(ptr noundef nonnull align 4 dereferenceable(8) %Result4.i1434, ptr noundef nonnull align 4 dereferenceable(4) %Value.addr.i1425)
  br label %_ZN4llvh12StringSwitchIjjE4CaseENS_13StringLiteralEj.exit1436

_ZN4llvh12StringSwitchIjjE4CaseENS_13StringLiteralEj.exit1436: ; preds = %if.then.i1433, %_ZNK4llvh9StringRef6equalsES0_.exit1671, %_ZN4llvh12StringSwitchIjjE4CaseENS_13StringLiteralEj.exit1453
  call void @_ZN4llvh13StringLiteralC2ILm14EEEUa9enable_ifIXeqclL_Z16__builtin_strlenEfL0p_EmiLm14ELi1EEERAT__Kc(ptr noundef nonnull align 8 dereferenceable(16) %agg.tmp21, ptr noundef nonnull align 1 dereferenceable(14) @.str.10)
  %289 = getelementptr inbounds { ptr, i64 }, ptr %agg.tmp21, i32 0, i32 0
  %290 = load ptr, ptr %289, align 8
  %291 = getelementptr inbounds { ptr, i64 }, ptr %agg.tmp21, i32 0, i32 1
  %292 = load i64, ptr %291, align 8
  store ptr %290, ptr %S.i1406, align 8
  %293 = getelementptr inbounds { ptr, i64 }, ptr %S.i1406, i32 0, i32 1
  store i64 %292, ptr %293, align 8
  store ptr %this1.i1428, ptr %this.addr.i1407, align 8
  store i32 1, ptr %Value.addr.i1408, align 4
  %this1.i1411 = load ptr, ptr %this.addr.i1407, align 8
  %Result.i1412 = getelementptr inbounds %"class.llvh::StringSwitch", ptr %this1.i1411, i32 0, i32 1
  %call.i1413 = call noundef zeroext i1 @_ZNK4llvh8OptionalIjEcvbEv(ptr noundef nonnull align 4 dereferenceable(8) %Result.i1412)
  br i1 %call.i1413, label %_ZN4llvh12StringSwitchIjjE4CaseENS_13StringLiteralEj.exit1419, label %land.lhs.true.i1414

land.lhs.true.i1414:                              ; preds = %_ZN4llvh12StringSwitchIjjE4CaseENS_13StringLiteralEj.exit1436
  call void @llvm.memcpy.p0.p0.i64(ptr align 8 %agg.tmp.i1409, ptr align 8 %this1.i1411, i64 16, i1 false)
  call void @llvm.memcpy.p0.p0.i64(ptr align 8 %agg.tmp2.i1410, ptr align 8 %S.i1406, i64 16, i1 false)
  %294 = load ptr, ptr %agg.tmp.i1409, align 8
  %295 = getelementptr inbounds { ptr, i64 }, ptr %agg.tmp.i1409, i32 0, i32 1
  %296 = load i64, ptr %295, align 8
  %297 = load ptr, ptr %agg.tmp2.i1410, align 8
  %298 = getelementptr inbounds { ptr, i64 }, ptr %agg.tmp2.i1410, i32 0, i32 1
  %299 = load i64, ptr %298, align 8
  store ptr %294, ptr %LHS.i.i1403, align 8
  %300 = getelementptr inbounds { ptr, i64 }, ptr %LHS.i.i1403, i32 0, i32 1
  store i64 %296, ptr %300, align 8
  store ptr %297, ptr %RHS.i.i1404, align 8
  %301 = getelementptr inbounds { ptr, i64 }, ptr %RHS.i.i1404, i32 0, i32 1
  store i64 %299, ptr %301, align 8
  call void @llvm.memcpy.p0.p0.i64(ptr align 8 %agg.tmp.i.i1405, ptr align 8 %RHS.i.i1404, i64 16, i1 false)
  %302 = load ptr, ptr %agg.tmp.i.i1405, align 8
  %303 = getelementptr inbounds { ptr, i64 }, ptr %agg.tmp.i.i1405, i32 0, i32 1
  %304 = load i64, ptr %303, align 8
  store ptr %302, ptr %RHS.i1672, align 8
  %305 = getelementptr inbounds { ptr, i64 }, ptr %RHS.i1672, i32 0, i32 1
  store i64 %304, ptr %305, align 8
  store ptr %LHS.i.i1403, ptr %this.addr.i1673, align 8
  %this1.i1674 = load ptr, ptr %this.addr.i1673, align 8
  %Length.i1675 = getelementptr inbounds %"class.llvh::StringRef", ptr %this1.i1674, i32 0, i32 1
  %306 = load i64, ptr %Length.i1675, align 8
  %Length2.i1676 = getelementptr inbounds %"class.llvh::StringRef", ptr %RHS.i1672, i32 0, i32 1
  %307 = load i64, ptr %Length2.i1676, align 8
  %cmp.i1677 = icmp eq i64 %306, %307
  br i1 %cmp.i1677, label %land.rhs.i1678, label %_ZNK4llvh9StringRef6equalsES0_.exit1682

land.rhs.i1678:                                   ; preds = %land.lhs.true.i1414
  %308 = load ptr, ptr %this1.i1674, align 8
  %309 = load ptr, ptr %RHS.i1672, align 8
  %Length4.i1679 = getelementptr inbounds %"class.llvh::StringRef", ptr %RHS.i1672, i32 0, i32 1
  %310 = load i64, ptr %Length4.i1679, align 8
  store ptr %308, ptr %Lhs.addr.i3159, align 8
  store ptr %309, ptr %Rhs.addr.i3160, align 8
  store i64 %310, ptr %Length.addr.i3161, align 8
  %311 = load i64, ptr %Length.addr.i3161, align 8
  %cmp.i3162 = icmp eq i64 %311, 0
  br i1 %cmp.i3162, label %if.then.i3165, label %if.end.i3163

if.then.i3165:                                    ; preds = %land.rhs.i1678
  store i32 0, ptr %retval.i3158, align 4
  br label %_ZN4llvh9StringRef13compareMemoryEPKcS2_m.exit3166

if.end.i3163:                                     ; preds = %land.rhs.i1678
  %312 = load ptr, ptr %Lhs.addr.i3159, align 8
  %313 = load ptr, ptr %Rhs.addr.i3160, align 8
  %314 = load i64, ptr %Length.addr.i3161, align 8
  %call.i3164 = call i32 @memcmp(ptr noundef %312, ptr noundef %313, i64 noundef %314) #10
  store i32 %call.i3164, ptr %retval.i3158, align 4
  br label %_ZN4llvh9StringRef13compareMemoryEPKcS2_m.exit3166

_ZN4llvh9StringRef13compareMemoryEPKcS2_m.exit3166: ; preds = %if.end.i3163, %if.then.i3165
  %315 = load i32, ptr %retval.i3158, align 4
  %cmp5.i1681 = icmp eq i32 %315, 0
  br label %_ZNK4llvh9StringRef6equalsES0_.exit1682

_ZNK4llvh9StringRef6equalsES0_.exit1682:          ; preds = %_ZN4llvh9StringRef13compareMemoryEPKcS2_m.exit3166, %land.lhs.true.i1414
  %316 = phi i1 [ false, %land.lhs.true.i1414 ], [ %cmp5.i1681, %_ZN4llvh9StringRef13compareMemoryEPKcS2_m.exit3166 ]
  br i1 %316, label %if.then.i1416, label %_ZN4llvh12StringSwitchIjjE4CaseENS_13StringLiteralEj.exit1419

if.then.i1416:                                    ; preds = %_ZNK4llvh9StringRef6equalsES0_.exit1682
  %Result4.i1417 = getelementptr inbounds %"class.llvh::StringSwitch", ptr %this1.i1411, i32 0, i32 1
  %call5.i1418 = call noundef nonnull align 4 dereferenceable(8) ptr @_ZN4llvh8OptionalIjEaSEOj(ptr noundef nonnull align 4 dereferenceable(8) %Result4.i1417, ptr noundef nonnull align 4 dereferenceable(4) %Value.addr.i1408)
  br label %_ZN4llvh12StringSwitchIjjE4CaseENS_13StringLiteralEj.exit1419

_ZN4llvh12StringSwitchIjjE4CaseENS_13StringLiteralEj.exit1419: ; preds = %if.then.i1416, %_ZNK4llvh9StringRef6equalsES0_.exit1682, %_ZN4llvh12StringSwitchIjjE4CaseENS_13StringLiteralEj.exit1436
  call void @_ZN4llvh13StringLiteralC2ILm9EEEUa9enable_ifIXeqclL_Z16__builtin_strlenEfL0p_EmiLm9ELi1EEERAT__Kc(ptr noundef nonnull align 8 dereferenceable(16) %agg.tmp23, ptr noundef nonnull align 1 dereferenceable(9) @.str.11)
  %317 = getelementptr inbounds { ptr, i64 }, ptr %agg.tmp23, i32 0, i32 0
  %318 = load ptr, ptr %317, align 8
  %319 = getelementptr inbounds { ptr, i64 }, ptr %agg.tmp23, i32 0, i32 1
  %320 = load i64, ptr %319, align 8
  store ptr %318, ptr %S.i1389, align 8
  %321 = getelementptr inbounds { ptr, i64 }, ptr %S.i1389, i32 0, i32 1
  store i64 %320, ptr %321, align 8
  store ptr %this1.i1411, ptr %this.addr.i1390, align 8
  store i32 1, ptr %Value.addr.i1391, align 4
  %this1.i1394 = load ptr, ptr %this.addr.i1390, align 8
  %Result.i1395 = getelementptr inbounds %"class.llvh::StringSwitch", ptr %this1.i1394, i32 0, i32 1
  %call.i1396 = call noundef zeroext i1 @_ZNK4llvh8OptionalIjEcvbEv(ptr noundef nonnull align 4 dereferenceable(8) %Result.i1395)
  br i1 %call.i1396, label %_ZN4llvh12StringSwitchIjjE4CaseENS_13StringLiteralEj.exit1402, label %land.lhs.true.i1397

land.lhs.true.i1397:                              ; preds = %_ZN4llvh12StringSwitchIjjE4CaseENS_13StringLiteralEj.exit1419
  call void @llvm.memcpy.p0.p0.i64(ptr align 8 %agg.tmp.i1392, ptr align 8 %this1.i1394, i64 16, i1 false)
  call void @llvm.memcpy.p0.p0.i64(ptr align 8 %agg.tmp2.i1393, ptr align 8 %S.i1389, i64 16, i1 false)
  %322 = load ptr, ptr %agg.tmp.i1392, align 8
  %323 = getelementptr inbounds { ptr, i64 }, ptr %agg.tmp.i1392, i32 0, i32 1
  %324 = load i64, ptr %323, align 8
  %325 = load ptr, ptr %agg.tmp2.i1393, align 8
  %326 = getelementptr inbounds { ptr, i64 }, ptr %agg.tmp2.i1393, i32 0, i32 1
  %327 = load i64, ptr %326, align 8
  store ptr %322, ptr %LHS.i.i1386, align 8
  %328 = getelementptr inbounds { ptr, i64 }, ptr %LHS.i.i1386, i32 0, i32 1
  store i64 %324, ptr %328, align 8
  store ptr %325, ptr %RHS.i.i1387, align 8
  %329 = getelementptr inbounds { ptr, i64 }, ptr %RHS.i.i1387, i32 0, i32 1
  store i64 %327, ptr %329, align 8
  call void @llvm.memcpy.p0.p0.i64(ptr align 8 %agg.tmp.i.i1388, ptr align 8 %RHS.i.i1387, i64 16, i1 false)
  %330 = load ptr, ptr %agg.tmp.i.i1388, align 8
  %331 = getelementptr inbounds { ptr, i64 }, ptr %agg.tmp.i.i1388, i32 0, i32 1
  %332 = load i64, ptr %331, align 8
  store ptr %330, ptr %RHS.i1683, align 8
  %333 = getelementptr inbounds { ptr, i64 }, ptr %RHS.i1683, i32 0, i32 1
  store i64 %332, ptr %333, align 8
  store ptr %LHS.i.i1386, ptr %this.addr.i1684, align 8
  %this1.i1685 = load ptr, ptr %this.addr.i1684, align 8
  %Length.i1686 = getelementptr inbounds %"class.llvh::StringRef", ptr %this1.i1685, i32 0, i32 1
  %334 = load i64, ptr %Length.i1686, align 8
  %Length2.i1687 = getelementptr inbounds %"class.llvh::StringRef", ptr %RHS.i1683, i32 0, i32 1
  %335 = load i64, ptr %Length2.i1687, align 8
  %cmp.i1688 = icmp eq i64 %334, %335
  br i1 %cmp.i1688, label %land.rhs.i1689, label %_ZNK4llvh9StringRef6equalsES0_.exit1693

land.rhs.i1689:                                   ; preds = %land.lhs.true.i1397
  %336 = load ptr, ptr %this1.i1685, align 8
  %337 = load ptr, ptr %RHS.i1683, align 8
  %Length4.i1690 = getelementptr inbounds %"class.llvh::StringRef", ptr %RHS.i1683, i32 0, i32 1
  %338 = load i64, ptr %Length4.i1690, align 8
  store ptr %336, ptr %Lhs.addr.i3150, align 8
  store ptr %337, ptr %Rhs.addr.i3151, align 8
  store i64 %338, ptr %Length.addr.i3152, align 8
  %339 = load i64, ptr %Length.addr.i3152, align 8
  %cmp.i3153 = icmp eq i64 %339, 0
  br i1 %cmp.i3153, label %if.then.i3156, label %if.end.i3154

if.then.i3156:                                    ; preds = %land.rhs.i1689
  store i32 0, ptr %retval.i3149, align 4
  br label %_ZN4llvh9StringRef13compareMemoryEPKcS2_m.exit3157

if.end.i3154:                                     ; preds = %land.rhs.i1689
  %340 = load ptr, ptr %Lhs.addr.i3150, align 8
  %341 = load ptr, ptr %Rhs.addr.i3151, align 8
  %342 = load i64, ptr %Length.addr.i3152, align 8
  %call.i3155 = call i32 @memcmp(ptr noundef %340, ptr noundef %341, i64 noundef %342) #10
  store i32 %call.i3155, ptr %retval.i3149, align 4
  br label %_ZN4llvh9StringRef13compareMemoryEPKcS2_m.exit3157

_ZN4llvh9StringRef13compareMemoryEPKcS2_m.exit3157: ; preds = %if.end.i3154, %if.then.i3156
  %343 = load i32, ptr %retval.i3149, align 4
  %cmp5.i1692 = icmp eq i32 %343, 0
  br label %_ZNK4llvh9StringRef6equalsES0_.exit1693

_ZNK4llvh9StringRef6equalsES0_.exit1693:          ; preds = %_ZN4llvh9StringRef13compareMemoryEPKcS2_m.exit3157, %land.lhs.true.i1397
  %344 = phi i1 [ false, %land.lhs.true.i1397 ], [ %cmp5.i1692, %_ZN4llvh9StringRef13compareMemoryEPKcS2_m.exit3157 ]
  br i1 %344, label %if.then.i1399, label %_ZN4llvh12StringSwitchIjjE4CaseENS_13StringLiteralEj.exit1402

if.then.i1399:                                    ; preds = %_ZNK4llvh9StringRef6equalsES0_.exit1693
  %Result4.i1400 = getelementptr inbounds %"class.llvh::StringSwitch", ptr %this1.i1394, i32 0, i32 1
  %call5.i1401 = call noundef nonnull align 4 dereferenceable(8) ptr @_ZN4llvh8OptionalIjEaSEOj(ptr noundef nonnull align 4 dereferenceable(8) %Result4.i1400, ptr noundef nonnull align 4 dereferenceable(4) %Value.addr.i1391)
  br label %_ZN4llvh12StringSwitchIjjE4CaseENS_13StringLiteralEj.exit1402

_ZN4llvh12StringSwitchIjjE4CaseENS_13StringLiteralEj.exit1402: ; preds = %if.then.i1399, %_ZNK4llvh9StringRef6equalsES0_.exit1693, %_ZN4llvh12StringSwitchIjjE4CaseENS_13StringLiteralEj.exit1419
  call void @_ZN4llvh13StringLiteralC2ILm11EEEUa9enable_ifIXeqclL_Z16__builtin_strlenEfL0p_EmiLm11ELi1EEERAT__Kc(ptr noundef nonnull align 8 dereferenceable(16) %agg.tmp25, ptr noundef nonnull align 1 dereferenceable(11) @.str.12)
  %345 = getelementptr inbounds { ptr, i64 }, ptr %agg.tmp25, i32 0, i32 0
  %346 = load ptr, ptr %345, align 8
  %347 = getelementptr inbounds { ptr, i64 }, ptr %agg.tmp25, i32 0, i32 1
  %348 = load i64, ptr %347, align 8
  store ptr %346, ptr %S.i1372, align 8
  %349 = getelementptr inbounds { ptr, i64 }, ptr %S.i1372, i32 0, i32 1
  store i64 %348, ptr %349, align 8
  store ptr %this1.i1394, ptr %this.addr.i1373, align 8
  store i32 1, ptr %Value.addr.i1374, align 4
  %this1.i1377 = load ptr, ptr %this.addr.i1373, align 8
  %Result.i1378 = getelementptr inbounds %"class.llvh::StringSwitch", ptr %this1.i1377, i32 0, i32 1
  %call.i1379 = call noundef zeroext i1 @_ZNK4llvh8OptionalIjEcvbEv(ptr noundef nonnull align 4 dereferenceable(8) %Result.i1378)
  br i1 %call.i1379, label %_ZN4llvh12StringSwitchIjjE4CaseENS_13StringLiteralEj.exit1385, label %land.lhs.true.i1380

land.lhs.true.i1380:                              ; preds = %_ZN4llvh12StringSwitchIjjE4CaseENS_13StringLiteralEj.exit1402
  call void @llvm.memcpy.p0.p0.i64(ptr align 8 %agg.tmp.i1375, ptr align 8 %this1.i1377, i64 16, i1 false)
  call void @llvm.memcpy.p0.p0.i64(ptr align 8 %agg.tmp2.i1376, ptr align 8 %S.i1372, i64 16, i1 false)
  %350 = load ptr, ptr %agg.tmp.i1375, align 8
  %351 = getelementptr inbounds { ptr, i64 }, ptr %agg.tmp.i1375, i32 0, i32 1
  %352 = load i64, ptr %351, align 8
  %353 = load ptr, ptr %agg.tmp2.i1376, align 8
  %354 = getelementptr inbounds { ptr, i64 }, ptr %agg.tmp2.i1376, i32 0, i32 1
  %355 = load i64, ptr %354, align 8
  store ptr %350, ptr %LHS.i.i1369, align 8
  %356 = getelementptr inbounds { ptr, i64 }, ptr %LHS.i.i1369, i32 0, i32 1
  store i64 %352, ptr %356, align 8
  store ptr %353, ptr %RHS.i.i1370, align 8
  %357 = getelementptr inbounds { ptr, i64 }, ptr %RHS.i.i1370, i32 0, i32 1
  store i64 %355, ptr %357, align 8
  call void @llvm.memcpy.p0.p0.i64(ptr align 8 %agg.tmp.i.i1371, ptr align 8 %RHS.i.i1370, i64 16, i1 false)
  %358 = load ptr, ptr %agg.tmp.i.i1371, align 8
  %359 = getelementptr inbounds { ptr, i64 }, ptr %agg.tmp.i.i1371, i32 0, i32 1
  %360 = load i64, ptr %359, align 8
  store ptr %358, ptr %RHS.i1694, align 8
  %361 = getelementptr inbounds { ptr, i64 }, ptr %RHS.i1694, i32 0, i32 1
  store i64 %360, ptr %361, align 8
  store ptr %LHS.i.i1369, ptr %this.addr.i1695, align 8
  %this1.i1696 = load ptr, ptr %this.addr.i1695, align 8
  %Length.i1697 = getelementptr inbounds %"class.llvh::StringRef", ptr %this1.i1696, i32 0, i32 1
  %362 = load i64, ptr %Length.i1697, align 8
  %Length2.i1698 = getelementptr inbounds %"class.llvh::StringRef", ptr %RHS.i1694, i32 0, i32 1
  %363 = load i64, ptr %Length2.i1698, align 8
  %cmp.i1699 = icmp eq i64 %362, %363
  br i1 %cmp.i1699, label %land.rhs.i1700, label %_ZNK4llvh9StringRef6equalsES0_.exit1704

land.rhs.i1700:                                   ; preds = %land.lhs.true.i1380
  %364 = load ptr, ptr %this1.i1696, align 8
  %365 = load ptr, ptr %RHS.i1694, align 8
  %Length4.i1701 = getelementptr inbounds %"class.llvh::StringRef", ptr %RHS.i1694, i32 0, i32 1
  %366 = load i64, ptr %Length4.i1701, align 8
  store ptr %364, ptr %Lhs.addr.i3141, align 8
  store ptr %365, ptr %Rhs.addr.i3142, align 8
  store i64 %366, ptr %Length.addr.i3143, align 8
  %367 = load i64, ptr %Length.addr.i3143, align 8
  %cmp.i3144 = icmp eq i64 %367, 0
  br i1 %cmp.i3144, label %if.then.i3147, label %if.end.i3145

if.then.i3147:                                    ; preds = %land.rhs.i1700
  store i32 0, ptr %retval.i3140, align 4
  br label %_ZN4llvh9StringRef13compareMemoryEPKcS2_m.exit3148

if.end.i3145:                                     ; preds = %land.rhs.i1700
  %368 = load ptr, ptr %Lhs.addr.i3141, align 8
  %369 = load ptr, ptr %Rhs.addr.i3142, align 8
  %370 = load i64, ptr %Length.addr.i3143, align 8
  %call.i3146 = call i32 @memcmp(ptr noundef %368, ptr noundef %369, i64 noundef %370) #10
  store i32 %call.i3146, ptr %retval.i3140, align 4
  br label %_ZN4llvh9StringRef13compareMemoryEPKcS2_m.exit3148

_ZN4llvh9StringRef13compareMemoryEPKcS2_m.exit3148: ; preds = %if.end.i3145, %if.then.i3147
  %371 = load i32, ptr %retval.i3140, align 4
  %cmp5.i1703 = icmp eq i32 %371, 0
  br label %_ZNK4llvh9StringRef6equalsES0_.exit1704

_ZNK4llvh9StringRef6equalsES0_.exit1704:          ; preds = %_ZN4llvh9StringRef13compareMemoryEPKcS2_m.exit3148, %land.lhs.true.i1380
  %372 = phi i1 [ false, %land.lhs.true.i1380 ], [ %cmp5.i1703, %_ZN4llvh9StringRef13compareMemoryEPKcS2_m.exit3148 ]
  br i1 %372, label %if.then.i1382, label %_ZN4llvh12StringSwitchIjjE4CaseENS_13StringLiteralEj.exit1385

if.then.i1382:                                    ; preds = %_ZNK4llvh9StringRef6equalsES0_.exit1704
  %Result4.i1383 = getelementptr inbounds %"class.llvh::StringSwitch", ptr %this1.i1377, i32 0, i32 1
  %call5.i1384 = call noundef nonnull align 4 dereferenceable(8) ptr @_ZN4llvh8OptionalIjEaSEOj(ptr noundef nonnull align 4 dereferenceable(8) %Result4.i1383, ptr noundef nonnull align 4 dereferenceable(4) %Value.addr.i1374)
  br label %_ZN4llvh12StringSwitchIjjE4CaseENS_13StringLiteralEj.exit1385

_ZN4llvh12StringSwitchIjjE4CaseENS_13StringLiteralEj.exit1385: ; preds = %if.then.i1382, %_ZNK4llvh9StringRef6equalsES0_.exit1704, %_ZN4llvh12StringSwitchIjjE4CaseENS_13StringLiteralEj.exit1402
  call void @_ZN4llvh13StringLiteralC2ILm8EEEUa9enable_ifIXeqclL_Z16__builtin_strlenEfL0p_EmiLm8ELi1EEERAT__Kc(ptr noundef nonnull align 8 dereferenceable(16) %agg.tmp27, ptr noundef nonnull align 1 dereferenceable(8) @.str.13)
  %373 = getelementptr inbounds { ptr, i64 }, ptr %agg.tmp27, i32 0, i32 0
  %374 = load ptr, ptr %373, align 8
  %375 = getelementptr inbounds { ptr, i64 }, ptr %agg.tmp27, i32 0, i32 1
  %376 = load i64, ptr %375, align 8
  store ptr %374, ptr %S.i1355, align 8
  %377 = getelementptr inbounds { ptr, i64 }, ptr %S.i1355, i32 0, i32 1
  store i64 %376, ptr %377, align 8
  store ptr %this1.i1377, ptr %this.addr.i1356, align 8
  store i32 1, ptr %Value.addr.i1357, align 4
  %this1.i1360 = load ptr, ptr %this.addr.i1356, align 8
  %Result.i1361 = getelementptr inbounds %"class.llvh::StringSwitch", ptr %this1.i1360, i32 0, i32 1
  %call.i1362 = call noundef zeroext i1 @_ZNK4llvh8OptionalIjEcvbEv(ptr noundef nonnull align 4 dereferenceable(8) %Result.i1361)
  br i1 %call.i1362, label %_ZN4llvh12StringSwitchIjjE4CaseENS_13StringLiteralEj.exit1368, label %land.lhs.true.i1363

land.lhs.true.i1363:                              ; preds = %_ZN4llvh12StringSwitchIjjE4CaseENS_13StringLiteralEj.exit1385
  call void @llvm.memcpy.p0.p0.i64(ptr align 8 %agg.tmp.i1358, ptr align 8 %this1.i1360, i64 16, i1 false)
  call void @llvm.memcpy.p0.p0.i64(ptr align 8 %agg.tmp2.i1359, ptr align 8 %S.i1355, i64 16, i1 false)
  %378 = load ptr, ptr %agg.tmp.i1358, align 8
  %379 = getelementptr inbounds { ptr, i64 }, ptr %agg.tmp.i1358, i32 0, i32 1
  %380 = load i64, ptr %379, align 8
  %381 = load ptr, ptr %agg.tmp2.i1359, align 8
  %382 = getelementptr inbounds { ptr, i64 }, ptr %agg.tmp2.i1359, i32 0, i32 1
  %383 = load i64, ptr %382, align 8
  store ptr %378, ptr %LHS.i.i1352, align 8
  %384 = getelementptr inbounds { ptr, i64 }, ptr %LHS.i.i1352, i32 0, i32 1
  store i64 %380, ptr %384, align 8
  store ptr %381, ptr %RHS.i.i1353, align 8
  %385 = getelementptr inbounds { ptr, i64 }, ptr %RHS.i.i1353, i32 0, i32 1
  store i64 %383, ptr %385, align 8
  call void @llvm.memcpy.p0.p0.i64(ptr align 8 %agg.tmp.i.i1354, ptr align 8 %RHS.i.i1353, i64 16, i1 false)
  %386 = load ptr, ptr %agg.tmp.i.i1354, align 8
  %387 = getelementptr inbounds { ptr, i64 }, ptr %agg.tmp.i.i1354, i32 0, i32 1
  %388 = load i64, ptr %387, align 8
  store ptr %386, ptr %RHS.i1705, align 8
  %389 = getelementptr inbounds { ptr, i64 }, ptr %RHS.i1705, i32 0, i32 1
  store i64 %388, ptr %389, align 8
  store ptr %LHS.i.i1352, ptr %this.addr.i1706, align 8
  %this1.i1707 = load ptr, ptr %this.addr.i1706, align 8
  %Length.i1708 = getelementptr inbounds %"class.llvh::StringRef", ptr %this1.i1707, i32 0, i32 1
  %390 = load i64, ptr %Length.i1708, align 8
  %Length2.i1709 = getelementptr inbounds %"class.llvh::StringRef", ptr %RHS.i1705, i32 0, i32 1
  %391 = load i64, ptr %Length2.i1709, align 8
  %cmp.i1710 = icmp eq i64 %390, %391
  br i1 %cmp.i1710, label %land.rhs.i1711, label %_ZNK4llvh9StringRef6equalsES0_.exit1715

land.rhs.i1711:                                   ; preds = %land.lhs.true.i1363
  %392 = load ptr, ptr %this1.i1707, align 8
  %393 = load ptr, ptr %RHS.i1705, align 8
  %Length4.i1712 = getelementptr inbounds %"class.llvh::StringRef", ptr %RHS.i1705, i32 0, i32 1
  %394 = load i64, ptr %Length4.i1712, align 8
  store ptr %392, ptr %Lhs.addr.i3132, align 8
  store ptr %393, ptr %Rhs.addr.i3133, align 8
  store i64 %394, ptr %Length.addr.i3134, align 8
  %395 = load i64, ptr %Length.addr.i3134, align 8
  %cmp.i3135 = icmp eq i64 %395, 0
  br i1 %cmp.i3135, label %if.then.i3138, label %if.end.i3136

if.then.i3138:                                    ; preds = %land.rhs.i1711
  store i32 0, ptr %retval.i3131, align 4
  br label %_ZN4llvh9StringRef13compareMemoryEPKcS2_m.exit3139

if.end.i3136:                                     ; preds = %land.rhs.i1711
  %396 = load ptr, ptr %Lhs.addr.i3132, align 8
  %397 = load ptr, ptr %Rhs.addr.i3133, align 8
  %398 = load i64, ptr %Length.addr.i3134, align 8
  %call.i3137 = call i32 @memcmp(ptr noundef %396, ptr noundef %397, i64 noundef %398) #10
  store i32 %call.i3137, ptr %retval.i3131, align 4
  br label %_ZN4llvh9StringRef13compareMemoryEPKcS2_m.exit3139

_ZN4llvh9StringRef13compareMemoryEPKcS2_m.exit3139: ; preds = %if.end.i3136, %if.then.i3138
  %399 = load i32, ptr %retval.i3131, align 4
  %cmp5.i1714 = icmp eq i32 %399, 0
  br label %_ZNK4llvh9StringRef6equalsES0_.exit1715

_ZNK4llvh9StringRef6equalsES0_.exit1715:          ; preds = %_ZN4llvh9StringRef13compareMemoryEPKcS2_m.exit3139, %land.lhs.true.i1363
  %400 = phi i1 [ false, %land.lhs.true.i1363 ], [ %cmp5.i1714, %_ZN4llvh9StringRef13compareMemoryEPKcS2_m.exit3139 ]
  br i1 %400, label %if.then.i1365, label %_ZN4llvh12StringSwitchIjjE4CaseENS_13StringLiteralEj.exit1368

if.then.i1365:                                    ; preds = %_ZNK4llvh9StringRef6equalsES0_.exit1715
  %Result4.i1366 = getelementptr inbounds %"class.llvh::StringSwitch", ptr %this1.i1360, i32 0, i32 1
  %call5.i1367 = call noundef nonnull align 4 dereferenceable(8) ptr @_ZN4llvh8OptionalIjEaSEOj(ptr noundef nonnull align 4 dereferenceable(8) %Result4.i1366, ptr noundef nonnull align 4 dereferenceable(4) %Value.addr.i1357)
  br label %_ZN4llvh12StringSwitchIjjE4CaseENS_13StringLiteralEj.exit1368

_ZN4llvh12StringSwitchIjjE4CaseENS_13StringLiteralEj.exit1368: ; preds = %if.then.i1365, %_ZNK4llvh9StringRef6equalsES0_.exit1715, %_ZN4llvh12StringSwitchIjjE4CaseENS_13StringLiteralEj.exit1385
  call void @_ZN4llvh13StringLiteralC2ILm8EEEUa9enable_ifIXeqclL_Z16__builtin_strlenEfL0p_EmiLm8ELi1EEERAT__Kc(ptr noundef nonnull align 8 dereferenceable(16) %agg.tmp29, ptr noundef nonnull align 1 dereferenceable(8) @.str.14)
  %401 = getelementptr inbounds { ptr, i64 }, ptr %agg.tmp29, i32 0, i32 0
  %402 = load ptr, ptr %401, align 8
  %403 = getelementptr inbounds { ptr, i64 }, ptr %agg.tmp29, i32 0, i32 1
  %404 = load i64, ptr %403, align 8
  store ptr %402, ptr %S.i1338, align 8
  %405 = getelementptr inbounds { ptr, i64 }, ptr %S.i1338, i32 0, i32 1
  store i64 %404, ptr %405, align 8
  store ptr %this1.i1360, ptr %this.addr.i1339, align 8
  store i32 1, ptr %Value.addr.i1340, align 4
  %this1.i1343 = load ptr, ptr %this.addr.i1339, align 8
  %Result.i1344 = getelementptr inbounds %"class.llvh::StringSwitch", ptr %this1.i1343, i32 0, i32 1
  %call.i1345 = call noundef zeroext i1 @_ZNK4llvh8OptionalIjEcvbEv(ptr noundef nonnull align 4 dereferenceable(8) %Result.i1344)
  br i1 %call.i1345, label %_ZN4llvh12StringSwitchIjjE4CaseENS_13StringLiteralEj.exit1351, label %land.lhs.true.i1346

land.lhs.true.i1346:                              ; preds = %_ZN4llvh12StringSwitchIjjE4CaseENS_13StringLiteralEj.exit1368
  call void @llvm.memcpy.p0.p0.i64(ptr align 8 %agg.tmp.i1341, ptr align 8 %this1.i1343, i64 16, i1 false)
  call void @llvm.memcpy.p0.p0.i64(ptr align 8 %agg.tmp2.i1342, ptr align 8 %S.i1338, i64 16, i1 false)
  %406 = load ptr, ptr %agg.tmp.i1341, align 8
  %407 = getelementptr inbounds { ptr, i64 }, ptr %agg.tmp.i1341, i32 0, i32 1
  %408 = load i64, ptr %407, align 8
  %409 = load ptr, ptr %agg.tmp2.i1342, align 8
  %410 = getelementptr inbounds { ptr, i64 }, ptr %agg.tmp2.i1342, i32 0, i32 1
  %411 = load i64, ptr %410, align 8
  store ptr %406, ptr %LHS.i.i1335, align 8
  %412 = getelementptr inbounds { ptr, i64 }, ptr %LHS.i.i1335, i32 0, i32 1
  store i64 %408, ptr %412, align 8
  store ptr %409, ptr %RHS.i.i1336, align 8
  %413 = getelementptr inbounds { ptr, i64 }, ptr %RHS.i.i1336, i32 0, i32 1
  store i64 %411, ptr %413, align 8
  call void @llvm.memcpy.p0.p0.i64(ptr align 8 %agg.tmp.i.i1337, ptr align 8 %RHS.i.i1336, i64 16, i1 false)
  %414 = load ptr, ptr %agg.tmp.i.i1337, align 8
  %415 = getelementptr inbounds { ptr, i64 }, ptr %agg.tmp.i.i1337, i32 0, i32 1
  %416 = load i64, ptr %415, align 8
  store ptr %414, ptr %RHS.i1716, align 8
  %417 = getelementptr inbounds { ptr, i64 }, ptr %RHS.i1716, i32 0, i32 1
  store i64 %416, ptr %417, align 8
  store ptr %LHS.i.i1335, ptr %this.addr.i1717, align 8
  %this1.i1718 = load ptr, ptr %this.addr.i1717, align 8
  %Length.i1719 = getelementptr inbounds %"class.llvh::StringRef", ptr %this1.i1718, i32 0, i32 1
  %418 = load i64, ptr %Length.i1719, align 8
  %Length2.i1720 = getelementptr inbounds %"class.llvh::StringRef", ptr %RHS.i1716, i32 0, i32 1
  %419 = load i64, ptr %Length2.i1720, align 8
  %cmp.i1721 = icmp eq i64 %418, %419
  br i1 %cmp.i1721, label %land.rhs.i1722, label %_ZNK4llvh9StringRef6equalsES0_.exit1726

land.rhs.i1722:                                   ; preds = %land.lhs.true.i1346
  %420 = load ptr, ptr %this1.i1718, align 8
  %421 = load ptr, ptr %RHS.i1716, align 8
  %Length4.i1723 = getelementptr inbounds %"class.llvh::StringRef", ptr %RHS.i1716, i32 0, i32 1
  %422 = load i64, ptr %Length4.i1723, align 8
  store ptr %420, ptr %Lhs.addr.i3123, align 8
  store ptr %421, ptr %Rhs.addr.i3124, align 8
  store i64 %422, ptr %Length.addr.i3125, align 8
  %423 = load i64, ptr %Length.addr.i3125, align 8
  %cmp.i3126 = icmp eq i64 %423, 0
  br i1 %cmp.i3126, label %if.then.i3129, label %if.end.i3127

if.then.i3129:                                    ; preds = %land.rhs.i1722
  store i32 0, ptr %retval.i3122, align 4
  br label %_ZN4llvh9StringRef13compareMemoryEPKcS2_m.exit3130

if.end.i3127:                                     ; preds = %land.rhs.i1722
  %424 = load ptr, ptr %Lhs.addr.i3123, align 8
  %425 = load ptr, ptr %Rhs.addr.i3124, align 8
  %426 = load i64, ptr %Length.addr.i3125, align 8
  %call.i3128 = call i32 @memcmp(ptr noundef %424, ptr noundef %425, i64 noundef %426) #10
  store i32 %call.i3128, ptr %retval.i3122, align 4
  br label %_ZN4llvh9StringRef13compareMemoryEPKcS2_m.exit3130

_ZN4llvh9StringRef13compareMemoryEPKcS2_m.exit3130: ; preds = %if.end.i3127, %if.then.i3129
  %427 = load i32, ptr %retval.i3122, align 4
  %cmp5.i1725 = icmp eq i32 %427, 0
  br label %_ZNK4llvh9StringRef6equalsES0_.exit1726

_ZNK4llvh9StringRef6equalsES0_.exit1726:          ; preds = %_ZN4llvh9StringRef13compareMemoryEPKcS2_m.exit3130, %land.lhs.true.i1346
  %428 = phi i1 [ false, %land.lhs.true.i1346 ], [ %cmp5.i1725, %_ZN4llvh9StringRef13compareMemoryEPKcS2_m.exit3130 ]
  br i1 %428, label %if.then.i1348, label %_ZN4llvh12StringSwitchIjjE4CaseENS_13StringLiteralEj.exit1351

if.then.i1348:                                    ; preds = %_ZNK4llvh9StringRef6equalsES0_.exit1726
  %Result4.i1349 = getelementptr inbounds %"class.llvh::StringSwitch", ptr %this1.i1343, i32 0, i32 1
  %call5.i1350 = call noundef nonnull align 4 dereferenceable(8) ptr @_ZN4llvh8OptionalIjEaSEOj(ptr noundef nonnull align 4 dereferenceable(8) %Result4.i1349, ptr noundef nonnull align 4 dereferenceable(4) %Value.addr.i1340)
  br label %_ZN4llvh12StringSwitchIjjE4CaseENS_13StringLiteralEj.exit1351

_ZN4llvh12StringSwitchIjjE4CaseENS_13StringLiteralEj.exit1351: ; preds = %if.then.i1348, %_ZNK4llvh9StringRef6equalsES0_.exit1726, %_ZN4llvh12StringSwitchIjjE4CaseENS_13StringLiteralEj.exit1368
  call void @_ZN4llvh13StringLiteralC2ILm5EEEUa9enable_ifIXeqclL_Z16__builtin_strlenEfL0p_EmiLm5ELi1EEERAT__Kc(ptr noundef nonnull align 8 dereferenceable(16) %agg.tmp31, ptr noundef nonnull align 1 dereferenceable(5) @.str.15)
  %429 = getelementptr inbounds { ptr, i64 }, ptr %agg.tmp31, i32 0, i32 0
  %430 = load ptr, ptr %429, align 8
  %431 = getelementptr inbounds { ptr, i64 }, ptr %agg.tmp31, i32 0, i32 1
  %432 = load i64, ptr %431, align 8
  store ptr %430, ptr %S.i1321, align 8
  %433 = getelementptr inbounds { ptr, i64 }, ptr %S.i1321, i32 0, i32 1
  store i64 %432, ptr %433, align 8
  store ptr %this1.i1343, ptr %this.addr.i1322, align 8
  store i32 1, ptr %Value.addr.i1323, align 4
  %this1.i1326 = load ptr, ptr %this.addr.i1322, align 8
  %Result.i1327 = getelementptr inbounds %"class.llvh::StringSwitch", ptr %this1.i1326, i32 0, i32 1
  %call.i1328 = call noundef zeroext i1 @_ZNK4llvh8OptionalIjEcvbEv(ptr noundef nonnull align 4 dereferenceable(8) %Result.i1327)
  br i1 %call.i1328, label %_ZN4llvh12StringSwitchIjjE4CaseENS_13StringLiteralEj.exit1334, label %land.lhs.true.i1329

land.lhs.true.i1329:                              ; preds = %_ZN4llvh12StringSwitchIjjE4CaseENS_13StringLiteralEj.exit1351
  call void @llvm.memcpy.p0.p0.i64(ptr align 8 %agg.tmp.i1324, ptr align 8 %this1.i1326, i64 16, i1 false)
  call void @llvm.memcpy.p0.p0.i64(ptr align 8 %agg.tmp2.i1325, ptr align 8 %S.i1321, i64 16, i1 false)
  %434 = load ptr, ptr %agg.tmp.i1324, align 8
  %435 = getelementptr inbounds { ptr, i64 }, ptr %agg.tmp.i1324, i32 0, i32 1
  %436 = load i64, ptr %435, align 8
  %437 = load ptr, ptr %agg.tmp2.i1325, align 8
  %438 = getelementptr inbounds { ptr, i64 }, ptr %agg.tmp2.i1325, i32 0, i32 1
  %439 = load i64, ptr %438, align 8
  store ptr %434, ptr %LHS.i.i1318, align 8
  %440 = getelementptr inbounds { ptr, i64 }, ptr %LHS.i.i1318, i32 0, i32 1
  store i64 %436, ptr %440, align 8
  store ptr %437, ptr %RHS.i.i1319, align 8
  %441 = getelementptr inbounds { ptr, i64 }, ptr %RHS.i.i1319, i32 0, i32 1
  store i64 %439, ptr %441, align 8
  call void @llvm.memcpy.p0.p0.i64(ptr align 8 %agg.tmp.i.i1320, ptr align 8 %RHS.i.i1319, i64 16, i1 false)
  %442 = load ptr, ptr %agg.tmp.i.i1320, align 8
  %443 = getelementptr inbounds { ptr, i64 }, ptr %agg.tmp.i.i1320, i32 0, i32 1
  %444 = load i64, ptr %443, align 8
  store ptr %442, ptr %RHS.i1727, align 8
  %445 = getelementptr inbounds { ptr, i64 }, ptr %RHS.i1727, i32 0, i32 1
  store i64 %444, ptr %445, align 8
  store ptr %LHS.i.i1318, ptr %this.addr.i1728, align 8
  %this1.i1729 = load ptr, ptr %this.addr.i1728, align 8
  %Length.i1730 = getelementptr inbounds %"class.llvh::StringRef", ptr %this1.i1729, i32 0, i32 1
  %446 = load i64, ptr %Length.i1730, align 8
  %Length2.i1731 = getelementptr inbounds %"class.llvh::StringRef", ptr %RHS.i1727, i32 0, i32 1
  %447 = load i64, ptr %Length2.i1731, align 8
  %cmp.i1732 = icmp eq i64 %446, %447
  br i1 %cmp.i1732, label %land.rhs.i1733, label %_ZNK4llvh9StringRef6equalsES0_.exit1737

land.rhs.i1733:                                   ; preds = %land.lhs.true.i1329
  %448 = load ptr, ptr %this1.i1729, align 8
  %449 = load ptr, ptr %RHS.i1727, align 8
  %Length4.i1734 = getelementptr inbounds %"class.llvh::StringRef", ptr %RHS.i1727, i32 0, i32 1
  %450 = load i64, ptr %Length4.i1734, align 8
  store ptr %448, ptr %Lhs.addr.i3114, align 8
  store ptr %449, ptr %Rhs.addr.i3115, align 8
  store i64 %450, ptr %Length.addr.i3116, align 8
  %451 = load i64, ptr %Length.addr.i3116, align 8
  %cmp.i3117 = icmp eq i64 %451, 0
  br i1 %cmp.i3117, label %if.then.i3120, label %if.end.i3118

if.then.i3120:                                    ; preds = %land.rhs.i1733
  store i32 0, ptr %retval.i3113, align 4
  br label %_ZN4llvh9StringRef13compareMemoryEPKcS2_m.exit3121

if.end.i3118:                                     ; preds = %land.rhs.i1733
  %452 = load ptr, ptr %Lhs.addr.i3114, align 8
  %453 = load ptr, ptr %Rhs.addr.i3115, align 8
  %454 = load i64, ptr %Length.addr.i3116, align 8
  %call.i3119 = call i32 @memcmp(ptr noundef %452, ptr noundef %453, i64 noundef %454) #10
  store i32 %call.i3119, ptr %retval.i3113, align 4
  br label %_ZN4llvh9StringRef13compareMemoryEPKcS2_m.exit3121

_ZN4llvh9StringRef13compareMemoryEPKcS2_m.exit3121: ; preds = %if.end.i3118, %if.then.i3120
  %455 = load i32, ptr %retval.i3113, align 4
  %cmp5.i1736 = icmp eq i32 %455, 0
  br label %_ZNK4llvh9StringRef6equalsES0_.exit1737

_ZNK4llvh9StringRef6equalsES0_.exit1737:          ; preds = %_ZN4llvh9StringRef13compareMemoryEPKcS2_m.exit3121, %land.lhs.true.i1329
  %456 = phi i1 [ false, %land.lhs.true.i1329 ], [ %cmp5.i1736, %_ZN4llvh9StringRef13compareMemoryEPKcS2_m.exit3121 ]
  br i1 %456, label %if.then.i1331, label %_ZN4llvh12StringSwitchIjjE4CaseENS_13StringLiteralEj.exit1334

if.then.i1331:                                    ; preds = %_ZNK4llvh9StringRef6equalsES0_.exit1737
  %Result4.i1332 = getelementptr inbounds %"class.llvh::StringSwitch", ptr %this1.i1326, i32 0, i32 1
  %call5.i1333 = call noundef nonnull align 4 dereferenceable(8) ptr @_ZN4llvh8OptionalIjEaSEOj(ptr noundef nonnull align 4 dereferenceable(8) %Result4.i1332, ptr noundef nonnull align 4 dereferenceable(4) %Value.addr.i1323)
  br label %_ZN4llvh12StringSwitchIjjE4CaseENS_13StringLiteralEj.exit1334

_ZN4llvh12StringSwitchIjjE4CaseENS_13StringLiteralEj.exit1334: ; preds = %if.then.i1331, %_ZNK4llvh9StringRef6equalsES0_.exit1737, %_ZN4llvh12StringSwitchIjjE4CaseENS_13StringLiteralEj.exit1351
  call void @_ZN4llvh13StringLiteralC2ILm9EEEUa9enable_ifIXeqclL_Z16__builtin_strlenEfL0p_EmiLm9ELi1EEERAT__Kc(ptr noundef nonnull align 8 dereferenceable(16) %agg.tmp33, ptr noundef nonnull align 1 dereferenceable(9) @.str.16)
  %457 = getelementptr inbounds { ptr, i64 }, ptr %agg.tmp33, i32 0, i32 0
  %458 = load ptr, ptr %457, align 8
  %459 = getelementptr inbounds { ptr, i64 }, ptr %agg.tmp33, i32 0, i32 1
  %460 = load i64, ptr %459, align 8
  store ptr %458, ptr %S.i1304, align 8
  %461 = getelementptr inbounds { ptr, i64 }, ptr %S.i1304, i32 0, i32 1
  store i64 %460, ptr %461, align 8
  store ptr %this1.i1326, ptr %this.addr.i1305, align 8
  store i32 1, ptr %Value.addr.i1306, align 4
  %this1.i1309 = load ptr, ptr %this.addr.i1305, align 8
  %Result.i1310 = getelementptr inbounds %"class.llvh::StringSwitch", ptr %this1.i1309, i32 0, i32 1
  %call.i1311 = call noundef zeroext i1 @_ZNK4llvh8OptionalIjEcvbEv(ptr noundef nonnull align 4 dereferenceable(8) %Result.i1310)
  br i1 %call.i1311, label %_ZN4llvh12StringSwitchIjjE4CaseENS_13StringLiteralEj.exit1317, label %land.lhs.true.i1312

land.lhs.true.i1312:                              ; preds = %_ZN4llvh12StringSwitchIjjE4CaseENS_13StringLiteralEj.exit1334
  call void @llvm.memcpy.p0.p0.i64(ptr align 8 %agg.tmp.i1307, ptr align 8 %this1.i1309, i64 16, i1 false)
  call void @llvm.memcpy.p0.p0.i64(ptr align 8 %agg.tmp2.i1308, ptr align 8 %S.i1304, i64 16, i1 false)
  %462 = load ptr, ptr %agg.tmp.i1307, align 8
  %463 = getelementptr inbounds { ptr, i64 }, ptr %agg.tmp.i1307, i32 0, i32 1
  %464 = load i64, ptr %463, align 8
  %465 = load ptr, ptr %agg.tmp2.i1308, align 8
  %466 = getelementptr inbounds { ptr, i64 }, ptr %agg.tmp2.i1308, i32 0, i32 1
  %467 = load i64, ptr %466, align 8
  store ptr %462, ptr %LHS.i.i1301, align 8
  %468 = getelementptr inbounds { ptr, i64 }, ptr %LHS.i.i1301, i32 0, i32 1
  store i64 %464, ptr %468, align 8
  store ptr %465, ptr %RHS.i.i1302, align 8
  %469 = getelementptr inbounds { ptr, i64 }, ptr %RHS.i.i1302, i32 0, i32 1
  store i64 %467, ptr %469, align 8
  call void @llvm.memcpy.p0.p0.i64(ptr align 8 %agg.tmp.i.i1303, ptr align 8 %RHS.i.i1302, i64 16, i1 false)
  %470 = load ptr, ptr %agg.tmp.i.i1303, align 8
  %471 = getelementptr inbounds { ptr, i64 }, ptr %agg.tmp.i.i1303, i32 0, i32 1
  %472 = load i64, ptr %471, align 8
  store ptr %470, ptr %RHS.i1738, align 8
  %473 = getelementptr inbounds { ptr, i64 }, ptr %RHS.i1738, i32 0, i32 1
  store i64 %472, ptr %473, align 8
  store ptr %LHS.i.i1301, ptr %this.addr.i1739, align 8
  %this1.i1740 = load ptr, ptr %this.addr.i1739, align 8
  %Length.i1741 = getelementptr inbounds %"class.llvh::StringRef", ptr %this1.i1740, i32 0, i32 1
  %474 = load i64, ptr %Length.i1741, align 8
  %Length2.i1742 = getelementptr inbounds %"class.llvh::StringRef", ptr %RHS.i1738, i32 0, i32 1
  %475 = load i64, ptr %Length2.i1742, align 8
  %cmp.i1743 = icmp eq i64 %474, %475
  br i1 %cmp.i1743, label %land.rhs.i1744, label %_ZNK4llvh9StringRef6equalsES0_.exit1748

land.rhs.i1744:                                   ; preds = %land.lhs.true.i1312
  %476 = load ptr, ptr %this1.i1740, align 8
  %477 = load ptr, ptr %RHS.i1738, align 8
  %Length4.i1745 = getelementptr inbounds %"class.llvh::StringRef", ptr %RHS.i1738, i32 0, i32 1
  %478 = load i64, ptr %Length4.i1745, align 8
  store ptr %476, ptr %Lhs.addr.i3105, align 8
  store ptr %477, ptr %Rhs.addr.i3106, align 8
  store i64 %478, ptr %Length.addr.i3107, align 8
  %479 = load i64, ptr %Length.addr.i3107, align 8
  %cmp.i3108 = icmp eq i64 %479, 0
  br i1 %cmp.i3108, label %if.then.i3111, label %if.end.i3109

if.then.i3111:                                    ; preds = %land.rhs.i1744
  store i32 0, ptr %retval.i3104, align 4
  br label %_ZN4llvh9StringRef13compareMemoryEPKcS2_m.exit3112

if.end.i3109:                                     ; preds = %land.rhs.i1744
  %480 = load ptr, ptr %Lhs.addr.i3105, align 8
  %481 = load ptr, ptr %Rhs.addr.i3106, align 8
  %482 = load i64, ptr %Length.addr.i3107, align 8
  %call.i3110 = call i32 @memcmp(ptr noundef %480, ptr noundef %481, i64 noundef %482) #10
  store i32 %call.i3110, ptr %retval.i3104, align 4
  br label %_ZN4llvh9StringRef13compareMemoryEPKcS2_m.exit3112

_ZN4llvh9StringRef13compareMemoryEPKcS2_m.exit3112: ; preds = %if.end.i3109, %if.then.i3111
  %483 = load i32, ptr %retval.i3104, align 4
  %cmp5.i1747 = icmp eq i32 %483, 0
  br label %_ZNK4llvh9StringRef6equalsES0_.exit1748

_ZNK4llvh9StringRef6equalsES0_.exit1748:          ; preds = %_ZN4llvh9StringRef13compareMemoryEPKcS2_m.exit3112, %land.lhs.true.i1312
  %484 = phi i1 [ false, %land.lhs.true.i1312 ], [ %cmp5.i1747, %_ZN4llvh9StringRef13compareMemoryEPKcS2_m.exit3112 ]
  br i1 %484, label %if.then.i1314, label %_ZN4llvh12StringSwitchIjjE4CaseENS_13StringLiteralEj.exit1317

if.then.i1314:                                    ; preds = %_ZNK4llvh9StringRef6equalsES0_.exit1748
  %Result4.i1315 = getelementptr inbounds %"class.llvh::StringSwitch", ptr %this1.i1309, i32 0, i32 1
  %call5.i1316 = call noundef nonnull align 4 dereferenceable(8) ptr @_ZN4llvh8OptionalIjEaSEOj(ptr noundef nonnull align 4 dereferenceable(8) %Result4.i1315, ptr noundef nonnull align 4 dereferenceable(4) %Value.addr.i1306)
  br label %_ZN4llvh12StringSwitchIjjE4CaseENS_13StringLiteralEj.exit1317

_ZN4llvh12StringSwitchIjjE4CaseENS_13StringLiteralEj.exit1317: ; preds = %if.then.i1314, %_ZNK4llvh9StringRef6equalsES0_.exit1748, %_ZN4llvh12StringSwitchIjjE4CaseENS_13StringLiteralEj.exit1334
  call void @_ZN4llvh13StringLiteralC2ILm7EEEUa9enable_ifIXeqclL_Z16__builtin_strlenEfL0p_EmiLm7ELi1EEERAT__Kc(ptr noundef nonnull align 8 dereferenceable(16) %agg.tmp35, ptr noundef nonnull align 1 dereferenceable(7) @.str.17)
  %485 = getelementptr inbounds { ptr, i64 }, ptr %agg.tmp35, i32 0, i32 0
  %486 = load ptr, ptr %485, align 8
  %487 = getelementptr inbounds { ptr, i64 }, ptr %agg.tmp35, i32 0, i32 1
  %488 = load i64, ptr %487, align 8
  store ptr %486, ptr %S.i1287, align 8
  %489 = getelementptr inbounds { ptr, i64 }, ptr %S.i1287, i32 0, i32 1
  store i64 %488, ptr %489, align 8
  store ptr %this1.i1309, ptr %this.addr.i1288, align 8
  store i32 1, ptr %Value.addr.i1289, align 4
  %this1.i1292 = load ptr, ptr %this.addr.i1288, align 8
  %Result.i1293 = getelementptr inbounds %"class.llvh::StringSwitch", ptr %this1.i1292, i32 0, i32 1
  %call.i1294 = call noundef zeroext i1 @_ZNK4llvh8OptionalIjEcvbEv(ptr noundef nonnull align 4 dereferenceable(8) %Result.i1293)
  br i1 %call.i1294, label %_ZN4llvh12StringSwitchIjjE4CaseENS_13StringLiteralEj.exit1300, label %land.lhs.true.i1295

land.lhs.true.i1295:                              ; preds = %_ZN4llvh12StringSwitchIjjE4CaseENS_13StringLiteralEj.exit1317
  call void @llvm.memcpy.p0.p0.i64(ptr align 8 %agg.tmp.i1290, ptr align 8 %this1.i1292, i64 16, i1 false)
  call void @llvm.memcpy.p0.p0.i64(ptr align 8 %agg.tmp2.i1291, ptr align 8 %S.i1287, i64 16, i1 false)
  %490 = load ptr, ptr %agg.tmp.i1290, align 8
  %491 = getelementptr inbounds { ptr, i64 }, ptr %agg.tmp.i1290, i32 0, i32 1
  %492 = load i64, ptr %491, align 8
  %493 = load ptr, ptr %agg.tmp2.i1291, align 8
  %494 = getelementptr inbounds { ptr, i64 }, ptr %agg.tmp2.i1291, i32 0, i32 1
  %495 = load i64, ptr %494, align 8
  store ptr %490, ptr %LHS.i.i1284, align 8
  %496 = getelementptr inbounds { ptr, i64 }, ptr %LHS.i.i1284, i32 0, i32 1
  store i64 %492, ptr %496, align 8
  store ptr %493, ptr %RHS.i.i1285, align 8
  %497 = getelementptr inbounds { ptr, i64 }, ptr %RHS.i.i1285, i32 0, i32 1
  store i64 %495, ptr %497, align 8
  call void @llvm.memcpy.p0.p0.i64(ptr align 8 %agg.tmp.i.i1286, ptr align 8 %RHS.i.i1285, i64 16, i1 false)
  %498 = load ptr, ptr %agg.tmp.i.i1286, align 8
  %499 = getelementptr inbounds { ptr, i64 }, ptr %agg.tmp.i.i1286, i32 0, i32 1
  %500 = load i64, ptr %499, align 8
  store ptr %498, ptr %RHS.i1749, align 8
  %501 = getelementptr inbounds { ptr, i64 }, ptr %RHS.i1749, i32 0, i32 1
  store i64 %500, ptr %501, align 8
  store ptr %LHS.i.i1284, ptr %this.addr.i1750, align 8
  %this1.i1751 = load ptr, ptr %this.addr.i1750, align 8
  %Length.i1752 = getelementptr inbounds %"class.llvh::StringRef", ptr %this1.i1751, i32 0, i32 1
  %502 = load i64, ptr %Length.i1752, align 8
  %Length2.i1753 = getelementptr inbounds %"class.llvh::StringRef", ptr %RHS.i1749, i32 0, i32 1
  %503 = load i64, ptr %Length2.i1753, align 8
  %cmp.i1754 = icmp eq i64 %502, %503
  br i1 %cmp.i1754, label %land.rhs.i1755, label %_ZNK4llvh9StringRef6equalsES0_.exit1759

land.rhs.i1755:                                   ; preds = %land.lhs.true.i1295
  %504 = load ptr, ptr %this1.i1751, align 8
  %505 = load ptr, ptr %RHS.i1749, align 8
  %Length4.i1756 = getelementptr inbounds %"class.llvh::StringRef", ptr %RHS.i1749, i32 0, i32 1
  %506 = load i64, ptr %Length4.i1756, align 8
  store ptr %504, ptr %Lhs.addr.i3096, align 8
  store ptr %505, ptr %Rhs.addr.i3097, align 8
  store i64 %506, ptr %Length.addr.i3098, align 8
  %507 = load i64, ptr %Length.addr.i3098, align 8
  %cmp.i3099 = icmp eq i64 %507, 0
  br i1 %cmp.i3099, label %if.then.i3102, label %if.end.i3100

if.then.i3102:                                    ; preds = %land.rhs.i1755
  store i32 0, ptr %retval.i3095, align 4
  br label %_ZN4llvh9StringRef13compareMemoryEPKcS2_m.exit3103

if.end.i3100:                                     ; preds = %land.rhs.i1755
  %508 = load ptr, ptr %Lhs.addr.i3096, align 8
  %509 = load ptr, ptr %Rhs.addr.i3097, align 8
  %510 = load i64, ptr %Length.addr.i3098, align 8
  %call.i3101 = call i32 @memcmp(ptr noundef %508, ptr noundef %509, i64 noundef %510) #10
  store i32 %call.i3101, ptr %retval.i3095, align 4
  br label %_ZN4llvh9StringRef13compareMemoryEPKcS2_m.exit3103

_ZN4llvh9StringRef13compareMemoryEPKcS2_m.exit3103: ; preds = %if.end.i3100, %if.then.i3102
  %511 = load i32, ptr %retval.i3095, align 4
  %cmp5.i1758 = icmp eq i32 %511, 0
  br label %_ZNK4llvh9StringRef6equalsES0_.exit1759

_ZNK4llvh9StringRef6equalsES0_.exit1759:          ; preds = %_ZN4llvh9StringRef13compareMemoryEPKcS2_m.exit3103, %land.lhs.true.i1295
  %512 = phi i1 [ false, %land.lhs.true.i1295 ], [ %cmp5.i1758, %_ZN4llvh9StringRef13compareMemoryEPKcS2_m.exit3103 ]
  br i1 %512, label %if.then.i1297, label %_ZN4llvh12StringSwitchIjjE4CaseENS_13StringLiteralEj.exit1300

if.then.i1297:                                    ; preds = %_ZNK4llvh9StringRef6equalsES0_.exit1759
  %Result4.i1298 = getelementptr inbounds %"class.llvh::StringSwitch", ptr %this1.i1292, i32 0, i32 1
  %call5.i1299 = call noundef nonnull align 4 dereferenceable(8) ptr @_ZN4llvh8OptionalIjEaSEOj(ptr noundef nonnull align 4 dereferenceable(8) %Result4.i1298, ptr noundef nonnull align 4 dereferenceable(4) %Value.addr.i1289)
  br label %_ZN4llvh12StringSwitchIjjE4CaseENS_13StringLiteralEj.exit1300

_ZN4llvh12StringSwitchIjjE4CaseENS_13StringLiteralEj.exit1300: ; preds = %if.then.i1297, %_ZNK4llvh9StringRef6equalsES0_.exit1759, %_ZN4llvh12StringSwitchIjjE4CaseENS_13StringLiteralEj.exit1317
  call void @_ZN4llvh13StringLiteralC2ILm8EEEUa9enable_ifIXeqclL_Z16__builtin_strlenEfL0p_EmiLm8ELi1EEERAT__Kc(ptr noundef nonnull align 8 dereferenceable(16) %agg.tmp37, ptr noundef nonnull align 1 dereferenceable(8) @.str.18)
  %513 = getelementptr inbounds { ptr, i64 }, ptr %agg.tmp37, i32 0, i32 0
  %514 = load ptr, ptr %513, align 8
  %515 = getelementptr inbounds { ptr, i64 }, ptr %agg.tmp37, i32 0, i32 1
  %516 = load i64, ptr %515, align 8
  store ptr %514, ptr %S.i1270, align 8
  %517 = getelementptr inbounds { ptr, i64 }, ptr %S.i1270, i32 0, i32 1
  store i64 %516, ptr %517, align 8
  store ptr %this1.i1292, ptr %this.addr.i1271, align 8
  store i32 1, ptr %Value.addr.i1272, align 4
  %this1.i1275 = load ptr, ptr %this.addr.i1271, align 8
  %Result.i1276 = getelementptr inbounds %"class.llvh::StringSwitch", ptr %this1.i1275, i32 0, i32 1
  %call.i1277 = call noundef zeroext i1 @_ZNK4llvh8OptionalIjEcvbEv(ptr noundef nonnull align 4 dereferenceable(8) %Result.i1276)
  br i1 %call.i1277, label %_ZN4llvh12StringSwitchIjjE4CaseENS_13StringLiteralEj.exit1283, label %land.lhs.true.i1278

land.lhs.true.i1278:                              ; preds = %_ZN4llvh12StringSwitchIjjE4CaseENS_13StringLiteralEj.exit1300
  call void @llvm.memcpy.p0.p0.i64(ptr align 8 %agg.tmp.i1273, ptr align 8 %this1.i1275, i64 16, i1 false)
  call void @llvm.memcpy.p0.p0.i64(ptr align 8 %agg.tmp2.i1274, ptr align 8 %S.i1270, i64 16, i1 false)
  %518 = load ptr, ptr %agg.tmp.i1273, align 8
  %519 = getelementptr inbounds { ptr, i64 }, ptr %agg.tmp.i1273, i32 0, i32 1
  %520 = load i64, ptr %519, align 8
  %521 = load ptr, ptr %agg.tmp2.i1274, align 8
  %522 = getelementptr inbounds { ptr, i64 }, ptr %agg.tmp2.i1274, i32 0, i32 1
  %523 = load i64, ptr %522, align 8
  store ptr %518, ptr %LHS.i.i1267, align 8
  %524 = getelementptr inbounds { ptr, i64 }, ptr %LHS.i.i1267, i32 0, i32 1
  store i64 %520, ptr %524, align 8
  store ptr %521, ptr %RHS.i.i1268, align 8
  %525 = getelementptr inbounds { ptr, i64 }, ptr %RHS.i.i1268, i32 0, i32 1
  store i64 %523, ptr %525, align 8
  call void @llvm.memcpy.p0.p0.i64(ptr align 8 %agg.tmp.i.i1269, ptr align 8 %RHS.i.i1268, i64 16, i1 false)
  %526 = load ptr, ptr %agg.tmp.i.i1269, align 8
  %527 = getelementptr inbounds { ptr, i64 }, ptr %agg.tmp.i.i1269, i32 0, i32 1
  %528 = load i64, ptr %527, align 8
  store ptr %526, ptr %RHS.i1760, align 8
  %529 = getelementptr inbounds { ptr, i64 }, ptr %RHS.i1760, i32 0, i32 1
  store i64 %528, ptr %529, align 8
  store ptr %LHS.i.i1267, ptr %this.addr.i1761, align 8
  %this1.i1762 = load ptr, ptr %this.addr.i1761, align 8
  %Length.i1763 = getelementptr inbounds %"class.llvh::StringRef", ptr %this1.i1762, i32 0, i32 1
  %530 = load i64, ptr %Length.i1763, align 8
  %Length2.i1764 = getelementptr inbounds %"class.llvh::StringRef", ptr %RHS.i1760, i32 0, i32 1
  %531 = load i64, ptr %Length2.i1764, align 8
  %cmp.i1765 = icmp eq i64 %530, %531
  br i1 %cmp.i1765, label %land.rhs.i1766, label %_ZNK4llvh9StringRef6equalsES0_.exit1770

land.rhs.i1766:                                   ; preds = %land.lhs.true.i1278
  %532 = load ptr, ptr %this1.i1762, align 8
  %533 = load ptr, ptr %RHS.i1760, align 8
  %Length4.i1767 = getelementptr inbounds %"class.llvh::StringRef", ptr %RHS.i1760, i32 0, i32 1
  %534 = load i64, ptr %Length4.i1767, align 8
  store ptr %532, ptr %Lhs.addr.i3087, align 8
  store ptr %533, ptr %Rhs.addr.i3088, align 8
  store i64 %534, ptr %Length.addr.i3089, align 8
  %535 = load i64, ptr %Length.addr.i3089, align 8
  %cmp.i3090 = icmp eq i64 %535, 0
  br i1 %cmp.i3090, label %if.then.i3093, label %if.end.i3091

if.then.i3093:                                    ; preds = %land.rhs.i1766
  store i32 0, ptr %retval.i3086, align 4
  br label %_ZN4llvh9StringRef13compareMemoryEPKcS2_m.exit3094

if.end.i3091:                                     ; preds = %land.rhs.i1766
  %536 = load ptr, ptr %Lhs.addr.i3087, align 8
  %537 = load ptr, ptr %Rhs.addr.i3088, align 8
  %538 = load i64, ptr %Length.addr.i3089, align 8
  %call.i3092 = call i32 @memcmp(ptr noundef %536, ptr noundef %537, i64 noundef %538) #10
  store i32 %call.i3092, ptr %retval.i3086, align 4
  br label %_ZN4llvh9StringRef13compareMemoryEPKcS2_m.exit3094

_ZN4llvh9StringRef13compareMemoryEPKcS2_m.exit3094: ; preds = %if.end.i3091, %if.then.i3093
  %539 = load i32, ptr %retval.i3086, align 4
  %cmp5.i1769 = icmp eq i32 %539, 0
  br label %_ZNK4llvh9StringRef6equalsES0_.exit1770

_ZNK4llvh9StringRef6equalsES0_.exit1770:          ; preds = %_ZN4llvh9StringRef13compareMemoryEPKcS2_m.exit3094, %land.lhs.true.i1278
  %540 = phi i1 [ false, %land.lhs.true.i1278 ], [ %cmp5.i1769, %_ZN4llvh9StringRef13compareMemoryEPKcS2_m.exit3094 ]
  br i1 %540, label %if.then.i1280, label %_ZN4llvh12StringSwitchIjjE4CaseENS_13StringLiteralEj.exit1283

if.then.i1280:                                    ; preds = %_ZNK4llvh9StringRef6equalsES0_.exit1770
  %Result4.i1281 = getelementptr inbounds %"class.llvh::StringSwitch", ptr %this1.i1275, i32 0, i32 1
  %call5.i1282 = call noundef nonnull align 4 dereferenceable(8) ptr @_ZN4llvh8OptionalIjEaSEOj(ptr noundef nonnull align 4 dereferenceable(8) %Result4.i1281, ptr noundef nonnull align 4 dereferenceable(4) %Value.addr.i1272)
  br label %_ZN4llvh12StringSwitchIjjE4CaseENS_13StringLiteralEj.exit1283

_ZN4llvh12StringSwitchIjjE4CaseENS_13StringLiteralEj.exit1283: ; preds = %if.then.i1280, %_ZNK4llvh9StringRef6equalsES0_.exit1770, %_ZN4llvh12StringSwitchIjjE4CaseENS_13StringLiteralEj.exit1300
  call void @_ZN4llvh13StringLiteralC2ILm8EEEUa9enable_ifIXeqclL_Z16__builtin_strlenEfL0p_EmiLm8ELi1EEERAT__Kc(ptr noundef nonnull align 8 dereferenceable(16) %agg.tmp39, ptr noundef nonnull align 1 dereferenceable(8) @.str.19)
  %541 = getelementptr inbounds { ptr, i64 }, ptr %agg.tmp39, i32 0, i32 0
  %542 = load ptr, ptr %541, align 8
  %543 = getelementptr inbounds { ptr, i64 }, ptr %agg.tmp39, i32 0, i32 1
  %544 = load i64, ptr %543, align 8
  store ptr %542, ptr %S.i1253, align 8
  %545 = getelementptr inbounds { ptr, i64 }, ptr %S.i1253, i32 0, i32 1
  store i64 %544, ptr %545, align 8
  store ptr %this1.i1275, ptr %this.addr.i1254, align 8
  store i32 1, ptr %Value.addr.i1255, align 4
  %this1.i1258 = load ptr, ptr %this.addr.i1254, align 8
  %Result.i1259 = getelementptr inbounds %"class.llvh::StringSwitch", ptr %this1.i1258, i32 0, i32 1
  %call.i1260 = call noundef zeroext i1 @_ZNK4llvh8OptionalIjEcvbEv(ptr noundef nonnull align 4 dereferenceable(8) %Result.i1259)
  br i1 %call.i1260, label %_ZN4llvh12StringSwitchIjjE4CaseENS_13StringLiteralEj.exit1266, label %land.lhs.true.i1261

land.lhs.true.i1261:                              ; preds = %_ZN4llvh12StringSwitchIjjE4CaseENS_13StringLiteralEj.exit1283
  call void @llvm.memcpy.p0.p0.i64(ptr align 8 %agg.tmp.i1256, ptr align 8 %this1.i1258, i64 16, i1 false)
  call void @llvm.memcpy.p0.p0.i64(ptr align 8 %agg.tmp2.i1257, ptr align 8 %S.i1253, i64 16, i1 false)
  %546 = load ptr, ptr %agg.tmp.i1256, align 8
  %547 = getelementptr inbounds { ptr, i64 }, ptr %agg.tmp.i1256, i32 0, i32 1
  %548 = load i64, ptr %547, align 8
  %549 = load ptr, ptr %agg.tmp2.i1257, align 8
  %550 = getelementptr inbounds { ptr, i64 }, ptr %agg.tmp2.i1257, i32 0, i32 1
  %551 = load i64, ptr %550, align 8
  store ptr %546, ptr %LHS.i.i1250, align 8
  %552 = getelementptr inbounds { ptr, i64 }, ptr %LHS.i.i1250, i32 0, i32 1
  store i64 %548, ptr %552, align 8
  store ptr %549, ptr %RHS.i.i1251, align 8
  %553 = getelementptr inbounds { ptr, i64 }, ptr %RHS.i.i1251, i32 0, i32 1
  store i64 %551, ptr %553, align 8
  call void @llvm.memcpy.p0.p0.i64(ptr align 8 %agg.tmp.i.i1252, ptr align 8 %RHS.i.i1251, i64 16, i1 false)
  %554 = load ptr, ptr %agg.tmp.i.i1252, align 8
  %555 = getelementptr inbounds { ptr, i64 }, ptr %agg.tmp.i.i1252, i32 0, i32 1
  %556 = load i64, ptr %555, align 8
  store ptr %554, ptr %RHS.i1771, align 8
  %557 = getelementptr inbounds { ptr, i64 }, ptr %RHS.i1771, i32 0, i32 1
  store i64 %556, ptr %557, align 8
  store ptr %LHS.i.i1250, ptr %this.addr.i1772, align 8
  %this1.i1773 = load ptr, ptr %this.addr.i1772, align 8
  %Length.i1774 = getelementptr inbounds %"class.llvh::StringRef", ptr %this1.i1773, i32 0, i32 1
  %558 = load i64, ptr %Length.i1774, align 8
  %Length2.i1775 = getelementptr inbounds %"class.llvh::StringRef", ptr %RHS.i1771, i32 0, i32 1
  %559 = load i64, ptr %Length2.i1775, align 8
  %cmp.i1776 = icmp eq i64 %558, %559
  br i1 %cmp.i1776, label %land.rhs.i1777, label %_ZNK4llvh9StringRef6equalsES0_.exit1781

land.rhs.i1777:                                   ; preds = %land.lhs.true.i1261
  %560 = load ptr, ptr %this1.i1773, align 8
  %561 = load ptr, ptr %RHS.i1771, align 8
  %Length4.i1778 = getelementptr inbounds %"class.llvh::StringRef", ptr %RHS.i1771, i32 0, i32 1
  %562 = load i64, ptr %Length4.i1778, align 8
  store ptr %560, ptr %Lhs.addr.i3078, align 8
  store ptr %561, ptr %Rhs.addr.i3079, align 8
  store i64 %562, ptr %Length.addr.i3080, align 8
  %563 = load i64, ptr %Length.addr.i3080, align 8
  %cmp.i3081 = icmp eq i64 %563, 0
  br i1 %cmp.i3081, label %if.then.i3084, label %if.end.i3082

if.then.i3084:                                    ; preds = %land.rhs.i1777
  store i32 0, ptr %retval.i3077, align 4
