target datalayout = "e-m:e-p270:32:32-p271:32:32-p272:64:64-i64:64-i128:128-f80:128-n8:16:32:64-S128"
target triple = "x86_64-unknown-linux-gnu"

%"class.std::ios_base::Init" = type { i8 }
%"class.cvc5::internal::NullC" = type { i8 }
%"class.cvc5::internal::TraceC" = type { ptr, %"class.std::vector.13" }
%"class.std::vector.13" = type { %"struct.std::_Vector_base.14" }
%"struct.std::_Vector_base.14" = type { %"struct.std::_Vector_base<std::__cxx11::basic_string<char>, std::allocator<std::__cxx11::basic_string<char>>>::_Vector_impl" }
%"struct.std::_Vector_base<std::__cxx11::basic_string<char>, std::allocator<std::__cxx11::basic_string<char>>>::_Vector_impl" = type { %"struct.std::_Vector_base<std::__cxx11::basic_string<char>, std::allocator<std::__cxx11::basic_string<char>>>::_Vector_impl_data" }
%"struct.std::_Vector_base<std::__cxx11::basic_string<char>, std::allocator<std::__cxx11::basic_string<char>>>::_Vector_impl_data" = type { ptr, ptr, ptr }
%"class.cvc5::internal::NodeTemplate" = type { ptr }
%"class.std::__cxx11::basic_string" = type { %"struct.std::__cxx11::basic_string<char>::_Alloc_hider", i64, %union.anon }
%"struct.std::__cxx11::basic_string<char>::_Alloc_hider" = type { ptr }
%union.anon = type { i64, [8 x i8] }
%"struct.std::in_place_t" = type { i8 }
%"class.cvc5::internal::theory::arith::ArithRewriter" = type { %"class.cvc5::internal::theory::TheoryRewriter", ptr }
%"class.cvc5::internal::theory::TheoryRewriter" = type { ptr }
%"struct.cvc5::internal::theory::RewriteResponse" = type { i32, %"class.cvc5::internal::NodeTemplate" }
%"class.cvc5::internal::__cvc5_true" = type { i8 }
%"class.cvc5::internal::Cvc5ostream" = type { ptr, i8, ptr }
%"class.cvc5::internal::NodeTemplate.12" = type { ptr }
%"class.cvc5::internal::FatalStream" = type { i8 }
%"class.std::optional" = type { %"struct.std::_Optional_base" }
%"struct.std::_Optional_base" = type { %"struct.std::_Optional_payload" }
%"struct.std::_Optional_payload" = type { %"struct.std::_Optional_payload_base" }
%"struct.std::_Optional_payload_base" = type { %"union.std::_Optional_payload_base<bool>::_Storage", i8 }
%"union.std::_Optional_payload_base<bool>::_Storage" = type { %"struct.std::_Optional_payload_base<bool>::_Empty_byte" }
%"struct.std::_Optional_payload_base<bool>::_Empty_byte" = type { i8 }
%"class.cvc5::internal::TypeNode" = type { ptr }
%"struct.cvc5::internal::Divisible" = type { %"class.cvc5::internal::Integer" }
%"class.cvc5::internal::Integer" = type { %class.__gmp_expr }
%class.__gmp_expr = type { [1 x %struct.__mpz_struct] }
%struct.__mpz_struct = type { i32, i32, ptr }
%"class.cvc5::internal::Rational" = type { %class.__gmp_expr.18 }
%class.__gmp_expr.18 = type { [1 x %struct.__mpq_struct] }
%struct.__mpq_struct = type { %struct.__mpz_struct, %struct.__mpz_struct }
%"class.std::map.99" = type { %"class.std::_Rb_tree.100" }
%"class.std::_Rb_tree.100" = type { %"struct.std::_Rb_tree<cvc5::internal::NodeTemplate<true>, std::pair<const cvc5::internal::NodeTemplate<true>, cvc5::internal::RealAlgebraicNumber>, std::_Select1st<std::pair<const cvc5::internal::NodeTemplate<true>, cvc5::internal::RealAlgebraicNumber>>, cvc5::internal::theory::arith::rewriter::TermComparator>::_Rb_tree_impl" }
%"struct.std::_Rb_tree<cvc5::internal::NodeTemplate<true>, std::pair<const cvc5::internal::NodeTemplate<true>, cvc5::internal::RealAlgebraicNumber>, std::_Select1st<std::pair<const cvc5::internal::NodeTemplate<true>, cvc5::internal::RealAlgebraicNumber>>, cvc5::internal::theory::arith::rewriter::TermComparator>::_Rb_tree_impl" = type { %"struct.std::_Rb_tree_key_compare.104", %"struct.std::_Rb_tree_header" }
%"struct.std::_Rb_tree_key_compare.104" = type { %"struct.cvc5::internal::theory::arith::rewriter::TermComparator" }
%"struct.cvc5::internal::theory::arith::rewriter::TermComparator" = type { i8 }
%"struct.std::_Rb_tree_header" = type { %"struct.std::_Rb_tree_node_base", i64 }
%"struct.std::_Rb_tree_node_base" = type { i32, ptr, ptr, ptr }
%"class.cvc5::internal::NodeBuilder" = type <{ %"class.cvc5::internal::expr::NodeValue", [10 x ptr], ptr, ptr, i32, [4 x i8] }>
%"class.cvc5::internal::expr::NodeValue" = type { i64, i16, i32, [0 x ptr] }
%"class.std::__cxx11::basic_stringstream" = type { %"class.std::basic_iostream.base", %"class.std::__cxx11::basic_stringbuf", %"class.std::basic_ios" }
%"class.std::basic_iostream.base" = type { %"class.std::basic_istream.base", %"class.std::basic_ostream.base" }
%"class.std::basic_istream.base" = type { ptr, i64 }
%"class.std::basic_ostream.base" = type { ptr }
%"class.std::__cxx11::basic_stringbuf" = type { %"class.std::basic_streambuf", i32, %"class.std::__cxx11::basic_string" }
%"class.std::basic_streambuf" = type { ptr, ptr, ptr, ptr, ptr, ptr, ptr, %"class.std::locale" }
%"class.std::locale" = type { ptr }
%"class.std::basic_ios" = type { %"class.std::ios_base", ptr, i8, i8, ptr, ptr, ptr, ptr }
%"class.std::ios_base" = type { ptr, i64, i64, i32, i32, i32, ptr, %"struct.std::ios_base::_Words", [8 x %"struct.std::ios_base::_Words"], i32, ptr, %"class.std::locale" }
%"struct.std::ios_base::_Words" = type { ptr, i64 }
%class.__gmp_expr.137 = type { %struct.__gmp_binary_expr }
%struct.__gmp_binary_expr = type { ptr, ptr }
%"class.cvc5::internal::RealAlgebraicNumber" = type { %"class.cvc5::internal::Rational" }
%"class.std::optional.110" = type { %"struct.std::_Optional_base.111" }
%"struct.std::_Optional_base.111" = type { %"struct.std::_Optional_payload.113" }
%"struct.std::_Optional_payload.113" = type { %"struct.std::_Optional_payload.base", [7 x i8] }
%"struct.std::_Optional_payload.base" = type { %"struct.std::_Optional_payload_base.base" }
%"struct.std::_Optional_payload_base.base" = type <{ %"union.std::_Optional_payload_base<cvc5::internal::NodeTemplate<false>>::_Storage", i8 }>
%"union.std::_Optional_payload_base<cvc5::internal::NodeTemplate<false>>::_Storage" = type { %"class.cvc5::internal::NodeTemplate.12" }
%"class.std::vector.118" = type { %"struct.std::_Vector_base.119" }
%"struct.std::_Vector_base.119" = type { %"struct.std::_Vector_base<cvc5::internal::NodeTemplate<true>, std::allocator<cvc5::internal::NodeTemplate<true>>>::_Vector_impl" }
%"struct.std::_Vector_base<cvc5::internal::NodeTemplate<true>, std::allocator<cvc5::internal::NodeTemplate<true>>>::_Vector_impl" = type { %"struct.std::_Vector_base<cvc5::internal::NodeTemplate<true>, std::allocator<cvc5::internal::NodeTemplate<true>>>::_Vector_impl_data" }
%"struct.std::_Vector_base<cvc5::internal::NodeTemplate<true>, std::allocator<cvc5::internal::NodeTemplate<true>>>::_Vector_impl_data" = type { ptr, ptr, ptr }
%"class.cvc5::internal::expr::NodeValue::iterator" = type { ptr }
%"class.std::vector.105" = type { %"struct.std::_Vector_base.106" }
%"struct.std::_Vector_base.106" = type { %"struct.std::_Vector_base<cvc5::internal::NodeTemplate<false>, std::allocator<cvc5::internal::NodeTemplate<false>>>::_Vector_impl" }
%"struct.std::_Vector_base<cvc5::internal::NodeTemplate<false>, std::allocator<cvc5::internal::NodeTemplate<false>>>::_Vector_impl" = type { %"struct.std::_Vector_base<cvc5::internal::NodeTemplate<false>, std::allocator<cvc5::internal::NodeTemplate<false>>>::_Vector_impl_data" }
%"struct.std::_Vector_base<cvc5::internal::NodeTemplate<false>, std::allocator<cvc5::internal::NodeTemplate<false>>>::_Vector_impl_data" = type { ptr, ptr, ptr }
%"class.__gnu_cxx::__normal_iterator" = type { ptr }
%"struct.cvc5::internal::IntToBitVector" = type { i32 }
%"struct.cvc5::internal::IntAnd" = type { i32 }
%"class.std::allocator.120" = type { i8 }
%"class.std::map.123" = type { %"class.std::_Rb_tree.124" }
%"class.std::_Rb_tree.124" = type { %"struct.std::_Rb_tree<cvc5::internal::NodeTemplate<true>, std::pair<const cvc5::internal::NodeTemplate<true>, cvc5::internal::NodeTemplate<true>>, std::_Select1st<std::pair<const cvc5::internal::NodeTemplate<true>, cvc5::internal::NodeTemplate<true>>>, std::less<cvc5::internal::NodeTemplate<true>>>::_Rb_tree_impl" }
%"struct.std::_Rb_tree<cvc5::internal::NodeTemplate<true>, std::pair<const cvc5::internal::NodeTemplate<true>, cvc5::internal::NodeTemplate<true>>, std::_Select1st<std::pair<const cvc5::internal::NodeTemplate<true>, cvc5::internal::NodeTemplate<true>>>, std::less<cvc5::internal::NodeTemplate<true>>>::_Rb_tree_impl" = type { %"struct.std::_Rb_tree_key_compare.128", %"struct.std::_Rb_tree_header" }
%"struct.std::_Rb_tree_key_compare.128" = type { %"struct.std::less.129" }
%"struct.std::less.129" = type { i8 }
%"struct.std::_Rb_tree_iterator" = type { ptr }
%"struct.std::pair" = type { %"class.cvc5::internal::NodeTemplate", %"class.cvc5::internal::NodeTemplate" }
%class.__gmp_expr.138 = type { %struct.__gmp_unary_expr }
%struct.__gmp_unary_expr = type { ptr }
%"class.std::initializer_list" = type { ptr, i64 }
%"class.std::allocator.107" = type { i8 }
%"class.__gnu_cxx::__normal_iterator.149" = type { ptr }
%"class.std::reverse_iterator" = type { %"class.cvc5::internal::expr::NodeValue::iterator" }
%"class.__gnu_cxx::__normal_iterator.151" = type { ptr }
%class.__gmp_expr.139 = type { %struct.__gmp_binary_expr.140 }
%struct.__gmp_binary_expr.140 = type { ptr, ptr }
%class.__gmp_expr.141 = type { %struct.__gmp_binary_expr.142 }
%struct.__gmp_binary_expr.142 = type { ptr, ptr }
%class.__gmp_expr.143 = type { %struct.__gmp_binary_expr.144 }
%struct.__gmp_binary_expr.144 = type { ptr, ptr }
%"class.cvc5::internal::TrustNode" = type { i32, %"class.cvc5::internal::NodeTemplate", ptr }
%"class.std::vector.130" = type { %"struct.std::_Vector_base.131" }
%"struct.std::_Vector_base.131" = type { %"struct.std::_Vector_base<cvc5::internal::theory::SkolemLemma, std::allocator<cvc5::internal::theory::SkolemLemma>>::_Vector_impl" }
%"struct.std::_Vector_base<cvc5::internal::theory::SkolemLemma, std::allocator<cvc5::internal::theory::SkolemLemma>>::_Vector_impl" = type { %"struct.std::_Vector_base<cvc5::internal::theory::SkolemLemma, std::allocator<cvc5::internal::theory::SkolemLemma>>::_Vector_impl_data" }
%"struct.std::_Vector_base<cvc5::internal::theory::SkolemLemma, std::allocator<cvc5::internal::theory::SkolemLemma>>::_Vector_impl_data" = type { ptr, ptr, ptr }
%"struct.std::_Rb_tree_const_iterator" = type { ptr }
%"struct.std::pair.135" = type { %"class.cvc5::internal::NodeTemplate", %"class.cvc5::internal::RealAlgebraicNumber" }
%"class.__gnu_cxx::__normal_iterator.147" = type { ptr }
%"struct.cvc5::internal::theory::TrustRewriteResponse" = type { i32, %"class.cvc5::internal::TrustNode" }
%"struct.std::_Rb_tree_node" = type { %"struct.std::_Rb_tree_node_base", %"struct.__gnu_cxx::__aligned_membuf" }
%"struct.__gnu_cxx::__aligned_membuf" = type { [40 x i8] }
%"class.cvc5::internal::Exception" = type { %"class.std::exception", %"class.std::__cxx11::basic_string" }
%"class.std::exception" = type { ptr }
%"struct.std::_Optional_payload_base.115" = type <{ %"union.std::_Optional_payload_base<cvc5::internal::NodeTemplate<false>>::_Storage", i8, [7 x i8] }>
%"struct.std::_Rb_tree_node.145" = type { %"struct.std::_Rb_tree_node_base", %"struct.__gnu_cxx::__aligned_membuf.146" }
%"struct.__gnu_cxx::__aligned_membuf.146" = type { [16 x i8] }
%class.anon.148 = type { i32 }
%"struct.__gnu_cxx::__ops::_Iter_pred" = type { %class.anon.148 }
%"class.std::move_iterator" = type { ptr }
%"struct.__gnu_cxx::__ops::_Iter_pred.150" = type { %class.anon }
%class.anon = type { i8 }
%"struct.std::_Select1st" = type { i8 }
%"struct.std::pair.152" = type { %"struct.std::_Rb_tree_iterator", %"struct.std::_Rb_tree_iterator" }
%"struct.std::_Rb_tree_const_iterator.154" = type { ptr }
%"class.cvc5::internal::theory::SkolemLemma" = type { %"class.cvc5::internal::TrustNode", %"class.cvc5::internal::NodeTemplate" }

$_ZN4cvc58internal6theory14TheoryRewriterC2Ev = comdat any

$_ZN4cvc58internal11__cvc5_truecvbEv = comdat any

$_ZNK4cvc58internal5NullCcvNS0_11Cvc5ostreamEEv = comdat any

$_ZNK4cvc58internal6TraceCclEv = comdat any

$_ZN4cvc58internal11Cvc5ostreamlsIA12_cEERS1_RKT_ = comdat any

$_ZN4cvc58internal11Cvc5ostreamlsINS0_12NodeTemplateILb0EEEEERS1_RKT_ = comdat any

$_ZN4cvc58internal11Cvc5ostreamlsIA2_cEERS1_RKT_ = comdat any

$_ZN4cvc58internal11Cvc5ostreamlsEPFRSoS2_E = comdat any

$_ZN4cvc58internal6theory5arith8rewriter6isAtomENS0_12NodeTemplateILb0EEE = comdat any

$_ZN4cvc58internal12NodeTemplateILb0EEC2ERKS2_ = comdat any

$_ZN4cvc58internal12NodeTemplateILb0EED2Ev = comdat any

$_ZN4cvc58internal11Cvc5ostreamlsINS0_6theory13RewriteStatusEEERS1_RKT_ = comdat any

$_ZN4cvc58internal11Cvc5ostreamlsIA5_cEERS1_RKT_ = comdat any

$_ZN4cvc58internal11Cvc5ostreamlsINS0_12NodeTemplateILb1EEEEERS1_RKT_ = comdat any

$_ZN4cvc58internal6theory15RewriteResponseD2Ev = comdat any

$_ZN4cvc58internal11Cvc5ostreamlsIA13_cEERS1_RKT_ = comdat any

$_ZNK4cvc58internal12NodeTemplateILb0EE7getKindEv = comdat any

$_ZNK4cvc58internal12NodeTemplateILb0EE14getNumChildrenEv = comdat any

$_ZNK4cvc58internal12NodeTemplateILb0EEixEi = comdat any

$_ZNKSt8optionalIbEcvbEv = comdat any

$_ZN4cvc58internal6theory5arith8rewriter7mkConstEb = comdat any

$_ZNRSt8optionalIbEdeEv = comdat any

$_ZN4cvc58internal6theory15RewriteResponseC2ENS1_13RewriteStatusENS0_12NodeTemplateILb1EEE = comdat any

$_ZN4cvc58internal12NodeTemplateILb1EED2Ev = comdat any

$_ZN4cvc58internal12NodeTemplateILb1EEC2ERKNS1_ILb0EEE = comdat any

$_ZNK4cvc58internal12NodeTemplateILb0EE7getTypeEb = comdat any

$_ZN4cvc58internal8TypeNodeD2Ev = comdat any

$_ZNK4cvc58internal12NodeTemplateILb0EE11getOperatorEv = comdat any

$_ZNK4cvc58internal12NodeTemplateILb1EE8getConstINS0_9DivisibleEEERKT_v = comdat any

$_ZN4cvc58internal11Cvc5ostreamlsIA18_cEERS1_RKT_ = comdat any

$_ZNK4cvc58internal12NodeTemplateILb0EE8getConstINS0_8RationalEEERKT_v = comdat any

$_ZNK4cvc58internal8RationaldvERKS1_ = comdat any

$_ZN4cvc58internal8RationalC2ERKNS0_7IntegerE = comdat any

$_ZNK4cvc58internal8Rational10isIntegralEv = comdat any

$_ZN4cvc58internal8RationalD2Ev = comdat any

$_ZN4cvc58internal11NodeManager6mkNodeENS0_4kind6Kind_tENS0_12NodeTemplateILb0EEES5_ = comdat any

$_ZN4cvc58internal6theory5arith8rewriter7mkConstERKNS0_7IntegerE = comdat any

$_ZN4cvc58internal12NodeTemplateILb0EEC2ERKNS1_ILb1EEE = comdat any

$_ZN4cvc58internal7IntegerC2Ei = comdat any

$_ZN4cvc58internal7IntegerD2Ev = comdat any

$_ZNSt3mapIN4cvc58internal12NodeTemplateILb1EEENS1_19RealAlgebraicNumberENS1_6theory5arith8rewriter14TermComparatorESaISt4pairIKS3_S4_EEEC2Ev = comdat any

$_ZNSt3mapIN4cvc58internal12NodeTemplateILb1EEENS1_19RealAlgebraicNumberENS1_6theory5arith8rewriter14TermComparatorESaISt4pairIKS3_S4_EEED2Ev = comdat any

$_ZNK4cvc58internal12NodeTemplateILb0EE5isVarEv = comdat any

$_ZNK4cvc58internal8Rational3sgnEv = comdat any

$_ZN4cvc58internal8RationalC2Ei = comdat any

$_ZN4cvc58internal8RationalC2Ej = comdat any

$_ZNK4cvc58internal8RationalleERKS1_ = comdat any

$_ZNK4cvc58internal8Rational12getNumeratorEv = comdat any

$_ZN4cvc58internal12NodeTemplateILb1EEC2Ev = comdat any

$_ZN4cvc58internal12NodeTemplateILb1EEaSERKNS1_ILb0EEE = comdat any

$_ZN4cvc58internal12NodeTemplateILb1EEaSERKS2_ = comdat any

$_ZN4cvc58internal12NodeTemplateILb1EEC2ERKS2_ = comdat any

$_ZN4cvc58internal11NodeManager6mkNodeENS0_4kind6Kind_tENS0_12NodeTemplateILb0EEE = comdat any

$_ZN4cvc58internallsERSoNS0_12NodeTemplateILb0EEE = comdat any

$_ZN4cvc58internal14LogicExceptionC2ERKNSt7__cxx1112basic_stringIcSt11char_traitsIcESaIcEEE = comdat any

$_ZN4cvc58internal14LogicExceptionD2Ev = comdat any

$_ZN4cvc58internal6theory5arith8rewriter6getRANENS0_12NodeTemplateILb0EEE = comdat any

$_ZN4cvc58internal6theory5arith8rewriter7mkConstERKNS0_19RealAlgebraicNumberE = comdat any

$_ZN4cvc58internal19RealAlgebraicNumberD2Ev = comdat any

$_ZNK4cvc58internal8RationalngEv = comdat any

$_ZN4cvc58internal6theory5arith8rewriter5isRANENS0_12NodeTemplateILb0EEE = comdat any

$_ZNK4cvc58internal12NodeTemplateILb0EEeqILb0EEEbRKNS1_IXT_EEE = comdat any

$_ZN4cvc58internal4expr9algorithm7flattenIJEEENS0_12NodeTemplateILb1EEENS4_ILb0EEEDpT_ = comdat any

$_ZNSt6vectorIN4cvc58internal12NodeTemplateILb0EEESaIS3_EEC2Ev = comdat any

$_ZN4cvc58internal4expr9algorithm7flattenIJNS0_4kind6Kind_tES5_EEEvNS0_12NodeTemplateILb0EEERSt6vectorIS7_SaIS7_EEDpT_ = comdat any

$_ZNSt6vectorIN4cvc58internal12NodeTemplateILb0EEESaIS3_EE5beginEv = comdat any

$_ZNSt6vectorIN4cvc58internal12NodeTemplateILb0EEESaIS3_EE3endEv = comdat any

$_ZN9__gnu_cxxneIPN4cvc58internal12NodeTemplateILb0EEESt6vectorIS4_SaIS4_EEEEbRKNS_17__normal_iteratorIT_T0_EESE_ = comdat any

$_ZNK9__gnu_cxx17__normal_iteratorIPN4cvc58internal12NodeTemplateILb0EEESt6vectorIS4_SaIS4_EEEdeEv = comdat any

$_ZN9__gnu_cxx17__normal_iteratorIPN4cvc58internal12NodeTemplateILb0EEESt6vectorIS4_SaIS4_EEEppEv = comdat any

$_ZNSt6vectorIN4cvc58internal12NodeTemplateILb0EEESaIS3_EED2Ev = comdat any

$_ZN4cvc58internal6theory5arith8rewriter12getZeroChildINS0_12NodeTemplateILb0EEEEESt8optionalIS6_ERKT_ = comdat any

$_ZNKSt8optionalIN4cvc58internal12NodeTemplateILb0EEEEcvbEv = comdat any

$_ZNRSt8optionalIN4cvc58internal12NodeTemplateILb0EEEEdeEv = comdat any

$_ZNSt8optionalIN4cvc58internal12NodeTemplateILb0EEEED2Ev = comdat any

$_ZN4cvc58internal4expr9algorithm7flattenIJNS0_4kind6Kind_tES5_S5_EEEvNS0_12NodeTemplateILb0EEERSt6vectorIS7_SaIS7_EEDpT_ = comdat any

$_ZN4cvc58internal6theory5arith8rewriter12getZeroChildISt6vectorINS0_12NodeTemplateILb0EEESaIS7_EEEESt8optionalIS7_ERKT_ = comdat any

$_ZNSt6vectorIN4cvc58internal12NodeTemplateILb1EEESaIS3_EEC2Ev = comdat any

$_ZNK4cvc58internal8Rational6isZeroEv = comdat any

$_ZNSt6vectorIN4cvc58internal12NodeTemplateILb1EEESaIS3_EE12emplace_backIJRKNS2_ILb0EEEEEERS3_DpOT_ = comdat any

$_ZNSt6vectorIN4cvc58internal12NodeTemplateILb1EEESaIS3_EED2Ev = comdat any

$_ZNK4cvc58internal12NodeTemplateILb1EE8getConstINS0_8RationalEEERKT_v = comdat any

$_ZNK4cvc58internal8Rational7inverseEv = comdat any

$_ZNK4cvc58internal12NodeTemplateILb1EEneILb0EEEbRKNS1_IXT_EEE = comdat any

$_ZNK4cvc58internal8RationalgeERKS1_ = comdat any

$_ZN4cvc58internal19RealAlgebraicNumberC2Ev = comdat any

$_ZNK4cvc58internal8Rational5isOneEv = comdat any

$_ZN4cvc58internal12NodeTemplateILb0EE5beginEv = comdat any

$_ZN4cvc58internal12NodeTemplateILb0EE3endEv = comdat any

$_ZNK4cvc58internal4expr9NodeValue8iteratorINS0_12NodeTemplateILb0EEEEneERKS6_ = comdat any

$_ZNK4cvc58internal4expr9NodeValue8iteratorINS0_12NodeTemplateILb0EEEEdeEv = comdat any

$_ZNK4cvc58internal12NodeTemplateILb1EE7getKindEv = comdat any

$_ZNK4cvc58internal12NodeTemplateILb1EEixEi = comdat any

$_ZNK4cvc58internal12NodeTemplateILb1EEeqILb0EEEbRKNS1_IXT_EEE = comdat any

$_ZNSt6vectorIN4cvc58internal12NodeTemplateILb1EEESaIS3_EE9push_backEOS3_ = comdat any

$_ZNSt6vectorIN4cvc58internal12NodeTemplateILb1EEESaIS3_EE9push_backERKS3_ = comdat any

$_ZN4cvc58internal4expr9NodeValue8iteratorINS0_12NodeTemplateILb0EEEEppEv = comdat any

$_ZN4cvc58internal11NodeManager6mkNodeILb1EEENS0_12NodeTemplateILb1EEENS0_4kind6Kind_tERKSt6vectorINS3_IXT_EEESaIS8_EE = comdat any

$_ZNK4cvc58internal8Rational5floorEv = comdat any

$_ZNK4cvc58internal12NodeTemplateILb1EE8getConstINS0_6IntAndEEERKT_v = comdat any

$_ZN4cvc58internal14IntToBitVectorC2Ej = comdat any

$_ZNK4cvc58internal12NodeTemplateILb0EEgtILb0EEEbRKNS1_IXT_EEE = comdat any

$_ZN4cvc58internal11NodeManager6mkNodeENS0_4kind6Kind_tENS0_12NodeTemplateILb0EEES5_S5_ = comdat any

$_ZN4cvc58internal11Cvc5ostreamlsIA35_cEERS1_RKT_ = comdat any

$_ZNK4cvc58internal12NodeTemplateILb0EEneILb1EEEbRKNS1_IXT_EEE = comdat any

$_ZNSaIN4cvc58internal12NodeTemplateILb1EEEEC2Ev = comdat any

$_ZNSt6vectorIN4cvc58internal12NodeTemplateILb1EEESaIS3_EEC2INS1_4expr9NodeValue8iteratorINS2_ILb0EEEEEvEET_SC_RKS4_ = comdat any

$_ZNSaIN4cvc58internal12NodeTemplateILb1EEEED2Ev = comdat any

$_ZNSt6vectorIN4cvc58internal12NodeTemplateILb1EEESaIS3_EEixEm = comdat any

$_ZNSt3mapIN4cvc58internal12NodeTemplateILb1EEES3_St4lessIS3_ESaISt4pairIKS3_S3_EEEC2Ev = comdat any

$_ZN4cvc58internal6theory5arith4mkPiEv = comdat any

$_ZNSt3mapIN4cvc58internal12NodeTemplateILb1EEES3_St4lessIS3_ESaISt4pairIKS3_S3_EEE4findERS7_ = comdat any

$_ZStneRKSt17_Rb_tree_iteratorISt4pairIKN4cvc58internal12NodeTemplateILb1EEES4_EES9_ = comdat any

$_ZNSt3mapIN4cvc58internal12NodeTemplateILb1EEES3_St4lessIS3_ESaISt4pairIKS3_S3_EEE3endEv = comdat any

$_ZNKSt17_Rb_tree_iteratorISt4pairIKN4cvc58internal12NodeTemplateILb1EEES4_EEptEv = comdat any

$_ZNK4cvc58internal12NodeTemplateILb1EE6isNullEv = comdat any

$_ZNSt3mapIN4cvc58internal12NodeTemplateILb1EEES3_St4lessIS3_ESaISt4pairIKS3_S3_EEE5eraseERS7_ = comdat any

$_ZNKSt3mapIN4cvc58internal12NodeTemplateILb1EEES3_St4lessIS3_ESaISt4pairIKS3_S3_EEE5emptyEv = comdat any

$_ZN4cvc58internal11Cvc5ostreamlsIA21_cEERS1_RKT_ = comdat any

$_ZN4cvc58internal8RationalC2ERKS1_ = comdat any

$_ZNK4cvc58internal8Rational3absEv = comdat any

$_ZNK4cvc58internal8RationalgtERKS1_ = comdat any

$_ZNK4cvc58internal8RationalplERKS1_ = comdat any

$_ZNK4cvc58internal8RationalmiERKS1_ = comdat any

$_ZNK4cvc58internal8RationalmlERKS1_ = comdat any

$_ZNK4cvc58internal8RationaleqERKS1_ = comdat any

$_ZNK4cvc58internal8Rational14getDenominatorEv = comdat any

$_ZNSt3mapIN4cvc58internal12NodeTemplateILb1EEES3_St4lessIS3_ESaISt4pairIKS3_S3_EEED2Ev = comdat any

$_ZNSt6vectorIN4cvc58internal6theory11SkolemLemmaESaIS3_EEC2Ev = comdat any

$_ZN4cvc58internal9TrustNodeD2Ev = comdat any

$_ZNSt6vectorIN4cvc58internal6theory11SkolemLemmaESaIS3_EED2Ev = comdat any

$_ZN4cvc58internal11Cvc5ostreamlsIA17_cEERS1_RKT_ = comdat any

$_ZN4cvc58internal11Cvc5ostreamlsINS0_6theory5arith7RewriteEEERS1_RKT_ = comdat any

$_ZNKSt3mapIN4cvc58internal12NodeTemplateILb1EEENS1_19RealAlgebraicNumberENS1_6theory5arith8rewriter14TermComparatorESaISt4pairIKS3_S4_EEE5beginEv = comdat any

$_ZNKSt3mapIN4cvc58internal12NodeTemplateILb1EEENS1_19RealAlgebraicNumberENS1_6theory5arith8rewriter14TermComparatorESaISt4pairIKS3_S4_EEE3endEv = comdat any

$_ZStneRKSt23_Rb_tree_const_iteratorISt4pairIKN4cvc58internal12NodeTemplateILb1EEENS2_19RealAlgebraicNumberEEESA_ = comdat any

$_ZNKSt23_Rb_tree_const_iteratorISt4pairIKN4cvc58internal12NodeTemplateILb1EEENS2_19RealAlgebraicNumberEEEdeEv = comdat any

$_ZNSt23_Rb_tree_const_iteratorISt4pairIKN4cvc58internal12NodeTemplateILb1EEENS2_19RealAlgebraicNumberEEEppEv = comdat any

$_ZNK4cvc58internal12NodeTemplateILb1EE7getTypeEb = comdat any

$_ZNKSt6vectorIN4cvc58internal12NodeTemplateILb1EEESaIS3_EE5emptyEv = comdat any

$_ZNKSt6vectorIN4cvc58internal12NodeTemplateILb1EEESaIS3_EE4sizeEv = comdat any

$_ZN4cvc58internal6theory5arith13ArithRewriterD2Ev = comdat any

$_ZN4cvc58internal6theory5arith13ArithRewriterD0Ev = comdat any

$_ZN4cvc58internal6theory14TheoryRewriter16registerRewritesEPNS1_8RewriterE = comdat any

$_ZN4cvc58internal12NodeTemplateILb1EE6s_nullE = comdat any

$_ZN4cvc58internal4expr9NodeValue4nullEv = comdat any

$_ZN4cvc58internal12NodeTemplateILb1EEC2EPKNS0_4expr9NodeValueE = comdat any

$_ZN4cvc58internal11Cvc5ostreamC2Ev = comdat any

$_ZN4cvc58internal11Cvc5ostreamC2EPSo = comdat any

$_ZNKSt19_Optional_base_implIbSt14_Optional_baseIbLb1ELb1EEE13_M_is_engagedEv = comdat any

$_ZNSt19_Optional_base_implIbSt14_Optional_baseIbLb1ELb1EEE6_M_getEv = comdat any

$_ZNSt22_Optional_payload_baseIbE6_M_getEv = comdat any

$_ZN4cvc58internal4expr9NodeValue3decEv = comdat any

$__clang_call_terminate = comdat any

$_ZdvIA1_12__mpq_structS1_S1_S1_E10__gmp_exprIN18__gmp_resolve_exprIT_T1_E10value_typeE17__gmp_binary_exprIS2_IS4_T0_ES2_IS5_T2_E20__gmp_binary_dividesEERKSA_RKSC_ = comdat any

$_ZN10__gmp_exprIA1_12__mpq_structS1_EC2I17__gmp_binary_exprIS2_S2_20__gmp_binary_dividesEEERKS_IS1_T_E = comdat any

$_ZN4cvc58internal8RationalC2ERK10__gmp_exprIA1_12__mpq_structS4_E = comdat any

$_ZN10__gmp_exprIA1_12__mpq_structS1_ED2Ev = comdat any

$_ZN10__gmp_exprIA1_12__mpq_struct17__gmp_binary_exprIS_IS1_S1_ES3_20__gmp_binary_dividesEEC2ERKS3_S8_ = comdat any

$_ZN17__gmp_binary_exprI10__gmp_exprIA1_12__mpq_structS2_ES3_20__gmp_binary_dividesEC2ERKS3_S7_ = comdat any

$_Z14__gmp_set_exprI17__gmp_binary_exprI10__gmp_exprIA1_12__mpq_structS3_ES4_20__gmp_binary_dividesEEvPS2_RKS1_IS3_T_E = comdat any

$_ZNK10__gmp_exprIA1_12__mpq_struct17__gmp_binary_exprIS_IS1_S1_ES3_20__gmp_binary_dividesEE4evalEPS0_ = comdat any

$_ZN20__gmp_binary_divides4evalEP12__mpq_structPKS0_S3_ = comdat any

$_ZNK10__gmp_exprIA1_12__mpq_structS1_E8__get_mpEv = comdat any

$_ZN10__gmp_exprIA1_12__mpq_structS1_EC2ERKS2_ = comdat any

$_ZNK4cvc58internal7Integer7get_mpzEv = comdat any

$_ZN10__gmp_exprIA1_12__mpq_structS1_EC2IA1_12__mpz_structEERKS_IS5_T_E = comdat any

$_ZN10__gmp_exprIA1_12__mpq_structS1_E12canonicalizeEv = comdat any

$_Z14__gmp_set_exprP12__mpq_structRK10__gmp_exprIA1_12__mpz_structS3_E = comdat any

$_ZNK10__gmp_exprIA1_12__mpz_structS1_E9get_mpz_tEv = comdat any

$_ZNK10__gmp_exprIA1_12__mpq_structS1_E13get_den_mpz_tEv = comdat any

$_ZN10__gmp_exprIA1_12__mpz_structS1_EC2Ei = comdat any

$_ZN10__gmp_exprIA1_12__mpz_structS1_E7init_siEl = comdat any

$_ZN10__gmp_exprIA1_12__mpz_structS1_E7init_uiEm = comdat any

$_ZN10__gmp_exprIA1_12__mpz_structS1_ED2Ev = comdat any

$_ZNSt8_Rb_treeIN4cvc58internal12NodeTemplateILb1EEESt4pairIKS3_NS1_19RealAlgebraicNumberEESt10_Select1stIS7_ENS1_6theory5arith8rewriter14TermComparatorESaIS7_EEC2Ev = comdat any

$_ZNSt8_Rb_treeIN4cvc58internal12NodeTemplateILb1EEESt4pairIKS3_NS1_19RealAlgebraicNumberEESt10_Select1stIS7_ENS1_6theory5arith8rewriter14TermComparatorESaIS7_EE13_Rb_tree_implISD_Lb1EEC2Ev = comdat any

$_ZNSaISt13_Rb_tree_nodeISt4pairIKN4cvc58internal12NodeTemplateILb1EEENS2_19RealAlgebraicNumberEEEEC2Ev = comdat any

$_ZNSt20_Rb_tree_key_compareIN4cvc58internal6theory5arith8rewriter14TermComparatorEEC2Ev = comdat any

$_ZNSt15_Rb_tree_headerC2Ev = comdat any

$_ZNSt15__new_allocatorISt13_Rb_tree_nodeISt4pairIKN4cvc58internal12NodeTemplateILb1EEENS3_19RealAlgebraicNumberEEEEC2Ev = comdat any

$_ZNSt15_Rb_tree_header8_M_resetEv = comdat any

$_ZNSt8_Rb_treeIN4cvc58internal12NodeTemplateILb1EEESt4pairIKS3_NS1_19RealAlgebraicNumberEESt10_Select1stIS7_ENS1_6theory5arith8rewriter14TermComparatorESaIS7_EED2Ev = comdat any

$_ZNSt8_Rb_treeIN4cvc58internal12NodeTemplateILb1EEESt4pairIKS3_NS1_19RealAlgebraicNumberEESt10_Select1stIS7_ENS1_6theory5arith8rewriter14TermComparatorESaIS7_EE8_M_eraseEPSt13_Rb_tree_nodeIS7_E = comdat any

$_ZNSt8_Rb_treeIN4cvc58internal12NodeTemplateILb1EEESt4pairIKS3_NS1_19RealAlgebraicNumberEESt10_Select1stIS7_ENS1_6theory5arith8rewriter14TermComparatorESaIS7_EE8_M_beginEv = comdat any

$_ZNSt8_Rb_treeIN4cvc58internal12NodeTemplateILb1EEESt4pairIKS3_NS1_19RealAlgebraicNumberEESt10_Select1stIS7_ENS1_6theory5arith8rewriter14TermComparatorESaIS7_EE13_Rb_tree_implISD_Lb1EED2Ev = comdat any

$_ZNSt8_Rb_treeIN4cvc58internal12NodeTemplateILb1EEESt4pairIKS3_NS1_19RealAlgebraicNumberEESt10_Select1stIS7_ENS1_6theory5arith8rewriter14TermComparatorESaIS7_EE8_S_rightEPSt18_Rb_tree_node_base = comdat any

$_ZNSt8_Rb_treeIN4cvc58internal12NodeTemplateILb1EEESt4pairIKS3_NS1_19RealAlgebraicNumberEESt10_Select1stIS7_ENS1_6theory5arith8rewriter14TermComparatorESaIS7_EE7_S_leftEPSt18_Rb_tree_node_base = comdat any

$_ZNSt8_Rb_treeIN4cvc58internal12NodeTemplateILb1EEESt4pairIKS3_NS1_19RealAlgebraicNumberEESt10_Select1stIS7_ENS1_6theory5arith8rewriter14TermComparatorESaIS7_EE12_M_drop_nodeEPSt13_Rb_tree_nodeIS7_E = comdat any

$_ZNSt8_Rb_treeIN4cvc58internal12NodeTemplateILb1EEESt4pairIKS3_NS1_19RealAlgebraicNumberEESt10_Select1stIS7_ENS1_6theory5arith8rewriter14TermComparatorESaIS7_EE15_M_destroy_nodeEPSt13_Rb_tree_nodeIS7_E = comdat any

$_ZNSt8_Rb_treeIN4cvc58internal12NodeTemplateILb1EEESt4pairIKS3_NS1_19RealAlgebraicNumberEESt10_Select1stIS7_ENS1_6theory5arith8rewriter14TermComparatorESaIS7_EE11_M_put_nodeEPSt13_Rb_tree_nodeIS7_E = comdat any

$_ZNSt16allocator_traitsISaISt13_Rb_tree_nodeISt4pairIKN4cvc58internal12NodeTemplateILb1EEENS3_19RealAlgebraicNumberEEEEE7destroyIS8_EEvRSA_PT_ = comdat any

$_ZNSt8_Rb_treeIN4cvc58internal12NodeTemplateILb1EEESt4pairIKS3_NS1_19RealAlgebraicNumberEESt10_Select1stIS7_ENS1_6theory5arith8rewriter14TermComparatorESaIS7_EE21_M_get_Node_allocatorEv = comdat any

$_ZNSt13_Rb_tree_nodeISt4pairIKN4cvc58internal12NodeTemplateILb1EEENS2_19RealAlgebraicNumberEEE9_M_valptrEv = comdat any

$_ZNSt15__new_allocatorISt13_Rb_tree_nodeISt4pairIKN4cvc58internal12NodeTemplateILb1EEENS3_19RealAlgebraicNumberEEEE7destroyIS8_EEvPT_ = comdat any

$_ZNSt4pairIKN4cvc58internal12NodeTemplateILb1EEENS1_19RealAlgebraicNumberEED2Ev = comdat any

$_ZN9__gnu_cxx16__aligned_membufISt4pairIKN4cvc58internal12NodeTemplateILb1EEENS3_19RealAlgebraicNumberEEE6_M_ptrEv = comdat any

$_ZN9__gnu_cxx16__aligned_membufISt4pairIKN4cvc58internal12NodeTemplateILb1EEENS3_19RealAlgebraicNumberEEE7_M_addrEv = comdat any

$_ZNSt16allocator_traitsISaISt13_Rb_tree_nodeISt4pairIKN4cvc58internal12NodeTemplateILb1EEENS3_19RealAlgebraicNumberEEEEE10deallocateERSA_PS9_m = comdat any

$_ZNSt15__new_allocatorISt13_Rb_tree_nodeISt4pairIKN4cvc58internal12NodeTemplateILb1EEENS3_19RealAlgebraicNumberEEEE10deallocateEPS9_m = comdat any

$_ZNKSt8_Rb_treeIN4cvc58internal12NodeTemplateILb1EEESt4pairIKS3_NS1_19RealAlgebraicNumberEESt10_Select1stIS7_ENS1_6theory5arith8rewriter14TermComparatorESaIS7_EE9_M_mbeginEv = comdat any

$_ZNSaISt13_Rb_tree_nodeISt4pairIKN4cvc58internal12NodeTemplateILb1EEENS2_19RealAlgebraicNumberEEEED2Ev = comdat any

$_ZNSt15__new_allocatorISt13_Rb_tree_nodeISt4pairIKN4cvc58internal12NodeTemplateILb1EEENS3_19RealAlgebraicNumberEEEED2Ev = comdat any

$_ZNK10__gmp_exprIA1_12__mpq_structS1_E9get_mpq_tEv = comdat any

$_ZN10__gmp_exprIA1_12__mpq_structS1_EC2ERKS_IA1_12__mpz_structS4_ES7_ = comdat any

$_ZN10__gmp_exprIA1_12__mpz_structS1_EC2Ej = comdat any

$_ZleIA1_12__mpq_structS1_S1_S1_EbRK10__gmp_exprIT_T0_ERKS2_IT1_T2_E = comdat any

$_ZN20__gmp_binary_greater4evalIPK12__mpq_structS3_EEbT_T0_ = comdat any

$_ZN17__gmp_binary_less4evalEPK12__mpq_structS2_ = comdat any

$_ZNK10__gmp_exprIA1_12__mpq_structS1_E7get_numEv = comdat any

$_ZN4cvc58internal7IntegerC2ERK10__gmp_exprIA1_12__mpz_structS4_E = comdat any

$_ZN10__gmp_exprIA1_12__mpz_structS1_EC2ERKS2_ = comdat any

$_ZNK4cvc58internal12NodeTemplateILb0EE8toStreamERSo = comdat any

$_ZNK4cvc58internal12NodeTemplateILb0EE21assertTNodeNotExpiredEv = comdat any

$_ZN4cvc58internal9ExceptionC2ERKNSt7__cxx1112basic_stringIcSt11char_traitsIcESaIcEEE = comdat any

$_ZN4cvc58internal14LogicExceptionD0Ev = comdat any

$_ZNK4cvc58internal9Exception4whatEv = comdat any

$_ZNSt9exceptionC2Ev = comdat any

$_ZN4cvc58internal9ExceptionD2Ev = comdat any

$_ZNK4cvc58internal12NodeTemplateILb1EE8getConstINS0_19RealAlgebraicNumberEEERKT_v = comdat any

$_ZNK4cvc58internal12NodeTemplateILb1EE21assertTNodeNotExpiredEv = comdat any

$_ZngIA1_12__mpq_structS1_E10__gmp_exprIT_16__gmp_unary_exprIS2_IS3_T0_E17__gmp_unary_minusEERKS6_ = comdat any

$_ZN10__gmp_exprIA1_12__mpq_structS1_EC2I16__gmp_unary_exprIS2_17__gmp_unary_minusEEERKS_IS1_T_E = comdat any

$_ZN10__gmp_exprIA1_12__mpq_struct16__gmp_unary_exprIS_IS1_S1_E17__gmp_unary_minusEEC2ERKS3_ = comdat any

$_ZN16__gmp_unary_exprI10__gmp_exprIA1_12__mpq_structS2_E17__gmp_unary_minusEC2ERKS3_ = comdat any

$_Z14__gmp_set_exprI16__gmp_unary_exprI10__gmp_exprIA1_12__mpq_structS3_E17__gmp_unary_minusEEvPS2_RKS1_IS3_T_E = comdat any

$_ZNK10__gmp_exprIA1_12__mpq_struct16__gmp_unary_exprIS_IS1_S1_E17__gmp_unary_minusEE4evalEPS0_ = comdat any

$_ZN17__gmp_unary_minus4evalEP12__mpq_structPKS0_ = comdat any

$_ZNSt12_Vector_baseIN4cvc58internal12NodeTemplateILb0EEESaIS3_EEC2Ev = comdat any

$_ZNSt12_Vector_baseIN4cvc58internal12NodeTemplateILb0EEESaIS3_EE12_Vector_implC2Ev = comdat any

$_ZNSt12_Vector_baseIN4cvc58internal12NodeTemplateILb0EEESaIS3_EE17_Vector_impl_dataC2Ev = comdat any

$_ZNSt15__new_allocatorIN4cvc58internal12NodeTemplateILb0EEEEC2Ev = comdat any

$_ZNKSt19_Optional_base_implIN4cvc58internal12NodeTemplateILb0EEESt14_Optional_baseIS3_Lb0ELb0EEE13_M_is_engagedEv = comdat any

$_ZNSt19_Optional_base_implIN4cvc58internal12NodeTemplateILb0EEESt14_Optional_baseIS3_Lb0ELb0EEE6_M_getEv = comdat any

$_ZNSt22_Optional_payload_baseIN4cvc58internal12NodeTemplateILb0EEEE6_M_getEv = comdat any

$_ZNSt14_Optional_baseIN4cvc58internal12NodeTemplateILb0EEELb0ELb0EED2Ev = comdat any

$_ZNSt17_Optional_payloadIN4cvc58internal12NodeTemplateILb0EEELb0ELb0ELb0EED2Ev = comdat any

$_ZNSt22_Optional_payload_baseIN4cvc58internal12NodeTemplateILb0EEEE8_M_resetEv = comdat any

$_ZNSt17_Optional_payloadIN4cvc58internal12NodeTemplateILb0EEELb1ELb0ELb0EED2Ev = comdat any

$_ZNSt22_Optional_payload_baseIN4cvc58internal12NodeTemplateILb0EEEE10_M_destroyEv = comdat any

$_ZNSt22_Optional_payload_baseIN4cvc58internal12NodeTemplateILb0EEEED2Ev = comdat any

$_ZNSt22_Optional_payload_baseIN4cvc58internal12NodeTemplateILb0EEEE8_StorageIS3_Lb0EED2Ev = comdat any

$_ZNSt12_Vector_baseIN4cvc58internal12NodeTemplateILb1EEESaIS3_EEC2Ev = comdat any

$_ZNSt12_Vector_baseIN4cvc58internal12NodeTemplateILb1EEESaIS3_EE12_Vector_implC2Ev = comdat any

$_ZNSt12_Vector_baseIN4cvc58internal12NodeTemplateILb1EEESaIS3_EE17_Vector_impl_dataC2Ev = comdat any

$_ZNSt15__new_allocatorIN4cvc58internal12NodeTemplateILb1EEEEC2Ev = comdat any

$_ZN4cvc58internal8RationalC2ERKNS0_7IntegerES4_ = comdat any

$_ZgeIA1_12__mpq_structS1_S1_S1_EbRK10__gmp_exprIT_T0_ERKS2_IT1_T2_E = comdat any

$_ZN4cvc58internal8RationalC2Ev = comdat any

$_ZN10__gmp_exprIA1_12__mpq_structS1_EC2Ei = comdat any

$_ZN10__gmp_exprIA1_12__mpq_structS1_E7init_siEl = comdat any

$_ZN10__gmp_exprIA1_12__mpq_structS1_E7get_numEv = comdat any

$_ZN10__gmp_exprIA1_12__mpz_structS1_EaSEl = comdat any

$_ZN10__gmp_exprIA1_12__mpz_structS1_E9assign_siEl = comdat any

$_ZN10__gmp_exprIA1_12__mpz_structS1_E9assign_uiEm = comdat any

$_ZN10__gmp_exprIA1_12__mpz_structS1_EC2Ev = comdat any

$_ZN10__gmp_exprIA1_12__mpz_structS1_E9get_mpz_tEv = comdat any

$_ZNK10__gmp_exprIA1_12__mpq_structS1_E13get_num_mpz_tEv = comdat any

$_ZNSt8_Rb_treeIN4cvc58internal12NodeTemplateILb1EEESt4pairIKS3_S3_ESt10_Select1stIS6_ESt4lessIS3_ESaIS6_EEC2Ev = comdat any

$_ZNSt8_Rb_treeIN4cvc58internal12NodeTemplateILb1EEESt4pairIKS3_S3_ESt10_Select1stIS6_ESt4lessIS3_ESaIS6_EE13_Rb_tree_implISA_Lb1EEC2Ev = comdat any

$_ZNSaISt13_Rb_tree_nodeISt4pairIKN4cvc58internal12NodeTemplateILb1EEES4_EEEC2Ev = comdat any

$_ZNSt20_Rb_tree_key_compareISt4lessIN4cvc58internal12NodeTemplateILb1EEEEEC2Ev = comdat any

$_ZNSt15__new_allocatorISt13_Rb_tree_nodeISt4pairIKN4cvc58internal12NodeTemplateILb1EEES5_EEEC2Ev = comdat any

$_ZgtIA1_12__mpq_structS1_S1_S1_EbRK10__gmp_exprIT_T0_ERKS2_IT1_T2_E = comdat any

$_ZplIA1_12__mpq_structS1_S1_S1_E10__gmp_exprIN18__gmp_resolve_exprIT_T1_E10value_typeE17__gmp_binary_exprIS2_IS4_T0_ES2_IS5_T2_E17__gmp_binary_plusEERKSA_RKSC_ = comdat any

$_ZN10__gmp_exprIA1_12__mpq_structS1_EC2I17__gmp_binary_exprIS2_S2_17__gmp_binary_plusEEERKS_IS1_T_E = comdat any

$_ZN10__gmp_exprIA1_12__mpq_struct17__gmp_binary_exprIS_IS1_S1_ES3_17__gmp_binary_plusEEC2ERKS3_S8_ = comdat any

$_ZN17__gmp_binary_exprI10__gmp_exprIA1_12__mpq_structS2_ES3_17__gmp_binary_plusEC2ERKS3_S7_ = comdat any

$_Z14__gmp_set_exprI17__gmp_binary_exprI10__gmp_exprIA1_12__mpq_structS3_ES4_17__gmp_binary_plusEEvPS2_RKS1_IS3_T_E = comdat any

$_ZNK10__gmp_exprIA1_12__mpq_struct17__gmp_binary_exprIS_IS1_S1_ES3_17__gmp_binary_plusEE4evalEPS0_ = comdat any

$_ZN17__gmp_binary_plus4evalEP12__mpq_structPKS0_S3_ = comdat any

$_ZmiIA1_12__mpq_structS1_S1_S1_E10__gmp_exprIN18__gmp_resolve_exprIT_T1_E10value_typeE17__gmp_binary_exprIS2_IS4_T0_ES2_IS5_T2_E18__gmp_binary_minusEERKSA_RKSC_ = comdat any

$_ZN10__gmp_exprIA1_12__mpq_structS1_EC2I17__gmp_binary_exprIS2_S2_18__gmp_binary_minusEEERKS_IS1_T_E = comdat any

$_ZN10__gmp_exprIA1_12__mpq_struct17__gmp_binary_exprIS_IS1_S1_ES3_18__gmp_binary_minusEEC2ERKS3_S8_ = comdat any

$_ZN17__gmp_binary_exprI10__gmp_exprIA1_12__mpq_structS2_ES3_18__gmp_binary_minusEC2ERKS3_S7_ = comdat any

$_Z14__gmp_set_exprI17__gmp_binary_exprI10__gmp_exprIA1_12__mpq_structS3_ES4_18__gmp_binary_minusEEvPS2_RKS1_IS3_T_E = comdat any

$_ZNK10__gmp_exprIA1_12__mpq_struct17__gmp_binary_exprIS_IS1_S1_ES3_18__gmp_binary_minusEE4evalEPS0_ = comdat any

$_ZN18__gmp_binary_minus4evalEP12__mpq_structPKS0_S3_ = comdat any

$_ZmlIA1_12__mpq_structS1_S1_S1_E10__gmp_exprIN18__gmp_resolve_exprIT_T1_E10value_typeE17__gmp_binary_exprIS2_IS4_T0_ES2_IS5_T2_E23__gmp_binary_multipliesEERKSA_RKSC_ = comdat any

$_ZN10__gmp_exprIA1_12__mpq_structS1_EC2I17__gmp_binary_exprIS2_S2_23__gmp_binary_multipliesEEERKS_IS1_T_E = comdat any

$_ZN10__gmp_exprIA1_12__mpq_struct17__gmp_binary_exprIS_IS1_S1_ES3_23__gmp_binary_multipliesEEC2ERKS3_S8_ = comdat any

$_ZN17__gmp_binary_exprI10__gmp_exprIA1_12__mpq_structS2_ES3_23__gmp_binary_multipliesEC2ERKS3_S7_ = comdat any

$_Z14__gmp_set_exprI17__gmp_binary_exprI10__gmp_exprIA1_12__mpq_structS3_ES4_23__gmp_binary_multipliesEEvPS2_RKS1_IS3_T_E = comdat any

$_ZNK10__gmp_exprIA1_12__mpq_struct17__gmp_binary_exprIS_IS1_S1_ES3_23__gmp_binary_multipliesEE4evalEPS0_ = comdat any

$_ZN23__gmp_binary_multiplies4evalEP12__mpq_structPKS0_S3_ = comdat any

$_ZeqIA1_12__mpq_structS1_S1_S1_EbRK10__gmp_exprIT_T0_ERKS2_IT1_T2_E = comdat any

$_ZN18__gmp_binary_equal4evalEPK12__mpq_structS2_ = comdat any

$_ZNK10__gmp_exprIA1_12__mpq_structS1_E7get_denEv = comdat any

$_ZNSt8_Rb_treeIN4cvc58internal12NodeTemplateILb1EEESt4pairIKS3_S3_ESt10_Select1stIS6_ESt4lessIS3_ESaIS6_EED2Ev = comdat any

$_ZNSt8_Rb_treeIN4cvc58internal12NodeTemplateILb1EEESt4pairIKS3_S3_ESt10_Select1stIS6_ESt4lessIS3_ESaIS6_EE8_M_eraseEPSt13_Rb_tree_nodeIS6_E = comdat any

$_ZNSt8_Rb_treeIN4cvc58internal12NodeTemplateILb1EEESt4pairIKS3_S3_ESt10_Select1stIS6_ESt4lessIS3_ESaIS6_EE8_M_beginEv = comdat any

$_ZNSt8_Rb_treeIN4cvc58internal12NodeTemplateILb1EEESt4pairIKS3_S3_ESt10_Select1stIS6_ESt4lessIS3_ESaIS6_EE13_Rb_tree_implISA_Lb1EED2Ev = comdat any

$_ZNSt8_Rb_treeIN4cvc58internal12NodeTemplateILb1EEESt4pairIKS3_S3_ESt10_Select1stIS6_ESt4lessIS3_ESaIS6_EE8_S_rightEPSt18_Rb_tree_node_base = comdat any

$_ZNSt8_Rb_treeIN4cvc58internal12NodeTemplateILb1EEESt4pairIKS3_S3_ESt10_Select1stIS6_ESt4lessIS3_ESaIS6_EE7_S_leftEPSt18_Rb_tree_node_base = comdat any

$_ZNSt8_Rb_treeIN4cvc58internal12NodeTemplateILb1EEESt4pairIKS3_S3_ESt10_Select1stIS6_ESt4lessIS3_ESaIS6_EE12_M_drop_nodeEPSt13_Rb_tree_nodeIS6_E = comdat any

$_ZNSt8_Rb_treeIN4cvc58internal12NodeTemplateILb1EEESt4pairIKS3_S3_ESt10_Select1stIS6_ESt4lessIS3_ESaIS6_EE15_M_destroy_nodeEPSt13_Rb_tree_nodeIS6_E = comdat any

$_ZNSt8_Rb_treeIN4cvc58internal12NodeTemplateILb1EEESt4pairIKS3_S3_ESt10_Select1stIS6_ESt4lessIS3_ESaIS6_EE11_M_put_nodeEPSt13_Rb_tree_nodeIS6_E = comdat any

$_ZNSt16allocator_traitsISaISt13_Rb_tree_nodeISt4pairIKN4cvc58internal12NodeTemplateILb1EEES5_EEEE7destroyIS7_EEvRS9_PT_ = comdat any

$_ZNSt8_Rb_treeIN4cvc58internal12NodeTemplateILb1EEESt4pairIKS3_S3_ESt10_Select1stIS6_ESt4lessIS3_ESaIS6_EE21_M_get_Node_allocatorEv = comdat any

$_ZNSt13_Rb_tree_nodeISt4pairIKN4cvc58internal12NodeTemplateILb1EEES4_EE9_M_valptrEv = comdat any

$_ZNSt15__new_allocatorISt13_Rb_tree_nodeISt4pairIKN4cvc58internal12NodeTemplateILb1EEES5_EEE7destroyIS7_EEvPT_ = comdat any

$_ZNSt4pairIKN4cvc58internal12NodeTemplateILb1EEES3_ED2Ev = comdat any

$_ZN9__gnu_cxx16__aligned_membufISt4pairIKN4cvc58internal12NodeTemplateILb1EEES5_EE6_M_ptrEv = comdat any

$_ZN9__gnu_cxx16__aligned_membufISt4pairIKN4cvc58internal12NodeTemplateILb1EEES5_EE7_M_addrEv = comdat any

$_ZNSt16allocator_traitsISaISt13_Rb_tree_nodeISt4pairIKN4cvc58internal12NodeTemplateILb1EEES5_EEEE10deallocateERS9_PS8_m = comdat any

$_ZNSt15__new_allocatorISt13_Rb_tree_nodeISt4pairIKN4cvc58internal12NodeTemplateILb1EEES5_EEE10deallocateEPS8_m = comdat any

$_ZNKSt8_Rb_treeIN4cvc58internal12NodeTemplateILb1EEESt4pairIKS3_S3_ESt10_Select1stIS6_ESt4lessIS3_ESaIS6_EE9_M_mbeginEv = comdat any

$_ZNSaISt13_Rb_tree_nodeISt4pairIKN4cvc58internal12NodeTemplateILb1EEES4_EEED2Ev = comdat any

$_ZNSt15__new_allocatorISt13_Rb_tree_nodeISt4pairIKN4cvc58internal12NodeTemplateILb1EEES5_EEED2Ev = comdat any

$_ZNSt12_Vector_baseIN4cvc58internal6theory11SkolemLemmaESaIS3_EEC2Ev = comdat any

$_ZNSt12_Vector_baseIN4cvc58internal6theory11SkolemLemmaESaIS3_EE12_Vector_implC2Ev = comdat any

$_ZNSaIN4cvc58internal6theory11SkolemLemmaEEC2Ev = comdat any

$_ZNSt12_Vector_baseIN4cvc58internal6theory11SkolemLemmaESaIS3_EE17_Vector_impl_dataC2Ev = comdat any

$_ZNSt15__new_allocatorIN4cvc58internal6theory11SkolemLemmaEEC2Ev = comdat any

$_ZN4cvc58internal6theory14TheoryRewriterD2Ev = comdat any

$_ZNSt8ios_base5iwordEi = comdat any

$_ZNK4cvc58internal8TypeNode6isNullEv = comdat any

$_ZN4cvc58internal8TypeNodeaSERKS1_ = comdat any

$_ZN4cvc58internal4expr9NodeValue3incEv = comdat any

$_ZNK4cvc58internal12NodeTemplateILb0EE11getMetaKindEv = comdat any

$_ZNK4cvc58internal4expr9NodeValue14getNumChildrenEv = comdat any

$_ZNK4cvc58internal4expr9NodeValue11getMetaKindEv = comdat any

$_ZNK4cvc58internal4expr9NodeValue7getKindEv = comdat any

$_ZN4cvc58internal4expr9NodeValue11dKindToKindEj = comdat any

$_ZNK4cvc58internal4expr9NodeValue8getChildEi = comdat any

$_ZN4cvc58internal12NodeTemplateILb0EEC2EPKNS0_4expr9NodeValueE = comdat any

$_ZNSt15__new_allocatorIN4cvc58internal12NodeTemplateILb1EEEED2Ev = comdat any

$_ZSt8_DestroyIPN4cvc58internal12NodeTemplateILb1EEES3_EvT_S5_RSaIT0_E = comdat any

$_ZNSt12_Vector_baseIN4cvc58internal12NodeTemplateILb1EEESaIS3_EE19_M_get_Tp_allocatorEv = comdat any

$_ZNSt12_Vector_baseIN4cvc58internal12NodeTemplateILb1EEESaIS3_EED2Ev = comdat any

$_ZSt8_DestroyIPN4cvc58internal12NodeTemplateILb1EEEEvT_S5_ = comdat any

$_ZNSt12_Destroy_auxILb0EE9__destroyIPN4cvc58internal12NodeTemplateILb1EEEEEvT_S7_ = comdat any

$_ZSt8_DestroyIN4cvc58internal12NodeTemplateILb1EEEEvPT_ = comdat any

$_ZNSt12_Vector_baseIN4cvc58internal12NodeTemplateILb1EEESaIS3_EE13_M_deallocateEPS3_m = comdat any

$_ZNSt12_Vector_baseIN4cvc58internal12NodeTemplateILb1EEESaIS3_EE12_Vector_implD2Ev = comdat any

$_ZNSt16allocator_traitsISaIN4cvc58internal12NodeTemplateILb1EEEEE10deallocateERS4_PS3_m = comdat any

$_ZNSt15__new_allocatorIN4cvc58internal12NodeTemplateILb1EEEE10deallocateEPS3_m = comdat any

$_ZNK4cvc58internal4expr9NodeValue5beginINS0_12NodeTemplateILb0EEEEENS2_8iteratorIT_EEv = comdat any

$_ZN4cvc58internal4expr9NodeValue8iteratorINS0_12NodeTemplateILb0EEEEC2EPKPKS2_ = comdat any

$_ZNK4cvc58internal4expr9NodeValue3endINS0_12NodeTemplateILb0EEEEENS2_8iteratorIT_EEv = comdat any

$_ZSt8_DestroyIPN4cvc58internal12NodeTemplateILb0EEES3_EvT_S5_RSaIT0_E = comdat any

$_ZNSt12_Vector_baseIN4cvc58internal12NodeTemplateILb0EEESaIS3_EE19_M_get_Tp_allocatorEv = comdat any

$_ZNSt12_Vector_baseIN4cvc58internal12NodeTemplateILb0EEESaIS3_EED2Ev = comdat any

$_ZSt8_DestroyIPN4cvc58internal12NodeTemplateILb0EEEEvT_S5_ = comdat any

$_ZNSt12_Destroy_auxILb0EE9__destroyIPN4cvc58internal12NodeTemplateILb0EEEEEvT_S7_ = comdat any

$_ZSt8_DestroyIN4cvc58internal12NodeTemplateILb0EEEEvPT_ = comdat any

$_ZNSt12_Vector_baseIN4cvc58internal12NodeTemplateILb0EEESaIS3_EE13_M_deallocateEPS3_m = comdat any

$_ZNSt12_Vector_baseIN4cvc58internal12NodeTemplateILb0EEESaIS3_EE12_Vector_implD2Ev = comdat any

$_ZNSt16allocator_traitsISaIN4cvc58internal12NodeTemplateILb0EEEEE10deallocateERS4_PS3_m = comdat any

$_ZNSt15__new_allocatorIN4cvc58internal12NodeTemplateILb0EEEE10deallocateEPS3_m = comdat any

$_ZNSt15__new_allocatorIN4cvc58internal12NodeTemplateILb0EEEED2Ev = comdat any

$_ZN4cvc58internal4expr9NodeValueC2Ei = comdat any

$_ZN4cvc58internal11NodeBuilder6appendILb1EEERS1_RKSt6vectorINS0_12NodeTemplateIXT_EEESaIS6_EE = comdat any

$_ZN4cvc58internal11NodeBuilder6appendIN9__gnu_cxx17__normal_iteratorIPKNS0_12NodeTemplateILb1EEESt6vectorIS6_SaIS6_EEEEEERS1_RKT_SG_ = comdat any

$_ZNKSt6vectorIN4cvc58internal12NodeTemplateILb1EEESaIS3_EE5beginEv = comdat any

$_ZNKSt6vectorIN4cvc58internal12NodeTemplateILb1EEESaIS3_EE3endEv = comdat any

$_ZN9__gnu_cxxneIPKN4cvc58internal12NodeTemplateILb1EEESt6vectorIS4_SaIS4_EEEEbRKNS_17__normal_iteratorIT_T0_EESF_ = comdat any

$_ZNK9__gnu_cxx17__normal_iteratorIPKN4cvc58internal12NodeTemplateILb1EEESt6vectorIS4_SaIS4_EEEdeEv = comdat any

$_ZN9__gnu_cxx17__normal_iteratorIPKN4cvc58internal12NodeTemplateILb1EEESt6vectorIS4_SaIS4_EEEppEv = comdat any

$_ZNK9__gnu_cxx17__normal_iteratorIPKN4cvc58internal12NodeTemplateILb1EEESt6vectorIS4_SaIS4_EEE4baseEv = comdat any

$_ZN9__gnu_cxx17__normal_iteratorIPKN4cvc58internal12NodeTemplateILb1EEESt6vectorIS4_SaIS4_EEEC2ERKS6_ = comdat any

$_ZN4cvc58internal4expr9algorithm10canFlattenIJEEEbNS0_12NodeTemplateILb0EEEDpT_ = comdat any

$_ZN4cvc58internal4expr9algorithm7flattenIJEEEvNS0_12NodeTemplateILb0EEERSt6vectorIS5_SaIS5_EEDpT_ = comdat any

$_ZN4cvc58internal11NodeManager6mkNodeILb0EEENS0_12NodeTemplateILb1EEENS0_4kind6Kind_tERKSt6vectorINS3_IXT_EEESaIS8_EE = comdat any

$_ZSt6any_ofIN4cvc58internal4expr9NodeValue8iteratorINS1_12NodeTemplateILb0EEEEEZNS2_9algorithm10canFlattenIJEEEbS6_DpT_EUlS6_E_EbT_SD_T0_ = comdat any

$_ZSt7none_ofIN4cvc58internal4expr9NodeValue8iteratorINS1_12NodeTemplateILb0EEEEEZNS2_9algorithm10canFlattenIJEEEbS6_DpT_EUlS6_E_EbT_SD_T0_ = comdat any

$_ZNK4cvc58internal4expr9NodeValue8iteratorINS0_12NodeTemplateILb0EEEEeqERKS6_ = comdat any

$_ZSt7find_ifIN4cvc58internal4expr9NodeValue8iteratorINS1_12NodeTemplateILb0EEEEEZNS2_9algorithm10canFlattenIJEEEbS6_DpT_EUlS6_E_ET_SD_SD_T0_ = comdat any

$_ZSt9__find_ifIN4cvc58internal4expr9NodeValue8iteratorINS1_12NodeTemplateILb0EEEEEN9__gnu_cxx5__ops10_Iter_predIZNS2_9algorithm10canFlattenIJEEEbS6_DpT_EUlS6_E_EEET_SH_SH_T0_ = comdat any

$_ZN9__gnu_cxx5__ops11__pred_iterIZN4cvc58internal4expr9algorithm10canFlattenIJEEEbNS3_12NodeTemplateILb0EEEDpT_EUlS8_E_EENS0_10_Iter_predIT_EESD_ = comdat any

$_ZSt9__find_ifIN4cvc58internal4expr9NodeValue8iteratorINS1_12NodeTemplateILb0EEEEEN9__gnu_cxx5__ops10_Iter_predIZNS2_9algorithm10canFlattenIJEEEbS6_DpT_EUlS6_E_EEET_SH_SH_T0_St26random_access_iterator_tag = comdat any

$_ZSt19__iterator_categoryIN4cvc58internal4expr9NodeValue8iteratorINS1_12NodeTemplateILb0EEEEEENSt15iterator_traitsIT_E17iterator_categoryERKS9_ = comdat any

$_ZN4cvc58internal4expr9NodeValue8iteratorINS0_12NodeTemplateILb0EEEEmiES6_ = comdat any

$_ZN9__gnu_cxx5__ops10_Iter_predIZN4cvc58internal4expr9algorithm10canFlattenIJEEEbNS3_12NodeTemplateILb0EEEDpT_EUlS8_E_EclINS4_9NodeValue8iteratorIS8_EEEEbT_ = comdat any

$_ZZN4cvc58internal4expr9algorithm10canFlattenIJEEEbNS0_12NodeTemplateILb0EEEDpT_ENKUlS5_E_clES5_ = comdat any

$_ZN9__gnu_cxx5__ops10_Iter_predIZN4cvc58internal4expr9algorithm10canFlattenIJEEEbNS3_12NodeTemplateILb0EEEDpT_EUlS8_E_EC2ESB_ = comdat any

$_ZNSaIN4cvc58internal12NodeTemplateILb0EEEEC2Ev = comdat any

$_ZNSt6vectorIN4cvc58internal12NodeTemplateILb0EEESaIS3_EEC2ESt16initializer_listIS3_ERKS4_ = comdat any

$_ZNSaIN4cvc58internal12NodeTemplateILb0EEEED2Ev = comdat any

$_ZNKSt6vectorIN4cvc58internal12NodeTemplateILb0EEESaIS3_EE5emptyEv = comdat any

$_ZNSt6vectorIN4cvc58internal12NodeTemplateILb0EEESaIS3_EE4backEv = comdat any

$_ZNSt6vectorIN4cvc58internal12NodeTemplateILb0EEESaIS3_EE8pop_backEv = comdat any

$_ZNSt6vectorIN4cvc58internal12NodeTemplateILb0EEESaIS3_EE6insertISt16reverse_iteratorINS1_4expr9NodeValue8iteratorIS3_EEEvEEN9__gnu_cxx17__normal_iteratorIPS3_S5_EENSE_IPKS3_S5_EET_SK_ = comdat any

$_ZN9__gnu_cxx17__normal_iteratorIPKN4cvc58internal12NodeTemplateILb0EEESt6vectorIS4_SaIS4_EEEC2IPS4_vEERKNS0_IT_S9_EE = comdat any

$_ZNK4cvc58internal12NodeTemplateILb0EE6rbeginEv = comdat any

$_ZNK4cvc58internal12NodeTemplateILb0EE4rendEv = comdat any

$_ZNSt6vectorIN4cvc58internal12NodeTemplateILb0EEESaIS3_EE12emplace_backIJRS3_EEES7_DpOT_ = comdat any

$_ZNSt12_Vector_baseIN4cvc58internal12NodeTemplateILb0EEESaIS3_EEC2ERKS4_ = comdat any

$_ZNSt6vectorIN4cvc58internal12NodeTemplateILb0EEESaIS3_EE19_M_range_initializeIPKS3_EEvT_S9_St20forward_iterator_tag = comdat any

$_ZNKSt16initializer_listIN4cvc58internal12NodeTemplateILb0EEEE5beginEv = comdat any

$_ZNKSt16initializer_listIN4cvc58internal12NodeTemplateILb0EEEE3endEv = comdat any

$_ZNSt12_Vector_baseIN4cvc58internal12NodeTemplateILb0EEESaIS3_EE12_Vector_implC2ERKS4_ = comdat any

$_ZNSt15__new_allocatorIN4cvc58internal12NodeTemplateILb0EEEEC2ERKS4_ = comdat any

$_ZSt8distanceIPKN4cvc58internal12NodeTemplateILb0EEEENSt15iterator_traitsIT_E15difference_typeES7_S7_ = comdat any

$_ZNSt12_Vector_baseIN4cvc58internal12NodeTemplateILb0EEESaIS3_EE11_M_allocateEm = comdat any

$_ZNSt6vectorIN4cvc58internal12NodeTemplateILb0EEESaIS3_EE17_S_check_init_lenEmRKS4_ = comdat any

$_ZSt22__uninitialized_copy_aIPKN4cvc58internal12NodeTemplateILb0EEEPS3_S3_ET0_T_S8_S7_RSaIT1_E = comdat any

$_ZSt10__distanceIPKN4cvc58internal12NodeTemplateILb0EEEENSt15iterator_traitsIT_E15difference_typeES7_S7_St26random_access_iterator_tag = comdat any

$_ZSt19__iterator_categoryIPKN4cvc58internal12NodeTemplateILb0EEEENSt15iterator_traitsIT_E17iterator_categoryERKS7_ = comdat any

$_ZNSt16allocator_traitsISaIN4cvc58internal12NodeTemplateILb0EEEEE8allocateERS4_m = comdat any

$_ZNSt15__new_allocatorIN4cvc58internal12NodeTemplateILb0EEEE8allocateEmPKv = comdat any

$_ZNKSt15__new_allocatorIN4cvc58internal12NodeTemplateILb0EEEE11_M_max_sizeEv = comdat any

$_ZNSt6vectorIN4cvc58internal12NodeTemplateILb0EEESaIS3_EE11_S_max_sizeERKS4_ = comdat any

$_ZNSaIN4cvc58internal12NodeTemplateILb0EEEEC2ERKS3_ = comdat any

$_ZNSt16allocator_traitsISaIN4cvc58internal12NodeTemplateILb0EEEEE8max_sizeERKS4_ = comdat any

$_ZSt3minImERKT_S2_S2_ = comdat any

$_ZNKSt15__new_allocatorIN4cvc58internal12NodeTemplateILb0EEEE8max_sizeEv = comdat any

$_ZSt18uninitialized_copyIPKN4cvc58internal12NodeTemplateILb0EEEPS3_ET0_T_S8_S7_ = comdat any

$_ZNSt20__uninitialized_copyILb0EE13__uninit_copyIPKN4cvc58internal12NodeTemplateILb0EEEPS5_EET0_T_SA_S9_ = comdat any

$_ZSt16__do_uninit_copyIPKN4cvc58internal12NodeTemplateILb0EEEPS3_ET0_T_S8_S7_ = comdat any

$_ZSt10_ConstructIN4cvc58internal12NodeTemplateILb0EEEJRKS3_EEvPT_DpOT0_ = comdat any

$_ZNKSt16initializer_listIN4cvc58internal12NodeTemplateILb0EEEE4sizeEv = comdat any

$_ZN9__gnu_cxxeqIPKN4cvc58internal12NodeTemplateILb0EEESt6vectorIS4_SaIS4_EEEEbRKNS_17__normal_iteratorIT_T0_EESF_ = comdat any

$_ZNKSt6vectorIN4cvc58internal12NodeTemplateILb0EEESaIS3_EE5beginEv = comdat any

$_ZNKSt6vectorIN4cvc58internal12NodeTemplateILb0EEESaIS3_EE3endEv = comdat any

$_ZNK9__gnu_cxx17__normal_iteratorIPKN4cvc58internal12NodeTemplateILb0EEESt6vectorIS4_SaIS4_EEE4baseEv = comdat any

$_ZN9__gnu_cxx17__normal_iteratorIPKN4cvc58internal12NodeTemplateILb0EEESt6vectorIS4_SaIS4_EEEC2ERKS6_ = comdat any

$_ZNK9__gnu_cxx17__normal_iteratorIPN4cvc58internal12NodeTemplateILb0EEESt6vectorIS4_SaIS4_EEEmiEl = comdat any

$_ZN9__gnu_cxx17__normal_iteratorIPN4cvc58internal12NodeTemplateILb0EEESt6vectorIS4_SaIS4_EEEC2ERKS5_ = comdat any

$_ZNSt16allocator_traitsISaIN4cvc58internal12NodeTemplateILb0EEEEE7destroyIS3_EEvRS4_PT_ = comdat any

$_ZNSt15__new_allocatorIN4cvc58internal12NodeTemplateILb0EEEE7destroyIS3_EEvPT_ = comdat any

$_ZN9__gnu_cxxmiIPKN4cvc58internal12NodeTemplateILb0EEESt6vectorIS4_SaIS4_EEEENS_17__normal_iteratorIT_T0_E15difference_typeERKSD_SG_ = comdat any

$_ZNKSt6vectorIN4cvc58internal12NodeTemplateILb0EEESaIS3_EE6cbeginEv = comdat any

$_ZNSt6vectorIN4cvc58internal12NodeTemplateILb0EEESaIS3_EE18_M_insert_dispatchISt16reverse_iteratorINS1_4expr9NodeValue8iteratorIS3_EEEEEvN9__gnu_cxx17__normal_iteratorIPS3_S5_EET_SH_St12__false_type = comdat any

$_ZNK9__gnu_cxx17__normal_iteratorIPN4cvc58internal12NodeTemplateILb0EEESt6vectorIS4_SaIS4_EEEplEl = comdat any

$_ZNSt16reverse_iteratorIN4cvc58internal4expr9NodeValue8iteratorINS1_12NodeTemplateILb0EEEEEEC2ERKS8_ = comdat any

$_ZNSt6vectorIN4cvc58internal12NodeTemplateILb0EEESaIS3_EE15_M_range_insertISt16reverse_iteratorINS1_4expr9NodeValue8iteratorIS3_EEEEEvN9__gnu_cxx17__normal_iteratorIPS3_S5_EET_SH_St20forward_iterator_tag = comdat any

$_ZSt19__iterator_categoryISt16reverse_iteratorIN4cvc58internal4expr9NodeValue8iteratorINS2_12NodeTemplateILb0EEEEEEENSt15iterator_traitsIT_E17iterator_categoryERKSB_ = comdat any

$_ZStneIN4cvc58internal4expr9NodeValue8iteratorINS1_12NodeTemplateILb0EEEEEEbRKSt16reverse_iteratorIT_ESC_ = comdat any

$_ZSt8distanceISt16reverse_iteratorIN4cvc58internal4expr9NodeValue8iteratorINS2_12NodeTemplateILb0EEEEEEENSt15iterator_traitsIT_E15difference_typeESB_SB_ = comdat any

$_ZN9__gnu_cxxmiIPN4cvc58internal12NodeTemplateILb0EEESt6vectorIS4_SaIS4_EEEENS_17__normal_iteratorIT_T0_E15difference_typeERKSC_SF_ = comdat any

$_ZSt22__uninitialized_move_aIPN4cvc58internal12NodeTemplateILb0EEES4_SaIS3_EET0_T_S7_S6_RT1_ = comdat any

$_ZSt13move_backwardIPN4cvc58internal12NodeTemplateILb0EEES4_ET0_T_S6_S5_ = comdat any

$_ZNK9__gnu_cxx17__normal_iteratorIPN4cvc58internal12NodeTemplateILb0EEESt6vectorIS4_SaIS4_EEE4baseEv = comdat any

$_ZSt4copyISt16reverse_iteratorIN4cvc58internal4expr9NodeValue8iteratorINS2_12NodeTemplateILb0EEEEEEN9__gnu_cxx17__normal_iteratorIPS7_St6vectorIS7_SaIS7_EEEEET0_T_SI_SH_ = comdat any

$_ZSt7advanceISt16reverse_iteratorIN4cvc58internal4expr9NodeValue8iteratorINS2_12NodeTemplateILb0EEEEEEmEvRT_T0_ = comdat any

$_ZSt22__uninitialized_copy_aISt16reverse_iteratorIN4cvc58internal4expr9NodeValue8iteratorINS2_12NodeTemplateILb0EEEEEEPS7_S7_ET0_T_SC_SB_RSaIT1_E = comdat any

$_ZNKSt6vectorIN4cvc58internal12NodeTemplateILb0EEESaIS3_EE12_M_check_lenEmPKc = comdat any

$_ZSt34__uninitialized_move_if_noexcept_aIPN4cvc58internal12NodeTemplateILb0EEES4_SaIS3_EET0_T_S7_S6_RT1_ = comdat any

$_ZSteqIN4cvc58internal4expr9NodeValue8iteratorINS1_12NodeTemplateILb0EEEEEEbRKSt16reverse_iteratorIT_ESC_ = comdat any

$_ZNKSt16reverse_iteratorIN4cvc58internal4expr9NodeValue8iteratorINS1_12NodeTemplateILb0EEEEEE4baseEv = comdat any

$_ZSt10__distanceISt16reverse_iteratorIN4cvc58internal4expr9NodeValue8iteratorINS2_12NodeTemplateILb0EEEEEEENSt15iterator_traitsIT_E15difference_typeESB_SB_St26random_access_iterator_tag = comdat any

$_ZStmiIN4cvc58internal4expr9NodeValue8iteratorINS1_12NodeTemplateILb0EEEEES7_EDTmicldtfp0_4baseEcldtfp_4baseEERKSt16reverse_iteratorIT_ERKS9_IT0_E = comdat any

$_ZSt22__uninitialized_copy_aISt13move_iteratorIPN4cvc58internal12NodeTemplateILb0EEEES5_S4_ET0_T_S8_S7_RSaIT1_E = comdat any

$_ZSt18make_move_iteratorIPN4cvc58internal12NodeTemplateILb0EEEESt13move_iteratorIT_ES6_ = comdat any

$_ZSt18uninitialized_copyISt13move_iteratorIPN4cvc58internal12NodeTemplateILb0EEEES5_ET0_T_S8_S7_ = comdat any

$_ZNSt20__uninitialized_copyILb0EE13__uninit_copyISt13move_iteratorIPN4cvc58internal12NodeTemplateILb0EEEES7_EET0_T_SA_S9_ = comdat any

$_ZSt16__do_uninit_copyISt13move_iteratorIPN4cvc58internal12NodeTemplateILb0EEEES5_ET0_T_S8_S7_ = comdat any

$_ZStneIPN4cvc58internal12NodeTemplateILb0EEEEbRKSt13move_iteratorIT_ES9_ = comdat any

$_ZSt10_ConstructIN4cvc58internal12NodeTemplateILb0EEEJS3_EEvPT_DpOT0_ = comdat any

$_ZNKSt13move_iteratorIPN4cvc58internal12NodeTemplateILb0EEEEdeEv = comdat any

$_ZNSt13move_iteratorIPN4cvc58internal12NodeTemplateILb0EEEEppEv = comdat any

$_ZSteqIPN4cvc58internal12NodeTemplateILb0EEEEbRKSt13move_iteratorIT_ES9_ = comdat any

$_ZNKSt13move_iteratorIPN4cvc58internal12NodeTemplateILb0EEEE4baseEv = comdat any

$_ZNSt13move_iteratorIPN4cvc58internal12NodeTemplateILb0EEEEC2ES4_ = comdat any

$_ZSt22__copy_move_backward_aILb1EPN4cvc58internal12NodeTemplateILb0EEES4_ET1_T0_S6_S5_ = comdat any

$_ZSt12__miter_baseIPN4cvc58internal12NodeTemplateILb0EEEET_S5_ = comdat any

$_ZSt12__niter_wrapIPN4cvc58internal12NodeTemplateILb0EEEET_RKS5_S5_ = comdat any

$_ZSt23__copy_move_backward_a1ILb1EPN4cvc58internal12NodeTemplateILb0EEES4_ET1_T0_S6_S5_ = comdat any

$_ZSt12__niter_baseIPN4cvc58internal12NodeTemplateILb0EEEET_S5_ = comdat any

$_ZSt23__copy_move_backward_a2ILb1EPN4cvc58internal12NodeTemplateILb0EEES4_ET1_T0_S6_S5_ = comdat any

$_ZNSt20__copy_move_backwardILb1ELb0ESt26random_access_iterator_tagE13__copy_move_bIPN4cvc58internal12NodeTemplateILb0EEES7_EET0_T_S9_S8_ = comdat any

$_ZN4cvc58internal12NodeTemplateILb0EEaSERKS2_ = comdat any

$_ZSt13__copy_move_aILb0ESt16reverse_iteratorIN4cvc58internal4expr9NodeValue8iteratorINS2_12NodeTemplateILb0EEEEEEN9__gnu_cxx17__normal_iteratorIPS7_St6vectorIS7_SaIS7_EEEEET1_T0_SI_SH_ = comdat any

$_ZSt12__miter_baseIN4cvc58internal4expr9NodeValue8iteratorINS1_12NodeTemplateILb0EEEEEEDTcl23__make_reverse_iteratorcl12__miter_basecldtfp_4baseEEEESt16reverse_iteratorIT_E = comdat any

$_ZSt12__niter_wrapIN9__gnu_cxx17__normal_iteratorIPN4cvc58internal12NodeTemplateILb0EEESt6vectorIS5_SaIS5_EEEES6_ET_SB_T0_ = comdat any

$_ZSt14__copy_move_a1ILb0ESt16reverse_iteratorIN4cvc58internal4expr9NodeValue8iteratorINS2_12NodeTemplateILb0EEEEEEPS7_ET1_T0_SC_SB_ = comdat any

$_ZSt12__niter_baseISt16reverse_iteratorIN4cvc58internal4expr9NodeValue8iteratorINS2_12NodeTemplateILb0EEEEEEET_SA_ = comdat any

$_ZSt12__niter_baseIPN4cvc58internal12NodeTemplateILb0EEESt6vectorIS3_SaIS3_EEET_N9__gnu_cxx17__normal_iteratorIS8_T0_EE = comdat any

$_ZSt14__copy_move_a2ILb0ESt16reverse_iteratorIN4cvc58internal4expr9NodeValue8iteratorINS2_12NodeTemplateILb0EEEEEEPS7_ET1_T0_SC_SB_ = comdat any

$_ZNSt11__copy_moveILb0ELb0ESt26random_access_iterator_tagE8__copy_mISt16reverse_iteratorIN4cvc58internal4expr9NodeValue8iteratorINS5_12NodeTemplateILb0EEEEEEPSA_EET0_T_SF_SE_ = comdat any

$_ZNKSt16reverse_iteratorIN4cvc58internal4expr9NodeValue8iteratorINS1_12NodeTemplateILb0EEEEEEdeEv = comdat any

$_ZNSt16reverse_iteratorIN4cvc58internal4expr9NodeValue8iteratorINS1_12NodeTemplateILb0EEEEEEppEv = comdat any

$_ZN4cvc58internal4expr9NodeValue8iteratorINS0_12NodeTemplateILb0EEEEmmEv = comdat any

$_ZSt23__make_reverse_iteratorIN4cvc58internal4expr9NodeValue8iteratorINS1_12NodeTemplateILb0EEEEEESt16reverse_iteratorIT_ES9_ = comdat any

$_ZSt12__miter_baseIN4cvc58internal4expr9NodeValue8iteratorINS1_12NodeTemplateILb0EEEEEET_S8_ = comdat any

$_ZNSt16reverse_iteratorIN4cvc58internal4expr9NodeValue8iteratorINS1_12NodeTemplateILb0EEEEEEC2ES7_ = comdat any

$_ZSt9__advanceISt16reverse_iteratorIN4cvc58internal4expr9NodeValue8iteratorINS2_12NodeTemplateILb0EEEEEElEvRT_T0_St26random_access_iterator_tag = comdat any

$_ZNSt16reverse_iteratorIN4cvc58internal4expr9NodeValue8iteratorINS1_12NodeTemplateILb0EEEEEEmmEv = comdat any

$_ZNSt16reverse_iteratorIN4cvc58internal4expr9NodeValue8iteratorINS1_12NodeTemplateILb0EEEEEEpLEl = comdat any

$_ZN4cvc58internal4expr9NodeValue8iteratorINS0_12NodeTemplateILb0EEEEmIEl = comdat any

$_ZSt18uninitialized_copyISt16reverse_iteratorIN4cvc58internal4expr9NodeValue8iteratorINS2_12NodeTemplateILb0EEEEEEPS7_ET0_T_SC_SB_ = comdat any

$_ZNSt20__uninitialized_copyILb0EE13__uninit_copyISt16reverse_iteratorIN4cvc58internal4expr9NodeValue8iteratorINS4_12NodeTemplateILb0EEEEEEPS9_EET0_T_SE_SD_ = comdat any

$_ZSt16__do_uninit_copyISt16reverse_iteratorIN4cvc58internal4expr9NodeValue8iteratorINS2_12NodeTemplateILb0EEEEEEPS7_ET0_T_SC_SB_ = comdat any

$_ZNKSt6vectorIN4cvc58internal12NodeTemplateILb0EEESaIS3_EE8max_sizeEv = comdat any

$_ZNKSt6vectorIN4cvc58internal12NodeTemplateILb0EEESaIS3_EE4sizeEv = comdat any

$_ZSt3maxImERKT_S2_S2_ = comdat any

$_ZNKSt12_Vector_baseIN4cvc58internal12NodeTemplateILb0EEESaIS3_EE19_M_get_Tp_allocatorEv = comdat any

$_ZSt32__make_move_if_noexcept_iteratorIN4cvc58internal12NodeTemplateILb0EEEPKS3_ET0_PT_ = comdat any

$_ZSt21make_reverse_iteratorIN4cvc58internal4expr9NodeValue8iteratorINS1_12NodeTemplateILb0EEEEEESt16reverse_iteratorIT_ES9_ = comdat any

$_ZNSt16allocator_traitsISaIN4cvc58internal12NodeTemplateILb0EEEEE9constructIS3_JRS3_EEEvRS4_PT_DpOT0_ = comdat any

$_ZNSt6vectorIN4cvc58internal12NodeTemplateILb0EEESaIS3_EE17_M_realloc_insertIJRS3_EEEvN9__gnu_cxx17__normal_iteratorIPS3_S5_EEDpOT_ = comdat any

$_ZNSt15__new_allocatorIN4cvc58internal12NodeTemplateILb0EEEE9constructIS3_JRS3_EEEvPT_DpOT0_ = comdat any

$_ZN4cvc58internal11NodeBuilder6appendILb0EEERS1_RKSt6vectorINS0_12NodeTemplateIXT_EEESaIS6_EE = comdat any

$_ZN4cvc58internal11NodeBuilder6appendIN9__gnu_cxx17__normal_iteratorIPKNS0_12NodeTemplateILb0EEESt6vectorIS6_SaIS6_EEEEEERS1_RKT_SG_ = comdat any

$_ZN9__gnu_cxxneIPKN4cvc58internal12NodeTemplateILb0EEESt6vectorIS4_SaIS4_EEEEbRKNS_17__normal_iteratorIT_T0_EESF_ = comdat any

$_ZNK9__gnu_cxx17__normal_iteratorIPKN4cvc58internal12NodeTemplateILb0EEESt6vectorIS4_SaIS4_EEEdeEv = comdat any

$_ZN9__gnu_cxx17__normal_iteratorIPKN4cvc58internal12NodeTemplateILb0EEESt6vectorIS4_SaIS4_EEEppEv = comdat any

$_ZNK4cvc58internal12NodeTemplateILb0EE5beginEv = comdat any

$_ZNK4cvc58internal12NodeTemplateILb0EE3endEv = comdat any

$_ZNSt8optionalIN4cvc58internal12NodeTemplateILb0EEEEC2IRKS3_TnNSt9enable_ifIX7__and_vISt6__not_ISt7is_sameIS4_NSt9remove_cvINSt16remove_referenceIT_E4typeEE4typeEEES9_ISA_ISt10in_place_tSH_EESt16is_constructibleIS3_JSD_EESt14is_convertibleISD_S3_EEEbE4typeELb1EEEOSD_ = comdat any

$_ZNSt8optionalIN4cvc58internal12NodeTemplateILb0EEEEC2Ev = comdat any

$_ZNSt14_Optional_baseIN4cvc58internal12NodeTemplateILb0EEELb0ELb0EEC2IJRKS3_ETnNSt9enable_ifIX18is_constructible_vIS3_DpT_EEbE4typeELb0EEESt10in_place_tDpOS9_ = comdat any

$_ZNSt17_Optional_payloadIN4cvc58internal12NodeTemplateILb0EEELb0ELb0ELb0EECI2St22_Optional_payload_baseIS3_EIJRKS3_EEESt10in_place_tDpOT_ = comdat any

$_ZNSt17_Optional_payloadIN4cvc58internal12NodeTemplateILb0EEELb1ELb0ELb0EECI2St22_Optional_payload_baseIS3_EIJRKS3_EEESt10in_place_tDpOT_ = comdat any

$_ZNSt22_Optional_payload_baseIN4cvc58internal12NodeTemplateILb0EEEEC2IJRKS3_EEESt10in_place_tDpOT_ = comdat any

$_ZNSt22_Optional_payload_baseIN4cvc58internal12NodeTemplateILb0EEEE8_StorageIS3_Lb0EEC2IJRKS3_EEESt10in_place_tDpOT_ = comdat any

$_ZNSt14_Optional_baseIN4cvc58internal12NodeTemplateILb0EEELb0ELb0EEC2Ev = comdat any

$_ZNSt17_Optional_payloadIN4cvc58internal12NodeTemplateILb0EEELb0ELb0ELb0EEC2Ev = comdat any

$_ZNSt17_Optional_payloadIN4cvc58internal12NodeTemplateILb0EEELb1ELb0ELb0EEC2Ev = comdat any

$_ZNSt22_Optional_payload_baseIN4cvc58internal12NodeTemplateILb0EEEEC2Ev = comdat any

$_ZNSt22_Optional_payload_baseIN4cvc58internal12NodeTemplateILb0EEEE8_StorageIS3_Lb0EEC2Ev = comdat any

$_ZN9__gnu_cxxeqIPN4cvc58internal12NodeTemplateILb0EEESt6vectorIS4_SaIS4_EEEEbRKNS_17__normal_iteratorIT_T0_EESE_ = comdat any

$_ZSt19__iterator_categoryIN9__gnu_cxx17__normal_iteratorIPN4cvc58internal12NodeTemplateILb0EEESt6vectorIS5_SaIS5_EEEEENSt15iterator_traitsIT_E17iterator_categoryERKSC_ = comdat any

$_ZNSt16allocator_traitsISaIN4cvc58internal12NodeTemplateILb1EEEEE9constructIS3_JRKNS2_ILb0EEEEEEvRS4_PT_DpOT0_ = comdat any

$_ZNSt6vectorIN4cvc58internal12NodeTemplateILb1EEESaIS3_EE17_M_realloc_insertIJRKNS2_ILb0EEEEEEvN9__gnu_cxx17__normal_iteratorIPS3_S5_EEDpOT_ = comdat any

$_ZNSt6vectorIN4cvc58internal12NodeTemplateILb1EEESaIS3_EE3endEv = comdat any

$_ZNSt6vectorIN4cvc58internal12NodeTemplateILb1EEESaIS3_EE4backEv = comdat any

$_ZNSt15__new_allocatorIN4cvc58internal12NodeTemplateILb1EEEE9constructIS3_JRKNS2_ILb0EEEEEEvPT_DpOT0_ = comdat any

$_ZNKSt6vectorIN4cvc58internal12NodeTemplateILb1EEESaIS3_EE12_M_check_lenEmPKc = comdat any

$_ZN9__gnu_cxxmiIPN4cvc58internal12NodeTemplateILb1EEESt6vectorIS4_SaIS4_EEEENS_17__normal_iteratorIT_T0_E15difference_typeERKSC_SF_ = comdat any

$_ZNSt6vectorIN4cvc58internal12NodeTemplateILb1EEESaIS3_EE5beginEv = comdat any

$_ZNSt12_Vector_baseIN4cvc58internal12NodeTemplateILb1EEESaIS3_EE11_M_allocateEm = comdat any

$_ZSt34__uninitialized_move_if_noexcept_aIPN4cvc58internal12NodeTemplateILb1EEES4_SaIS3_EET0_T_S7_S6_RT1_ = comdat any

$_ZNK9__gnu_cxx17__normal_iteratorIPN4cvc58internal12NodeTemplateILb1EEESt6vectorIS4_SaIS4_EEE4baseEv = comdat any

$_ZNSt16allocator_traitsISaIN4cvc58internal12NodeTemplateILb1EEEEE7destroyIS3_EEvRS4_PT_ = comdat any

$_ZNKSt6vectorIN4cvc58internal12NodeTemplateILb1EEESaIS3_EE8max_sizeEv = comdat any

$_ZNSt6vectorIN4cvc58internal12NodeTemplateILb1EEESaIS3_EE11_S_max_sizeERKS4_ = comdat any

$_ZNKSt12_Vector_baseIN4cvc58internal12NodeTemplateILb1EEESaIS3_EE19_M_get_Tp_allocatorEv = comdat any

$_ZNSt16allocator_traitsISaIN4cvc58internal12NodeTemplateILb1EEEEE8max_sizeERKS4_ = comdat any

$_ZNKSt15__new_allocatorIN4cvc58internal12NodeTemplateILb1EEEE8max_sizeEv = comdat any

$_ZNKSt15__new_allocatorIN4cvc58internal12NodeTemplateILb1EEEE11_M_max_sizeEv = comdat any

$_ZN9__gnu_cxx17__normal_iteratorIPN4cvc58internal12NodeTemplateILb1EEESt6vectorIS4_SaIS4_EEEC2ERKS5_ = comdat any

$_ZNSt16allocator_traitsISaIN4cvc58internal12NodeTemplateILb1EEEEE8allocateERS4_m = comdat any

$_ZNSt15__new_allocatorIN4cvc58internal12NodeTemplateILb1EEEE8allocateEmPKv = comdat any

$_ZSt22__uninitialized_copy_aIPKN4cvc58internal12NodeTemplateILb1EEEPS3_S3_ET0_T_S8_S7_RSaIT1_E = comdat any

$_ZSt32__make_move_if_noexcept_iteratorIN4cvc58internal12NodeTemplateILb1EEEPKS3_ET0_PT_ = comdat any

$_ZSt18uninitialized_copyIPKN4cvc58internal12NodeTemplateILb1EEEPS3_ET0_T_S8_S7_ = comdat any

$_ZNSt20__uninitialized_copyILb0EE13__uninit_copyIPKN4cvc58internal12NodeTemplateILb1EEEPS5_EET0_T_SA_S9_ = comdat any

$_ZSt16__do_uninit_copyIPKN4cvc58internal12NodeTemplateILb1EEEPS3_ET0_T_S8_S7_ = comdat any

$_ZSt10_ConstructIN4cvc58internal12NodeTemplateILb1EEEJRKS3_EEvPT_DpOT0_ = comdat any

$_ZNSt15__new_allocatorIN4cvc58internal12NodeTemplateILb1EEEE7destroyIS3_EEvPT_ = comdat any

$_ZNK9__gnu_cxx17__normal_iteratorIPN4cvc58internal12NodeTemplateILb1EEESt6vectorIS4_SaIS4_EEEmiEl = comdat any

$_ZNK9__gnu_cxx17__normal_iteratorIPN4cvc58internal12NodeTemplateILb1EEESt6vectorIS4_SaIS4_EEEdeEv = comdat any

$_ZNSt6vectorIN4cvc58internal12NodeTemplateILb1EEESaIS3_EE12emplace_backIJS3_EEERS3_DpOT_ = comdat any

$_ZNSt16allocator_traitsISaIN4cvc58internal12NodeTemplateILb1EEEEE9constructIS3_JS3_EEEvRS4_PT_DpOT0_ = comdat any

$_ZNSt6vectorIN4cvc58internal12NodeTemplateILb1EEESaIS3_EE17_M_realloc_insertIJS3_EEEvN9__gnu_cxx17__normal_iteratorIPS3_S5_EEDpOT_ = comdat any

$_ZNSt15__new_allocatorIN4cvc58internal12NodeTemplateILb1EEEE9constructIS3_JS3_EEEvPT_DpOT0_ = comdat any

$_ZNSt16allocator_traitsISaIN4cvc58internal12NodeTemplateILb1EEEEE9constructIS3_JRKS3_EEEvRS4_PT_DpOT0_ = comdat any

$_ZNSt6vectorIN4cvc58internal12NodeTemplateILb1EEESaIS3_EE17_M_realloc_insertIJRKS3_EEEvN9__gnu_cxx17__normal_iteratorIPS3_S5_EEDpOT_ = comdat any

$_ZNSt15__new_allocatorIN4cvc58internal12NodeTemplateILb1EEEE9constructIS3_JRKS3_EEEvPT_DpOT0_ = comdat any

$_ZNSt12_Vector_baseIN4cvc58internal12NodeTemplateILb1EEESaIS3_EEC2ERKS4_ = comdat any

$_ZNSt6vectorIN4cvc58internal12NodeTemplateILb1EEESaIS3_EE19_M_range_initializeINS1_4expr9NodeValue8iteratorINS2_ILb0EEEEEEEvT_SC_St20forward_iterator_tag = comdat any

$_ZNSt12_Vector_baseIN4cvc58internal12NodeTemplateILb1EEESaIS3_EE12_Vector_implC2ERKS4_ = comdat any

$_ZNSt15__new_allocatorIN4cvc58internal12NodeTemplateILb1EEEEC2ERKS4_ = comdat any

$_ZSt8distanceIN4cvc58internal4expr9NodeValue8iteratorINS1_12NodeTemplateILb0EEEEEENSt15iterator_traitsIT_E15difference_typeES9_S9_ = comdat any

$_ZNSt6vectorIN4cvc58internal12NodeTemplateILb1EEESaIS3_EE17_S_check_init_lenEmRKS4_ = comdat any

$_ZSt22__uninitialized_copy_aIN4cvc58internal4expr9NodeValue8iteratorINS1_12NodeTemplateILb0EEEEEPNS5_ILb1EEES8_ET0_T_SB_SA_RSaIT1_E = comdat any

$_ZSt10__distanceIN4cvc58internal4expr9NodeValue8iteratorINS1_12NodeTemplateILb0EEEEEENSt15iterator_traitsIT_E15difference_typeES9_S9_St26random_access_iterator_tag = comdat any

$_ZNSaIN4cvc58internal12NodeTemplateILb1EEEEC2ERKS3_ = comdat any

$_ZSt18uninitialized_copyIN4cvc58internal4expr9NodeValue8iteratorINS1_12NodeTemplateILb0EEEEEPNS5_ILb1EEEET0_T_SB_SA_ = comdat any

$_ZNSt20__uninitialized_copyILb0EE13__uninit_copyIN4cvc58internal4expr9NodeValue8iteratorINS3_12NodeTemplateILb0EEEEEPNS7_ILb1EEEEET0_T_SD_SC_ = comdat any

$_ZSt16__do_uninit_copyIN4cvc58internal4expr9NodeValue8iteratorINS1_12NodeTemplateILb0EEEEEPNS5_ILb1EEEET0_T_SB_SA_ = comdat any

$_ZSt10_ConstructIN4cvc58internal12NodeTemplateILb1EEEJNS2_ILb0EEEEEvPT_DpOT0_ = comdat any

$_ZNSt8_Rb_treeIN4cvc58internal12NodeTemplateILb1EEESt4pairIKS3_S3_ESt10_Select1stIS6_ESt4lessIS3_ESaIS6_EE4findERS5_ = comdat any

$_ZNSt8_Rb_treeIN4cvc58internal12NodeTemplateILb1EEESt4pairIKS3_S3_ESt10_Select1stIS6_ESt4lessIS3_ESaIS6_EE14_M_lower_boundEPSt13_Rb_tree_nodeIS6_EPSt18_Rb_tree_node_baseRS5_ = comdat any

$_ZNSt8_Rb_treeIN4cvc58internal12NodeTemplateILb1EEESt4pairIKS3_S3_ESt10_Select1stIS6_ESt4lessIS3_ESaIS6_EE6_M_endEv = comdat any

$_ZSteqRKSt17_Rb_tree_iteratorISt4pairIKN4cvc58internal12NodeTemplateILb1EEES4_EES9_ = comdat any

$_ZNSt8_Rb_treeIN4cvc58internal12NodeTemplateILb1EEESt4pairIKS3_S3_ESt10_Select1stIS6_ESt4lessIS3_ESaIS6_EE3endEv = comdat any

$_ZNKSt4lessIN4cvc58internal12NodeTemplateILb1EEEEclERKS3_S6_ = comdat any

$_ZNSt8_Rb_treeIN4cvc58internal12NodeTemplateILb1EEESt4pairIKS3_S3_ESt10_Select1stIS6_ESt4lessIS3_ESaIS6_EE6_S_keyEPKSt18_Rb_tree_node_base = comdat any

$_ZNSt8_Rb_treeIN4cvc58internal12NodeTemplateILb1EEESt4pairIKS3_S3_ESt10_Select1stIS6_ESt4lessIS3_ESaIS6_EE6_S_keyEPKSt13_Rb_tree_nodeIS6_E = comdat any

$_ZNSt17_Rb_tree_iteratorISt4pairIKN4cvc58internal12NodeTemplateILb1EEES4_EEC2EPSt18_Rb_tree_node_base = comdat any

$_ZNKSt10_Select1stISt4pairIKN4cvc58internal12NodeTemplateILb1EEES4_EEclERKS6_ = comdat any

$_ZNKSt13_Rb_tree_nodeISt4pairIKN4cvc58internal12NodeTemplateILb1EEES4_EE9_M_valptrEv = comdat any

$_ZNK9__gnu_cxx16__aligned_membufISt4pairIKN4cvc58internal12NodeTemplateILb1EEES5_EE6_M_ptrEv = comdat any

$_ZNK9__gnu_cxx16__aligned_membufISt4pairIKN4cvc58internal12NodeTemplateILb1EEES5_EE7_M_addrEv = comdat any

$_ZNK4cvc58internal12NodeTemplateILb1EEltILb1EEEbRKNS1_IXT_EEE = comdat any

$_ZNSt8_Rb_treeIN4cvc58internal12NodeTemplateILb1EEESt4pairIKS3_S3_ESt10_Select1stIS6_ESt4lessIS3_ESaIS6_EE5eraseERS5_ = comdat any

$_ZNSt8_Rb_treeIN4cvc58internal12NodeTemplateILb1EEESt4pairIKS3_S3_ESt10_Select1stIS6_ESt4lessIS3_ESaIS6_EE11equal_rangeERS5_ = comdat any

$_ZNKSt8_Rb_treeIN4cvc58internal12NodeTemplateILb1EEESt4pairIKS3_S3_ESt10_Select1stIS6_ESt4lessIS3_ESaIS6_EE4sizeEv = comdat any

$_ZNSt8_Rb_treeIN4cvc58internal12NodeTemplateILb1EEESt4pairIKS3_S3_ESt10_Select1stIS6_ESt4lessIS3_ESaIS6_EE12_M_erase_auxESt23_Rb_tree_const_iteratorIS6_ESE_ = comdat any

$_ZNSt23_Rb_tree_const_iteratorISt4pairIKN4cvc58internal12NodeTemplateILb1EEES4_EEC2ERKSt17_Rb_tree_iteratorIS6_E = comdat any

$_ZNSt8_Rb_treeIN4cvc58internal12NodeTemplateILb1EEESt4pairIKS3_S3_ESt10_Select1stIS6_ESt4lessIS3_ESaIS6_EE14_M_upper_boundEPSt13_Rb_tree_nodeIS6_EPSt18_Rb_tree_node_baseRS5_ = comdat any

$_ZNSt4pairISt17_Rb_tree_iteratorIS_IKN4cvc58internal12NodeTemplateILb1EEES4_EES7_EC2IS7_S7_TnNSt9enable_ifIXaaclsr5_PCCPE22_MoveConstructiblePairIT_T0_EEclsr5_PCCPE30_ImplicitlyMoveConvertiblePairISB_SC_EEEbE4typeELb1EEEOSB_OSC_ = comdat any

$_ZSteqRKSt23_Rb_tree_const_iteratorISt4pairIKN4cvc58internal12NodeTemplateILb1EEES4_EES9_ = comdat any

$_ZNSt8_Rb_treeIN4cvc58internal12NodeTemplateILb1EEESt4pairIKS3_S3_ESt10_Select1stIS6_ESt4lessIS3_ESaIS6_EE5beginEv = comdat any

$_ZNSt8_Rb_treeIN4cvc58internal12NodeTemplateILb1EEESt4pairIKS3_S3_ESt10_Select1stIS6_ESt4lessIS3_ESaIS6_EE5clearEv = comdat any

$_ZStneRKSt23_Rb_tree_const_iteratorISt4pairIKN4cvc58internal12NodeTemplateILb1EEES4_EES9_ = comdat any

$_ZNSt8_Rb_treeIN4cvc58internal12NodeTemplateILb1EEESt4pairIKS3_S3_ESt10_Select1stIS6_ESt4lessIS3_ESaIS6_EE12_M_erase_auxESt23_Rb_tree_const_iteratorIS6_E = comdat any

$_ZNSt23_Rb_tree_const_iteratorISt4pairIKN4cvc58internal12NodeTemplateILb1EEES4_EEppEi = comdat any

$_ZNKSt8_Rb_treeIN4cvc58internal12NodeTemplateILb1EEESt4pairIKS3_S3_ESt10_Select1stIS6_ESt4lessIS3_ESaIS6_EE5emptyEv = comdat any

$_ZSt8_DestroyIPN4cvc58internal6theory11SkolemLemmaES3_EvT_S5_RSaIT0_E = comdat any

$_ZNSt12_Vector_baseIN4cvc58internal6theory11SkolemLemmaESaIS3_EE19_M_get_Tp_allocatorEv = comdat any

$_ZNSt12_Vector_baseIN4cvc58internal6theory11SkolemLemmaESaIS3_EED2Ev = comdat any

$_ZSt8_DestroyIPN4cvc58internal6theory11SkolemLemmaEEvT_S5_ = comdat any

$_ZNSt12_Destroy_auxILb0EE9__destroyIPN4cvc58internal6theory11SkolemLemmaEEEvT_S7_ = comdat any

$_ZSt8_DestroyIN4cvc58internal6theory11SkolemLemmaEEvPT_ = comdat any

$_ZN4cvc58internal6theory11SkolemLemmaD2Ev = comdat any

$_ZNSt12_Vector_baseIN4cvc58internal6theory11SkolemLemmaESaIS3_EE13_M_deallocateEPS3_m = comdat any

$_ZNSt12_Vector_baseIN4cvc58internal6theory11SkolemLemmaESaIS3_EE12_Vector_implD2Ev = comdat any

$_ZNSt16allocator_traitsISaIN4cvc58internal6theory11SkolemLemmaEEE10deallocateERS4_PS3_m = comdat any

$_ZNSt15__new_allocatorIN4cvc58internal6theory11SkolemLemmaEE10deallocateEPS3_m = comdat any

$_ZNSaIN4cvc58internal6theory11SkolemLemmaEED2Ev = comdat any

$_ZNSt15__new_allocatorIN4cvc58internal6theory11SkolemLemmaEED2Ev = comdat any

$_ZNKSt8_Rb_treeIN4cvc58internal12NodeTemplateILb1EEESt4pairIKS3_NS1_19RealAlgebraicNumberEESt10_Select1stIS7_ENS1_6theory5arith8rewriter14TermComparatorESaIS7_EE5beginEv = comdat any

$_ZNSt23_Rb_tree_const_iteratorISt4pairIKN4cvc58internal12NodeTemplateILb1EEENS2_19RealAlgebraicNumberEEEC2EPKSt18_Rb_tree_node_base = comdat any

$_ZNKSt8_Rb_treeIN4cvc58internal12NodeTemplateILb1EEESt4pairIKS3_NS1_19RealAlgebraicNumberEESt10_Select1stIS7_ENS1_6theory5arith8rewriter14TermComparatorESaIS7_EE3endEv = comdat any

$_ZNKSt13_Rb_tree_nodeISt4pairIKN4cvc58internal12NodeTemplateILb1EEENS2_19RealAlgebraicNumberEEE9_M_valptrEv = comdat any

$_ZNK9__gnu_cxx16__aligned_membufISt4pairIKN4cvc58internal12NodeTemplateILb1EEENS3_19RealAlgebraicNumberEEE6_M_ptrEv = comdat any

$_ZNK9__gnu_cxx16__aligned_membufISt4pairIKN4cvc58internal12NodeTemplateILb1EEENS3_19RealAlgebraicNumberEEE7_M_addrEv = comdat any

$_ZN9__gnu_cxxeqIPKN4cvc58internal12NodeTemplateILb1EEESt6vectorIS4_SaIS4_EEEEbRKNS_17__normal_iteratorIT_T0_EESF_ = comdat any

$_ZTSN4cvc58internal14LogicExceptionE = comdat any

$_ZTIN4cvc58internal14LogicExceptionE = comdat any

$_ZTVN4cvc58internal14LogicExceptionE = comdat any

$_ZZN4cvc58internal4expr9NodeValue4nullEvE6s_null = comdat any

$_ZGVZN4cvc58internal4expr9NodeValue4nullEvE6s_null = comdat any

$_ZSt8in_place = comdat any

@_ZStL8__ioinit = internal global %"class.std::ios_base::Init" zeroinitializer, align 1
@__dso_handle = external hidden global i8
@_ZTVN4cvc58internal6theory5arith13ArithRewriterE = hidden unnamed_addr constant { [12 x ptr] } { [12 x ptr] [ptr null, ptr @_ZTIN4cvc58internal6theory5arith13ArithRewriterE, ptr @_ZN4cvc58internal6theory5arith13ArithRewriterD2Ev, ptr @_ZN4cvc58internal6theory5arith13ArithRewriterD0Ev, ptr @_ZN4cvc58internal6theory14TheoryRewriter16registerRewritesEPNS1_8RewriterE, ptr @_ZN4cvc58internal6theory5arith13ArithRewriter11postRewriteENS0_12NodeTemplateILb0EEE, ptr @_ZN4cvc58internal6theory14TheoryRewriter20postRewriteWithProofENS0_12NodeTemplateILb0EEE, ptr @_ZN4cvc58internal6theory5arith13ArithRewriter10preRewriteENS0_12NodeTemplateILb0EEE, ptr @_ZN4cvc58internal6theory14TheoryRewriter19preRewriteWithProofENS0_12NodeTemplateILb0EEE, ptr @_ZN4cvc58internal6theory14TheoryRewriter18rewriteEqualityExtENS0_12NodeTemplateILb1EEE, ptr @_ZN4cvc58internal6theory14TheoryRewriter27rewriteEqualityExtWithProofENS0_12NodeTemplateILb1EEE, ptr @_ZN4cvc58internal6theory5arith13ArithRewriter16expandDefinitionENS0_12NodeTemplateILb1EEE] }, align 8
@_ZN4cvc58internal10nullStreamE = external global %"class.cvc5::internal::NullC", align 1
@_ZN4cvc58internal12TraceChannelE = external global %"class.cvc5::internal::TraceC", align 8
@.str = private unnamed_addr constant [12 x i8] c"preRewrite(\00", align 1
@.str.1 = private unnamed_addr constant [2 x i8] c")\00", align 1
@.str.2 = private unnamed_addr constant [5 x i8] c" -> \00", align 1
@.str.3 = private unnamed_addr constant [13 x i8] c"postRewrite(\00", align 1
@.str.4 = private unnamed_addr constant [18 x i8] c"postRewriteAtom: \00", align 1
@__PRETTY_FUNCTION__._ZN4cvc58internal6theory5arith13ArithRewriter14preRewriteTermENS0_12NodeTemplateILb0EEE = private unnamed_addr constant [91 x i8] c"static RewriteResponse cvc5::internal::theory::arith::ArithRewriter::preRewriteTerm(TNode)\00", align 1
@.str.5 = private unnamed_addr constant [123 x i8] c"generated/home/dtcxzyw/WorkSpace/Projects/compilers/llvm-opt-benchmark/bench/cvc5/cvc5/src/theory/arith/arith_rewriter.cpp\00", align 1
@.str.6 = private unnamed_addr constant [28 x i8] c"Unhandled case encountered \00", align 1
@.str.7 = private unnamed_addr constant [18 x i8] c"postRewriteTerm: \00", align 1
@.str.8 = private unnamed_addr constant [84 x i8] c"The exponent of the POW(^) operator can only be a positive integral constant below \00", align 1
@.str.9 = private unnamed_addr constant [3 x i8] c". \00", align 1
@.str.10 = private unnamed_addr constant [23 x i8] c"Exception occurred in:\00", align 1
@.str.11 = private unnamed_addr constant [3 x i8] c"  \00", align 1
@_ZTVN10__cxxabiv120__si_class_type_infoE = external global [0 x ptr]
@_ZTSN4cvc58internal14LogicExceptionE = linkonce_odr hidden constant [33 x i8] c"N4cvc58internal14LogicExceptionE\00", comdat, align 1
@_ZTIN4cvc58internal9ExceptionE = external constant ptr
@_ZTIN4cvc58internal14LogicExceptionE = linkonce_odr hidden constant { ptr, ptr, ptr } { ptr getelementptr inbounds (ptr, ptr @_ZTVN10__cxxabiv120__si_class_type_infoE, i64 2), ptr @_ZTSN4cvc58internal14LogicExceptionE, ptr @_ZTIN4cvc58internal9ExceptionE }, comdat, align 8
@__PRETTY_FUNCTION__._ZN4cvc58internal6theory5arith13ArithRewriter15postRewriteTermENS0_12NodeTemplateILb0EEE = private unnamed_addr constant [92 x i8] c"static RewriteResponse cvc5::internal::theory::arith::ArithRewriter::postRewriteTerm(TNode)\00", align 1
@.str.12 = private unnamed_addr constant [26 x i8] c"Unreachable code reached \00", align 1
@.str.13 = private unnamed_addr constant [35 x i8] c"Rewrite transcendental function : \00", align 1
@.str.14 = private unnamed_addr constant [21 x i8] c"Process pi factor = \00", align 1
@.str.15 = private unnamed_addr constant [17 x i8] c"ArithRewriter : \00", align 1
@.str.16 = private unnamed_addr constant [5 x i8] c" == \00", align 1
@.str.17 = private unnamed_addr constant [5 x i8] c" by \00", align 1
@_ZTSN4cvc58internal6theory5arith13ArithRewriterE = hidden constant [45 x i8] c"N4cvc58internal6theory5arith13ArithRewriterE\00", align 1
@_ZTIN4cvc58internal6theory14TheoryRewriterE = external constant ptr
@_ZTIN4cvc58internal6theory5arith13ArithRewriterE = hidden constant { ptr, ptr, ptr } { ptr getelementptr inbounds (ptr, ptr @_ZTVN10__cxxabiv120__si_class_type_infoE, i64 2), ptr @_ZTSN4cvc58internal6theory5arith13ArithRewriterE, ptr @_ZTIN4cvc58internal6theory14TheoryRewriterE }, align 8
@_ZN4cvc58internal12NodeTemplateILb1EE6s_nullE = linkonce_odr hidden global %"class.cvc5::internal::NodeTemplate" zeroinitializer, comdat, align 8
@_ZGVN4cvc58internal12NodeTemplateILb1EE6s_nullE = linkonce_odr hidden global i64 0, comdat($_ZN4cvc58internal12NodeTemplateILb1EE6s_nullE), align 8
@_ZTVN4cvc58internal6theory14TheoryRewriterE = external unnamed_addr constant { [12 x ptr] }, align 8
@__PRETTY_FUNCTION__._ZN4cvc58internal6theory5arith8rewriter6isAtomENS0_12NodeTemplateILb0EEE = private unnamed_addr constant [60 x i8] c"bool cvc5::internal::theory::arith::rewriter::isAtom(TNode)\00", align 1
@.str.19 = private unnamed_addr constant [126 x i8] c"generated/home/dtcxzyw/WorkSpace/Projects/compilers/llvm-opt-benchmark/bench/cvc5/cvc5/src/theory/arith/rewriter/node_utils.h\00", align 1
@_ZTVN4cvc58internal14LogicExceptionE = linkonce_odr hidden unnamed_addr constant { [6 x ptr] } { [6 x ptr] [ptr null, ptr @_ZTIN4cvc58internal14LogicExceptionE, ptr @_ZN4cvc58internal14LogicExceptionD2Ev, ptr @_ZN4cvc58internal14LogicExceptionD0Ev, ptr @_ZNK4cvc58internal9Exception4whatEv, ptr @_ZNK4cvc58internal9Exception8toStreamERSo] }, comdat, align 8
@_ZTVN4cvc58internal9ExceptionE = external unnamed_addr constant { [6 x ptr] }, align 8
@_ZTVSt9exception = external unnamed_addr constant { [5 x ptr] }, align 8
@_ZN4cvc58internal11Cvc5ostream16s_indentIosIndexE = external constant i32, align 4
@_ZN4cvc58internal11Cvc5ostream5s_tabB5cxx11E = external global %"class.std::__cxx11::basic_string", align 8
@_ZTIN4cvc58internal28TypeCheckingExceptionPrivateE = external constant ptr
@_ZZN4cvc58internal4expr9NodeValue4nullEvE6s_null = linkonce_odr global ptr null, comdat, align 8
@_ZGVZN4cvc58internal4expr9NodeValue4nullEvE6s_null = linkonce_odr global i64 0, comdat, align 8
@.str.20 = private unnamed_addr constant [49 x i8] c"cannot create std::vector larger than max_size()\00", align 1
@.str.21 = private unnamed_addr constant [24 x i8] c"vector::_M_range_insert\00", align 1
@.str.22 = private unnamed_addr constant [26 x i8] c"vector::_M_realloc_insert\00", align 1
@_ZSt8in_place = linkonce_odr constant %"struct.std::in_place_t" zeroinitializer, comdat, align 1
@llvm.global_ctors = appending global [2 x { i32, ptr, ptr }] [{ i32, ptr, ptr } { i32 65535, ptr @__cxx_global_var_init.18, ptr @_ZN4cvc58internal12NodeTemplateILb1EE6s_nullE }, { i32, ptr, ptr } { i32 65535, ptr @_GLOBAL__sub_I_arith_rewriter.cpp, ptr null }]
@llvm.used = appending global [1 x ptr] [ptr @_ZN4cvc58internal12NodeTemplateILb1EE6s_nullE], section "llvm.metadata"

@_ZN4cvc58internal6theory5arith13ArithRewriterC1ERNS2_12OperatorElimE = hidden unnamed_addr alias void (ptr, ptr), ptr @_ZN4cvc58internal6theory5arith13ArithRewriterC2ERNS2_12OperatorElimE

; Function Attrs: uwtable
define internal void @__cxx_global_var_init() #0 section ".text.startup" {
entry:
  call void @_ZNSt8ios_base4InitC1Ev(ptr noundef nonnull align 1 dereferenceable(1) @_ZStL8__ioinit)
  %0 = call i32 @__cxa_atexit(ptr @_ZNSt8ios_base4InitD1Ev, ptr @_ZStL8__ioinit, ptr @__dso_handle) #3
  ret void
}

declare void @_ZNSt8ios_base4InitC1Ev(ptr noundef nonnull align 1 dereferenceable(1)) unnamed_addr #1

; Function Attrs: nounwind
declare void @_ZNSt8ios_base4InitD1Ev(ptr noundef nonnull align 1 dereferenceable(1)) unnamed_addr #2

; Function Attrs: nounwind
declare i32 @__cxa_atexit(ptr, ptr, ptr) #3

; Function Attrs: mustprogress nounwind uwtable
define hidden void @_ZN4cvc58internal6theory5arith13ArithRewriterC2ERNS2_12OperatorElimE(ptr noundef nonnull align 8 dereferenceable(16) %this, ptr noundef nonnull align 8 dereferenceable(264) %oe) unnamed_addr #4 align 2 {
entry:
  %this.addr = alloca ptr, align 8
  %oe.addr = alloca ptr, align 8
  store ptr %this, ptr %this.addr, align 8
  store ptr %oe, ptr %oe.addr, align 8
  %this1 = load ptr, ptr %this.addr, align 8
  call void @_ZN4cvc58internal6theory14TheoryRewriterC2Ev(ptr noundef nonnull align 8 dereferenceable(8) %this1) #3
  store ptr getelementptr inbounds ({ [12 x ptr] }, ptr @_ZTVN4cvc58internal6theory5arith13ArithRewriterE, i32 0, inrange i32 0, i32 2), ptr %this1, align 8
  %d_opElim = getelementptr inbounds %"class.cvc5::internal::theory::arith::ArithRewriter", ptr %this1, i32 0, i32 1
  %0 = load ptr, ptr %oe.addr, align 8
  store ptr %0, ptr %d_opElim, align 8
  ret void
}

; Function Attrs: mustprogress nounwind uwtable
define linkonce_odr hidden void @_ZN4cvc58internal6theory14TheoryRewriterC2Ev(ptr noundef nonnull align 8 dereferenceable(8) %this) unnamed_addr #4 comdat align 2 {
entry:
  %this.addr = alloca ptr, align 8
  store ptr %this, ptr %this.addr, align 8
  %this1 = load ptr, ptr %this.addr, align 8
  store ptr getelementptr inbounds ({ [12 x ptr] }, ptr @_ZTVN4cvc58internal6theory14TheoryRewriterE, i32 0, inrange i32 0, i32 2), ptr %this1, align 8
  ret void
}

; Function Attrs: mustprogress uwtable
define hidden void @_ZN4cvc58internal6theory5arith13ArithRewriter10preRewriteENS0_12NodeTemplateILb0EEE(ptr noalias sret(%"struct.cvc5::internal::theory::RewriteResponse") align 8 %agg.result, ptr noundef nonnull align 8 dereferenceable(16) %this, ptr noundef %t) unnamed_addr #5 align 2 personality ptr @__gxx_personality_v0 {
entry:
  %result.ptr = alloca ptr, align 8
  %this.addr = alloca ptr, align 8
  %t.indirect_addr = alloca ptr, align 8
  %ref.tmp = alloca %"class.cvc5::internal::__cvc5_true", align 1
  %tmp = alloca %"class.cvc5::internal::Cvc5ostream", align 8
  %agg.tmp.ensured = alloca %"class.cvc5::internal::Cvc5ostream", align 8
  %ref.tmp2 = alloca %"class.cvc5::internal::Cvc5ostream", align 8
  %agg.tmp = alloca %"class.cvc5::internal::NodeTemplate.12", align 8
  %exn.slot = alloca ptr, align 8
  %ehselector.slot = alloca i32, align 4
  %nrvo = alloca i1, align 1
  %agg.tmp8 = alloca %"class.cvc5::internal::NodeTemplate.12", align 8
  %ref.tmp11 = alloca %"class.cvc5::internal::__cvc5_true", align 1
  %tmp16 = alloca %"class.cvc5::internal::Cvc5ostream", align 8
  %agg.tmp.ensured19 = alloca %"class.cvc5::internal::Cvc5ostream", align 8
  %ref.tmp20 = alloca %"class.cvc5::internal::Cvc5ostream", align 8
  %nrvo31 = alloca i1, align 1
  %agg.tmp32 = alloca %"class.cvc5::internal::NodeTemplate.12", align 8
  %ref.tmp35 = alloca %"class.cvc5::internal::__cvc5_true", align 1
  %tmp40 = alloca %"class.cvc5::internal::Cvc5ostream", align 8
  %agg.tmp.ensured43 = alloca %"class.cvc5::internal::Cvc5ostream", align 8
  %ref.tmp44 = alloca %"class.cvc5::internal::Cvc5ostream", align 8
  store ptr %agg.result, ptr %result.ptr, align 8
  store ptr %this, ptr %this.addr, align 8
  store ptr %t, ptr %t.indirect_addr, align 8
  %call = call noundef zeroext i1 @_ZN4cvc58internal11__cvc5_truecvbEv(ptr noundef nonnull align 1 dereferenceable(1) %ref.tmp)
  br i1 %call, label %cond.true, label %cond.false

cond.true:                                        ; preds = %entry
  call void @_ZNK4cvc58internal5NullCcvNS0_11Cvc5ostreamEEv(ptr sret(%"class.cvc5::internal::Cvc5ostream") align 8 %tmp, ptr noundef nonnull align 1 dereferenceable(1) @_ZN4cvc58internal10nullStreamE)
  br label %cond.end

cond.false:                                       ; preds = %entry
  call void @_ZNK4cvc58internal6TraceCclEv(ptr sret(%"class.cvc5::internal::Cvc5ostream") align 8 %ref.tmp2, ptr noundef nonnull align 8 dereferenceable(32) @_ZN4cvc58internal12TraceChannelE)
  %call3 = call noundef nonnull align 8 dereferenceable(24) ptr @_ZN4cvc58internal11Cvc5ostreamlsIA12_cEERS1_RKT_(ptr noundef nonnull align 8 dereferenceable(24) %ref.tmp2, ptr noundef nonnull align 1 dereferenceable(12) @.str)
  %call4 = call noundef nonnull align 8 dereferenceable(24) ptr @_ZN4cvc58internal11Cvc5ostreamlsINS0_12NodeTemplateILb0EEEEERS1_RKT_(ptr noundef nonnull align 8 dereferenceable(24) %call3, ptr noundef nonnull align 8 dereferenceable(8) %t)
  %call5 = call noundef nonnull align 8 dereferenceable(24) ptr @_ZN4cvc58internal11Cvc5ostreamlsIA2_cEERS1_RKT_(ptr noundef nonnull align 8 dereferenceable(24) %call4, ptr noundef nonnull align 1 dereferenceable(2) @.str.1)
  %call6 = call noundef nonnull align 8 dereferenceable(24) ptr @_ZN4cvc58internal11Cvc5ostreamlsEPFRSoS2_E(ptr noundef nonnull align 8 dereferenceable(24) %call5, ptr noundef @_ZSt4endlIcSt11char_traitsIcEERSt13basic_ostreamIT_T0_ES6_)
  call void @llvm.memcpy.p0.p0.i64(ptr align 8 %agg.tmp.ensured, ptr align 8 %call6, i64 24, i1 false)
  br label %cond.end

cond.end:                                         ; preds = %cond.false, %cond.true
  call void @_ZN4cvc58internal12NodeTemplateILb0EEC2ERKS2_(ptr noundef nonnull align 8 dereferenceable(8) %agg.tmp, ptr noundef nonnull align 8 dereferenceable(8) %t)
  %call7 = invoke noundef zeroext i1 @_ZN4cvc58internal6theory5arith8rewriter6isAtomENS0_12NodeTemplateILb0EEE(ptr noundef %agg.tmp)
          to label %invoke.cont unwind label %lpad

invoke.cont:                                      ; preds = %cond.end
  call void @_ZN4cvc58internal12NodeTemplateILb0EED2Ev(ptr noundef nonnull align 8 dereferenceable(8) %agg.tmp) #3
  br i1 %call7, label %if.then, label %if.end

if.then:                                          ; preds = %invoke.cont
  store i1 false, ptr %nrvo, align 1
  call void @_ZN4cvc58internal12NodeTemplateILb0EEC2ERKS2_(ptr noundef nonnull align 8 dereferenceable(8) %agg.tmp8, ptr noundef nonnull align 8 dereferenceable(8) %t)
  invoke void @_ZN4cvc58internal6theory5arith13ArithRewriter14preRewriteAtomENS0_12NodeTemplateILb0EEE(ptr sret(%"struct.cvc5::internal::theory::RewriteResponse") align 8 %agg.result, ptr noundef %agg.tmp8)
          to label %invoke.cont10 unwind label %lpad9

invoke.cont10:                                    ; preds = %if.then
  call void @_ZN4cvc58internal12NodeTemplateILb0EED2Ev(ptr noundef nonnull align 8 dereferenceable(8) %agg.tmp8) #3
  %call14 = invoke noundef zeroext i1 @_ZN4cvc58internal11__cvc5_truecvbEv(ptr noundef nonnull align 1 dereferenceable(1) %ref.tmp11)
          to label %invoke.cont13 unwind label %lpad12

invoke.cont13:                                    ; preds = %invoke.cont10
  br i1 %call14, label %cond.true15, label %cond.false18

cond.true15:                                      ; preds = %invoke.cont13
  invoke void @_ZNK4cvc58internal5NullCcvNS0_11Cvc5ostreamEEv(ptr sret(%"class.cvc5::internal::Cvc5ostream") align 8 %tmp16, ptr noundef nonnull align 1 dereferenceable(1) @_ZN4cvc58internal10nullStreamE)
          to label %invoke.cont17 unwind label %lpad12

invoke.cont17:                                    ; preds = %cond.true15
  br label %cond.end30

cond.false18:                                     ; preds = %invoke.cont13
  invoke void @_ZNK4cvc58internal6TraceCclEv(ptr sret(%"class.cvc5::internal::Cvc5ostream") align 8 %ref.tmp20, ptr noundef nonnull align 8 dereferenceable(32) @_ZN4cvc58internal12TraceChannelE)
          to label %invoke.cont21 unwind label %lpad12

invoke.cont21:                                    ; preds = %cond.false18
  %d_status = getelementptr inbounds %"struct.cvc5::internal::theory::RewriteResponse", ptr %agg.result, i32 0, i32 0
  %call23 = invoke noundef nonnull align 8 dereferenceable(24) ptr @_ZN4cvc58internal11Cvc5ostreamlsINS0_6theory13RewriteStatusEEERS1_RKT_(ptr noundef nonnull align 8 dereferenceable(24) %ref.tmp20, ptr noundef nonnull align 4 dereferenceable(4) %d_status)
          to label %invoke.cont22 unwind label %lpad12

invoke.cont22:                                    ; preds = %invoke.cont21
  %call25 = invoke noundef nonnull align 8 dereferenceable(24) ptr @_ZN4cvc58internal11Cvc5ostreamlsIA5_cEERS1_RKT_(ptr noundef nonnull align 8 dereferenceable(24) %call23, ptr noundef nonnull align 1 dereferenceable(5) @.str.2)
          to label %invoke.cont24 unwind label %lpad12

invoke.cont24:                                    ; preds = %invoke.cont22
  %d_node = getelementptr inbounds %"struct.cvc5::internal::theory::RewriteResponse", ptr %agg.result, i32 0, i32 1
  %call27 = invoke noundef nonnull align 8 dereferenceable(24) ptr @_ZN4cvc58internal11Cvc5ostreamlsINS0_12NodeTemplateILb1EEEEERS1_RKT_(ptr noundef nonnull align 8 dereferenceable(24) %call25, ptr noundef nonnull align 8 dereferenceable(8) %d_node)
          to label %invoke.cont26 unwind label %lpad12

invoke.cont26:                                    ; preds = %invoke.cont24
  %call29 = invoke noundef nonnull align 8 dereferenceable(24) ptr @_ZN4cvc58internal11Cvc5ostreamlsEPFRSoS2_E(ptr noundef nonnull align 8 dereferenceable(24) %call27, ptr noundef @_ZSt4endlIcSt11char_traitsIcEERSt13basic_ostreamIT_T0_ES6_)
          to label %invoke.cont28 unwind label %lpad12

invoke.cont28:                                    ; preds = %invoke.cont26
  call void @llvm.memcpy.p0.p0.i64(ptr align 8 %agg.tmp.ensured19, ptr align 8 %call29, i64 24, i1 false)
  br label %cond.end30

cond.end30:                                       ; preds = %invoke.cont28, %invoke.cont17
  store i1 true, ptr %nrvo, align 1
  %nrvo.val = load i1, ptr %nrvo, align 1
  br i1 %nrvo.val, label %nrvo.skipdtor, label %nrvo.unused

lpad:                                             ; preds = %cond.end
  %0 = landingpad { ptr, i32 }
          cleanup
  %1 = extractvalue { ptr, i32 } %0, 0
  store ptr %1, ptr %exn.slot, align 8
  %2 = extractvalue { ptr, i32 } %0, 1
  store i32 %2, ptr %ehselector.slot, align 4
  call void @_ZN4cvc58internal12NodeTemplateILb0EED2Ev(ptr noundef nonnull align 8 dereferenceable(8) %agg.tmp) #3
  br label %eh.resume

lpad9:                                            ; preds = %if.then
  %3 = landingpad { ptr, i32 }
          cleanup
  %4 = extractvalue { ptr, i32 } %3, 0
  store ptr %4, ptr %exn.slot, align 8
  %5 = extractvalue { ptr, i32 } %3, 1
  store i32 %5, ptr %ehselector.slot, align 4
  call void @_ZN4cvc58internal12NodeTemplateILb0EED2Ev(ptr noundef nonnull align 8 dereferenceable(8) %agg.tmp8) #3
  br label %eh.resume

lpad12:                                           ; preds = %invoke.cont26, %invoke.cont24, %invoke.cont22, %invoke.cont21, %cond.false18, %cond.true15, %invoke.cont10
  %6 = landingpad { ptr, i32 }
          cleanup
  %7 = extractvalue { ptr, i32 } %6, 0
  store ptr %7, ptr %exn.slot, align 8
  %8 = extractvalue { ptr, i32 } %6, 1
  store i32 %8, ptr %ehselector.slot, align 4
  call void @_ZN4cvc58internal6theory15RewriteResponseD2Ev(ptr noundef nonnull align 8 dereferenceable(16) %agg.result) #3
  br label %eh.resume

nrvo.unused:                                      ; preds = %cond.end30
  call void @_ZN4cvc58internal6theory15RewriteResponseD2Ev(ptr noundef nonnull align 8 dereferenceable(16) %agg.result) #3
  br label %nrvo.skipdtor

nrvo.skipdtor:                                    ; preds = %nrvo.unused, %cond.end30
  br label %return

if.end:                                           ; preds = %invoke.cont
  store i1 false, ptr %nrvo31, align 1
  call void @_ZN4cvc58internal12NodeTemplateILb0EEC2ERKS2_(ptr noundef nonnull align 8 dereferenceable(8) %agg.tmp32, ptr noundef nonnull align 8 dereferenceable(8) %t)
  invoke void @_ZN4cvc58internal6theory5arith13ArithRewriter14preRewriteTermENS0_12NodeTemplateILb0EEE(ptr sret(%"struct.cvc5::internal::theory::RewriteResponse") align 8 %agg.result, ptr noundef %agg.tmp32)
          to label %invoke.cont34 unwind label %lpad33

invoke.cont34:                                    ; preds = %if.end
  call void @_ZN4cvc58internal12NodeTemplateILb0EED2Ev(ptr noundef nonnull align 8 dereferenceable(8) %agg.tmp32) #3
  %call38 = invoke noundef zeroext i1 @_ZN4cvc58internal11__cvc5_truecvbEv(ptr noundef nonnull align 1 dereferenceable(1) %ref.tmp35)
          to label %invoke.cont37 unwind label %lpad36

invoke.cont37:                                    ; preds = %invoke.cont34
  br i1 %call38, label %cond.true39, label %cond.false42

cond.true39:                                      ; preds = %invoke.cont37
  invoke void @_ZNK4cvc58internal5NullCcvNS0_11Cvc5ostreamEEv(ptr sret(%"class.cvc5::internal::Cvc5ostream") align 8 %tmp40, ptr noundef nonnull align 1 dereferenceable(1) @_ZN4cvc58internal10nullStreamE)
          to label %invoke.cont41 unwind label %lpad36

invoke.cont41:                                    ; preds = %cond.true39
  br label %cond.end56

cond.false42:                                     ; preds = %invoke.cont37
  invoke void @_ZNK4cvc58internal6TraceCclEv(ptr sret(%"class.cvc5::internal::Cvc5ostream") align 8 %ref.tmp44, ptr noundef nonnull align 8 dereferenceable(32) @_ZN4cvc58internal12TraceChannelE)
          to label %invoke.cont45 unwind label %lpad36

invoke.cont45:                                    ; preds = %cond.false42
  %d_status46 = getelementptr inbounds %"struct.cvc5::internal::theory::RewriteResponse", ptr %agg.result, i32 0, i32 0
  %call48 = invoke noundef nonnull align 8 dereferenceable(24) ptr @_ZN4cvc58internal11Cvc5ostreamlsINS0_6theory13RewriteStatusEEERS1_RKT_(ptr noundef nonnull align 8 dereferenceable(24) %ref.tmp44, ptr noundef nonnull align 4 dereferenceable(4) %d_status46)
          to label %invoke.cont47 unwind label %lpad36

invoke.cont47:                                    ; preds = %invoke.cont45
  %call50 = invoke noundef nonnull align 8 dereferenceable(24) ptr @_ZN4cvc58internal11Cvc5ostreamlsIA5_cEERS1_RKT_(ptr noundef nonnull align 8 dereferenceable(24) %call48, ptr noundef nonnull align 1 dereferenceable(5) @.str.2)
          to label %invoke.cont49 unwind label %lpad36

invoke.cont49:                                    ; preds = %invoke.cont47
  %d_node51 = getelementptr inbounds %"struct.cvc5::internal::theory::RewriteResponse", ptr %agg.result, i32 0, i32 1
  %call53 = invoke noundef nonnull align 8 dereferenceable(24) ptr @_ZN4cvc58internal11Cvc5ostreamlsINS0_12NodeTemplateILb1EEEEERS1_RKT_(ptr noundef nonnull align 8 dereferenceable(24) %call50, ptr noundef nonnull align 8 dereferenceable(8) %d_node51)
          to label %invoke.cont52 unwind label %lpad36

invoke.cont52:                                    ; preds = %invoke.cont49
  %call55 = invoke noundef nonnull align 8 dereferenceable(24) ptr @_ZN4cvc58internal11Cvc5ostreamlsEPFRSoS2_E(ptr noundef nonnull align 8 dereferenceable(24) %call53, ptr noundef @_ZSt4endlIcSt11char_traitsIcEERSt13basic_ostreamIT_T0_ES6_)
          to label %invoke.cont54 unwind label %lpad36

invoke.cont54:                                    ; preds = %invoke.cont52
  call void @llvm.memcpy.p0.p0.i64(ptr align 8 %agg.tmp.ensured43, ptr align 8 %call55, i64 24, i1 false)
  br label %cond.end56

cond.end56:                                       ; preds = %invoke.cont54, %invoke.cont41
  store i1 true, ptr %nrvo31, align 1
  %nrvo.val57 = load i1, ptr %nrvo31, align 1
  br i1 %nrvo.val57, label %nrvo.skipdtor59, label %nrvo.unused58

lpad33:                                           ; preds = %if.end
  %9 = landingpad { ptr, i32 }
          cleanup
  %10 = extractvalue { ptr, i32 } %9, 0
  store ptr %10, ptr %exn.slot, align 8
  %11 = extractvalue { ptr, i32 } %9, 1
  store i32 %11, ptr %ehselector.slot, align 4
  call void @_ZN4cvc58internal12NodeTemplateILb0EED2Ev(ptr noundef nonnull align 8 dereferenceable(8) %agg.tmp32) #3
  br label %eh.resume

lpad36:                                           ; preds = %invoke.cont52, %invoke.cont49, %invoke.cont47, %invoke.cont45, %cond.false42, %cond.true39, %invoke.cont34
  %12 = landingpad { ptr, i32 }
          cleanup
  %13 = extractvalue { ptr, i32 } %12, 0
  store ptr %13, ptr %exn.slot, align 8
  %14 = extractvalue { ptr, i32 } %12, 1
  store i32 %14, ptr %ehselector.slot, align 4
  call void @_ZN4cvc58internal6theory15RewriteResponseD2Ev(ptr noundef nonnull align 8 dereferenceable(16) %agg.result) #3
  br label %eh.resume

nrvo.unused58:                                    ; preds = %cond.end56
  call void @_ZN4cvc58internal6theory15RewriteResponseD2Ev(ptr noundef nonnull align 8 dereferenceable(16) %agg.result) #3
  br label %nrvo.skipdtor59

nrvo.skipdtor59:                                  ; preds = %nrvo.unused58, %cond.end56
  br label %return

return:                                           ; preds = %nrvo.skipdtor59, %nrvo.skipdtor
  ret void

eh.resume:                                        ; preds = %lpad36, %lpad33, %lpad12, %lpad9, %lpad
  %exn = load ptr, ptr %exn.slot, align 8
  %sel = load i32, ptr %ehselector.slot, align 4
  %lpad.val = insertvalue { ptr, i32 } poison, ptr %exn, 0
  %lpad.val60 = insertvalue { ptr, i32 } %lpad.val, i32 %sel, 1
  resume { ptr, i32 } %lpad.val60
}

; Function Attrs: mustprogress nounwind uwtable
define linkonce_odr hidden noundef zeroext i1 @_ZN4cvc58internal11__cvc5_truecvbEv(ptr noundef nonnull align 1 dereferenceable(1) %this) #4 comdat align 2 {
entry:
  %this.addr = alloca ptr, align 8
  store ptr %this, ptr %this.addr, align 8
  ret i1 true
}

; Function Attrs: mustprogress uwtable
define linkonce_odr hidden void @_ZNK4cvc58internal5NullCcvNS0_11Cvc5ostreamEEv(ptr noalias sret(%"class.cvc5::internal::Cvc5ostream") align 8 %agg.result, ptr noundef nonnull align 1 dereferenceable(1) %this) #5 comdat align 2 {
entry:
  %this.addr = alloca ptr, align 8
  store ptr %this, ptr %this.addr, align 8
  call void @_ZN4cvc58internal11Cvc5ostreamC2Ev(ptr noundef nonnull align 8 dereferenceable(24) %agg.result)
  ret void
}

; Function Attrs: mustprogress uwtable
define linkonce_odr hidden void @_ZNK4cvc58internal6TraceCclEv(ptr noalias sret(%"class.cvc5::internal::Cvc5ostream") align 8 %agg.result, ptr noundef nonnull align 8 dereferenceable(32) %this) #5 comdat align 2 {
entry:
  %this.addr = alloca ptr, align 8
  store ptr %this, ptr %this.addr, align 8
  %this1 = load ptr, ptr %this.addr, align 8
  %d_os = getelementptr inbounds %"class.cvc5::internal::TraceC", ptr %this1, i32 0, i32 0
  %0 = load ptr, ptr %d_os, align 8
  call void @_ZN4cvc58internal11Cvc5ostreamC2EPSo(ptr noundef nonnull align 8 dereferenceable(24) %agg.result, ptr noundef %0)
  ret void
}

; Function Attrs: mustprogress uwtable
define linkonce_odr hidden noundef nonnull align 8 dereferenceable(24) ptr @_ZN4cvc58internal11Cvc5ostreamlsIA12_cEERS1_RKT_(ptr noundef nonnull align 8 dereferenceable(24) %this, ptr noundef nonnull align 1 dereferenceable(12) %t) #5 comdat align 2 {
entry:
  %this.addr = alloca ptr, align 8
  %t.addr = alloca ptr, align 8
  %indent = alloca i64, align 8
  %i = alloca i64, align 8
  store ptr %this, ptr %this.addr, align 8
  store ptr %t, ptr %t.addr, align 8
  %this1 = load ptr, ptr %this.addr, align 8
  %d_os = getelementptr inbounds %"class.cvc5::internal::Cvc5ostream", ptr %this1, i32 0, i32 0
  %0 = load ptr, ptr %d_os, align 8
  %cmp = icmp ne ptr %0, null
  br i1 %cmp, label %if.then, label %if.end11

if.then:                                          ; preds = %entry
  %d_firstColumn = getelementptr inbounds %"class.cvc5::internal::Cvc5ostream", ptr %this1, i32 0, i32 1
  %1 = load i8, ptr %d_firstColumn, align 8
  %tobool = trunc i8 %1 to i1
  br i1 %tobool, label %if.then2, label %if.end

if.then2:                                         ; preds = %if.then
  %d_firstColumn3 = getelementptr inbounds %"class.cvc5::internal::Cvc5ostream", ptr %this1, i32 0, i32 1
  store i8 0, ptr %d_firstColumn3, align 8
  %d_os4 = getelementptr inbounds %"class.cvc5::internal::Cvc5ostream", ptr %this1, i32 0, i32 0
  %2 = load ptr, ptr %d_os4, align 8
  %vtable = load ptr, ptr %2, align 8
  %vbase.offset.ptr = getelementptr i8, ptr %vtable, i64 -24
  %vbase.offset = load i64, ptr %vbase.offset.ptr, align 8
  %add.ptr = getelementptr inbounds i8, ptr %2, i64 %vbase.offset
  %3 = load i32, ptr @_ZN4cvc58internal11Cvc5ostream16s_indentIosIndexE, align 4
  %call = call noundef nonnull align 8 dereferenceable(8) ptr @_ZNSt8ios_base5iwordEi(ptr noundef nonnull align 8 dereferenceable(216) %add.ptr, i32 noundef %3)
  %4 = load i64, ptr %call, align 8
  store i64 %4, ptr %indent, align 8
  store i64 0, ptr %i, align 8
  br label %for.cond

for.cond:                                         ; preds = %for.inc, %if.then2
  %5 = load i64, ptr %i, align 8
  %6 = load i64, ptr %indent, align 8
  %cmp5 = icmp slt i64 %5, %6
  br i1 %cmp5, label %for.body, label %for.end

for.body:                                         ; preds = %for.cond
  %d_os6 = getelementptr inbounds %"class.cvc5::internal::Cvc5ostream", ptr %this1, i32 0, i32 0
  %7 = load ptr, ptr %d_os6, align 8
  %call7 = call noundef nonnull align 8 dereferenceable(8) ptr @_ZStlsIcSt11char_traitsIcESaIcEERSt13basic_ostreamIT_T0_ES7_RKNSt7__cxx1112basic_stringIS4_S5_T1_EE(ptr noundef nonnull align 8 dereferenceable(8) %7, ptr noundef nonnull align 8 dereferenceable(32) @_ZN4cvc58internal11Cvc5ostream5s_tabB5cxx11E)
  %d_os8 = getelementptr inbounds %"class.cvc5::internal::Cvc5ostream", ptr %this1, i32 0, i32 0
  store ptr %call7, ptr %d_os8, align 8
  br label %for.inc

for.inc:                                          ; preds = %for.body
  %8 = load i64, ptr %i, align 8
  %inc = add nsw i64 %8, 1
  store i64 %inc, ptr %i, align 8
  br label %for.cond, !llvm.loop !4

for.end:                                          ; preds = %for.cond
  br label %if.end

if.end:                                           ; preds = %for.end, %if.then
  %d_os9 = getelementptr inbounds %"class.cvc5::internal::Cvc5ostream", ptr %this1, i32 0, i32 0
  %9 = load ptr, ptr %d_os9, align 8
  %10 = load ptr, ptr %t.addr, align 8
  %arraydecay = getelementptr inbounds [12 x i8], ptr %10, i64 0, i64 0
  %call10 = call noundef nonnull align 8 dereferenceable(8) ptr @_ZStlsISt11char_traitsIcEERSt13basic_ostreamIcT_ES5_PKc(ptr noundef nonnull align 8 dereferenceable(8) %9, ptr noundef %arraydecay)
  br label %if.end11

if.end11:                                         ; preds = %if.end, %entry
  ret ptr %this1
}

; Function Attrs: mustprogress uwtable
define linkonce_odr hidden noundef nonnull align 8 dereferenceable(24) ptr @_ZN4cvc58internal11Cvc5ostreamlsINS0_12NodeTemplateILb0EEEEERS1_RKT_(ptr noundef nonnull align 8 dereferenceable(24) %this, ptr noundef nonnull align 8 dereferenceable(8) %t) #5 comdat align 2 personality ptr @__gxx_personality_v0 {
entry:
  %this.addr = alloca ptr, align 8
  %t.addr = alloca ptr, align 8
  %indent = alloca i64, align 8
  %i = alloca i64, align 8
  %agg.tmp = alloca %"class.cvc5::internal::NodeTemplate.12", align 8
  %exn.slot = alloca ptr, align 8
  %ehselector.slot = alloca i32, align 4
  store ptr %this, ptr %this.addr, align 8
  store ptr %t, ptr %t.addr, align 8
  %this1 = load ptr, ptr %this.addr, align 8
  %d_os = getelementptr inbounds %"class.cvc5::internal::Cvc5ostream", ptr %this1, i32 0, i32 0
  %0 = load ptr, ptr %d_os, align 8
  %cmp = icmp ne ptr %0, null
  br i1 %cmp, label %if.then, label %if.end11

if.then:                                          ; preds = %entry
  %d_firstColumn = getelementptr inbounds %"class.cvc5::internal::Cvc5ostream", ptr %this1, i32 0, i32 1
  %1 = load i8, ptr %d_firstColumn, align 8
  %tobool = trunc i8 %1 to i1
  br i1 %tobool, label %if.then2, label %if.end

if.then2:                                         ; preds = %if.then
  %d_firstColumn3 = getelementptr inbounds %"class.cvc5::internal::Cvc5ostream", ptr %this1, i32 0, i32 1
  store i8 0, ptr %d_firstColumn3, align 8
  %d_os4 = getelementptr inbounds %"class.cvc5::internal::Cvc5ostream", ptr %this1, i32 0, i32 0
  %2 = load ptr, ptr %d_os4, align 8
  %vtable = load ptr, ptr %2, align 8
  %vbase.offset.ptr = getelementptr i8, ptr %vtable, i64 -24
  %vbase.offset = load i64, ptr %vbase.offset.ptr, align 8
  %add.ptr = getelementptr inbounds i8, ptr %2, i64 %vbase.offset
  %3 = load i32, ptr @_ZN4cvc58internal11Cvc5ostream16s_indentIosIndexE, align 4
  %call = call noundef nonnull align 8 dereferenceable(8) ptr @_ZNSt8ios_base5iwordEi(ptr noundef nonnull align 8 dereferenceable(216) %add.ptr, i32 noundef %3)
  %4 = load i64, ptr %call, align 8
  store i64 %4, ptr %indent, align 8
  store i64 0, ptr %i, align 8
  br label %for.cond

for.cond:                                         ; preds = %for.inc, %if.then2
  %5 = load i64, ptr %i, align 8
  %6 = load i64, ptr %indent, align 8
  %cmp5 = icmp slt i64 %5, %6
  br i1 %cmp5, label %for.body, label %for.end

for.body:                                         ; preds = %for.cond
  %d_os6 = getelementptr inbounds %"class.cvc5::internal::Cvc5ostream", ptr %this1, i32 0, i32 0
  %7 = load ptr, ptr %d_os6, align 8
  %call7 = call noundef nonnull align 8 dereferenceable(8) ptr @_ZStlsIcSt11char_traitsIcESaIcEERSt13basic_ostreamIT_T0_ES7_RKNSt7__cxx1112basic_stringIS4_S5_T1_EE(ptr noundef nonnull align 8 dereferenceable(8) %7, ptr noundef nonnull align 8 dereferenceable(32) @_ZN4cvc58internal11Cvc5ostream5s_tabB5cxx11E)
  %d_os8 = getelementptr inbounds %"class.cvc5::internal::Cvc5ostream", ptr %this1, i32 0, i32 0
  store ptr %call7, ptr %d_os8, align 8
  br label %for.inc

for.inc:                                          ; preds = %for.body
  %8 = load i64, ptr %i, align 8
  %inc = add nsw i64 %8, 1
  store i64 %inc, ptr %i, align 8
  br label %for.cond, !llvm.loop !6

for.end:                                          ; preds = %for.cond
  br label %if.end

if.end:                                           ; preds = %for.end, %if.then
  %d_os9 = getelementptr inbounds %"class.cvc5::internal::Cvc5ostream", ptr %this1, i32 0, i32 0
  %9 = load ptr, ptr %d_os9, align 8
  %10 = load ptr, ptr %t.addr, align 8
  call void @_ZN4cvc58internal12NodeTemplateILb0EEC2ERKS2_(ptr noundef nonnull align 8 dereferenceable(8) %agg.tmp, ptr noundef nonnull align 8 dereferenceable(8) %10)
  %call10 = invoke noundef nonnull align 8 dereferenceable(8) ptr @_ZN4cvc58internallsERSoNS0_12NodeTemplateILb0EEE(ptr noundef nonnull align 8 dereferenceable(8) %9, ptr noundef %agg.tmp)
          to label %invoke.cont unwind label %lpad

invoke.cont:                                      ; preds = %if.end
  call void @_ZN4cvc58internal12NodeTemplateILb0EED2Ev(ptr noundef nonnull align 8 dereferenceable(8) %agg.tmp) #3
  br label %if.end11

lpad:                                             ; preds = %if.end
  %11 = landingpad { ptr, i32 }
          cleanup
  %12 = extractvalue { ptr, i32 } %11, 0
  store ptr %12, ptr %exn.slot, align 8
  %13 = extractvalue { ptr, i32 } %11, 1
  store i32 %13, ptr %ehselector.slot, align 4
  call void @_ZN4cvc58internal12NodeTemplateILb0EED2Ev(ptr noundef nonnull align 8 dereferenceable(8) %agg.tmp) #3
  br label %eh.resume

if.end11:                                         ; preds = %invoke.cont, %entry
  ret ptr %this1

eh.resume:                                        ; preds = %lpad
  %exn = load ptr, ptr %exn.slot, align 8
  %sel = load i32, ptr %ehselector.slot, align 4
  %lpad.val = insertvalue { ptr, i32 } poison, ptr %exn, 0
  %lpad.val12 = insertvalue { ptr, i32 } %lpad.val, i32 %sel, 1
  resume { ptr, i32 } %lpad.val12
}

; Function Attrs: mustprogress uwtable
define linkonce_odr hidden noundef nonnull align 8 dereferenceable(24) ptr @_ZN4cvc58internal11Cvc5ostreamlsIA2_cEERS1_RKT_(ptr noundef nonnull align 8 dereferenceable(24) %this, ptr noundef nonnull align 1 dereferenceable(2) %t) #5 comdat align 2 {
entry:
  %this.addr = alloca ptr, align 8
  %t.addr = alloca ptr, align 8
  %indent = alloca i64, align 8
  %i = alloca i64, align 8
  store ptr %this, ptr %this.addr, align 8
  store ptr %t, ptr %t.addr, align 8
  %this1 = load ptr, ptr %this.addr, align 8
  %d_os = getelementptr inbounds %"class.cvc5::internal::Cvc5ostream", ptr %this1, i32 0, i32 0
  %0 = load ptr, ptr %d_os, align 8
  %cmp = icmp ne ptr %0, null
  br i1 %cmp, label %if.then, label %if.end11

if.then:                                          ; preds = %entry
  %d_firstColumn = getelementptr inbounds %"class.cvc5::internal::Cvc5ostream", ptr %this1, i32 0, i32 1
  %1 = load i8, ptr %d_firstColumn, align 8
  %tobool = trunc i8 %1 to i1
  br i1 %tobool, label %if.then2, label %if.end

if.then2:                                         ; preds = %if.then
  %d_firstColumn3 = getelementptr inbounds %"class.cvc5::internal::Cvc5ostream", ptr %this1, i32 0, i32 1
  store i8 0, ptr %d_firstColumn3, align 8
  %d_os4 = getelementptr inbounds %"class.cvc5::internal::Cvc5ostream", ptr %this1, i32 0, i32 0
  %2 = load ptr, ptr %d_os4, align 8
  %vtable = load ptr, ptr %2, align 8
  %vbase.offset.ptr = getelementptr i8, ptr %vtable, i64 -24
  %vbase.offset = load i64, ptr %vbase.offset.ptr, align 8
  %add.ptr = getelementptr inbounds i8, ptr %2, i64 %vbase.offset
  %3 = load i32, ptr @_ZN4cvc58internal11Cvc5ostream16s_indentIosIndexE, align 4
  %call = call noundef nonnull align 8 dereferenceable(8) ptr @_ZNSt8ios_base5iwordEi(ptr noundef nonnull align 8 dereferenceable(216) %add.ptr, i32 noundef %3)
  %4 = load i64, ptr %call, align 8
  store i64 %4, ptr %indent, align 8
  store i64 0, ptr %i, align 8
  br label %for.cond

for.cond:                                         ; preds = %for.inc, %if.then2
  %5 = load i64, ptr %i, align 8
  %6 = load i64, ptr %indent, align 8
  %cmp5 = icmp slt i64 %5, %6
  br i1 %cmp5, label %for.body, label %for.end

for.body:                                         ; preds = %for.cond
  %d_os6 = getelementptr inbounds %"class.cvc5::internal::Cvc5ostream", ptr %this1, i32 0, i32 0
  %7 = load ptr, ptr %d_os6, align 8
  %call7 = call noundef nonnull align 8 dereferenceable(8) ptr @_ZStlsIcSt11char_traitsIcESaIcEERSt13basic_ostreamIT_T0_ES7_RKNSt7__cxx1112basic_stringIS4_S5_T1_EE(ptr noundef nonnull align 8 dereferenceable(8) %7, ptr noundef nonnull align 8 dereferenceable(32) @_ZN4cvc58internal11Cvc5ostream5s_tabB5cxx11E)
  %d_os8 = getelementptr inbounds %"class.cvc5::internal::Cvc5ostream", ptr %this1, i32 0, i32 0
  store ptr %call7, ptr %d_os8, align 8
  br label %for.inc

for.inc:                                          ; preds = %for.body
  %8 = load i64, ptr %i, align 8
  %inc = add nsw i64 %8, 1
  store i64 %inc, ptr %i, align 8
  br label %for.cond, !llvm.loop !7

for.end:                                          ; preds = %for.cond
  br label %if.end

if.end:                                           ; preds = %for.end, %if.then
  %d_os9 = getelementptr inbounds %"class.cvc5::internal::Cvc5ostream", ptr %this1, i32 0, i32 0
  %9 = load ptr, ptr %d_os9, align 8
  %10 = load ptr, ptr %t.addr, align 8
  %arraydecay = getelementptr inbounds [2 x i8], ptr %10, i64 0, i64 0
  %call10 = call noundef nonnull align 8 dereferenceable(8) ptr @_ZStlsISt11char_traitsIcEERSt13basic_ostreamIcT_ES5_PKc(ptr noundef nonnull align 8 dereferenceable(8) %9, ptr noundef %arraydecay)
  br label %if.end11

if.end11:                                         ; preds = %if.end, %entry
  ret ptr %this1
}

; Function Attrs: mustprogress uwtable
define linkonce_odr hidden noundef nonnull align 8 dereferenceable(24) ptr @_ZN4cvc58internal11Cvc5ostreamlsEPFRSoS2_E(ptr noundef nonnull align 8 dereferenceable(24) %this, ptr noundef %pf) #5 comdat align 2 {
entry:
  %this.addr = alloca ptr, align 8
  %pf.addr = alloca ptr, align 8
  store ptr %this, ptr %this.addr, align 8
  store ptr %pf, ptr %pf.addr, align 8
  %this1 = load ptr, ptr %this.addr, align 8
  %d_os = getelementptr inbounds %"class.cvc5::internal::Cvc5ostream", ptr %this1, i32 0, i32 0
  %0 = load ptr, ptr %d_os, align 8
  %cmp = icmp ne ptr %0, null
  br i1 %cmp, label %if.then, label %if.end6

if.then:                                          ; preds = %entry
  %d_os2 = getelementptr inbounds %"class.cvc5::internal::Cvc5ostream", ptr %this1, i32 0, i32 0
  %1 = load ptr, ptr %d_os2, align 8
  %2 = load ptr, ptr %pf.addr, align 8
  %call = call noundef nonnull align 8 dereferenceable(8) ptr @_ZNSolsEPFRSoS_E(ptr noundef nonnull align 8 dereferenceable(8) %1, ptr noundef %2)
  %d_os3 = getelementptr inbounds %"class.cvc5::internal::Cvc5ostream", ptr %this1, i32 0, i32 0
  store ptr %call, ptr %d_os3, align 8
  %3 = load ptr, ptr %pf.addr, align 8
  %d_endl = getelementptr inbounds %"class.cvc5::internal::Cvc5ostream", ptr %this1, i32 0, i32 2
  %4 = load ptr, ptr %d_endl, align 8
  %cmp4 = icmp eq ptr %3, %4
  br i1 %cmp4, label %if.then5, label %if.end

if.then5:                                         ; preds = %if.then
  %d_firstColumn = getelementptr inbounds %"class.cvc5::internal::Cvc5ostream", ptr %this1, i32 0, i32 1
  store i8 1, ptr %d_firstColumn, align 8
  br label %if.end

if.end:                                           ; preds = %if.then5, %if.then
  br label %if.end6

if.end6:                                          ; preds = %if.end, %entry
  ret ptr %this1
}

declare noundef nonnull align 8 dereferenceable(8) ptr @_ZSt4endlIcSt11char_traitsIcEERSt13basic_ostreamIT_T0_ES6_(ptr noundef nonnull align 8 dereferenceable(8)) #1

; Function Attrs: nocallback nofree nounwind willreturn memory(argmem: readwrite)
declare void @llvm.memcpy.p0.p0.i64(ptr noalias nocapture writeonly, ptr noalias nocapture readonly, i64, i1 immarg) #6

; Function Attrs: mustprogress uwtable
define linkonce_odr hidden noundef zeroext i1 @_ZN4cvc58internal6theory5arith8rewriter6isAtomENS0_12NodeTemplateILb0EEE(ptr noundef %n) #5 comdat personality ptr @__gxx_personality_v0 {
entry:
  %retval = alloca i1, align 1
  %n.indirect_addr = alloca ptr, align 8
  %ref.tmp = alloca %"class.cvc5::internal::FatalStream", align 1
  %exn.slot = alloca ptr, align 8
  %ehselector.slot = alloca i32, align 4
  store ptr %n, ptr %n.indirect_addr, align 8
  %call = call noundef i32 @_ZNK4cvc58internal12NodeTemplateILb0EE7getKindEv(ptr noundef nonnull align 8 dereferenceable(8) %n)
  switch i32 %call, label %sw.default [
    i32 70, label %sw.bb
    i32 71, label %sw.bb
    i32 5, label %sw.bb
    i32 73, label %sw.bb
    i32 72, label %sw.bb
    i32 76, label %sw.bb
    i32 48, label %sw.bb
    i32 6, label %sw.bb1
  ]

sw.bb:                                            ; preds = %entry, %entry, %entry, %entry, %entry, %entry, %entry
  store i1 true, ptr %retval, align 1
  br label %return

sw.bb1:                                           ; preds = %entry
  call void @_ZN4cvc58internal11FatalStreamC1EPKcS3_i(ptr noundef nonnull align 1 dereferenceable(1) %ref.tmp, ptr noundef @__PRETTY_FUNCTION__._ZN4cvc58internal6theory5arith8rewriter6isAtomENS0_12NodeTemplateILb0EEE, ptr noundef @.str.19, i32 noundef 49)
  %call2 = invoke noundef nonnull align 8 dereferenceable(8) ptr @_ZN4cvc58internal11FatalStream6streamEv(ptr noundef nonnull align 1 dereferenceable(1) %ref.tmp)
          to label %invoke.cont unwind label %lpad

invoke.cont:                                      ; preds = %sw.bb1
  %call4 = invoke noundef nonnull align 8 dereferenceable(8) ptr @_ZStlsISt11char_traitsIcEERSt13basic_ostreamIcT_ES5_PKc(ptr noundef nonnull align 8 dereferenceable(8) %call2, ptr noundef @.str.12)
          to label %invoke.cont3 unwind label %lpad

invoke.cont3:                                     ; preds = %invoke.cont
  call void @_ZN4cvc58internal11FatalStreamD1Ev(ptr noundef nonnull align 1 dereferenceable(1) %ref.tmp) #16
  unreachable

lpad:                                             ; preds = %invoke.cont, %sw.bb1
  %0 = landingpad { ptr, i32 }
          cleanup
  %1 = extractvalue { ptr, i32 } %0, 0
  store ptr %1, ptr %exn.slot, align 8
  %2 = extractvalue { ptr, i32 } %0, 1
  store i32 %2, ptr %ehselector.slot, align 4
  call void @_ZN4cvc58internal11FatalStreamD1Ev(ptr noundef nonnull align 1 dereferenceable(1) %ref.tmp) #16
  unreachable

3:                                                ; No predecessors!
  br label %eh.resume

sw.default:                                       ; preds = %entry
  store i1 false, ptr %retval, align 1
  br label %return

return:                                           ; preds = %sw.default, %sw.bb
  %4 = load i1, ptr %retval, align 1
  ret i1 %4

eh.resume:                                        ; preds = %3
  %exn = load ptr, ptr %exn.slot, align 8
  %sel = load i32, ptr %ehselector.slot, align 4
  %lpad.val = insertvalue { ptr, i32 } poison, ptr %exn, 0
  %lpad.val5 = insertvalue { ptr, i32 } %lpad.val, i32 %sel, 1
  resume { ptr, i32 } %lpad.val5
}

; Function Attrs: mustprogress nounwind uwtable
define linkonce_odr hidden void @_ZN4cvc58internal12NodeTemplateILb0EEC2ERKS2_(ptr noundef nonnull align 8 dereferenceable(8) %this, ptr noundef nonnull align 8 dereferenceable(8) %e) unnamed_addr #4 comdat align 2 {
entry:
  %this.addr = alloca ptr, align 8
  %e.addr = alloca ptr, align 8
  store ptr %this, ptr %this.addr, align 8
  store ptr %e, ptr %e.addr, align 8
  %this1 = load ptr, ptr %this.addr, align 8
  %0 = load ptr, ptr %e.addr, align 8
  %d_nv = getelementptr inbounds %"class.cvc5::internal::NodeTemplate.12", ptr %0, i32 0, i32 0
  %1 = load ptr, ptr %d_nv, align 8
  %d_nv2 = getelementptr inbounds %"class.cvc5::internal::NodeTemplate.12", ptr %this1, i32 0, i32 0
  store ptr %1, ptr %d_nv2, align 8
  ret void
}

declare i32 @__gxx_personality_v0(...)

; Function Attrs: mustprogress nounwind uwtable
define linkonce_odr hidden void @_ZN4cvc58internal12NodeTemplateILb0EED2Ev(ptr noundef nonnull align 8 dereferenceable(8) %this) unnamed_addr #4 comdat align 2 {
entry:
  %this.addr = alloca ptr, align 8
  store ptr %this, ptr %this.addr, align 8
  ret void
}

; Function Attrs: mustprogress uwtable
define hidden void @_ZN4cvc58internal6theory5arith13ArithRewriter14preRewriteAtomENS0_12NodeTemplateILb0EEE(ptr noalias sret(%"struct.cvc5::internal::theory::RewriteResponse") align 8 %agg.result, ptr noundef %atom) #5 align 2 personality ptr @__gxx_personality_v0 {
entry:
  %result.ptr = alloca ptr, align 8
  %atom.indirect_addr = alloca ptr, align 8
  %kind = alloca i32, align 4
  %response = alloca %"class.std::optional", align 1
  %agg.tmp = alloca %"class.cvc5::internal::NodeTemplate.12", align 8
  %agg.tmp2 = alloca %"class.cvc5::internal::NodeTemplate.12", align 8
  %exn.slot = alloca ptr, align 8
  %ehselector.slot = alloca i32, align 4
  %agg.tmp10 = alloca %"class.cvc5::internal::NodeTemplate", align 8
  %agg.tmp16 = alloca %"class.cvc5::internal::NodeTemplate", align 8
  %agg.tmp17 = alloca %"class.cvc5::internal::NodeTemplate", align 8
  %ref.tmp = alloca %"class.cvc5::internal::NodeTemplate.12", align 8
  %agg.tmp20 = alloca %"class.cvc5::internal::NodeTemplate", align 8
  %ref.tmp21 = alloca %"class.cvc5::internal::NodeTemplate.12", align 8
  %agg.tmp36 = alloca %"class.cvc5::internal::NodeTemplate", align 8
  %agg.tmp37 = alloca %"class.cvc5::internal::NodeTemplate", align 8
  %ref.tmp38 = alloca %"class.cvc5::internal::NodeTemplate.12", align 8
  %agg.tmp41 = alloca %"class.cvc5::internal::NodeTemplate", align 8
  %ref.tmp42 = alloca %"class.cvc5::internal::NodeTemplate.12", align 8
  %ref.tmp57 = alloca %"class.cvc5::internal::TypeNode", align 8
  %ref.tmp58 = alloca %"class.cvc5::internal::NodeTemplate.12", align 8
  %agg.tmp67 = alloca %"class.cvc5::internal::NodeTemplate", align 8
  %ref.tmp73 = alloca %"class.cvc5::internal::NodeTemplate", align 8
  %agg.tmp81 = alloca %"class.cvc5::internal::NodeTemplate", align 8
  %agg.tmp86 = alloca %"class.cvc5::internal::NodeTemplate", align 8
  store ptr %agg.result, ptr %result.ptr, align 8
  store ptr %atom, ptr %atom.indirect_addr, align 8
  %call = call noundef i32 @_ZNK4cvc58internal12NodeTemplateILb0EE7getKindEv(ptr noundef nonnull align 8 dereferenceable(8) %atom)
  store i32 %call, ptr %kind, align 4
  %call1 = call noundef i64 @_ZNK4cvc58internal12NodeTemplateILb0EE14getNumChildrenEv(ptr noundef nonnull align 8 dereferenceable(8) %atom)
  %cmp = icmp eq i64 %call1, 2
  br i1 %cmp, label %if.then, label %if.end15

if.then:                                          ; preds = %entry
  %0 = load i32, ptr %kind, align 4
  call void @_ZNK4cvc58internal12NodeTemplateILb0EEixEi(ptr sret(%"class.cvc5::internal::NodeTemplate.12") align 8 %agg.tmp, ptr noundef nonnull align 8 dereferenceable(8) %atom, i32 noundef 0)
  invoke void @_ZNK4cvc58internal12NodeTemplateILb0EEixEi(ptr sret(%"class.cvc5::internal::NodeTemplate.12") align 8 %agg.tmp2, ptr noundef nonnull align 8 dereferenceable(8) %atom, i32 noundef 1)
          to label %invoke.cont unwind label %lpad

invoke.cont:                                      ; preds = %if.then
  %call5 = invoke i16 @_ZN4cvc58internal6theory5arith8rewriter28tryEvaluateRelationReflexiveENS0_4kind6Kind_tENS0_12NodeTemplateILb0EEES7_(i32 noundef %0, ptr noundef %agg.tmp, ptr noundef %agg.tmp2)
          to label %invoke.cont4 unwind label %lpad3

invoke.cont4:                                     ; preds = %invoke.cont
  %coerce.dive = getelementptr inbounds %"class.std::optional", ptr %response, i32 0, i32 0
  %coerce.dive6 = getelementptr inbounds %"struct.std::_Optional_base", ptr %coerce.dive, i32 0, i32 0
  %coerce.dive7 = getelementptr inbounds %"struct.std::_Optional_payload", ptr %coerce.dive6, i32 0, i32 0
  store i16 %call5, ptr %coerce.dive7, align 1
  call void @_ZN4cvc58internal12NodeTemplateILb0EED2Ev(ptr noundef nonnull align 8 dereferenceable(8) %agg.tmp2) #3
  call void @_ZN4cvc58internal12NodeTemplateILb0EED2Ev(ptr noundef nonnull align 8 dereferenceable(8) %agg.tmp) #3
  %call8 = call noundef zeroext i1 @_ZNKSt8optionalIbEcvbEv(ptr noundef nonnull align 1 dereferenceable(2) %response) #3
  br i1 %call8, label %if.then9, label %if.end

if.then9:                                         ; preds = %invoke.cont4
  %call11 = call noundef nonnull align 1 dereferenceable(1) ptr @_ZNRSt8optionalIbEdeEv(ptr noundef nonnull align 1 dereferenceable(2) %response) #3
  %1 = load i8, ptr %call11, align 1
  %tobool = trunc i8 %1 to i1
  call void @_ZN4cvc58internal6theory5arith8rewriter7mkConstEb(ptr sret(%"class.cvc5::internal::NodeTemplate") align 8 %agg.tmp10, i1 noundef zeroext %tobool)
  invoke void @_ZN4cvc58internal6theory15RewriteResponseC2ENS1_13RewriteStatusENS0_12NodeTemplateILb1EEE(ptr noundef nonnull align 8 dereferenceable(16) %agg.result, i32 noundef 0, ptr noundef %agg.tmp10)
          to label %invoke.cont13 unwind label %lpad12

invoke.cont13:                                    ; preds = %if.then9
  call void @_ZN4cvc58internal12NodeTemplateILb1EED2Ev(ptr noundef nonnull align 8 dereferenceable(8) %agg.tmp10) #3
  br label %return

lpad:                                             ; preds = %if.then
  %2 = landingpad { ptr, i32 }
          cleanup
  %3 = extractvalue { ptr, i32 } %2, 0
  store ptr %3, ptr %exn.slot, align 8
  %4 = extractvalue { ptr, i32 } %2, 1
  store i32 %4, ptr %ehselector.slot, align 4
  br label %ehcleanup

lpad3:                                            ; preds = %invoke.cont
  %5 = landingpad { ptr, i32 }
          cleanup
  %6 = extractvalue { ptr, i32 } %5, 0
  store ptr %6, ptr %exn.slot, align 8
  %7 = extractvalue { ptr, i32 } %5, 1
  store i32 %7, ptr %ehselector.slot, align 4
  call void @_ZN4cvc58internal12NodeTemplateILb0EED2Ev(ptr noundef nonnull align 8 dereferenceable(8) %agg.tmp2) #3
  br label %ehcleanup

ehcleanup:                                        ; preds = %lpad3, %lpad
  call void @_ZN4cvc58internal12NodeTemplateILb0EED2Ev(ptr noundef nonnull align 8 dereferenceable(8) %agg.tmp) #3
  br label %eh.resume

lpad12:                                           ; preds = %if.then9
  %8 = landingpad { ptr, i32 }
          cleanup
  %9 = extractvalue { ptr, i32 } %8, 0
  store ptr %9, ptr %exn.slot, align 8
  %10 = extractvalue { ptr, i32 } %8, 1
  store i32 %10, ptr %ehselector.slot, align 4
  call void @_ZN4cvc58internal12NodeTemplateILb1EED2Ev(ptr noundef nonnull align 8 dereferenceable(8) %agg.tmp10) #3
  br label %eh.resume

if.end:                                           ; preds = %invoke.cont4
  br label %if.end15

if.end15:                                         ; preds = %if.end, %entry
  %11 = load i32, ptr %kind, align 4
  switch i32 %11, label %sw.default [
    i32 72, label %sw.bb
    i32 70, label %sw.bb35
    i32 76, label %sw.bb56
    i32 48, label %sw.bb72
  ]

sw.bb:                                            ; preds = %if.end15
  call void @_ZNK4cvc58internal12NodeTemplateILb0EEixEi(ptr sret(%"class.cvc5::internal::NodeTemplate.12") align 8 %ref.tmp, ptr noundef nonnull align 8 dereferenceable(8) %atom, i32 noundef 0)
  invoke void @_ZN4cvc58internal12NodeTemplateILb1EEC2ERKNS1_ILb0EEE(ptr noundef nonnull align 8 dereferenceable(8) %agg.tmp17, ptr noundef nonnull align 8 dereferenceable(8) %ref.tmp)
          to label %invoke.cont19 unwind label %lpad18

invoke.cont19:                                    ; preds = %sw.bb
  invoke void @_ZNK4cvc58internal12NodeTemplateILb0EEixEi(ptr sret(%"class.cvc5::internal::NodeTemplate.12") align 8 %ref.tmp21, ptr noundef nonnull align 8 dereferenceable(8) %atom, i32 noundef 1)
          to label %invoke.cont23 unwind label %lpad22

invoke.cont23:                                    ; preds = %invoke.cont19
  invoke void @_ZN4cvc58internal12NodeTemplateILb1EEC2ERKNS1_ILb0EEE(ptr noundef nonnull align 8 dereferenceable(8) %agg.tmp20, ptr noundef nonnull align 8 dereferenceable(8) %ref.tmp21)
          to label %invoke.cont25 unwind label %lpad24

invoke.cont25:                                    ; preds = %invoke.cont23
  invoke void @_ZN4cvc58internal6theory5arith8rewriter13buildRelationENS0_4kind6Kind_tENS0_12NodeTemplateILb1EEES7_b(ptr sret(%"class.cvc5::internal::NodeTemplate") align 8 %agg.tmp16, i32 noundef 71, ptr noundef %agg.tmp17, ptr noundef %agg.tmp20, i1 noundef zeroext true)
          to label %invoke.cont27 unwind label %lpad26

invoke.cont27:                                    ; preds = %invoke.cont25
  invoke void @_ZN4cvc58internal6theory15RewriteResponseC2ENS1_13RewriteStatusENS0_12NodeTemplateILb1EEE(ptr noundef nonnull align 8 dereferenceable(16) %agg.result, i32 noundef 0, ptr noundef %agg.tmp16)
          to label %invoke.cont29 unwind label %lpad28

invoke.cont29:                                    ; preds = %invoke.cont27
  call void @_ZN4cvc58internal12NodeTemplateILb1EED2Ev(ptr noundef nonnull align 8 dereferenceable(8) %agg.tmp16) #3
  call void @_ZN4cvc58internal12NodeTemplateILb1EED2Ev(ptr noundef nonnull align 8 dereferenceable(8) %agg.tmp20) #3
  call void @_ZN4cvc58internal12NodeTemplateILb0EED2Ev(ptr noundef nonnull align 8 dereferenceable(8) %ref.tmp21) #3
  call void @_ZN4cvc58internal12NodeTemplateILb1EED2Ev(ptr noundef nonnull align 8 dereferenceable(8) %agg.tmp17) #3
  call void @_ZN4cvc58internal12NodeTemplateILb0EED2Ev(ptr noundef nonnull align 8 dereferenceable(8) %ref.tmp) #3
  br label %return

lpad18:                                           ; preds = %sw.bb
  %12 = landingpad { ptr, i32 }
          cleanup
  %13 = extractvalue { ptr, i32 } %12, 0
  store ptr %13, ptr %exn.slot, align 8
  %14 = extractvalue { ptr, i32 } %12, 1
  store i32 %14, ptr %ehselector.slot, align 4
  br label %ehcleanup34

lpad22:                                           ; preds = %invoke.cont19
  %15 = landingpad { ptr, i32 }
          cleanup
  %16 = extractvalue { ptr, i32 } %15, 0
  store ptr %16, ptr %exn.slot, align 8
  %17 = extractvalue { ptr, i32 } %15, 1
  store i32 %17, ptr %ehselector.slot, align 4
  br label %ehcleanup33

lpad24:                                           ; preds = %invoke.cont23
  %18 = landingpad { ptr, i32 }
          cleanup
  %19 = extractvalue { ptr, i32 } %18, 0
  store ptr %19, ptr %exn.slot, align 8
  %20 = extractvalue { ptr, i32 } %18, 1
  store i32 %20, ptr %ehselector.slot, align 4
  br label %ehcleanup32

lpad26:                                           ; preds = %invoke.cont25
  %21 = landingpad { ptr, i32 }
          cleanup
  %22 = extractvalue { ptr, i32 } %21, 0
  store ptr %22, ptr %exn.slot, align 8
  %23 = extractvalue { ptr, i32 } %21, 1
  store i32 %23, ptr %ehselector.slot, align 4
  br label %ehcleanup31

lpad28:                                           ; preds = %invoke.cont27
  %24 = landingpad { ptr, i32 }
          cleanup
  %25 = extractvalue { ptr, i32 } %24, 0
  store ptr %25, ptr %exn.slot, align 8
  %26 = extractvalue { ptr, i32 } %24, 1
  store i32 %26, ptr %ehselector.slot, align 4
  call void @_ZN4cvc58internal12NodeTemplateILb1EED2Ev(ptr noundef nonnull align 8 dereferenceable(8) %agg.tmp16) #3
  br label %ehcleanup31

ehcleanup31:                                      ; preds = %lpad28, %lpad26
  call void @_ZN4cvc58internal12NodeTemplateILb1EED2Ev(ptr noundef nonnull align 8 dereferenceable(8) %agg.tmp20) #3
  br label %ehcleanup32

ehcleanup32:                                      ; preds = %ehcleanup31, %lpad24
  call void @_ZN4cvc58internal12NodeTemplateILb0EED2Ev(ptr noundef nonnull align 8 dereferenceable(8) %ref.tmp21) #3
  br label %ehcleanup33

ehcleanup33:                                      ; preds = %ehcleanup32, %lpad22
  call void @_ZN4cvc58internal12NodeTemplateILb1EED2Ev(ptr noundef nonnull align 8 dereferenceable(8) %agg.tmp17) #3
  br label %ehcleanup34

ehcleanup34:                                      ; preds = %ehcleanup33, %lpad18
  call void @_ZN4cvc58internal12NodeTemplateILb0EED2Ev(ptr noundef nonnull align 8 dereferenceable(8) %ref.tmp) #3
  br label %eh.resume

sw.bb35:                                          ; preds = %if.end15
  call void @_ZNK4cvc58internal12NodeTemplateILb0EEixEi(ptr sret(%"class.cvc5::internal::NodeTemplate.12") align 8 %ref.tmp38, ptr noundef nonnull align 8 dereferenceable(8) %atom, i32 noundef 0)
  invoke void @_ZN4cvc58internal12NodeTemplateILb1EEC2ERKNS1_ILb0EEE(ptr noundef nonnull align 8 dereferenceable(8) %agg.tmp37, ptr noundef nonnull align 8 dereferenceable(8) %ref.tmp38)
          to label %invoke.cont40 unwind label %lpad39

invoke.cont40:                                    ; preds = %sw.bb35
  invoke void @_ZNK4cvc58internal12NodeTemplateILb0EEixEi(ptr sret(%"class.cvc5::internal::NodeTemplate.12") align 8 %ref.tmp42, ptr noundef nonnull align 8 dereferenceable(8) %atom, i32 noundef 1)
          to label %invoke.cont44 unwind label %lpad43

invoke.cont44:                                    ; preds = %invoke.cont40
  invoke void @_ZN4cvc58internal12NodeTemplateILb1EEC2ERKNS1_ILb0EEE(ptr noundef nonnull align 8 dereferenceable(8) %agg.tmp41, ptr noundef nonnull align 8 dereferenceable(8) %ref.tmp42)
          to label %invoke.cont46 unwind label %lpad45

invoke.cont46:                                    ; preds = %invoke.cont44
  invoke void @_ZN4cvc58internal6theory5arith8rewriter13buildRelationENS0_4kind6Kind_tENS0_12NodeTemplateILb1EEES7_b(ptr sret(%"class.cvc5::internal::NodeTemplate") align 8 %agg.tmp36, i32 noundef 73, ptr noundef %agg.tmp37, ptr noundef %agg.tmp41, i1 noundef zeroext true)
          to label %invoke.cont48 unwind label %lpad47

invoke.cont48:                                    ; preds = %invoke.cont46
  invoke void @_ZN4cvc58internal6theory15RewriteResponseC2ENS1_13RewriteStatusENS0_12NodeTemplateILb1EEE(ptr noundef nonnull align 8 dereferenceable(16) %agg.result, i32 noundef 0, ptr noundef %agg.tmp36)
          to label %invoke.cont50 unwind label %lpad49

invoke.cont50:                                    ; preds = %invoke.cont48
  call void @_ZN4cvc58internal12NodeTemplateILb1EED2Ev(ptr noundef nonnull align 8 dereferenceable(8) %agg.tmp36) #3
  call void @_ZN4cvc58internal12NodeTemplateILb1EED2Ev(ptr noundef nonnull align 8 dereferenceable(8) %agg.tmp41) #3
  call void @_ZN4cvc58internal12NodeTemplateILb0EED2Ev(ptr noundef nonnull align 8 dereferenceable(8) %ref.tmp42) #3
  call void @_ZN4cvc58internal12NodeTemplateILb1EED2Ev(ptr noundef nonnull align 8 dereferenceable(8) %agg.tmp37) #3
  call void @_ZN4cvc58internal12NodeTemplateILb0EED2Ev(ptr noundef nonnull align 8 dereferenceable(8) %ref.tmp38) #3
  br label %return

lpad39:                                           ; preds = %sw.bb35
  %27 = landingpad { ptr, i32 }
          cleanup
  %28 = extractvalue { ptr, i32 } %27, 0
  store ptr %28, ptr %exn.slot, align 8
  %29 = extractvalue { ptr, i32 } %27, 1
  store i32 %29, ptr %ehselector.slot, align 4
  br label %ehcleanup55

lpad43:                                           ; preds = %invoke.cont40
  %30 = landingpad { ptr, i32 }
          cleanup
  %31 = extractvalue { ptr, i32 } %30, 0
  store ptr %31, ptr %exn.slot, align 8
  %32 = extractvalue { ptr, i32 } %30, 1
  store i32 %32, ptr %ehselector.slot, align 4
  br label %ehcleanup54

lpad45:                                           ; preds = %invoke.cont44
  %33 = landingpad { ptr, i32 }
          cleanup
  %34 = extractvalue { ptr, i32 } %33, 0
  store ptr %34, ptr %exn.slot, align 8
  %35 = extractvalue { ptr, i32 } %33, 1
  store i32 %35, ptr %ehselector.slot, align 4
  br label %ehcleanup53

lpad47:                                           ; preds = %invoke.cont46
  %36 = landingpad { ptr, i32 }
          cleanup
  %37 = extractvalue { ptr, i32 } %36, 0
  store ptr %37, ptr %exn.slot, align 8
  %38 = extractvalue { ptr, i32 } %36, 1
  store i32 %38, ptr %ehselector.slot, align 4
  br label %ehcleanup52

lpad49:                                           ; preds = %invoke.cont48
  %39 = landingpad { ptr, i32 }
          cleanup
  %40 = extractvalue { ptr, i32 } %39, 0
  store ptr %40, ptr %exn.slot, align 8
  %41 = extractvalue { ptr, i32 } %39, 1
  store i32 %41, ptr %ehselector.slot, align 4
  call void @_ZN4cvc58internal12NodeTemplateILb1EED2Ev(ptr noundef nonnull align 8 dereferenceable(8) %agg.tmp36) #3
  br label %ehcleanup52

ehcleanup52:                                      ; preds = %lpad49, %lpad47
  call void @_ZN4cvc58internal12NodeTemplateILb1EED2Ev(ptr noundef nonnull align 8 dereferenceable(8) %agg.tmp41) #3
  br label %ehcleanup53

ehcleanup53:                                      ; preds = %ehcleanup52, %lpad45
  call void @_ZN4cvc58internal12NodeTemplateILb0EED2Ev(ptr noundef nonnull align 8 dereferenceable(8) %ref.tmp42) #3
  br label %ehcleanup54

ehcleanup54:                                      ; preds = %ehcleanup53, %lpad43
  call void @_ZN4cvc58internal12NodeTemplateILb1EED2Ev(ptr noundef nonnull align 8 dereferenceable(8) %agg.tmp37) #3
  br label %ehcleanup55

ehcleanup55:                                      ; preds = %ehcleanup54, %lpad39
  call void @_ZN4cvc58internal12NodeTemplateILb0EED2Ev(ptr noundef nonnull align 8 dereferenceable(8) %ref.tmp38) #3
  br label %eh.resume

sw.bb56:                                          ; preds = %if.end15
  call void @_ZNK4cvc58internal12NodeTemplateILb0EEixEi(ptr sret(%"class.cvc5::internal::NodeTemplate.12") align 8 %ref.tmp58, ptr noundef nonnull align 8 dereferenceable(8) %atom, i32 noundef 0)
  invoke void @_ZNK4cvc58internal12NodeTemplateILb0EE7getTypeEb(ptr sret(%"class.cvc5::internal::TypeNode") align 8 %ref.tmp57, ptr noundef nonnull align 8 dereferenceable(8) %ref.tmp58, i1 noundef zeroext false)
          to label %invoke.cont60 unwind label %lpad59

invoke.cont60:                                    ; preds = %sw.bb56
  %call63 = invoke noundef zeroext i1 @_ZNK4cvc58internal8TypeNode9isIntegerEv(ptr noundef nonnull align 8 dereferenceable(8) %ref.tmp57)
          to label %invoke.cont62 unwind label %lpad61

invoke.cont62:                                    ; preds = %invoke.cont60
  call void @_ZN4cvc58internal8TypeNodeD2Ev(ptr noundef nonnull align 8 dereferenceable(8) %ref.tmp57) #3
  call void @_ZN4cvc58internal12NodeTemplateILb0EED2Ev(ptr noundef nonnull align 8 dereferenceable(8) %ref.tmp58) #3
  br i1 %call63, label %if.then66, label %if.end71

if.then66:                                        ; preds = %invoke.cont62
  call void @_ZN4cvc58internal6theory5arith8rewriter7mkConstEb(ptr sret(%"class.cvc5::internal::NodeTemplate") align 8 %agg.tmp67, i1 noundef zeroext true)
  invoke void @_ZN4cvc58internal6theory15RewriteResponseC2ENS1_13RewriteStatusENS0_12NodeTemplateILb1EEE(ptr noundef nonnull align 8 dereferenceable(16) %agg.result, i32 noundef 0, ptr noundef %agg.tmp67)
          to label %invoke.cont69 unwind label %lpad68

invoke.cont69:                                    ; preds = %if.then66
  call void @_ZN4cvc58internal12NodeTemplateILb1EED2Ev(ptr noundef nonnull align 8 dereferenceable(8) %agg.tmp67) #3
  br label %return

lpad59:                                           ; preds = %sw.bb56
  %42 = landingpad { ptr, i32 }
          cleanup
  %43 = extractvalue { ptr, i32 } %42, 0
  store ptr %43, ptr %exn.slot, align 8
  %44 = extractvalue { ptr, i32 } %42, 1
  store i32 %44, ptr %ehselector.slot, align 4
  br label %ehcleanup65

lpad61:                                           ; preds = %invoke.cont60
  %45 = landingpad { ptr, i32 }
          cleanup
  %46 = extractvalue { ptr, i32 } %45, 0
  store ptr %46, ptr %exn.slot, align 8
  %47 = extractvalue { ptr, i32 } %45, 1
  store i32 %47, ptr %ehselector.slot, align 4
  call void @_ZN4cvc58internal8TypeNodeD2Ev(ptr noundef nonnull align 8 dereferenceable(8) %ref.tmp57) #3
  br label %ehcleanup65

ehcleanup65:                                      ; preds = %lpad61, %lpad59
  call void @_ZN4cvc58internal12NodeTemplateILb0EED2Ev(ptr noundef nonnull align 8 dereferenceable(8) %ref.tmp58) #3
  br label %eh.resume

lpad68:                                           ; preds = %if.then66
  %48 = landingpad { ptr, i32 }
          cleanup
  %49 = extractvalue { ptr, i32 } %48, 0
  store ptr %49, ptr %exn.slot, align 8
  %50 = extractvalue { ptr, i32 } %48, 1
  store i32 %50, ptr %ehselector.slot, align 4
  call void @_ZN4cvc58internal12NodeTemplateILb1EED2Ev(ptr noundef nonnull align 8 dereferenceable(8) %agg.tmp67) #3
  br label %eh.resume

if.end71:                                         ; preds = %invoke.cont62
  br label %sw.epilog

sw.bb72:                                          ; preds = %if.end15
  call void @_ZNK4cvc58internal12NodeTemplateILb0EE11getOperatorEv(ptr sret(%"class.cvc5::internal::NodeTemplate") align 8 %ref.tmp73, ptr noundef nonnull align 8 dereferenceable(8) %atom)
  %call76 = invoke noundef nonnull align 8 dereferenceable(16) ptr @_ZNK4cvc58internal12NodeTemplateILb1EE8getConstINS0_9DivisibleEEERKT_v(ptr noundef nonnull align 8 dereferenceable(8) %ref.tmp73)
          to label %invoke.cont75 unwind label %lpad74

invoke.cont75:                                    ; preds = %sw.bb72
  %k = getelementptr inbounds %"struct.cvc5::internal::Divisible", ptr %call76, i32 0, i32 0
  %call78 = invoke noundef zeroext i1 @_ZNK4cvc58internal7Integer5isOneEv(ptr noundef nonnull align 8 dereferenceable(16) %k)
          to label %invoke.cont77 unwind label %lpad74

invoke.cont77:                                    ; preds = %invoke.cont75
  call void @_ZN4cvc58internal12NodeTemplateILb1EED2Ev(ptr noundef nonnull align 8 dereferenceable(8) %ref.tmp73) #3
  br i1 %call78, label %if.then80, label %if.end85

if.then80:                                        ; preds = %invoke.cont77
  call void @_ZN4cvc58internal6theory5arith8rewriter7mkConstEb(ptr sret(%"class.cvc5::internal::NodeTemplate") align 8 %agg.tmp81, i1 noundef zeroext true)
  invoke void @_ZN4cvc58internal6theory15RewriteResponseC2ENS1_13RewriteStatusENS0_12NodeTemplateILb1EEE(ptr noundef nonnull align 8 dereferenceable(16) %agg.result, i32 noundef 0, ptr noundef %agg.tmp81)
          to label %invoke.cont83 unwind label %lpad82

invoke.cont83:                                    ; preds = %if.then80
  call void @_ZN4cvc58internal12NodeTemplateILb1EED2Ev(ptr noundef nonnull align 8 dereferenceable(8) %agg.tmp81) #3
  br label %return

lpad74:                                           ; preds = %invoke.cont75, %sw.bb72
  %51 = landingpad { ptr, i32 }
          cleanup
  %52 = extractvalue { ptr, i32 } %51, 0
  store ptr %52, ptr %exn.slot, align 8
  %53 = extractvalue { ptr, i32 } %51, 1
  store i32 %53, ptr %ehselector.slot, align 4
  call void @_ZN4cvc58internal12NodeTemplateILb1EED2Ev(ptr noundef nonnull align 8 dereferenceable(8) %ref.tmp73) #3
  br label %eh.resume

lpad82:                                           ; preds = %if.then80
  %54 = landingpad { ptr, i32 }
          cleanup
  %55 = extractvalue { ptr, i32 } %54, 0
  store ptr %55, ptr %exn.slot, align 8
  %56 = extractvalue { ptr, i32 } %54, 1
  store i32 %56, ptr %ehselector.slot, align 4
  call void @_ZN4cvc58internal12NodeTemplateILb1EED2Ev(ptr noundef nonnull align 8 dereferenceable(8) %agg.tmp81) #3
  br label %eh.resume

if.end85:                                         ; preds = %invoke.cont77
  br label %sw.epilog

sw.default:                                       ; preds = %if.end15
  br label %sw.epilog

sw.epilog:                                        ; preds = %sw.default, %if.end85, %if.end71
  call void @_ZN4cvc58internal12NodeTemplateILb1EEC2ERKNS1_ILb0EEE(ptr noundef nonnull align 8 dereferenceable(8) %agg.tmp86, ptr noundef nonnull align 8 dereferenceable(8) %atom)
  invoke void @_ZN4cvc58internal6theory15RewriteResponseC2ENS1_13RewriteStatusENS0_12NodeTemplateILb1EEE(ptr noundef nonnull align 8 dereferenceable(16) %agg.result, i32 noundef 0, ptr noundef %agg.tmp86)
          to label %invoke.cont88 unwind label %lpad87

invoke.cont88:                                    ; preds = %sw.epilog
  call void @_ZN4cvc58internal12NodeTemplateILb1EED2Ev(ptr noundef nonnull align 8 dereferenceable(8) %agg.tmp86) #3
  br label %return

lpad87:                                           ; preds = %sw.epilog
  %57 = landingpad { ptr, i32 }
          cleanup
  %58 = extractvalue { ptr, i32 } %57, 0
  store ptr %58, ptr %exn.slot, align 8
  %59 = extractvalue { ptr, i32 } %57, 1
  store i32 %59, ptr %ehselector.slot, align 4
  call void @_ZN4cvc58internal12NodeTemplateILb1EED2Ev(ptr noundef nonnull align 8 dereferenceable(8) %agg.tmp86) #3
  br label %eh.resume

return:                                           ; preds = %invoke.cont88, %invoke.cont83, %invoke.cont69, %invoke.cont50, %invoke.cont29, %invoke.cont13
  ret void

eh.resume:                                        ; preds = %lpad87, %lpad82, %lpad74, %lpad68, %ehcleanup65, %ehcleanup55, %ehcleanup34, %lpad12, %ehcleanup
  %exn = load ptr, ptr %exn.slot, align 8
  %sel = load i32, ptr %ehselector.slot, align 4
  %lpad.val = insertvalue { ptr, i32 } poison, ptr %exn, 0
  %lpad.val90 = insertvalue { ptr, i32 } %lpad.val, i32 %sel, 1
  resume { ptr, i32 } %lpad.val90
}

; Function Attrs: mustprogress uwtable
define linkonce_odr hidden noundef nonnull align 8 dereferenceable(24) ptr @_ZN4cvc58internal11Cvc5ostreamlsINS0_6theory13RewriteStatusEEERS1_RKT_(ptr noundef nonnull align 8 dereferenceable(24) %this, ptr noundef nonnull align 4 dereferenceable(4) %t) #5 comdat align 2 {
entry:
  %this.addr = alloca ptr, align 8
  %t.addr = alloca ptr, align 8
  %indent = alloca i64, align 8
  %i = alloca i64, align 8
  store ptr %this, ptr %this.addr, align 8
  store ptr %t, ptr %t.addr, align 8
  %this1 = load ptr, ptr %this.addr, align 8
  %d_os = getelementptr inbounds %"class.cvc5::internal::Cvc5ostream", ptr %this1, i32 0, i32 0
  %0 = load ptr, ptr %d_os, align 8
  %cmp = icmp ne ptr %0, null
  br i1 %cmp, label %if.then, label %if.end11

if.then:                                          ; preds = %entry
  %d_firstColumn = getelementptr inbounds %"class.cvc5::internal::Cvc5ostream", ptr %this1, i32 0, i32 1
  %1 = load i8, ptr %d_firstColumn, align 8
  %tobool = trunc i8 %1 to i1
  br i1 %tobool, label %if.then2, label %if.end

if.then2:                                         ; preds = %if.then
  %d_firstColumn3 = getelementptr inbounds %"class.cvc5::internal::Cvc5ostream", ptr %this1, i32 0, i32 1
  store i8 0, ptr %d_firstColumn3, align 8
  %d_os4 = getelementptr inbounds %"class.cvc5::internal::Cvc5ostream", ptr %this1, i32 0, i32 0
  %2 = load ptr, ptr %d_os4, align 8
  %vtable = load ptr, ptr %2, align 8
  %vbase.offset.ptr = getelementptr i8, ptr %vtable, i64 -24
  %vbase.offset = load i64, ptr %vbase.offset.ptr, align 8
  %add.ptr = getelementptr inbounds i8, ptr %2, i64 %vbase.offset
  %3 = load i32, ptr @_ZN4cvc58internal11Cvc5ostream16s_indentIosIndexE, align 4
  %call = call noundef nonnull align 8 dereferenceable(8) ptr @_ZNSt8ios_base5iwordEi(ptr noundef nonnull align 8 dereferenceable(216) %add.ptr, i32 noundef %3)
  %4 = load i64, ptr %call, align 8
  store i64 %4, ptr %indent, align 8
  store i64 0, ptr %i, align 8
  br label %for.cond

for.cond:                                         ; preds = %for.inc, %if.then2
  %5 = load i64, ptr %i, align 8
  %6 = load i64, ptr %indent, align 8
  %cmp5 = icmp slt i64 %5, %6
  br i1 %cmp5, label %for.body, label %for.end

for.body:                                         ; preds = %for.cond
  %d_os6 = getelementptr inbounds %"class.cvc5::internal::Cvc5ostream", ptr %this1, i32 0, i32 0
  %7 = load ptr, ptr %d_os6, align 8
  %call7 = call noundef nonnull align 8 dereferenceable(8) ptr @_ZStlsIcSt11char_traitsIcESaIcEERSt13basic_ostreamIT_T0_ES7_RKNSt7__cxx1112basic_stringIS4_S5_T1_EE(ptr noundef nonnull align 8 dereferenceable(8) %7, ptr noundef nonnull align 8 dereferenceable(32) @_ZN4cvc58internal11Cvc5ostream5s_tabB5cxx11E)
  %d_os8 = getelementptr inbounds %"class.cvc5::internal::Cvc5ostream", ptr %this1, i32 0, i32 0
  store ptr %call7, ptr %d_os8, align 8
  br label %for.inc

for.inc:                                          ; preds = %for.body
  %8 = load i64, ptr %i, align 8
  %inc = add nsw i64 %8, 1
  store i64 %inc, ptr %i, align 8
  br label %for.cond, !llvm.loop !8

for.end:                                          ; preds = %for.cond
  br label %if.end

if.end:                                           ; preds = %for.end, %if.then
  %d_os9 = getelementptr inbounds %"class.cvc5::internal::Cvc5ostream", ptr %this1, i32 0, i32 0
  %9 = load ptr, ptr %d_os9, align 8
  %10 = load ptr, ptr %t.addr, align 8
  %11 = load i32, ptr %10, align 4
  %call10 = call noundef nonnull align 8 dereferenceable(8) ptr @_ZN4cvc58internal6theorylsERSoNS1_13RewriteStatusE(ptr noundef nonnull align 8 dereferenceable(8) %9, i32 noundef %11)
  br label %if.end11

if.end11:                                         ; preds = %if.end, %entry
  ret ptr %this1
}

; Function Attrs: mustprogress uwtable
define linkonce_odr hidden noundef nonnull align 8 dereferenceable(24) ptr @_ZN4cvc58internal11Cvc5ostreamlsIA5_cEERS1_RKT_(ptr noundef nonnull align 8 dereferenceable(24) %this, ptr noundef nonnull align 1 dereferenceable(5) %t) #5 comdat align 2 {
entry:
  %this.addr = alloca ptr, align 8
  %t.addr = alloca ptr, align 8
  %indent = alloca i64, align 8
  %i = alloca i64, align 8
  store ptr %this, ptr %this.addr, align 8
  store ptr %t, ptr %t.addr, align 8
  %this1 = load ptr, ptr %this.addr, align 8
  %d_os = getelementptr inbounds %"class.cvc5::internal::Cvc5ostream", ptr %this1, i32 0, i32 0
  %0 = load ptr, ptr %d_os, align 8
  %cmp = icmp ne ptr %0, null
  br i1 %cmp, label %if.then, label %if.end11

if.then:                                          ; preds = %entry
  %d_firstColumn = getelementptr inbounds %"class.cvc5::internal::Cvc5ostream", ptr %this1, i32 0, i32 1
  %1 = load i8, ptr %d_firstColumn, align 8
  %tobool = trunc i8 %1 to i1
  br i1 %tobool, label %if.then2, label %if.end

if.then2:                                         ; preds = %if.then
  %d_firstColumn3 = getelementptr inbounds %"class.cvc5::internal::Cvc5ostream", ptr %this1, i32 0, i32 1
  store i8 0, ptr %d_firstColumn3, align 8
  %d_os4 = getelementptr inbounds %"class.cvc5::internal::Cvc5ostream", ptr %this1, i32 0, i32 0
  %2 = load ptr, ptr %d_os4, align 8
  %vtable = load ptr, ptr %2, align 8
  %vbase.offset.ptr = getelementptr i8, ptr %vtable, i64 -24
  %vbase.offset = load i64, ptr %vbase.offset.ptr, align 8
  %add.ptr = getelementptr inbounds i8, ptr %2, i64 %vbase.offset
  %3 = load i32, ptr @_ZN4cvc58internal11Cvc5ostream16s_indentIosIndexE, align 4
  %call = call noundef nonnull align 8 dereferenceable(8) ptr @_ZNSt8ios_base5iwordEi(ptr noundef nonnull align 8 dereferenceable(216) %add.ptr, i32 noundef %3)
  %4 = load i64, ptr %call, align 8
  store i64 %4, ptr %indent, align 8
  store i64 0, ptr %i, align 8
  br label %for.cond

for.cond:                                         ; preds = %for.inc, %if.then2
  %5 = load i64, ptr %i, align 8
  %6 = load i64, ptr %indent, align 8
  %cmp5 = icmp slt i64 %5, %6
  br i1 %cmp5, label %for.body, label %for.end

for.body:                                         ; preds = %for.cond
  %d_os6 = getelementptr inbounds %"class.cvc5::internal::Cvc5ostream", ptr %this1, i32 0, i32 0
  %7 = load ptr, ptr %d_os6, align 8
  %call7 = call noundef nonnull align 8 dereferenceable(8) ptr @_ZStlsIcSt11char_traitsIcESaIcEERSt13basic_ostreamIT_T0_ES7_RKNSt7__cxx1112basic_stringIS4_S5_T1_EE(ptr noundef nonnull align 8 dereferenceable(8) %7, ptr noundef nonnull align 8 dereferenceable(32) @_ZN4cvc58internal11Cvc5ostream5s_tabB5cxx11E)
  %d_os8 = getelementptr inbounds %"class.cvc5::internal::Cvc5ostream", ptr %this1, i32 0, i32 0
  store ptr %call7, ptr %d_os8, align 8
  br label %for.inc

for.inc:                                          ; preds = %for.body
  %8 = load i64, ptr %i, align 8
  %inc = add nsw i64 %8, 1
  store i64 %inc, ptr %i, align 8
  br label %for.cond, !llvm.loop !9

for.end:                                          ; preds = %for.cond
  br label %if.end

if.end:                                           ; preds = %for.end, %if.then
  %d_os9 = getelementptr inbounds %"class.cvc5::internal::Cvc5ostream", ptr %this1, i32 0, i32 0
  %9 = load ptr, ptr %d_os9, align 8
  %10 = load ptr, ptr %t.addr, align 8
  %arraydecay = getelementptr inbounds [5 x i8], ptr %10, i64 0, i64 0
  %call10 = call noundef nonnull align 8 dereferenceable(8) ptr @_ZStlsISt11char_traitsIcEERSt13basic_ostreamIcT_ES5_PKc(ptr noundef nonnull align 8 dereferenceable(8) %9, ptr noundef %arraydecay)
  br label %if.end11

if.end11:                                         ; preds = %if.end, %entry
  ret ptr %this1
}

; Function Attrs: mustprogress uwtable
define linkonce_odr hidden noundef nonnull align 8 dereferenceable(24) ptr @_ZN4cvc58internal11Cvc5ostreamlsINS0_12NodeTemplateILb1EEEEERS1_RKT_(ptr noundef nonnull align 8 dereferenceable(24) %this, ptr noundef nonnull align 8 dereferenceable(8) %t) #5 comdat align 2 personality ptr @__gxx_personality_v0 {
entry:
  %this.addr = alloca ptr, align 8
  %t.addr = alloca ptr, align 8
  %indent = alloca i64, align 8
  %i = alloca i64, align 8
  %agg.tmp = alloca %"class.cvc5::internal::NodeTemplate.12", align 8
  %exn.slot = alloca ptr, align 8
  %ehselector.slot = alloca i32, align 4
  store ptr %this, ptr %this.addr, align 8
  store ptr %t, ptr %t.addr, align 8
  %this1 = load ptr, ptr %this.addr, align 8
  %d_os = getelementptr inbounds %"class.cvc5::internal::Cvc5ostream", ptr %this1, i32 0, i32 0
  %0 = load ptr, ptr %d_os, align 8
  %cmp = icmp ne ptr %0, null
  br i1 %cmp, label %if.then, label %if.end11

if.then:                                          ; preds = %entry
  %d_firstColumn = getelementptr inbounds %"class.cvc5::internal::Cvc5ostream", ptr %this1, i32 0, i32 1
  %1 = load i8, ptr %d_firstColumn, align 8
  %tobool = trunc i8 %1 to i1
  br i1 %tobool, label %if.then2, label %if.end

if.then2:                                         ; preds = %if.then
  %d_firstColumn3 = getelementptr inbounds %"class.cvc5::internal::Cvc5ostream", ptr %this1, i32 0, i32 1
  store i8 0, ptr %d_firstColumn3, align 8
  %d_os4 = getelementptr inbounds %"class.cvc5::internal::Cvc5ostream", ptr %this1, i32 0, i32 0
  %2 = load ptr, ptr %d_os4, align 8
  %vtable = load ptr, ptr %2, align 8
  %vbase.offset.ptr = getelementptr i8, ptr %vtable, i64 -24
  %vbase.offset = load i64, ptr %vbase.offset.ptr, align 8
  %add.ptr = getelementptr inbounds i8, ptr %2, i64 %vbase.offset
  %3 = load i32, ptr @_ZN4cvc58internal11Cvc5ostream16s_indentIosIndexE, align 4
  %call = call noundef nonnull align 8 dereferenceable(8) ptr @_ZNSt8ios_base5iwordEi(ptr noundef nonnull align 8 dereferenceable(216) %add.ptr, i32 noundef %3)
  %4 = load i64, ptr %call, align 8
  store i64 %4, ptr %indent, align 8
  store i64 0, ptr %i, align 8
  br label %for.cond

for.cond:                                         ; preds = %for.inc, %if.then2
  %5 = load i64, ptr %i, align 8
  %6 = load i64, ptr %indent, align 8
  %cmp5 = icmp slt i64 %5, %6
  br i1 %cmp5, label %for.body, label %for.end

for.body:                                         ; preds = %for.cond
  %d_os6 = getelementptr inbounds %"class.cvc5::internal::Cvc5ostream", ptr %this1, i32 0, i32 0
  %7 = load ptr, ptr %d_os6, align 8
  %call7 = call noundef nonnull align 8 dereferenceable(8) ptr @_ZStlsIcSt11char_traitsIcESaIcEERSt13basic_ostreamIT_T0_ES7_RKNSt7__cxx1112basic_stringIS4_S5_T1_EE(ptr noundef nonnull align 8 dereferenceable(8) %7, ptr noundef nonnull align 8 dereferenceable(32) @_ZN4cvc58internal11Cvc5ostream5s_tabB5cxx11E)
  %d_os8 = getelementptr inbounds %"class.cvc5::internal::Cvc5ostream", ptr %this1, i32 0, i32 0
  store ptr %call7, ptr %d_os8, align 8
  br label %for.inc

for.inc:                                          ; preds = %for.body
  %8 = load i64, ptr %i, align 8
  %inc = add nsw i64 %8, 1
  store i64 %inc, ptr %i, align 8
  br label %for.cond, !llvm.loop !10

for.end:                                          ; preds = %for.cond
  br label %if.end

if.end:                                           ; preds = %for.end, %if.then
  %d_os9 = getelementptr inbounds %"class.cvc5::internal::Cvc5ostream", ptr %this1, i32 0, i32 0
  %9 = load ptr, ptr %d_os9, align 8
  %10 = load ptr, ptr %t.addr, align 8
  call void @_ZN4cvc58internal12NodeTemplateILb0EEC2ERKNS1_ILb1EEE(ptr noundef nonnull align 8 dereferenceable(8) %agg.tmp, ptr noundef nonnull align 8 dereferenceable(8) %10)
  %call10 = invoke noundef nonnull align 8 dereferenceable(8) ptr @_ZN4cvc58internallsERSoNS0_12NodeTemplateILb0EEE(ptr noundef nonnull align 8 dereferenceable(8) %9, ptr noundef %agg.tmp)
          to label %invoke.cont unwind label %lpad

invoke.cont:                                      ; preds = %if.end
  call void @_ZN4cvc58internal12NodeTemplateILb0EED2Ev(ptr noundef nonnull align 8 dereferenceable(8) %agg.tmp) #3
  br label %if.end11

lpad:                                             ; preds = %if.end
  %11 = landingpad { ptr, i32 }
          cleanup
  %12 = extractvalue { ptr, i32 } %11, 0
  store ptr %12, ptr %exn.slot, align 8
  %13 = extractvalue { ptr, i32 } %11, 1
  store i32 %13, ptr %ehselector.slot, align 4
  call void @_ZN4cvc58internal12NodeTemplateILb0EED2Ev(ptr noundef nonnull align 8 dereferenceable(8) %agg.tmp) #3
  br label %eh.resume

if.end11:                                         ; preds = %invoke.cont, %entry
  ret ptr %this1

eh.resume:                                        ; preds = %lpad
  %exn = load ptr, ptr %exn.slot, align 8
  %sel = load i32, ptr %ehselector.slot, align 4
  %lpad.val = insertvalue { ptr, i32 } poison, ptr %exn, 0
  %lpad.val12 = insertvalue { ptr, i32 } %lpad.val, i32 %sel, 1
  resume { ptr, i32 } %lpad.val12
}

; Function Attrs: mustprogress nounwind uwtable
define linkonce_odr hidden void @_ZN4cvc58internal6theory15RewriteResponseD2Ev(ptr noundef nonnull align 8 dereferenceable(16) %this) unnamed_addr #4 comdat align 2 {
entry:
  %this.addr = alloca ptr, align 8
  store ptr %this, ptr %this.addr, align 8
  %this1 = load ptr, ptr %this.addr, align 8
  %d_node = getelementptr inbounds %"struct.cvc5::internal::theory::RewriteResponse", ptr %this1, i32 0, i32 1
  call void @_ZN4cvc58internal12NodeTemplateILb1EED2Ev(ptr noundef nonnull align 8 dereferenceable(8) %d_node) #3
  ret void
}

; Function Attrs: mustprogress uwtable
define hidden void @_ZN4cvc58internal6theory5arith13ArithRewriter14preRewriteTermENS0_12NodeTemplateILb0EEE(ptr noalias sret(%"struct.cvc5::internal::theory::RewriteResponse") align 8 %agg.result, ptr noundef %t) #5 align 2 personality ptr @__gxx_personality_v0 {
entry:
  %result.ptr = alloca ptr, align 8
  %t.indirect_addr = alloca ptr, align 8
  %agg.tmp = alloca %"class.cvc5::internal::NodeTemplate", align 8
  %exn.slot = alloca ptr, align 8
  %ehselector.slot = alloca i32, align 4
  %agg.tmp3 = alloca %"class.cvc5::internal::NodeTemplate.12", align 8
  %k = alloca i32, align 4
  %agg.tmp8 = alloca %"class.cvc5::internal::NodeTemplate.12", align 8
  %agg.tmp12 = alloca %"class.cvc5::internal::NodeTemplate.12", align 8
  %agg.tmp16 = alloca %"class.cvc5::internal::NodeTemplate.12", align 8
  %agg.tmp20 = alloca %"class.cvc5::internal::NodeTemplate.12", align 8
  %agg.tmp24 = alloca %"class.cvc5::internal::NodeTemplate.12", align 8
  %agg.tmp28 = alloca %"class.cvc5::internal::NodeTemplate.12", align 8
  %agg.tmp32 = alloca %"class.cvc5::internal::NodeTemplate", align 8
  %agg.tmp36 = alloca %"class.cvc5::internal::NodeTemplate", align 8
  %agg.tmp40 = alloca %"class.cvc5::internal::NodeTemplate.12", align 8
  %agg.tmp44 = alloca %"class.cvc5::internal::NodeTemplate.12", align 8
  %agg.tmp48 = alloca %"class.cvc5::internal::NodeTemplate.12", align 8
  %agg.tmp52 = alloca %"class.cvc5::internal::NodeTemplate.12", align 8
  %agg.tmp56 = alloca %"class.cvc5::internal::NodeTemplate", align 8
  %ref.tmp = alloca %"class.cvc5::internal::FatalStream", align 1
  store ptr %agg.result, ptr %result.ptr, align 8
  store ptr %t, ptr %t.indirect_addr, align 8
  %call = call noundef zeroext i1 @_ZNK4cvc58internal12NodeTemplateILb0EE7isConstEv(ptr noundef nonnull align 8 dereferenceable(8) %t)
  br i1 %call, label %if.then, label %if.else

if.then:                                          ; preds = %entry
  call void @_ZN4cvc58internal12NodeTemplateILb1EEC2ERKNS1_ILb0EEE(ptr noundef nonnull align 8 dereferenceable(8) %agg.tmp, ptr noundef nonnull align 8 dereferenceable(8) %t)
  invoke void @_ZN4cvc58internal6theory15RewriteResponseC2ENS1_13RewriteStatusENS0_12NodeTemplateILb1EEE(ptr noundef nonnull align 8 dereferenceable(16) %agg.result, i32 noundef 0, ptr noundef %agg.tmp)
          to label %invoke.cont unwind label %lpad

invoke.cont:                                      ; preds = %if.then
  call void @_ZN4cvc58internal12NodeTemplateILb1EED2Ev(ptr noundef nonnull align 8 dereferenceable(8) %agg.tmp) #3
  br label %return

lpad:                                             ; preds = %if.then
  %0 = landingpad { ptr, i32 }
          cleanup
  %1 = extractvalue { ptr, i32 } %0, 0
  store ptr %1, ptr %exn.slot, align 8
  %2 = extractvalue { ptr, i32 } %0, 1
  store i32 %2, ptr %ehselector.slot, align 4
  call void @_ZN4cvc58internal12NodeTemplateILb1EED2Ev(ptr noundef nonnull align 8 dereferenceable(8) %agg.tmp) #3
  br label %eh.resume

if.else:                                          ; preds = %entry
  %call1 = call noundef zeroext i1 @_ZNK4cvc58internal12NodeTemplateILb0EE5isVarEv(ptr noundef nonnull align 8 dereferenceable(8) %t)
  br i1 %call1, label %if.then2, label %if.else6

if.then2:                                         ; preds = %if.else
  call void @_ZN4cvc58internal12NodeTemplateILb0EEC2ERKS2_(ptr noundef nonnull align 8 dereferenceable(8) %agg.tmp3, ptr noundef nonnull align 8 dereferenceable(8) %t)
  invoke void @_ZN4cvc58internal6theory5arith13ArithRewriter15rewriteVariableENS0_12NodeTemplateILb0EEE(ptr sret(%"struct.cvc5::internal::theory::RewriteResponse") align 8 %agg.result, ptr noundef %agg.tmp3)
          to label %invoke.cont5 unwind label %lpad4

invoke.cont5:                                     ; preds = %if.then2
  call void @_ZN4cvc58internal12NodeTemplateILb0EED2Ev(ptr noundef nonnull align 8 dereferenceable(8) %agg.tmp3) #3
  br label %return

lpad4:                                            ; preds = %if.then2
  %3 = landingpad { ptr, i32 }
          cleanup
  %4 = extractvalue { ptr, i32 } %3, 0
  store ptr %4, ptr %exn.slot, align 8
  %5 = extractvalue { ptr, i32 } %3, 1
  store i32 %5, ptr %ehselector.slot, align 4
  call void @_ZN4cvc58internal12NodeTemplateILb0EED2Ev(ptr noundef nonnull align 8 dereferenceable(8) %agg.tmp3) #3
  br label %eh.resume

if.else6:                                         ; preds = %if.else
  %call7 = call noundef i32 @_ZNK4cvc58internal12NodeTemplateILb0EE7getKindEv(ptr noundef nonnull align 8 dereferenceable(8) %t)
  store i32 %call7, ptr %k, align 4
  %6 = load i32, ptr %k, align 4
  switch i32 %6, label %sw.default [
    i32 69, label %sw.bb
    i32 39, label %sw.bb11
    i32 40, label %sw.bb15
    i32 41, label %sw.bb19
    i32 42, label %sw.bb19
    i32 36, label %sw.bb23
    i32 37, label %sw.bb27
    i32 38, label %sw.bb27
    i32 81, label %sw.bb31
    i32 50, label %sw.bb35
    i32 51, label %sw.bb39
    i32 52, label %sw.bb39
    i32 53, label %sw.bb39
    i32 54, label %sw.bb39
    i32 55, label %sw.bb39
    i32 56, label %sw.bb39
    i32 57, label %sw.bb39
    i32 58, label %sw.bb39
    i32 59, label %sw.bb39
    i32 60, label %sw.bb39
    i32 61, label %sw.bb39
    i32 62, label %sw.bb39
    i32 63, label %sw.bb39
    i32 64, label %sw.bb39
    i32 43, label %sw.bb43
    i32 45, label %sw.bb43
    i32 44, label %sw.bb47
    i32 46, label %sw.bb47
    i32 47, label %sw.bb51
    i32 76, label %sw.bb55
    i32 77, label %sw.bb55
    i32 78, label %sw.bb55
    i32 49, label %sw.bb55
    i32 79, label %sw.bb55
  ]

sw.bb:                                            ; preds = %if.else6
  call void @_ZN4cvc58internal12NodeTemplateILb0EEC2ERKS2_(ptr noundef nonnull align 8 dereferenceable(8) %agg.tmp8, ptr noundef nonnull align 8 dereferenceable(8) %t)
  invoke void @_ZN4cvc58internal6theory5arith13ArithRewriter10rewriteRANENS0_12NodeTemplateILb0EEE(ptr sret(%"struct.cvc5::internal::theory::RewriteResponse") align 8 %agg.result, ptr noundef %agg.tmp8)
          to label %invoke.cont10 unwind label %lpad9

invoke.cont10:                                    ; preds = %sw.bb
  call void @_ZN4cvc58internal12NodeTemplateILb0EED2Ev(ptr noundef nonnull align 8 dereferenceable(8) %agg.tmp8) #3
  br label %return

lpad9:                                            ; preds = %sw.bb
  %7 = landingpad { ptr, i32 }
          cleanup
  %8 = extractvalue { ptr, i32 } %7, 0
  store ptr %8, ptr %exn.slot, align 8
  %9 = extractvalue { ptr, i32 } %7, 1
  store i32 %9, ptr %ehselector.slot, align 4
  call void @_ZN4cvc58internal12NodeTemplateILb0EED2Ev(ptr noundef nonnull align 8 dereferenceable(8) %agg.tmp8) #3
  br label %eh.resume

sw.bb11:                                          ; preds = %if.else6
  call void @_ZN4cvc58internal12NodeTemplateILb0EEC2ERKS2_(ptr noundef nonnull align 8 dereferenceable(8) %agg.tmp12, ptr noundef nonnull align 8 dereferenceable(8) %t)
  invoke void @_ZN4cvc58internal6theory5arith13ArithRewriter10rewriteSubENS0_12NodeTemplateILb0EEE(ptr sret(%"struct.cvc5::internal::theory::RewriteResponse") align 8 %agg.result, ptr noundef %agg.tmp12)
          to label %invoke.cont14 unwind label %lpad13

invoke.cont14:                                    ; preds = %sw.bb11
  call void @_ZN4cvc58internal12NodeTemplateILb0EED2Ev(ptr noundef nonnull align 8 dereferenceable(8) %agg.tmp12) #3
  br label %return

lpad13:                                           ; preds = %sw.bb11
  %10 = landingpad { ptr, i32 }
          cleanup
  %11 = extractvalue { ptr, i32 } %10, 0
  store ptr %11, ptr %exn.slot, align 8
  %12 = extractvalue { ptr, i32 } %10, 1
  store i32 %12, ptr %ehselector.slot, align 4
  call void @_ZN4cvc58internal12NodeTemplateILb0EED2Ev(ptr noundef nonnull align 8 dereferenceable(8) %agg.tmp12) #3
  br label %eh.resume

sw.bb15:                                          ; preds = %if.else6
  call void @_ZN4cvc58internal12NodeTemplateILb0EEC2ERKS2_(ptr noundef nonnull align 8 dereferenceable(8) %agg.tmp16, ptr noundef nonnull align 8 dereferenceable(8) %t)
  invoke void @_ZN4cvc58internal6theory5arith13ArithRewriter10rewriteNegENS0_12NodeTemplateILb0EEEb(ptr sret(%"struct.cvc5::internal::theory::RewriteResponse") align 8 %agg.result, ptr noundef %agg.tmp16, i1 noundef zeroext true)
          to label %invoke.cont18 unwind label %lpad17

invoke.cont18:                                    ; preds = %sw.bb15
  call void @_ZN4cvc58internal12NodeTemplateILb0EED2Ev(ptr noundef nonnull align 8 dereferenceable(8) %agg.tmp16) #3
  br label %return

lpad17:                                           ; preds = %sw.bb15
  %13 = landingpad { ptr, i32 }
          cleanup
  %14 = extractvalue { ptr, i32 } %13, 0
  store ptr %14, ptr %exn.slot, align 8
  %15 = extractvalue { ptr, i32 } %13, 1
  store i32 %15, ptr %ehselector.slot, align 4
  call void @_ZN4cvc58internal12NodeTemplateILb0EED2Ev(ptr noundef nonnull align 8 dereferenceable(8) %agg.tmp16) #3
  br label %eh.resume

sw.bb19:                                          ; preds = %if.else6, %if.else6
  call void @_ZN4cvc58internal12NodeTemplateILb0EEC2ERKS2_(ptr noundef nonnull align 8 dereferenceable(8) %agg.tmp20, ptr noundef nonnull align 8 dereferenceable(8) %t)
  invoke void @_ZN4cvc58internal6theory5arith13ArithRewriter10rewriteDivENS0_12NodeTemplateILb0EEEb(ptr sret(%"struct.cvc5::internal::theory::RewriteResponse") align 8 %agg.result, ptr noundef %agg.tmp20, i1 noundef zeroext true)
          to label %invoke.cont22 unwind label %lpad21

invoke.cont22:                                    ; preds = %sw.bb19
  call void @_ZN4cvc58internal12NodeTemplateILb0EED2Ev(ptr noundef nonnull align 8 dereferenceable(8) %agg.tmp20) #3
  br label %return

lpad21:                                           ; preds = %sw.bb19
  %16 = landingpad { ptr, i32 }
          cleanup
  %17 = extractvalue { ptr, i32 } %16, 0
  store ptr %17, ptr %exn.slot, align 8
  %18 = extractvalue { ptr, i32 } %16, 1
  store i32 %18, ptr %ehselector.slot, align 4
  call void @_ZN4cvc58internal12NodeTemplateILb0EED2Ev(ptr noundef nonnull align 8 dereferenceable(8) %agg.tmp20) #3
  br label %eh.resume

sw.bb23:                                          ; preds = %if.else6
  call void @_ZN4cvc58internal12NodeTemplateILb0EEC2ERKS2_(ptr noundef nonnull align 8 dereferenceable(8) %agg.tmp24, ptr noundef nonnull align 8 dereferenceable(8) %t)
  invoke void @_ZN4cvc58internal6theory5arith13ArithRewriter14preRewritePlusENS0_12NodeTemplateILb0EEE(ptr sret(%"struct.cvc5::internal::theory::RewriteResponse") align 8 %agg.result, ptr noundef %agg.tmp24)
          to label %invoke.cont26 unwind label %lpad25

invoke.cont26:                                    ; preds = %sw.bb23
  call void @_ZN4cvc58internal12NodeTemplateILb0EED2Ev(ptr noundef nonnull align 8 dereferenceable(8) %agg.tmp24) #3
  br label %return

lpad25:                                           ; preds = %sw.bb23
  %19 = landingpad { ptr, i32 }
          cleanup
  %20 = extractvalue { ptr, i32 } %19, 0
  store ptr %20, ptr %exn.slot, align 8
  %21 = extractvalue { ptr, i32 } %19, 1
  store i32 %21, ptr %ehselector.slot, align 4
  call void @_ZN4cvc58internal12NodeTemplateILb0EED2Ev(ptr noundef nonnull align 8 dereferenceable(8) %agg.tmp24) #3
  br label %eh.resume

sw.bb27:                                          ; preds = %if.else6, %if.else6
  call void @_ZN4cvc58internal12NodeTemplateILb0EEC2ERKS2_(ptr noundef nonnull align 8 dereferenceable(8) %agg.tmp28, ptr noundef nonnull align 8 dereferenceable(8) %t)
  invoke void @_ZN4cvc58internal6theory5arith13ArithRewriter14preRewriteMultENS0_12NodeTemplateILb0EEE(ptr sret(%"struct.cvc5::internal::theory::RewriteResponse") align 8 %agg.result, ptr noundef %agg.tmp28)
          to label %invoke.cont30 unwind label %lpad29

invoke.cont30:                                    ; preds = %sw.bb27
  call void @_ZN4cvc58internal12NodeTemplateILb0EED2Ev(ptr noundef nonnull align 8 dereferenceable(8) %agg.tmp28) #3
  br label %return

lpad29:                                           ; preds = %sw.bb27
  %22 = landingpad { ptr, i32 }
          cleanup
  %23 = extractvalue { ptr, i32 } %22, 0
  store ptr %23, ptr %exn.slot, align 8
  %24 = extractvalue { ptr, i32 } %22, 1
  store i32 %24, ptr %ehselector.slot, align 4
  call void @_ZN4cvc58internal12NodeTemplateILb0EED2Ev(ptr noundef nonnull align 8 dereferenceable(8) %agg.tmp28) #3
  br label %eh.resume

sw.bb31:                                          ; preds = %if.else6
  call void @_ZN4cvc58internal12NodeTemplateILb1EEC2ERKNS1_ILb0EEE(ptr noundef nonnull align 8 dereferenceable(8) %agg.tmp32, ptr noundef nonnull align 8 dereferenceable(8) %t)
  invoke void @_ZN4cvc58internal6theory15RewriteResponseC2ENS1_13RewriteStatusENS0_12NodeTemplateILb1EEE(ptr noundef nonnull align 8 dereferenceable(16) %agg.result, i32 noundef 0, ptr noundef %agg.tmp32)
          to label %invoke.cont34 unwind label %lpad33

invoke.cont34:                                    ; preds = %sw.bb31
  call void @_ZN4cvc58internal12NodeTemplateILb1EED2Ev(ptr noundef nonnull align 8 dereferenceable(8) %agg.tmp32) #3
  br label %return

lpad33:                                           ; preds = %sw.bb31
  %25 = landingpad { ptr, i32 }
          cleanup
  %26 = extractvalue { ptr, i32 } %25, 0
  store ptr %26, ptr %exn.slot, align 8
  %27 = extractvalue { ptr, i32 } %25, 1
  store i32 %27, ptr %ehselector.slot, align 4
  call void @_ZN4cvc58internal12NodeTemplateILb1EED2Ev(ptr noundef nonnull align 8 dereferenceable(8) %agg.tmp32) #3
  br label %eh.resume

sw.bb35:                                          ; preds = %if.else6
  call void @_ZN4cvc58internal12NodeTemplateILb1EEC2ERKNS1_ILb0EEE(ptr noundef nonnull align 8 dereferenceable(8) %agg.tmp36, ptr noundef nonnull align 8 dereferenceable(8) %t)
  invoke void @_ZN4cvc58internal6theory15RewriteResponseC2ENS1_13RewriteStatusENS0_12NodeTemplateILb1EEE(ptr noundef nonnull align 8 dereferenceable(16) %agg.result, i32 noundef 0, ptr noundef %agg.tmp36)
          to label %invoke.cont38 unwind label %lpad37

invoke.cont38:                                    ; preds = %sw.bb35
  call void @_ZN4cvc58internal12NodeTemplateILb1EED2Ev(ptr noundef nonnull align 8 dereferenceable(8) %agg.tmp36) #3
  br label %return

lpad37:                                           ; preds = %sw.bb35
  %28 = landingpad { ptr, i32 }
          cleanup
  %29 = extractvalue { ptr, i32 } %28, 0
  store ptr %29, ptr %exn.slot, align 8
  %30 = extractvalue { ptr, i32 } %28, 1
  store i32 %30, ptr %ehselector.slot, align 4
  call void @_ZN4cvc58internal12NodeTemplateILb1EED2Ev(ptr noundef nonnull align 8 dereferenceable(8) %agg.tmp36) #3
  br label %eh.resume

sw.bb39:                                          ; preds = %if.else6, %if.else6, %if.else6, %if.else6, %if.else6, %if.else6, %if.else6, %if.else6, %if.else6, %if.else6, %if.else6, %if.else6, %if.else6, %if.else6
  call void @_ZN4cvc58internal12NodeTemplateILb0EEC2ERKS2_(ptr noundef nonnull align 8 dereferenceable(8) %agg.tmp40, ptr noundef nonnull align 8 dereferenceable(8) %t)
  invoke void @_ZN4cvc58internal6theory5arith13ArithRewriter24preRewriteTranscendentalENS0_12NodeTemplateILb0EEE(ptr sret(%"struct.cvc5::internal::theory::RewriteResponse") align 8 %agg.result, ptr noundef %agg.tmp40)
          to label %invoke.cont42 unwind label %lpad41

invoke.cont42:                                    ; preds = %sw.bb39
  call void @_ZN4cvc58internal12NodeTemplateILb0EED2Ev(ptr noundef nonnull align 8 dereferenceable(8) %agg.tmp40) #3
  br label %return

lpad41:                                           ; preds = %sw.bb39
  %31 = landingpad { ptr, i32 }
          cleanup
  %32 = extractvalue { ptr, i32 } %31, 0
  store ptr %32, ptr %exn.slot, align 8
  %33 = extractvalue { ptr, i32 } %31, 1
  store i32 %33, ptr %ehselector.slot, align 4
  call void @_ZN4cvc58internal12NodeTemplateILb0EED2Ev(ptr noundef nonnull align 8 dereferenceable(8) %agg.tmp40) #3
  br label %eh.resume

sw.bb43:                                          ; preds = %if.else6, %if.else6
  call void @_ZN4cvc58internal12NodeTemplateILb0EEC2ERKS2_(ptr noundef nonnull align 8 dereferenceable(8) %agg.tmp44, ptr noundef nonnull align 8 dereferenceable(8) %t)
  invoke void @_ZN4cvc58internal6theory5arith13ArithRewriter17rewriteIntsDivModENS0_12NodeTemplateILb0EEEb(ptr sret(%"struct.cvc5::internal::theory::RewriteResponse") align 8 %agg.result, ptr noundef %agg.tmp44, i1 noundef zeroext true)
          to label %invoke.cont46 unwind label %lpad45

invoke.cont46:                                    ; preds = %sw.bb43
  call void @_ZN4cvc58internal12NodeTemplateILb0EED2Ev(ptr noundef nonnull align 8 dereferenceable(8) %agg.tmp44) #3
  br label %return

lpad45:                                           ; preds = %sw.bb43
  %34 = landingpad { ptr, i32 }
          cleanup
  %35 = extractvalue { ptr, i32 } %34, 0
  store ptr %35, ptr %exn.slot, align 8
  %36 = extractvalue { ptr, i32 } %34, 1
  store i32 %36, ptr %ehselector.slot, align 4
  call void @_ZN4cvc58internal12NodeTemplateILb0EED2Ev(ptr noundef nonnull align 8 dereferenceable(8) %agg.tmp44) #3
  br label %eh.resume

sw.bb47:                                          ; preds = %if.else6, %if.else6
  call void @_ZN4cvc58internal12NodeTemplateILb0EEC2ERKS2_(ptr noundef nonnull align 8 dereferenceable(8) %agg.tmp48, ptr noundef nonnull align 8 dereferenceable(8) %t)
  invoke void @_ZN4cvc58internal6theory5arith13ArithRewriter22rewriteIntsDivModTotalENS0_12NodeTemplateILb0EEEb(ptr sret(%"struct.cvc5::internal::theory::RewriteResponse") align 8 %agg.result, ptr noundef %agg.tmp48, i1 noundef zeroext true)
          to label %invoke.cont50 unwind label %lpad49

invoke.cont50:                                    ; preds = %sw.bb47
  call void @_ZN4cvc58internal12NodeTemplateILb0EED2Ev(ptr noundef nonnull align 8 dereferenceable(8) %agg.tmp48) #3
  br label %return

lpad49:                                           ; preds = %sw.bb47
  %37 = landingpad { ptr, i32 }
          cleanup
  %38 = extractvalue { ptr, i32 } %37, 0
  store ptr %38, ptr %exn.slot, align 8
  %39 = extractvalue { ptr, i32 } %37, 1
  store i32 %39, ptr %ehselector.slot, align 4
  call void @_ZN4cvc58internal12NodeTemplateILb0EED2Ev(ptr noundef nonnull align 8 dereferenceable(8) %agg.tmp48) #3
  br label %eh.resume

sw.bb51:                                          ; preds = %if.else6
  call void @_ZN4cvc58internal12NodeTemplateILb0EEC2ERKS2_(ptr noundef nonnull align 8 dereferenceable(8) %agg.tmp52, ptr noundef nonnull align 8 dereferenceable(8) %t)
  invoke void @_ZN4cvc58internal6theory5arith13ArithRewriter10rewriteAbsENS0_12NodeTemplateILb0EEE(ptr sret(%"struct.cvc5::internal::theory::RewriteResponse") align 8 %agg.result, ptr noundef %agg.tmp52)
          to label %invoke.cont54 unwind label %lpad53

invoke.cont54:                                    ; preds = %sw.bb51
  call void @_ZN4cvc58internal12NodeTemplateILb0EED2Ev(ptr noundef nonnull align 8 dereferenceable(8) %agg.tmp52) #3
  br label %return

lpad53:                                           ; preds = %sw.bb51
  %40 = landingpad { ptr, i32 }
          cleanup
  %41 = extractvalue { ptr, i32 } %40, 0
  store ptr %41, ptr %exn.slot, align 8
  %42 = extractvalue { ptr, i32 } %40, 1
  store i32 %42, ptr %ehselector.slot, align 4
  call void @_ZN4cvc58internal12NodeTemplateILb0EED2Ev(ptr noundef nonnull align 8 dereferenceable(8) %agg.tmp52) #3
  br label %eh.resume

sw.bb55:                                          ; preds = %if.else6, %if.else6, %if.else6, %if.else6, %if.else6
  call void @_ZN4cvc58internal12NodeTemplateILb1EEC2ERKNS1_ILb0EEE(ptr noundef nonnull align 8 dereferenceable(8) %agg.tmp56, ptr noundef nonnull align 8 dereferenceable(8) %t)
  invoke void @_ZN4cvc58internal6theory15RewriteResponseC2ENS1_13RewriteStatusENS0_12NodeTemplateILb1EEE(ptr noundef nonnull align 8 dereferenceable(16) %agg.result, i32 noundef 0, ptr noundef %agg.tmp56)
          to label %invoke.cont58 unwind label %lpad57

invoke.cont58:                                    ; preds = %sw.bb55
  call void @_ZN4cvc58internal12NodeTemplateILb1EED2Ev(ptr noundef nonnull align 8 dereferenceable(8) %agg.tmp56) #3
  br label %return

lpad57:                                           ; preds = %sw.bb55
  %43 = landingpad { ptr, i32 }
          cleanup
  %44 = extractvalue { ptr, i32 } %43, 0
  store ptr %44, ptr %exn.slot, align 8
  %45 = extractvalue { ptr, i32 } %43, 1
  store i32 %45, ptr %ehselector.slot, align 4
  call void @_ZN4cvc58internal12NodeTemplateILb1EED2Ev(ptr noundef nonnull align 8 dereferenceable(8) %agg.tmp56) #3
  br label %eh.resume

sw.default:                                       ; preds = %if.else6
  call void @_ZN4cvc58internal11FatalStreamC1EPKcS3_i(ptr noundef nonnull align 1 dereferenceable(1) %ref.tmp, ptr noundef @__PRETTY_FUNCTION__._ZN4cvc58internal6theory5arith13ArithRewriter14preRewriteTermENS0_12NodeTemplateILb0EEE, ptr noundef @.str.5, i32 noundef 255)
  %call61 = invoke noundef nonnull align 8 dereferenceable(8) ptr @_ZN4cvc58internal11FatalStream6streamEv(ptr noundef nonnull align 1 dereferenceable(1) %ref.tmp)
          to label %invoke.cont60 unwind label %lpad59

invoke.cont60:                                    ; preds = %sw.default
  %call63 = invoke noundef nonnull align 8 dereferenceable(8) ptr @_ZStlsISt11char_traitsIcEERSt13basic_ostreamIcT_ES5_PKc(ptr noundef nonnull align 8 dereferenceable(8) %call61, ptr noundef @.str.6)
          to label %invoke.cont62 unwind label %lpad59

invoke.cont62:                                    ; preds = %invoke.cont60
  %46 = load i32, ptr %k, align 4
  %call65 = invoke noundef nonnull align 8 dereferenceable(8) ptr @_ZN4cvc58internal4kindlsERSoNS1_6Kind_tE(ptr noundef nonnull align 8 dereferenceable(8) %call63, i32 noundef %46)
          to label %invoke.cont64 unwind label %lpad59

invoke.cont64:                                    ; preds = %invoke.cont62
  call void @_ZN4cvc58internal11FatalStreamD1Ev(ptr noundef nonnull align 1 dereferenceable(1) %ref.tmp) #16
  unreachable

lpad59:                                           ; preds = %invoke.cont62, %invoke.cont60, %sw.default
  %47 = landingpad { ptr, i32 }
          cleanup
  %48 = extractvalue { ptr, i32 } %47, 0
  store ptr %48, ptr %exn.slot, align 8
  %49 = extractvalue { ptr, i32 } %47, 1
  store i32 %49, ptr %ehselector.slot, align 4
  call void @_ZN4cvc58internal11FatalStreamD1Ev(ptr noundef nonnull align 1 dereferenceable(1) %ref.tmp) #16
  unreachable

50:                                               ; No predecessors!
  br label %eh.resume

return:                                           ; preds = %invoke.cont58, %invoke.cont54, %invoke.cont50, %invoke.cont46, %invoke.cont42, %invoke.cont38, %invoke.cont34, %invoke.cont30, %invoke.cont26, %invoke.cont22, %invoke.cont18, %invoke.cont14, %invoke.cont10, %invoke.cont5, %invoke.cont
  ret void

eh.resume:                                        ; preds = %50, %lpad57, %lpad53, %lpad49, %lpad45, %lpad41, %lpad37, %lpad33, %lpad29, %lpad25, %lpad21, %lpad17, %lpad13, %lpad9, %lpad4, %lpad
  %exn = load ptr, ptr %exn.slot, align 8
  %sel = load i32, ptr %ehselector.slot, align 4
  %lpad.val = insertvalue { ptr, i32 } poison, ptr %exn, 0
  %lpad.val66 = insertvalue { ptr, i32 } %lpad.val, i32 %sel, 1
  resume { ptr, i32 } %lpad.val66
}

; Function Attrs: mustprogress uwtable
define hidden void @_ZN4cvc58internal6theory5arith13ArithRewriter11postRewriteENS0_12NodeTemplateILb0EEE(ptr noalias sret(%"struct.cvc5::internal::theory::RewriteResponse") align 8 %agg.result, ptr noundef nonnull align 8 dereferenceable(16) %this, ptr noundef %t) unnamed_addr #5 align 2 personality ptr @__gxx_personality_v0 {
entry:
  %result.ptr = alloca ptr, align 8
  %this.addr = alloca ptr, align 8
  %t.indirect_addr = alloca ptr, align 8
  %ref.tmp = alloca %"class.cvc5::internal::__cvc5_true", align 1
  %tmp = alloca %"class.cvc5::internal::Cvc5ostream", align 8
  %agg.tmp.ensured = alloca %"class.cvc5::internal::Cvc5ostream", align 8
  %ref.tmp2 = alloca %"class.cvc5::internal::Cvc5ostream", align 8
  %agg.tmp = alloca %"class.cvc5::internal::NodeTemplate.12", align 8
  %exn.slot = alloca ptr, align 8
  %ehselector.slot = alloca i32, align 4
  %nrvo = alloca i1, align 1
  %agg.tmp8 = alloca %"class.cvc5::internal::NodeTemplate.12", align 8
  %ref.tmp11 = alloca %"class.cvc5::internal::__cvc5_true", align 1
  %tmp16 = alloca %"class.cvc5::internal::Cvc5ostream", align 8
  %agg.tmp.ensured19 = alloca %"class.cvc5::internal::Cvc5ostream", align 8
  %ref.tmp20 = alloca %"class.cvc5::internal::Cvc5ostream", align 8
  %nrvo31 = alloca i1, align 1
  %agg.tmp32 = alloca %"class.cvc5::internal::NodeTemplate.12", align 8
  %ref.tmp35 = alloca %"class.cvc5::internal::__cvc5_true", align 1
  %tmp40 = alloca %"class.cvc5::internal::Cvc5ostream", align 8
  %agg.tmp.ensured43 = alloca %"class.cvc5::internal::Cvc5ostream", align 8
  %ref.tmp44 = alloca %"class.cvc5::internal::Cvc5ostream", align 8
  store ptr %agg.result, ptr %result.ptr, align 8
  store ptr %this, ptr %this.addr, align 8
  store ptr %t, ptr %t.indirect_addr, align 8
  %call = call noundef zeroext i1 @_ZN4cvc58internal11__cvc5_truecvbEv(ptr noundef nonnull align 1 dereferenceable(1) %ref.tmp)
  br i1 %call, label %cond.true, label %cond.false

cond.true:                                        ; preds = %entry
  call void @_ZNK4cvc58internal5NullCcvNS0_11Cvc5ostreamEEv(ptr sret(%"class.cvc5::internal::Cvc5ostream") align 8 %tmp, ptr noundef nonnull align 1 dereferenceable(1) @_ZN4cvc58internal10nullStreamE)
  br label %cond.end

cond.false:                                       ; preds = %entry
  call void @_ZNK4cvc58internal6TraceCclEv(ptr sret(%"class.cvc5::internal::Cvc5ostream") align 8 %ref.tmp2, ptr noundef nonnull align 8 dereferenceable(32) @_ZN4cvc58internal12TraceChannelE)
  %call3 = call noundef nonnull align 8 dereferenceable(24) ptr @_ZN4cvc58internal11Cvc5ostreamlsIA13_cEERS1_RKT_(ptr noundef nonnull align 8 dereferenceable(24) %ref.tmp2, ptr noundef nonnull align 1 dereferenceable(13) @.str.3)
  %call4 = call noundef nonnull align 8 dereferenceable(24) ptr @_ZN4cvc58internal11Cvc5ostreamlsINS0_12NodeTemplateILb0EEEEERS1_RKT_(ptr noundef nonnull align 8 dereferenceable(24) %call3, ptr noundef nonnull align 8 dereferenceable(8) %t)
  %call5 = call noundef nonnull align 8 dereferenceable(24) ptr @_ZN4cvc58internal11Cvc5ostreamlsIA2_cEERS1_RKT_(ptr noundef nonnull align 8 dereferenceable(24) %call4, ptr noundef nonnull align 1 dereferenceable(2) @.str.1)
  %call6 = call noundef nonnull align 8 dereferenceable(24) ptr @_ZN4cvc58internal11Cvc5ostreamlsEPFRSoS2_E(ptr noundef nonnull align 8 dereferenceable(24) %call5, ptr noundef @_ZSt4endlIcSt11char_traitsIcEERSt13basic_ostreamIT_T0_ES6_)
  call void @llvm.memcpy.p0.p0.i64(ptr align 8 %agg.tmp.ensured, ptr align 8 %call6, i64 24, i1 false)
  br label %cond.end

cond.end:                                         ; preds = %cond.false, %cond.true
  call void @_ZN4cvc58internal12NodeTemplateILb0EEC2ERKS2_(ptr noundef nonnull align 8 dereferenceable(8) %agg.tmp, ptr noundef nonnull align 8 dereferenceable(8) %t)
  %call7 = invoke noundef zeroext i1 @_ZN4cvc58internal6theory5arith8rewriter6isAtomENS0_12NodeTemplateILb0EEE(ptr noundef %agg.tmp)
          to label %invoke.cont unwind label %lpad

invoke.cont:                                      ; preds = %cond.end
  call void @_ZN4cvc58internal12NodeTemplateILb0EED2Ev(ptr noundef nonnull align 8 dereferenceable(8) %agg.tmp) #3
  br i1 %call7, label %if.then, label %if.end

if.then:                                          ; preds = %invoke.cont
  store i1 false, ptr %nrvo, align 1
  call void @_ZN4cvc58internal12NodeTemplateILb0EEC2ERKS2_(ptr noundef nonnull align 8 dereferenceable(8) %agg.tmp8, ptr noundef nonnull align 8 dereferenceable(8) %t)
  invoke void @_ZN4cvc58internal6theory5arith13ArithRewriter15postRewriteAtomENS0_12NodeTemplateILb0EEE(ptr sret(%"struct.cvc5::internal::theory::RewriteResponse") align 8 %agg.result, ptr noundef %agg.tmp8)
          to label %invoke.cont10 unwind label %lpad9

invoke.cont10:                                    ; preds = %if.then
  call void @_ZN4cvc58internal12NodeTemplateILb0EED2Ev(ptr noundef nonnull align 8 dereferenceable(8) %agg.tmp8) #3
  %call14 = invoke noundef zeroext i1 @_ZN4cvc58internal11__cvc5_truecvbEv(ptr noundef nonnull align 1 dereferenceable(1) %ref.tmp11)
          to label %invoke.cont13 unwind label %lpad12

invoke.cont13:                                    ; preds = %invoke.cont10
  br i1 %call14, label %cond.true15, label %cond.false18

cond.true15:                                      ; preds = %invoke.cont13
  invoke void @_ZNK4cvc58internal5NullCcvNS0_11Cvc5ostreamEEv(ptr sret(%"class.cvc5::internal::Cvc5ostream") align 8 %tmp16, ptr noundef nonnull align 1 dereferenceable(1) @_ZN4cvc58internal10nullStreamE)
          to label %invoke.cont17 unwind label %lpad12

invoke.cont17:                                    ; preds = %cond.true15
  br label %cond.end30

cond.false18:                                     ; preds = %invoke.cont13
  invoke void @_ZNK4cvc58internal6TraceCclEv(ptr sret(%"class.cvc5::internal::Cvc5ostream") align 8 %ref.tmp20, ptr noundef nonnull align 8 dereferenceable(32) @_ZN4cvc58internal12TraceChannelE)
          to label %invoke.cont21 unwind label %lpad12

invoke.cont21:                                    ; preds = %cond.false18
  %d_status = getelementptr inbounds %"struct.cvc5::internal::theory::RewriteResponse", ptr %agg.result, i32 0, i32 0
  %call23 = invoke noundef nonnull align 8 dereferenceable(24) ptr @_ZN4cvc58internal11Cvc5ostreamlsINS0_6theory13RewriteStatusEEERS1_RKT_(ptr noundef nonnull align 8 dereferenceable(24) %ref.tmp20, ptr noundef nonnull align 4 dereferenceable(4) %d_status)
          to label %invoke.cont22 unwind label %lpad12

invoke.cont22:                                    ; preds = %invoke.cont21
  %call25 = invoke noundef nonnull align 8 dereferenceable(24) ptr @_ZN4cvc58internal11Cvc5ostreamlsIA5_cEERS1_RKT_(ptr noundef nonnull align 8 dereferenceable(24) %call23, ptr noundef nonnull align 1 dereferenceable(5) @.str.2)
          to label %invoke.cont24 unwind label %lpad12

invoke.cont24:                                    ; preds = %invoke.cont22
  %d_node = getelementptr inbounds %"struct.cvc5::internal::theory::RewriteResponse", ptr %agg.result, i32 0, i32 1
  %call27 = invoke noundef nonnull align 8 dereferenceable(24) ptr @_ZN4cvc58internal11Cvc5ostreamlsINS0_12NodeTemplateILb1EEEEERS1_RKT_(ptr noundef nonnull align 8 dereferenceable(24) %call25, ptr noundef nonnull align 8 dereferenceable(8) %d_node)
          to label %invoke.cont26 unwind label %lpad12

invoke.cont26:                                    ; preds = %invoke.cont24
  %call29 = invoke noundef nonnull align 8 dereferenceable(24) ptr @_ZN4cvc58internal11Cvc5ostreamlsEPFRSoS2_E(ptr noundef nonnull align 8 dereferenceable(24) %call27, ptr noundef @_ZSt4endlIcSt11char_traitsIcEERSt13basic_ostreamIT_T0_ES6_)
          to label %invoke.cont28 unwind label %lpad12

invoke.cont28:                                    ; preds = %invoke.cont26
  call void @llvm.memcpy.p0.p0.i64(ptr align 8 %agg.tmp.ensured19, ptr align 8 %call29, i64 24, i1 false)
  br label %cond.end30

cond.end30:                                       ; preds = %invoke.cont28, %invoke.cont17
  store i1 true, ptr %nrvo, align 1
  %nrvo.val = load i1, ptr %nrvo, align 1
  br i1 %nrvo.val, label %nrvo.skipdtor, label %nrvo.unused

lpad:                                             ; preds = %cond.end
  %0 = landingpad { ptr, i32 }
          cleanup
  %1 = extractvalue { ptr, i32 } %0, 0
  store ptr %1, ptr %exn.slot, align 8
  %2 = extractvalue { ptr, i32 } %0, 1
  store i32 %2, ptr %ehselector.slot, align 4
  call void @_ZN4cvc58internal12NodeTemplateILb0EED2Ev(ptr noundef nonnull align 8 dereferenceable(8) %agg.tmp) #3
  br label %eh.resume

lpad9:                                            ; preds = %if.then
  %3 = landingpad { ptr, i32 }
          cleanup
  %4 = extractvalue { ptr, i32 } %3, 0
  store ptr %4, ptr %exn.slot, align 8
  %5 = extractvalue { ptr, i32 } %3, 1
  store i32 %5, ptr %ehselector.slot, align 4
  call void @_ZN4cvc58internal12NodeTemplateILb0EED2Ev(ptr noundef nonnull align 8 dereferenceable(8) %agg.tmp8) #3
  br label %eh.resume

lpad12:                                           ; preds = %invoke.cont26, %invoke.cont24, %invoke.cont22, %invoke.cont21, %cond.false18, %cond.true15, %invoke.cont10
  %6 = landingpad { ptr, i32 }
          cleanup
  %7 = extractvalue { ptr, i32 } %6, 0
  store ptr %7, ptr %exn.slot, align 8
  %8 = extractvalue { ptr, i32 } %6, 1
  store i32 %8, ptr %ehselector.slot, align 4
  call void @_ZN4cvc58internal6theory15RewriteResponseD2Ev(ptr noundef nonnull align 8 dereferenceable(16) %agg.result) #3
  br label %eh.resume

nrvo.unused:                                      ; preds = %cond.end30
  call void @_ZN4cvc58internal6theory15RewriteResponseD2Ev(ptr noundef nonnull align 8 dereferenceable(16) %agg.result) #3
  br label %nrvo.skipdtor

nrvo.skipdtor:                                    ; preds = %nrvo.unused, %cond.end30
  br label %return

if.end:                                           ; preds = %invoke.cont
  store i1 false, ptr %nrvo31, align 1
  call void @_ZN4cvc58internal12NodeTemplateILb0EEC2ERKS2_(ptr noundef nonnull align 8 dereferenceable(8) %agg.tmp32, ptr noundef nonnull align 8 dereferenceable(8) %t)
  invoke void @_ZN4cvc58internal6theory5arith13ArithRewriter15postRewriteTermENS0_12NodeTemplateILb0EEE(ptr sret(%"struct.cvc5::internal::theory::RewriteResponse") align 8 %agg.result, ptr noundef %agg.tmp32)
          to label %invoke.cont34 unwind label %lpad33

invoke.cont34:                                    ; preds = %if.end
  call void @_ZN4cvc58internal12NodeTemplateILb0EED2Ev(ptr noundef nonnull align 8 dereferenceable(8) %agg.tmp32) #3
  %call38 = invoke noundef zeroext i1 @_ZN4cvc58internal11__cvc5_truecvbEv(ptr noundef nonnull align 1 dereferenceable(1) %ref.tmp35)
          to label %invoke.cont37 unwind label %lpad36

invoke.cont37:                                    ; preds = %invoke.cont34
  br i1 %call38, label %cond.true39, label %cond.false42

cond.true39:                                      ; preds = %invoke.cont37
  invoke void @_ZNK4cvc58internal5NullCcvNS0_11Cvc5ostreamEEv(ptr sret(%"class.cvc5::internal::Cvc5ostream") align 8 %tmp40, ptr noundef nonnull align 1 dereferenceable(1) @_ZN4cvc58internal10nullStreamE)
          to label %invoke.cont41 unwind label %lpad36

invoke.cont41:                                    ; preds = %cond.true39
  br label %cond.end56

cond.false42:                                     ; preds = %invoke.cont37
  invoke void @_ZNK4cvc58internal6TraceCclEv(ptr sret(%"class.cvc5::internal::Cvc5ostream") align 8 %ref.tmp44, ptr noundef nonnull align 8 dereferenceable(32) @_ZN4cvc58internal12TraceChannelE)
          to label %invoke.cont45 unwind label %lpad36

invoke.cont45:                                    ; preds = %cond.false42
  %d_status46 = getelementptr inbounds %"struct.cvc5::internal::theory::RewriteResponse", ptr %agg.result, i32 0, i32 0
  %call48 = invoke noundef nonnull align 8 dereferenceable(24) ptr @_ZN4cvc58internal11Cvc5ostreamlsINS0_6theory13RewriteStatusEEERS1_RKT_(ptr noundef nonnull align 8 dereferenceable(24) %ref.tmp44, ptr noundef nonnull align 4 dereferenceable(4) %d_status46)
          to label %invoke.cont47 unwind label %lpad36

invoke.cont47:                                    ; preds = %invoke.cont45
  %call50 = invoke noundef nonnull align 8 dereferenceable(24) ptr @_ZN4cvc58internal11Cvc5ostreamlsIA5_cEERS1_RKT_(ptr noundef nonnull align 8 dereferenceable(24) %call48, ptr noundef nonnull align 1 dereferenceable(5) @.str.2)
          to label %invoke.cont49 unwind label %lpad36

invoke.cont49:                                    ; preds = %invoke.cont47
  %d_node51 = getelementptr inbounds %"struct.cvc5::internal::theory::RewriteResponse", ptr %agg.result, i32 0, i32 1
  %call53 = invoke noundef nonnull align 8 dereferenceable(24) ptr @_ZN4cvc58internal11Cvc5ostreamlsINS0_12NodeTemplateILb1EEEEERS1_RKT_(ptr noundef nonnull align 8 dereferenceable(24) %call50, ptr noundef nonnull align 8 dereferenceable(8) %d_node51)
          to label %invoke.cont52 unwind label %lpad36

invoke.cont52:                                    ; preds = %invoke.cont49
  %call55 = invoke noundef nonnull align 8 dereferenceable(24) ptr @_ZN4cvc58internal11Cvc5ostreamlsEPFRSoS2_E(ptr noundef nonnull align 8 dereferenceable(24) %call53, ptr noundef @_ZSt4endlIcSt11char_traitsIcEERSt13basic_ostreamIT_T0_ES6_)
          to label %invoke.cont54 unwind label %lpad36

invoke.cont54:                                    ; preds = %invoke.cont52
  call void @llvm.memcpy.p0.p0.i64(ptr align 8 %agg.tmp.ensured43, ptr align 8 %call55, i64 24, i1 false)
  br label %cond.end56

cond.end56:                                       ; preds = %invoke.cont54, %invoke.cont41
  store i1 true, ptr %nrvo31, align 1
  %nrvo.val57 = load i1, ptr %nrvo31, align 1
  br i1 %nrvo.val57, label %nrvo.skipdtor59, label %nrvo.unused58

lpad33:                                           ; preds = %if.end
  %9 = landingpad { ptr, i32 }
          cleanup
  %10 = extractvalue { ptr, i32 } %9, 0
  store ptr %10, ptr %exn.slot, align 8
  %11 = extractvalue { ptr, i32 } %9, 1
  store i32 %11, ptr %ehselector.slot, align 4
  call void @_ZN4cvc58internal12NodeTemplateILb0EED2Ev(ptr noundef nonnull align 8 dereferenceable(8) %agg.tmp32) #3
  br label %eh.resume

lpad36:                                           ; preds = %invoke.cont52, %invoke.cont49, %invoke.cont47, %invoke.cont45, %cond.false42, %cond.true39, %invoke.cont34
  %12 = landingpad { ptr, i32 }
          cleanup
  %13 = extractvalue { ptr, i32 } %12, 0
  store ptr %13, ptr %exn.slot, align 8
  %14 = extractvalue { ptr, i32 } %12, 1
  store i32 %14, ptr %ehselector.slot, align 4
  call void @_ZN4cvc58internal6theory15RewriteResponseD2Ev(ptr noundef nonnull align 8 dereferenceable(16) %agg.result) #3
  br label %eh.resume

nrvo.unused58:                                    ; preds = %cond.end56
  call void @_ZN4cvc58internal6theory15RewriteResponseD2Ev(ptr noundef nonnull align 8 dereferenceable(16) %agg.result) #3
  br label %nrvo.skipdtor59

nrvo.skipdtor59:                                  ; preds = %nrvo.unused58, %cond.end56
  br label %return

return:                                           ; preds = %nrvo.skipdtor59, %nrvo.skipdtor
  ret void

eh.resume:                                        ; preds = %lpad36, %lpad33, %lpad12, %lpad9, %lpad
  %exn = load ptr, ptr %exn.slot, align 8
  %sel = load i32, ptr %ehselector.slot, align 4
  %lpad.val = insertvalue { ptr, i32 } poison, ptr %exn, 0
  %lpad.val60 = insertvalue { ptr, i32 } %lpad.val, i32 %sel, 1
  resume { ptr, i32 } %lpad.val60
}

; Function Attrs: mustprogress uwtable
define linkonce_odr hidden noundef nonnull align 8 dereferenceable(24) ptr @_ZN4cvc58internal11Cvc5ostreamlsIA13_cEERS1_RKT_(ptr noundef nonnull align 8 dereferenceable(24) %this, ptr noundef nonnull align 1 dereferenceable(13) %t) #5 comdat align 2 {
entry:
  %this.addr = alloca ptr, align 8
  %t.addr = alloca ptr, align 8
  %indent = alloca i64, align 8
  %i = alloca i64, align 8
  store ptr %this, ptr %this.addr, align 8
  store ptr %t, ptr %t.addr, align 8
  %this1 = load ptr, ptr %this.addr, align 8
  %d_os = getelementptr inbounds %"class.cvc5::internal::Cvc5ostream", ptr %this1, i32 0, i32 0
  %0 = load ptr, ptr %d_os, align 8
  %cmp = icmp ne ptr %0, null
  br i1 %cmp, label %if.then, label %if.end11

if.then:                                          ; preds = %entry
  %d_firstColumn = getelementptr inbounds %"class.cvc5::internal::Cvc5ostream", ptr %this1, i32 0, i32 1
  %1 = load i8, ptr %d_firstColumn, align 8
  %tobool = trunc i8 %1 to i1
  br i1 %tobool, label %if.then2, label %if.end

if.then2:                                         ; preds = %if.then
  %d_firstColumn3 = getelementptr inbounds %"class.cvc5::internal::Cvc5ostream", ptr %this1, i32 0, i32 1
  store i8 0, ptr %d_firstColumn3, align 8
  %d_os4 = getelementptr inbounds %"class.cvc5::internal::Cvc5ostream", ptr %this1, i32 0, i32 0
  %2 = load ptr, ptr %d_os4, align 8
  %vtable = load ptr, ptr %2, align 8
  %vbase.offset.ptr = getelementptr i8, ptr %vtable, i64 -24
  %vbase.offset = load i64, ptr %vbase.offset.ptr, align 8
  %add.ptr = getelementptr inbounds i8, ptr %2, i64 %vbase.offset
  %3 = load i32, ptr @_ZN4cvc58internal11Cvc5ostream16s_indentIosIndexE, align 4
  %call = call noundef nonnull align 8 dereferenceable(8) ptr @_ZNSt8ios_base5iwordEi(ptr noundef nonnull align 8 dereferenceable(216) %add.ptr, i32 noundef %3)
  %4 = load i64, ptr %call, align 8
  store i64 %4, ptr %indent, align 8
  store i64 0, ptr %i, align 8
  br label %for.cond

for.cond:                                         ; preds = %for.inc, %if.then2
  %5 = load i64, ptr %i, align 8
  %6 = load i64, ptr %indent, align 8
  %cmp5 = icmp slt i64 %5, %6
  br i1 %cmp5, label %for.body, label %for.end

for.body:                                         ; preds = %for.cond
  %d_os6 = getelementptr inbounds %"class.cvc5::internal::Cvc5ostream", ptr %this1, i32 0, i32 0
  %7 = load ptr, ptr %d_os6, align 8
  %call7 = call noundef nonnull align 8 dereferenceable(8) ptr @_ZStlsIcSt11char_traitsIcESaIcEERSt13basic_ostreamIT_T0_ES7_RKNSt7__cxx1112basic_stringIS4_S5_T1_EE(ptr noundef nonnull align 8 dereferenceable(8) %7, ptr noundef nonnull align 8 dereferenceable(32) @_ZN4cvc58internal11Cvc5ostream5s_tabB5cxx11E)
  %d_os8 = getelementptr inbounds %"class.cvc5::internal::Cvc5ostream", ptr %this1, i32 0, i32 0
  store ptr %call7, ptr %d_os8, align 8
  br label %for.inc

for.inc:                                          ; preds = %for.body
  %8 = load i64, ptr %i, align 8
  %inc = add nsw i64 %8, 1
  store i64 %inc, ptr %i, align 8
  br label %for.cond, !llvm.loop !11

for.end:                                          ; preds = %for.cond
  br label %if.end

if.end:                                           ; preds = %for.end, %if.then
  %d_os9 = getelementptr inbounds %"class.cvc5::internal::Cvc5ostream", ptr %this1, i32 0, i32 0
  %9 = load ptr, ptr %d_os9, align 8
  %10 = load ptr, ptr %t.addr, align 8
  %arraydecay = getelementptr inbounds [13 x i8], ptr %10, i64 0, i64 0
  %call10 = call noundef nonnull align 8 dereferenceable(8) ptr @_ZStlsISt11char_traitsIcEERSt13basic_ostreamIcT_ES5_PKc(ptr noundef nonnull align 8 dereferenceable(8) %9, ptr noundef %arraydecay)
  br label %if.end11

if.end11:                                         ; preds = %if.end, %entry
  ret ptr %this1
}

; Function Attrs: mustprogress uwtable
define hidden void @_ZN4cvc58internal6theory5arith13ArithRewriter15postRewriteAtomENS0_12NodeTemplateILb0EEE(ptr noalias sret(%"struct.cvc5::internal::theory::RewriteResponse") align 8 %agg.result, ptr noundef %atom) #5 align 2 personality ptr @__gxx_personality_v0 {
entry:
  %result.ptr = alloca ptr, align 8
  %atom.indirect_addr = alloca ptr, align 8
  %ref.tmp = alloca %"class.cvc5::internal::__cvc5_true", align 1
  %tmp = alloca %"class.cvc5::internal::Cvc5ostream", align 8
  %agg.tmp.ensured = alloca %"class.cvc5::internal::Cvc5ostream", align 8
  %ref.tmp1 = alloca %"class.cvc5::internal::Cvc5ostream", align 8
  %agg.tmp = alloca %"class.cvc5::internal::NodeTemplate.12", align 8
  %exn.slot = alloca ptr, align 8
  %ehselector.slot = alloca i32, align 4
  %k = alloca ptr, align 8
  %ref.tmp9 = alloca %"class.cvc5::internal::NodeTemplate", align 8
  %ref.tmp14 = alloca %"class.cvc5::internal::NodeTemplate.12", align 8
  %num = alloca ptr, align 8
  %ref.tmp19 = alloca %"class.cvc5::internal::NodeTemplate.12", align 8
  %agg.tmp23 = alloca %"class.cvc5::internal::NodeTemplate", align 8
  %ref.tmp24 = alloca %"class.cvc5::internal::Rational", align 8
  %ref.tmp25 = alloca %"class.cvc5::internal::Rational", align 8
  %agg.tmp37 = alloca %"class.cvc5::internal::NodeTemplate", align 8
  %nm = alloca ptr, align 8
  %agg.tmp43 = alloca %"class.cvc5::internal::NodeTemplate", align 8
  %agg.tmp44 = alloca %"class.cvc5::internal::NodeTemplate.12", align 8
  %ref.tmp45 = alloca %"class.cvc5::internal::NodeTemplate", align 8
  %agg.tmp46 = alloca %"class.cvc5::internal::NodeTemplate.12", align 8
  %agg.tmp47 = alloca %"class.cvc5::internal::NodeTemplate.12", align 8
  %ref.tmp48 = alloca %"class.cvc5::internal::NodeTemplate", align 8
  %agg.tmp57 = alloca %"class.cvc5::internal::NodeTemplate.12", align 8
  %ref.tmp58 = alloca %"class.cvc5::internal::NodeTemplate", align 8
  %ref.tmp59 = alloca %"class.cvc5::internal::Integer", align 8
  %kind = alloca i32, align 4
  %left = alloca %"class.cvc5::internal::NodeTemplate", align 8
  %ref.tmp82 = alloca %"class.cvc5::internal::NodeTemplate.12", align 8
  %agg.tmp83 = alloca %"class.cvc5::internal::NodeTemplate.12", align 8
  %right = alloca %"class.cvc5::internal::NodeTemplate", align 8
  %ref.tmp90 = alloca %"class.cvc5::internal::NodeTemplate.12", align 8
  %agg.tmp91 = alloca %"class.cvc5::internal::NodeTemplate.12", align 8
  %response = alloca %"class.std::optional", align 1
  %agg.tmp100 = alloca %"class.cvc5::internal::NodeTemplate.12", align 8
  %agg.tmp103 = alloca %"class.cvc5::internal::NodeTemplate.12", align 8
  %agg.tmp115 = alloca %"class.cvc5::internal::NodeTemplate", align 8
  %cleanup.dest.slot = alloca i32, align 4
  %response122 = alloca %"class.std::optional", align 1
  %agg.tmp123 = alloca %"class.cvc5::internal::NodeTemplate.12", align 8
  %agg.tmp125 = alloca %"class.cvc5::internal::NodeTemplate.12", align 8
  %agg.tmp138 = alloca %"class.cvc5::internal::NodeTemplate", align 8
  %negate = alloca i8, align 1
  %sum = alloca %"class.std::map.99", align 8
  %agg.tmp149 = alloca %"class.cvc5::internal::NodeTemplate.12", align 8
  %agg.tmp156 = alloca %"class.cvc5::internal::NodeTemplate.12", align 8
  %agg.tmp167 = alloca %"class.cvc5::internal::NodeTemplate", align 8
  %agg.tmp173 = alloca %"class.cvc5::internal::NodeTemplate", align 8
  %agg.tmp181 = alloca %"class.cvc5::internal::NodeTemplate", align 8
  %agg.tmp187 = alloca %"class.cvc5::internal::NodeTemplate", align 8
  store ptr %agg.result, ptr %result.ptr, align 8
  store ptr %atom, ptr %atom.indirect_addr, align 8
  %call = call noundef zeroext i1 @_ZN4cvc58internal11__cvc5_truecvbEv(ptr noundef nonnull align 1 dereferenceable(1) %ref.tmp)
  br i1 %call, label %cond.true, label %cond.false

cond.true:                                        ; preds = %entry
  call void @_ZNK4cvc58internal5NullCcvNS0_11Cvc5ostreamEEv(ptr sret(%"class.cvc5::internal::Cvc5ostream") align 8 %tmp, ptr noundef nonnull align 1 dereferenceable(1) @_ZN4cvc58internal10nullStreamE)
  br label %cond.end

cond.false:                                       ; preds = %entry
  call void @_ZNK4cvc58internal6TraceCclEv(ptr sret(%"class.cvc5::internal::Cvc5ostream") align 8 %ref.tmp1, ptr noundef nonnull align 8 dereferenceable(32) @_ZN4cvc58internal12TraceChannelE)
  %call2 = call noundef nonnull align 8 dereferenceable(24) ptr @_ZN4cvc58internal11Cvc5ostreamlsIA18_cEERS1_RKT_(ptr noundef nonnull align 8 dereferenceable(24) %ref.tmp1, ptr noundef nonnull align 1 dereferenceable(18) @.str.4)
  %call3 = call noundef nonnull align 8 dereferenceable(24) ptr @_ZN4cvc58internal11Cvc5ostreamlsINS0_12NodeTemplateILb0EEEEERS1_RKT_(ptr noundef nonnull align 8 dereferenceable(24) %call2, ptr noundef nonnull align 8 dereferenceable(8) %atom)
  %call4 = call noundef nonnull align 8 dereferenceable(24) ptr @_ZN4cvc58internal11Cvc5ostreamlsEPFRSoS2_E(ptr noundef nonnull align 8 dereferenceable(24) %call3, ptr noundef @_ZSt4endlIcSt11char_traitsIcEERSt13basic_ostreamIT_T0_ES6_)
  call void @llvm.memcpy.p0.p0.i64(ptr align 8 %agg.tmp.ensured, ptr align 8 %call4, i64 24, i1 false)
  br label %cond.end

cond.end:                                         ; preds = %cond.false, %cond.true
  %call5 = call noundef i32 @_ZNK4cvc58internal12NodeTemplateILb0EE7getKindEv(ptr noundef nonnull align 8 dereferenceable(8) %atom)
  %cmp = icmp eq i32 %call5, 76
  br i1 %cmp, label %if.then, label %if.else

if.then:                                          ; preds = %cond.end
  call void @_ZN4cvc58internal12NodeTemplateILb0EEC2ERKS2_(ptr noundef nonnull align 8 dereferenceable(8) %agg.tmp, ptr noundef nonnull align 8 dereferenceable(8) %atom)
  invoke void @_ZN4cvc58internal6theory5arith13ArithRewriter19rewriteExtIntegerOpENS0_12NodeTemplateILb0EEE(ptr sret(%"struct.cvc5::internal::theory::RewriteResponse") align 8 %agg.result, ptr noundef %agg.tmp)
          to label %invoke.cont unwind label %lpad

invoke.cont:                                      ; preds = %if.then
  call void @_ZN4cvc58internal12NodeTemplateILb0EED2Ev(ptr noundef nonnull align 8 dereferenceable(8) %agg.tmp) #3
  br label %return

lpad:                                             ; preds = %if.then
  %0 = landingpad { ptr, i32 }
          cleanup
  %1 = extractvalue { ptr, i32 } %0, 0
  store ptr %1, ptr %exn.slot, align 8
  %2 = extractvalue { ptr, i32 } %0, 1
  store i32 %2, ptr %ehselector.slot, align 4
  call void @_ZN4cvc58internal12NodeTemplateILb0EED2Ev(ptr noundef nonnull align 8 dereferenceable(8) %agg.tmp) #3
  br label %eh.resume

if.else:                                          ; preds = %cond.end
  %call6 = call noundef i32 @_ZNK4cvc58internal12NodeTemplateILb0EE7getKindEv(ptr noundef nonnull align 8 dereferenceable(8) %atom)
  %cmp7 = icmp eq i32 %call6, 48
  br i1 %cmp7, label %if.then8, label %if.end79

if.then8:                                         ; preds = %if.else
  call void @_ZNK4cvc58internal12NodeTemplateILb0EE11getOperatorEv(ptr sret(%"class.cvc5::internal::NodeTemplate") align 8 %ref.tmp9, ptr noundef nonnull align 8 dereferenceable(8) %atom)
  %call12 = invoke noundef nonnull align 8 dereferenceable(16) ptr @_ZNK4cvc58internal12NodeTemplateILb1EE8getConstINS0_9DivisibleEEERKT_v(ptr noundef nonnull align 8 dereferenceable(8) %ref.tmp9)
          to label %invoke.cont11 unwind label %lpad10

invoke.cont11:                                    ; preds = %if.then8
  %k13 = getelementptr inbounds %"struct.cvc5::internal::Divisible", ptr %call12, i32 0, i32 0
  call void @_ZN4cvc58internal12NodeTemplateILb1EED2Ev(ptr noundef nonnull align 8 dereferenceable(8) %ref.tmp9) #3
  store ptr %k13, ptr %k, align 8
  call void @_ZNK4cvc58internal12NodeTemplateILb0EEixEi(ptr sret(%"class.cvc5::internal::NodeTemplate.12") align 8 %ref.tmp14, ptr noundef nonnull align 8 dereferenceable(8) %atom, i32 noundef 0)
  %call17 = invoke noundef zeroext i1 @_ZNK4cvc58internal12NodeTemplateILb0EE7isConstEv(ptr noundef nonnull align 8 dereferenceable(8) %ref.tmp14)
          to label %invoke.cont16 unwind label %lpad15

invoke.cont16:                                    ; preds = %invoke.cont11
  call void @_ZN4cvc58internal12NodeTemplateILb0EED2Ev(ptr noundef nonnull align 8 dereferenceable(8) %ref.tmp14) #3
  br i1 %call17, label %if.then18, label %if.end

if.then18:                                        ; preds = %invoke.cont16
  call void @_ZNK4cvc58internal12NodeTemplateILb0EEixEi(ptr sret(%"class.cvc5::internal::NodeTemplate.12") align 8 %ref.tmp19, ptr noundef nonnull align 8 dereferenceable(8) %atom, i32 noundef 0)
  %call22 = invoke noundef nonnull align 8 dereferenceable(32) ptr @_ZNK4cvc58internal12NodeTemplateILb0EE8getConstINS0_8RationalEEERKT_v(ptr noundef nonnull align 8 dereferenceable(8) %ref.tmp19)
          to label %invoke.cont21 unwind label %lpad20

invoke.cont21:                                    ; preds = %if.then18
  call void @_ZN4cvc58internal12NodeTemplateILb0EED2Ev(ptr noundef nonnull align 8 dereferenceable(8) %ref.tmp19) #3
  store ptr %call22, ptr %num, align 8
  %3 = load ptr, ptr %num, align 8
  %4 = load ptr, ptr %k, align 8
  call void @_ZN4cvc58internal8RationalC2ERKNS0_7IntegerE(ptr noundef nonnull align 8 dereferenceable(32) %ref.tmp25, ptr noundef nonnull align 8 dereferenceable(16) %4)
  invoke void @_ZNK4cvc58internal8RationaldvERKS1_(ptr sret(%"class.cvc5::internal::Rational") align 8 %ref.tmp24, ptr noundef nonnull align 8 dereferenceable(32) %3, ptr noundef nonnull align 8 dereferenceable(32) %ref.tmp25)
          to label %invoke.cont27 unwind label %lpad26

invoke.cont27:                                    ; preds = %invoke.cont21
  %call30 = invoke noundef zeroext i1 @_ZNK4cvc58internal8Rational10isIntegralEv(ptr noundef nonnull align 8 dereferenceable(32) %ref.tmp24)
          to label %invoke.cont29 unwind label %lpad28

invoke.cont29:                                    ; preds = %invoke.cont27
  invoke void @_ZN4cvc58internal6theory5arith8rewriter7mkConstEb(ptr sret(%"class.cvc5::internal::NodeTemplate") align 8 %agg.tmp23, i1 noundef zeroext %call30)
          to label %invoke.cont31 unwind label %lpad28

invoke.cont31:                                    ; preds = %invoke.cont29
  invoke void @_ZN4cvc58internal6theory15RewriteResponseC2ENS1_13RewriteStatusENS0_12NodeTemplateILb1EEE(ptr noundef nonnull align 8 dereferenceable(16) %agg.result, i32 noundef 0, ptr noundef %agg.tmp23)
          to label %invoke.cont33 unwind label %lpad32

invoke.cont33:                                    ; preds = %invoke.cont31
  call void @_ZN4cvc58internal12NodeTemplateILb1EED2Ev(ptr noundef nonnull align 8 dereferenceable(8) %agg.tmp23) #3
  call void @_ZN4cvc58internal8RationalD2Ev(ptr noundef nonnull align 8 dereferenceable(32) %ref.tmp24) #3
  call void @_ZN4cvc58internal8RationalD2Ev(ptr noundef nonnull align 8 dereferenceable(32) %ref.tmp25) #3
  br label %return

lpad10:                                           ; preds = %if.then8
  %5 = landingpad { ptr, i32 }
          cleanup
  %6 = extractvalue { ptr, i32 } %5, 0
  store ptr %6, ptr %exn.slot, align 8
  %7 = extractvalue { ptr, i32 } %5, 1
  store i32 %7, ptr %ehselector.slot, align 4
  call void @_ZN4cvc58internal12NodeTemplateILb1EED2Ev(ptr noundef nonnull align 8 dereferenceable(8) %ref.tmp9) #3
  br label %eh.resume

lpad15:                                           ; preds = %invoke.cont11
  %8 = landingpad { ptr, i32 }
          cleanup
  %9 = extractvalue { ptr, i32 } %8, 0
  store ptr %9, ptr %exn.slot, align 8
  %10 = extractvalue { ptr, i32 } %8, 1
  store i32 %10, ptr %ehselector.slot, align 4
  call void @_ZN4cvc58internal12NodeTemplateILb0EED2Ev(ptr noundef nonnull align 8 dereferenceable(8) %ref.tmp14) #3
  br label %eh.resume

lpad20:                                           ; preds = %if.then18
  %11 = landingpad { ptr, i32 }
          cleanup
  %12 = extractvalue { ptr, i32 } %11, 0
  store ptr %12, ptr %exn.slot, align 8
  %13 = extractvalue { ptr, i32 } %11, 1
  store i32 %13, ptr %ehselector.slot, align 4
  call void @_ZN4cvc58internal12NodeTemplateILb0EED2Ev(ptr noundef nonnull align 8 dereferenceable(8) %ref.tmp19) #3
  br label %eh.resume

lpad26:                                           ; preds = %invoke.cont21
  %14 = landingpad { ptr, i32 }
          cleanup
  %15 = extractvalue { ptr, i32 } %14, 0
  store ptr %15, ptr %exn.slot, align 8
  %16 = extractvalue { ptr, i32 } %14, 1
  store i32 %16, ptr %ehselector.slot, align 4
  br label %ehcleanup34

lpad28:                                           ; preds = %invoke.cont29, %invoke.cont27
  %17 = landingpad { ptr, i32 }
          cleanup
  %18 = extractvalue { ptr, i32 } %17, 0
  store ptr %18, ptr %exn.slot, align 8
  %19 = extractvalue { ptr, i32 } %17, 1
  store i32 %19, ptr %ehselector.slot, align 4
  br label %ehcleanup

lpad32:                                           ; preds = %invoke.cont31
  %20 = landingpad { ptr, i32 }
          cleanup
  %21 = extractvalue { ptr, i32 } %20, 0
  store ptr %21, ptr %exn.slot, align 8
  %22 = extractvalue { ptr, i32 } %20, 1
  store i32 %22, ptr %ehselector.slot, align 4
  call void @_ZN4cvc58internal12NodeTemplateILb1EED2Ev(ptr noundef nonnull align 8 dereferenceable(8) %agg.tmp23) #3
  br label %ehcleanup

ehcleanup:                                        ; preds = %lpad32, %lpad28
  call void @_ZN4cvc58internal8RationalD2Ev(ptr noundef nonnull align 8 dereferenceable(32) %ref.tmp24) #3
  br label %ehcleanup34

ehcleanup34:                                      ; preds = %ehcleanup, %lpad26
  call void @_ZN4cvc58internal8RationalD2Ev(ptr noundef nonnull align 8 dereferenceable(32) %ref.tmp25) #3
  br label %eh.resume

if.end:                                           ; preds = %invoke.cont16
  %23 = load ptr, ptr %k, align 8
  %call35 = call noundef zeroext i1 @_ZNK4cvc58internal7Integer5isOneEv(ptr noundef nonnull align 8 dereferenceable(16) %23)
  br i1 %call35, label %if.then36, label %if.end41

if.then36:                                        ; preds = %if.end
  call void @_ZN4cvc58internal6theory5arith8rewriter7mkConstEb(ptr sret(%"class.cvc5::internal::NodeTemplate") align 8 %agg.tmp37, i1 noundef zeroext true)
  invoke void @_ZN4cvc58internal6theory15RewriteResponseC2ENS1_13RewriteStatusENS0_12NodeTemplateILb1EEE(ptr noundef nonnull align 8 dereferenceable(16) %agg.result, i32 noundef 0, ptr noundef %agg.tmp37)
          to label %invoke.cont39 unwind label %lpad38

invoke.cont39:                                    ; preds = %if.then36
  call void @_ZN4cvc58internal12NodeTemplateILb1EED2Ev(ptr noundef nonnull align 8 dereferenceable(8) %agg.tmp37) #3
  br label %return

lpad38:                                           ; preds = %if.then36
  %24 = landingpad { ptr, i32 }
          cleanup
  %25 = extractvalue { ptr, i32 } %24, 0
  store ptr %25, ptr %exn.slot, align 8
  %26 = extractvalue { ptr, i32 } %24, 1
  store i32 %26, ptr %ehselector.slot, align 4
  call void @_ZN4cvc58internal12NodeTemplateILb1EED2Ev(ptr noundef nonnull align 8 dereferenceable(8) %agg.tmp37) #3
  br label %eh.resume

if.end41:                                         ; preds = %if.end
  %call42 = call noundef ptr @_ZN4cvc58internal11NodeManager9currentNMEv()
  store ptr %call42, ptr %nm, align 8
  %27 = load ptr, ptr %nm, align 8
  %28 = load ptr, ptr %nm, align 8
  call void @_ZNK4cvc58internal12NodeTemplateILb0EEixEi(ptr sret(%"class.cvc5::internal::NodeTemplate.12") align 8 %agg.tmp46, ptr noundef nonnull align 8 dereferenceable(8) %atom, i32 noundef 0)
  %29 = load ptr, ptr %k, align 8
  invoke void @_ZN4cvc58internal6theory5arith8rewriter7mkConstERKNS0_7IntegerE(ptr sret(%"class.cvc5::internal::NodeTemplate") align 8 %ref.tmp48, ptr noundef nonnull align 8 dereferenceable(16) %29)
          to label %invoke.cont50 unwind label %lpad49

invoke.cont50:                                    ; preds = %if.end41
  invoke void @_ZN4cvc58internal12NodeTemplateILb0EEC2ERKNS1_ILb1EEE(ptr noundef nonnull align 8 dereferenceable(8) %agg.tmp47, ptr noundef nonnull align 8 dereferenceable(8) %ref.tmp48)
          to label %invoke.cont52 unwind label %lpad51

invoke.cont52:                                    ; preds = %invoke.cont50
  invoke void @_ZN4cvc58internal11NodeManager6mkNodeENS0_4kind6Kind_tENS0_12NodeTemplateILb0EEES5_(ptr sret(%"class.cvc5::internal::NodeTemplate") align 8 %ref.tmp45, ptr noundef nonnull align 8 dereferenceable(3360) %28, i32 noundef 46, ptr noundef %agg.tmp46, ptr noundef %agg.tmp47)
          to label %invoke.cont54 unwind label %lpad53

invoke.cont54:                                    ; preds = %invoke.cont52
  invoke void @_ZN4cvc58internal12NodeTemplateILb0EEC2ERKNS1_ILb1EEE(ptr noundef nonnull align 8 dereferenceable(8) %agg.tmp44, ptr noundef nonnull align 8 dereferenceable(8) %ref.tmp45)
          to label %invoke.cont56 unwind label %lpad55

invoke.cont56:                                    ; preds = %invoke.cont54
  invoke void @_ZN4cvc58internal7IntegerC2Ei(ptr noundef nonnull align 8 dereferenceable(16) %ref.tmp59, i32 noundef 0)
          to label %invoke.cont61 unwind label %lpad60

invoke.cont61:                                    ; preds = %invoke.cont56
  invoke void @_ZN4cvc58internal6theory5arith8rewriter7mkConstERKNS0_7IntegerE(ptr sret(%"class.cvc5::internal::NodeTemplate") align 8 %ref.tmp58, ptr noundef nonnull align 8 dereferenceable(16) %ref.tmp59)
          to label %invoke.cont63 unwind label %lpad62

invoke.cont63:                                    ; preds = %invoke.cont61
  invoke void @_ZN4cvc58internal12NodeTemplateILb0EEC2ERKNS1_ILb1EEE(ptr noundef nonnull align 8 dereferenceable(8) %agg.tmp57, ptr noundef nonnull align 8 dereferenceable(8) %ref.tmp58)
          to label %invoke.cont65 unwind label %lpad64

invoke.cont65:                                    ; preds = %invoke.cont63
  invoke void @_ZN4cvc58internal11NodeManager6mkNodeENS0_4kind6Kind_tENS0_12NodeTemplateILb0EEES5_(ptr sret(%"class.cvc5::internal::NodeTemplate") align 8 %agg.tmp43, ptr noundef nonnull align 8 dereferenceable(3360) %27, i32 noundef 5, ptr noundef %agg.tmp44, ptr noundef %agg.tmp57)
          to label %invoke.cont67 unwind label %lpad66

invoke.cont67:                                    ; preds = %invoke.cont65
  invoke void @_ZN4cvc58internal6theory15RewriteResponseC2ENS1_13RewriteStatusENS0_12NodeTemplateILb1EEE(ptr noundef nonnull align 8 dereferenceable(16) %agg.result, i32 noundef 1, ptr noundef %agg.tmp43)
          to label %invoke.cont69 unwind label %lpad68

invoke.cont69:                                    ; preds = %invoke.cont67
  call void @_ZN4cvc58internal12NodeTemplateILb1EED2Ev(ptr noundef nonnull align 8 dereferenceable(8) %agg.tmp43) #3
  call void @_ZN4cvc58internal12NodeTemplateILb0EED2Ev(ptr noundef nonnull align 8 dereferenceable(8) %agg.tmp57) #3
  call void @_ZN4cvc58internal12NodeTemplateILb1EED2Ev(ptr noundef nonnull align 8 dereferenceable(8) %ref.tmp58) #3
  call void @_ZN4cvc58internal7IntegerD2Ev(ptr noundef nonnull align 8 dereferenceable(16) %ref.tmp59) #3
  call void @_ZN4cvc58internal12NodeTemplateILb0EED2Ev(ptr noundef nonnull align 8 dereferenceable(8) %agg.tmp44) #3
  call void @_ZN4cvc58internal12NodeTemplateILb1EED2Ev(ptr noundef nonnull align 8 dereferenceable(8) %ref.tmp45) #3
  call void @_ZN4cvc58internal12NodeTemplateILb0EED2Ev(ptr noundef nonnull align 8 dereferenceable(8) %agg.tmp47) #3
  call void @_ZN4cvc58internal12NodeTemplateILb1EED2Ev(ptr noundef nonnull align 8 dereferenceable(8) %ref.tmp48) #3
  call void @_ZN4cvc58internal12NodeTemplateILb0EED2Ev(ptr noundef nonnull align 8 dereferenceable(8) %agg.tmp46) #3
  br label %return

lpad49:                                           ; preds = %if.end41
  %30 = landingpad { ptr, i32 }
          cleanup
  %31 = extractvalue { ptr, i32 } %30, 0
  store ptr %31, ptr %exn.slot, align 8
  %32 = extractvalue { ptr, i32 } %30, 1
  store i32 %32, ptr %ehselector.slot, align 4
  br label %ehcleanup78

lpad51:                                           ; preds = %invoke.cont50
  %33 = landingpad { ptr, i32 }
          cleanup
  %34 = extractvalue { ptr, i32 } %33, 0
  store ptr %34, ptr %exn.slot, align 8
  %35 = extractvalue { ptr, i32 } %33, 1
  store i32 %35, ptr %ehselector.slot, align 4
  br label %ehcleanup77

lpad53:                                           ; preds = %invoke.cont52
  %36 = landingpad { ptr, i32 }
          cleanup
  %37 = extractvalue { ptr, i32 } %36, 0
  store ptr %37, ptr %exn.slot, align 8
  %38 = extractvalue { ptr, i32 } %36, 1
  store i32 %38, ptr %ehselector.slot, align 4
  br label %ehcleanup76

lpad55:                                           ; preds = %invoke.cont54
  %39 = landingpad { ptr, i32 }
          cleanup
  %40 = extractvalue { ptr, i32 } %39, 0
  store ptr %40, ptr %exn.slot, align 8
  %41 = extractvalue { ptr, i32 } %39, 1
  store i32 %41, ptr %ehselector.slot, align 4
  br label %ehcleanup75

lpad60:                                           ; preds = %invoke.cont56
  %42 = landingpad { ptr, i32 }
          cleanup
  %43 = extractvalue { ptr, i32 } %42, 0
  store ptr %43, ptr %exn.slot, align 8
  %44 = extractvalue { ptr, i32 } %42, 1
  store i32 %44, ptr %ehselector.slot, align 4
  br label %ehcleanup74

lpad62:                                           ; preds = %invoke.cont61
  %45 = landingpad { ptr, i32 }
          cleanup
  %46 = extractvalue { ptr, i32 } %45, 0
  store ptr %46, ptr %exn.slot, align 8
  %47 = extractvalue { ptr, i32 } %45, 1
  store i32 %47, ptr %ehselector.slot, align 4
  br label %ehcleanup73

lpad64:                                           ; preds = %invoke.cont63
  %48 = landingpad { ptr, i32 }
          cleanup
  %49 = extractvalue { ptr, i32 } %48, 0
  store ptr %49, ptr %exn.slot, align 8
  %50 = extractvalue { ptr, i32 } %48, 1
  store i32 %50, ptr %ehselector.slot, align 4
  br label %ehcleanup72

lpad66:                                           ; preds = %invoke.cont65
  %51 = landingpad { ptr, i32 }
          cleanup
  %52 = extractvalue { ptr, i32 } %51, 0
  store ptr %52, ptr %exn.slot, align 8
  %53 = extractvalue { ptr, i32 } %51, 1
  store i32 %53, ptr %ehselector.slot, align 4
  br label %ehcleanup71

lpad68:                                           ; preds = %invoke.cont67
  %54 = landingpad { ptr, i32 }
          cleanup
  %55 = extractvalue { ptr, i32 } %54, 0
  store ptr %55, ptr %exn.slot, align 8
  %56 = extractvalue { ptr, i32 } %54, 1
  store i32 %56, ptr %ehselector.slot, align 4
  call void @_ZN4cvc58internal12NodeTemplateILb1EED2Ev(ptr noundef nonnull align 8 dereferenceable(8) %agg.tmp43) #3
  br label %ehcleanup71

ehcleanup71:                                      ; preds = %lpad68, %lpad66
  call void @_ZN4cvc58internal12NodeTemplateILb0EED2Ev(ptr noundef nonnull align 8 dereferenceable(8) %agg.tmp57) #3
  br label %ehcleanup72

ehcleanup72:                                      ; preds = %ehcleanup71, %lpad64
  call void @_ZN4cvc58internal12NodeTemplateILb1EED2Ev(ptr noundef nonnull align 8 dereferenceable(8) %ref.tmp58) #3
  br label %ehcleanup73

ehcleanup73:                                      ; preds = %ehcleanup72, %lpad62
  call void @_ZN4cvc58internal7IntegerD2Ev(ptr noundef nonnull align 8 dereferenceable(16) %ref.tmp59) #3
  br label %ehcleanup74

ehcleanup74:                                      ; preds = %ehcleanup73, %lpad60
  call void @_ZN4cvc58internal12NodeTemplateILb0EED2Ev(ptr noundef nonnull align 8 dereferenceable(8) %agg.tmp44) #3
  br label %ehcleanup75

ehcleanup75:                                      ; preds = %ehcleanup74, %lpad55
  call void @_ZN4cvc58internal12NodeTemplateILb1EED2Ev(ptr noundef nonnull align 8 dereferenceable(8) %ref.tmp45) #3
  br label %ehcleanup76

ehcleanup76:                                      ; preds = %ehcleanup75, %lpad53
  call void @_ZN4cvc58internal12NodeTemplateILb0EED2Ev(ptr noundef nonnull align 8 dereferenceable(8) %agg.tmp47) #3
  br label %ehcleanup77

ehcleanup77:                                      ; preds = %ehcleanup76, %lpad51
  call void @_ZN4cvc58internal12NodeTemplateILb1EED2Ev(ptr noundef nonnull align 8 dereferenceable(8) %ref.tmp48) #3
  br label %ehcleanup78

ehcleanup78:                                      ; preds = %ehcleanup77, %lpad49
  call void @_ZN4cvc58internal12NodeTemplateILb0EED2Ev(ptr noundef nonnull align 8 dereferenceable(8) %agg.tmp46) #3
  br label %eh.resume

if.end79:                                         ; preds = %if.else
  br label %if.end80

if.end80:                                         ; preds = %if.end79
  %call81 = call noundef i32 @_ZNK4cvc58internal12NodeTemplateILb0EE7getKindEv(ptr noundef nonnull align 8 dereferenceable(8) %atom)
  store i32 %call81, ptr %kind, align 4
  call void @_ZNK4cvc58internal12NodeTemplateILb0EEixEi(ptr sret(%"class.cvc5::internal::NodeTemplate.12") align 8 %agg.tmp83, ptr noundef nonnull align 8 dereferenceable(8) %atom, i32 noundef 0)
  invoke void @_ZN4cvc58internal6theory5arith8rewriter12removeToRealENS0_12NodeTemplateILb0EEE(ptr sret(%"class.cvc5::internal::NodeTemplate.12") align 8 %ref.tmp82, ptr noundef %agg.tmp83)
          to label %invoke.cont85 unwind label %lpad84

invoke.cont85:                                    ; preds = %if.end80
  invoke void @_ZN4cvc58internal12NodeTemplateILb1EEC2ERKNS1_ILb0EEE(ptr noundef nonnull align 8 dereferenceable(8) %left, ptr noundef nonnull align 8 dereferenceable(8) %ref.tmp82)
          to label %invoke.cont87 unwind label %lpad86

invoke.cont87:                                    ; preds = %invoke.cont85
  call void @_ZN4cvc58internal12NodeTemplateILb0EED2Ev(ptr noundef nonnull align 8 dereferenceable(8) %ref.tmp82) #3
  call void @_ZN4cvc58internal12NodeTemplateILb0EED2Ev(ptr noundef nonnull align 8 dereferenceable(8) %agg.tmp83) #3
  invoke void @_ZNK4cvc58internal12NodeTemplateILb0EEixEi(ptr sret(%"class.cvc5::internal::NodeTemplate.12") align 8 %agg.tmp91, ptr noundef nonnull align 8 dereferenceable(8) %atom, i32 noundef 1)
          to label %invoke.cont93 unwind label %lpad92

invoke.cont93:                                    ; preds = %invoke.cont87
  invoke void @_ZN4cvc58internal6theory5arith8rewriter12removeToRealENS0_12NodeTemplateILb0EEE(ptr sret(%"class.cvc5::internal::NodeTemplate.12") align 8 %ref.tmp90, ptr noundef %agg.tmp91)
          to label %invoke.cont95 unwind label %lpad94

invoke.cont95:                                    ; preds = %invoke.cont93
  invoke void @_ZN4cvc58internal12NodeTemplateILb1EEC2ERKNS1_ILb0EEE(ptr noundef nonnull align 8 dereferenceable(8) %right, ptr noundef nonnull align 8 dereferenceable(8) %ref.tmp90)
          to label %invoke.cont97 unwind label %lpad96

invoke.cont97:                                    ; preds = %invoke.cont95
  call void @_ZN4cvc58internal12NodeTemplateILb0EED2Ev(ptr noundef nonnull align 8 dereferenceable(8) %ref.tmp90) #3
  call void @_ZN4cvc58internal12NodeTemplateILb0EED2Ev(ptr noundef nonnull align 8 dereferenceable(8) %agg.tmp91) #3
  %57 = load i32, ptr %kind, align 4
  invoke void @_ZN4cvc58internal12NodeTemplateILb0EEC2ERKNS1_ILb1EEE(ptr noundef nonnull align 8 dereferenceable(8) %agg.tmp100, ptr noundef nonnull align 8 dereferenceable(8) %left)
          to label %invoke.cont102 unwind label %lpad101

invoke.cont102:                                   ; preds = %invoke.cont97
  invoke void @_ZN4cvc58internal12NodeTemplateILb0EEC2ERKNS1_ILb1EEE(ptr noundef nonnull align 8 dereferenceable(8) %agg.tmp103, ptr noundef nonnull align 8 dereferenceable(8) %right)
          to label %invoke.cont105 unwind label %lpad104

invoke.cont105:                                   ; preds = %invoke.cont102
  %call108 = invoke i16 @_ZN4cvc58internal6theory5arith8rewriter28tryEvaluateRelationReflexiveENS0_4kind6Kind_tENS0_12NodeTemplateILb0EEES7_(i32 noundef %57, ptr noundef %agg.tmp100, ptr noundef %agg.tmp103)
          to label %invoke.cont107 unwind label %lpad106

invoke.cont107:                                   ; preds = %invoke.cont105
  %coerce.dive = getelementptr inbounds %"class.std::optional", ptr %response, i32 0, i32 0
  %coerce.dive109 = getelementptr inbounds %"struct.std::_Optional_base", ptr %coerce.dive, i32 0, i32 0
  %coerce.dive110 = getelementptr inbounds %"struct.std::_Optional_payload", ptr %coerce.dive109, i32 0, i32 0
  store i16 %call108, ptr %coerce.dive110, align 1
  call void @_ZN4cvc58internal12NodeTemplateILb0EED2Ev(ptr noundef nonnull align 8 dereferenceable(8) %agg.tmp103) #3
  call void @_ZN4cvc58internal12NodeTemplateILb0EED2Ev(ptr noundef nonnull align 8 dereferenceable(8) %agg.tmp100) #3
  %call113 = call noundef zeroext i1 @_ZNKSt8optionalIbEcvbEv(ptr noundef nonnull align 1 dereferenceable(2) %response) #3
  br i1 %call113, label %if.then114, label %if.end121

if.then114:                                       ; preds = %invoke.cont107
  %call116 = call noundef nonnull align 1 dereferenceable(1) ptr @_ZNRSt8optionalIbEdeEv(ptr noundef nonnull align 1 dereferenceable(2) %response) #3
  %58 = load i8, ptr %call116, align 1
  %tobool = trunc i8 %58 to i1
  invoke void @_ZN4cvc58internal6theory5arith8rewriter7mkConstEb(ptr sret(%"class.cvc5::internal::NodeTemplate") align 8 %agg.tmp115, i1 noundef zeroext %tobool)
          to label %invoke.cont117 unwind label %lpad101

invoke.cont117:                                   ; preds = %if.then114
  invoke void @_ZN4cvc58internal6theory15RewriteResponseC2ENS1_13RewriteStatusENS0_12NodeTemplateILb1EEE(ptr noundef nonnull align 8 dereferenceable(16) %agg.result, i32 noundef 0, ptr noundef %agg.tmp115)
          to label %invoke.cont119 unwind label %lpad118

invoke.cont119:                                   ; preds = %invoke.cont117
  call void @_ZN4cvc58internal12NodeTemplateILb1EED2Ev(ptr noundef nonnull align 8 dereferenceable(8) %agg.tmp115) #3
  store i32 1, ptr %cleanup.dest.slot, align 4
  br label %cleanup193

lpad84:                                           ; preds = %if.end80
  %59 = landingpad { ptr, i32 }
          cleanup
  %60 = extractvalue { ptr, i32 } %59, 0
  store ptr %60, ptr %exn.slot, align 8
  %61 = extractvalue { ptr, i32 } %59, 1
  store i32 %61, ptr %ehselector.slot, align 4
  br label %ehcleanup89

lpad86:                                           ; preds = %invoke.cont85
  %62 = landingpad { ptr, i32 }
          cleanup
  %63 = extractvalue { ptr, i32 } %62, 0
  store ptr %63, ptr %exn.slot, align 8
  %64 = extractvalue { ptr, i32 } %62, 1
  store i32 %64, ptr %ehselector.slot, align 4
  call void @_ZN4cvc58internal12NodeTemplateILb0EED2Ev(ptr noundef nonnull align 8 dereferenceable(8) %ref.tmp82) #3
  br label %ehcleanup89

ehcleanup89:                                      ; preds = %lpad86, %lpad84
  call void @_ZN4cvc58internal12NodeTemplateILb0EED2Ev(ptr noundef nonnull align 8 dereferenceable(8) %agg.tmp83) #3
  br label %eh.resume

lpad92:                                           ; preds = %invoke.cont87
  %65 = landingpad { ptr, i32 }
          cleanup
  %66 = extractvalue { ptr, i32 } %65, 0
  store ptr %66, ptr %exn.slot, align 8
  %67 = extractvalue { ptr, i32 } %65, 1
  store i32 %67, ptr %ehselector.slot, align 4
  br label %ehcleanup196

lpad94:                                           ; preds = %invoke.cont93
  %68 = landingpad { ptr, i32 }
          cleanup
  %69 = extractvalue { ptr, i32 } %68, 0
  store ptr %69, ptr %exn.slot, align 8
  %70 = extractvalue { ptr, i32 } %68, 1
  store i32 %70, ptr %ehselector.slot, align 4
  br label %ehcleanup99

lpad96:                                           ; preds = %invoke.cont95
  %71 = landingpad { ptr, i32 }
          cleanup
  %72 = extractvalue { ptr, i32 } %71, 0
  store ptr %72, ptr %exn.slot, align 8
  %73 = extractvalue { ptr, i32 } %71, 1
  store i32 %73, ptr %ehselector.slot, align 4
  call void @_ZN4cvc58internal12NodeTemplateILb0EED2Ev(ptr noundef nonnull align 8 dereferenceable(8) %ref.tmp90) #3
  br label %ehcleanup99

ehcleanup99:                                      ; preds = %lpad96, %lpad94
  call void @_ZN4cvc58internal12NodeTemplateILb0EED2Ev(ptr noundef nonnull align 8 dereferenceable(8) %agg.tmp91) #3
  br label %ehcleanup196

lpad101:                                          ; preds = %if.end145, %if.then137, %if.end121, %if.then114, %invoke.cont97
  %74 = landingpad { ptr, i32 }
          cleanup
  %75 = extractvalue { ptr, i32 } %74, 0
  store ptr %75, ptr %exn.slot, align 8
  %76 = extractvalue { ptr, i32 } %74, 1
  store i32 %76, ptr %ehselector.slot, align 4
  br label %ehcleanup194

lpad104:                                          ; preds = %invoke.cont102
  %77 = landingpad { ptr, i32 }
          cleanup
  %78 = extractvalue { ptr, i32 } %77, 0
  store ptr %78, ptr %exn.slot, align 8
  %79 = extractvalue { ptr, i32 } %77, 1
  store i32 %79, ptr %ehselector.slot, align 4
  br label %ehcleanup112

lpad106:                                          ; preds = %invoke.cont105
  %80 = landingpad { ptr, i32 }
          cleanup
  %81 = extractvalue { ptr, i32 } %80, 0
  store ptr %81, ptr %exn.slot, align 8
  %82 = extractvalue { ptr, i32 } %80, 1
  store i32 %82, ptr %ehselector.slot, align 4
  call void @_ZN4cvc58internal12NodeTemplateILb0EED2Ev(ptr noundef nonnull align 8 dereferenceable(8) %agg.tmp103) #3
  br label %ehcleanup112

ehcleanup112:                                     ; preds = %lpad106, %lpad104
  call void @_ZN4cvc58internal12NodeTemplateILb0EED2Ev(ptr noundef nonnull align 8 dereferenceable(8) %agg.tmp100) #3
  br label %ehcleanup194

lpad118:                                          ; preds = %invoke.cont117
  %83 = landingpad { ptr, i32 }
          cleanup
  %84 = extractvalue { ptr, i32 } %83, 0
  store ptr %84, ptr %exn.slot, align 8
  %85 = extractvalue { ptr, i32 } %83, 1
  store i32 %85, ptr %ehselector.slot, align 4
  call void @_ZN4cvc58internal12NodeTemplateILb1EED2Ev(ptr noundef nonnull align 8 dereferenceable(8) %agg.tmp115) #3
  br label %ehcleanup194

if.end121:                                        ; preds = %invoke.cont107
  %86 = load i32, ptr %kind, align 4
  invoke void @_ZN4cvc58internal12NodeTemplateILb0EEC2ERKNS1_ILb1EEE(ptr noundef nonnull align 8 dereferenceable(8) %agg.tmp123, ptr noundef nonnull align 8 dereferenceable(8) %left)
          to label %invoke.cont124 unwind label %lpad101

invoke.cont124:                                   ; preds = %if.end121
  invoke void @_ZN4cvc58internal12NodeTemplateILb0EEC2ERKNS1_ILb1EEE(ptr noundef nonnull align 8 dereferenceable(8) %agg.tmp125, ptr noundef nonnull align 8 dereferenceable(8) %right)
          to label %invoke.cont127 unwind label %lpad126

invoke.cont127:                                   ; preds = %invoke.cont124
  %call130 = invoke i16 @_ZN4cvc58internal6theory5arith8rewriter19tryEvaluateRelationENS0_4kind6Kind_tENS0_12NodeTemplateILb0EEES7_(i32 noundef %86, ptr noundef %agg.tmp123, ptr noundef %agg.tmp125)
          to label %invoke.cont129 unwind label %lpad128

invoke.cont129:                                   ; preds = %invoke.cont127
  %coerce.dive131 = getelementptr inbounds %"class.std::optional", ptr %response122, i32 0, i32 0
  %coerce.dive132 = getelementptr inbounds %"struct.std::_Optional_base", ptr %coerce.dive131, i32 0, i32 0
  %coerce.dive133 = getelementptr inbounds %"struct.std::_Optional_payload", ptr %coerce.dive132, i32 0, i32 0
  store i16 %call130, ptr %coerce.dive133, align 1
  call void @_ZN4cvc58internal12NodeTemplateILb0EED2Ev(ptr noundef nonnull align 8 dereferenceable(8) %agg.tmp125) #3
  call void @_ZN4cvc58internal12NodeTemplateILb0EED2Ev(ptr noundef nonnull align 8 dereferenceable(8) %agg.tmp123) #3
  %call136 = call noundef zeroext i1 @_ZNKSt8optionalIbEcvbEv(ptr noundef nonnull align 1 dereferenceable(2) %response122) #3
  br i1 %call136, label %if.then137, label %if.end145

if.then137:                                       ; preds = %invoke.cont129
  %call139 = call noundef nonnull align 1 dereferenceable(1) ptr @_ZNRSt8optionalIbEdeEv(ptr noundef nonnull align 1 dereferenceable(2) %response122) #3
  %87 = load i8, ptr %call139, align 1
  %tobool140 = trunc i8 %87 to i1
  invoke void @_ZN4cvc58internal6theory5arith8rewriter7mkConstEb(ptr sret(%"class.cvc5::internal::NodeTemplate") align 8 %agg.tmp138, i1 noundef zeroext %tobool140)
          to label %invoke.cont141 unwind label %lpad101

invoke.cont141:                                   ; preds = %if.then137
  invoke void @_ZN4cvc58internal6theory15RewriteResponseC2ENS1_13RewriteStatusENS0_12NodeTemplateILb1EEE(ptr noundef nonnull align 8 dereferenceable(16) %agg.result, i32 noundef 0, ptr noundef %agg.tmp138)
          to label %invoke.cont143 unwind label %lpad142

invoke.cont143:                                   ; preds = %invoke.cont141
  call void @_ZN4cvc58internal12NodeTemplateILb1EED2Ev(ptr noundef nonnull align 8 dereferenceable(8) %agg.tmp138) #3
  store i32 1, ptr %cleanup.dest.slot, align 4
  br label %cleanup193

lpad126:                                          ; preds = %invoke.cont124
  %88 = landingpad { ptr, i32 }
          cleanup
  %89 = extractvalue { ptr, i32 } %88, 0
  store ptr %89, ptr %exn.slot, align 8
  %90 = extractvalue { ptr, i32 } %88, 1
  store i32 %90, ptr %ehselector.slot, align 4
  br label %ehcleanup135

lpad128:                                          ; preds = %invoke.cont127
  %91 = landingpad { ptr, i32 }
          cleanup
  %92 = extractvalue { ptr, i32 } %91, 0
  store ptr %92, ptr %exn.slot, align 8
  %93 = extractvalue { ptr, i32 } %91, 1
  store i32 %93, ptr %ehselector.slot, align 4
  call void @_ZN4cvc58internal12NodeTemplateILb0EED2Ev(ptr noundef nonnull align 8 dereferenceable(8) %agg.tmp125) #3
  br label %ehcleanup135

ehcleanup135:                                     ; preds = %lpad128, %lpad126
  call void @_ZN4cvc58internal12NodeTemplateILb0EED2Ev(ptr noundef nonnull align 8 dereferenceable(8) %agg.tmp123) #3
  br label %ehcleanup194

lpad142:                                          ; preds = %invoke.cont141
  %94 = landingpad { ptr, i32 }
          cleanup
  %95 = extractvalue { ptr, i32 } %94, 0
  store ptr %95, ptr %exn.slot, align 8
  %96 = extractvalue { ptr, i32 } %94, 1
  store i32 %96, ptr %ehselector.slot, align 4
  call void @_ZN4cvc58internal12NodeTemplateILb1EED2Ev(ptr noundef nonnull align 8 dereferenceable(8) %agg.tmp138) #3
  br label %ehcleanup194

if.end145:                                        ; preds = %invoke.cont129
  store i8 0, ptr %negate, align 1
  %call147 = invoke noundef i32 @_ZNK4cvc58internal12NodeTemplateILb0EE7getKindEv(ptr noundef nonnull align 8 dereferenceable(8) %atom)
          to label %invoke.cont146 unwind label %lpad101

invoke.cont146:                                   ; preds = %if.end145
  switch i32 %call147, label %sw.default [
    i32 71, label %sw.bb
    i32 70, label %sw.bb148
  ]

sw.bb:                                            ; preds = %invoke.cont146
  store i32 73, ptr %kind, align 4
  store i8 1, ptr %negate, align 1
  br label %sw.epilog

sw.bb148:                                         ; preds = %invoke.cont146
  store i32 72, ptr %kind, align 4
  store i8 1, ptr %negate, align 1
  br label %sw.epilog

sw.default:                                       ; preds = %invoke.cont146
  br label %sw.epilog

sw.epilog:                                        ; preds = %sw.default, %sw.bb148, %sw.bb
  call void @_ZNSt3mapIN4cvc58internal12NodeTemplateILb1EEENS1_19RealAlgebraicNumberENS1_6theory5arith8rewriter14TermComparatorESaISt4pairIKS3_S4_EEEC2Ev(ptr noundef nonnull align 8 dereferenceable(48) %sum) #3
  invoke void @_ZN4cvc58internal12NodeTemplateILb0EEC2ERKNS1_ILb1EEE(ptr noundef nonnull align 8 dereferenceable(8) %agg.tmp149, ptr noundef nonnull align 8 dereferenceable(8) %left)
          to label %invoke.cont151 unwind label %lpad150

invoke.cont151:                                   ; preds = %sw.epilog
  %97 = load i8, ptr %negate, align 1
  %tobool152 = trunc i8 %97 to i1
  invoke void @_ZN4cvc58internal6theory5arith8rewriter8addToSumERSt3mapINS0_12NodeTemplateILb1EEENS0_19RealAlgebraicNumberENS3_14TermComparatorESaISt4pairIKS6_S7_EEENS5_ILb0EEEb(ptr noundef nonnull align 8 dereferenceable(48) %sum, ptr noundef %agg.tmp149, i1 noundef zeroext %tobool152)
          to label %invoke.cont154 unwind label %lpad153

invoke.cont154:                                   ; preds = %invoke.cont151
  call void @_ZN4cvc58internal12NodeTemplateILb0EED2Ev(ptr noundef nonnull align 8 dereferenceable(8) %agg.tmp149) #3
  invoke void @_ZN4cvc58internal12NodeTemplateILb0EEC2ERKNS1_ILb1EEE(ptr noundef nonnull align 8 dereferenceable(8) %agg.tmp156, ptr noundef nonnull align 8 dereferenceable(8) %right)
          to label %invoke.cont157 unwind label %lpad150

invoke.cont157:                                   ; preds = %invoke.cont154
  %98 = load i8, ptr %negate, align 1
  %tobool158 = trunc i8 %98 to i1
  %lnot = xor i1 %tobool158, true
  invoke void @_ZN4cvc58internal6theory5arith8rewriter8addToSumERSt3mapINS0_12NodeTemplateILb1EEENS0_19RealAlgebraicNumberENS3_14TermComparatorESaISt4pairIKS6_S7_EEENS5_ILb0EEEb(ptr noundef nonnull align 8 dereferenceable(48) %sum, ptr noundef %agg.tmp156, i1 noundef zeroext %lnot)
          to label %invoke.cont160 unwind label %lpad159

invoke.cont160:                                   ; preds = %invoke.cont157
  call void @_ZN4cvc58internal12NodeTemplateILb0EED2Ev(ptr noundef nonnull align 8 dereferenceable(8) %agg.tmp156) #3
  %call163 = invoke noundef zeroext i1 @_ZN4cvc58internal6theory5arith8rewriter10isIntegralERKSt3mapINS0_12NodeTemplateILb1EEENS0_19RealAlgebraicNumberENS3_14TermComparatorESaISt4pairIKS6_S7_EEE(ptr noundef nonnull align 8 dereferenceable(48) %sum)
          to label %invoke.cont162 unwind label %lpad150

invoke.cont162:                                   ; preds = %invoke.cont160
  br i1 %call163, label %if.then164, label %if.else178

if.then164:                                       ; preds = %invoke.cont162
  %99 = load i32, ptr %kind, align 4
  %cmp165 = icmp eq i32 %99, 5
  br i1 %cmp165, label %if.then166, label %if.end172

if.then166:                                       ; preds = %if.then164
  invoke void @_ZN4cvc58internal6theory5arith8rewriter20buildIntegerEqualityEOSt3mapINS0_12NodeTemplateILb1EEENS0_19RealAlgebraicNumberENS3_14TermComparatorESaISt4pairIKS6_S7_EEE(ptr sret(%"class.cvc5::internal::NodeTemplate") align 8 %agg.tmp167, ptr noundef nonnull align 8 dereferenceable(48) %sum)
          to label %invoke.cont168 unwind label %lpad150

invoke.cont168:                                   ; preds = %if.then166
  invoke void @_ZN4cvc58internal6theory15RewriteResponseC2ENS1_13RewriteStatusENS0_12NodeTemplateILb1EEE(ptr noundef nonnull align 8 dereferenceable(16) %agg.result, i32 noundef 0, ptr noundef %agg.tmp167)
          to label %invoke.cont170 unwind label %lpad169

invoke.cont170:                                   ; preds = %invoke.cont168
  call void @_ZN4cvc58internal12NodeTemplateILb1EED2Ev(ptr noundef nonnull align 8 dereferenceable(8) %agg.tmp167) #3
  store i32 1, ptr %cleanup.dest.slot, align 4
  br label %cleanup

lpad150:                                          ; preds = %if.end186, %if.then180, %if.end172, %if.then166, %invoke.cont160, %invoke.cont154, %sw.epilog
  %100 = landingpad { ptr, i32 }
          cleanup
  %101 = extractvalue { ptr, i32 } %100, 0
  store ptr %101, ptr %exn.slot, align 8
  %102 = extractvalue { ptr, i32 } %100, 1
  store i32 %102, ptr %ehselector.slot, align 4
  br label %ehcleanup192

lpad153:                                          ; preds = %invoke.cont151
  %103 = landingpad { ptr, i32 }
          cleanup
  %104 = extractvalue { ptr, i32 } %103, 0
  store ptr %104, ptr %exn.slot, align 8
  %105 = extractvalue { ptr, i32 } %103, 1
  store i32 %105, ptr %ehselector.slot, align 4
  call void @_ZN4cvc58internal12NodeTemplateILb0EED2Ev(ptr noundef nonnull align 8 dereferenceable(8) %agg.tmp149) #3
  br label %ehcleanup192

lpad159:                                          ; preds = %invoke.cont157
  %106 = landingpad { ptr, i32 }
          cleanup
  %107 = extractvalue { ptr, i32 } %106, 0
  store ptr %107, ptr %exn.slot, align 8
  %108 = extractvalue { ptr, i32 } %106, 1
  store i32 %108, ptr %ehselector.slot, align 4
  call void @_ZN4cvc58internal12NodeTemplateILb0EED2Ev(ptr noundef nonnull align 8 dereferenceable(8) %agg.tmp156) #3
  br label %ehcleanup192

lpad169:                                          ; preds = %invoke.cont168
  %109 = landingpad { ptr, i32 }
          cleanup
  %110 = extractvalue { ptr, i32 } %109, 0
  store ptr %110, ptr %exn.slot, align 8
  %111 = extractvalue { ptr, i32 } %109, 1
  store i32 %111, ptr %ehselector.slot, align 4
  call void @_ZN4cvc58internal12NodeTemplateILb1EED2Ev(ptr noundef nonnull align 8 dereferenceable(8) %agg.tmp167) #3
  br label %ehcleanup192

if.end172:                                        ; preds = %if.then164
  %112 = load i32, ptr %kind, align 4
  invoke void @_ZN4cvc58internal6theory5arith8rewriter22buildIntegerInequalityEOSt3mapINS0_12NodeTemplateILb1EEENS0_19RealAlgebraicNumberENS3_14TermComparatorESaISt4pairIKS6_S7_EEENS0_4kind6Kind_tE(ptr sret(%"class.cvc5::internal::NodeTemplate") align 8 %agg.tmp173, ptr noundef nonnull align 8 dereferenceable(48) %sum, i32 noundef %112)
          to label %invoke.cont174 unwind label %lpad150

invoke.cont174:                                   ; preds = %if.end172
  invoke void @_ZN4cvc58internal6theory15RewriteResponseC2ENS1_13RewriteStatusENS0_12NodeTemplateILb1EEE(ptr noundef nonnull align 8 dereferenceable(16) %agg.result, i32 noundef 0, ptr noundef %agg.tmp173)
          to label %invoke.cont176 unwind label %lpad175

invoke.cont176:                                   ; preds = %invoke.cont174
  call void @_ZN4cvc58internal12NodeTemplateILb1EED2Ev(ptr noundef nonnull align 8 dereferenceable(8) %agg.tmp173) #3
  store i32 1, ptr %cleanup.dest.slot, align 4
  br label %cleanup

lpad175:                                          ; preds = %invoke.cont174
  %113 = landingpad { ptr, i32 }
          cleanup
  %114 = extractvalue { ptr, i32 } %113, 0
  store ptr %114, ptr %exn.slot, align 8
  %115 = extractvalue { ptr, i32 } %113, 1
  store i32 %115, ptr %ehselector.slot, align 4
  call void @_ZN4cvc58internal12NodeTemplateILb1EED2Ev(ptr noundef nonnull align 8 dereferenceable(8) %agg.tmp173) #3
  br label %ehcleanup192

if.else178:                                       ; preds = %invoke.cont162
  %116 = load i32, ptr %kind, align 4
  %cmp179 = icmp eq i32 %116, 5
  br i1 %cmp179, label %if.then180, label %if.end186

if.then180:                                       ; preds = %if.else178
  invoke void @_ZN4cvc58internal6theory5arith8rewriter17buildRealEqualityEOSt3mapINS0_12NodeTemplateILb1EEENS0_19RealAlgebraicNumberENS3_14TermComparatorESaISt4pairIKS6_S7_EEE(ptr sret(%"class.cvc5::internal::NodeTemplate") align 8 %agg.tmp181, ptr noundef nonnull align 8 dereferenceable(48) %sum)
          to label %invoke.cont182 unwind label %lpad150

invoke.cont182:                                   ; preds = %if.then180
  invoke void @_ZN4cvc58internal6theory15RewriteResponseC2ENS1_13RewriteStatusENS0_12NodeTemplateILb1EEE(ptr noundef nonnull align 8 dereferenceable(16) %agg.result, i32 noundef 0, ptr noundef %agg.tmp181)
          to label %invoke.cont184 unwind label %lpad183

invoke.cont184:                                   ; preds = %invoke.cont182
  call void @_ZN4cvc58internal12NodeTemplateILb1EED2Ev(ptr noundef nonnull align 8 dereferenceable(8) %agg.tmp181) #3
  store i32 1, ptr %cleanup.dest.slot, align 4
  br label %cleanup

lpad183:                                          ; preds = %invoke.cont182
  %117 = landingpad { ptr, i32 }
          cleanup
  %118 = extractvalue { ptr, i32 } %117, 0
  store ptr %118, ptr %exn.slot, align 8
  %119 = extractvalue { ptr, i32 } %117, 1
  store i32 %119, ptr %ehselector.slot, align 4
  call void @_ZN4cvc58internal12NodeTemplateILb1EED2Ev(ptr noundef nonnull align 8 dereferenceable(8) %agg.tmp181) #3
  br label %ehcleanup192

if.end186:                                        ; preds = %if.else178
  %120 = load i32, ptr %kind, align 4
  invoke void @_ZN4cvc58internal6theory5arith8rewriter19buildRealInequalityEOSt3mapINS0_12NodeTemplateILb1EEENS0_19RealAlgebraicNumberENS3_14TermComparatorESaISt4pairIKS6_S7_EEENS0_4kind6Kind_tE(ptr sret(%"class.cvc5::internal::NodeTemplate") align 8 %agg.tmp187, ptr noundef nonnull align 8 dereferenceable(48) %sum, i32 noundef %120)
