target datalayout = "e-m:e-p270:32:32-p271:32:32-p272:64:64-i64:64-i128:128-f80:128-n8:16:32:64-S128"
target triple = "x86_64-unknown-linux-gnu"

%"class.std::ios_base::Init" = type { i8 }
%"class.cvc5::internal::NullC" = type { i8 }
%"class.cvc5::internal::TraceC" = type { ptr, %"class.std::vector.3" }
%"class.std::vector.3" = type { %"struct.std::_Vector_base.4" }
%"struct.std::_Vector_base.4" = type { %"struct.std::_Vector_base<std::__cxx11::basic_string<char>, std::allocator<std::__cxx11::basic_string<char>>>::_Vector_impl" }
%"struct.std::_Vector_base<std::__cxx11::basic_string<char>, std::allocator<std::__cxx11::basic_string<char>>>::_Vector_impl" = type { %"struct.std::_Vector_base<std::__cxx11::basic_string<char>, std::allocator<std::__cxx11::basic_string<char>>>::_Vector_impl_data" }
%"struct.std::_Vector_base<std::__cxx11::basic_string<char>, std::allocator<std::__cxx11::basic_string<char>>>::_Vector_impl_data" = type { ptr, ptr, ptr }
%"class.cvc5::internal::NodeTemplate" = type { ptr }
%"class.std::__cxx11::basic_string" = type { %"struct.std::__cxx11::basic_string<char>::_Alloc_hider", i64, %union.anon }
%"struct.std::__cxx11::basic_string<char>::_Alloc_hider" = type { ptr }
%union.anon = type { i64, [8 x i8] }
%"struct.std::piecewise_construct_t" = type { i8 }
%"class.std::__cxx11::basic_stringstream" = type { %"class.std::basic_iostream.base", %"class.std::__cxx11::basic_stringbuf", %"class.std::basic_ios" }
%"class.std::basic_iostream.base" = type { %"class.std::basic_istream.base", %"class.std::basic_ostream.base" }
%"class.std::basic_istream.base" = type { ptr, i64 }
%"class.std::basic_ostream.base" = type { ptr }
%"class.std::__cxx11::basic_stringbuf" = type { %"class.std::basic_streambuf", i32, %"class.std::__cxx11::basic_string" }
%"class.std::basic_streambuf" = type { ptr, ptr, ptr, ptr, ptr, ptr, ptr, %"class.std::locale" }
%"class.std::locale" = type { ptr }
%"class.std::basic_ios" = type { %"class.std::ios_base", ptr, i8, i8, ptr, ptr, ptr, ptr }
%"class.std::ios_base" = type { ptr, i64, i64, i32, i32, i32, ptr, %"struct.std::ios_base::_Words", [8 x %"struct.std::ios_base::_Words"], i32, ptr, %"class.std::locale" }
%"struct.std::ios_base::_Words" = type { ptr, i64 }
%"class.cvc5::internal::__cvc5_true" = type { i8 }
%"class.cvc5::internal::Cvc5ostream" = type { ptr, i8, ptr }
%"class.cvc5::internal::NodeTemplate.8" = type { ptr }
%"class.cvc5::internal::theory::eq::EqProof" = type { i32, %"class.cvc5::internal::NodeTemplate", %"class.std::vector" }
%"class.std::vector" = type { %"struct.std::_Vector_base" }
%"struct.std::_Vector_base" = type { %"struct.std::_Vector_base<std::shared_ptr<cvc5::internal::theory::eq::EqProof>, std::allocator<std::shared_ptr<cvc5::internal::theory::eq::EqProof>>>::_Vector_impl" }
%"struct.std::_Vector_base<std::shared_ptr<cvc5::internal::theory::eq::EqProof>, std::allocator<std::shared_ptr<cvc5::internal::theory::eq::EqProof>>>::_Vector_impl" = type { %"struct.std::_Vector_base<std::shared_ptr<cvc5::internal::theory::eq::EqProof>, std::allocator<std::shared_ptr<cvc5::internal::theory::eq::EqProof>>>::_Vector_impl_data" }
%"struct.std::_Vector_base<std::shared_ptr<cvc5::internal::theory::eq::EqProof>, std::allocator<std::shared_ptr<cvc5::internal::theory::eq::EqProof>>>::_Vector_impl_data" = type { ptr, ptr, ptr }
%"class.__gnu_cxx::__normal_iterator.163" = type { ptr }
%"class.std::shared_ptr" = type { %"class.std::__shared_ptr" }
%"class.std::__shared_ptr" = type { ptr, %"class.std::__shared_count" }
%"class.std::__shared_count" = type { ptr }
%"class.std::vector.9" = type { %"struct.std::_Vector_base.10" }
%"struct.std::_Vector_base.10" = type { %"struct.std::_Vector_base<cvc5::internal::NodeTemplate<true>, std::allocator<cvc5::internal::NodeTemplate<true>>>::_Vector_impl" }
%"struct.std::_Vector_base<cvc5::internal::NodeTemplate<true>, std::allocator<cvc5::internal::NodeTemplate<true>>>::_Vector_impl" = type { %"struct.std::_Vector_base<cvc5::internal::NodeTemplate<true>, std::allocator<cvc5::internal::NodeTemplate<true>>>::_Vector_impl_data" }
%"struct.std::_Vector_base<cvc5::internal::NodeTemplate<true>, std::allocator<cvc5::internal::NodeTemplate<true>>>::_Vector_impl_data" = type { ptr, ptr, ptr }
%"class.__gnu_cxx::__normal_iterator.14" = type { ptr }
%"class.__gnu_cxx::__normal_iterator" = type { ptr }
%"class.std::initializer_list" = type { ptr, i64 }
%"class.std::allocator.11" = type { i8 }
%"class.cvc5::internal::OstreamVoider" = type { i8 }
%"class.cvc5::internal::FatalStream" = type { i8 }
%"class.cvc5::internal::expr::NodeValue" = type { i64, i16, i32, [0 x ptr] }
%"class.std::unordered_set" = type { %"class.std::_Hashtable.25" }
%"class.std::_Hashtable.25" = type { ptr, i64, %"struct.std::__detail::_Hash_node_base", i64, %"struct.std::__detail::_Prime_rehash_policy", ptr }
%"struct.std::__detail::_Hash_node_base" = type { ptr }
%"struct.std::__detail::_Prime_rehash_policy" = type { float, i64 }
%"class.cvc5::internal::NodeBuilder" = type <{ %"class.cvc5::internal::expr::NodeValue", [10 x ptr], ptr, ptr, i32, [4 x i8] }>
%"struct.std::vector<cvc5::internal::NodeTemplate<true>>::_Temporary_value" = type { ptr, %"union.std::vector<cvc5::internal::NodeTemplate<true>>::_Temporary_value::_Storage" }
%"union.std::vector<cvc5::internal::NodeTemplate<true>>::_Temporary_value::_Storage" = type { %"class.cvc5::internal::NodeTemplate" }
%"struct.std::_Vector_base.116" = type { %"struct.std::_Vector_base<std::vector<cvc5::internal::NodeTemplate<true>>, std::allocator<std::vector<cvc5::internal::NodeTemplate<true>>>>::_Vector_impl" }
%"struct.std::_Vector_base<std::vector<cvc5::internal::NodeTemplate<true>>, std::allocator<std::vector<cvc5::internal::NodeTemplate<true>>>>::_Vector_impl" = type { %"struct.std::_Vector_base<std::vector<cvc5::internal::NodeTemplate<true>>, std::allocator<std::vector<cvc5::internal::NodeTemplate<true>>>>::_Vector_impl_data" }
%"struct.std::_Vector_base<std::vector<cvc5::internal::NodeTemplate<true>>, std::allocator<std::vector<cvc5::internal::NodeTemplate<true>>>>::_Vector_impl_data" = type { ptr, ptr, ptr }
%"struct.std::__detail::_Node_const_iterator" = type { %"struct.std::__detail::_Node_iterator_base" }
%"struct.std::__detail::_Node_iterator_base" = type { ptr }
%"struct.std::__detail::_Node_iterator" = type { %"struct.std::__detail::_Node_iterator_base" }
%"struct.std::pair.134" = type <{ %"struct.std::__detail::_Node_iterator.136", i8, [7 x i8] }>
%"struct.std::__detail::_Node_iterator.136" = type { %"struct.std::__detail::_Node_iterator_base.137" }
%"struct.std::__detail::_Node_iterator_base.137" = type { ptr }
%"class.std::vector.115" = type { %"struct.std::_Vector_base.116" }
%"class.__gnu_cxx::__normal_iterator.138" = type { ptr }
%"class.std::allocator.117" = type { i8 }
%"class.__gnu_cxx::__normal_iterator.139" = type { ptr }
%"class.cvc5::internal::expr::NodeValue::iterator" = type { ptr }
%"class.std::allocator" = type { i8 }
%"struct.std::pair" = type { %"class.cvc5::internal::NodeTemplate", %"class.cvc5::internal::NodeTemplate" }
%"class.std::unordered_map.120" = type { %"class.std::_Hashtable.121" }
%"class.std::_Hashtable.121" = type { ptr, i64, %"struct.std::__detail::_Hash_node_base", i64, %"struct.std::__detail::_Prime_rehash_policy", ptr }
%"class.__gnu_cxx::__normal_iterator.162" = type { ptr }
%"struct.std::__detail::_Hash_node_value_base" = type { %"struct.__gnu_cxx::__aligned_buffer" }
%"struct.__gnu_cxx::__aligned_buffer" = type { %"union.std::aligned_storage<8, 8>::type" }
%"union.std::aligned_storage<8, 8>::type" = type { [8 x i8] }
%"class.std::allocator.153" = type { i8 }
%"struct.std::__detail::_Hash_node_value_base.158" = type { %"struct.__gnu_cxx::__aligned_buffer.159" }
%"struct.__gnu_cxx::__aligned_buffer.159" = type { %"union.std::aligned_storage<16, 8>::type" }
%"union.std::aligned_storage<16, 8>::type" = type { [16 x i8] }
%"struct.__gnu_cxx::__ops::_Iter_equals_val" = type { ptr }
%struct._Guard = type { ptr }
%"class.std::move_iterator" = type { ptr }
%"struct.std::__detail::_Node_const_iterator.164" = type { %"struct.std::__detail::_Node_iterator_base.137" }
%"struct.std::__detail::_Identity" = type { i8 }
%"struct.std::__detail::_Mod_range_hashing" = type { i8 }
%"struct.std::__detail::_Hash_node_code_cache" = type { i64 }
%"struct.std::__detail::_Select1st" = type { i8 }
%"struct.std::__detail::_AllocNode" = type { ptr }
%"struct.std::_Hashtable<cvc5::internal::NodeTemplate<true>, cvc5::internal::NodeTemplate<true>, std::allocator<cvc5::internal::NodeTemplate<true>>, std::__detail::_Identity, std::equal_to<cvc5::internal::NodeTemplate<true>>, std::hash<cvc5::internal::Node>, std::__detail::_Mod_range_hashing, std::__detail::_Default_ranged_hash, std::__detail::_Prime_rehash_policy, std::__detail::_Hashtable_traits<true, true, true>>::_Scoped_node" = type { ptr, ptr }
%"struct.std::pair.165" = type { i8, i64 }
%"struct.std::_Hashtable<cvc5::internal::NodeTemplate<true>, std::pair<const cvc5::internal::NodeTemplate<true>, cvc5::internal::NodeTemplate<true>>, std::allocator<std::pair<const cvc5::internal::NodeTemplate<true>, cvc5::internal::NodeTemplate<true>>>, std::__detail::_Select1st, std::equal_to<cvc5::internal::NodeTemplate<true>>, std::hash<cvc5::internal::Node>, std::__detail::_Mod_range_hashing, std::__detail::_Default_ranged_hash, std::__detail::_Prime_rehash_policy, std::__detail::_Hashtable_traits<true, false, true>>::_Scoped_node" = type { ptr, ptr }
%"class.std::tuple.167" = type { %"struct.std::_Tuple_impl.168" }
%"struct.std::_Tuple_impl.168" = type { %"struct.std::_Head_base.169" }
%"struct.std::_Head_base.169" = type { ptr }
%"class.std::tuple.170" = type { i8 }
%"class.std::move_iterator.172" = type { ptr }

$_ZN4cvc58internal11__cvc5_truecvbEv = comdat any

$_ZNK4cvc58internal5NullCcvNS0_11Cvc5ostreamEEv = comdat any

$_ZNK4cvc58internal6TraceCclEv = comdat any

$_ZN4cvc58internal11Cvc5ostreamlsINSt7__cxx1112basic_stringIcSt11char_traitsIcESaIcEEEEERS1_RKT_ = comdat any

$_ZN4cvc58internal6theory2eqlsERSoNS2_15MergeReasonTypeE = comdat any

$_ZNKSt6vectorISt10shared_ptrIN4cvc58internal6theory2eq7EqProofEESaIS6_EE5emptyEv = comdat any

$_ZNK4cvc58internal12NodeTemplateILb1EE6isNullEv = comdat any

$_ZN4cvc58internallsERSoNS0_12NodeTemplateILb0EEE = comdat any

$_ZN4cvc58internal12NodeTemplateILb0EEC2ERKNS1_ILb1EEE = comdat any

$_ZN4cvc58internal12NodeTemplateILb0EED2Ev = comdat any

$_ZNKSt6vectorISt10shared_ptrIN4cvc58internal6theory2eq7EqProofEESaIS6_EE4sizeEv = comdat any

$_ZNKSt6vectorISt10shared_ptrIN4cvc58internal6theory2eq7EqProofEESaIS6_EEixEm = comdat any

$_ZNKSt19__shared_ptr_accessIN4cvc58internal6theory2eq7EqProofELN9__gnu_cxx12_Lock_policyE2ELb0ELb0EEptEv = comdat any

$_ZNSt6vectorIN4cvc58internal12NodeTemplateILb1EEESaIS3_EEC2Ev = comdat any

$_ZNKSt6vectorIN4cvc58internal12NodeTemplateILb1EEESaIS3_EE4sizeEv = comdat any

$_ZNSt6vectorIN4cvc58internal12NodeTemplateILb1EEESaIS3_EEixEm = comdat any

$_ZNK4cvc58internal12NodeTemplateILb1EEixEi = comdat any

$_ZNK4cvc58internal12NodeTemplateILb1EEeqILb1EEEbRKNS1_IXT_EEE = comdat any

$_ZN4cvc58internal12NodeTemplateILb1EED2Ev = comdat any

$_ZNSt6vectorIN4cvc58internal12NodeTemplateILb1EEESaIS3_EE9push_backERKS3_ = comdat any

$_ZN4cvc58internal11Cvc5ostreamlsIA37_cEERS1_RKT_ = comdat any

$_ZN4cvc58internal11Cvc5ostreamlsImEERS1_RKT_ = comdat any

$_ZN4cvc58internal11Cvc5ostreamlsIA21_cEERS1_RKT_ = comdat any

$_ZN4cvc58internal11Cvc5ostreamlsISt6vectorINS0_12NodeTemplateILb1EEESaIS5_EEEERS1_RKT_ = comdat any

$_ZN4cvc58internal11Cvc5ostreamlsIA2_cEERS1_RKT_ = comdat any

$_ZNSt6vectorIN4cvc58internal12NodeTemplateILb1EEESaIS3_EE5clearEv = comdat any

$_ZNSt6vectorIN4cvc58internal12NodeTemplateILb1EEESaIS3_EE6insertIN9__gnu_cxx17__normal_iteratorIPS3_S5_EEvEESA_NS8_IPKS3_S5_EET_SE_ = comdat any

$_ZNSt6vectorIN4cvc58internal12NodeTemplateILb1EEESaIS3_EE3endEv = comdat any

$_ZN9__gnu_cxx17__normal_iteratorIPKN4cvc58internal12NodeTemplateILb1EEESt6vectorIS4_SaIS4_EEEC2IPS4_vEERKNS0_IT_S9_EE = comdat any

$_ZNSt6vectorIN4cvc58internal12NodeTemplateILb1EEESaIS3_EE5beginEv = comdat any

$_ZN4cvc58internal11Cvc5ostreamlsIA42_cEERS1_RKT_ = comdat any

$_ZNSt6vectorIN4cvc58internal12NodeTemplateILb1EEESaIS3_EED2Ev = comdat any

$_ZN4cvc58internal11Cvc5ostreamlsIA100_cEERS1_RKT_ = comdat any

$_ZN4cvc58internal11Cvc5ostreamlsINS0_12NodeTemplateILb1EEEEERS1_RKT_ = comdat any

$_ZN4cvc58internal11Cvc5ostreamlsIA16_cEERS1_RKT_ = comdat any

$_ZNK4cvc58internal12NodeTemplateILb1EE7getKindEv = comdat any

$_ZNK4cvc58internal12NodeTemplateILb1EE8getConstIbEERKT_v = comdat any

$_ZN4cvc58internal11Cvc5ostreamlsIA55_cEERS1_RKT_ = comdat any

$_ZN4cvc58internal11Cvc5ostreamlsIA80_cEERS1_RKT_ = comdat any

$_ZN4cvc58internal11Cvc5ostreamlsIjEERS1_RKT_ = comdat any

$_ZN4cvc58internal11Cvc5ostreamlsIA4_cEERS1_RKT_ = comdat any

$_ZN4cvc58internal12NodeTemplateILb1EEC2Ev = comdat any

$_ZNK4cvc58internal12NodeTemplateILb1EE6eqNodeILb1EEES2_RKNS1_IXT_EEE = comdat any

$_ZN4cvc58internal12NodeTemplateILb1EEaSERKS2_ = comdat any

$_ZN4cvc58internal12NodeTemplateILb1EEC2ERKS2_ = comdat any

$_ZN4cvc58internal11Cvc5ostreamlsIA90_cEERS1_RKT_ = comdat any

$_ZN4cvc58internal11Cvc5ostreamlsIA5_cEERS1_RKT_ = comdat any

$_ZNSt6vectorIN4cvc58internal12NodeTemplateILb1EEESaIS3_EE9push_backEOS3_ = comdat any

$_ZN4cvc58internal11Cvc5ostreamlsIA75_cEERS1_RKT_ = comdat any

$_ZNSaIN4cvc58internal12NodeTemplateILb1EEEEC2Ev = comdat any

$_ZNSt6vectorIN4cvc58internal12NodeTemplateILb1EEESaIS3_EEC2ESt16initializer_listIS3_ERKS4_ = comdat any

$_ZNSaIN4cvc58internal12NodeTemplateILb1EEEED2Ev = comdat any

$_ZN4cvc58internal11Cvc5ostreamlsIA79_cEERS1_RKT_ = comdat any

$_ZN4cvc58internal11Cvc5ostreamlsIA6_cEERS1_RKT_ = comdat any

$_ZN4cvc58internal11Cvc5ostreamlsIA14_cEERS1_RKT_ = comdat any

$_ZNK4cvc58internal12NodeTemplateILb1EEneILb1EEEbRKNS1_IXT_EEE = comdat any

$_ZN4cvc58internal11Cvc5ostreamlsIA113_cEERS1_RKT_ = comdat any

$_ZNSt6vectorIN4cvc58internal12NodeTemplateILb1EEESaIS3_EEC2IN9__gnu_cxx17__normal_iteratorIPS3_S5_EEvEET_SB_RKS4_ = comdat any

$_ZN4cvc58internal13OstreamVoiderC2Ev = comdat any

$_ZN4cvc58internal13OstreamVoideranERSo = comdat any

$_ZN4cvc58internallsILb1EEERSoS2_RKSt6vectorINS0_12NodeTemplateIXT_EEESaIS5_EE = comdat any

$_ZN4cvc58internal11Cvc5ostreamlsIA107_cEERS1_RKT_ = comdat any

$_ZN4cvc58internal11Cvc5ostreamlsIA46_cEERS1_RKT_ = comdat any

$_ZNKSt13unordered_setIN4cvc58internal12NodeTemplateILb1EEESt4hashIS3_ESt8equal_toIS3_ESaIS3_EE5countERKS3_ = comdat any

$_ZN4cvc58internal11Cvc5ostreamlsIA66_cEERS1_RKT_ = comdat any

$_ZN4cvc58internal11Cvc5ostreamlsIA9_cEERS1_RKT_ = comdat any

$_ZN4cvc58internal11Cvc5ostreamlsIA61_cEERS1_RKT_ = comdat any

$_ZN4cvc58internal11Cvc5ostreamlsIA72_cEERS1_RKT_ = comdat any

$_ZN4cvc58internal11Cvc5ostreamlsIA68_cEERS1_RKT_ = comdat any

$_ZN4cvc58internal11Cvc5ostreamlsIPKcEERS1_RKT_ = comdat any

$_ZN4cvc58internal11Cvc5ostreamlsIA23_cEERS1_RKT_ = comdat any

$_ZN4cvc58internal11NodeManager6mkNodeENS0_4kind6Kind_tENS0_12NodeTemplateILb0EEES5_ = comdat any

$_ZN4cvc58internal11Cvc5ostreamlsIA69_cEERS1_RKT_ = comdat any

$_ZNSt6vectorIN4cvc58internal12NodeTemplateILb1EEESaIS3_EE6insertEN9__gnu_cxx17__normal_iteratorIPKS3_S5_EERS8_ = comdat any

$_ZN4cvc58internal11Cvc5ostreamlsIA71_cEERS1_RKT_ = comdat any

$_ZN4cvc58internal11Cvc5ostreamlsIA74_cEERS1_RKT_ = comdat any

$_ZN4cvc58internal11Cvc5ostreamlsINS_9ProofRuleEEERS1_RKT_ = comdat any

$_ZN4cvc58internal11Cvc5ostreamlsIA11_cEERS1_RKT_ = comdat any

$_ZN4cvc58internal11Cvc5ostreamlsIA7_cEERS1_RKT_ = comdat any

$_ZN4cvc58internal11Cvc5ostreamlsIA118_cEERS1_RKT_ = comdat any

$_ZN9__gnu_cxxneIPN4cvc58internal12NodeTemplateILb1EEESt6vectorIS4_SaIS4_EEEEbRKNS_17__normal_iteratorIT_T0_EESE_ = comdat any

$_ZNK9__gnu_cxx17__normal_iteratorIPN4cvc58internal12NodeTemplateILb1EEESt6vectorIS4_SaIS4_EEEdeEv = comdat any

$_ZN9__gnu_cxx17__normal_iteratorIPN4cvc58internal12NodeTemplateILb1EEESt6vectorIS4_SaIS4_EEEppEv = comdat any

$_ZN4cvc58internal11NodeManager6mkNodeILb1EEENS0_12NodeTemplateILb1EEENS0_4kind6Kind_tERKSt6vectorINS3_IXT_EEESaIS8_EE = comdat any

$_ZN4cvc58internal11Cvc5ostreamlsIA59_cEERS1_RKT_ = comdat any

$_ZN4cvc58internal11Cvc5ostreamlsIA60_cEERS1_RKT_ = comdat any

$_ZN4cvc58internal11Cvc5ostreamlsEPFRS1_S2_E = comdat any

$_ZN4cvc58internal4pushERNS0_11Cvc5ostreamE = comdat any

$_ZN4cvc58internal11Cvc5ostreamlsIA50_cEERS1_RKT_ = comdat any

$_ZN4cvc58internal11Cvc5ostreamlsIA40_cEERS1_RKT_ = comdat any

$_ZN4cvc58internal11Cvc5ostreamlsIA18_cEERS1_RKT_ = comdat any

$_ZN4cvc58internal11Cvc5ostreamlsIA33_cEERS1_RKT_ = comdat any

$_ZN4cvc58internal3popERNS0_11Cvc5ostreamE = comdat any

$_ZN4cvc58internal11Cvc5ostreamlsIA57_cEERS1_RKT_ = comdat any

$_ZN4cvc58internal11Cvc5ostreamlsIA52_cEERS1_RKT_ = comdat any

$_ZN4cvc58internal11Cvc5ostreamlsIA47_cEERS1_RKT_ = comdat any

$_ZN4cvc58internal11Cvc5ostreamlsIA78_cEERS1_RKT_ = comdat any

$_ZNSt6vectorIS_IN4cvc58internal12NodeTemplateILb1EEESaIS3_EESaIS5_EEixEm = comdat any

$_ZN4cvc58internal11Cvc5ostreamlsIA51_cEERS1_RKT_ = comdat any

$_ZNSt6vectorIN4cvc58internal12NodeTemplateILb1EEESaIS3_EE4backEv = comdat any

$_ZN4cvc58internal11Cvc5ostreamlsIA53_cEERS1_RKT_ = comdat any

$_ZN4cvc58internal11Cvc5ostreamlsIA87_cEERS1_RKT_ = comdat any

$_ZN4cvc58internal11Cvc5ostreamlsIA49_cEERS1_RKT_ = comdat any

$_ZN4cvc58internal11Cvc5ostreamlsIA41_cEERS1_RKT_ = comdat any

$_ZN4cvc58internal11Cvc5ostreamlsIA35_cEERS1_RKT_ = comdat any

$_ZN4cvc58internal11Cvc5ostreamlsIA38_cEERS1_RKT_ = comdat any

$_ZNSt13unordered_mapIN4cvc58internal12NodeTemplateILb1EEES3_St4hashIS3_ESt8equal_toIS3_ESaISt4pairIKS3_S3_EEEC2Ev = comdat any

$_ZNSt13unordered_setIN4cvc58internal12NodeTemplateILb1EEESt4hashIS3_ESt8equal_toIS3_ESaIS3_EEC2Ev = comdat any

$_ZN4cvc58internal11Cvc5ostreamlsIA43_cEERS1_RKT_ = comdat any

$_ZN4cvc58internal11Cvc5ostreamlsISt13unordered_setINS0_12NodeTemplateILb1EEESt4hashIS5_ESt8equal_toIS5_ESaIS5_EEEERS1_RKT_ = comdat any

$_ZNK4cvc58internal12NodeTemplateILb1EE7notNodeEv = comdat any

$_ZN4cvc58internal11Cvc5ostreamlsIA31_cEERS1_RKT_ = comdat any

$_ZNSt13unordered_setIN4cvc58internal12NodeTemplateILb1EEESt4hashIS3_ESt8equal_toIS3_ESaIS3_EED2Ev = comdat any

$_ZNSt13unordered_mapIN4cvc58internal12NodeTemplateILb1EEES3_St4hashIS3_ESt8equal_toIS3_ESaISt4pairIKS3_S3_EEED2Ev = comdat any

$_ZNSt13unordered_mapIN4cvc58internal12NodeTemplateILb1EEES3_St4hashIS3_ESt8equal_toIS3_ESaISt4pairIKS3_S3_EEE4findERS9_ = comdat any

$_ZNSt8__detail20_Node_const_iteratorISt4pairIKN4cvc58internal12NodeTemplateILb1EEES5_ELb0ELb1EEC2ERKNS_14_Node_iteratorIS7_Lb0ELb1EEE = comdat any

$_ZNSt8__detailneERKNS_19_Node_iterator_baseISt4pairIKN4cvc58internal12NodeTemplateILb1EEES5_ELb1EEESA_ = comdat any

$_ZNSt13unordered_mapIN4cvc58internal12NodeTemplateILb1EEES3_St4hashIS3_ESt8equal_toIS3_ESaISt4pairIKS3_S3_EEE3endEv = comdat any

$_ZN4cvc58internal11Cvc5ostreamlsIA13_cEERS1_RKT_ = comdat any

$_ZNKSt8__detail20_Node_const_iteratorISt4pairIKN4cvc58internal12NodeTemplateILb1EEES5_ELb0ELb1EEptEv = comdat any

$_ZN4cvc58internal11Cvc5ostreamlsINS0_6theory2eq15MergeReasonTypeEEERS1_RKT_ = comdat any

$_ZN4cvc58internal11Cvc5ostreamlsIA44_cEERS1_RKT_ = comdat any

$_ZNSt13unordered_setIN4cvc58internal12NodeTemplateILb1EEESt4hashIS3_ESt8equal_toIS3_ESaIS3_EE6insertERKS3_ = comdat any

$_ZNSt13unordered_setIN4cvc58internal12NodeTemplateILb1EEESt4hashIS3_ESt8equal_toIS3_ESaIS3_EE6insertEOS3_ = comdat any

$_ZN4cvc58internal11Cvc5ostreamlsIA29_cEERS1_RKT_ = comdat any

$_ZN4cvc58internal11Cvc5ostreamlsIA3_cEERS1_RKT_ = comdat any

$_ZNSt13unordered_mapIN4cvc58internal12NodeTemplateILb1EEES3_St4hashIS3_ESt8equal_toIS3_ESaISt4pairIKS3_S3_EEEixERS9_ = comdat any

$_ZN4cvc58internal11Cvc5ostreamlsIA32_cEERS1_RKT_ = comdat any

$_ZN4cvc58internal11Cvc5ostreamlsIA39_cEERS1_RKT_ = comdat any

$_ZNK4cvc58internal12NodeTemplateILb1EE14getNumChildrenEv = comdat any

$_ZNK4cvc58internal12NodeTemplateILb1EE11getMetaKindEv = comdat any

$_ZNSt6vectorIN4cvc58internal12NodeTemplateILb1EEESaIS3_EE6insertEN9__gnu_cxx17__normal_iteratorIPKS3_S5_EEOS3_ = comdat any

$_ZNK4cvc58internal12NodeTemplateILb1EE11getOperatorEv = comdat any

$_ZN4cvc58internal11Cvc5ostreamlsIA30_cEERS1_RKT_ = comdat any

$_ZNKSt12__shared_ptrIN4cvc58internal6theory2eq7EqProofELN9__gnu_cxx12_Lock_policyE2EE3getEv = comdat any

$_ZN4cvc58internal11Cvc5ostreamlsIA34_cEERS1_RKT_ = comdat any

$_ZNSt6vectorISt10shared_ptrIN4cvc58internal6theory2eq7EqProofEESaIS6_EEixEm = comdat any

$_ZNSt6vectorIS_IN4cvc58internal12NodeTemplateILb1EEESaIS3_EESaIS5_EEC2Ev = comdat any

$_ZNSt6vectorIS_IN4cvc58internal12NodeTemplateILb1EEESaIS3_EESaIS5_EE9push_backEOS5_ = comdat any

$_ZNKSt6vectorIN4cvc58internal12NodeTemplateILb1EEESaIS3_EE5emptyEv = comdat any

$_ZN4cvc58internal11Cvc5ostreamlsIA28_cEERS1_RKT_ = comdat any

$_ZNSt6vectorIS_IN4cvc58internal12NodeTemplateILb1EEESaIS3_EESaIS5_EE5beginEv = comdat any

$_ZNK9__gnu_cxx17__normal_iteratorIPSt6vectorIN4cvc58internal12NodeTemplateILb1EEESaIS5_EES1_IS7_SaIS7_EEEplEl = comdat any

$_ZNSt6vectorIS_IN4cvc58internal12NodeTemplateILb1EEESaIS3_EESaIS5_EE3endEv = comdat any

$_ZNSaISt6vectorIN4cvc58internal12NodeTemplateILb1EEESaIS3_EEEC2Ev = comdat any

$_ZNSt6vectorIS_IN4cvc58internal12NodeTemplateILb1EEESaIS3_EESaIS5_EEC2IN9__gnu_cxx17__normal_iteratorIPS5_S7_EEvEET_SD_RKS6_ = comdat any

$_ZNSaISt6vectorIN4cvc58internal12NodeTemplateILb1EEESaIS3_EEED2Ev = comdat any

$_ZNSt6vectorIS_IN4cvc58internal12NodeTemplateILb1EEESaIS3_EESaIS5_EE5clearEv = comdat any

$_ZNSt6vectorIS_IN4cvc58internal12NodeTemplateILb1EEESaIS3_EESaIS5_EE6insertIN9__gnu_cxx17__normal_iteratorIPS5_S7_EEvEESC_NSA_IPKS5_S7_EET_SG_ = comdat any

$_ZN9__gnu_cxx17__normal_iteratorIPKSt6vectorIN4cvc58internal12NodeTemplateILb1EEESaIS5_EES1_IS7_SaIS7_EEEC2IPS7_vEERKNS0_IT_SB_EE = comdat any

$_ZN4cvc58internal12NodeTemplateILb1EE5beginEv = comdat any

$_ZN4cvc58internal4expr9NodeValue8iteratorINS0_12NodeTemplateILb1EEEEplEl = comdat any

$_ZNSt6vectorIN4cvc58internal12NodeTemplateILb1EEESaIS3_EEC2INS1_4expr9NodeValue8iteratorIS3_EEvEET_SB_RKS4_ = comdat any

$_ZNSt6vectorIN4cvc58internal12NodeTemplateILb1EEESaIS3_EE6insertINS1_4expr9NodeValue8iteratorIS3_EEvEEN9__gnu_cxx17__normal_iteratorIPS3_S5_EENSC_IPKS3_S5_EET_SI_ = comdat any

$_ZN4cvc58internal12NodeTemplateILb1EE3endEv = comdat any

$_ZNSt6vectorIS_IN4cvc58internal12NodeTemplateILb1EEESaIS3_EESaIS5_EED2Ev = comdat any

$_ZNK4cvc58internal6TraceC4isOnERKNSt7__cxx1112basic_stringIcSt11char_traitsIcESaIcEEE = comdat any

$_ZNSt7__cxx1112basic_stringIcSt11char_traitsIcESaIcEEC2IS3_EEPKcRKS3_ = comdat any

$_ZN4cvc58internal11Cvc5ostreamlsIA22_cEERS1_RKT_ = comdat any

$_ZN4cvc58internal11Cvc5ostreamlsIA10_cEERS1_RKT_ = comdat any

$_ZNSt6vectorIN4cvc58internal12NodeTemplateILb1EEESaIS3_EEC2EmRKS4_ = comdat any

$_ZNSt6vectorIN4cvc58internal12NodeTemplateILb1EEESaIS3_EE5eraseEN9__gnu_cxx17__normal_iteratorIPKS3_S5_EE = comdat any

$_ZN4cvc58internal11Cvc5ostreamlsIA15_cEERS1_RKT_ = comdat any

$_ZN4cvc58internal12NodeTemplateILb1EE4nullEv = comdat any

$_ZN4cvc58internal12NodeTemplateILb1EE6s_nullE = comdat any

$_ZN4cvc58internal4expr9NodeValue4nullEv = comdat any

$_ZN4cvc58internal12NodeTemplateILb1EEC2EPKNS0_4expr9NodeValueE = comdat any

$_ZN4cvc58internal11Cvc5ostreamC2Ev = comdat any

$_ZN4cvc58internal11Cvc5ostreamC2EPSo = comdat any

$_ZNK4cvc58internal12NodeTemplateILb0EE8toStreamERSo = comdat any

$_ZNK4cvc58internal12NodeTemplateILb0EE21assertTNodeNotExpiredEv = comdat any

$_ZNSt12_Vector_baseIN4cvc58internal12NodeTemplateILb1EEESaIS3_EEC2Ev = comdat any

$_ZNSt12_Vector_baseIN4cvc58internal12NodeTemplateILb1EEESaIS3_EE12_Vector_implC2Ev = comdat any

$_ZNSt15__new_allocatorIN4cvc58internal12NodeTemplateILb1EEEEC2Ev = comdat any

$_ZN4cvc58internal12NodeTemplateILb0EEC2ERKS2_ = comdat any

$_ZN4cvc58internal11Cvc5ostream10pushIndentEv = comdat any

$_ZNSt8ios_base5iwordEi = comdat any

$_ZN4cvc58internal11Cvc5ostream9popIndentEv = comdat any

$_ZNSt10_HashtableIN4cvc58internal12NodeTemplateILb1EEESt4pairIKS3_S3_ESaIS6_ENSt8__detail10_Select1stESt8equal_toIS3_ESt4hashIS3_ENS8_18_Mod_range_hashingENS8_20_Default_ranged_hashENS8_20_Prime_rehash_policyENS8_17_Hashtable_traitsILb1ELb0ELb1EEEEC2Ev = comdat any

$_ZNSt8__detail15_Hashtable_baseIN4cvc58internal12NodeTemplateILb1EEESt4pairIKS4_S4_ENS_10_Select1stESt8equal_toIS4_ESt4hashIS4_ENS_18_Mod_range_hashingENS_20_Default_ranged_hashENS_17_Hashtable_traitsILb1ELb0ELb1EEEEC2Ev = comdat any

$_ZNSt8__detail16_Hashtable_allocISaINS_10_Hash_nodeISt4pairIKN4cvc58internal12NodeTemplateILb1EEES6_ELb1EEEEEC2Ev = comdat any

$_ZNSt8__detail15_Hash_node_baseC2Ev = comdat any

$_ZNSt8__detail20_Prime_rehash_policyC2Ef = comdat any

$_ZNSt8__detail15_Hash_code_baseIN4cvc58internal12NodeTemplateILb1EEESt4pairIKS4_S4_ENS_10_Select1stESt4hashIS4_ENS_18_Mod_range_hashingENS_20_Default_ranged_hashELb1EEC2Ev = comdat any

$_ZNSt8__detail21_Hashtable_ebo_helperILi0ESt8equal_toIN4cvc58internal12NodeTemplateILb1EEEELb1EEC2Ev = comdat any

$_ZNSt8__detail21_Hashtable_ebo_helperILi1ESt4hashIN4cvc58internal12NodeTemplateILb1EEEELb1EEC2Ev = comdat any

$_ZNSt8__detail21_Hashtable_ebo_helperILi0ESaINS_10_Hash_nodeISt4pairIKN4cvc58internal12NodeTemplateILb1EEES6_ELb1EEEELb1EEC2Ev = comdat any

$_ZNSaINSt8__detail10_Hash_nodeISt4pairIKN4cvc58internal12NodeTemplateILb1EEES5_ELb1EEEEC2Ev = comdat any

$_ZNSt15__new_allocatorINSt8__detail10_Hash_nodeISt4pairIKN4cvc58internal12NodeTemplateILb1EEES6_ELb1EEEEC2Ev = comdat any

$_ZNSt10_HashtableIN4cvc58internal12NodeTemplateILb1EEES3_SaIS3_ENSt8__detail9_IdentityESt8equal_toIS3_ESt4hashIS3_ENS5_18_Mod_range_hashingENS5_20_Default_ranged_hashENS5_20_Prime_rehash_policyENS5_17_Hashtable_traitsILb1ELb1ELb1EEEEC2Ev = comdat any

$_ZNSt8__detail15_Hashtable_baseIN4cvc58internal12NodeTemplateILb1EEES4_NS_9_IdentityESt8equal_toIS4_ESt4hashIS4_ENS_18_Mod_range_hashingENS_20_Default_ranged_hashENS_17_Hashtable_traitsILb1ELb1ELb1EEEEC2Ev = comdat any

$_ZNSt8__detail16_Hashtable_allocISaINS_10_Hash_nodeIN4cvc58internal12NodeTemplateILb1EEELb1EEEEEC2Ev = comdat any

$_ZNSt8__detail15_Hash_code_baseIN4cvc58internal12NodeTemplateILb1EEES4_NS_9_IdentityESt4hashIS4_ENS_18_Mod_range_hashingENS_20_Default_ranged_hashELb1EEC2Ev = comdat any

$_ZNSt8__detail21_Hashtable_ebo_helperILi0ESaINS_10_Hash_nodeIN4cvc58internal12NodeTemplateILb1EEELb1EEEELb1EEC2Ev = comdat any

$_ZNSaINSt8__detail10_Hash_nodeIN4cvc58internal12NodeTemplateILb1EEELb1EEEEC2Ev = comdat any

$_ZNSt15__new_allocatorINSt8__detail10_Hash_nodeIN4cvc58internal12NodeTemplateILb1EEELb1EEEEC2Ev = comdat any

$_ZNSt10_HashtableIN4cvc58internal12NodeTemplateILb1EEES3_SaIS3_ENSt8__detail9_IdentityESt8equal_toIS3_ESt4hashIS3_ENS5_18_Mod_range_hashingENS5_20_Default_ranged_hashENS5_20_Prime_rehash_policyENS5_17_Hashtable_traitsILb1ELb1ELb1EEEED2Ev = comdat any

$_ZNSt10_HashtableIN4cvc58internal12NodeTemplateILb1EEES3_SaIS3_ENSt8__detail9_IdentityESt8equal_toIS3_ESt4hashIS3_ENS5_18_Mod_range_hashingENS5_20_Default_ranged_hashENS5_20_Prime_rehash_policyENS5_17_Hashtable_traitsILb1ELb1ELb1EEEE5clearEv = comdat any

$_ZNSt10_HashtableIN4cvc58internal12NodeTemplateILb1EEES3_SaIS3_ENSt8__detail9_IdentityESt8equal_toIS3_ESt4hashIS3_ENS5_18_Mod_range_hashingENS5_20_Default_ranged_hashENS5_20_Prime_rehash_policyENS5_17_Hashtable_traitsILb1ELb1ELb1EEEE21_M_deallocate_bucketsEv = comdat any

$__clang_call_terminate = comdat any

$_ZNSt8__detail16_Hashtable_allocISaINS_10_Hash_nodeIN4cvc58internal12NodeTemplateILb1EEELb1EEEEED2Ev = comdat any

$_ZNSt8__detail16_Hashtable_allocISaINS_10_Hash_nodeIN4cvc58internal12NodeTemplateILb1EEELb1EEEEE19_M_deallocate_nodesEPS6_ = comdat any

$_ZNKSt10_HashtableIN4cvc58internal12NodeTemplateILb1EEES3_SaIS3_ENSt8__detail9_IdentityESt8equal_toIS3_ESt4hashIS3_ENS5_18_Mod_range_hashingENS5_20_Default_ranged_hashENS5_20_Prime_rehash_policyENS5_17_Hashtable_traitsILb1ELb1ELb1EEEE8_M_beginEv = comdat any

$_ZNKSt8__detail10_Hash_nodeIN4cvc58internal12NodeTemplateILb1EEELb1EE7_M_nextEv = comdat any

$_ZNSt8__detail16_Hashtable_allocISaINS_10_Hash_nodeIN4cvc58internal12NodeTemplateILb1EEELb1EEEEE18_M_deallocate_nodeEPS6_ = comdat any

$_ZNSt16allocator_traitsISaINSt8__detail10_Hash_nodeIN4cvc58internal12NodeTemplateILb1EEELb1EEEEE7destroyIS5_EEvRS7_PT_ = comdat any

$_ZNSt8__detail16_Hashtable_allocISaINS_10_Hash_nodeIN4cvc58internal12NodeTemplateILb1EEELb1EEEEE17_M_node_allocatorEv = comdat any

$_ZNSt8__detail21_Hash_node_value_baseIN4cvc58internal12NodeTemplateILb1EEEE9_M_valptrEv = comdat any

$_ZNSt8__detail16_Hashtable_allocISaINS_10_Hash_nodeIN4cvc58internal12NodeTemplateILb1EEELb1EEEEE22_M_deallocate_node_ptrEPS6_ = comdat any

$_ZNSt15__new_allocatorINSt8__detail10_Hash_nodeIN4cvc58internal12NodeTemplateILb1EEELb1EEEE7destroyIS5_EEvPT_ = comdat any

$_ZNSt8__detail21_Hashtable_ebo_helperILi0ESaINS_10_Hash_nodeIN4cvc58internal12NodeTemplateILb1EEELb1EEEELb1EE6_M_getEv = comdat any

$_ZN9__gnu_cxx16__aligned_bufferIN4cvc58internal12NodeTemplateILb1EEEE6_M_ptrEv = comdat any

$_ZN9__gnu_cxx16__aligned_bufferIN4cvc58internal12NodeTemplateILb1EEEE7_M_addrEv = comdat any

$_ZNSt19__ptr_traits_ptr_toIPNSt8__detail10_Hash_nodeIN4cvc58internal12NodeTemplateILb1EEELb1EEES6_Lb0EE10pointer_toERS6_ = comdat any

$_ZNSt16allocator_traitsISaINSt8__detail10_Hash_nodeIN4cvc58internal12NodeTemplateILb1EEELb1EEEEE10deallocateERS7_PS6_m = comdat any

$_ZNSt15__new_allocatorINSt8__detail10_Hash_nodeIN4cvc58internal12NodeTemplateILb1EEELb1EEEE10deallocateEPS6_m = comdat any

$_ZNSt10_HashtableIN4cvc58internal12NodeTemplateILb1EEES3_SaIS3_ENSt8__detail9_IdentityESt8equal_toIS3_ESt4hashIS3_ENS5_18_Mod_range_hashingENS5_20_Default_ranged_hashENS5_20_Prime_rehash_policyENS5_17_Hashtable_traitsILb1ELb1ELb1EEEE21_M_deallocate_bucketsEPPNS5_15_Hash_node_baseEm = comdat any

$_ZNKSt10_HashtableIN4cvc58internal12NodeTemplateILb1EEES3_SaIS3_ENSt8__detail9_IdentityESt8equal_toIS3_ESt4hashIS3_ENS5_18_Mod_range_hashingENS5_20_Default_ranged_hashENS5_20_Prime_rehash_policyENS5_17_Hashtable_traitsILb1ELb1ELb1EEEE21_M_uses_single_bucketEPPNS5_15_Hash_node_baseE = comdat any

$_ZNSt8__detail16_Hashtable_allocISaINS_10_Hash_nodeIN4cvc58internal12NodeTemplateILb1EEELb1EEEEE21_M_deallocate_bucketsEPPNS_15_Hash_node_baseEm = comdat any

$_ZNSt19__ptr_traits_ptr_toIPPNSt8__detail15_Hash_node_baseES2_Lb0EE10pointer_toERS2_ = comdat any

$_ZNSaIPNSt8__detail15_Hash_node_baseEEC2INS_10_Hash_nodeIN4cvc58internal12NodeTemplateILb1EEELb1EEEEERKSaIT_E = comdat any

$_ZNSt16allocator_traitsISaIPNSt8__detail15_Hash_node_baseEEE10deallocateERS3_PS2_m = comdat any

$_ZNSaIPNSt8__detail15_Hash_node_baseEED2Ev = comdat any

$_ZNSt15__new_allocatorIPNSt8__detail15_Hash_node_baseEEC2Ev = comdat any

$_ZNSt15__new_allocatorIPNSt8__detail15_Hash_node_baseEE10deallocateEPS2_m = comdat any

$_ZNSt15__new_allocatorIPNSt8__detail15_Hash_node_baseEED2Ev = comdat any

$_ZNSt8__detail21_Hashtable_ebo_helperILi0ESaINS_10_Hash_nodeIN4cvc58internal12NodeTemplateILb1EEELb1EEEELb1EED2Ev = comdat any

$_ZNSaINSt8__detail10_Hash_nodeIN4cvc58internal12NodeTemplateILb1EEELb1EEEED2Ev = comdat any

$_ZNSt15__new_allocatorINSt8__detail10_Hash_nodeIN4cvc58internal12NodeTemplateILb1EEELb1EEEED2Ev = comdat any

$_ZNSt10_HashtableIN4cvc58internal12NodeTemplateILb1EEESt4pairIKS3_S3_ESaIS6_ENSt8__detail10_Select1stESt8equal_toIS3_ESt4hashIS3_ENS8_18_Mod_range_hashingENS8_20_Default_ranged_hashENS8_20_Prime_rehash_policyENS8_17_Hashtable_traitsILb1ELb0ELb1EEEED2Ev = comdat any

$_ZNSt10_HashtableIN4cvc58internal12NodeTemplateILb1EEESt4pairIKS3_S3_ESaIS6_ENSt8__detail10_Select1stESt8equal_toIS3_ESt4hashIS3_ENS8_18_Mod_range_hashingENS8_20_Default_ranged_hashENS8_20_Prime_rehash_policyENS8_17_Hashtable_traitsILb1ELb0ELb1EEEE5clearEv = comdat any

$_ZNSt10_HashtableIN4cvc58internal12NodeTemplateILb1EEESt4pairIKS3_S3_ESaIS6_ENSt8__detail10_Select1stESt8equal_toIS3_ESt4hashIS3_ENS8_18_Mod_range_hashingENS8_20_Default_ranged_hashENS8_20_Prime_rehash_policyENS8_17_Hashtable_traitsILb1ELb0ELb1EEEE21_M_deallocate_bucketsEv = comdat any

$_ZNSt8__detail16_Hashtable_allocISaINS_10_Hash_nodeISt4pairIKN4cvc58internal12NodeTemplateILb1EEES6_ELb1EEEEED2Ev = comdat any

$_ZNSt8__detail16_Hashtable_allocISaINS_10_Hash_nodeISt4pairIKN4cvc58internal12NodeTemplateILb1EEES6_ELb1EEEEE19_M_deallocate_nodesEPS9_ = comdat any

$_ZNKSt10_HashtableIN4cvc58internal12NodeTemplateILb1EEESt4pairIKS3_S3_ESaIS6_ENSt8__detail10_Select1stESt8equal_toIS3_ESt4hashIS3_ENS8_18_Mod_range_hashingENS8_20_Default_ranged_hashENS8_20_Prime_rehash_policyENS8_17_Hashtable_traitsILb1ELb0ELb1EEEE8_M_beginEv = comdat any

$_ZNKSt8__detail10_Hash_nodeISt4pairIKN4cvc58internal12NodeTemplateILb1EEES5_ELb1EE7_M_nextEv = comdat any

$_ZNSt8__detail16_Hashtable_allocISaINS_10_Hash_nodeISt4pairIKN4cvc58internal12NodeTemplateILb1EEES6_ELb1EEEEE18_M_deallocate_nodeEPS9_ = comdat any

$_ZNSt16allocator_traitsISaINSt8__detail10_Hash_nodeISt4pairIKN4cvc58internal12NodeTemplateILb1EEES6_ELb1EEEEE7destroyIS8_EEvRSA_PT_ = comdat any

$_ZNSt8__detail16_Hashtable_allocISaINS_10_Hash_nodeISt4pairIKN4cvc58internal12NodeTemplateILb1EEES6_ELb1EEEEE17_M_node_allocatorEv = comdat any

$_ZNSt8__detail21_Hash_node_value_baseISt4pairIKN4cvc58internal12NodeTemplateILb1EEES5_EE9_M_valptrEv = comdat any

$_ZNSt8__detail16_Hashtable_allocISaINS_10_Hash_nodeISt4pairIKN4cvc58internal12NodeTemplateILb1EEES6_ELb1EEEEE22_M_deallocate_node_ptrEPS9_ = comdat any

$_ZNSt15__new_allocatorINSt8__detail10_Hash_nodeISt4pairIKN4cvc58internal12NodeTemplateILb1EEES6_ELb1EEEE7destroyIS8_EEvPT_ = comdat any

$_ZNSt4pairIKN4cvc58internal12NodeTemplateILb1EEES3_ED2Ev = comdat any

$_ZNSt8__detail21_Hashtable_ebo_helperILi0ESaINS_10_Hash_nodeISt4pairIKN4cvc58internal12NodeTemplateILb1EEES6_ELb1EEEELb1EE6_M_getEv = comdat any

$_ZN9__gnu_cxx16__aligned_bufferISt4pairIKN4cvc58internal12NodeTemplateILb1EEES5_EE6_M_ptrEv = comdat any

$_ZN9__gnu_cxx16__aligned_bufferISt4pairIKN4cvc58internal12NodeTemplateILb1EEES5_EE7_M_addrEv = comdat any

$_ZNSt19__ptr_traits_ptr_toIPNSt8__detail10_Hash_nodeISt4pairIKN4cvc58internal12NodeTemplateILb1EEES6_ELb1EEES9_Lb0EE10pointer_toERS9_ = comdat any

$_ZNSt16allocator_traitsISaINSt8__detail10_Hash_nodeISt4pairIKN4cvc58internal12NodeTemplateILb1EEES6_ELb1EEEEE10deallocateERSA_PS9_m = comdat any

$_ZNSt15__new_allocatorINSt8__detail10_Hash_nodeISt4pairIKN4cvc58internal12NodeTemplateILb1EEES6_ELb1EEEE10deallocateEPS9_m = comdat any

$_ZNSt10_HashtableIN4cvc58internal12NodeTemplateILb1EEESt4pairIKS3_S3_ESaIS6_ENSt8__detail10_Select1stESt8equal_toIS3_ESt4hashIS3_ENS8_18_Mod_range_hashingENS8_20_Default_ranged_hashENS8_20_Prime_rehash_policyENS8_17_Hashtable_traitsILb1ELb0ELb1EEEE21_M_deallocate_bucketsEPPNS8_15_Hash_node_baseEm = comdat any

$_ZNKSt10_HashtableIN4cvc58internal12NodeTemplateILb1EEESt4pairIKS3_S3_ESaIS6_ENSt8__detail10_Select1stESt8equal_toIS3_ESt4hashIS3_ENS8_18_Mod_range_hashingENS8_20_Default_ranged_hashENS8_20_Prime_rehash_policyENS8_17_Hashtable_traitsILb1ELb0ELb1EEEE21_M_uses_single_bucketEPPNS8_15_Hash_node_baseE = comdat any

$_ZNSt8__detail16_Hashtable_allocISaINS_10_Hash_nodeISt4pairIKN4cvc58internal12NodeTemplateILb1EEES6_ELb1EEEEE21_M_deallocate_bucketsEPPNS_15_Hash_node_baseEm = comdat any

$_ZNSaIPNSt8__detail15_Hash_node_baseEEC2INS_10_Hash_nodeISt4pairIKN4cvc58internal12NodeTemplateILb1EEES9_ELb1EEEEERKSaIT_E = comdat any

$_ZNSt8__detail21_Hashtable_ebo_helperILi0ESaINS_10_Hash_nodeISt4pairIKN4cvc58internal12NodeTemplateILb1EEES6_ELb1EEEELb1EED2Ev = comdat any

$_ZNSaINSt8__detail10_Hash_nodeISt4pairIKN4cvc58internal12NodeTemplateILb1EEES5_ELb1EEEED2Ev = comdat any

$_ZNSt15__new_allocatorINSt8__detail10_Hash_nodeISt4pairIKN4cvc58internal12NodeTemplateILb1EEES6_ELb1EEEED2Ev = comdat any

$_ZNSt12_Vector_baseISt6vectorIN4cvc58internal12NodeTemplateILb1EEESaIS4_EESaIS6_EEC2Ev = comdat any

$_ZNSt12_Vector_baseISt6vectorIN4cvc58internal12NodeTemplateILb1EEESaIS4_EESaIS6_EE12_Vector_implC2Ev = comdat any

$_ZNSt12_Vector_baseISt6vectorIN4cvc58internal12NodeTemplateILb1EEESaIS4_EESaIS6_EE17_Vector_impl_dataC2Ev = comdat any

$_ZNSt15__new_allocatorISt6vectorIN4cvc58internal12NodeTemplateILb1EEESaIS4_EEEC2Ev = comdat any

$_ZNKSt6vectorINSt7__cxx1112basic_stringIcSt11char_traitsIcESaIcEEESaIS5_EE5emptyEv = comdat any

$_ZN9__gnu_cxxneIPKNSt7__cxx1112basic_stringIcSt11char_traitsIcESaIcEEESt6vectorIS6_SaIS6_EEEEbRKNS_17__normal_iteratorIT_T0_EESH_ = comdat any

$_ZSt4findIN9__gnu_cxx17__normal_iteratorIPKNSt7__cxx1112basic_stringIcSt11char_traitsIcESaIcEEESt6vectorIS7_SaIS7_EEEES7_ET_SE_SE_RKT0_ = comdat any

$_ZNKSt6vectorINSt7__cxx1112basic_stringIcSt11char_traitsIcESaIcEEESaIS5_EE5beginEv = comdat any

$_ZNKSt6vectorINSt7__cxx1112basic_stringIcSt11char_traitsIcESaIcEEESaIS5_EE3endEv = comdat any

$_ZN9__gnu_cxxeqIPKNSt7__cxx1112basic_stringIcSt11char_traitsIcESaIcEEESt6vectorIS6_SaIS6_EEEEbRKNS_17__normal_iteratorIT_T0_EESH_ = comdat any

$_ZNK9__gnu_cxx17__normal_iteratorIPKNSt7__cxx1112basic_stringIcSt11char_traitsIcESaIcEEESt6vectorIS6_SaIS6_EEE4baseEv = comdat any

$_ZSt9__find_ifIN9__gnu_cxx17__normal_iteratorIPKNSt7__cxx1112basic_stringIcSt11char_traitsIcESaIcEEESt6vectorIS7_SaIS7_EEEENS0_5__ops16_Iter_equals_valIS8_EEET_SH_SH_T0_ = comdat any

$_ZN9__gnu_cxx5__ops17__iter_equals_valIKNSt7__cxx1112basic_stringIcSt11char_traitsIcESaIcEEEEENS0_16_Iter_equals_valIT_EERSA_ = comdat any

$_ZSt9__find_ifIN9__gnu_cxx17__normal_iteratorIPKNSt7__cxx1112basic_stringIcSt11char_traitsIcESaIcEEESt6vectorIS7_SaIS7_EEEENS0_5__ops16_Iter_equals_valIS8_EEET_SH_SH_T0_St26random_access_iterator_tag = comdat any

$_ZSt19__iterator_categoryIN9__gnu_cxx17__normal_iteratorIPKNSt7__cxx1112basic_stringIcSt11char_traitsIcESaIcEEESt6vectorIS7_SaIS7_EEEEENSt15iterator_traitsIT_E17iterator_categoryERKSF_ = comdat any

$_ZN9__gnu_cxxmiIPKNSt7__cxx1112basic_stringIcSt11char_traitsIcESaIcEEESt6vectorIS6_SaIS6_EEEENS_17__normal_iteratorIT_T0_E15difference_typeERKSF_SI_ = comdat any

$_ZN9__gnu_cxx5__ops16_Iter_equals_valIKNSt7__cxx1112basic_stringIcSt11char_traitsIcESaIcEEEEclINS_17__normal_iteratorIPS8_St6vectorIS7_SaIS7_EEEEEEbT_ = comdat any

$_ZN9__gnu_cxx17__normal_iteratorIPKNSt7__cxx1112basic_stringIcSt11char_traitsIcESaIcEEESt6vectorIS6_SaIS6_EEEppEv = comdat any

$_ZSteqIcEN9__gnu_cxx11__enable_ifIXsr9__is_charIT_EE7__valueEbE6__typeERKNSt7__cxx1112basic_stringIS2_St11char_traitsIS2_ESaIS2_EEESC_ = comdat any

$_ZNK9__gnu_cxx17__normal_iteratorIPKNSt7__cxx1112basic_stringIcSt11char_traitsIcESaIcEEESt6vectorIS6_SaIS6_EEEdeEv = comdat any

$_ZNSt11char_traitsIcE7compareEPKcS2_m = comdat any

$_ZN9__gnu_cxx5__ops16_Iter_equals_valIKNSt7__cxx1112basic_stringIcSt11char_traitsIcESaIcEEEEC2ERS8_ = comdat any

$_ZN9__gnu_cxx17__normal_iteratorIPKNSt7__cxx1112basic_stringIcSt11char_traitsIcESaIcEEESt6vectorIS6_SaIS6_EEEC2ERKS8_ = comdat any

$_ZNSt11char_traitsIcE6lengthEPKc = comdat any

$_ZNSt7__cxx1112basic_stringIcSt11char_traitsIcESaIcEE12_M_constructIPKcEEvT_S8_St20forward_iterator_tag = comdat any

$_ZNSt7__cxx1112basic_stringIcSt11char_traitsIcESaIcEE12_Alloc_hiderD2Ev = comdat any

$_ZSt8distanceIPKcENSt15iterator_traitsIT_E15difference_typeES3_S3_ = comdat any

$_ZZNSt7__cxx1112basic_stringIcSt11char_traitsIcESaIcEE12_M_constructIPKcEEvT_S8_St20forward_iterator_tagEN6_GuardC2EPS4_ = comdat any

$_ZZNSt7__cxx1112basic_stringIcSt11char_traitsIcESaIcEE12_M_constructIPKcEEvT_S8_St20forward_iterator_tagEN6_GuardD2Ev = comdat any

$_ZSt10__distanceIPKcENSt15iterator_traitsIT_E15difference_typeES3_S3_St26random_access_iterator_tag = comdat any

$_ZSt19__iterator_categoryIPKcENSt15iterator_traitsIT_E17iterator_categoryERKS3_ = comdat any

$_ZN4cvc58internal4expr9NodeValue3decEv = comdat any

$_ZN4cvc58internal4expr9NodeValue3incEv = comdat any

$_ZN9__gnu_cxxeqIPKSt10shared_ptrIN4cvc58internal6theory2eq7EqProofEESt6vectorIS7_SaIS7_EEEEbRKNS_17__normal_iteratorIT_T0_EESI_ = comdat any

$_ZNKSt6vectorISt10shared_ptrIN4cvc58internal6theory2eq7EqProofEESaIS6_EE5beginEv = comdat any

$_ZNKSt6vectorISt10shared_ptrIN4cvc58internal6theory2eq7EqProofEESaIS6_EE3endEv = comdat any

$_ZNK9__gnu_cxx17__normal_iteratorIPKSt10shared_ptrIN4cvc58internal6theory2eq7EqProofEESt6vectorIS7_SaIS7_EEE4baseEv = comdat any

$_ZN9__gnu_cxx17__normal_iteratorIPKSt10shared_ptrIN4cvc58internal6theory2eq7EqProofEESt6vectorIS7_SaIS7_EEEC2ERKS9_ = comdat any

$_ZNK4cvc58internal12NodeTemplateILb1EE21assertTNodeNotExpiredEv = comdat any

$_ZNKSt19__shared_ptr_accessIN4cvc58internal6theory2eq7EqProofELN9__gnu_cxx12_Lock_policyE2ELb0ELb0EE6_M_getEv = comdat any

$_ZNSt15__new_allocatorIN4cvc58internal12NodeTemplateILb1EEEED2Ev = comdat any

$_ZSt8_DestroyIPN4cvc58internal12NodeTemplateILb1EEES3_EvT_S5_RSaIT0_E = comdat any

$_ZNSt12_Vector_baseIN4cvc58internal12NodeTemplateILb1EEESaIS3_EE19_M_get_Tp_allocatorEv = comdat any

$_ZNSt12_Vector_baseIN4cvc58internal12NodeTemplateILb1EEESaIS3_EED2Ev = comdat any

$_ZSt8_DestroyIPN4cvc58internal12NodeTemplateILb1EEEEvT_S5_ = comdat any

$_ZNSt12_Destroy_auxILb0EE9__destroyIPN4cvc58internal12NodeTemplateILb1EEEEEvT_S7_ = comdat any

$_ZSt8_DestroyIN4cvc58internal12NodeTemplateILb1EEEEvPT_ = comdat any

$_ZNSt12_Vector_baseIN4cvc58internal12NodeTemplateILb1EEESaIS3_EE13_M_deallocateEPS3_m = comdat any

$_ZNSt12_Vector_baseIN4cvc58internal12NodeTemplateILb1EEESaIS3_EE12_Vector_implD2Ev = comdat any

$_ZNSt16allocator_traitsISaIN4cvc58internal12NodeTemplateILb1EEEEE10deallocateERS4_PS3_m = comdat any

$_ZNSt15__new_allocatorIN4cvc58internal12NodeTemplateILb1EEEE10deallocateEPS3_m = comdat any

$_ZNK4cvc58internal4expr9NodeValue8getChildEi = comdat any

$_ZNK4cvc58internal4expr9NodeValue11getMetaKindEv = comdat any

$_ZNK4cvc58internal4expr9NodeValue7getKindEv = comdat any

$_ZN4cvc58internal4expr9NodeValue11dKindToKindEj = comdat any

$_ZNSt16allocator_traitsISaIN4cvc58internal12NodeTemplateILb1EEEEE9constructIS3_JRKS3_EEEvRS4_PT_DpOT0_ = comdat any

$_ZNSt6vectorIN4cvc58internal12NodeTemplateILb1EEESaIS3_EE17_M_realloc_insertIJRKS3_EEEvN9__gnu_cxx17__normal_iteratorIPS3_S5_EEDpOT_ = comdat any

$_ZNSt15__new_allocatorIN4cvc58internal12NodeTemplateILb1EEEE9constructIS3_JRKS3_EEEvPT_DpOT0_ = comdat any

$_ZNKSt6vectorIN4cvc58internal12NodeTemplateILb1EEESaIS3_EE12_M_check_lenEmPKc = comdat any

$_ZN9__gnu_cxxmiIPN4cvc58internal12NodeTemplateILb1EEESt6vectorIS4_SaIS4_EEEENS_17__normal_iteratorIT_T0_E15difference_typeERKSC_SF_ = comdat any

$_ZNSt12_Vector_baseIN4cvc58internal12NodeTemplateILb1EEESaIS3_EE11_M_allocateEm = comdat any

$_ZSt34__uninitialized_move_if_noexcept_aIPN4cvc58internal12NodeTemplateILb1EEES4_SaIS3_EET0_T_S7_S6_RT1_ = comdat any

$_ZNK9__gnu_cxx17__normal_iteratorIPN4cvc58internal12NodeTemplateILb1EEESt6vectorIS4_SaIS4_EEE4baseEv = comdat any

$_ZNSt16allocator_traitsISaIN4cvc58internal12NodeTemplateILb1EEEEE7destroyIS3_EEvRS4_PT_ = comdat any

$_ZNKSt6vectorIN4cvc58internal12NodeTemplateILb1EEESaIS3_EE8max_sizeEv = comdat any

$_ZSt3maxImERKT_S2_S2_ = comdat any

$_ZNSt6vectorIN4cvc58internal12NodeTemplateILb1EEESaIS3_EE11_S_max_sizeERKS4_ = comdat any

$_ZNKSt12_Vector_baseIN4cvc58internal12NodeTemplateILb1EEESaIS3_EE19_M_get_Tp_allocatorEv = comdat any

$_ZNSt16allocator_traitsISaIN4cvc58internal12NodeTemplateILb1EEEEE8max_sizeERKS4_ = comdat any

$_ZSt3minImERKT_S2_S2_ = comdat any

$_ZNKSt15__new_allocatorIN4cvc58internal12NodeTemplateILb1EEEE8max_sizeEv = comdat any

$_ZNKSt15__new_allocatorIN4cvc58internal12NodeTemplateILb1EEEE11_M_max_sizeEv = comdat any

$_ZNSt16allocator_traitsISaIN4cvc58internal12NodeTemplateILb1EEEEE8allocateERS4_m = comdat any

$_ZNSt15__new_allocatorIN4cvc58internal12NodeTemplateILb1EEEE8allocateEmPKv = comdat any

$_ZSt22__uninitialized_copy_aIPKN4cvc58internal12NodeTemplateILb1EEEPS3_S3_ET0_T_S8_S7_RSaIT1_E = comdat any

$_ZSt32__make_move_if_noexcept_iteratorIN4cvc58internal12NodeTemplateILb1EEEPKS3_ET0_PT_ = comdat any

$_ZSt18uninitialized_copyIPKN4cvc58internal12NodeTemplateILb1EEEPS3_ET0_T_S8_S7_ = comdat any

$_ZNSt20__uninitialized_copyILb0EE13__uninit_copyIPKN4cvc58internal12NodeTemplateILb1EEEPS5_EET0_T_SA_S9_ = comdat any

$_ZSt16__do_uninit_copyIPKN4cvc58internal12NodeTemplateILb1EEEPS3_ET0_T_S8_S7_ = comdat any

$_ZSt10_ConstructIN4cvc58internal12NodeTemplateILb1EEEJRKS3_EEvPT_DpOT0_ = comdat any

$_ZNSt15__new_allocatorIN4cvc58internal12NodeTemplateILb1EEEE7destroyIS3_EEvPT_ = comdat any

$_ZNSt6vectorIN4cvc58internal12NodeTemplateILb1EEESaIS3_EE15_M_erase_at_endEPS3_ = comdat any

$_ZN9__gnu_cxx17__normal_iteratorIPN4cvc58internal12NodeTemplateILb1EEESt6vectorIS4_SaIS4_EEEC2ERKS5_ = comdat any

$_ZN9__gnu_cxxmiIPKN4cvc58internal12NodeTemplateILb1EEESt6vectorIS4_SaIS4_EEEENS_17__normal_iteratorIT_T0_E15difference_typeERKSD_SG_ = comdat any

$_ZNKSt6vectorIN4cvc58internal12NodeTemplateILb1EEESaIS3_EE6cbeginEv = comdat any

$_ZNSt6vectorIN4cvc58internal12NodeTemplateILb1EEESaIS3_EE18_M_insert_dispatchIN9__gnu_cxx17__normal_iteratorIPS3_S5_EEEEvSA_T_SB_St12__false_type = comdat any

$_ZNK9__gnu_cxx17__normal_iteratorIPN4cvc58internal12NodeTemplateILb1EEESt6vectorIS4_SaIS4_EEEplEl = comdat any

$_ZNK9__gnu_cxx17__normal_iteratorIPKN4cvc58internal12NodeTemplateILb1EEESt6vectorIS4_SaIS4_EEE4baseEv = comdat any

$_ZN9__gnu_cxx17__normal_iteratorIPKN4cvc58internal12NodeTemplateILb1EEESt6vectorIS4_SaIS4_EEEC2ERKS6_ = comdat any

$_ZNSt6vectorIN4cvc58internal12NodeTemplateILb1EEESaIS3_EE15_M_range_insertIN9__gnu_cxx17__normal_iteratorIPS3_S5_EEEEvSA_T_SB_St20forward_iterator_tag = comdat any

$_ZSt19__iterator_categoryIN9__gnu_cxx17__normal_iteratorIPN4cvc58internal12NodeTemplateILb1EEESt6vectorIS5_SaIS5_EEEEENSt15iterator_traitsIT_E17iterator_categoryERKSC_ = comdat any

$_ZSt8distanceIN9__gnu_cxx17__normal_iteratorIPN4cvc58internal12NodeTemplateILb1EEESt6vectorIS5_SaIS5_EEEEENSt15iterator_traitsIT_E15difference_typeESC_SC_ = comdat any

$_ZSt22__uninitialized_move_aIPN4cvc58internal12NodeTemplateILb1EEES4_SaIS3_EET0_T_S7_S6_RT1_ = comdat any

$_ZSt13move_backwardIPN4cvc58internal12NodeTemplateILb1EEES4_ET0_T_S6_S5_ = comdat any

$_ZSt4copyIN9__gnu_cxx17__normal_iteratorIPN4cvc58internal12NodeTemplateILb1EEESt6vectorIS5_SaIS5_EEEESA_ET0_T_SC_SB_ = comdat any

$_ZSt7advanceIN9__gnu_cxx17__normal_iteratorIPN4cvc58internal12NodeTemplateILb1EEESt6vectorIS5_SaIS5_EEEEmEvRT_T0_ = comdat any

$_ZSt22__uninitialized_copy_aIN9__gnu_cxx17__normal_iteratorIPN4cvc58internal12NodeTemplateILb1EEESt6vectorIS5_SaIS5_EEEES6_S5_ET0_T_SC_SB_RSaIT1_E = comdat any

$_ZSt10__distanceIN9__gnu_cxx17__normal_iteratorIPN4cvc58internal12NodeTemplateILb1EEESt6vectorIS5_SaIS5_EEEEENSt15iterator_traitsIT_E15difference_typeESC_SC_St26random_access_iterator_tag = comdat any

$_ZSt22__uninitialized_copy_aISt13move_iteratorIPN4cvc58internal12NodeTemplateILb1EEEES5_S4_ET0_T_S8_S7_RSaIT1_E = comdat any

$_ZSt18make_move_iteratorIPN4cvc58internal12NodeTemplateILb1EEEESt13move_iteratorIT_ES6_ = comdat any

$_ZSt18uninitialized_copyISt13move_iteratorIPN4cvc58internal12NodeTemplateILb1EEEES5_ET0_T_S8_S7_ = comdat any

$_ZNSt20__uninitialized_copyILb0EE13__uninit_copyISt13move_iteratorIPN4cvc58internal12NodeTemplateILb1EEEES7_EET0_T_SA_S9_ = comdat any

$_ZSt16__do_uninit_copyISt13move_iteratorIPN4cvc58internal12NodeTemplateILb1EEEES5_ET0_T_S8_S7_ = comdat any

$_ZStneIPN4cvc58internal12NodeTemplateILb1EEEEbRKSt13move_iteratorIT_ES9_ = comdat any

$_ZSt10_ConstructIN4cvc58internal12NodeTemplateILb1EEEJS3_EEvPT_DpOT0_ = comdat any

$_ZNKSt13move_iteratorIPN4cvc58internal12NodeTemplateILb1EEEEdeEv = comdat any

$_ZNSt13move_iteratorIPN4cvc58internal12NodeTemplateILb1EEEEppEv = comdat any

$_ZSteqIPN4cvc58internal12NodeTemplateILb1EEEEbRKSt13move_iteratorIT_ES9_ = comdat any

$_ZNKSt13move_iteratorIPN4cvc58internal12NodeTemplateILb1EEEE4baseEv = comdat any

$_ZNSt13move_iteratorIPN4cvc58internal12NodeTemplateILb1EEEEC2ES4_ = comdat any

$_ZSt22__copy_move_backward_aILb1EPN4cvc58internal12NodeTemplateILb1EEES4_ET1_T0_S6_S5_ = comdat any

$_ZSt12__miter_baseIPN4cvc58internal12NodeTemplateILb1EEEET_S5_ = comdat any

$_ZSt12__niter_wrapIPN4cvc58internal12NodeTemplateILb1EEEET_RKS5_S5_ = comdat any

$_ZSt23__copy_move_backward_a1ILb1EPN4cvc58internal12NodeTemplateILb1EEES4_ET1_T0_S6_S5_ = comdat any

$_ZSt12__niter_baseIPN4cvc58internal12NodeTemplateILb1EEEET_S5_ = comdat any

$_ZSt23__copy_move_backward_a2ILb1EPN4cvc58internal12NodeTemplateILb1EEES4_ET1_T0_S6_S5_ = comdat any

$_ZNSt20__copy_move_backwardILb1ELb0ESt26random_access_iterator_tagE13__copy_move_bIPN4cvc58internal12NodeTemplateILb1EEES7_EET0_T_S9_S8_ = comdat any

$_ZSt13__copy_move_aILb0EN9__gnu_cxx17__normal_iteratorIPN4cvc58internal12NodeTemplateILb1EEESt6vectorIS5_SaIS5_EEEESA_ET1_T0_SC_SB_ = comdat any

$_ZSt12__miter_baseIN9__gnu_cxx17__normal_iteratorIPN4cvc58internal12NodeTemplateILb1EEESt6vectorIS5_SaIS5_EEEEET_SB_ = comdat any

$_ZSt12__niter_wrapIN9__gnu_cxx17__normal_iteratorIPN4cvc58internal12NodeTemplateILb1EEESt6vectorIS5_SaIS5_EEEES6_ET_SB_T0_ = comdat any

$_ZSt14__copy_move_a1ILb0EPN4cvc58internal12NodeTemplateILb1EEES4_ET1_T0_S6_S5_ = comdat any

$_ZSt12__niter_baseIPN4cvc58internal12NodeTemplateILb1EEESt6vectorIS3_SaIS3_EEET_N9__gnu_cxx17__normal_iteratorIS8_T0_EE = comdat any

$_ZSt14__copy_move_a2ILb0EPN4cvc58internal12NodeTemplateILb1EEES4_ET1_T0_S6_S5_ = comdat any

$_ZNSt11__copy_moveILb0ELb0ESt26random_access_iterator_tagE8__copy_mIPN4cvc58internal12NodeTemplateILb1EEES7_EET0_T_S9_S8_ = comdat any

$_ZSt9__advanceIN9__gnu_cxx17__normal_iteratorIPN4cvc58internal12NodeTemplateILb1EEESt6vectorIS5_SaIS5_EEEElEvRT_T0_St26random_access_iterator_tag = comdat any

$_ZN9__gnu_cxx17__normal_iteratorIPN4cvc58internal12NodeTemplateILb1EEESt6vectorIS4_SaIS4_EEEmmEv = comdat any

$_ZN9__gnu_cxx17__normal_iteratorIPN4cvc58internal12NodeTemplateILb1EEESt6vectorIS4_SaIS4_EEEpLEl = comdat any

$_ZSt18uninitialized_copyIN9__gnu_cxx17__normal_iteratorIPN4cvc58internal12NodeTemplateILb1EEESt6vectorIS5_SaIS5_EEEES6_ET0_T_SC_SB_ = comdat any

$_ZNSt20__uninitialized_copyILb0EE13__uninit_copyIN9__gnu_cxx17__normal_iteratorIPN4cvc58internal12NodeTemplateILb1EEESt6vectorIS7_SaIS7_EEEES8_EET0_T_SE_SD_ = comdat any

$_ZSt16__do_uninit_copyIN9__gnu_cxx17__normal_iteratorIPN4cvc58internal12NodeTemplateILb1EEESt6vectorIS5_SaIS5_EEEES6_ET0_T_SC_SB_ = comdat any

$_ZSt10_ConstructIN4cvc58internal12NodeTemplateILb1EEEJRS3_EEvPT_DpOT0_ = comdat any

$_ZNSt6vectorIN4cvc58internal12NodeTemplateILb1EEESaIS3_EE12emplace_backIJS3_EEERS3_DpOT_ = comdat any

$_ZNSt16allocator_traitsISaIN4cvc58internal12NodeTemplateILb1EEEEE9constructIS3_JS3_EEEvRS4_PT_DpOT0_ = comdat any

$_ZNSt6vectorIN4cvc58internal12NodeTemplateILb1EEESaIS3_EE17_M_realloc_insertIJS3_EEEvN9__gnu_cxx17__normal_iteratorIPS3_S5_EEDpOT_ = comdat any

$_ZNSt15__new_allocatorIN4cvc58internal12NodeTemplateILb1EEEE9constructIS3_JS3_EEEvPT_DpOT0_ = comdat any

$_ZNSt12_Vector_baseIN4cvc58internal12NodeTemplateILb1EEESaIS3_EEC2ERKS4_ = comdat any

$_ZNSt6vectorIN4cvc58internal12NodeTemplateILb1EEESaIS3_EE19_M_range_initializeIPKS3_EEvT_S9_St20forward_iterator_tag = comdat any

$_ZNKSt16initializer_listIN4cvc58internal12NodeTemplateILb1EEEE5beginEv = comdat any

$_ZNKSt16initializer_listIN4cvc58internal12NodeTemplateILb1EEEE3endEv = comdat any

$_ZNSt12_Vector_baseIN4cvc58internal12NodeTemplateILb1EEESaIS3_EE12_Vector_implC2ERKS4_ = comdat any

$_ZNSt15__new_allocatorIN4cvc58internal12NodeTemplateILb1EEEEC2ERKS4_ = comdat any

$_ZSt8distanceIPKN4cvc58internal12NodeTemplateILb1EEEENSt15iterator_traitsIT_E15difference_typeES7_S7_ = comdat any

$_ZNSt6vectorIN4cvc58internal12NodeTemplateILb1EEESaIS3_EE17_S_check_init_lenEmRKS4_ = comdat any

$_ZSt10__distanceIPKN4cvc58internal12NodeTemplateILb1EEEENSt15iterator_traitsIT_E15difference_typeES7_S7_St26random_access_iterator_tag = comdat any

$_ZSt19__iterator_categoryIPKN4cvc58internal12NodeTemplateILb1EEEENSt15iterator_traitsIT_E17iterator_categoryERKS7_ = comdat any

$_ZNSaIN4cvc58internal12NodeTemplateILb1EEEEC2ERKS3_ = comdat any

$_ZNKSt16initializer_listIN4cvc58internal12NodeTemplateILb1EEEE4sizeEv = comdat any

$_ZN4cvc58internal19container_to_streamISt6vectorINS0_12NodeTemplateILb1EEESaIS4_EEEEvRSoRKT_PKcSC_SC_ = comdat any

$_ZNKSt6vectorIN4cvc58internal12NodeTemplateILb1EEESaIS3_EE5beginEv = comdat any

$_ZNKSt6vectorIN4cvc58internal12NodeTemplateILb1EEESaIS3_EE3endEv = comdat any

$_ZN9__gnu_cxxneIPKN4cvc58internal12NodeTemplateILb1EEESt6vectorIS4_SaIS4_EEEEbRKNS_17__normal_iteratorIT_T0_EESF_ = comdat any

$_ZNK9__gnu_cxx17__normal_iteratorIPKN4cvc58internal12NodeTemplateILb1EEESt6vectorIS4_SaIS4_EEEdeEv = comdat any

$_ZN9__gnu_cxx17__normal_iteratorIPKN4cvc58internal12NodeTemplateILb1EEESt6vectorIS4_SaIS4_EEEppEv = comdat any

$_ZNSt6vectorIN4cvc58internal12NodeTemplateILb1EEESaIS3_EE19_M_range_initializeIN9__gnu_cxx17__normal_iteratorIPS3_S5_EEEEvT_SB_St20forward_iterator_tag = comdat any

$_ZNKSt10_HashtableIN4cvc58internal12NodeTemplateILb1EEES3_SaIS3_ENSt8__detail9_IdentityESt8equal_toIS3_ESt4hashIS3_ENS5_18_Mod_range_hashingENS5_20_Default_ranged_hashENS5_20_Prime_rehash_policyENS5_17_Hashtable_traitsILb1ELb1ELb1EEEE5countERKS3_ = comdat any

$_ZNKSt10_HashtableIN4cvc58internal12NodeTemplateILb1EEES3_SaIS3_ENSt8__detail9_IdentityESt8equal_toIS3_ESt4hashIS3_ENS5_18_Mod_range_hashingENS5_20_Default_ranged_hashENS5_20_Prime_rehash_policyENS5_17_Hashtable_traitsILb1ELb1ELb1EEEE4findERKS3_ = comdat any

$_ZNKSt10_HashtableIN4cvc58internal12NodeTemplateILb1EEES3_SaIS3_ENSt8__detail9_IdentityESt8equal_toIS3_ESt4hashIS3_ENS5_18_Mod_range_hashingENS5_20_Default_ranged_hashENS5_20_Prime_rehash_policyENS5_17_Hashtable_traitsILb1ELb1ELb1EEEE4sizeEv = comdat any

$_ZNSt10_HashtableIN4cvc58internal12NodeTemplateILb1EEES3_SaIS3_ENSt8__detail9_IdentityESt8equal_toIS3_ESt4hashIS3_ENS5_18_Mod_range_hashingENS5_20_Default_ranged_hashENS5_20_Prime_rehash_policyENS5_17_Hashtable_traitsILb1ELb1ELb1EEEE22__small_size_thresholdEv = comdat any

$_ZNKSt10_HashtableIN4cvc58internal12NodeTemplateILb1EEES3_SaIS3_ENSt8__detail9_IdentityESt8equal_toIS3_ESt4hashIS3_ENS5_18_Mod_range_hashingENS5_20_Default_ranged_hashENS5_20_Prime_rehash_policyENS5_17_Hashtable_traitsILb1ELb1ELb1EEEE5beginEv = comdat any

$_ZNSt8__detailneERKNS_19_Node_iterator_baseIN4cvc58internal12NodeTemplateILb1EEELb1EEES7_ = comdat any

$_ZNKSt10_HashtableIN4cvc58internal12NodeTemplateILb1EEES3_SaIS3_ENSt8__detail9_IdentityESt8equal_toIS3_ESt4hashIS3_ENS5_18_Mod_range_hashingENS5_20_Default_ranged_hashENS5_20_Prime_rehash_policyENS5_17_Hashtable_traitsILb1ELb1ELb1EEEE3endEv = comdat any

$_ZNKSt8__detail15_Hashtable_baseIN4cvc58internal12NodeTemplateILb1EEES4_NS_9_IdentityESt8equal_toIS4_ESt4hashIS4_ENS_18_Mod_range_hashingENS_20_Default_ranged_hashENS_17_Hashtable_traitsILb1ELb1ELb1EEEE13_M_key_equalsERKS4_RKNS_16_Hash_node_valueIS4_Lb1EEE = comdat any

$_ZNSt8__detail20_Node_const_iteratorIN4cvc58internal12NodeTemplateILb1EEELb1ELb1EEppEv = comdat any

$_ZNKSt8__detail15_Hash_code_baseIN4cvc58internal12NodeTemplateILb1EEES4_NS_9_IdentityESt4hashIS4_ENS_18_Mod_range_hashingENS_20_Default_ranged_hashELb1EE12_M_hash_codeERKS4_ = comdat any

$_ZNKSt10_HashtableIN4cvc58internal12NodeTemplateILb1EEES3_SaIS3_ENSt8__detail9_IdentityESt8equal_toIS3_ESt4hashIS3_ENS5_18_Mod_range_hashingENS5_20_Default_ranged_hashENS5_20_Prime_rehash_policyENS5_17_Hashtable_traitsILb1ELb1ELb1EEEE15_M_bucket_indexEm = comdat any

$_ZNKSt10_HashtableIN4cvc58internal12NodeTemplateILb1EEES3_SaIS3_ENSt8__detail9_IdentityESt8equal_toIS3_ESt4hashIS3_ENS5_18_Mod_range_hashingENS5_20_Default_ranged_hashENS5_20_Prime_rehash_policyENS5_17_Hashtable_traitsILb1ELb1ELb1EEEE12_M_find_nodeEmRKS3_m = comdat any

$_ZNSt8__detail20_Node_const_iteratorIN4cvc58internal12NodeTemplateILb1EEELb1ELb1EEC2EPNS_10_Hash_nodeIS4_Lb1EEE = comdat any

$_ZNSt8__detail22_Hashtable_hash_traitsISt4hashIN4cvc58internal12NodeTemplateILb1EEEEE22__small_size_thresholdEv = comdat any

$_ZNKSt8__detail15_Hashtable_baseIN4cvc58internal12NodeTemplateILb1EEES4_NS_9_IdentityESt8equal_toIS4_ESt4hashIS4_ENS_18_Mod_range_hashingENS_20_Default_ranged_hashENS_17_Hashtable_traitsILb1ELb1ELb1EEEE5_M_eqEv = comdat any

$_ZNKSt8equal_toIN4cvc58internal12NodeTemplateILb1EEEEclERKS3_S6_ = comdat any

$_ZNKSt8__detail9_IdentityclIRKN4cvc58internal12NodeTemplateILb1EEEEEOT_S9_ = comdat any

$_ZNKSt8__detail21_Hash_node_value_baseIN4cvc58internal12NodeTemplateILb1EEEE4_M_vEv = comdat any

$_ZNKSt8__detail21_Hashtable_ebo_helperILi0ESt8equal_toIN4cvc58internal12NodeTemplateILb1EEEELb1EE7_M_cgetEv = comdat any

$_ZNKSt8__detail21_Hash_node_value_baseIN4cvc58internal12NodeTemplateILb1EEEE9_M_valptrEv = comdat any

$_ZNK9__gnu_cxx16__aligned_bufferIN4cvc58internal12NodeTemplateILb1EEEE6_M_ptrEv = comdat any

$_ZNK9__gnu_cxx16__aligned_bufferIN4cvc58internal12NodeTemplateILb1EEEE7_M_addrEv = comdat any

$_ZNSt8__detail19_Node_iterator_baseIN4cvc58internal12NodeTemplateILb1EEELb1EE7_M_incrEv = comdat any

$_ZNKSt8__detail15_Hash_code_baseIN4cvc58internal12NodeTemplateILb1EEES4_NS_9_IdentityESt4hashIS4_ENS_18_Mod_range_hashingENS_20_Default_ranged_hashELb1EE7_M_hashEv = comdat any

$_ZNKSt8__detail21_Hashtable_ebo_helperILi1ESt4hashIN4cvc58internal12NodeTemplateILb1EEEELb1EE7_M_cgetEv = comdat any

$_ZNKSt8__detail15_Hash_code_baseIN4cvc58internal12NodeTemplateILb1EEES4_NS_9_IdentityESt4hashIS4_ENS_18_Mod_range_hashingENS_20_Default_ranged_hashELb1EE15_M_bucket_indexEmm = comdat any

$_ZNKSt8__detail18_Mod_range_hashingclEmm = comdat any

$_ZNKSt10_HashtableIN4cvc58internal12NodeTemplateILb1EEES3_SaIS3_ENSt8__detail9_IdentityESt8equal_toIS3_ESt4hashIS3_ENS5_18_Mod_range_hashingENS5_20_Default_ranged_hashENS5_20_Prime_rehash_policyENS5_17_Hashtable_traitsILb1ELb1ELb1EEEE19_M_find_before_nodeEmRKS3_m = comdat any

$_ZNKSt8__detail15_Hashtable_baseIN4cvc58internal12NodeTemplateILb1EEES4_NS_9_IdentityESt8equal_toIS4_ESt4hashIS4_ENS_18_Mod_range_hashingENS_20_Default_ranged_hashENS_17_Hashtable_traitsILb1ELb1ELb1EEEE9_M_equalsERKS4_mRKNS_16_Hash_node_valueIS4_Lb1EEE = comdat any

$_ZNKSt10_HashtableIN4cvc58internal12NodeTemplateILb1EEES3_SaIS3_ENSt8__detail9_IdentityESt8equal_toIS3_ESt4hashIS3_ENS5_18_Mod_range_hashingENS5_20_Default_ranged_hashENS5_20_Prime_rehash_policyENS5_17_Hashtable_traitsILb1ELb1ELb1EEEE15_M_bucket_indexERKNS5_16_Hash_node_valueIS3_Lb1EEE = comdat any

$_ZNSt8__detail15_Hashtable_baseIN4cvc58internal12NodeTemplateILb1EEES4_NS_9_IdentityESt8equal_toIS4_ESt4hashIS4_ENS_18_Mod_range_hashingENS_20_Default_ranged_hashENS_17_Hashtable_traitsILb1ELb1ELb1EEEE9_S_equalsEmRKNS_21_Hash_node_code_cacheILb1EEE = comdat any

$_ZNKSt8__detail15_Hash_code_baseIN4cvc58internal12NodeTemplateILb1EEES4_NS_9_IdentityESt4hashIS4_ENS_18_Mod_range_hashingENS_20_Default_ranged_hashELb1EE15_M_bucket_indexERKNS_16_Hash_node_valueIS4_Lb1EEEm = comdat any

$_ZNSt8__detail19_Node_iterator_baseIN4cvc58internal12NodeTemplateILb1EEELb1EEC2EPNS_10_Hash_nodeIS4_Lb1EEE = comdat any

$_ZNK9__gnu_cxx17__normal_iteratorIPN4cvc58internal12NodeTemplateILb1EEESt6vectorIS4_SaIS4_EEEmiEl = comdat any

$_ZN9__gnu_cxxmiIPKN4cvc58internal12NodeTemplateILb1EEEPS4_St6vectorIS4_SaIS4_EEEEDTmicldtfp_4baseEcldtfp0_4baseEERKNS_17__normal_iteratorIT_T1_EERKNSC_IT0_SE_EE = comdat any

$_ZN9__gnu_cxxeqIPKN4cvc58internal12NodeTemplateILb1EEEPS4_St6vectorIS4_SaIS4_EEEEbRKNS_17__normal_iteratorIT_T1_EERKNSB_IT0_SD_EE = comdat any

$_ZNSt6vectorIN4cvc58internal12NodeTemplateILb1EEESaIS3_EE16_Temporary_valueC2IJRKS3_EEEPS5_DpOT_ = comdat any

$_ZNSt6vectorIN4cvc58internal12NodeTemplateILb1EEESaIS3_EE13_M_insert_auxIS3_EEvN9__gnu_cxx17__normal_iteratorIPS3_S5_EEOT_ = comdat any

$_ZNSt6vectorIN4cvc58internal12NodeTemplateILb1EEESaIS3_EE16_Temporary_value6_M_valEv = comdat any

$_ZNSt6vectorIN4cvc58internal12NodeTemplateILb1EEESaIS3_EE16_Temporary_valueD2Ev = comdat any

$_ZNSt6vectorIN4cvc58internal12NodeTemplateILb1EEESaIS3_EE16_Temporary_value8_StorageC2Ev = comdat any

$_ZNSt6vectorIN4cvc58internal12NodeTemplateILb1EEESaIS3_EE16_Temporary_value6_M_ptrEv = comdat any

$_ZNSt6vectorIN4cvc58internal12NodeTemplateILb1EEESaIS3_EE16_Temporary_value8_StorageD2Ev = comdat any

$_ZN4cvc58internal11NodeBuilder6appendILb1EEERS1_RKSt6vectorINS0_12NodeTemplateIXT_EEESaIS6_EE = comdat any

$_ZN4cvc58internal11NodeBuilder6appendIN9__gnu_cxx17__normal_iteratorIPKNS0_12NodeTemplateILb1EEESt6vectorIS6_SaIS6_EEEEEERS1_RKT_SG_ = comdat any

$_ZN4cvc58internallsILb1ESt4hashINS0_12NodeTemplateILb1EEEEEERSoS6_RKSt13unordered_setINS3_IXT_EEET0_St8equal_toIS8_ESaIS8_EE = comdat any

$_ZN4cvc58internal19container_to_streamISt13unordered_setINS0_12NodeTemplateILb1EEESt4hashIS4_ESt8equal_toIS4_ESaIS4_EEEEvRSoRKT_PKcSG_SG_ = comdat any

$_ZNKSt13unordered_setIN4cvc58internal12NodeTemplateILb1EEESt4hashIS3_ESt8equal_toIS3_ESaIS3_EE5beginEv = comdat any

$_ZNKSt13unordered_setIN4cvc58internal12NodeTemplateILb1EEESt4hashIS3_ESt8equal_toIS3_ESaIS3_EE3endEv = comdat any

$_ZNKSt8__detail20_Node_const_iteratorIN4cvc58internal12NodeTemplateILb1EEELb1ELb1EEdeEv = comdat any

$_ZNSt8__detail21_Hash_node_value_baseIN4cvc58internal12NodeTemplateILb1EEEE4_M_vEv = comdat any

$_ZN4cvc58internal11NodeManager6mkNodeENS0_4kind6Kind_tENS0_12NodeTemplateILb0EEE = comdat any

$_ZNSt10_HashtableIN4cvc58internal12NodeTemplateILb1EEESt4pairIKS3_S3_ESaIS6_ENSt8__detail10_Select1stESt8equal_toIS3_ESt4hashIS3_ENS8_18_Mod_range_hashingENS8_20_Default_ranged_hashENS8_20_Prime_rehash_policyENS8_17_Hashtable_traitsILb1ELb0ELb1EEEE4findERS5_ = comdat any

$_ZNKSt10_HashtableIN4cvc58internal12NodeTemplateILb1EEESt4pairIKS3_S3_ESaIS6_ENSt8__detail10_Select1stESt8equal_toIS3_ESt4hashIS3_ENS8_18_Mod_range_hashingENS8_20_Default_ranged_hashENS8_20_Prime_rehash_policyENS8_17_Hashtable_traitsILb1ELb0ELb1EEEE4sizeEv = comdat any

$_ZNSt10_HashtableIN4cvc58internal12NodeTemplateILb1EEESt4pairIKS3_S3_ESaIS6_ENSt8__detail10_Select1stESt8equal_toIS3_ESt4hashIS3_ENS8_18_Mod_range_hashingENS8_20_Default_ranged_hashENS8_20_Prime_rehash_policyENS8_17_Hashtable_traitsILb1ELb0ELb1EEEE22__small_size_thresholdEv = comdat any

$_ZNSt10_HashtableIN4cvc58internal12NodeTemplateILb1EEESt4pairIKS3_S3_ESaIS6_ENSt8__detail10_Select1stESt8equal_toIS3_ESt4hashIS3_ENS8_18_Mod_range_hashingENS8_20_Default_ranged_hashENS8_20_Prime_rehash_policyENS8_17_Hashtable_traitsILb1ELb0ELb1EEEE5beginEv = comdat any

$_ZNSt10_HashtableIN4cvc58internal12NodeTemplateILb1EEESt4pairIKS3_S3_ESaIS6_ENSt8__detail10_Select1stESt8equal_toIS3_ESt4hashIS3_ENS8_18_Mod_range_hashingENS8_20_Default_ranged_hashENS8_20_Prime_rehash_policyENS8_17_Hashtable_traitsILb1ELb0ELb1EEEE3endEv = comdat any

$_ZNKSt8__detail15_Hashtable_baseIN4cvc58internal12NodeTemplateILb1EEESt4pairIKS4_S4_ENS_10_Select1stESt8equal_toIS4_ESt4hashIS4_ENS_18_Mod_range_hashingENS_20_Default_ranged_hashENS_17_Hashtable_traitsILb1ELb0ELb1EEEE13_M_key_equalsERS6_RKNS_16_Hash_node_valueIS7_Lb1EEE = comdat any

$_ZNSt8__detail14_Node_iteratorISt4pairIKN4cvc58internal12NodeTemplateILb1EEES5_ELb0ELb1EEppEv = comdat any

$_ZNKSt8__detail15_Hash_code_baseIN4cvc58internal12NodeTemplateILb1EEESt4pairIKS4_S4_ENS_10_Select1stESt4hashIS4_ENS_18_Mod_range_hashingENS_20_Default_ranged_hashELb1EE12_M_hash_codeERS6_ = comdat any

$_ZNKSt10_HashtableIN4cvc58internal12NodeTemplateILb1EEESt4pairIKS3_S3_ESaIS6_ENSt8__detail10_Select1stESt8equal_toIS3_ESt4hashIS3_ENS8_18_Mod_range_hashingENS8_20_Default_ranged_hashENS8_20_Prime_rehash_policyENS8_17_Hashtable_traitsILb1ELb0ELb1EEEE15_M_bucket_indexEm = comdat any

$_ZNKSt10_HashtableIN4cvc58internal12NodeTemplateILb1EEESt4pairIKS3_S3_ESaIS6_ENSt8__detail10_Select1stESt8equal_toIS3_ESt4hashIS3_ENS8_18_Mod_range_hashingENS8_20_Default_ranged_hashENS8_20_Prime_rehash_policyENS8_17_Hashtable_traitsILb1ELb0ELb1EEEE12_M_find_nodeEmRS5_m = comdat any

$_ZNSt8__detail14_Node_iteratorISt4pairIKN4cvc58internal12NodeTemplateILb1EEES5_ELb0ELb1EEC2EPNS_10_Hash_nodeIS7_Lb1EEE = comdat any

$_ZNKSt8__detail15_Hashtable_baseIN4cvc58internal12NodeTemplateILb1EEESt4pairIKS4_S4_ENS_10_Select1stESt8equal_toIS4_ESt4hashIS4_ENS_18_Mod_range_hashingENS_20_Default_ranged_hashENS_17_Hashtable_traitsILb1ELb0ELb1EEEE5_M_eqEv = comdat any

$_ZNKSt8__detail10_Select1stclIRKSt4pairIKN4cvc58internal12NodeTemplateILb1EEES6_EEEONS0_10__1st_typeIT_E4typeEOSC_ = comdat any

$_ZNKSt8__detail21_Hash_node_value_baseISt4pairIKN4cvc58internal12NodeTemplateILb1EEES5_EE4_M_vEv = comdat any

$_ZNKSt8__detail21_Hash_node_value_baseISt4pairIKN4cvc58internal12NodeTemplateILb1EEES5_EE9_M_valptrEv = comdat any

$_ZNK9__gnu_cxx16__aligned_bufferISt4pairIKN4cvc58internal12NodeTemplateILb1EEES5_EE6_M_ptrEv = comdat any

$_ZNK9__gnu_cxx16__aligned_bufferISt4pairIKN4cvc58internal12NodeTemplateILb1EEES5_EE7_M_addrEv = comdat any

$_ZNSt8__detail19_Node_iterator_baseISt4pairIKN4cvc58internal12NodeTemplateILb1EEES5_ELb1EE7_M_incrEv = comdat any

$_ZNKSt8__detail15_Hash_code_baseIN4cvc58internal12NodeTemplateILb1EEESt4pairIKS4_S4_ENS_10_Select1stESt4hashIS4_ENS_18_Mod_range_hashingENS_20_Default_ranged_hashELb1EE7_M_hashEv = comdat any

$_ZNKSt8__detail15_Hash_code_baseIN4cvc58internal12NodeTemplateILb1EEESt4pairIKS4_S4_ENS_10_Select1stESt4hashIS4_ENS_18_Mod_range_hashingENS_20_Default_ranged_hashELb1EE15_M_bucket_indexEmm = comdat any

$_ZNKSt10_HashtableIN4cvc58internal12NodeTemplateILb1EEESt4pairIKS3_S3_ESaIS6_ENSt8__detail10_Select1stESt8equal_toIS3_ESt4hashIS3_ENS8_18_Mod_range_hashingENS8_20_Default_ranged_hashENS8_20_Prime_rehash_policyENS8_17_Hashtable_traitsILb1ELb0ELb1EEEE19_M_find_before_nodeEmRS5_m = comdat any

$_ZNKSt8__detail15_Hashtable_baseIN4cvc58internal12NodeTemplateILb1EEESt4pairIKS4_S4_ENS_10_Select1stESt8equal_toIS4_ESt4hashIS4_ENS_18_Mod_range_hashingENS_20_Default_ranged_hashENS_17_Hashtable_traitsILb1ELb0ELb1EEEE9_M_equalsERS6_mRKNS_16_Hash_node_valueIS7_Lb1EEE = comdat any

$_ZNKSt10_HashtableIN4cvc58internal12NodeTemplateILb1EEESt4pairIKS3_S3_ESaIS6_ENSt8__detail10_Select1stESt8equal_toIS3_ESt4hashIS3_ENS8_18_Mod_range_hashingENS8_20_Default_ranged_hashENS8_20_Prime_rehash_policyENS8_17_Hashtable_traitsILb1ELb0ELb1EEEE15_M_bucket_indexERKNS8_16_Hash_node_valueIS6_Lb1EEE = comdat any

$_ZNSt8__detail15_Hashtable_baseIN4cvc58internal12NodeTemplateILb1EEESt4pairIKS4_S4_ENS_10_Select1stESt8equal_toIS4_ESt4hashIS4_ENS_18_Mod_range_hashingENS_20_Default_ranged_hashENS_17_Hashtable_traitsILb1ELb0ELb1EEEE9_S_equalsEmRKNS_21_Hash_node_code_cacheILb1EEE = comdat any

$_ZNKSt8__detail15_Hash_code_baseIN4cvc58internal12NodeTemplateILb1EEESt4pairIKS4_S4_ENS_10_Select1stESt4hashIS4_ENS_18_Mod_range_hashingENS_20_Default_ranged_hashELb1EE15_M_bucket_indexERKNS_16_Hash_node_valueIS7_Lb1EEEm = comdat any

$_ZNSt8__detail19_Node_iterator_baseISt4pairIKN4cvc58internal12NodeTemplateILb1EEES5_ELb1EEC2EPNS_10_Hash_nodeIS7_Lb1EEE = comdat any

$_ZNSt8__detail12_Insert_baseIN4cvc58internal12NodeTemplateILb1EEES4_SaIS4_ENS_9_IdentityESt8equal_toIS4_ESt4hashIS4_ENS_18_Mod_range_hashingENS_20_Default_ranged_hashENS_20_Prime_rehash_policyENS_17_Hashtable_traitsILb1ELb1ELb1EEEE6insertERKS4_ = comdat any

$_ZNSt8__detail12_Insert_baseIN4cvc58internal12NodeTemplateILb1EEES4_SaIS4_ENS_9_IdentityESt8equal_toIS4_ESt4hashIS4_ENS_18_Mod_range_hashingENS_20_Default_ranged_hashENS_20_Prime_rehash_policyENS_17_Hashtable_traitsILb1ELb1ELb1EEEE20_M_conjure_hashtableEv = comdat any

$_ZNSt8__detail10_AllocNodeISaINS_10_Hash_nodeIN4cvc58internal12NodeTemplateILb1EEELb1EEEEEC2ERNS_16_Hashtable_allocIS7_EE = comdat any

$_ZNSt10_HashtableIN4cvc58internal12NodeTemplateILb1EEES3_SaIS3_ENSt8__detail9_IdentityESt8equal_toIS3_ESt4hashIS3_ENS5_18_Mod_range_hashingENS5_20_Default_ranged_hashENS5_20_Prime_rehash_policyENS5_17_Hashtable_traitsILb1ELb1ELb1EEEE9_M_insertIRKS3_NS5_10_AllocNodeISaINS5_10_Hash_nodeIS3_Lb1EEEEEEEESt4pairINS5_14_Node_iteratorIS3_Lb1ELb1EEEbEOT_RKT0_St17integral_constantIbLb1EE = comdat any

$_ZNSt10_HashtableIN4cvc58internal12NodeTemplateILb1EEES3_SaIS3_ENSt8__detail9_IdentityESt8equal_toIS3_ESt4hashIS3_ENS5_18_Mod_range_hashingENS5_20_Default_ranged_hashENS5_20_Prime_rehash_policyENS5_17_Hashtable_traitsILb1ELb1ELb1EEEE16_M_insert_uniqueIRKS3_SJ_NS5_10_AllocNodeISaINS5_10_Hash_nodeIS3_Lb1EEEEEEEESt4pairINS5_14_Node_iteratorIS3_Lb1ELb1EEEbEOT_OT0_RKT1_ = comdat any

$_ZNSt10_HashtableIN4cvc58internal12NodeTemplateILb1EEES3_SaIS3_ENSt8__detail9_IdentityESt8equal_toIS3_ESt4hashIS3_ENS5_18_Mod_range_hashingENS5_20_Default_ranged_hashENS5_20_Prime_rehash_policyENS5_17_Hashtable_traitsILb1ELb1ELb1EEEE14_S_forward_keyERKS3_ = comdat any

$_ZNSt10_HashtableIN4cvc58internal12NodeTemplateILb1EEES3_SaIS3_ENSt8__detail9_IdentityESt8equal_toIS3_ESt4hashIS3_ENS5_18_Mod_range_hashingENS5_20_Default_ranged_hashENS5_20_Prime_rehash_policyENS5_17_Hashtable_traitsILb1ELb1ELb1EEEE5beginEv = comdat any

$_ZNSt10_HashtableIN4cvc58internal12NodeTemplateILb1EEES3_SaIS3_ENSt8__detail9_IdentityESt8equal_toIS3_ESt4hashIS3_ENS5_18_Mod_range_hashingENS5_20_Default_ranged_hashENS5_20_Prime_rehash_policyENS5_17_Hashtable_traitsILb1ELb1ELb1EEEE3endEv = comdat any

$_ZNKSt8__detail15_Hashtable_baseIN4cvc58internal12NodeTemplateILb1EEES4_NS_9_IdentityESt8equal_toIS4_ESt4hashIS4_ENS_18_Mod_range_hashingENS_20_Default_ranged_hashENS_17_Hashtable_traitsILb1ELb1ELb1EEEE16_M_key_equals_trIS4_EEbRKT_RKNS_16_Hash_node_valueIS4_Lb1EEE = comdat any

$_ZNSt4pairINSt8__detail14_Node_iteratorIN4cvc58internal12NodeTemplateILb1EEELb1ELb1EEEbEC2IRS6_bTnNSt9enable_ifIXaaclsr5_PCCPE22_MoveConstructiblePairIT_T0_EEclsr5_PCCPE30_ImplicitlyMoveConvertiblePairISB_SC_EEEbE4typeELb1EEEOSB_OSC_ = comdat any

$_ZNSt8__detail14_Node_iteratorIN4cvc58internal12NodeTemplateILb1EEELb1ELb1EEppEv = comdat any

$_ZNKSt8__detail15_Hash_code_baseIN4cvc58internal12NodeTemplateILb1EEES4_NS_9_IdentityESt4hashIS4_ENS_18_Mod_range_hashingENS_20_Default_ranged_hashELb1EE15_M_hash_code_trIS4_EEmRKT_ = comdat any

$_ZNKSt10_HashtableIN4cvc58internal12NodeTemplateILb1EEES3_SaIS3_ENSt8__detail9_IdentityESt8equal_toIS3_ESt4hashIS3_ENS5_18_Mod_range_hashingENS5_20_Default_ranged_hashENS5_20_Prime_rehash_policyENS5_17_Hashtable_traitsILb1ELb1ELb1EEEE15_M_find_node_trIS3_EEPNS5_10_Hash_nodeIS3_Lb1EEEmRKT_m = comdat any

$_ZNSt8__detail14_Node_iteratorIN4cvc58internal12NodeTemplateILb1EEELb1ELb1EEC2EPNS_10_Hash_nodeIS4_Lb1EEE = comdat any

$_ZNSt4pairINSt8__detail14_Node_iteratorIN4cvc58internal12NodeTemplateILb1EEELb1ELb1EEEbEC2IS6_bTnNSt9enable_ifIXaaclsr5_PCCPE22_MoveConstructiblePairIT_T0_EEclsr5_PCCPE30_ImplicitlyMoveConvertiblePairISA_SB_EEEbE4typeELb1EEEOSA_OSB_ = comdat any

$_ZNSt8__detail12_NodeBuilderINS_9_IdentityEE8_S_buildIRKN4cvc58internal12NodeTemplateILb1EEES9_NS_10_AllocNodeISaINS_10_Hash_nodeIS7_Lb1EEEEEEEEPNT1_11__node_typeEOT_OT0_RKSF_ = comdat any

$_ZNSt10_HashtableIN4cvc58internal12NodeTemplateILb1EEES3_SaIS3_ENSt8__detail9_IdentityESt8equal_toIS3_ESt4hashIS3_ENS5_18_Mod_range_hashingENS5_20_Default_ranged_hashENS5_20_Prime_rehash_policyENS5_17_Hashtable_traitsILb1ELb1ELb1EEEE12_Scoped_nodeC2EPNS5_10_Hash_nodeIS3_Lb1EEEPNS5_16_Hashtable_allocISaISJ_EEE = comdat any

$_ZNSt10_HashtableIN4cvc58internal12NodeTemplateILb1EEES3_SaIS3_ENSt8__detail9_IdentityESt8equal_toIS3_ESt4hashIS3_ENS5_18_Mod_range_hashingENS5_20_Default_ranged_hashENS5_20_Prime_rehash_policyENS5_17_Hashtable_traitsILb1ELb1ELb1EEEE21_M_insert_unique_nodeEmmPNS5_10_Hash_nodeIS3_Lb1EEEm = comdat any

$_ZNSt10_HashtableIN4cvc58internal12NodeTemplateILb1EEES3_SaIS3_ENSt8__detail9_IdentityESt8equal_toIS3_ESt4hashIS3_ENS5_18_Mod_range_hashingENS5_20_Default_ranged_hashENS5_20_Prime_rehash_policyENS5_17_Hashtable_traitsILb1ELb1ELb1EEEE12_Scoped_nodeD2Ev = comdat any

$_ZNKSt10_HashtableIN4cvc58internal12NodeTemplateILb1EEES3_SaIS3_ENSt8__detail9_IdentityESt8equal_toIS3_ESt4hashIS3_ENS5_18_Mod_range_hashingENS5_20_Default_ranged_hashENS5_20_Prime_rehash_policyENS5_17_Hashtable_traitsILb1ELb1ELb1EEEE22_M_find_before_node_trIS3_EEPNS5_15_Hash_node_baseEmRKT_m = comdat any

$_ZNKSt8__detail15_Hashtable_baseIN4cvc58internal12NodeTemplateILb1EEES4_NS_9_IdentityESt8equal_toIS4_ESt4hashIS4_ENS_18_Mod_range_hashingENS_20_Default_ranged_hashENS_17_Hashtable_traitsILb1ELb1ELb1EEEE12_M_equals_trIS4_EEbRKT_mRKNS_16_Hash_node_valueIS4_Lb1EEE = comdat any

$_ZNKSt8__detail10_AllocNodeISaINS_10_Hash_nodeIN4cvc58internal12NodeTemplateILb1EEELb1EEEEEclIJRKS5_EEEPS6_DpOT_ = comdat any

$_ZNSt8__detail16_Hashtable_allocISaINS_10_Hash_nodeIN4cvc58internal12NodeTemplateILb1EEELb1EEEEE16_M_allocate_nodeIJRKS5_EEEPS6_DpOT_ = comdat any

$_ZNSt16allocator_traitsISaINSt8__detail10_Hash_nodeIN4cvc58internal12NodeTemplateILb1EEELb1EEEEE8allocateERS7_m = comdat any

$_ZSt12__to_addressINSt8__detail10_Hash_nodeIN4cvc58internal12NodeTemplateILb1EEELb1EEEEPT_S8_ = comdat any

$_ZNSt8__detail10_Hash_nodeIN4cvc58internal12NodeTemplateILb1EEELb1EEC2Ev = comdat any

$_ZNSt16allocator_traitsISaINSt8__detail10_Hash_nodeIN4cvc58internal12NodeTemplateILb1EEELb1EEEEE9constructIS5_JRKS5_EEEvRS7_PT_DpOT0_ = comdat any

$_ZNSt15__new_allocatorINSt8__detail10_Hash_nodeIN4cvc58internal12NodeTemplateILb1EEELb1EEEE8allocateEmPKv = comdat any

$_ZNKSt15__new_allocatorINSt8__detail10_Hash_nodeIN4cvc58internal12NodeTemplateILb1EEELb1EEEE11_M_max_sizeEv = comdat any

$_ZNSt15__new_allocatorINSt8__detail10_Hash_nodeIN4cvc58internal12NodeTemplateILb1EEELb1EEEE9constructIS5_JRKS5_EEEvPT_DpOT0_ = comdat any

$_ZNKSt8__detail20_Prime_rehash_policy8_M_stateEv = comdat any

$_ZNSt10_HashtableIN4cvc58internal12NodeTemplateILb1EEES3_SaIS3_ENSt8__detail9_IdentityESt8equal_toIS3_ESt4hashIS3_ENS5_18_Mod_range_hashingENS5_20_Default_ranged_hashENS5_20_Prime_rehash_policyENS5_17_Hashtable_traitsILb1ELb1ELb1EEEE9_M_rehashEmRKm = comdat any

$_ZNKSt8__detail15_Hash_code_baseIN4cvc58internal12NodeTemplateILb1EEES4_NS_9_IdentityESt4hashIS4_ENS_18_Mod_range_hashingENS_20_Default_ranged_hashELb1EE13_M_store_codeERNS_21_Hash_node_code_cacheILb1EEEm = comdat any

$_ZNSt10_HashtableIN4cvc58internal12NodeTemplateILb1EEES3_SaIS3_ENSt8__detail9_IdentityESt8equal_toIS3_ESt4hashIS3_ENS5_18_Mod_range_hashingENS5_20_Default_ranged_hashENS5_20_Prime_rehash_policyENS5_17_Hashtable_traitsILb1ELb1ELb1EEEE22_M_insert_bucket_beginEmPNS5_10_Hash_nodeIS3_Lb1EEE = comdat any

$_ZNSt10_HashtableIN4cvc58internal12NodeTemplateILb1EEES3_SaIS3_ENSt8__detail9_IdentityESt8equal_toIS3_ESt4hashIS3_ENS5_18_Mod_range_hashingENS5_20_Default_ranged_hashENS5_20_Prime_rehash_policyENS5_17_Hashtable_traitsILb1ELb1ELb1EEEE13_M_rehash_auxEmSt17integral_constantIbLb1EE = comdat any

$_ZNSt8__detail20_Prime_rehash_policy8_M_resetEm = comdat any

$_ZNSt10_HashtableIN4cvc58internal12NodeTemplateILb1EEES3_SaIS3_ENSt8__detail9_IdentityESt8equal_toIS3_ESt4hashIS3_ENS5_18_Mod_range_hashingENS5_20_Default_ranged_hashENS5_20_Prime_rehash_policyENS5_17_Hashtable_traitsILb1ELb1ELb1EEEE19_M_allocate_bucketsEm = comdat any

$_ZNSt8__detail16_Hashtable_allocISaINS_10_Hash_nodeIN4cvc58internal12NodeTemplateILb1EEELb1EEEEE19_M_allocate_bucketsEm = comdat any

$_ZNSt16allocator_traitsISaIPNSt8__detail15_Hash_node_baseEEE8allocateERS3_m = comdat any

$_ZSt12__to_addressIPNSt8__detail15_Hash_node_baseEEPT_S4_ = comdat any

$_ZNSt15__new_allocatorIPNSt8__detail15_Hash_node_baseEE8allocateEmPKv = comdat any

$_ZNKSt15__new_allocatorIPNSt8__detail15_Hash_node_baseEE11_M_max_sizeEv = comdat any

$_ZNSt8__detail7_InsertIN4cvc58internal12NodeTemplateILb1EEES4_SaIS4_ENS_9_IdentityESt8equal_toIS4_ESt4hashIS4_ENS_18_Mod_range_hashingENS_20_Default_ranged_hashENS_20_Prime_rehash_policyENS_17_Hashtable_traitsILb1ELb1ELb1EEELb1EE6insertEOS4_ = comdat any

$_ZNSt10_HashtableIN4cvc58internal12NodeTemplateILb1EEES3_SaIS3_ENSt8__detail9_IdentityESt8equal_toIS3_ESt4hashIS3_ENS5_18_Mod_range_hashingENS5_20_Default_ranged_hashENS5_20_Prime_rehash_policyENS5_17_Hashtable_traitsILb1ELb1ELb1EEEE9_M_insertIS3_NS5_10_AllocNodeISaINS5_10_Hash_nodeIS3_Lb1EEEEEEEESt4pairINS5_14_Node_iteratorIS3_Lb1ELb1EEEbEOT_RKT0_St17integral_constantIbLb1EE = comdat any

$_ZNSt10_HashtableIN4cvc58internal12NodeTemplateILb1EEES3_SaIS3_ENSt8__detail9_IdentityESt8equal_toIS3_ESt4hashIS3_ENS5_18_Mod_range_hashingENS5_20_Default_ranged_hashENS5_20_Prime_rehash_policyENS5_17_Hashtable_traitsILb1ELb1ELb1EEEE16_M_insert_uniqueIS3_S3_NS5_10_AllocNodeISaINS5_10_Hash_nodeIS3_Lb1EEEEEEEESt4pairINS5_14_Node_iteratorIS3_Lb1ELb1EEEbEOT_OT0_RKT1_ = comdat any

$_ZNSt10_HashtableIN4cvc58internal12NodeTemplateILb1EEES3_SaIS3_ENSt8__detail9_IdentityESt8equal_toIS3_ESt4hashIS3_ENS5_18_Mod_range_hashingENS5_20_Default_ranged_hashENS5_20_Prime_rehash_policyENS5_17_Hashtable_traitsILb1ELb1ELb1EEEE14_S_forward_keyEOS3_ = comdat any

$_ZNKSt8__detail9_IdentityclIN4cvc58internal12NodeTemplateILb1EEEEEOT_S7_ = comdat any

$_ZNSt8__detail12_NodeBuilderINS_9_IdentityEE8_S_buildIN4cvc58internal12NodeTemplateILb1EEES7_NS_10_AllocNodeISaINS_10_Hash_nodeIS7_Lb1EEEEEEEEPNT1_11__node_typeEOT_OT0_RKSD_ = comdat any

$_ZNKSt8__detail10_AllocNodeISaINS_10_Hash_nodeIN4cvc58internal12NodeTemplateILb1EEELb1EEEEEclIJS5_EEEPS6_DpOT_ = comdat any

$_ZNSt8__detail16_Hashtable_allocISaINS_10_Hash_nodeIN4cvc58internal12NodeTemplateILb1EEELb1EEEEE16_M_allocate_nodeIJS5_EEEPS6_DpOT_ = comdat any

$_ZNSt16allocator_traitsISaINSt8__detail10_Hash_nodeIN4cvc58internal12NodeTemplateILb1EEELb1EEEEE9constructIS5_JS5_EEEvRS7_PT_DpOT0_ = comdat any

$_ZNSt15__new_allocatorINSt8__detail10_Hash_nodeIN4cvc58internal12NodeTemplateILb1EEELb1EEEE9constructIS5_JS5_EEEvPT_DpOT0_ = comdat any

$_ZNSt8__detail9_Map_baseIN4cvc58internal12NodeTemplateILb1EEESt4pairIKS4_S4_ESaIS7_ENS_10_Select1stESt8equal_toIS4_ESt4hashIS4_ENS_18_Mod_range_hashingENS_20_Default_ranged_hashENS_20_Prime_rehash_policyENS_17_Hashtable_traitsILb1ELb0ELb1EEELb1EEixERS6_ = comdat any

$_ZNSt8__detail21_Hash_node_value_baseISt4pairIKN4cvc58internal12NodeTemplateILb1EEES5_EE4_M_vEv = comdat any

$_ZNSt5tupleIJRKN4cvc58internal12NodeTemplateILb1EEEEEC2ILb1ETnNSt9enable_ifIXclsr4_TCCIXT_EEE29__is_implicitly_constructibleIS5_EEEbE4typeELb1EEES5_ = comdat any

$_ZNSt10_HashtableIN4cvc58internal12NodeTemplateILb1EEESt4pairIKS3_S3_ESaIS6_ENSt8__detail10_Select1stESt8equal_toIS3_ESt4hashIS3_ENS8_18_Mod_range_hashingENS8_20_Default_ranged_hashENS8_20_Prime_rehash_policyENS8_17_Hashtable_traitsILb1ELb0ELb1EEEE12_Scoped_nodeC2IJRKSt21piecewise_construct_tSt5tupleIJRS5_EESP_IJEEEEEPNS8_16_Hashtable_allocISaINS8_10_Hash_nodeIS6_Lb1EEEEEEDpOT_ = comdat any

$_ZNSt10_HashtableIN4cvc58internal12NodeTemplateILb1EEESt4pairIKS3_S3_ESaIS6_ENSt8__detail10_Select1stESt8equal_toIS3_ESt4hashIS3_ENS8_18_Mod_range_hashingENS8_20_Default_ranged_hashENS8_20_Prime_rehash_policyENS8_17_Hashtable_traitsILb1ELb0ELb1EEEE21_M_insert_unique_nodeEmmPNS8_10_Hash_nodeIS6_Lb1EEEm = comdat any

$_ZNKSt8__detail14_Node_iteratorISt4pairIKN4cvc58internal12NodeTemplateILb1EEES5_ELb0ELb1EEptEv = comdat any

$_ZNSt10_HashtableIN4cvc58internal12NodeTemplateILb1EEESt4pairIKS3_S3_ESaIS6_ENSt8__detail10_Select1stESt8equal_toIS3_ESt4hashIS3_ENS8_18_Mod_range_hashingENS8_20_Default_ranged_hashENS8_20_Prime_rehash_policyENS8_17_Hashtable_traitsILb1ELb0ELb1EEEE12_Scoped_nodeD2Ev = comdat any

$_ZNSt11_Tuple_implILm0EJRKN4cvc58internal12NodeTemplateILb1EEEEEC2ES5_ = comdat any

$_ZNSt10_Head_baseILm0ERKN4cvc58internal12NodeTemplateILb1EEELb0EEC2ES5_ = comdat any

$_ZNSt8__detail16_Hashtable_allocISaINS_10_Hash_nodeISt4pairIKN4cvc58internal12NodeTemplateILb1EEES6_ELb1EEEEE16_M_allocate_nodeIJRKSt21piecewise_construct_tSt5tupleIJRS7_EESG_IJEEEEEPS9_DpOT_ = comdat any

$_ZNSt16allocator_traitsISaINSt8__detail10_Hash_nodeISt4pairIKN4cvc58internal12NodeTemplateILb1EEES6_ELb1EEEEE8allocateERSA_m = comdat any

$_ZSt12__to_addressINSt8__detail10_Hash_nodeISt4pairIKN4cvc58internal12NodeTemplateILb1EEES6_ELb1EEEEPT_SB_ = comdat any

$_ZNSt8__detail10_Hash_nodeISt4pairIKN4cvc58internal12NodeTemplateILb1EEES5_ELb1EEC2Ev = comdat any

$_ZNSt16allocator_traitsISaINSt8__detail10_Hash_nodeISt4pairIKN4cvc58internal12NodeTemplateILb1EEES6_ELb1EEEEE9constructIS8_JRKSt21piecewise_construct_tSt5tupleIJRS7_EESG_IJEEEEEvRSA_PT_DpOT0_ = comdat any

$_ZNSt15__new_allocatorINSt8__detail10_Hash_nodeISt4pairIKN4cvc58internal12NodeTemplateILb1EEES6_ELb1EEEE8allocateEmPKv = comdat any

$_ZNKSt15__new_allocatorINSt8__detail10_Hash_nodeISt4pairIKN4cvc58internal12NodeTemplateILb1EEES6_ELb1EEEE11_M_max_sizeEv = comdat any

$_ZNSt15__new_allocatorINSt8__detail10_Hash_nodeISt4pairIKN4cvc58internal12NodeTemplateILb1EEES6_ELb1EEEE9constructIS8_JRKSt21piecewise_construct_tSt5tupleIJRS7_EESF_IJEEEEEvPT_DpOT0_ = comdat any

$_ZNSt5tupleIJRKN4cvc58internal12NodeTemplateILb1EEEEEC2EOS6_ = comdat any

$_ZNSt4pairIKN4cvc58internal12NodeTemplateILb1EEES3_EC2IJRS4_EJEEESt21piecewise_construct_tSt5tupleIJDpT_EES9_IJDpT0_EE = comdat any

$_ZNSt11_Tuple_implILm0EJRKN4cvc58internal12NodeTemplateILb1EEEEEC2EOS6_ = comdat any

$_ZNSt4pairIKN4cvc58internal12NodeTemplateILb1EEES3_EC2IJRS4_EJLm0EEJETpTnmJEEERSt5tupleIJDpT_EERS8_IJDpT1_EESt12_Index_tupleIJXspT0_EEESH_IJXspT2_EEE = comdat any

$_ZSt3getILm0EJRKN4cvc58internal12NodeTemplateILb1EEEEERNSt13tuple_elementIXT_ESt5tupleIJDpT0_EEE4typeERSA_ = comdat any

$_ZSt12__get_helperILm0ERKN4cvc58internal12NodeTemplateILb1EEEJEERT0_RSt11_Tuple_implIXT_EJS6_DpT1_EE = comdat any

$_ZNSt11_Tuple_implILm0EJRKN4cvc58internal12NodeTemplateILb1EEEEE7_M_headERS6_ = comdat any

$_ZNSt10_Head_baseILm0ERKN4cvc58internal12NodeTemplateILb1EEELb0EE7_M_headERS6_ = comdat any

$_ZNSt10_HashtableIN4cvc58internal12NodeTemplateILb1EEESt4pairIKS3_S3_ESaIS6_ENSt8__detail10_Select1stESt8equal_toIS3_ESt4hashIS3_ENS8_18_Mod_range_hashingENS8_20_Default_ranged_hashENS8_20_Prime_rehash_policyENS8_17_Hashtable_traitsILb1ELb0ELb1EEEE9_M_rehashEmRKm = comdat any

$_ZNKSt8__detail15_Hash_code_baseIN4cvc58internal12NodeTemplateILb1EEESt4pairIKS4_S4_ENS_10_Select1stESt4hashIS4_ENS_18_Mod_range_hashingENS_20_Default_ranged_hashELb1EE13_M_store_codeERNS_21_Hash_node_code_cacheILb1EEEm = comdat any

$_ZNSt10_HashtableIN4cvc58internal12NodeTemplateILb1EEESt4pairIKS3_S3_ESaIS6_ENSt8__detail10_Select1stESt8equal_toIS3_ESt4hashIS3_ENS8_18_Mod_range_hashingENS8_20_Default_ranged_hashENS8_20_Prime_rehash_policyENS8_17_Hashtable_traitsILb1ELb0ELb1EEEE22_M_insert_bucket_beginEmPNS8_10_Hash_nodeIS6_Lb1EEE = comdat any

$_ZNSt10_HashtableIN4cvc58internal12NodeTemplateILb1EEESt4pairIKS3_S3_ESaIS6_ENSt8__detail10_Select1stESt8equal_toIS3_ESt4hashIS3_ENS8_18_Mod_range_hashingENS8_20_Default_ranged_hashENS8_20_Prime_rehash_policyENS8_17_Hashtable_traitsILb1ELb0ELb1EEEE13_M_rehash_auxEmSt17integral_constantIbLb1EE = comdat any

$_ZNSt10_HashtableIN4cvc58internal12NodeTemplateILb1EEESt4pairIKS3_S3_ESaIS6_ENSt8__detail10_Select1stESt8equal_toIS3_ESt4hashIS3_ENS8_18_Mod_range_hashingENS8_20_Default_ranged_hashENS8_20_Prime_rehash_policyENS8_17_Hashtable_traitsILb1ELb0ELb1EEEE19_M_allocate_bucketsEm = comdat any

$_ZNSt8__detail16_Hashtable_allocISaINS_10_Hash_nodeISt4pairIKN4cvc58internal12NodeTemplateILb1EEES6_ELb1EEEEE19_M_allocate_bucketsEm = comdat any

$_ZNK4cvc58internal4expr9NodeValue14getNumChildrenEv = comdat any

$_ZN4cvc58internal12NodeTemplateILb1EEC2ERKNS1_ILb0EEE = comdat any

$_ZNSt6vectorIN4cvc58internal12NodeTemplateILb1EEESaIS3_EE14_M_insert_rvalEN9__gnu_cxx17__normal_iteratorIPKS3_S5_EEOS3_ = comdat any

$_ZN9__gnu_cxxeqIPKN4cvc58internal12NodeTemplateILb1EEESt6vectorIS4_SaIS4_EEEEbRKNS_17__normal_iteratorIT_T0_EESF_ = comdat any

$_ZNKSt6vectorIN4cvc58internal12NodeTemplateILb1EEESaIS3_EE4cendEv = comdat any

$_ZNSt15__new_allocatorISt6vectorIN4cvc58internal12NodeTemplateILb1EEESaIS4_EEED2Ev = comdat any

$_ZSt8_DestroyIPSt6vectorIN4cvc58internal12NodeTemplateILb1EEESaIS4_EES6_EvT_S8_RSaIT0_E = comdat any

$_ZNSt12_Vector_baseISt6vectorIN4cvc58internal12NodeTemplateILb1EEESaIS4_EESaIS6_EE19_M_get_Tp_allocatorEv = comdat any

$_ZNSt12_Vector_baseISt6vectorIN4cvc58internal12NodeTemplateILb1EEESaIS4_EESaIS6_EED2Ev = comdat any

$_ZSt8_DestroyIPSt6vectorIN4cvc58internal12NodeTemplateILb1EEESaIS4_EEEvT_S8_ = comdat any

$_ZNSt12_Destroy_auxILb0EE9__destroyIPSt6vectorIN4cvc58internal12NodeTemplateILb1EEESaIS6_EEEEvT_SA_ = comdat any

$_ZSt8_DestroyISt6vectorIN4cvc58internal12NodeTemplateILb1EEESaIS4_EEEvPT_ = comdat any

$_ZNSt12_Vector_baseISt6vectorIN4cvc58internal12NodeTemplateILb1EEESaIS4_EESaIS6_EE13_M_deallocateEPS6_m = comdat any

$_ZNSt12_Vector_baseISt6vectorIN4cvc58internal12NodeTemplateILb1EEESaIS4_EESaIS6_EE12_Vector_implD2Ev = comdat any

$_ZNSt16allocator_traitsISaISt6vectorIN4cvc58internal12NodeTemplateILb1EEESaIS4_EEEE10deallocateERS7_PS6_m = comdat any

$_ZNSt15__new_allocatorISt6vectorIN4cvc58internal12NodeTemplateILb1EEESaIS4_EEE10deallocateEPS6_m = comdat any

$_ZNSt6vectorIS_IN4cvc58internal12NodeTemplateILb1EEESaIS3_EESaIS5_EE12emplace_backIJS5_EEERS5_DpOT_ = comdat any

$_ZNSt16allocator_traitsISaISt6vectorIN4cvc58internal12NodeTemplateILb1EEESaIS4_EEEE9constructIS6_JS6_EEEvRS7_PT_DpOT0_ = comdat any

$_ZNSt6vectorIS_IN4cvc58internal12NodeTemplateILb1EEESaIS3_EESaIS5_EE17_M_realloc_insertIJS5_EEEvN9__gnu_cxx17__normal_iteratorIPS5_S7_EEDpOT_ = comdat any

$_ZNSt6vectorIS_IN4cvc58internal12NodeTemplateILb1EEESaIS3_EESaIS5_EE4backEv = comdat any

$_ZNSt15__new_allocatorISt6vectorIN4cvc58internal12NodeTemplateILb1EEESaIS4_EEE9constructIS6_JS6_EEEvPT_DpOT0_ = comdat any

$_ZNSt6vectorIN4cvc58internal12NodeTemplateILb1EEESaIS3_EEC2EOS5_ = comdat any

$_ZNSt12_Vector_baseIN4cvc58internal12NodeTemplateILb1EEESaIS3_EEC2EOS5_ = comdat any

$_ZNSt12_Vector_baseIN4cvc58internal12NodeTemplateILb1EEESaIS3_EE12_Vector_implC2EOS6_ = comdat any

$_ZNSt12_Vector_baseIN4cvc58internal12NodeTemplateILb1EEESaIS3_EE17_Vector_impl_dataC2EOS6_ = comdat any

$_ZNKSt6vectorIS_IN4cvc58internal12NodeTemplateILb1EEESaIS3_EESaIS5_EE12_M_check_lenEmPKc = comdat any

$_ZN9__gnu_cxxmiIPSt6vectorIN4cvc58internal12NodeTemplateILb1EEESaIS5_EES1_IS7_SaIS7_EEEENS_17__normal_iteratorIT_T0_E15difference_typeERKSE_SH_ = comdat any

$_ZNSt12_Vector_baseISt6vectorIN4cvc58internal12NodeTemplateILb1EEESaIS4_EESaIS6_EE11_M_allocateEm = comdat any

$_ZNSt6vectorIS_IN4cvc58internal12NodeTemplateILb1EEESaIS3_EESaIS5_EE11_S_relocateEPS5_S8_S8_RS6_ = comdat any

$_ZNK9__gnu_cxx17__normal_iteratorIPSt6vectorIN4cvc58internal12NodeTemplateILb1EEESaIS5_EES1_IS7_SaIS7_EEE4baseEv = comdat any

$_ZNKSt6vectorIS_IN4cvc58internal12NodeTemplateILb1EEESaIS3_EESaIS5_EE8max_sizeEv = comdat any

$_ZNKSt6vectorIS_IN4cvc58internal12NodeTemplateILb1EEESaIS3_EESaIS5_EE4sizeEv = comdat any

$_ZNSt6vectorIS_IN4cvc58internal12NodeTemplateILb1EEESaIS3_EESaIS5_EE11_S_max_sizeERKS6_ = comdat any

$_ZNKSt12_Vector_baseISt6vectorIN4cvc58internal12NodeTemplateILb1EEESaIS4_EESaIS6_EE19_M_get_Tp_allocatorEv = comdat any

$_ZNSt16allocator_traitsISaISt6vectorIN4cvc58internal12NodeTemplateILb1EEESaIS4_EEEE8max_sizeERKS7_ = comdat any

$_ZNKSt15__new_allocatorISt6vectorIN4cvc58internal12NodeTemplateILb1EEESaIS4_EEE8max_sizeEv = comdat any

$_ZNKSt15__new_allocatorISt6vectorIN4cvc58internal12NodeTemplateILb1EEESaIS4_EEE11_M_max_sizeEv = comdat any

$_ZNSt16allocator_traitsISaISt6vectorIN4cvc58internal12NodeTemplateILb1EEESaIS4_EEEE8allocateERS7_m = comdat any

$_ZNSt15__new_allocatorISt6vectorIN4cvc58internal12NodeTemplateILb1EEESaIS4_EEE8allocateEmPKv = comdat any

$_ZSt12__relocate_aIPSt6vectorIN4cvc58internal12NodeTemplateILb1EEESaIS4_EES7_SaIS6_EET0_T_SA_S9_RT1_ = comdat any

$_ZSt14__relocate_a_1IPSt6vectorIN4cvc58internal12NodeTemplateILb1EEESaIS4_EES7_SaIS6_EET0_T_SA_S9_RT1_ = comdat any

$_ZSt12__niter_baseIPSt6vectorIN4cvc58internal12NodeTemplateILb1EEESaIS4_EEET_S8_ = comdat any

$_ZSt19__relocate_object_aISt6vectorIN4cvc58internal12NodeTemplateILb1EEESaIS4_EES6_SaIS6_EEvPT_PT0_RT1_ = comdat any

$_ZNSt16allocator_traitsISaISt6vectorIN4cvc58internal12NodeTemplateILb1EEESaIS4_EEEE7destroyIS6_EEvRS7_PT_ = comdat any

$_ZNSt15__new_allocatorISt6vectorIN4cvc58internal12NodeTemplateILb1EEESaIS4_EEE7destroyIS6_EEvPT_ = comdat any

$_ZNK9__gnu_cxx17__normal_iteratorIPSt6vectorIN4cvc58internal12NodeTemplateILb1EEESaIS5_EES1_IS7_SaIS7_EEEmiEl = comdat any

$_ZNK9__gnu_cxx17__normal_iteratorIPSt6vectorIN4cvc58internal12NodeTemplateILb1EEESaIS5_EES1_IS7_SaIS7_EEEdeEv = comdat any

$_ZN9__gnu_cxx17__normal_iteratorIPSt6vectorIN4cvc58internal12NodeTemplateILb1EEESaIS5_EES1_IS7_SaIS7_EEEC2ERKS8_ = comdat any

$_ZNSt12_Vector_baseISt6vectorIN4cvc58internal12NodeTemplateILb1EEESaIS4_EESaIS6_EEC2ERKS7_ = comdat any

$_ZNSt6vectorIS_IN4cvc58internal12NodeTemplateILb1EEESaIS3_EESaIS5_EE19_M_range_initializeIN9__gnu_cxx17__normal_iteratorIPS5_S7_EEEEvT_SD_St20forward_iterator_tag = comdat any

$_ZSt19__iterator_categoryIN9__gnu_cxx17__normal_iteratorIPSt6vectorIN4cvc58internal12NodeTemplateILb1EEESaIS6_EES2_IS8_SaIS8_EEEEENSt15iterator_traitsIT_E17iterator_categoryERKSE_ = comdat any

$_ZNSt12_Vector_baseISt6vectorIN4cvc58internal12NodeTemplateILb1EEESaIS4_EESaIS6_EE12_Vector_implC2ERKS7_ = comdat any

$_ZNSt15__new_allocatorISt6vectorIN4cvc58internal12NodeTemplateILb1EEESaIS4_EEEC2ERKS7_ = comdat any

$_ZSt8distanceIN9__gnu_cxx17__normal_iteratorIPSt6vectorIN4cvc58internal12NodeTemplateILb1EEESaIS6_EES2_IS8_SaIS8_EEEEENSt15iterator_traitsIT_E15difference_typeESE_SE_ = comdat any

$_ZNSt6vectorIS_IN4cvc58internal12NodeTemplateILb1EEESaIS3_EESaIS5_EE17_S_check_init_lenEmRKS6_ = comdat any

$_ZSt22__uninitialized_copy_aIN9__gnu_cxx17__normal_iteratorIPSt6vectorIN4cvc58internal12NodeTemplateILb1EEESaIS6_EES2_IS8_SaIS8_EEEES9_S8_ET0_T_SE_SD_RSaIT1_E = comdat any

$_ZSt10__distanceIN9__gnu_cxx17__normal_iteratorIPSt6vectorIN4cvc58internal12NodeTemplateILb1EEESaIS6_EES2_IS8_SaIS8_EEEEENSt15iterator_traitsIT_E15difference_typeESE_SE_St26random_access_iterator_tag = comdat any

$_ZNSaISt6vectorIN4cvc58internal12NodeTemplateILb1EEESaIS3_EEEC2ERKS6_ = comdat any

$_ZSt18uninitialized_copyIN9__gnu_cxx17__normal_iteratorIPSt6vectorIN4cvc58internal12NodeTemplateILb1EEESaIS6_EES2_IS8_SaIS8_EEEES9_ET0_T_SE_SD_ = comdat any

$_ZNSt20__uninitialized_copyILb0EE13__uninit_copyIN9__gnu_cxx17__normal_iteratorIPSt6vectorIN4cvc58internal12NodeTemplateILb1EEESaIS8_EES4_ISA_SaISA_EEEESB_EET0_T_SG_SF_ = comdat any

$_ZSt16__do_uninit_copyIN9__gnu_cxx17__normal_iteratorIPSt6vectorIN4cvc58internal12NodeTemplateILb1EEESaIS6_EES2_IS8_SaIS8_EEEES9_ET0_T_SE_SD_ = comdat any

$_ZN9__gnu_cxxneIPSt6vectorIN4cvc58internal12NodeTemplateILb1EEESaIS5_EES1_IS7_SaIS7_EEEEbRKNS_17__normal_iteratorIT_T0_EESG_ = comdat any

$_ZSt10_ConstructISt6vectorIN4cvc58internal12NodeTemplateILb1EEESaIS4_EEJRS6_EEvPT_DpOT0_ = comdat any

$_ZN9__gnu_cxx17__normal_iteratorIPSt6vectorIN4cvc58internal12NodeTemplateILb1EEESaIS5_EES1_IS7_SaIS7_EEEppEv = comdat any

$_ZNSt6vectorIN4cvc58internal12NodeTemplateILb1EEESaIS3_EEC2ERKS5_ = comdat any

$_ZN9__gnu_cxx14__alloc_traitsISaIN4cvc58internal12NodeTemplateILb1EEEES4_E17_S_select_on_copyERKS5_ = comdat any

$_ZNSt12_Vector_baseIN4cvc58internal12NodeTemplateILb1EEESaIS3_EEC2EmRKS4_ = comdat any

$_ZSt22__uninitialized_copy_aIN9__gnu_cxx17__normal_iteratorIPKN4cvc58internal12NodeTemplateILb1EEESt6vectorIS5_SaIS5_EEEEPS5_S5_ET0_T_SE_SD_RSaIT1_E = comdat any

$_ZNSt16allocator_traitsISaIN4cvc58internal12NodeTemplateILb1EEEEE37select_on_container_copy_constructionERKS4_ = comdat any

$_ZNSt12_Vector_baseIN4cvc58internal12NodeTemplateILb1EEESaIS3_EE17_M_create_storageEm = comdat any

$_ZSt18uninitialized_copyIN9__gnu_cxx17__normal_iteratorIPKN4cvc58internal12NodeTemplateILb1EEESt6vectorIS5_SaIS5_EEEEPS5_ET0_T_SE_SD_ = comdat any

$_ZNSt20__uninitialized_copyILb0EE13__uninit_copyIN9__gnu_cxx17__normal_iteratorIPKN4cvc58internal12NodeTemplateILb1EEESt6vectorIS7_SaIS7_EEEEPS7_EET0_T_SG_SF_ = comdat any

$_ZSt16__do_uninit_copyIN9__gnu_cxx17__normal_iteratorIPKN4cvc58internal12NodeTemplateILb1EEESt6vectorIS5_SaIS5_EEEEPS5_ET0_T_SE_SD_ = comdat any

$_ZNSt6vectorIS_IN4cvc58internal12NodeTemplateILb1EEESaIS3_EESaIS5_EE15_M_erase_at_endEPS5_ = comdat any

$_ZN9__gnu_cxxmiIPKSt6vectorIN4cvc58internal12NodeTemplateILb1EEESaIS5_EES1_IS7_SaIS7_EEEENS_17__normal_iteratorIT_T0_E15difference_typeERKSF_SI_ = comdat any

$_ZNKSt6vectorIS_IN4cvc58internal12NodeTemplateILb1EEESaIS3_EESaIS5_EE6cbeginEv = comdat any

$_ZNSt6vectorIS_IN4cvc58internal12NodeTemplateILb1EEESaIS3_EESaIS5_EE18_M_insert_dispatchIN9__gnu_cxx17__normal_iteratorIPS5_S7_EEEEvSC_T_SD_St12__false_type = comdat any

$_ZNK9__gnu_cxx17__normal_iteratorIPKSt6vectorIN4cvc58internal12NodeTemplateILb1EEESaIS5_EES1_IS7_SaIS7_EEE4baseEv = comdat any

$_ZN9__gnu_cxx17__normal_iteratorIPKSt6vectorIN4cvc58internal12NodeTemplateILb1EEESaIS5_EES1_IS7_SaIS7_EEEC2ERKS9_ = comdat any

$_ZNSt6vectorIS_IN4cvc58internal12NodeTemplateILb1EEESaIS3_EESaIS5_EE15_M_range_insertIN9__gnu_cxx17__normal_iteratorIPS5_S7_EEEEvSC_T_SD_St20forward_iterator_tag = comdat any

$_ZSt22__uninitialized_move_aIPSt6vectorIN4cvc58internal12NodeTemplateILb1EEESaIS4_EES7_SaIS6_EET0_T_SA_S9_RT1_ = comdat any

$_ZSt13move_backwardIPSt6vectorIN4cvc58internal12NodeTemplateILb1EEESaIS4_EES7_ET0_T_S9_S8_ = comdat any

$_ZSt4copyIN9__gnu_cxx17__normal_iteratorIPSt6vectorIN4cvc58internal12NodeTemplateILb1EEESaIS6_EES2_IS8_SaIS8_EEEESC_ET0_T_SE_SD_ = comdat any

$_ZSt7advanceIN9__gnu_cxx17__normal_iteratorIPSt6vectorIN4cvc58internal12NodeTemplateILb1EEESaIS6_EES2_IS8_SaIS8_EEEEmEvRT_T0_ = comdat any

$_ZSt34__uninitialized_move_if_noexcept_aIPSt6vectorIN4cvc58internal12NodeTemplateILb1EEESaIS4_EES7_SaIS6_EET0_T_SA_S9_RT1_ = comdat any

$_ZSt22__uninitialized_copy_aISt13move_iteratorIPSt6vectorIN4cvc58internal12NodeTemplateILb1EEESaIS5_EEES8_S7_ET0_T_SB_SA_RSaIT1_E = comdat any

$_ZSt18make_move_iteratorIPSt6vectorIN4cvc58internal12NodeTemplateILb1EEESaIS4_EEESt13move_iteratorIT_ES9_ = comdat any

$_ZSt18uninitialized_copyISt13move_iteratorIPSt6vectorIN4cvc58internal12NodeTemplateILb1EEESaIS5_EEES8_ET0_T_SB_SA_ = comdat any

$_ZNSt20__uninitialized_copyILb0EE13__uninit_copyISt13move_iteratorIPSt6vectorIN4cvc58internal12NodeTemplateILb1EEESaIS7_EEESA_EET0_T_SD_SC_ = comdat any

$_ZSt16__do_uninit_copyISt13move_iteratorIPSt6vectorIN4cvc58internal12NodeTemplateILb1EEESaIS5_EEES8_ET0_T_SB_SA_ = comdat any

$_ZStneIPSt6vectorIN4cvc58internal12NodeTemplateILb1EEESaIS4_EEEbRKSt13move_iteratorIT_ESC_ = comdat any

$_ZSt10_ConstructISt6vectorIN4cvc58internal12NodeTemplateILb1EEESaIS4_EEJS6_EEvPT_DpOT0_ = comdat any

$_ZNKSt13move_iteratorIPSt6vectorIN4cvc58internal12NodeTemplateILb1EEESaIS4_EEEdeEv = comdat any

$_ZNSt13move_iteratorIPSt6vectorIN4cvc58internal12NodeTemplateILb1EEESaIS4_EEEppEv = comdat any

$_ZSteqIPSt6vectorIN4cvc58internal12NodeTemplateILb1EEESaIS4_EEEbRKSt13move_iteratorIT_ESC_ = comdat any

$_ZNKSt13move_iteratorIPSt6vectorIN4cvc58internal12NodeTemplateILb1EEESaIS4_EEE4baseEv = comdat any

$_ZNSt13move_iteratorIPSt6vectorIN4cvc58internal12NodeTemplateILb1EEESaIS4_EEEC2ES7_ = comdat any

$_ZSt22__copy_move_backward_aILb1EPSt6vectorIN4cvc58internal12NodeTemplateILb1EEESaIS4_EES7_ET1_T0_S9_S8_ = comdat any

$_ZSt12__miter_baseIPSt6vectorIN4cvc58internal12NodeTemplateILb1EEESaIS4_EEET_S8_ = comdat any

$_ZSt12__niter_wrapIPSt6vectorIN4cvc58internal12NodeTemplateILb1EEESaIS4_EEET_RKS8_S8_ = comdat any

$_ZSt23__copy_move_backward_a1ILb1EPSt6vectorIN4cvc58internal12NodeTemplateILb1EEESaIS4_EES7_ET1_T0_S9_S8_ = comdat any

$_ZSt23__copy_move_backward_a2ILb1EPSt6vectorIN4cvc58internal12NodeTemplateILb1EEESaIS4_EES7_ET1_T0_S9_S8_ = comdat any

$_ZNSt20__copy_move_backwardILb1ELb0ESt26random_access_iterator_tagE13__copy_move_bIPSt6vectorIN4cvc58internal12NodeTemplateILb1EEESaIS7_EESA_EET0_T_SC_SB_ = comdat any

$_ZNSt6vectorIN4cvc58internal12NodeTemplateILb1EEESaIS3_EEaSEOS5_ = comdat any

$_ZNSt6vectorIN4cvc58internal12NodeTemplateILb1EEESaIS3_EE14_M_move_assignEOS5_St17integral_constantIbLb1EE = comdat any

$_ZNKSt12_Vector_baseIN4cvc58internal12NodeTemplateILb1EEESaIS3_EE13get_allocatorEv = comdat any

$_ZNSt6vectorIN4cvc58internal12NodeTemplateILb1EEESaIS3_EEC2ERKS4_ = comdat any

$_ZNSt12_Vector_baseIN4cvc58internal12NodeTemplateILb1EEESaIS3_EE17_Vector_impl_data12_M_swap_dataERS6_ = comdat any

$_ZSt15__alloc_on_moveISaIN4cvc58internal12NodeTemplateILb1EEEEEvRT_S6_ = comdat any

$_ZNSt12_Vector_baseIN4cvc58internal12NodeTemplateILb1EEESaIS3_EE17_Vector_impl_dataC2Ev = comdat any

$_ZNSt12_Vector_baseIN4cvc58internal12NodeTemplateILb1EEESaIS3_EE17_Vector_impl_data12_M_copy_dataERKS6_ = comdat any

$_ZSt13__copy_move_aILb0EN9__gnu_cxx17__normal_iteratorIPSt6vectorIN4cvc58internal12NodeTemplateILb1EEESaIS6_EES2_IS8_SaIS8_EEEESC_ET1_T0_SE_SD_ = comdat any

$_ZSt12__miter_baseIN9__gnu_cxx17__normal_iteratorIPSt6vectorIN4cvc58internal12NodeTemplateILb1EEESaIS6_EES2_IS8_SaIS8_EEEEET_SD_ = comdat any

$_ZSt12__niter_wrapIN9__gnu_cxx17__normal_iteratorIPSt6vectorIN4cvc58internal12NodeTemplateILb1EEESaIS6_EES2_IS8_SaIS8_EEEES9_ET_SD_T0_ = comdat any

$_ZSt14__copy_move_a1ILb0EPSt6vectorIN4cvc58internal12NodeTemplateILb1EEESaIS4_EES7_ET1_T0_S9_S8_ = comdat any

$_ZSt12__niter_baseIPSt6vectorIN4cvc58internal12NodeTemplateILb1EEESaIS4_EES0_IS6_SaIS6_EEET_N9__gnu_cxx17__normal_iteratorISA_T0_EE = comdat any

$_ZSt14__copy_move_a2ILb0EPSt6vectorIN4cvc58internal12NodeTemplateILb1EEESaIS4_EES7_ET1_T0_S9_S8_ = comdat any

$_ZNSt11__copy_moveILb0ELb0ESt26random_access_iterator_tagE8__copy_mIPSt6vectorIN4cvc58internal12NodeTemplateILb1EEESaIS7_EESA_EET0_T_SC_SB_ = comdat any

$_ZNSt6vectorIN4cvc58internal12NodeTemplateILb1EEESaIS3_EEaSERKS5_ = comdat any

$_ZNKSt6vectorIN4cvc58internal12NodeTemplateILb1EEESaIS3_EE8capacityEv = comdat any

$_ZNSt6vectorIN4cvc58internal12NodeTemplateILb1EEESaIS3_EE20_M_allocate_and_copyIN9__gnu_cxx17__normal_iteratorIPKS3_S5_EEEEPS3_mT_SD_ = comdat any

$_ZSt8_DestroyIN9__gnu_cxx17__normal_iteratorIPN4cvc58internal12NodeTemplateILb1EEESt6vectorIS5_SaIS5_EEEES5_EvT_SB_RSaIT0_E = comdat any

$_ZSt4copyIN9__gnu_cxx17__normal_iteratorIPKN4cvc58internal12NodeTemplateILb1EEESt6vectorIS5_SaIS5_EEEENS1_IPS5_SA_EEET0_T_SF_SE_ = comdat any

$_ZSt4copyIPN4cvc58internal12NodeTemplateILb1EEES4_ET0_T_S6_S5_ = comdat any

$_ZSt22__uninitialized_copy_aIPN4cvc58internal12NodeTemplateILb1EEES4_S3_ET0_T_S6_S5_RSaIT1_E = comdat any

$_ZSt8_DestroyIN9__gnu_cxx17__normal_iteratorIPN4cvc58internal12NodeTemplateILb1EEESt6vectorIS5_SaIS5_EEEEEvT_SB_ = comdat any

$_ZNSt12_Destroy_auxILb0EE9__destroyIN9__gnu_cxx17__normal_iteratorIPN4cvc58internal12NodeTemplateILb1EEESt6vectorIS7_SaIS7_EEEEEEvT_SD_ = comdat any

$_ZSt13__copy_move_aILb0EN9__gnu_cxx17__normal_iteratorIPKN4cvc58internal12NodeTemplateILb1EEESt6vectorIS5_SaIS5_EEEENS1_IPS5_SA_EEET1_T0_SF_SE_ = comdat any

$_ZSt12__miter_baseIN9__gnu_cxx17__normal_iteratorIPKN4cvc58internal12NodeTemplateILb1EEESt6vectorIS5_SaIS5_EEEEET_SC_ = comdat any

$_ZSt14__copy_move_a1ILb0EPKN4cvc58internal12NodeTemplateILb1EEEPS3_ET1_T0_S8_S7_ = comdat any

$_ZSt12__niter_baseIPKN4cvc58internal12NodeTemplateILb1EEESt6vectorIS3_SaIS3_EEET_N9__gnu_cxx17__normal_iteratorIS9_T0_EE = comdat any

$_ZSt14__copy_move_a2ILb0EPKN4cvc58internal12NodeTemplateILb1EEEPS3_ET1_T0_S8_S7_ = comdat any

$_ZNSt11__copy_moveILb0ELb0ESt26random_access_iterator_tagE8__copy_mIPKN4cvc58internal12NodeTemplateILb1EEEPS6_EET0_T_SB_SA_ = comdat any

$_ZSt13__copy_move_aILb0EPN4cvc58internal12NodeTemplateILb1EEES4_ET1_T0_S6_S5_ = comdat any

$_ZSt18uninitialized_copyIPN4cvc58internal12NodeTemplateILb1EEES4_ET0_T_S6_S5_ = comdat any

$_ZNSt20__uninitialized_copyILb0EE13__uninit_copyIPN4cvc58internal12NodeTemplateILb1EEES6_EET0_T_S8_S7_ = comdat any

$_ZSt16__do_uninit_copyIPN4cvc58internal12NodeTemplateILb1EEES4_ET0_T_S6_S5_ = comdat any

$_ZSt9__advanceIN9__gnu_cxx17__normal_iteratorIPSt6vectorIN4cvc58internal12NodeTemplateILb1EEESaIS6_EES2_IS8_SaIS8_EEEElEvRT_T0_St26random_access_iterator_tag = comdat any

$_ZN9__gnu_cxx17__normal_iteratorIPSt6vectorIN4cvc58internal12NodeTemplateILb1EEESaIS5_EES1_IS7_SaIS7_EEEmmEv = comdat any

$_ZN9__gnu_cxx17__normal_iteratorIPSt6vectorIN4cvc58internal12NodeTemplateILb1EEESaIS5_EES1_IS7_SaIS7_EEEpLEl = comdat any

$_ZSt32__make_move_if_noexcept_iteratorISt6vectorIN4cvc58internal12NodeTemplateILb1EEESaIS4_EESt13move_iteratorIPS6_EET0_PT_ = comdat any

$_ZNK4cvc58internal4expr9NodeValue5beginINS0_12NodeTemplateILb1EEEEENS2_8iteratorIT_EEv = comdat any

$_ZN4cvc58internal4expr9NodeValue8iteratorINS0_12NodeTemplateILb1EEEEC2EPKPKS2_ = comdat any

$_ZNSt6vectorIN4cvc58internal12NodeTemplateILb1EEESaIS3_EE19_M_range_initializeINS1_4expr9NodeValue8iteratorIS3_EEEEvT_SB_St20forward_iterator_tag = comdat any

$_ZSt19__iterator_categoryIN4cvc58internal4expr9NodeValue8iteratorINS1_12NodeTemplateILb1EEEEEENSt15iterator_traitsIT_E17iterator_categoryERKS9_ = comdat any

$_ZSt8distanceIN4cvc58internal4expr9NodeValue8iteratorINS1_12NodeTemplateILb1EEEEEENSt15iterator_traitsIT_E15difference_typeES9_S9_ = comdat any

$_ZSt22__uninitialized_copy_aIN4cvc58internal4expr9NodeValue8iteratorINS1_12NodeTemplateILb1EEEEEPS6_S6_ET0_T_SA_S9_RSaIT1_E = comdat any

$_ZSt10__distanceIN4cvc58internal4expr9NodeValue8iteratorINS1_12NodeTemplateILb1EEEEEENSt15iterator_traitsIT_E15difference_typeES9_S9_St26random_access_iterator_tag = comdat any

$_ZN4cvc58internal4expr9NodeValue8iteratorINS0_12NodeTemplateILb1EEEEmiES6_ = comdat any

$_ZSt18uninitialized_copyIN4cvc58internal4expr9NodeValue8iteratorINS1_12NodeTemplateILb1EEEEEPS6_ET0_T_SA_S9_ = comdat any

$_ZNSt20__uninitialized_copyILb0EE13__uninit_copyIN4cvc58internal4expr9NodeValue8iteratorINS3_12NodeTemplateILb1EEEEEPS8_EET0_T_SC_SB_ = comdat any

$_ZSt16__do_uninit_copyIN4cvc58internal4expr9NodeValue8iteratorINS1_12NodeTemplateILb1EEEEEPS6_ET0_T_SA_S9_ = comdat any

$_ZNK4cvc58internal4expr9NodeValue8iteratorINS0_12NodeTemplateILb1EEEEneERKS6_ = comdat any

$_ZNK4cvc58internal4expr9NodeValue8iteratorINS0_12NodeTemplateILb1EEEEdeEv = comdat any

$_ZN4cvc58internal4expr9NodeValue8iteratorINS0_12NodeTemplateILb1EEEEppEv = comdat any

$_ZNK4cvc58internal4expr9NodeValue3endINS0_12NodeTemplateILb1EEEEENS2_8iteratorIT_EEv = comdat any

$_ZNSt6vectorIN4cvc58internal12NodeTemplateILb1EEESaIS3_EE18_M_insert_dispatchINS1_4expr9NodeValue8iteratorIS3_EEEEvN9__gnu_cxx17__normal_iteratorIPS3_S5_EET_SF_St12__false_type = comdat any

$_ZNSt6vectorIN4cvc58internal12NodeTemplateILb1EEESaIS3_EE15_M_range_insertINS1_4expr9NodeValue8iteratorIS3_EEEEvN9__gnu_cxx17__normal_iteratorIPS3_S5_EET_SF_St20forward_iterator_tag = comdat any

$_ZSt4copyIN4cvc58internal4expr9NodeValue8iteratorINS1_12NodeTemplateILb1EEEEEN9__gnu_cxx17__normal_iteratorIPS6_St6vectorIS6_SaIS6_EEEEET0_T_SG_SF_ = comdat any

$_ZSt7advanceIN4cvc58internal4expr9NodeValue8iteratorINS1_12NodeTemplateILb1EEEEEmEvRT_T0_ = comdat any

$_ZSt13__copy_move_aILb0EN4cvc58internal4expr9NodeValue8iteratorINS1_12NodeTemplateILb1EEEEEN9__gnu_cxx17__normal_iteratorIPS6_St6vectorIS6_SaIS6_EEEEET1_T0_SG_SF_ = comdat any

$_ZSt12__miter_baseIN4cvc58internal4expr9NodeValue8iteratorINS1_12NodeTemplateILb1EEEEEET_S8_ = comdat any

$_ZSt14__copy_move_a1ILb0EN4cvc58internal4expr9NodeValue8iteratorINS1_12NodeTemplateILb1EEEEEPS6_ET1_T0_SA_S9_ = comdat any

$_ZSt12__niter_baseIN4cvc58internal4expr9NodeValue8iteratorINS1_12NodeTemplateILb1EEEEEET_S8_ = comdat any

$_ZSt14__copy_move_a2ILb0EN4cvc58internal4expr9NodeValue8iteratorINS1_12NodeTemplateILb1EEEEEPS6_ET1_T0_SA_S9_ = comdat any

$_ZNSt11__copy_moveILb0ELb0ESt26random_access_iterator_tagE8__copy_mIN4cvc58internal4expr9NodeValue8iteratorINS4_12NodeTemplateILb1EEEEEPS9_EET0_T_SD_SC_ = comdat any

$_ZSt9__advanceIN4cvc58internal4expr9NodeValue8iteratorINS1_12NodeTemplateILb1EEEEElEvRT_T0_St26random_access_iterator_tag = comdat any

$_ZN4cvc58internal4expr9NodeValue8iteratorINS0_12NodeTemplateILb1EEEEmmEv = comdat any

$_ZN4cvc58internal4expr9NodeValue8iteratorINS0_12NodeTemplateILb1EEEEpLEl = comdat any

$_ZNSt6vectorIN4cvc58internal12NodeTemplateILb1EEESaIS3_EE21_M_default_initializeEm = comdat any

$_ZSt27__uninitialized_default_n_aIPN4cvc58internal12NodeTemplateILb1EEEmS3_ET_S5_T0_RSaIT1_E = comdat any

$_ZSt25__uninitialized_default_nIPN4cvc58internal12NodeTemplateILb1EEEmET_S5_T0_ = comdat any

$_ZNSt27__uninitialized_default_n_1ILb0EE18__uninit_default_nIPN4cvc58internal12NodeTemplateILb1EEEmEET_S7_T0_ = comdat any

$_ZSt10_ConstructIN4cvc58internal12NodeTemplateILb1EEEJEEvPT_DpOT0_ = comdat any

$_ZNSt6vectorIN4cvc58internal12NodeTemplateILb1EEESaIS3_EE8_M_eraseEN9__gnu_cxx17__normal_iteratorIPS3_S5_EE = comdat any

$_ZSt4moveIN9__gnu_cxx17__normal_iteratorIPN4cvc58internal12NodeTemplateILb1EEESt6vectorIS5_SaIS5_EEEESA_ET0_T_SC_SB_ = comdat any

$_ZSt13__copy_move_aILb1EN9__gnu_cxx17__normal_iteratorIPN4cvc58internal12NodeTemplateILb1EEESt6vectorIS5_SaIS5_EEEESA_ET1_T0_SC_SB_ = comdat any

$_ZSt14__copy_move_a1ILb1EPN4cvc58internal12NodeTemplateILb1EEES4_ET1_T0_S6_S5_ = comdat any

$_ZSt14__copy_move_a2ILb1EPN4cvc58internal12NodeTemplateILb1EEES4_ET1_T0_S6_S5_ = comdat any

$_ZNSt11__copy_moveILb1ELb0ESt26random_access_iterator_tagE8__copy_mIPN4cvc58internal12NodeTemplateILb1EEES7_EET0_T_S9_S8_ = comdat any

$_ZN4cvc58internal4expr9NodeValueC2Ei = comdat any

$_ZSt19piecewise_construct = comdat any

$_ZZN4cvc58internal4expr9NodeValue4nullEvE6s_null = comdat any

$_ZGVZN4cvc58internal4expr9NodeValue4nullEvE6s_null = comdat any

@_ZStL8__ioinit = internal global %"class.std::ios_base::Init" zeroinitializer, align 1
@__dso_handle = external hidden global i8
@_ZN4cvc58internal10nullStreamE = external global %"class.cvc5::internal::NullC", align 1
@_ZN4cvc58internal12TraceChannelE = external global %"class.cvc5::internal::TraceC", align 8
@.str = private unnamed_addr constant [3 x i8] c"  \00", align 1
@.str.1 = private unnamed_addr constant [2 x i8] c"(\00", align 1
@.str.2 = private unnamed_addr constant [2 x i8] c")\00", align 1
@.str.3 = private unnamed_addr constant [2 x i8] c",\00", align 1
@.str.4 = private unnamed_addr constant [1 x i8] zeroinitializer, align 1
@.str.5 = private unnamed_addr constant [37 x i8] c"EqProof::cleanReflPremises: removed \00", align 1
@.str.6 = private unnamed_addr constant [21 x i8] c" refl premises from \00", align 1
@.str.7 = private unnamed_addr constant [2 x i8] c"\0A\00", align 1
@.str.8 = private unnamed_addr constant [42 x i8] c"EqProof::cleanReflPremises: new premises \00", align 1
@.str.9 = private unnamed_addr constant [100 x i8] c"EqProof::expandTransitivityForDisequalities: check if need to expand transitivity step to conclude \00", align 1
@.str.10 = private unnamed_addr constant [16 x i8] c" from premises \00", align 1
@.str.11 = private unnamed_addr constant [55 x i8] c"EqProof::expandTransitivityForDisequalities: no need.\0A\00", align 1
@.str.12 = private unnamed_addr constant [80 x i8] c"EqProof::expandTransitivityForDisequalities: found offending equality at index \00", align 1
@.str.13 = private unnamed_addr constant [4 x i8] c" : \00", align 1
@.str.14 = private unnamed_addr constant [90 x i8] c"EqProof::expandTransitivityForDisequalities: Substitition case. Need to build subst from \00", align 1
@.str.15 = private unnamed_addr constant [5 x i8] c" to \00", align 1
@.str.16 = private unnamed_addr constant [75 x i8] c"EqProof::expandTransitivityForDisequalities: Need to expand premises into \00", align 1
@.str.17 = private unnamed_addr constant [79 x i8] c"EqProof::expandTransitivityForDisequalities: Need two substitutions. Look for \00", align 1
@.str.18 = private unnamed_addr constant [6 x i8] c" and \00", align 1
@.str.19 = private unnamed_addr constant [14 x i8] c" in premises \00", align 1
@.str.20 = private unnamed_addr constant [113 x i8] c"EqProof::expandTransitivityForDisequalities: Build transitivity chains for two subs among more than 2 premises: \00", align 1
@__PRETTY_FUNCTION__._ZNK4cvc58internal6theory2eq7EqProof34expandTransitivityForDisequalitiesENS0_12NodeTemplateILb1EEERSt6vectorIS5_SaIS5_EEPNS0_7CDProofERSt13unordered_setIS5_St4hashIS5_ESt8equal_toIS5_ES7_E = private unnamed_addr constant [149 x i8] c"bool cvc5::internal::theory::eq::EqProof::expandTransitivityForDisequalities(Node, std::vector<Node> &, CDProof *, std::unordered_set<Node> &) const\00", align 1
@.str.21 = private unnamed_addr constant [114 x i8] c"generated/home/dtcxzyw/WorkSpace/Projects/compilers/llvm-opt-benchmark/bench/cvc5/cvc5/src/theory/uf/eq_proof.cpp\00", align 1
@.str.22 = private unnamed_addr constant [17 x i8] c"Check failure\0A\0A \00", align 1
@.str.23 = private unnamed_addr constant [7 x i8] c"i == 0\00", align 1
@.str.24 = private unnamed_addr constant [83 x i8] c"Couldn't find sub at all for substituting BOTH terms in disequality.\0ADisequality: \00", align 1
@.str.25 = private unnamed_addr constant [22 x i8] c"\0AExpansion premises: \00", align 1
@.str.26 = private unnamed_addr constant [14 x i8] c"\0AConclusion: \00", align 1
@.str.27 = private unnamed_addr constant [26 x i8] c"Unreachable code reached \00", align 1
@.str.28 = private unnamed_addr constant [11 x i8] c"Found sub \00", align 1
@.str.29 = private unnamed_addr constant [20 x i8] c" but not other sub \00", align 1
@.str.30 = private unnamed_addr constant [16 x i8] c".\0ADisequality: \00", align 1
@.str.31 = private unnamed_addr constant [107 x i8] c"EqProof::expandTransitivityForDisequalities: Built trans chains: for two subs among more than 2 premises:\0A\00", align 1
@.str.32 = private unnamed_addr constant [46 x i8] c"EqProof::expandTransitivityForDisequalities: \00", align 1
@.str.33 = private unnamed_addr constant [5 x i8] c" <- \00", align 1
@.str.34 = private unnamed_addr constant [66 x i8] c"EqProof::expandTransitivityForDisequalities: Built substutitions \00", align 1
@.str.35 = private unnamed_addr constant [9 x i8] c" to map \00", align 1
@.str.36 = private unnamed_addr constant [5 x i8] c" -> \00", align 1
@.str.37 = private unnamed_addr constant [61 x i8] c"EqProof::expandTransitivityForDisequalities: need to derive \00", align 1
@.str.38 = private unnamed_addr constant [16 x i8] c" with premises \00", align 1
@.str.39 = private unnamed_addr constant [72 x i8] c"EqProof::expandTransitivityForDisequalities: add transitivity step for \00", align 1
@.str.40 = private unnamed_addr constant [68 x i8] c"EqProof::expandTransitivityForDisequalities: now derive conclusion \00", align 1
@.str.41 = private unnamed_addr constant [12 x i8] c" [inverted]\00", align 1
@.str.42 = private unnamed_addr constant [23 x i8] c" via subsitution from \00", align 1
@.str.43 = private unnamed_addr constant [23 x i8] c" and (inverted subst) \00", align 1
@.str.44 = private unnamed_addr constant [69 x i8] c"EqProof::expandTransitivityForDisequalities: via congruence derived \00", align 1
@.str.45 = private unnamed_addr constant [71 x i8] c"EqProof::expandTransitivityForDisequalities: via transitivity derived \00", align 1
@.str.46 = private unnamed_addr constant [74 x i8] c"EqProof::expandTransitivityForDisequalities: via macro transform derived \00", align 1
@.str.47 = private unnamed_addr constant [72 x i8] c" via transitivity.\0AEqProof::expandTransitivityForDisequalities: adding \00", align 1
@.str.48 = private unnamed_addr constant [11 x i8] c" step for \00", align 1
@.str.49 = private unnamed_addr constant [7 x i8] c" from \00", align 1
@.str.50 = private unnamed_addr constant [118 x i8] c"EqProof::expandTransitivityForTheoryDisequalities: check if need to expand transitivity step to conclude disequality \00", align 1
@.str.51 = private unnamed_addr constant [59 x i8] c"EqProof::expandTransitivityForTheoryDisequalities: adding \00", align 1
@.str.52 = private unnamed_addr constant [4 x i8] c" = \00", align 1
@.str.53 = private unnamed_addr constant [60 x i8] c"EqProof::expandTransitivityForTheoryDisequalities: adding  \00", align 1
@.str.54 = private unnamed_addr constant [50 x i8] c"EqProof::buildTransitivityChain: Build chain for \00", align 1
@.str.55 = private unnamed_addr constant [40 x i8] c"EqProof::buildTransitivityChain: found \00", align 1
@.str.56 = private unnamed_addr constant [4 x i8] c" in\00", align 1
@.str.57 = private unnamed_addr constant [6 x i8] c" non-\00", align 1
@.str.58 = private unnamed_addr constant [18 x i8] c" ordered premise \00", align 1
@.str.59 = private unnamed_addr constant [33 x i8] c" in same premise. Closed chain.\0A\00", align 1
@.str.60 = private unnamed_addr constant [57 x i8] c"EqProof::buildTransitivityChain: search recursively for \00", align 1
@.str.61 = private unnamed_addr constant [52 x i8] c"EqProof::buildTransitivityChain: closed chain with \00", align 1
@.str.62 = private unnamed_addr constant [18 x i8] c" of the original \00", align 1
@.str.63 = private unnamed_addr constant [11 x i8] c" premises\0A\00", align 1
@.str.64 = private unnamed_addr constant [59 x i8] c"EqProof::buildTransitivityChain: Could not build chain for\00", align 1
@.str.65 = private unnamed_addr constant [47 x i8] c"EqProof::reduceNestedCongruence: building for \00", align 1
@.str.66 = private unnamed_addr constant [9 x i8] c"-th arg\0A\00", align 1
@.str.67 = private unnamed_addr constant [78 x i8] c"EqProof::reduceNestedCongruence: it's a congruence step. Reduce second child\0A\00", align 1
@.str.68 = private unnamed_addr constant [51 x i8] c"EqProof::reduceNestedCongruence: child conclusion \00", align 1
@.str.69 = private unnamed_addr constant [53 x i8] c"EqProof::reduceNestedCongruence: Reduce first child\0A\00", align 1
@.str.70 = private unnamed_addr constant [66 x i8] c"EqProof::reduceNestedCongruence: HO case. Processing first child\0A\00", align 1
@.str.71 = private unnamed_addr constant [60 x i8] c"EqProof::reduceNestedCongruence: it's a transitivity step.\0A\00", align 1
@.str.72 = private unnamed_addr constant [87 x i8] c"EqProof::reduceNestedCongruence: n-ary case, break recursion and indepedently process \00", align 1
@.str.73 = private unnamed_addr constant [49 x i8] c"EqProof::reduceNestedCongruence: Got conclusion \00", align 1
@.str.74 = private unnamed_addr constant [37 x i8] c" from n-ary transitivity processing\0A\00", align 1
@.str.75 = private unnamed_addr constant [41 x i8] c"EqProof::reduceNestedCongruence: Reduce \00", align 1
@.str.76 = private unnamed_addr constant [35 x i8] c"-th transitivity congruence child\0A\00", align 1
@.str.77 = private unnamed_addr constant [38 x i8] c"EqProof::reduceNestedCongruence: Add \00", align 1
@.str.78 = private unnamed_addr constant [33 x i8] c"-th transitivity child to proof\0A\00", align 1
@.str.79 = private unnamed_addr constant [37 x i8] c"EqProof::addToProof: root of proof: \00", align 1
@.str.80 = private unnamed_addr constant [43 x i8] c"EqProof::addToProof: tracked assumptions: \00", align 1
@.str.81 = private unnamed_addr constant [55 x i8] c"EqProof::addToProof: process root for TRUE/FALSE_ELIM\0A\00", align 1
@.str.82 = private unnamed_addr constant [31 x i8] c"EqProof::addToProof: conclude \00", align 1
@.str.83 = private unnamed_addr constant [6 x i8] c" via \00", align 1
@.str.84 = private unnamed_addr constant [40 x i8] c"EqProof::addToProof: already processed \00", align 1
@.str.85 = private unnamed_addr constant [13 x i8] c", returning \00", align 1
@.str.86 = private unnamed_addr constant [38 x i8] c"EqProof::addToProof: adding step for \00", align 1
@.str.87 = private unnamed_addr constant [18 x i8] c" with conclusion \00", align 1
@.str.88 = private unnamed_addr constant [44 x i8] c"EqProof::addToProof: add an intro step for \00", align 1
@.str.89 = private unnamed_addr constant [29 x i8] c"EqProof::addToProof: adding \00", align 1
@.str.90 = private unnamed_addr constant [43 x i8] c"EqProof::addToProof: tracking assumptions \00", align 1
@.str.91 = private unnamed_addr constant [6 x i8] c", (= \00", align 1
@.str.92 = private unnamed_addr constant [2 x i8] c" \00", align 1
@.str.93 = private unnamed_addr constant [3 x i8] c")\0A\00", align 1
@.str.94 = private unnamed_addr constant [32 x i8] c"EqProof::addToProof: refl step\0A\00", align 1
@.str.95 = private unnamed_addr constant [39 x i8] c"EqProof::addToProof: recurse on child \00", align 1
@.str.96 = private unnamed_addr constant [30 x i8] c"EqProof::addToProof: adding  \00", align 1
@.str.97 = private unnamed_addr constant [31 x i8] c" step for original conclusion \00", align 1
@.str.98 = private unnamed_addr constant [34 x i8] c"EqProof::addToProof: child proof \00", align 1
@.str.99 = private unnamed_addr constant [30 x i8] c" is fake cong step. Fold it.\0A\00", align 1
@.str.100 = private unnamed_addr constant [59 x i8] c"EqProof::addToProof: build chain for transitivity premises\00", align 1
@.str.101 = private unnamed_addr constant [14 x i8] c" to conclude \00", align 1
@.str.102 = private unnamed_addr constant [61 x i8] c"EqProof::addToProof: Mismatching arities in cong conclusion \00", align 1
@.str.103 = private unnamed_addr constant [23 x i8] c". Use tentative arity \00", align 1
@.str.104 = private unnamed_addr constant [28 x i8] c"EqProof::addToProof: Found \00", align 1
@.str.105 = private unnamed_addr constant [33 x i8] c" empty rows. Rebuild conclusion \00", align 1
@.str.106 = private unnamed_addr constant [61 x i8] c"EqProof::addToProof: New internal applications with arities \00", align 1
@.str.107 = private unnamed_addr constant [3 x i8] c", \00", align 1
@.str.108 = private unnamed_addr constant [3 x i8] c":\0A\00", align 1
@.str.109 = private unnamed_addr constant [23 x i8] c"EqProof::addToProof:\09 \00", align 1
@.str.110 = private unnamed_addr constant [37 x i8] c"EqProof::addToProof: New conclusion \00", align 1
@.str.111 = private unnamed_addr constant [13 x i8] c"eqproof-conv\00", align 1
@.str.112 = private unnamed_addr constant [52 x i8] c"EqProof::addToProof: premises from reduced cong of \00", align 1
@.str.113 = private unnamed_addr constant [22 x i8] c"EqProof::addToProof:\09\00", align 1
@.str.114 = private unnamed_addr constant [10 x i8] c"-th arg: \00", align 1
@.str.115 = private unnamed_addr constant [57 x i8] c"EqProof::addToProof: adding trans step for cong premise \00", align 1
@.str.116 = private unnamed_addr constant [16 x i8] c" with children \00", align 1
@.str.117 = private unnamed_addr constant [41 x i8] c"EqProof::addToProof: build cong step of \00", align 1
@.str.118 = private unnamed_addr constant [10 x i8] c" with op \00", align 1
@.str.119 = private unnamed_addr constant [15 x i8] c" and children \00", align 1
@.str.120 = private unnamed_addr constant [44 x i8] c"EqProof::addToProof: build HO-cong step of \00", align 1
@.str.121 = private unnamed_addr constant [42 x i8] c"EqProof::addToProof: try to flatten via a\00", align 1
@.str.122 = private unnamed_addr constant [30 x i8] c" step the rebuilt conclusion \00", align 1
@.str.123 = private unnamed_addr constant [7 x i8] c" into \00", align 1
@.str.124 = private unnamed_addr constant [61 x i8] c"EqProof::addToProof: adding a trust flattening rewrite step\0A\00", align 1
@_ZN4cvc58internal12NodeTemplateILb1EE6s_nullE = linkonce_odr hidden global %"class.cvc5::internal::NodeTemplate" zeroinitializer, comdat, align 8
@_ZGVN4cvc58internal12NodeTemplateILb1EE6s_nullE = linkonce_odr hidden global i64 0, comdat($_ZN4cvc58internal12NodeTemplateILb1EE6s_nullE), align 8
@.str.126 = private unnamed_addr constant [11 x i8] c"congruence\00", align 1
@.str.127 = private unnamed_addr constant [14 x i8] c"pure equality\00", align 1
@.str.128 = private unnamed_addr constant [12 x i8] c"reflexivity\00", align 1
@.str.129 = private unnamed_addr constant [17 x i8] c"theory constants\00", align 1
@.str.130 = private unnamed_addr constant [13 x i8] c"transitivity\00", align 1
@.str.131 = private unnamed_addr constant [9 x i8] c"[theory]\00", align 1
@_ZN4cvc58internal11Cvc5ostream16s_indentIosIndexE = external constant i32, align 4
@.str.132 = private unnamed_addr constant [50 x i8] c"basic_string: construction from null is not valid\00", align 1
@_ZN4cvc58internal11Cvc5ostream5s_tabB5cxx11E = external global %"class.std::__cxx11::basic_string", align 8
@.str.133 = private unnamed_addr constant [26 x i8] c"vector::_M_realloc_insert\00", align 1
@.str.134 = private unnamed_addr constant [24 x i8] c"vector::_M_range_insert\00", align 1
@.str.135 = private unnamed_addr constant [49 x i8] c"cannot create std::vector larger than max_size()\00", align 1
@.str.136 = private unnamed_addr constant [2 x i8] c"[\00", align 1
@.str.137 = private unnamed_addr constant [2 x i8] c"]\00", align 1
@_ZSt19piecewise_construct = linkonce_odr constant %"struct.std::piecewise_construct_t" zeroinitializer, comdat, align 1
@_ZZN4cvc58internal4expr9NodeValue4nullEvE6s_null = linkonce_odr global ptr null, comdat, align 8
@_ZGVZN4cvc58internal4expr9NodeValue4nullEvE6s_null = linkonce_odr global i64 0, comdat, align 8
@llvm.global_ctors = appending global [2 x { i32, ptr, ptr }] [{ i32, ptr, ptr } { i32 65535, ptr @__cxx_global_var_init.125, ptr @_ZN4cvc58internal12NodeTemplateILb1EE6s_nullE }, { i32, ptr, ptr } { i32 65535, ptr @_GLOBAL__sub_I_eq_proof.cpp, ptr null }]
@llvm.used = appending global [1 x ptr] [ptr @_ZN4cvc58internal12NodeTemplateILb1EE6s_nullE], section "llvm.metadata"

; Function Attrs: uwtable
define internal void @__cxx_global_var_init() #0 section ".text.startup" {
entry:
  call void @_ZNSt8ios_base4InitC1Ev(ptr noundef nonnull align 1 dereferenceable(1) @_ZStL8__ioinit)
  %0 = call i32 @__cxa_atexit(ptr @_ZNSt8ios_base4InitD1Ev, ptr @_ZStL8__ioinit, ptr @__dso_handle) #3
  ret void
}

declare void @_ZNSt8ios_base4InitC1Ev(ptr noundef nonnull align 1 dereferenceable(1)) unnamed_addr #1

; Function Attrs: nounwind
declare void @_ZNSt8ios_base4InitD1Ev(ptr noundef nonnull align 1 dereferenceable(1)) unnamed_addr #2

; Function Attrs: nounwind
declare i32 @__cxa_atexit(ptr, ptr, ptr) #3

; Function Attrs: mustprogress uwtable
define hidden void @_ZNK4cvc58internal6theory2eq7EqProof11debug_printEPKcj(ptr noundef nonnull align 8 dereferenceable(40) %this, ptr noundef %c, i32 noundef %tb) #4 align 2 personality ptr @__gxx_personality_v0 {
entry:
  %this.addr = alloca ptr, align 8
  %c.addr = alloca ptr, align 8
  %tb.addr = alloca i32, align 4
  %ss = alloca %"class.std::__cxx11::basic_stringstream", align 8
  %exn.slot = alloca ptr, align 8
  %ehselector.slot = alloca i32, align 4
  %ref.tmp = alloca %"class.cvc5::internal::__cvc5_true", align 1
  %tmp = alloca %"class.cvc5::internal::Cvc5ostream", align 8
  %agg.tmp.ensured = alloca %"class.cvc5::internal::Cvc5ostream", align 8
  %ref.tmp4 = alloca %"class.cvc5::internal::Cvc5ostream", align 8
  %ref.tmp6 = alloca %"class.std::__cxx11::basic_string", align 8
  %cleanup.cond = alloca i1, align 1
  store ptr %this, ptr %this.addr, align 8
  store ptr %c, ptr %c.addr, align 8
  store i32 %tb, ptr %tb.addr, align 4
  %this1 = load ptr, ptr %this.addr, align 8
  call void @_ZNSt7__cxx1118basic_stringstreamIcSt11char_traitsIcESaIcEEC1Ev(ptr noundef nonnull align 8 dereferenceable(128) %ss)
  %add.ptr = getelementptr inbounds i8, ptr %ss, i64 16
  %0 = load i32, ptr %tb.addr, align 4
  invoke void @_ZNK4cvc58internal6theory2eq7EqProof11debug_printERSoj(ptr noundef nonnull align 8 dereferenceable(40) %this1, ptr noundef nonnull align 8 dereferenceable(8) %add.ptr, i32 noundef %0)
          to label %invoke.cont unwind label %lpad

invoke.cont:                                      ; preds = %entry
  store i1 false, ptr %cleanup.cond, align 1
  %call = invoke noundef zeroext i1 @_ZN4cvc58internal11__cvc5_truecvbEv(ptr noundef nonnull align 1 dereferenceable(1) %ref.tmp)
          to label %invoke.cont2 unwind label %lpad

invoke.cont2:                                     ; preds = %invoke.cont
  br i1 %call, label %cond.true, label %cond.false

cond.true:                                        ; preds = %invoke.cont2
  invoke void @_ZNK4cvc58internal5NullCcvNS0_11Cvc5ostreamEEv(ptr sret(%"class.cvc5::internal::Cvc5ostream") align 8 %tmp, ptr noundef nonnull align 1 dereferenceable(1) @_ZN4cvc58internal10nullStreamE)
          to label %invoke.cont3 unwind label %lpad

invoke.cont3:                                     ; preds = %cond.true
  br label %cond.end

cond.false:                                       ; preds = %invoke.cont2
  invoke void @_ZNK4cvc58internal6TraceCclEv(ptr sret(%"class.cvc5::internal::Cvc5ostream") align 8 %ref.tmp4, ptr noundef nonnull align 8 dereferenceable(32) @_ZN4cvc58internal12TraceChannelE)
          to label %invoke.cont5 unwind label %lpad

invoke.cont5:                                     ; preds = %cond.false
  invoke void @_ZNKSt7__cxx1118basic_stringstreamIcSt11char_traitsIcESaIcEE3strEv(ptr sret(%"class.std::__cxx11::basic_string") align 8 %ref.tmp6, ptr noundef nonnull align 8 dereferenceable(128) %ss)
          to label %invoke.cont7 unwind label %lpad

invoke.cont7:                                     ; preds = %invoke.cont5
  store i1 true, ptr %cleanup.cond, align 1
  %call10 = invoke noundef nonnull align 8 dereferenceable(24) ptr @_ZN4cvc58internal11Cvc5ostreamlsINSt7__cxx1112basic_stringIcSt11char_traitsIcESaIcEEEEERS1_RKT_(ptr noundef nonnull align 8 dereferenceable(24) %ref.tmp4, ptr noundef nonnull align 8 dereferenceable(32) %ref.tmp6)
          to label %invoke.cont9 unwind label %lpad8

invoke.cont9:                                     ; preds = %invoke.cont7
  call void @llvm.memcpy.p0.p0.i64(ptr align 8 %agg.tmp.ensured, ptr align 8 %call10, i64 24, i1 false)
  br label %cond.end

cond.end:                                         ; preds = %invoke.cont9, %invoke.cont3
  %cleanup.is_active = load i1, ptr %cleanup.cond, align 1
  br i1 %cleanup.is_active, label %cleanup.action, label %cleanup.done

cleanup.action:                                   ; preds = %cond.end
  call void @_ZNSt7__cxx1112basic_stringIcSt11char_traitsIcESaIcEED1Ev(ptr noundef nonnull align 8 dereferenceable(32) %ref.tmp6) #3
  br label %cleanup.done

cleanup.done:                                     ; preds = %cleanup.action, %cond.end
  call void @_ZNSt7__cxx1118basic_stringstreamIcSt11char_traitsIcESaIcEED1Ev(ptr noundef nonnull align 8 dereferenceable(128) %ss) #3
  ret void

lpad:                                             ; preds = %invoke.cont5, %cond.false, %cond.true, %invoke.cont, %entry
  %1 = landingpad { ptr, i32 }
          cleanup
  %2 = extractvalue { ptr, i32 } %1, 0
  store ptr %2, ptr %exn.slot, align 8
  %3 = extractvalue { ptr, i32 } %1, 1
  store i32 %3, ptr %ehselector.slot, align 4
  br label %ehcleanup

lpad8:                                            ; preds = %invoke.cont7
  %4 = landingpad { ptr, i32 }
          cleanup
  %5 = extractvalue { ptr, i32 } %4, 0
  store ptr %5, ptr %exn.slot, align 8
  %6 = extractvalue { ptr, i32 } %4, 1
  store i32 %6, ptr %ehselector.slot, align 4
  %cleanup.is_active11 = load i1, ptr %cleanup.cond, align 1
  br i1 %cleanup.is_active11, label %cleanup.action12, label %cleanup.done13

cleanup.action12:                                 ; preds = %lpad8
  call void @_ZNSt7__cxx1112basic_stringIcSt11char_traitsIcESaIcEED1Ev(ptr noundef nonnull align 8 dereferenceable(32) %ref.tmp6) #3
  br label %cleanup.done13

cleanup.done13:                                   ; preds = %cleanup.action12, %lpad8
  br label %ehcleanup

ehcleanup:                                        ; preds = %cleanup.done13, %lpad
  call void @_ZNSt7__cxx1118basic_stringstreamIcSt11char_traitsIcESaIcEED1Ev(ptr noundef nonnull align 8 dereferenceable(128) %ss) #3
  br label %eh.resume

eh.resume:                                        ; preds = %ehcleanup
  %exn = load ptr, ptr %exn.slot, align 8
  %sel = load i32, ptr %ehselector.slot, align 4
  %lpad.val = insertvalue { ptr, i32 } poison, ptr %exn, 0
  %lpad.val14 = insertvalue { ptr, i32 } %lpad.val, i32 %sel, 1
  resume { ptr, i32 } %lpad.val14
}

declare void @_ZNSt7__cxx1118basic_stringstreamIcSt11char_traitsIcESaIcEEC1Ev(ptr noundef nonnull align 8 dereferenceable(128)) unnamed_addr #1

; Function Attrs: mustprogress uwtable
define hidden void @_ZNK4cvc58internal6theory2eq7EqProof11debug_printERSoj(ptr noundef nonnull align 8 dereferenceable(40) %this, ptr noundef nonnull align 8 dereferenceable(8) %os, i32 noundef %tb) #4 align 2 personality ptr @__gxx_personality_v0 {
entry:
  %this.addr = alloca ptr, align 8
  %os.addr = alloca ptr, align 8
  %tb.addr = alloca i32, align 4
  %i = alloca i32, align 4
  %i11 = alloca i32, align 4
  %agg.tmp = alloca %"class.cvc5::internal::NodeTemplate.8", align 8
  %exn.slot = alloca ptr, align 8
  %ehselector.slot = alloca i32, align 4
  %size = alloca i32, align 4
  %i28 = alloca i32, align 4
  %j = alloca i32, align 4
  %i55 = alloca i32, align 4
  store ptr %this, ptr %this.addr, align 8
  store ptr %os, ptr %os.addr, align 8
  store i32 %tb, ptr %tb.addr, align 4
  %this1 = load ptr, ptr %this.addr, align 8
  store i32 0, ptr %i, align 4
  br label %for.cond

for.cond:                                         ; preds = %for.inc, %entry
  %0 = load i32, ptr %i, align 4
  %1 = load i32, ptr %tb.addr, align 4
  %cmp = icmp ult i32 %0, %1
  br i1 %cmp, label %for.body, label %for.end

for.body:                                         ; preds = %for.cond
  %2 = load ptr, ptr %os.addr, align 8
  %call = call noundef nonnull align 8 dereferenceable(8) ptr @_ZStlsISt11char_traitsIcEERSt13basic_ostreamIcT_ES5_PKc(ptr noundef nonnull align 8 dereferenceable(8) %2, ptr noundef @.str)
  br label %for.inc

for.inc:                                          ; preds = %for.body
  %3 = load i32, ptr %i, align 4
  %inc = add i32 %3, 1
  store i32 %inc, ptr %i, align 4
  br label %for.cond, !llvm.loop !4

for.end:                                          ; preds = %for.cond
  %4 = load ptr, ptr %os.addr, align 8
  %d_id = getelementptr inbounds %"class.cvc5::internal::theory::eq::EqProof", ptr %this1, i32 0, i32 0
  %5 = load i32, ptr %d_id, align 8
  %call2 = call noundef nonnull align 8 dereferenceable(8) ptr @_ZN4cvc58internal6theory2eqlsERSoNS2_15MergeReasonTypeE(ptr noundef nonnull align 8 dereferenceable(8) %4, i32 noundef %5)
  %call3 = call noundef nonnull align 8 dereferenceable(8) ptr @_ZStlsISt11char_traitsIcEERSt13basic_ostreamIcT_ES5_PKc(ptr noundef nonnull align 8 dereferenceable(8) %call2, ptr noundef @.str.1)
  %d_children = getelementptr inbounds %"class.cvc5::internal::theory::eq::EqProof", ptr %this1, i32 0, i32 2
  %call4 = call noundef zeroext i1 @_ZNKSt6vectorISt10shared_ptrIN4cvc58internal6theory2eq7EqProofEESaIS6_EE5emptyEv(ptr noundef nonnull align 8 dereferenceable(24) %d_children) #3
  br i1 %call4, label %land.lhs.true, label %if.end

land.lhs.true:                                    ; preds = %for.end
  %d_node = getelementptr inbounds %"class.cvc5::internal::theory::eq::EqProof", ptr %this1, i32 0, i32 1
  %call5 = call noundef zeroext i1 @_ZNK4cvc58internal12NodeTemplateILb1EE6isNullEv(ptr noundef nonnull align 8 dereferenceable(8) %d_node)
  br i1 %call5, label %if.then, label %if.end

if.then:                                          ; preds = %land.lhs.true
  %6 = load ptr, ptr %os.addr, align 8
  %call6 = call noundef nonnull align 8 dereferenceable(8) ptr @_ZStlsISt11char_traitsIcEERSt13basic_ostreamIcT_ES5_PKc(ptr noundef nonnull align 8 dereferenceable(8) %6, ptr noundef @.str.2)
  br label %return

if.end:                                           ; preds = %land.lhs.true, %for.end
  %d_node7 = getelementptr inbounds %"class.cvc5::internal::theory::eq::EqProof", ptr %this1, i32 0, i32 1
  %call8 = call noundef zeroext i1 @_ZNK4cvc58internal12NodeTemplateILb1EE6isNullEv(ptr noundef nonnull align 8 dereferenceable(8) %d_node7)
  br i1 %call8, label %if.end25, label %if.then9

if.then9:                                         ; preds = %if.end
  %7 = load ptr, ptr %os.addr, align 8
  %call10 = call noundef nonnull align 8 dereferenceable(8) ptr @_ZNSolsEPFRSoS_E(ptr noundef nonnull align 8 dereferenceable(8) %7, ptr noundef @_ZSt4endlIcSt11char_traitsIcEERSt13basic_ostreamIT_T0_ES6_)
  store i32 0, ptr %i11, align 4
  br label %for.cond12

for.cond12:                                       ; preds = %for.inc16, %if.then9
  %8 = load i32, ptr %i11, align 4
  %9 = load i32, ptr %tb.addr, align 4
  %add = add i32 %9, 1
  %cmp13 = icmp ult i32 %8, %add
  br i1 %cmp13, label %for.body14, label %for.end18

for.body14:                                       ; preds = %for.cond12
  %10 = load ptr, ptr %os.addr, align 8
  %call15 = call noundef nonnull align 8 dereferenceable(8) ptr @_ZStlsISt11char_traitsIcEERSt13basic_ostreamIcT_ES5_PKc(ptr noundef nonnull align 8 dereferenceable(8) %10, ptr noundef @.str)
  br label %for.inc16

for.inc16:                                        ; preds = %for.body14
  %11 = load i32, ptr %i11, align 4
  %inc17 = add i32 %11, 1
  store i32 %inc17, ptr %i11, align 4
  br label %for.cond12, !llvm.loop !6

for.end18:                                        ; preds = %for.cond12
  %12 = load ptr, ptr %os.addr, align 8
  %d_node19 = getelementptr inbounds %"class.cvc5::internal::theory::eq::EqProof", ptr %this1, i32 0, i32 1
  call void @_ZN4cvc58internal12NodeTemplateILb0EEC2ERKNS1_ILb1EEE(ptr noundef nonnull align 8 dereferenceable(8) %agg.tmp, ptr noundef nonnull align 8 dereferenceable(8) %d_node19)
  %call20 = invoke noundef nonnull align 8 dereferenceable(8) ptr @_ZN4cvc58internallsERSoNS0_12NodeTemplateILb0EEE(ptr noundef nonnull align 8 dereferenceable(8) %12, ptr noundef %agg.tmp)
          to label %invoke.cont unwind label %lpad

invoke.cont:                                      ; preds = %for.end18
  %d_children21 = getelementptr inbounds %"class.cvc5::internal::theory::eq::EqProof", ptr %this1, i32 0, i32 2
  %call22 = call noundef zeroext i1 @_ZNKSt6vectorISt10shared_ptrIN4cvc58internal6theory2eq7EqProofEESaIS6_EE5emptyEv(ptr noundef nonnull align 8 dereferenceable(24) %d_children21) #3
  %lnot = xor i1 %call22, true
  %cond = select i1 %lnot, ptr @.str.3, ptr @.str.4
  %call24 = invoke noundef nonnull align 8 dereferenceable(8) ptr @_ZStlsISt11char_traitsIcEERSt13basic_ostreamIcT_ES5_PKc(ptr noundef nonnull align 8 dereferenceable(8) %call20, ptr noundef %cond)
          to label %invoke.cont23 unwind label %lpad

invoke.cont23:                                    ; preds = %invoke.cont
  call void @_ZN4cvc58internal12NodeTemplateILb0EED2Ev(ptr noundef nonnull align 8 dereferenceable(8) %agg.tmp) #3
  br label %if.end25

lpad:                                             ; preds = %invoke.cont, %for.end18
  %13 = landingpad { ptr, i32 }
          cleanup
  %14 = extractvalue { ptr, i32 } %13, 0
  store ptr %14, ptr %exn.slot, align 8
  %15 = extractvalue { ptr, i32 } %13, 1
  store i32 %15, ptr %ehselector.slot, align 4
  call void @_ZN4cvc58internal12NodeTemplateILb0EED2Ev(ptr noundef nonnull align 8 dereferenceable(8) %agg.tmp) #3
  br label %eh.resume

if.end25:                                         ; preds = %invoke.cont23, %if.end
  %d_children26 = getelementptr inbounds %"class.cvc5::internal::theory::eq::EqProof", ptr %this1, i32 0, i32 2
  %call27 = call noundef i64 @_ZNKSt6vectorISt10shared_ptrIN4cvc58internal6theory2eq7EqProofEESaIS6_EE4sizeEv(ptr noundef nonnull align 8 dereferenceable(24) %d_children26) #3
  %conv = trunc i64 %call27 to i32
  store i32 %conv, ptr %size, align 4
  store i32 0, ptr %i28, align 4
  br label %for.cond29

for.cond29:                                       ; preds = %for.inc50, %if.end25
  %16 = load i32, ptr %i28, align 4
  %17 = load i32, ptr %size, align 4
  %cmp30 = icmp ult i32 %16, %17
  br i1 %cmp30, label %for.body31, label %for.end52

for.body31:                                       ; preds = %for.cond29
  %18 = load ptr, ptr %os.addr, align 8
  %call32 = call noundef nonnull align 8 dereferenceable(8) ptr @_ZNSolsEPFRSoS_E(ptr noundef nonnull align 8 dereferenceable(8) %18, ptr noundef @_ZSt4endlIcSt11char_traitsIcEERSt13basic_ostreamIT_T0_ES6_)
  %d_children33 = getelementptr inbounds %"class.cvc5::internal::theory::eq::EqProof", ptr %this1, i32 0, i32 2
  %19 = load i32, ptr %i28, align 4
  %conv34 = zext i32 %19 to i64
  %call35 = call noundef nonnull align 8 dereferenceable(16) ptr @_ZNKSt6vectorISt10shared_ptrIN4cvc58internal6theory2eq7EqProofEESaIS6_EEixEm(ptr noundef nonnull align 8 dereferenceable(24) %d_children33, i64 noundef %conv34) #3
  %call36 = call noundef ptr @_ZNKSt19__shared_ptr_accessIN4cvc58internal6theory2eq7EqProofELN9__gnu_cxx12_Lock_policyE2ELb0ELb0EEptEv(ptr noundef nonnull align 1 dereferenceable(1) %call35) #3
  %20 = load ptr, ptr %os.addr, align 8
  %21 = load i32, ptr %tb.addr, align 4
  %add37 = add i32 %21, 1
  call void @_ZNK4cvc58internal6theory2eq7EqProof11debug_printERSoj(ptr noundef nonnull align 8 dereferenceable(40) %call36, ptr noundef nonnull align 8 dereferenceable(8) %20, i32 noundef %add37)
  %22 = load i32, ptr %i28, align 4
  %23 = load i32, ptr %size, align 4
  %sub = sub i32 %23, 1
  %cmp38 = icmp ult i32 %22, %sub
  br i1 %cmp38, label %if.then39, label %if.end49

if.then39:                                        ; preds = %for.body31
  store i32 0, ptr %j, align 4
  br label %for.cond40

for.cond40:                                       ; preds = %for.inc45, %if.then39
  %24 = load i32, ptr %j, align 4
  %25 = load i32, ptr %tb.addr, align 4
  %add41 = add i32 %25, 1
  %cmp42 = icmp ult i32 %24, %add41
  br i1 %cmp42, label %for.body43, label %for.end47

for.body43:                                       ; preds = %for.cond40
  %26 = load ptr, ptr %os.addr, align 8
  %call44 = call noundef nonnull align 8 dereferenceable(8) ptr @_ZStlsISt11char_traitsIcEERSt13basic_ostreamIcT_ES5_PKc(ptr noundef nonnull align 8 dereferenceable(8) %26, ptr noundef @.str)
  br label %for.inc45

for.inc45:                                        ; preds = %for.body43
  %27 = load i32, ptr %j, align 4
  %inc46 = add i32 %27, 1
  store i32 %inc46, ptr %j, align 4
  br label %for.cond40, !llvm.loop !7

for.end47:                                        ; preds = %for.cond40
  %28 = load ptr, ptr %os.addr, align 8
  %call48 = call noundef nonnull align 8 dereferenceable(8) ptr @_ZStlsISt11char_traitsIcEERSt13basic_ostreamIcT_ES5_PKc(ptr noundef nonnull align 8 dereferenceable(8) %28, ptr noundef @.str.3)
  br label %if.end49

if.end49:                                         ; preds = %for.end47, %for.body31
  br label %for.inc50

for.inc50:                                        ; preds = %if.end49
  %29 = load i32, ptr %i28, align 4
  %inc51 = add i32 %29, 1
  store i32 %inc51, ptr %i28, align 4
  br label %for.cond29, !llvm.loop !8

for.end52:                                        ; preds = %for.cond29
  %30 = load i32, ptr %size, align 4
  %cmp53 = icmp ugt i32 %30, 0
  br i1 %cmp53, label %if.then54, label %if.end63

if.then54:                                        ; preds = %for.end52
  store i32 0, ptr %i55, align 4
  br label %for.cond56

for.cond56:                                       ; preds = %for.inc60, %if.then54
  %31 = load i32, ptr %i55, align 4
  %32 = load i32, ptr %tb.addr, align 4
  %cmp57 = icmp ult i32 %31, %32
  br i1 %cmp57, label %for.body58, label %for.end62

for.body58:                                       ; preds = %for.cond56
  %33 = load ptr, ptr %os.addr, align 8
  %call59 = call noundef nonnull align 8 dereferenceable(8) ptr @_ZStlsISt11char_traitsIcEERSt13basic_ostreamIcT_ES5_PKc(ptr noundef nonnull align 8 dereferenceable(8) %33, ptr noundef @.str)
  br label %for.inc60

for.inc60:                                        ; preds = %for.body58
  %34 = load i32, ptr %i55, align 4
  %inc61 = add i32 %34, 1
  store i32 %inc61, ptr %i55, align 4
  br label %for.cond56, !llvm.loop !9

for.end62:                                        ; preds = %for.cond56
  br label %if.end63

if.end63:                                         ; preds = %for.end62, %for.end52
  %35 = load ptr, ptr %os.addr, align 8
  %call64 = call noundef nonnull align 8 dereferenceable(8) ptr @_ZStlsISt11char_traitsIcEERSt13basic_ostreamIcT_ES5_PKc(ptr noundef nonnull align 8 dereferenceable(8) %35, ptr noundef @.str.2)
  %call65 = call noundef nonnull align 8 dereferenceable(8) ptr @_ZNSolsEPFRSoS_E(ptr noundef nonnull align 8 dereferenceable(8) %call64, ptr noundef @_ZSt4endlIcSt11char_traitsIcEERSt13basic_ostreamIT_T0_ES6_)
  br label %return

return:                                           ; preds = %if.end63, %if.then
  ret void

eh.resume:                                        ; preds = %lpad
  %exn = load ptr, ptr %exn.slot, align 8
  %sel = load i32, ptr %ehselector.slot, align 4
  %lpad.val = insertvalue { ptr, i32 } poison, ptr %exn, 0
  %lpad.val66 = insertvalue { ptr, i32 } %lpad.val, i32 %sel, 1
  resume { ptr, i32 } %lpad.val66
}

declare i32 @__gxx_personality_v0(...)

; Function Attrs: mustprogress nounwind uwtable
define linkonce_odr hidden noundef zeroext i1 @_ZN4cvc58internal11__cvc5_truecvbEv(ptr noundef nonnull align 1 dereferenceable(1) %this) #5 comdat align 2 {
entry:
  %this.addr = alloca ptr, align 8
  store ptr %this, ptr %this.addr, align 8
  ret i1 true
}

; Function Attrs: mustprogress uwtable
define linkonce_odr hidden void @_ZNK4cvc58internal5NullCcvNS0_11Cvc5ostreamEEv(ptr noalias sret(%"class.cvc5::internal::Cvc5ostream") align 8 %agg.result, ptr noundef nonnull align 1 dereferenceable(1) %this) #4 comdat align 2 {
entry:
  %this.addr = alloca ptr, align 8
  store ptr %this, ptr %this.addr, align 8
  call void @_ZN4cvc58internal11Cvc5ostreamC2Ev(ptr noundef nonnull align 8 dereferenceable(24) %agg.result)
  ret void
}

; Function Attrs: mustprogress uwtable
define linkonce_odr hidden void @_ZNK4cvc58internal6TraceCclEv(ptr noalias sret(%"class.cvc5::internal::Cvc5ostream") align 8 %agg.result, ptr noundef nonnull align 8 dereferenceable(32) %this) #4 comdat align 2 {
entry:
  %this.addr = alloca ptr, align 8
  store ptr %this, ptr %this.addr, align 8
  %this1 = load ptr, ptr %this.addr, align 8
  %d_os = getelementptr inbounds %"class.cvc5::internal::TraceC", ptr %this1, i32 0, i32 0
  %0 = load ptr, ptr %d_os, align 8
  call void @_ZN4cvc58internal11Cvc5ostreamC2EPSo(ptr noundef nonnull align 8 dereferenceable(24) %agg.result, ptr noundef %0)
  ret void
}

; Function Attrs: mustprogress uwtable
define linkonce_odr hidden noundef nonnull align 8 dereferenceable(24) ptr @_ZN4cvc58internal11Cvc5ostreamlsINSt7__cxx1112basic_stringIcSt11char_traitsIcESaIcEEEEERS1_RKT_(ptr noundef nonnull align 8 dereferenceable(24) %this, ptr noundef nonnull align 8 dereferenceable(32) %t) #4 comdat align 2 {
entry:
  %this.addr = alloca ptr, align 8
  %t.addr = alloca ptr, align 8
  %indent = alloca i64, align 8
  %i = alloca i64, align 8
  store ptr %this, ptr %this.addr, align 8
  store ptr %t, ptr %t.addr, align 8
  %this1 = load ptr, ptr %this.addr, align 8
  %d_os = getelementptr inbounds %"class.cvc5::internal::Cvc5ostream", ptr %this1, i32 0, i32 0
  %0 = load ptr, ptr %d_os, align 8
  %cmp = icmp ne ptr %0, null
  br i1 %cmp, label %if.then, label %if.end11

if.then:                                          ; preds = %entry
  %d_firstColumn = getelementptr inbounds %"class.cvc5::internal::Cvc5ostream", ptr %this1, i32 0, i32 1
  %1 = load i8, ptr %d_firstColumn, align 8
  %tobool = trunc i8 %1 to i1
  br i1 %tobool, label %if.then2, label %if.end

if.then2:                                         ; preds = %if.then
  %d_firstColumn3 = getelementptr inbounds %"class.cvc5::internal::Cvc5ostream", ptr %this1, i32 0, i32 1
  store i8 0, ptr %d_firstColumn3, align 8
  %d_os4 = getelementptr inbounds %"class.cvc5::internal::Cvc5ostream", ptr %this1, i32 0, i32 0
  %2 = load ptr, ptr %d_os4, align 8
  %vtable = load ptr, ptr %2, align 8
  %vbase.offset.ptr = getelementptr i8, ptr %vtable, i64 -24
  %vbase.offset = load i64, ptr %vbase.offset.ptr, align 8
  %add.ptr = getelementptr inbounds i8, ptr %2, i64 %vbase.offset
  %3 = load i32, ptr @_ZN4cvc58internal11Cvc5ostream16s_indentIosIndexE, align 4
  %call = call noundef nonnull align 8 dereferenceable(8) ptr @_ZNSt8ios_base5iwordEi(ptr noundef nonnull align 8 dereferenceable(216) %add.ptr, i32 noundef %3)
  %4 = load i64, ptr %call, align 8
  store i64 %4, ptr %indent, align 8
  store i64 0, ptr %i, align 8
  br label %for.cond

for.cond:                                         ; preds = %for.inc, %if.then2
  %5 = load i64, ptr %i, align 8
  %6 = load i64, ptr %indent, align 8
  %cmp5 = icmp slt i64 %5, %6
  br i1 %cmp5, label %for.body, label %for.end

for.body:                                         ; preds = %for.cond
  %d_os6 = getelementptr inbounds %"class.cvc5::internal::Cvc5ostream", ptr %this1, i32 0, i32 0
  %7 = load ptr, ptr %d_os6, align 8
  %call7 = call noundef nonnull align 8 dereferenceable(8) ptr @_ZStlsIcSt11char_traitsIcESaIcEERSt13basic_ostreamIT_T0_ES7_RKNSt7__cxx1112basic_stringIS4_S5_T1_EE(ptr noundef nonnull align 8 dereferenceable(8) %7, ptr noundef nonnull align 8 dereferenceable(32) @_ZN4cvc58internal11Cvc5ostream5s_tabB5cxx11E)
  %d_os8 = getelementptr inbounds %"class.cvc5::internal::Cvc5ostream", ptr %this1, i32 0, i32 0
  store ptr %call7, ptr %d_os8, align 8
  br label %for.inc

for.inc:                                          ; preds = %for.body
  %8 = load i64, ptr %i, align 8
  %inc = add nsw i64 %8, 1
  store i64 %inc, ptr %i, align 8
  br label %for.cond, !llvm.loop !10

for.end:                                          ; preds = %for.cond
  br label %if.end

if.end:                                           ; preds = %for.end, %if.then
  %d_os9 = getelementptr inbounds %"class.cvc5::internal::Cvc5ostream", ptr %this1, i32 0, i32 0
  %9 = load ptr, ptr %d_os9, align 8
  %10 = load ptr, ptr %t.addr, align 8
  %call10 = call noundef nonnull align 8 dereferenceable(8) ptr @_ZStlsIcSt11char_traitsIcESaIcEERSt13basic_ostreamIT_T0_ES7_RKNSt7__cxx1112basic_stringIS4_S5_T1_EE(ptr noundef nonnull align 8 dereferenceable(8) %9, ptr noundef nonnull align 8 dereferenceable(32) %10)
  br label %if.end11

if.end11:                                         ; preds = %if.end, %entry
  ret ptr %this1
}

declare void @_ZNKSt7__cxx1118basic_stringstreamIcSt11char_traitsIcESaIcEE3strEv(ptr sret(%"class.std::__cxx11::basic_string") align 8, ptr noundef nonnull align 8 dereferenceable(128)) #1

; Function Attrs: nocallback nofree nounwind willreturn memory(argmem: readwrite)
declare void @llvm.memcpy.p0.p0.i64(ptr noalias nocapture writeonly, ptr noalias nocapture readonly, i64, i1 immarg) #6

; Function Attrs: nounwind
declare void @_ZNSt7__cxx1112basic_stringIcSt11char_traitsIcESaIcEED1Ev(ptr noundef nonnull align 8 dereferenceable(32)) unnamed_addr #2

; Function Attrs: nounwind
declare void @_ZNSt7__cxx1118basic_stringstreamIcSt11char_traitsIcESaIcEED1Ev(ptr noundef nonnull align 8 dereferenceable(128)) unnamed_addr #2

declare noundef nonnull align 8 dereferenceable(8) ptr @_ZStlsISt11char_traitsIcEERSt13basic_ostreamIcT_ES5_PKc(ptr noundef nonnull align 8 dereferenceable(8), ptr noundef) #1

; Function Attrs: mustprogress uwtable
define linkonce_odr hidden noundef nonnull align 8 dereferenceable(8) ptr @_ZN4cvc58internal6theory2eqlsERSoNS2_15MergeReasonTypeE(ptr noundef nonnull align 8 dereferenceable(8) %out, i32 noundef %reason) #4 comdat {
entry:
  %out.addr = alloca ptr, align 8
  %reason.addr = alloca i32, align 4
  store ptr %out, ptr %out.addr, align 8
  store i32 %reason, ptr %reason.addr, align 4
  %0 = load i32, ptr %reason.addr, align 4
  switch i32 %0, label %sw.default [
    i32 0, label %sw.bb
    i32 1, label %sw.bb1
    i32 2, label %sw.bb3
    i32 3, label %sw.bb5
    i32 4, label %sw.bb7
  ]

sw.bb:                                            ; preds = %entry
  %1 = load ptr, ptr %out.addr, align 8
  %call = call noundef nonnull align 8 dereferenceable(8) ptr @_ZStlsISt11char_traitsIcEERSt13basic_ostreamIcT_ES5_PKc(ptr noundef nonnull align 8 dereferenceable(8) %1, ptr noundef @.str.126)
  br label %sw.epilog

sw.bb1:                                           ; preds = %entry
  %2 = load ptr, ptr %out.addr, align 8
  %call2 = call noundef nonnull align 8 dereferenceable(8) ptr @_ZStlsISt11char_traitsIcEERSt13basic_ostreamIcT_ES5_PKc(ptr noundef nonnull align 8 dereferenceable(8) %2, ptr noundef @.str.127)
  br label %sw.epilog

sw.bb3:                                           ; preds = %entry
  %3 = load ptr, ptr %out.addr, align 8
  %call4 = call noundef nonnull align 8 dereferenceable(8) ptr @_ZStlsISt11char_traitsIcEERSt13basic_ostreamIcT_ES5_PKc(ptr noundef nonnull align 8 dereferenceable(8) %3, ptr noundef @.str.128)
  br label %sw.epilog

sw.bb5:                                           ; preds = %entry
  %4 = load ptr, ptr %out.addr, align 8
  %call6 = call noundef nonnull align 8 dereferenceable(8) ptr @_ZStlsISt11char_traitsIcEERSt13basic_ostreamIcT_ES5_PKc(ptr noundef nonnull align 8 dereferenceable(8) %4, ptr noundef @.str.129)
  br label %sw.epilog

sw.bb7:                                           ; preds = %entry
  %5 = load ptr, ptr %out.addr, align 8
  %call8 = call noundef nonnull align 8 dereferenceable(8) ptr @_ZStlsISt11char_traitsIcEERSt13basic_ostreamIcT_ES5_PKc(ptr noundef nonnull align 8 dereferenceable(8) %5, ptr noundef @.str.130)
  br label %sw.epilog

sw.default:                                       ; preds = %entry
  %6 = load ptr, ptr %out.addr, align 8
  %call9 = call noundef nonnull align 8 dereferenceable(8) ptr @_ZStlsISt11char_traitsIcEERSt13basic_ostreamIcT_ES5_PKc(ptr noundef nonnull align 8 dereferenceable(8) %6, ptr noundef @.str.131)
  br label %sw.epilog

sw.epilog:                                        ; preds = %sw.default, %sw.bb7, %sw.bb5, %sw.bb3, %sw.bb1, %sw.bb
  %7 = load ptr, ptr %out.addr, align 8
  ret ptr %7
}

; Function Attrs: mustprogress nounwind uwtable
define linkonce_odr hidden noundef zeroext i1 @_ZNKSt6vectorISt10shared_ptrIN4cvc58internal6theory2eq7EqProofEESaIS6_EE5emptyEv(ptr noundef nonnull align 8 dereferenceable(24) %this) #5 comdat align 2 {
entry:
  %this.addr = alloca ptr, align 8
  %ref.tmp = alloca %"class.__gnu_cxx::__normal_iterator.163", align 8
  %ref.tmp2 = alloca %"class.__gnu_cxx::__normal_iterator.163", align 8
  store ptr %this, ptr %this.addr, align 8
  %this1 = load ptr, ptr %this.addr, align 8
  %call = call ptr @_ZNKSt6vectorISt10shared_ptrIN4cvc58internal6theory2eq7EqProofEESaIS6_EE5beginEv(ptr noundef nonnull align 8 dereferenceable(24) %this1) #3
  %coerce.dive = getelementptr inbounds %"class.__gnu_cxx::__normal_iterator.163", ptr %ref.tmp, i32 0, i32 0
  store ptr %call, ptr %coerce.dive, align 8
  %call3 = call ptr @_ZNKSt6vectorISt10shared_ptrIN4cvc58internal6theory2eq7EqProofEESaIS6_EE3endEv(ptr noundef nonnull align 8 dereferenceable(24) %this1) #3
  %coerce.dive4 = getelementptr inbounds %"class.__gnu_cxx::__normal_iterator.163", ptr %ref.tmp2, i32 0, i32 0
  store ptr %call3, ptr %coerce.dive4, align 8
  %call5 = call noundef zeroext i1 @_ZN9__gnu_cxxeqIPKSt10shared_ptrIN4cvc58internal6theory2eq7EqProofEESt6vectorIS7_SaIS7_EEEEbRKNS_17__normal_iteratorIT_T0_EESI_(ptr noundef nonnull align 8 dereferenceable(8) %ref.tmp, ptr noundef nonnull align 8 dereferenceable(8) %ref.tmp2) #3
  ret i1 %call5
}

; Function Attrs: mustprogress uwtable
define linkonce_odr hidden noundef zeroext i1 @_ZNK4cvc58internal12NodeTemplateILb1EE6isNullEv(ptr noundef nonnull align 8 dereferenceable(8) %this) #4 comdat align 2 {
entry:
  %this.addr = alloca ptr, align 8
  store ptr %this, ptr %this.addr, align 8
  %this1 = load ptr, ptr %this.addr, align 8
  call void @_ZNK4cvc58internal12NodeTemplateILb1EE21assertTNodeNotExpiredEv(ptr noundef nonnull align 8 dereferenceable(8) %this1)
  %d_nv = getelementptr inbounds %"class.cvc5::internal::NodeTemplate", ptr %this1, i32 0, i32 0
  %0 = load ptr, ptr %d_nv, align 8
  %call = call noundef nonnull align 8 dereferenceable(16) ptr @_ZN4cvc58internal4expr9NodeValue4nullEv()
  %cmp = icmp eq ptr %0, %call
  ret i1 %cmp
}

declare noundef nonnull align 8 dereferenceable(8) ptr @_ZNSolsEPFRSoS_E(ptr noundef nonnull align 8 dereferenceable(8), ptr noundef) #1

declare noundef nonnull align 8 dereferenceable(8) ptr @_ZSt4endlIcSt11char_traitsIcEERSt13basic_ostreamIT_T0_ES6_(ptr noundef nonnull align 8 dereferenceable(8)) #1

; Function Attrs: mustprogress uwtable
define linkonce_odr hidden noundef nonnull align 8 dereferenceable(8) ptr @_ZN4cvc58internallsERSoNS0_12NodeTemplateILb0EEE(ptr noundef nonnull align 8 dereferenceable(8) %out, ptr noundef %n) #4 comdat {
entry:
  %out.addr = alloca ptr, align 8
  %n.indirect_addr = alloca ptr, align 8
  store ptr %out, ptr %out.addr, align 8
  store ptr %n, ptr %n.indirect_addr, align 8
  %0 = load ptr, ptr %out.addr, align 8
  call void @_ZNK4cvc58internal12NodeTemplateILb0EE8toStreamERSo(ptr noundef nonnull align 8 dereferenceable(8) %n, ptr noundef nonnull align 8 dereferenceable(8) %0)
  %1 = load ptr, ptr %out.addr, align 8
  ret ptr %1
}

; Function Attrs: mustprogress nounwind uwtable
define linkonce_odr hidden void @_ZN4cvc58internal12NodeTemplateILb0EEC2ERKNS1_ILb1EEE(ptr noundef nonnull align 8 dereferenceable(8) %this, ptr noundef nonnull align 8 dereferenceable(8) %e) unnamed_addr #5 comdat align 2 {
entry:
  %this.addr = alloca ptr, align 8
  %e.addr = alloca ptr, align 8
  store ptr %this, ptr %this.addr, align 8
  store ptr %e, ptr %e.addr, align 8
  %this1 = load ptr, ptr %this.addr, align 8
  %0 = load ptr, ptr %e.addr, align 8
  %d_nv = getelementptr inbounds %"class.cvc5::internal::NodeTemplate", ptr %0, i32 0, i32 0
  %1 = load ptr, ptr %d_nv, align 8
  %d_nv2 = getelementptr inbounds %"class.cvc5::internal::NodeTemplate.8", ptr %this1, i32 0, i32 0
  store ptr %1, ptr %d_nv2, align 8
  ret void
}

; Function Attrs: mustprogress nounwind uwtable
define linkonce_odr hidden void @_ZN4cvc58internal12NodeTemplateILb0EED2Ev(ptr noundef nonnull align 8 dereferenceable(8) %this) unnamed_addr #5 comdat align 2 {
entry:
  %this.addr = alloca ptr, align 8
  store ptr %this, ptr %this.addr, align 8
  ret void
}

; Function Attrs: mustprogress nounwind uwtable
define linkonce_odr hidden noundef i64 @_ZNKSt6vectorISt10shared_ptrIN4cvc58internal6theory2eq7EqProofEESaIS6_EE4sizeEv(ptr noundef nonnull align 8 dereferenceable(24) %this) #5 comdat align 2 {
entry:
  %this.addr = alloca ptr, align 8
  store ptr %this, ptr %this.addr, align 8
  %this1 = load ptr, ptr %this.addr, align 8
  %_M_impl = getelementptr inbounds %"struct.std::_Vector_base", ptr %this1, i32 0, i32 0
  %_M_finish = getelementptr inbounds %"struct.std::_Vector_base<std::shared_ptr<cvc5::internal::theory::eq::EqProof>, std::allocator<std::shared_ptr<cvc5::internal::theory::eq::EqProof>>>::_Vector_impl_data", ptr %_M_impl, i32 0, i32 1
  %0 = load ptr, ptr %_M_finish, align 8
  %_M_impl2 = getelementptr inbounds %"struct.std::_Vector_base", ptr %this1, i32 0, i32 0
  %_M_start = getelementptr inbounds %"struct.std::_Vector_base<std::shared_ptr<cvc5::internal::theory::eq::EqProof>, std::allocator<std::shared_ptr<cvc5::internal::theory::eq::EqProof>>>::_Vector_impl_data", ptr %_M_impl2, i32 0, i32 0
  %1 = load ptr, ptr %_M_start, align 8
  %sub.ptr.lhs.cast = ptrtoint ptr %0 to i64
  %sub.ptr.rhs.cast = ptrtoint ptr %1 to i64
  %sub.ptr.sub = sub i64 %sub.ptr.lhs.cast, %sub.ptr.rhs.cast
  %sub.ptr.div = sdiv exact i64 %sub.ptr.sub, 16
  ret i64 %sub.ptr.div
}

; Function Attrs: mustprogress nounwind uwtable
define linkonce_odr hidden noundef nonnull align 8 dereferenceable(16) ptr @_ZNKSt6vectorISt10shared_ptrIN4cvc58internal6theory2eq7EqProofEESaIS6_EEixEm(ptr noundef nonnull align 8 dereferenceable(24) %this, i64 noundef %__n) #5 comdat align 2 {
entry:
  %this.addr = alloca ptr, align 8
  %__n.addr = alloca i64, align 8
  store ptr %this, ptr %this.addr, align 8
  store i64 %__n, ptr %__n.addr, align 8
  %this1 = load ptr, ptr %this.addr, align 8
  %_M_impl = getelementptr inbounds %"struct.std::_Vector_base", ptr %this1, i32 0, i32 0
  %_M_start = getelementptr inbounds %"struct.std::_Vector_base<std::shared_ptr<cvc5::internal::theory::eq::EqProof>, std::allocator<std::shared_ptr<cvc5::internal::theory::eq::EqProof>>>::_Vector_impl_data", ptr %_M_impl, i32 0, i32 0
  %0 = load ptr, ptr %_M_start, align 8
  %1 = load i64, ptr %__n.addr, align 8
  %add.ptr = getelementptr inbounds %"class.std::shared_ptr", ptr %0, i64 %1
  ret ptr %add.ptr
}

; Function Attrs: mustprogress nounwind uwtable
define linkonce_odr hidden noundef ptr @_ZNKSt19__shared_ptr_accessIN4cvc58internal6theory2eq7EqProofELN9__gnu_cxx12_Lock_policyE2ELb0ELb0EEptEv(ptr noundef nonnull align 1 dereferenceable(1) %this) #5 comdat align 2 {
entry:
  %this.addr = alloca ptr, align 8
  store ptr %this, ptr %this.addr, align 8
  %this1 = load ptr, ptr %this.addr, align 8
  %call = call noundef ptr @_ZNKSt19__shared_ptr_accessIN4cvc58internal6theory2eq7EqProofELN9__gnu_cxx12_Lock_policyE2ELb0ELb0EE6_M_getEv(ptr noundef nonnull align 1 dereferenceable(1) %this1) #3
  ret ptr %call
}

; Function Attrs: mustprogress uwtable
define hidden void @_ZNK4cvc58internal6theory2eq7EqProof17cleanReflPremisesERSt6vectorINS0_12NodeTemplateILb1EEESaIS6_EE(ptr noundef nonnull align 8 dereferenceable(40) %this, ptr noundef nonnull align 8 dereferenceable(24) %premises) #4 align 2 personality ptr @__gxx_personality_v0 {
entry:
  %this.addr = alloca ptr, align 8
  %premises.addr = alloca ptr, align 8
  %newPremises = alloca %"class.std::vector.9", align 8
  %size = alloca i32, align 4
  %i = alloca i32, align 4
  %ref.tmp = alloca %"class.cvc5::internal::NodeTemplate", align 8
  %exn.slot = alloca ptr, align 8
  %ehselector.slot = alloca i32, align 4
  %ref.tmp4 = alloca %"class.cvc5::internal::NodeTemplate", align 8
  %ref.tmp19 = alloca %"class.cvc5::internal::__cvc5_true", align 1
  %tmp = alloca %"class.cvc5::internal::Cvc5ostream", align 8
  %agg.tmp.ensured = alloca %"class.cvc5::internal::Cvc5ostream", align 8
  %ref.tmp23 = alloca %"class.cvc5::internal::Cvc5ostream", align 8
  %ref.tmp27 = alloca i64, align 8
  %agg.tmp = alloca %"class.__gnu_cxx::__normal_iterator.14", align 8
  %ref.tmp44 = alloca %"class.__gnu_cxx::__normal_iterator", align 8
  %agg.tmp46 = alloca %"class.__gnu_cxx::__normal_iterator", align 8
  %agg.tmp49 = alloca %"class.__gnu_cxx::__normal_iterator", align 8
  %coerce = alloca %"class.__gnu_cxx::__normal_iterator", align 8
  %ref.tmp58 = alloca %"class.cvc5::internal::__cvc5_true", align 1
  %tmp62 = alloca %"class.cvc5::internal::Cvc5ostream", align 8
  %agg.tmp.ensured65 = alloca %"class.cvc5::internal::Cvc5ostream", align 8
  %ref.tmp66 = alloca %"class.cvc5::internal::Cvc5ostream", align 8
  store ptr %this, ptr %this.addr, align 8
  store ptr %premises, ptr %premises.addr, align 8
  call void @_ZNSt6vectorIN4cvc58internal12NodeTemplateILb1EEESaIS3_EEC2Ev(ptr noundef nonnull align 8 dereferenceable(24) %newPremises) #3
  %0 = load ptr, ptr %premises.addr, align 8
  %call = call noundef i64 @_ZNKSt6vectorIN4cvc58internal12NodeTemplateILb1EEESaIS3_EE4sizeEv(ptr noundef nonnull align 8 dereferenceable(24) %0) #3
  %conv = trunc i64 %call to i32
  store i32 %conv, ptr %size, align 4
  store i32 0, ptr %i, align 4
  br label %for.cond

for.cond:                                         ; preds = %for.inc, %entry
  %1 = load i32, ptr %i, align 4
  %2 = load i32, ptr %size, align 4
  %cmp = icmp ult i32 %1, %2
  br i1 %cmp, label %for.body, label %for.end

for.body:                                         ; preds = %for.cond
  %3 = load ptr, ptr %premises.addr, align 8
  %4 = load i32, ptr %i, align 4
  %conv2 = zext i32 %4 to i64
  %call3 = call noundef nonnull align 8 dereferenceable(8) ptr @_ZNSt6vectorIN4cvc58internal12NodeTemplateILb1EEESaIS3_EEixEm(ptr noundef nonnull align 8 dereferenceable(24) %3, i64 noundef %conv2) #3
  invoke void @_ZNK4cvc58internal12NodeTemplateILb1EEixEi(ptr sret(%"class.cvc5::internal::NodeTemplate") align 8 %ref.tmp, ptr noundef nonnull align 8 dereferenceable(8) %call3, i32 noundef 0)
          to label %invoke.cont unwind label %lpad

invoke.cont:                                      ; preds = %for.body
  %5 = load ptr, ptr %premises.addr, align 8
  %6 = load i32, ptr %i, align 4
  %conv5 = zext i32 %6 to i64
  %call6 = call noundef nonnull align 8 dereferenceable(8) ptr @_ZNSt6vectorIN4cvc58internal12NodeTemplateILb1EEESaIS3_EEixEm(ptr noundef nonnull align 8 dereferenceable(24) %5, i64 noundef %conv5) #3
  invoke void @_ZNK4cvc58internal12NodeTemplateILb1EEixEi(ptr sret(%"class.cvc5::internal::NodeTemplate") align 8 %ref.tmp4, ptr noundef nonnull align 8 dereferenceable(8) %call6, i32 noundef 1)
          to label %invoke.cont8 unwind label %lpad7

invoke.cont8:                                     ; preds = %invoke.cont
  %call11 = invoke noundef zeroext i1 @_ZNK4cvc58internal12NodeTemplateILb1EEeqILb1EEEbRKNS1_IXT_EEE(ptr noundef nonnull align 8 dereferenceable(8) %ref.tmp, ptr noundef nonnull align 8 dereferenceable(8) %ref.tmp4)
          to label %invoke.cont10 unwind label %lpad9

invoke.cont10:                                    ; preds = %invoke.cont8
  call void @_ZN4cvc58internal12NodeTemplateILb1EED2Ev(ptr noundef nonnull align 8 dereferenceable(8) %ref.tmp4) #3
  call void @_ZN4cvc58internal12NodeTemplateILb1EED2Ev(ptr noundef nonnull align 8 dereferenceable(8) %ref.tmp) #3
  br i1 %call11, label %if.then, label %if.end

if.then:                                          ; preds = %invoke.cont10
  br label %for.inc

lpad:                                             ; preds = %invoke.cont70, %invoke.cont68, %invoke.cont67, %cond.false64, %cond.true61, %invoke.cont55, %cond.end43, %invoke.cont39, %invoke.cont37, %invoke.cont35, %cond.end, %invoke.cont24, %cond.false, %cond.true, %if.then18, %if.end, %for.body
  %7 = landingpad { ptr, i32 }
          cleanup
  %8 = extractvalue { ptr, i32 } %7, 0
  store ptr %8, ptr %exn.slot, align 8
  %9 = extractvalue { ptr, i32 } %7, 1
  store i32 %9, ptr %ehselector.slot, align 4
  br label %ehcleanup76

lpad7:                                            ; preds = %invoke.cont
  %10 = landingpad { ptr, i32 }
          cleanup
  %11 = extractvalue { ptr, i32 } %10, 0
  store ptr %11, ptr %exn.slot, align 8
  %12 = extractvalue { ptr, i32 } %10, 1
  store i32 %12, ptr %ehselector.slot, align 4
  br label %ehcleanup

lpad9:                                            ; preds = %invoke.cont8
  %13 = landingpad { ptr, i32 }
          cleanup
  %14 = extractvalue { ptr, i32 } %13, 0
  store ptr %14, ptr %exn.slot, align 8
  %15 = extractvalue { ptr, i32 } %13, 1
  store i32 %15, ptr %ehselector.slot, align 4
  call void @_ZN4cvc58internal12NodeTemplateILb1EED2Ev(ptr noundef nonnull align 8 dereferenceable(8) %ref.tmp4) #3
  br label %ehcleanup

ehcleanup:                                        ; preds = %lpad9, %lpad7
  call void @_ZN4cvc58internal12NodeTemplateILb1EED2Ev(ptr noundef nonnull align 8 dereferenceable(8) %ref.tmp) #3
  br label %ehcleanup76

if.end:                                           ; preds = %invoke.cont10
  %16 = load ptr, ptr %premises.addr, align 8
  %17 = load i32, ptr %i, align 4
  %conv12 = zext i32 %17 to i64
  %call13 = call noundef nonnull align 8 dereferenceable(8) ptr @_ZNSt6vectorIN4cvc58internal12NodeTemplateILb1EEESaIS3_EEixEm(ptr noundef nonnull align 8 dereferenceable(24) %16, i64 noundef %conv12) #3
  invoke void @_ZNSt6vectorIN4cvc58internal12NodeTemplateILb1EEESaIS3_EE9push_backERKS3_(ptr noundef nonnull align 8 dereferenceable(24) %newPremises, ptr noundef nonnull align 8 dereferenceable(8) %call13)
          to label %invoke.cont14 unwind label %lpad

invoke.cont14:                                    ; preds = %if.end
  br label %for.inc

for.inc:                                          ; preds = %invoke.cont14, %if.then
  %18 = load i32, ptr %i, align 4
  %inc = add i32 %18, 1
  store i32 %inc, ptr %i, align 4
  br label %for.cond, !llvm.loop !11

for.end:                                          ; preds = %for.cond
  %call15 = call noundef i64 @_ZNKSt6vectorIN4cvc58internal12NodeTemplateILb1EEESaIS3_EE4sizeEv(ptr noundef nonnull align 8 dereferenceable(24) %newPremises) #3
  %19 = load i32, ptr %size, align 4
  %conv16 = zext i32 %19 to i64
  %cmp17 = icmp ne i64 %call15, %conv16
  br i1 %cmp17, label %if.then18, label %if.end75

if.then18:                                        ; preds = %for.end
  %call21 = invoke noundef zeroext i1 @_ZN4cvc58internal11__cvc5_truecvbEv(ptr noundef nonnull align 1 dereferenceable(1) %ref.tmp19)
          to label %invoke.cont20 unwind label %lpad

invoke.cont20:                                    ; preds = %if.then18
  br i1 %call21, label %cond.true, label %cond.false

cond.true:                                        ; preds = %invoke.cont20
  invoke void @_ZNK4cvc58internal5NullCcvNS0_11Cvc5ostreamEEv(ptr sret(%"class.cvc5::internal::Cvc5ostream") align 8 %tmp, ptr noundef nonnull align 1 dereferenceable(1) @_ZN4cvc58internal10nullStreamE)
          to label %invoke.cont22 unwind label %lpad

invoke.cont22:                                    ; preds = %cond.true
  br label %cond.end43

cond.false:                                       ; preds = %invoke.cont20
  invoke void @_ZNK4cvc58internal6TraceCclEv(ptr sret(%"class.cvc5::internal::Cvc5ostream") align 8 %ref.tmp23, ptr noundef nonnull align 8 dereferenceable(32) @_ZN4cvc58internal12TraceChannelE)
          to label %invoke.cont24 unwind label %lpad

invoke.cont24:                                    ; preds = %cond.false
  %call26 = invoke noundef nonnull align 8 dereferenceable(24) ptr @_ZN4cvc58internal11Cvc5ostreamlsIA37_cEERS1_RKT_(ptr noundef nonnull align 8 dereferenceable(24) %ref.tmp23, ptr noundef nonnull align 1 dereferenceable(37) @.str.5)
          to label %invoke.cont25 unwind label %lpad

invoke.cont25:                                    ; preds = %invoke.cont24
  %20 = load i32, ptr %size, align 4
  %conv28 = zext i32 %20 to i64
  %call29 = call noundef i64 @_ZNKSt6vectorIN4cvc58internal12NodeTemplateILb1EEESaIS3_EE4sizeEv(ptr noundef nonnull align 8 dereferenceable(24) %newPremises) #3
  %cmp30 = icmp uge i64 %conv28, %call29
  br i1 %cmp30, label %cond.true31, label %cond.false34

cond.true31:                                      ; preds = %invoke.cont25
  %21 = load i32, ptr %size, align 4
  %conv32 = zext i32 %21 to i64
  %call33 = call noundef i64 @_ZNKSt6vectorIN4cvc58internal12NodeTemplateILb1EEESaIS3_EE4sizeEv(ptr noundef nonnull align 8 dereferenceable(24) %newPremises) #3
  %sub = sub i64 %conv32, %call33
  br label %cond.end

cond.false34:                                     ; preds = %invoke.cont25
  br label %cond.end

cond.end:                                         ; preds = %cond.false34, %cond.true31
  %cond = phi i64 [ %sub, %cond.true31 ], [ 0, %cond.false34 ]
  store i64 %cond, ptr %ref.tmp27, align 8
  %call36 = invoke noundef nonnull align 8 dereferenceable(24) ptr @_ZN4cvc58internal11Cvc5ostreamlsImEERS1_RKT_(ptr noundef nonnull align 8 dereferenceable(24) %call26, ptr noundef nonnull align 8 dereferenceable(8) %ref.tmp27)
          to label %invoke.cont35 unwind label %lpad

invoke.cont35:                                    ; preds = %cond.end
  %call38 = invoke noundef nonnull align 8 dereferenceable(24) ptr @_ZN4cvc58internal11Cvc5ostreamlsIA21_cEERS1_RKT_(ptr noundef nonnull align 8 dereferenceable(24) %call36, ptr noundef nonnull align 1 dereferenceable(21) @.str.6)
          to label %invoke.cont37 unwind label %lpad

invoke.cont37:                                    ; preds = %invoke.cont35
  %22 = load ptr, ptr %premises.addr, align 8
  %call40 = invoke noundef nonnull align 8 dereferenceable(24) ptr @_ZN4cvc58internal11Cvc5ostreamlsISt6vectorINS0_12NodeTemplateILb1EEESaIS5_EEEERS1_RKT_(ptr noundef nonnull align 8 dereferenceable(24) %call38, ptr noundef nonnull align 8 dereferenceable(24) %22)
          to label %invoke.cont39 unwind label %lpad

invoke.cont39:                                    ; preds = %invoke.cont37
  %call42 = invoke noundef nonnull align 8 dereferenceable(24) ptr @_ZN4cvc58internal11Cvc5ostreamlsIA2_cEERS1_RKT_(ptr noundef nonnull align 8 dereferenceable(24) %call40, ptr noundef nonnull align 1 dereferenceable(2) @.str.7)
          to label %invoke.cont41 unwind label %lpad

invoke.cont41:                                    ; preds = %invoke.cont39
  call void @llvm.memcpy.p0.p0.i64(ptr align 8 %agg.tmp.ensured, ptr align 8 %call42, i64 24, i1 false)
  br label %cond.end43

cond.end43:                                       ; preds = %invoke.cont41, %invoke.cont22
  %23 = load ptr, ptr %premises.addr, align 8
  call void @_ZNSt6vectorIN4cvc58internal12NodeTemplateILb1EEESaIS3_EE5clearEv(ptr noundef nonnull align 8 dereferenceable(24) %23) #3
  %24 = load ptr, ptr %premises.addr, align 8
  %25 = load ptr, ptr %premises.addr, align 8
  %call45 = call ptr @_ZNSt6vectorIN4cvc58internal12NodeTemplateILb1EEESaIS3_EE3endEv(ptr noundef nonnull align 8 dereferenceable(24) %25) #3
  %coerce.dive = getelementptr inbounds %"class.__gnu_cxx::__normal_iterator", ptr %ref.tmp44, i32 0, i32 0
  store ptr %call45, ptr %coerce.dive, align 8
  call void @_ZN9__gnu_cxx17__normal_iteratorIPKN4cvc58internal12NodeTemplateILb1EEESt6vectorIS4_SaIS4_EEEC2IPS4_vEERKNS0_IT_S9_EE(ptr noundef nonnull align 8 dereferenceable(8) %agg.tmp, ptr noundef nonnull align 8 dereferenceable(8) %ref.tmp44) #3
  %call47 = call ptr @_ZNSt6vectorIN4cvc58internal12NodeTemplateILb1EEESaIS3_EE5beginEv(ptr noundef nonnull align 8 dereferenceable(24) %newPremises) #3
  %coerce.dive48 = getelementptr inbounds %"class.__gnu_cxx::__normal_iterator", ptr %agg.tmp46, i32 0, i32 0
  store ptr %call47, ptr %coerce.dive48, align 8
  %call50 = call ptr @_ZNSt6vectorIN4cvc58internal12NodeTemplateILb1EEESaIS3_EE3endEv(ptr noundef nonnull align 8 dereferenceable(24) %newPremises) #3
  %coerce.dive51 = getelementptr inbounds %"class.__gnu_cxx::__normal_iterator", ptr %agg.tmp49, i32 0, i32 0
  store ptr %call50, ptr %coerce.dive51, align 8
  %coerce.dive52 = getelementptr inbounds %"class.__gnu_cxx::__normal_iterator.14", ptr %agg.tmp, i32 0, i32 0
  %26 = load ptr, ptr %coerce.dive52, align 8
  %coerce.dive53 = getelementptr inbounds %"class.__gnu_cxx::__normal_iterator", ptr %agg.tmp46, i32 0, i32 0
  %27 = load ptr, ptr %coerce.dive53, align 8
  %coerce.dive54 = getelementptr inbounds %"class.__gnu_cxx::__normal_iterator", ptr %agg.tmp49, i32 0, i32 0
  %28 = load ptr, ptr %coerce.dive54, align 8
  %call56 = invoke ptr @_ZNSt6vectorIN4cvc58internal12NodeTemplateILb1EEESaIS3_EE6insertIN9__gnu_cxx17__normal_iteratorIPS3_S5_EEvEESA_NS8_IPKS3_S5_EET_SE_(ptr noundef nonnull align 8 dereferenceable(24) %24, ptr %26, ptr %27, ptr %28)
          to label %invoke.cont55 unwind label %lpad

invoke.cont55:                                    ; preds = %cond.end43
  %coerce.dive57 = getelementptr inbounds %"class.__gnu_cxx::__normal_iterator", ptr %coerce, i32 0, i32 0
  store ptr %call56, ptr %coerce.dive57, align 8
  %call60 = invoke noundef zeroext i1 @_ZN4cvc58internal11__cvc5_truecvbEv(ptr noundef nonnull align 1 dereferenceable(1) %ref.tmp58)
          to label %invoke.cont59 unwind label %lpad

invoke.cont59:                                    ; preds = %invoke.cont55
  br i1 %call60, label %cond.true61, label %cond.false64

cond.true61:                                      ; preds = %invoke.cont59
  invoke void @_ZNK4cvc58internal5NullCcvNS0_11Cvc5ostreamEEv(ptr sret(%"class.cvc5::internal::Cvc5ostream") align 8 %tmp62, ptr noundef nonnull align 1 dereferenceable(1) @_ZN4cvc58internal10nullStreamE)
          to label %invoke.cont63 unwind label %lpad

invoke.cont63:                                    ; preds = %cond.true61
  br label %cond.end74

cond.false64:                                     ; preds = %invoke.cont59
  invoke void @_ZNK4cvc58internal6TraceCclEv(ptr sret(%"class.cvc5::internal::Cvc5ostream") align 8 %ref.tmp66, ptr noundef nonnull align 8 dereferenceable(32) @_ZN4cvc58internal12TraceChannelE)
          to label %invoke.cont67 unwind label %lpad

invoke.cont67:                                    ; preds = %cond.false64
  %call69 = invoke noundef nonnull align 8 dereferenceable(24) ptr @_ZN4cvc58internal11Cvc5ostreamlsIA42_cEERS1_RKT_(ptr noundef nonnull align 8 dereferenceable(24) %ref.tmp66, ptr noundef nonnull align 1 dereferenceable(42) @.str.8)
          to label %invoke.cont68 unwind label %lpad

invoke.cont68:                                    ; preds = %invoke.cont67
  %29 = load ptr, ptr %premises.addr, align 8
  %call71 = invoke noundef nonnull align 8 dereferenceable(24) ptr @_ZN4cvc58internal11Cvc5ostreamlsISt6vectorINS0_12NodeTemplateILb1EEESaIS5_EEEERS1_RKT_(ptr noundef nonnull align 8 dereferenceable(24) %call69, ptr noundef nonnull align 8 dereferenceable(24) %29)
          to label %invoke.cont70 unwind label %lpad

invoke.cont70:                                    ; preds = %invoke.cont68
  %call73 = invoke noundef nonnull align 8 dereferenceable(24) ptr @_ZN4cvc58internal11Cvc5ostreamlsIA2_cEERS1_RKT_(ptr noundef nonnull align 8 dereferenceable(24) %call71, ptr noundef nonnull align 1 dereferenceable(2) @.str.7)
          to label %invoke.cont72 unwind label %lpad

invoke.cont72:                                    ; preds = %invoke.cont70
  call void @llvm.memcpy.p0.p0.i64(ptr align 8 %agg.tmp.ensured65, ptr align 8 %call73, i64 24, i1 false)
  br label %cond.end74

cond.end74:                                       ; preds = %invoke.cont72, %invoke.cont63
  br label %if.end75

if.end75:                                         ; preds = %cond.end74, %for.end
  call void @_ZNSt6vectorIN4cvc58internal12NodeTemplateILb1EEESaIS3_EED2Ev(ptr noundef nonnull align 8 dereferenceable(24) %newPremises) #3
  ret void

ehcleanup76:                                      ; preds = %ehcleanup, %lpad
  call void @_ZNSt6vectorIN4cvc58internal12NodeTemplateILb1EEESaIS3_EED2Ev(ptr noundef nonnull align 8 dereferenceable(24) %newPremises) #3
  br label %eh.resume

eh.resume:                                        ; preds = %ehcleanup76
  %exn = load ptr, ptr %exn.slot, align 8
  %sel = load i32, ptr %ehselector.slot, align 4
  %lpad.val = insertvalue { ptr, i32 } poison, ptr %exn, 0
  %lpad.val77 = insertvalue { ptr, i32 } %lpad.val, i32 %sel, 1
  resume { ptr, i32 } %lpad.val77
}

; Function Attrs: mustprogress nounwind uwtable
define linkonce_odr hidden void @_ZNSt6vectorIN4cvc58internal12NodeTemplateILb1EEESaIS3_EEC2Ev(ptr noundef nonnull align 8 dereferenceable(24) %this) unnamed_addr #5 comdat align 2 {
entry:
  %this.addr = alloca ptr, align 8
  store ptr %this, ptr %this.addr, align 8
  %this1 = load ptr, ptr %this.addr, align 8
  call void @_ZNSt12_Vector_baseIN4cvc58internal12NodeTemplateILb1EEESaIS3_EEC2Ev(ptr noundef nonnull align 8 dereferenceable(24) %this1) #3
  ret void
}

; Function Attrs: mustprogress nounwind uwtable
define linkonce_odr hidden noundef i64 @_ZNKSt6vectorIN4cvc58internal12NodeTemplateILb1EEESaIS3_EE4sizeEv(ptr noundef nonnull align 8 dereferenceable(24) %this) #5 comdat align 2 {
entry:
  %this.addr = alloca ptr, align 8
  store ptr %this, ptr %this.addr, align 8
  %this1 = load ptr, ptr %this.addr, align 8
  %_M_impl = getelementptr inbounds %"struct.std::_Vector_base.10", ptr %this1, i32 0, i32 0
  %_M_finish = getelementptr inbounds %"struct.std::_Vector_base<cvc5::internal::NodeTemplate<true>, std::allocator<cvc5::internal::NodeTemplate<true>>>::_Vector_impl_data", ptr %_M_impl, i32 0, i32 1
  %0 = load ptr, ptr %_M_finish, align 8
  %_M_impl2 = getelementptr inbounds %"struct.std::_Vector_base.10", ptr %this1, i32 0, i32 0
  %_M_start = getelementptr inbounds %"struct.std::_Vector_base<cvc5::internal::NodeTemplate<true>, std::allocator<cvc5::internal::NodeTemplate<true>>>::_Vector_impl_data", ptr %_M_impl2, i32 0, i32 0
  %1 = load ptr, ptr %_M_start, align 8
  %sub.ptr.lhs.cast = ptrtoint ptr %0 to i64
  %sub.ptr.rhs.cast = ptrtoint ptr %1 to i64
  %sub.ptr.sub = sub i64 %sub.ptr.lhs.cast, %sub.ptr.rhs.cast
  %sub.ptr.div = sdiv exact i64 %sub.ptr.sub, 8
  ret i64 %sub.ptr.div
}

; Function Attrs: mustprogress nounwind uwtable
define linkonce_odr hidden noundef nonnull align 8 dereferenceable(8) ptr @_ZNSt6vectorIN4cvc58internal12NodeTemplateILb1EEESaIS3_EEixEm(ptr noundef nonnull align 8 dereferenceable(24) %this, i64 noundef %__n) #5 comdat align 2 {
entry:
  %this.addr = alloca ptr, align 8
  %__n.addr = alloca i64, align 8
  store ptr %this, ptr %this.addr, align 8
  store i64 %__n, ptr %__n.addr, align 8
  %this1 = load ptr, ptr %this.addr, align 8
  %_M_impl = getelementptr inbounds %"struct.std::_Vector_base.10", ptr %this1, i32 0, i32 0
  %_M_start = getelementptr inbounds %"struct.std::_Vector_base<cvc5::internal::NodeTemplate<true>, std::allocator<cvc5::internal::NodeTemplate<true>>>::_Vector_impl_data", ptr %_M_impl, i32 0, i32 0
  %0 = load ptr, ptr %_M_start, align 8
  %1 = load i64, ptr %__n.addr, align 8
  %add.ptr = getelementptr inbounds %"class.cvc5::internal::NodeTemplate", ptr %0, i64 %1
  ret ptr %add.ptr
}

; Function Attrs: mustprogress uwtable
define linkonce_odr hidden void @_ZNK4cvc58internal12NodeTemplateILb1EEixEi(ptr noalias sret(%"class.cvc5::internal::NodeTemplate") align 8 %agg.result, ptr noundef nonnull align 8 dereferenceable(8) %this, i32 noundef %i) #4 comdat align 2 {
entry:
  %result.ptr = alloca ptr, align 8
  %this.addr = alloca ptr, align 8
  %i.addr = alloca i32, align 4
  store ptr %agg.result, ptr %result.ptr, align 8
  store ptr %this, ptr %this.addr, align 8
  store i32 %i, ptr %i.addr, align 4
  %this1 = load ptr, ptr %this.addr, align 8
  call void @_ZNK4cvc58internal12NodeTemplateILb1EE21assertTNodeNotExpiredEv(ptr noundef nonnull align 8 dereferenceable(8) %this1)
  %d_nv = getelementptr inbounds %"class.cvc5::internal::NodeTemplate", ptr %this1, i32 0, i32 0
  %0 = load ptr, ptr %d_nv, align 8
  %1 = load i32, ptr %i.addr, align 4
  %call = call noundef ptr @_ZNK4cvc58internal4expr9NodeValue8getChildEi(ptr noundef nonnull align 8 dereferenceable(16) %0, i32 noundef %1)
  call void @_ZN4cvc58internal12NodeTemplateILb1EEC2EPKNS0_4expr9NodeValueE(ptr noundef nonnull align 8 dereferenceable(8) %agg.result, ptr noundef %call)
  ret void
}

; Function Attrs: mustprogress nounwind uwtable
define linkonce_odr hidden noundef zeroext i1 @_ZNK4cvc58internal12NodeTemplateILb1EEeqILb1EEEbRKNS1_IXT_EEE(ptr noundef nonnull align 8 dereferenceable(8) %this, ptr noundef nonnull align 8 dereferenceable(8) %node) #5 comdat align 2 {
entry:
  %this.addr = alloca ptr, align 8
  %node.addr = alloca ptr, align 8
  store ptr %this, ptr %this.addr, align 8
  store ptr %node, ptr %node.addr, align 8
  %this1 = load ptr, ptr %this.addr, align 8
  call void @_ZNK4cvc58internal12NodeTemplateILb1EE21assertTNodeNotExpiredEv(ptr noundef nonnull align 8 dereferenceable(8) %this1)
  %0 = load ptr, ptr %node.addr, align 8
  call void @_ZNK4cvc58internal12NodeTemplateILb1EE21assertTNodeNotExpiredEv(ptr noundef nonnull align 8 dereferenceable(8) %0)
  %d_nv = getelementptr inbounds %"class.cvc5::internal::NodeTemplate", ptr %this1, i32 0, i32 0
  %1 = load ptr, ptr %d_nv, align 8
  %2 = load ptr, ptr %node.addr, align 8
  %d_nv2 = getelementptr inbounds %"class.cvc5::internal::NodeTemplate", ptr %2, i32 0, i32 0
  %3 = load ptr, ptr %d_nv2, align 8
  %cmp = icmp eq ptr %1, %3
  ret i1 %cmp
}

; Function Attrs: mustprogress nounwind uwtable
define linkonce_odr hidden void @_ZN4cvc58internal12NodeTemplateILb1EED2Ev(ptr noundef nonnull align 8 dereferenceable(8) %this) unnamed_addr #5 comdat align 2 personality ptr @__gxx_personality_v0 {
entry:
  %this.addr = alloca ptr, align 8
  store ptr %this, ptr %this.addr, align 8
  %this1 = load ptr, ptr %this.addr, align 8
  %d_nv = getelementptr inbounds %"class.cvc5::internal::NodeTemplate", ptr %this1, i32 0, i32 0
  %0 = load ptr, ptr %d_nv, align 8
  invoke void @_ZN4cvc58internal4expr9NodeValue3decEv(ptr noundef nonnull align 8 dereferenceable(16) %0)
          to label %invoke.cont unwind label %terminate.lpad

invoke.cont:                                      ; preds = %entry
  ret void

terminate.lpad:                                   ; preds = %entry
  %1 = landingpad { ptr, i32 }
          catch ptr null
  %2 = extractvalue { ptr, i32 } %1, 0
  call void @__clang_call_terminate(ptr %2) #15
  unreachable
}

; Function Attrs: mustprogress uwtable
define linkonce_odr hidden void @_ZNSt6vectorIN4cvc58internal12NodeTemplateILb1EEESaIS3_EE9push_backERKS3_(ptr noundef nonnull align 8 dereferenceable(24) %this, ptr noundef nonnull align 8 dereferenceable(8) %__x) #4 comdat align 2 {
entry:
  %this.addr = alloca ptr, align 8
  %__x.addr = alloca ptr, align 8
  %agg.tmp = alloca %"class.__gnu_cxx::__normal_iterator", align 8
  store ptr %this, ptr %this.addr, align 8
  store ptr %__x, ptr %__x.addr, align 8
  %this1 = load ptr, ptr %this.addr, align 8
  %_M_impl = getelementptr inbounds %"struct.std::_Vector_base.10", ptr %this1, i32 0, i32 0
  %_M_finish = getelementptr inbounds %"struct.std::_Vector_base<cvc5::internal::NodeTemplate<true>, std::allocator<cvc5::internal::NodeTemplate<true>>>::_Vector_impl_data", ptr %_M_impl, i32 0, i32 1
  %0 = load ptr, ptr %_M_finish, align 8
  %_M_impl2 = getelementptr inbounds %"struct.std::_Vector_base.10", ptr %this1, i32 0, i32 0
  %_M_end_of_storage = getelementptr inbounds %"struct.std::_Vector_base<cvc5::internal::NodeTemplate<true>, std::allocator<cvc5::internal::NodeTemplate<true>>>::_Vector_impl_data", ptr %_M_impl2, i32 0, i32 2
  %1 = load ptr, ptr %_M_end_of_storage, align 8
  %cmp = icmp ne ptr %0, %1
  br i1 %cmp, label %if.then, label %if.else

if.then:                                          ; preds = %entry
  %_M_impl3 = getelementptr inbounds %"struct.std::_Vector_base.10", ptr %this1, i32 0, i32 0
  %_M_impl4 = getelementptr inbounds %"struct.std::_Vector_base.10", ptr %this1, i32 0, i32 0
  %_M_finish5 = getelementptr inbounds %"struct.std::_Vector_base<cvc5::internal::NodeTemplate<true>, std::allocator<cvc5::internal::NodeTemplate<true>>>::_Vector_impl_data", ptr %_M_impl4, i32 0, i32 1
  %2 = load ptr, ptr %_M_finish5, align 8
  %3 = load ptr, ptr %__x.addr, align 8
  call void @_ZNSt16allocator_traitsISaIN4cvc58internal12NodeTemplateILb1EEEEE9constructIS3_JRKS3_EEEvRS4_PT_DpOT0_(ptr noundef nonnull align 1 dereferenceable(1) %_M_impl3, ptr noundef %2, ptr noundef nonnull align 8 dereferenceable(8) %3)
  %_M_impl6 = getelementptr inbounds %"struct.std::_Vector_base.10", ptr %this1, i32 0, i32 0
  %_M_finish7 = getelementptr inbounds %"struct.std::_Vector_base<cvc5::internal::NodeTemplate<true>, std::allocator<cvc5::internal::NodeTemplate<true>>>::_Vector_impl_data", ptr %_M_impl6, i32 0, i32 1
  %4 = load ptr, ptr %_M_finish7, align 8
  %incdec.ptr = getelementptr inbounds %"class.cvc5::internal::NodeTemplate", ptr %4, i32 1
  store ptr %incdec.ptr, ptr %_M_finish7, align 8
  br label %if.end

if.else:                                          ; preds = %entry
  %call = call ptr @_ZNSt6vectorIN4cvc58internal12NodeTemplateILb1EEESaIS3_EE3endEv(ptr noundef nonnull align 8 dereferenceable(24) %this1) #3
  %coerce.dive = getelementptr inbounds %"class.__gnu_cxx::__normal_iterator", ptr %agg.tmp, i32 0, i32 0
  store ptr %call, ptr %coerce.dive, align 8
  %5 = load ptr, ptr %__x.addr, align 8
  %coerce.dive8 = getelementptr inbounds %"class.__gnu_cxx::__normal_iterator", ptr %agg.tmp, i32 0, i32 0
  %6 = load ptr, ptr %coerce.dive8, align 8
  call void @_ZNSt6vectorIN4cvc58internal12NodeTemplateILb1EEESaIS3_EE17_M_realloc_insertIJRKS3_EEEvN9__gnu_cxx17__normal_iteratorIPS3_S5_EEDpOT_(ptr noundef nonnull align 8 dereferenceable(24) %this1, ptr %6, ptr noundef nonnull align 8 dereferenceable(8) %5)
  br label %if.end

if.end:                                           ; preds = %if.else, %if.then
  ret void
}

; Function Attrs: mustprogress uwtable
define linkonce_odr hidden noundef nonnull align 8 dereferenceable(24) ptr @_ZN4cvc58internal11Cvc5ostreamlsIA37_cEERS1_RKT_(ptr noundef nonnull align 8 dereferenceable(24) %this, ptr noundef nonnull align 1 dereferenceable(37) %t) #4 comdat align 2 {
entry:
  %this.addr = alloca ptr, align 8
  %t.addr = alloca ptr, align 8
  %indent = alloca i64, align 8
  %i = alloca i64, align 8
  store ptr %this, ptr %this.addr, align 8
  store ptr %t, ptr %t.addr, align 8
  %this1 = load ptr, ptr %this.addr, align 8
  %d_os = getelementptr inbounds %"class.cvc5::internal::Cvc5ostream", ptr %this1, i32 0, i32 0
  %0 = load ptr, ptr %d_os, align 8
  %cmp = icmp ne ptr %0, null
  br i1 %cmp, label %if.then, label %if.end11

if.then:                                          ; preds = %entry
  %d_firstColumn = getelementptr inbounds %"class.cvc5::internal::Cvc5ostream", ptr %this1, i32 0, i32 1
  %1 = load i8, ptr %d_firstColumn, align 8
  %tobool = trunc i8 %1 to i1
  br i1 %tobool, label %if.then2, label %if.end

if.then2:                                         ; preds = %if.then
  %d_firstColumn3 = getelementptr inbounds %"class.cvc5::internal::Cvc5ostream", ptr %this1, i32 0, i32 1
  store i8 0, ptr %d_firstColumn3, align 8
  %d_os4 = getelementptr inbounds %"class.cvc5::internal::Cvc5ostream", ptr %this1, i32 0, i32 0
  %2 = load ptr, ptr %d_os4, align 8
  %vtable = load ptr, ptr %2, align 8
  %vbase.offset.ptr = getelementptr i8, ptr %vtable, i64 -24
  %vbase.offset = load i64, ptr %vbase.offset.ptr, align 8
  %add.ptr = getelementptr inbounds i8, ptr %2, i64 %vbase.offset
  %3 = load i32, ptr @_ZN4cvc58internal11Cvc5ostream16s_indentIosIndexE, align 4
  %call = call noundef nonnull align 8 dereferenceable(8) ptr @_ZNSt8ios_base5iwordEi(ptr noundef nonnull align 8 dereferenceable(216) %add.ptr, i32 noundef %3)
  %4 = load i64, ptr %call, align 8
  store i64 %4, ptr %indent, align 8
  store i64 0, ptr %i, align 8
  br label %for.cond

for.cond:                                         ; preds = %for.inc, %if.then2
  %5 = load i64, ptr %i, align 8
  %6 = load i64, ptr %indent, align 8
  %cmp5 = icmp slt i64 %5, %6
  br i1 %cmp5, label %for.body, label %for.end

for.body:                                         ; preds = %for.cond
  %d_os6 = getelementptr inbounds %"class.cvc5::internal::Cvc5ostream", ptr %this1, i32 0, i32 0
  %7 = load ptr, ptr %d_os6, align 8
  %call7 = call noundef nonnull align 8 dereferenceable(8) ptr @_ZStlsIcSt11char_traitsIcESaIcEERSt13basic_ostreamIT_T0_ES7_RKNSt7__cxx1112basic_stringIS4_S5_T1_EE(ptr noundef nonnull align 8 dereferenceable(8) %7, ptr noundef nonnull align 8 dereferenceable(32) @_ZN4cvc58internal11Cvc5ostream5s_tabB5cxx11E)
  %d_os8 = getelementptr inbounds %"class.cvc5::internal::Cvc5ostream", ptr %this1, i32 0, i32 0
  store ptr %call7, ptr %d_os8, align 8
  br label %for.inc

for.inc:                                          ; preds = %for.body
  %8 = load i64, ptr %i, align 8
  %inc = add nsw i64 %8, 1
  store i64 %inc, ptr %i, align 8
  br label %for.cond, !llvm.loop !12

for.end:                                          ; preds = %for.cond
  br label %if.end

if.end:                                           ; preds = %for.end, %if.then
  %d_os9 = getelementptr inbounds %"class.cvc5::internal::Cvc5ostream", ptr %this1, i32 0, i32 0
  %9 = load ptr, ptr %d_os9, align 8
  %10 = load ptr, ptr %t.addr, align 8
  %arraydecay = getelementptr inbounds [37 x i8], ptr %10, i64 0, i64 0
  %call10 = call noundef nonnull align 8 dereferenceable(8) ptr @_ZStlsISt11char_traitsIcEERSt13basic_ostreamIcT_ES5_PKc(ptr noundef nonnull align 8 dereferenceable(8) %9, ptr noundef %arraydecay)
  br label %if.end11

if.end11:                                         ; preds = %if.end, %entry
  ret ptr %this1
}

; Function Attrs: mustprogress uwtable
define linkonce_odr hidden noundef nonnull align 8 dereferenceable(24) ptr @_ZN4cvc58internal11Cvc5ostreamlsImEERS1_RKT_(ptr noundef nonnull align 8 dereferenceable(24) %this, ptr noundef nonnull align 8 dereferenceable(8) %t) #4 comdat align 2 {
entry:
  %this.addr = alloca ptr, align 8
  %t.addr = alloca ptr, align 8
  %indent = alloca i64, align 8
  %i = alloca i64, align 8
  store ptr %this, ptr %this.addr, align 8
  store ptr %t, ptr %t.addr, align 8
  %this1 = load ptr, ptr %this.addr, align 8
  %d_os = getelementptr inbounds %"class.cvc5::internal::Cvc5ostream", ptr %this1, i32 0, i32 0
  %0 = load ptr, ptr %d_os, align 8
  %cmp = icmp ne ptr %0, null
  br i1 %cmp, label %if.then, label %if.end11

if.then:                                          ; preds = %entry
  %d_firstColumn = getelementptr inbounds %"class.cvc5::internal::Cvc5ostream", ptr %this1, i32 0, i32 1
  %1 = load i8, ptr %d_firstColumn, align 8
  %tobool = trunc i8 %1 to i1
  br i1 %tobool, label %if.then2, label %if.end

if.then2:                                         ; preds = %if.then
  %d_firstColumn3 = getelementptr inbounds %"class.cvc5::internal::Cvc5ostream", ptr %this1, i32 0, i32 1
  store i8 0, ptr %d_firstColumn3, align 8
  %d_os4 = getelementptr inbounds %"class.cvc5::internal::Cvc5ostream", ptr %this1, i32 0, i32 0
  %2 = load ptr, ptr %d_os4, align 8
  %vtable = load ptr, ptr %2, align 8
  %vbase.offset.ptr = getelementptr i8, ptr %vtable, i64 -24
  %vbase.offset = load i64, ptr %vbase.offset.ptr, align 8
  %add.ptr = getelementptr inbounds i8, ptr %2, i64 %vbase.offset
  %3 = load i32, ptr @_ZN4cvc58internal11Cvc5ostream16s_indentIosIndexE, align 4
  %call = call noundef nonnull align 8 dereferenceable(8) ptr @_ZNSt8ios_base5iwordEi(ptr noundef nonnull align 8 dereferenceable(216) %add.ptr, i32 noundef %3)
  %4 = load i64, ptr %call, align 8
  store i64 %4, ptr %indent, align 8
  store i64 0, ptr %i, align 8
  br label %for.cond

for.cond:                                         ; preds = %for.inc, %if.then2
  %5 = load i64, ptr %i, align 8
  %6 = load i64, ptr %indent, align 8
  %cmp5 = icmp slt i64 %5, %6
  br i1 %cmp5, label %for.body, label %for.end

for.body:                                         ; preds = %for.cond
  %d_os6 = getelementptr inbounds %"class.cvc5::internal::Cvc5ostream", ptr %this1, i32 0, i32 0
  %7 = load ptr, ptr %d_os6, align 8
  %call7 = call noundef nonnull align 8 dereferenceable(8) ptr @_ZStlsIcSt11char_traitsIcESaIcEERSt13basic_ostreamIT_T0_ES7_RKNSt7__cxx1112basic_stringIS4_S5_T1_EE(ptr noundef nonnull align 8 dereferenceable(8) %7, ptr noundef nonnull align 8 dereferenceable(32) @_ZN4cvc58internal11Cvc5ostream5s_tabB5cxx11E)
  %d_os8 = getelementptr inbounds %"class.cvc5::internal::Cvc5ostream", ptr %this1, i32 0, i32 0
  store ptr %call7, ptr %d_os8, align 8
  br label %for.inc

for.inc:                                          ; preds = %for.body
  %8 = load i64, ptr %i, align 8
  %inc = add nsw i64 %8, 1
  store i64 %inc, ptr %i, align 8
  br label %for.cond, !llvm.loop !13

for.end:                                          ; preds = %for.cond
  br label %if.end

if.end:                                           ; preds = %for.end, %if.then
  %d_os9 = getelementptr inbounds %"class.cvc5::internal::Cvc5ostream", ptr %this1, i32 0, i32 0
  %9 = load ptr, ptr %d_os9, align 8
  %10 = load ptr, ptr %t.addr, align 8
  %11 = load i64, ptr %10, align 8
  %call10 = call noundef nonnull align 8 dereferenceable(8) ptr @_ZNSolsEm(ptr noundef nonnull align 8 dereferenceable(8) %9, i64 noundef %11)
  br label %if.end11

if.end11:                                         ; preds = %if.end, %entry
  ret ptr %this1
}

; Function Attrs: mustprogress uwtable
define linkonce_odr hidden noundef nonnull align 8 dereferenceable(24) ptr @_ZN4cvc58internal11Cvc5ostreamlsIA21_cEERS1_RKT_(ptr noundef nonnull align 8 dereferenceable(24) %this, ptr noundef nonnull align 1 dereferenceable(21) %t) #4 comdat align 2 {
entry:
  %this.addr = alloca ptr, align 8
  %t.addr = alloca ptr, align 8
  %indent = alloca i64, align 8
  %i = alloca i64, align 8
  store ptr %this, ptr %this.addr, align 8
  store ptr %t, ptr %t.addr, align 8
  %this1 = load ptr, ptr %this.addr, align 8
  %d_os = getelementptr inbounds %"class.cvc5::internal::Cvc5ostream", ptr %this1, i32 0, i32 0
  %0 = load ptr, ptr %d_os, align 8
  %cmp = icmp ne ptr %0, null
  br i1 %cmp, label %if.then, label %if.end11

if.then:                                          ; preds = %entry
  %d_firstColumn = getelementptr inbounds %"class.cvc5::internal::Cvc5ostream", ptr %this1, i32 0, i32 1
  %1 = load i8, ptr %d_firstColumn, align 8
  %tobool = trunc i8 %1 to i1
  br i1 %tobool, label %if.then2, label %if.end

if.then2:                                         ; preds = %if.then
  %d_firstColumn3 = getelementptr inbounds %"class.cvc5::internal::Cvc5ostream", ptr %this1, i32 0, i32 1
  store i8 0, ptr %d_firstColumn3, align 8
  %d_os4 = getelementptr inbounds %"class.cvc5::internal::Cvc5ostream", ptr %this1, i32 0, i32 0
  %2 = load ptr, ptr %d_os4, align 8
  %vtable = load ptr, ptr %2, align 8
  %vbase.offset.ptr = getelementptr i8, ptr %vtable, i64 -24
  %vbase.offset = load i64, ptr %vbase.offset.ptr, align 8
  %add.ptr = getelementptr inbounds i8, ptr %2, i64 %vbase.offset
  %3 = load i32, ptr @_ZN4cvc58internal11Cvc5ostream16s_indentIosIndexE, align 4
  %call = call noundef nonnull align 8 dereferenceable(8) ptr @_ZNSt8ios_base5iwordEi(ptr noundef nonnull align 8 dereferenceable(216) %add.ptr, i32 noundef %3)
  %4 = load i64, ptr %call, align 8
  store i64 %4, ptr %indent, align 8
  store i64 0, ptr %i, align 8
  br label %for.cond

for.cond:                                         ; preds = %for.inc, %if.then2
  %5 = load i64, ptr %i, align 8
  %6 = load i64, ptr %indent, align 8
  %cmp5 = icmp slt i64 %5, %6
  br i1 %cmp5, label %for.body, label %for.end

for.body:                                         ; preds = %for.cond
  %d_os6 = getelementptr inbounds %"class.cvc5::internal::Cvc5ostream", ptr %this1, i32 0, i32 0
  %7 = load ptr, ptr %d_os6, align 8
  %call7 = call noundef nonnull align 8 dereferenceable(8) ptr @_ZStlsIcSt11char_traitsIcESaIcEERSt13basic_ostreamIT_T0_ES7_RKNSt7__cxx1112basic_stringIS4_S5_T1_EE(ptr noundef nonnull align 8 dereferenceable(8) %7, ptr noundef nonnull align 8 dereferenceable(32) @_ZN4cvc58internal11Cvc5ostream5s_tabB5cxx11E)
  %d_os8 = getelementptr inbounds %"class.cvc5::internal::Cvc5ostream", ptr %this1, i32 0, i32 0
  store ptr %call7, ptr %d_os8, align 8
  br label %for.inc

for.inc:                                          ; preds = %for.body
  %8 = load i64, ptr %i, align 8
  %inc = add nsw i64 %8, 1
  store i64 %inc, ptr %i, align 8
  br label %for.cond, !llvm.loop !14

for.end:                                          ; preds = %for.cond
  br label %if.end

if.end:                                           ; preds = %for.end, %if.then
  %d_os9 = getelementptr inbounds %"class.cvc5::internal::Cvc5ostream", ptr %this1, i32 0, i32 0
  %9 = load ptr, ptr %d_os9, align 8
  %10 = load ptr, ptr %t.addr, align 8
  %arraydecay = getelementptr inbounds [21 x i8], ptr %10, i64 0, i64 0
  %call10 = call noundef nonnull align 8 dereferenceable(8) ptr @_ZStlsISt11char_traitsIcEERSt13basic_ostreamIcT_ES5_PKc(ptr noundef nonnull align 8 dereferenceable(8) %9, ptr noundef %arraydecay)
  br label %if.end11

if.end11:                                         ; preds = %if.end, %entry
  ret ptr %this1
}

; Function Attrs: mustprogress uwtable
define linkonce_odr hidden noundef nonnull align 8 dereferenceable(24) ptr @_ZN4cvc58internal11Cvc5ostreamlsISt6vectorINS0_12NodeTemplateILb1EEESaIS5_EEEERS1_RKT_(ptr noundef nonnull align 8 dereferenceable(24) %this, ptr noundef nonnull align 8 dereferenceable(24) %t) #4 comdat align 2 {
entry:
  %this.addr = alloca ptr, align 8
  %t.addr = alloca ptr, align 8
  %indent = alloca i64, align 8
  %i = alloca i64, align 8
  store ptr %this, ptr %this.addr, align 8
  store ptr %t, ptr %t.addr, align 8
  %this1 = load ptr, ptr %this.addr, align 8
  %d_os = getelementptr inbounds %"class.cvc5::internal::Cvc5ostream", ptr %this1, i32 0, i32 0
  %0 = load ptr, ptr %d_os, align 8
  %cmp = icmp ne ptr %0, null
  br i1 %cmp, label %if.then, label %if.end11

if.then:                                          ; preds = %entry
  %d_firstColumn = getelementptr inbounds %"class.cvc5::internal::Cvc5ostream", ptr %this1, i32 0, i32 1
  %1 = load i8, ptr %d_firstColumn, align 8
  %tobool = trunc i8 %1 to i1
  br i1 %tobool, label %if.then2, label %if.end

if.then2:                                         ; preds = %if.then
  %d_firstColumn3 = getelementptr inbounds %"class.cvc5::internal::Cvc5ostream", ptr %this1, i32 0, i32 1
  store i8 0, ptr %d_firstColumn3, align 8
  %d_os4 = getelementptr inbounds %"class.cvc5::internal::Cvc5ostream", ptr %this1, i32 0, i32 0
  %2 = load ptr, ptr %d_os4, align 8
  %vtable = load ptr, ptr %2, align 8
  %vbase.offset.ptr = getelementptr i8, ptr %vtable, i64 -24
  %vbase.offset = load i64, ptr %vbase.offset.ptr, align 8
  %add.ptr = getelementptr inbounds i8, ptr %2, i64 %vbase.offset
  %3 = load i32, ptr @_ZN4cvc58internal11Cvc5ostream16s_indentIosIndexE, align 4
  %call = call noundef nonnull align 8 dereferenceable(8) ptr @_ZNSt8ios_base5iwordEi(ptr noundef nonnull align 8 dereferenceable(216) %add.ptr, i32 noundef %3)
  %4 = load i64, ptr %call, align 8
  store i64 %4, ptr %indent, align 8
  store i64 0, ptr %i, align 8
  br label %for.cond

for.cond:                                         ; preds = %for.inc, %if.then2
  %5 = load i64, ptr %i, align 8
  %6 = load i64, ptr %indent, align 8
  %cmp5 = icmp slt i64 %5, %6
  br i1 %cmp5, label %for.body, label %for.end

for.body:                                         ; preds = %for.cond
  %d_os6 = getelementptr inbounds %"class.cvc5::internal::Cvc5ostream", ptr %this1, i32 0, i32 0
  %7 = load ptr, ptr %d_os6, align 8
  %call7 = call noundef nonnull align 8 dereferenceable(8) ptr @_ZStlsIcSt11char_traitsIcESaIcEERSt13basic_ostreamIT_T0_ES7_RKNSt7__cxx1112basic_stringIS4_S5_T1_EE(ptr noundef nonnull align 8 dereferenceable(8) %7, ptr noundef nonnull align 8 dereferenceable(32) @_ZN4cvc58internal11Cvc5ostream5s_tabB5cxx11E)
  %d_os8 = getelementptr inbounds %"class.cvc5::internal::Cvc5ostream", ptr %this1, i32 0, i32 0
  store ptr %call7, ptr %d_os8, align 8
  br label %for.inc

for.inc:                                          ; preds = %for.body
  %8 = load i64, ptr %i, align 8
  %inc = add nsw i64 %8, 1
  store i64 %inc, ptr %i, align 8
  br label %for.cond, !llvm.loop !15

for.end:                                          ; preds = %for.cond
  br label %if.end

if.end:                                           ; preds = %for.end, %if.then
  %d_os9 = getelementptr inbounds %"class.cvc5::internal::Cvc5ostream", ptr %this1, i32 0, i32 0
  %9 = load ptr, ptr %d_os9, align 8
  %10 = load ptr, ptr %t.addr, align 8
  %call10 = call noundef nonnull align 8 dereferenceable(8) ptr @_ZN4cvc58internallsILb1EEERSoS2_RKSt6vectorINS0_12NodeTemplateIXT_EEESaIS5_EE(ptr noundef nonnull align 8 dereferenceable(8) %9, ptr noundef nonnull align 8 dereferenceable(24) %10)
  br label %if.end11

if.end11:                                         ; preds = %if.end, %entry
  ret ptr %this1
}

; Function Attrs: mustprogress uwtable
define linkonce_odr hidden noundef nonnull align 8 dereferenceable(24) ptr @_ZN4cvc58internal11Cvc5ostreamlsIA2_cEERS1_RKT_(ptr noundef nonnull align 8 dereferenceable(24) %this, ptr noundef nonnull align 1 dereferenceable(2) %t) #4 comdat align 2 {
entry:
  %this.addr = alloca ptr, align 8
  %t.addr = alloca ptr, align 8
  %indent = alloca i64, align 8
  %i = alloca i64, align 8
  store ptr %this, ptr %this.addr, align 8
  store ptr %t, ptr %t.addr, align 8
  %this1 = load ptr, ptr %this.addr, align 8
  %d_os = getelementptr inbounds %"class.cvc5::internal::Cvc5ostream", ptr %this1, i32 0, i32 0
  %0 = load ptr, ptr %d_os, align 8
  %cmp = icmp ne ptr %0, null
  br i1 %cmp, label %if.then, label %if.end11

if.then:                                          ; preds = %entry
  %d_firstColumn = getelementptr inbounds %"class.cvc5::internal::Cvc5ostream", ptr %this1, i32 0, i32 1
  %1 = load i8, ptr %d_firstColumn, align 8
  %tobool = trunc i8 %1 to i1
  br i1 %tobool, label %if.then2, label %if.end

if.then2:                                         ; preds = %if.then
  %d_firstColumn3 = getelementptr inbounds %"class.cvc5::internal::Cvc5ostream", ptr %this1, i32 0, i32 1
  store i8 0, ptr %d_firstColumn3, align 8
  %d_os4 = getelementptr inbounds %"class.cvc5::internal::Cvc5ostream", ptr %this1, i32 0, i32 0
  %2 = load ptr, ptr %d_os4, align 8
  %vtable = load ptr, ptr %2, align 8
  %vbase.offset.ptr = getelementptr i8, ptr %vtable, i64 -24
  %vbase.offset = load i64, ptr %vbase.offset.ptr, align 8
  %add.ptr = getelementptr inbounds i8, ptr %2, i64 %vbase.offset
  %3 = load i32, ptr @_ZN4cvc58internal11Cvc5ostream16s_indentIosIndexE, align 4
  %call = call noundef nonnull align 8 dereferenceable(8) ptr @_ZNSt8ios_base5iwordEi(ptr noundef nonnull align 8 dereferenceable(216) %add.ptr, i32 noundef %3)
  %4 = load i64, ptr %call, align 8
  store i64 %4, ptr %indent, align 8
  store i64 0, ptr %i, align 8
  br label %for.cond

for.cond:                                         ; preds = %for.inc, %if.then2
  %5 = load i64, ptr %i, align 8
  %6 = load i64, ptr %indent, align 8
  %cmp5 = icmp slt i64 %5, %6
  br i1 %cmp5, label %for.body, label %for.end

for.body:                                         ; preds = %for.cond
  %d_os6 = getelementptr inbounds %"class.cvc5::internal::Cvc5ostream", ptr %this1, i32 0, i32 0
  %7 = load ptr, ptr %d_os6, align 8
  %call7 = call noundef nonnull align 8 dereferenceable(8) ptr @_ZStlsIcSt11char_traitsIcESaIcEERSt13basic_ostreamIT_T0_ES7_RKNSt7__cxx1112basic_stringIS4_S5_T1_EE(ptr noundef nonnull align 8 dereferenceable(8) %7, ptr noundef nonnull align 8 dereferenceable(32) @_ZN4cvc58internal11Cvc5ostream5s_tabB5cxx11E)
  %d_os8 = getelementptr inbounds %"class.cvc5::internal::Cvc5ostream", ptr %this1, i32 0, i32 0
  store ptr %call7, ptr %d_os8, align 8
  br label %for.inc

for.inc:                                          ; preds = %for.body
  %8 = load i64, ptr %i, align 8
  %inc = add nsw i64 %8, 1
  store i64 %inc, ptr %i, align 8
  br label %for.cond, !llvm.loop !16

for.end:                                          ; preds = %for.cond
  br label %if.end

if.end:                                           ; preds = %for.end, %if.then
  %d_os9 = getelementptr inbounds %"class.cvc5::internal::Cvc5ostream", ptr %this1, i32 0, i32 0
  %9 = load ptr, ptr %d_os9, align 8
  %10 = load ptr, ptr %t.addr, align 8
  %arraydecay = getelementptr inbounds [2 x i8], ptr %10, i64 0, i64 0
  %call10 = call noundef nonnull align 8 dereferenceable(8) ptr @_ZStlsISt11char_traitsIcEERSt13basic_ostreamIcT_ES5_PKc(ptr noundef nonnull align 8 dereferenceable(8) %9, ptr noundef %arraydecay)
  br label %if.end11

if.end11:                                         ; preds = %if.end, %entry
  ret ptr %this1
}

; Function Attrs: mustprogress nounwind uwtable
define linkonce_odr hidden void @_ZNSt6vectorIN4cvc58internal12NodeTemplateILb1EEESaIS3_EE5clearEv(ptr noundef nonnull align 8 dereferenceable(24) %this) #5 comdat align 2 {
entry:
  %this.addr = alloca ptr, align 8
  store ptr %this, ptr %this.addr, align 8
  %this1 = load ptr, ptr %this.addr, align 8
  %_M_impl = getelementptr inbounds %"struct.std::_Vector_base.10", ptr %this1, i32 0, i32 0
  %_M_start = getelementptr inbounds %"struct.std::_Vector_base<cvc5::internal::NodeTemplate<true>, std::allocator<cvc5::internal::NodeTemplate<true>>>::_Vector_impl_data", ptr %_M_impl, i32 0, i32 0
  %0 = load ptr, ptr %_M_start, align 8
  call void @_ZNSt6vectorIN4cvc58internal12NodeTemplateILb1EEESaIS3_EE15_M_erase_at_endEPS3_(ptr noundef nonnull align 8 dereferenceable(24) %this1, ptr noundef %0) #3
  ret void
}

; Function Attrs: mustprogress uwtable
define linkonce_odr hidden ptr @_ZNSt6vectorIN4cvc58internal12NodeTemplateILb1EEESaIS3_EE6insertIN9__gnu_cxx17__normal_iteratorIPS3_S5_EEvEESA_NS8_IPKS3_S5_EET_SE_(ptr noundef nonnull align 8 dereferenceable(24) %this, ptr %__position.coerce, ptr %__first.coerce, ptr %__last.coerce) #4 comdat align 2 {
entry:
  %retval = alloca %"class.__gnu_cxx::__normal_iterator", align 8
  %__position = alloca %"class.__gnu_cxx::__normal_iterator.14", align 8
  %__first = alloca %"class.__gnu_cxx::__normal_iterator", align 8
  %__last = alloca %"class.__gnu_cxx::__normal_iterator", align 8
  %this.addr = alloca ptr, align 8
  %__offset = alloca i64, align 8
  %ref.tmp = alloca %"class.__gnu_cxx::__normal_iterator.14", align 8
  %agg.tmp = alloca %"class.__gnu_cxx::__normal_iterator", align 8
  %ref.tmp6 = alloca %"class.__gnu_cxx::__normal_iterator", align 8
  %agg.tmp11 = alloca %"class.__gnu_cxx::__normal_iterator", align 8
  %agg.tmp12 = alloca %"class.__gnu_cxx::__normal_iterator", align 8
  %ref.tmp17 = alloca %"class.__gnu_cxx::__normal_iterator", align 8
  %coerce.dive = getelementptr inbounds %"class.__gnu_cxx::__normal_iterator.14", ptr %__position, i32 0, i32 0
  store ptr %__position.coerce, ptr %coerce.dive, align 8
  %coerce.dive1 = getelementptr inbounds %"class.__gnu_cxx::__normal_iterator", ptr %__first, i32 0, i32 0
  store ptr %__first.coerce, ptr %coerce.dive1, align 8
  %coerce.dive2 = getelementptr inbounds %"class.__gnu_cxx::__normal_iterator", ptr %__last, i32 0, i32 0
  store ptr %__last.coerce, ptr %coerce.dive2, align 8
  store ptr %this, ptr %this.addr, align 8
  %this3 = load ptr, ptr %this.addr, align 8
  %call = call ptr @_ZNKSt6vectorIN4cvc58internal12NodeTemplateILb1EEESaIS3_EE6cbeginEv(ptr noundef nonnull align 8 dereferenceable(24) %this3) #3
  %coerce.dive4 = getelementptr inbounds %"class.__gnu_cxx::__normal_iterator.14", ptr %ref.tmp, i32 0, i32 0
  store ptr %call, ptr %coerce.dive4, align 8
  %call5 = call noundef i64 @_ZN9__gnu_cxxmiIPKN4cvc58internal12NodeTemplateILb1EEESt6vectorIS4_SaIS4_EEEENS_17__normal_iteratorIT_T0_E15difference_typeERKSD_SG_(ptr noundef nonnull align 8 dereferenceable(8) %__position, ptr noundef nonnull align 8 dereferenceable(8) %ref.tmp) #3
  store i64 %call5, ptr %__offset, align 8
  %call7 = call ptr @_ZNSt6vectorIN4cvc58internal12NodeTemplateILb1EEESaIS3_EE5beginEv(ptr noundef nonnull align 8 dereferenceable(24) %this3) #3
  %coerce.dive8 = getelementptr inbounds %"class.__gnu_cxx::__normal_iterator", ptr %ref.tmp6, i32 0, i32 0
  store ptr %call7, ptr %coerce.dive8, align 8
  %0 = load i64, ptr %__offset, align 8
  %call9 = call ptr @_ZNK9__gnu_cxx17__normal_iteratorIPN4cvc58internal12NodeTemplateILb1EEESt6vectorIS4_SaIS4_EEEplEl(ptr noundef nonnull align 8 dereferenceable(8) %ref.tmp6, i64 noundef %0) #3
  %coerce.dive10 = getelementptr inbounds %"class.__gnu_cxx::__normal_iterator", ptr %agg.tmp, i32 0, i32 0
  store ptr %call9, ptr %coerce.dive10, align 8
  call void @llvm.memcpy.p0.p0.i64(ptr align 8 %agg.tmp11, ptr align 8 %__first, i64 8, i1 false)
  call void @llvm.memcpy.p0.p0.i64(ptr align 8 %agg.tmp12, ptr align 8 %__last, i64 8, i1 false)
  %coerce.dive14 = getelementptr inbounds %"class.__gnu_cxx::__normal_iterator", ptr %agg.tmp, i32 0, i32 0
  %1 = load ptr, ptr %coerce.dive14, align 8
  %coerce.dive15 = getelementptr inbounds %"class.__gnu_cxx::__normal_iterator", ptr %agg.tmp11, i32 0, i32 0
  %2 = load ptr, ptr %coerce.dive15, align 8
  %coerce.dive16 = getelementptr inbounds %"class.__gnu_cxx::__normal_iterator", ptr %agg.tmp12, i32 0, i32 0
  %3 = load ptr, ptr %coerce.dive16, align 8
  call void @_ZNSt6vectorIN4cvc58internal12NodeTemplateILb1EEESaIS3_EE18_M_insert_dispatchIN9__gnu_cxx17__normal_iteratorIPS3_S5_EEEEvSA_T_SB_St12__false_type(ptr noundef nonnull align 8 dereferenceable(24) %this3, ptr %1, ptr %2, ptr %3)
  %call18 = call ptr @_ZNSt6vectorIN4cvc58internal12NodeTemplateILb1EEESaIS3_EE5beginEv(ptr noundef nonnull align 8 dereferenceable(24) %this3) #3
  %coerce.dive19 = getelementptr inbounds %"class.__gnu_cxx::__normal_iterator", ptr %ref.tmp17, i32 0, i32 0
  store ptr %call18, ptr %coerce.dive19, align 8
  %4 = load i64, ptr %__offset, align 8
  %call20 = call ptr @_ZNK9__gnu_cxx17__normal_iteratorIPN4cvc58internal12NodeTemplateILb1EEESt6vectorIS4_SaIS4_EEEplEl(ptr noundef nonnull align 8 dereferenceable(8) %ref.tmp17, i64 noundef %4) #3
  %coerce.dive21 = getelementptr inbounds %"class.__gnu_cxx::__normal_iterator", ptr %retval, i32 0, i32 0
  store ptr %call20, ptr %coerce.dive21, align 8
  %coerce.dive22 = getelementptr inbounds %"class.__gnu_cxx::__normal_iterator", ptr %retval, i32 0, i32 0
  %5 = load ptr, ptr %coerce.dive22, align 8
  ret ptr %5
}

; Function Attrs: mustprogress nounwind uwtable
define linkonce_odr hidden ptr @_ZNSt6vectorIN4cvc58internal12NodeTemplateILb1EEESaIS3_EE3endEv(ptr noundef nonnull align 8 dereferenceable(24) %this) #5 comdat align 2 {
entry:
  %retval = alloca %"class.__gnu_cxx::__normal_iterator", align 8
  %this.addr = alloca ptr, align 8
  store ptr %this, ptr %this.addr, align 8
  %this1 = load ptr, ptr %this.addr, align 8
  %_M_impl = getelementptr inbounds %"struct.std::_Vector_base.10", ptr %this1, i32 0, i32 0
  %_M_finish = getelementptr inbounds %"struct.std::_Vector_base<cvc5::internal::NodeTemplate<true>, std::allocator<cvc5::internal::NodeTemplate<true>>>::_Vector_impl_data", ptr %_M_impl, i32 0, i32 1
  call void @_ZN9__gnu_cxx17__normal_iteratorIPN4cvc58internal12NodeTemplateILb1EEESt6vectorIS4_SaIS4_EEEC2ERKS5_(ptr noundef nonnull align 8 dereferenceable(8) %retval, ptr noundef nonnull align 8 dereferenceable(8) %_M_finish) #3
  %coerce.dive = getelementptr inbounds %"class.__gnu_cxx::__normal_iterator", ptr %retval, i32 0, i32 0
  %0 = load ptr, ptr %coerce.dive, align 8
  ret ptr %0
}

; Function Attrs: mustprogress nounwind uwtable
define linkonce_odr hidden void @_ZN9__gnu_cxx17__normal_iteratorIPKN4cvc58internal12NodeTemplateILb1EEESt6vectorIS4_SaIS4_EEEC2IPS4_vEERKNS0_IT_S9_EE(ptr noundef nonnull align 8 dereferenceable(8) %this, ptr noundef nonnull align 8 dereferenceable(8) %__i) unnamed_addr #5 comdat align 2 {
entry:
  %this.addr = alloca ptr, align 8
  %__i.addr = alloca ptr, align 8
  store ptr %this, ptr %this.addr, align 8
  store ptr %__i, ptr %__i.addr, align 8
  %this1 = load ptr, ptr %this.addr, align 8
  %_M_current = getelementptr inbounds %"class.__gnu_cxx::__normal_iterator.14", ptr %this1, i32 0, i32 0
  %0 = load ptr, ptr %__i.addr, align 8
  %call = call noundef nonnull align 8 dereferenceable(8) ptr @_ZNK9__gnu_cxx17__normal_iteratorIPN4cvc58internal12NodeTemplateILb1EEESt6vectorIS4_SaIS4_EEE4baseEv(ptr noundef nonnull align 8 dereferenceable(8) %0) #3
  %1 = load ptr, ptr %call, align 8
  store ptr %1, ptr %_M_current, align 8
  ret void
}

; Function Attrs: mustprogress nounwind uwtable
define linkonce_odr hidden ptr @_ZNSt6vectorIN4cvc58internal12NodeTemplateILb1EEESaIS3_EE5beginEv(ptr noundef nonnull align 8 dereferenceable(24) %this) #5 comdat align 2 {
entry:
  %retval = alloca %"class.__gnu_cxx::__normal_iterator", align 8
  %this.addr = alloca ptr, align 8
  store ptr %this, ptr %this.addr, align 8
  %this1 = load ptr, ptr %this.addr, align 8
  %_M_impl = getelementptr inbounds %"struct.std::_Vector_base.10", ptr %this1, i32 0, i32 0
  %_M_start = getelementptr inbounds %"struct.std::_Vector_base<cvc5::internal::NodeTemplate<true>, std::allocator<cvc5::internal::NodeTemplate<true>>>::_Vector_impl_data", ptr %_M_impl, i32 0, i32 0
  call void @_ZN9__gnu_cxx17__normal_iteratorIPN4cvc58internal12NodeTemplateILb1EEESt6vectorIS4_SaIS4_EEEC2ERKS5_(ptr noundef nonnull align 8 dereferenceable(8) %retval, ptr noundef nonnull align 8 dereferenceable(8) %_M_start) #3
  %coerce.dive = getelementptr inbounds %"class.__gnu_cxx::__normal_iterator", ptr %retval, i32 0, i32 0
  %0 = load ptr, ptr %coerce.dive, align 8
  ret ptr %0
}

; Function Attrs: mustprogress uwtable
define linkonce_odr hidden noundef nonnull align 8 dereferenceable(24) ptr @_ZN4cvc58internal11Cvc5ostreamlsIA42_cEERS1_RKT_(ptr noundef nonnull align 8 dereferenceable(24) %this, ptr noundef nonnull align 1 dereferenceable(42) %t) #4 comdat align 2 {
entry:
  %this.addr = alloca ptr, align 8
  %t.addr = alloca ptr, align 8
  %indent = alloca i64, align 8
  %i = alloca i64, align 8
  store ptr %this, ptr %this.addr, align 8
  store ptr %t, ptr %t.addr, align 8
  %this1 = load ptr, ptr %this.addr, align 8
  %d_os = getelementptr inbounds %"class.cvc5::internal::Cvc5ostream", ptr %this1, i32 0, i32 0
  %0 = load ptr, ptr %d_os, align 8
  %cmp = icmp ne ptr %0, null
  br i1 %cmp, label %if.then, label %if.end11

if.then:                                          ; preds = %entry
  %d_firstColumn = getelementptr inbounds %"class.cvc5::internal::Cvc5ostream", ptr %this1, i32 0, i32 1
  %1 = load i8, ptr %d_firstColumn, align 8
  %tobool = trunc i8 %1 to i1
  br i1 %tobool, label %if.then2, label %if.end

if.then2:                                         ; preds = %if.then
  %d_firstColumn3 = getelementptr inbounds %"class.cvc5::internal::Cvc5ostream", ptr %this1, i32 0, i32 1
  store i8 0, ptr %d_firstColumn3, align 8
  %d_os4 = getelementptr inbounds %"class.cvc5::internal::Cvc5ostream", ptr %this1, i32 0, i32 0
  %2 = load ptr, ptr %d_os4, align 8
  %vtable = load ptr, ptr %2, align 8
  %vbase.offset.ptr = getelementptr i8, ptr %vtable, i64 -24
  %vbase.offset = load i64, ptr %vbase.offset.ptr, align 8
  %add.ptr = getelementptr inbounds i8, ptr %2, i64 %vbase.offset
  %3 = load i32, ptr @_ZN4cvc58internal11Cvc5ostream16s_indentIosIndexE, align 4
  %call = call noundef nonnull align 8 dereferenceable(8) ptr @_ZNSt8ios_base5iwordEi(ptr noundef nonnull align 8 dereferenceable(216) %add.ptr, i32 noundef %3)
  %4 = load i64, ptr %call, align 8
  store i64 %4, ptr %indent, align 8
  store i64 0, ptr %i, align 8
  br label %for.cond

for.cond:                                         ; preds = %for.inc, %if.then2
  %5 = load i64, ptr %i, align 8
  %6 = load i64, ptr %indent, align 8
  %cmp5 = icmp slt i64 %5, %6
  br i1 %cmp5, label %for.body, label %for.end

for.body:                                         ; preds = %for.cond
  %d_os6 = getelementptr inbounds %"class.cvc5::internal::Cvc5ostream", ptr %this1, i32 0, i32 0
  %7 = load ptr, ptr %d_os6, align 8
  %call7 = call noundef nonnull align 8 dereferenceable(8) ptr @_ZStlsIcSt11char_traitsIcESaIcEERSt13basic_ostreamIT_T0_ES7_RKNSt7__cxx1112basic_stringIS4_S5_T1_EE(ptr noundef nonnull align 8 dereferenceable(8) %7, ptr noundef nonnull align 8 dereferenceable(32) @_ZN4cvc58internal11Cvc5ostream5s_tabB5cxx11E)
  %d_os8 = getelementptr inbounds %"class.cvc5::internal::Cvc5ostream", ptr %this1, i32 0, i32 0
  store ptr %call7, ptr %d_os8, align 8
  br label %for.inc

for.inc:                                          ; preds = %for.body
  %8 = load i64, ptr %i, align 8
  %inc = add nsw i64 %8, 1
  store i64 %inc, ptr %i, align 8
  br label %for.cond, !llvm.loop !17

for.end:                                          ; preds = %for.cond
  br label %if.end

if.end:                                           ; preds = %for.end, %if.then
  %d_os9 = getelementptr inbounds %"class.cvc5::internal::Cvc5ostream", ptr %this1, i32 0, i32 0
  %9 = load ptr, ptr %d_os9, align 8
  %10 = load ptr, ptr %t.addr, align 8
  %arraydecay = getelementptr inbounds [42 x i8], ptr %10, i64 0, i64 0
  %call10 = call noundef nonnull align 8 dereferenceable(8) ptr @_ZStlsISt11char_traitsIcEERSt13basic_ostreamIcT_ES5_PKc(ptr noundef nonnull align 8 dereferenceable(8) %9, ptr noundef %arraydecay)
  br label %if.end11

if.end11:                                         ; preds = %if.end, %entry
  ret ptr %this1
}

; Function Attrs: mustprogress nounwind uwtable
define linkonce_odr hidden void @_ZNSt6vectorIN4cvc58internal12NodeTemplateILb1EEESaIS3_EED2Ev(ptr noundef nonnull align 8 dereferenceable(24) %this) unnamed_addr #5 comdat align 2 personality ptr @__gxx_personality_v0 {
entry:
  %this.addr = alloca ptr, align 8
  store ptr %this, ptr %this.addr, align 8
  %this1 = load ptr, ptr %this.addr, align 8
  %_M_impl = getelementptr inbounds %"struct.std::_Vector_base.10", ptr %this1, i32 0, i32 0
  %_M_start = getelementptr inbounds %"struct.std::_Vector_base<cvc5::internal::NodeTemplate<true>, std::allocator<cvc5::internal::NodeTemplate<true>>>::_Vector_impl_data", ptr %_M_impl, i32 0, i32 0
  %0 = load ptr, ptr %_M_start, align 8
  %_M_impl2 = getelementptr inbounds %"struct.std::_Vector_base.10", ptr %this1, i32 0, i32 0
  %_M_finish = getelementptr inbounds %"struct.std::_Vector_base<cvc5::internal::NodeTemplate<true>, std::allocator<cvc5::internal::NodeTemplate<true>>>::_Vector_impl_data", ptr %_M_impl2, i32 0, i32 1
  %1 = load ptr, ptr %_M_finish, align 8
  %call = call noundef nonnull align 1 dereferenceable(1) ptr @_ZNSt12_Vector_baseIN4cvc58internal12NodeTemplateILb1EEESaIS3_EE19_M_get_Tp_allocatorEv(ptr noundef nonnull align 8 dereferenceable(24) %this1) #3
  invoke void @_ZSt8_DestroyIPN4cvc58internal12NodeTemplateILb1EEES3_EvT_S5_RSaIT0_E(ptr noundef %0, ptr noundef %1, ptr noundef nonnull align 1 dereferenceable(1) %call)
          to label %invoke.cont unwind label %terminate.lpad

invoke.cont:                                      ; preds = %entry
  call void @_ZNSt12_Vector_baseIN4cvc58internal12NodeTemplateILb1EEESaIS3_EED2Ev(ptr noundef nonnull align 8 dereferenceable(24) %this1) #3
  ret void

terminate.lpad:                                   ; preds = %entry
  %2 = landingpad { ptr, i32 }
          catch ptr null
  %3 = extractvalue { ptr, i32 } %2, 0
  call void @__clang_call_terminate(ptr %3) #15
  unreachable
}

; Function Attrs: mustprogress uwtable
define hidden noundef zeroext i1 @_ZNK4cvc58internal6theory2eq7EqProof34expandTransitivityForDisequalitiesENS0_12NodeTemplateILb1EEERSt6vectorIS5_SaIS5_EEPNS0_7CDProofERSt13unordered_setIS5_St4hashIS5_ESt8equal_toIS5_ES7_E(ptr noundef nonnull align 8 dereferenceable(40) %this, ptr noundef %conclusion, ptr noundef nonnull align 8 dereferenceable(24) %premises, ptr noundef %p, ptr noundef nonnull align 8 dereferenceable(56) %assumptions) #4 align 2 personality ptr @__gxx_personality_v0 {
entry:
  %retval = alloca i1, align 1
  %this.addr = alloca ptr, align 8
  %conclusion.indirect_addr = alloca ptr, align 8
  %premises.addr = alloca ptr, align 8
  %p.addr = alloca ptr, align 8
  %assumptions.addr = alloca ptr, align 8
  %ref.tmp = alloca %"class.cvc5::internal::__cvc5_true", align 1
  %tmp = alloca %"class.cvc5::internal::Cvc5ostream", align 8
  %agg.tmp.ensured = alloca %"class.cvc5::internal::Cvc5ostream", align 8
  %ref.tmp2 = alloca %"class.cvc5::internal::Cvc5ostream", align 8
  %size = alloca i32, align 4
  %termPos = alloca i32, align 4
  %offending = alloca i32, align 4
  %i = alloca i32, align 4
  %j = alloca i32, align 4
  %ref.tmp12 = alloca %"class.cvc5::internal::NodeTemplate", align 8
  %exn.slot = alloca ptr, align 8
  %ehselector.slot = alloca i32, align 4
  %ref.tmp17 = alloca %"class.cvc5::internal::NodeTemplate", align 8
  %cleanup.cond = alloca i1, align 1
  %ref.tmp24 = alloca %"class.cvc5::internal::NodeTemplate", align 8
  %cleanup.cond28 = alloca i1, align 1
  %ref.tmp49 = alloca %"class.cvc5::internal::__cvc5_true", align 1
  %tmp52 = alloca %"class.cvc5::internal::Cvc5ostream", align 8
  %agg.tmp.ensured54 = alloca %"class.cvc5::internal::Cvc5ostream", align 8
  %ref.tmp55 = alloca %"class.cvc5::internal::Cvc5ostream", align 8
  %nm = alloca ptr, align 8
  %ref.tmp60 = alloca %"class.cvc5::internal::__cvc5_true", align 1
  %tmp63 = alloca %"class.cvc5::internal::Cvc5ostream", align 8
  %agg.tmp.ensured65 = alloca %"class.cvc5::internal::Cvc5ostream", align 8
  %ref.tmp66 = alloca %"class.cvc5::internal::Cvc5ostream", align 8
  %expansionPremises = alloca %"class.std::vector.9", align 8
  %i75 = alloca i32, align 4
  %expansionConclusion = alloca %"class.cvc5::internal::NodeTemplate", align 8
  %substPremises = alloca %"class.std::vector.9", align 8
  %inSubstCase = alloca i8, align 1
  %substConclusionInReverseOrder = alloca i8, align 1
  %ref.tmp91 = alloca %"class.cvc5::internal::NodeTemplate", align 8
  %ref.tmp99 = alloca %"class.cvc5::internal::NodeTemplate", align 8
  %ref.tmp112 = alloca %"class.cvc5::internal::NodeTemplate", align 8
  %ref.tmp113 = alloca %"class.cvc5::internal::NodeTemplate", align 8
  %ref.tmp117 = alloca %"class.cvc5::internal::NodeTemplate", align 8
  %ref.tmp133 = alloca %"class.cvc5::internal::NodeTemplate", align 8
  %ref.tmp134 = alloca %"class.cvc5::internal::NodeTemplate", align 8
  %ref.tmp143 = alloca %"class.cvc5::internal::NodeTemplate", align 8
  %cleanup.cond145 = alloca i1, align 1
  %ref.tmp146 = alloca %"class.cvc5::internal::NodeTemplate", align 8
  %cleanup.cond149 = alloca i1, align 1
  %premiseTermEq = alloca %"class.cvc5::internal::NodeTemplate", align 8
  %conclusionTermEq = alloca %"class.cvc5::internal::NodeTemplate", align 8
  %ref.tmp177 = alloca %"class.cvc5::internal::__cvc5_true", align 1
  %tmp182 = alloca %"class.cvc5::internal::Cvc5ostream", align 8
  %agg.tmp.ensured185 = alloca %"class.cvc5::internal::Cvc5ostream", align 8
  %ref.tmp186 = alloca %"class.cvc5::internal::Cvc5ostream", align 8
  %subs = alloca [2 x %"class.std::vector.9"], align 16
  %ref.tmp199 = alloca %"class.cvc5::internal::NodeTemplate", align 8
  %ref.tmp206 = alloca %"class.cvc5::internal::NodeTemplate", align 8
  %equalArg = alloca i32, align 4
  %i211 = alloca i32, align 4
  %j215 = alloca i32, align 4
  %ref.tmp219 = alloca %"class.cvc5::internal::NodeTemplate", align 8
  %ref.tmp221 = alloca %"class.cvc5::internal::NodeTemplate", align 8
  %ref.tmp231 = alloca %"class.cvc5::internal::NodeTemplate", align 8
  %ref.tmp239 = alloca %"class.cvc5::internal::NodeTemplate", align 8
  %ref.tmp255 = alloca %"class.cvc5::internal::NodeTemplate", align 8
  %ref.tmp269 = alloca %"class.cvc5::internal::__cvc5_true", align 1
  %tmp273 = alloca %"class.cvc5::internal::Cvc5ostream", align 8
  %agg.tmp.ensured276 = alloca %"class.cvc5::internal::Cvc5ostream", align 8
  %ref.tmp277 = alloca %"class.cvc5::internal::Cvc5ostream", align 8
  %agg.tmp = alloca %"class.cvc5::internal::NodeTemplate", align 8
  %ref.tmp293 = alloca %"class.std::vector.9", align 8
  %ref.tmp294 = alloca %"class.std::vector.9", align 8
  %agg.tmp295 = alloca %"class.std::initializer_list", align 8
  %ref.tmp296 = alloca [1 x %"class.cvc5::internal::NodeTemplate"], align 8
  %arrayinit.endOfInit = alloca ptr, align 8
  %ref.tmp304 = alloca %"class.std::allocator.11", align 1
  %ref.tmp327 = alloca %"class.cvc5::internal::__cvc5_true", align 1
  %tmp331 = alloca %"class.cvc5::internal::Cvc5ostream", align 8
  %agg.tmp.ensured334 = alloca %"class.cvc5::internal::Cvc5ostream", align 8
  %ref.tmp335 = alloca %"class.cvc5::internal::Cvc5ostream", align 8
  %ref.tmp339 = alloca %"class.cvc5::internal::NodeTemplate", align 8
  %cleanup.cond341 = alloca i1, align 1
  %ref.tmp347 = alloca %"class.cvc5::internal::NodeTemplate", align 8
  %cleanup.cond349 = alloca i1, align 1
  %i377 = alloca i32, align 4
  %j381 = alloca i32, align 4
  %k = alloca i32, align 4
  %ref.tmp388 = alloca %"class.cvc5::internal::NodeTemplate", align 8
  %ref.tmp390 = alloca %"class.cvc5::internal::NodeTemplate", align 8
  %ref.tmp403 = alloca %"class.cvc5::internal::NodeTemplate", align 8
  %ref.tmp418 = alloca %"class.cvc5::internal::NodeTemplate", align 8
  %ref.tmp420 = alloca %"class.cvc5::internal::NodeTemplate", align 8
  %ref.tmp433 = alloca %"class.cvc5::internal::__cvc5_true", align 1
  %tmp437 = alloca %"class.cvc5::internal::Cvc5ostream", align 8
  %agg.tmp.ensured440 = alloca %"class.cvc5::internal::Cvc5ostream", align 8
  %ref.tmp441 = alloca %"class.cvc5::internal::Cvc5ostream", align 8
  %ref.tmp451 = alloca %"class.cvc5::internal::NodeTemplate", align 8
  %ref.tmp457 = alloca %"class.cvc5::internal::NodeTemplate", align 8
  %i462 = alloca i32, align 4
  %copy1ofExpPremises = alloca %"class.std::vector.9", align 8
  %agg.tmp466 = alloca %"class.__gnu_cxx::__normal_iterator", align 8
  %agg.tmp468 = alloca %"class.__gnu_cxx::__normal_iterator", align 8
  %ref.tmp471 = alloca %"class.std::allocator.11", align 1
  %transConclusion1 = alloca %"class.cvc5::internal::NodeTemplate", align 8
  %agg.tmp483 = alloca %"class.cvc5::internal::NodeTemplate", align 8
  %ref.tmp497 = alloca %"class.cvc5::internal::OstreamVoider", align 1
  %ref.tmp499 = alloca %"class.cvc5::internal::FatalStream", align 1
  %cleanup.cond501 = alloca i1, align 1
  %agg.tmp513 = alloca %"class.cvc5::internal::NodeTemplate.8", align 8
  %cleanup.cond517 = alloca i1, align 1
  %agg.tmp527 = alloca %"class.cvc5::internal::NodeTemplate.8", align 8
  %cleanup.cond529 = alloca i1, align 1
  %ref.tmp558 = alloca %"class.cvc5::internal::NodeTemplate", align 8
  %ref.tmp566 = alloca %"class.cvc5::internal::NodeTemplate", align 8
  %cleanup.dest.slot = alloca i32, align 4
  %copy2ofExpPremises = alloca %"class.std::vector.9", align 8
  %agg.tmp575 = alloca %"class.__gnu_cxx::__normal_iterator", align 8
  %agg.tmp578 = alloca %"class.__gnu_cxx::__normal_iterator", align 8
  %ref.tmp581 = alloca %"class.std::allocator.11", align 1
  %transConclusion2 = alloca %"class.cvc5::internal::NodeTemplate", align 8
  %agg.tmp593 = alloca %"class.cvc5::internal::NodeTemplate", align 8
  %ref.tmp602 = alloca %"class.cvc5::internal::FatalStream", align 1
  %agg.tmp611 = alloca %"class.cvc5::internal::NodeTemplate.8", align 8
  %agg.tmp618 = alloca %"class.cvc5::internal::NodeTemplate.8", align 8
  %agg.tmp625 = alloca %"class.cvc5::internal::NodeTemplate.8", align 8
  %agg.tmp638 = alloca %"class.cvc5::internal::NodeTemplate.8", align 8
  %ref.tmp651 = alloca %"class.cvc5::internal::__cvc5_true", align 1
  %tmp655 = alloca %"class.cvc5::internal::Cvc5ostream", align 8
  %agg.tmp.ensured658 = alloca %"class.cvc5::internal::Cvc5ostream", align 8
  %ref.tmp659 = alloca %"class.cvc5::internal::Cvc5ostream", align 8
  %ref.tmp664 = alloca %"class.cvc5::internal::__cvc5_true", align 1
  %tmp668 = alloca %"class.cvc5::internal::Cvc5ostream", align 8
  %agg.tmp.ensured671 = alloca %"class.cvc5::internal::Cvc5ostream", align 8
  %ref.tmp672 = alloca %"class.cvc5::internal::Cvc5ostream", align 8
  %ref.tmp685 = alloca %"class.cvc5::internal::__cvc5_true", align 1
  %tmp689 = alloca %"class.cvc5::internal::Cvc5ostream", align 8
  %agg.tmp.ensured692 = alloca %"class.cvc5::internal::Cvc5ostream", align 8
  %ref.tmp693 = alloca %"class.cvc5::internal::Cvc5ostream", align 8
  %agg.tmp713 = alloca %"class.cvc5::internal::NodeTemplate", align 8
  %ref.tmp715 = alloca %"class.std::vector.9", align 8
  %agg.tmp729 = alloca %"class.cvc5::internal::NodeTemplate", align 8
  %ref.tmp731 = alloca %"class.std::vector.9", align 8
  %ref.tmp748 = alloca %"class.cvc5::internal::__cvc5_true", align 1
  %tmp752 = alloca %"class.cvc5::internal::Cvc5ostream", align 8
  %agg.tmp.ensured755 = alloca %"class.cvc5::internal::Cvc5ostream", align 8
  %ref.tmp756 = alloca %"class.cvc5::internal::Cvc5ostream", align 8
  %ref.tmp779 = alloca %"class.cvc5::internal::NodeTemplate", align 8
  %ref.tmp788 = alloca %"class.cvc5::internal::NodeTemplate", align 8
  %ref.tmp813 = alloca %"class.cvc5::internal::NodeTemplate", align 8
  %ref.tmp825 = alloca %"class.cvc5::internal::__cvc5_true", align 1
  %tmp829 = alloca %"class.cvc5::internal::Cvc5ostream", align 8
  %agg.tmp.ensured832 = alloca %"class.cvc5::internal::Cvc5ostream", align 8
  %ref.tmp833 = alloca %"class.cvc5::internal::Cvc5ostream", align 8
  %agg.tmp853 = alloca %"class.cvc5::internal::NodeTemplate", align 8
  %ref.tmp859 = alloca %"class.cvc5::internal::__cvc5_true", align 1
  %tmp863 = alloca %"class.cvc5::internal::Cvc5ostream", align 8
  %agg.tmp.ensured866 = alloca %"class.cvc5::internal::Cvc5ostream", align 8
  %ref.tmp867 = alloca %"class.cvc5::internal::Cvc5ostream", align 8
  %agg.tmp880 = alloca %"class.cvc5::internal::NodeTemplate", align 8
  %ref.tmp882 = alloca %"class.std::vector.9", align 8
  %ref.tmp890 = alloca %"class.cvc5::internal::__cvc5_true", align 1
  %tmp894 = alloca %"class.cvc5::internal::Cvc5ostream", align 8
  %agg.tmp.ensured897 = alloca %"class.cvc5::internal::Cvc5ostream", align 8
  %ref.tmp898 = alloca %"class.cvc5::internal::Cvc5ostream", align 8
  %offendingNode = alloca %"class.cvc5::internal::NodeTemplate", align 8
  %ref.tmp912 = alloca %"class.cvc5::internal::__cvc5_true", align 1
  %tmp916 = alloca %"class.cvc5::internal::Cvc5ostream", align 8
  %agg.tmp.ensured919 = alloca %"class.cvc5::internal::Cvc5ostream", align 8
  %ref.tmp920 = alloca %"class.cvc5::internal::Cvc5ostream", align 8
  %ref.tmp922 = alloca ptr, align 8
  %congConclusion = alloca %"class.cvc5::internal::NodeTemplate", align 8
  %agg.tmp938 = alloca %"class.cvc5::internal::NodeTemplate.8", align 8
  %ref.tmp939 = alloca %"class.cvc5::internal::NodeTemplate", align 8
  %agg.tmp940 = alloca %"class.cvc5::internal::NodeTemplate.8", align 8
  %ref.tmp941 = alloca %"class.cvc5::internal::NodeTemplate", align 8
  %agg.tmp946 = alloca %"class.cvc5::internal::NodeTemplate.8", align 8
  %ref.tmp947 = alloca %"class.cvc5::internal::NodeTemplate", align 8
  %agg.tmp957 = alloca %"class.cvc5::internal::NodeTemplate.8", align 8
  %ref.tmp958 = alloca %"class.cvc5::internal::NodeTemplate", align 8
  %agg.tmp974 = alloca %"class.cvc5::internal::NodeTemplate", align 8
  %ref.tmp977 = alloca %"class.std::vector.9", align 8
  %agg.tmp978 = alloca %"class.std::initializer_list", align 8
  %ref.tmp979 = alloca [1 x %"class.cvc5::internal::NodeTemplate"], align 8
  %arrayinit.endOfInit981 = alloca ptr, align 8
  %ref.tmp994 = alloca %"class.std::allocator.11", align 1
  %ref.tmp1016 = alloca %"class.cvc5::internal::__cvc5_true", align 1
  %tmp1020 = alloca %"class.cvc5::internal::Cvc5ostream", align 8
  %agg.tmp.ensured1023 = alloca %"class.cvc5::internal::Cvc5ostream", align 8
  %ref.tmp1024 = alloca %"class.cvc5::internal::Cvc5ostream", align 8
  %agg.tmp1033 = alloca %"class.__gnu_cxx::__normal_iterator.14", align 8
  %ref.tmp1034 = alloca %"class.__gnu_cxx::__normal_iterator", align 8
  %coerce = alloca %"class.__gnu_cxx::__normal_iterator", align 8
  %transConclusion = alloca %"class.cvc5::internal::NodeTemplate", align 8
  %agg.tmp1045 = alloca %"class.cvc5::internal::NodeTemplate.8", align 8
  %ref.tmp1046 = alloca %"class.cvc5::internal::NodeTemplate", align 8
  %cleanup.cond1048 = alloca i1, align 1
  %cleanup.cond1051 = alloca i1, align 1
  %agg.tmp1052 = alloca %"class.cvc5::internal::NodeTemplate.8", align 8
  %ref.tmp1053 = alloca %"class.cvc5::internal::NodeTemplate", align 8
  %cleanup.cond1056 = alloca i1, align 1
  %cleanup.cond1059 = alloca i1, align 1
  %agg.tmp1096 = alloca %"class.cvc5::internal::NodeTemplate", align 8
  %ref.tmp1098 = alloca %"class.std::vector.9", align 8
  %ref.tmp1104 = alloca %"class.cvc5::internal::__cvc5_true", align 1
  %tmp1108 = alloca %"class.cvc5::internal::Cvc5ostream", align 8
  %agg.tmp.ensured1111 = alloca %"class.cvc5::internal::Cvc5ostream", align 8
  %ref.tmp1112 = alloca %"class.cvc5::internal::Cvc5ostream", align 8
  %agg.tmp1124 = alloca %"class.cvc5::internal::NodeTemplate", align 8
  %ref.tmp1126 = alloca %"class.std::vector.9", align 8
  %agg.tmp1127 = alloca %"class.std::initializer_list", align 8
  %ref.tmp1128 = alloca [1 x %"class.cvc5::internal::NodeTemplate"], align 8
  %arrayinit.endOfInit1130 = alloca ptr, align 8
  %ref.tmp1143 = alloca %"class.std::allocator.11", align 1
  %ref.tmp1146 = alloca %"class.std::vector.9", align 8
  %agg.tmp1147 = alloca %"class.std::initializer_list", align 8
  %ref.tmp1148 = alloca [1 x %"class.cvc5::internal::NodeTemplate"], align 8
  %arrayinit.endOfInit1150 = alloca ptr, align 8
  %ref.tmp1163 = alloca %"class.std::allocator.11", align 1
  %ref.tmp1200 = alloca %"class.cvc5::internal::__cvc5_true", align 1
  %tmp1204 = alloca %"class.cvc5::internal::Cvc5ostream", align 8
  %agg.tmp.ensured1207 = alloca %"class.cvc5::internal::Cvc5ostream", align 8
  %ref.tmp1208 = alloca %"class.cvc5::internal::Cvc5ostream", align 8
  %ref.tmp1221 = alloca %"class.cvc5::internal::__cvc5_true", align 1
  %tmp1225 = alloca %"class.cvc5::internal::Cvc5ostream", align 8
  %agg.tmp.ensured1228 = alloca %"class.cvc5::internal::Cvc5ostream", align 8
  %ref.tmp1229 = alloca %"class.cvc5::internal::Cvc5ostream", align 8
  %ref.tmp1233 = alloca i32, align 4
  %ref.tmp1238 = alloca %"class.cvc5::internal::NodeTemplate", align 8
  %cleanup.cond1240 = alloca i1, align 1
  %newExpansionConclusion = alloca %"class.cvc5::internal::NodeTemplate", align 8
  %ref.tmp1254 = alloca %"class.cvc5::internal::NodeTemplate", align 8
  %ref.tmp1255 = alloca i8, align 1
  %agg.tmp1260 = alloca %"class.cvc5::internal::NodeTemplate", align 8
  %ref.tmp1263 = alloca %"class.std::vector.9", align 8
  %agg.tmp1264 = alloca %"class.std::initializer_list", align 8
  %ref.tmp1265 = alloca [1 x %"class.cvc5::internal::NodeTemplate"], align 8
  %arrayinit.endOfInit1267 = alloca ptr, align 8
  %ref.tmp1280 = alloca %"class.std::allocator.11", align 1
  %ref.tmp1283 = alloca %"class.std::vector.9", align 8
  %ref.tmp1305 = alloca %"class.cvc5::internal::__cvc5_true", align 1
  %tmp1309 = alloca %"class.cvc5::internal::Cvc5ostream", align 8
  %agg.tmp.ensured1312 = alloca %"class.cvc5::internal::Cvc5ostream", align 8
  %ref.tmp1313 = alloca %"class.cvc5::internal::Cvc5ostream", align 8
  %ref.tmp1315 = alloca i32, align 4
  %agg.tmp1325 = alloca %"class.cvc5::internal::NodeTemplate", align 8
  %agg.tmp1331 = alloca %"class.cvc5::internal::NodeTemplate", align 8
  %ref.tmp1333 = alloca %"class.std::vector.9", align 8
  store ptr %this, ptr %this.addr, align 8
  store ptr %conclusion, ptr %conclusion.indirect_addr, align 8
  store ptr %premises, ptr %premises.addr, align 8
  store ptr %p, ptr %p.addr, align 8
  store ptr %assumptions, ptr %assumptions.addr, align 8
  %this1 = load ptr, ptr %this.addr, align 8
  %call = call noundef zeroext i1 @_ZN4cvc58internal11__cvc5_truecvbEv(ptr noundef nonnull align 1 dereferenceable(1) %ref.tmp)
  br i1 %call, label %cond.true, label %cond.false

cond.true:                                        ; preds = %entry
  call void @_ZNK4cvc58internal5NullCcvNS0_11Cvc5ostreamEEv(ptr sret(%"class.cvc5::internal::Cvc5ostream") align 8 %tmp, ptr noundef nonnull align 1 dereferenceable(1) @_ZN4cvc58internal10nullStreamE)
  br label %cond.end

cond.false:                                       ; preds = %entry
  call void @_ZNK4cvc58internal6TraceCclEv(ptr sret(%"class.cvc5::internal::Cvc5ostream") align 8 %ref.tmp2, ptr noundef nonnull align 8 dereferenceable(32) @_ZN4cvc58internal12TraceChannelE)
  %call3 = call noundef nonnull align 8 dereferenceable(24) ptr @_ZN4cvc58internal11Cvc5ostreamlsIA100_cEERS1_RKT_(ptr noundef nonnull align 8 dereferenceable(24) %ref.tmp2, ptr noundef nonnull align 1 dereferenceable(100) @.str.9)
  %call4 = call noundef nonnull align 8 dereferenceable(24) ptr @_ZN4cvc58internal11Cvc5ostreamlsINS0_12NodeTemplateILb1EEEEERS1_RKT_(ptr noundef nonnull align 8 dereferenceable(24) %call3, ptr noundef nonnull align 8 dereferenceable(8) %conclusion)
  %call5 = call noundef nonnull align 8 dereferenceable(24) ptr @_ZN4cvc58internal11Cvc5ostreamlsIA16_cEERS1_RKT_(ptr noundef nonnull align 8 dereferenceable(24) %call4, ptr noundef nonnull align 1 dereferenceable(16) @.str.10)
  %0 = load ptr, ptr %premises.addr, align 8
  %call6 = call noundef nonnull align 8 dereferenceable(24) ptr @_ZN4cvc58internal11Cvc5ostreamlsISt6vectorINS0_12NodeTemplateILb1EEESaIS5_EEEERS1_RKT_(ptr noundef nonnull align 8 dereferenceable(24) %call5, ptr noundef nonnull align 8 dereferenceable(24) %0)
  %call7 = call noundef nonnull align 8 dereferenceable(24) ptr @_ZN4cvc58internal11Cvc5ostreamlsIA2_cEERS1_RKT_(ptr noundef nonnull align 8 dereferenceable(24) %call6, ptr noundef nonnull align 1 dereferenceable(2) @.str.7)
  call void @llvm.memcpy.p0.p0.i64(ptr align 8 %agg.tmp.ensured, ptr align 8 %call7, i64 24, i1 false)
  br label %cond.end

cond.end:                                         ; preds = %cond.false, %cond.true
  %1 = load ptr, ptr %premises.addr, align 8
  %call8 = call noundef i64 @_ZNKSt6vectorIN4cvc58internal12NodeTemplateILb1EEESaIS3_EE4sizeEv(ptr noundef nonnull align 8 dereferenceable(24) %1) #3
  %conv = trunc i64 %call8 to i32
  store i32 %conv, ptr %size, align 4
  store i32 2, ptr %termPos, align 4
  %2 = load i32, ptr %size, align 4
  store i32 %2, ptr %offending, align 4
  store i32 0, ptr %i, align 4
  br label %for.cond

for.cond:                                         ; preds = %for.inc44, %cond.end
  %3 = load i32, ptr %i, align 4
  %4 = load i32, ptr %size, align 4
  %cmp = icmp ult i32 %3, %4
  br i1 %cmp, label %for.body, label %for.end46

for.body:                                         ; preds = %for.cond
  store i32 0, ptr %j, align 4
  br label %for.cond9

for.cond9:                                        ; preds = %for.inc, %for.body
  %5 = load i32, ptr %j, align 4
  %cmp10 = icmp ult i32 %5, 2
  br i1 %cmp10, label %for.body11, label %for.end

for.body11:                                       ; preds = %for.cond9
  %6 = load ptr, ptr %premises.addr, align 8
  %7 = load i32, ptr %i, align 4
  %conv13 = zext i32 %7 to i64
  %call14 = call noundef nonnull align 8 dereferenceable(8) ptr @_ZNSt6vectorIN4cvc58internal12NodeTemplateILb1EEESaIS3_EEixEm(ptr noundef nonnull align 8 dereferenceable(24) %6, i64 noundef %conv13) #3
  %8 = load i32, ptr %j, align 4
  call void @_ZNK4cvc58internal12NodeTemplateILb1EEixEi(ptr sret(%"class.cvc5::internal::NodeTemplate") align 8 %ref.tmp12, ptr noundef nonnull align 8 dereferenceable(8) %call14, i32 noundef %8)
  store i1 false, ptr %cleanup.cond, align 1
  store i1 false, ptr %cleanup.cond28, align 1
  %call15 = invoke noundef i32 @_ZNK4cvc58internal12NodeTemplateILb1EE7getKindEv(ptr noundef nonnull align 8 dereferenceable(8) %ref.tmp12)
          to label %invoke.cont unwind label %lpad

invoke.cont:                                      ; preds = %for.body11
  %cmp16 = icmp eq i32 %call15, 17
  br i1 %cmp16, label %land.lhs.true, label %land.end

land.lhs.true:                                    ; preds = %invoke.cont
  %9 = load ptr, ptr %premises.addr, align 8
  %10 = load i32, ptr %i, align 4
  %conv18 = zext i32 %10 to i64
  %call19 = call noundef nonnull align 8 dereferenceable(8) ptr @_ZNSt6vectorIN4cvc58internal12NodeTemplateILb1EEESaIS3_EEixEm(ptr noundef nonnull align 8 dereferenceable(24) %9, i64 noundef %conv18) #3
  %11 = load i32, ptr %j, align 4
  invoke void @_ZNK4cvc58internal12NodeTemplateILb1EEixEi(ptr sret(%"class.cvc5::internal::NodeTemplate") align 8 %ref.tmp17, ptr noundef nonnull align 8 dereferenceable(8) %call19, i32 noundef %11)
          to label %invoke.cont20 unwind label %lpad

invoke.cont20:                                    ; preds = %land.lhs.true
  store i1 true, ptr %cleanup.cond, align 1
  %call23 = invoke noundef nonnull align 1 dereferenceable(1) ptr @_ZNK4cvc58internal12NodeTemplateILb1EE8getConstIbEERKT_v(ptr noundef nonnull align 8 dereferenceable(8) %ref.tmp17)
          to label %invoke.cont22 unwind label %lpad21

invoke.cont22:                                    ; preds = %invoke.cont20
  %12 = load i8, ptr %call23, align 1
  %tobool = trunc i8 %12 to i1
  br i1 %tobool, label %land.end, label %land.rhs

land.rhs:                                         ; preds = %invoke.cont22
  %13 = load ptr, ptr %premises.addr, align 8
  %14 = load i32, ptr %i, align 4
  %conv25 = zext i32 %14 to i64
  %call26 = call noundef nonnull align 8 dereferenceable(8) ptr @_ZNSt6vectorIN4cvc58internal12NodeTemplateILb1EEESaIS3_EEixEm(ptr noundef nonnull align 8 dereferenceable(24) %13, i64 noundef %conv25) #3
  %15 = load i32, ptr %j, align 4
  %sub = sub i32 1, %15
  invoke void @_ZNK4cvc58internal12NodeTemplateILb1EEixEi(ptr sret(%"class.cvc5::internal::NodeTemplate") align 8 %ref.tmp24, ptr noundef nonnull align 8 dereferenceable(8) %call26, i32 noundef %sub)
          to label %invoke.cont27 unwind label %lpad21

invoke.cont27:                                    ; preds = %land.rhs
  store i1 true, ptr %cleanup.cond28, align 1
  %call31 = invoke noundef i32 @_ZNK4cvc58internal12NodeTemplateILb1EE7getKindEv(ptr noundef nonnull align 8 dereferenceable(8) %ref.tmp24)
          to label %invoke.cont30 unwind label %lpad29

invoke.cont30:                                    ; preds = %invoke.cont27
  %cmp32 = icmp eq i32 %call31, 5
  br label %land.end

land.end:                                         ; preds = %invoke.cont30, %invoke.cont22, %invoke.cont
  %16 = phi i1 [ false, %invoke.cont22 ], [ false, %invoke.cont ], [ %cmp32, %invoke.cont30 ]
  %cleanup.is_active = load i1, ptr %cleanup.cond28, align 1
  br i1 %cleanup.is_active, label %cleanup.action, label %cleanup.done

cleanup.action:                                   ; preds = %land.end
  call void @_ZN4cvc58internal12NodeTemplateILb1EED2Ev(ptr noundef nonnull align 8 dereferenceable(8) %ref.tmp24) #3
  br label %cleanup.done

cleanup.done:                                     ; preds = %cleanup.action, %land.end
  %cleanup.is_active36 = load i1, ptr %cleanup.cond, align 1
  br i1 %cleanup.is_active36, label %cleanup.action37, label %cleanup.done38

cleanup.action37:                                 ; preds = %cleanup.done
  call void @_ZN4cvc58internal12NodeTemplateILb1EED2Ev(ptr noundef nonnull align 8 dereferenceable(8) %ref.tmp17) #3
  br label %cleanup.done38

cleanup.done38:                                   ; preds = %cleanup.action37, %cleanup.done
  call void @_ZN4cvc58internal12NodeTemplateILb1EED2Ev(ptr noundef nonnull align 8 dereferenceable(8) %ref.tmp12) #3
  br i1 %16, label %if.then, label %if.end

if.then:                                          ; preds = %cleanup.done38
  %17 = load i32, ptr %i, align 4
  store i32 %17, ptr %offending, align 4
  %18 = load i32, ptr %j, align 4
  %sub43 = sub i32 1, %18
  store i32 %sub43, ptr %termPos, align 4
  br label %for.end

lpad:                                             ; preds = %land.lhs.true, %for.body11
  %19 = landingpad { ptr, i32 }
          cleanup
  %20 = extractvalue { ptr, i32 } %19, 0
  store ptr %20, ptr %exn.slot, align 8
  %21 = extractvalue { ptr, i32 } %19, 1
  store i32 %21, ptr %ehselector.slot, align 4
  br label %ehcleanup42

lpad21:                                           ; preds = %land.rhs, %invoke.cont20
  %22 = landingpad { ptr, i32 }
          cleanup
  %23 = extractvalue { ptr, i32 } %22, 0
  store ptr %23, ptr %exn.slot, align 8
  %24 = extractvalue { ptr, i32 } %22, 1
  store i32 %24, ptr %ehselector.slot, align 4
  br label %ehcleanup

lpad29:                                           ; preds = %invoke.cont27
  %25 = landingpad { ptr, i32 }
          cleanup
  %26 = extractvalue { ptr, i32 } %25, 0
  store ptr %26, ptr %exn.slot, align 8
  %27 = extractvalue { ptr, i32 } %25, 1
  store i32 %27, ptr %ehselector.slot, align 4
  %cleanup.is_active33 = load i1, ptr %cleanup.cond28, align 1
  br i1 %cleanup.is_active33, label %cleanup.action34, label %cleanup.done35

cleanup.action34:                                 ; preds = %lpad29
  call void @_ZN4cvc58internal12NodeTemplateILb1EED2Ev(ptr noundef nonnull align 8 dereferenceable(8) %ref.tmp24) #3
  br label %cleanup.done35

cleanup.done35:                                   ; preds = %cleanup.action34, %lpad29
  br label %ehcleanup

ehcleanup:                                        ; preds = %cleanup.done35, %lpad21
  %cleanup.is_active39 = load i1, ptr %cleanup.cond, align 1
  br i1 %cleanup.is_active39, label %cleanup.action40, label %cleanup.done41

cleanup.action40:                                 ; preds = %ehcleanup
  call void @_ZN4cvc58internal12NodeTemplateILb1EED2Ev(ptr noundef nonnull align 8 dereferenceable(8) %ref.tmp17) #3
  br label %cleanup.done41

cleanup.done41:                                   ; preds = %cleanup.action40, %ehcleanup
  br label %ehcleanup42

ehcleanup42:                                      ; preds = %cleanup.done41, %lpad
  call void @_ZN4cvc58internal12NodeTemplateILb1EED2Ev(ptr noundef nonnull align 8 dereferenceable(8) %ref.tmp12) #3
  br label %eh.resume

if.end:                                           ; preds = %cleanup.done38
  br label %for.inc

for.inc:                                          ; preds = %if.end
  %28 = load i32, ptr %j, align 4
  %inc = add i32 %28, 1
  store i32 %inc, ptr %j, align 4
  br label %for.cond9, !llvm.loop !18

for.end:                                          ; preds = %if.then, %for.cond9
  br label %for.inc44

for.inc44:                                        ; preds = %for.end
  %29 = load i32, ptr %i, align 4
  %inc45 = add i32 %29, 1
  store i32 %inc45, ptr %i, align 4
  br label %for.cond, !llvm.loop !19

for.end46:                                        ; preds = %for.cond
  %30 = load i32, ptr %offending, align 4
  %31 = load i32, ptr %size, align 4
  %cmp47 = icmp eq i32 %30, %31
  br i1 %cmp47, label %if.then48, label %if.end58

if.then48:                                        ; preds = %for.end46
  %call50 = call noundef zeroext i1 @_ZN4cvc58internal11__cvc5_truecvbEv(ptr noundef nonnull align 1 dereferenceable(1) %ref.tmp49)
  br i1 %call50, label %cond.true51, label %cond.false53

cond.true51:                                      ; preds = %if.then48
  call void @_ZNK4cvc58internal5NullCcvNS0_11Cvc5ostreamEEv(ptr sret(%"class.cvc5::internal::Cvc5ostream") align 8 %tmp52, ptr noundef nonnull align 1 dereferenceable(1) @_ZN4cvc58internal10nullStreamE)
  br label %cond.end57

cond.false53:                                     ; preds = %if.then48
  call void @_ZNK4cvc58internal6TraceCclEv(ptr sret(%"class.cvc5::internal::Cvc5ostream") align 8 %ref.tmp55, ptr noundef nonnull align 8 dereferenceable(32) @_ZN4cvc58internal12TraceChannelE)
  %call56 = call noundef nonnull align 8 dereferenceable(24) ptr @_ZN4cvc58internal11Cvc5ostreamlsIA55_cEERS1_RKT_(ptr noundef nonnull align 8 dereferenceable(24) %ref.tmp55, ptr noundef nonnull align 1 dereferenceable(55) @.str.11)
  call void @llvm.memcpy.p0.p0.i64(ptr align 8 %agg.tmp.ensured54, ptr align 8 %call56, i64 24, i1 false)
  br label %cond.end57

cond.end57:                                       ; preds = %cond.false53, %cond.true51
  store i1 false, ptr %retval, align 1
  br label %return

if.end58:                                         ; preds = %for.end46
  %call59 = call noundef ptr @_ZN4cvc58internal11NodeManager9currentNMEv()
  store ptr %call59, ptr %nm, align 8
  %call61 = call noundef zeroext i1 @_ZN4cvc58internal11__cvc5_truecvbEv(ptr noundef nonnull align 1 dereferenceable(1) %ref.tmp60)
  br i1 %call61, label %cond.true62, label %cond.false64

cond.true62:                                      ; preds = %if.end58
  call void @_ZNK4cvc58internal5NullCcvNS0_11Cvc5ostreamEEv(ptr sret(%"class.cvc5::internal::Cvc5ostream") align 8 %tmp63, ptr noundef nonnull align 1 dereferenceable(1) @_ZN4cvc58internal10nullStreamE)
  br label %cond.end74

cond.false64:                                     ; preds = %if.end58
  call void @_ZNK4cvc58internal6TraceCclEv(ptr sret(%"class.cvc5::internal::Cvc5ostream") align 8 %ref.tmp66, ptr noundef nonnull align 8 dereferenceable(32) @_ZN4cvc58internal12TraceChannelE)
  %call67 = call noundef nonnull align 8 dereferenceable(24) ptr @_ZN4cvc58internal11Cvc5ostreamlsIA80_cEERS1_RKT_(ptr noundef nonnull align 8 dereferenceable(24) %ref.tmp66, ptr noundef nonnull align 1 dereferenceable(80) @.str.12)
  %call68 = call noundef nonnull align 8 dereferenceable(24) ptr @_ZN4cvc58internal11Cvc5ostreamlsIjEERS1_RKT_(ptr noundef nonnull align 8 dereferenceable(24) %call67, ptr noundef nonnull align 4 dereferenceable(4) %offending)
  %call69 = call noundef nonnull align 8 dereferenceable(24) ptr @_ZN4cvc58internal11Cvc5ostreamlsIA4_cEERS1_RKT_(ptr noundef nonnull align 8 dereferenceable(24) %call68, ptr noundef nonnull align 1 dereferenceable(4) @.str.13)
  %32 = load ptr, ptr %premises.addr, align 8
  %33 = load i32, ptr %offending, align 4
  %conv70 = zext i32 %33 to i64
  %call71 = call noundef nonnull align 8 dereferenceable(8) ptr @_ZNSt6vectorIN4cvc58internal12NodeTemplateILb1EEESaIS3_EEixEm(ptr noundef nonnull align 8 dereferenceable(24) %32, i64 noundef %conv70) #3
  %call72 = call noundef nonnull align 8 dereferenceable(24) ptr @_ZN4cvc58internal11Cvc5ostreamlsINS0_12NodeTemplateILb1EEEEERS1_RKT_(ptr noundef nonnull align 8 dereferenceable(24) %call69, ptr noundef nonnull align 8 dereferenceable(8) %call71)
  %call73 = call noundef nonnull align 8 dereferenceable(24) ptr @_ZN4cvc58internal11Cvc5ostreamlsIA2_cEERS1_RKT_(ptr noundef nonnull align 8 dereferenceable(24) %call72, ptr noundef nonnull align 1 dereferenceable(2) @.str.7)
  call void @llvm.memcpy.p0.p0.i64(ptr align 8 %agg.tmp.ensured65, ptr align 8 %call73, i64 24, i1 false)
  br label %cond.end74

cond.end74:                                       ; preds = %cond.false64, %cond.true62
  call void @_ZNSt6vectorIN4cvc58internal12NodeTemplateILb1EEESaIS3_EEC2Ev(ptr noundef nonnull align 8 dereferenceable(24) %expansionPremises) #3
  store i32 0, ptr %i75, align 4
  br label %for.cond76

for.cond76:                                       ; preds = %for.inc86, %cond.end74
  %34 = load i32, ptr %i75, align 4
  %35 = load i32, ptr %size, align 4
  %cmp77 = icmp ult i32 %34, %35
  br i1 %cmp77, label %for.body78, label %for.end88

for.body78:                                       ; preds = %for.cond76
  %36 = load i32, ptr %i75, align 4
  %37 = load i32, ptr %offending, align 4
  %cmp79 = icmp ne i32 %36, %37
  br i1 %cmp79, label %if.then80, label %if.end85

if.then80:                                        ; preds = %for.body78
  %38 = load ptr, ptr %premises.addr, align 8
  %39 = load i32, ptr %i75, align 4
  %conv81 = zext i32 %39 to i64
  %call82 = call noundef nonnull align 8 dereferenceable(8) ptr @_ZNSt6vectorIN4cvc58internal12NodeTemplateILb1EEESaIS3_EEixEm(ptr noundef nonnull align 8 dereferenceable(24) %38, i64 noundef %conv81) #3
  invoke void @_ZNSt6vectorIN4cvc58internal12NodeTemplateILb1EEESaIS3_EE9push_backERKS3_(ptr noundef nonnull align 8 dereferenceable(24) %expansionPremises, ptr noundef nonnull align 8 dereferenceable(8) %call82)
          to label %invoke.cont84 unwind label %lpad83

invoke.cont84:                                    ; preds = %if.then80
  br label %if.end85

lpad83:                                           ; preds = %invoke.cont89, %for.end88, %if.then80
  %40 = landingpad { ptr, i32 }
          cleanup
  %41 = extractvalue { ptr, i32 } %40, 0
  store ptr %41, ptr %exn.slot, align 8
  %42 = extractvalue { ptr, i32 } %40, 1
  store i32 %42, ptr %ehselector.slot, align 4
  br label %ehcleanup1348

if.end85:                                         ; preds = %invoke.cont84, %for.body78
  br label %for.inc86

for.inc86:                                        ; preds = %if.end85
  %43 = load i32, ptr %i75, align 4
  %inc87 = add i32 %43, 1
  store i32 %inc87, ptr %i75, align 4
  br label %for.cond76, !llvm.loop !20

for.end88:                                        ; preds = %for.cond76
  invoke void @_ZNK4cvc58internal6theory2eq7EqProof17cleanReflPremisesERSt6vectorINS0_12NodeTemplateILb1EEESaIS6_EE(ptr noundef nonnull align 8 dereferenceable(40) %this1, ptr noundef nonnull align 8 dereferenceable(24) %expansionPremises)
          to label %invoke.cont89 unwind label %lpad83

invoke.cont89:                                    ; preds = %for.end88
  invoke void @_ZN4cvc58internal12NodeTemplateILb1EEC2Ev(ptr noundef nonnull align 8 dereferenceable(8) %expansionConclusion)
          to label %invoke.cont90 unwind label %lpad83

invoke.cont90:                                    ; preds = %invoke.cont89
  call void @_ZNSt6vectorIN4cvc58internal12NodeTemplateILb1EEESaIS3_EEC2Ev(ptr noundef nonnull align 8 dereferenceable(24) %substPremises) #3
  store i8 0, ptr %inSubstCase, align 1
  store i8 0, ptr %substConclusionInReverseOrder, align 1
  invoke void @_ZNK4cvc58internal12NodeTemplateILb1EEixEi(ptr sret(%"class.cvc5::internal::NodeTemplate") align 8 %ref.tmp91, ptr noundef nonnull align 8 dereferenceable(8) %conclusion, i32 noundef 0)
          to label %invoke.cont93 unwind label %lpad92

invoke.cont93:                                    ; preds = %invoke.cont90
  %call96 = invoke noundef i32 @_ZNK4cvc58internal12NodeTemplateILb1EE7getKindEv(ptr noundef nonnull align 8 dereferenceable(8) %ref.tmp91)
          to label %invoke.cont95 unwind label %lpad94

invoke.cont95:                                    ; preds = %invoke.cont93
  %cmp97 = icmp eq i32 %call96, 17
  %conv98 = zext i1 %cmp97 to i32
  invoke void @_ZNK4cvc58internal12NodeTemplateILb1EEixEi(ptr sret(%"class.cvc5::internal::NodeTemplate") align 8 %ref.tmp99, ptr noundef nonnull align 8 dereferenceable(8) %conclusion, i32 noundef 1)
          to label %invoke.cont100 unwind label %lpad94

invoke.cont100:                                   ; preds = %invoke.cont95
  %call103 = invoke noundef i32 @_ZNK4cvc58internal12NodeTemplateILb1EE7getKindEv(ptr noundef nonnull align 8 dereferenceable(8) %ref.tmp99)
          to label %invoke.cont102 unwind label %lpad101

invoke.cont102:                                   ; preds = %invoke.cont100
  %cmp104 = icmp eq i32 %call103, 17
  %conv105 = zext i1 %cmp104 to i32
  %cmp106 = icmp ne i32 %conv98, %conv105
  call void @_ZN4cvc58internal12NodeTemplateILb1EED2Ev(ptr noundef nonnull align 8 dereferenceable(8) %ref.tmp99) #3
  call void @_ZN4cvc58internal12NodeTemplateILb1EED2Ev(ptr noundef nonnull align 8 dereferenceable(8) %ref.tmp91) #3
  br i1 %cmp106, label %if.then109, label %if.else812

if.then109:                                       ; preds = %invoke.cont102
  store i8 1, ptr %inSubstCase, align 1
  %44 = load i32, ptr %termPos, align 4
  %cmp110 = icmp eq i32 %44, 1
  br i1 %cmp110, label %if.then111, label %if.end132

if.then111:                                       ; preds = %if.then109
  %45 = load ptr, ptr %premises.addr, align 8
  %46 = load i32, ptr %offending, align 4
  %conv114 = zext i32 %46 to i64
  %call115 = call noundef nonnull align 8 dereferenceable(8) ptr @_ZNSt6vectorIN4cvc58internal12NodeTemplateILb1EEESaIS3_EEixEm(ptr noundef nonnull align 8 dereferenceable(24) %45, i64 noundef %conv114) #3
  invoke void @_ZNK4cvc58internal12NodeTemplateILb1EEixEi(ptr sret(%"class.cvc5::internal::NodeTemplate") align 8 %ref.tmp113, ptr noundef nonnull align 8 dereferenceable(8) %call115, i32 noundef 1)
          to label %invoke.cont116 unwind label %lpad92

invoke.cont116:                                   ; preds = %if.then111
  %47 = load ptr, ptr %premises.addr, align 8
  %48 = load i32, ptr %offending, align 4
  %conv118 = zext i32 %48 to i64
  %call119 = call noundef nonnull align 8 dereferenceable(8) ptr @_ZNSt6vectorIN4cvc58internal12NodeTemplateILb1EEESaIS3_EEixEm(ptr noundef nonnull align 8 dereferenceable(24) %47, i64 noundef %conv118) #3
  invoke void @_ZNK4cvc58internal12NodeTemplateILb1EEixEi(ptr sret(%"class.cvc5::internal::NodeTemplate") align 8 %ref.tmp117, ptr noundef nonnull align 8 dereferenceable(8) %call119, i32 noundef 0)
          to label %invoke.cont121 unwind label %lpad120

invoke.cont121:                                   ; preds = %invoke.cont116
  invoke void @_ZNK4cvc58internal12NodeTemplateILb1EE6eqNodeILb1EEES2_RKNS1_IXT_EEE(ptr sret(%"class.cvc5::internal::NodeTemplate") align 8 %ref.tmp112, ptr noundef nonnull align 8 dereferenceable(8) %ref.tmp113, ptr noundef nonnull align 8 dereferenceable(8) %ref.tmp117)
          to label %invoke.cont123 unwind label %lpad122

invoke.cont123:                                   ; preds = %invoke.cont121
  %49 = load ptr, ptr %premises.addr, align 8
  %50 = load i32, ptr %offending, align 4
  %conv124 = zext i32 %50 to i64
  %call125 = call noundef nonnull align 8 dereferenceable(8) ptr @_ZNSt6vectorIN4cvc58internal12NodeTemplateILb1EEESaIS3_EEixEm(ptr noundef nonnull align 8 dereferenceable(24) %49, i64 noundef %conv124) #3
  %call128 = invoke noundef nonnull align 8 dereferenceable(8) ptr @_ZN4cvc58internal12NodeTemplateILb1EEaSERKS2_(ptr noundef nonnull align 8 dereferenceable(8) %call125, ptr noundef nonnull align 8 dereferenceable(8) %ref.tmp112)
          to label %invoke.cont127 unwind label %lpad126

invoke.cont127:                                   ; preds = %invoke.cont123
  call void @_ZN4cvc58internal12NodeTemplateILb1EED2Ev(ptr noundef nonnull align 8 dereferenceable(8) %ref.tmp112) #3
  call void @_ZN4cvc58internal12NodeTemplateILb1EED2Ev(ptr noundef nonnull align 8 dereferenceable(8) %ref.tmp117) #3
  call void @_ZN4cvc58internal12NodeTemplateILb1EED2Ev(ptr noundef nonnull align 8 dereferenceable(8) %ref.tmp113) #3
  br label %if.end132

lpad92:                                           ; preds = %cond.end904, %invoke.cont900, %invoke.cont899, %cond.false896, %cond.true893, %if.end889, %cond.end879, %invoke.cont875, %invoke.cont873, %invoke.cont871, %invoke.cont869, %invoke.cont868, %cond.false865, %cond.true862, %invoke.cont856, %if.then852, %land.lhs.true848, %invoke.cont841, %invoke.cont839, %invoke.cont837, %invoke.cont835, %invoke.cont834, %cond.false831, %cond.true828, %if.then824, %if.end821, %if.else812, %cleanup.done166, %if.end132, %if.then111, %invoke.cont90
  %51 = landingpad { ptr, i32 }
          cleanup
  %52 = extractvalue { ptr, i32 } %51, 0
  store ptr %52, ptr %exn.slot, align 8
  %53 = extractvalue { ptr, i32 } %51, 1
  store i32 %53, ptr %ehselector.slot, align 4
  br label %ehcleanup1344

lpad94:                                           ; preds = %invoke.cont95, %invoke.cont93
  %54 = landingpad { ptr, i32 }
          cleanup
  %55 = extractvalue { ptr, i32 } %54, 0
  store ptr %55, ptr %exn.slot, align 8
  %56 = extractvalue { ptr, i32 } %54, 1
  store i32 %56, ptr %ehselector.slot, align 4
  br label %ehcleanup108

lpad101:                                          ; preds = %invoke.cont100
  %57 = landingpad { ptr, i32 }
          cleanup
  %58 = extractvalue { ptr, i32 } %57, 0
  store ptr %58, ptr %exn.slot, align 8
  %59 = extractvalue { ptr, i32 } %57, 1
  store i32 %59, ptr %ehselector.slot, align 4
  call void @_ZN4cvc58internal12NodeTemplateILb1EED2Ev(ptr noundef nonnull align 8 dereferenceable(8) %ref.tmp99) #3
  br label %ehcleanup108

ehcleanup108:                                     ; preds = %lpad101, %lpad94
  call void @_ZN4cvc58internal12NodeTemplateILb1EED2Ev(ptr noundef nonnull align 8 dereferenceable(8) %ref.tmp91) #3
  br label %ehcleanup1344

lpad120:                                          ; preds = %invoke.cont116
  %60 = landingpad { ptr, i32 }
          cleanup
  %61 = extractvalue { ptr, i32 } %60, 0
  store ptr %61, ptr %exn.slot, align 8
  %62 = extractvalue { ptr, i32 } %60, 1
  store i32 %62, ptr %ehselector.slot, align 4
  br label %ehcleanup131

lpad122:                                          ; preds = %invoke.cont121
  %63 = landingpad { ptr, i32 }
          cleanup
  %64 = extractvalue { ptr, i32 } %63, 0
  store ptr %64, ptr %exn.slot, align 8
  %65 = extractvalue { ptr, i32 } %63, 1
  store i32 %65, ptr %ehselector.slot, align 4
  br label %ehcleanup130

lpad126:                                          ; preds = %invoke.cont123
  %66 = landingpad { ptr, i32 }
          cleanup
  %67 = extractvalue { ptr, i32 } %66, 0
  store ptr %67, ptr %exn.slot, align 8
  %68 = extractvalue { ptr, i32 } %66, 1
  store i32 %68, ptr %ehselector.slot, align 4
  call void @_ZN4cvc58internal12NodeTemplateILb1EED2Ev(ptr noundef nonnull align 8 dereferenceable(8) %ref.tmp112) #3
  br label %ehcleanup130

ehcleanup130:                                     ; preds = %lpad126, %lpad122
  call void @_ZN4cvc58internal12NodeTemplateILb1EED2Ev(ptr noundef nonnull align 8 dereferenceable(8) %ref.tmp117) #3
  br label %ehcleanup131

ehcleanup131:                                     ; preds = %ehcleanup130, %lpad120
  call void @_ZN4cvc58internal12NodeTemplateILb1EED2Ev(ptr noundef nonnull align 8 dereferenceable(8) %ref.tmp113) #3
  br label %ehcleanup1344

if.end132:                                        ; preds = %invoke.cont127, %if.then109
  store i1 false, ptr %cleanup.cond145, align 1
  store i1 false, ptr %cleanup.cond149, align 1
  invoke void @_ZNK4cvc58internal12NodeTemplateILb1EEixEi(ptr sret(%"class.cvc5::internal::NodeTemplate") align 8 %ref.tmp134, ptr noundef nonnull align 8 dereferenceable(8) %conclusion, i32 noundef 1)
          to label %invoke.cont135 unwind label %lpad92

invoke.cont135:                                   ; preds = %if.end132
  %call138 = invoke noundef i32 @_ZNK4cvc58internal12NodeTemplateILb1EE7getKindEv(ptr noundef nonnull align 8 dereferenceable(8) %ref.tmp134)
          to label %invoke.cont137 unwind label %lpad136

invoke.cont137:                                   ; preds = %invoke.cont135
  %cmp139 = icmp eq i32 %call138, 17
  br i1 %cmp139, label %cond.true140, label %cond.false142

cond.true140:                                     ; preds = %invoke.cont137
  invoke void @_ZN4cvc58internal12NodeTemplateILb1EEC2ERKS2_(ptr noundef nonnull align 8 dereferenceable(8) %ref.tmp133, ptr noundef nonnull align 8 dereferenceable(8) %conclusion)
          to label %invoke.cont141 unwind label %lpad136

invoke.cont141:                                   ; preds = %cond.true140
  br label %cond.end152

cond.false142:                                    ; preds = %invoke.cont137
  invoke void @_ZNK4cvc58internal12NodeTemplateILb1EEixEi(ptr sret(%"class.cvc5::internal::NodeTemplate") align 8 %ref.tmp143, ptr noundef nonnull align 8 dereferenceable(8) %conclusion, i32 noundef 1)
          to label %invoke.cont144 unwind label %lpad136

invoke.cont144:                                   ; preds = %cond.false142
  store i1 true, ptr %cleanup.cond145, align 1
  invoke void @_ZNK4cvc58internal12NodeTemplateILb1EEixEi(ptr sret(%"class.cvc5::internal::NodeTemplate") align 8 %ref.tmp146, ptr noundef nonnull align 8 dereferenceable(8) %conclusion, i32 noundef 0)
          to label %invoke.cont148 unwind label %lpad147

invoke.cont148:                                   ; preds = %invoke.cont144
  store i1 true, ptr %cleanup.cond149, align 1
  invoke void @_ZNK4cvc58internal12NodeTemplateILb1EE6eqNodeILb1EEES2_RKNS1_IXT_EEE(ptr sret(%"class.cvc5::internal::NodeTemplate") align 8 %ref.tmp133, ptr noundef nonnull align 8 dereferenceable(8) %ref.tmp143, ptr noundef nonnull align 8 dereferenceable(8) %ref.tmp146)
          to label %invoke.cont151 unwind label %lpad150

invoke.cont151:                                   ; preds = %invoke.cont148
  br label %cond.end152

cond.end152:                                      ; preds = %invoke.cont151, %invoke.cont141
  %call155 = invoke noundef nonnull align 8 dereferenceable(8) ptr @_ZN4cvc58internal12NodeTemplateILb1EEaSERKS2_(ptr noundef nonnull align 8 dereferenceable(8) %conclusion, ptr noundef nonnull align 8 dereferenceable(8) %ref.tmp133)
          to label %invoke.cont154 unwind label %lpad153

invoke.cont154:                                   ; preds = %cond.end152
  call void @_ZN4cvc58internal12NodeTemplateILb1EED2Ev(ptr noundef nonnull align 8 dereferenceable(8) %ref.tmp133) #3
  %cleanup.is_active157 = load i1, ptr %cleanup.cond149, align 1
  br i1 %cleanup.is_active157, label %cleanup.action158, label %cleanup.done159

cleanup.action158:                                ; preds = %invoke.cont154
  call void @_ZN4cvc58internal12NodeTemplateILb1EED2Ev(ptr noundef nonnull align 8 dereferenceable(8) %ref.tmp146) #3
  br label %cleanup.done159

cleanup.done159:                                  ; preds = %cleanup.action158, %invoke.cont154
  %cleanup.is_active164 = load i1, ptr %cleanup.cond145, align 1
  br i1 %cleanup.is_active164, label %cleanup.action165, label %cleanup.done166

cleanup.action165:                                ; preds = %cleanup.done159
  call void @_ZN4cvc58internal12NodeTemplateILb1EED2Ev(ptr noundef nonnull align 8 dereferenceable(8) %ref.tmp143) #3
  br label %cleanup.done166

cleanup.done166:                                  ; preds = %cleanup.action165, %cleanup.done159
  call void @_ZN4cvc58internal12NodeTemplateILb1EED2Ev(ptr noundef nonnull align 8 dereferenceable(8) %ref.tmp134) #3
  %69 = load ptr, ptr %premises.addr, align 8
  %70 = load i32, ptr %offending, align 4
  %conv172 = zext i32 %70 to i64
  %call173 = call noundef nonnull align 8 dereferenceable(8) ptr @_ZNSt6vectorIN4cvc58internal12NodeTemplateILb1EEESaIS3_EEixEm(ptr noundef nonnull align 8 dereferenceable(24) %69, i64 noundef %conv172) #3
  invoke void @_ZNK4cvc58internal12NodeTemplateILb1EEixEi(ptr sret(%"class.cvc5::internal::NodeTemplate") align 8 %premiseTermEq, ptr noundef nonnull align 8 dereferenceable(8) %call173, i32 noundef 0)
          to label %invoke.cont174 unwind label %lpad92

invoke.cont174:                                   ; preds = %cleanup.done166
  invoke void @_ZNK4cvc58internal12NodeTemplateILb1EEixEi(ptr sret(%"class.cvc5::internal::NodeTemplate") align 8 %conclusionTermEq, ptr noundef nonnull align 8 dereferenceable(8) %conclusion, i32 noundef 0)
          to label %invoke.cont176 unwind label %lpad175

invoke.cont176:                                   ; preds = %invoke.cont174
  %call180 = invoke noundef zeroext i1 @_ZN4cvc58internal11__cvc5_truecvbEv(ptr noundef nonnull align 1 dereferenceable(1) %ref.tmp177)
          to label %invoke.cont179 unwind label %lpad178

invoke.cont179:                                   ; preds = %invoke.cont176
  br i1 %call180, label %cond.true181, label %cond.false184

cond.true181:                                     ; preds = %invoke.cont179
  invoke void @_ZNK4cvc58internal5NullCcvNS0_11Cvc5ostreamEEv(ptr sret(%"class.cvc5::internal::Cvc5ostream") align 8 %tmp182, ptr noundef nonnull align 1 dereferenceable(1) @_ZN4cvc58internal10nullStreamE)
          to label %invoke.cont183 unwind label %lpad178

invoke.cont183:                                   ; preds = %cond.true181
  br label %cond.end198

cond.false184:                                    ; preds = %invoke.cont179
  invoke void @_ZNK4cvc58internal6TraceCclEv(ptr sret(%"class.cvc5::internal::Cvc5ostream") align 8 %ref.tmp186, ptr noundef nonnull align 8 dereferenceable(32) @_ZN4cvc58internal12TraceChannelE)
          to label %invoke.cont187 unwind label %lpad178

invoke.cont187:                                   ; preds = %cond.false184
  %call189 = invoke noundef nonnull align 8 dereferenceable(24) ptr @_ZN4cvc58internal11Cvc5ostreamlsIA90_cEERS1_RKT_(ptr noundef nonnull align 8 dereferenceable(24) %ref.tmp186, ptr noundef nonnull align 1 dereferenceable(90) @.str.14)
          to label %invoke.cont188 unwind label %lpad178

invoke.cont188:                                   ; preds = %invoke.cont187
  %call191 = invoke noundef nonnull align 8 dereferenceable(24) ptr @_ZN4cvc58internal11Cvc5ostreamlsINS0_12NodeTemplateILb1EEEEERS1_RKT_(ptr noundef nonnull align 8 dereferenceable(24) %call189, ptr noundef nonnull align 8 dereferenceable(8) %premiseTermEq)
          to label %invoke.cont190 unwind label %lpad178

invoke.cont190:                                   ; preds = %invoke.cont188
  %call193 = invoke noundef nonnull align 8 dereferenceable(24) ptr @_ZN4cvc58internal11Cvc5ostreamlsIA5_cEERS1_RKT_(ptr noundef nonnull align 8 dereferenceable(24) %call191, ptr noundef nonnull align 1 dereferenceable(5) @.str.15)
          to label %invoke.cont192 unwind label %lpad178

invoke.cont192:                                   ; preds = %invoke.cont190
  %call195 = invoke noundef nonnull align 8 dereferenceable(24) ptr @_ZN4cvc58internal11Cvc5ostreamlsINS0_12NodeTemplateILb1EEEEERS1_RKT_(ptr noundef nonnull align 8 dereferenceable(24) %call193, ptr noundef nonnull align 8 dereferenceable(8) %conclusionTermEq)
          to label %invoke.cont194 unwind label %lpad178

invoke.cont194:                                   ; preds = %invoke.cont192
  %call197 = invoke noundef nonnull align 8 dereferenceable(24) ptr @_ZN4cvc58internal11Cvc5ostreamlsIA2_cEERS1_RKT_(ptr noundef nonnull align 8 dereferenceable(24) %call195, ptr noundef nonnull align 1 dereferenceable(2) @.str.7)
          to label %invoke.cont196 unwind label %lpad178

invoke.cont196:                                   ; preds = %invoke.cont194
  call void @llvm.memcpy.p0.p0.i64(ptr align 8 %agg.tmp.ensured185, ptr align 8 %call197, i64 24, i1 false)
  br label %cond.end198

cond.end198:                                      ; preds = %invoke.cont196, %invoke.cont183
  %array.begin = getelementptr inbounds [2 x %"class.std::vector.9"], ptr %subs, i32 0, i32 0
  %arrayctor.end = getelementptr inbounds %"class.std::vector.9", ptr %array.begin, i64 2
  br label %arrayctor.loop

arrayctor.loop:                                   ; preds = %arrayctor.loop, %cond.end198
  %arrayctor.cur = phi ptr [ %array.begin, %cond.end198 ], [ %arrayctor.next, %arrayctor.loop ]
  call void @_ZNSt6vectorIN4cvc58internal12NodeTemplateILb1EEESaIS3_EEC2Ev(ptr noundef nonnull align 8 dereferenceable(24) %arrayctor.cur) #3
  %arrayctor.next = getelementptr inbounds %"class.std::vector.9", ptr %arrayctor.cur, i64 1
  %arrayctor.done = icmp eq ptr %arrayctor.next, %arrayctor.end
  br i1 %arrayctor.done, label %arrayctor.cont, label %arrayctor.loop

arrayctor.cont:                                   ; preds = %arrayctor.loop
  %arrayidx = getelementptr inbounds [2 x %"class.std::vector.9"], ptr %subs, i64 0, i64 0
  invoke void @_ZNK4cvc58internal12NodeTemplateILb1EEixEi(ptr sret(%"class.cvc5::internal::NodeTemplate") align 8 %ref.tmp199, ptr noundef nonnull align 8 dereferenceable(8) %premiseTermEq, i32 noundef 0)
          to label %invoke.cont201 unwind label %lpad200

invoke.cont201:                                   ; preds = %arrayctor.cont
  invoke void @_ZNSt6vectorIN4cvc58internal12NodeTemplateILb1EEESaIS3_EE9push_backEOS3_(ptr noundef nonnull align 8 dereferenceable(24) %arrayidx, ptr noundef nonnull align 8 dereferenceable(8) %ref.tmp199)
          to label %invoke.cont203 unwind label %lpad202

invoke.cont203:                                   ; preds = %invoke.cont201
  call void @_ZN4cvc58internal12NodeTemplateILb1EED2Ev(ptr noundef nonnull align 8 dereferenceable(8) %ref.tmp199) #3
  %arrayidx205 = getelementptr inbounds [2 x %"class.std::vector.9"], ptr %subs, i64 0, i64 1
  invoke void @_ZNK4cvc58internal12NodeTemplateILb1EEixEi(ptr sret(%"class.cvc5::internal::NodeTemplate") align 8 %ref.tmp206, ptr noundef nonnull align 8 dereferenceable(8) %premiseTermEq, i32 noundef 1)
          to label %invoke.cont207 unwind label %lpad200

invoke.cont207:                                   ; preds = %invoke.cont203
  invoke void @_ZNSt6vectorIN4cvc58internal12NodeTemplateILb1EEESaIS3_EE9push_backEOS3_(ptr noundef nonnull align 8 dereferenceable(24) %arrayidx205, ptr noundef nonnull align 8 dereferenceable(8) %ref.tmp206)
          to label %invoke.cont209 unwind label %lpad208

invoke.cont209:                                   ; preds = %invoke.cont207
  call void @_ZN4cvc58internal12NodeTemplateILb1EED2Ev(ptr noundef nonnull align 8 dereferenceable(8) %ref.tmp206) #3
  store i32 -1, ptr %equalArg, align 4
  store i32 0, ptr %i211, align 4
  br label %for.cond212

for.cond212:                                      ; preds = %for.inc250, %invoke.cont209
  %71 = load i32, ptr %i211, align 4
  %cmp213 = icmp ult i32 %71, 2
  br i1 %cmp213, label %for.body214, label %for.end252

for.body214:                                      ; preds = %for.cond212
  store i32 0, ptr %j215, align 4
  br label %for.cond216

for.cond216:                                      ; preds = %for.inc247, %for.body214
  %72 = load i32, ptr %j215, align 4
  %cmp217 = icmp ult i32 %72, 2
  br i1 %cmp217, label %for.body218, label %for.end249

for.body218:                                      ; preds = %for.cond216
  %73 = load i32, ptr %i211, align 4
  invoke void @_ZNK4cvc58internal12NodeTemplateILb1EEixEi(ptr sret(%"class.cvc5::internal::NodeTemplate") align 8 %ref.tmp219, ptr noundef nonnull align 8 dereferenceable(8) %premiseTermEq, i32 noundef %73)
          to label %invoke.cont220 unwind label %lpad200

invoke.cont220:                                   ; preds = %for.body218
  %74 = load i32, ptr %j215, align 4
  invoke void @_ZNK4cvc58internal12NodeTemplateILb1EEixEi(ptr sret(%"class.cvc5::internal::NodeTemplate") align 8 %ref.tmp221, ptr noundef nonnull align 8 dereferenceable(8) %conclusionTermEq, i32 noundef %74)
          to label %invoke.cont223 unwind label %lpad222

invoke.cont223:                                   ; preds = %invoke.cont220
  %call226 = invoke noundef zeroext i1 @_ZNK4cvc58internal12NodeTemplateILb1EEeqILb1EEEbRKNS1_IXT_EEE(ptr noundef nonnull align 8 dereferenceable(8) %ref.tmp219, ptr noundef nonnull align 8 dereferenceable(8) %ref.tmp221)
          to label %invoke.cont225 unwind label %lpad224

invoke.cont225:                                   ; preds = %invoke.cont223
  call void @_ZN4cvc58internal12NodeTemplateILb1EED2Ev(ptr noundef nonnull align 8 dereferenceable(8) %ref.tmp221) #3
  call void @_ZN4cvc58internal12NodeTemplateILb1EED2Ev(ptr noundef nonnull align 8 dereferenceable(8) %ref.tmp219) #3
  br i1 %call226, label %if.then229, label %if.end246

if.then229:                                       ; preds = %invoke.cont225
  %75 = load i32, ptr %i211, align 4
  store i32 %75, ptr %equalArg, align 4
  %76 = load i32, ptr %i211, align 4
  %idxprom = zext i32 %76 to i64
  %arrayidx230 = getelementptr inbounds [2 x %"class.std::vector.9"], ptr %subs, i64 0, i64 %idxprom
  %77 = load i32, ptr %j215, align 4
  invoke void @_ZNK4cvc58internal12NodeTemplateILb1EEixEi(ptr sret(%"class.cvc5::internal::NodeTemplate") align 8 %ref.tmp231, ptr noundef nonnull align 8 dereferenceable(8) %conclusionTermEq, i32 noundef %77)
          to label %invoke.cont232 unwind label %lpad200

invoke.cont232:                                   ; preds = %if.then229
  invoke void @_ZNSt6vectorIN4cvc58internal12NodeTemplateILb1EEESaIS3_EE9push_backEOS3_(ptr noundef nonnull align 8 dereferenceable(24) %arrayidx230, ptr noundef nonnull align 8 dereferenceable(8) %ref.tmp231)
          to label %invoke.cont234 unwind label %lpad233

invoke.cont234:                                   ; preds = %invoke.cont232
  call void @_ZN4cvc58internal12NodeTemplateILb1EED2Ev(ptr noundef nonnull align 8 dereferenceable(8) %ref.tmp231) #3
  %78 = load i32, ptr %i211, align 4
  %sub236 = sub i32 1, %78
  %idxprom237 = zext i32 %sub236 to i64
  %arrayidx238 = getelementptr inbounds [2 x %"class.std::vector.9"], ptr %subs, i64 0, i64 %idxprom237
  %79 = load i32, ptr %j215, align 4
  %sub240 = sub i32 1, %79
  invoke void @_ZNK4cvc58internal12NodeTemplateILb1EEixEi(ptr sret(%"class.cvc5::internal::NodeTemplate") align 8 %ref.tmp239, ptr noundef nonnull align 8 dereferenceable(8) %conclusionTermEq, i32 noundef %sub240)
          to label %invoke.cont241 unwind label %lpad200

invoke.cont241:                                   ; preds = %invoke.cont234
  invoke void @_ZNSt6vectorIN4cvc58internal12NodeTemplateILb1EEESaIS3_EE9push_backEOS3_(ptr noundef nonnull align 8 dereferenceable(24) %arrayidx238, ptr noundef nonnull align 8 dereferenceable(8) %ref.tmp239)
          to label %invoke.cont243 unwind label %lpad242

invoke.cont243:                                   ; preds = %invoke.cont241
  call void @_ZN4cvc58internal12NodeTemplateILb1EED2Ev(ptr noundef nonnull align 8 dereferenceable(8) %ref.tmp239) #3
  %80 = load i32, ptr %i211, align 4
  %81 = load i32, ptr %j215, align 4
  %cmp245 = icmp ne i32 %80, %81
  %frombool = zext i1 %cmp245 to i8
  store i8 %frombool, ptr %substConclusionInReverseOrder, align 1
  br label %for.end249

lpad136:                                          ; preds = %cond.false142, %cond.true140, %invoke.cont135
  %82 = landingpad { ptr, i32 }
          cleanup
  %83 = extractvalue { ptr, i32 } %82, 0
  store ptr %83, ptr %exn.slot, align 8
  %84 = extractvalue { ptr, i32 } %82, 1
  store i32 %84, ptr %ehselector.slot, align 4
  br label %ehcleanup171

lpad147:                                          ; preds = %invoke.cont144
  %85 = landingpad { ptr, i32 }
          cleanup
  %86 = extractvalue { ptr, i32 } %85, 0
  store ptr %86, ptr %exn.slot, align 8
  %87 = extractvalue { ptr, i32 } %85, 1
  store i32 %87, ptr %ehselector.slot, align 4
  br label %ehcleanup167

lpad150:                                          ; preds = %invoke.cont148
  %88 = landingpad { ptr, i32 }
          cleanup
  %89 = extractvalue { ptr, i32 } %88, 0
  store ptr %89, ptr %exn.slot, align 8
  %90 = extractvalue { ptr, i32 } %88, 1
  store i32 %90, ptr %ehselector.slot, align 4
  br label %ehcleanup160

lpad153:                                          ; preds = %cond.end152
  %91 = landingpad { ptr, i32 }
          cleanup
  %92 = extractvalue { ptr, i32 } %91, 0
  store ptr %92, ptr %exn.slot, align 8
  %93 = extractvalue { ptr, i32 } %91, 1
  store i32 %93, ptr %ehselector.slot, align 4
  call void @_ZN4cvc58internal12NodeTemplateILb1EED2Ev(ptr noundef nonnull align 8 dereferenceable(8) %ref.tmp133) #3
  br label %ehcleanup160

ehcleanup160:                                     ; preds = %lpad153, %lpad150
  %cleanup.is_active161 = load i1, ptr %cleanup.cond149, align 1
  br i1 %cleanup.is_active161, label %cleanup.action162, label %cleanup.done163

cleanup.action162:                                ; preds = %ehcleanup160
  call void @_ZN4cvc58internal12NodeTemplateILb1EED2Ev(ptr noundef nonnull align 8 dereferenceable(8) %ref.tmp146) #3
  br label %cleanup.done163

cleanup.done163:                                  ; preds = %cleanup.action162, %ehcleanup160
  br label %ehcleanup167

ehcleanup167:                                     ; preds = %cleanup.done163, %lpad147
  %cleanup.is_active168 = load i1, ptr %cleanup.cond145, align 1
  br i1 %cleanup.is_active168, label %cleanup.action169, label %cleanup.done170

cleanup.action169:                                ; preds = %ehcleanup167
  call void @_ZN4cvc58internal12NodeTemplateILb1EED2Ev(ptr noundef nonnull align 8 dereferenceable(8) %ref.tmp143) #3
  br label %cleanup.done170

cleanup.done170:                                  ; preds = %cleanup.action169, %ehcleanup167
  br label %ehcleanup171

ehcleanup171:                                     ; preds = %cleanup.done170, %lpad136
  call void @_ZN4cvc58internal12NodeTemplateILb1EED2Ev(ptr noundef nonnull align 8 dereferenceable(8) %ref.tmp134) #3
  br label %ehcleanup1344

lpad175:                                          ; preds = %invoke.cont174
  %94 = landingpad { ptr, i32 }
          cleanup
  %95 = extractvalue { ptr, i32 } %94, 0
  store ptr %95, ptr %exn.slot, align 8
  %96 = extractvalue { ptr, i32 } %94, 1
  store i32 %96, ptr %ehselector.slot, align 4
  br label %ehcleanup811

lpad178:                                          ; preds = %invoke.cont194, %invoke.cont192, %invoke.cont190, %invoke.cont188, %invoke.cont187, %cond.false184, %cond.true181, %invoke.cont176
  %97 = landingpad { ptr, i32 }
          cleanup
  %98 = extractvalue { ptr, i32 } %97, 0
  store ptr %98, ptr %exn.slot, align 8
  %99 = extractvalue { ptr, i32 } %97, 1
  store i32 %99, ptr %ehselector.slot, align 4
  br label %ehcleanup810

lpad200:                                          ; preds = %invoke.cont786, %cond.end778, %invoke.cont774, %invoke.cont772, %invoke.cont770, %invoke.cont768, %invoke.cont766, %invoke.cont763, %invoke.cont761, %invoke.cont758, %invoke.cont757, %cond.false754, %cond.true751, %if.end747, %invoke.cont454, %cond.end449, %invoke.cont445, %invoke.cont443, %invoke.cont442, %cond.false439, %cond.true436, %if.else432, %for.end417, %if.then400, %for.body387, %invoke.cont337, %invoke.cont336, %cond.false333, %cond.true330, %if.else, %cond.end285, %invoke.cont281, %invoke.cont279, %invoke.cont278, %cond.false275, %cond.true272, %invoke.cont266, %if.then254, %invoke.cont234, %if.then229, %for.body218, %invoke.cont203, %arrayctor.cont
  %100 = landingpad { ptr, i32 }
          cleanup
  %101 = extractvalue { ptr, i32 } %100, 0
  store ptr %101, ptr %exn.slot, align 8
  %102 = extractvalue { ptr, i32 } %100, 1
  store i32 %102, ptr %ehselector.slot, align 4
  br label %ehcleanup803

lpad202:                                          ; preds = %invoke.cont201
  %103 = landingpad { ptr, i32 }
          cleanup
  %104 = extractvalue { ptr, i32 } %103, 0
  store ptr %104, ptr %exn.slot, align 8
  %105 = extractvalue { ptr, i32 } %103, 1
  store i32 %105, ptr %ehselector.slot, align 4
  call void @_ZN4cvc58internal12NodeTemplateILb1EED2Ev(ptr noundef nonnull align 8 dereferenceable(8) %ref.tmp199) #3
  br label %ehcleanup803

lpad208:                                          ; preds = %invoke.cont207
  %106 = landingpad { ptr, i32 }
          cleanup
  %107 = extractvalue { ptr, i32 } %106, 0
  store ptr %107, ptr %exn.slot, align 8
  %108 = extractvalue { ptr, i32 } %106, 1
  store i32 %108, ptr %ehselector.slot, align 4
  call void @_ZN4cvc58internal12NodeTemplateILb1EED2Ev(ptr noundef nonnull align 8 dereferenceable(8) %ref.tmp206) #3
  br label %ehcleanup803

lpad222:                                          ; preds = %invoke.cont220
  %109 = landingpad { ptr, i32 }
          cleanup
  %110 = extractvalue { ptr, i32 } %109, 0
  store ptr %110, ptr %exn.slot, align 8
  %111 = extractvalue { ptr, i32 } %109, 1
  store i32 %111, ptr %ehselector.slot, align 4
  br label %ehcleanup228

lpad224:                                          ; preds = %invoke.cont223
  %112 = landingpad { ptr, i32 }
          cleanup
  %113 = extractvalue { ptr, i32 } %112, 0
  store ptr %113, ptr %exn.slot, align 8
  %114 = extractvalue { ptr, i32 } %112, 1
  store i32 %114, ptr %ehselector.slot, align 4
  call void @_ZN4cvc58internal12NodeTemplateILb1EED2Ev(ptr noundef nonnull align 8 dereferenceable(8) %ref.tmp221) #3
  br label %ehcleanup228

ehcleanup228:                                     ; preds = %lpad224, %lpad222
  call void @_ZN4cvc58internal12NodeTemplateILb1EED2Ev(ptr noundef nonnull align 8 dereferenceable(8) %ref.tmp219) #3
  br label %ehcleanup803

lpad233:                                          ; preds = %invoke.cont232
  %115 = landingpad { ptr, i32 }
          cleanup
  %116 = extractvalue { ptr, i32 } %115, 0
  store ptr %116, ptr %exn.slot, align 8
  %117 = extractvalue { ptr, i32 } %115, 1
  store i32 %117, ptr %ehselector.slot, align 4
  call void @_ZN4cvc58internal12NodeTemplateILb1EED2Ev(ptr noundef nonnull align 8 dereferenceable(8) %ref.tmp231) #3
  br label %ehcleanup803

lpad242:                                          ; preds = %invoke.cont241
  %118 = landingpad { ptr, i32 }
          cleanup
  %119 = extractvalue { ptr, i32 } %118, 0
  store ptr %119, ptr %exn.slot, align 8
  %120 = extractvalue { ptr, i32 } %118, 1
  store i32 %120, ptr %ehselector.slot, align 4
  call void @_ZN4cvc58internal12NodeTemplateILb1EED2Ev(ptr noundef nonnull align 8 dereferenceable(8) %ref.tmp239) #3
  br label %ehcleanup803

if.end246:                                        ; preds = %invoke.cont225
  br label %for.inc247

for.inc247:                                       ; preds = %if.end246
  %121 = load i32, ptr %j215, align 4
  %inc248 = add i32 %121, 1
  store i32 %inc248, ptr %j215, align 4
  br label %for.cond216, !llvm.loop !21

for.end249:                                       ; preds = %invoke.cont243, %for.cond216
  br label %for.inc250

for.inc250:                                       ; preds = %for.end249
  %122 = load i32, ptr %i211, align 4
  %inc251 = add i32 %122, 1
  store i32 %inc251, ptr %i211, align 4
  br label %for.cond212, !llvm.loop !22

for.end252:                                       ; preds = %for.cond212
  %123 = load i32, ptr %equalArg, align 4
  %cmp253 = icmp sge i32 %123, 0
  br i1 %cmp253, label %if.then254, label %if.else

if.then254:                                       ; preds = %for.end252
  %124 = load i32, ptr %equalArg, align 4
  %sub256 = sub nsw i32 1, %124
  %idxprom257 = sext i32 %sub256 to i64
  %arrayidx258 = getelementptr inbounds [2 x %"class.std::vector.9"], ptr %subs, i64 0, i64 %idxprom257
  %call259 = call noundef nonnull align 8 dereferenceable(8) ptr @_ZNSt6vectorIN4cvc58internal12NodeTemplateILb1EEESaIS3_EEixEm(ptr noundef nonnull align 8 dereferenceable(24) %arrayidx258, i64 noundef 0) #3
  %125 = load i32, ptr %equalArg, align 4
  %sub260 = sub nsw i32 1, %125
  %idxprom261 = sext i32 %sub260 to i64
  %arrayidx262 = getelementptr inbounds [2 x %"class.std::vector.9"], ptr %subs, i64 0, i64 %idxprom261
  %call263 = call noundef nonnull align 8 dereferenceable(8) ptr @_ZNSt6vectorIN4cvc58internal12NodeTemplateILb1EEESaIS3_EEixEm(ptr noundef nonnull align 8 dereferenceable(24) %arrayidx262, i64 noundef 1) #3
  invoke void @_ZNK4cvc58internal12NodeTemplateILb1EE6eqNodeILb1EEES2_RKNS1_IXT_EEE(ptr sret(%"class.cvc5::internal::NodeTemplate") align 8 %ref.tmp255, ptr noundef nonnull align 8 dereferenceable(8) %call259, ptr noundef nonnull align 8 dereferenceable(8) %call263)
          to label %invoke.cont264 unwind label %lpad200

invoke.cont264:                                   ; preds = %if.then254
  %call267 = invoke noundef nonnull align 8 dereferenceable(8) ptr @_ZN4cvc58internal12NodeTemplateILb1EEaSERKS2_(ptr noundef nonnull align 8 dereferenceable(8) %expansionConclusion, ptr noundef nonnull align 8 dereferenceable(8) %ref.tmp255)
          to label %invoke.cont266 unwind label %lpad265

invoke.cont266:                                   ; preds = %invoke.cont264
  call void @_ZN4cvc58internal12NodeTemplateILb1EED2Ev(ptr noundef nonnull align 8 dereferenceable(8) %ref.tmp255) #3
  %call271 = invoke noundef zeroext i1 @_ZN4cvc58internal11__cvc5_truecvbEv(ptr noundef nonnull align 1 dereferenceable(1) %ref.tmp269)
          to label %invoke.cont270 unwind label %lpad200

invoke.cont270:                                   ; preds = %invoke.cont266
  br i1 %call271, label %cond.true272, label %cond.false275

cond.true272:                                     ; preds = %invoke.cont270
  invoke void @_ZNK4cvc58internal5NullCcvNS0_11Cvc5ostreamEEv(ptr sret(%"class.cvc5::internal::Cvc5ostream") align 8 %tmp273, ptr noundef nonnull align 1 dereferenceable(1) @_ZN4cvc58internal10nullStreamE)
          to label %invoke.cont274 unwind label %lpad200

invoke.cont274:                                   ; preds = %cond.true272
  br label %cond.end285

cond.false275:                                    ; preds = %invoke.cont270
  invoke void @_ZNK4cvc58internal6TraceCclEv(ptr sret(%"class.cvc5::internal::Cvc5ostream") align 8 %ref.tmp277, ptr noundef nonnull align 8 dereferenceable(32) @_ZN4cvc58internal12TraceChannelE)
          to label %invoke.cont278 unwind label %lpad200

invoke.cont278:                                   ; preds = %cond.false275
  %call280 = invoke noundef nonnull align 8 dereferenceable(24) ptr @_ZN4cvc58internal11Cvc5ostreamlsIA75_cEERS1_RKT_(ptr noundef nonnull align 8 dereferenceable(24) %ref.tmp277, ptr noundef nonnull align 1 dereferenceable(75) @.str.16)
          to label %invoke.cont279 unwind label %lpad200

invoke.cont279:                                   ; preds = %invoke.cont278
  %call282 = invoke noundef nonnull align 8 dereferenceable(24) ptr @_ZN4cvc58internal11Cvc5ostreamlsINS0_12NodeTemplateILb1EEEEERS1_RKT_(ptr noundef nonnull align 8 dereferenceable(24) %call280, ptr noundef nonnull align 8 dereferenceable(8) %expansionConclusion)
          to label %invoke.cont281 unwind label %lpad200

invoke.cont281:                                   ; preds = %invoke.cont279
  %call284 = invoke noundef nonnull align 8 dereferenceable(24) ptr @_ZN4cvc58internal11Cvc5ostreamlsIA2_cEERS1_RKT_(ptr noundef nonnull align 8 dereferenceable(24) %call282, ptr noundef nonnull align 1 dereferenceable(2) @.str.7)
          to label %invoke.cont283 unwind label %lpad200

invoke.cont283:                                   ; preds = %invoke.cont281
  call void @llvm.memcpy.p0.p0.i64(ptr align 8 %agg.tmp.ensured276, ptr align 8 %call284, i64 24, i1 false)
  br label %cond.end285

cond.end285:                                      ; preds = %invoke.cont283, %invoke.cont274
  %126 = load ptr, ptr %p.addr, align 8
  %127 = load i32, ptr %equalArg, align 4
  %idxprom286 = sext i32 %127 to i64
  %arrayidx287 = getelementptr inbounds [2 x %"class.std::vector.9"], ptr %subs, i64 0, i64 %idxprom286
  %call288 = call noundef nonnull align 8 dereferenceable(8) ptr @_ZNSt6vectorIN4cvc58internal12NodeTemplateILb1EEESaIS3_EEixEm(ptr noundef nonnull align 8 dereferenceable(24) %arrayidx287, i64 noundef 0) #3
  %128 = load i32, ptr %equalArg, align 4
  %idxprom289 = sext i32 %128 to i64
  %arrayidx290 = getelementptr inbounds [2 x %"class.std::vector.9"], ptr %subs, i64 0, i64 %idxprom289
  %call291 = call noundef nonnull align 8 dereferenceable(8) ptr @_ZNSt6vectorIN4cvc58internal12NodeTemplateILb1EEESaIS3_EEixEm(ptr noundef nonnull align 8 dereferenceable(24) %arrayidx290, i64 noundef 1) #3
  invoke void @_ZNK4cvc58internal12NodeTemplateILb1EE6eqNodeILb1EEES2_RKNS1_IXT_EEE(ptr sret(%"class.cvc5::internal::NodeTemplate") align 8 %agg.tmp, ptr noundef nonnull align 8 dereferenceable(8) %call288, ptr noundef nonnull align 8 dereferenceable(8) %call291)
          to label %invoke.cont292 unwind label %lpad200

invoke.cont292:                                   ; preds = %cond.end285
  call void @llvm.memset.p0.i64(ptr align 8 %ref.tmp293, i8 0, i64 24, i1 false)
  call void @_ZNSt6vectorIN4cvc58internal12NodeTemplateILb1EEESaIS3_EEC2Ev(ptr noundef nonnull align 8 dereferenceable(24) %ref.tmp293) #3
  %arrayinit.begin = getelementptr inbounds [1 x %"class.cvc5::internal::NodeTemplate"], ptr %ref.tmp296, i64 0, i64 0
  store ptr %arrayinit.begin, ptr %arrayinit.endOfInit, align 8
  %129 = load i32, ptr %equalArg, align 4
  %idxprom297 = sext i32 %129 to i64
  %arrayidx298 = getelementptr inbounds [2 x %"class.std::vector.9"], ptr %subs, i64 0, i64 %idxprom297
  %call299 = call noundef nonnull align 8 dereferenceable(8) ptr @_ZNSt6vectorIN4cvc58internal12NodeTemplateILb1EEESaIS3_EEixEm(ptr noundef nonnull align 8 dereferenceable(24) %arrayidx298, i64 noundef 0) #3
  invoke void @_ZN4cvc58internal12NodeTemplateILb1EEC2ERKS2_(ptr noundef nonnull align 8 dereferenceable(8) %arrayinit.begin, ptr noundef nonnull align 8 dereferenceable(8) %call299)
          to label %invoke.cont301 unwind label %lpad300

invoke.cont301:                                   ; preds = %invoke.cont292
  %_M_array = getelementptr inbounds %"class.std::initializer_list", ptr %agg.tmp295, i32 0, i32 0
  %arraystart = getelementptr inbounds [1 x %"class.cvc5::internal::NodeTemplate"], ptr %ref.tmp296, i64 0, i64 0
  store ptr %arraystart, ptr %_M_array, align 8
  %_M_len = getelementptr inbounds %"class.std::initializer_list", ptr %agg.tmp295, i32 0, i32 1
  store i64 1, ptr %_M_len, align 8
  call void @_ZNSaIN4cvc58internal12NodeTemplateILb1EEEEC2Ev(ptr noundef nonnull align 1 dereferenceable(1) %ref.tmp304) #3
  %130 = getelementptr inbounds { ptr, i64 }, ptr %agg.tmp295, i32 0, i32 0
  %131 = load ptr, ptr %130, align 8
  %132 = getelementptr inbounds { ptr, i64 }, ptr %agg.tmp295, i32 0, i32 1
  %133 = load i64, ptr %132, align 8
  invoke void @_ZNSt6vectorIN4cvc58internal12NodeTemplateILb1EEESaIS3_EEC2ESt16initializer_listIS3_ERKS4_(ptr noundef nonnull align 8 dereferenceable(24) %ref.tmp294, ptr %131, i64 %133, ptr noundef nonnull align 1 dereferenceable(1) %ref.tmp304)
          to label %invoke.cont306 unwind label %lpad305

invoke.cont306:                                   ; preds = %invoke.cont301
  %call309 = invoke noundef zeroext i1 @_ZN4cvc58internal7CDProof7addStepENS0_12NodeTemplateILb1EEENS_9ProofRuleERKSt6vectorIS3_SaIS3_EES9_bNS0_12CDPOverwriteE(ptr noundef nonnull align 8 dereferenceable(217) %126, ptr noundef %agg.tmp, i32 noundef 67, ptr noundef nonnull align 8 dereferenceable(24) %ref.tmp293, ptr noundef nonnull align 8 dereferenceable(24) %ref.tmp294, i1 noundef zeroext false, i32 noundef 1)
          to label %invoke.cont308 unwind label %lpad307

invoke.cont308:                                   ; preds = %invoke.cont306
  call void @_ZNSt6vectorIN4cvc58internal12NodeTemplateILb1EEESaIS3_EED2Ev(ptr noundef nonnull align 8 dereferenceable(24) %ref.tmp294) #3
  call void @_ZNSaIN4cvc58internal12NodeTemplateILb1EEEED2Ev(ptr noundef nonnull align 1 dereferenceable(1) %ref.tmp304) #3
  %array.begin312 = getelementptr inbounds [1 x %"class.cvc5::internal::NodeTemplate"], ptr %ref.tmp296, i32 0, i32 0
  %134 = getelementptr inbounds %"class.cvc5::internal::NodeTemplate", ptr %array.begin312, i64 1
  br label %arraydestroy.body313

arraydestroy.body313:                             ; preds = %arraydestroy.body313, %invoke.cont308
  %arraydestroy.elementPast314 = phi ptr [ %134, %invoke.cont308 ], [ %arraydestroy.element315, %arraydestroy.body313 ]
  %arraydestroy.element315 = getelementptr inbounds %"class.cvc5::internal::NodeTemplate", ptr %arraydestroy.elementPast314, i64 -1
  call void @_ZN4cvc58internal12NodeTemplateILb1EED2Ev(ptr noundef nonnull align 8 dereferenceable(8) %arraydestroy.element315) #3
  %arraydestroy.done316 = icmp eq ptr %arraydestroy.element315, %array.begin312
  br i1 %arraydestroy.done316, label %arraydestroy.done317, label %arraydestroy.body313

arraydestroy.done317:                             ; preds = %arraydestroy.body313
  call void @_ZNSt6vectorIN4cvc58internal12NodeTemplateILb1EEESaIS3_EED2Ev(ptr noundef nonnull align 8 dereferenceable(24) %ref.tmp293) #3
  call void @_ZN4cvc58internal12NodeTemplateILb1EED2Ev(ptr noundef nonnull align 8 dereferenceable(8) %agg.tmp) #3
  br label %if.end747

lpad265:                                          ; preds = %invoke.cont264
  %135 = landingpad { ptr, i32 }
          cleanup
  %136 = extractvalue { ptr, i32 } %135, 0
  store ptr %136, ptr %exn.slot, align 8
  %137 = extractvalue { ptr, i32 } %135, 1
  store i32 %137, ptr %ehselector.slot, align 4
  call void @_ZN4cvc58internal12NodeTemplateILb1EED2Ev(ptr noundef nonnull align 8 dereferenceable(8) %ref.tmp255) #3
  br label %ehcleanup803

lpad300:                                          ; preds = %invoke.cont292
  %138 = landingpad { ptr, i32 }
          cleanup
  %139 = extractvalue { ptr, i32 } %138, 0
  store ptr %139, ptr %exn.slot, align 8
  %140 = extractvalue { ptr, i32 } %138, 1
  store i32 %140, ptr %ehselector.slot, align 4
  %141 = load ptr, ptr %arrayinit.endOfInit, align 8
  %arraydestroy.isempty = icmp eq ptr %arrayinit.begin, %141
  br i1 %arraydestroy.isempty, label %arraydestroy.done303, label %arraydestroy.body

arraydestroy.body:                                ; preds = %arraydestroy.body, %lpad300
  %arraydestroy.elementPast = phi ptr [ %141, %lpad300 ], [ %arraydestroy.element, %arraydestroy.body ]
  %arraydestroy.element = getelementptr inbounds %"class.cvc5::internal::NodeTemplate", ptr %arraydestroy.elementPast, i64 -1
  call void @_ZN4cvc58internal12NodeTemplateILb1EED2Ev(ptr noundef nonnull align 8 dereferenceable(8) %arraydestroy.element) #3
  %arraydestroy.done = icmp eq ptr %arraydestroy.element, %arrayinit.begin
  br i1 %arraydestroy.done, label %arraydestroy.done303, label %arraydestroy.body

arraydestroy.done303:                             ; preds = %arraydestroy.body, %lpad300
  br label %ehcleanup325

lpad305:                                          ; preds = %invoke.cont301
  %142 = landingpad { ptr, i32 }
          cleanup
  %143 = extractvalue { ptr, i32 } %142, 0
  store ptr %143, ptr %exn.slot, align 8
  %144 = extractvalue { ptr, i32 } %142, 1
  store i32 %144, ptr %ehselector.slot, align 4
  br label %ehcleanup311

lpad307:                                          ; preds = %invoke.cont306
  %145 = landingpad { ptr, i32 }
          cleanup
  %146 = extractvalue { ptr, i32 } %145, 0
  store ptr %146, ptr %exn.slot, align 8
  %147 = extractvalue { ptr, i32 } %145, 1
  store i32 %147, ptr %ehselector.slot, align 4
  call void @_ZNSt6vectorIN4cvc58internal12NodeTemplateILb1EEESaIS3_EED2Ev(ptr noundef nonnull align 8 dereferenceable(24) %ref.tmp294) #3
  br label %ehcleanup311

ehcleanup311:                                     ; preds = %lpad307, %lpad305
  call void @_ZNSaIN4cvc58internal12NodeTemplateILb1EEEED2Ev(ptr noundef nonnull align 1 dereferenceable(1) %ref.tmp304) #3
  %array.begin319 = getelementptr inbounds [1 x %"class.cvc5::internal::NodeTemplate"], ptr %ref.tmp296, i32 0, i32 0
  %148 = getelementptr inbounds %"class.cvc5::internal::NodeTemplate", ptr %array.begin319, i64 1
  br label %arraydestroy.body320

arraydestroy.body320:                             ; preds = %arraydestroy.body320, %ehcleanup311
  %arraydestroy.elementPast321 = phi ptr [ %148, %ehcleanup311 ], [ %arraydestroy.element322, %arraydestroy.body320 ]
  %arraydestroy.element322 = getelementptr inbounds %"class.cvc5::internal::NodeTemplate", ptr %arraydestroy.elementPast321, i64 -1
  call void @_ZN4cvc58internal12NodeTemplateILb1EED2Ev(ptr noundef nonnull align 8 dereferenceable(8) %arraydestroy.element322) #3
  %arraydestroy.done323 = icmp eq ptr %arraydestroy.element322, %array.begin319
  br i1 %arraydestroy.done323, label %arraydestroy.done324, label %arraydestroy.body320

arraydestroy.done324:                             ; preds = %arraydestroy.body320
  br label %ehcleanup325

ehcleanup325:                                     ; preds = %arraydestroy.done324, %arraydestroy.done303
  call void @_ZNSt6vectorIN4cvc58internal12NodeTemplateILb1EEESaIS3_EED2Ev(ptr noundef nonnull align 8 dereferenceable(24) %ref.tmp293) #3
  call void @_ZN4cvc58internal12NodeTemplateILb1EED2Ev(ptr noundef nonnull align 8 dereferenceable(8) %agg.tmp) #3
  br label %ehcleanup803

if.else:                                          ; preds = %for.end252
  store i1 false, ptr %cleanup.cond341, align 1
  store i1 false, ptr %cleanup.cond349, align 1
  %call329 = invoke noundef zeroext i1 @_ZN4cvc58internal11__cvc5_truecvbEv(ptr noundef nonnull align 1 dereferenceable(1) %ref.tmp327)
          to label %invoke.cont328 unwind label %lpad200

invoke.cont328:                                   ; preds = %if.else
  br i1 %call329, label %cond.true330, label %cond.false333

cond.true330:                                     ; preds = %invoke.cont328
  invoke void @_ZNK4cvc58internal5NullCcvNS0_11Cvc5ostreamEEv(ptr sret(%"class.cvc5::internal::Cvc5ostream") align 8 %tmp331, ptr noundef nonnull align 1 dereferenceable(1) @_ZN4cvc58internal10nullStreamE)
          to label %invoke.cont332 unwind label %lpad200

invoke.cont332:                                   ; preds = %cond.true330
  br label %cond.end359

cond.false333:                                    ; preds = %invoke.cont328
  invoke void @_ZNK4cvc58internal6TraceCclEv(ptr sret(%"class.cvc5::internal::Cvc5ostream") align 8 %ref.tmp335, ptr noundef nonnull align 8 dereferenceable(32) @_ZN4cvc58internal12TraceChannelE)
          to label %invoke.cont336 unwind label %lpad200

invoke.cont336:                                   ; preds = %cond.false333
  %call338 = invoke noundef nonnull align 8 dereferenceable(24) ptr @_ZN4cvc58internal11Cvc5ostreamlsIA79_cEERS1_RKT_(ptr noundef nonnull align 8 dereferenceable(24) %ref.tmp335, ptr noundef nonnull align 1 dereferenceable(79) @.str.17)
          to label %invoke.cont337 unwind label %lpad200

invoke.cont337:                                   ; preds = %invoke.cont336
  invoke void @_ZNK4cvc58internal12NodeTemplateILb1EEixEi(ptr sret(%"class.cvc5::internal::NodeTemplate") align 8 %ref.tmp339, ptr noundef nonnull align 8 dereferenceable(8) %premiseTermEq, i32 noundef 0)
          to label %invoke.cont340 unwind label %lpad200

invoke.cont340:                                   ; preds = %invoke.cont337
  store i1 true, ptr %cleanup.cond341, align 1
  %call344 = invoke noundef nonnull align 8 dereferenceable(24) ptr @_ZN4cvc58internal11Cvc5ostreamlsINS0_12NodeTemplateILb1EEEEERS1_RKT_(ptr noundef nonnull align 8 dereferenceable(24) %call338, ptr noundef nonnull align 8 dereferenceable(8) %ref.tmp339)
          to label %invoke.cont343 unwind label %lpad342

invoke.cont343:                                   ; preds = %invoke.cont340
  %call346 = invoke noundef nonnull align 8 dereferenceable(24) ptr @_ZN4cvc58internal11Cvc5ostreamlsIA6_cEERS1_RKT_(ptr noundef nonnull align 8 dereferenceable(24) %call344, ptr noundef nonnull align 1 dereferenceable(6) @.str.18)
          to label %invoke.cont345 unwind label %lpad342

invoke.cont345:                                   ; preds = %invoke.cont343
  invoke void @_ZNK4cvc58internal12NodeTemplateILb1EEixEi(ptr sret(%"class.cvc5::internal::NodeTemplate") align 8 %ref.tmp347, ptr noundef nonnull align 8 dereferenceable(8) %premiseTermEq, i32 noundef 1)
          to label %invoke.cont348 unwind label %lpad342

invoke.cont348:                                   ; preds = %invoke.cont345
  store i1 true, ptr %cleanup.cond349, align 1
  %call352 = invoke noundef nonnull align 8 dereferenceable(24) ptr @_ZN4cvc58internal11Cvc5ostreamlsINS0_12NodeTemplateILb1EEEEERS1_RKT_(ptr noundef nonnull align 8 dereferenceable(24) %call346, ptr noundef nonnull align 8 dereferenceable(8) %ref.tmp347)
          to label %invoke.cont351 unwind label %lpad350

invoke.cont351:                                   ; preds = %invoke.cont348
  %call354 = invoke noundef nonnull align 8 dereferenceable(24) ptr @_ZN4cvc58internal11Cvc5ostreamlsIA14_cEERS1_RKT_(ptr noundef nonnull align 8 dereferenceable(24) %call352, ptr noundef nonnull align 1 dereferenceable(14) @.str.19)
          to label %invoke.cont353 unwind label %lpad350

invoke.cont353:                                   ; preds = %invoke.cont351
  %call356 = invoke noundef nonnull align 8 dereferenceable(24) ptr @_ZN4cvc58internal11Cvc5ostreamlsISt6vectorINS0_12NodeTemplateILb1EEESaIS5_EEEERS1_RKT_(ptr noundef nonnull align 8 dereferenceable(24) %call354, ptr noundef nonnull align 8 dereferenceable(24) %expansionPremises)
          to label %invoke.cont355 unwind label %lpad350

invoke.cont355:                                   ; preds = %invoke.cont353
  %call358 = invoke noundef nonnull align 8 dereferenceable(24) ptr @_ZN4cvc58internal11Cvc5ostreamlsIA2_cEERS1_RKT_(ptr noundef nonnull align 8 dereferenceable(24) %call356, ptr noundef nonnull align 1 dereferenceable(2) @.str.7)
          to label %invoke.cont357 unwind label %lpad350

invoke.cont357:                                   ; preds = %invoke.cont355
  call void @llvm.memcpy.p0.p0.i64(ptr align 8 %agg.tmp.ensured334, ptr align 8 %call358, i64 24, i1 false)
  br label %cond.end359

cond.end359:                                      ; preds = %invoke.cont357, %invoke.cont332
  %cleanup.is_active360 = load i1, ptr %cleanup.cond349, align 1
  br i1 %cleanup.is_active360, label %cleanup.action361, label %cleanup.done362

cleanup.action361:                                ; preds = %cond.end359
  call void @_ZN4cvc58internal12NodeTemplateILb1EED2Ev(ptr noundef nonnull align 8 dereferenceable(8) %ref.tmp347) #3
  br label %cleanup.done362

cleanup.done362:                                  ; preds = %cleanup.action361, %cond.end359
  %cleanup.is_active367 = load i1, ptr %cleanup.cond341, align 1
  br i1 %cleanup.is_active367, label %cleanup.action368, label %cleanup.done369

cleanup.action368:                                ; preds = %cleanup.done362
  call void @_ZN4cvc58internal12NodeTemplateILb1EED2Ev(ptr noundef nonnull align 8 dereferenceable(8) %ref.tmp339) #3
  br label %cleanup.done369

cleanup.done369:                                  ; preds = %cleanup.action368, %cleanup.done362
  %call374 = call noundef i64 @_ZNKSt6vectorIN4cvc58internal12NodeTemplateILb1EEESaIS3_EE4sizeEv(ptr noundef nonnull align 8 dereferenceable(24) %expansionPremises) #3
  %cmp375 = icmp eq i64 %call374, 2
  br i1 %cmp375, label %if.then376, label %if.else432

if.then376:                                       ; preds = %cleanup.done369
  store i32 0, ptr %i377, align 4
  br label %for.cond378

for.cond378:                                      ; preds = %for.inc429, %if.then376
  %149 = load i32, ptr %i377, align 4
  %cmp379 = icmp ult i32 %149, 2
  br i1 %cmp379, label %for.body380, label %for.end431

for.body380:                                      ; preds = %for.cond378
  store i32 0, ptr %j381, align 4
  br label %for.cond382

for.cond382:                                      ; preds = %for.inc415, %for.body380
  %150 = load i32, ptr %j381, align 4
  %cmp383 = icmp ult i32 %150, 2
  br i1 %cmp383, label %for.body384, label %for.end417

for.body384:                                      ; preds = %for.cond382
  store i32 0, ptr %k, align 4
  br label %for.cond385

for.cond385:                                      ; preds = %for.inc412, %for.body384
  %151 = load i32, ptr %k, align 4
  %cmp386 = icmp ult i32 %151, 2
  br i1 %cmp386, label %for.body387, label %for.end414

for.body387:                                      ; preds = %for.cond385
  %152 = load i32, ptr %i377, align 4
  invoke void @_ZNK4cvc58internal12NodeTemplateILb1EEixEi(ptr sret(%"class.cvc5::internal::NodeTemplate") align 8 %ref.tmp388, ptr noundef nonnull align 8 dereferenceable(8) %premiseTermEq, i32 noundef %152)
          to label %invoke.cont389 unwind label %lpad200

invoke.cont389:                                   ; preds = %for.body387
  %153 = load i32, ptr %j381, align 4
  %conv391 = zext i32 %153 to i64
  %call392 = call noundef nonnull align 8 dereferenceable(8) ptr @_ZNSt6vectorIN4cvc58internal12NodeTemplateILb1EEESaIS3_EEixEm(ptr noundef nonnull align 8 dereferenceable(24) %expansionPremises, i64 noundef %conv391) #3
  %154 = load i32, ptr %k, align 4
  invoke void @_ZNK4cvc58internal12NodeTemplateILb1EEixEi(ptr sret(%"class.cvc5::internal::NodeTemplate") align 8 %ref.tmp390, ptr noundef nonnull align 8 dereferenceable(8) %call392, i32 noundef %154)
          to label %invoke.cont394 unwind label %lpad393

invoke.cont394:                                   ; preds = %invoke.cont389
  %call397 = invoke noundef zeroext i1 @_ZNK4cvc58internal12NodeTemplateILb1EEeqILb1EEEbRKNS1_IXT_EEE(ptr noundef nonnull align 8 dereferenceable(8) %ref.tmp388, ptr noundef nonnull align 8 dereferenceable(8) %ref.tmp390)
          to label %invoke.cont396 unwind label %lpad395

invoke.cont396:                                   ; preds = %invoke.cont394
  call void @_ZN4cvc58internal12NodeTemplateILb1EED2Ev(ptr noundef nonnull align 8 dereferenceable(8) %ref.tmp390) #3
  call void @_ZN4cvc58internal12NodeTemplateILb1EED2Ev(ptr noundef nonnull align 8 dereferenceable(8) %ref.tmp388) #3
  br i1 %call397, label %if.then400, label %if.end411

if.then400:                                       ; preds = %invoke.cont396
  %155 = load i32, ptr %i377, align 4
  %idxprom401 = zext i32 %155 to i64
  %arrayidx402 = getelementptr inbounds [2 x %"class.std::vector.9"], ptr %subs, i64 0, i64 %idxprom401
  %156 = load i32, ptr %j381, align 4
  %conv404 = zext i32 %156 to i64
  %call405 = call noundef nonnull align 8 dereferenceable(8) ptr @_ZNSt6vectorIN4cvc58internal12NodeTemplateILb1EEESaIS3_EEixEm(ptr noundef nonnull align 8 dereferenceable(24) %expansionPremises, i64 noundef %conv404) #3
  %157 = load i32, ptr %k, align 4
  %sub406 = sub i32 1, %157
  invoke void @_ZNK4cvc58internal12NodeTemplateILb1EEixEi(ptr sret(%"class.cvc5::internal::NodeTemplate") align 8 %ref.tmp403, ptr noundef nonnull align 8 dereferenceable(8) %call405, i32 noundef %sub406)
          to label %invoke.cont407 unwind label %lpad200

invoke.cont407:                                   ; preds = %if.then400
  invoke void @_ZNSt6vectorIN4cvc58internal12NodeTemplateILb1EEESaIS3_EE9push_backEOS3_(ptr noundef nonnull align 8 dereferenceable(24) %arrayidx402, ptr noundef nonnull align 8 dereferenceable(8) %ref.tmp403)
          to label %invoke.cont409 unwind label %lpad408

invoke.cont409:                                   ; preds = %invoke.cont407
  call void @_ZN4cvc58internal12NodeTemplateILb1EED2Ev(ptr noundef nonnull align 8 dereferenceable(8) %ref.tmp403) #3
  br label %for.end414

lpad342:                                          ; preds = %invoke.cont345, %invoke.cont343, %invoke.cont340
  %158 = landingpad { ptr, i32 }
          cleanup
  %159 = extractvalue { ptr, i32 } %158, 0
  store ptr %159, ptr %exn.slot, align 8
  %160 = extractvalue { ptr, i32 } %158, 1
  store i32 %160, ptr %ehselector.slot, align 4
  br label %ehcleanup370

lpad350:                                          ; preds = %invoke.cont355, %invoke.cont353, %invoke.cont351, %invoke.cont348
  %161 = landingpad { ptr, i32 }
          cleanup
  %162 = extractvalue { ptr, i32 } %161, 0
  store ptr %162, ptr %exn.slot, align 8
  %163 = extractvalue { ptr, i32 } %161, 1
  store i32 %163, ptr %ehselector.slot, align 4
  %cleanup.is_active364 = load i1, ptr %cleanup.cond349, align 1
  br i1 %cleanup.is_active364, label %cleanup.action365, label %cleanup.done366

cleanup.action365:                                ; preds = %lpad350
  call void @_ZN4cvc58internal12NodeTemplateILb1EED2Ev(ptr noundef nonnull align 8 dereferenceable(8) %ref.tmp347) #3
  br label %cleanup.done366

cleanup.done366:                                  ; preds = %cleanup.action365, %lpad350
  br label %ehcleanup370

ehcleanup370:                                     ; preds = %cleanup.done366, %lpad342
  %cleanup.is_active371 = load i1, ptr %cleanup.cond341, align 1
  br i1 %cleanup.is_active371, label %cleanup.action372, label %cleanup.done373

cleanup.action372:                                ; preds = %ehcleanup370
  call void @_ZN4cvc58internal12NodeTemplateILb1EED2Ev(ptr noundef nonnull align 8 dereferenceable(8) %ref.tmp339) #3
  br label %cleanup.done373

cleanup.done373:                                  ; preds = %cleanup.action372, %ehcleanup370
  br label %ehcleanup803

lpad393:                                          ; preds = %invoke.cont389
  %164 = landingpad { ptr, i32 }
          cleanup
  %165 = extractvalue { ptr, i32 } %164, 0
  store ptr %165, ptr %exn.slot, align 8
  %166 = extractvalue { ptr, i32 } %164, 1
  store i32 %166, ptr %ehselector.slot, align 4
  br label %ehcleanup399

lpad395:                                          ; preds = %invoke.cont394
  %167 = landingpad { ptr, i32 }
          cleanup
  %168 = extractvalue { ptr, i32 } %167, 0
  store ptr %168, ptr %exn.slot, align 8
  %169 = extractvalue { ptr, i32 } %167, 1
  store i32 %169, ptr %ehselector.slot, align 4
  call void @_ZN4cvc58internal12NodeTemplateILb1EED2Ev(ptr noundef nonnull align 8 dereferenceable(8) %ref.tmp390) #3
  br label %ehcleanup399

ehcleanup399:                                     ; preds = %lpad395, %lpad393
  call void @_ZN4cvc58internal12NodeTemplateILb1EED2Ev(ptr noundef nonnull align 8 dereferenceable(8) %ref.tmp388) #3
  br label %ehcleanup803

lpad408:                                          ; preds = %invoke.cont407
  %170 = landingpad { ptr, i32 }
          cleanup
  %171 = extractvalue { ptr, i32 } %170, 0
  store ptr %171, ptr %exn.slot, align 8
  %172 = extractvalue { ptr, i32 } %170, 1
  store i32 %172, ptr %ehselector.slot, align 4
  call void @_ZN4cvc58internal12NodeTemplateILb1EED2Ev(ptr noundef nonnull align 8 dereferenceable(8) %ref.tmp403) #3
  br label %ehcleanup803

if.end411:                                        ; preds = %invoke.cont396
  br label %for.inc412

for.inc412:                                       ; preds = %if.end411
  %173 = load i32, ptr %k, align 4
  %inc413 = add i32 %173, 1
  store i32 %inc413, ptr %k, align 4
  br label %for.cond385, !llvm.loop !23

for.end414:                                       ; preds = %invoke.cont409, %for.cond385
  br label %for.inc415

for.inc415:                                       ; preds = %for.end414
  %174 = load i32, ptr %j381, align 4
  %inc416 = add i32 %174, 1
  store i32 %inc416, ptr %j381, align 4
  br label %for.cond382, !llvm.loop !24

for.end417:                                       ; preds = %for.cond382
  %175 = load i32, ptr %i377, align 4
  invoke void @_ZNK4cvc58internal12NodeTemplateILb1EEixEi(ptr sret(%"class.cvc5::internal::NodeTemplate") align 8 %ref.tmp418, ptr noundef nonnull align 8 dereferenceable(8) %premiseTermEq, i32 noundef %175)
          to label %invoke.cont419 unwind label %lpad200

invoke.cont419:                                   ; preds = %for.end417
  %176 = load i32, ptr %i377, align 4
  invoke void @_ZNK4cvc58internal12NodeTemplateILb1EEixEi(ptr sret(%"class.cvc5::internal::NodeTemplate") align 8 %ref.tmp420, ptr noundef nonnull align 8 dereferenceable(8) %conclusionTermEq, i32 noundef %176)
          to label %invoke.cont422 unwind label %lpad421

invoke.cont422:                                   ; preds = %invoke.cont419
  %call425 = invoke noundef zeroext i1 @_ZNK4cvc58internal12NodeTemplateILb1EEneILb1EEEbRKNS1_IXT_EEE(ptr noundef nonnull align 8 dereferenceable(8) %ref.tmp418, ptr noundef nonnull align 8 dereferenceable(8) %ref.tmp420)
          to label %invoke.cont424 unwind label %lpad423

invoke.cont424:                                   ; preds = %invoke.cont422
  %frombool426 = zext i1 %call425 to i8
  store i8 %frombool426, ptr %substConclusionInReverseOrder, align 1
  call void @_ZN4cvc58internal12NodeTemplateILb1EED2Ev(ptr noundef nonnull align 8 dereferenceable(8) %ref.tmp420) #3
  call void @_ZN4cvc58internal12NodeTemplateILb1EED2Ev(ptr noundef nonnull align 8 dereferenceable(8) %ref.tmp418) #3
  br label %for.inc429

for.inc429:                                       ; preds = %invoke.cont424
  %177 = load i32, ptr %i377, align 4
  %inc430 = add i32 %177, 1
  store i32 %inc430, ptr %i377, align 4
  br label %for.cond378, !llvm.loop !25

lpad421:                                          ; preds = %invoke.cont419
  %178 = landingpad { ptr, i32 }
          cleanup
  %179 = extractvalue { ptr, i32 } %178, 0
  store ptr %179, ptr %exn.slot, align 8
  %180 = extractvalue { ptr, i32 } %178, 1
  store i32 %180, ptr %ehselector.slot, align 4
  br label %ehcleanup428

lpad423:                                          ; preds = %invoke.cont422
  %181 = landingpad { ptr, i32 }
          cleanup
  %182 = extractvalue { ptr, i32 } %181, 0
  store ptr %182, ptr %exn.slot, align 8
  %183 = extractvalue { ptr, i32 } %181, 1
  store i32 %183, ptr %ehselector.slot, align 4
  call void @_ZN4cvc58internal12NodeTemplateILb1EED2Ev(ptr noundef nonnull align 8 dereferenceable(8) %ref.tmp420) #3
  br label %ehcleanup428

ehcleanup428:                                     ; preds = %lpad423, %lpad421
  call void @_ZN4cvc58internal12NodeTemplateILb1EED2Ev(ptr noundef nonnull align 8 dereferenceable(8) %ref.tmp418) #3
  br label %ehcleanup803

for.end431:                                       ; preds = %for.cond378
  br label %if.end746

if.else432:                                       ; preds = %cleanup.done369
  %call435 = invoke noundef zeroext i1 @_ZN4cvc58internal11__cvc5_truecvbEv(ptr noundef nonnull align 1 dereferenceable(1) %ref.tmp433)
          to label %invoke.cont434 unwind label %lpad200

invoke.cont434:                                   ; preds = %if.else432
  br i1 %call435, label %cond.true436, label %cond.false439

cond.true436:                                     ; preds = %invoke.cont434
  invoke void @_ZNK4cvc58internal5NullCcvNS0_11Cvc5ostreamEEv(ptr sret(%"class.cvc5::internal::Cvc5ostream") align 8 %tmp437, ptr noundef nonnull align 1 dereferenceable(1) @_ZN4cvc58internal10nullStreamE)
          to label %invoke.cont438 unwind label %lpad200

invoke.cont438:                                   ; preds = %cond.true436
  br label %cond.end449

cond.false439:                                    ; preds = %invoke.cont434
  invoke void @_ZNK4cvc58internal6TraceCclEv(ptr sret(%"class.cvc5::internal::Cvc5ostream") align 8 %ref.tmp441, ptr noundef nonnull align 8 dereferenceable(32) @_ZN4cvc58internal12TraceChannelE)
          to label %invoke.cont442 unwind label %lpad200

invoke.cont442:                                   ; preds = %cond.false439
  %call444 = invoke noundef nonnull align 8 dereferenceable(24) ptr @_ZN4cvc58internal11Cvc5ostreamlsIA113_cEERS1_RKT_(ptr noundef nonnull align 8 dereferenceable(24) %ref.tmp441, ptr noundef nonnull align 1 dereferenceable(113) @.str.20)
          to label %invoke.cont443 unwind label %lpad200

invoke.cont443:                                   ; preds = %invoke.cont442
  %call446 = invoke noundef nonnull align 8 dereferenceable(24) ptr @_ZN4cvc58internal11Cvc5ostreamlsISt6vectorINS0_12NodeTemplateILb1EEESaIS5_EEEERS1_RKT_(ptr noundef nonnull align 8 dereferenceable(24) %call444, ptr noundef nonnull align 8 dereferenceable(24) %expansionPremises)
          to label %invoke.cont445 unwind label %lpad200

invoke.cont445:                                   ; preds = %invoke.cont443
  %call448 = invoke noundef nonnull align 8 dereferenceable(24) ptr @_ZN4cvc58internal11Cvc5ostreamlsIA2_cEERS1_RKT_(ptr noundef nonnull align 8 dereferenceable(24) %call446, ptr noundef nonnull align 1 dereferenceable(2) @.str.7)
          to label %invoke.cont447 unwind label %lpad200

invoke.cont447:                                   ; preds = %invoke.cont445
  call void @llvm.memcpy.p0.p0.i64(ptr align 8 %agg.tmp.ensured440, ptr align 8 %call448, i64 24, i1 false)
  br label %cond.end449

cond.end449:                                      ; preds = %invoke.cont447, %invoke.cont438
  %arrayidx450 = getelementptr inbounds [2 x %"class.std::vector.9"], ptr %subs, i64 0, i64 0
  invoke void @_ZNK4cvc58internal12NodeTemplateILb1EEixEi(ptr sret(%"class.cvc5::internal::NodeTemplate") align 8 %ref.tmp451, ptr noundef nonnull align 8 dereferenceable(8) %conclusionTermEq, i32 noundef 0)
          to label %invoke.cont452 unwind label %lpad200

invoke.cont452:                                   ; preds = %cond.end449
  invoke void @_ZNSt6vectorIN4cvc58internal12NodeTemplateILb1EEESaIS3_EE9push_backEOS3_(ptr noundef nonnull align 8 dereferenceable(24) %arrayidx450, ptr noundef nonnull align 8 dereferenceable(8) %ref.tmp451)
          to label %invoke.cont454 unwind label %lpad453

invoke.cont454:                                   ; preds = %invoke.cont452
  call void @_ZN4cvc58internal12NodeTemplateILb1EED2Ev(ptr noundef nonnull align 8 dereferenceable(8) %ref.tmp451) #3
  %arrayidx456 = getelementptr inbounds [2 x %"class.std::vector.9"], ptr %subs, i64 0, i64 1
  invoke void @_ZNK4cvc58internal12NodeTemplateILb1EEixEi(ptr sret(%"class.cvc5::internal::NodeTemplate") align 8 %ref.tmp457, ptr noundef nonnull align 8 dereferenceable(8) %conclusionTermEq, i32 noundef 1)
          to label %invoke.cont458 unwind label %lpad200

invoke.cont458:                                   ; preds = %invoke.cont454
  invoke void @_ZNSt6vectorIN4cvc58internal12NodeTemplateILb1EEESaIS3_EE9push_backEOS3_(ptr noundef nonnull align 8 dereferenceable(24) %arrayidx456, ptr noundef nonnull align 8 dereferenceable(8) %ref.tmp457)
          to label %invoke.cont460 unwind label %lpad459

invoke.cont460:                                   ; preds = %invoke.cont458
  call void @_ZN4cvc58internal12NodeTemplateILb1EED2Ev(ptr noundef nonnull align 8 dereferenceable(8) %ref.tmp457) #3
  store i32 0, ptr %i462, align 4
  br label %for.cond463

for.cond463:                                      ; preds = %for.inc743, %invoke.cont460
  %184 = load i32, ptr %i462, align 4
  %cmp464 = icmp ult i32 %184, 2
  br i1 %cmp464, label %for.body465, label %for.end745

for.body465:                                      ; preds = %for.cond463
  %call467 = call ptr @_ZNSt6vectorIN4cvc58internal12NodeTemplateILb1EEESaIS3_EE5beginEv(ptr noundef nonnull align 8 dereferenceable(24) %expansionPremises) #3
  %coerce.dive = getelementptr inbounds %"class.__gnu_cxx::__normal_iterator", ptr %agg.tmp466, i32 0, i32 0
  store ptr %call467, ptr %coerce.dive, align 8
  %call469 = call ptr @_ZNSt6vectorIN4cvc58internal12NodeTemplateILb1EEESaIS3_EE3endEv(ptr noundef nonnull align 8 dereferenceable(24) %expansionPremises) #3
  %coerce.dive470 = getelementptr inbounds %"class.__gnu_cxx::__normal_iterator", ptr %agg.tmp468, i32 0, i32 0
  store ptr %call469, ptr %coerce.dive470, align 8
  call void @_ZNSaIN4cvc58internal12NodeTemplateILb1EEEEC2Ev(ptr noundef nonnull align 1 dereferenceable(1) %ref.tmp471) #3
  %coerce.dive472 = getelementptr inbounds %"class.__gnu_cxx::__normal_iterator", ptr %agg.tmp466, i32 0, i32 0
  %185 = load ptr, ptr %coerce.dive472, align 8
  %coerce.dive473 = getelementptr inbounds %"class.__gnu_cxx::__normal_iterator", ptr %agg.tmp468, i32 0, i32 0
  %186 = load ptr, ptr %coerce.dive473, align 8
  invoke void @_ZNSt6vectorIN4cvc58internal12NodeTemplateILb1EEESaIS3_EEC2IN9__gnu_cxx17__normal_iteratorIPS3_S5_EEvEET_SB_RKS4_(ptr noundef nonnull align 8 dereferenceable(24) %copy1ofExpPremises, ptr %185, ptr %186, ptr noundef nonnull align 1 dereferenceable(1) %ref.tmp471)
          to label %invoke.cont475 unwind label %lpad474

invoke.cont475:                                   ; preds = %for.body465
  call void @_ZNSaIN4cvc58internal12NodeTemplateILb1EEEED2Ev(ptr noundef nonnull align 1 dereferenceable(1) %ref.tmp471) #3
  %arrayidx477 = getelementptr inbounds [2 x %"class.std::vector.9"], ptr %subs, i64 0, i64 0
  %call478 = call noundef nonnull align 8 dereferenceable(8) ptr @_ZNSt6vectorIN4cvc58internal12NodeTemplateILb1EEESaIS3_EEixEm(ptr noundef nonnull align 8 dereferenceable(24) %arrayidx477, i64 noundef 0) #3
  %arrayidx479 = getelementptr inbounds [2 x %"class.std::vector.9"], ptr %subs, i64 0, i64 0
  %call480 = call noundef nonnull align 8 dereferenceable(8) ptr @_ZNSt6vectorIN4cvc58internal12NodeTemplateILb1EEESaIS3_EEixEm(ptr noundef nonnull align 8 dereferenceable(24) %arrayidx479, i64 noundef 1) #3
  invoke void @_ZNK4cvc58internal12NodeTemplateILb1EE6eqNodeILb1EEES2_RKNS1_IXT_EEE(ptr sret(%"class.cvc5::internal::NodeTemplate") align 8 %transConclusion1, ptr noundef nonnull align 8 dereferenceable(8) %call478, ptr noundef nonnull align 8 dereferenceable(8) %call480)
          to label %invoke.cont482 unwind label %lpad481

invoke.cont482:                                   ; preds = %invoke.cont475
  invoke void @_ZN4cvc58internal12NodeTemplateILb1EEC2ERKS2_(ptr noundef nonnull align 8 dereferenceable(8) %agg.tmp483, ptr noundef nonnull align 8 dereferenceable(8) %transConclusion1)
          to label %invoke.cont485 unwind label %lpad484

invoke.cont485:                                   ; preds = %invoke.cont482
  %call488 = invoke noundef zeroext i1 @_ZNK4cvc58internal6theory2eq7EqProof22buildTransitivityChainENS0_12NodeTemplateILb1EEERSt6vectorIS5_SaIS5_EE(ptr noundef nonnull align 8 dereferenceable(40) %this1, ptr noundef %agg.tmp483, ptr noundef nonnull align 8 dereferenceable(24) %copy1ofExpPremises)
          to label %invoke.cont487 unwind label %lpad486

invoke.cont487:                                   ; preds = %invoke.cont485
  %lnot = xor i1 %call488, true
  call void @_ZN4cvc58internal12NodeTemplateILb1EED2Ev(ptr noundef nonnull align 8 dereferenceable(8) %agg.tmp483) #3
  br i1 %lnot, label %if.then490, label %if.end574

if.then490:                                       ; preds = %invoke.cont487
  %187 = load i32, ptr %i462, align 4
  %cmp491 = icmp eq i32 %187, 0
  %lnot492 = xor i1 %cmp491, true
  %lnot493 = xor i1 %lnot492, true
  store i1 false, ptr %cleanup.cond501, align 1
  store i1 false, ptr %cleanup.cond517, align 1
  store i1 false, ptr %cleanup.cond529, align 1
  br i1 %lnot493, label %cond.true495, label %cond.false496

cond.true495:                                     ; preds = %if.then490
  br label %cond.end536

cond.false496:                                    ; preds = %if.then490
  invoke void @_ZN4cvc58internal13OstreamVoiderC2Ev(ptr noundef nonnull align 1 dereferenceable(1) %ref.tmp497)
          to label %invoke.cont498 unwind label %lpad484

invoke.cont498:                                   ; preds = %cond.false496
  invoke void @_ZN4cvc58internal11FatalStreamC1EPKcS3_i(ptr noundef nonnull align 1 dereferenceable(1) %ref.tmp499, ptr noundef @__PRETTY_FUNCTION__._ZNK4cvc58internal6theory2eq7EqProof34expandTransitivityForDisequalitiesENS0_12NodeTemplateILb1EEERSt6vectorIS5_SaIS5_EEPNS0_7CDProofERSt13unordered_setIS5_St4hashIS5_ESt8equal_toIS5_ES7_E, ptr noundef @.str.21, i32 noundef 304)
          to label %invoke.cont500 unwind label %lpad484

invoke.cont500:                                   ; preds = %invoke.cont498
  store i1 true, ptr %cleanup.cond501, align 1
  %call504 = invoke noundef nonnull align 8 dereferenceable(8) ptr @_ZN4cvc58internal11FatalStream6streamEv(ptr noundef nonnull align 1 dereferenceable(1) %ref.tmp499)
          to label %invoke.cont503 unwind label %lpad502

invoke.cont503:                                   ; preds = %invoke.cont500
  %call506 = invoke noundef nonnull align 8 dereferenceable(8) ptr @_ZStlsISt11char_traitsIcEERSt13basic_ostreamIcT_ES5_PKc(ptr noundef nonnull align 8 dereferenceable(8) %call504, ptr noundef @.str.22)
          to label %invoke.cont505 unwind label %lpad502

invoke.cont505:                                   ; preds = %invoke.cont503
  %call508 = invoke noundef nonnull align 8 dereferenceable(8) ptr @_ZStlsISt11char_traitsIcEERSt13basic_ostreamIcT_ES5_PKc(ptr noundef nonnull align 8 dereferenceable(8) %call506, ptr noundef @.str.23)
          to label %invoke.cont507 unwind label %lpad502

invoke.cont507:                                   ; preds = %invoke.cont505
  %call510 = invoke noundef nonnull align 8 dereferenceable(8) ptr @_ZStlsISt11char_traitsIcEERSt13basic_ostreamIcT_ES5_PKc(ptr noundef nonnull align 8 dereferenceable(8) %call508, ptr noundef @.str.7)
          to label %invoke.cont509 unwind label %lpad502

invoke.cont509:                                   ; preds = %invoke.cont507
  %call512 = invoke noundef nonnull align 8 dereferenceable(8) ptr @_ZStlsISt11char_traitsIcEERSt13basic_ostreamIcT_ES5_PKc(ptr noundef nonnull align 8 dereferenceable(8) %call510, ptr noundef @.str.24)
          to label %invoke.cont511 unwind label %lpad502

invoke.cont511:                                   ; preds = %invoke.cont509
  %188 = load ptr, ptr %premises.addr, align 8
  %189 = load i32, ptr %offending, align 4
  %conv514 = zext i32 %189 to i64
  %call515 = call noundef nonnull align 8 dereferenceable(8) ptr @_ZNSt6vectorIN4cvc58internal12NodeTemplateILb1EEESaIS3_EEixEm(ptr noundef nonnull align 8 dereferenceable(24) %188, i64 noundef %conv514) #3
  invoke void @_ZN4cvc58internal12NodeTemplateILb0EEC2ERKNS1_ILb1EEE(ptr noundef nonnull align 8 dereferenceable(8) %agg.tmp513, ptr noundef nonnull align 8 dereferenceable(8) %call515)
          to label %invoke.cont516 unwind label %lpad502

invoke.cont516:                                   ; preds = %invoke.cont511
  store i1 true, ptr %cleanup.cond517, align 1
  %call520 = invoke noundef nonnull align 8 dereferenceable(8) ptr @_ZN4cvc58internallsERSoNS0_12NodeTemplateILb0EEE(ptr noundef nonnull align 8 dereferenceable(8) %call512, ptr noundef %agg.tmp513)
          to label %invoke.cont519 unwind label %lpad518

invoke.cont519:                                   ; preds = %invoke.cont516
  %call522 = invoke noundef nonnull align 8 dereferenceable(8) ptr @_ZStlsISt11char_traitsIcEERSt13basic_ostreamIcT_ES5_PKc(ptr noundef nonnull align 8 dereferenceable(8) %call520, ptr noundef @.str.25)
          to label %invoke.cont521 unwind label %lpad518

invoke.cont521:                                   ; preds = %invoke.cont519
  %call524 = invoke noundef nonnull align 8 dereferenceable(8) ptr @_ZN4cvc58internallsILb1EEERSoS2_RKSt6vectorINS0_12NodeTemplateIXT_EEESaIS5_EE(ptr noundef nonnull align 8 dereferenceable(8) %call522, ptr noundef nonnull align 8 dereferenceable(24) %expansionPremises)
          to label %invoke.cont523 unwind label %lpad518

invoke.cont523:                                   ; preds = %invoke.cont521
  %call526 = invoke noundef nonnull align 8 dereferenceable(8) ptr @_ZStlsISt11char_traitsIcEERSt13basic_ostreamIcT_ES5_PKc(ptr noundef nonnull align 8 dereferenceable(8) %call524, ptr noundef @.str.26)
          to label %invoke.cont525 unwind label %lpad518

invoke.cont525:                                   ; preds = %invoke.cont523
  invoke void @_ZN4cvc58internal12NodeTemplateILb0EEC2ERKNS1_ILb1EEE(ptr noundef nonnull align 8 dereferenceable(8) %agg.tmp527, ptr noundef nonnull align 8 dereferenceable(8) %conclusion)
          to label %invoke.cont528 unwind label %lpad518

invoke.cont528:                                   ; preds = %invoke.cont525
  store i1 true, ptr %cleanup.cond529, align 1
  %call532 = invoke noundef nonnull align 8 dereferenceable(8) ptr @_ZN4cvc58internallsERSoNS0_12NodeTemplateILb0EEE(ptr noundef nonnull align 8 dereferenceable(8) %call526, ptr noundef %agg.tmp527)
          to label %invoke.cont531 unwind label %lpad530

invoke.cont531:                                   ; preds = %invoke.cont528
  %call534 = invoke noundef nonnull align 8 dereferenceable(8) ptr @_ZStlsISt11char_traitsIcEERSt13basic_ostreamIcT_ES5_PKc(ptr noundef nonnull align 8 dereferenceable(8) %call532, ptr noundef @.str.7)
          to label %invoke.cont533 unwind label %lpad530

invoke.cont533:                                   ; preds = %invoke.cont531
  invoke void @_ZN4cvc58internal13OstreamVoideranERSo(ptr noundef nonnull align 1 dereferenceable(1) %ref.tmp497, ptr noundef nonnull align 8 dereferenceable(8) %call534)
          to label %invoke.cont535 unwind label %lpad530

invoke.cont535:                                   ; preds = %invoke.cont533
  br label %cond.end536

cond.end536:                                      ; preds = %invoke.cont535, %cond.true495
  %cleanup.is_active537 = load i1, ptr %cleanup.cond529, align 1
  br i1 %cleanup.is_active537, label %cleanup.action538, label %cleanup.done539

cleanup.action538:                                ; preds = %cond.end536
  call void @_ZN4cvc58internal12NodeTemplateILb0EED2Ev(ptr noundef nonnull align 8 dereferenceable(8) %agg.tmp527) #3
  br label %cleanup.done539

cleanup.done539:                                  ; preds = %cleanup.action538, %cond.end536
  %cleanup.is_active544 = load i1, ptr %cleanup.cond517, align 1
  br i1 %cleanup.is_active544, label %cleanup.action545, label %cleanup.done546

cleanup.action545:                                ; preds = %cleanup.done539
  call void @_ZN4cvc58internal12NodeTemplateILb0EED2Ev(ptr noundef nonnull align 8 dereferenceable(8) %agg.tmp513) #3
  br label %cleanup.done546

cleanup.done546:                                  ; preds = %cleanup.action545, %cleanup.done539
  %cleanup.is_active551 = load i1, ptr %cleanup.cond501, align 1
  br i1 %cleanup.is_active551, label %cleanup.action552, label %cleanup.done553

cleanup.action552:                                ; preds = %cleanup.done546
  call void @_ZN4cvc58internal11FatalStreamD1Ev(ptr noundef nonnull align 1 dereferenceable(1) %ref.tmp499) #15
  unreachable

lpad453:                                          ; preds = %invoke.cont452
  %190 = landingpad { ptr, i32 }
          cleanup
  %191 = extractvalue { ptr, i32 } %190, 0
  store ptr %191, ptr %exn.slot, align 8
  %192 = extractvalue { ptr, i32 } %190, 1
  store i32 %192, ptr %ehselector.slot, align 4
  call void @_ZN4cvc58internal12NodeTemplateILb1EED2Ev(ptr noundef nonnull align 8 dereferenceable(8) %ref.tmp451) #3
  br label %ehcleanup803

lpad459:                                          ; preds = %invoke.cont458
  %193 = landingpad { ptr, i32 }
          cleanup
  %194 = extractvalue { ptr, i32 } %193, 0
  store ptr %194, ptr %exn.slot, align 8
  %195 = extractvalue { ptr, i32 } %193, 1
  store i32 %195, ptr %ehselector.slot, align 4
  call void @_ZN4cvc58internal12NodeTemplateILb1EED2Ev(ptr noundef nonnull align 8 dereferenceable(8) %ref.tmp457) #3
  br label %ehcleanup803

lpad474:                                          ; preds = %for.body465
  %196 = landingpad { ptr, i32 }
          cleanup
  %197 = extractvalue { ptr, i32 } %196, 0
  store ptr %197, ptr %exn.slot, align 8
  %198 = extractvalue { ptr, i32 } %196, 1
  store i32 %198, ptr %ehselector.slot, align 4
  call void @_ZNSaIN4cvc58internal12NodeTemplateILb1EEEED2Ev(ptr noundef nonnull align 1 dereferenceable(1) %ref.tmp471) #3
  br label %ehcleanup803

lpad481:                                          ; preds = %invoke.cont475
  %199 = landingpad { ptr, i32 }
          cleanup
  %200 = extractvalue { ptr, i32 } %199, 0
  store ptr %200, ptr %exn.slot, align 8
  %201 = extractvalue { ptr, i32 } %199, 1
  store i32 %201, ptr %ehselector.slot, align 4
  br label %ehcleanup742

lpad484:                                          ; preds = %invoke.cont563, %cleanup.done553, %invoke.cont498, %cond.false496, %invoke.cont482
  %202 = landingpad { ptr, i32 }
          cleanup
  %203 = extractvalue { ptr, i32 } %202, 0
  store ptr %203, ptr %exn.slot, align 8
  %204 = extractvalue { ptr, i32 } %202, 1
  store i32 %204, ptr %ehselector.slot, align 4
  br label %ehcleanup740

lpad486:                                          ; preds = %invoke.cont485
  %205 = landingpad { ptr, i32 }
          cleanup
  %206 = extractvalue { ptr, i32 } %205, 0
  store ptr %206, ptr %exn.slot, align 8
  %207 = extractvalue { ptr, i32 } %205, 1
  store i32 %207, ptr %ehselector.slot, align 4
  call void @_ZN4cvc58internal12NodeTemplateILb1EED2Ev(ptr noundef nonnull align 8 dereferenceable(8) %agg.tmp483) #3
  br label %ehcleanup740

lpad502:                                          ; preds = %invoke.cont511, %invoke.cont509, %invoke.cont507, %invoke.cont505, %invoke.cont503, %invoke.cont500
  %208 = landingpad { ptr, i32 }
          cleanup
  %209 = extractvalue { ptr, i32 } %208, 0
  store ptr %209, ptr %exn.slot, align 8
  %210 = extractvalue { ptr, i32 } %208, 1
  store i32 %210, ptr %ehselector.slot, align 4
  br label %ehcleanup554

lpad518:                                          ; preds = %invoke.cont525, %invoke.cont523, %invoke.cont521, %invoke.cont519, %invoke.cont516
  %211 = landingpad { ptr, i32 }
          cleanup
  %212 = extractvalue { ptr, i32 } %211, 0
  store ptr %212, ptr %exn.slot, align 8
  %213 = extractvalue { ptr, i32 } %211, 1
  store i32 %213, ptr %ehselector.slot, align 4
  br label %ehcleanup547

lpad530:                                          ; preds = %invoke.cont533, %invoke.cont531, %invoke.cont528
  %214 = landingpad { ptr, i32 }
          cleanup
  %215 = extractvalue { ptr, i32 } %214, 0
  store ptr %215, ptr %exn.slot, align 8
  %216 = extractvalue { ptr, i32 } %214, 1
  store i32 %216, ptr %ehselector.slot, align 4
  %cleanup.is_active541 = load i1, ptr %cleanup.cond529, align 1
  br i1 %cleanup.is_active541, label %cleanup.action542, label %cleanup.done543

cleanup.action542:                                ; preds = %lpad530
  call void @_ZN4cvc58internal12NodeTemplateILb0EED2Ev(ptr noundef nonnull align 8 dereferenceable(8) %agg.tmp527) #3
  br label %cleanup.done543

cleanup.done543:                                  ; preds = %cleanup.action542, %lpad530
  br label %ehcleanup547

ehcleanup547:                                     ; preds = %cleanup.done543, %lpad518
  %cleanup.is_active548 = load i1, ptr %cleanup.cond517, align 1
  br i1 %cleanup.is_active548, label %cleanup.action549, label %cleanup.done550

cleanup.action549:                                ; preds = %ehcleanup547
  call void @_ZN4cvc58internal12NodeTemplateILb0EED2Ev(ptr noundef nonnull align 8 dereferenceable(8) %agg.tmp513) #3
  br label %cleanup.done550

cleanup.done550:                                  ; preds = %cleanup.action549, %ehcleanup547
  br label %ehcleanup554

217:                                              ; No predecessors!
  br label %cleanup.done553

cleanup.done553:                                  ; preds = %217, %cleanup.done546
  invoke void @_ZNK4cvc58internal12NodeTemplateILb1EEixEi(ptr sret(%"class.cvc5::internal::NodeTemplate") align 8 %ref.tmp558, ptr noundef nonnull align 8 dereferenceable(8) %conclusionTermEq, i32 noundef 1)
          to label %invoke.cont559 unwind label %lpad484

invoke.cont559:                                   ; preds = %cleanup.done553
  %arrayidx560 = getelementptr inbounds [2 x %"class.std::vector.9"], ptr %subs, i64 0, i64 0
  %call561 = call noundef nonnull align 8 dereferenceable(8) ptr @_ZNSt6vectorIN4cvc58internal12NodeTemplateILb1EEESaIS3_EEixEm(ptr noundef nonnull align 8 dereferenceable(24) %arrayidx560, i64 noundef 1) #3
  %call564 = invoke noundef nonnull align 8 dereferenceable(8) ptr @_ZN4cvc58internal12NodeTemplateILb1EEaSERKS2_(ptr noundef nonnull align 8 dereferenceable(8) %call561, ptr noundef nonnull align 8 dereferenceable(8) %ref.tmp558)
          to label %invoke.cont563 unwind label %lpad562

invoke.cont563:                                   ; preds = %invoke.cont559
  call void @_ZN4cvc58internal12NodeTemplateILb1EED2Ev(ptr noundef nonnull align 8 dereferenceable(8) %ref.tmp558) #3
  invoke void @_ZNK4cvc58internal12NodeTemplateILb1EEixEi(ptr sret(%"class.cvc5::internal::NodeTemplate") align 8 %ref.tmp566, ptr noundef nonnull align 8 dereferenceable(8) %conclusionTermEq, i32 noundef 0)
          to label %invoke.cont567 unwind label %lpad484

invoke.cont567:                                   ; preds = %invoke.cont563
  %arrayidx568 = getelementptr inbounds [2 x %"class.std::vector.9"], ptr %subs, i64 0, i64 1
  %call569 = call noundef nonnull align 8 dereferenceable(8) ptr @_ZNSt6vectorIN4cvc58internal12NodeTemplateILb1EEESaIS3_EEixEm(ptr noundef nonnull align 8 dereferenceable(24) %arrayidx568, i64 noundef 1) #3
  %call572 = invoke noundef nonnull align 8 dereferenceable(8) ptr @_ZN4cvc58internal12NodeTemplateILb1EEaSERKS2_(ptr noundef nonnull align 8 dereferenceable(8) %call569, ptr noundef nonnull align 8 dereferenceable(8) %ref.tmp566)
          to label %invoke.cont571 unwind label %lpad570

invoke.cont571:                                   ; preds = %invoke.cont567
  call void @_ZN4cvc58internal12NodeTemplateILb1EED2Ev(ptr noundef nonnull align 8 dereferenceable(8) %ref.tmp566) #3
  store i8 0, ptr %substConclusionInReverseOrder, align 1
  store i32 28, ptr %cleanup.dest.slot, align 4
  br label %cleanup

ehcleanup554:                                     ; preds = %cleanup.done550, %lpad502
  %cleanup.is_active555 = load i1, ptr %cleanup.cond501, align 1
  br i1 %cleanup.is_active555, label %cleanup.action556, label %cleanup.done557

cleanup.action556:                                ; preds = %ehcleanup554
  call void @_ZN4cvc58internal11FatalStreamD1Ev(ptr noundef nonnull align 1 dereferenceable(1) %ref.tmp499) #15
  unreachable

218:                                              ; No predecessors!
  br label %cleanup.done557

cleanup.done557:                                  ; preds = %218, %ehcleanup554
  br label %ehcleanup740

lpad562:                                          ; preds = %invoke.cont559
  %219 = landingpad { ptr, i32 }
          cleanup
  %220 = extractvalue { ptr, i32 } %219, 0
  store ptr %220, ptr %exn.slot, align 8
  %221 = extractvalue { ptr, i32 } %219, 1
  store i32 %221, ptr %ehselector.slot, align 4
  call void @_ZN4cvc58internal12NodeTemplateILb1EED2Ev(ptr noundef nonnull align 8 dereferenceable(8) %ref.tmp558) #3
  br label %ehcleanup740

lpad570:                                          ; preds = %invoke.cont567
  %222 = landingpad { ptr, i32 }
          cleanup
  %223 = extractvalue { ptr, i32 } %222, 0
  store ptr %223, ptr %exn.slot, align 8
  %224 = extractvalue { ptr, i32 } %222, 1
  store i32 %224, ptr %ehselector.slot, align 4
  call void @_ZN4cvc58internal12NodeTemplateILb1EED2Ev(ptr noundef nonnull align 8 dereferenceable(8) %ref.tmp566) #3
  br label %ehcleanup740

if.end574:                                        ; preds = %invoke.cont487
  %call576 = call ptr @_ZNSt6vectorIN4cvc58internal12NodeTemplateILb1EEESaIS3_EE5beginEv(ptr noundef nonnull align 8 dereferenceable(24) %expansionPremises) #3
  %coerce.dive577 = getelementptr inbounds %"class.__gnu_cxx::__normal_iterator", ptr %agg.tmp575, i32 0, i32 0
  store ptr %call576, ptr %coerce.dive577, align 8
  %call579 = call ptr @_ZNSt6vectorIN4cvc58internal12NodeTemplateILb1EEESaIS3_EE3endEv(ptr noundef nonnull align 8 dereferenceable(24) %expansionPremises) #3
  %coerce.dive580 = getelementptr inbounds %"class.__gnu_cxx::__normal_iterator", ptr %agg.tmp578, i32 0, i32 0
  store ptr %call579, ptr %coerce.dive580, align 8
  call void @_ZNSaIN4cvc58internal12NodeTemplateILb1EEEEC2Ev(ptr noundef nonnull align 1 dereferenceable(1) %ref.tmp581) #3
  %coerce.dive582 = getelementptr inbounds %"class.__gnu_cxx::__normal_iterator", ptr %agg.tmp575, i32 0, i32 0
  %225 = load ptr, ptr %coerce.dive582, align 8
  %coerce.dive583 = getelementptr inbounds %"class.__gnu_cxx::__normal_iterator", ptr %agg.tmp578, i32 0, i32 0
  %226 = load ptr, ptr %coerce.dive583, align 8
  invoke void @_ZNSt6vectorIN4cvc58internal12NodeTemplateILb1EEESaIS3_EEC2IN9__gnu_cxx17__normal_iteratorIPS3_S5_EEvEET_SB_RKS4_(ptr noundef nonnull align 8 dereferenceable(24) %copy2ofExpPremises, ptr %225, ptr %226, ptr noundef nonnull align 1 dereferenceable(1) %ref.tmp581)
          to label %invoke.cont585 unwind label %lpad584

invoke.cont585:                                   ; preds = %if.end574
  call void @_ZNSaIN4cvc58internal12NodeTemplateILb1EEEED2Ev(ptr noundef nonnull align 1 dereferenceable(1) %ref.tmp581) #3
  %arrayidx587 = getelementptr inbounds [2 x %"class.std::vector.9"], ptr %subs, i64 0, i64 1
  %call588 = call noundef nonnull align 8 dereferenceable(8) ptr @_ZNSt6vectorIN4cvc58internal12NodeTemplateILb1EEESaIS3_EEixEm(ptr noundef nonnull align 8 dereferenceable(24) %arrayidx587, i64 noundef 0) #3
  %arrayidx589 = getelementptr inbounds [2 x %"class.std::vector.9"], ptr %subs, i64 0, i64 1
  %call590 = call noundef nonnull align 8 dereferenceable(8) ptr @_ZNSt6vectorIN4cvc58internal12NodeTemplateILb1EEESaIS3_EEixEm(ptr noundef nonnull align 8 dereferenceable(24) %arrayidx589, i64 noundef 1) #3
  invoke void @_ZNK4cvc58internal12NodeTemplateILb1EE6eqNodeILb1EEES2_RKNS1_IXT_EEE(ptr sret(%"class.cvc5::internal::NodeTemplate") align 8 %transConclusion2, ptr noundef nonnull align 8 dereferenceable(8) %call588, ptr noundef nonnull align 8 dereferenceable(8) %call590)
          to label %invoke.cont592 unwind label %lpad591

invoke.cont592:                                   ; preds = %invoke.cont585
  invoke void @_ZN4cvc58internal12NodeTemplateILb1EEC2ERKS2_(ptr noundef nonnull align 8 dereferenceable(8) %agg.tmp593, ptr noundef nonnull align 8 dereferenceable(8) %transConclusion2)
          to label %invoke.cont595 unwind label %lpad594

invoke.cont595:                                   ; preds = %invoke.cont592
  %call598 = invoke noundef zeroext i1 @_ZNK4cvc58internal6theory2eq7EqProof22buildTransitivityChainENS0_12NodeTemplateILb1EEERSt6vectorIS5_SaIS5_EE(ptr noundef nonnull align 8 dereferenceable(40) %this1, ptr noundef %agg.tmp593, ptr noundef nonnull align 8 dereferenceable(24) %copy2ofExpPremises)
          to label %invoke.cont597 unwind label %lpad596

invoke.cont597:                                   ; preds = %invoke.cont595
  %lnot599 = xor i1 %call598, true
  call void @_ZN4cvc58internal12NodeTemplateILb1EED2Ev(ptr noundef nonnull align 8 dereferenceable(8) %agg.tmp593) #3
  br i1 %lnot599, label %if.then601, label %if.end650

if.then601:                                       ; preds = %invoke.cont597
  invoke void @_ZN4cvc58internal11FatalStreamC1EPKcS3_i(ptr noundef nonnull align 1 dereferenceable(1) %ref.tmp602, ptr noundef @__PRETTY_FUNCTION__._ZNK4cvc58internal6theory2eq7EqProof34expandTransitivityForDisequalitiesENS0_12NodeTemplateILb1EEERSt6vectorIS5_SaIS5_EEPNS0_7CDProofERSt13unordered_setIS5_St4hashIS5_ESt8equal_toIS5_ES7_E, ptr noundef @.str.21, i32 noundef 322)
          to label %invoke.cont603 unwind label %lpad594

invoke.cont603:                                   ; preds = %if.then601
  %call606 = invoke noundef nonnull align 8 dereferenceable(8) ptr @_ZN4cvc58internal11FatalStream6streamEv(ptr noundef nonnull align 1 dereferenceable(1) %ref.tmp602)
          to label %invoke.cont605 unwind label %lpad604

invoke.cont605:                                   ; preds = %invoke.cont603
  %call608 = invoke noundef nonnull align 8 dereferenceable(8) ptr @_ZStlsISt11char_traitsIcEERSt13basic_ostreamIcT_ES5_PKc(ptr noundef nonnull align 8 dereferenceable(8) %call606, ptr noundef @.str.27)
          to label %invoke.cont607 unwind label %lpad604

invoke.cont607:                                   ; preds = %invoke.cont605
  %call610 = invoke noundef nonnull align 8 dereferenceable(8) ptr @_ZStlsISt11char_traitsIcEERSt13basic_ostreamIcT_ES5_PKc(ptr noundef nonnull align 8 dereferenceable(8) %call608, ptr noundef @.str.28)
          to label %invoke.cont609 unwind label %lpad604

invoke.cont609:                                   ; preds = %invoke.cont607
  invoke void @_ZN4cvc58internal12NodeTemplateILb0EEC2ERKNS1_ILb1EEE(ptr noundef nonnull align 8 dereferenceable(8) %agg.tmp611, ptr noundef nonnull align 8 dereferenceable(8) %transConclusion1)
          to label %invoke.cont612 unwind label %lpad604

invoke.cont612:                                   ; preds = %invoke.cont609
  %call615 = invoke noundef nonnull align 8 dereferenceable(8) ptr @_ZN4cvc58internallsERSoNS0_12NodeTemplateILb0EEE(ptr noundef nonnull align 8 dereferenceable(8) %call610, ptr noundef %agg.tmp611)
          to label %invoke.cont614 unwind label %lpad613

invoke.cont614:                                   ; preds = %invoke.cont612
  %call617 = invoke noundef nonnull align 8 dereferenceable(8) ptr @_ZStlsISt11char_traitsIcEERSt13basic_ostreamIcT_ES5_PKc(ptr noundef nonnull align 8 dereferenceable(8) %call615, ptr noundef @.str.29)
          to label %invoke.cont616 unwind label %lpad613

invoke.cont616:                                   ; preds = %invoke.cont614
  invoke void @_ZN4cvc58internal12NodeTemplateILb0EEC2ERKNS1_ILb1EEE(ptr noundef nonnull align 8 dereferenceable(8) %agg.tmp618, ptr noundef nonnull align 8 dereferenceable(8) %transConclusion2)
          to label %invoke.cont619 unwind label %lpad613

invoke.cont619:                                   ; preds = %invoke.cont616
  %call622 = invoke noundef nonnull align 8 dereferenceable(8) ptr @_ZN4cvc58internallsERSoNS0_12NodeTemplateILb0EEE(ptr noundef nonnull align 8 dereferenceable(8) %call617, ptr noundef %agg.tmp618)
          to label %invoke.cont621 unwind label %lpad620

invoke.cont621:                                   ; preds = %invoke.cont619
  %call624 = invoke noundef nonnull align 8 dereferenceable(8) ptr @_ZStlsISt11char_traitsIcEERSt13basic_ostreamIcT_ES5_PKc(ptr noundef nonnull align 8 dereferenceable(8) %call622, ptr noundef @.str.30)
          to label %invoke.cont623 unwind label %lpad620

invoke.cont623:                                   ; preds = %invoke.cont621
  %227 = load ptr, ptr %premises.addr, align 8
  %228 = load i32, ptr %offending, align 4
  %conv626 = zext i32 %228 to i64
  %call627 = call noundef nonnull align 8 dereferenceable(8) ptr @_ZNSt6vectorIN4cvc58internal12NodeTemplateILb1EEESaIS3_EEixEm(ptr noundef nonnull align 8 dereferenceable(24) %227, i64 noundef %conv626) #3
  invoke void @_ZN4cvc58internal12NodeTemplateILb0EEC2ERKNS1_ILb1EEE(ptr noundef nonnull align 8 dereferenceable(8) %agg.tmp625, ptr noundef nonnull align 8 dereferenceable(8) %call627)
          to label %invoke.cont628 unwind label %lpad620

invoke.cont628:                                   ; preds = %invoke.cont623
  %call631 = invoke noundef nonnull align 8 dereferenceable(8) ptr @_ZN4cvc58internallsERSoNS0_12NodeTemplateILb0EEE(ptr noundef nonnull align 8 dereferenceable(8) %call624, ptr noundef %agg.tmp625)
          to label %invoke.cont630 unwind label %lpad629

invoke.cont630:                                   ; preds = %invoke.cont628
  %call633 = invoke noundef nonnull align 8 dereferenceable(8) ptr @_ZStlsISt11char_traitsIcEERSt13basic_ostreamIcT_ES5_PKc(ptr noundef nonnull align 8 dereferenceable(8) %call631, ptr noundef @.str.25)
          to label %invoke.cont632 unwind label %lpad629

invoke.cont632:                                   ; preds = %invoke.cont630
  %call635 = invoke noundef nonnull align 8 dereferenceable(8) ptr @_ZN4cvc58internallsILb1EEERSoS2_RKSt6vectorINS0_12NodeTemplateIXT_EEESaIS5_EE(ptr noundef nonnull align 8 dereferenceable(8) %call633, ptr noundef nonnull align 8 dereferenceable(24) %expansionPremises)
          to label %invoke.cont634 unwind label %lpad629

invoke.cont634:                                   ; preds = %invoke.cont632
  %call637 = invoke noundef nonnull align 8 dereferenceable(8) ptr @_ZStlsISt11char_traitsIcEERSt13basic_ostreamIcT_ES5_PKc(ptr noundef nonnull align 8 dereferenceable(8) %call635, ptr noundef @.str.26)
          to label %invoke.cont636 unwind label %lpad629

invoke.cont636:                                   ; preds = %invoke.cont634
  invoke void @_ZN4cvc58internal12NodeTemplateILb0EEC2ERKNS1_ILb1EEE(ptr noundef nonnull align 8 dereferenceable(8) %agg.tmp638, ptr noundef nonnull align 8 dereferenceable(8) %conclusion)
          to label %invoke.cont639 unwind label %lpad629

invoke.cont639:                                   ; preds = %invoke.cont636
  %call642 = invoke noundef nonnull align 8 dereferenceable(8) ptr @_ZN4cvc58internallsERSoNS0_12NodeTemplateILb0EEE(ptr noundef nonnull align 8 dereferenceable(8) %call637, ptr noundef %agg.tmp638)
          to label %invoke.cont641 unwind label %lpad640

invoke.cont641:                                   ; preds = %invoke.cont639
  %call644 = invoke noundef nonnull align 8 dereferenceable(8) ptr @_ZStlsISt11char_traitsIcEERSt13basic_ostreamIcT_ES5_PKc(ptr noundef nonnull align 8 dereferenceable(8) %call642, ptr noundef @.str.7)
          to label %invoke.cont643 unwind label %lpad640

invoke.cont643:                                   ; preds = %invoke.cont641
  call void @_ZN4cvc58internal12NodeTemplateILb0EED2Ev(ptr noundef nonnull align 8 dereferenceable(8) %agg.tmp638) #3
  call void @_ZN4cvc58internal12NodeTemplateILb0EED2Ev(ptr noundef nonnull align 8 dereferenceable(8) %agg.tmp625) #3
  call void @_ZN4cvc58internal12NodeTemplateILb0EED2Ev(ptr noundef nonnull align 8 dereferenceable(8) %agg.tmp618) #3
  call void @_ZN4cvc58internal12NodeTemplateILb0EED2Ev(ptr noundef nonnull align 8 dereferenceable(8) %agg.tmp611) #3
  call void @_ZN4cvc58internal11FatalStreamD1Ev(ptr noundef nonnull align 1 dereferenceable(1) %ref.tmp602) #15
  unreachable

lpad584:                                          ; preds = %if.end574
  %229 = landingpad { ptr, i32 }
          cleanup
  %230 = extractvalue { ptr, i32 } %229, 0
  store ptr %230, ptr %exn.slot, align 8
  %231 = extractvalue { ptr, i32 } %229, 1
  store i32 %231, ptr %ehselector.slot, align 4
  call void @_ZNSaIN4cvc58internal12NodeTemplateILb1EEEED2Ev(ptr noundef nonnull align 1 dereferenceable(1) %ref.tmp581) #3
  br label %ehcleanup740

lpad591:                                          ; preds = %invoke.cont585
  %232 = landingpad { ptr, i32 }
          cleanup
  %233 = extractvalue { ptr, i32 } %232, 0
  store ptr %233, ptr %exn.slot, align 8
  %234 = extractvalue { ptr, i32 } %232, 1
  store i32 %234, ptr %ehselector.slot, align 4
  br label %ehcleanup739

lpad594:                                          ; preds = %if.then728, %land.lhs.true724, %if.then712, %land.lhs.true708, %invoke.cont701, %invoke.cont699, %invoke.cont697, %invoke.cont695, %invoke.cont694, %cond.false691, %cond.true688, %cond.end684, %invoke.cont680, %invoke.cont678, %invoke.cont676, %invoke.cont674, %invoke.cont673, %cond.false670, %cond.true667, %cond.end663, %invoke.cont660, %cond.false657, %cond.true654, %if.end650, %if.then601, %invoke.cont592
  %235 = landingpad { ptr, i32 }
          cleanup
  %236 = extractvalue { ptr, i32 } %235, 0
  store ptr %236, ptr %exn.slot, align 8
  %237 = extractvalue { ptr, i32 } %235, 1
  store i32 %237, ptr %ehselector.slot, align 4
  br label %ehcleanup738

lpad596:                                          ; preds = %invoke.cont595
  %238 = landingpad { ptr, i32 }
          cleanup
  %239 = extractvalue { ptr, i32 } %238, 0
  store ptr %239, ptr %exn.slot, align 8
  %240 = extractvalue { ptr, i32 } %238, 1
  store i32 %240, ptr %ehselector.slot, align 4
  call void @_ZN4cvc58internal12NodeTemplateILb1EED2Ev(ptr noundef nonnull align 8 dereferenceable(8) %agg.tmp593) #3
  br label %ehcleanup738

lpad604:                                          ; preds = %invoke.cont609, %invoke.cont607, %invoke.cont605, %invoke.cont603
  %241 = landingpad { ptr, i32 }
          cleanup
  %242 = extractvalue { ptr, i32 } %241, 0
  store ptr %242, ptr %exn.slot, align 8
  %243 = extractvalue { ptr, i32 } %241, 1
  store i32 %243, ptr %ehselector.slot, align 4
  br label %ehcleanup649

lpad613:                                          ; preds = %invoke.cont616, %invoke.cont614, %invoke.cont612
  %244 = landingpad { ptr, i32 }
          cleanup
  %245 = extractvalue { ptr, i32 } %244, 0
  store ptr %245, ptr %exn.slot, align 8
  %246 = extractvalue { ptr, i32 } %244, 1
  store i32 %246, ptr %ehselector.slot, align 4
  br label %ehcleanup648

lpad620:                                          ; preds = %invoke.cont623, %invoke.cont621, %invoke.cont619
  %247 = landingpad { ptr, i32 }
          cleanup
  %248 = extractvalue { ptr, i32 } %247, 0
  store ptr %248, ptr %exn.slot, align 8
  %249 = extractvalue { ptr, i32 } %247, 1
  store i32 %249, ptr %ehselector.slot, align 4
  br label %ehcleanup647

lpad629:                                          ; preds = %invoke.cont636, %invoke.cont634, %invoke.cont632, %invoke.cont630, %invoke.cont628
  %250 = landingpad { ptr, i32 }
          cleanup
  %251 = extractvalue { ptr, i32 } %250, 0
  store ptr %251, ptr %exn.slot, align 8
  %252 = extractvalue { ptr, i32 } %250, 1
  store i32 %252, ptr %ehselector.slot, align 4
  br label %ehcleanup646

lpad640:                                          ; preds = %invoke.cont641, %invoke.cont639
  %253 = landingpad { ptr, i32 }
          cleanup
  %254 = extractvalue { ptr, i32 } %253, 0
  store ptr %254, ptr %exn.slot, align 8
  %255 = extractvalue { ptr, i32 } %253, 1
  store i32 %255, ptr %ehselector.slot, align 4
  call void @_ZN4cvc58internal12NodeTemplateILb0EED2Ev(ptr noundef nonnull align 8 dereferenceable(8) %agg.tmp638) #3
  br label %ehcleanup646

ehcleanup646:                                     ; preds = %lpad640, %lpad629
  call void @_ZN4cvc58internal12NodeTemplateILb0EED2Ev(ptr noundef nonnull align 8 dereferenceable(8) %agg.tmp625) #3
  br label %ehcleanup647

ehcleanup647:                                     ; preds = %ehcleanup646, %lpad620
  call void @_ZN4cvc58internal12NodeTemplateILb0EED2Ev(ptr noundef nonnull align 8 dereferenceable(8) %agg.tmp618) #3
  br label %ehcleanup648

ehcleanup648:                                     ; preds = %ehcleanup647, %lpad613
  call void @_ZN4cvc58internal12NodeTemplateILb0EED2Ev(ptr noundef nonnull align 8 dereferenceable(8) %agg.tmp611) #3
  br label %ehcleanup649

ehcleanup649:                                     ; preds = %ehcleanup648, %lpad604
  call void @_ZN4cvc58internal11FatalStreamD1Ev(ptr noundef nonnull align 1 dereferenceable(1) %ref.tmp602) #15
  unreachable

256:                                              ; No predecessors!
  br label %ehcleanup738

if.end650:                                        ; preds = %invoke.cont597
  %call653 = invoke noundef zeroext i1 @_ZN4cvc58internal11__cvc5_truecvbEv(ptr noundef nonnull align 1 dereferenceable(1) %ref.tmp651)
          to label %invoke.cont652 unwind label %lpad594

invoke.cont652:                                   ; preds = %if.end650
  br i1 %call653, label %cond.true654, label %cond.false657

cond.true654:                                     ; preds = %invoke.cont652
  invoke void @_ZNK4cvc58internal5NullCcvNS0_11Cvc5ostreamEEv(ptr sret(%"class.cvc5::internal::Cvc5ostream") align 8 %tmp655, ptr noundef nonnull align 1 dereferenceable(1) @_ZN4cvc58internal10nullStreamE)
          to label %invoke.cont656 unwind label %lpad594

invoke.cont656:                                   ; preds = %cond.true654
  br label %cond.end663

cond.false657:                                    ; preds = %invoke.cont652
  invoke void @_ZNK4cvc58internal6TraceCclEv(ptr sret(%"class.cvc5::internal::Cvc5ostream") align 8 %ref.tmp659, ptr noundef nonnull align 8 dereferenceable(32) @_ZN4cvc58internal12TraceChannelE)
          to label %invoke.cont660 unwind label %lpad594

invoke.cont660:                                   ; preds = %cond.false657
  %call662 = invoke noundef nonnull align 8 dereferenceable(24) ptr @_ZN4cvc58internal11Cvc5ostreamlsIA107_cEERS1_RKT_(ptr noundef nonnull align 8 dereferenceable(24) %ref.tmp659, ptr noundef nonnull align 1 dereferenceable(107) @.str.31)
          to label %invoke.cont661 unwind label %lpad594

invoke.cont661:                                   ; preds = %invoke.cont660
  call void @llvm.memcpy.p0.p0.i64(ptr align 8 %agg.tmp.ensured658, ptr align 8 %call662, i64 24, i1 false)
  br label %cond.end663

cond.end663:                                      ; preds = %invoke.cont661, %invoke.cont656
  %call666 = invoke noundef zeroext i1 @_ZN4cvc58internal11__cvc5_truecvbEv(ptr noundef nonnull align 1 dereferenceable(1) %ref.tmp664)
          to label %invoke.cont665 unwind label %lpad594

invoke.cont665:                                   ; preds = %cond.end663
  br i1 %call666, label %cond.true667, label %cond.false670

cond.true667:                                     ; preds = %invoke.cont665
  invoke void @_ZNK4cvc58internal5NullCcvNS0_11Cvc5ostreamEEv(ptr sret(%"class.cvc5::internal::Cvc5ostream") align 8 %tmp668, ptr noundef nonnull align 1 dereferenceable(1) @_ZN4cvc58internal10nullStreamE)
          to label %invoke.cont669 unwind label %lpad594

invoke.cont669:                                   ; preds = %cond.true667
  br label %cond.end684

cond.false670:                                    ; preds = %invoke.cont665
  invoke void @_ZNK4cvc58internal6TraceCclEv(ptr sret(%"class.cvc5::internal::Cvc5ostream") align 8 %ref.tmp672, ptr noundef nonnull align 8 dereferenceable(32) @_ZN4cvc58internal12TraceChannelE)
          to label %invoke.cont673 unwind label %lpad594

invoke.cont673:                                   ; preds = %cond.false670
  %call675 = invoke noundef nonnull align 8 dereferenceable(24) ptr @_ZN4cvc58internal11Cvc5ostreamlsIA46_cEERS1_RKT_(ptr noundef nonnull align 8 dereferenceable(24) %ref.tmp672, ptr noundef nonnull align 1 dereferenceable(46) @.str.32)
          to label %invoke.cont674 unwind label %lpad594

invoke.cont674:                                   ; preds = %invoke.cont673
  %call677 = invoke noundef nonnull align 8 dereferenceable(24) ptr @_ZN4cvc58internal11Cvc5ostreamlsINS0_12NodeTemplateILb1EEEEERS1_RKT_(ptr noundef nonnull align 8 dereferenceable(24) %call675, ptr noundef nonnull align 8 dereferenceable(8) %transConclusion1)
          to label %invoke.cont676 unwind label %lpad594

invoke.cont676:                                   ; preds = %invoke.cont674
  %call679 = invoke noundef nonnull align 8 dereferenceable(24) ptr @_ZN4cvc58internal11Cvc5ostreamlsIA5_cEERS1_RKT_(ptr noundef nonnull align 8 dereferenceable(24) %call677, ptr noundef nonnull align 1 dereferenceable(5) @.str.33)
          to label %invoke.cont678 unwind label %lpad594

invoke.cont678:                                   ; preds = %invoke.cont676
  %call681 = invoke noundef nonnull align 8 dereferenceable(24) ptr @_ZN4cvc58internal11Cvc5ostreamlsISt6vectorINS0_12NodeTemplateILb1EEESaIS5_EEEERS1_RKT_(ptr noundef nonnull align 8 dereferenceable(24) %call679, ptr noundef nonnull align 8 dereferenceable(24) %copy1ofExpPremises)
          to label %invoke.cont680 unwind label %lpad594

invoke.cont680:                                   ; preds = %invoke.cont678
  %call683 = invoke noundef nonnull align 8 dereferenceable(24) ptr @_ZN4cvc58internal11Cvc5ostreamlsIA2_cEERS1_RKT_(ptr noundef nonnull align 8 dereferenceable(24) %call681, ptr noundef nonnull align 1 dereferenceable(2) @.str.7)
          to label %invoke.cont682 unwind label %lpad594

invoke.cont682:                                   ; preds = %invoke.cont680
  call void @llvm.memcpy.p0.p0.i64(ptr align 8 %agg.tmp.ensured671, ptr align 8 %call683, i64 24, i1 false)
  br label %cond.end684

cond.end684:                                      ; preds = %invoke.cont682, %invoke.cont669
  %call687 = invoke noundef zeroext i1 @_ZN4cvc58internal11__cvc5_truecvbEv(ptr noundef nonnull align 1 dereferenceable(1) %ref.tmp685)
          to label %invoke.cont686 unwind label %lpad594

invoke.cont686:                                   ; preds = %cond.end684
  br i1 %call687, label %cond.true688, label %cond.false691

cond.true688:                                     ; preds = %invoke.cont686
  invoke void @_ZNK4cvc58internal5NullCcvNS0_11Cvc5ostreamEEv(ptr sret(%"class.cvc5::internal::Cvc5ostream") align 8 %tmp689, ptr noundef nonnull align 1 dereferenceable(1) @_ZN4cvc58internal10nullStreamE)
          to label %invoke.cont690 unwind label %lpad594

invoke.cont690:                                   ; preds = %cond.true688
  br label %cond.end705

cond.false691:                                    ; preds = %invoke.cont686
  invoke void @_ZNK4cvc58internal6TraceCclEv(ptr sret(%"class.cvc5::internal::Cvc5ostream") align 8 %ref.tmp693, ptr noundef nonnull align 8 dereferenceable(32) @_ZN4cvc58internal12TraceChannelE)
          to label %invoke.cont694 unwind label %lpad594

invoke.cont694:                                   ; preds = %cond.false691
  %call696 = invoke noundef nonnull align 8 dereferenceable(24) ptr @_ZN4cvc58internal11Cvc5ostreamlsIA46_cEERS1_RKT_(ptr noundef nonnull align 8 dereferenceable(24) %ref.tmp693, ptr noundef nonnull align 1 dereferenceable(46) @.str.32)
          to label %invoke.cont695 unwind label %lpad594

invoke.cont695:                                   ; preds = %invoke.cont694
  %call698 = invoke noundef nonnull align 8 dereferenceable(24) ptr @_ZN4cvc58internal11Cvc5ostreamlsINS0_12NodeTemplateILb1EEEEERS1_RKT_(ptr noundef nonnull align 8 dereferenceable(24) %call696, ptr noundef nonnull align 8 dereferenceable(8) %transConclusion2)
          to label %invoke.cont697 unwind label %lpad594

invoke.cont697:                                   ; preds = %invoke.cont695
  %call700 = invoke noundef nonnull align 8 dereferenceable(24) ptr @_ZN4cvc58internal11Cvc5ostreamlsIA5_cEERS1_RKT_(ptr noundef nonnull align 8 dereferenceable(24) %call698, ptr noundef nonnull align 1 dereferenceable(5) @.str.33)
          to label %invoke.cont699 unwind label %lpad594

invoke.cont699:                                   ; preds = %invoke.cont697
  %call702 = invoke noundef nonnull align 8 dereferenceable(24) ptr @_ZN4cvc58internal11Cvc5ostreamlsISt6vectorINS0_12NodeTemplateILb1EEESaIS5_EEEERS1_RKT_(ptr noundef nonnull align 8 dereferenceable(24) %call700, ptr noundef nonnull align 8 dereferenceable(24) %copy2ofExpPremises)
          to label %invoke.cont701 unwind label %lpad594

invoke.cont701:                                   ; preds = %invoke.cont699
  %call704 = invoke noundef nonnull align 8 dereferenceable(24) ptr @_ZN4cvc58internal11Cvc5ostreamlsIA2_cEERS1_RKT_(ptr noundef nonnull align 8 dereferenceable(24) %call702, ptr noundef nonnull align 1 dereferenceable(2) @.str.7)
          to label %invoke.cont703 unwind label %lpad594

invoke.cont703:                                   ; preds = %invoke.cont701
  call void @llvm.memcpy.p0.p0.i64(ptr align 8 %agg.tmp.ensured692, ptr align 8 %call704, i64 24, i1 false)
  br label %cond.end705

cond.end705:                                      ; preds = %invoke.cont703, %invoke.cont690
  %call706 = call noundef i64 @_ZNKSt6vectorIN4cvc58internal12NodeTemplateILb1EEESaIS3_EE4sizeEv(ptr noundef nonnull align 8 dereferenceable(24) %copy1ofExpPremises) #3
  %cmp707 = icmp ugt i64 %call706, 1
  br i1 %cmp707, label %land.lhs.true708, label %if.end721

land.lhs.true708:                                 ; preds = %cond.end705
  %257 = load ptr, ptr %assumptions.addr, align 8
  %call710 = invoke noundef i64 @_ZNKSt13unordered_setIN4cvc58internal12NodeTemplateILb1EEESt4hashIS3_ESt8equal_toIS3_ESaIS3_EE5countERKS3_(ptr noundef nonnull align 8 dereferenceable(56) %257, ptr noundef nonnull align 8 dereferenceable(8) %transConclusion1)
          to label %invoke.cont709 unwind label %lpad594

invoke.cont709:                                   ; preds = %land.lhs.true708
  %tobool711 = icmp ne i64 %call710, 0
  br i1 %tobool711, label %if.end721, label %if.then712

if.then712:                                       ; preds = %invoke.cont709
  %258 = load ptr, ptr %p.addr, align 8
  invoke void @_ZN4cvc58internal12NodeTemplateILb1EEC2ERKS2_(ptr noundef nonnull align 8 dereferenceable(8) %agg.tmp713, ptr noundef nonnull align 8 dereferenceable(8) %transConclusion1)
          to label %invoke.cont714 unwind label %lpad594

invoke.cont714:                                   ; preds = %if.then712
  call void @llvm.memset.p0.i64(ptr align 8 %ref.tmp715, i8 0, i64 24, i1 false)
  call void @_ZNSt6vectorIN4cvc58internal12NodeTemplateILb1EEESaIS3_EEC2Ev(ptr noundef nonnull align 8 dereferenceable(24) %ref.tmp715) #3
  %call718 = invoke noundef zeroext i1 @_ZN4cvc58internal7CDProof7addStepENS0_12NodeTemplateILb1EEENS_9ProofRuleERKSt6vectorIS3_SaIS3_EES9_bNS0_12CDPOverwriteE(ptr noundef nonnull align 8 dereferenceable(217) %258, ptr noundef %agg.tmp713, i32 noundef 69, ptr noundef nonnull align 8 dereferenceable(24) %copy1ofExpPremises, ptr noundef nonnull align 8 dereferenceable(24) %ref.tmp715, i1 noundef zeroext true, i32 noundef 1)
          to label %invoke.cont717 unwind label %lpad716

invoke.cont717:                                   ; preds = %invoke.cont714
  call void @_ZNSt6vectorIN4cvc58internal12NodeTemplateILb1EEESaIS3_EED2Ev(ptr noundef nonnull align 8 dereferenceable(24) %ref.tmp715) #3
  call void @_ZN4cvc58internal12NodeTemplateILb1EED2Ev(ptr noundef nonnull align 8 dereferenceable(8) %agg.tmp713) #3
  br label %if.end721

lpad716:                                          ; preds = %invoke.cont714
  %259 = landingpad { ptr, i32 }
          cleanup
  %260 = extractvalue { ptr, i32 } %259, 0
  store ptr %260, ptr %exn.slot, align 8
  %261 = extractvalue { ptr, i32 } %259, 1
  store i32 %261, ptr %ehselector.slot, align 4
  call void @_ZNSt6vectorIN4cvc58internal12NodeTemplateILb1EEESaIS3_EED2Ev(ptr noundef nonnull align 8 dereferenceable(24) %ref.tmp715) #3
  call void @_ZN4cvc58internal12NodeTemplateILb1EED2Ev(ptr noundef nonnull align 8 dereferenceable(8) %agg.tmp713) #3
  br label %ehcleanup738

if.end721:                                        ; preds = %invoke.cont717, %invoke.cont709, %cond.end705
  %call722 = call noundef i64 @_ZNKSt6vectorIN4cvc58internal12NodeTemplateILb1EEESaIS3_EE4sizeEv(ptr noundef nonnull align 8 dereferenceable(24) %copy2ofExpPremises) #3
  %cmp723 = icmp ugt i64 %call722, 1
  br i1 %cmp723, label %land.lhs.true724, label %if.end737

land.lhs.true724:                                 ; preds = %if.end721
  %262 = load ptr, ptr %assumptions.addr, align 8
  %call726 = invoke noundef i64 @_ZNKSt13unordered_setIN4cvc58internal12NodeTemplateILb1EEESt4hashIS3_ESt8equal_toIS3_ESaIS3_EE5countERKS3_(ptr noundef nonnull align 8 dereferenceable(56) %262, ptr noundef nonnull align 8 dereferenceable(8) %transConclusion2)
          to label %invoke.cont725 unwind label %lpad594

invoke.cont725:                                   ; preds = %land.lhs.true724
  %tobool727 = icmp ne i64 %call726, 0
  br i1 %tobool727, label %if.end737, label %if.then728

if.then728:                                       ; preds = %invoke.cont725
  %263 = load ptr, ptr %p.addr, align 8
  invoke void @_ZN4cvc58internal12NodeTemplateILb1EEC2ERKS2_(ptr noundef nonnull align 8 dereferenceable(8) %agg.tmp729, ptr noundef nonnull align 8 dereferenceable(8) %transConclusion2)
          to label %invoke.cont730 unwind label %lpad594

invoke.cont730:                                   ; preds = %if.then728
  call void @llvm.memset.p0.i64(ptr align 8 %ref.tmp731, i8 0, i64 24, i1 false)
  call void @_ZNSt6vectorIN4cvc58internal12NodeTemplateILb1EEESaIS3_EEC2Ev(ptr noundef nonnull align 8 dereferenceable(24) %ref.tmp731) #3
  %call734 = invoke noundef zeroext i1 @_ZN4cvc58internal7CDProof7addStepENS0_12NodeTemplateILb1EEENS_9ProofRuleERKSt6vectorIS3_SaIS3_EES9_bNS0_12CDPOverwriteE(ptr noundef nonnull align 8 dereferenceable(217) %263, ptr noundef %agg.tmp729, i32 noundef 69, ptr noundef nonnull align 8 dereferenceable(24) %copy2ofExpPremises, ptr noundef nonnull align 8 dereferenceable(24) %ref.tmp731, i1 noundef zeroext true, i32 noundef 1)
          to label %invoke.cont733 unwind label %lpad732

invoke.cont733:                                   ; preds = %invoke.cont730
  call void @_ZNSt6vectorIN4cvc58internal12NodeTemplateILb1EEESaIS3_EED2Ev(ptr noundef nonnull align 8 dereferenceable(24) %ref.tmp731) #3
  call void @_ZN4cvc58internal12NodeTemplateILb1EED2Ev(ptr noundef nonnull align 8 dereferenceable(8) %agg.tmp729) #3
  br label %if.end737

lpad732:                                          ; preds = %invoke.cont730
  %264 = landingpad { ptr, i32 }
          cleanup
  %265 = extractvalue { ptr, i32 } %264, 0
  store ptr %265, ptr %exn.slot, align 8
  %266 = extractvalue { ptr, i32 } %264, 1
  store i32 %266, ptr %ehselector.slot, align 4
  call void @_ZNSt6vectorIN4cvc58internal12NodeTemplateILb1EEESaIS3_EED2Ev(ptr noundef nonnull align 8 dereferenceable(24) %ref.tmp731) #3
  call void @_ZN4cvc58internal12NodeTemplateILb1EED2Ev(ptr noundef nonnull align 8 dereferenceable(8) %agg.tmp729) #3
  br label %ehcleanup738

if.end737:                                        ; preds = %invoke.cont733, %invoke.cont725, %if.end721
  call void @_ZN4cvc58internal12NodeTemplateILb1EED2Ev(ptr noundef nonnull align 8 dereferenceable(8) %transConclusion2) #3
  call void @_ZNSt6vectorIN4cvc58internal12NodeTemplateILb1EEESaIS3_EED2Ev(ptr noundef nonnull align 8 dereferenceable(24) %copy2ofExpPremises) #3
  store i32 0, ptr %cleanup.dest.slot, align 4
  br label %cleanup

cleanup:                                          ; preds = %if.end737, %invoke.cont571
  call void @_ZN4cvc58internal12NodeTemplateILb1EED2Ev(ptr noundef nonnull align 8 dereferenceable(8) %transConclusion1) #3
  call void @_ZNSt6vectorIN4cvc58internal12NodeTemplateILb1EEESaIS3_EED2Ev(ptr noundef nonnull align 8 dereferenceable(24) %copy1ofExpPremises) #3
  %cleanup.dest = load i32, ptr %cleanup.dest.slot, align 4
  switch i32 %cleanup.dest, label %unreachable [
    i32 0, label %cleanup.cont
    i32 28, label %for.inc743
  ]

cleanup.cont:                                     ; preds = %cleanup
  br label %for.inc743

for.inc743:                                       ; preds = %cleanup.cont, %cleanup
  %267 = load i32, ptr %i462, align 4
  %inc744 = add i32 %267, 1
  store i32 %inc744, ptr %i462, align 4
  br label %for.cond463, !llvm.loop !26

ehcleanup738:                                     ; preds = %lpad732, %lpad716, %256, %lpad596, %lpad594
  call void @_ZN4cvc58internal12NodeTemplateILb1EED2Ev(ptr noundef nonnull align 8 dereferenceable(8) %transConclusion2) #3
  br label %ehcleanup739

ehcleanup739:                                     ; preds = %ehcleanup738, %lpad591
  call void @_ZNSt6vectorIN4cvc58internal12NodeTemplateILb1EEESaIS3_EED2Ev(ptr noundef nonnull align 8 dereferenceable(24) %copy2ofExpPremises) #3
  br label %ehcleanup740

ehcleanup740:                                     ; preds = %ehcleanup739, %lpad584, %lpad570, %lpad562, %cleanup.done557, %lpad486, %lpad484
  call void @_ZN4cvc58internal12NodeTemplateILb1EED2Ev(ptr noundef nonnull align 8 dereferenceable(8) %transConclusion1) #3
  br label %ehcleanup742

ehcleanup742:                                     ; preds = %ehcleanup740, %lpad481
  call void @_ZNSt6vectorIN4cvc58internal12NodeTemplateILb1EEESaIS3_EED2Ev(ptr noundef nonnull align 8 dereferenceable(24) %copy1ofExpPremises) #3
  br label %ehcleanup803

for.end745:                                       ; preds = %for.cond463
  br label %if.end746

if.end746:                                        ; preds = %for.end745, %for.end431
  br label %if.end747

if.end747:                                        ; preds = %if.end746, %arraydestroy.done317
  %call750 = invoke noundef zeroext i1 @_ZN4cvc58internal11__cvc5_truecvbEv(ptr noundef nonnull align 1 dereferenceable(1) %ref.tmp748)
          to label %invoke.cont749 unwind label %lpad200

invoke.cont749:                                   ; preds = %if.end747
  br i1 %call750, label %cond.true751, label %cond.false754

cond.true751:                                     ; preds = %invoke.cont749
  invoke void @_ZNK4cvc58internal5NullCcvNS0_11Cvc5ostreamEEv(ptr sret(%"class.cvc5::internal::Cvc5ostream") align 8 %tmp752, ptr noundef nonnull align 1 dereferenceable(1) @_ZN4cvc58internal10nullStreamE)
          to label %invoke.cont753 unwind label %lpad200

invoke.cont753:                                   ; preds = %cond.true751
  br label %cond.end778

cond.false754:                                    ; preds = %invoke.cont749
  invoke void @_ZNK4cvc58internal6TraceCclEv(ptr sret(%"class.cvc5::internal::Cvc5ostream") align 8 %ref.tmp756, ptr noundef nonnull align 8 dereferenceable(32) @_ZN4cvc58internal12TraceChannelE)
          to label %invoke.cont757 unwind label %lpad200

invoke.cont757:                                   ; preds = %cond.false754
  %call759 = invoke noundef nonnull align 8 dereferenceable(24) ptr @_ZN4cvc58internal11Cvc5ostreamlsIA66_cEERS1_RKT_(ptr noundef nonnull align 8 dereferenceable(24) %ref.tmp756, ptr noundef nonnull align 1 dereferenceable(66) @.str.34)
          to label %invoke.cont758 unwind label %lpad200

invoke.cont758:                                   ; preds = %invoke.cont757
  %arrayidx760 = getelementptr inbounds [2 x %"class.std::vector.9"], ptr %subs, i64 0, i64 0
  %call762 = invoke noundef nonnull align 8 dereferenceable(24) ptr @_ZN4cvc58internal11Cvc5ostreamlsISt6vectorINS0_12NodeTemplateILb1EEESaIS5_EEEERS1_RKT_(ptr noundef nonnull align 8 dereferenceable(24) %call759, ptr noundef nonnull align 8 dereferenceable(24) %arrayidx760)
          to label %invoke.cont761 unwind label %lpad200

invoke.cont761:                                   ; preds = %invoke.cont758
  %call764 = invoke noundef nonnull align 8 dereferenceable(24) ptr @_ZN4cvc58internal11Cvc5ostreamlsIA6_cEERS1_RKT_(ptr noundef nonnull align 8 dereferenceable(24) %call762, ptr noundef nonnull align 1 dereferenceable(6) @.str.18)
          to label %invoke.cont763 unwind label %lpad200

invoke.cont763:                                   ; preds = %invoke.cont761
  %arrayidx765 = getelementptr inbounds [2 x %"class.std::vector.9"], ptr %subs, i64 0, i64 1
  %call767 = invoke noundef nonnull align 8 dereferenceable(24) ptr @_ZN4cvc58internal11Cvc5ostreamlsISt6vectorINS0_12NodeTemplateILb1EEESaIS5_EEEERS1_RKT_(ptr noundef nonnull align 8 dereferenceable(24) %call764, ptr noundef nonnull align 8 dereferenceable(24) %arrayidx765)
          to label %invoke.cont766 unwind label %lpad200

invoke.cont766:                                   ; preds = %invoke.cont763
  %call769 = invoke noundef nonnull align 8 dereferenceable(24) ptr @_ZN4cvc58internal11Cvc5ostreamlsIA9_cEERS1_RKT_(ptr noundef nonnull align 8 dereferenceable(24) %call767, ptr noundef nonnull align 1 dereferenceable(9) @.str.35)
          to label %invoke.cont768 unwind label %lpad200

invoke.cont768:                                   ; preds = %invoke.cont766
  %call771 = invoke noundef nonnull align 8 dereferenceable(24) ptr @_ZN4cvc58internal11Cvc5ostreamlsINS0_12NodeTemplateILb1EEEEERS1_RKT_(ptr noundef nonnull align 8 dereferenceable(24) %call769, ptr noundef nonnull align 8 dereferenceable(8) %premiseTermEq)
          to label %invoke.cont770 unwind label %lpad200

invoke.cont770:                                   ; preds = %invoke.cont768
  %call773 = invoke noundef nonnull align 8 dereferenceable(24) ptr @_ZN4cvc58internal11Cvc5ostreamlsIA5_cEERS1_RKT_(ptr noundef nonnull align 8 dereferenceable(24) %call771, ptr noundef nonnull align 1 dereferenceable(5) @.str.36)
          to label %invoke.cont772 unwind label %lpad200

invoke.cont772:                                   ; preds = %invoke.cont770
  %call775 = invoke noundef nonnull align 8 dereferenceable(24) ptr @_ZN4cvc58internal11Cvc5ostreamlsINS0_12NodeTemplateILb1EEEEERS1_RKT_(ptr noundef nonnull align 8 dereferenceable(24) %call773, ptr noundef nonnull align 8 dereferenceable(8) %conclusionTermEq)
          to label %invoke.cont774 unwind label %lpad200

invoke.cont774:                                   ; preds = %invoke.cont772
  %call777 = invoke noundef nonnull align 8 dereferenceable(24) ptr @_ZN4cvc58internal11Cvc5ostreamlsIA2_cEERS1_RKT_(ptr noundef nonnull align 8 dereferenceable(24) %call775, ptr noundef nonnull align 1 dereferenceable(2) @.str.7)
          to label %invoke.cont776 unwind label %lpad200

invoke.cont776:                                   ; preds = %invoke.cont774
  call void @llvm.memcpy.p0.p0.i64(ptr align 8 %agg.tmp.ensured755, ptr align 8 %call777, i64 24, i1 false)
  br label %cond.end778

cond.end778:                                      ; preds = %invoke.cont776, %invoke.cont753
  %arrayidx780 = getelementptr inbounds [2 x %"class.std::vector.9"], ptr %subs, i64 0, i64 0
  %call781 = call noundef nonnull align 8 dereferenceable(8) ptr @_ZNSt6vectorIN4cvc58internal12NodeTemplateILb1EEESaIS3_EEixEm(ptr noundef nonnull align 8 dereferenceable(24) %arrayidx780, i64 noundef 1) #3
  %arrayidx782 = getelementptr inbounds [2 x %"class.std::vector.9"], ptr %subs, i64 0, i64 0
  %call783 = call noundef nonnull align 8 dereferenceable(8) ptr @_ZNSt6vectorIN4cvc58internal12NodeTemplateILb1EEESaIS3_EEixEm(ptr noundef nonnull align 8 dereferenceable(24) %arrayidx782, i64 noundef 0) #3
  invoke void @_ZNK4cvc58internal12NodeTemplateILb1EE6eqNodeILb1EEES2_RKNS1_IXT_EEE(ptr sret(%"class.cvc5::internal::NodeTemplate") align 8 %ref.tmp779, ptr noundef nonnull align 8 dereferenceable(8) %call781, ptr noundef nonnull align 8 dereferenceable(8) %call783)
          to label %invoke.cont784 unwind label %lpad200

invoke.cont784:                                   ; preds = %cond.end778
  invoke void @_ZNSt6vectorIN4cvc58internal12NodeTemplateILb1EEESaIS3_EE9push_backEOS3_(ptr noundef nonnull align 8 dereferenceable(24) %substPremises, ptr noundef nonnull align 8 dereferenceable(8) %ref.tmp779)
          to label %invoke.cont786 unwind label %lpad785

invoke.cont786:                                   ; preds = %invoke.cont784
  call void @_ZN4cvc58internal12NodeTemplateILb1EED2Ev(ptr noundef nonnull align 8 dereferenceable(8) %ref.tmp779) #3
  %arrayidx789 = getelementptr inbounds [2 x %"class.std::vector.9"], ptr %subs, i64 0, i64 1
  %call790 = call noundef nonnull align 8 dereferenceable(8) ptr @_ZNSt6vectorIN4cvc58internal12NodeTemplateILb1EEESaIS3_EEixEm(ptr noundef nonnull align 8 dereferenceable(24) %arrayidx789, i64 noundef 1) #3
  %arrayidx791 = getelementptr inbounds [2 x %"class.std::vector.9"], ptr %subs, i64 0, i64 1
  %call792 = call noundef nonnull align 8 dereferenceable(8) ptr @_ZNSt6vectorIN4cvc58internal12NodeTemplateILb1EEESaIS3_EEixEm(ptr noundef nonnull align 8 dereferenceable(24) %arrayidx791, i64 noundef 0) #3
  invoke void @_ZNK4cvc58internal12NodeTemplateILb1EE6eqNodeILb1EEES2_RKNS1_IXT_EEE(ptr sret(%"class.cvc5::internal::NodeTemplate") align 8 %ref.tmp788, ptr noundef nonnull align 8 dereferenceable(8) %call790, ptr noundef nonnull align 8 dereferenceable(8) %call792)
          to label %invoke.cont793 unwind label %lpad200

invoke.cont793:                                   ; preds = %invoke.cont786
  invoke void @_ZNSt6vectorIN4cvc58internal12NodeTemplateILb1EEESaIS3_EE9push_backEOS3_(ptr noundef nonnull align 8 dereferenceable(24) %substPremises, ptr noundef nonnull align 8 dereferenceable(8) %ref.tmp788)
          to label %invoke.cont795 unwind label %lpad794

invoke.cont795:                                   ; preds = %invoke.cont793
  call void @_ZN4cvc58internal12NodeTemplateILb1EED2Ev(ptr noundef nonnull align 8 dereferenceable(8) %ref.tmp788) #3
  %array.begin797 = getelementptr inbounds [2 x %"class.std::vector.9"], ptr %subs, i32 0, i32 0
  %268 = getelementptr inbounds %"class.std::vector.9", ptr %array.begin797, i64 2
  br label %arraydestroy.body798

arraydestroy.body798:                             ; preds = %arraydestroy.body798, %invoke.cont795
  %arraydestroy.elementPast799 = phi ptr [ %268, %invoke.cont795 ], [ %arraydestroy.element800, %arraydestroy.body798 ]
  %arraydestroy.element800 = getelementptr inbounds %"class.std::vector.9", ptr %arraydestroy.elementPast799, i64 -1
  call void @_ZNSt6vectorIN4cvc58internal12NodeTemplateILb1EEESaIS3_EED2Ev(ptr noundef nonnull align 8 dereferenceable(24) %arraydestroy.element800) #3
  %arraydestroy.done801 = icmp eq ptr %arraydestroy.element800, %array.begin797
  br i1 %arraydestroy.done801, label %arraydestroy.done802, label %arraydestroy.body798

arraydestroy.done802:                             ; preds = %arraydestroy.body798
  call void @_ZN4cvc58internal12NodeTemplateILb1EED2Ev(ptr noundef nonnull align 8 dereferenceable(8) %conclusionTermEq) #3
  call void @_ZN4cvc58internal12NodeTemplateILb1EED2Ev(ptr noundef nonnull align 8 dereferenceable(8) %premiseTermEq) #3
  br label %if.end821

lpad785:                                          ; preds = %invoke.cont784
  %269 = landingpad { ptr, i32 }
          cleanup
  %270 = extractvalue { ptr, i32 } %269, 0
  store ptr %270, ptr %exn.slot, align 8
  %271 = extractvalue { ptr, i32 } %269, 1
  store i32 %271, ptr %ehselector.slot, align 4
  call void @_ZN4cvc58internal12NodeTemplateILb1EED2Ev(ptr noundef nonnull align 8 dereferenceable(8) %ref.tmp779) #3
  br label %ehcleanup803

lpad794:                                          ; preds = %invoke.cont793
  %272 = landingpad { ptr, i32 }
          cleanup
  %273 = extractvalue { ptr, i32 } %272, 0
  store ptr %273, ptr %exn.slot, align 8
  %274 = extractvalue { ptr, i32 } %272, 1
  store i32 %274, ptr %ehselector.slot, align 4
  call void @_ZN4cvc58internal12NodeTemplateILb1EED2Ev(ptr noundef nonnull align 8 dereferenceable(8) %ref.tmp788) #3
  br label %ehcleanup803

ehcleanup803:                                     ; preds = %lpad794, %lpad785, %ehcleanup742, %lpad474, %lpad459, %lpad453, %ehcleanup428, %lpad408, %ehcleanup399, %cleanup.done373, %ehcleanup325, %lpad265, %lpad242, %lpad233, %ehcleanup228, %lpad208, %lpad202, %lpad200
  %array.begin804 = getelementptr inbounds [2 x %"class.std::vector.9"], ptr %subs, i32 0, i32 0
  %275 = getelementptr inbounds %"class.std::vector.9", ptr %array.begin804, i64 2
  br label %arraydestroy.body805

arraydestroy.body805:                             ; preds = %arraydestroy.body805, %ehcleanup803
  %arraydestroy.elementPast806 = phi ptr [ %275, %ehcleanup803 ], [ %arraydestroy.element807, %arraydestroy.body805 ]
  %arraydestroy.element807 = getelementptr inbounds %"class.std::vector.9", ptr %arraydestroy.elementPast806, i64 -1
  call void @_ZNSt6vectorIN4cvc58internal12NodeTemplateILb1EEESaIS3_EED2Ev(ptr noundef nonnull align 8 dereferenceable(24) %arraydestroy.element807) #3
  %arraydestroy.done808 = icmp eq ptr %arraydestroy.element807, %array.begin804
  br i1 %arraydestroy.done808, label %arraydestroy.done809, label %arraydestroy.body805

arraydestroy.done809:                             ; preds = %arraydestroy.body805
  br label %ehcleanup810

ehcleanup810:                                     ; preds = %arraydestroy.done809, %lpad178
  call void @_ZN4cvc58internal12NodeTemplateILb1EED2Ev(ptr noundef nonnull align 8 dereferenceable(8) %conclusionTermEq) #3
  br label %ehcleanup811

ehcleanup811:                                     ; preds = %ehcleanup810, %lpad175
  call void @_ZN4cvc58internal12NodeTemplateILb1EED2Ev(ptr noundef nonnull align 8 dereferenceable(8) %premiseTermEq) #3
  br label %ehcleanup1344

if.else812:                                       ; preds = %invoke.cont102
  %276 = load ptr, ptr %premises.addr, align 8
  %277 = load i32, ptr %offending, align 4
  %conv814 = zext i32 %277 to i64
  %call815 = call noundef nonnull align 8 dereferenceable(8) ptr @_ZNSt6vectorIN4cvc58internal12NodeTemplateILb1EEESaIS3_EEixEm(ptr noundef nonnull align 8 dereferenceable(24) %276, i64 noundef %conv814) #3
  %278 = load i32, ptr %termPos, align 4
  invoke void @_ZNK4cvc58internal12NodeTemplateILb1EEixEi(ptr sret(%"class.cvc5::internal::NodeTemplate") align 8 %ref.tmp813, ptr noundef nonnull align 8 dereferenceable(8) %call815, i32 noundef %278)
          to label %invoke.cont816 unwind label %lpad92

invoke.cont816:                                   ; preds = %if.else812
  %call819 = invoke noundef nonnull align 8 dereferenceable(8) ptr @_ZN4cvc58internal12NodeTemplateILb1EEaSERKS2_(ptr noundef nonnull align 8 dereferenceable(8) %expansionConclusion, ptr noundef nonnull align 8 dereferenceable(8) %ref.tmp813)
          to label %invoke.cont818 unwind label %lpad817

invoke.cont818:                                   ; preds = %invoke.cont816
  call void @_ZN4cvc58internal12NodeTemplateILb1EED2Ev(ptr noundef nonnull align 8 dereferenceable(8) %ref.tmp813) #3
  br label %if.end821

lpad817:                                          ; preds = %invoke.cont816
  %279 = landingpad { ptr, i32 }
          cleanup
  %280 = extractvalue { ptr, i32 } %279, 0
  store ptr %280, ptr %exn.slot, align 8
  %281 = extractvalue { ptr, i32 } %279, 1
  store i32 %281, ptr %ehselector.slot, align 4
  call void @_ZN4cvc58internal12NodeTemplateILb1EED2Ev(ptr noundef nonnull align 8 dereferenceable(8) %ref.tmp813) #3
  br label %ehcleanup1344

if.end821:                                        ; preds = %invoke.cont818, %arraydestroy.done802
  %call823 = invoke noundef zeroext i1 @_ZNK4cvc58internal12NodeTemplateILb1EE6isNullEv(ptr noundef nonnull align 8 dereferenceable(8) %expansionConclusion)
          to label %invoke.cont822 unwind label %lpad92

invoke.cont822:                                   ; preds = %if.end821
  br i1 %call823, label %if.end889, label %if.then824

if.then824:                                       ; preds = %invoke.cont822
  %call827 = invoke noundef zeroext i1 @_ZN4cvc58internal11__cvc5_truecvbEv(ptr noundef nonnull align 1 dereferenceable(1) %ref.tmp825)
          to label %invoke.cont826 unwind label %lpad92

invoke.cont826:                                   ; preds = %if.then824
  br i1 %call827, label %cond.true828, label %cond.false831

cond.true828:                                     ; preds = %invoke.cont826
  invoke void @_ZNK4cvc58internal5NullCcvNS0_11Cvc5ostreamEEv(ptr sret(%"class.cvc5::internal::Cvc5ostream") align 8 %tmp829, ptr noundef nonnull align 1 dereferenceable(1) @_ZN4cvc58internal10nullStreamE)
          to label %invoke.cont830 unwind label %lpad92

invoke.cont830:                                   ; preds = %cond.true828
  br label %cond.end845

cond.false831:                                    ; preds = %invoke.cont826
  invoke void @_ZNK4cvc58internal6TraceCclEv(ptr sret(%"class.cvc5::internal::Cvc5ostream") align 8 %ref.tmp833, ptr noundef nonnull align 8 dereferenceable(32) @_ZN4cvc58internal12TraceChannelE)
          to label %invoke.cont834 unwind label %lpad92

invoke.cont834:                                   ; preds = %cond.false831
  %call836 = invoke noundef nonnull align 8 dereferenceable(24) ptr @_ZN4cvc58internal11Cvc5ostreamlsIA61_cEERS1_RKT_(ptr noundef nonnull align 8 dereferenceable(24) %ref.tmp833, ptr noundef nonnull align 1 dereferenceable(61) @.str.37)
          to label %invoke.cont835 unwind label %lpad92

invoke.cont835:                                   ; preds = %invoke.cont834
  %call838 = invoke noundef nonnull align 8 dereferenceable(24) ptr @_ZN4cvc58internal11Cvc5ostreamlsINS0_12NodeTemplateILb1EEEEERS1_RKT_(ptr noundef nonnull align 8 dereferenceable(24) %call836, ptr noundef nonnull align 8 dereferenceable(8) %expansionConclusion)
          to label %invoke.cont837 unwind label %lpad92

invoke.cont837:                                   ; preds = %invoke.cont835
  %call840 = invoke noundef nonnull align 8 dereferenceable(24) ptr @_ZN4cvc58internal11Cvc5ostreamlsIA16_cEERS1_RKT_(ptr noundef nonnull align 8 dereferenceable(24) %call838, ptr noundef nonnull align 1 dereferenceable(16) @.str.38)
          to label %invoke.cont839 unwind label %lpad92

invoke.cont839:                                   ; preds = %invoke.cont837
  %call842 = invoke noundef nonnull align 8 dereferenceable(24) ptr @_ZN4cvc58internal11Cvc5ostreamlsISt6vectorINS0_12NodeTemplateILb1EEESaIS5_EEEERS1_RKT_(ptr noundef nonnull align 8 dereferenceable(24) %call840, ptr noundef nonnull align 8 dereferenceable(24) %expansionPremises)
          to label %invoke.cont841 unwind label %lpad92

invoke.cont841:                                   ; preds = %invoke.cont839
  %call844 = invoke noundef nonnull align 8 dereferenceable(24) ptr @_ZN4cvc58internal11Cvc5ostreamlsIA2_cEERS1_RKT_(ptr noundef nonnull align 8 dereferenceable(24) %call842, ptr noundef nonnull align 1 dereferenceable(2) @.str.7)
          to label %invoke.cont843 unwind label %lpad92

invoke.cont843:                                   ; preds = %invoke.cont841
  call void @llvm.memcpy.p0.p0.i64(ptr align 8 %agg.tmp.ensured832, ptr align 8 %call844, i64 24, i1 false)
  br label %cond.end845

cond.end845:                                      ; preds = %invoke.cont843, %invoke.cont830
  %call846 = call noundef i64 @_ZNKSt6vectorIN4cvc58internal12NodeTemplateILb1EEESaIS3_EE4sizeEv(ptr noundef nonnull align 8 dereferenceable(24) %expansionPremises) #3
  %cmp847 = icmp ugt i64 %call846, 1
  br i1 %cmp847, label %land.lhs.true848, label %if.end888

land.lhs.true848:                                 ; preds = %cond.end845
  %282 = load ptr, ptr %assumptions.addr, align 8
  %call850 = invoke noundef i64 @_ZNKSt13unordered_setIN4cvc58internal12NodeTemplateILb1EEESt4hashIS3_ESt8equal_toIS3_ESaIS3_EE5countERKS3_(ptr noundef nonnull align 8 dereferenceable(56) %282, ptr noundef nonnull align 8 dereferenceable(8) %expansionConclusion)
          to label %invoke.cont849 unwind label %lpad92

invoke.cont849:                                   ; preds = %land.lhs.true848
  %tobool851 = icmp ne i64 %call850, 0
  br i1 %tobool851, label %if.end888, label %if.then852

if.then852:                                       ; preds = %invoke.cont849
  invoke void @_ZN4cvc58internal12NodeTemplateILb1EEC2ERKS2_(ptr noundef nonnull align 8 dereferenceable(8) %agg.tmp853, ptr noundef nonnull align 8 dereferenceable(8) %expansionConclusion)
          to label %invoke.cont854 unwind label %lpad92

invoke.cont854:                                   ; preds = %if.then852
  %call857 = invoke noundef zeroext i1 @_ZNK4cvc58internal6theory2eq7EqProof22buildTransitivityChainENS0_12NodeTemplateILb1EEERSt6vectorIS5_SaIS5_EE(ptr noundef nonnull align 8 dereferenceable(40) %this1, ptr noundef %agg.tmp853, ptr noundef nonnull align 8 dereferenceable(24) %expansionPremises)
          to label %invoke.cont856 unwind label %lpad855

invoke.cont856:                                   ; preds = %invoke.cont854
  call void @_ZN4cvc58internal12NodeTemplateILb1EED2Ev(ptr noundef nonnull align 8 dereferenceable(8) %agg.tmp853) #3
  %call861 = invoke noundef zeroext i1 @_ZN4cvc58internal11__cvc5_truecvbEv(ptr noundef nonnull align 1 dereferenceable(1) %ref.tmp859)
          to label %invoke.cont860 unwind label %lpad92

invoke.cont860:                                   ; preds = %invoke.cont856
  br i1 %call861, label %cond.true862, label %cond.false865

cond.true862:                                     ; preds = %invoke.cont860
  invoke void @_ZNK4cvc58internal5NullCcvNS0_11Cvc5ostreamEEv(ptr sret(%"class.cvc5::internal::Cvc5ostream") align 8 %tmp863, ptr noundef nonnull align 1 dereferenceable(1) @_ZN4cvc58internal10nullStreamE)
          to label %invoke.cont864 unwind label %lpad92

invoke.cont864:                                   ; preds = %cond.true862
  br label %cond.end879

cond.false865:                                    ; preds = %invoke.cont860
  invoke void @_ZNK4cvc58internal6TraceCclEv(ptr sret(%"class.cvc5::internal::Cvc5ostream") align 8 %ref.tmp867, ptr noundef nonnull align 8 dereferenceable(32) @_ZN4cvc58internal12TraceChannelE)
          to label %invoke.cont868 unwind label %lpad92

invoke.cont868:                                   ; preds = %cond.false865
  %call870 = invoke noundef nonnull align 8 dereferenceable(24) ptr @_ZN4cvc58internal11Cvc5ostreamlsIA72_cEERS1_RKT_(ptr noundef nonnull align 8 dereferenceable(24) %ref.tmp867, ptr noundef nonnull align 1 dereferenceable(72) @.str.39)
          to label %invoke.cont869 unwind label %lpad92

invoke.cont869:                                   ; preds = %invoke.cont868
  %call872 = invoke noundef nonnull align 8 dereferenceable(24) ptr @_ZN4cvc58internal11Cvc5ostreamlsINS0_12NodeTemplateILb1EEEEERS1_RKT_(ptr noundef nonnull align 8 dereferenceable(24) %call870, ptr noundef nonnull align 8 dereferenceable(8) %expansionConclusion)
          to label %invoke.cont871 unwind label %lpad92

invoke.cont871:                                   ; preds = %invoke.cont869
  %call874 = invoke noundef nonnull align 8 dereferenceable(24) ptr @_ZN4cvc58internal11Cvc5ostreamlsIA16_cEERS1_RKT_(ptr noundef nonnull align 8 dereferenceable(24) %call872, ptr noundef nonnull align 1 dereferenceable(16) @.str.38)
          to label %invoke.cont873 unwind label %lpad92

invoke.cont873:                                   ; preds = %invoke.cont871
  %call876 = invoke noundef nonnull align 8 dereferenceable(24) ptr @_ZN4cvc58internal11Cvc5ostreamlsISt6vectorINS0_12NodeTemplateILb1EEESaIS5_EEEERS1_RKT_(ptr noundef nonnull align 8 dereferenceable(24) %call874, ptr noundef nonnull align 8 dereferenceable(24) %expansionPremises)
          to label %invoke.cont875 unwind label %lpad92

invoke.cont875:                                   ; preds = %invoke.cont873
  %call878 = invoke noundef nonnull align 8 dereferenceable(24) ptr @_ZN4cvc58internal11Cvc5ostreamlsIA2_cEERS1_RKT_(ptr noundef nonnull align 8 dereferenceable(24) %call876, ptr noundef nonnull align 1 dereferenceable(2) @.str.7)
          to label %invoke.cont877 unwind label %lpad92

invoke.cont877:                                   ; preds = %invoke.cont875
  call void @llvm.memcpy.p0.p0.i64(ptr align 8 %agg.tmp.ensured866, ptr align 8 %call878, i64 24, i1 false)
  br label %cond.end879

cond.end879:                                      ; preds = %invoke.cont877, %invoke.cont864
  %283 = load ptr, ptr %p.addr, align 8
  invoke void @_ZN4cvc58internal12NodeTemplateILb1EEC2ERKS2_(ptr noundef nonnull align 8 dereferenceable(8) %agg.tmp880, ptr noundef nonnull align 8 dereferenceable(8) %expansionConclusion)
          to label %invoke.cont881 unwind label %lpad92

invoke.cont881:                                   ; preds = %cond.end879
  call void @llvm.memset.p0.i64(ptr align 8 %ref.tmp882, i8 0, i64 24, i1 false)
  call void @_ZNSt6vectorIN4cvc58internal12NodeTemplateILb1EEESaIS3_EEC2Ev(ptr noundef nonnull align 8 dereferenceable(24) %ref.tmp882) #3
  %call885 = invoke noundef zeroext i1 @_ZN4cvc58internal7CDProof7addStepENS0_12NodeTemplateILb1EEENS_9ProofRuleERKSt6vectorIS3_SaIS3_EES9_bNS0_12CDPOverwriteE(ptr noundef nonnull align 8 dereferenceable(217) %283, ptr noundef %agg.tmp880, i32 noundef 69, ptr noundef nonnull align 8 dereferenceable(24) %expansionPremises, ptr noundef nonnull align 8 dereferenceable(24) %ref.tmp882, i1 noundef zeroext true, i32 noundef 1)
          to label %invoke.cont884 unwind label %lpad883

invoke.cont884:                                   ; preds = %invoke.cont881
  call void @_ZNSt6vectorIN4cvc58internal12NodeTemplateILb1EEESaIS3_EED2Ev(ptr noundef nonnull align 8 dereferenceable(24) %ref.tmp882) #3
  call void @_ZN4cvc58internal12NodeTemplateILb1EED2Ev(ptr noundef nonnull align 8 dereferenceable(8) %agg.tmp880) #3
  br label %if.end888

lpad855:                                          ; preds = %invoke.cont854
  %284 = landingpad { ptr, i32 }
          cleanup
  %285 = extractvalue { ptr, i32 } %284, 0
  store ptr %285, ptr %exn.slot, align 8
  %286 = extractvalue { ptr, i32 } %284, 1
  store i32 %286, ptr %ehselector.slot, align 4
  call void @_ZN4cvc58internal12NodeTemplateILb1EED2Ev(ptr noundef nonnull align 8 dereferenceable(8) %agg.tmp853) #3
  br label %ehcleanup1344

lpad883:                                          ; preds = %invoke.cont881
  %287 = landingpad { ptr, i32 }
          cleanup
  %288 = extractvalue { ptr, i32 } %287, 0
  store ptr %288, ptr %exn.slot, align 8
  %289 = extractvalue { ptr, i32 } %287, 1
  store i32 %289, ptr %ehselector.slot, align 4
  call void @_ZNSt6vectorIN4cvc58internal12NodeTemplateILb1EEESaIS3_EED2Ev(ptr noundef nonnull align 8 dereferenceable(24) %ref.tmp882) #3
  call void @_ZN4cvc58internal12NodeTemplateILb1EED2Ev(ptr noundef nonnull align 8 dereferenceable(8) %agg.tmp880) #3
  br label %ehcleanup1344

if.end888:                                        ; preds = %invoke.cont884, %invoke.cont849, %cond.end845
  br label %if.end889

if.end889:                                        ; preds = %if.end888, %invoke.cont822
  %call892 = invoke noundef zeroext i1 @_ZN4cvc58internal11__cvc5_truecvbEv(ptr noundef nonnull align 1 dereferenceable(1) %ref.tmp890)
          to label %invoke.cont891 unwind label %lpad92

invoke.cont891:                                   ; preds = %if.end889
  br i1 %call892, label %cond.true893, label %cond.false896

cond.true893:                                     ; preds = %invoke.cont891
  invoke void @_ZNK4cvc58internal5NullCcvNS0_11Cvc5ostreamEEv(ptr sret(%"class.cvc5::internal::Cvc5ostream") align 8 %tmp894, ptr noundef nonnull align 1 dereferenceable(1) @_ZN4cvc58internal10nullStreamE)
          to label %invoke.cont895 unwind label %lpad92

invoke.cont895:                                   ; preds = %cond.true893
  br label %cond.end904

cond.false896:                                    ; preds = %invoke.cont891
  invoke void @_ZNK4cvc58internal6TraceCclEv(ptr sret(%"class.cvc5::internal::Cvc5ostream") align 8 %ref.tmp898, ptr noundef nonnull align 8 dereferenceable(32) @_ZN4cvc58internal12TraceChannelE)
          to label %invoke.cont899 unwind label %lpad92

invoke.cont899:                                   ; preds = %cond.false896
  %call901 = invoke noundef nonnull align 8 dereferenceable(24) ptr @_ZN4cvc58internal11Cvc5ostreamlsIA68_cEERS1_RKT_(ptr noundef nonnull align 8 dereferenceable(24) %ref.tmp898, ptr noundef nonnull align 1 dereferenceable(68) @.str.40)
          to label %invoke.cont900 unwind label %lpad92

invoke.cont900:                                   ; preds = %invoke.cont899
  %call903 = invoke noundef nonnull align 8 dereferenceable(24) ptr @_ZN4cvc58internal11Cvc5ostreamlsINS0_12NodeTemplateILb1EEEEERS1_RKT_(ptr noundef nonnull align 8 dereferenceable(24) %call901, ptr noundef nonnull align 8 dereferenceable(8) %conclusion)
          to label %invoke.cont902 unwind label %lpad92

invoke.cont902:                                   ; preds = %invoke.cont900
  call void @llvm.memcpy.p0.p0.i64(ptr align 8 %agg.tmp.ensured897, ptr align 8 %call903, i64 24, i1 false)
  br label %cond.end904

cond.end904:                                      ; preds = %invoke.cont902, %invoke.cont895
  %290 = load ptr, ptr %premises.addr, align 8
  %291 = load i32, ptr %offending, align 4
  %conv905 = zext i32 %291 to i64
  %call906 = call noundef nonnull align 8 dereferenceable(8) ptr @_ZNSt6vectorIN4cvc58internal12NodeTemplateILb1EEESaIS3_EEixEm(ptr noundef nonnull align 8 dereferenceable(24) %290, i64 noundef %conv905) #3
  invoke void @_ZN4cvc58internal12NodeTemplateILb1EEC2ERKS2_(ptr noundef nonnull align 8 dereferenceable(8) %offendingNode, ptr noundef nonnull align 8 dereferenceable(8) %call906)
          to label %invoke.cont907 unwind label %lpad92

invoke.cont907:                                   ; preds = %cond.end904
  %292 = load ptr, ptr %premises.addr, align 8
  call void @_ZNSt6vectorIN4cvc58internal12NodeTemplateILb1EEESaIS3_EE5clearEv(ptr noundef nonnull align 8 dereferenceable(24) %292) #3
  %293 = load ptr, ptr %premises.addr, align 8
  invoke void @_ZNSt6vectorIN4cvc58internal12NodeTemplateILb1EEESaIS3_EE9push_backERKS3_(ptr noundef nonnull align 8 dereferenceable(24) %293, ptr noundef nonnull align 8 dereferenceable(8) %offendingNode)
          to label %invoke.cont909 unwind label %lpad908

invoke.cont909:                                   ; preds = %invoke.cont907
  %294 = load i8, ptr %inSubstCase, align 1
  %tobool910 = trunc i8 %294 to i1
  br i1 %tobool910, label %if.then911, label %if.else1220

if.then911:                                       ; preds = %invoke.cont909
  %call914 = invoke noundef zeroext i1 @_ZN4cvc58internal11__cvc5_truecvbEv(ptr noundef nonnull align 1 dereferenceable(1) %ref.tmp912)
          to label %invoke.cont913 unwind label %lpad908

invoke.cont913:                                   ; preds = %if.then911
  br i1 %call914, label %cond.true915, label %cond.false918

cond.true915:                                     ; preds = %invoke.cont913
  invoke void @_ZNK4cvc58internal5NullCcvNS0_11Cvc5ostreamEEv(ptr sret(%"class.cvc5::internal::Cvc5ostream") align 8 %tmp916, ptr noundef nonnull align 1 dereferenceable(1) @_ZN4cvc58internal10nullStreamE)
          to label %invoke.cont917 unwind label %lpad908

invoke.cont917:                                   ; preds = %cond.true915
  br label %cond.end937

cond.false918:                                    ; preds = %invoke.cont913
  invoke void @_ZNK4cvc58internal6TraceCclEv(ptr sret(%"class.cvc5::internal::Cvc5ostream") align 8 %ref.tmp920, ptr noundef nonnull align 8 dereferenceable(32) @_ZN4cvc58internal12TraceChannelE)
          to label %invoke.cont921 unwind label %lpad908

invoke.cont921:                                   ; preds = %cond.false918
  %295 = load i8, ptr %substConclusionInReverseOrder, align 1
  %tobool923 = trunc i8 %295 to i1
  %cond = select i1 %tobool923, ptr @.str.41, ptr @.str.4
  store ptr %cond, ptr %ref.tmp922, align 8
  %call925 = invoke noundef nonnull align 8 dereferenceable(24) ptr @_ZN4cvc58internal11Cvc5ostreamlsIPKcEERS1_RKT_(ptr noundef nonnull align 8 dereferenceable(24) %ref.tmp920, ptr noundef nonnull align 8 dereferenceable(8) %ref.tmp922)
          to label %invoke.cont924 unwind label %lpad908

invoke.cont924:                                   ; preds = %invoke.cont921
  %call927 = invoke noundef nonnull align 8 dereferenceable(24) ptr @_ZN4cvc58internal11Cvc5ostreamlsIA23_cEERS1_RKT_(ptr noundef nonnull align 8 dereferenceable(24) %call925, ptr noundef nonnull align 1 dereferenceable(23) @.str.42)
          to label %invoke.cont926 unwind label %lpad908

invoke.cont926:                                   ; preds = %invoke.cont924
  %296 = load ptr, ptr %premises.addr, align 8
  %call928 = call noundef nonnull align 8 dereferenceable(8) ptr @_ZNSt6vectorIN4cvc58internal12NodeTemplateILb1EEESaIS3_EEixEm(ptr noundef nonnull align 8 dereferenceable(24) %296, i64 noundef 0) #3
  %call930 = invoke noundef nonnull align 8 dereferenceable(24) ptr @_ZN4cvc58internal11Cvc5ostreamlsINS0_12NodeTemplateILb1EEEEERS1_RKT_(ptr noundef nonnull align 8 dereferenceable(24) %call927, ptr noundef nonnull align 8 dereferenceable(8) %call928)
          to label %invoke.cont929 unwind label %lpad908

invoke.cont929:                                   ; preds = %invoke.cont926
  %call932 = invoke noundef nonnull align 8 dereferenceable(24) ptr @_ZN4cvc58internal11Cvc5ostreamlsIA23_cEERS1_RKT_(ptr noundef nonnull align 8 dereferenceable(24) %call930, ptr noundef nonnull align 1 dereferenceable(23) @.str.43)
          to label %invoke.cont931 unwind label %lpad908

invoke.cont931:                                   ; preds = %invoke.cont929
  %call934 = invoke noundef nonnull align 8 dereferenceable(24) ptr @_ZN4cvc58internal11Cvc5ostreamlsISt6vectorINS0_12NodeTemplateILb1EEESaIS5_EEEERS1_RKT_(ptr noundef nonnull align 8 dereferenceable(24) %call932, ptr noundef nonnull align 8 dereferenceable(24) %substPremises)
          to label %invoke.cont933 unwind label %lpad908

invoke.cont933:                                   ; preds = %invoke.cont931
  %call936 = invoke noundef nonnull align 8 dereferenceable(24) ptr @_ZN4cvc58internal11Cvc5ostreamlsIA2_cEERS1_RKT_(ptr noundef nonnull align 8 dereferenceable(24) %call934, ptr noundef nonnull align 1 dereferenceable(2) @.str.7)
          to label %invoke.cont935 unwind label %lpad908

invoke.cont935:                                   ; preds = %invoke.cont933
  call void @llvm.memcpy.p0.p0.i64(ptr align 8 %agg.tmp.ensured919, ptr align 8 %call936, i64 24, i1 false)
  br label %cond.end937

cond.end937:                                      ; preds = %invoke.cont935, %invoke.cont917
  %297 = load ptr, ptr %nm, align 8
  %298 = load ptr, ptr %nm, align 8
  %call942 = call noundef nonnull align 8 dereferenceable(8) ptr @_ZNSt6vectorIN4cvc58internal12NodeTemplateILb1EEESaIS3_EEixEm(ptr noundef nonnull align 8 dereferenceable(24) %substPremises, i64 noundef 0) #3
  invoke void @_ZNK4cvc58internal12NodeTemplateILb1EEixEi(ptr sret(%"class.cvc5::internal::NodeTemplate") align 8 %ref.tmp941, ptr noundef nonnull align 8 dereferenceable(8) %call942, i32 noundef 0)
          to label %invoke.cont943 unwind label %lpad908

invoke.cont943:                                   ; preds = %cond.end937
  invoke void @_ZN4cvc58internal12NodeTemplateILb0EEC2ERKNS1_ILb1EEE(ptr noundef nonnull align 8 dereferenceable(8) %agg.tmp940, ptr noundef nonnull align 8 dereferenceable(8) %ref.tmp941)
          to label %invoke.cont945 unwind label %lpad944

invoke.cont945:                                   ; preds = %invoke.cont943
  %call948 = call noundef nonnull align 8 dereferenceable(8) ptr @_ZNSt6vectorIN4cvc58internal12NodeTemplateILb1EEESaIS3_EEixEm(ptr noundef nonnull align 8 dereferenceable(24) %substPremises, i64 noundef 1) #3
  invoke void @_ZNK4cvc58internal12NodeTemplateILb1EEixEi(ptr sret(%"class.cvc5::internal::NodeTemplate") align 8 %ref.tmp947, ptr noundef nonnull align 8 dereferenceable(8) %call948, i32 noundef 0)
          to label %invoke.cont950 unwind label %lpad949

invoke.cont950:                                   ; preds = %invoke.cont945
  invoke void @_ZN4cvc58internal12NodeTemplateILb0EEC2ERKNS1_ILb1EEE(ptr noundef nonnull align 8 dereferenceable(8) %agg.tmp946, ptr noundef nonnull align 8 dereferenceable(8) %ref.tmp947)
          to label %invoke.cont952 unwind label %lpad951

invoke.cont952:                                   ; preds = %invoke.cont950
  invoke void @_ZN4cvc58internal11NodeManager6mkNodeENS0_4kind6Kind_tENS0_12NodeTemplateILb0EEES5_(ptr sret(%"class.cvc5::internal::NodeTemplate") align 8 %ref.tmp939, ptr noundef nonnull align 8 dereferenceable(3360) %298, i32 noundef 5, ptr noundef %agg.tmp940, ptr noundef %agg.tmp946)
          to label %invoke.cont954 unwind label %lpad953

invoke.cont954:                                   ; preds = %invoke.cont952
  invoke void @_ZN4cvc58internal12NodeTemplateILb0EEC2ERKNS1_ILb1EEE(ptr noundef nonnull align 8 dereferenceable(8) %agg.tmp938, ptr noundef nonnull align 8 dereferenceable(8) %ref.tmp939)
          to label %invoke.cont956 unwind label %lpad955

invoke.cont956:                                   ; preds = %invoke.cont954
  %299 = load ptr, ptr %premises.addr, align 8
  %call959 = call noundef nonnull align 8 dereferenceable(8) ptr @_ZNSt6vectorIN4cvc58internal12NodeTemplateILb1EEESaIS3_EEixEm(ptr noundef nonnull align 8 dereferenceable(24) %299, i64 noundef 0) #3
  invoke void @_ZNK4cvc58internal12NodeTemplateILb1EEixEi(ptr sret(%"class.cvc5::internal::NodeTemplate") align 8 %ref.tmp958, ptr noundef nonnull align 8 dereferenceable(8) %call959, i32 noundef 0)
          to label %invoke.cont961 unwind label %lpad960

invoke.cont961:                                   ; preds = %invoke.cont956
  invoke void @_ZN4cvc58internal12NodeTemplateILb0EEC2ERKNS1_ILb1EEE(ptr noundef nonnull align 8 dereferenceable(8) %agg.tmp957, ptr noundef nonnull align 8 dereferenceable(8) %ref.tmp958)
          to label %invoke.cont963 unwind label %lpad962

invoke.cont963:                                   ; preds = %invoke.cont961
  invoke void @_ZN4cvc58internal11NodeManager6mkNodeENS0_4kind6Kind_tENS0_12NodeTemplateILb0EEES5_(ptr sret(%"class.cvc5::internal::NodeTemplate") align 8 %congConclusion, ptr noundef nonnull align 8 dereferenceable(3360) %297, i32 noundef 5, ptr noundef %agg.tmp938, ptr noundef %agg.tmp957)
          to label %invoke.cont965 unwind label %lpad964

invoke.cont965:                                   ; preds = %invoke.cont963
  call void @_ZN4cvc58internal12NodeTemplateILb0EED2Ev(ptr noundef nonnull align 8 dereferenceable(8) %agg.tmp957) #3
  call void @_ZN4cvc58internal12NodeTemplateILb1EED2Ev(ptr noundef nonnull align 8 dereferenceable(8) %ref.tmp958) #3
  call void @_ZN4cvc58internal12NodeTemplateILb0EED2Ev(ptr noundef nonnull align 8 dereferenceable(8) %agg.tmp938) #3
  call void @_ZN4cvc58internal12NodeTemplateILb1EED2Ev(ptr noundef nonnull align 8 dereferenceable(8) %ref.tmp939) #3
  call void @_ZN4cvc58internal12NodeTemplateILb0EED2Ev(ptr noundef nonnull align 8 dereferenceable(8) %agg.tmp946) #3
  call void @_ZN4cvc58internal12NodeTemplateILb1EED2Ev(ptr noundef nonnull align 8 dereferenceable(8) %ref.tmp947) #3
  call void @_ZN4cvc58internal12NodeTemplateILb0EED2Ev(ptr noundef nonnull align 8 dereferenceable(8) %agg.tmp940) #3
  call void @_ZN4cvc58internal12NodeTemplateILb1EED2Ev(ptr noundef nonnull align 8 dereferenceable(8) %ref.tmp941) #3
  %300 = load ptr, ptr %p.addr, align 8
  invoke void @_ZN4cvc58internal12NodeTemplateILb1EEC2ERKS2_(ptr noundef nonnull align 8 dereferenceable(8) %agg.tmp974, ptr noundef nonnull align 8 dereferenceable(8) %congConclusion)
          to label %invoke.cont976 unwind label %lpad975

invoke.cont976:                                   ; preds = %invoke.cont965
  %arrayinit.begin980 = getelementptr inbounds [1 x %"class.cvc5::internal::NodeTemplate"], ptr %ref.tmp979, i64 0, i64 0
  store ptr %arrayinit.begin980, ptr %arrayinit.endOfInit981, align 8
  invoke void @_ZN4cvc58internal16ProofRuleChecker10mkKindNodeENS0_4kind6Kind_tE(ptr sret(%"class.cvc5::internal::NodeTemplate") align 8 %arrayinit.begin980, i32 noundef 5)
          to label %invoke.cont983 unwind label %lpad982

invoke.cont983:                                   ; preds = %invoke.cont976
  %_M_array991 = getelementptr inbounds %"class.std::initializer_list", ptr %agg.tmp978, i32 0, i32 0
  %arraystart992 = getelementptr inbounds [1 x %"class.cvc5::internal::NodeTemplate"], ptr %ref.tmp979, i64 0, i64 0
  store ptr %arraystart992, ptr %_M_array991, align 8
  %_M_len993 = getelementptr inbounds %"class.std::initializer_list", ptr %agg.tmp978, i32 0, i32 1
  store i64 1, ptr %_M_len993, align 8
  call void @_ZNSaIN4cvc58internal12NodeTemplateILb1EEEEC2Ev(ptr noundef nonnull align 1 dereferenceable(1) %ref.tmp994) #3
  %301 = getelementptr inbounds { ptr, i64 }, ptr %agg.tmp978, i32 0, i32 0
  %302 = load ptr, ptr %301, align 8
  %303 = getelementptr inbounds { ptr, i64 }, ptr %agg.tmp978, i32 0, i32 1
  %304 = load i64, ptr %303, align 8
  invoke void @_ZNSt6vectorIN4cvc58internal12NodeTemplateILb1EEESaIS3_EEC2ESt16initializer_listIS3_ERKS4_(ptr noundef nonnull align 8 dereferenceable(24) %ref.tmp977, ptr %302, i64 %304, ptr noundef nonnull align 1 dereferenceable(1) %ref.tmp994)
          to label %invoke.cont996 unwind label %lpad995

invoke.cont996:                                   ; preds = %invoke.cont983
  %call999 = invoke noundef zeroext i1 @_ZN4cvc58internal7CDProof7addStepENS0_12NodeTemplateILb1EEENS_9ProofRuleERKSt6vectorIS3_SaIS3_EES9_bNS0_12CDPOverwriteE(ptr noundef nonnull align 8 dereferenceable(217) %300, ptr noundef %agg.tmp974, i32 noundef 70, ptr noundef nonnull align 8 dereferenceable(24) %substPremises, ptr noundef nonnull align 8 dereferenceable(24) %ref.tmp977, i1 noundef zeroext true, i32 noundef 1)
          to label %invoke.cont998 unwind label %lpad997

invoke.cont998:                                   ; preds = %invoke.cont996
  call void @_ZNSt6vectorIN4cvc58internal12NodeTemplateILb1EEESaIS3_EED2Ev(ptr noundef nonnull align 8 dereferenceable(24) %ref.tmp977) #3
  call void @_ZNSaIN4cvc58internal12NodeTemplateILb1EEEED2Ev(ptr noundef nonnull align 1 dereferenceable(1) %ref.tmp994) #3
  %array.begin1002 = getelementptr inbounds [1 x %"class.cvc5::internal::NodeTemplate"], ptr %ref.tmp979, i32 0, i32 0
  %305 = getelementptr inbounds %"class.cvc5::internal::NodeTemplate", ptr %array.begin1002, i64 1
  br label %arraydestroy.body1003

arraydestroy.body1003:                            ; preds = %arraydestroy.body1003, %invoke.cont998
  %arraydestroy.elementPast1004 = phi ptr [ %305, %invoke.cont998 ], [ %arraydestroy.element1005, %arraydestroy.body1003 ]
  %arraydestroy.element1005 = getelementptr inbounds %"class.cvc5::internal::NodeTemplate", ptr %arraydestroy.elementPast1004, i64 -1
  call void @_ZN4cvc58internal12NodeTemplateILb1EED2Ev(ptr noundef nonnull align 8 dereferenceable(8) %arraydestroy.element1005) #3
  %arraydestroy.done1006 = icmp eq ptr %arraydestroy.element1005, %array.begin1002
  br i1 %arraydestroy.done1006, label %arraydestroy.done1007, label %arraydestroy.body1003

arraydestroy.done1007:                            ; preds = %arraydestroy.body1003
  call void @_ZN4cvc58internal12NodeTemplateILb1EED2Ev(ptr noundef nonnull align 8 dereferenceable(8) %agg.tmp974) #3
  %call1018 = invoke noundef zeroext i1 @_ZN4cvc58internal11__cvc5_truecvbEv(ptr noundef nonnull align 1 dereferenceable(1) %ref.tmp1016)
          to label %invoke.cont1017 unwind label %lpad975

invoke.cont1017:                                  ; preds = %arraydestroy.done1007
  br i1 %call1018, label %cond.true1019, label %cond.false1022

cond.true1019:                                    ; preds = %invoke.cont1017
  invoke void @_ZNK4cvc58internal5NullCcvNS0_11Cvc5ostreamEEv(ptr sret(%"class.cvc5::internal::Cvc5ostream") align 8 %tmp1020, ptr noundef nonnull align 1 dereferenceable(1) @_ZN4cvc58internal10nullStreamE)
          to label %invoke.cont1021 unwind label %lpad975

invoke.cont1021:                                  ; preds = %cond.true1019
  br label %cond.end1032

cond.false1022:                                   ; preds = %invoke.cont1017
  invoke void @_ZNK4cvc58internal6TraceCclEv(ptr sret(%"class.cvc5::internal::Cvc5ostream") align 8 %ref.tmp1024, ptr noundef nonnull align 8 dereferenceable(32) @_ZN4cvc58internal12TraceChannelE)
          to label %invoke.cont1025 unwind label %lpad975

invoke.cont1025:                                  ; preds = %cond.false1022
  %call1027 = invoke noundef nonnull align 8 dereferenceable(24) ptr @_ZN4cvc58internal11Cvc5ostreamlsIA69_cEERS1_RKT_(ptr noundef nonnull align 8 dereferenceable(24) %ref.tmp1024, ptr noundef nonnull align 1 dereferenceable(69) @.str.44)
          to label %invoke.cont1026 unwind label %lpad975

invoke.cont1026:                                  ; preds = %invoke.cont1025
  %call1029 = invoke noundef nonnull align 8 dereferenceable(24) ptr @_ZN4cvc58internal11Cvc5ostreamlsINS0_12NodeTemplateILb1EEEEERS1_RKT_(ptr noundef nonnull align 8 dereferenceable(24) %call1027, ptr noundef nonnull align 8 dereferenceable(8) %congConclusion)
          to label %invoke.cont1028 unwind label %lpad975

invoke.cont1028:                                  ; preds = %invoke.cont1026
  %call1031 = invoke noundef nonnull align 8 dereferenceable(24) ptr @_ZN4cvc58internal11Cvc5ostreamlsIA2_cEERS1_RKT_(ptr noundef nonnull align 8 dereferenceable(24) %call1029, ptr noundef nonnull align 1 dereferenceable(2) @.str.7)
          to label %invoke.cont1030 unwind label %lpad975

invoke.cont1030:                                  ; preds = %invoke.cont1028
  call void @llvm.memcpy.p0.p0.i64(ptr align 8 %agg.tmp.ensured1023, ptr align 8 %call1031, i64 24, i1 false)
  br label %cond.end1032

cond.end1032:                                     ; preds = %invoke.cont1030, %invoke.cont1021
  %306 = load ptr, ptr %premises.addr, align 8
  %307 = load ptr, ptr %premises.addr, align 8
  %call1035 = call ptr @_ZNSt6vectorIN4cvc58internal12NodeTemplateILb1EEESaIS3_EE5beginEv(ptr noundef nonnull align 8 dereferenceable(24) %307) #3
  %coerce.dive1036 = getelementptr inbounds %"class.__gnu_cxx::__normal_iterator", ptr %ref.tmp1034, i32 0, i32 0
  store ptr %call1035, ptr %coerce.dive1036, align 8
  call void @_ZN9__gnu_cxx17__normal_iteratorIPKN4cvc58internal12NodeTemplateILb1EEESt6vectorIS4_SaIS4_EEEC2IPS4_vEERKNS0_IT_S9_EE(ptr noundef nonnull align 8 dereferenceable(8) %agg.tmp1033, ptr noundef nonnull align 8 dereferenceable(8) %ref.tmp1034) #3
  %coerce.dive1037 = getelementptr inbounds %"class.__gnu_cxx::__normal_iterator.14", ptr %agg.tmp1033, i32 0, i32 0
  %308 = load ptr, ptr %coerce.dive1037, align 8
  %call1039 = invoke ptr @_ZNSt6vectorIN4cvc58internal12NodeTemplateILb1EEESaIS3_EE6insertEN9__gnu_cxx17__normal_iteratorIPKS3_S5_EERS8_(ptr noundef nonnull align 8 dereferenceable(24) %306, ptr %308, ptr noundef nonnull align 8 dereferenceable(8) %congConclusion)
          to label %invoke.cont1038 unwind label %lpad975

invoke.cont1038:                                  ; preds = %cond.end1032
  %coerce.dive1040 = getelementptr inbounds %"class.__gnu_cxx::__normal_iterator", ptr %coerce, i32 0, i32 0
  store ptr %call1039, ptr %coerce.dive1040, align 8
  %309 = load i8, ptr %substConclusionInReverseOrder, align 1
  %tobool1041 = trunc i8 %309 to i1
  store i1 false, ptr %cleanup.cond1048, align 1
  store i1 false, ptr %cleanup.cond1051, align 1
  store i1 false, ptr %cleanup.cond1056, align 1
  store i1 false, ptr %cleanup.cond1059, align 1
  br i1 %tobool1041, label %cond.false1044, label %cond.true1042

cond.true1042:                                    ; preds = %invoke.cont1038
  invoke void @_ZN4cvc58internal12NodeTemplateILb1EEC2ERKS2_(ptr noundef nonnull align 8 dereferenceable(8) %transConclusion, ptr noundef nonnull align 8 dereferenceable(8) %conclusion)
          to label %invoke.cont1043 unwind label %lpad975

invoke.cont1043:                                  ; preds = %cond.true1042
  br label %cond.end1062

cond.false1044:                                   ; preds = %invoke.cont1038
  %310 = load ptr, ptr %nm, align 8
  invoke void @_ZNK4cvc58internal12NodeTemplateILb1EEixEi(ptr sret(%"class.cvc5::internal::NodeTemplate") align 8 %ref.tmp1046, ptr noundef nonnull align 8 dereferenceable(8) %congConclusion, i32 noundef 0)
          to label %invoke.cont1047 unwind label %lpad975

invoke.cont1047:                                  ; preds = %cond.false1044
  store i1 true, ptr %cleanup.cond1048, align 1
  invoke void @_ZN4cvc58internal12NodeTemplateILb0EEC2ERKNS1_ILb1EEE(ptr noundef nonnull align 8 dereferenceable(8) %agg.tmp1045, ptr noundef nonnull align 8 dereferenceable(8) %ref.tmp1046)
          to label %invoke.cont1050 unwind label %lpad1049

invoke.cont1050:                                  ; preds = %invoke.cont1047
  store i1 true, ptr %cleanup.cond1051, align 1
  invoke void @_ZNK4cvc58internal12NodeTemplateILb1EEixEi(ptr sret(%"class.cvc5::internal::NodeTemplate") align 8 %ref.tmp1053, ptr noundef nonnull align 8 dereferenceable(8) %conclusion, i32 noundef 1)
          to label %invoke.cont1055 unwind label %lpad1054

invoke.cont1055:                                  ; preds = %invoke.cont1050
  store i1 true, ptr %cleanup.cond1056, align 1
  invoke void @_ZN4cvc58internal12NodeTemplateILb0EEC2ERKNS1_ILb1EEE(ptr noundef nonnull align 8 dereferenceable(8) %agg.tmp1052, ptr noundef nonnull align 8 dereferenceable(8) %ref.tmp1053)
          to label %invoke.cont1058 unwind label %lpad1057

invoke.cont1058:                                  ; preds = %invoke.cont1055
  store i1 true, ptr %cleanup.cond1059, align 1
  invoke void @_ZN4cvc58internal11NodeManager6mkNodeENS0_4kind6Kind_tENS0_12NodeTemplateILb0EEES5_(ptr sret(%"class.cvc5::internal::NodeTemplate") align 8 %transConclusion, ptr noundef nonnull align 8 dereferenceable(3360) %310, i32 noundef 5, ptr noundef %agg.tmp1045, ptr noundef %agg.tmp1052)
          to label %invoke.cont1061 unwind label %lpad1060

invoke.cont1061:                                  ; preds = %invoke.cont1058
  br label %cond.end1062

cond.end1062:                                     ; preds = %invoke.cont1061, %invoke.cont1043
  %cleanup.is_active1063 = load i1, ptr %cleanup.cond1059, align 1
  br i1 %cleanup.is_active1063, label %cleanup.action1064, label %cleanup.done1065

cleanup.action1064:                               ; preds = %cond.end1062
  call void @_ZN4cvc58internal12NodeTemplateILb0EED2Ev(ptr noundef nonnull align 8 dereferenceable(8) %agg.tmp1052) #3
  br label %cleanup.done1065

cleanup.done1065:                                 ; preds = %cleanup.action1064, %cond.end1062
  %cleanup.is_active1070 = load i1, ptr %cleanup.cond1056, align 1
  br i1 %cleanup.is_active1070, label %cleanup.action1071, label %cleanup.done1072

cleanup.action1071:                               ; preds = %cleanup.done1065
  call void @_ZN4cvc58internal12NodeTemplateILb1EED2Ev(ptr noundef nonnull align 8 dereferenceable(8) %ref.tmp1053) #3
  br label %cleanup.done1072

cleanup.done1072:                                 ; preds = %cleanup.action1071, %cleanup.done1065
  %cleanup.is_active1077 = load i1, ptr %cleanup.cond1051, align 1
  br i1 %cleanup.is_active1077, label %cleanup.action1078, label %cleanup.done1079

cleanup.action1078:                               ; preds = %cleanup.done1072
  call void @_ZN4cvc58internal12NodeTemplateILb0EED2Ev(ptr noundef nonnull align 8 dereferenceable(8) %agg.tmp1045) #3
  br label %cleanup.done1079

cleanup.done1079:                                 ; preds = %cleanup.action1078, %cleanup.done1072
  %cleanup.is_active1084 = load i1, ptr %cleanup.cond1048, align 1
  br i1 %cleanup.is_active1084, label %cleanup.action1085, label %cleanup.done1086

cleanup.action1085:                               ; preds = %cleanup.done1079
  call void @_ZN4cvc58internal12NodeTemplateILb1EED2Ev(ptr noundef nonnull align 8 dereferenceable(8) %ref.tmp1046) #3
  br label %cleanup.done1086

cleanup.done1086:                                 ; preds = %cleanup.action1085, %cleanup.done1079
  %311 = load ptr, ptr %assumptions.addr, align 8
  %call1093 = invoke noundef i64 @_ZNKSt13unordered_setIN4cvc58internal12NodeTemplateILb1EEESt4hashIS3_ESt8equal_toIS3_ESaIS3_EE5countERKS3_(ptr noundef nonnull align 8 dereferenceable(56) %311, ptr noundef nonnull align 8 dereferenceable(8) %transConclusion)
          to label %invoke.cont1092 unwind label %lpad1091

invoke.cont1092:                                  ; preds = %cleanup.done1086
  %tobool1094 = icmp ne i64 %call1093, 0
  br i1 %tobool1094, label %if.end1121, label %if.then1095

if.then1095:                                      ; preds = %invoke.cont1092
  %312 = load ptr, ptr %p.addr, align 8
  invoke void @_ZN4cvc58internal12NodeTemplateILb1EEC2ERKS2_(ptr noundef nonnull align 8 dereferenceable(8) %agg.tmp1096, ptr noundef nonnull align 8 dereferenceable(8) %transConclusion)
          to label %invoke.cont1097 unwind label %lpad1091

invoke.cont1097:                                  ; preds = %if.then1095
  %313 = load ptr, ptr %premises.addr, align 8
  call void @llvm.memset.p0.i64(ptr align 8 %ref.tmp1098, i8 0, i64 24, i1 false)
  call void @_ZNSt6vectorIN4cvc58internal12NodeTemplateILb1EEESaIS3_EEC2Ev(ptr noundef nonnull align 8 dereferenceable(24) %ref.tmp1098) #3
  %call1101 = invoke noundef zeroext i1 @_ZN4cvc58internal7CDProof7addStepENS0_12NodeTemplateILb1EEENS_9ProofRuleERKSt6vectorIS3_SaIS3_EES9_bNS0_12CDPOverwriteE(ptr noundef nonnull align 8 dereferenceable(217) %312, ptr noundef %agg.tmp1096, i32 noundef 69, ptr noundef nonnull align 8 dereferenceable(24) %313, ptr noundef nonnull align 8 dereferenceable(24) %ref.tmp1098, i1 noundef zeroext true, i32 noundef 1)
          to label %invoke.cont1100 unwind label %lpad1099

invoke.cont1100:                                  ; preds = %invoke.cont1097
  call void @_ZNSt6vectorIN4cvc58internal12NodeTemplateILb1EEESaIS3_EED2Ev(ptr noundef nonnull align 8 dereferenceable(24) %ref.tmp1098) #3
  call void @_ZN4cvc58internal12NodeTemplateILb1EED2Ev(ptr noundef nonnull align 8 dereferenceable(8) %agg.tmp1096) #3
  %call1106 = invoke noundef zeroext i1 @_ZN4cvc58internal11__cvc5_truecvbEv(ptr noundef nonnull align 1 dereferenceable(1) %ref.tmp1104)
          to label %invoke.cont1105 unwind label %lpad1091

invoke.cont1105:                                  ; preds = %invoke.cont1100
  br i1 %call1106, label %cond.true1107, label %cond.false1110

cond.true1107:                                    ; preds = %invoke.cont1105
  invoke void @_ZNK4cvc58internal5NullCcvNS0_11Cvc5ostreamEEv(ptr sret(%"class.cvc5::internal::Cvc5ostream") align 8 %tmp1108, ptr noundef nonnull align 1 dereferenceable(1) @_ZN4cvc58internal10nullStreamE)
          to label %invoke.cont1109 unwind label %lpad1091

invoke.cont1109:                                  ; preds = %cond.true1107
  br label %cond.end1120

cond.false1110:                                   ; preds = %invoke.cont1105
  invoke void @_ZNK4cvc58internal6TraceCclEv(ptr sret(%"class.cvc5::internal::Cvc5ostream") align 8 %ref.tmp1112, ptr noundef nonnull align 8 dereferenceable(32) @_ZN4cvc58internal12TraceChannelE)
          to label %invoke.cont1113 unwind label %lpad1091

invoke.cont1113:                                  ; preds = %cond.false1110
  %call1115 = invoke noundef nonnull align 8 dereferenceable(24) ptr @_ZN4cvc58internal11Cvc5ostreamlsIA71_cEERS1_RKT_(ptr noundef nonnull align 8 dereferenceable(24) %ref.tmp1112, ptr noundef nonnull align 1 dereferenceable(71) @.str.45)
          to label %invoke.cont1114 unwind label %lpad1091

invoke.cont1114:                                  ; preds = %invoke.cont1113
  %call1117 = invoke noundef nonnull align 8 dereferenceable(24) ptr @_ZN4cvc58internal11Cvc5ostreamlsINS0_12NodeTemplateILb1EEEEERS1_RKT_(ptr noundef nonnull align 8 dereferenceable(24) %call1115, ptr noundef nonnull align 8 dereferenceable(8) %transConclusion)
          to label %invoke.cont1116 unwind label %lpad1091

invoke.cont1116:                                  ; preds = %invoke.cont1114
  %call1119 = invoke noundef nonnull align 8 dereferenceable(24) ptr @_ZN4cvc58internal11Cvc5ostreamlsIA2_cEERS1_RKT_(ptr noundef nonnull align 8 dereferenceable(24) %call1117, ptr noundef nonnull align 1 dereferenceable(2) @.str.7)
          to label %invoke.cont1118 unwind label %lpad1091

invoke.cont1118:                                  ; preds = %invoke.cont1116
  call void @llvm.memcpy.p0.p0.i64(ptr align 8 %agg.tmp.ensured1111, ptr align 8 %call1119, i64 24, i1 false)
  br label %cond.end1120

cond.end1120:                                     ; preds = %invoke.cont1118, %invoke.cont1109
  br label %if.end1121

lpad908:                                          ; preds = %cleanup.done1249, %invoke.cont1236, %invoke.cont1234, %invoke.cont1231, %invoke.cont1230, %cond.false1227, %cond.true1224, %if.else1220, %cond.end937, %invoke.cont933, %invoke.cont931, %invoke.cont929, %invoke.cont926, %invoke.cont924, %invoke.cont921, %cond.false918, %cond.true915, %if.then911, %invoke.cont907
  %314 = landingpad { ptr, i32 }
          cleanup
  %315 = extractvalue { ptr, i32 } %314, 0
  store ptr %315, ptr %exn.slot, align 8
  %316 = extractvalue { ptr, i32 } %314, 1
  store i32 %316, ptr %ehselector.slot, align 4
  br label %ehcleanup1342

lpad944:                                          ; preds = %invoke.cont943
  %317 = landingpad { ptr, i32 }
          cleanup
  %318 = extractvalue { ptr, i32 } %317, 0
  store ptr %318, ptr %exn.slot, align 8
  %319 = extractvalue { ptr, i32 } %317, 1
  store i32 %319, ptr %ehselector.slot, align 4
  br label %ehcleanup973

lpad949:                                          ; preds = %invoke.cont945
  %320 = landingpad { ptr, i32 }
          cleanup
  %321 = extractvalue { ptr, i32 } %320, 0
  store ptr %321, ptr %exn.slot, align 8
  %322 = extractvalue { ptr, i32 } %320, 1
  store i32 %322, ptr %ehselector.slot, align 4
  br label %ehcleanup972

lpad951:                                          ; preds = %invoke.cont950
  %323 = landingpad { ptr, i32 }
          cleanup
  %324 = extractvalue { ptr, i32 } %323, 0
  store ptr %324, ptr %exn.slot, align 8
  %325 = extractvalue { ptr, i32 } %323, 1
  store i32 %325, ptr %ehselector.slot, align 4
  br label %ehcleanup971

lpad953:                                          ; preds = %invoke.cont952
  %326 = landingpad { ptr, i32 }
          cleanup
  %327 = extractvalue { ptr, i32 } %326, 0
  store ptr %327, ptr %exn.slot, align 8
  %328 = extractvalue { ptr, i32 } %326, 1
  store i32 %328, ptr %ehselector.slot, align 4
  br label %ehcleanup970

lpad955:                                          ; preds = %invoke.cont954
  %329 = landingpad { ptr, i32 }
          cleanup
  %330 = extractvalue { ptr, i32 } %329, 0
  store ptr %330, ptr %exn.slot, align 8
  %331 = extractvalue { ptr, i32 } %329, 1
  store i32 %331, ptr %ehselector.slot, align 4
  br label %ehcleanup969

lpad960:                                          ; preds = %invoke.cont956
  %332 = landingpad { ptr, i32 }
          cleanup
  %333 = extractvalue { ptr, i32 } %332, 0
  store ptr %333, ptr %exn.slot, align 8
  %334 = extractvalue { ptr, i32 } %332, 1
  store i32 %334, ptr %ehselector.slot, align 4
  br label %ehcleanup968

lpad962:                                          ; preds = %invoke.cont961
  %335 = landingpad { ptr, i32 }
          cleanup
  %336 = extractvalue { ptr, i32 } %335, 0
  store ptr %336, ptr %exn.slot, align 8
  %337 = extractvalue { ptr, i32 } %335, 1
  store i32 %337, ptr %ehselector.slot, align 4
  br label %ehcleanup967

lpad964:                                          ; preds = %invoke.cont963
  %338 = landingpad { ptr, i32 }
          cleanup
  %339 = extractvalue { ptr, i32 } %338, 0
  store ptr %339, ptr %exn.slot, align 8
  %340 = extractvalue { ptr, i32 } %338, 1
  store i32 %340, ptr %ehselector.slot, align 4
  call void @_ZN4cvc58internal12NodeTemplateILb0EED2Ev(ptr noundef nonnull align 8 dereferenceable(8) %agg.tmp957) #3
  br label %ehcleanup967

ehcleanup967:                                     ; preds = %lpad964, %lpad962
  call void @_ZN4cvc58internal12NodeTemplateILb1EED2Ev(ptr noundef nonnull align 8 dereferenceable(8) %ref.tmp958) #3
  br label %ehcleanup968

ehcleanup968:                                     ; preds = %ehcleanup967, %lpad960
  call void @_ZN4cvc58internal12NodeTemplateILb0EED2Ev(ptr noundef nonnull align 8 dereferenceable(8) %agg.tmp938) #3
  br label %ehcleanup969

ehcleanup969:                                     ; preds = %ehcleanup968, %lpad955
  call void @_ZN4cvc58internal12NodeTemplateILb1EED2Ev(ptr noundef nonnull align 8 dereferenceable(8) %ref.tmp939) #3
  br label %ehcleanup970

ehcleanup970:                                     ; preds = %ehcleanup969, %lpad953
  call void @_ZN4cvc58internal12NodeTemplateILb0EED2Ev(ptr noundef nonnull align 8 dereferenceable(8) %agg.tmp946) #3
  br label %ehcleanup971

ehcleanup971:                                     ; preds = %ehcleanup970, %lpad951
  call void @_ZN4cvc58internal12NodeTemplateILb1EED2Ev(ptr noundef nonnull align 8 dereferenceable(8) %ref.tmp947) #3
  br label %ehcleanup972

ehcleanup972:                                     ; preds = %ehcleanup971, %lpad949
  call void @_ZN4cvc58internal12NodeTemplateILb0EED2Ev(ptr noundef nonnull align 8 dereferenceable(8) %agg.tmp940) #3
  br label %ehcleanup973

ehcleanup973:                                     ; preds = %ehcleanup972, %lpad944
  call void @_ZN4cvc58internal12NodeTemplateILb1EED2Ev(ptr noundef nonnull align 8 dereferenceable(8) %ref.tmp941) #3
  br label %ehcleanup1342

lpad975:                                          ; preds = %cond.false1044, %cond.true1042, %cond.end1032, %invoke.cont1028, %invoke.cont1026, %invoke.cont1025, %cond.false1022, %cond.true1019, %arraydestroy.done1007, %invoke.cont965
  %341 = landingpad { ptr, i32 }
          cleanup
  %342 = extractvalue { ptr, i32 } %341, 0
  store ptr %342, ptr %exn.slot, align 8
  %343 = extractvalue { ptr, i32 } %341, 1
  store i32 %343, ptr %ehselector.slot, align 4
  br label %ehcleanup1219

lpad982:                                          ; preds = %invoke.cont976
  %344 = landingpad { ptr, i32 }
          cleanup
  %345 = extractvalue { ptr, i32 } %344, 0
  store ptr %345, ptr %exn.slot, align 8
  %346 = extractvalue { ptr, i32 } %344, 1
  store i32 %346, ptr %ehselector.slot, align 4
  %347 = load ptr, ptr %arrayinit.endOfInit981, align 8
  %arraydestroy.isempty985 = icmp eq ptr %arrayinit.begin980, %347
  br i1 %arraydestroy.isempty985, label %arraydestroy.done990, label %arraydestroy.body986

arraydestroy.body986:                             ; preds = %arraydestroy.body986, %lpad982
  %arraydestroy.elementPast987 = phi ptr [ %347, %lpad982 ], [ %arraydestroy.element988, %arraydestroy.body986 ]
  %arraydestroy.element988 = getelementptr inbounds %"class.cvc5::internal::NodeTemplate", ptr %arraydestroy.elementPast987, i64 -1
  call void @_ZN4cvc58internal12NodeTemplateILb1EED2Ev(ptr noundef nonnull align 8 dereferenceable(8) %arraydestroy.element988) #3
  %arraydestroy.done989 = icmp eq ptr %arraydestroy.element988, %arrayinit.begin980
  br i1 %arraydestroy.done989, label %arraydestroy.done990, label %arraydestroy.body986

arraydestroy.done990:                             ; preds = %arraydestroy.body986, %lpad982
  br label %ehcleanup1015

lpad995:                                          ; preds = %invoke.cont983
  %348 = landingpad { ptr, i32 }
          cleanup
  %349 = extractvalue { ptr, i32 } %348, 0
  store ptr %349, ptr %exn.slot, align 8
  %350 = extractvalue { ptr, i32 } %348, 1
  store i32 %350, ptr %ehselector.slot, align 4
  br label %ehcleanup1001

lpad997:                                          ; preds = %invoke.cont996
  %351 = landingpad { ptr, i32 }
          cleanup
  %352 = extractvalue { ptr, i32 } %351, 0
  store ptr %352, ptr %exn.slot, align 8
  %353 = extractvalue { ptr, i32 } %351, 1
  store i32 %353, ptr %ehselector.slot, align 4
  call void @_ZNSt6vectorIN4cvc58internal12NodeTemplateILb1EEESaIS3_EED2Ev(ptr noundef nonnull align 8 dereferenceable(24) %ref.tmp977) #3
  br label %ehcleanup1001

ehcleanup1001:                                    ; preds = %lpad997, %lpad995
  call void @_ZNSaIN4cvc58internal12NodeTemplateILb1EEEED2Ev(ptr noundef nonnull align 1 dereferenceable(1) %ref.tmp994) #3
  %array.begin1009 = getelementptr inbounds [1 x %"class.cvc5::internal::NodeTemplate"], ptr %ref.tmp979, i32 0, i32 0
  %354 = getelementptr inbounds %"class.cvc5::internal::NodeTemplate", ptr %array.begin1009, i64 1
  br label %arraydestroy.body1010

arraydestroy.body1010:                            ; preds = %arraydestroy.body1010, %ehcleanup1001
  %arraydestroy.elementPast1011 = phi ptr [ %354, %ehcleanup1001 ], [ %arraydestroy.element1012, %arraydestroy.body1010 ]
  %arraydestroy.element1012 = getelementptr inbounds %"class.cvc5::internal::NodeTemplate", ptr %arraydestroy.elementPast1011, i64 -1
  call void @_ZN4cvc58internal12NodeTemplateILb1EED2Ev(ptr noundef nonnull align 8 dereferenceable(8) %arraydestroy.element1012) #3
  %arraydestroy.done1013 = icmp eq ptr %arraydestroy.element1012, %array.begin1009
  br i1 %arraydestroy.done1013, label %arraydestroy.done1014, label %arraydestroy.body1010

arraydestroy.done1014:                            ; preds = %arraydestroy.body1010
  br label %ehcleanup1015

ehcleanup1015:                                    ; preds = %arraydestroy.done1014, %arraydestroy.done990
  call void @_ZN4cvc58internal12NodeTemplateILb1EED2Ev(ptr noundef nonnull align 8 dereferenceable(8) %agg.tmp974) #3
  br label %ehcleanup1219

lpad1049:                                         ; preds = %invoke.cont1047
  %355 = landingpad { ptr, i32 }
          cleanup
  %356 = extractvalue { ptr, i32 } %355, 0
  store ptr %356, ptr %exn.slot, align 8
  %357 = extractvalue { ptr, i32 } %355, 1
  store i32 %357, ptr %ehselector.slot, align 4
  br label %ehcleanup1087

lpad1054:                                         ; preds = %invoke.cont1050
  %358 = landingpad { ptr, i32 }
          cleanup
  %359 = extractvalue { ptr, i32 } %358, 0
  store ptr %359, ptr %exn.slot, align 8
  %360 = extractvalue { ptr, i32 } %358, 1
  store i32 %360, ptr %ehselector.slot, align 4
  br label %ehcleanup1080

lpad1057:                                         ; preds = %invoke.cont1055
  %361 = landingpad { ptr, i32 }
          cleanup
  %362 = extractvalue { ptr, i32 } %361, 0
  store ptr %362, ptr %exn.slot, align 8
  %363 = extractvalue { ptr, i32 } %361, 1
  store i32 %363, ptr %ehselector.slot, align 4
  br label %ehcleanup1073

lpad1060:                                         ; preds = %invoke.cont1058
  %364 = landingpad { ptr, i32 }
          cleanup
  %365 = extractvalue { ptr, i32 } %364, 0
  store ptr %365, ptr %exn.slot, align 8
  %366 = extractvalue { ptr, i32 } %364, 1
  store i32 %366, ptr %ehselector.slot, align 4
  %cleanup.is_active1067 = load i1, ptr %cleanup.cond1059, align 1
  br i1 %cleanup.is_active1067, label %cleanup.action1068, label %cleanup.done1069

cleanup.action1068:                               ; preds = %lpad1060
  call void @_ZN4cvc58internal12NodeTemplateILb0EED2Ev(ptr noundef nonnull align 8 dereferenceable(8) %agg.tmp1052) #3
  br label %cleanup.done1069

cleanup.done1069:                                 ; preds = %cleanup.action1068, %lpad1060
  br label %ehcleanup1073

ehcleanup1073:                                    ; preds = %cleanup.done1069, %lpad1057
  %cleanup.is_active1074 = load i1, ptr %cleanup.cond1056, align 1
  br i1 %cleanup.is_active1074, label %cleanup.action1075, label %cleanup.done1076

cleanup.action1075:                               ; preds = %ehcleanup1073
  call void @_ZN4cvc58internal12NodeTemplateILb1EED2Ev(ptr noundef nonnull align 8 dereferenceable(8) %ref.tmp1053) #3
  br label %cleanup.done1076

cleanup.done1076:                                 ; preds = %cleanup.action1075, %ehcleanup1073
  br label %ehcleanup1080

ehcleanup1080:                                    ; preds = %cleanup.done1076, %lpad1054
  %cleanup.is_active1081 = load i1, ptr %cleanup.cond1051, align 1
  br i1 %cleanup.is_active1081, label %cleanup.action1082, label %cleanup.done1083

cleanup.action1082:                               ; preds = %ehcleanup1080
  call void @_ZN4cvc58internal12NodeTemplateILb0EED2Ev(ptr noundef nonnull align 8 dereferenceable(8) %agg.tmp1045) #3
  br label %cleanup.done1083

cleanup.done1083:                                 ; preds = %cleanup.action1082, %ehcleanup1080
  br label %ehcleanup1087

ehcleanup1087:                                    ; preds = %cleanup.done1083, %lpad1049
  %cleanup.is_active1088 = load i1, ptr %cleanup.cond1048, align 1
  br i1 %cleanup.is_active1088, label %cleanup.action1089, label %cleanup.done1090

cleanup.action1089:                               ; preds = %ehcleanup1087
  call void @_ZN4cvc58internal12NodeTemplateILb1EED2Ev(ptr noundef nonnull align 8 dereferenceable(8) %ref.tmp1046) #3
  br label %cleanup.done1090

cleanup.done1090:                                 ; preds = %cleanup.action1089, %ehcleanup1087
  br label %ehcleanup1219

lpad1091:                                         ; preds = %invoke.cont1212, %invoke.cont1210, %invoke.cont1209, %cond.false1206, %cond.true1203, %arraydestroy.done1191, %if.then1123, %invoke.cont1116, %invoke.cont1114, %invoke.cont1113, %cond.false1110, %cond.true1107, %invoke.cont1100, %if.then1095, %cleanup.done1086
  %367 = landingpad { ptr, i32 }
          cleanup
  %368 = extractvalue { ptr, i32 } %367, 0
  store ptr %368, ptr %exn.slot, align 8
  %369 = extractvalue { ptr, i32 } %367, 1
  store i32 %369, ptr %ehselector.slot, align 4
  br label %ehcleanup1218

lpad1099:                                         ; preds = %invoke.cont1097
  %370 = landingpad { ptr, i32 }
          cleanup
  %371 = extractvalue { ptr, i32 } %370, 0
  store ptr %371, ptr %exn.slot, align 8
  %372 = extractvalue { ptr, i32 } %370, 1
  store i32 %372, ptr %ehselector.slot, align 4
  call void @_ZNSt6vectorIN4cvc58internal12NodeTemplateILb1EEESaIS3_EED2Ev(ptr noundef nonnull align 8 dereferenceable(24) %ref.tmp1098) #3
  call void @_ZN4cvc58internal12NodeTemplateILb1EED2Ev(ptr noundef nonnull align 8 dereferenceable(8) %agg.tmp1096) #3
  br label %ehcleanup1218

if.end1121:                                       ; preds = %cond.end1120, %invoke.cont1092
  %373 = load i8, ptr %substConclusionInReverseOrder, align 1
  %tobool1122 = trunc i8 %373 to i1
  br i1 %tobool1122, label %if.then1123, label %if.end1217

if.then1123:                                      ; preds = %if.end1121
  %374 = load ptr, ptr %p.addr, align 8
  invoke void @_ZN4cvc58internal12NodeTemplateILb1EEC2ERKS2_(ptr noundef nonnull align 8 dereferenceable(8) %agg.tmp1124, ptr noundef nonnull align 8 dereferenceable(8) %conclusion)
          to label %invoke.cont1125 unwind label %lpad1091

invoke.cont1125:                                  ; preds = %if.then1123
  %arrayinit.begin1129 = getelementptr inbounds [1 x %"class.cvc5::internal::NodeTemplate"], ptr %ref.tmp1128, i64 0, i64 0
  store ptr %arrayinit.begin1129, ptr %arrayinit.endOfInit1130, align 8
  invoke void @_ZN4cvc58internal12NodeTemplateILb1EEC2ERKS2_(ptr noundef nonnull align 8 dereferenceable(8) %arrayinit.begin1129, ptr noundef nonnull align 8 dereferenceable(8) %transConclusion)
          to label %invoke.cont1132 unwind label %lpad1131

invoke.cont1132:                                  ; preds = %invoke.cont1125
  %_M_array1140 = getelementptr inbounds %"class.std::initializer_list", ptr %agg.tmp1127, i32 0, i32 0
  %arraystart1141 = getelementptr inbounds [1 x %"class.cvc5::internal::NodeTemplate"], ptr %ref.tmp1128, i64 0, i64 0
  store ptr %arraystart1141, ptr %_M_array1140, align 8
  %_M_len1142 = getelementptr inbounds %"class.std::initializer_list", ptr %agg.tmp1127, i32 0, i32 1
  store i64 1, ptr %_M_len1142, align 8
  call void @_ZNSaIN4cvc58internal12NodeTemplateILb1EEEEC2Ev(ptr noundef nonnull align 1 dereferenceable(1) %ref.tmp1143) #3
  %375 = getelementptr inbounds { ptr, i64 }, ptr %agg.tmp1127, i32 0, i32 0
  %376 = load ptr, ptr %375, align 8
  %377 = getelementptr inbounds { ptr, i64 }, ptr %agg.tmp1127, i32 0, i32 1
  %378 = load i64, ptr %377, align 8
  invoke void @_ZNSt6vectorIN4cvc58internal12NodeTemplateILb1EEESaIS3_EEC2ESt16initializer_listIS3_ERKS4_(ptr noundef nonnull align 8 dereferenceable(24) %ref.tmp1126, ptr %376, i64 %378, ptr noundef nonnull align 1 dereferenceable(1) %ref.tmp1143)
          to label %invoke.cont1145 unwind label %lpad1144

invoke.cont1145:                                  ; preds = %invoke.cont1132
  %arrayinit.begin1149 = getelementptr inbounds [1 x %"class.cvc5::internal::NodeTemplate"], ptr %ref.tmp1148, i64 0, i64 0
  store ptr %arrayinit.begin1149, ptr %arrayinit.endOfInit1150, align 8
  invoke void @_ZN4cvc58internal12NodeTemplateILb1EEC2ERKS2_(ptr noundef nonnull align 8 dereferenceable(8) %arrayinit.begin1149, ptr noundef nonnull align 8 dereferenceable(8) %conclusion)
          to label %invoke.cont1152 unwind label %lpad1151

invoke.cont1152:                                  ; preds = %invoke.cont1145
  %_M_array1160 = getelementptr inbounds %"class.std::initializer_list", ptr %agg.tmp1147, i32 0, i32 0
  %arraystart1161 = getelementptr inbounds [1 x %"class.cvc5::internal::NodeTemplate"], ptr %ref.tmp1148, i64 0, i64 0
  store ptr %arraystart1161, ptr %_M_array1160, align 8
  %_M_len1162 = getelementptr inbounds %"class.std::initializer_list", ptr %agg.tmp1147, i32 0, i32 1
  store i64 1, ptr %_M_len1162, align 8
  call void @_ZNSaIN4cvc58internal12NodeTemplateILb1EEEEC2Ev(ptr noundef nonnull align 1 dereferenceable(1) %ref.tmp1163) #3
  %379 = getelementptr inbounds { ptr, i64 }, ptr %agg.tmp1147, i32 0, i32 0
  %380 = load ptr, ptr %379, align 8
  %381 = getelementptr inbounds { ptr, i64 }, ptr %agg.tmp1147, i32 0, i32 1
  %382 = load i64, ptr %381, align 8
  invoke void @_ZNSt6vectorIN4cvc58internal12NodeTemplateILb1EEESaIS3_EEC2ESt16initializer_listIS3_ERKS4_(ptr noundef nonnull align 8 dereferenceable(24) %ref.tmp1146, ptr %380, i64 %382, ptr noundef nonnull align 1 dereferenceable(1) %ref.tmp1163)
          to label %invoke.cont1165 unwind label %lpad1164

invoke.cont1165:                                  ; preds = %invoke.cont1152
  %call1168 = invoke noundef zeroext i1 @_ZN4cvc58internal7CDProof7addStepENS0_12NodeTemplateILb1EEENS_9ProofRuleERKSt6vectorIS3_SaIS3_EES9_bNS0_12CDPOverwriteE(ptr noundef nonnull align 8 dereferenceable(217) %374, ptr noundef %agg.tmp1124, i32 noundef 8, ptr noundef nonnull align 8 dereferenceable(24) %ref.tmp1126, ptr noundef nonnull align 8 dereferenceable(24) %ref.tmp1146, i1 noundef zeroext true, i32 noundef 1)
          to label %invoke.cont1167 unwind label %lpad1166

invoke.cont1167:                                  ; preds = %invoke.cont1165
  call void @_ZNSt6vectorIN4cvc58internal12NodeTemplateILb1EEESaIS3_EED2Ev(ptr noundef nonnull align 8 dereferenceable(24) %ref.tmp1146) #3
  call void @_ZNSaIN4cvc58internal12NodeTemplateILb1EEEED2Ev(ptr noundef nonnull align 1 dereferenceable(1) %ref.tmp1163) #3
  %array.begin1171 = getelementptr inbounds [1 x %"class.cvc5::internal::NodeTemplate"], ptr %ref.tmp1148, i32 0, i32 0
  %383 = getelementptr inbounds %"class.cvc5::internal::NodeTemplate", ptr %array.begin1171, i64 1
  br label %arraydestroy.body1172

arraydestroy.body1172:                            ; preds = %arraydestroy.body1172, %invoke.cont1167
  %arraydestroy.elementPast1173 = phi ptr [ %383, %invoke.cont1167 ], [ %arraydestroy.element1174, %arraydestroy.body1172 ]
  %arraydestroy.element1174 = getelementptr inbounds %"class.cvc5::internal::NodeTemplate", ptr %arraydestroy.elementPast1173, i64 -1
  call void @_ZN4cvc58internal12NodeTemplateILb1EED2Ev(ptr noundef nonnull align 8 dereferenceable(8) %arraydestroy.element1174) #3
  %arraydestroy.done1175 = icmp eq ptr %arraydestroy.element1174, %array.begin1171
  br i1 %arraydestroy.done1175, label %arraydestroy.done1176, label %arraydestroy.body1172

arraydestroy.done1176:                            ; preds = %arraydestroy.body1172
  call void @_ZNSt6vectorIN4cvc58internal12NodeTemplateILb1EEESaIS3_EED2Ev(ptr noundef nonnull align 8 dereferenceable(24) %ref.tmp1126) #3
  call void @_ZNSaIN4cvc58internal12NodeTemplateILb1EEEED2Ev(ptr noundef nonnull align 1 dereferenceable(1) %ref.tmp1143) #3
  %array.begin1186 = getelementptr inbounds [1 x %"class.cvc5::internal::NodeTemplate"], ptr %ref.tmp1128, i32 0, i32 0
  %384 = getelementptr inbounds %"class.cvc5::internal::NodeTemplate", ptr %array.begin1186, i64 1
  br label %arraydestroy.body1187

arraydestroy.body1187:                            ; preds = %arraydestroy.body1187, %arraydestroy.done1176
  %arraydestroy.elementPast1188 = phi ptr [ %384, %arraydestroy.done1176 ], [ %arraydestroy.element1189, %arraydestroy.body1187 ]
  %arraydestroy.element1189 = getelementptr inbounds %"class.cvc5::internal::NodeTemplate", ptr %arraydestroy.elementPast1188, i64 -1
  call void @_ZN4cvc58internal12NodeTemplateILb1EED2Ev(ptr noundef nonnull align 8 dereferenceable(8) %arraydestroy.element1189) #3
  %arraydestroy.done1190 = icmp eq ptr %arraydestroy.element1189, %array.begin1186
  br i1 %arraydestroy.done1190, label %arraydestroy.done1191, label %arraydestroy.body1187

arraydestroy.done1191:                            ; preds = %arraydestroy.body1187
  call void @_ZN4cvc58internal12NodeTemplateILb1EED2Ev(ptr noundef nonnull align 8 dereferenceable(8) %agg.tmp1124) #3
  %call1202 = invoke noundef zeroext i1 @_ZN4cvc58internal11__cvc5_truecvbEv(ptr noundef nonnull align 1 dereferenceable(1) %ref.tmp1200)
          to label %invoke.cont1201 unwind label %lpad1091

invoke.cont1201:                                  ; preds = %arraydestroy.done1191
  br i1 %call1202, label %cond.true1203, label %cond.false1206

cond.true1203:                                    ; preds = %invoke.cont1201
  invoke void @_ZNK4cvc58internal5NullCcvNS0_11Cvc5ostreamEEv(ptr sret(%"class.cvc5::internal::Cvc5ostream") align 8 %tmp1204, ptr noundef nonnull align 1 dereferenceable(1) @_ZN4cvc58internal10nullStreamE)
          to label %invoke.cont1205 unwind label %lpad1091

invoke.cont1205:                                  ; preds = %cond.true1203
  br label %cond.end1216

cond.false1206:                                   ; preds = %invoke.cont1201
  invoke void @_ZNK4cvc58internal6TraceCclEv(ptr sret(%"class.cvc5::internal::Cvc5ostream") align 8 %ref.tmp1208, ptr noundef nonnull align 8 dereferenceable(32) @_ZN4cvc58internal12TraceChannelE)
          to label %invoke.cont1209 unwind label %lpad1091

invoke.cont1209:                                  ; preds = %cond.false1206
  %call1211 = invoke noundef nonnull align 8 dereferenceable(24) ptr @_ZN4cvc58internal11Cvc5ostreamlsIA74_cEERS1_RKT_(ptr noundef nonnull align 8 dereferenceable(24) %ref.tmp1208, ptr noundef nonnull align 1 dereferenceable(74) @.str.46)
          to label %invoke.cont1210 unwind label %lpad1091

invoke.cont1210:                                  ; preds = %invoke.cont1209
  %call1213 = invoke noundef nonnull align 8 dereferenceable(24) ptr @_ZN4cvc58internal11Cvc5ostreamlsINS0_12NodeTemplateILb1EEEEERS1_RKT_(ptr noundef nonnull align 8 dereferenceable(24) %call1211, ptr noundef nonnull align 8 dereferenceable(8) %conclusion)
          to label %invoke.cont1212 unwind label %lpad1091

invoke.cont1212:                                  ; preds = %invoke.cont1210
  %call1215 = invoke noundef nonnull align 8 dereferenceable(24) ptr @_ZN4cvc58internal11Cvc5ostreamlsIA2_cEERS1_RKT_(ptr noundef nonnull align 8 dereferenceable(24) %call1213, ptr noundef nonnull align 1 dereferenceable(2) @.str.7)
          to label %invoke.cont1214 unwind label %lpad1091

invoke.cont1214:                                  ; preds = %invoke.cont1212
  call void @llvm.memcpy.p0.p0.i64(ptr align 8 %agg.tmp.ensured1207, ptr align 8 %call1215, i64 24, i1 false)
  br label %cond.end1216

cond.end1216:                                     ; preds = %invoke.cont1214, %invoke.cont1205
  br label %if.end1217

lpad1131:                                         ; preds = %invoke.cont1125
  %385 = landingpad { ptr, i32 }
          cleanup
  %386 = extractvalue { ptr, i32 } %385, 0
  store ptr %386, ptr %exn.slot, align 8
  %387 = extractvalue { ptr, i32 } %385, 1
  store i32 %387, ptr %ehselector.slot, align 4
  %388 = load ptr, ptr %arrayinit.endOfInit1130, align 8
  %arraydestroy.isempty1134 = icmp eq ptr %arrayinit.begin1129, %388
  br i1 %arraydestroy.isempty1134, label %arraydestroy.done1139, label %arraydestroy.body1135

arraydestroy.body1135:                            ; preds = %arraydestroy.body1135, %lpad1131
  %arraydestroy.elementPast1136 = phi ptr [ %388, %lpad1131 ], [ %arraydestroy.element1137, %arraydestroy.body1135 ]
  %arraydestroy.element1137 = getelementptr inbounds %"class.cvc5::internal::NodeTemplate", ptr %arraydestroy.elementPast1136, i64 -1
  call void @_ZN4cvc58internal12NodeTemplateILb1EED2Ev(ptr noundef nonnull align 8 dereferenceable(8) %arraydestroy.element1137) #3
  %arraydestroy.done1138 = icmp eq ptr %arraydestroy.element1137, %arrayinit.begin1129
  br i1 %arraydestroy.done1138, label %arraydestroy.done1139, label %arraydestroy.body1135

arraydestroy.done1139:                            ; preds = %arraydestroy.body1135, %lpad1131
  br label %ehcleanup1199

lpad1144:                                         ; preds = %invoke.cont1132
  %389 = landingpad { ptr, i32 }
          cleanup
  %390 = extractvalue { ptr, i32 } %389, 0
  store ptr %390, ptr %exn.slot, align 8
  %391 = extractvalue { ptr, i32 } %389, 1
  store i32 %391, ptr %ehselector.slot, align 4
  br label %ehcleanup1185

lpad1151:                                         ; preds = %invoke.cont1145
  %392 = landingpad { ptr, i32 }
          cleanup
  %393 = extractvalue { ptr, i32 } %392, 0
  store ptr %393, ptr %exn.slot, align 8
  %394 = extractvalue { ptr, i32 } %392, 1
  store i32 %394, ptr %ehselector.slot, align 4
  %395 = load ptr, ptr %arrayinit.endOfInit1150, align 8
  %arraydestroy.isempty1154 = icmp eq ptr %arrayinit.begin1149, %395
  br i1 %arraydestroy.isempty1154, label %arraydestroy.done1159, label %arraydestroy.body1155

arraydestroy.body1155:                            ; preds = %arraydestroy.body1155, %lpad1151
  %arraydestroy.elementPast1156 = phi ptr [ %395, %lpad1151 ], [ %arraydestroy.element1157, %arraydestroy.body1155 ]
  %arraydestroy.element1157 = getelementptr inbounds %"class.cvc5::internal::NodeTemplate", ptr %arraydestroy.elementPast1156, i64 -1
  call void @_ZN4cvc58internal12NodeTemplateILb1EED2Ev(ptr noundef nonnull align 8 dereferenceable(8) %arraydestroy.element1157) #3
  %arraydestroy.done1158 = icmp eq ptr %arraydestroy.element1157, %arrayinit.begin1149
  br i1 %arraydestroy.done1158, label %arraydestroy.done1159, label %arraydestroy.body1155

arraydestroy.done1159:                            ; preds = %arraydestroy.body1155, %lpad1151
  br label %ehcleanup1184

lpad1164:                                         ; preds = %invoke.cont1152
  %396 = landingpad { ptr, i32 }
          cleanup
  %397 = extractvalue { ptr, i32 } %396, 0
  store ptr %397, ptr %exn.slot, align 8
  %398 = extractvalue { ptr, i32 } %396, 1
  store i32 %398, ptr %ehselector.slot, align 4
  br label %ehcleanup1170

lpad1166:                                         ; preds = %invoke.cont1165
  %399 = landingpad { ptr, i32 }
          cleanup
  %400 = extractvalue { ptr, i32 } %399, 0
  store ptr %400, ptr %exn.slot, align 8
  %401 = extractvalue { ptr, i32 } %399, 1
  store i32 %401, ptr %ehselector.slot, align 4
  call void @_ZNSt6vectorIN4cvc58internal12NodeTemplateILb1EEESaIS3_EED2Ev(ptr noundef nonnull align 8 dereferenceable(24) %ref.tmp1146) #3
  br label %ehcleanup1170

ehcleanup1170:                                    ; preds = %lpad1166, %lpad1164
  call void @_ZNSaIN4cvc58internal12NodeTemplateILb1EEEED2Ev(ptr noundef nonnull align 1 dereferenceable(1) %ref.tmp1163) #3
  %array.begin1178 = getelementptr inbounds [1 x %"class.cvc5::internal::NodeTemplate"], ptr %ref.tmp1148, i32 0, i32 0
  %402 = getelementptr inbounds %"class.cvc5::internal::NodeTemplate", ptr %array.begin1178, i64 1
  br label %arraydestroy.body1179

arraydestroy.body1179:                            ; preds = %arraydestroy.body1179, %ehcleanup1170
  %arraydestroy.elementPast1180 = phi ptr [ %402, %ehcleanup1170 ], [ %arraydestroy.element1181, %arraydestroy.body1179 ]
  %arraydestroy.element1181 = getelementptr inbounds %"class.cvc5::internal::NodeTemplate", ptr %arraydestroy.elementPast1180, i64 -1
  call void @_ZN4cvc58internal12NodeTemplateILb1EED2Ev(ptr noundef nonnull align 8 dereferenceable(8) %arraydestroy.element1181) #3
  %arraydestroy.done1182 = icmp eq ptr %arraydestroy.element1181, %array.begin1178
  br i1 %arraydestroy.done1182, label %arraydestroy.done1183, label %arraydestroy.body1179

arraydestroy.done1183:                            ; preds = %arraydestroy.body1179
  br label %ehcleanup1184

ehcleanup1184:                                    ; preds = %arraydestroy.done1183, %arraydestroy.done1159
  call void @_ZNSt6vectorIN4cvc58internal12NodeTemplateILb1EEESaIS3_EED2Ev(ptr noundef nonnull align 8 dereferenceable(24) %ref.tmp1126) #3
  br label %ehcleanup1185

ehcleanup1185:                                    ; preds = %ehcleanup1184, %lpad1144
  call void @_ZNSaIN4cvc58internal12NodeTemplateILb1EEEED2Ev(ptr noundef nonnull align 1 dereferenceable(1) %ref.tmp1143) #3
  %array.begin1193 = getelementptr inbounds [1 x %"class.cvc5::internal::NodeTemplate"], ptr %ref.tmp1128, i32 0, i32 0
  %403 = getelementptr inbounds %"class.cvc5::internal::NodeTemplate", ptr %array.begin1193, i64 1
  br label %arraydestroy.body1194

arraydestroy.body1194:                            ; preds = %arraydestroy.body1194, %ehcleanup1185
  %arraydestroy.elementPast1195 = phi ptr [ %403, %ehcleanup1185 ], [ %arraydestroy.element1196, %arraydestroy.body1194 ]
  %arraydestroy.element1196 = getelementptr inbounds %"class.cvc5::internal::NodeTemplate", ptr %arraydestroy.elementPast1195, i64 -1
  call void @_ZN4cvc58internal12NodeTemplateILb1EED2Ev(ptr noundef nonnull align 8 dereferenceable(8) %arraydestroy.element1196) #3
  %arraydestroy.done1197 = icmp eq ptr %arraydestroy.element1196, %array.begin1193
  br i1 %arraydestroy.done1197, label %arraydestroy.done1198, label %arraydestroy.body1194

arraydestroy.done1198:                            ; preds = %arraydestroy.body1194
  br label %ehcleanup1199

ehcleanup1199:                                    ; preds = %arraydestroy.done1198, %arraydestroy.done1139
  call void @_ZN4cvc58internal12NodeTemplateILb1EED2Ev(ptr noundef nonnull align 8 dereferenceable(8) %agg.tmp1124) #3
  br label %ehcleanup1218

if.end1217:                                       ; preds = %cond.end1216, %if.end1121
  call void @_ZN4cvc58internal12NodeTemplateILb1EED2Ev(ptr noundef nonnull align 8 dereferenceable(8) %transConclusion) #3
  call void @_ZN4cvc58internal12NodeTemplateILb1EED2Ev(ptr noundef nonnull align 8 dereferenceable(8) %congConclusion) #3
  br label %if.end1340

ehcleanup1218:                                    ; preds = %ehcleanup1199, %lpad1099, %lpad1091
  call void @_ZN4cvc58internal12NodeTemplateILb1EED2Ev(ptr noundef nonnull align 8 dereferenceable(8) %transConclusion) #3
  br label %ehcleanup1219

ehcleanup1219:                                    ; preds = %ehcleanup1218, %cleanup.done1090, %ehcleanup1015, %lpad975
  call void @_ZN4cvc58internal12NodeTemplateILb1EED2Ev(ptr noundef nonnull align 8 dereferenceable(8) %congConclusion) #3
  br label %ehcleanup1342

if.else1220:                                      ; preds = %invoke.cont909
  store i1 false, ptr %cleanup.cond1240, align 1
  %call1223 = invoke noundef zeroext i1 @_ZN4cvc58internal11__cvc5_truecvbEv(ptr noundef nonnull align 1 dereferenceable(1) %ref.tmp1221)
          to label %invoke.cont1222 unwind label %lpad908

invoke.cont1222:                                  ; preds = %if.else1220
  br i1 %call1223, label %cond.true1224, label %cond.false1227

cond.true1224:                                    ; preds = %invoke.cont1222
  invoke void @_ZNK4cvc58internal5NullCcvNS0_11Cvc5ostreamEEv(ptr sret(%"class.cvc5::internal::Cvc5ostream") align 8 %tmp1225, ptr noundef nonnull align 1 dereferenceable(1) @_ZN4cvc58internal10nullStreamE)
          to label %invoke.cont1226 unwind label %lpad908

invoke.cont1226:                                  ; preds = %cond.true1224
  br label %cond.end1246

cond.false1227:                                   ; preds = %invoke.cont1222
  invoke void @_ZNK4cvc58internal6TraceCclEv(ptr sret(%"class.cvc5::internal::Cvc5ostream") align 8 %ref.tmp1229, ptr noundef nonnull align 8 dereferenceable(32) @_ZN4cvc58internal12TraceChannelE)
          to label %invoke.cont1230 unwind label %lpad908

invoke.cont1230:                                  ; preds = %cond.false1227
  %call1232 = invoke noundef nonnull align 8 dereferenceable(24) ptr @_ZN4cvc58internal11Cvc5ostreamlsIA72_cEERS1_RKT_(ptr noundef nonnull align 8 dereferenceable(24) %ref.tmp1229, ptr noundef nonnull align 1 dereferenceable(72) @.str.47)
          to label %invoke.cont1231 unwind label %lpad908

invoke.cont1231:                                  ; preds = %invoke.cont1230
  store i32 71, ptr %ref.tmp1233, align 4
  %call1235 = invoke noundef nonnull align 8 dereferenceable(24) ptr @_ZN4cvc58internal11Cvc5ostreamlsINS_9ProofRuleEEERS1_RKT_(ptr noundef nonnull align 8 dereferenceable(24) %call1232, ptr noundef nonnull align 4 dereferenceable(4) %ref.tmp1233)
          to label %invoke.cont1234 unwind label %lpad908

invoke.cont1234:                                  ; preds = %invoke.cont1231
  %call1237 = invoke noundef nonnull align 8 dereferenceable(24) ptr @_ZN4cvc58internal11Cvc5ostreamlsIA11_cEERS1_RKT_(ptr noundef nonnull align 8 dereferenceable(24) %call1235, ptr noundef nonnull align 1 dereferenceable(11) @.str.48)
          to label %invoke.cont1236 unwind label %lpad908

invoke.cont1236:                                  ; preds = %invoke.cont1234
  invoke void @_ZNK4cvc58internal12NodeTemplateILb1EEixEi(ptr sret(%"class.cvc5::internal::NodeTemplate") align 8 %ref.tmp1238, ptr noundef nonnull align 8 dereferenceable(8) %expansionConclusion, i32 noundef 0)
          to label %invoke.cont1239 unwind label %lpad908

invoke.cont1239:                                  ; preds = %invoke.cont1236
  store i1 true, ptr %cleanup.cond1240, align 1
  %call1243 = invoke noundef nonnull align 8 dereferenceable(24) ptr @_ZN4cvc58internal11Cvc5ostreamlsINS0_12NodeTemplateILb1EEEEERS1_RKT_(ptr noundef nonnull align 8 dereferenceable(24) %call1237, ptr noundef nonnull align 8 dereferenceable(8) %ref.tmp1238)
          to label %invoke.cont1242 unwind label %lpad1241

invoke.cont1242:                                  ; preds = %invoke.cont1239
  %call1245 = invoke noundef nonnull align 8 dereferenceable(24) ptr @_ZN4cvc58internal11Cvc5ostreamlsIA2_cEERS1_RKT_(ptr noundef nonnull align 8 dereferenceable(24) %call1243, ptr noundef nonnull align 1 dereferenceable(2) @.str.7)
          to label %invoke.cont1244 unwind label %lpad1241

invoke.cont1244:                                  ; preds = %invoke.cont1242
  call void @llvm.memcpy.p0.p0.i64(ptr align 8 %agg.tmp.ensured1228, ptr align 8 %call1245, i64 24, i1 false)
  br label %cond.end1246

cond.end1246:                                     ; preds = %invoke.cont1244, %invoke.cont1226
  %cleanup.is_active1247 = load i1, ptr %cleanup.cond1240, align 1
  br i1 %cleanup.is_active1247, label %cleanup.action1248, label %cleanup.done1249

cleanup.action1248:                               ; preds = %cond.end1246
  call void @_ZN4cvc58internal12NodeTemplateILb1EED2Ev(ptr noundef nonnull align 8 dereferenceable(8) %ref.tmp1238) #3
  br label %cleanup.done1249

cleanup.done1249:                                 ; preds = %cleanup.action1248, %cond.end1246
  %404 = load ptr, ptr %nm, align 8
  store i8 1, ptr %ref.tmp1255, align 1
  invoke void @_ZN4cvc58internal11NodeManager7mkConstIbEENS0_12NodeTemplateILb1EEERKT_(ptr sret(%"class.cvc5::internal::NodeTemplate") align 8 %ref.tmp1254, ptr noundef nonnull align 8 dereferenceable(3360) %404, ptr noundef nonnull align 1 dereferenceable(1) %ref.tmp1255)
          to label %invoke.cont1256 unwind label %lpad908

invoke.cont1256:                                  ; preds = %cleanup.done1249
  invoke void @_ZNK4cvc58internal12NodeTemplateILb1EE6eqNodeILb1EEES2_RKNS1_IXT_EEE(ptr sret(%"class.cvc5::internal::NodeTemplate") align 8 %newExpansionConclusion, ptr noundef nonnull align 8 dereferenceable(8) %expansionConclusion, ptr noundef nonnull align 8 dereferenceable(8) %ref.tmp1254)
          to label %invoke.cont1258 unwind label %lpad1257

invoke.cont1258:                                  ; preds = %invoke.cont1256
  call void @_ZN4cvc58internal12NodeTemplateILb1EED2Ev(ptr noundef nonnull align 8 dereferenceable(8) %ref.tmp1254) #3
  %405 = load ptr, ptr %p.addr, align 8
  invoke void @_ZN4cvc58internal12NodeTemplateILb1EEC2ERKS2_(ptr noundef nonnull align 8 dereferenceable(8) %agg.tmp1260, ptr noundef nonnull align 8 dereferenceable(8) %newExpansionConclusion)
          to label %invoke.cont1262 unwind label %lpad1261

invoke.cont1262:                                  ; preds = %invoke.cont1258
  %arrayinit.begin1266 = getelementptr inbounds [1 x %"class.cvc5::internal::NodeTemplate"], ptr %ref.tmp1265, i64 0, i64 0
  store ptr %arrayinit.begin1266, ptr %arrayinit.endOfInit1267, align 8
  invoke void @_ZN4cvc58internal12NodeTemplateILb1EEC2ERKS2_(ptr noundef nonnull align 8 dereferenceable(8) %arrayinit.begin1266, ptr noundef nonnull align 8 dereferenceable(8) %expansionConclusion)
          to label %invoke.cont1269 unwind label %lpad1268

invoke.cont1269:                                  ; preds = %invoke.cont1262
  %_M_array1277 = getelementptr inbounds %"class.std::initializer_list", ptr %agg.tmp1264, i32 0, i32 0
  %arraystart1278 = getelementptr inbounds [1 x %"class.cvc5::internal::NodeTemplate"], ptr %ref.tmp1265, i64 0, i64 0
  store ptr %arraystart1278, ptr %_M_array1277, align 8
  %_M_len1279 = getelementptr inbounds %"class.std::initializer_list", ptr %agg.tmp1264, i32 0, i32 1
  store i64 1, ptr %_M_len1279, align 8
  call void @_ZNSaIN4cvc58internal12NodeTemplateILb1EEEEC2Ev(ptr noundef nonnull align 1 dereferenceable(1) %ref.tmp1280) #3
  %406 = getelementptr inbounds { ptr, i64 }, ptr %agg.tmp1264, i32 0, i32 0
  %407 = load ptr, ptr %406, align 8
  %408 = getelementptr inbounds { ptr, i64 }, ptr %agg.tmp1264, i32 0, i32 1
  %409 = load i64, ptr %408, align 8
  invoke void @_ZNSt6vectorIN4cvc58internal12NodeTemplateILb1EEESaIS3_EEC2ESt16initializer_listIS3_ERKS4_(ptr noundef nonnull align 8 dereferenceable(24) %ref.tmp1263, ptr %407, i64 %409, ptr noundef nonnull align 1 dereferenceable(1) %ref.tmp1280)
          to label %invoke.cont1282 unwind label %lpad1281

invoke.cont1282:                                  ; preds = %invoke.cont1269
  call void @llvm.memset.p0.i64(ptr align 8 %ref.tmp1283, i8 0, i64 24, i1 false)
  call void @_ZNSt6vectorIN4cvc58internal12NodeTemplateILb1EEESaIS3_EEC2Ev(ptr noundef nonnull align 8 dereferenceable(24) %ref.tmp1283) #3
  %call1286 = invoke noundef zeroext i1 @_ZN4cvc58internal7CDProof7addStepENS0_12NodeTemplateILb1EEENS_9ProofRuleERKSt6vectorIS3_SaIS3_EES9_bNS0_12CDPOverwriteE(ptr noundef nonnull align 8 dereferenceable(217) %405, ptr noundef %agg.tmp1260, i32 noundef 71, ptr noundef nonnull align 8 dereferenceable(24) %ref.tmp1263, ptr noundef nonnull align 8 dereferenceable(24) %ref.tmp1283, i1 noundef zeroext false, i32 noundef 1)
          to label %invoke.cont1285 unwind label %lpad1284

invoke.cont1285:                                  ; preds = %invoke.cont1282
  call void @_ZNSt6vectorIN4cvc58internal12NodeTemplateILb1EEESaIS3_EED2Ev(ptr noundef nonnull align 8 dereferenceable(24) %ref.tmp1283) #3
  call void @_ZNSt6vectorIN4cvc58internal12NodeTemplateILb1EEESaIS3_EED2Ev(ptr noundef nonnull align 8 dereferenceable(24) %ref.tmp1263) #3
  call void @_ZNSaIN4cvc58internal12NodeTemplateILb1EEEED2Ev(ptr noundef nonnull align 1 dereferenceable(1) %ref.tmp1280) #3
  %array.begin1290 = getelementptr inbounds [1 x %"class.cvc5::internal::NodeTemplate"], ptr %ref.tmp1265, i32 0, i32 0
  %410 = getelementptr inbounds %"class.cvc5::internal::NodeTemplate", ptr %array.begin1290, i64 1
  br label %arraydestroy.body1291

arraydestroy.body1291:                            ; preds = %arraydestroy.body1291, %invoke.cont1285
  %arraydestroy.elementPast1292 = phi ptr [ %410, %invoke.cont1285 ], [ %arraydestroy.element1293, %arraydestroy.body1291 ]
  %arraydestroy.element1293 = getelementptr inbounds %"class.cvc5::internal::NodeTemplate", ptr %arraydestroy.elementPast1292, i64 -1
  call void @_ZN4cvc58internal12NodeTemplateILb1EED2Ev(ptr noundef nonnull align 8 dereferenceable(8) %arraydestroy.element1293) #3
  %arraydestroy.done1294 = icmp eq ptr %arraydestroy.element1293, %array.begin1290
  br i1 %arraydestroy.done1294, label %arraydestroy.done1295, label %arraydestroy.body1291

arraydestroy.done1295:                            ; preds = %arraydestroy.body1291
  call void @_ZN4cvc58internal12NodeTemplateILb1EED2Ev(ptr noundef nonnull align 8 dereferenceable(8) %agg.tmp1260) #3
  %411 = load ptr, ptr %premises.addr, align 8
  invoke void @_ZNSt6vectorIN4cvc58internal12NodeTemplateILb1EEESaIS3_EE9push_backERKS3_(ptr noundef nonnull align 8 dereferenceable(24) %411, ptr noundef nonnull align 8 dereferenceable(8) %newExpansionConclusion)
          to label %invoke.cont1304 unwind label %lpad1261

invoke.cont1304:                                  ; preds = %arraydestroy.done1295
  %call1307 = invoke noundef zeroext i1 @_ZN4cvc58internal11__cvc5_truecvbEv(ptr noundef nonnull align 1 dereferenceable(1) %ref.tmp1305)
          to label %invoke.cont1306 unwind label %lpad1261

invoke.cont1306:                                  ; preds = %invoke.cont1304
  br i1 %call1307, label %cond.true1308, label %cond.false1311

cond.true1308:                                    ; preds = %invoke.cont1306
  invoke void @_ZNK4cvc58internal5NullCcvNS0_11Cvc5ostreamEEv(ptr sret(%"class.cvc5::internal::Cvc5ostream") align 8 %tmp1309, ptr noundef nonnull align 1 dereferenceable(1) @_ZN4cvc58internal10nullStreamE)
          to label %invoke.cont1310 unwind label %lpad1261

invoke.cont1310:                                  ; preds = %cond.true1308
  br label %cond.end1324

cond.false1311:                                   ; preds = %invoke.cont1306
  invoke void @_ZNK4cvc58internal6TraceCclEv(ptr sret(%"class.cvc5::internal::Cvc5ostream") align 8 %ref.tmp1313, ptr noundef nonnull align 8 dereferenceable(32) @_ZN4cvc58internal12TraceChannelE)
          to label %invoke.cont1314 unwind label %lpad1261

invoke.cont1314:                                  ; preds = %cond.false1311
  store i32 69, ptr %ref.tmp1315, align 4
  %call1317 = invoke noundef nonnull align 8 dereferenceable(24) ptr @_ZN4cvc58internal11Cvc5ostreamlsINS_9ProofRuleEEERS1_RKT_(ptr noundef nonnull align 8 dereferenceable(24) %ref.tmp1313, ptr noundef nonnull align 4 dereferenceable(4) %ref.tmp1315)
          to label %invoke.cont1316 unwind label %lpad1261

invoke.cont1316:                                  ; preds = %invoke.cont1314
  %call1319 = invoke noundef nonnull align 8 dereferenceable(24) ptr @_ZN4cvc58internal11Cvc5ostreamlsIA7_cEERS1_RKT_(ptr noundef nonnull align 8 dereferenceable(24) %call1317, ptr noundef nonnull align 1 dereferenceable(7) @.str.49)
          to label %invoke.cont1318 unwind label %lpad1261

invoke.cont1318:                                  ; preds = %invoke.cont1316
  %412 = load ptr, ptr %premises.addr, align 8
  %call1321 = invoke noundef nonnull align 8 dereferenceable(24) ptr @_ZN4cvc58internal11Cvc5ostreamlsISt6vectorINS0_12NodeTemplateILb1EEESaIS5_EEEERS1_RKT_(ptr noundef nonnull align 8 dereferenceable(24) %call1319, ptr noundef nonnull align 8 dereferenceable(24) %412)
          to label %invoke.cont1320 unwind label %lpad1261

invoke.cont1320:                                  ; preds = %invoke.cont1318
  %call1323 = invoke noundef nonnull align 8 dereferenceable(24) ptr @_ZN4cvc58internal11Cvc5ostreamlsIA2_cEERS1_RKT_(ptr noundef nonnull align 8 dereferenceable(24) %call1321, ptr noundef nonnull align 1 dereferenceable(2) @.str.7)
          to label %invoke.cont1322 unwind label %lpad1261

invoke.cont1322:                                  ; preds = %invoke.cont1320
  call void @llvm.memcpy.p0.p0.i64(ptr align 8 %agg.tmp.ensured1312, ptr align 8 %call1323, i64 24, i1 false)
  br label %cond.end1324

cond.end1324:                                     ; preds = %invoke.cont1322, %invoke.cont1310
  invoke void @_ZN4cvc58internal12NodeTemplateILb1EEC2ERKS2_(ptr noundef nonnull align 8 dereferenceable(8) %agg.tmp1325, ptr noundef nonnull align 8 dereferenceable(8) %conclusion)
          to label %invoke.cont1326 unwind label %lpad1261

invoke.cont1326:                                  ; preds = %cond.end1324
  %413 = load ptr, ptr %premises.addr, align 8
  %call1329 = invoke noundef zeroext i1 @_ZNK4cvc58internal6theory2eq7EqProof22buildTransitivityChainENS0_12NodeTemplateILb1EEERSt6vectorIS5_SaIS5_EE(ptr noundef nonnull align 8 dereferenceable(40) %this1, ptr noundef %agg.tmp1325, ptr noundef nonnull align 8 dereferenceable(24) %413)
          to label %invoke.cont1328 unwind label %lpad1327

invoke.cont1328:                                  ; preds = %invoke.cont1326
  call void @_ZN4cvc58internal12NodeTemplateILb1EED2Ev(ptr noundef nonnull align 8 dereferenceable(8) %agg.tmp1325) #3
  %414 = load ptr, ptr %p.addr, align 8
  invoke void @_ZN4cvc58internal12NodeTemplateILb1EEC2ERKS2_(ptr noundef nonnull align 8 dereferenceable(8) %agg.tmp1331, ptr noundef nonnull align 8 dereferenceable(8) %conclusion)
          to label %invoke.cont1332 unwind label %lpad1261

invoke.cont1332:                                  ; preds = %invoke.cont1328
  %415 = load ptr, ptr %premises.addr, align 8
  call void @llvm.memset.p0.i64(ptr align 8 %ref.tmp1333, i8 0, i64 24, i1 false)
  call void @_ZNSt6vectorIN4cvc58internal12NodeTemplateILb1EEESaIS3_EEC2Ev(ptr noundef nonnull align 8 dereferenceable(24) %ref.tmp1333) #3
  %call1336 = invoke noundef zeroext i1 @_ZN4cvc58internal7CDProof7addStepENS0_12NodeTemplateILb1EEENS_9ProofRuleERKSt6vectorIS3_SaIS3_EES9_bNS0_12CDPOverwriteE(ptr noundef nonnull align 8 dereferenceable(217) %414, ptr noundef %agg.tmp1331, i32 noundef 69, ptr noundef nonnull align 8 dereferenceable(24) %415, ptr noundef nonnull align 8 dereferenceable(24) %ref.tmp1333, i1 noundef zeroext true, i32 noundef 1)
          to label %invoke.cont1335 unwind label %lpad1334

invoke.cont1335:                                  ; preds = %invoke.cont1332
  call void @_ZNSt6vectorIN4cvc58internal12NodeTemplateILb1EEESaIS3_EED2Ev(ptr noundef nonnull align 8 dereferenceable(24) %ref.tmp1333) #3
  call void @_ZN4cvc58internal12NodeTemplateILb1EED2Ev(ptr noundef nonnull align 8 dereferenceable(8) %agg.tmp1331) #3
  call void @_ZN4cvc58internal12NodeTemplateILb1EED2Ev(ptr noundef nonnull align 8 dereferenceable(8) %newExpansionConclusion) #3
  br label %if.end1340

lpad1241:                                         ; preds = %invoke.cont1242, %invoke.cont1239
  %416 = landingpad { ptr, i32 }
          cleanup
  %417 = extractvalue { ptr, i32 } %416, 0
  store ptr %417, ptr %exn.slot, align 8
  %418 = extractvalue { ptr, i32 } %416, 1
  store i32 %418, ptr %ehselector.slot, align 4
  %cleanup.is_active1251 = load i1, ptr %cleanup.cond1240, align 1
  br i1 %cleanup.is_active1251, label %cleanup.action1252, label %cleanup.done1253

cleanup.action1252:                               ; preds = %lpad1241
  call void @_ZN4cvc58internal12NodeTemplateILb1EED2Ev(ptr noundef nonnull align 8 dereferenceable(8) %ref.tmp1238) #3
  br label %cleanup.done1253

cleanup.done1253:                                 ; preds = %cleanup.action1252, %lpad1241
  br label %ehcleanup1342

lpad1257:                                         ; preds = %invoke.cont1256
  %419 = landingpad { ptr, i32 }
          cleanup
  %420 = extractvalue { ptr, i32 } %419, 0
  store ptr %420, ptr %exn.slot, align 8
  %421 = extractvalue { ptr, i32 } %419, 1
  store i32 %421, ptr %ehselector.slot, align 4
  call void @_ZN4cvc58internal12NodeTemplateILb1EED2Ev(ptr noundef nonnull align 8 dereferenceable(8) %ref.tmp1254) #3
  br label %ehcleanup1342

lpad1261:                                         ; preds = %invoke.cont1328, %cond.end1324, %invoke.cont1320, %invoke.cont1318, %invoke.cont1316, %invoke.cont1314, %cond.false1311, %cond.true1308, %invoke.cont1304, %arraydestroy.done1295, %invoke.cont1258
  %422 = landingpad { ptr, i32 }
          cleanup
  %423 = extractvalue { ptr, i32 } %422, 0
  store ptr %423, ptr %exn.slot, align 8
  %424 = extractvalue { ptr, i32 } %422, 1
  store i32 %424, ptr %ehselector.slot, align 4
  br label %ehcleanup1339

lpad1268:                                         ; preds = %invoke.cont1262
  %425 = landingpad { ptr, i32 }
          cleanup
  %426 = extractvalue { ptr, i32 } %425, 0
  store ptr %426, ptr %exn.slot, align 8
  %427 = extractvalue { ptr, i32 } %425, 1
  store i32 %427, ptr %ehselector.slot, align 4
  %428 = load ptr, ptr %arrayinit.endOfInit1267, align 8
  %arraydestroy.isempty1271 = icmp eq ptr %arrayinit.begin1266, %428
  br i1 %arraydestroy.isempty1271, label %arraydestroy.done1276, label %arraydestroy.body1272

arraydestroy.body1272:                            ; preds = %arraydestroy.body1272, %lpad1268
  %arraydestroy.elementPast1273 = phi ptr [ %428, %lpad1268 ], [ %arraydestroy.element1274, %arraydestroy.body1272 ]
  %arraydestroy.element1274 = getelementptr inbounds %"class.cvc5::internal::NodeTemplate", ptr %arraydestroy.elementPast1273, i64 -1
  call void @_ZN4cvc58internal12NodeTemplateILb1EED2Ev(ptr noundef nonnull align 8 dereferenceable(8) %arraydestroy.element1274) #3
  %arraydestroy.done1275 = icmp eq ptr %arraydestroy.element1274, %arrayinit.begin1266
  br i1 %arraydestroy.done1275, label %arraydestroy.done1276, label %arraydestroy.body1272

arraydestroy.done1276:                            ; preds = %arraydestroy.body1272, %lpad1268
  br label %ehcleanup1303

lpad1281:                                         ; preds = %invoke.cont1269
  %429 = landingpad { ptr, i32 }
          cleanup
  %430 = extractvalue { ptr, i32 } %429, 0
  store ptr %430, ptr %exn.slot, align 8
  %431 = extractvalue { ptr, i32 } %429, 1
  store i32 %431, ptr %ehselector.slot, align 4
  br label %ehcleanup1289

lpad1284:                                         ; preds = %invoke.cont1282
  %432 = landingpad { ptr, i32 }
          cleanup
  %433 = extractvalue { ptr, i32 } %432, 0
  store ptr %433, ptr %exn.slot, align 8
  %434 = extractvalue { ptr, i32 } %432, 1
  store i32 %434, ptr %ehselector.slot, align 4
  call void @_ZNSt6vectorIN4cvc58internal12NodeTemplateILb1EEESaIS3_EED2Ev(ptr noundef nonnull align 8 dereferenceable(24) %ref.tmp1283) #3
  call void @_ZNSt6vectorIN4cvc58internal12NodeTemplateILb1EEESaIS3_EED2Ev(ptr noundef nonnull align 8 dereferenceable(24) %ref.tmp1263) #3
  br label %ehcleanup1289

ehcleanup1289:                                    ; preds = %lpad1284, %lpad1281
  call void @_ZNSaIN4cvc58internal12NodeTemplateILb1EEEED2Ev(ptr noundef nonnull align 1 dereferenceable(1) %ref.tmp1280) #3
  %array.begin1297 = getelementptr inbounds [1 x %"class.cvc5::internal::NodeTemplate"], ptr %ref.tmp1265, i32 0, i32 0
  %435 = getelementptr inbounds %"class.cvc5::internal::NodeTemplate", ptr %array.begin1297, i64 1
  br label %arraydestroy.body1298

arraydestroy.body1298:                            ; preds = %arraydestroy.body1298, %ehcleanup1289
  %arraydestroy.elementPast1299 = phi ptr [ %435, %ehcleanup1289 ], [ %arraydestroy.element1300, %arraydestroy.body1298 ]
  %arraydestroy.element1300 = getelementptr inbounds %"class.cvc5::internal::NodeTemplate", ptr %arraydestroy.elementPast1299, i64 -1
  call void @_ZN4cvc58internal12NodeTemplateILb1EED2Ev(ptr noundef nonnull align 8 dereferenceable(8) %arraydestroy.element1300) #3
  %arraydestroy.done1301 = icmp eq ptr %arraydestroy.element1300, %array.begin1297
  br i1 %arraydestroy.done1301, label %arraydestroy.done1302, label %arraydestroy.body1298

arraydestroy.done1302:                            ; preds = %arraydestroy.body1298
  br label %ehcleanup1303

ehcleanup1303:                                    ; preds = %arraydestroy.done1302, %arraydestroy.done1276
  call void @_ZN4cvc58internal12NodeTemplateILb1EED2Ev(ptr noundef nonnull align 8 dereferenceable(8) %agg.tmp1260) #3
  br label %ehcleanup1339

lpad1327:                                         ; preds = %invoke.cont1326
  %436 = landingpad { ptr, i32 }
          cleanup
  %437 = extractvalue { ptr, i32 } %436, 0
  store ptr %437, ptr %exn.slot, align 8
  %438 = extractvalue { ptr, i32 } %436, 1
  store i32 %438, ptr %ehselector.slot, align 4
  call void @_ZN4cvc58internal12NodeTemplateILb1EED2Ev(ptr noundef nonnull align 8 dereferenceable(8) %agg.tmp1325) #3
  br label %ehcleanup1339

lpad1334:                                         ; preds = %invoke.cont1332
  %439 = landingpad { ptr, i32 }
          cleanup
  %440 = extractvalue { ptr, i32 } %439, 0
  store ptr %440, ptr %exn.slot, align 8
  %441 = extractvalue { ptr, i32 } %439, 1
  store i32 %441, ptr %ehselector.slot, align 4
  call void @_ZNSt6vectorIN4cvc58internal12NodeTemplateILb1EEESaIS3_EED2Ev(ptr noundef nonnull align 8 dereferenceable(24) %ref.tmp1333) #3
  call void @_ZN4cvc58internal12NodeTemplateILb1EED2Ev(ptr noundef nonnull align 8 dereferenceable(8) %agg.tmp1331) #3
  br label %ehcleanup1339

ehcleanup1339:                                    ; preds = %lpad1334, %lpad1327, %ehcleanup1303, %lpad1261
  call void @_ZN4cvc58internal12NodeTemplateILb1EED2Ev(ptr noundef nonnull align 8 dereferenceable(8) %newExpansionConclusion) #3
  br label %ehcleanup1342

if.end1340:                                       ; preds = %invoke.cont1335, %if.end1217
  store i1 true, ptr %retval, align 1
  store i32 1, ptr %cleanup.dest.slot, align 4
  call void @_ZN4cvc58internal12NodeTemplateILb1EED2Ev(ptr noundef nonnull align 8 dereferenceable(8) %offendingNode) #3
  call void @_ZNSt6vectorIN4cvc58internal12NodeTemplateILb1EEESaIS3_EED2Ev(ptr noundef nonnull align 8 dereferenceable(24) %substPremises) #3
  call void @_ZN4cvc58internal12NodeTemplateILb1EED2Ev(ptr noundef nonnull align 8 dereferenceable(8) %expansionConclusion) #3
  call void @_ZNSt6vectorIN4cvc58internal12NodeTemplateILb1EEESaIS3_EED2Ev(ptr noundef nonnull align 8 dereferenceable(24) %expansionPremises) #3
  br label %return

ehcleanup1342:                                    ; preds = %ehcleanup1339, %lpad1257, %cleanup.done1253, %ehcleanup1219, %ehcleanup973, %lpad908
  call void @_ZN4cvc58internal12NodeTemplateILb1EED2Ev(ptr noundef nonnull align 8 dereferenceable(8) %offendingNode) #3
  br label %ehcleanup1344

ehcleanup1344:                                    ; preds = %ehcleanup1342, %lpad883, %lpad855, %lpad817, %ehcleanup811, %ehcleanup171, %ehcleanup131, %ehcleanup108, %lpad92
  call void @_ZNSt6vectorIN4cvc58internal12NodeTemplateILb1EEESaIS3_EED2Ev(ptr noundef nonnull align 8 dereferenceable(24) %substPremises) #3
  call void @_ZN4cvc58internal12NodeTemplateILb1EED2Ev(ptr noundef nonnull align 8 dereferenceable(8) %expansionConclusion) #3
  br label %ehcleanup1348

ehcleanup1348:                                    ; preds = %ehcleanup1344, %lpad83
  call void @_ZNSt6vectorIN4cvc58internal12NodeTemplateILb1EEESaIS3_EED2Ev(ptr noundef nonnull align 8 dereferenceable(24) %expansionPremises) #3
  br label %eh.resume

return:                                           ; preds = %if.end1340, %cond.end57
  %442 = load i1, ptr %retval, align 1
  ret i1 %442

eh.resume:                                        ; preds = %ehcleanup1348, %ehcleanup42
  %exn = load ptr, ptr %exn.slot, align 8
  %sel = load i32, ptr %ehselector.slot, align 4
  %lpad.val = insertvalue { ptr, i32 } poison, ptr %exn, 0
  %lpad.val1349 = insertvalue { ptr, i32 } %lpad.val, i32 %sel, 1
  resume { ptr, i32 } %lpad.val1349

unreachable:                                      ; preds = %cleanup
  unreachable
}

; Function Attrs: mustprogress uwtable
define linkonce_odr hidden noundef nonnull align 8 dereferenceable(24) ptr @_ZN4cvc58internal11Cvc5ostreamlsIA100_cEERS1_RKT_(ptr noundef nonnull align 8 dereferenceable(24) %this, ptr noundef nonnull align 1 dereferenceable(100) %t) #4 comdat align 2 {
entry:
  %this.addr = alloca ptr, align 8
  %t.addr = alloca ptr, align 8
  %indent = alloca i64, align 8
  %i = alloca i64, align 8
  store ptr %this, ptr %this.addr, align 8
  store ptr %t, ptr %t.addr, align 8
  %this1 = load ptr, ptr %this.addr, align 8
  %d_os = getelementptr inbounds %"class.cvc5::internal::Cvc5ostream", ptr %this1, i32 0, i32 0
  %0 = load ptr, ptr %d_os, align 8
  %cmp = icmp ne ptr %0, null
  br i1 %cmp, label %if.then, label %if.end11

if.then:                                          ; preds = %entry
  %d_firstColumn = getelementptr inbounds %"class.cvc5::internal::Cvc5ostream", ptr %this1, i32 0, i32 1
  %1 = load i8, ptr %d_firstColumn, align 8
  %tobool = trunc i8 %1 to i1
  br i1 %tobool, label %if.then2, label %if.end

if.then2:                                         ; preds = %if.then
  %d_firstColumn3 = getelementptr inbounds %"class.cvc5::internal::Cvc5ostream", ptr %this1, i32 0, i32 1
  store i8 0, ptr %d_firstColumn3, align 8
  %d_os4 = getelementptr inbounds %"class.cvc5::internal::Cvc5ostream", ptr %this1, i32 0, i32 0
  %2 = load ptr, ptr %d_os4, align 8
  %vtable = load ptr, ptr %2, align 8
  %vbase.offset.ptr = getelementptr i8, ptr %vtable, i64 -24
  %vbase.offset = load i64, ptr %vbase.offset.ptr, align 8
  %add.ptr = getelementptr inbounds i8, ptr %2, i64 %vbase.offset
  %3 = load i32, ptr @_ZN4cvc58internal11Cvc5ostream16s_indentIosIndexE, align 4
  %call = call noundef nonnull align 8 dereferenceable(8) ptr @_ZNSt8ios_base5iwordEi(ptr noundef nonnull align 8 dereferenceable(216) %add.ptr, i32 noundef %3)
  %4 = load i64, ptr %call, align 8
  store i64 %4, ptr %indent, align 8
  store i64 0, ptr %i, align 8
  br label %for.cond

for.cond:                                         ; preds = %for.inc, %if.then2
  %5 = load i64, ptr %i, align 8
  %6 = load i64, ptr %indent, align 8
  %cmp5 = icmp slt i64 %5, %6
  br i1 %cmp5, label %for.body, label %for.end

for.body:                                         ; preds = %for.cond
  %d_os6 = getelementptr inbounds %"class.cvc5::internal::Cvc5ostream", ptr %this1, i32 0, i32 0
  %7 = load ptr, ptr %d_os6, align 8
  %call7 = call noundef nonnull align 8 dereferenceable(8) ptr @_ZStlsIcSt11char_traitsIcESaIcEERSt13basic_ostreamIT_T0_ES7_RKNSt7__cxx1112basic_stringIS4_S5_T1_EE(ptr noundef nonnull align 8 dereferenceable(8) %7, ptr noundef nonnull align 8 dereferenceable(32) @_ZN4cvc58internal11Cvc5ostream5s_tabB5cxx11E)
  %d_os8 = getelementptr inbounds %"class.cvc5::internal::Cvc5ostream", ptr %this1, i32 0, i32 0
  store ptr %call7, ptr %d_os8, align 8
  br label %for.inc

for.inc:                                          ; preds = %for.body
  %8 = load i64, ptr %i, align 8
  %inc = add nsw i64 %8, 1
  store i64 %inc, ptr %i, align 8
  br label %for.cond, !llvm.loop !27

for.end:                                          ; preds = %for.cond
  br label %if.end

if.end:                                           ; preds = %for.end, %if.then
  %d_os9 = getelementptr inbounds %"class.cvc5::internal::Cvc5ostream", ptr %this1, i32 0, i32 0
  %9 = load ptr, ptr %d_os9, align 8
  %10 = load ptr, ptr %t.addr, align 8
  %arraydecay = getelementptr inbounds [100 x i8], ptr %10, i64 0, i64 0
  %call10 = call noundef nonnull align 8 dereferenceable(8) ptr @_ZStlsISt11char_traitsIcEERSt13basic_ostreamIcT_ES5_PKc(ptr noundef nonnull align 8 dereferenceable(8) %9, ptr noundef %arraydecay)
  br label %if.end11

if.end11:                                         ; preds = %if.end, %entry
  ret ptr %this1
}

; Function Attrs: mustprogress uwtable
define linkonce_odr hidden noundef nonnull align 8 dereferenceable(24) ptr @_ZN4cvc58internal11Cvc5ostreamlsINS0_12NodeTemplateILb1EEEEERS1_RKT_(ptr noundef nonnull align 8 dereferenceable(24) %this, ptr noundef nonnull align 8 dereferenceable(8) %t) #4 comdat align 2 personality ptr @__gxx_personality_v0 {
entry:
  %this.addr = alloca ptr, align 8
  %t.addr = alloca ptr, align 8
  %indent = alloca i64, align 8
  %i = alloca i64, align 8
  %agg.tmp = alloca %"class.cvc5::internal::NodeTemplate.8", align 8
  %exn.slot = alloca ptr, align 8
  %ehselector.slot = alloca i32, align 4
  store ptr %this, ptr %this.addr, align 8
  store ptr %t, ptr %t.addr, align 8
  %this1 = load ptr, ptr %this.addr, align 8
  %d_os = getelementptr inbounds %"class.cvc5::internal::Cvc5ostream", ptr %this1, i32 0, i32 0
  %0 = load ptr, ptr %d_os, align 8
  %cmp = icmp ne ptr %0, null
  br i1 %cmp, label %if.then, label %if.end11

if.then:                                          ; preds = %entry
  %d_firstColumn = getelementptr inbounds %"class.cvc5::internal::Cvc5ostream", ptr %this1, i32 0, i32 1
  %1 = load i8, ptr %d_firstColumn, align 8
  %tobool = trunc i8 %1 to i1
  br i1 %tobool, label %if.then2, label %if.end

if.then2:                                         ; preds = %if.then
  %d_firstColumn3 = getelementptr inbounds %"class.cvc5::internal::Cvc5ostream", ptr %this1, i32 0, i32 1
  store i8 0, ptr %d_firstColumn3, align 8
  %d_os4 = getelementptr inbounds %"class.cvc5::internal::Cvc5ostream", ptr %this1, i32 0, i32 0
  %2 = load ptr, ptr %d_os4, align 8
  %vtable = load ptr, ptr %2, align 8
  %vbase.offset.ptr = getelementptr i8, ptr %vtable, i64 -24
  %vbase.offset = load i64, ptr %vbase.offset.ptr, align 8
  %add.ptr = getelementptr inbounds i8, ptr %2, i64 %vbase.offset
  %3 = load i32, ptr @_ZN4cvc58internal11Cvc5ostream16s_indentIosIndexE, align 4
  %call = call noundef nonnull align 8 dereferenceable(8) ptr @_ZNSt8ios_base5iwordEi(ptr noundef nonnull align 8 dereferenceable(216) %add.ptr, i32 noundef %3)
  %4 = load i64, ptr %call, align 8
  store i64 %4, ptr %indent, align 8
  store i64 0, ptr %i, align 8
  br label %for.cond

for.cond:                                         ; preds = %for.inc, %if.then2
  %5 = load i64, ptr %i, align 8
  %6 = load i64, ptr %indent, align 8
  %cmp5 = icmp slt i64 %5, %6
  br i1 %cmp5, label %for.body, label %for.end

for.body:                                         ; preds = %for.cond
  %d_os6 = getelementptr inbounds %"class.cvc5::internal::Cvc5ostream", ptr %this1, i32 0, i32 0
  %7 = load ptr, ptr %d_os6, align 8
  %call7 = call noundef nonnull align 8 dereferenceable(8) ptr @_ZStlsIcSt11char_traitsIcESaIcEERSt13basic_ostreamIT_T0_ES7_RKNSt7__cxx1112basic_stringIS4_S5_T1_EE(ptr noundef nonnull align 8 dereferenceable(8) %7, ptr noundef nonnull align 8 dereferenceable(32) @_ZN4cvc58internal11Cvc5ostream5s_tabB5cxx11E)
  %d_os8 = getelementptr inbounds %"class.cvc5::internal::Cvc5ostream", ptr %this1, i32 0, i32 0
  store ptr %call7, ptr %d_os8, align 8
  br label %for.inc

for.inc:                                          ; preds = %for.body
  %8 = load i64, ptr %i, align 8
  %inc = add nsw i64 %8, 1
  store i64 %inc, ptr %i, align 8
  br label %for.cond, !llvm.loop !28

for.end:                                          ; preds = %for.cond
  br label %if.end

if.end:                                           ; preds = %for.end, %if.then
  %d_os9 = getelementptr inbounds %"class.cvc5::internal::Cvc5ostream", ptr %this1, i32 0, i32 0
  %9 = load ptr, ptr %d_os9, align 8
  %10 = load ptr, ptr %t.addr, align 8
  call void @_ZN4cvc58internal12NodeTemplateILb0EEC2ERKNS1_ILb1EEE(ptr noundef nonnull align 8 dereferenceable(8) %agg.tmp, ptr noundef nonnull align 8 dereferenceable(8) %10)
  %call10 = invoke noundef nonnull align 8 dereferenceable(8) ptr @_ZN4cvc58internallsERSoNS0_12NodeTemplateILb0EEE(ptr noundef nonnull align 8 dereferenceable(8) %9, ptr noundef %agg.tmp)
          to label %invoke.cont unwind label %lpad

invoke.cont:                                      ; preds = %if.end
  call void @_ZN4cvc58internal12NodeTemplateILb0EED2Ev(ptr noundef nonnull align 8 dereferenceable(8) %agg.tmp) #3
  br label %if.end11

lpad:                                             ; preds = %if.end
  %11 = landingpad { ptr, i32 }
          cleanup
  %12 = extractvalue { ptr, i32 } %11, 0
  store ptr %12, ptr %exn.slot, align 8
  %13 = extractvalue { ptr, i32 } %11, 1
  store i32 %13, ptr %ehselector.slot, align 4
  call void @_ZN4cvc58internal12NodeTemplateILb0EED2Ev(ptr noundef nonnull align 8 dereferenceable(8) %agg.tmp) #3
  br label %eh.resume

if.end11:                                         ; preds = %invoke.cont, %entry
  ret ptr %this1

eh.resume:                                        ; preds = %lpad
  %exn = load ptr, ptr %exn.slot, align 8
  %sel = load i32, ptr %ehselector.slot, align 4
  %lpad.val = insertvalue { ptr, i32 } poison, ptr %exn, 0
  %lpad.val12 = insertvalue { ptr, i32 } %lpad.val, i32 %sel, 1
  resume { ptr, i32 } %lpad.val12
}

; Function Attrs: mustprogress uwtable
define linkonce_odr hidden noundef nonnull align 8 dereferenceable(24) ptr @_ZN4cvc58internal11Cvc5ostreamlsIA16_cEERS1_RKT_(ptr noundef nonnull align 8 dereferenceable(24) %this, ptr noundef nonnull align 1 dereferenceable(16) %t) #4 comdat align 2 {
entry:
  %this.addr = alloca ptr, align 8
  %t.addr = alloca ptr, align 8
  %indent = alloca i64, align 8
  %i = alloca i64, align 8
  store ptr %this, ptr %this.addr, align 8
  store ptr %t, ptr %t.addr, align 8
  %this1 = load ptr, ptr %this.addr, align 8
  %d_os = getelementptr inbounds %"class.cvc5::internal::Cvc5ostream", ptr %this1, i32 0, i32 0
  %0 = load ptr, ptr %d_os, align 8
  %cmp = icmp ne ptr %0, null
  br i1 %cmp, label %if.then, label %if.end11

if.then:                                          ; preds = %entry
  %d_firstColumn = getelementptr inbounds %"class.cvc5::internal::Cvc5ostream", ptr %this1, i32 0, i32 1
  %1 = load i8, ptr %d_firstColumn, align 8
  %tobool = trunc i8 %1 to i1
  br i1 %tobool, label %if.then2, label %if.end

if.then2:                                         ; preds = %if.then
  %d_firstColumn3 = getelementptr inbounds %"class.cvc5::internal::Cvc5ostream", ptr %this1, i32 0, i32 1
  store i8 0, ptr %d_firstColumn3, align 8
  %d_os4 = getelementptr inbounds %"class.cvc5::internal::Cvc5ostream", ptr %this1, i32 0, i32 0
  %2 = load ptr, ptr %d_os4, align 8
  %vtable = load ptr, ptr %2, align 8
  %vbase.offset.ptr = getelementptr i8, ptr %vtable, i64 -24
  %vbase.offset = load i64, ptr %vbase.offset.ptr, align 8
  %add.ptr = getelementptr inbounds i8, ptr %2, i64 %vbase.offset
  %3 = load i32, ptr @_ZN4cvc58internal11Cvc5ostream16s_indentIosIndexE, align 4
  %call = call noundef nonnull align 8 dereferenceable(8) ptr @_ZNSt8ios_base5iwordEi(ptr noundef nonnull align 8 dereferenceable(216) %add.ptr, i32 noundef %3)
  %4 = load i64, ptr %call, align 8
  store i64 %4, ptr %indent, align 8
  store i64 0, ptr %i, align 8
  br label %for.cond

for.cond:                                         ; preds = %for.inc, %if.then2
  %5 = load i64, ptr %i, align 8
  %6 = load i64, ptr %indent, align 8
  %cmp5 = icmp slt i64 %5, %6
  br i1 %cmp5, label %for.body, label %for.end

for.body:                                         ; preds = %for.cond
  %d_os6 = getelementptr inbounds %"class.cvc5::internal::Cvc5ostream", ptr %this1, i32 0, i32 0
  %7 = load ptr, ptr %d_os6, align 8
  %call7 = call noundef nonnull align 8 dereferenceable(8) ptr @_ZStlsIcSt11char_traitsIcESaIcEERSt13basic_ostreamIT_T0_ES7_RKNSt7__cxx1112basic_stringIS4_S5_T1_EE(ptr noundef nonnull align 8 dereferenceable(8) %7, ptr noundef nonnull align 8 dereferenceable(32) @_ZN4cvc58internal11Cvc5ostream5s_tabB5cxx11E)
  %d_os8 = getelementptr inbounds %"class.cvc5::internal::Cvc5ostream", ptr %this1, i32 0, i32 0
  store ptr %call7, ptr %d_os8, align 8
  br label %for.inc

for.inc:                                          ; preds = %for.body
  %8 = load i64, ptr %i, align 8
  %inc = add nsw i64 %8, 1
  store i64 %inc, ptr %i, align 8
  br label %for.cond, !llvm.loop !29

for.end:                                          ; preds = %for.cond
  br label %if.end

if.end:                                           ; preds = %for.end, %if.then
  %d_os9 = getelementptr inbounds %"class.cvc5::internal::Cvc5ostream", ptr %this1, i32 0, i32 0
  %9 = load ptr, ptr %d_os9, align 8
  %10 = load ptr, ptr %t.addr, align 8
  %arraydecay = getelementptr inbounds [16 x i8], ptr %10, i64 0, i64 0
  %call10 = call noundef nonnull align 8 dereferenceable(8) ptr @_ZStlsISt11char_traitsIcEERSt13basic_ostreamIcT_ES5_PKc(ptr noundef nonnull align 8 dereferenceable(8) %9, ptr noundef %arraydecay)
  br label %if.end11

if.end11:                                         ; preds = %if.end, %entry
  ret ptr %this1
}

; Function Attrs: mustprogress nounwind uwtable
define linkonce_odr hidden noundef i32 @_ZNK4cvc58internal12NodeTemplateILb1EE7getKindEv(ptr noundef nonnull align 8 dereferenceable(8) %this) #5 comdat align 2 {
entry:
  %this.addr = alloca ptr, align 8
  store ptr %this, ptr %this.addr, align 8
  %this1 = load ptr, ptr %this.addr, align 8
  call void @_ZNK4cvc58internal12NodeTemplateILb1EE21assertTNodeNotExpiredEv(ptr noundef nonnull align 8 dereferenceable(8) %this1)
  %d_nv = getelementptr inbounds %"class.cvc5::internal::NodeTemplate", ptr %this1, i32 0, i32 0
  %0 = load ptr, ptr %d_nv, align 8
  %d_kind = getelementptr inbounds %"class.cvc5::internal::expr::NodeValue", ptr %0, i32 0, i32 1
  %bf.load = load i16, ptr %d_kind, align 8
  %bf.clear = and i16 %bf.load, 1023
  %bf.cast = zext i16 %bf.clear to i32
  ret i32 %bf.cast
}

; Function Attrs: mustprogress uwtable
define linkonce_odr hidden noundef nonnull align 1 dereferenceable(1) ptr @_ZNK4cvc58internal12NodeTemplateILb1EE8getConstIbEERKT_v(ptr noundef nonnull align 8 dereferenceable(8) %this) #4 comdat align 2 {
entry:
  %this.addr = alloca ptr, align 8
  store ptr %this, ptr %this.addr, align 8
  %this1 = load ptr, ptr %this.addr, align 8
  call void @_ZNK4cvc58internal12NodeTemplateILb1EE21assertTNodeNotExpiredEv(ptr noundef nonnull align 8 dereferenceable(8) %this1)
  %d_nv = getelementptr inbounds %"class.cvc5::internal::NodeTemplate", ptr %this1, i32 0, i32 0
  %0 = load ptr, ptr %d_nv, align 8
  %call = call noundef nonnull align 1 dereferenceable(1) ptr @_ZNK4cvc58internal4expr9NodeValue8getConstIbEERKT_v(ptr noundef nonnull align 8 dereferenceable(16) %0)
  ret ptr %call
}

; Function Attrs: mustprogress uwtable
define linkonce_odr hidden noundef nonnull align 8 dereferenceable(24) ptr @_ZN4cvc58internal11Cvc5ostreamlsIA55_cEERS1_RKT_(ptr noundef nonnull align 8 dereferenceable(24) %this, ptr noundef nonnull align 1 dereferenceable(55) %t) #4 comdat align 2 {
entry:
  %this.addr = alloca ptr, align 8
  %t.addr = alloca ptr, align 8
  %indent = alloca i64, align 8
  %i = alloca i64, align 8
  store ptr %this, ptr %this.addr, align 8
  store ptr %t, ptr %t.addr, align 8
  %this1 = load ptr, ptr %this.addr, align 8
  %d_os = getelementptr inbounds %"class.cvc5::internal::Cvc5ostream", ptr %this1, i32 0, i32 0
  %0 = load ptr, ptr %d_os, align 8
  %cmp = icmp ne ptr %0, null
  br i1 %cmp, label %if.then, label %if.end11

if.then:                                          ; preds = %entry
  %d_firstColumn = getelementptr inbounds %"class.cvc5::internal::Cvc5ostream", ptr %this1, i32 0, i32 1
  %1 = load i8, ptr %d_firstColumn, align 8
  %tobool = trunc i8 %1 to i1
  br i1 %tobool, label %if.then2, label %if.end

if.then2:                                         ; preds = %if.then
  %d_firstColumn3 = getelementptr inbounds %"class.cvc5::internal::Cvc5ostream", ptr %this1, i32 0, i32 1
  store i8 0, ptr %d_firstColumn3, align 8
  %d_os4 = getelementptr inbounds %"class.cvc5::internal::Cvc5ostream", ptr %this1, i32 0, i32 0
  %2 = load ptr, ptr %d_os4, align 8
  %vtable = load ptr, ptr %2, align 8
  %vbase.offset.ptr = getelementptr i8, ptr %vtable, i64 -24
