target datalayout = "e-m:e-p270:32:32-p271:32:32-p272:64:64-i64:64-i128:128-f80:128-n8:16:32:64-S128"
target triple = "x86_64-unknown-linux-gnu"

%"class.std::ios_base::Init" = type { i8 }
%"class.cvc5::internal::NullC" = type { i8 }
%"class.cvc5::internal::TraceC" = type { ptr, %"class.std::vector.122" }
%"class.std::vector.122" = type { %"struct.std::_Vector_base.123" }
%"struct.std::_Vector_base.123" = type { %"struct.std::_Vector_base<std::__cxx11::basic_string<char>, std::allocator<std::__cxx11::basic_string<char>>>::_Vector_impl" }
%"struct.std::_Vector_base<std::__cxx11::basic_string<char>, std::allocator<std::__cxx11::basic_string<char>>>::_Vector_impl" = type { %"struct.std::_Vector_base<std::__cxx11::basic_string<char>, std::allocator<std::__cxx11::basic_string<char>>>::_Vector_impl_data" }
%"struct.std::_Vector_base<std::__cxx11::basic_string<char>, std::allocator<std::__cxx11::basic_string<char>>>::_Vector_impl_data" = type { ptr, ptr, ptr }
%"class.cvc5::internal::NodeTemplate" = type { ptr }
%"class.std::__cxx11::basic_string" = type { %"struct.std::__cxx11::basic_string<char>::_Alloc_hider", i64, %union.anon }
%"struct.std::__cxx11::basic_string<char>::_Alloc_hider" = type { ptr }
%union.anon = type { i64, [8 x i8] }
%"struct.std::piecewise_construct_t" = type { i8 }
%"class.cvc5::internal::expr::Attribute" = type { i8 }
%"class.cvc5::internal::TypeNode" = type { ptr }
%"class.std::vector" = type { %"struct.std::_Vector_base" }
%"struct.std::_Vector_base" = type { %"struct.std::_Vector_base<cvc5::internal::TypeNode, std::allocator<cvc5::internal::TypeNode>>::_Vector_impl" }
%"struct.std::_Vector_base<cvc5::internal::TypeNode, std::allocator<cvc5::internal::TypeNode>>::_Vector_impl" = type { %"struct.std::_Vector_base<cvc5::internal::TypeNode, std::allocator<cvc5::internal::TypeNode>>::_Vector_impl_data" }
%"struct.std::_Vector_base<cvc5::internal::TypeNode, std::allocator<cvc5::internal::TypeNode>>::_Vector_impl_data" = type { ptr, ptr, ptr }
%"class.std::vector.11" = type { %"struct.std::_Vector_base.12" }
%"struct.std::_Vector_base.12" = type { %"struct.std::_Vector_base<cvc5::internal::NodeTemplate<true>, std::allocator<cvc5::internal::NodeTemplate<true>>>::_Vector_impl" }
%"struct.std::_Vector_base<cvc5::internal::NodeTemplate<true>, std::allocator<cvc5::internal::NodeTemplate<true>>>::_Vector_impl" = type { %"struct.std::_Vector_base<cvc5::internal::NodeTemplate<true>, std::allocator<cvc5::internal::NodeTemplate<true>>>::_Vector_impl_data" }
%"struct.std::_Vector_base<cvc5::internal::NodeTemplate<true>, std::allocator<cvc5::internal::NodeTemplate<true>>>::_Vector_impl_data" = type { ptr, ptr, ptr }
%"class.cvc5::internal::NodeTemplate.0" = type { ptr }
%"class.cvc5::internal::Rational" = type { %class.__gmp_expr }
%class.__gmp_expr = type { [1 x %struct.__mpq_struct] }
%struct.__mpq_struct = type { %struct.__mpz_struct, %struct.__mpz_struct }
%struct.__mpz_struct = type { i32, i32, ptr }
%"class.cvc5::internal::expr::NodeValue" = type { i64, i16, i32, [0 x ptr] }
%"class.cvc5::internal::NodeManager" = type { %"class.std::unique_ptr.16", %"class.std::unique_ptr.24", %"class.std::unordered_set", i64, ptr, ptr, i8, %"class.std::unordered_set.37", %"class.std::vector.48", [365 x %"class.cvc5::internal::NodeTemplate"], %"class.std::map", %"class.std::vector.56", %"class.std::vector.61", %"class.std::map.66", %"class.cvc5::internal::NodeManager::TupleTypeCache", %"class.cvc5::internal::NodeManager::RecTypeCache" }
%"class.std::unique_ptr.16" = type { %"struct.std::__uniq_ptr_data.17" }
%"struct.std::__uniq_ptr_data.17" = type { %"class.std::__uniq_ptr_impl.18" }
%"class.std::__uniq_ptr_impl.18" = type { %"class.std::tuple.19" }
%"class.std::tuple.19" = type { %"struct.std::_Tuple_impl.20" }
%"struct.std::_Tuple_impl.20" = type { %"struct.std::_Head_base.23" }
%"struct.std::_Head_base.23" = type { ptr }
%"class.std::unique_ptr.24" = type { %"struct.std::__uniq_ptr_data.25" }
%"struct.std::__uniq_ptr_data.25" = type { %"class.std::__uniq_ptr_impl.26" }
%"class.std::__uniq_ptr_impl.26" = type { %"class.std::tuple.27" }
%"class.std::tuple.27" = type { %"struct.std::_Tuple_impl.28" }
%"struct.std::_Tuple_impl.28" = type { %"struct.std::_Head_base.31" }
%"struct.std::_Head_base.31" = type { ptr }
%"class.std::unordered_set" = type { %"class.std::_Hashtable" }
%"class.std::_Hashtable" = type { ptr, i64, %"struct.std::__detail::_Hash_node_base", i64, %"struct.std::__detail::_Prime_rehash_policy", ptr }
%"struct.std::__detail::_Hash_node_base" = type { ptr }
%"struct.std::__detail::_Prime_rehash_policy" = type { float, i64 }
%"class.std::unordered_set.37" = type { %"class.std::_Hashtable.38" }
%"class.std::_Hashtable.38" = type { ptr, i64, %"struct.std::__detail::_Hash_node_base", i64, %"struct.std::__detail::_Prime_rehash_policy", ptr }
%"class.std::vector.48" = type { %"struct.std::_Vector_base.49" }
%"struct.std::_Vector_base.49" = type { %"struct.std::_Vector_base<cvc5::internal::expr::NodeValue *, std::allocator<cvc5::internal::expr::NodeValue *>>::_Vector_impl" }
%"struct.std::_Vector_base<cvc5::internal::expr::NodeValue *, std::allocator<cvc5::internal::expr::NodeValue *>>::_Vector_impl" = type { %"struct.std::_Vector_base<cvc5::internal::expr::NodeValue *, std::allocator<cvc5::internal::expr::NodeValue *>>::_Vector_impl_data" }
%"struct.std::_Vector_base<cvc5::internal::expr::NodeValue *, std::allocator<cvc5::internal::expr::NodeValue *>>::_Vector_impl_data" = type { ptr, ptr, ptr }
%"class.std::map" = type { %"class.std::_Rb_tree" }
%"class.std::_Rb_tree" = type { %"struct.std::_Rb_tree<cvc5::internal::kind::Kind_t, std::pair<const cvc5::internal::kind::Kind_t, std::map<cvc5::internal::TypeNode, cvc5::internal::NodeTemplate<true>>>, std::_Select1st<std::pair<const cvc5::internal::kind::Kind_t, std::map<cvc5::internal::TypeNode, cvc5::internal::NodeTemplate<true>>>>, std::less<cvc5::internal::kind::Kind_t>>::_Rb_tree_impl" }
%"struct.std::_Rb_tree<cvc5::internal::kind::Kind_t, std::pair<const cvc5::internal::kind::Kind_t, std::map<cvc5::internal::TypeNode, cvc5::internal::NodeTemplate<true>>>, std::_Select1st<std::pair<const cvc5::internal::kind::Kind_t, std::map<cvc5::internal::TypeNode, cvc5::internal::NodeTemplate<true>>>>, std::less<cvc5::internal::kind::Kind_t>>::_Rb_tree_impl" = type { %"struct.std::_Rb_tree_key_compare", %"struct.std::_Rb_tree_header" }
%"struct.std::_Rb_tree_key_compare" = type { %"struct.std::less" }
%"struct.std::less" = type { i8 }
%"struct.std::_Rb_tree_header" = type { %"struct.std::_Rb_tree_node_base", i64 }
%"struct.std::_Rb_tree_node_base" = type { i32, ptr, ptr, ptr }
%"class.std::vector.56" = type { %"struct.std::_Vector_base.57" }
%"struct.std::_Vector_base.57" = type { %"struct.std::_Vector_base<std::unique_ptr<cvc5::internal::DType>, std::allocator<std::unique_ptr<cvc5::internal::DType>>>::_Vector_impl" }
%"struct.std::_Vector_base<std::unique_ptr<cvc5::internal::DType>, std::allocator<std::unique_ptr<cvc5::internal::DType>>>::_Vector_impl" = type { %"struct.std::_Vector_base<std::unique_ptr<cvc5::internal::DType>, std::allocator<std::unique_ptr<cvc5::internal::DType>>>::_Vector_impl_data" }
%"struct.std::_Vector_base<std::unique_ptr<cvc5::internal::DType>, std::allocator<std::unique_ptr<cvc5::internal::DType>>>::_Vector_impl_data" = type { ptr, ptr, ptr }
%"class.std::vector.61" = type { %"struct.std::_Vector_base.62" }
%"struct.std::_Vector_base.62" = type { %"struct.std::_Vector_base<std::unique_ptr<cvc5::internal::Oracle>, std::allocator<std::unique_ptr<cvc5::internal::Oracle>>>::_Vector_impl" }
%"struct.std::_Vector_base<std::unique_ptr<cvc5::internal::Oracle>, std::allocator<std::unique_ptr<cvc5::internal::Oracle>>>::_Vector_impl" = type { %"struct.std::_Vector_base<std::unique_ptr<cvc5::internal::Oracle>, std::allocator<std::unique_ptr<cvc5::internal::Oracle>>>::_Vector_impl_data" }
%"struct.std::_Vector_base<std::unique_ptr<cvc5::internal::Oracle>, std::allocator<std::unique_ptr<cvc5::internal::Oracle>>>::_Vector_impl_data" = type { ptr, ptr, ptr }
%"class.std::map.66" = type { %"class.std::_Rb_tree.67" }
%"class.std::_Rb_tree.67" = type { %"struct.std::_Rb_tree<std::pair<std::__cxx11::basic_string<char>, unsigned long>, std::pair<const std::pair<std::__cxx11::basic_string<char>, unsigned long>, cvc5::internal::TypeNode>, std::_Select1st<std::pair<const std::pair<std::__cxx11::basic_string<char>, unsigned long>, cvc5::internal::TypeNode>>, std::less<std::pair<std::__cxx11::basic_string<char>, unsigned long>>>::_Rb_tree_impl" }
%"struct.std::_Rb_tree<std::pair<std::__cxx11::basic_string<char>, unsigned long>, std::pair<const std::pair<std::__cxx11::basic_string<char>, unsigned long>, cvc5::internal::TypeNode>, std::_Select1st<std::pair<const std::pair<std::__cxx11::basic_string<char>, unsigned long>, cvc5::internal::TypeNode>>, std::less<std::pair<std::__cxx11::basic_string<char>, unsigned long>>>::_Rb_tree_impl" = type { %"struct.std::_Rb_tree_key_compare.71", %"struct.std::_Rb_tree_header" }
%"struct.std::_Rb_tree_key_compare.71" = type { %"struct.std::less.72" }
%"struct.std::less.72" = type { i8 }
%"class.cvc5::internal::NodeManager::TupleTypeCache" = type { %"class.std::map.74", %"class.cvc5::internal::TypeNode" }
%"class.std::map.74" = type { %"class.std::_Rb_tree.75" }
%"class.std::_Rb_tree.75" = type { %"struct.std::_Rb_tree<cvc5::internal::TypeNode, std::pair<const cvc5::internal::TypeNode, cvc5::internal::NodeManager::TupleTypeCache>, std::_Select1st<std::pair<const cvc5::internal::TypeNode, cvc5::internal::NodeManager::TupleTypeCache>>, std::less<cvc5::internal::TypeNode>>::_Rb_tree_impl" }
%"struct.std::_Rb_tree<cvc5::internal::TypeNode, std::pair<const cvc5::internal::TypeNode, cvc5::internal::NodeManager::TupleTypeCache>, std::_Select1st<std::pair<const cvc5::internal::TypeNode, cvc5::internal::NodeManager::TupleTypeCache>>, std::less<cvc5::internal::TypeNode>>::_Rb_tree_impl" = type { %"struct.std::_Rb_tree_key_compare.79", %"struct.std::_Rb_tree_header" }
%"struct.std::_Rb_tree_key_compare.79" = type { %"struct.std::less.80" }
%"struct.std::less.80" = type { i8 }
%"class.cvc5::internal::NodeManager::RecTypeCache" = type { %"class.std::map.82", %"class.cvc5::internal::TypeNode" }
%"class.std::map.82" = type { %"class.std::_Rb_tree.83" }
%"class.std::_Rb_tree.83" = type { %"struct.std::_Rb_tree<cvc5::internal::TypeNode, std::pair<const cvc5::internal::TypeNode, std::map<std::__cxx11::basic_string<char>, cvc5::internal::NodeManager::RecTypeCache>>, std::_Select1st<std::pair<const cvc5::internal::TypeNode, std::map<std::__cxx11::basic_string<char>, cvc5::internal::NodeManager::RecTypeCache>>>, std::less<cvc5::internal::TypeNode>>::_Rb_tree_impl" }
%"struct.std::_Rb_tree<cvc5::internal::TypeNode, std::pair<const cvc5::internal::TypeNode, std::map<std::__cxx11::basic_string<char>, cvc5::internal::NodeManager::RecTypeCache>>, std::_Select1st<std::pair<const cvc5::internal::TypeNode, std::map<std::__cxx11::basic_string<char>, cvc5::internal::NodeManager::RecTypeCache>>>, std::less<cvc5::internal::TypeNode>>::_Rb_tree_impl" = type { %"struct.std::_Rb_tree_key_compare.79", %"struct.std::_Rb_tree_header" }
%class.__gmp_expr.127 = type { [1 x %struct.__mpz_struct] }
%"class.cvc5::internal::expr::Attribute.242" = type { i8 }
%"struct.std::pair.243" = type <{ %"struct.std::__detail::_Node_iterator.245", i8, [7 x i8] }>
%"struct.std::__detail::_Node_iterator.245" = type { %"struct.std::__detail::_Node_iterator_base.246" }
%"struct.std::__detail::_Node_iterator_base.246" = type { ptr }
%"class.cvc5::internal::BoundVarManager" = type { i8, %"class.std::unordered_set.87" }
%"class.std::unordered_set.87" = type { %"class.std::_Hashtable.88" }
%"class.std::_Hashtable.88" = type { ptr, i64, %"struct.std::__detail::_Hash_node_base", i64, %"struct.std::__detail::_Prime_rehash_policy", ptr }
%"class.__gnu_cxx::__normal_iterator" = type { ptr }
%"class.cvc5::internal::NodeBuilder" = type <{ %"class.cvc5::internal::expr::NodeValue", [10 x ptr], ptr, ptr, i32, [4 x i8] }>
%"class.std::unordered_map" = type { %"class.std::_Hashtable.104" }
%"class.std::_Hashtable.104" = type { ptr, i64, %"struct.std::__detail::_Hash_node_base", i64, %"struct.std::__detail::_Prime_rehash_policy", ptr }
%"class.cvc5::internal::__cvc5_true" = type { i8 }
%"class.cvc5::internal::Cvc5ostream" = type { ptr, i8, ptr }
%"class.__gnu_cxx::__normal_iterator.262" = type { ptr }
%"struct.std::__detail::_Node_iterator" = type { %"struct.std::__detail::_Node_iterator_base" }
%"struct.std::__detail::_Node_iterator_base" = type { ptr }
%"class.cvc5::internal::ArrayStoreAll" = type { %"class.std::unique_ptr", %"class.std::unique_ptr.3" }
%"class.std::unique_ptr" = type { %"struct.std::__uniq_ptr_data" }
%"struct.std::__uniq_ptr_data" = type { %"class.std::__uniq_ptr_impl" }
%"class.std::__uniq_ptr_impl" = type { %"class.std::tuple" }
%"class.std::tuple" = type { %"struct.std::_Tuple_impl" }
%"struct.std::_Tuple_impl" = type { %"struct.std::_Head_base.2" }
%"struct.std::_Head_base.2" = type { ptr }
%"class.std::unique_ptr.3" = type { %"struct.std::__uniq_ptr_data.4" }
%"struct.std::__uniq_ptr_data.4" = type { %"class.std::__uniq_ptr_impl.5" }
%"class.std::__uniq_ptr_impl.5" = type { %"class.std::tuple.6" }
%"class.std::tuple.6" = type { %"struct.std::_Tuple_impl.7" }
%"struct.std::_Tuple_impl.7" = type { %"struct.std::_Head_base.10" }
%"struct.std::_Head_base.10" = type { ptr }
%"struct.std::pair" = type { %"class.cvc5::internal::NodeTemplate.0", %"class.cvc5::internal::NodeTemplate" }
%"class.cvc5::internal::expr::NodeValue::iterator" = type { ptr }
%"class.std::allocator.13" = type { i8 }
%"class.std::__cxx11::basic_stringstream" = type { %"class.std::basic_iostream.base", %"class.std::__cxx11::basic_stringbuf", %"class.std::basic_ios" }
%"class.std::basic_iostream.base" = type { %"class.std::basic_istream.base", %"class.std::basic_ostream.base" }
%"class.std::basic_istream.base" = type { ptr, i64 }
%"class.std::basic_ostream.base" = type { ptr }
%"class.std::__cxx11::basic_stringbuf" = type { %"class.std::basic_streambuf", i32, %"class.std::__cxx11::basic_string" }
%"class.std::basic_streambuf" = type { ptr, ptr, ptr, ptr, ptr, ptr, ptr, %"class.std::locale" }
%"class.std::locale" = type { ptr }
%"class.std::basic_ios" = type { %"class.std::ios_base", ptr, i8, i8, ptr, ptr, ptr, ptr }
%"class.std::ios_base" = type { ptr, i64, i64, i32, i32, i32, ptr, %"struct.std::ios_base::_Words", [8 x %"struct.std::ios_base::_Words"], i32, ptr, %"class.std::locale" }
%"struct.std::ios_base::_Words" = type { ptr, i64 }
%"struct.std::__detail::_Hash_node_value_base" = type { %"struct.__gnu_cxx::__aligned_buffer" }
%"struct.__gnu_cxx::__aligned_buffer" = type { %"union.std::aligned_storage<16, 8>::type" }
%"union.std::aligned_storage<16, 8>::type" = type { [16 x i8] }
%"class.std::allocator.131" = type { i8 }
%"class.cvc5::internal::options::ioutils::Scope" = type <{ ptr, i8, [7 x i8], i64, i64, i8, [3 x i8], i32, i32, [4 x i8] }>
%"struct.std::__detail::_Node_const_iterator" = type { %"struct.std::__detail::_Node_iterator_base.231" }
%"struct.std::__detail::_Node_iterator_base.231" = type { ptr }
%"struct.std::pair.232" = type { i64, ptr }
%"class.cvc5::internal::expr::attr::AttributeManager" = type { i8, %"class.cvc5::internal::expr::attr::AttrHash", %"class.cvc5::internal::expr::attr::AttrHash.152", %"class.cvc5::internal::expr::attr::AttrHash.171", %"class.cvc5::internal::expr::attr::AttrHash.186", %"class.cvc5::internal::expr::attr::AttrHash.201", %"class.cvc5::internal::expr::attr::AttrHash.216" }
%"class.cvc5::internal::expr::attr::AttrHash" = type { %"class.std::unordered_map.134" }
%"class.std::unordered_map.134" = type { %"class.std::_Hashtable.135" }
%"class.std::_Hashtable.135" = type { ptr, i64, %"struct.std::__detail::_Hash_node_base", i64, %"struct.std::__detail::_Prime_rehash_policy", ptr }
%"class.cvc5::internal::expr::attr::AttrHash.152" = type { %"class.std::unordered_map.153" }
%"class.std::unordered_map.153" = type { %"class.std::_Hashtable.154" }
%"class.std::_Hashtable.154" = type { ptr, i64, %"struct.std::__detail::_Hash_node_base", i64, %"struct.std::__detail::_Prime_rehash_policy", ptr }
%"class.cvc5::internal::expr::attr::AttrHash.171" = type { %"class.std::unordered_map.172" }
%"class.std::unordered_map.172" = type { %"class.std::_Hashtable.173" }
%"class.std::_Hashtable.173" = type { ptr, i64, %"struct.std::__detail::_Hash_node_base", i64, %"struct.std::__detail::_Prime_rehash_policy", ptr }
%"class.cvc5::internal::expr::attr::AttrHash.186" = type { %"class.std::unordered_map.187" }
%"class.std::unordered_map.187" = type { %"class.std::_Hashtable.188" }
%"class.std::_Hashtable.188" = type { ptr, i64, %"struct.std::__detail::_Hash_node_base", i64, %"struct.std::__detail::_Prime_rehash_policy", ptr }
%"class.cvc5::internal::expr::attr::AttrHash.201" = type { %"class.std::unordered_map.202" }
%"class.std::unordered_map.202" = type { %"class.std::_Hashtable.203" }
%"class.std::_Hashtable.203" = type { ptr, i64, %"struct.std::__detail::_Hash_node_base", i64, %"struct.std::__detail::_Prime_rehash_policy", ptr }
%"class.cvc5::internal::expr::attr::AttrHash.216" = type { %"class.std::unordered_map.217" }
%"class.std::unordered_map.217" = type { %"class.std::_Hashtable.218" }
%"class.std::_Hashtable.218" = type { ptr, i64, %"struct.std::__detail::_Hash_node_base", i64, %"struct.std::__detail::_Prime_rehash_policy", ptr }
%"struct.std::__detail::_Select1st" = type { i8 }
%"struct.std::pair.240" = type { %"struct.std::pair.232", %"class.cvc5::internal::NodeTemplate" }
%"struct.std::__detail::_Hash_node_value_base.236" = type { %"struct.__gnu_cxx::__aligned_buffer.237" }
%"struct.__gnu_cxx::__aligned_buffer.237" = type { %"union.std::aligned_storage<24, 8>::type" }
%"union.std::aligned_storage<24, 8>::type" = type { [24 x i8] }
%"struct.std::__detail::_Mod_range_hashing" = type { i8 }
%"struct.std::__detail::_Hash_node_code_cache" = type { i64 }
%"struct.std::_Hashtable<std::pair<unsigned long, cvc5::internal::expr::NodeValue *>, std::pair<const std::pair<unsigned long, cvc5::internal::expr::NodeValue *>, cvc5::internal::NodeTemplate<true>>, std::allocator<std::pair<const std::pair<unsigned long, cvc5::internal::expr::NodeValue *>, cvc5::internal::NodeTemplate<true>>>, std::__detail::_Select1st, std::equal_to<std::pair<unsigned long, cvc5::internal::expr::NodeValue *>>, cvc5::internal::expr::attr::AttrHashFunction, std::__detail::_Mod_range_hashing, std::__detail::_Default_ranged_hash, std::__detail::_Prime_rehash_policy, std::__detail::_Hashtable_traits<true, false, true>>::_Scoped_node" = type { ptr, ptr }
%"class.std::tuple.247" = type { %"struct.std::_Tuple_impl.248" }
%"struct.std::_Tuple_impl.248" = type { %"struct.std::_Head_base.249" }
%"struct.std::_Head_base.249" = type { ptr }
%"class.std::tuple.250" = type { i8 }
%"struct.std::__detail::_Node_iterator.251" = type { %"struct.std::__detail::_Node_iterator_base.231" }
%"struct.std::pair.253" = type { i8, i64 }
%"struct.std::__detail::_AllocNode" = type { ptr }
%"struct.std::__detail::_Identity" = type { i8 }
%"struct.std::_Hashtable<cvc5::internal::NodeTemplate<true>, cvc5::internal::NodeTemplate<true>, std::allocator<cvc5::internal::NodeTemplate<true>>, std::__detail::_Identity, std::equal_to<cvc5::internal::NodeTemplate<true>>, std::hash<cvc5::internal::Node>, std::__detail::_Mod_range_hashing, std::__detail::_Default_ranged_hash, std::__detail::_Prime_rehash_policy, std::__detail::_Hashtable_traits<true, true, true>>::_Scoped_node" = type { ptr, ptr }
%"struct.std::__detail::_Hash_node_value_base.257" = type { %"struct.__gnu_cxx::__aligned_buffer.258" }
%"struct.__gnu_cxx::__aligned_buffer.258" = type { %"union.std::aligned_storage<8, 8>::type" }
%"union.std::aligned_storage<8, 8>::type" = type { [8 x i8] }
%"class.__gnu_cxx::__normal_iterator.261" = type { ptr }
%"struct.std::_Hashtable<cvc5::internal::NodeTemplate<false>, std::pair<const cvc5::internal::NodeTemplate<false>, cvc5::internal::NodeTemplate<true>>, std::allocator<std::pair<const cvc5::internal::NodeTemplate<false>, cvc5::internal::NodeTemplate<true>>>, std::__detail::_Select1st, std::equal_to<cvc5::internal::NodeTemplate<false>>, std::hash<cvc5::internal::TNode>, std::__detail::_Mod_range_hashing, std::__detail::_Default_ranged_hash, std::__detail::_Prime_rehash_policy, std::__detail::_Hashtable_traits<true, false, true>>::_Scoped_node" = type { ptr, ptr }
%"class.std::tuple.263" = type { %"struct.std::_Tuple_impl.264" }
%"struct.std::_Tuple_impl.264" = type { %"struct.std::_Head_base.265" }
%"struct.std::_Head_base.265" = type { ptr }

$_ZNK4cvc58internal12NodeTemplateILb0EE7getKindEv = comdat any

$_ZN4cvc58internal12NodeTemplateILb1EEC2ERKNS1_ILb0EEE = comdat any

$_ZNK4cvc58internal12NodeTemplateILb0EE12hasAttributeINS0_4expr9AttributeINS0_6theory2uf16ArrayToLambdaTagENS1_ILb1EEEEEEEbRKT_ = comdat any

$_ZNK4cvc58internal12NodeTemplateILb0EE12getAttributeINS0_4expr9AttributeINS0_6theory2uf16ArrayToLambdaTagENS1_ILb1EEEEEEENT_10value_typeERKSB_ = comdat any

$_ZNK4cvc58internal12NodeTemplateILb0EE8getConstINS0_18FunctionArrayConstEEERKT_v = comdat any

$_ZN4cvc58internal12NodeTemplateILb1EEC2ERKS2_ = comdat any

$_ZN4cvc58internal8TypeNodeC2ERKS1_ = comdat any

$_ZNSt6vectorIN4cvc58internal12NodeTemplateILb1EEESaIS3_EEC2Ev = comdat any

$_ZN4cvc58internal11NodeManager18getBoundVarManagerEv = comdat any

$_ZNKSt6vectorIN4cvc58internal8TypeNodeESaIS2_EE4sizeEv = comdat any

$_ZN4cvc58internal12NodeTemplateILb0EEC2ERKS2_ = comdat any

$_ZN4cvc58internal8RationalC2Em = comdat any

$_ZN4cvc58internal12NodeTemplateILb0EEC2ERKNS1_ILb1EEE = comdat any

$_ZN4cvc58internal12NodeTemplateILb0EED2Ev = comdat any

$_ZN4cvc58internal12NodeTemplateILb1EED2Ev = comdat any

$_ZN4cvc58internal8RationalD2Ev = comdat any

$_ZN4cvc58internal15BoundVarManager10mkBoundVarINS0_4expr9AttributeINS0_6theory2uf23FunctionBoundVarListTagENS0_12NodeTemplateILb1EEEEEEES9_S9_NS0_8TypeNodeE = comdat any

$_ZNSt6vectorIN4cvc58internal8TypeNodeESaIS2_EEixEm = comdat any

$_ZN4cvc58internal8TypeNodeD2Ev = comdat any

$_ZNSt6vectorIN4cvc58internal12NodeTemplateILb1EEESaIS3_EE9push_backERKS3_ = comdat any

$_ZN4cvc58internal11NodeManager6mkNodeILb1EEENS0_12NodeTemplateILb1EEENS0_4kind6Kind_tERKSt6vectorINS3_IXT_EEESaIS8_EE = comdat any

$_ZN4cvc58internal12NodeTemplateILb0EE12setAttributeINS0_4expr9AttributeINS0_6theory2uf16ArrayToLambdaTagENS1_ILb1EEEEEEEvRKT_RKNSB_10value_typeE = comdat any

$_ZNSt6vectorIN4cvc58internal12NodeTemplateILb1EEESaIS3_EED2Ev = comdat any

$_ZNSt6vectorIN4cvc58internal8TypeNodeESaIS2_EED2Ev = comdat any

$_ZN4cvc58internal12NodeTemplateILb1EE4nullEv = comdat any

$_ZNSt6vectorIN4cvc58internal8TypeNodeESaIS2_EEC2Ev = comdat any

$_ZNK4cvc58internal12NodeTemplateILb1EE14getNumChildrenEv = comdat any

$_ZNSt6vectorIN4cvc58internal8TypeNodeESaIS2_EE9push_backEOS2_ = comdat any

$_ZNK4cvc58internal8TypeNode17getArrayIndexTypeEv = comdat any

$_ZNK4cvc58internal8TypeNode23getArrayConstituentTypeEv = comdat any

$_ZN4cvc58internal8TypeNodeaSERKS1_ = comdat any

$_ZNSt6vectorIN4cvc58internal8TypeNodeESaIS2_EE9push_backERKS2_ = comdat any

$_ZNK4cvc58internal8TypeNode14getNumChildrenEv = comdat any

$_ZNK4cvc58internal8TypeNodeixEi = comdat any

$_ZN4cvc58internal11NodeManager11mkArrayTypeENS0_8TypeNodeES2_ = comdat any

$_ZNSt13unordered_mapIN4cvc58internal12NodeTemplateILb0EEENS2_ILb1EEESt4hashIS3_ESt8equal_toIS3_ESaISt4pairIKS3_S4_EEE4findERSA_ = comdat any

$_ZNSt8__detailneERKNS_19_Node_iterator_baseISt4pairIKN4cvc58internal12NodeTemplateILb0EEENS4_ILb1EEEELb1EEESB_ = comdat any

$_ZNSt13unordered_mapIN4cvc58internal12NodeTemplateILb0EEENS2_ILb1EEESt4hashIS3_ESt8equal_toIS3_ESaISt4pairIKS3_S4_EEE3endEv = comdat any

$_ZNKSt8__detail14_Node_iteratorISt4pairIKN4cvc58internal12NodeTemplateILb0EEENS4_ILb1EEEELb0ELb1EEptEv = comdat any

$_ZN4cvc58internal12NodeTemplateILb1EEC2Ev = comdat any

$_ZNK4cvc58internal12NodeTemplateILb0EE14getNumChildrenEv = comdat any

$_ZNK4cvc58internal12NodeTemplateILb0EEixEi = comdat any

$_ZNK4cvc58internal12NodeTemplateILb1EE6isNullEv = comdat any

$_ZNK4cvc58internal12NodeTemplateILb0EE6eqNodeILb0EEENS1_ILb1EEERKNS1_IXT_EEE = comdat any

$_ZN4cvc58internal11NodeManager6mkNodeENS0_4kind6Kind_tENS0_12NodeTemplateILb0EEES5_S5_ = comdat any

$_ZN4cvc58internal12NodeTemplateILb1EEaSERKS2_ = comdat any

$_ZNK4cvc58internal12NodeTemplateILb0EE8getConstINS0_13ArrayStoreAllEEERKT_v = comdat any

$_ZN4cvc58internal12NodeTemplateILb1EEaSERKNS1_ILb0EEE = comdat any

$_ZNSt13unordered_mapIN4cvc58internal12NodeTemplateILb0EEENS2_ILb1EEESt4hashIS3_ESt8equal_toIS3_ESaISt4pairIKS3_S4_EEEixERSA_ = comdat any

$_ZNSt13unordered_mapIN4cvc58internal12NodeTemplateILb0EEENS2_ILb1EEESt4hashIS3_ESt8equal_toIS3_ESaISt4pairIKS3_S4_EEEC2Ev = comdat any

$_ZN4cvc58internal11__cvc5_truecvbEv = comdat any

$_ZNK4cvc58internal5NullCcvNS0_11Cvc5ostreamEEv = comdat any

$_ZNK4cvc58internal6TraceCclEv = comdat any

$_ZN4cvc58internal11Cvc5ostreamlsIA18_cEERS1_RKT_ = comdat any

$_ZN4cvc58internal11Cvc5ostreamlsINS0_12NodeTemplateILb0EEEEERS1_RKT_ = comdat any

$_ZN4cvc58internal11Cvc5ostreamlsEPFRSoS2_E = comdat any

$_ZN4cvc58internal11Cvc5ostreamlsIA20_cEERS1_RKT_ = comdat any

$_ZN4cvc58internal11Cvc5ostreamlsINS0_12NodeTemplateILb1EEEEERS1_RKT_ = comdat any

$_ZN4cvc58internal11NodeManager6mkNodeENS0_4kind6Kind_tENS0_12NodeTemplateILb0EEES5_ = comdat any

$_ZN4cvc58internal11Cvc5ostreamlsIA29_cEERS1_RKT_ = comdat any

$_ZNSt13unordered_mapIN4cvc58internal12NodeTemplateILb0EEENS2_ILb1EEESt4hashIS3_ESt8equal_toIS3_ESaISt4pairIKS3_S4_EEED2Ev = comdat any

$_ZN4cvc58internal11Cvc5ostreamlsIA32_cEERS1_RKT_ = comdat any

$_ZNSt6vectorIN4cvc58internal12NodeTemplateILb1EEESaIS3_EE9push_backEOS3_ = comdat any

$_ZNK4cvc58internal12NodeTemplateILb1EE7getKindEv = comdat any

$_ZN4cvc58internal11Cvc5ostreamlsIA23_cEERS1_RKT_ = comdat any

$_ZNK4cvc58internal12NodeTemplateILb1EEixEi = comdat any

$_ZN4cvc58internal12NodeTemplateILb1EE5beginEv = comdat any

$_ZN4cvc58internal4expr9NodeValue8iteratorINS0_12NodeTemplateILb1EEEEplEl = comdat any

$_ZN4cvc58internal12NodeTemplateILb1EE3endEv = comdat any

$_ZNSaIN4cvc58internal12NodeTemplateILb1EEEEC2Ev = comdat any

$_ZNSt6vectorIN4cvc58internal12NodeTemplateILb1EEESaIS3_EEC2INS1_4expr9NodeValue8iteratorIS3_EEvEET_SB_RKS4_ = comdat any

$_ZNSaIN4cvc58internal12NodeTemplateILb1EEEED2Ev = comdat any

$_ZN4cvc58internal11Cvc5ostreamlsIA2_cEERS1_RKT_ = comdat any

$_ZN4cvc58internal11Cvc5ostreamlsIA14_cEERS1_RKT_ = comdat any

$_ZN4cvc58internal11Cvc5ostreamlsIA10_cEERS1_RKT_ = comdat any

$_ZNK4cvc58internal12NodeTemplateILb1EE7getTypeEb = comdat any

$_ZNK4cvc58internal8TypeNode9isBooleanEv = comdat any

$_ZN4cvc58internal11Cvc5ostreamlsIA27_cEERS1_RKT_ = comdat any

$_ZNK4cvc58internal12NodeTemplateILb1EE6eqNodeILb1EEES2_RKNS1_IXT_EEE = comdat any

$_ZNK4cvc58internal12NodeTemplateILb1EEeqILb1EEEbRKNS1_IXT_EEE = comdat any

$_ZN4cvc58internal11Cvc5ostreamlsIA7_cEERS1_RKT_ = comdat any

$_ZN4cvc58internal11Cvc5ostreamlsIA5_cEERS1_RKT_ = comdat any

$_ZN4cvc58internal11Cvc5ostreamlsIA34_cEERS1_RKT_ = comdat any

$_ZN4cvc58internal11Cvc5ostreamlsEPFRS1_S2_E = comdat any

$_ZN4cvc58internal4pushERNS0_11Cvc5ostreamE = comdat any

$_ZN4cvc58internal3popERNS0_11Cvc5ostreamE = comdat any

$_ZN4cvc58internal11Cvc5ostreamlsIA39_cEERS1_RKT_ = comdat any

$_ZN4cvc58internal11Cvc5ostreamlsIA25_cEERS1_RKT_ = comdat any

$_ZN4cvc58internal11Cvc5ostreamlsIA36_cEERS1_RKT_ = comdat any

$_ZNK4cvc58internal12NodeTemplateILb0EE7getTypeEb = comdat any

$_ZN4cvc58internal11Cvc5ostreamlsIA24_cEERS1_RKT_ = comdat any

$_ZN4cvc58internal11Cvc5ostreamlsINS0_8TypeNodeEEERS1_RKT_ = comdat any

$_ZN4cvc58internal11Cvc5ostreamlsIA17_cEERS1_RKT_ = comdat any

$_ZN4cvc58internal11Cvc5ostreamlsIA21_cEERS1_RKT_ = comdat any

$_ZN4cvc58internal11Cvc5ostreamlsISt6vectorINS0_12NodeTemplateILb1EEESaIS5_EEEERS1_RKT_ = comdat any

$_ZNKSt6vectorIN4cvc58internal12NodeTemplateILb1EEESaIS3_EE4sizeEv = comdat any

$_ZNSt6vectorIN4cvc58internal12NodeTemplateILb1EEESaIS3_EEixEm = comdat any

$_ZN4cvc58internal11Cvc5ostreamlsIA6_cEERS1_RKT_ = comdat any

$_ZN4cvc58internal11Cvc5ostreamlsIA59_cEERS1_RKT_ = comdat any

$_ZN4cvc58internal4expr9AttributeINS0_6theory2uf16ArrayToLambdaTagENS0_12NodeTemplateILb1EEEE4s_idE = comdat any

$_ZN4cvc58internal4expr9AttributeINS0_6theory2uf16ArrayToLambdaTagENS0_12NodeTemplateILb1EEEE17registerAttributeEv = comdat any

$_ZN4cvc58internal4expr9AttributeINS0_6theory2uf23FunctionBoundVarListTagENS0_12NodeTemplateILb1EEEE4s_idE = comdat any

$_ZN4cvc58internal4expr9AttributeINS0_6theory2uf23FunctionBoundVarListTagENS0_12NodeTemplateILb1EEEE17registerAttributeEv = comdat any

$_ZN4cvc58internal12NodeTemplateILb1EE6s_nullE = comdat any

$_ZN4cvc58internal4expr9NodeValue4nullEv = comdat any

$_ZN4cvc58internal12NodeTemplateILb1EEC2EPKNS0_4expr9NodeValueE = comdat any

$_ZN4cvc58internal4expr9NodeValue3incEv = comdat any

$_ZNSt12_Vector_baseIN4cvc58internal12NodeTemplateILb1EEESaIS3_EEC2Ev = comdat any

$_ZNSt12_Vector_baseIN4cvc58internal12NodeTemplateILb1EEESaIS3_EE12_Vector_implC2Ev = comdat any

$_ZNSt12_Vector_baseIN4cvc58internal12NodeTemplateILb1EEESaIS3_EE17_Vector_impl_dataC2Ev = comdat any

$_ZNSt15__new_allocatorIN4cvc58internal12NodeTemplateILb1EEEEC2Ev = comdat any

$_ZNKSt10unique_ptrIN4cvc58internal15BoundVarManagerESt14default_deleteIS2_EE3getEv = comdat any

$_ZNKSt15__uniq_ptr_implIN4cvc58internal15BoundVarManagerESt14default_deleteIS2_EE6_M_ptrEv = comdat any

$_ZSt3getILm0EJPN4cvc58internal15BoundVarManagerESt14default_deleteIS2_EEERKNSt13tuple_elementIXT_ESt5tupleIJDpT0_EEE4typeERKSA_ = comdat any

$_ZSt12__get_helperILm0EPN4cvc58internal15BoundVarManagerEJSt14default_deleteIS2_EEERKT0_RKSt11_Tuple_implIXT_EJS6_DpT1_EE = comdat any

$_ZNSt11_Tuple_implILm0EJPN4cvc58internal15BoundVarManagerESt14default_deleteIS2_EEE7_M_headERKS6_ = comdat any

$_ZNSt10_Head_baseILm0EPN4cvc58internal15BoundVarManagerELb0EE7_M_headERKS4_ = comdat any

$_ZN10__gmp_exprIA1_12__mpz_structS1_EC2Em = comdat any

$_ZN10__gmp_exprIA1_12__mpz_structS1_EC2Ei = comdat any

$_ZN10__gmp_exprIA1_12__mpq_structS1_EC2ERKS_IA1_12__mpz_structS4_ES7_ = comdat any

$_ZN10__gmp_exprIA1_12__mpz_structS1_ED2Ev = comdat any

$_ZN10__gmp_exprIA1_12__mpq_structS1_E12canonicalizeEv = comdat any

$_ZN10__gmp_exprIA1_12__mpq_structS1_ED2Ev = comdat any

$_ZN10__gmp_exprIA1_12__mpz_structS1_E7init_uiEm = comdat any

$_ZN10__gmp_exprIA1_12__mpz_structS1_E7init_siEl = comdat any

$_ZNK10__gmp_exprIA1_12__mpz_structS1_E9get_mpz_tEv = comdat any

$__clang_call_terminate = comdat any

$_ZN4cvc58internal4expr9NodeValue3decEv = comdat any

$_ZNSt12_Vector_baseIN4cvc58internal8TypeNodeESaIS2_EEC2Ev = comdat any

$_ZNSt12_Vector_baseIN4cvc58internal8TypeNodeESaIS2_EE12_Vector_implC2Ev = comdat any

$_ZNSaIN4cvc58internal8TypeNodeEEC2Ev = comdat any

$_ZNSt12_Vector_baseIN4cvc58internal8TypeNodeESaIS2_EE17_Vector_impl_dataC2Ev = comdat any

$_ZNSt15__new_allocatorIN4cvc58internal8TypeNodeEEC2Ev = comdat any

$_ZNK4cvc58internal4expr9NodeValue14getNumChildrenEv = comdat any

$_ZNK4cvc58internal4expr9NodeValue11getMetaKindEv = comdat any

$_ZNK4cvc58internal4expr9NodeValue7getKindEv = comdat any

$_ZN4cvc58internal4expr9NodeValue11dKindToKindEj = comdat any

$_ZNK4cvc58internal4expr9NodeValue8getChildEi = comdat any

$_ZN4cvc58internal8TypeNodeC2EPKNS0_4expr9NodeValueE = comdat any

$_ZN4cvc58internal11Cvc5ostreamlsIA19_cEERS1_RKT_ = comdat any

$_ZN4cvc58internal11NodeManager10mkTypeNodeENS0_4kind6Kind_tENS0_8TypeNodeES4_ = comdat any

$_ZNSt8ios_base5iwordEi = comdat any

$_ZNSt10_HashtableIN4cvc58internal12NodeTemplateILb0EEESt4pairIKS3_NS2_ILb1EEEESaIS7_ENSt8__detail10_Select1stESt8equal_toIS3_ESt4hashIS3_ENS9_18_Mod_range_hashingENS9_20_Default_ranged_hashENS9_20_Prime_rehash_policyENS9_17_Hashtable_traitsILb1ELb0ELb1EEEEC2Ev = comdat any

$_ZNSt8__detail15_Hashtable_baseIN4cvc58internal12NodeTemplateILb0EEESt4pairIKS4_NS3_ILb1EEEENS_10_Select1stESt8equal_toIS4_ESt4hashIS4_ENS_18_Mod_range_hashingENS_20_Default_ranged_hashENS_17_Hashtable_traitsILb1ELb0ELb1EEEEC2Ev = comdat any

$_ZNSt8__detail16_Hashtable_allocISaINS_10_Hash_nodeISt4pairIKN4cvc58internal12NodeTemplateILb0EEENS5_ILb1EEEELb1EEEEEC2Ev = comdat any

$_ZNSt8__detail15_Hash_node_baseC2Ev = comdat any

$_ZNSt8__detail20_Prime_rehash_policyC2Ef = comdat any

$_ZNSt8__detail15_Hash_code_baseIN4cvc58internal12NodeTemplateILb0EEESt4pairIKS4_NS3_ILb1EEEENS_10_Select1stESt4hashIS4_ENS_18_Mod_range_hashingENS_20_Default_ranged_hashELb1EEC2Ev = comdat any

$_ZNSt8__detail21_Hashtable_ebo_helperILi0ESt8equal_toIN4cvc58internal12NodeTemplateILb0EEEELb1EEC2Ev = comdat any

$_ZNSt8__detail21_Hashtable_ebo_helperILi1ESt4hashIN4cvc58internal12NodeTemplateILb0EEEELb1EEC2Ev = comdat any

$_ZNSt8__detail21_Hashtable_ebo_helperILi0ESaINS_10_Hash_nodeISt4pairIKN4cvc58internal12NodeTemplateILb0EEENS5_ILb1EEEELb1EEEELb1EEC2Ev = comdat any

$_ZNSaINSt8__detail10_Hash_nodeISt4pairIKN4cvc58internal12NodeTemplateILb0EEENS4_ILb1EEEELb1EEEEC2Ev = comdat any

$_ZNSt15__new_allocatorINSt8__detail10_Hash_nodeISt4pairIKN4cvc58internal12NodeTemplateILb0EEENS5_ILb1EEEELb1EEEEC2Ev = comdat any

$_ZN4cvc58internal11Cvc5ostreamC2Ev = comdat any

$_ZN4cvc58internal11Cvc5ostreamC2EPSo = comdat any

$_ZNSt10_HashtableIN4cvc58internal12NodeTemplateILb0EEESt4pairIKS3_NS2_ILb1EEEESaIS7_ENSt8__detail10_Select1stESt8equal_toIS3_ESt4hashIS3_ENS9_18_Mod_range_hashingENS9_20_Default_ranged_hashENS9_20_Prime_rehash_policyENS9_17_Hashtable_traitsILb1ELb0ELb1EEEED2Ev = comdat any

$_ZNSt10_HashtableIN4cvc58internal12NodeTemplateILb0EEESt4pairIKS3_NS2_ILb1EEEESaIS7_ENSt8__detail10_Select1stESt8equal_toIS3_ESt4hashIS3_ENS9_18_Mod_range_hashingENS9_20_Default_ranged_hashENS9_20_Prime_rehash_policyENS9_17_Hashtable_traitsILb1ELb0ELb1EEEE5clearEv = comdat any

$_ZNSt10_HashtableIN4cvc58internal12NodeTemplateILb0EEESt4pairIKS3_NS2_ILb1EEEESaIS7_ENSt8__detail10_Select1stESt8equal_toIS3_ESt4hashIS3_ENS9_18_Mod_range_hashingENS9_20_Default_ranged_hashENS9_20_Prime_rehash_policyENS9_17_Hashtable_traitsILb1ELb0ELb1EEEE21_M_deallocate_bucketsEv = comdat any

$_ZNSt8__detail16_Hashtable_allocISaINS_10_Hash_nodeISt4pairIKN4cvc58internal12NodeTemplateILb0EEENS5_ILb1EEEELb1EEEEED2Ev = comdat any

$_ZNSt8__detail16_Hashtable_allocISaINS_10_Hash_nodeISt4pairIKN4cvc58internal12NodeTemplateILb0EEENS5_ILb1EEEELb1EEEEE19_M_deallocate_nodesEPSA_ = comdat any

$_ZNKSt10_HashtableIN4cvc58internal12NodeTemplateILb0EEESt4pairIKS3_NS2_ILb1EEEESaIS7_ENSt8__detail10_Select1stESt8equal_toIS3_ESt4hashIS3_ENS9_18_Mod_range_hashingENS9_20_Default_ranged_hashENS9_20_Prime_rehash_policyENS9_17_Hashtable_traitsILb1ELb0ELb1EEEE8_M_beginEv = comdat any

$_ZNKSt8__detail10_Hash_nodeISt4pairIKN4cvc58internal12NodeTemplateILb0EEENS4_ILb1EEEELb1EE7_M_nextEv = comdat any

$_ZNSt8__detail16_Hashtable_allocISaINS_10_Hash_nodeISt4pairIKN4cvc58internal12NodeTemplateILb0EEENS5_ILb1EEEELb1EEEEE18_M_deallocate_nodeEPSA_ = comdat any

$_ZNSt16allocator_traitsISaINSt8__detail10_Hash_nodeISt4pairIKN4cvc58internal12NodeTemplateILb0EEENS5_ILb1EEEELb1EEEEE7destroyIS9_EEvRSB_PT_ = comdat any

$_ZNSt8__detail16_Hashtable_allocISaINS_10_Hash_nodeISt4pairIKN4cvc58internal12NodeTemplateILb0EEENS5_ILb1EEEELb1EEEEE17_M_node_allocatorEv = comdat any

$_ZNSt8__detail21_Hash_node_value_baseISt4pairIKN4cvc58internal12NodeTemplateILb0EEENS4_ILb1EEEEE9_M_valptrEv = comdat any

$_ZNSt8__detail16_Hashtable_allocISaINS_10_Hash_nodeISt4pairIKN4cvc58internal12NodeTemplateILb0EEENS5_ILb1EEEELb1EEEEE22_M_deallocate_node_ptrEPSA_ = comdat any

$_ZNSt15__new_allocatorINSt8__detail10_Hash_nodeISt4pairIKN4cvc58internal12NodeTemplateILb0EEENS5_ILb1EEEELb1EEEE7destroyIS9_EEvPT_ = comdat any

$_ZNSt4pairIKN4cvc58internal12NodeTemplateILb0EEENS2_ILb1EEEED2Ev = comdat any

$_ZNSt8__detail21_Hashtable_ebo_helperILi0ESaINS_10_Hash_nodeISt4pairIKN4cvc58internal12NodeTemplateILb0EEENS5_ILb1EEEELb1EEEELb1EE6_M_getEv = comdat any

$_ZN9__gnu_cxx16__aligned_bufferISt4pairIKN4cvc58internal12NodeTemplateILb0EEENS4_ILb1EEEEE6_M_ptrEv = comdat any

$_ZN9__gnu_cxx16__aligned_bufferISt4pairIKN4cvc58internal12NodeTemplateILb0EEENS4_ILb1EEEEE7_M_addrEv = comdat any

$_ZNSt19__ptr_traits_ptr_toIPNSt8__detail10_Hash_nodeISt4pairIKN4cvc58internal12NodeTemplateILb0EEENS5_ILb1EEEELb1EEESA_Lb0EE10pointer_toERSA_ = comdat any

$_ZNSt16allocator_traitsISaINSt8__detail10_Hash_nodeISt4pairIKN4cvc58internal12NodeTemplateILb0EEENS5_ILb1EEEELb1EEEEE10deallocateERSB_PSA_m = comdat any

$_ZNSt15__new_allocatorINSt8__detail10_Hash_nodeISt4pairIKN4cvc58internal12NodeTemplateILb0EEENS5_ILb1EEEELb1EEEE10deallocateEPSA_m = comdat any

$_ZNSt10_HashtableIN4cvc58internal12NodeTemplateILb0EEESt4pairIKS3_NS2_ILb1EEEESaIS7_ENSt8__detail10_Select1stESt8equal_toIS3_ESt4hashIS3_ENS9_18_Mod_range_hashingENS9_20_Default_ranged_hashENS9_20_Prime_rehash_policyENS9_17_Hashtable_traitsILb1ELb0ELb1EEEE21_M_deallocate_bucketsEPPNS9_15_Hash_node_baseEm = comdat any

$_ZNKSt10_HashtableIN4cvc58internal12NodeTemplateILb0EEESt4pairIKS3_NS2_ILb1EEEESaIS7_ENSt8__detail10_Select1stESt8equal_toIS3_ESt4hashIS3_ENS9_18_Mod_range_hashingENS9_20_Default_ranged_hashENS9_20_Prime_rehash_policyENS9_17_Hashtable_traitsILb1ELb0ELb1EEEE21_M_uses_single_bucketEPPNS9_15_Hash_node_baseE = comdat any

$_ZNSt8__detail16_Hashtable_allocISaINS_10_Hash_nodeISt4pairIKN4cvc58internal12NodeTemplateILb0EEENS5_ILb1EEEELb1EEEEE21_M_deallocate_bucketsEPPNS_15_Hash_node_baseEm = comdat any

$_ZNSt19__ptr_traits_ptr_toIPPNSt8__detail15_Hash_node_baseES2_Lb0EE10pointer_toERS2_ = comdat any

$_ZNSaIPNSt8__detail15_Hash_node_baseEEC2INS_10_Hash_nodeISt4pairIKN4cvc58internal12NodeTemplateILb0EEENS8_ILb1EEEELb1EEEEERKSaIT_E = comdat any

$_ZNSt16allocator_traitsISaIPNSt8__detail15_Hash_node_baseEEE10deallocateERS3_PS2_m = comdat any

$_ZNSaIPNSt8__detail15_Hash_node_baseEED2Ev = comdat any

$_ZNSt15__new_allocatorIPNSt8__detail15_Hash_node_baseEEC2Ev = comdat any

$_ZNSt15__new_allocatorIPNSt8__detail15_Hash_node_baseEE10deallocateEPS2_m = comdat any

$_ZNSt15__new_allocatorIPNSt8__detail15_Hash_node_baseEED2Ev = comdat any

$_ZNSt8__detail21_Hashtable_ebo_helperILi0ESaINS_10_Hash_nodeISt4pairIKN4cvc58internal12NodeTemplateILb0EEENS5_ILb1EEEELb1EEEELb1EED2Ev = comdat any

$_ZNSaINSt8__detail10_Hash_nodeISt4pairIKN4cvc58internal12NodeTemplateILb0EEENS4_ILb1EEEELb1EEEED2Ev = comdat any

$_ZNSt15__new_allocatorINSt8__detail10_Hash_nodeISt4pairIKN4cvc58internal12NodeTemplateILb0EEENS5_ILb1EEEELb1EEEED2Ev = comdat any

$_ZNK4cvc58internal8TypeNode7getKindEv = comdat any

$_ZNK4cvc58internal8TypeNode8getConstINS0_12TypeConstantEEERKT_v = comdat any

$_ZN4cvc58internal11Cvc5ostream10pushIndentEv = comdat any

$_ZN4cvc58internal11Cvc5ostream9popIndentEv = comdat any

$_ZN4cvc58internallsERSoRKNS0_8TypeNodeE = comdat any

$_ZNK4cvc58internal8TypeNode8toStreamERSo = comdat any

$_ZNK4cvc58internal12NodeTemplateILb0EE21assertTNodeNotExpiredEv = comdat any

$_ZNK4cvc58internal12NodeTemplateILb1EE21assertTNodeNotExpiredEv = comdat any

$_ZNK4cvc58internal11NodeManager12hasAttributeINS0_4expr9AttributeINS0_6theory2uf16ArrayToLambdaTagENS0_12NodeTemplateILb1EEEEEEEbNS8_ILb0EEERKT_ = comdat any

$_ZNK4cvc58internal4expr4attr16AttributeManager12hasAttributeINS1_9AttributeINS0_6theory2uf16ArrayToLambdaTagENS0_12NodeTemplateILb1EEEEEEEbPNS1_9NodeValueERKT_ = comdat any

$_ZN4cvc58internal4expr4attr12HasAttributeILb0ENS1_9AttributeINS0_6theory2uf16ArrayToLambdaTagENS0_12NodeTemplateILb1EEEEEE12hasAttributeEPKNS2_16AttributeManagerEPNS1_9NodeValueE = comdat any

$_ZN4cvc58internal4expr4attr8getTableINS0_12NodeTemplateILb1EEEvE3getERKNS2_16AttributeManagerE = comdat any

$_ZNKSt13unordered_mapISt4pairImPN4cvc58internal4expr9NodeValueEENS2_12NodeTemplateILb1EEENS3_4attr16AttrHashFunctionESt8equal_toIS6_ESaIS0_IKS6_S8_EEE4findERSD_ = comdat any

$_ZSt9make_pairImRPN4cvc58internal4expr9NodeValueEESt4pairINSt25__strip_reference_wrapperINSt5decayIT_E4typeEE6__typeENS7_INS8_IT0_E4typeEE6__typeEEOS9_OSE_ = comdat any

$_ZN4cvc58internal4expr9AttributeINS0_6theory2uf16ArrayToLambdaTagENS0_12NodeTemplateILb1EEEE5getIdEv = comdat any

$_ZNSt8__detaileqERKNS_19_Node_iterator_baseISt4pairIKS1_ImPN4cvc58internal4expr9NodeValueEENS3_12NodeTemplateILb1EEEELb1EEESE_ = comdat any

$_ZNKSt13unordered_mapISt4pairImPN4cvc58internal4expr9NodeValueEENS2_12NodeTemplateILb1EEENS3_4attr16AttrHashFunctionESt8equal_toIS6_ESaIS0_IKS6_S8_EEE3endEv = comdat any

$_ZNKSt10_HashtableISt4pairImPN4cvc58internal4expr9NodeValueEES0_IKS6_NS2_12NodeTemplateILb1EEEESaISA_ENSt8__detail10_Select1stESt8equal_toIS6_ENS3_4attr16AttrHashFunctionENSC_18_Mod_range_hashingENSC_20_Default_ranged_hashENSC_20_Prime_rehash_policyENSC_17_Hashtable_traitsILb1ELb0ELb1EEEE4findERS7_ = comdat any

$_ZNKSt10_HashtableISt4pairImPN4cvc58internal4expr9NodeValueEES0_IKS6_NS2_12NodeTemplateILb1EEEESaISA_ENSt8__detail10_Select1stESt8equal_toIS6_ENS3_4attr16AttrHashFunctionENSC_18_Mod_range_hashingENSC_20_Default_ranged_hashENSC_20_Prime_rehash_policyENSC_17_Hashtable_traitsILb1ELb0ELb1EEEE4sizeEv = comdat any

$_ZNSt10_HashtableISt4pairImPN4cvc58internal4expr9NodeValueEES0_IKS6_NS2_12NodeTemplateILb1EEEESaISA_ENSt8__detail10_Select1stESt8equal_toIS6_ENS3_4attr16AttrHashFunctionENSC_18_Mod_range_hashingENSC_20_Default_ranged_hashENSC_20_Prime_rehash_policyENSC_17_Hashtable_traitsILb1ELb0ELb1EEEE22__small_size_thresholdEv = comdat any

$_ZNKSt10_HashtableISt4pairImPN4cvc58internal4expr9NodeValueEES0_IKS6_NS2_12NodeTemplateILb1EEEESaISA_ENSt8__detail10_Select1stESt8equal_toIS6_ENS3_4attr16AttrHashFunctionENSC_18_Mod_range_hashingENSC_20_Default_ranged_hashENSC_20_Prime_rehash_policyENSC_17_Hashtable_traitsILb1ELb0ELb1EEEE5beginEv = comdat any

$_ZNSt8__detailneERKNS_19_Node_iterator_baseISt4pairIKS1_ImPN4cvc58internal4expr9NodeValueEENS3_12NodeTemplateILb1EEEELb1EEESE_ = comdat any

$_ZNKSt10_HashtableISt4pairImPN4cvc58internal4expr9NodeValueEES0_IKS6_NS2_12NodeTemplateILb1EEEESaISA_ENSt8__detail10_Select1stESt8equal_toIS6_ENS3_4attr16AttrHashFunctionENSC_18_Mod_range_hashingENSC_20_Default_ranged_hashENSC_20_Prime_rehash_policyENSC_17_Hashtable_traitsILb1ELb0ELb1EEEE3endEv = comdat any

$_ZNKSt8__detail15_Hashtable_baseISt4pairImPN4cvc58internal4expr9NodeValueEES1_IKS7_NS3_12NodeTemplateILb1EEEENS_10_Select1stESt8equal_toIS7_ENS4_4attr16AttrHashFunctionENS_18_Mod_range_hashingENS_20_Default_ranged_hashENS_17_Hashtable_traitsILb1ELb0ELb1EEEE13_M_key_equalsERS8_RKNS_16_Hash_node_valueISB_Lb1EEE = comdat any

$_ZNSt8__detail20_Node_const_iteratorISt4pairIKS1_ImPN4cvc58internal4expr9NodeValueEENS3_12NodeTemplateILb1EEEELb0ELb1EEppEv = comdat any

$_ZNKSt8__detail15_Hash_code_baseISt4pairImPN4cvc58internal4expr9NodeValueEES1_IKS7_NS3_12NodeTemplateILb1EEEENS_10_Select1stENS4_4attr16AttrHashFunctionENS_18_Mod_range_hashingENS_20_Default_ranged_hashELb1EE12_M_hash_codeERS8_ = comdat any

$_ZNKSt10_HashtableISt4pairImPN4cvc58internal4expr9NodeValueEES0_IKS6_NS2_12NodeTemplateILb1EEEESaISA_ENSt8__detail10_Select1stESt8equal_toIS6_ENS3_4attr16AttrHashFunctionENSC_18_Mod_range_hashingENSC_20_Default_ranged_hashENSC_20_Prime_rehash_policyENSC_17_Hashtable_traitsILb1ELb0ELb1EEEE15_M_bucket_indexEm = comdat any

$_ZNKSt10_HashtableISt4pairImPN4cvc58internal4expr9NodeValueEES0_IKS6_NS2_12NodeTemplateILb1EEEESaISA_ENSt8__detail10_Select1stESt8equal_toIS6_ENS3_4attr16AttrHashFunctionENSC_18_Mod_range_hashingENSC_20_Default_ranged_hashENSC_20_Prime_rehash_policyENSC_17_Hashtable_traitsILb1ELb0ELb1EEEE12_M_find_nodeEmRS7_m = comdat any

$_ZNSt8__detail20_Node_const_iteratorISt4pairIKS1_ImPN4cvc58internal4expr9NodeValueEENS3_12NodeTemplateILb1EEEELb0ELb1EEC2EPNS_10_Hash_nodeISB_Lb1EEE = comdat any

$_ZNSt8__detail22_Hashtable_hash_traitsIN4cvc58internal4expr4attr16AttrHashFunctionEE22__small_size_thresholdEv = comdat any

$_ZNKSt10_HashtableISt4pairImPN4cvc58internal4expr9NodeValueEES0_IKS6_NS2_12NodeTemplateILb1EEEESaISA_ENSt8__detail10_Select1stESt8equal_toIS6_ENS3_4attr16AttrHashFunctionENSC_18_Mod_range_hashingENSC_20_Default_ranged_hashENSC_20_Prime_rehash_policyENSC_17_Hashtable_traitsILb1ELb0ELb1EEEE8_M_beginEv = comdat any

$_ZNKSt8__detail15_Hashtable_baseISt4pairImPN4cvc58internal4expr9NodeValueEES1_IKS7_NS3_12NodeTemplateILb1EEEENS_10_Select1stESt8equal_toIS7_ENS4_4attr16AttrHashFunctionENS_18_Mod_range_hashingENS_20_Default_ranged_hashENS_17_Hashtable_traitsILb1ELb0ELb1EEEE5_M_eqEv = comdat any

$_ZNKSt8equal_toISt4pairImPN4cvc58internal4expr9NodeValueEEEclERKS6_S9_ = comdat any

$_ZNKSt8__detail10_Select1stclIRKSt4pairIKS2_ImPN4cvc58internal4expr9NodeValueEENS4_12NodeTemplateILb1EEEEEEONS0_10__1st_typeIT_E4typeEOSG_ = comdat any

$_ZNKSt8__detail21_Hash_node_value_baseISt4pairIKS1_ImPN4cvc58internal4expr9NodeValueEENS3_12NodeTemplateILb1EEEEE4_M_vEv = comdat any

$_ZNKSt8__detail21_Hashtable_ebo_helperILi0ESt8equal_toISt4pairImPN4cvc58internal4expr9NodeValueEEELb1EE7_M_cgetEv = comdat any

$_ZSteqImPN4cvc58internal4expr9NodeValueEEbRKSt4pairIT_T0_ESA_ = comdat any

$_ZNKSt8__detail21_Hash_node_value_baseISt4pairIKS1_ImPN4cvc58internal4expr9NodeValueEENS3_12NodeTemplateILb1EEEEE9_M_valptrEv = comdat any

$_ZNK9__gnu_cxx16__aligned_bufferISt4pairIKS1_ImPN4cvc58internal4expr9NodeValueEENS3_12NodeTemplateILb1EEEEE6_M_ptrEv = comdat any

$_ZNK9__gnu_cxx16__aligned_bufferISt4pairIKS1_ImPN4cvc58internal4expr9NodeValueEENS3_12NodeTemplateILb1EEEEE7_M_addrEv = comdat any

$_ZNSt8__detail19_Node_iterator_baseISt4pairIKS1_ImPN4cvc58internal4expr9NodeValueEENS3_12NodeTemplateILb1EEEELb1EE7_M_incrEv = comdat any

$_ZNKSt8__detail10_Hash_nodeISt4pairIKS1_ImPN4cvc58internal4expr9NodeValueEENS3_12NodeTemplateILb1EEEELb1EE7_M_nextEv = comdat any

$_ZNKSt8__detail15_Hash_code_baseISt4pairImPN4cvc58internal4expr9NodeValueEES1_IKS7_NS3_12NodeTemplateILb1EEEENS_10_Select1stENS4_4attr16AttrHashFunctionENS_18_Mod_range_hashingENS_20_Default_ranged_hashELb1EE7_M_hashEv = comdat any

$_ZNK4cvc58internal4expr4attr16AttrHashFunctionclERKSt4pairImPNS1_9NodeValueEE = comdat any

$_ZNKSt8__detail21_Hashtable_ebo_helperILi1EN4cvc58internal4expr4attr16AttrHashFunctionELb1EE7_M_cgetEv = comdat any

$_ZNK4cvc58internal4expr9NodeValue5getIdEv = comdat any

$_ZNKSt8__detail15_Hash_code_baseISt4pairImPN4cvc58internal4expr9NodeValueEES1_IKS7_NS3_12NodeTemplateILb1EEEENS_10_Select1stENS4_4attr16AttrHashFunctionENS_18_Mod_range_hashingENS_20_Default_ranged_hashELb1EE15_M_bucket_indexEmm = comdat any

$_ZNKSt8__detail18_Mod_range_hashingclEmm = comdat any

$_ZNKSt10_HashtableISt4pairImPN4cvc58internal4expr9NodeValueEES0_IKS6_NS2_12NodeTemplateILb1EEEESaISA_ENSt8__detail10_Select1stESt8equal_toIS6_ENS3_4attr16AttrHashFunctionENSC_18_Mod_range_hashingENSC_20_Default_ranged_hashENSC_20_Prime_rehash_policyENSC_17_Hashtable_traitsILb1ELb0ELb1EEEE19_M_find_before_nodeEmRS7_m = comdat any

$_ZNKSt8__detail15_Hashtable_baseISt4pairImPN4cvc58internal4expr9NodeValueEES1_IKS7_NS3_12NodeTemplateILb1EEEENS_10_Select1stESt8equal_toIS7_ENS4_4attr16AttrHashFunctionENS_18_Mod_range_hashingENS_20_Default_ranged_hashENS_17_Hashtable_traitsILb1ELb0ELb1EEEE9_M_equalsERS8_mRKNS_16_Hash_node_valueISB_Lb1EEE = comdat any

$_ZNKSt10_HashtableISt4pairImPN4cvc58internal4expr9NodeValueEES0_IKS6_NS2_12NodeTemplateILb1EEEESaISA_ENSt8__detail10_Select1stESt8equal_toIS6_ENS3_4attr16AttrHashFunctionENSC_18_Mod_range_hashingENSC_20_Default_ranged_hashENSC_20_Prime_rehash_policyENSC_17_Hashtable_traitsILb1ELb0ELb1EEEE15_M_bucket_indexERKNSC_16_Hash_node_valueISA_Lb1EEE = comdat any

$_ZNSt8__detail15_Hashtable_baseISt4pairImPN4cvc58internal4expr9NodeValueEES1_IKS7_NS3_12NodeTemplateILb1EEEENS_10_Select1stESt8equal_toIS7_ENS4_4attr16AttrHashFunctionENS_18_Mod_range_hashingENS_20_Default_ranged_hashENS_17_Hashtable_traitsILb1ELb0ELb1EEEE9_S_equalsEmRKNS_21_Hash_node_code_cacheILb1EEE = comdat any

$_ZNKSt8__detail15_Hash_code_baseISt4pairImPN4cvc58internal4expr9NodeValueEES1_IKS7_NS3_12NodeTemplateILb1EEEENS_10_Select1stENS4_4attr16AttrHashFunctionENS_18_Mod_range_hashingENS_20_Default_ranged_hashELb1EE15_M_bucket_indexERKNS_16_Hash_node_valueISB_Lb1EEEm = comdat any

$_ZNSt8__detail19_Node_iterator_baseISt4pairIKS1_ImPN4cvc58internal4expr9NodeValueEENS3_12NodeTemplateILb1EEEELb1EEC2EPNS_10_Hash_nodeISB_Lb1EEE = comdat any

$_ZNSt4pairImPN4cvc58internal4expr9NodeValueEEC2ImRS4_TnNSt9enable_ifIXaaclsr5_PCCPE22_MoveConstructiblePairIT_T0_EEclsr5_PCCPE30_ImplicitlyMoveConvertiblePairIS9_SA_EEEbE4typeELb1EEEOS9_OSA_ = comdat any

$_ZN4cvc58internal4expr4attr15LastAttributeIdINS0_12NodeTemplateILb1EEEE9getNextIdEv = comdat any

$_ZN4cvc58internal4expr4attr15LastAttributeIdINS0_12NodeTemplateILb1EEEE6raw_idEv = comdat any

$_ZNK4cvc58internal11NodeManager12getAttributeINS0_4expr9AttributeINS0_6theory2uf16ArrayToLambdaTagENS0_12NodeTemplateILb1EEEEEEENT_10value_typeENS8_ILb0EEERKSB_ = comdat any

$_ZNK4cvc58internal4expr4attr16AttributeManager12getAttributeINS1_9AttributeINS0_6theory2uf16ArrayToLambdaTagENS0_12NodeTemplateILb1EEEEEEENT_10value_typeEPNS1_9NodeValueERKSC_ = comdat any

$_ZN4cvc58internal4expr4attr28KindValueToTableValueMappingINS0_12NodeTemplateILb1EEEvE11convertBackERKS5_ = comdat any

$_ZNKSt8__detail20_Node_const_iteratorISt4pairIKS1_ImPN4cvc58internal4expr9NodeValueEENS3_12NodeTemplateILb1EEEELb0ELb1EEdeEv = comdat any

$_ZNSt8__detail21_Hash_node_value_baseISt4pairIKS1_ImPN4cvc58internal4expr9NodeValueEENS3_12NodeTemplateILb1EEEEE4_M_vEv = comdat any

$_ZNSt8__detail21_Hash_node_value_baseISt4pairIKS1_ImPN4cvc58internal4expr9NodeValueEENS3_12NodeTemplateILb1EEEEE9_M_valptrEv = comdat any

$_ZN9__gnu_cxx16__aligned_bufferISt4pairIKS1_ImPN4cvc58internal4expr9NodeValueEENS3_12NodeTemplateILb1EEEEE6_M_ptrEv = comdat any

$_ZN9__gnu_cxx16__aligned_bufferISt4pairIKS1_ImPN4cvc58internal4expr9NodeValueEENS3_12NodeTemplateILb1EEEEE7_M_addrEv = comdat any

$_ZSt8_DestroyIPN4cvc58internal8TypeNodeES2_EvT_S4_RSaIT0_E = comdat any

$_ZNSt12_Vector_baseIN4cvc58internal8TypeNodeESaIS2_EE19_M_get_Tp_allocatorEv = comdat any

$_ZNSt12_Vector_baseIN4cvc58internal8TypeNodeESaIS2_EED2Ev = comdat any

$_ZSt8_DestroyIPN4cvc58internal8TypeNodeEEvT_S4_ = comdat any

$_ZNSt12_Destroy_auxILb0EE9__destroyIPN4cvc58internal8TypeNodeEEEvT_S6_ = comdat any

$_ZSt8_DestroyIN4cvc58internal8TypeNodeEEvPT_ = comdat any

$_ZNSt12_Vector_baseIN4cvc58internal8TypeNodeESaIS2_EE13_M_deallocateEPS2_m = comdat any

$_ZNSt12_Vector_baseIN4cvc58internal8TypeNodeESaIS2_EE12_Vector_implD2Ev = comdat any

$_ZNSt16allocator_traitsISaIN4cvc58internal8TypeNodeEEE10deallocateERS3_PS2_m = comdat any

$_ZNSt15__new_allocatorIN4cvc58internal8TypeNodeEE10deallocateEPS2_m = comdat any

$_ZNSaIN4cvc58internal8TypeNodeEED2Ev = comdat any

$_ZNSt15__new_allocatorIN4cvc58internal8TypeNodeEED2Ev = comdat any

$_ZNSt15__new_allocatorIN4cvc58internal12NodeTemplateILb1EEEED2Ev = comdat any

$_ZSt8_DestroyIPN4cvc58internal12NodeTemplateILb1EEES3_EvT_S5_RSaIT0_E = comdat any

$_ZNSt12_Vector_baseIN4cvc58internal12NodeTemplateILb1EEESaIS3_EE19_M_get_Tp_allocatorEv = comdat any

$_ZNSt12_Vector_baseIN4cvc58internal12NodeTemplateILb1EEESaIS3_EED2Ev = comdat any

$_ZSt8_DestroyIPN4cvc58internal12NodeTemplateILb1EEEEvT_S5_ = comdat any

$_ZNSt12_Destroy_auxILb0EE9__destroyIPN4cvc58internal12NodeTemplateILb1EEEEEvT_S7_ = comdat any

$_ZSt8_DestroyIN4cvc58internal12NodeTemplateILb1EEEEvPT_ = comdat any

$_ZNSt12_Vector_baseIN4cvc58internal12NodeTemplateILb1EEESaIS3_EE13_M_deallocateEPS3_m = comdat any

$_ZNSt12_Vector_baseIN4cvc58internal12NodeTemplateILb1EEESaIS3_EE12_Vector_implD2Ev = comdat any

$_ZNSt16allocator_traitsISaIN4cvc58internal12NodeTemplateILb1EEEEE10deallocateERS4_PS3_m = comdat any

$_ZNSt15__new_allocatorIN4cvc58internal12NodeTemplateILb1EEEE10deallocateEPS3_m = comdat any

$_ZNK4cvc58internal12NodeTemplateILb1EE12hasAttributeINS0_4expr9AttributeINS0_6theory2uf23FunctionBoundVarListTagES2_EEEEbRKT_ = comdat any

$_ZNK4cvc58internal12NodeTemplateILb1EE12getAttributeINS0_4expr9AttributeINS0_6theory2uf23FunctionBoundVarListTagES2_EEEENT_10value_typeERKSA_ = comdat any

$_ZN4cvc58internal12NodeTemplateILb1EE12setAttributeINS0_4expr9AttributeINS0_6theory2uf23FunctionBoundVarListTagES2_EEEEvRKT_RKNSA_10value_typeE = comdat any

$_ZNSt13unordered_setIN4cvc58internal12NodeTemplateILb1EEESt4hashIS3_ESt8equal_toIS3_ESaIS3_EE6insertERKS3_ = comdat any

$_ZNK4cvc58internal11NodeManager12hasAttributeINS0_4expr9AttributeINS0_6theory2uf23FunctionBoundVarListTagENS0_12NodeTemplateILb1EEEEEEEbNS8_ILb0EEERKT_ = comdat any

$_ZNK4cvc58internal4expr4attr16AttributeManager12hasAttributeINS1_9AttributeINS0_6theory2uf23FunctionBoundVarListTagENS0_12NodeTemplateILb1EEEEEEEbPNS1_9NodeValueERKT_ = comdat any

$_ZN4cvc58internal4expr4attr12HasAttributeILb0ENS1_9AttributeINS0_6theory2uf23FunctionBoundVarListTagENS0_12NodeTemplateILb1EEEEEE12hasAttributeEPKNS2_16AttributeManagerEPNS1_9NodeValueE = comdat any

$_ZN4cvc58internal4expr9AttributeINS0_6theory2uf23FunctionBoundVarListTagENS0_12NodeTemplateILb1EEEE5getIdEv = comdat any

$_ZNK4cvc58internal11NodeManager12getAttributeINS0_4expr9AttributeINS0_6theory2uf23FunctionBoundVarListTagENS0_12NodeTemplateILb1EEEEEEENT_10value_typeENS8_ILb0EEERKSB_ = comdat any

$_ZNK4cvc58internal4expr4attr16AttributeManager12getAttributeINS1_9AttributeINS0_6theory2uf23FunctionBoundVarListTagENS0_12NodeTemplateILb1EEEEEEENT_10value_typeEPNS1_9NodeValueERKSC_ = comdat any

$_ZN4cvc58internal11NodeManager12setAttributeINS0_4expr9AttributeINS0_6theory2uf23FunctionBoundVarListTagENS0_12NodeTemplateILb1EEEEEEEvNS8_ILb0EEERKT_RKNSC_10value_typeE = comdat any

$_ZN4cvc58internal4expr4attr16AttributeManager12setAttributeINS1_9AttributeINS0_6theory2uf23FunctionBoundVarListTagENS0_12NodeTemplateILb1EEEEEEEvPNS1_9NodeValueERKT_RKNSE_10value_typeE = comdat any

$_ZN4cvc58internal4expr4attr8getTableINS0_12NodeTemplateILb1EEEvE3getERNS2_16AttributeManagerE = comdat any

$_ZN4cvc58internal4expr4attr28KindValueToTableValueMappingINS0_12NodeTemplateILb1EEEvE7convertERKS5_ = comdat any

$_ZNSt13unordered_mapISt4pairImPN4cvc58internal4expr9NodeValueEENS2_12NodeTemplateILb1EEENS3_4attr16AttrHashFunctionESt8equal_toIS6_ESaIS0_IKS6_S8_EEEixEOS6_ = comdat any

$_ZNSt8__detail9_Map_baseISt4pairImPN4cvc58internal4expr9NodeValueEES1_IKS7_NS3_12NodeTemplateILb1EEEESaISB_ENS_10_Select1stESt8equal_toIS7_ENS4_4attr16AttrHashFunctionENS_18_Mod_range_hashingENS_20_Default_ranged_hashENS_20_Prime_rehash_policyENS_17_Hashtable_traitsILb1ELb0ELb1EEELb1EEixEOS7_ = comdat any

$_ZSt16forward_as_tupleIJSt4pairImPN4cvc58internal4expr9NodeValueEEEESt5tupleIJDpOT_EESA_ = comdat any

$_ZNSt10_HashtableISt4pairImPN4cvc58internal4expr9NodeValueEES0_IKS6_NS2_12NodeTemplateILb1EEEESaISA_ENSt8__detail10_Select1stESt8equal_toIS6_ENS3_4attr16AttrHashFunctionENSC_18_Mod_range_hashingENSC_20_Default_ranged_hashENSC_20_Prime_rehash_policyENSC_17_Hashtable_traitsILb1ELb0ELb1EEEE12_Scoped_nodeC2IJRKSt21piecewise_construct_tSt5tupleIJOS6_EEST_IJEEEEEPNSC_16_Hashtable_allocISaINSC_10_Hash_nodeISA_Lb1EEEEEEDpOT_ = comdat any

$_ZNSt10_HashtableISt4pairImPN4cvc58internal4expr9NodeValueEES0_IKS6_NS2_12NodeTemplateILb1EEEESaISA_ENSt8__detail10_Select1stESt8equal_toIS6_ENS3_4attr16AttrHashFunctionENSC_18_Mod_range_hashingENSC_20_Default_ranged_hashENSC_20_Prime_rehash_policyENSC_17_Hashtable_traitsILb1ELb0ELb1EEEE21_M_insert_unique_nodeEmmPNSC_10_Hash_nodeISA_Lb1EEEm = comdat any

$_ZNKSt8__detail14_Node_iteratorISt4pairIKS1_ImPN4cvc58internal4expr9NodeValueEENS3_12NodeTemplateILb1EEEELb0ELb1EEptEv = comdat any

$_ZNSt10_HashtableISt4pairImPN4cvc58internal4expr9NodeValueEES0_IKS6_NS2_12NodeTemplateILb1EEEESaISA_ENSt8__detail10_Select1stESt8equal_toIS6_ENS3_4attr16AttrHashFunctionENSC_18_Mod_range_hashingENSC_20_Default_ranged_hashENSC_20_Prime_rehash_policyENSC_17_Hashtable_traitsILb1ELb0ELb1EEEE12_Scoped_nodeD2Ev = comdat any

$_ZNSt5tupleIJOSt4pairImPN4cvc58internal4expr9NodeValueEEEEC2IJS6_ELb1ETnNSt9enable_ifIXclsr4_TCCIXT0_EEE29__is_implicitly_constructibleIDpT_EEEbE4typeELb1EEEDpOSB_ = comdat any

$_ZNSt11_Tuple_implILm0EJOSt4pairImPN4cvc58internal4expr9NodeValueEEEEC2IS6_EEOT_ = comdat any

$_ZNSt10_Head_baseILm0EOSt4pairImPN4cvc58internal4expr9NodeValueEELb0EEC2IS6_EEOT_ = comdat any

$_ZNSt8__detail16_Hashtable_allocISaINS_10_Hash_nodeISt4pairIKS2_ImPN4cvc58internal4expr9NodeValueEENS4_12NodeTemplateILb1EEEELb1EEEEE16_M_allocate_nodeIJRKSt21piecewise_construct_tSt5tupleIJOS8_EESK_IJEEEEEPSD_DpOT_ = comdat any

$_ZNSt16allocator_traitsISaINSt8__detail10_Hash_nodeISt4pairIKS2_ImPN4cvc58internal4expr9NodeValueEENS4_12NodeTemplateILb1EEEELb1EEEEE8allocateERSE_m = comdat any

$_ZNSt8__detail16_Hashtable_allocISaINS_10_Hash_nodeISt4pairIKS2_ImPN4cvc58internal4expr9NodeValueEENS4_12NodeTemplateILb1EEEELb1EEEEE17_M_node_allocatorEv = comdat any

$_ZSt12__to_addressINSt8__detail10_Hash_nodeISt4pairIKS2_ImPN4cvc58internal4expr9NodeValueEENS4_12NodeTemplateILb1EEEELb1EEEEPT_SF_ = comdat any

$_ZNSt8__detail10_Hash_nodeISt4pairIKS1_ImPN4cvc58internal4expr9NodeValueEENS3_12NodeTemplateILb1EEEELb1EEC2Ev = comdat any

$_ZNSt16allocator_traitsISaINSt8__detail10_Hash_nodeISt4pairIKS2_ImPN4cvc58internal4expr9NodeValueEENS4_12NodeTemplateILb1EEEELb1EEEEE9constructISC_JRKSt21piecewise_construct_tSt5tupleIJOS8_EESK_IJEEEEEvRSE_PT_DpOT0_ = comdat any

$_ZNSt16allocator_traitsISaINSt8__detail10_Hash_nodeISt4pairIKS2_ImPN4cvc58internal4expr9NodeValueEENS4_12NodeTemplateILb1EEEELb1EEEEE10deallocateERSE_PSD_m = comdat any

$_ZNSt15__new_allocatorINSt8__detail10_Hash_nodeISt4pairIKS2_ImPN4cvc58internal4expr9NodeValueEENS4_12NodeTemplateILb1EEEELb1EEEE8allocateEmPKv = comdat any

$_ZNKSt15__new_allocatorINSt8__detail10_Hash_nodeISt4pairIKS2_ImPN4cvc58internal4expr9NodeValueEENS4_12NodeTemplateILb1EEEELb1EEEE11_M_max_sizeEv = comdat any

$_ZNSt8__detail21_Hashtable_ebo_helperILi0ESaINS_10_Hash_nodeISt4pairIKS2_ImPN4cvc58internal4expr9NodeValueEENS4_12NodeTemplateILb1EEEELb1EEEELb1EE6_M_getEv = comdat any

$_ZNSt15__new_allocatorINSt8__detail10_Hash_nodeISt4pairIKS2_ImPN4cvc58internal4expr9NodeValueEENS4_12NodeTemplateILb1EEEELb1EEEE9constructISC_JRKSt21piecewise_construct_tSt5tupleIJOS8_EESJ_IJEEEEEvPT_DpOT0_ = comdat any

$_ZNSt5tupleIJOSt4pairImPN4cvc58internal4expr9NodeValueEEEEC2EOS8_ = comdat any

$_ZNSt4pairIKS_ImPN4cvc58internal4expr9NodeValueEENS1_12NodeTemplateILb1EEEEC2IJOS5_EJEEESt21piecewise_construct_tSt5tupleIJDpT_EESD_IJDpT0_EE = comdat any

$_ZNSt11_Tuple_implILm0EJOSt4pairImPN4cvc58internal4expr9NodeValueEEEEC2EOS8_ = comdat any

$_ZNSt4pairIKS_ImPN4cvc58internal4expr9NodeValueEENS1_12NodeTemplateILb1EEEEC2IJOS5_EJLm0EEJETpTnmJEEERSt5tupleIJDpT_EERSC_IJDpT1_EESt12_Index_tupleIJXspT0_EEESL_IJXspT2_EEE = comdat any

$_ZSt3getILm0EJOSt4pairImPN4cvc58internal4expr9NodeValueEEEERNSt13tuple_elementIXT_ESt5tupleIJDpT0_EEE4typeERSC_ = comdat any

$_ZSt12__get_helperILm0EOSt4pairImPN4cvc58internal4expr9NodeValueEEJEERT0_RSt11_Tuple_implIXT_EJS8_DpT1_EE = comdat any

$_ZNSt11_Tuple_implILm0EJOSt4pairImPN4cvc58internal4expr9NodeValueEEEE7_M_headERS8_ = comdat any

$_ZNSt10_Head_baseILm0EOSt4pairImPN4cvc58internal4expr9NodeValueEELb0EE7_M_headERS8_ = comdat any

$_ZNSt15__new_allocatorINSt8__detail10_Hash_nodeISt4pairIKS2_ImPN4cvc58internal4expr9NodeValueEENS4_12NodeTemplateILb1EEEELb1EEEE10deallocateEPSD_m = comdat any

$_ZNKSt8__detail20_Prime_rehash_policy8_M_stateEv = comdat any

$_ZNSt10_HashtableISt4pairImPN4cvc58internal4expr9NodeValueEES0_IKS6_NS2_12NodeTemplateILb1EEEESaISA_ENSt8__detail10_Select1stESt8equal_toIS6_ENS3_4attr16AttrHashFunctionENSC_18_Mod_range_hashingENSC_20_Default_ranged_hashENSC_20_Prime_rehash_policyENSC_17_Hashtable_traitsILb1ELb0ELb1EEEE9_M_rehashEmRKm = comdat any

$_ZNKSt8__detail15_Hash_code_baseISt4pairImPN4cvc58internal4expr9NodeValueEES1_IKS7_NS3_12NodeTemplateILb1EEEENS_10_Select1stENS4_4attr16AttrHashFunctionENS_18_Mod_range_hashingENS_20_Default_ranged_hashELb1EE13_M_store_codeERNS_21_Hash_node_code_cacheILb1EEEm = comdat any

$_ZNSt10_HashtableISt4pairImPN4cvc58internal4expr9NodeValueEES0_IKS6_NS2_12NodeTemplateILb1EEEESaISA_ENSt8__detail10_Select1stESt8equal_toIS6_ENS3_4attr16AttrHashFunctionENSC_18_Mod_range_hashingENSC_20_Default_ranged_hashENSC_20_Prime_rehash_policyENSC_17_Hashtable_traitsILb1ELb0ELb1EEEE22_M_insert_bucket_beginEmPNSC_10_Hash_nodeISA_Lb1EEE = comdat any

$_ZNSt8__detail14_Node_iteratorISt4pairIKS1_ImPN4cvc58internal4expr9NodeValueEENS3_12NodeTemplateILb1EEEELb0ELb1EEC2EPNS_10_Hash_nodeISB_Lb1EEE = comdat any

$_ZNSt10_HashtableISt4pairImPN4cvc58internal4expr9NodeValueEES0_IKS6_NS2_12NodeTemplateILb1EEEESaISA_ENSt8__detail10_Select1stESt8equal_toIS6_ENS3_4attr16AttrHashFunctionENSC_18_Mod_range_hashingENSC_20_Default_ranged_hashENSC_20_Prime_rehash_policyENSC_17_Hashtable_traitsILb1ELb0ELb1EEEE13_M_rehash_auxEmSt17integral_constantIbLb1EE = comdat any

$_ZNSt8__detail20_Prime_rehash_policy8_M_resetEm = comdat any

$_ZNSt10_HashtableISt4pairImPN4cvc58internal4expr9NodeValueEES0_IKS6_NS2_12NodeTemplateILb1EEEESaISA_ENSt8__detail10_Select1stESt8equal_toIS6_ENS3_4attr16AttrHashFunctionENSC_18_Mod_range_hashingENSC_20_Default_ranged_hashENSC_20_Prime_rehash_policyENSC_17_Hashtable_traitsILb1ELb0ELb1EEEE19_M_allocate_bucketsEm = comdat any

$_ZNSt10_HashtableISt4pairImPN4cvc58internal4expr9NodeValueEES0_IKS6_NS2_12NodeTemplateILb1EEEESaISA_ENSt8__detail10_Select1stESt8equal_toIS6_ENS3_4attr16AttrHashFunctionENSC_18_Mod_range_hashingENSC_20_Default_ranged_hashENSC_20_Prime_rehash_policyENSC_17_Hashtable_traitsILb1ELb0ELb1EEEE21_M_deallocate_bucketsEv = comdat any

$_ZNSt8__detail16_Hashtable_allocISaINS_10_Hash_nodeISt4pairIKS2_ImPN4cvc58internal4expr9NodeValueEENS4_12NodeTemplateILb1EEEELb1EEEEE19_M_allocate_bucketsEm = comdat any

$_ZNSaIPNSt8__detail15_Hash_node_baseEEC2INS_10_Hash_nodeISt4pairIKS5_ImPN4cvc58internal4expr9NodeValueEENS7_12NodeTemplateILb1EEEELb1EEEEERKSaIT_E = comdat any

$_ZNSt16allocator_traitsISaIPNSt8__detail15_Hash_node_baseEEE8allocateERS3_m = comdat any

$_ZSt12__to_addressIPNSt8__detail15_Hash_node_baseEEPT_S4_ = comdat any

$_ZNSt15__new_allocatorIPNSt8__detail15_Hash_node_baseEE8allocateEmPKv = comdat any

$_ZNKSt15__new_allocatorIPNSt8__detail15_Hash_node_baseEE11_M_max_sizeEv = comdat any

$_ZNSt10_HashtableISt4pairImPN4cvc58internal4expr9NodeValueEES0_IKS6_NS2_12NodeTemplateILb1EEEESaISA_ENSt8__detail10_Select1stESt8equal_toIS6_ENS3_4attr16AttrHashFunctionENSC_18_Mod_range_hashingENSC_20_Default_ranged_hashENSC_20_Prime_rehash_policyENSC_17_Hashtable_traitsILb1ELb0ELb1EEEE21_M_deallocate_bucketsEPPNSC_15_Hash_node_baseEm = comdat any

$_ZNKSt10_HashtableISt4pairImPN4cvc58internal4expr9NodeValueEES0_IKS6_NS2_12NodeTemplateILb1EEEESaISA_ENSt8__detail10_Select1stESt8equal_toIS6_ENS3_4attr16AttrHashFunctionENSC_18_Mod_range_hashingENSC_20_Default_ranged_hashENSC_20_Prime_rehash_policyENSC_17_Hashtable_traitsILb1ELb0ELb1EEEE21_M_uses_single_bucketEPPNSC_15_Hash_node_baseE = comdat any

$_ZNSt8__detail16_Hashtable_allocISaINS_10_Hash_nodeISt4pairIKS2_ImPN4cvc58internal4expr9NodeValueEENS4_12NodeTemplateILb1EEEELb1EEEEE21_M_deallocate_bucketsEPPNS_15_Hash_node_baseEm = comdat any

$_ZNSt8__detail16_Hashtable_allocISaINS_10_Hash_nodeISt4pairIKS2_ImPN4cvc58internal4expr9NodeValueEENS4_12NodeTemplateILb1EEEELb1EEEEE18_M_deallocate_nodeEPSD_ = comdat any

$_ZNSt16allocator_traitsISaINSt8__detail10_Hash_nodeISt4pairIKS2_ImPN4cvc58internal4expr9NodeValueEENS4_12NodeTemplateILb1EEEELb1EEEEE7destroyISC_EEvRSE_PT_ = comdat any

$_ZNSt8__detail16_Hashtable_allocISaINS_10_Hash_nodeISt4pairIKS2_ImPN4cvc58internal4expr9NodeValueEENS4_12NodeTemplateILb1EEEELb1EEEEE22_M_deallocate_node_ptrEPSD_ = comdat any

$_ZNSt15__new_allocatorINSt8__detail10_Hash_nodeISt4pairIKS2_ImPN4cvc58internal4expr9NodeValueEENS4_12NodeTemplateILb1EEEELb1EEEE7destroyISC_EEvPT_ = comdat any

$_ZNSt4pairIKS_ImPN4cvc58internal4expr9NodeValueEENS1_12NodeTemplateILb1EEEED2Ev = comdat any

$_ZNSt19__ptr_traits_ptr_toIPNSt8__detail10_Hash_nodeISt4pairIKS2_ImPN4cvc58internal4expr9NodeValueEENS4_12NodeTemplateILb1EEEELb1EEESD_Lb0EE10pointer_toERSD_ = comdat any

$_ZNSt8__detail12_Insert_baseIN4cvc58internal12NodeTemplateILb1EEES4_SaIS4_ENS_9_IdentityESt8equal_toIS4_ESt4hashIS4_ENS_18_Mod_range_hashingENS_20_Default_ranged_hashENS_20_Prime_rehash_policyENS_17_Hashtable_traitsILb1ELb1ELb1EEEE6insertERKS4_ = comdat any

$_ZNSt8__detail12_Insert_baseIN4cvc58internal12NodeTemplateILb1EEES4_SaIS4_ENS_9_IdentityESt8equal_toIS4_ESt4hashIS4_ENS_18_Mod_range_hashingENS_20_Default_ranged_hashENS_20_Prime_rehash_policyENS_17_Hashtable_traitsILb1ELb1ELb1EEEE20_M_conjure_hashtableEv = comdat any

$_ZNSt8__detail10_AllocNodeISaINS_10_Hash_nodeIN4cvc58internal12NodeTemplateILb1EEELb1EEEEEC2ERNS_16_Hashtable_allocIS7_EE = comdat any

$_ZNSt10_HashtableIN4cvc58internal12NodeTemplateILb1EEES3_SaIS3_ENSt8__detail9_IdentityESt8equal_toIS3_ESt4hashIS3_ENS5_18_Mod_range_hashingENS5_20_Default_ranged_hashENS5_20_Prime_rehash_policyENS5_17_Hashtable_traitsILb1ELb1ELb1EEEE9_M_insertIRKS3_NS5_10_AllocNodeISaINS5_10_Hash_nodeIS3_Lb1EEEEEEEESt4pairINS5_14_Node_iteratorIS3_Lb1ELb1EEEbEOT_RKT0_St17integral_constantIbLb1EE = comdat any

$_ZNSt10_HashtableIN4cvc58internal12NodeTemplateILb1EEES3_SaIS3_ENSt8__detail9_IdentityESt8equal_toIS3_ESt4hashIS3_ENS5_18_Mod_range_hashingENS5_20_Default_ranged_hashENS5_20_Prime_rehash_policyENS5_17_Hashtable_traitsILb1ELb1ELb1EEEE16_M_insert_uniqueIRKS3_SJ_NS5_10_AllocNodeISaINS5_10_Hash_nodeIS3_Lb1EEEEEEEESt4pairINS5_14_Node_iteratorIS3_Lb1ELb1EEEbEOT_OT0_RKT1_ = comdat any

$_ZNSt10_HashtableIN4cvc58internal12NodeTemplateILb1EEES3_SaIS3_ENSt8__detail9_IdentityESt8equal_toIS3_ESt4hashIS3_ENS5_18_Mod_range_hashingENS5_20_Default_ranged_hashENS5_20_Prime_rehash_policyENS5_17_Hashtable_traitsILb1ELb1ELb1EEEE14_S_forward_keyERKS3_ = comdat any

$_ZNKSt8__detail9_IdentityclIRKN4cvc58internal12NodeTemplateILb1EEEEEOT_S9_ = comdat any

$_ZNKSt10_HashtableIN4cvc58internal12NodeTemplateILb1EEES3_SaIS3_ENSt8__detail9_IdentityESt8equal_toIS3_ESt4hashIS3_ENS5_18_Mod_range_hashingENS5_20_Default_ranged_hashENS5_20_Prime_rehash_policyENS5_17_Hashtable_traitsILb1ELb1ELb1EEEE4sizeEv = comdat any

$_ZNSt10_HashtableIN4cvc58internal12NodeTemplateILb1EEES3_SaIS3_ENSt8__detail9_IdentityESt8equal_toIS3_ESt4hashIS3_ENS5_18_Mod_range_hashingENS5_20_Default_ranged_hashENS5_20_Prime_rehash_policyENS5_17_Hashtable_traitsILb1ELb1ELb1EEEE22__small_size_thresholdEv = comdat any

$_ZNSt10_HashtableIN4cvc58internal12NodeTemplateILb1EEES3_SaIS3_ENSt8__detail9_IdentityESt8equal_toIS3_ESt4hashIS3_ENS5_18_Mod_range_hashingENS5_20_Default_ranged_hashENS5_20_Prime_rehash_policyENS5_17_Hashtable_traitsILb1ELb1ELb1EEEE5beginEv = comdat any

$_ZNSt8__detailneERKNS_19_Node_iterator_baseIN4cvc58internal12NodeTemplateILb1EEELb1EEES7_ = comdat any

$_ZNSt10_HashtableIN4cvc58internal12NodeTemplateILb1EEES3_SaIS3_ENSt8__detail9_IdentityESt8equal_toIS3_ESt4hashIS3_ENS5_18_Mod_range_hashingENS5_20_Default_ranged_hashENS5_20_Prime_rehash_policyENS5_17_Hashtable_traitsILb1ELb1ELb1EEEE3endEv = comdat any

$_ZNKSt8__detail15_Hashtable_baseIN4cvc58internal12NodeTemplateILb1EEES4_NS_9_IdentityESt8equal_toIS4_ESt4hashIS4_ENS_18_Mod_range_hashingENS_20_Default_ranged_hashENS_17_Hashtable_traitsILb1ELb1ELb1EEEE16_M_key_equals_trIS4_EEbRKT_RKNS_16_Hash_node_valueIS4_Lb1EEE = comdat any

$_ZNSt4pairINSt8__detail14_Node_iteratorIN4cvc58internal12NodeTemplateILb1EEELb1ELb1EEEbEC2IRS6_bTnNSt9enable_ifIXaaclsr5_PCCPE22_MoveConstructiblePairIT_T0_EEclsr5_PCCPE30_ImplicitlyMoveConvertiblePairISB_SC_EEEbE4typeELb1EEEOSB_OSC_ = comdat any

$_ZNSt8__detail14_Node_iteratorIN4cvc58internal12NodeTemplateILb1EEELb1ELb1EEppEv = comdat any

$_ZNKSt8__detail15_Hash_code_baseIN4cvc58internal12NodeTemplateILb1EEES4_NS_9_IdentityESt4hashIS4_ENS_18_Mod_range_hashingENS_20_Default_ranged_hashELb1EE15_M_hash_code_trIS4_EEmRKT_ = comdat any

$_ZNKSt10_HashtableIN4cvc58internal12NodeTemplateILb1EEES3_SaIS3_ENSt8__detail9_IdentityESt8equal_toIS3_ESt4hashIS3_ENS5_18_Mod_range_hashingENS5_20_Default_ranged_hashENS5_20_Prime_rehash_policyENS5_17_Hashtable_traitsILb1ELb1ELb1EEEE15_M_bucket_indexEm = comdat any

$_ZNKSt10_HashtableIN4cvc58internal12NodeTemplateILb1EEES3_SaIS3_ENSt8__detail9_IdentityESt8equal_toIS3_ESt4hashIS3_ENS5_18_Mod_range_hashingENS5_20_Default_ranged_hashENS5_20_Prime_rehash_policyENS5_17_Hashtable_traitsILb1ELb1ELb1EEEE15_M_find_node_trIS3_EEPNS5_10_Hash_nodeIS3_Lb1EEEmRKT_m = comdat any

$_ZNSt8__detail14_Node_iteratorIN4cvc58internal12NodeTemplateILb1EEELb1ELb1EEC2EPNS_10_Hash_nodeIS4_Lb1EEE = comdat any

$_ZNSt4pairINSt8__detail14_Node_iteratorIN4cvc58internal12NodeTemplateILb1EEELb1ELb1EEEbEC2IS6_bTnNSt9enable_ifIXaaclsr5_PCCPE22_MoveConstructiblePairIT_T0_EEclsr5_PCCPE30_ImplicitlyMoveConvertiblePairISA_SB_EEEbE4typeELb1EEEOSA_OSB_ = comdat any

$_ZNSt8__detail12_NodeBuilderINS_9_IdentityEE8_S_buildIRKN4cvc58internal12NodeTemplateILb1EEES9_NS_10_AllocNodeISaINS_10_Hash_nodeIS7_Lb1EEEEEEEEPNT1_11__node_typeEOT_OT0_RKSF_ = comdat any

$_ZNSt10_HashtableIN4cvc58internal12NodeTemplateILb1EEES3_SaIS3_ENSt8__detail9_IdentityESt8equal_toIS3_ESt4hashIS3_ENS5_18_Mod_range_hashingENS5_20_Default_ranged_hashENS5_20_Prime_rehash_policyENS5_17_Hashtable_traitsILb1ELb1ELb1EEEE12_Scoped_nodeC2EPNS5_10_Hash_nodeIS3_Lb1EEEPNS5_16_Hashtable_allocISaISJ_EEE = comdat any

$_ZNSt10_HashtableIN4cvc58internal12NodeTemplateILb1EEES3_SaIS3_ENSt8__detail9_IdentityESt8equal_toIS3_ESt4hashIS3_ENS5_18_Mod_range_hashingENS5_20_Default_ranged_hashENS5_20_Prime_rehash_policyENS5_17_Hashtable_traitsILb1ELb1ELb1EEEE21_M_insert_unique_nodeEmmPNS5_10_Hash_nodeIS3_Lb1EEEm = comdat any

$_ZNSt10_HashtableIN4cvc58internal12NodeTemplateILb1EEES3_SaIS3_ENSt8__detail9_IdentityESt8equal_toIS3_ESt4hashIS3_ENS5_18_Mod_range_hashingENS5_20_Default_ranged_hashENS5_20_Prime_rehash_policyENS5_17_Hashtable_traitsILb1ELb1ELb1EEEE12_Scoped_nodeD2Ev = comdat any

$_ZNSt8__detail22_Hashtable_hash_traitsISt4hashIN4cvc58internal12NodeTemplateILb1EEEEE22__small_size_thresholdEv = comdat any

$_ZNKSt10_HashtableIN4cvc58internal12NodeTemplateILb1EEES3_SaIS3_ENSt8__detail9_IdentityESt8equal_toIS3_ESt4hashIS3_ENS5_18_Mod_range_hashingENS5_20_Default_ranged_hashENS5_20_Prime_rehash_policyENS5_17_Hashtable_traitsILb1ELb1ELb1EEEE8_M_beginEv = comdat any

$_ZNKSt8__detail15_Hashtable_baseIN4cvc58internal12NodeTemplateILb1EEES4_NS_9_IdentityESt8equal_toIS4_ESt4hashIS4_ENS_18_Mod_range_hashingENS_20_Default_ranged_hashENS_17_Hashtable_traitsILb1ELb1ELb1EEEE5_M_eqEv = comdat any

$_ZNKSt8equal_toIN4cvc58internal12NodeTemplateILb1EEEEclERKS3_S6_ = comdat any

$_ZNKSt8__detail21_Hash_node_value_baseIN4cvc58internal12NodeTemplateILb1EEEE4_M_vEv = comdat any

$_ZNKSt8__detail21_Hashtable_ebo_helperILi0ESt8equal_toIN4cvc58internal12NodeTemplateILb1EEEELb1EE7_M_cgetEv = comdat any

$_ZNKSt8__detail21_Hash_node_value_baseIN4cvc58internal12NodeTemplateILb1EEEE9_M_valptrEv = comdat any

$_ZNK9__gnu_cxx16__aligned_bufferIN4cvc58internal12NodeTemplateILb1EEEE6_M_ptrEv = comdat any

$_ZNK9__gnu_cxx16__aligned_bufferIN4cvc58internal12NodeTemplateILb1EEEE7_M_addrEv = comdat any

$_ZNSt8__detail19_Node_iterator_baseIN4cvc58internal12NodeTemplateILb1EEELb1EE7_M_incrEv = comdat any

$_ZNKSt8__detail10_Hash_nodeIN4cvc58internal12NodeTemplateILb1EEELb1EE7_M_nextEv = comdat any

$_ZNKSt8__detail15_Hash_code_baseIN4cvc58internal12NodeTemplateILb1EEES4_NS_9_IdentityESt4hashIS4_ENS_18_Mod_range_hashingENS_20_Default_ranged_hashELb1EE7_M_hashEv = comdat any

$_ZNKSt8__detail21_Hashtable_ebo_helperILi1ESt4hashIN4cvc58internal12NodeTemplateILb1EEEELb1EE7_M_cgetEv = comdat any

$_ZNKSt8__detail15_Hash_code_baseIN4cvc58internal12NodeTemplateILb1EEES4_NS_9_IdentityESt4hashIS4_ENS_18_Mod_range_hashingENS_20_Default_ranged_hashELb1EE15_M_bucket_indexEmm = comdat any

$_ZNKSt10_HashtableIN4cvc58internal12NodeTemplateILb1EEES3_SaIS3_ENSt8__detail9_IdentityESt8equal_toIS3_ESt4hashIS3_ENS5_18_Mod_range_hashingENS5_20_Default_ranged_hashENS5_20_Prime_rehash_policyENS5_17_Hashtable_traitsILb1ELb1ELb1EEEE22_M_find_before_node_trIS3_EEPNS5_15_Hash_node_baseEmRKT_m = comdat any

$_ZNKSt8__detail15_Hashtable_baseIN4cvc58internal12NodeTemplateILb1EEES4_NS_9_IdentityESt8equal_toIS4_ESt4hashIS4_ENS_18_Mod_range_hashingENS_20_Default_ranged_hashENS_17_Hashtable_traitsILb1ELb1ELb1EEEE12_M_equals_trIS4_EEbRKT_mRKNS_16_Hash_node_valueIS4_Lb1EEE = comdat any

$_ZNKSt10_HashtableIN4cvc58internal12NodeTemplateILb1EEES3_SaIS3_ENSt8__detail9_IdentityESt8equal_toIS3_ESt4hashIS3_ENS5_18_Mod_range_hashingENS5_20_Default_ranged_hashENS5_20_Prime_rehash_policyENS5_17_Hashtable_traitsILb1ELb1ELb1EEEE15_M_bucket_indexERKNS5_16_Hash_node_valueIS3_Lb1EEE = comdat any

$_ZNSt8__detail15_Hashtable_baseIN4cvc58internal12NodeTemplateILb1EEES4_NS_9_IdentityESt8equal_toIS4_ESt4hashIS4_ENS_18_Mod_range_hashingENS_20_Default_ranged_hashENS_17_Hashtable_traitsILb1ELb1ELb1EEEE9_S_equalsEmRKNS_21_Hash_node_code_cacheILb1EEE = comdat any

$_ZNKSt8__detail15_Hash_code_baseIN4cvc58internal12NodeTemplateILb1EEES4_NS_9_IdentityESt4hashIS4_ENS_18_Mod_range_hashingENS_20_Default_ranged_hashELb1EE15_M_bucket_indexERKNS_16_Hash_node_valueIS4_Lb1EEEm = comdat any

$_ZNSt8__detail19_Node_iterator_baseIN4cvc58internal12NodeTemplateILb1EEELb1EEC2EPNS_10_Hash_nodeIS4_Lb1EEE = comdat any

$_ZNKSt8__detail10_AllocNodeISaINS_10_Hash_nodeIN4cvc58internal12NodeTemplateILb1EEELb1EEEEEclIJRKS5_EEEPS6_DpOT_ = comdat any

$_ZNSt8__detail16_Hashtable_allocISaINS_10_Hash_nodeIN4cvc58internal12NodeTemplateILb1EEELb1EEEEE16_M_allocate_nodeIJRKS5_EEEPS6_DpOT_ = comdat any

$_ZNSt16allocator_traitsISaINSt8__detail10_Hash_nodeIN4cvc58internal12NodeTemplateILb1EEELb1EEEEE8allocateERS7_m = comdat any

$_ZNSt8__detail16_Hashtable_allocISaINS_10_Hash_nodeIN4cvc58internal12NodeTemplateILb1EEELb1EEEEE17_M_node_allocatorEv = comdat any

$_ZSt12__to_addressINSt8__detail10_Hash_nodeIN4cvc58internal12NodeTemplateILb1EEELb1EEEEPT_S8_ = comdat any

$_ZNSt8__detail10_Hash_nodeIN4cvc58internal12NodeTemplateILb1EEELb1EEC2Ev = comdat any

$_ZNSt16allocator_traitsISaINSt8__detail10_Hash_nodeIN4cvc58internal12NodeTemplateILb1EEELb1EEEEE9constructIS5_JRKS5_EEEvRS7_PT_DpOT0_ = comdat any

$_ZNSt8__detail21_Hash_node_value_baseIN4cvc58internal12NodeTemplateILb1EEEE9_M_valptrEv = comdat any

$_ZNSt16allocator_traitsISaINSt8__detail10_Hash_nodeIN4cvc58internal12NodeTemplateILb1EEELb1EEEEE10deallocateERS7_PS6_m = comdat any

$_ZNSt15__new_allocatorINSt8__detail10_Hash_nodeIN4cvc58internal12NodeTemplateILb1EEELb1EEEE8allocateEmPKv = comdat any

$_ZNKSt15__new_allocatorINSt8__detail10_Hash_nodeIN4cvc58internal12NodeTemplateILb1EEELb1EEEE11_M_max_sizeEv = comdat any

$_ZNSt8__detail21_Hashtable_ebo_helperILi0ESaINS_10_Hash_nodeIN4cvc58internal12NodeTemplateILb1EEELb1EEEELb1EE6_M_getEv = comdat any

$_ZNSt15__new_allocatorINSt8__detail10_Hash_nodeIN4cvc58internal12NodeTemplateILb1EEELb1EEEE9constructIS5_JRKS5_EEEvPT_DpOT0_ = comdat any

$_ZN9__gnu_cxx16__aligned_bufferIN4cvc58internal12NodeTemplateILb1EEEE6_M_ptrEv = comdat any

$_ZN9__gnu_cxx16__aligned_bufferIN4cvc58internal12NodeTemplateILb1EEEE7_M_addrEv = comdat any

$_ZNSt15__new_allocatorINSt8__detail10_Hash_nodeIN4cvc58internal12NodeTemplateILb1EEELb1EEEE10deallocateEPS6_m = comdat any

$_ZNSt10_HashtableIN4cvc58internal12NodeTemplateILb1EEES3_SaIS3_ENSt8__detail9_IdentityESt8equal_toIS3_ESt4hashIS3_ENS5_18_Mod_range_hashingENS5_20_Default_ranged_hashENS5_20_Prime_rehash_policyENS5_17_Hashtable_traitsILb1ELb1ELb1EEEE9_M_rehashEmRKm = comdat any

$_ZNKSt8__detail15_Hash_code_baseIN4cvc58internal12NodeTemplateILb1EEES4_NS_9_IdentityESt4hashIS4_ENS_18_Mod_range_hashingENS_20_Default_ranged_hashELb1EE13_M_store_codeERNS_21_Hash_node_code_cacheILb1EEEm = comdat any

$_ZNSt10_HashtableIN4cvc58internal12NodeTemplateILb1EEES3_SaIS3_ENSt8__detail9_IdentityESt8equal_toIS3_ESt4hashIS3_ENS5_18_Mod_range_hashingENS5_20_Default_ranged_hashENS5_20_Prime_rehash_policyENS5_17_Hashtable_traitsILb1ELb1ELb1EEEE22_M_insert_bucket_beginEmPNS5_10_Hash_nodeIS3_Lb1EEE = comdat any

$_ZNSt10_HashtableIN4cvc58internal12NodeTemplateILb1EEES3_SaIS3_ENSt8__detail9_IdentityESt8equal_toIS3_ESt4hashIS3_ENS5_18_Mod_range_hashingENS5_20_Default_ranged_hashENS5_20_Prime_rehash_policyENS5_17_Hashtable_traitsILb1ELb1ELb1EEEE13_M_rehash_auxEmSt17integral_constantIbLb1EE = comdat any

$_ZNSt10_HashtableIN4cvc58internal12NodeTemplateILb1EEES3_SaIS3_ENSt8__detail9_IdentityESt8equal_toIS3_ESt4hashIS3_ENS5_18_Mod_range_hashingENS5_20_Default_ranged_hashENS5_20_Prime_rehash_policyENS5_17_Hashtable_traitsILb1ELb1ELb1EEEE19_M_allocate_bucketsEm = comdat any

$_ZNSt10_HashtableIN4cvc58internal12NodeTemplateILb1EEES3_SaIS3_ENSt8__detail9_IdentityESt8equal_toIS3_ESt4hashIS3_ENS5_18_Mod_range_hashingENS5_20_Default_ranged_hashENS5_20_Prime_rehash_policyENS5_17_Hashtable_traitsILb1ELb1ELb1EEEE21_M_deallocate_bucketsEv = comdat any

$_ZNSt8__detail16_Hashtable_allocISaINS_10_Hash_nodeIN4cvc58internal12NodeTemplateILb1EEELb1EEEEE19_M_allocate_bucketsEm = comdat any

$_ZNSaIPNSt8__detail15_Hash_node_baseEEC2INS_10_Hash_nodeIN4cvc58internal12NodeTemplateILb1EEELb1EEEEERKSaIT_E = comdat any

$_ZNSt10_HashtableIN4cvc58internal12NodeTemplateILb1EEES3_SaIS3_ENSt8__detail9_IdentityESt8equal_toIS3_ESt4hashIS3_ENS5_18_Mod_range_hashingENS5_20_Default_ranged_hashENS5_20_Prime_rehash_policyENS5_17_Hashtable_traitsILb1ELb1ELb1EEEE21_M_deallocate_bucketsEPPNS5_15_Hash_node_baseEm = comdat any

$_ZNKSt10_HashtableIN4cvc58internal12NodeTemplateILb1EEES3_SaIS3_ENSt8__detail9_IdentityESt8equal_toIS3_ESt4hashIS3_ENS5_18_Mod_range_hashingENS5_20_Default_ranged_hashENS5_20_Prime_rehash_policyENS5_17_Hashtable_traitsILb1ELb1ELb1EEEE21_M_uses_single_bucketEPPNS5_15_Hash_node_baseE = comdat any

$_ZNSt8__detail16_Hashtable_allocISaINS_10_Hash_nodeIN4cvc58internal12NodeTemplateILb1EEELb1EEEEE21_M_deallocate_bucketsEPPNS_15_Hash_node_baseEm = comdat any

$_ZNSt8__detail16_Hashtable_allocISaINS_10_Hash_nodeIN4cvc58internal12NodeTemplateILb1EEELb1EEEEE18_M_deallocate_nodeEPS6_ = comdat any

$_ZNSt16allocator_traitsISaINSt8__detail10_Hash_nodeIN4cvc58internal12NodeTemplateILb1EEELb1EEEEE7destroyIS5_EEvRS7_PT_ = comdat any

$_ZNSt8__detail16_Hashtable_allocISaINS_10_Hash_nodeIN4cvc58internal12NodeTemplateILb1EEELb1EEEEE22_M_deallocate_node_ptrEPS6_ = comdat any

$_ZNSt15__new_allocatorINSt8__detail10_Hash_nodeIN4cvc58internal12NodeTemplateILb1EEELb1EEEE7destroyIS5_EEvPT_ = comdat any

$_ZNSt19__ptr_traits_ptr_toIPNSt8__detail10_Hash_nodeIN4cvc58internal12NodeTemplateILb1EEELb1EEES6_Lb0EE10pointer_toERS6_ = comdat any

$_ZNSt16allocator_traitsISaIN4cvc58internal12NodeTemplateILb1EEEEE9constructIS3_JRKS3_EEEvRS4_PT_DpOT0_ = comdat any

$_ZNSt6vectorIN4cvc58internal12NodeTemplateILb1EEESaIS3_EE17_M_realloc_insertIJRKS3_EEEvN9__gnu_cxx17__normal_iteratorIPS3_S5_EEDpOT_ = comdat any

$_ZNSt6vectorIN4cvc58internal12NodeTemplateILb1EEESaIS3_EE3endEv = comdat any

$_ZNSt15__new_allocatorIN4cvc58internal12NodeTemplateILb1EEEE9constructIS3_JRKS3_EEEvPT_DpOT0_ = comdat any

$_ZNKSt6vectorIN4cvc58internal12NodeTemplateILb1EEESaIS3_EE12_M_check_lenEmPKc = comdat any

$_ZN9__gnu_cxxmiIPN4cvc58internal12NodeTemplateILb1EEESt6vectorIS4_SaIS4_EEEENS_17__normal_iteratorIT_T0_E15difference_typeERKSC_SF_ = comdat any

$_ZNSt6vectorIN4cvc58internal12NodeTemplateILb1EEESaIS3_EE5beginEv = comdat any

$_ZNSt12_Vector_baseIN4cvc58internal12NodeTemplateILb1EEESaIS3_EE11_M_allocateEm = comdat any

$_ZSt34__uninitialized_move_if_noexcept_aIPN4cvc58internal12NodeTemplateILb1EEES4_SaIS3_EET0_T_S7_S6_RT1_ = comdat any

$_ZNK9__gnu_cxx17__normal_iteratorIPN4cvc58internal12NodeTemplateILb1EEESt6vectorIS4_SaIS4_EEE4baseEv = comdat any

$_ZNSt16allocator_traitsISaIN4cvc58internal12NodeTemplateILb1EEEEE7destroyIS3_EEvRS4_PT_ = comdat any

$_ZNKSt6vectorIN4cvc58internal12NodeTemplateILb1EEESaIS3_EE8max_sizeEv = comdat any

$_ZSt3maxImERKT_S2_S2_ = comdat any

$_ZNSt6vectorIN4cvc58internal12NodeTemplateILb1EEESaIS3_EE11_S_max_sizeERKS4_ = comdat any

$_ZNKSt12_Vector_baseIN4cvc58internal12NodeTemplateILb1EEESaIS3_EE19_M_get_Tp_allocatorEv = comdat any

$_ZNSt16allocator_traitsISaIN4cvc58internal12NodeTemplateILb1EEEEE8max_sizeERKS4_ = comdat any

$_ZSt3minImERKT_S2_S2_ = comdat any

$_ZNKSt15__new_allocatorIN4cvc58internal12NodeTemplateILb1EEEE8max_sizeEv = comdat any

$_ZNKSt15__new_allocatorIN4cvc58internal12NodeTemplateILb1EEEE11_M_max_sizeEv = comdat any

$_ZN9__gnu_cxx17__normal_iteratorIPN4cvc58internal12NodeTemplateILb1EEESt6vectorIS4_SaIS4_EEEC2ERKS5_ = comdat any

$_ZNSt16allocator_traitsISaIN4cvc58internal12NodeTemplateILb1EEEEE8allocateERS4_m = comdat any

$_ZNSt15__new_allocatorIN4cvc58internal12NodeTemplateILb1EEEE8allocateEmPKv = comdat any

$_ZSt22__uninitialized_copy_aIPKN4cvc58internal12NodeTemplateILb1EEEPS3_S3_ET0_T_S8_S7_RSaIT1_E = comdat any

$_ZSt32__make_move_if_noexcept_iteratorIN4cvc58internal12NodeTemplateILb1EEEPKS3_ET0_PT_ = comdat any

$_ZSt18uninitialized_copyIPKN4cvc58internal12NodeTemplateILb1EEEPS3_ET0_T_S8_S7_ = comdat any

$_ZNSt20__uninitialized_copyILb0EE13__uninit_copyIPKN4cvc58internal12NodeTemplateILb1EEEPS5_EET0_T_SA_S9_ = comdat any

$_ZSt16__do_uninit_copyIPKN4cvc58internal12NodeTemplateILb1EEEPS3_ET0_T_S8_S7_ = comdat any

$_ZSt10_ConstructIN4cvc58internal12NodeTemplateILb1EEEJRKS3_EEvPT_DpOT0_ = comdat any

$_ZNSt15__new_allocatorIN4cvc58internal12NodeTemplateILb1EEEE7destroyIS3_EEvPT_ = comdat any

$_ZN4cvc58internal11NodeBuilder6appendILb1EEERS1_RKSt6vectorINS0_12NodeTemplateIXT_EEESaIS6_EE = comdat any

$_ZN4cvc58internal11NodeBuilder6appendIN9__gnu_cxx17__normal_iteratorIPKNS0_12NodeTemplateILb1EEESt6vectorIS6_SaIS6_EEEEEERS1_RKT_SG_ = comdat any

$_ZNKSt6vectorIN4cvc58internal12NodeTemplateILb1EEESaIS3_EE5beginEv = comdat any

$_ZNKSt6vectorIN4cvc58internal12NodeTemplateILb1EEESaIS3_EE3endEv = comdat any

$_ZN9__gnu_cxxneIPKN4cvc58internal12NodeTemplateILb1EEESt6vectorIS4_SaIS4_EEEEbRKNS_17__normal_iteratorIT_T0_EESF_ = comdat any

$_ZNK9__gnu_cxx17__normal_iteratorIPKN4cvc58internal12NodeTemplateILb1EEESt6vectorIS4_SaIS4_EEEdeEv = comdat any

$_ZN9__gnu_cxx17__normal_iteratorIPKN4cvc58internal12NodeTemplateILb1EEESt6vectorIS4_SaIS4_EEEppEv = comdat any

$_ZNK9__gnu_cxx17__normal_iteratorIPKN4cvc58internal12NodeTemplateILb1EEESt6vectorIS4_SaIS4_EEE4baseEv = comdat any

$_ZN9__gnu_cxx17__normal_iteratorIPKN4cvc58internal12NodeTemplateILb1EEESt6vectorIS4_SaIS4_EEEC2ERKS6_ = comdat any

$_ZN4cvc58internal11NodeManager12setAttributeINS0_4expr9AttributeINS0_6theory2uf16ArrayToLambdaTagENS0_12NodeTemplateILb1EEEEEEEvNS8_ILb0EEERKT_RKNSC_10value_typeE = comdat any

$_ZN4cvc58internal4expr4attr16AttributeManager12setAttributeINS1_9AttributeINS0_6theory2uf16ArrayToLambdaTagENS0_12NodeTemplateILb1EEEEEEEvPNS1_9NodeValueERKT_RKNSE_10value_typeE = comdat any

$_ZN4cvc58internal4expr9NodeValueC2Ei = comdat any

$_ZNSt6vectorIN4cvc58internal8TypeNodeESaIS2_EE12emplace_backIJS2_EEERS2_DpOT_ = comdat any

$_ZNSt16allocator_traitsISaIN4cvc58internal8TypeNodeEEE9constructIS2_JS2_EEEvRS3_PT_DpOT0_ = comdat any

$_ZNSt6vectorIN4cvc58internal8TypeNodeESaIS2_EE17_M_realloc_insertIJS2_EEEvN9__gnu_cxx17__normal_iteratorIPS2_S4_EEDpOT_ = comdat any

$_ZNSt6vectorIN4cvc58internal8TypeNodeESaIS2_EE3endEv = comdat any

$_ZNSt6vectorIN4cvc58internal8TypeNodeESaIS2_EE4backEv = comdat any

$_ZNSt15__new_allocatorIN4cvc58internal8TypeNodeEE9constructIS2_JS2_EEEvPT_DpOT0_ = comdat any

$_ZNKSt6vectorIN4cvc58internal8TypeNodeESaIS2_EE12_M_check_lenEmPKc = comdat any

$_ZN9__gnu_cxxmiIPN4cvc58internal8TypeNodeESt6vectorIS3_SaIS3_EEEENS_17__normal_iteratorIT_T0_E15difference_typeERKSB_SE_ = comdat any

$_ZNSt6vectorIN4cvc58internal8TypeNodeESaIS2_EE5beginEv = comdat any

$_ZNSt12_Vector_baseIN4cvc58internal8TypeNodeESaIS2_EE11_M_allocateEm = comdat any

$_ZSt34__uninitialized_move_if_noexcept_aIPN4cvc58internal8TypeNodeES3_SaIS2_EET0_T_S6_S5_RT1_ = comdat any

$_ZNK9__gnu_cxx17__normal_iteratorIPN4cvc58internal8TypeNodeESt6vectorIS3_SaIS3_EEE4baseEv = comdat any

$_ZNSt16allocator_traitsISaIN4cvc58internal8TypeNodeEEE7destroyIS2_EEvRS3_PT_ = comdat any

$_ZNKSt6vectorIN4cvc58internal8TypeNodeESaIS2_EE8max_sizeEv = comdat any

$_ZNSt6vectorIN4cvc58internal8TypeNodeESaIS2_EE11_S_max_sizeERKS3_ = comdat any

$_ZNKSt12_Vector_baseIN4cvc58internal8TypeNodeESaIS2_EE19_M_get_Tp_allocatorEv = comdat any

$_ZNSt16allocator_traitsISaIN4cvc58internal8TypeNodeEEE8max_sizeERKS3_ = comdat any

$_ZNKSt15__new_allocatorIN4cvc58internal8TypeNodeEE8max_sizeEv = comdat any

$_ZNKSt15__new_allocatorIN4cvc58internal8TypeNodeEE11_M_max_sizeEv = comdat any

$_ZN9__gnu_cxx17__normal_iteratorIPN4cvc58internal8TypeNodeESt6vectorIS3_SaIS3_EEEC2ERKS4_ = comdat any

$_ZNSt16allocator_traitsISaIN4cvc58internal8TypeNodeEEE8allocateERS3_m = comdat any

$_ZNSt15__new_allocatorIN4cvc58internal8TypeNodeEE8allocateEmPKv = comdat any

$_ZSt22__uninitialized_copy_aIPKN4cvc58internal8TypeNodeEPS2_S2_ET0_T_S7_S6_RSaIT1_E = comdat any

$_ZSt32__make_move_if_noexcept_iteratorIN4cvc58internal8TypeNodeEPKS2_ET0_PT_ = comdat any

$_ZSt18uninitialized_copyIPKN4cvc58internal8TypeNodeEPS2_ET0_T_S7_S6_ = comdat any

$_ZNSt20__uninitialized_copyILb0EE13__uninit_copyIPKN4cvc58internal8TypeNodeEPS4_EET0_T_S9_S8_ = comdat any

$_ZSt16__do_uninit_copyIPKN4cvc58internal8TypeNodeEPS2_ET0_T_S7_S6_ = comdat any

$_ZSt10_ConstructIN4cvc58internal8TypeNodeEJRKS2_EEvPT_DpOT0_ = comdat any

$_ZNSt15__new_allocatorIN4cvc58internal8TypeNodeEE7destroyIS2_EEvPT_ = comdat any

$_ZNK9__gnu_cxx17__normal_iteratorIPN4cvc58internal8TypeNodeESt6vectorIS3_SaIS3_EEEmiEl = comdat any

$_ZNK9__gnu_cxx17__normal_iteratorIPN4cvc58internal8TypeNodeESt6vectorIS3_SaIS3_EEEdeEv = comdat any

$_ZNSt16allocator_traitsISaIN4cvc58internal8TypeNodeEEE9constructIS2_JRKS2_EEEvRS3_PT_DpOT0_ = comdat any

$_ZNSt6vectorIN4cvc58internal8TypeNodeESaIS2_EE17_M_realloc_insertIJRKS2_EEEvN9__gnu_cxx17__normal_iteratorIPS2_S4_EEDpOT_ = comdat any

$_ZNSt15__new_allocatorIN4cvc58internal8TypeNodeEE9constructIS2_JRKS2_EEEvPT_DpOT0_ = comdat any

$_ZNSt10_HashtableIN4cvc58internal12NodeTemplateILb0EEESt4pairIKS3_NS2_ILb1EEEESaIS7_ENSt8__detail10_Select1stESt8equal_toIS3_ESt4hashIS3_ENS9_18_Mod_range_hashingENS9_20_Default_ranged_hashENS9_20_Prime_rehash_policyENS9_17_Hashtable_traitsILb1ELb0ELb1EEEE4findERS5_ = comdat any

$_ZNKSt10_HashtableIN4cvc58internal12NodeTemplateILb0EEESt4pairIKS3_NS2_ILb1EEEESaIS7_ENSt8__detail10_Select1stESt8equal_toIS3_ESt4hashIS3_ENS9_18_Mod_range_hashingENS9_20_Default_ranged_hashENS9_20_Prime_rehash_policyENS9_17_Hashtable_traitsILb1ELb0ELb1EEEE4sizeEv = comdat any

$_ZNSt10_HashtableIN4cvc58internal12NodeTemplateILb0EEESt4pairIKS3_NS2_ILb1EEEESaIS7_ENSt8__detail10_Select1stESt8equal_toIS3_ESt4hashIS3_ENS9_18_Mod_range_hashingENS9_20_Default_ranged_hashENS9_20_Prime_rehash_policyENS9_17_Hashtable_traitsILb1ELb0ELb1EEEE22__small_size_thresholdEv = comdat any

$_ZNSt10_HashtableIN4cvc58internal12NodeTemplateILb0EEESt4pairIKS3_NS2_ILb1EEEESaIS7_ENSt8__detail10_Select1stESt8equal_toIS3_ESt4hashIS3_ENS9_18_Mod_range_hashingENS9_20_Default_ranged_hashENS9_20_Prime_rehash_policyENS9_17_Hashtable_traitsILb1ELb0ELb1EEEE5beginEv = comdat any

$_ZNSt10_HashtableIN4cvc58internal12NodeTemplateILb0EEESt4pairIKS3_NS2_ILb1EEEESaIS7_ENSt8__detail10_Select1stESt8equal_toIS3_ESt4hashIS3_ENS9_18_Mod_range_hashingENS9_20_Default_ranged_hashENS9_20_Prime_rehash_policyENS9_17_Hashtable_traitsILb1ELb0ELb1EEEE3endEv = comdat any

$_ZNKSt8__detail15_Hashtable_baseIN4cvc58internal12NodeTemplateILb0EEESt4pairIKS4_NS3_ILb1EEEENS_10_Select1stESt8equal_toIS4_ESt4hashIS4_ENS_18_Mod_range_hashingENS_20_Default_ranged_hashENS_17_Hashtable_traitsILb1ELb0ELb1EEEE13_M_key_equalsERS6_RKNS_16_Hash_node_valueIS8_Lb1EEE = comdat any

$_ZNSt8__detail14_Node_iteratorISt4pairIKN4cvc58internal12NodeTemplateILb0EEENS4_ILb1EEEELb0ELb1EEppEv = comdat any

$_ZNKSt8__detail15_Hash_code_baseIN4cvc58internal12NodeTemplateILb0EEESt4pairIKS4_NS3_ILb1EEEENS_10_Select1stESt4hashIS4_ENS_18_Mod_range_hashingENS_20_Default_ranged_hashELb1EE12_M_hash_codeERS6_ = comdat any

$_ZNKSt10_HashtableIN4cvc58internal12NodeTemplateILb0EEESt4pairIKS3_NS2_ILb1EEEESaIS7_ENSt8__detail10_Select1stESt8equal_toIS3_ESt4hashIS3_ENS9_18_Mod_range_hashingENS9_20_Default_ranged_hashENS9_20_Prime_rehash_policyENS9_17_Hashtable_traitsILb1ELb0ELb1EEEE15_M_bucket_indexEm = comdat any

$_ZNKSt10_HashtableIN4cvc58internal12NodeTemplateILb0EEESt4pairIKS3_NS2_ILb1EEEESaIS7_ENSt8__detail10_Select1stESt8equal_toIS3_ESt4hashIS3_ENS9_18_Mod_range_hashingENS9_20_Default_ranged_hashENS9_20_Prime_rehash_policyENS9_17_Hashtable_traitsILb1ELb0ELb1EEEE12_M_find_nodeEmRS5_m = comdat any

$_ZNSt8__detail14_Node_iteratorISt4pairIKN4cvc58internal12NodeTemplateILb0EEENS4_ILb1EEEELb0ELb1EEC2EPNS_10_Hash_nodeIS8_Lb1EEE = comdat any

$_ZNSt8__detail22_Hashtable_hash_traitsISt4hashIN4cvc58internal12NodeTemplateILb0EEEEE22__small_size_thresholdEv = comdat any

$_ZNKSt8__detail15_Hashtable_baseIN4cvc58internal12NodeTemplateILb0EEESt4pairIKS4_NS3_ILb1EEEENS_10_Select1stESt8equal_toIS4_ESt4hashIS4_ENS_18_Mod_range_hashingENS_20_Default_ranged_hashENS_17_Hashtable_traitsILb1ELb0ELb1EEEE5_M_eqEv = comdat any

$_ZNKSt8equal_toIN4cvc58internal12NodeTemplateILb0EEEEclERKS3_S6_ = comdat any

$_ZNKSt8__detail10_Select1stclIRKSt4pairIKN4cvc58internal12NodeTemplateILb0EEENS5_ILb1EEEEEEONS0_10__1st_typeIT_E4typeEOSD_ = comdat any

$_ZNKSt8__detail21_Hash_node_value_baseISt4pairIKN4cvc58internal12NodeTemplateILb0EEENS4_ILb1EEEEE4_M_vEv = comdat any

$_ZNKSt8__detail21_Hashtable_ebo_helperILi0ESt8equal_toIN4cvc58internal12NodeTemplateILb0EEEELb1EE7_M_cgetEv = comdat any

$_ZNK4cvc58internal12NodeTemplateILb0EEeqILb0EEEbRKNS1_IXT_EEE = comdat any

$_ZNKSt8__detail21_Hash_node_value_baseISt4pairIKN4cvc58internal12NodeTemplateILb0EEENS4_ILb1EEEEE9_M_valptrEv = comdat any

$_ZNK9__gnu_cxx16__aligned_bufferISt4pairIKN4cvc58internal12NodeTemplateILb0EEENS4_ILb1EEEEE6_M_ptrEv = comdat any

$_ZNK9__gnu_cxx16__aligned_bufferISt4pairIKN4cvc58internal12NodeTemplateILb0EEENS4_ILb1EEEEE7_M_addrEv = comdat any

$_ZNSt8__detail19_Node_iterator_baseISt4pairIKN4cvc58internal12NodeTemplateILb0EEENS4_ILb1EEEELb1EE7_M_incrEv = comdat any

$_ZNKSt8__detail15_Hash_code_baseIN4cvc58internal12NodeTemplateILb0EEESt4pairIKS4_NS3_ILb1EEEENS_10_Select1stESt4hashIS4_ENS_18_Mod_range_hashingENS_20_Default_ranged_hashELb1EE7_M_hashEv = comdat any

$_ZNKSt8__detail21_Hashtable_ebo_helperILi1ESt4hashIN4cvc58internal12NodeTemplateILb0EEEELb1EE7_M_cgetEv = comdat any

$_ZNKSt8__detail15_Hash_code_baseIN4cvc58internal12NodeTemplateILb0EEESt4pairIKS4_NS3_ILb1EEEENS_10_Select1stESt4hashIS4_ENS_18_Mod_range_hashingENS_20_Default_ranged_hashELb1EE15_M_bucket_indexEmm = comdat any

$_ZNKSt10_HashtableIN4cvc58internal12NodeTemplateILb0EEESt4pairIKS3_NS2_ILb1EEEESaIS7_ENSt8__detail10_Select1stESt8equal_toIS3_ESt4hashIS3_ENS9_18_Mod_range_hashingENS9_20_Default_ranged_hashENS9_20_Prime_rehash_policyENS9_17_Hashtable_traitsILb1ELb0ELb1EEEE19_M_find_before_nodeEmRS5_m = comdat any

$_ZNKSt8__detail15_Hashtable_baseIN4cvc58internal12NodeTemplateILb0EEESt4pairIKS4_NS3_ILb1EEEENS_10_Select1stESt8equal_toIS4_ESt4hashIS4_ENS_18_Mod_range_hashingENS_20_Default_ranged_hashENS_17_Hashtable_traitsILb1ELb0ELb1EEEE9_M_equalsERS6_mRKNS_16_Hash_node_valueIS8_Lb1EEE = comdat any

$_ZNKSt10_HashtableIN4cvc58internal12NodeTemplateILb0EEESt4pairIKS3_NS2_ILb1EEEESaIS7_ENSt8__detail10_Select1stESt8equal_toIS3_ESt4hashIS3_ENS9_18_Mod_range_hashingENS9_20_Default_ranged_hashENS9_20_Prime_rehash_policyENS9_17_Hashtable_traitsILb1ELb0ELb1EEEE15_M_bucket_indexERKNS9_16_Hash_node_valueIS7_Lb1EEE = comdat any

$_ZNSt8__detail15_Hashtable_baseIN4cvc58internal12NodeTemplateILb0EEESt4pairIKS4_NS3_ILb1EEEENS_10_Select1stESt8equal_toIS4_ESt4hashIS4_ENS_18_Mod_range_hashingENS_20_Default_ranged_hashENS_17_Hashtable_traitsILb1ELb0ELb1EEEE9_S_equalsEmRKNS_21_Hash_node_code_cacheILb1EEE = comdat any

$_ZNKSt8__detail15_Hash_code_baseIN4cvc58internal12NodeTemplateILb0EEESt4pairIKS4_NS3_ILb1EEEENS_10_Select1stESt4hashIS4_ENS_18_Mod_range_hashingENS_20_Default_ranged_hashELb1EE15_M_bucket_indexERKNS_16_Hash_node_valueIS8_Lb1EEEm = comdat any

$_ZNSt8__detail19_Node_iterator_baseISt4pairIKN4cvc58internal12NodeTemplateILb0EEENS4_ILb1EEEELb1EEC2EPNS_10_Hash_nodeIS8_Lb1EEE = comdat any

$_ZN4cvc58internal12NodeTemplateILb0EEC2EPKNS0_4expr9NodeValueE = comdat any

$_ZNSt8__detail9_Map_baseIN4cvc58internal12NodeTemplateILb0EEESt4pairIKS4_NS3_ILb1EEEESaIS8_ENS_10_Select1stESt8equal_toIS4_ESt4hashIS4_ENS_18_Mod_range_hashingENS_20_Default_ranged_hashENS_20_Prime_rehash_policyENS_17_Hashtable_traitsILb1ELb0ELb1EEELb1EEixERS6_ = comdat any

$_ZNSt8__detail21_Hash_node_value_baseISt4pairIKN4cvc58internal12NodeTemplateILb0EEENS4_ILb1EEEEE4_M_vEv = comdat any

$_ZNSt5tupleIJRKN4cvc58internal12NodeTemplateILb0EEEEEC2ILb1ETnNSt9enable_ifIXclsr4_TCCIXT_EEE29__is_implicitly_constructibleIS5_EEEbE4typeELb1EEES5_ = comdat any

$_ZNSt10_HashtableIN4cvc58internal12NodeTemplateILb0EEESt4pairIKS3_NS2_ILb1EEEESaIS7_ENSt8__detail10_Select1stESt8equal_toIS3_ESt4hashIS3_ENS9_18_Mod_range_hashingENS9_20_Default_ranged_hashENS9_20_Prime_rehash_policyENS9_17_Hashtable_traitsILb1ELb0ELb1EEEE12_Scoped_nodeC2IJRKSt21piecewise_construct_tSt5tupleIJRS5_EESQ_IJEEEEEPNS9_16_Hashtable_allocISaINS9_10_Hash_nodeIS7_Lb1EEEEEEDpOT_ = comdat any

$_ZNSt10_HashtableIN4cvc58internal12NodeTemplateILb0EEESt4pairIKS3_NS2_ILb1EEEESaIS7_ENSt8__detail10_Select1stESt8equal_toIS3_ESt4hashIS3_ENS9_18_Mod_range_hashingENS9_20_Default_ranged_hashENS9_20_Prime_rehash_policyENS9_17_Hashtable_traitsILb1ELb0ELb1EEEE21_M_insert_unique_nodeEmmPNS9_10_Hash_nodeIS7_Lb1EEEm = comdat any

$_ZNSt10_HashtableIN4cvc58internal12NodeTemplateILb0EEESt4pairIKS3_NS2_ILb1EEEESaIS7_ENSt8__detail10_Select1stESt8equal_toIS3_ESt4hashIS3_ENS9_18_Mod_range_hashingENS9_20_Default_ranged_hashENS9_20_Prime_rehash_policyENS9_17_Hashtable_traitsILb1ELb0ELb1EEEE12_Scoped_nodeD2Ev = comdat any

$_ZNSt11_Tuple_implILm0EJRKN4cvc58internal12NodeTemplateILb0EEEEEC2ES5_ = comdat any

$_ZNSt10_Head_baseILm0ERKN4cvc58internal12NodeTemplateILb0EEELb0EEC2ES5_ = comdat any

$_ZNSt8__detail16_Hashtable_allocISaINS_10_Hash_nodeISt4pairIKN4cvc58internal12NodeTemplateILb0EEENS5_ILb1EEEELb1EEEEE16_M_allocate_nodeIJRKSt21piecewise_construct_tSt5tupleIJRS7_EESH_IJEEEEEPSA_DpOT_ = comdat any

$_ZNSt16allocator_traitsISaINSt8__detail10_Hash_nodeISt4pairIKN4cvc58internal12NodeTemplateILb0EEENS5_ILb1EEEELb1EEEEE8allocateERSB_m = comdat any

$_ZSt12__to_addressINSt8__detail10_Hash_nodeISt4pairIKN4cvc58internal12NodeTemplateILb0EEENS5_ILb1EEEELb1EEEEPT_SC_ = comdat any

$_ZNSt8__detail10_Hash_nodeISt4pairIKN4cvc58internal12NodeTemplateILb0EEENS4_ILb1EEEELb1EEC2Ev = comdat any

$_ZNSt16allocator_traitsISaINSt8__detail10_Hash_nodeISt4pairIKN4cvc58internal12NodeTemplateILb0EEENS5_ILb1EEEELb1EEEEE9constructIS9_JRKSt21piecewise_construct_tSt5tupleIJRS7_EESH_IJEEEEEvRSB_PT_DpOT0_ = comdat any

$_ZNSt15__new_allocatorINSt8__detail10_Hash_nodeISt4pairIKN4cvc58internal12NodeTemplateILb0EEENS5_ILb1EEEELb1EEEE8allocateEmPKv = comdat any

$_ZNKSt15__new_allocatorINSt8__detail10_Hash_nodeISt4pairIKN4cvc58internal12NodeTemplateILb0EEENS5_ILb1EEEELb1EEEE11_M_max_sizeEv = comdat any

$_ZNSt15__new_allocatorINSt8__detail10_Hash_nodeISt4pairIKN4cvc58internal12NodeTemplateILb0EEENS5_ILb1EEEELb1EEEE9constructIS9_JRKSt21piecewise_construct_tSt5tupleIJRS7_EESG_IJEEEEEvPT_DpOT0_ = comdat any

$_ZNSt5tupleIJRKN4cvc58internal12NodeTemplateILb0EEEEEC2EOS6_ = comdat any

$_ZNSt4pairIKN4cvc58internal12NodeTemplateILb0EEENS2_ILb1EEEEC2IJRS4_EJEEESt21piecewise_construct_tSt5tupleIJDpT_EESA_IJDpT0_EE = comdat any

$_ZNSt11_Tuple_implILm0EJRKN4cvc58internal12NodeTemplateILb0EEEEEC2EOS6_ = comdat any

$_ZNSt4pairIKN4cvc58internal12NodeTemplateILb0EEENS2_ILb1EEEEC2IJRS4_EJLm0EEJETpTnmJEEERSt5tupleIJDpT_EERS9_IJDpT1_EESt12_Index_tupleIJXspT0_EEESI_IJXspT2_EEE = comdat any

$_ZSt3getILm0EJRKN4cvc58internal12NodeTemplateILb0EEEEERNSt13tuple_elementIXT_ESt5tupleIJDpT0_EEE4typeERSA_ = comdat any

$_ZSt12__get_helperILm0ERKN4cvc58internal12NodeTemplateILb0EEEJEERT0_RSt11_Tuple_implIXT_EJS6_DpT1_EE = comdat any

$_ZNSt11_Tuple_implILm0EJRKN4cvc58internal12NodeTemplateILb0EEEEE7_M_headERS6_ = comdat any

$_ZNSt10_Head_baseILm0ERKN4cvc58internal12NodeTemplateILb0EEELb0EE7_M_headERS6_ = comdat any

$_ZNSt10_HashtableIN4cvc58internal12NodeTemplateILb0EEESt4pairIKS3_NS2_ILb1EEEESaIS7_ENSt8__detail10_Select1stESt8equal_toIS3_ESt4hashIS3_ENS9_18_Mod_range_hashingENS9_20_Default_ranged_hashENS9_20_Prime_rehash_policyENS9_17_Hashtable_traitsILb1ELb0ELb1EEEE9_M_rehashEmRKm = comdat any

$_ZNKSt8__detail15_Hash_code_baseIN4cvc58internal12NodeTemplateILb0EEESt4pairIKS4_NS3_ILb1EEEENS_10_Select1stESt4hashIS4_ENS_18_Mod_range_hashingENS_20_Default_ranged_hashELb1EE13_M_store_codeERNS_21_Hash_node_code_cacheILb1EEEm = comdat any

$_ZNSt10_HashtableIN4cvc58internal12NodeTemplateILb0EEESt4pairIKS3_NS2_ILb1EEEESaIS7_ENSt8__detail10_Select1stESt8equal_toIS3_ESt4hashIS3_ENS9_18_Mod_range_hashingENS9_20_Default_ranged_hashENS9_20_Prime_rehash_policyENS9_17_Hashtable_traitsILb1ELb0ELb1EEEE22_M_insert_bucket_beginEmPNS9_10_Hash_nodeIS7_Lb1EEE = comdat any

$_ZNSt10_HashtableIN4cvc58internal12NodeTemplateILb0EEESt4pairIKS3_NS2_ILb1EEEESaIS7_ENSt8__detail10_Select1stESt8equal_toIS3_ESt4hashIS3_ENS9_18_Mod_range_hashingENS9_20_Default_ranged_hashENS9_20_Prime_rehash_policyENS9_17_Hashtable_traitsILb1ELb0ELb1EEEE13_M_rehash_auxEmSt17integral_constantIbLb1EE = comdat any

$_ZNSt10_HashtableIN4cvc58internal12NodeTemplateILb0EEESt4pairIKS3_NS2_ILb1EEEESaIS7_ENSt8__detail10_Select1stESt8equal_toIS3_ESt4hashIS3_ENS9_18_Mod_range_hashingENS9_20_Default_ranged_hashENS9_20_Prime_rehash_policyENS9_17_Hashtable_traitsILb1ELb0ELb1EEEE19_M_allocate_bucketsEm = comdat any

$_ZNSt8__detail16_Hashtable_allocISaINS_10_Hash_nodeISt4pairIKN4cvc58internal12NodeTemplateILb0EEENS5_ILb1EEEELb1EEEEE19_M_allocate_bucketsEm = comdat any

$_ZN4cvc58internallsERSoNS0_12NodeTemplateILb0EEE = comdat any

$_ZNK4cvc58internal12NodeTemplateILb0EE8toStreamERSo = comdat any

$_ZNSt6vectorIN4cvc58internal12NodeTemplateILb1EEESaIS3_EE12emplace_backIJS3_EEERS3_DpOT_ = comdat any

$_ZNSt16allocator_traitsISaIN4cvc58internal12NodeTemplateILb1EEEEE9constructIS3_JS3_EEEvRS4_PT_DpOT0_ = comdat any

$_ZNSt6vectorIN4cvc58internal12NodeTemplateILb1EEESaIS3_EE17_M_realloc_insertIJS3_EEEvN9__gnu_cxx17__normal_iteratorIPS3_S5_EEDpOT_ = comdat any

$_ZNSt6vectorIN4cvc58internal12NodeTemplateILb1EEESaIS3_EE4backEv = comdat any

$_ZNSt15__new_allocatorIN4cvc58internal12NodeTemplateILb1EEEE9constructIS3_JS3_EEEvPT_DpOT0_ = comdat any

$_ZNK9__gnu_cxx17__normal_iteratorIPN4cvc58internal12NodeTemplateILb1EEESt6vectorIS4_SaIS4_EEEmiEl = comdat any

$_ZNK9__gnu_cxx17__normal_iteratorIPN4cvc58internal12NodeTemplateILb1EEESt6vectorIS4_SaIS4_EEEdeEv = comdat any

$_ZNK4cvc58internal4expr9NodeValue5beginINS0_12NodeTemplateILb1EEEEENS2_8iteratorIT_EEv = comdat any

$_ZN4cvc58internal4expr9NodeValue8iteratorINS0_12NodeTemplateILb1EEEEC2EPKPKS2_ = comdat any

$_ZNK4cvc58internal4expr9NodeValue3endINS0_12NodeTemplateILb1EEEEENS2_8iteratorIT_EEv = comdat any

$_ZNSt12_Vector_baseIN4cvc58internal12NodeTemplateILb1EEESaIS3_EEC2ERKS4_ = comdat any

$_ZNSt6vectorIN4cvc58internal12NodeTemplateILb1EEESaIS3_EE19_M_range_initializeINS1_4expr9NodeValue8iteratorIS3_EEEEvT_SB_St20forward_iterator_tag = comdat any

$_ZSt19__iterator_categoryIN4cvc58internal4expr9NodeValue8iteratorINS1_12NodeTemplateILb1EEEEEENSt15iterator_traitsIT_E17iterator_categoryERKS9_ = comdat any

$_ZNSt12_Vector_baseIN4cvc58internal12NodeTemplateILb1EEESaIS3_EE12_Vector_implC2ERKS4_ = comdat any

$_ZNSt15__new_allocatorIN4cvc58internal12NodeTemplateILb1EEEEC2ERKS4_ = comdat any

$_ZSt8distanceIN4cvc58internal4expr9NodeValue8iteratorINS1_12NodeTemplateILb1EEEEEENSt15iterator_traitsIT_E15difference_typeES9_S9_ = comdat any

$_ZNSt6vectorIN4cvc58internal12NodeTemplateILb1EEESaIS3_EE17_S_check_init_lenEmRKS4_ = comdat any

$_ZSt22__uninitialized_copy_aIN4cvc58internal4expr9NodeValue8iteratorINS1_12NodeTemplateILb1EEEEEPS6_S6_ET0_T_SA_S9_RSaIT1_E = comdat any

$_ZSt10__distanceIN4cvc58internal4expr9NodeValue8iteratorINS1_12NodeTemplateILb1EEEEEENSt15iterator_traitsIT_E15difference_typeES9_S9_St26random_access_iterator_tag = comdat any

$_ZN4cvc58internal4expr9NodeValue8iteratorINS0_12NodeTemplateILb1EEEEmiES6_ = comdat any

$_ZNSaIN4cvc58internal12NodeTemplateILb1EEEEC2ERKS3_ = comdat any

$_ZSt18uninitialized_copyIN4cvc58internal4expr9NodeValue8iteratorINS1_12NodeTemplateILb1EEEEEPS6_ET0_T_SA_S9_ = comdat any

$_ZNSt20__uninitialized_copyILb0EE13__uninit_copyIN4cvc58internal4expr9NodeValue8iteratorINS3_12NodeTemplateILb1EEEEEPS8_EET0_T_SC_SB_ = comdat any

$_ZSt16__do_uninit_copyIN4cvc58internal4expr9NodeValue8iteratorINS1_12NodeTemplateILb1EEEEEPS6_ET0_T_SA_S9_ = comdat any

$_ZNK4cvc58internal4expr9NodeValue8iteratorINS0_12NodeTemplateILb1EEEEneERKS6_ = comdat any

$_ZSt10_ConstructIN4cvc58internal12NodeTemplateILb1EEEJS3_EEvPT_DpOT0_ = comdat any

$_ZNK4cvc58internal4expr9NodeValue8iteratorINS0_12NodeTemplateILb1EEEEdeEv = comdat any

$_ZN4cvc58internal4expr9NodeValue8iteratorINS0_12NodeTemplateILb1EEEEppEv = comdat any

$_ZNK4cvc58internal8TypeNode6isNullEv = comdat any

$_ZN4cvc58internallsILb1EEERSoS2_RKSt6vectorINS0_12NodeTemplateIXT_EEESaIS5_EE = comdat any

$_ZN4cvc58internal19container_to_streamISt6vectorINS0_12NodeTemplateILb1EEESaIS4_EEEEvRSoRKT_PKcSC_SC_ = comdat any

$_ZZN4cvc58internal4expr4attr15LastAttributeIdINS0_12NodeTemplateILb1EEEE6raw_idEvE4s_id = comdat any

$_ZSt19piecewise_construct = comdat any

$_ZZN4cvc58internal4expr9NodeValue4nullEvE6s_null = comdat any

$_ZGVZN4cvc58internal4expr9NodeValue4nullEvE6s_null = comdat any

@_ZStL8__ioinit = internal global %"class.std::ios_base::Init" zeroinitializer, align 1
@__dso_handle = external hidden global i8
@_ZN4cvc58internal10nullStreamE = external global %"class.cvc5::internal::NullC", align 1
@_ZN4cvc58internal12TraceChannelE = external global %"class.cvc5::internal::TraceC", align 8
@.str = private unnamed_addr constant [18 x i8] c"Get lambda for : \00", align 1
@.str.1 = private unnamed_addr constant [18 x i8] c", with variables \00", align 1
@.str.2 = private unnamed_addr constant [20 x i8] c"...got lambda body \00", align 1
@.str.3 = private unnamed_addr constant [29 x i8] c"...failed to get lambda body\00", align 1
@.str.4 = private unnamed_addr constant [32 x i8] c"Get array representation for : \00", align 1
@.str.5 = private unnamed_addr constant [18 x i8] c"  process body...\00", align 1
@.str.6 = private unnamed_addr constant [23 x i8] c"  process condition : \00", align 1
@.str.7 = private unnamed_addr constant [18 x i8] c"  process base : \00", align 1
@.str.8 = private unnamed_addr constant [23 x i8] c"...non-const curr_val \00", align 1
@.str.9 = private unnamed_addr constant [2 x i8] c"\0A\00", align 1
@.str.10 = private unnamed_addr constant [14 x i8] c"  index_eq : \00", align 1
@.str.11 = private unnamed_addr constant [14 x i8] c"  curr_val : \00", align 1
@.str.12 = private unnamed_addr constant [10 x i8] c"  next : \00", align 1
@.str.13 = private unnamed_addr constant [27 x i8] c"  ...non-Boolean variable.\00", align 1
@.str.14 = private unnamed_addr constant [29 x i8] c"  ...non-equality condition.\00", align 1
@.str.15 = private unnamed_addr constant [7 x i8] c"  arg \00", align 1
@.str.16 = private unnamed_addr constant [5 x i8] c" -> \00", align 1
@.str.17 = private unnamed_addr constant [34 x i8] c"  ...could not infer index value.\00", align 1
@.str.18 = private unnamed_addr constant [39 x i8] c"  ...failed to recursively find value.\00", align 1
@.str.19 = private unnamed_addr constant [25 x i8] c"  ...condition is index \00", align 1
@.str.20 = private unnamed_addr constant [36 x i8] c"  ...non-constant value for entry\0A.\00", align 1
@.str.21 = private unnamed_addr constant [23 x i8] c"  process remainder : \00", align 1
@.str.22 = private unnamed_addr constant [24 x i8] c"  make array store all \00", align 1
@.str.23 = private unnamed_addr constant [14 x i8] c" annotated : \00", align 1
@.str.24 = private unnamed_addr constant [7 x i8] c" from \00", align 1
@.str.25 = private unnamed_addr constant [17 x i8] c"  build array...\00", align 1
@.str.26 = private unnamed_addr constant [21 x i8] c"  got constant base \00", align 1
@.str.27 = private unnamed_addr constant [14 x i8] c"  conditions \00", align 1
@.str.28 = private unnamed_addr constant [10 x i8] c"  values \00", align 1
@.str.29 = private unnamed_addr constant [14 x i8] c"...got array \00", align 1
@.str.30 = private unnamed_addr constant [6 x i8] c" for \00", align 1
@.str.31 = private unnamed_addr constant [59 x i8] c"...failed to get array (cannot get constant default value)\00", align 1
@_ZN4cvc58internal4expr9AttributeINS0_6theory2uf16ArrayToLambdaTagENS0_12NodeTemplateILb1EEEE4s_idE = linkonce_odr hidden global i64 0, comdat, align 8
@_ZGVN4cvc58internal4expr9AttributeINS0_6theory2uf16ArrayToLambdaTagENS0_12NodeTemplateILb1EEEE4s_idE = linkonce_odr hidden global i64 0, comdat($_ZN4cvc58internal4expr9AttributeINS0_6theory2uf16ArrayToLambdaTagENS0_12NodeTemplateILb1EEEE4s_idE), align 8
@_ZN4cvc58internal4expr9AttributeINS0_6theory2uf23FunctionBoundVarListTagENS0_12NodeTemplateILb1EEEE4s_idE = linkonce_odr hidden global i64 0, comdat, align 8
@_ZGVN4cvc58internal4expr9AttributeINS0_6theory2uf23FunctionBoundVarListTagENS0_12NodeTemplateILb1EEEE4s_idE = linkonce_odr hidden global i64 0, comdat($_ZN4cvc58internal4expr9AttributeINS0_6theory2uf23FunctionBoundVarListTagENS0_12NodeTemplateILb1EEEE4s_idE), align 8
@_ZN4cvc58internal12NodeTemplateILb1EE6s_nullE = linkonce_odr hidden global %"class.cvc5::internal::NodeTemplate" zeroinitializer, comdat, align 8
@_ZGVN4cvc58internal12NodeTemplateILb1EE6s_nullE = linkonce_odr hidden global i64 0, comdat($_ZN4cvc58internal12NodeTemplateILb1EE6s_nullE), align 8
@.str.35 = private unnamed_addr constant [19 x i8] c"making array type \00", align 1
@.str.36 = private unnamed_addr constant [2 x i8] c" \00", align 1
@_ZN4cvc58internal11Cvc5ostream16s_indentIosIndexE = external constant i32, align 4
@_ZN4cvc58internal11Cvc5ostream5s_tabB5cxx11E = external global %"class.std::__cxx11::basic_string", align 8
@_ZZN4cvc58internal4expr4attr15LastAttributeIdINS0_12NodeTemplateILb1EEEE6raw_idEvE4s_id = linkonce_odr hidden global i64 0, comdat, align 8
@_ZSt19piecewise_construct = linkonce_odr constant %"struct.std::piecewise_construct_t" zeroinitializer, comdat, align 1
@.str.37 = private unnamed_addr constant [26 x i8] c"vector::_M_realloc_insert\00", align 1
@_ZZN4cvc58internal4expr9NodeValue4nullEvE6s_null = linkonce_odr global ptr null, comdat, align 8
@_ZGVZN4cvc58internal4expr9NodeValue4nullEvE6s_null = linkonce_odr global i64 0, comdat, align 8
@.str.38 = private unnamed_addr constant [49 x i8] c"cannot create std::vector larger than max_size()\00", align 1
@_ZTIN4cvc58internal28TypeCheckingExceptionPrivateE = external constant ptr
@.str.39 = private unnamed_addr constant [2 x i8] c"[\00", align 1
@.str.40 = private unnamed_addr constant [2 x i8] c"]\00", align 1
@.str.41 = private unnamed_addr constant [3 x i8] c", \00", align 1
@.str.42 = private unnamed_addr constant [1 x i8] zeroinitializer, align 1
@llvm.global_ctors = appending global [4 x { i32, ptr, ptr }] [{ i32, ptr, ptr } { i32 65535, ptr @__cxx_global_var_init.32, ptr @_ZN4cvc58internal4expr9AttributeINS0_6theory2uf16ArrayToLambdaTagENS0_12NodeTemplateILb1EEEE4s_idE }, { i32, ptr, ptr } { i32 65535, ptr @__cxx_global_var_init.33, ptr @_ZN4cvc58internal4expr9AttributeINS0_6theory2uf23FunctionBoundVarListTagENS0_12NodeTemplateILb1EEEE4s_idE }, { i32, ptr, ptr } { i32 65535, ptr @__cxx_global_var_init.34, ptr @_ZN4cvc58internal12NodeTemplateILb1EE6s_nullE }, { i32, ptr, ptr } { i32 65535, ptr @_GLOBAL__sub_I_function_const.cpp, ptr null }]
@llvm.used = appending global [3 x ptr] [ptr @_ZN4cvc58internal4expr9AttributeINS0_6theory2uf16ArrayToLambdaTagENS0_12NodeTemplateILb1EEEE4s_idE, ptr @_ZN4cvc58internal4expr9AttributeINS0_6theory2uf23FunctionBoundVarListTagENS0_12NodeTemplateILb1EEEE4s_idE, ptr @_ZN4cvc58internal12NodeTemplateILb1EE6s_nullE], section "llvm.metadata"

; Function Attrs: uwtable
define internal void @__cxx_global_var_init() #0 section ".text.startup" {
entry:
  call void @_ZNSt8ios_base4InitC1Ev(ptr noundef nonnull align 1 dereferenceable(1) @_ZStL8__ioinit)
  %0 = call i32 @__cxa_atexit(ptr @_ZNSt8ios_base4InitD1Ev, ptr @_ZStL8__ioinit, ptr @__dso_handle) #3
  ret void
}

declare void @_ZNSt8ios_base4InitC1Ev(ptr noundef nonnull align 1 dereferenceable(1)) unnamed_addr #1

; Function Attrs: nounwind
declare void @_ZNSt8ios_base4InitD1Ev(ptr noundef nonnull align 1 dereferenceable(1)) unnamed_addr #2

; Function Attrs: nounwind
declare i32 @__cxa_atexit(ptr, ptr, ptr) #3

; Function Attrs: mustprogress uwtable
define hidden void @_ZN4cvc58internal6theory2uf13FunctionConst8toLambdaENS0_12NodeTemplateILb0EEE(ptr noalias sret(%"class.cvc5::internal::NodeTemplate") align 8 %agg.result, ptr noundef %n) #4 align 2 personality ptr @__gxx_personality_v0 {
entry:
  %result.ptr = alloca ptr, align 8
  %n.indirect_addr = alloca ptr, align 8
  %nk = alloca i32, align 4
  %atla = alloca %"class.cvc5::internal::expr::Attribute", align 1
  %fc = alloca ptr, align 8
  %avalue = alloca %"class.cvc5::internal::NodeTemplate", align 8
  %tn = alloca %"class.cvc5::internal::TypeNode", align 8
  %exn.slot = alloca ptr, align 8
  %ehselector.slot = alloca i32, align 4
  %argTypes = alloca %"class.std::vector", align 8
  %bvs = alloca %"class.std::vector.11", align 8
  %nm = alloca ptr, align 8
  %bvm = alloca ptr, align 8
  %i = alloca i64, align 8
  %nargs = alloca i64, align 8
  %cacheVal = alloca %"class.cvc5::internal::NodeTemplate", align 8
  %agg.tmp = alloca %"class.cvc5::internal::NodeTemplate.0", align 8
  %agg.tmp19 = alloca %"class.cvc5::internal::NodeTemplate.0", align 8
  %ref.tmp = alloca %"class.cvc5::internal::NodeTemplate", align 8
  %ref.tmp20 = alloca %"class.cvc5::internal::Rational", align 8
  %v = alloca %"class.cvc5::internal::NodeTemplate", align 8
  %agg.tmp31 = alloca %"class.cvc5::internal::NodeTemplate", align 8
  %agg.tmp34 = alloca %"class.cvc5::internal::TypeNode", align 8
  %bvl = alloca %"class.cvc5::internal::NodeTemplate", align 8
  %nrvo = alloca i1, align 1
  %agg.tmp47 = alloca %"class.cvc5::internal::NodeTemplate.0", align 8
  %agg.tmp50 = alloca %"class.cvc5::internal::NodeTemplate.0", align 8
  store ptr %agg.result, ptr %result.ptr, align 8
  store ptr %n, ptr %n.indirect_addr, align 8
  %call = call noundef i32 @_ZNK4cvc58internal12NodeTemplateILb0EE7getKindEv(ptr noundef nonnull align 8 dereferenceable(8) %n)
  store i32 %call, ptr %nk, align 4
  %0 = load i32, ptr %nk, align 4
  %cmp = icmp eq i32 %0, 26
  br i1 %cmp, label %if.then, label %if.else

if.then:                                          ; preds = %entry
  call void @_ZN4cvc58internal12NodeTemplateILb1EEC2ERKNS1_ILb0EEE(ptr noundef nonnull align 8 dereferenceable(8) %agg.result, ptr noundef nonnull align 8 dereferenceable(8) %n)
  br label %return

if.else:                                          ; preds = %entry
  %1 = load i32, ptr %nk, align 4
  %cmp1 = icmp eq i32 %1, 32
  br i1 %cmp1, label %if.then2, label %if.end65

if.then2:                                         ; preds = %if.else
  %call3 = call noundef zeroext i1 @_ZNK4cvc58internal12NodeTemplateILb0EE12hasAttributeINS0_4expr9AttributeINS0_6theory2uf16ArrayToLambdaTagENS1_ILb1EEEEEEEbRKT_(ptr noundef nonnull align 8 dereferenceable(8) %n, ptr noundef nonnull align 1 dereferenceable(1) %atla)
  br i1 %call3, label %if.then4, label %if.end

if.then4:                                         ; preds = %if.then2
  call void @_ZNK4cvc58internal12NodeTemplateILb0EE12getAttributeINS0_4expr9AttributeINS0_6theory2uf16ArrayToLambdaTagENS1_ILb1EEEEEEENT_10value_typeERKSB_(ptr sret(%"class.cvc5::internal::NodeTemplate") align 8 %agg.result, ptr noundef nonnull align 8 dereferenceable(8) %n, ptr noundef nonnull align 1 dereferenceable(1) %atla)
  br label %return

if.end:                                           ; preds = %if.then2
  %call5 = call noundef nonnull align 8 dereferenceable(16) ptr @_ZNK4cvc58internal12NodeTemplateILb0EE8getConstINS0_18FunctionArrayConstEEERKT_v(ptr noundef nonnull align 8 dereferenceable(8) %n)
  store ptr %call5, ptr %fc, align 8
  %2 = load ptr, ptr %fc, align 8
  %call6 = call noundef nonnull align 8 dereferenceable(8) ptr @_ZNK4cvc58internal18FunctionArrayConst13getArrayValueEv(ptr noundef nonnull align 8 dereferenceable(16) %2)
  call void @_ZN4cvc58internal12NodeTemplateILb1EEC2ERKS2_(ptr noundef nonnull align 8 dereferenceable(8) %avalue, ptr noundef nonnull align 8 dereferenceable(8) %call6)
  %3 = load ptr, ptr %fc, align 8
  %call7 = invoke noundef nonnull align 8 dereferenceable(8) ptr @_ZNK4cvc58internal18FunctionArrayConst7getTypeEv(ptr noundef nonnull align 8 dereferenceable(16) %3)
          to label %invoke.cont unwind label %lpad

invoke.cont:                                      ; preds = %if.end
  invoke void @_ZN4cvc58internal8TypeNodeC2ERKS1_(ptr noundef nonnull align 8 dereferenceable(8) %tn, ptr noundef nonnull align 8 dereferenceable(8) %call7)
          to label %invoke.cont8 unwind label %lpad

invoke.cont8:                                     ; preds = %invoke.cont
  invoke void @_ZNK4cvc58internal8TypeNode11getArgTypesEv(ptr sret(%"class.std::vector") align 8 %argTypes, ptr noundef nonnull align 8 dereferenceable(8) %tn)
          to label %invoke.cont10 unwind label %lpad9

invoke.cont10:                                    ; preds = %invoke.cont8
  call void @_ZNSt6vectorIN4cvc58internal12NodeTemplateILb1EEESaIS3_EEC2Ev(ptr noundef nonnull align 8 dereferenceable(24) %bvs) #3
  %call13 = invoke noundef ptr @_ZN4cvc58internal11NodeManager9currentNMEv()
          to label %invoke.cont12 unwind label %lpad11

invoke.cont12:                                    ; preds = %invoke.cont10
  store ptr %call13, ptr %nm, align 8
  %4 = load ptr, ptr %nm, align 8
  %call15 = invoke noundef ptr @_ZN4cvc58internal11NodeManager18getBoundVarManagerEv(ptr noundef nonnull align 8 dereferenceable(3360) %4)
          to label %invoke.cont14 unwind label %lpad11

invoke.cont14:                                    ; preds = %invoke.cont12
  store ptr %call15, ptr %bvm, align 8
  store i64 0, ptr %i, align 8
  %call16 = call noundef i64 @_ZNKSt6vectorIN4cvc58internal8TypeNodeESaIS2_EE4sizeEv(ptr noundef nonnull align 8 dereferenceable(24) %argTypes) #3
  store i64 %call16, ptr %nargs, align 8
  br label %for.cond

for.cond:                                         ; preds = %for.inc, %invoke.cont14
  %5 = load i64, ptr %i, align 8
  %6 = load i64, ptr %nargs, align 8
  %cmp17 = icmp ult i64 %5, %6
  br i1 %cmp17, label %for.body, label %for.end

for.body:                                         ; preds = %for.cond
  invoke void @_ZN4cvc58internal12NodeTemplateILb0EEC2ERKS2_(ptr noundef nonnull align 8 dereferenceable(8) %agg.tmp, ptr noundef nonnull align 8 dereferenceable(8) %n)
          to label %invoke.cont18 unwind label %lpad11

invoke.cont18:                                    ; preds = %for.body
  %7 = load ptr, ptr %nm, align 8
  %8 = load i64, ptr %i, align 8
  invoke void @_ZN4cvc58internal8RationalC2Em(ptr noundef nonnull align 8 dereferenceable(32) %ref.tmp20, i64 noundef %8)
          to label %invoke.cont22 unwind label %lpad21

invoke.cont22:                                    ; preds = %invoke.cont18
  invoke void @_ZN4cvc58internal11NodeManager10mkConstIntERKNS0_8RationalE(ptr sret(%"class.cvc5::internal::NodeTemplate") align 8 %ref.tmp, ptr noundef nonnull align 8 dereferenceable(3360) %7, ptr noundef nonnull align 8 dereferenceable(32) %ref.tmp20)
          to label %invoke.cont24 unwind label %lpad23

invoke.cont24:                                    ; preds = %invoke.cont22
  invoke void @_ZN4cvc58internal12NodeTemplateILb0EEC2ERKNS1_ILb1EEE(ptr noundef nonnull align 8 dereferenceable(8) %agg.tmp19, ptr noundef nonnull align 8 dereferenceable(8) %ref.tmp)
          to label %invoke.cont26 unwind label %lpad25

invoke.cont26:                                    ; preds = %invoke.cont24
  invoke void @_ZN4cvc58internal15BoundVarManager13getCacheValueENS0_12NodeTemplateILb0EEES3_(ptr sret(%"class.cvc5::internal::NodeTemplate") align 8 %cacheVal, ptr noundef %agg.tmp, ptr noundef %agg.tmp19)
          to label %invoke.cont28 unwind label %lpad27

invoke.cont28:                                    ; preds = %invoke.cont26
  call void @_ZN4cvc58internal12NodeTemplateILb0EED2Ev(ptr noundef nonnull align 8 dereferenceable(8) %agg.tmp19) #3
  call void @_ZN4cvc58internal12NodeTemplateILb1EED2Ev(ptr noundef nonnull align 8 dereferenceable(8) %ref.tmp) #3
  call void @_ZN4cvc58internal8RationalD2Ev(ptr noundef nonnull align 8 dereferenceable(32) %ref.tmp20) #3
  call void @_ZN4cvc58internal12NodeTemplateILb0EED2Ev(ptr noundef nonnull align 8 dereferenceable(8) %agg.tmp) #3
  %9 = load ptr, ptr %bvm, align 8
  invoke void @_ZN4cvc58internal12NodeTemplateILb1EEC2ERKS2_(ptr noundef nonnull align 8 dereferenceable(8) %agg.tmp31, ptr noundef nonnull align 8 dereferenceable(8) %cacheVal)
          to label %invoke.cont33 unwind label %lpad32

invoke.cont33:                                    ; preds = %invoke.cont28
  %10 = load i64, ptr %i, align 8
  %call35 = call noundef nonnull align 8 dereferenceable(8) ptr @_ZNSt6vectorIN4cvc58internal8TypeNodeESaIS2_EEixEm(ptr noundef nonnull align 8 dereferenceable(24) %argTypes, i64 noundef %10) #3
  invoke void @_ZN4cvc58internal8TypeNodeC2ERKS1_(ptr noundef nonnull align 8 dereferenceable(8) %agg.tmp34, ptr noundef nonnull align 8 dereferenceable(8) %call35)
          to label %invoke.cont37 unwind label %lpad36

invoke.cont37:                                    ; preds = %invoke.cont33
  invoke void @_ZN4cvc58internal15BoundVarManager10mkBoundVarINS0_4expr9AttributeINS0_6theory2uf23FunctionBoundVarListTagENS0_12NodeTemplateILb1EEEEEEES9_S9_NS0_8TypeNodeE(ptr sret(%"class.cvc5::internal::NodeTemplate") align 8 %v, ptr noundef nonnull align 8 dereferenceable(64) %9, ptr noundef %agg.tmp31, ptr noundef %agg.tmp34)
          to label %invoke.cont39 unwind label %lpad38

invoke.cont39:                                    ; preds = %invoke.cont37
  call void @_ZN4cvc58internal8TypeNodeD2Ev(ptr noundef nonnull align 8 dereferenceable(8) %agg.tmp34) #3
  call void @_ZN4cvc58internal12NodeTemplateILb1EED2Ev(ptr noundef nonnull align 8 dereferenceable(8) %agg.tmp31) #3
  invoke void @_ZNSt6vectorIN4cvc58internal12NodeTemplateILb1EEESaIS3_EE9push_backERKS3_(ptr noundef nonnull align 8 dereferenceable(24) %bvs, ptr noundef nonnull align 8 dereferenceable(8) %v)
          to label %invoke.cont43 unwind label %lpad42

invoke.cont43:                                    ; preds = %invoke.cont39
  call void @_ZN4cvc58internal12NodeTemplateILb1EED2Ev(ptr noundef nonnull align 8 dereferenceable(8) %v) #3
  call void @_ZN4cvc58internal12NodeTemplateILb1EED2Ev(ptr noundef nonnull align 8 dereferenceable(8) %cacheVal) #3
  br label %for.inc

for.inc:                                          ; preds = %invoke.cont43
  %11 = load i64, ptr %i, align 8
  %inc = add i64 %11, 1
  store i64 %inc, ptr %i, align 8
  br label %for.cond, !llvm.loop !4

lpad:                                             ; preds = %invoke.cont, %if.end
  %12 = landingpad { ptr, i32 }
          cleanup
  %13 = extractvalue { ptr, i32 } %12, 0
  store ptr %13, ptr %exn.slot, align 8
  %14 = extractvalue { ptr, i32 } %12, 1
  store i32 %14, ptr %ehselector.slot, align 4
  br label %ehcleanup64

lpad9:                                            ; preds = %invoke.cont8
  %15 = landingpad { ptr, i32 }
          cleanup
  %16 = extractvalue { ptr, i32 } %15, 0
  store ptr %16, ptr %exn.slot, align 8
  %17 = extractvalue { ptr, i32 } %15, 1
  store i32 %17, ptr %ehselector.slot, align 4
  br label %ehcleanup63

lpad11:                                           ; preds = %for.end, %for.body, %invoke.cont12, %invoke.cont10
  %18 = landingpad { ptr, i32 }
          cleanup
  %19 = extractvalue { ptr, i32 } %18, 0
  store ptr %19, ptr %exn.slot, align 8
  %20 = extractvalue { ptr, i32 } %18, 1
  store i32 %20, ptr %ehselector.slot, align 4
  br label %ehcleanup61

lpad21:                                           ; preds = %invoke.cont18
  %21 = landingpad { ptr, i32 }
          cleanup
  %22 = extractvalue { ptr, i32 } %21, 0
  store ptr %22, ptr %exn.slot, align 8
  %23 = extractvalue { ptr, i32 } %21, 1
  store i32 %23, ptr %ehselector.slot, align 4
  br label %ehcleanup30

lpad23:                                           ; preds = %invoke.cont22
  %24 = landingpad { ptr, i32 }
          cleanup
  %25 = extractvalue { ptr, i32 } %24, 0
  store ptr %25, ptr %exn.slot, align 8
  %26 = extractvalue { ptr, i32 } %24, 1
  store i32 %26, ptr %ehselector.slot, align 4
  br label %ehcleanup29

lpad25:                                           ; preds = %invoke.cont24
  %27 = landingpad { ptr, i32 }
          cleanup
  %28 = extractvalue { ptr, i32 } %27, 0
  store ptr %28, ptr %exn.slot, align 8
  %29 = extractvalue { ptr, i32 } %27, 1
  store i32 %29, ptr %ehselector.slot, align 4
  br label %ehcleanup

lpad27:                                           ; preds = %invoke.cont26
  %30 = landingpad { ptr, i32 }
          cleanup
  %31 = extractvalue { ptr, i32 } %30, 0
  store ptr %31, ptr %exn.slot, align 8
  %32 = extractvalue { ptr, i32 } %30, 1
  store i32 %32, ptr %ehselector.slot, align 4
  call void @_ZN4cvc58internal12NodeTemplateILb0EED2Ev(ptr noundef nonnull align 8 dereferenceable(8) %agg.tmp19) #3
  br label %ehcleanup

ehcleanup:                                        ; preds = %lpad27, %lpad25
  call void @_ZN4cvc58internal12NodeTemplateILb1EED2Ev(ptr noundef nonnull align 8 dereferenceable(8) %ref.tmp) #3
  br label %ehcleanup29

ehcleanup29:                                      ; preds = %ehcleanup, %lpad23
  call void @_ZN4cvc58internal8RationalD2Ev(ptr noundef nonnull align 8 dereferenceable(32) %ref.tmp20) #3
  br label %ehcleanup30

ehcleanup30:                                      ; preds = %ehcleanup29, %lpad21
  call void @_ZN4cvc58internal12NodeTemplateILb0EED2Ev(ptr noundef nonnull align 8 dereferenceable(8) %agg.tmp) #3
  br label %ehcleanup61

lpad32:                                           ; preds = %invoke.cont28
  %33 = landingpad { ptr, i32 }
          cleanup
  %34 = extractvalue { ptr, i32 } %33, 0
  store ptr %34, ptr %exn.slot, align 8
  %35 = extractvalue { ptr, i32 } %33, 1
  store i32 %35, ptr %ehselector.slot, align 4
  br label %ehcleanup45

lpad36:                                           ; preds = %invoke.cont33
  %36 = landingpad { ptr, i32 }
          cleanup
  %37 = extractvalue { ptr, i32 } %36, 0
  store ptr %37, ptr %exn.slot, align 8
  %38 = extractvalue { ptr, i32 } %36, 1
  store i32 %38, ptr %ehselector.slot, align 4
  br label %ehcleanup41

lpad38:                                           ; preds = %invoke.cont37
  %39 = landingpad { ptr, i32 }
          cleanup
  %40 = extractvalue { ptr, i32 } %39, 0
  store ptr %40, ptr %exn.slot, align 8
  %41 = extractvalue { ptr, i32 } %39, 1
  store i32 %41, ptr %ehselector.slot, align 4
  call void @_ZN4cvc58internal8TypeNodeD2Ev(ptr noundef nonnull align 8 dereferenceable(8) %agg.tmp34) #3
  br label %ehcleanup41

ehcleanup41:                                      ; preds = %lpad38, %lpad36
  call void @_ZN4cvc58internal12NodeTemplateILb1EED2Ev(ptr noundef nonnull align 8 dereferenceable(8) %agg.tmp31) #3
  br label %ehcleanup45

lpad42:                                           ; preds = %invoke.cont39
  %42 = landingpad { ptr, i32 }
          cleanup
  %43 = extractvalue { ptr, i32 } %42, 0
  store ptr %43, ptr %exn.slot, align 8
  %44 = extractvalue { ptr, i32 } %42, 1
  store i32 %44, ptr %ehselector.slot, align 4
  call void @_ZN4cvc58internal12NodeTemplateILb1EED2Ev(ptr noundef nonnull align 8 dereferenceable(8) %v) #3
  br label %ehcleanup45

ehcleanup45:                                      ; preds = %lpad42, %ehcleanup41, %lpad32
  call void @_ZN4cvc58internal12NodeTemplateILb1EED2Ev(ptr noundef nonnull align 8 dereferenceable(8) %cacheVal) #3
  br label %ehcleanup61

for.end:                                          ; preds = %for.cond
  %45 = load ptr, ptr %nm, align 8
  invoke void @_ZN4cvc58internal11NodeManager6mkNodeILb1EEENS0_12NodeTemplateILb1EEENS0_4kind6Kind_tERKSt6vectorINS3_IXT_EEESaIS8_EE(ptr sret(%"class.cvc5::internal::NodeTemplate") align 8 %bvl, ptr noundef nonnull align 8 dereferenceable(3360) %45, i32 noundef 356, ptr noundef nonnull align 8 dereferenceable(24) %bvs)
          to label %invoke.cont46 unwind label %lpad11

invoke.cont46:                                    ; preds = %for.end
  store i1 false, ptr %nrvo, align 1
  invoke void @_ZN4cvc58internal12NodeTemplateILb0EEC2ERKNS1_ILb1EEE(ptr noundef nonnull align 8 dereferenceable(8) %agg.tmp47, ptr noundef nonnull align 8 dereferenceable(8) %avalue)
          to label %invoke.cont49 unwind label %lpad48

invoke.cont49:                                    ; preds = %invoke.cont46
  invoke void @_ZN4cvc58internal12NodeTemplateILb0EEC2ERKNS1_ILb1EEE(ptr noundef nonnull align 8 dereferenceable(8) %agg.tmp50, ptr noundef nonnull align 8 dereferenceable(8) %bvl)
          to label %invoke.cont52 unwind label %lpad51

invoke.cont52:                                    ; preds = %invoke.cont49
  invoke void @_ZN4cvc58internal6theory2uf13FunctionConst31getLambdaForArrayRepresentationENS0_12NodeTemplateILb0EEES5_(ptr sret(%"class.cvc5::internal::NodeTemplate") align 8 %agg.result, ptr noundef %agg.tmp47, ptr noundef %agg.tmp50)
          to label %invoke.cont54 unwind label %lpad53

invoke.cont54:                                    ; preds = %invoke.cont52
  call void @_ZN4cvc58internal12NodeTemplateILb0EED2Ev(ptr noundef nonnull align 8 dereferenceable(8) %agg.tmp50) #3
  call void @_ZN4cvc58internal12NodeTemplateILb0EED2Ev(ptr noundef nonnull align 8 dereferenceable(8) %agg.tmp47) #3
  invoke void @_ZN4cvc58internal12NodeTemplateILb0EE12setAttributeINS0_4expr9AttributeINS0_6theory2uf16ArrayToLambdaTagENS1_ILb1EEEEEEEvRKT_RKNSB_10value_typeE(ptr noundef nonnull align 8 dereferenceable(8) %n, ptr noundef nonnull align 1 dereferenceable(1) %atla, ptr noundef nonnull align 8 dereferenceable(8) %agg.result)
          to label %invoke.cont58 unwind label %lpad57

invoke.cont58:                                    ; preds = %invoke.cont54
  store i1 true, ptr %nrvo, align 1
  %nrvo.val = load i1, ptr %nrvo, align 1
  br i1 %nrvo.val, label %nrvo.skipdtor, label %nrvo.unused

lpad48:                                           ; preds = %invoke.cont46
  %46 = landingpad { ptr, i32 }
          cleanup
  %47 = extractvalue { ptr, i32 } %46, 0
  store ptr %47, ptr %exn.slot, align 8
  %48 = extractvalue { ptr, i32 } %46, 1
  store i32 %48, ptr %ehselector.slot, align 4
  br label %ehcleanup60

lpad51:                                           ; preds = %invoke.cont49
  %49 = landingpad { ptr, i32 }
          cleanup
  %50 = extractvalue { ptr, i32 } %49, 0
  store ptr %50, ptr %exn.slot, align 8
  %51 = extractvalue { ptr, i32 } %49, 1
  store i32 %51, ptr %ehselector.slot, align 4
  br label %ehcleanup56

lpad53:                                           ; preds = %invoke.cont52
  %52 = landingpad { ptr, i32 }
          cleanup
  %53 = extractvalue { ptr, i32 } %52, 0
  store ptr %53, ptr %exn.slot, align 8
  %54 = extractvalue { ptr, i32 } %52, 1
  store i32 %54, ptr %ehselector.slot, align 4
  call void @_ZN4cvc58internal12NodeTemplateILb0EED2Ev(ptr noundef nonnull align 8 dereferenceable(8) %agg.tmp50) #3
  br label %ehcleanup56

ehcleanup56:                                      ; preds = %lpad53, %lpad51
  call void @_ZN4cvc58internal12NodeTemplateILb0EED2Ev(ptr noundef nonnull align 8 dereferenceable(8) %agg.tmp47) #3
  br label %ehcleanup60

lpad57:                                           ; preds = %invoke.cont54
  %55 = landingpad { ptr, i32 }
          cleanup
  %56 = extractvalue { ptr, i32 } %55, 0
  store ptr %56, ptr %exn.slot, align 8
  %57 = extractvalue { ptr, i32 } %55, 1
  store i32 %57, ptr %ehselector.slot, align 4
  call void @_ZN4cvc58internal12NodeTemplateILb1EED2Ev(ptr noundef nonnull align 8 dereferenceable(8) %agg.result) #3
  br label %ehcleanup60

nrvo.unused:                                      ; preds = %invoke.cont58
  call void @_ZN4cvc58internal12NodeTemplateILb1EED2Ev(ptr noundef nonnull align 8 dereferenceable(8) %agg.result) #3
  br label %nrvo.skipdtor

nrvo.skipdtor:                                    ; preds = %nrvo.unused, %invoke.cont58
  call void @_ZN4cvc58internal12NodeTemplateILb1EED2Ev(ptr noundef nonnull align 8 dereferenceable(8) %bvl) #3
  call void @_ZNSt6vectorIN4cvc58internal12NodeTemplateILb1EEESaIS3_EED2Ev(ptr noundef nonnull align 8 dereferenceable(24) %bvs) #3
  call void @_ZNSt6vectorIN4cvc58internal8TypeNodeESaIS2_EED2Ev(ptr noundef nonnull align 8 dereferenceable(24) %argTypes) #3
  call void @_ZN4cvc58internal8TypeNodeD2Ev(ptr noundef nonnull align 8 dereferenceable(8) %tn) #3
  call void @_ZN4cvc58internal12NodeTemplateILb1EED2Ev(ptr noundef nonnull align 8 dereferenceable(8) %avalue) #3
  br label %return

ehcleanup60:                                      ; preds = %lpad57, %ehcleanup56, %lpad48
  call void @_ZN4cvc58internal12NodeTemplateILb1EED2Ev(ptr noundef nonnull align 8 dereferenceable(8) %bvl) #3
  br label %ehcleanup61

ehcleanup61:                                      ; preds = %ehcleanup60, %ehcleanup45, %ehcleanup30, %lpad11
  call void @_ZNSt6vectorIN4cvc58internal12NodeTemplateILb1EEESaIS3_EED2Ev(ptr noundef nonnull align 8 dereferenceable(24) %bvs) #3
  call void @_ZNSt6vectorIN4cvc58internal8TypeNodeESaIS2_EED2Ev(ptr noundef nonnull align 8 dereferenceable(24) %argTypes) #3
  br label %ehcleanup63

ehcleanup63:                                      ; preds = %ehcleanup61, %lpad9
  call void @_ZN4cvc58internal8TypeNodeD2Ev(ptr noundef nonnull align 8 dereferenceable(8) %tn) #3
  br label %ehcleanup64

ehcleanup64:                                      ; preds = %ehcleanup63, %lpad
  call void @_ZN4cvc58internal12NodeTemplateILb1EED2Ev(ptr noundef nonnull align 8 dereferenceable(8) %avalue) #3
  br label %eh.resume

if.end65:                                         ; preds = %if.else
  br label %if.end66

if.end66:                                         ; preds = %if.end65
  call void @_ZN4cvc58internal12NodeTemplateILb1EE4nullEv(ptr sret(%"class.cvc5::internal::NodeTemplate") align 8 %agg.result)
  br label %return

return:                                           ; preds = %if.end66, %nrvo.skipdtor, %if.then4, %if.then
  ret void

eh.resume:                                        ; preds = %ehcleanup64
  %exn = load ptr, ptr %exn.slot, align 8
  %sel = load i32, ptr %ehselector.slot, align 4
  %lpad.val = insertvalue { ptr, i32 } poison, ptr %exn, 0
  %lpad.val67 = insertvalue { ptr, i32 } %lpad.val, i32 %sel, 1
  resume { ptr, i32 } %lpad.val67
}

; Function Attrs: mustprogress uwtable
define linkonce_odr hidden noundef i32 @_ZNK4cvc58internal12NodeTemplateILb0EE7getKindEv(ptr noundef nonnull align 8 dereferenceable(8) %this) #4 comdat align 2 {
entry:
  %this.addr = alloca ptr, align 8
  store ptr %this, ptr %this.addr, align 8
  %this1 = load ptr, ptr %this.addr, align 8
  call void @_ZNK4cvc58internal12NodeTemplateILb0EE21assertTNodeNotExpiredEv(ptr noundef nonnull align 8 dereferenceable(8) %this1)
  %d_nv = getelementptr inbounds %"class.cvc5::internal::NodeTemplate.0", ptr %this1, i32 0, i32 0
  %0 = load ptr, ptr %d_nv, align 8
  %d_kind = getelementptr inbounds %"class.cvc5::internal::expr::NodeValue", ptr %0, i32 0, i32 1
  %bf.load = load i16, ptr %d_kind, align 8
  %bf.clear = and i16 %bf.load, 1023
  %bf.cast = zext i16 %bf.clear to i32
  ret i32 %bf.cast
}

; Function Attrs: mustprogress uwtable
define linkonce_odr hidden void @_ZN4cvc58internal12NodeTemplateILb1EEC2ERKNS1_ILb0EEE(ptr noundef nonnull align 8 dereferenceable(8) %this, ptr noundef nonnull align 8 dereferenceable(8) %e) unnamed_addr #4 comdat align 2 {
entry:
  %this.addr = alloca ptr, align 8
  %e.addr = alloca ptr, align 8
  store ptr %this, ptr %this.addr, align 8
  store ptr %e, ptr %e.addr, align 8
  %this1 = load ptr, ptr %this.addr, align 8
  %0 = load ptr, ptr %e.addr, align 8
  %d_nv = getelementptr inbounds %"class.cvc5::internal::NodeTemplate.0", ptr %0, i32 0, i32 0
  %1 = load ptr, ptr %d_nv, align 8
  %d_nv2 = getelementptr inbounds %"class.cvc5::internal::NodeTemplate", ptr %this1, i32 0, i32 0
  store ptr %1, ptr %d_nv2, align 8
  %d_nv3 = getelementptr inbounds %"class.cvc5::internal::NodeTemplate", ptr %this1, i32 0, i32 0
  %2 = load ptr, ptr %d_nv3, align 8
  call void @_ZN4cvc58internal4expr9NodeValue3incEv(ptr noundef nonnull align 8 dereferenceable(16) %2)
  ret void
}

; Function Attrs: mustprogress uwtable
define linkonce_odr hidden noundef zeroext i1 @_ZNK4cvc58internal12NodeTemplateILb0EE12hasAttributeINS0_4expr9AttributeINS0_6theory2uf16ArrayToLambdaTagENS1_ILb1EEEEEEEbRKT_(ptr noundef nonnull align 8 dereferenceable(8) %this, ptr noundef nonnull align 1 dereferenceable(1) %0) #4 comdat align 2 personality ptr @__gxx_personality_v0 {
entry:
  %this.addr = alloca ptr, align 8
  %.addr = alloca ptr, align 8
  %agg.tmp = alloca %"class.cvc5::internal::NodeTemplate.0", align 8
  %ref.tmp = alloca %"class.cvc5::internal::expr::Attribute", align 1
  %exn.slot = alloca ptr, align 8
  %ehselector.slot = alloca i32, align 4
  store ptr %this, ptr %this.addr, align 8
  store ptr %0, ptr %.addr, align 8
  %this1 = load ptr, ptr %this.addr, align 8
  call void @_ZNK4cvc58internal12NodeTemplateILb0EE21assertTNodeNotExpiredEv(ptr noundef nonnull align 8 dereferenceable(8) %this1)
  %call = call noundef ptr @_ZN4cvc58internal11NodeManager9currentNMEv()
  call void @_ZN4cvc58internal12NodeTemplateILb0EEC2ERKS2_(ptr noundef nonnull align 8 dereferenceable(8) %agg.tmp, ptr noundef nonnull align 8 dereferenceable(8) %this1)
  %call2 = invoke noundef zeroext i1 @_ZNK4cvc58internal11NodeManager12hasAttributeINS0_4expr9AttributeINS0_6theory2uf16ArrayToLambdaTagENS0_12NodeTemplateILb1EEEEEEEbNS8_ILb0EEERKT_(ptr noundef nonnull align 8 dereferenceable(3360) %call, ptr noundef %agg.tmp, ptr noundef nonnull align 1 dereferenceable(1) %ref.tmp)
          to label %invoke.cont unwind label %lpad

invoke.cont:                                      ; preds = %entry
  call void @_ZN4cvc58internal12NodeTemplateILb0EED2Ev(ptr noundef nonnull align 8 dereferenceable(8) %agg.tmp) #3
  ret i1 %call2

lpad:                                             ; preds = %entry
  %1 = landingpad { ptr, i32 }
          cleanup
  %2 = extractvalue { ptr, i32 } %1, 0
  store ptr %2, ptr %exn.slot, align 8
  %3 = extractvalue { ptr, i32 } %1, 1
  store i32 %3, ptr %ehselector.slot, align 4
  call void @_ZN4cvc58internal12NodeTemplateILb0EED2Ev(ptr noundef nonnull align 8 dereferenceable(8) %agg.tmp) #3
  br label %eh.resume

eh.resume:                                        ; preds = %lpad
  %exn = load ptr, ptr %exn.slot, align 8
  %sel = load i32, ptr %ehselector.slot, align 4
  %lpad.val = insertvalue { ptr, i32 } poison, ptr %exn, 0
  %lpad.val3 = insertvalue { ptr, i32 } %lpad.val, i32 %sel, 1
  resume { ptr, i32 } %lpad.val3
}

; Function Attrs: mustprogress uwtable
define linkonce_odr hidden void @_ZNK4cvc58internal12NodeTemplateILb0EE12getAttributeINS0_4expr9AttributeINS0_6theory2uf16ArrayToLambdaTagENS1_ILb1EEEEEEENT_10value_typeERKSB_(ptr noalias sret(%"class.cvc5::internal::NodeTemplate") align 8 %agg.result, ptr noundef nonnull align 8 dereferenceable(8) %this, ptr noundef nonnull align 1 dereferenceable(1) %0) #4 comdat align 2 personality ptr @__gxx_personality_v0 {
entry:
  %result.ptr = alloca ptr, align 8
  %this.addr = alloca ptr, align 8
  %.addr = alloca ptr, align 8
  %agg.tmp = alloca %"class.cvc5::internal::NodeTemplate.0", align 8
  %ref.tmp = alloca %"class.cvc5::internal::expr::Attribute", align 1
  %exn.slot = alloca ptr, align 8
  %ehselector.slot = alloca i32, align 4
  store ptr %agg.result, ptr %result.ptr, align 8
  store ptr %this, ptr %this.addr, align 8
  store ptr %0, ptr %.addr, align 8
  %this1 = load ptr, ptr %this.addr, align 8
  call void @_ZNK4cvc58internal12NodeTemplateILb0EE21assertTNodeNotExpiredEv(ptr noundef nonnull align 8 dereferenceable(8) %this1)
  %call = call noundef ptr @_ZN4cvc58internal11NodeManager9currentNMEv()
  call void @_ZN4cvc58internal12NodeTemplateILb0EEC2ERKS2_(ptr noundef nonnull align 8 dereferenceable(8) %agg.tmp, ptr noundef nonnull align 8 dereferenceable(8) %this1)
  invoke void @_ZNK4cvc58internal11NodeManager12getAttributeINS0_4expr9AttributeINS0_6theory2uf16ArrayToLambdaTagENS0_12NodeTemplateILb1EEEEEEENT_10value_typeENS8_ILb0EEERKSB_(ptr sret(%"class.cvc5::internal::NodeTemplate") align 8 %agg.result, ptr noundef nonnull align 8 dereferenceable(3360) %call, ptr noundef %agg.tmp, ptr noundef nonnull align 1 dereferenceable(1) %ref.tmp)
          to label %invoke.cont unwind label %lpad

invoke.cont:                                      ; preds = %entry
  call void @_ZN4cvc58internal12NodeTemplateILb0EED2Ev(ptr noundef nonnull align 8 dereferenceable(8) %agg.tmp) #3
  ret void

lpad:                                             ; preds = %entry
  %1 = landingpad { ptr, i32 }
          cleanup
  %2 = extractvalue { ptr, i32 } %1, 0
  store ptr %2, ptr %exn.slot, align 8
  %3 = extractvalue { ptr, i32 } %1, 1
  store i32 %3, ptr %ehselector.slot, align 4
  call void @_ZN4cvc58internal12NodeTemplateILb0EED2Ev(ptr noundef nonnull align 8 dereferenceable(8) %agg.tmp) #3
  br label %eh.resume

eh.resume:                                        ; preds = %lpad
  %exn = load ptr, ptr %exn.slot, align 8
  %sel = load i32, ptr %ehselector.slot, align 4
  %lpad.val = insertvalue { ptr, i32 } poison, ptr %exn, 0
  %lpad.val2 = insertvalue { ptr, i32 } %lpad.val, i32 %sel, 1
  resume { ptr, i32 } %lpad.val2
}

; Function Attrs: mustprogress uwtable
define linkonce_odr hidden noundef nonnull align 8 dereferenceable(16) ptr @_ZNK4cvc58internal12NodeTemplateILb0EE8getConstINS0_18FunctionArrayConstEEERKT_v(ptr noundef nonnull align 8 dereferenceable(8) %this) #4 comdat align 2 {
entry:
  %this.addr = alloca ptr, align 8
  store ptr %this, ptr %this.addr, align 8
  %this1 = load ptr, ptr %this.addr, align 8
  call void @_ZNK4cvc58internal12NodeTemplateILb0EE21assertTNodeNotExpiredEv(ptr noundef nonnull align 8 dereferenceable(8) %this1)
  %d_nv = getelementptr inbounds %"class.cvc5::internal::NodeTemplate.0", ptr %this1, i32 0, i32 0
  %0 = load ptr, ptr %d_nv, align 8
  %call = call noundef nonnull align 8 dereferenceable(16) ptr @_ZNK4cvc58internal4expr9NodeValue8getConstINS0_18FunctionArrayConstEEERKT_v(ptr noundef nonnull align 8 dereferenceable(16) %0)
  ret ptr %call
}

declare noundef nonnull align 8 dereferenceable(8) ptr @_ZNK4cvc58internal18FunctionArrayConst13getArrayValueEv(ptr noundef nonnull align 8 dereferenceable(16)) #1

; Function Attrs: mustprogress uwtable
define linkonce_odr hidden void @_ZN4cvc58internal12NodeTemplateILb1EEC2ERKS2_(ptr noundef nonnull align 8 dereferenceable(8) %this, ptr noundef nonnull align 8 dereferenceable(8) %e) unnamed_addr #4 comdat align 2 {
entry:
  %this.addr = alloca ptr, align 8
  %e.addr = alloca ptr, align 8
  store ptr %this, ptr %this.addr, align 8
  store ptr %e, ptr %e.addr, align 8
  %this1 = load ptr, ptr %this.addr, align 8
  %0 = load ptr, ptr %e.addr, align 8
  %d_nv = getelementptr inbounds %"class.cvc5::internal::NodeTemplate", ptr %0, i32 0, i32 0
  %1 = load ptr, ptr %d_nv, align 8
  %d_nv2 = getelementptr inbounds %"class.cvc5::internal::NodeTemplate", ptr %this1, i32 0, i32 0
  store ptr %1, ptr %d_nv2, align 8
  %d_nv3 = getelementptr inbounds %"class.cvc5::internal::NodeTemplate", ptr %this1, i32 0, i32 0
  %2 = load ptr, ptr %d_nv3, align 8
  call void @_ZN4cvc58internal4expr9NodeValue3incEv(ptr noundef nonnull align 8 dereferenceable(16) %2)
  ret void
}

declare noundef nonnull align 8 dereferenceable(8) ptr @_ZNK4cvc58internal18FunctionArrayConst7getTypeEv(ptr noundef nonnull align 8 dereferenceable(16)) #1

declare i32 @__gxx_personality_v0(...)

; Function Attrs: mustprogress uwtable
define linkonce_odr hidden void @_ZN4cvc58internal8TypeNodeC2ERKS1_(ptr noundef nonnull align 8 dereferenceable(8) %this, ptr noundef nonnull align 8 dereferenceable(8) %typeNode) unnamed_addr #4 comdat align 2 {
entry:
  %this.addr = alloca ptr, align 8
  %typeNode.addr = alloca ptr, align 8
  store ptr %this, ptr %this.addr, align 8
  store ptr %typeNode, ptr %typeNode.addr, align 8
  %this1 = load ptr, ptr %this.addr, align 8
  %0 = load ptr, ptr %typeNode.addr, align 8
  %d_nv = getelementptr inbounds %"class.cvc5::internal::TypeNode", ptr %0, i32 0, i32 0
  %1 = load ptr, ptr %d_nv, align 8
  %d_nv2 = getelementptr inbounds %"class.cvc5::internal::TypeNode", ptr %this1, i32 0, i32 0
  store ptr %1, ptr %d_nv2, align 8
  %d_nv3 = getelementptr inbounds %"class.cvc5::internal::TypeNode", ptr %this1, i32 0, i32 0
  %2 = load ptr, ptr %d_nv3, align 8
  call void @_ZN4cvc58internal4expr9NodeValue3incEv(ptr noundef nonnull align 8 dereferenceable(16) %2)
  ret void
}

declare void @_ZNK4cvc58internal8TypeNode11getArgTypesEv(ptr sret(%"class.std::vector") align 8, ptr noundef nonnull align 8 dereferenceable(8)) #1

; Function Attrs: mustprogress nounwind uwtable
define linkonce_odr hidden void @_ZNSt6vectorIN4cvc58internal12NodeTemplateILb1EEESaIS3_EEC2Ev(ptr noundef nonnull align 8 dereferenceable(24) %this) unnamed_addr #5 comdat align 2 {
entry:
  %this.addr = alloca ptr, align 8
  store ptr %this, ptr %this.addr, align 8
  %this1 = load ptr, ptr %this.addr, align 8
  call void @_ZNSt12_Vector_baseIN4cvc58internal12NodeTemplateILb1EEESaIS3_EEC2Ev(ptr noundef nonnull align 8 dereferenceable(24) %this1) #3
  ret void
}

declare noundef ptr @_ZN4cvc58internal11NodeManager9currentNMEv() #1

; Function Attrs: mustprogress nounwind uwtable
define linkonce_odr hidden noundef ptr @_ZN4cvc58internal11NodeManager18getBoundVarManagerEv(ptr noundef nonnull align 8 dereferenceable(3360) %this) #5 comdat align 2 {
entry:
  %this.addr = alloca ptr, align 8
  store ptr %this, ptr %this.addr, align 8
  %this1 = load ptr, ptr %this.addr, align 8
  %d_bvManager = getelementptr inbounds %"class.cvc5::internal::NodeManager", ptr %this1, i32 0, i32 1
  %call = call noundef ptr @_ZNKSt10unique_ptrIN4cvc58internal15BoundVarManagerESt14default_deleteIS2_EE3getEv(ptr noundef nonnull align 8 dereferenceable(8) %d_bvManager) #3
  ret ptr %call
}

; Function Attrs: mustprogress nounwind uwtable
define linkonce_odr hidden noundef i64 @_ZNKSt6vectorIN4cvc58internal8TypeNodeESaIS2_EE4sizeEv(ptr noundef nonnull align 8 dereferenceable(24) %this) #5 comdat align 2 {
entry:
  %this.addr = alloca ptr, align 8
  store ptr %this, ptr %this.addr, align 8
  %this1 = load ptr, ptr %this.addr, align 8
  %_M_impl = getelementptr inbounds %"struct.std::_Vector_base", ptr %this1, i32 0, i32 0
  %_M_finish = getelementptr inbounds %"struct.std::_Vector_base<cvc5::internal::TypeNode, std::allocator<cvc5::internal::TypeNode>>::_Vector_impl_data", ptr %_M_impl, i32 0, i32 1
  %0 = load ptr, ptr %_M_finish, align 8
  %_M_impl2 = getelementptr inbounds %"struct.std::_Vector_base", ptr %this1, i32 0, i32 0
  %_M_start = getelementptr inbounds %"struct.std::_Vector_base<cvc5::internal::TypeNode, std::allocator<cvc5::internal::TypeNode>>::_Vector_impl_data", ptr %_M_impl2, i32 0, i32 0
  %1 = load ptr, ptr %_M_start, align 8
  %sub.ptr.lhs.cast = ptrtoint ptr %0 to i64
  %sub.ptr.rhs.cast = ptrtoint ptr %1 to i64
  %sub.ptr.sub = sub i64 %sub.ptr.lhs.cast, %sub.ptr.rhs.cast
  %sub.ptr.div = sdiv exact i64 %sub.ptr.sub, 8
  ret i64 %sub.ptr.div
}

declare void @_ZN4cvc58internal15BoundVarManager13getCacheValueENS0_12NodeTemplateILb0EEES3_(ptr sret(%"class.cvc5::internal::NodeTemplate") align 8, ptr noundef, ptr noundef) #1

; Function Attrs: mustprogress nounwind uwtable
define linkonce_odr hidden void @_ZN4cvc58internal12NodeTemplateILb0EEC2ERKS2_(ptr noundef nonnull align 8 dereferenceable(8) %this, ptr noundef nonnull align 8 dereferenceable(8) %e) unnamed_addr #5 comdat align 2 {
entry:
  %this.addr = alloca ptr, align 8
  %e.addr = alloca ptr, align 8
  store ptr %this, ptr %this.addr, align 8
  store ptr %e, ptr %e.addr, align 8
  %this1 = load ptr, ptr %this.addr, align 8
  %0 = load ptr, ptr %e.addr, align 8
  %d_nv = getelementptr inbounds %"class.cvc5::internal::NodeTemplate.0", ptr %0, i32 0, i32 0
  %1 = load ptr, ptr %d_nv, align 8
  %d_nv2 = getelementptr inbounds %"class.cvc5::internal::NodeTemplate.0", ptr %this1, i32 0, i32 0
  store ptr %1, ptr %d_nv2, align 8
  ret void
}

declare void @_ZN4cvc58internal11NodeManager10mkConstIntERKNS0_8RationalE(ptr sret(%"class.cvc5::internal::NodeTemplate") align 8, ptr noundef nonnull align 8 dereferenceable(3360), ptr noundef nonnull align 8 dereferenceable(32)) #1

; Function Attrs: mustprogress uwtable
define linkonce_odr hidden void @_ZN4cvc58internal8RationalC2Em(ptr noundef nonnull align 8 dereferenceable(32) %this, i64 noundef %n) unnamed_addr #4 comdat align 2 personality ptr @__gxx_personality_v0 {
entry:
  %this.addr = alloca ptr, align 8
  %n.addr = alloca i64, align 8
  %ref.tmp = alloca %class.__gmp_expr.127, align 8
  %ref.tmp2 = alloca %class.__gmp_expr.127, align 8
  %exn.slot = alloca ptr, align 8
  %ehselector.slot = alloca i32, align 4
  store ptr %this, ptr %this.addr, align 8
  store i64 %n, ptr %n.addr, align 8
  %this1 = load ptr, ptr %this.addr, align 8
  %d_value = getelementptr inbounds %"class.cvc5::internal::Rational", ptr %this1, i32 0, i32 0
  %0 = load i64, ptr %n.addr, align 8
  call void @_ZN10__gmp_exprIA1_12__mpz_structS1_EC2Em(ptr noundef nonnull align 8 dereferenceable(16) %ref.tmp, i64 noundef %0)
  invoke void @_ZN10__gmp_exprIA1_12__mpz_structS1_EC2Ei(ptr noundef nonnull align 8 dereferenceable(16) %ref.tmp2, i32 noundef 1)
          to label %invoke.cont unwind label %lpad

invoke.cont:                                      ; preds = %entry
  invoke void @_ZN10__gmp_exprIA1_12__mpq_structS1_EC2ERKS_IA1_12__mpz_structS4_ES7_(ptr noundef nonnull align 8 dereferenceable(32) %d_value, ptr noundef nonnull align 8 dereferenceable(16) %ref.tmp, ptr noundef nonnull align 8 dereferenceable(16) %ref.tmp2)
          to label %invoke.cont4 unwind label %lpad3

invoke.cont4:                                     ; preds = %invoke.cont
  call void @_ZN10__gmp_exprIA1_12__mpz_structS1_ED2Ev(ptr noundef nonnull align 8 dereferenceable(16) %ref.tmp2) #3
  call void @_ZN10__gmp_exprIA1_12__mpz_structS1_ED2Ev(ptr noundef nonnull align 8 dereferenceable(16) %ref.tmp) #3
  %d_value5 = getelementptr inbounds %"class.cvc5::internal::Rational", ptr %this1, i32 0, i32 0
  invoke void @_ZN10__gmp_exprIA1_12__mpq_structS1_E12canonicalizeEv(ptr noundef nonnull align 8 dereferenceable(32) %d_value5)
          to label %invoke.cont7 unwind label %lpad6

invoke.cont7:                                     ; preds = %invoke.cont4
  ret void

lpad:                                             ; preds = %entry
  %1 = landingpad { ptr, i32 }
          cleanup
  %2 = extractvalue { ptr, i32 } %1, 0
  store ptr %2, ptr %exn.slot, align 8
  %3 = extractvalue { ptr, i32 } %1, 1
  store i32 %3, ptr %ehselector.slot, align 4
  br label %ehcleanup

lpad3:                                            ; preds = %invoke.cont
  %4 = landingpad { ptr, i32 }
          cleanup
  %5 = extractvalue { ptr, i32 } %4, 0
  store ptr %5, ptr %exn.slot, align 8
  %6 = extractvalue { ptr, i32 } %4, 1
  store i32 %6, ptr %ehselector.slot, align 4
  call void @_ZN10__gmp_exprIA1_12__mpz_structS1_ED2Ev(ptr noundef nonnull align 8 dereferenceable(16) %ref.tmp2) #3
  br label %ehcleanup

ehcleanup:                                        ; preds = %lpad3, %lpad
  call void @_ZN10__gmp_exprIA1_12__mpz_structS1_ED2Ev(ptr noundef nonnull align 8 dereferenceable(16) %ref.tmp) #3
  br label %eh.resume

lpad6:                                            ; preds = %invoke.cont4
  %7 = landingpad { ptr, i32 }
          cleanup
  %8 = extractvalue { ptr, i32 } %7, 0
  store ptr %8, ptr %exn.slot, align 8
  %9 = extractvalue { ptr, i32 } %7, 1
  store i32 %9, ptr %ehselector.slot, align 4
  call void @_ZN10__gmp_exprIA1_12__mpq_structS1_ED2Ev(ptr noundef nonnull align 8 dereferenceable(32) %d_value) #3
  br label %eh.resume

eh.resume:                                        ; preds = %lpad6, %ehcleanup
  %exn = load ptr, ptr %exn.slot, align 8
  %sel = load i32, ptr %ehselector.slot, align 4
  %lpad.val = insertvalue { ptr, i32 } poison, ptr %exn, 0
  %lpad.val9 = insertvalue { ptr, i32 } %lpad.val, i32 %sel, 1
  resume { ptr, i32 } %lpad.val9
}

; Function Attrs: mustprogress nounwind uwtable
define linkonce_odr hidden void @_ZN4cvc58internal12NodeTemplateILb0EEC2ERKNS1_ILb1EEE(ptr noundef nonnull align 8 dereferenceable(8) %this, ptr noundef nonnull align 8 dereferenceable(8) %e) unnamed_addr #5 comdat align 2 {
entry:
  %this.addr = alloca ptr, align 8
  %e.addr = alloca ptr, align 8
  store ptr %this, ptr %this.addr, align 8
  store ptr %e, ptr %e.addr, align 8
  %this1 = load ptr, ptr %this.addr, align 8
  %0 = load ptr, ptr %e.addr, align 8
  %d_nv = getelementptr inbounds %"class.cvc5::internal::NodeTemplate", ptr %0, i32 0, i32 0
  %1 = load ptr, ptr %d_nv, align 8
  %d_nv2 = getelementptr inbounds %"class.cvc5::internal::NodeTemplate.0", ptr %this1, i32 0, i32 0
  store ptr %1, ptr %d_nv2, align 8
  ret void
}

; Function Attrs: mustprogress nounwind uwtable
define linkonce_odr hidden void @_ZN4cvc58internal12NodeTemplateILb0EED2Ev(ptr noundef nonnull align 8 dereferenceable(8) %this) unnamed_addr #5 comdat align 2 {
entry:
  %this.addr = alloca ptr, align 8
  store ptr %this, ptr %this.addr, align 8
  ret void
}

; Function Attrs: mustprogress nounwind uwtable
define linkonce_odr hidden void @_ZN4cvc58internal12NodeTemplateILb1EED2Ev(ptr noundef nonnull align 8 dereferenceable(8) %this) unnamed_addr #5 comdat align 2 personality ptr @__gxx_personality_v0 {
entry:
  %this.addr = alloca ptr, align 8
  store ptr %this, ptr %this.addr, align 8
  %this1 = load ptr, ptr %this.addr, align 8
  %d_nv = getelementptr inbounds %"class.cvc5::internal::NodeTemplate", ptr %this1, i32 0, i32 0
  %0 = load ptr, ptr %d_nv, align 8
  invoke void @_ZN4cvc58internal4expr9NodeValue3decEv(ptr noundef nonnull align 8 dereferenceable(16) %0)
          to label %invoke.cont unwind label %terminate.lpad

invoke.cont:                                      ; preds = %entry
  ret void

terminate.lpad:                                   ; preds = %entry
  %1 = landingpad { ptr, i32 }
          catch ptr null
  %2 = extractvalue { ptr, i32 } %1, 0
  call void @__clang_call_terminate(ptr %2) #14
  unreachable
}

; Function Attrs: mustprogress nounwind uwtable
define linkonce_odr hidden void @_ZN4cvc58internal8RationalD2Ev(ptr noundef nonnull align 8 dereferenceable(32) %this) unnamed_addr #5 comdat align 2 {
entry:
  %this.addr = alloca ptr, align 8
  store ptr %this, ptr %this.addr, align 8
  %this1 = load ptr, ptr %this.addr, align 8
  %d_value = getelementptr inbounds %"class.cvc5::internal::Rational", ptr %this1, i32 0, i32 0
  call void @_ZN10__gmp_exprIA1_12__mpq_structS1_ED2Ev(ptr noundef nonnull align 8 dereferenceable(32) %d_value) #3
  ret void
}

; Function Attrs: mustprogress uwtable
define linkonce_odr hidden void @_ZN4cvc58internal15BoundVarManager10mkBoundVarINS0_4expr9AttributeINS0_6theory2uf23FunctionBoundVarListTagENS0_12NodeTemplateILb1EEEEEEES9_S9_NS0_8TypeNodeE(ptr noalias sret(%"class.cvc5::internal::NodeTemplate") align 8 %agg.result, ptr noundef nonnull align 8 dereferenceable(64) %this, ptr noundef %n, ptr noundef %tn) #4 comdat align 2 personality ptr @__gxx_personality_v0 {
entry:
  %result.ptr = alloca ptr, align 8
  %this.addr = alloca ptr, align 8
  %n.indirect_addr = alloca ptr, align 8
  %tn.indirect_addr = alloca ptr, align 8
  %attr = alloca %"class.cvc5::internal::expr::Attribute.242", align 1
  %nrvo = alloca i1, align 1
  %exn.slot = alloca ptr, align 8
  %ehselector.slot = alloca i32, align 4
  %coerce = alloca %"struct.std::pair.243", align 8
  store ptr %agg.result, ptr %result.ptr, align 8
  store ptr %this, ptr %this.addr, align 8
  store ptr %n, ptr %n.indirect_addr, align 8
  store ptr %tn, ptr %tn.indirect_addr, align 8
  %this1 = load ptr, ptr %this.addr, align 8
  %call = call noundef zeroext i1 @_ZNK4cvc58internal12NodeTemplateILb1EE12hasAttributeINS0_4expr9AttributeINS0_6theory2uf23FunctionBoundVarListTagES2_EEEEbRKT_(ptr noundef nonnull align 8 dereferenceable(8) %n, ptr noundef nonnull align 1 dereferenceable(1) %attr)
  br i1 %call, label %if.then, label %if.end

if.then:                                          ; preds = %entry
  call void @_ZNK4cvc58internal12NodeTemplateILb1EE12getAttributeINS0_4expr9AttributeINS0_6theory2uf23FunctionBoundVarListTagES2_EEEENT_10value_typeERKSA_(ptr sret(%"class.cvc5::internal::NodeTemplate") align 8 %agg.result, ptr noundef nonnull align 8 dereferenceable(8) %n, ptr noundef nonnull align 1 dereferenceable(1) %attr)
  br label %return

if.end:                                           ; preds = %entry
  store i1 false, ptr %nrvo, align 1
  %call2 = call noundef ptr @_ZN4cvc58internal11NodeManager9currentNMEv()
  call void @_ZN4cvc58internal11NodeManager10mkBoundVarERKNS0_8TypeNodeE(ptr sret(%"class.cvc5::internal::NodeTemplate") align 8 %agg.result, ptr noundef nonnull align 8 dereferenceable(3360) %call2, ptr noundef nonnull align 8 dereferenceable(8) %tn)
  invoke void @_ZN4cvc58internal12NodeTemplateILb1EE12setAttributeINS0_4expr9AttributeINS0_6theory2uf23FunctionBoundVarListTagES2_EEEEvRKT_RKNSA_10value_typeE(ptr noundef nonnull align 8 dereferenceable(8) %n, ptr noundef nonnull align 1 dereferenceable(1) %attr, ptr noundef nonnull align 8 dereferenceable(8) %agg.result)
          to label %invoke.cont unwind label %lpad

invoke.cont:                                      ; preds = %if.end
  %d_keepCacheVals = getelementptr inbounds %"class.cvc5::internal::BoundVarManager", ptr %this1, i32 0, i32 0
  %0 = load i8, ptr %d_keepCacheVals, align 8
  %tobool = trunc i8 %0 to i1
  br i1 %tobool, label %if.then3, label %if.end6

if.then3:                                         ; preds = %invoke.cont
  %d_cacheVals = getelementptr inbounds %"class.cvc5::internal::BoundVarManager", ptr %this1, i32 0, i32 1
  %call5 = invoke { ptr, i8 } @_ZNSt13unordered_setIN4cvc58internal12NodeTemplateILb1EEESt4hashIS3_ESt8equal_toIS3_ESaIS3_EE6insertERKS3_(ptr noundef nonnull align 8 dereferenceable(56) %d_cacheVals, ptr noundef nonnull align 8 dereferenceable(8) %n)
          to label %invoke.cont4 unwind label %lpad

invoke.cont4:                                     ; preds = %if.then3
  %1 = getelementptr inbounds { ptr, i8 }, ptr %coerce, i32 0, i32 0
  %2 = extractvalue { ptr, i8 } %call5, 0
  store ptr %2, ptr %1, align 8
  %3 = getelementptr inbounds { ptr, i8 }, ptr %coerce, i32 0, i32 1
  %4 = extractvalue { ptr, i8 } %call5, 1
  store i8 %4, ptr %3, align 8
  br label %if.end6

lpad:                                             ; preds = %if.then3, %if.end
  %5 = landingpad { ptr, i32 }
          cleanup
  %6 = extractvalue { ptr, i32 } %5, 0
  store ptr %6, ptr %exn.slot, align 8
  %7 = extractvalue { ptr, i32 } %5, 1
  store i32 %7, ptr %ehselector.slot, align 4
  call void @_ZN4cvc58internal12NodeTemplateILb1EED2Ev(ptr noundef nonnull align 8 dereferenceable(8) %agg.result) #3
  br label %eh.resume

if.end6:                                          ; preds = %invoke.cont4, %invoke.cont
  store i1 true, ptr %nrvo, align 1
  %nrvo.val = load i1, ptr %nrvo, align 1
  br i1 %nrvo.val, label %nrvo.skipdtor, label %nrvo.unused

nrvo.unused:                                      ; preds = %if.end6
  call void @_ZN4cvc58internal12NodeTemplateILb1EED2Ev(ptr noundef nonnull align 8 dereferenceable(8) %agg.result) #3
  br label %nrvo.skipdtor

nrvo.skipdtor:                                    ; preds = %nrvo.unused, %if.end6
  br label %return

return:                                           ; preds = %nrvo.skipdtor, %if.then
  ret void

eh.resume:                                        ; preds = %lpad
  %exn = load ptr, ptr %exn.slot, align 8
  %sel = load i32, ptr %ehselector.slot, align 4
  %lpad.val = insertvalue { ptr, i32 } poison, ptr %exn, 0
  %lpad.val7 = insertvalue { ptr, i32 } %lpad.val, i32 %sel, 1
  resume { ptr, i32 } %lpad.val7
}

; Function Attrs: mustprogress nounwind uwtable
define linkonce_odr hidden noundef nonnull align 8 dereferenceable(8) ptr @_ZNSt6vectorIN4cvc58internal8TypeNodeESaIS2_EEixEm(ptr noundef nonnull align 8 dereferenceable(24) %this, i64 noundef %__n) #5 comdat align 2 {
entry:
  %this.addr = alloca ptr, align 8
  %__n.addr = alloca i64, align 8
  store ptr %this, ptr %this.addr, align 8
  store i64 %__n, ptr %__n.addr, align 8
  %this1 = load ptr, ptr %this.addr, align 8
  %_M_impl = getelementptr inbounds %"struct.std::_Vector_base", ptr %this1, i32 0, i32 0
  %_M_start = getelementptr inbounds %"struct.std::_Vector_base<cvc5::internal::TypeNode, std::allocator<cvc5::internal::TypeNode>>::_Vector_impl_data", ptr %_M_impl, i32 0, i32 0
  %0 = load ptr, ptr %_M_start, align 8
  %1 = load i64, ptr %__n.addr, align 8
  %add.ptr = getelementptr inbounds %"class.cvc5::internal::TypeNode", ptr %0, i64 %1
  ret ptr %add.ptr
}

; Function Attrs: mustprogress nounwind uwtable
define linkonce_odr hidden void @_ZN4cvc58internal8TypeNodeD2Ev(ptr noundef nonnull align 8 dereferenceable(8) %this) unnamed_addr #5 comdat align 2 personality ptr @__gxx_personality_v0 {
entry:
  %this.addr = alloca ptr, align 8
  store ptr %this, ptr %this.addr, align 8
  %this1 = load ptr, ptr %this.addr, align 8
  %d_nv = getelementptr inbounds %"class.cvc5::internal::TypeNode", ptr %this1, i32 0, i32 0
  %0 = load ptr, ptr %d_nv, align 8
  invoke void @_ZN4cvc58internal4expr9NodeValue3decEv(ptr noundef nonnull align 8 dereferenceable(16) %0)
          to label %invoke.cont unwind label %terminate.lpad

invoke.cont:                                      ; preds = %entry
  ret void

terminate.lpad:                                   ; preds = %entry
  %1 = landingpad { ptr, i32 }
          catch ptr null
  %2 = extractvalue { ptr, i32 } %1, 0
  call void @__clang_call_terminate(ptr %2) #14
  unreachable
}

; Function Attrs: mustprogress uwtable
define linkonce_odr hidden void @_ZNSt6vectorIN4cvc58internal12NodeTemplateILb1EEESaIS3_EE9push_backERKS3_(ptr noundef nonnull align 8 dereferenceable(24) %this, ptr noundef nonnull align 8 dereferenceable(8) %__x) #4 comdat align 2 {
entry:
  %this.addr = alloca ptr, align 8
  %__x.addr = alloca ptr, align 8
  %agg.tmp = alloca %"class.__gnu_cxx::__normal_iterator", align 8
  store ptr %this, ptr %this.addr, align 8
  store ptr %__x, ptr %__x.addr, align 8
  %this1 = load ptr, ptr %this.addr, align 8
  %_M_impl = getelementptr inbounds %"struct.std::_Vector_base.12", ptr %this1, i32 0, i32 0
  %_M_finish = getelementptr inbounds %"struct.std::_Vector_base<cvc5::internal::NodeTemplate<true>, std::allocator<cvc5::internal::NodeTemplate<true>>>::_Vector_impl_data", ptr %_M_impl, i32 0, i32 1
  %0 = load ptr, ptr %_M_finish, align 8
  %_M_impl2 = getelementptr inbounds %"struct.std::_Vector_base.12", ptr %this1, i32 0, i32 0
  %_M_end_of_storage = getelementptr inbounds %"struct.std::_Vector_base<cvc5::internal::NodeTemplate<true>, std::allocator<cvc5::internal::NodeTemplate<true>>>::_Vector_impl_data", ptr %_M_impl2, i32 0, i32 2
  %1 = load ptr, ptr %_M_end_of_storage, align 8
  %cmp = icmp ne ptr %0, %1
  br i1 %cmp, label %if.then, label %if.else

if.then:                                          ; preds = %entry
  %_M_impl3 = getelementptr inbounds %"struct.std::_Vector_base.12", ptr %this1, i32 0, i32 0
  %_M_impl4 = getelementptr inbounds %"struct.std::_Vector_base.12", ptr %this1, i32 0, i32 0
  %_M_finish5 = getelementptr inbounds %"struct.std::_Vector_base<cvc5::internal::NodeTemplate<true>, std::allocator<cvc5::internal::NodeTemplate<true>>>::_Vector_impl_data", ptr %_M_impl4, i32 0, i32 1
  %2 = load ptr, ptr %_M_finish5, align 8
  %3 = load ptr, ptr %__x.addr, align 8
  call void @_ZNSt16allocator_traitsISaIN4cvc58internal12NodeTemplateILb1EEEEE9constructIS3_JRKS3_EEEvRS4_PT_DpOT0_(ptr noundef nonnull align 1 dereferenceable(1) %_M_impl3, ptr noundef %2, ptr noundef nonnull align 8 dereferenceable(8) %3)
  %_M_impl6 = getelementptr inbounds %"struct.std::_Vector_base.12", ptr %this1, i32 0, i32 0
  %_M_finish7 = getelementptr inbounds %"struct.std::_Vector_base<cvc5::internal::NodeTemplate<true>, std::allocator<cvc5::internal::NodeTemplate<true>>>::_Vector_impl_data", ptr %_M_impl6, i32 0, i32 1
  %4 = load ptr, ptr %_M_finish7, align 8
  %incdec.ptr = getelementptr inbounds %"class.cvc5::internal::NodeTemplate", ptr %4, i32 1
  store ptr %incdec.ptr, ptr %_M_finish7, align 8
  br label %if.end

if.else:                                          ; preds = %entry
  %call = call ptr @_ZNSt6vectorIN4cvc58internal12NodeTemplateILb1EEESaIS3_EE3endEv(ptr noundef nonnull align 8 dereferenceable(24) %this1) #3
  %coerce.dive = getelementptr inbounds %"class.__gnu_cxx::__normal_iterator", ptr %agg.tmp, i32 0, i32 0
  store ptr %call, ptr %coerce.dive, align 8
  %5 = load ptr, ptr %__x.addr, align 8
  %coerce.dive8 = getelementptr inbounds %"class.__gnu_cxx::__normal_iterator", ptr %agg.tmp, i32 0, i32 0
  %6 = load ptr, ptr %coerce.dive8, align 8
  call void @_ZNSt6vectorIN4cvc58internal12NodeTemplateILb1EEESaIS3_EE17_M_realloc_insertIJRKS3_EEEvN9__gnu_cxx17__normal_iteratorIPS3_S5_EEDpOT_(ptr noundef nonnull align 8 dereferenceable(24) %this1, ptr %6, ptr noundef nonnull align 8 dereferenceable(8) %5)
  br label %if.end

if.end:                                           ; preds = %if.else, %if.then
  ret void
}

; Function Attrs: mustprogress uwtable
define linkonce_odr hidden void @_ZN4cvc58internal11NodeManager6mkNodeILb1EEENS0_12NodeTemplateILb1EEENS0_4kind6Kind_tERKSt6vectorINS3_IXT_EEESaIS8_EE(ptr noalias sret(%"class.cvc5::internal::NodeTemplate") align 8 %agg.result, ptr noundef nonnull align 8 dereferenceable(3360) %this, i32 noundef %kind, ptr noundef nonnull align 8 dereferenceable(24) %children) #4 comdat align 2 personality ptr @__gxx_personality_v0 {
entry:
  %result.ptr = alloca ptr, align 8
  %this.addr = alloca ptr, align 8
  %kind.addr = alloca i32, align 4
  %children.addr = alloca ptr, align 8
  %nb = alloca %"class.cvc5::internal::NodeBuilder", align 8
  %exn.slot = alloca ptr, align 8
  %ehselector.slot = alloca i32, align 4
  store ptr %agg.result, ptr %result.ptr, align 8
  store ptr %this, ptr %this.addr, align 8
  store i32 %kind, ptr %kind.addr, align 4
  store ptr %children, ptr %children.addr, align 8
  %this1 = load ptr, ptr %this.addr, align 8
  %0 = load i32, ptr %kind.addr, align 4
  call void @_ZN4cvc58internal11NodeBuilderC1EPNS0_11NodeManagerENS0_4kind6Kind_tE(ptr noundef nonnull align 8 dereferenceable(116) %nb, ptr noundef %this1, i32 noundef %0)
  %1 = load ptr, ptr %children.addr, align 8
  %call = invoke noundef nonnull align 8 dereferenceable(116) ptr @_ZN4cvc58internal11NodeBuilder6appendILb1EEERS1_RKSt6vectorINS0_12NodeTemplateIXT_EEESaIS6_EE(ptr noundef nonnull align 8 dereferenceable(116) %nb, ptr noundef nonnull align 8 dereferenceable(24) %1)
          to label %invoke.cont unwind label %lpad

invoke.cont:                                      ; preds = %entry
  invoke void @_ZN4cvc58internal11NodeBuilder13constructNodeEv(ptr sret(%"class.cvc5::internal::NodeTemplate") align 8 %agg.result, ptr noundef nonnull align 8 dereferenceable(116) %nb)
          to label %invoke.cont2 unwind label %lpad

invoke.cont2:                                     ; preds = %invoke.cont
  call void @_ZN4cvc58internal11NodeBuilderD1Ev(ptr noundef nonnull align 8 dereferenceable(116) %nb) #3
  ret void

lpad:                                             ; preds = %invoke.cont, %entry
  %2 = landingpad { ptr, i32 }
          cleanup
  %3 = extractvalue { ptr, i32 } %2, 0
  store ptr %3, ptr %exn.slot, align 8
  %4 = extractvalue { ptr, i32 } %2, 1
  store i32 %4, ptr %ehselector.slot, align 4
  call void @_ZN4cvc58internal11NodeBuilderD1Ev(ptr noundef nonnull align 8 dereferenceable(116) %nb) #3
  br label %eh.resume

eh.resume:                                        ; preds = %lpad
  %exn = load ptr, ptr %exn.slot, align 8
  %sel = load i32, ptr %ehselector.slot, align 4
  %lpad.val = insertvalue { ptr, i32 } poison, ptr %exn, 0
  %lpad.val3 = insertvalue { ptr, i32 } %lpad.val, i32 %sel, 1
  resume { ptr, i32 } %lpad.val3
}

; Function Attrs: mustprogress uwtable
define hidden void @_ZN4cvc58internal6theory2uf13FunctionConst31getLambdaForArrayRepresentationENS0_12NodeTemplateILb0EEES5_(ptr noalias sret(%"class.cvc5::internal::NodeTemplate") align 8 %agg.result, ptr noundef %a, ptr noundef %bvl) #4 align 2 personality ptr @__gxx_personality_v0 {
entry:
  %result.ptr = alloca ptr, align 8
  %a.indirect_addr = alloca ptr, align 8
  %bvl.indirect_addr = alloca ptr, align 8
  %visited = alloca %"class.std::unordered_map", align 8
  %ref.tmp = alloca %"class.cvc5::internal::__cvc5_true", align 1
  %exn.slot = alloca ptr, align 8
  %ehselector.slot = alloca i32, align 4
  %tmp = alloca %"class.cvc5::internal::Cvc5ostream", align 8
  %agg.tmp.ensured = alloca %"class.cvc5::internal::Cvc5ostream", align 8
  %ref.tmp2 = alloca %"class.cvc5::internal::Cvc5ostream", align 8
  %body = alloca %"class.cvc5::internal::NodeTemplate", align 8
  %agg.tmp = alloca %"class.cvc5::internal::NodeTemplate.0", align 8
  %agg.tmp15 = alloca %"class.cvc5::internal::NodeTemplate.0", align 8
  %ref.tmp23 = alloca %"class.cvc5::internal::__cvc5_true", align 1
  %tmp27 = alloca %"class.cvc5::internal::Cvc5ostream", align 8
  %agg.tmp.ensured30 = alloca %"class.cvc5::internal::Cvc5ostream", align 8
  %ref.tmp31 = alloca %"class.cvc5::internal::Cvc5ostream", align 8
  %agg.tmp42 = alloca %"class.cvc5::internal::NodeTemplate.0", align 8
  %agg.tmp44 = alloca %"class.cvc5::internal::NodeTemplate.0", align 8
  %cleanup.dest.slot = alloca i32, align 4
  %ref.tmp51 = alloca %"class.cvc5::internal::__cvc5_true", align 1
  %tmp55 = alloca %"class.cvc5::internal::Cvc5ostream", align 8
  %agg.tmp.ensured58 = alloca %"class.cvc5::internal::Cvc5ostream", align 8
  %ref.tmp59 = alloca %"class.cvc5::internal::Cvc5ostream", align 8
  store ptr %agg.result, ptr %result.ptr, align 8
  store ptr %a, ptr %a.indirect_addr, align 8
  store ptr %bvl, ptr %bvl.indirect_addr, align 8
  call void @_ZNSt13unordered_mapIN4cvc58internal12NodeTemplateILb0EEENS2_ILb1EEESt4hashIS3_ESt8equal_toIS3_ESaISt4pairIKS3_S4_EEEC2Ev(ptr noundef nonnull align 8 dereferenceable(56) %visited) #3
  %call = invoke noundef zeroext i1 @_ZN4cvc58internal11__cvc5_truecvbEv(ptr noundef nonnull align 1 dereferenceable(1) %ref.tmp)
          to label %invoke.cont unwind label %lpad

invoke.cont:                                      ; preds = %entry
  br i1 %call, label %cond.true, label %cond.false

cond.true:                                        ; preds = %invoke.cont
  invoke void @_ZNK4cvc58internal5NullCcvNS0_11Cvc5ostreamEEv(ptr sret(%"class.cvc5::internal::Cvc5ostream") align 8 %tmp, ptr noundef nonnull align 1 dereferenceable(1) @_ZN4cvc58internal10nullStreamE)
          to label %invoke.cont1 unwind label %lpad

invoke.cont1:                                     ; preds = %cond.true
  br label %cond.end

cond.false:                                       ; preds = %invoke.cont
  invoke void @_ZNK4cvc58internal6TraceCclEv(ptr sret(%"class.cvc5::internal::Cvc5ostream") align 8 %ref.tmp2, ptr noundef nonnull align 8 dereferenceable(32) @_ZN4cvc58internal12TraceChannelE)
          to label %invoke.cont3 unwind label %lpad

invoke.cont3:                                     ; preds = %cond.false
  %call5 = invoke noundef nonnull align 8 dereferenceable(24) ptr @_ZN4cvc58internal11Cvc5ostreamlsIA18_cEERS1_RKT_(ptr noundef nonnull align 8 dereferenceable(24) %ref.tmp2, ptr noundef nonnull align 1 dereferenceable(18) @.str)
          to label %invoke.cont4 unwind label %lpad

invoke.cont4:                                     ; preds = %invoke.cont3
  %call7 = invoke noundef nonnull align 8 dereferenceable(24) ptr @_ZN4cvc58internal11Cvc5ostreamlsINS0_12NodeTemplateILb0EEEEERS1_RKT_(ptr noundef nonnull align 8 dereferenceable(24) %call5, ptr noundef nonnull align 8 dereferenceable(8) %a)
          to label %invoke.cont6 unwind label %lpad

invoke.cont6:                                     ; preds = %invoke.cont4
  %call9 = invoke noundef nonnull align 8 dereferenceable(24) ptr @_ZN4cvc58internal11Cvc5ostreamlsIA18_cEERS1_RKT_(ptr noundef nonnull align 8 dereferenceable(24) %call7, ptr noundef nonnull align 1 dereferenceable(18) @.str.1)
          to label %invoke.cont8 unwind label %lpad

invoke.cont8:                                     ; preds = %invoke.cont6
  %call11 = invoke noundef nonnull align 8 dereferenceable(24) ptr @_ZN4cvc58internal11Cvc5ostreamlsINS0_12NodeTemplateILb0EEEEERS1_RKT_(ptr noundef nonnull align 8 dereferenceable(24) %call9, ptr noundef nonnull align 8 dereferenceable(8) %bvl)
          to label %invoke.cont10 unwind label %lpad

invoke.cont10:                                    ; preds = %invoke.cont8
  %call13 = invoke noundef nonnull align 8 dereferenceable(24) ptr @_ZN4cvc58internal11Cvc5ostreamlsEPFRSoS2_E(ptr noundef nonnull align 8 dereferenceable(24) %call11, ptr noundef @_ZSt4endlIcSt11char_traitsIcEERSt13basic_ostreamIT_T0_ES6_)
          to label %invoke.cont12 unwind label %lpad

invoke.cont12:                                    ; preds = %invoke.cont10
  call void @llvm.memcpy.p0.p0.i64(ptr align 8 %agg.tmp.ensured, ptr align 8 %call13, i64 24, i1 false)
  br label %cond.end

cond.end:                                         ; preds = %invoke.cont12, %invoke.cont1
  invoke void @_ZN4cvc58internal12NodeTemplateILb0EEC2ERKS2_(ptr noundef nonnull align 8 dereferenceable(8) %agg.tmp, ptr noundef nonnull align 8 dereferenceable(8) %a)
          to label %invoke.cont14 unwind label %lpad

invoke.cont14:                                    ; preds = %cond.end
  invoke void @_ZN4cvc58internal12NodeTemplateILb0EEC2ERKS2_(ptr noundef nonnull align 8 dereferenceable(8) %agg.tmp15, ptr noundef nonnull align 8 dereferenceable(8) %bvl)
          to label %invoke.cont17 unwind label %lpad16

invoke.cont17:                                    ; preds = %invoke.cont14
  invoke void @_ZN4cvc58internal6theory2uf13FunctionConst34getLambdaForArrayRepresentationRecENS0_12NodeTemplateILb0EEES5_jRSt13unordered_mapIS5_NS4_ILb1EEESt4hashIS5_ESt8equal_toIS5_ESaISt4pairIKS5_S7_EEE(ptr sret(%"class.cvc5::internal::NodeTemplate") align 8 %body, ptr noundef %agg.tmp, ptr noundef %agg.tmp15, i32 noundef 0, ptr noundef nonnull align 8 dereferenceable(56) %visited)
          to label %invoke.cont19 unwind label %lpad18

invoke.cont19:                                    ; preds = %invoke.cont17
  call void @_ZN4cvc58internal12NodeTemplateILb0EED2Ev(ptr noundef nonnull align 8 dereferenceable(8) %agg.tmp15) #3
  call void @_ZN4cvc58internal12NodeTemplateILb0EED2Ev(ptr noundef nonnull align 8 dereferenceable(8) %agg.tmp) #3
  %call22 = invoke noundef zeroext i1 @_ZNK4cvc58internal12NodeTemplateILb1EE6isNullEv(ptr noundef nonnull align 8 dereferenceable(8) %body)
          to label %invoke.cont21 unwind label %lpad20

invoke.cont21:                                    ; preds = %invoke.cont19
  br i1 %call22, label %if.end, label %if.then

if.then:                                          ; preds = %invoke.cont21
  %call25 = invoke noundef zeroext i1 @_ZN4cvc58internal11__cvc5_truecvbEv(ptr noundef nonnull align 1 dereferenceable(1) %ref.tmp23)
          to label %invoke.cont24 unwind label %lpad20

invoke.cont24:                                    ; preds = %if.then
  br i1 %call25, label %cond.true26, label %cond.false29

cond.true26:                                      ; preds = %invoke.cont24
  invoke void @_ZNK4cvc58internal5NullCcvNS0_11Cvc5ostreamEEv(ptr sret(%"class.cvc5::internal::Cvc5ostream") align 8 %tmp27, ptr noundef nonnull align 1 dereferenceable(1) @_ZN4cvc58internal10nullStreamE)
          to label %invoke.cont28 unwind label %lpad20

invoke.cont28:                                    ; preds = %cond.true26
  br label %cond.end39

cond.false29:                                     ; preds = %invoke.cont24
  invoke void @_ZNK4cvc58internal6TraceCclEv(ptr sret(%"class.cvc5::internal::Cvc5ostream") align 8 %ref.tmp31, ptr noundef nonnull align 8 dereferenceable(32) @_ZN4cvc58internal12TraceChannelE)
          to label %invoke.cont32 unwind label %lpad20

invoke.cont32:                                    ; preds = %cond.false29
  %call34 = invoke noundef nonnull align 8 dereferenceable(24) ptr @_ZN4cvc58internal11Cvc5ostreamlsIA20_cEERS1_RKT_(ptr noundef nonnull align 8 dereferenceable(24) %ref.tmp31, ptr noundef nonnull align 1 dereferenceable(20) @.str.2)
          to label %invoke.cont33 unwind label %lpad20

invoke.cont33:                                    ; preds = %invoke.cont32
  %call36 = invoke noundef nonnull align 8 dereferenceable(24) ptr @_ZN4cvc58internal11Cvc5ostreamlsINS0_12NodeTemplateILb1EEEEERS1_RKT_(ptr noundef nonnull align 8 dereferenceable(24) %call34, ptr noundef nonnull align 8 dereferenceable(8) %body)
          to label %invoke.cont35 unwind label %lpad20

invoke.cont35:                                    ; preds = %invoke.cont33
  %call38 = invoke noundef nonnull align 8 dereferenceable(24) ptr @_ZN4cvc58internal11Cvc5ostreamlsEPFRSoS2_E(ptr noundef nonnull align 8 dereferenceable(24) %call36, ptr noundef @_ZSt4endlIcSt11char_traitsIcEERSt13basic_ostreamIT_T0_ES6_)
          to label %invoke.cont37 unwind label %lpad20

invoke.cont37:                                    ; preds = %invoke.cont35
  call void @llvm.memcpy.p0.p0.i64(ptr align 8 %agg.tmp.ensured30, ptr align 8 %call38, i64 24, i1 false)
  br label %cond.end39

cond.end39:                                       ; preds = %invoke.cont37, %invoke.cont28
  %call41 = invoke noundef ptr @_ZN4cvc58internal11NodeManager9currentNMEv()
          to label %invoke.cont40 unwind label %lpad20

invoke.cont40:                                    ; preds = %cond.end39
  invoke void @_ZN4cvc58internal12NodeTemplateILb0EEC2ERKS2_(ptr noundef nonnull align 8 dereferenceable(8) %agg.tmp42, ptr noundef nonnull align 8 dereferenceable(8) %bvl)
          to label %invoke.cont43 unwind label %lpad20

invoke.cont43:                                    ; preds = %invoke.cont40
  invoke void @_ZN4cvc58internal12NodeTemplateILb0EEC2ERKNS1_ILb1EEE(ptr noundef nonnull align 8 dereferenceable(8) %agg.tmp44, ptr noundef nonnull align 8 dereferenceable(8) %body)
          to label %invoke.cont46 unwind label %lpad45

invoke.cont46:                                    ; preds = %invoke.cont43
  invoke void @_ZN4cvc58internal11NodeManager6mkNodeENS0_4kind6Kind_tENS0_12NodeTemplateILb0EEES5_(ptr sret(%"class.cvc5::internal::NodeTemplate") align 8 %agg.result, ptr noundef nonnull align 8 dereferenceable(3360) %call41, i32 noundef 26, ptr noundef %agg.tmp42, ptr noundef %agg.tmp44)
          to label %invoke.cont48 unwind label %lpad47

invoke.cont48:                                    ; preds = %invoke.cont46
  call void @_ZN4cvc58internal12NodeTemplateILb0EED2Ev(ptr noundef nonnull align 8 dereferenceable(8) %agg.tmp44) #3
  call void @_ZN4cvc58internal12NodeTemplateILb0EED2Ev(ptr noundef nonnull align 8 dereferenceable(8) %agg.tmp42) #3
  store i32 1, ptr %cleanup.dest.slot, align 4
  br label %cleanup

lpad:                                             ; preds = %cond.end, %invoke.cont10, %invoke.cont8, %invoke.cont6, %invoke.cont4, %invoke.cont3, %cond.false, %cond.true, %entry
  %0 = landingpad { ptr, i32 }
          cleanup
  %1 = extractvalue { ptr, i32 } %0, 0
  store ptr %1, ptr %exn.slot, align 8
  %2 = extractvalue { ptr, i32 } %0, 1
  store i32 %2, ptr %ehselector.slot, align 4
  br label %ehcleanup69

lpad16:                                           ; preds = %invoke.cont14
  %3 = landingpad { ptr, i32 }
          cleanup
  %4 = extractvalue { ptr, i32 } %3, 0
  store ptr %4, ptr %exn.slot, align 8
  %5 = extractvalue { ptr, i32 } %3, 1
  store i32 %5, ptr %ehselector.slot, align 4
  br label %ehcleanup

lpad18:                                           ; preds = %invoke.cont17
  %6 = landingpad { ptr, i32 }
          cleanup
  %7 = extractvalue { ptr, i32 } %6, 0
  store ptr %7, ptr %exn.slot, align 8
  %8 = extractvalue { ptr, i32 } %6, 1
  store i32 %8, ptr %ehselector.slot, align 4
  call void @_ZN4cvc58internal12NodeTemplateILb0EED2Ev(ptr noundef nonnull align 8 dereferenceable(8) %agg.tmp15) #3
  br label %ehcleanup

ehcleanup:                                        ; preds = %lpad18, %lpad16
  call void @_ZN4cvc58internal12NodeTemplateILb0EED2Ev(ptr noundef nonnull align 8 dereferenceable(8) %agg.tmp) #3
  br label %ehcleanup69

lpad20:                                           ; preds = %cond.end65, %invoke.cont61, %invoke.cont60, %cond.false57, %cond.true54, %if.end, %invoke.cont40, %cond.end39, %invoke.cont35, %invoke.cont33, %invoke.cont32, %cond.false29, %cond.true26, %if.then, %invoke.cont19
  %9 = landingpad { ptr, i32 }
          cleanup
  %10 = extractvalue { ptr, i32 } %9, 0
  store ptr %10, ptr %exn.slot, align 8
  %11 = extractvalue { ptr, i32 } %9, 1
  store i32 %11, ptr %ehselector.slot, align 4
  br label %ehcleanup67

lpad45:                                           ; preds = %invoke.cont43
  %12 = landingpad { ptr, i32 }
          cleanup
  %13 = extractvalue { ptr, i32 } %12, 0
  store ptr %13, ptr %exn.slot, align 8
  %14 = extractvalue { ptr, i32 } %12, 1
  store i32 %14, ptr %ehselector.slot, align 4
  br label %ehcleanup50

lpad47:                                           ; preds = %invoke.cont46
  %15 = landingpad { ptr, i32 }
          cleanup
  %16 = extractvalue { ptr, i32 } %15, 0
  store ptr %16, ptr %exn.slot, align 8
  %17 = extractvalue { ptr, i32 } %15, 1
  store i32 %17, ptr %ehselector.slot, align 4
  call void @_ZN4cvc58internal12NodeTemplateILb0EED2Ev(ptr noundef nonnull align 8 dereferenceable(8) %agg.tmp44) #3
  br label %ehcleanup50

ehcleanup50:                                      ; preds = %lpad47, %lpad45
  call void @_ZN4cvc58internal12NodeTemplateILb0EED2Ev(ptr noundef nonnull align 8 dereferenceable(8) %agg.tmp42) #3
  br label %ehcleanup67

if.end:                                           ; preds = %invoke.cont21
  %call53 = invoke noundef zeroext i1 @_ZN4cvc58internal11__cvc5_truecvbEv(ptr noundef nonnull align 1 dereferenceable(1) %ref.tmp51)
          to label %invoke.cont52 unwind label %lpad20

invoke.cont52:                                    ; preds = %if.end
  br i1 %call53, label %cond.true54, label %cond.false57

cond.true54:                                      ; preds = %invoke.cont52
  invoke void @_ZNK4cvc58internal5NullCcvNS0_11Cvc5ostreamEEv(ptr sret(%"class.cvc5::internal::Cvc5ostream") align 8 %tmp55, ptr noundef nonnull align 1 dereferenceable(1) @_ZN4cvc58internal10nullStreamE)
          to label %invoke.cont56 unwind label %lpad20

invoke.cont56:                                    ; preds = %cond.true54
  br label %cond.end65

cond.false57:                                     ; preds = %invoke.cont52
  invoke void @_ZNK4cvc58internal6TraceCclEv(ptr sret(%"class.cvc5::internal::Cvc5ostream") align 8 %ref.tmp59, ptr noundef nonnull align 8 dereferenceable(32) @_ZN4cvc58internal12TraceChannelE)
          to label %invoke.cont60 unwind label %lpad20

invoke.cont60:                                    ; preds = %cond.false57
  %call62 = invoke noundef nonnull align 8 dereferenceable(24) ptr @_ZN4cvc58internal11Cvc5ostreamlsIA29_cEERS1_RKT_(ptr noundef nonnull align 8 dereferenceable(24) %ref.tmp59, ptr noundef nonnull align 1 dereferenceable(29) @.str.3)
          to label %invoke.cont61 unwind label %lpad20

invoke.cont61:                                    ; preds = %invoke.cont60
  %call64 = invoke noundef nonnull align 8 dereferenceable(24) ptr @_ZN4cvc58internal11Cvc5ostreamlsEPFRSoS2_E(ptr noundef nonnull align 8 dereferenceable(24) %call62, ptr noundef @_ZSt4endlIcSt11char_traitsIcEERSt13basic_ostreamIT_T0_ES6_)
          to label %invoke.cont63 unwind label %lpad20

invoke.cont63:                                    ; preds = %invoke.cont61
  call void @llvm.memcpy.p0.p0.i64(ptr align 8 %agg.tmp.ensured58, ptr align 8 %call64, i64 24, i1 false)
  br label %cond.end65

cond.end65:                                       ; preds = %invoke.cont63, %invoke.cont56
  invoke void @_ZN4cvc58internal12NodeTemplateILb1EE4nullEv(ptr sret(%"class.cvc5::internal::NodeTemplate") align 8 %agg.result)
          to label %invoke.cont66 unwind label %lpad20

invoke.cont66:                                    ; preds = %cond.end65
  store i32 1, ptr %cleanup.dest.slot, align 4
  br label %cleanup

cleanup:                                          ; preds = %invoke.cont66, %invoke.cont48
  call void @_ZN4cvc58internal12NodeTemplateILb1EED2Ev(ptr noundef nonnull align 8 dereferenceable(8) %body) #3
  call void @_ZNSt13unordered_mapIN4cvc58internal12NodeTemplateILb0EEENS2_ILb1EEESt4hashIS3_ESt8equal_toIS3_ESaISt4pairIKS3_S4_EEED2Ev(ptr noundef nonnull align 8 dereferenceable(56) %visited) #3
  ret void

ehcleanup67:                                      ; preds = %ehcleanup50, %lpad20
  call void @_ZN4cvc58internal12NodeTemplateILb1EED2Ev(ptr noundef nonnull align 8 dereferenceable(8) %body) #3
  br label %ehcleanup69

ehcleanup69:                                      ; preds = %ehcleanup67, %ehcleanup, %lpad
  call void @_ZNSt13unordered_mapIN4cvc58internal12NodeTemplateILb0EEENS2_ILb1EEESt4hashIS3_ESt8equal_toIS3_ESaISt4pairIKS3_S4_EEED2Ev(ptr noundef nonnull align 8 dereferenceable(56) %visited) #3
  br label %eh.resume

eh.resume:                                        ; preds = %ehcleanup69
  %exn = load ptr, ptr %exn.slot, align 8
  %sel = load i32, ptr %ehselector.slot, align 4
  %lpad.val = insertvalue { ptr, i32 } poison, ptr %exn, 0
  %lpad.val70 = insertvalue { ptr, i32 } %lpad.val, i32 %sel, 1
  resume { ptr, i32 } %lpad.val70
}

; Function Attrs: mustprogress uwtable
define linkonce_odr hidden void @_ZN4cvc58internal12NodeTemplateILb0EE12setAttributeINS0_4expr9AttributeINS0_6theory2uf16ArrayToLambdaTagENS1_ILb1EEEEEEEvRKT_RKNSB_10value_typeE(ptr noundef nonnull align 8 dereferenceable(8) %this, ptr noundef nonnull align 1 dereferenceable(1) %0, ptr noundef nonnull align 8 dereferenceable(8) %value) #4 comdat align 2 personality ptr @__gxx_personality_v0 {
entry:
  %this.addr = alloca ptr, align 8
  %.addr = alloca ptr, align 8
  %value.addr = alloca ptr, align 8
  %agg.tmp = alloca %"class.cvc5::internal::NodeTemplate.0", align 8
  %ref.tmp = alloca %"class.cvc5::internal::expr::Attribute", align 1
  %exn.slot = alloca ptr, align 8
  %ehselector.slot = alloca i32, align 4
  store ptr %this, ptr %this.addr, align 8
  store ptr %0, ptr %.addr, align 8
  store ptr %value, ptr %value.addr, align 8
  %this1 = load ptr, ptr %this.addr, align 8
  call void @_ZNK4cvc58internal12NodeTemplateILb0EE21assertTNodeNotExpiredEv(ptr noundef nonnull align 8 dereferenceable(8) %this1)
  %call = call noundef ptr @_ZN4cvc58internal11NodeManager9currentNMEv()
  call void @_ZN4cvc58internal12NodeTemplateILb0EEC2ERKS2_(ptr noundef nonnull align 8 dereferenceable(8) %agg.tmp, ptr noundef nonnull align 8 dereferenceable(8) %this1)
  %1 = load ptr, ptr %value.addr, align 8
  invoke void @_ZN4cvc58internal11NodeManager12setAttributeINS0_4expr9AttributeINS0_6theory2uf16ArrayToLambdaTagENS0_12NodeTemplateILb1EEEEEEEvNS8_ILb0EEERKT_RKNSC_10value_typeE(ptr noundef nonnull align 8 dereferenceable(3360) %call, ptr noundef %agg.tmp, ptr noundef nonnull align 1 dereferenceable(1) %ref.tmp, ptr noundef nonnull align 8 dereferenceable(8) %1)
          to label %invoke.cont unwind label %lpad

invoke.cont:                                      ; preds = %entry
  call void @_ZN4cvc58internal12NodeTemplateILb0EED2Ev(ptr noundef nonnull align 8 dereferenceable(8) %agg.tmp) #3
  ret void

lpad:                                             ; preds = %entry
  %2 = landingpad { ptr, i32 }
          cleanup
  %3 = extractvalue { ptr, i32 } %2, 0
  store ptr %3, ptr %exn.slot, align 8
  %4 = extractvalue { ptr, i32 } %2, 1
  store i32 %4, ptr %ehselector.slot, align 4
  call void @_ZN4cvc58internal12NodeTemplateILb0EED2Ev(ptr noundef nonnull align 8 dereferenceable(8) %agg.tmp) #3
  br label %eh.resume

eh.resume:                                        ; preds = %lpad
  %exn = load ptr, ptr %exn.slot, align 8
  %sel = load i32, ptr %ehselector.slot, align 4
  %lpad.val = insertvalue { ptr, i32 } poison, ptr %exn, 0
  %lpad.val2 = insertvalue { ptr, i32 } %lpad.val, i32 %sel, 1
  resume { ptr, i32 } %lpad.val2
}

; Function Attrs: mustprogress nounwind uwtable
define linkonce_odr hidden void @_ZNSt6vectorIN4cvc58internal12NodeTemplateILb1EEESaIS3_EED2Ev(ptr noundef nonnull align 8 dereferenceable(24) %this) unnamed_addr #5 comdat align 2 personality ptr @__gxx_personality_v0 {
entry:
  %this.addr = alloca ptr, align 8
  store ptr %this, ptr %this.addr, align 8
  %this1 = load ptr, ptr %this.addr, align 8
  %_M_impl = getelementptr inbounds %"struct.std::_Vector_base.12", ptr %this1, i32 0, i32 0
  %_M_start = getelementptr inbounds %"struct.std::_Vector_base<cvc5::internal::NodeTemplate<true>, std::allocator<cvc5::internal::NodeTemplate<true>>>::_Vector_impl_data", ptr %_M_impl, i32 0, i32 0
  %0 = load ptr, ptr %_M_start, align 8
  %_M_impl2 = getelementptr inbounds %"struct.std::_Vector_base.12", ptr %this1, i32 0, i32 0
  %_M_finish = getelementptr inbounds %"struct.std::_Vector_base<cvc5::internal::NodeTemplate<true>, std::allocator<cvc5::internal::NodeTemplate<true>>>::_Vector_impl_data", ptr %_M_impl2, i32 0, i32 1
  %1 = load ptr, ptr %_M_finish, align 8
  %call = call noundef nonnull align 1 dereferenceable(1) ptr @_ZNSt12_Vector_baseIN4cvc58internal12NodeTemplateILb1EEESaIS3_EE19_M_get_Tp_allocatorEv(ptr noundef nonnull align 8 dereferenceable(24) %this1) #3
  invoke void @_ZSt8_DestroyIPN4cvc58internal12NodeTemplateILb1EEES3_EvT_S5_RSaIT0_E(ptr noundef %0, ptr noundef %1, ptr noundef nonnull align 1 dereferenceable(1) %call)
          to label %invoke.cont unwind label %terminate.lpad

invoke.cont:                                      ; preds = %entry
  call void @_ZNSt12_Vector_baseIN4cvc58internal12NodeTemplateILb1EEESaIS3_EED2Ev(ptr noundef nonnull align 8 dereferenceable(24) %this1) #3
  ret void

terminate.lpad:                                   ; preds = %entry
  %2 = landingpad { ptr, i32 }
          catch ptr null
  %3 = extractvalue { ptr, i32 } %2, 0
  call void @__clang_call_terminate(ptr %3) #14
  unreachable
}

; Function Attrs: mustprogress nounwind uwtable
define linkonce_odr hidden void @_ZNSt6vectorIN4cvc58internal8TypeNodeESaIS2_EED2Ev(ptr noundef nonnull align 8 dereferenceable(24) %this) unnamed_addr #5 comdat align 2 personality ptr @__gxx_personality_v0 {
entry:
  %this.addr = alloca ptr, align 8
  store ptr %this, ptr %this.addr, align 8
  %this1 = load ptr, ptr %this.addr, align 8
  %_M_impl = getelementptr inbounds %"struct.std::_Vector_base", ptr %this1, i32 0, i32 0
  %_M_start = getelementptr inbounds %"struct.std::_Vector_base<cvc5::internal::TypeNode, std::allocator<cvc5::internal::TypeNode>>::_Vector_impl_data", ptr %_M_impl, i32 0, i32 0
  %0 = load ptr, ptr %_M_start, align 8
  %_M_impl2 = getelementptr inbounds %"struct.std::_Vector_base", ptr %this1, i32 0, i32 0
  %_M_finish = getelementptr inbounds %"struct.std::_Vector_base<cvc5::internal::TypeNode, std::allocator<cvc5::internal::TypeNode>>::_Vector_impl_data", ptr %_M_impl2, i32 0, i32 1
  %1 = load ptr, ptr %_M_finish, align 8
  %call = call noundef nonnull align 1 dereferenceable(1) ptr @_ZNSt12_Vector_baseIN4cvc58internal8TypeNodeESaIS2_EE19_M_get_Tp_allocatorEv(ptr noundef nonnull align 8 dereferenceable(24) %this1) #3
  invoke void @_ZSt8_DestroyIPN4cvc58internal8TypeNodeES2_EvT_S4_RSaIT0_E(ptr noundef %0, ptr noundef %1, ptr noundef nonnull align 1 dereferenceable(1) %call)
          to label %invoke.cont unwind label %terminate.lpad

invoke.cont:                                      ; preds = %entry
  call void @_ZNSt12_Vector_baseIN4cvc58internal8TypeNodeESaIS2_EED2Ev(ptr noundef nonnull align 8 dereferenceable(24) %this1) #3
  ret void

terminate.lpad:                                   ; preds = %entry
  %2 = landingpad { ptr, i32 }
          catch ptr null
  %3 = extractvalue { ptr, i32 } %2, 0
  call void @__clang_call_terminate(ptr %3) #14
  unreachable
}

; Function Attrs: mustprogress uwtable
define linkonce_odr hidden void @_ZN4cvc58internal12NodeTemplateILb1EE4nullEv(ptr noalias sret(%"class.cvc5::internal::NodeTemplate") align 8 %agg.result) #4 comdat align 2 {
entry:
  %result.ptr = alloca ptr, align 8
  store ptr %agg.result, ptr %result.ptr, align 8
  call void @_ZN4cvc58internal12NodeTemplateILb1EEC2ERKS2_(ptr noundef nonnull align 8 dereferenceable(8) %agg.result, ptr noundef nonnull align 8 dereferenceable(8) @_ZN4cvc58internal12NodeTemplateILb1EE6s_nullE)
  ret void
}

; Function Attrs: mustprogress uwtable
define hidden void @_ZN4cvc58internal6theory2uf13FunctionConst27getFunctionTypeForArrayTypeENS0_8TypeNodeENS0_12NodeTemplateILb1EEE(ptr noalias sret(%"class.cvc5::internal::TypeNode") align 8 %agg.result, ptr noundef %atn, ptr noundef %bvl) #4 align 2 personality ptr @__gxx_personality_v0 {
entry:
  %result.ptr = alloca ptr, align 8
  %atn.indirect_addr = alloca ptr, align 8
  %bvl.indirect_addr = alloca ptr, align 8
  %children = alloca %"class.std::vector", align 8
  %i = alloca i32, align 4
  %exn.slot = alloca ptr, align 8
  %ehselector.slot = alloca i32, align 4
  %ref.tmp = alloca %"class.cvc5::internal::TypeNode", align 8
  %ref.tmp4 = alloca %"class.cvc5::internal::TypeNode", align 8
  store ptr %agg.result, ptr %result.ptr, align 8
  store ptr %atn, ptr %atn.indirect_addr, align 8
  store ptr %bvl, ptr %bvl.indirect_addr, align 8
  call void @_ZNSt6vectorIN4cvc58internal8TypeNodeESaIS2_EEC2Ev(ptr noundef nonnull align 8 dereferenceable(24) %children) #3
  store i32 0, ptr %i, align 4
  br label %for.cond

for.cond:                                         ; preds = %for.inc, %entry
  %0 = load i32, ptr %i, align 4
  %conv = zext i32 %0 to i64
  %call = invoke noundef i64 @_ZNK4cvc58internal12NodeTemplateILb1EE14getNumChildrenEv(ptr noundef nonnull align 8 dereferenceable(8) %bvl)
          to label %invoke.cont unwind label %lpad

invoke.cont:                                      ; preds = %for.cond
  %cmp = icmp ult i64 %conv, %call
  br i1 %cmp, label %for.body, label %for.end

for.body:                                         ; preds = %invoke.cont
  invoke void @_ZNK4cvc58internal8TypeNode17getArrayIndexTypeEv(ptr sret(%"class.cvc5::internal::TypeNode") align 8 %ref.tmp, ptr noundef nonnull align 8 dereferenceable(8) %atn)
          to label %invoke.cont1 unwind label %lpad

invoke.cont1:                                     ; preds = %for.body
  invoke void @_ZNSt6vectorIN4cvc58internal8TypeNodeESaIS2_EE9push_backEOS2_(ptr noundef nonnull align 8 dereferenceable(24) %children, ptr noundef nonnull align 8 dereferenceable(8) %ref.tmp)
          to label %invoke.cont3 unwind label %lpad2

invoke.cont3:                                     ; preds = %invoke.cont1
  call void @_ZN4cvc58internal8TypeNodeD2Ev(ptr noundef nonnull align 8 dereferenceable(8) %ref.tmp) #3
  invoke void @_ZNK4cvc58internal8TypeNode23getArrayConstituentTypeEv(ptr sret(%"class.cvc5::internal::TypeNode") align 8 %ref.tmp4, ptr noundef nonnull align 8 dereferenceable(8) %atn)
          to label %invoke.cont5 unwind label %lpad

invoke.cont5:                                     ; preds = %invoke.cont3
  %call8 = invoke noundef nonnull align 8 dereferenceable(8) ptr @_ZN4cvc58internal8TypeNodeaSERKS1_(ptr noundef nonnull align 8 dereferenceable(8) %atn, ptr noundef nonnull align 8 dereferenceable(8) %ref.tmp4)
          to label %invoke.cont7 unwind label %lpad6

invoke.cont7:                                     ; preds = %invoke.cont5
  call void @_ZN4cvc58internal8TypeNodeD2Ev(ptr noundef nonnull align 8 dereferenceable(8) %ref.tmp4) #3
  br label %for.inc

for.inc:                                          ; preds = %invoke.cont7
  %1 = load i32, ptr %i, align 4
  %inc = add i32 %1, 1
  store i32 %inc, ptr %i, align 4
  br label %for.cond, !llvm.loop !6

lpad:                                             ; preds = %invoke.cont10, %invoke.cont9, %for.end, %invoke.cont3, %for.body, %for.cond
  %2 = landingpad { ptr, i32 }
          cleanup
  %3 = extractvalue { ptr, i32 } %2, 0
  store ptr %3, ptr %exn.slot, align 8
  %4 = extractvalue { ptr, i32 } %2, 1
  store i32 %4, ptr %ehselector.slot, align 4
  br label %ehcleanup

lpad2:                                            ; preds = %invoke.cont1
  %5 = landingpad { ptr, i32 }
          cleanup
  %6 = extractvalue { ptr, i32 } %5, 0
  store ptr %6, ptr %exn.slot, align 8
  %7 = extractvalue { ptr, i32 } %5, 1
  store i32 %7, ptr %ehselector.slot, align 4
  call void @_ZN4cvc58internal8TypeNodeD2Ev(ptr noundef nonnull align 8 dereferenceable(8) %ref.tmp) #3
  br label %ehcleanup

lpad6:                                            ; preds = %invoke.cont5
  %8 = landingpad { ptr, i32 }
          cleanup
  %9 = extractvalue { ptr, i32 } %8, 0
  store ptr %9, ptr %exn.slot, align 8
  %10 = extractvalue { ptr, i32 } %8, 1
  store i32 %10, ptr %ehselector.slot, align 4
  call void @_ZN4cvc58internal8TypeNodeD2Ev(ptr noundef nonnull align 8 dereferenceable(8) %ref.tmp4) #3
  br label %ehcleanup

for.end:                                          ; preds = %invoke.cont
  invoke void @_ZNSt6vectorIN4cvc58internal8TypeNodeESaIS2_EE9push_backERKS2_(ptr noundef nonnull align 8 dereferenceable(24) %children, ptr noundef nonnull align 8 dereferenceable(8) %atn)
          to label %invoke.cont9 unwind label %lpad

invoke.cont9:                                     ; preds = %for.end
  %call11 = invoke noundef ptr @_ZN4cvc58internal11NodeManager9currentNMEv()
          to label %invoke.cont10 unwind label %lpad

invoke.cont10:                                    ; preds = %invoke.cont9
  invoke void @_ZN4cvc58internal11NodeManager14mkFunctionTypeERKSt6vectorINS0_8TypeNodeESaIS3_EE(ptr sret(%"class.cvc5::internal::TypeNode") align 8 %agg.result, ptr noundef nonnull align 8 dereferenceable(3360) %call11, ptr noundef nonnull align 8 dereferenceable(24) %children)
          to label %invoke.cont12 unwind label %lpad

invoke.cont12:                                    ; preds = %invoke.cont10
  call void @_ZNSt6vectorIN4cvc58internal8TypeNodeESaIS2_EED2Ev(ptr noundef nonnull align 8 dereferenceable(24) %children) #3
  ret void

ehcleanup:                                        ; preds = %lpad6, %lpad2, %lpad
  call void @_ZNSt6vectorIN4cvc58internal8TypeNodeESaIS2_EED2Ev(ptr noundef nonnull align 8 dereferenceable(24) %children) #3
  br label %eh.resume

eh.resume:                                        ; preds = %ehcleanup
  %exn = load ptr, ptr %exn.slot, align 8
  %sel = load i32, ptr %ehselector.slot, align 4
  %lpad.val = insertvalue { ptr, i32 } poison, ptr %exn, 0
  %lpad.val13 = insertvalue { ptr, i32 } %lpad.val, i32 %sel, 1
  resume { ptr, i32 } %lpad.val13
}

; Function Attrs: mustprogress nounwind uwtable
define linkonce_odr hidden void @_ZNSt6vectorIN4cvc58internal8TypeNodeESaIS2_EEC2Ev(ptr noundef nonnull align 8 dereferenceable(24) %this) unnamed_addr #5 comdat align 2 {
entry:
  %this.addr = alloca ptr, align 8
  store ptr %this, ptr %this.addr, align 8
  %this1 = load ptr, ptr %this.addr, align 8
  call void @_ZNSt12_Vector_baseIN4cvc58internal8TypeNodeESaIS2_EEC2Ev(ptr noundef nonnull align 8 dereferenceable(24) %this1) #3
  ret void
}

; Function Attrs: mustprogress uwtable
define linkonce_odr hidden noundef i64 @_ZNK4cvc58internal12NodeTemplateILb1EE14getNumChildrenEv(ptr noundef nonnull align 8 dereferenceable(8) %this) #4 comdat align 2 {
entry:
  %this.addr = alloca ptr, align 8
  store ptr %this, ptr %this.addr, align 8
  %this1 = load ptr, ptr %this.addr, align 8
  call void @_ZNK4cvc58internal12NodeTemplateILb1EE21assertTNodeNotExpiredEv(ptr noundef nonnull align 8 dereferenceable(8) %this1)
  %d_nv = getelementptr inbounds %"class.cvc5::internal::NodeTemplate", ptr %this1, i32 0, i32 0
  %0 = load ptr, ptr %d_nv, align 8
  %call = call noundef i32 @_ZNK4cvc58internal4expr9NodeValue14getNumChildrenEv(ptr noundef nonnull align 8 dereferenceable(16) %0)
  %conv = zext i32 %call to i64
  ret i64 %conv
}

; Function Attrs: mustprogress uwtable
define linkonce_odr hidden void @_ZNSt6vectorIN4cvc58internal8TypeNodeESaIS2_EE9push_backEOS2_(ptr noundef nonnull align 8 dereferenceable(24) %this, ptr noundef nonnull align 8 dereferenceable(8) %__x) #4 comdat align 2 {
entry:
  %this.addr = alloca ptr, align 8
  %__x.addr = alloca ptr, align 8
  store ptr %this, ptr %this.addr, align 8
  store ptr %__x, ptr %__x.addr, align 8
  %this1 = load ptr, ptr %this.addr, align 8
  %0 = load ptr, ptr %__x.addr, align 8
  %call = call noundef nonnull align 8 dereferenceable(8) ptr @_ZNSt6vectorIN4cvc58internal8TypeNodeESaIS2_EE12emplace_backIJS2_EEERS2_DpOT_(ptr noundef nonnull align 8 dereferenceable(24) %this1, ptr noundef nonnull align 8 dereferenceable(8) %0)
  ret void
}

; Function Attrs: mustprogress uwtable
define linkonce_odr hidden void @_ZNK4cvc58internal8TypeNode17getArrayIndexTypeEv(ptr noalias sret(%"class.cvc5::internal::TypeNode") align 8 %agg.result, ptr noundef nonnull align 8 dereferenceable(8) %this) #4 comdat align 2 {
entry:
  %result.ptr = alloca ptr, align 8
  %this.addr = alloca ptr, align 8
  store ptr %agg.result, ptr %result.ptr, align 8
  store ptr %this, ptr %this.addr, align 8
  %this1 = load ptr, ptr %this.addr, align 8
  call void @_ZNK4cvc58internal8TypeNodeixEi(ptr sret(%"class.cvc5::internal::TypeNode") align 8 %agg.result, ptr noundef nonnull align 8 dereferenceable(8) %this1, i32 noundef 0)
  ret void
}

; Function Attrs: mustprogress uwtable
define linkonce_odr hidden void @_ZNK4cvc58internal8TypeNode23getArrayConstituentTypeEv(ptr noalias sret(%"class.cvc5::internal::TypeNode") align 8 %agg.result, ptr noundef nonnull align 8 dereferenceable(8) %this) #4 comdat align 2 {
entry:
  %result.ptr = alloca ptr, align 8
  %this.addr = alloca ptr, align 8
  store ptr %agg.result, ptr %result.ptr, align 8
  store ptr %this, ptr %this.addr, align 8
  %this1 = load ptr, ptr %this.addr, align 8
  call void @_ZNK4cvc58internal8TypeNodeixEi(ptr sret(%"class.cvc5::internal::TypeNode") align 8 %agg.result, ptr noundef nonnull align 8 dereferenceable(8) %this1, i32 noundef 1)
  ret void
}

; Function Attrs: mustprogress uwtable
define linkonce_odr hidden noundef nonnull align 8 dereferenceable(8) ptr @_ZN4cvc58internal8TypeNodeaSERKS1_(ptr noundef nonnull align 8 dereferenceable(8) %this, ptr noundef nonnull align 8 dereferenceable(8) %typeNode) #4 comdat align 2 {
entry:
  %this.addr = alloca ptr, align 8
  %typeNode.addr = alloca ptr, align 8
  store ptr %this, ptr %this.addr, align 8
  store ptr %typeNode, ptr %typeNode.addr, align 8
  %this1 = load ptr, ptr %this.addr, align 8
  %d_nv = getelementptr inbounds %"class.cvc5::internal::TypeNode", ptr %this1, i32 0, i32 0
  %0 = load ptr, ptr %d_nv, align 8
  %1 = load ptr, ptr %typeNode.addr, align 8
  %d_nv2 = getelementptr inbounds %"class.cvc5::internal::TypeNode", ptr %1, i32 0, i32 0
  %2 = load ptr, ptr %d_nv2, align 8
  %cmp = icmp ne ptr %0, %2
  br i1 %cmp, label %if.then, label %if.end

if.then:                                          ; preds = %entry
  %d_nv3 = getelementptr inbounds %"class.cvc5::internal::TypeNode", ptr %this1, i32 0, i32 0
  %3 = load ptr, ptr %d_nv3, align 8
  call void @_ZN4cvc58internal4expr9NodeValue3decEv(ptr noundef nonnull align 8 dereferenceable(16) %3)
  %4 = load ptr, ptr %typeNode.addr, align 8
  %d_nv4 = getelementptr inbounds %"class.cvc5::internal::TypeNode", ptr %4, i32 0, i32 0
  %5 = load ptr, ptr %d_nv4, align 8
  %d_nv5 = getelementptr inbounds %"class.cvc5::internal::TypeNode", ptr %this1, i32 0, i32 0
  store ptr %5, ptr %d_nv5, align 8
  %d_nv6 = getelementptr inbounds %"class.cvc5::internal::TypeNode", ptr %this1, i32 0, i32 0
  %6 = load ptr, ptr %d_nv6, align 8
  call void @_ZN4cvc58internal4expr9NodeValue3incEv(ptr noundef nonnull align 8 dereferenceable(16) %6)
  br label %if.end

if.end:                                           ; preds = %if.then, %entry
  ret ptr %this1
}

; Function Attrs: mustprogress uwtable
define linkonce_odr hidden void @_ZNSt6vectorIN4cvc58internal8TypeNodeESaIS2_EE9push_backERKS2_(ptr noundef nonnull align 8 dereferenceable(24) %this, ptr noundef nonnull align 8 dereferenceable(8) %__x) #4 comdat align 2 {
entry:
  %this.addr = alloca ptr, align 8
  %__x.addr = alloca ptr, align 8
  %agg.tmp = alloca %"class.__gnu_cxx::__normal_iterator.262", align 8
  store ptr %this, ptr %this.addr, align 8
  store ptr %__x, ptr %__x.addr, align 8
  %this1 = load ptr, ptr %this.addr, align 8
  %_M_impl = getelementptr inbounds %"struct.std::_Vector_base", ptr %this1, i32 0, i32 0
  %_M_finish = getelementptr inbounds %"struct.std::_Vector_base<cvc5::internal::TypeNode, std::allocator<cvc5::internal::TypeNode>>::_Vector_impl_data", ptr %_M_impl, i32 0, i32 1
  %0 = load ptr, ptr %_M_finish, align 8
  %_M_impl2 = getelementptr inbounds %"struct.std::_Vector_base", ptr %this1, i32 0, i32 0
  %_M_end_of_storage = getelementptr inbounds %"struct.std::_Vector_base<cvc5::internal::TypeNode, std::allocator<cvc5::internal::TypeNode>>::_Vector_impl_data", ptr %_M_impl2, i32 0, i32 2
  %1 = load ptr, ptr %_M_end_of_storage, align 8
  %cmp = icmp ne ptr %0, %1
  br i1 %cmp, label %if.then, label %if.else

if.then:                                          ; preds = %entry
  %_M_impl3 = getelementptr inbounds %"struct.std::_Vector_base", ptr %this1, i32 0, i32 0
  %_M_impl4 = getelementptr inbounds %"struct.std::_Vector_base", ptr %this1, i32 0, i32 0
  %_M_finish5 = getelementptr inbounds %"struct.std::_Vector_base<cvc5::internal::TypeNode, std::allocator<cvc5::internal::TypeNode>>::_Vector_impl_data", ptr %_M_impl4, i32 0, i32 1
  %2 = load ptr, ptr %_M_finish5, align 8
  %3 = load ptr, ptr %__x.addr, align 8
  call void @_ZNSt16allocator_traitsISaIN4cvc58internal8TypeNodeEEE9constructIS2_JRKS2_EEEvRS3_PT_DpOT0_(ptr noundef nonnull align 1 dereferenceable(1) %_M_impl3, ptr noundef %2, ptr noundef nonnull align 8 dereferenceable(8) %3)
  %_M_impl6 = getelementptr inbounds %"struct.std::_Vector_base", ptr %this1, i32 0, i32 0
  %_M_finish7 = getelementptr inbounds %"struct.std::_Vector_base<cvc5::internal::TypeNode, std::allocator<cvc5::internal::TypeNode>>::_Vector_impl_data", ptr %_M_impl6, i32 0, i32 1
  %4 = load ptr, ptr %_M_finish7, align 8
  %incdec.ptr = getelementptr inbounds %"class.cvc5::internal::TypeNode", ptr %4, i32 1
  store ptr %incdec.ptr, ptr %_M_finish7, align 8
  br label %if.end

if.else:                                          ; preds = %entry
  %call = call ptr @_ZNSt6vectorIN4cvc58internal8TypeNodeESaIS2_EE3endEv(ptr noundef nonnull align 8 dereferenceable(24) %this1) #3
  %coerce.dive = getelementptr inbounds %"class.__gnu_cxx::__normal_iterator.262", ptr %agg.tmp, i32 0, i32 0
  store ptr %call, ptr %coerce.dive, align 8
  %5 = load ptr, ptr %__x.addr, align 8
  %coerce.dive8 = getelementptr inbounds %"class.__gnu_cxx::__normal_iterator.262", ptr %agg.tmp, i32 0, i32 0
  %6 = load ptr, ptr %coerce.dive8, align 8
  call void @_ZNSt6vectorIN4cvc58internal8TypeNodeESaIS2_EE17_M_realloc_insertIJRKS2_EEEvN9__gnu_cxx17__normal_iteratorIPS2_S4_EEDpOT_(ptr noundef nonnull align 8 dereferenceable(24) %this1, ptr %6, ptr noundef nonnull align 8 dereferenceable(8) %5)
  br label %if.end

if.end:                                           ; preds = %if.else, %if.then
  ret void
}

declare void @_ZN4cvc58internal11NodeManager14mkFunctionTypeERKSt6vectorINS0_8TypeNodeESaIS3_EE(ptr sret(%"class.cvc5::internal::TypeNode") align 8, ptr noundef nonnull align 8 dereferenceable(3360), ptr noundef nonnull align 8 dereferenceable(24)) #1

; Function Attrs: mustprogress uwtable
define hidden void @_ZN4cvc58internal6theory2uf13FunctionConst27getArrayTypeForFunctionTypeENS0_8TypeNodeE(ptr noalias sret(%"class.cvc5::internal::TypeNode") align 8 %agg.result, ptr noundef %ftn) #4 align 2 personality ptr @__gxx_personality_v0 {
entry:
  %result.ptr = alloca ptr, align 8
  %ftn.indirect_addr = alloca ptr, align 8
  %nchildren = alloca i64, align 8
  %nrvo = alloca i1, align 1
  %i = alloca i64, align 8
  %ii = alloca i64, align 8
  %ref.tmp = alloca %"class.cvc5::internal::TypeNode", align 8
  %exn.slot = alloca ptr, align 8
  %ehselector.slot = alloca i32, align 4
  %agg.tmp = alloca %"class.cvc5::internal::TypeNode", align 8
  %agg.tmp7 = alloca %"class.cvc5::internal::TypeNode", align 8
  store ptr %agg.result, ptr %result.ptr, align 8
  store ptr %ftn, ptr %ftn.indirect_addr, align 8
  %call = call noundef i64 @_ZNK4cvc58internal8TypeNode14getNumChildrenEv(ptr noundef nonnull align 8 dereferenceable(8) %ftn)
  store i64 %call, ptr %nchildren, align 8
  store i1 false, ptr %nrvo, align 1
  %0 = load i64, ptr %nchildren, align 8
  %sub = sub i64 %0, 1
  %conv = trunc i64 %sub to i32
  call void @_ZNK4cvc58internal8TypeNodeixEi(ptr sret(%"class.cvc5::internal::TypeNode") align 8 %agg.result, ptr noundef nonnull align 8 dereferenceable(8) %ftn, i32 noundef %conv)
  store i64 0, ptr %i, align 8
  br label %for.cond

for.cond:                                         ; preds = %for.inc, %entry
  %1 = load i64, ptr %i, align 8
  %2 = load i64, ptr %nchildren, align 8
  %sub1 = sub i64 %2, 1
  %cmp = icmp ult i64 %1, %sub1
  br i1 %cmp, label %for.body, label %for.end

for.body:                                         ; preds = %for.cond
  %3 = load i64, ptr %nchildren, align 8
  %4 = load i64, ptr %i, align 8
  %sub2 = sub i64 %3, %4
  %sub3 = sub i64 %sub2, 2
  store i64 %sub3, ptr %ii, align 8
  %call4 = invoke noundef ptr @_ZN4cvc58internal11NodeManager9currentNMEv()
          to label %invoke.cont unwind label %lpad

invoke.cont:                                      ; preds = %for.body
  %5 = load i64, ptr %ii, align 8
  %conv5 = trunc i64 %5 to i32
  invoke void @_ZNK4cvc58internal8TypeNodeixEi(ptr sret(%"class.cvc5::internal::TypeNode") align 8 %agg.tmp, ptr noundef nonnull align 8 dereferenceable(8) %ftn, i32 noundef %conv5)
          to label %invoke.cont6 unwind label %lpad

invoke.cont6:                                     ; preds = %invoke.cont
  invoke void @_ZN4cvc58internal8TypeNodeC2ERKS1_(ptr noundef nonnull align 8 dereferenceable(8) %agg.tmp7, ptr noundef nonnull align 8 dereferenceable(8) %agg.result)
          to label %invoke.cont9 unwind label %lpad8

invoke.cont9:                                     ; preds = %invoke.cont6
  invoke void @_ZN4cvc58internal11NodeManager11mkArrayTypeENS0_8TypeNodeES2_(ptr sret(%"class.cvc5::internal::TypeNode") align 8 %ref.tmp, ptr noundef nonnull align 8 dereferenceable(3360) %call4, ptr noundef %agg.tmp, ptr noundef %agg.tmp7)
          to label %invoke.cont11 unwind label %lpad10

invoke.cont11:                                    ; preds = %invoke.cont9
  %call14 = invoke noundef nonnull align 8 dereferenceable(8) ptr @_ZN4cvc58internal8TypeNodeaSERKS1_(ptr noundef nonnull align 8 dereferenceable(8) %agg.result, ptr noundef nonnull align 8 dereferenceable(8) %ref.tmp)
          to label %invoke.cont13 unwind label %lpad12

invoke.cont13:                                    ; preds = %invoke.cont11
  call void @_ZN4cvc58internal8TypeNodeD2Ev(ptr noundef nonnull align 8 dereferenceable(8) %ref.tmp) #3
  call void @_ZN4cvc58internal8TypeNodeD2Ev(ptr noundef nonnull align 8 dereferenceable(8) %agg.tmp7) #3
  call void @_ZN4cvc58internal8TypeNodeD2Ev(ptr noundef nonnull align 8 dereferenceable(8) %agg.tmp) #3
  br label %for.inc

for.inc:                                          ; preds = %invoke.cont13
  %6 = load i64, ptr %i, align 8
  %inc = add i64 %6, 1
  store i64 %inc, ptr %i, align 8
  br label %for.cond, !llvm.loop !7

lpad:                                             ; preds = %invoke.cont, %for.body
  %7 = landingpad { ptr, i32 }
          cleanup
  %8 = extractvalue { ptr, i32 } %7, 0
  store ptr %8, ptr %exn.slot, align 8
  %9 = extractvalue { ptr, i32 } %7, 1
  store i32 %9, ptr %ehselector.slot, align 4
  br label %ehcleanup16

lpad8:                                            ; preds = %invoke.cont6
  %10 = landingpad { ptr, i32 }
          cleanup
  %11 = extractvalue { ptr, i32 } %10, 0
  store ptr %11, ptr %exn.slot, align 8
  %12 = extractvalue { ptr, i32 } %10, 1
  store i32 %12, ptr %ehselector.slot, align 4
  br label %ehcleanup15

lpad10:                                           ; preds = %invoke.cont9
  %13 = landingpad { ptr, i32 }
          cleanup
  %14 = extractvalue { ptr, i32 } %13, 0
  store ptr %14, ptr %exn.slot, align 8
  %15 = extractvalue { ptr, i32 } %13, 1
  store i32 %15, ptr %ehselector.slot, align 4
  br label %ehcleanup

lpad12:                                           ; preds = %invoke.cont11
  %16 = landingpad { ptr, i32 }
          cleanup
  %17 = extractvalue { ptr, i32 } %16, 0
  store ptr %17, ptr %exn.slot, align 8
  %18 = extractvalue { ptr, i32 } %16, 1
  store i32 %18, ptr %ehselector.slot, align 4
  call void @_ZN4cvc58internal8TypeNodeD2Ev(ptr noundef nonnull align 8 dereferenceable(8) %ref.tmp) #3
  br label %ehcleanup

ehcleanup:                                        ; preds = %lpad12, %lpad10
  call void @_ZN4cvc58internal8TypeNodeD2Ev(ptr noundef nonnull align 8 dereferenceable(8) %agg.tmp7) #3
  br label %ehcleanup15

ehcleanup15:                                      ; preds = %ehcleanup, %lpad8
  call void @_ZN4cvc58internal8TypeNodeD2Ev(ptr noundef nonnull align 8 dereferenceable(8) %agg.tmp) #3
  br label %ehcleanup16

for.end:                                          ; preds = %for.cond
  store i1 true, ptr %nrvo, align 1
  %nrvo.val = load i1, ptr %nrvo, align 1
  br i1 %nrvo.val, label %nrvo.skipdtor, label %nrvo.unused

nrvo.unused:                                      ; preds = %for.end
  call void @_ZN4cvc58internal8TypeNodeD2Ev(ptr noundef nonnull align 8 dereferenceable(8) %agg.result) #3
  br label %nrvo.skipdtor

nrvo.skipdtor:                                    ; preds = %nrvo.unused, %for.end
  ret void

ehcleanup16:                                      ; preds = %ehcleanup15, %lpad
  call void @_ZN4cvc58internal8TypeNodeD2Ev(ptr noundef nonnull align 8 dereferenceable(8) %agg.result) #3
  br label %eh.resume

eh.resume:                                        ; preds = %ehcleanup16
  %exn = load ptr, ptr %exn.slot, align 8
  %sel = load i32, ptr %ehselector.slot, align 4
  %lpad.val = insertvalue { ptr, i32 } poison, ptr %exn, 0
  %lpad.val17 = insertvalue { ptr, i32 } %lpad.val, i32 %sel, 1
  resume { ptr, i32 } %lpad.val17
}

; Function Attrs: mustprogress uwtable
define linkonce_odr hidden noundef i64 @_ZNK4cvc58internal8TypeNode14getNumChildrenEv(ptr noundef nonnull align 8 dereferenceable(8) %this) #4 comdat align 2 {
entry:
  %this.addr = alloca ptr, align 8
  store ptr %this, ptr %this.addr, align 8
  %this1 = load ptr, ptr %this.addr, align 8
  %d_nv = getelementptr inbounds %"class.cvc5::internal::TypeNode", ptr %this1, i32 0, i32 0
  %0 = load ptr, ptr %d_nv, align 8
  %call = call noundef i32 @_ZNK4cvc58internal4expr9NodeValue14getNumChildrenEv(ptr noundef nonnull align 8 dereferenceable(16) %0)
  %conv = zext i32 %call to i64
  ret i64 %conv
}

; Function Attrs: mustprogress uwtable
define linkonce_odr hidden void @_ZNK4cvc58internal8TypeNodeixEi(ptr noalias sret(%"class.cvc5::internal::TypeNode") align 8 %agg.result, ptr noundef nonnull align 8 dereferenceable(8) %this, i32 noundef %i) #4 comdat align 2 {
entry:
  %result.ptr = alloca ptr, align 8
  %this.addr = alloca ptr, align 8
  %i.addr = alloca i32, align 4
  store ptr %agg.result, ptr %result.ptr, align 8
  store ptr %this, ptr %this.addr, align 8
  store i32 %i, ptr %i.addr, align 4
  %this1 = load ptr, ptr %this.addr, align 8
  %d_nv = getelementptr inbounds %"class.cvc5::internal::TypeNode", ptr %this1, i32 0, i32 0
  %0 = load ptr, ptr %d_nv, align 8
  %1 = load i32, ptr %i.addr, align 4
  %call = call noundef ptr @_ZNK4cvc58internal4expr9NodeValue8getChildEi(ptr noundef nonnull align 8 dereferenceable(16) %0, i32 noundef %1)
  call void @_ZN4cvc58internal8TypeNodeC2EPKNS0_4expr9NodeValueE(ptr noundef nonnull align 8 dereferenceable(8) %agg.result, ptr noundef %call)
  ret void
}

; Function Attrs: mustprogress uwtable
define linkonce_odr hidden void @_ZN4cvc58internal11NodeManager11mkArrayTypeENS0_8TypeNodeES2_(ptr noalias sret(%"class.cvc5::internal::TypeNode") align 8 %agg.result, ptr noundef nonnull align 8 dereferenceable(3360) %this, ptr noundef %indexType, ptr noundef %constituentType) #4 comdat align 2 personality ptr @__gxx_personality_v0 {
entry:
  %result.ptr = alloca ptr, align 8
  %this.addr = alloca ptr, align 8
  %indexType.indirect_addr = alloca ptr, align 8
  %constituentType.indirect_addr = alloca ptr, align 8
  %ref.tmp = alloca %"class.cvc5::internal::__cvc5_true", align 1
  %tmp = alloca %"class.cvc5::internal::Cvc5ostream", align 8
  %agg.tmp.ensured = alloca %"class.cvc5::internal::Cvc5ostream", align 8
  %ref.tmp2 = alloca %"class.cvc5::internal::Cvc5ostream", align 8
  %agg.tmp = alloca %"class.cvc5::internal::TypeNode", align 8
  %agg.tmp8 = alloca %"class.cvc5::internal::TypeNode", align 8
  %exn.slot = alloca ptr, align 8
  %ehselector.slot = alloca i32, align 4
  store ptr %agg.result, ptr %result.ptr, align 8
  store ptr %this, ptr %this.addr, align 8
  store ptr %indexType, ptr %indexType.indirect_addr, align 8
  store ptr %constituentType, ptr %constituentType.indirect_addr, align 8
  %this1 = load ptr, ptr %this.addr, align 8
  %call = call noundef zeroext i1 @_ZN4cvc58internal11__cvc5_truecvbEv(ptr noundef nonnull align 1 dereferenceable(1) %ref.tmp)
  br i1 %call, label %cond.true, label %cond.false

cond.true:                                        ; preds = %entry
  call void @_ZNK4cvc58internal5NullCcvNS0_11Cvc5ostreamEEv(ptr sret(%"class.cvc5::internal::Cvc5ostream") align 8 %tmp, ptr noundef nonnull align 1 dereferenceable(1) @_ZN4cvc58internal10nullStreamE)
  br label %cond.end

cond.false:                                       ; preds = %entry
  call void @_ZNK4cvc58internal6TraceCclEv(ptr sret(%"class.cvc5::internal::Cvc5ostream") align 8 %ref.tmp2, ptr noundef nonnull align 8 dereferenceable(32) @_ZN4cvc58internal12TraceChannelE)
  %call3 = call noundef nonnull align 8 dereferenceable(24) ptr @_ZN4cvc58internal11Cvc5ostreamlsIA19_cEERS1_RKT_(ptr noundef nonnull align 8 dereferenceable(24) %ref.tmp2, ptr noundef nonnull align 1 dereferenceable(19) @.str.35)
  %call4 = call noundef nonnull align 8 dereferenceable(24) ptr @_ZN4cvc58internal11Cvc5ostreamlsINS0_8TypeNodeEEERS1_RKT_(ptr noundef nonnull align 8 dereferenceable(24) %call3, ptr noundef nonnull align 8 dereferenceable(8) %indexType)
  %call5 = call noundef nonnull align 8 dereferenceable(24) ptr @_ZN4cvc58internal11Cvc5ostreamlsIA2_cEERS1_RKT_(ptr noundef nonnull align 8 dereferenceable(24) %call4, ptr noundef nonnull align 1 dereferenceable(2) @.str.36)
  %call6 = call noundef nonnull align 8 dereferenceable(24) ptr @_ZN4cvc58internal11Cvc5ostreamlsINS0_8TypeNodeEEERS1_RKT_(ptr noundef nonnull align 8 dereferenceable(24) %call5, ptr noundef nonnull align 8 dereferenceable(8) %constituentType)
  %call7 = call noundef nonnull align 8 dereferenceable(24) ptr @_ZN4cvc58internal11Cvc5ostreamlsEPFRSoS2_E(ptr noundef nonnull align 8 dereferenceable(24) %call6, ptr noundef @_ZSt4endlIcSt11char_traitsIcEERSt13basic_ostreamIT_T0_ES6_)
  call void @llvm.memcpy.p0.p0.i64(ptr align 8 %agg.tmp.ensured, ptr align 8 %call7, i64 24, i1 false)
  br label %cond.end

cond.end:                                         ; preds = %cond.false, %cond.true
  call void @_ZN4cvc58internal8TypeNodeC2ERKS1_(ptr noundef nonnull align 8 dereferenceable(8) %agg.tmp, ptr noundef nonnull align 8 dereferenceable(8) %indexType)
  invoke void @_ZN4cvc58internal8TypeNodeC2ERKS1_(ptr noundef nonnull align 8 dereferenceable(8) %agg.tmp8, ptr noundef nonnull align 8 dereferenceable(8) %constituentType)
          to label %invoke.cont unwind label %lpad

invoke.cont:                                      ; preds = %cond.end
  invoke void @_ZN4cvc58internal11NodeManager10mkTypeNodeENS0_4kind6Kind_tENS0_8TypeNodeES4_(ptr sret(%"class.cvc5::internal::TypeNode") align 8 %agg.result, ptr noundef nonnull align 8 dereferenceable(3360) %this1, i32 noundef 207, ptr noundef %agg.tmp, ptr noundef %agg.tmp8)
          to label %invoke.cont10 unwind label %lpad9

invoke.cont10:                                    ; preds = %invoke.cont
  call void @_ZN4cvc58internal8TypeNodeD2Ev(ptr noundef nonnull align 8 dereferenceable(8) %agg.tmp8) #3
  call void @_ZN4cvc58internal8TypeNodeD2Ev(ptr noundef nonnull align 8 dereferenceable(8) %agg.tmp) #3
  ret void

lpad:                                             ; preds = %cond.end
  %0 = landingpad { ptr, i32 }
          cleanup
  %1 = extractvalue { ptr, i32 } %0, 0
  store ptr %1, ptr %exn.slot, align 8
  %2 = extractvalue { ptr, i32 } %0, 1
  store i32 %2, ptr %ehselector.slot, align 4
  br label %ehcleanup

lpad9:                                            ; preds = %invoke.cont
  %3 = landingpad { ptr, i32 }
          cleanup
  %4 = extractvalue { ptr, i32 } %3, 0
  store ptr %4, ptr %exn.slot, align 8
  %5 = extractvalue { ptr, i32 } %3, 1
  store i32 %5, ptr %ehselector.slot, align 4
  call void @_ZN4cvc58internal8TypeNodeD2Ev(ptr noundef nonnull align 8 dereferenceable(8) %agg.tmp8) #3
  br label %ehcleanup

ehcleanup:                                        ; preds = %lpad9, %lpad
  call void @_ZN4cvc58internal8TypeNodeD2Ev(ptr noundef nonnull align 8 dereferenceable(8) %agg.tmp) #3
  br label %eh.resume

eh.resume:                                        ; preds = %ehcleanup
  %exn = load ptr, ptr %exn.slot, align 8
  %sel = load i32, ptr %ehselector.slot, align 4
  %lpad.val = insertvalue { ptr, i32 } poison, ptr %exn, 0
  %lpad.val11 = insertvalue { ptr, i32 } %lpad.val, i32 %sel, 1
  resume { ptr, i32 } %lpad.val11
}

; Function Attrs: mustprogress uwtable
define hidden void @_ZN4cvc58internal6theory2uf13FunctionConst34getLambdaForArrayRepresentationRecENS0_12NodeTemplateILb0EEES5_jRSt13unordered_mapIS5_NS4_ILb1EEESt4hashIS5_ESt8equal_toIS5_ESaISt4pairIKS5_S7_EEE(ptr noalias sret(%"class.cvc5::internal::NodeTemplate") align 8 %agg.result, ptr noundef %a, ptr noundef %bvl, i32 noundef %bvlIndex, ptr noundef nonnull align 8 dereferenceable(56) %visited) #4 align 2 personality ptr @__gxx_personality_v0 {
entry:
  %result.ptr = alloca ptr, align 8
  %a.indirect_addr = alloca ptr, align 8
  %bvl.indirect_addr = alloca ptr, align 8
  %bvlIndex.addr = alloca i32, align 4
  %visited.addr = alloca ptr, align 8
  %it = alloca %"struct.std::__detail::_Node_iterator", align 8
  %ref.tmp = alloca %"struct.std::__detail::_Node_iterator", align 8
  %nrvo = alloca i1, align 1
  %exn.slot = alloca ptr, align 8
  %ehselector.slot = alloca i32, align 4
  %body = alloca %"class.cvc5::internal::NodeTemplate", align 8
  %agg.tmp = alloca %"class.cvc5::internal::NodeTemplate.0", align 8
  %agg.tmp14 = alloca %"class.cvc5::internal::NodeTemplate.0", align 8
  %val = alloca %"class.cvc5::internal::NodeTemplate", align 8
  %agg.tmp23 = alloca %"class.cvc5::internal::NodeTemplate.0", align 8
  %agg.tmp25 = alloca %"class.cvc5::internal::NodeTemplate.0", align 8
  %cond = alloca %"class.cvc5::internal::NodeTemplate", align 8
  %ref.tmp36 = alloca %"class.cvc5::internal::NodeTemplate.0", align 8
  %ref.tmp38 = alloca %"class.cvc5::internal::NodeTemplate.0", align 8
  %ref.tmp45 = alloca %"class.cvc5::internal::NodeTemplate", align 8
  %agg.tmp49 = alloca %"class.cvc5::internal::NodeTemplate.0", align 8
  %agg.tmp51 = alloca %"class.cvc5::internal::NodeTemplate.0", align 8
  %agg.tmp54 = alloca %"class.cvc5::internal::NodeTemplate.0", align 8
  %storeAll = alloca %"class.cvc5::internal::ArrayStoreAll", align 8
  %sa = alloca %"class.cvc5::internal::NodeTemplate", align 8
  %ref.tmp82 = alloca %"class.cvc5::internal::NodeTemplate", align 8
  %agg.tmp83 = alloca %"class.cvc5::internal::NodeTemplate.0", align 8
  %agg.tmp86 = alloca %"class.cvc5::internal::NodeTemplate.0", align 8
  store ptr %agg.result, ptr %result.ptr, align 8
  store ptr %a, ptr %a.indirect_addr, align 8
  store ptr %bvl, ptr %bvl.indirect_addr, align 8
  store i32 %bvlIndex, ptr %bvlIndex.addr, align 4
  store ptr %visited, ptr %visited.addr, align 8
  %0 = load ptr, ptr %visited.addr, align 8
  %call = call ptr @_ZNSt13unordered_mapIN4cvc58internal12NodeTemplateILb0EEENS2_ILb1EEESt4hashIS3_ESt8equal_toIS3_ESaISt4pairIKS3_S4_EEE4findERSA_(ptr noundef nonnull align 8 dereferenceable(56) %0, ptr noundef nonnull align 8 dereferenceable(8) %a)
  %coerce.dive = getelementptr inbounds %"struct.std::__detail::_Node_iterator", ptr %it, i32 0, i32 0
  %coerce.dive1 = getelementptr inbounds %"struct.std::__detail::_Node_iterator_base", ptr %coerce.dive, i32 0, i32 0
  store ptr %call, ptr %coerce.dive1, align 8
  %1 = load ptr, ptr %visited.addr, align 8
  %call2 = call ptr @_ZNSt13unordered_mapIN4cvc58internal12NodeTemplateILb0EEENS2_ILb1EEESt4hashIS3_ESt8equal_toIS3_ESaISt4pairIKS3_S4_EEE3endEv(ptr noundef nonnull align 8 dereferenceable(56) %1) #3
  %coerce.dive3 = getelementptr inbounds %"struct.std::__detail::_Node_iterator", ptr %ref.tmp, i32 0, i32 0
  %coerce.dive4 = getelementptr inbounds %"struct.std::__detail::_Node_iterator_base", ptr %coerce.dive3, i32 0, i32 0
  store ptr %call2, ptr %coerce.dive4, align 8
  %call5 = call noundef zeroext i1 @_ZNSt8__detailneERKNS_19_Node_iterator_baseISt4pairIKN4cvc58internal12NodeTemplateILb0EEENS4_ILb1EEEELb1EEESB_(ptr noundef nonnull align 8 dereferenceable(8) %it, ptr noundef nonnull align 8 dereferenceable(8) %ref.tmp) #3
  br i1 %call5, label %if.then, label %if.end

if.then:                                          ; preds = %entry
  %call6 = call noundef ptr @_ZNKSt8__detail14_Node_iteratorISt4pairIKN4cvc58internal12NodeTemplateILb0EEENS4_ILb1EEEELb0ELb1EEptEv(ptr noundef nonnull align 8 dereferenceable(8) %it) #3
  %second = getelementptr inbounds %"struct.std::pair", ptr %call6, i32 0, i32 1
  call void @_ZN4cvc58internal12NodeTemplateILb1EEC2ERKS2_(ptr noundef nonnull align 8 dereferenceable(8) %agg.result, ptr noundef nonnull align 8 dereferenceable(8) %second)
  br label %return

if.end:                                           ; preds = %entry
  store i1 false, ptr %nrvo, align 1
  call void @_ZN4cvc58internal12NodeTemplateILb1EEC2Ev(ptr noundef nonnull align 8 dereferenceable(8) %agg.result)
  %2 = load i32, ptr %bvlIndex.addr, align 4
  %conv = zext i32 %2 to i64
  %call7 = invoke noundef i64 @_ZNK4cvc58internal12NodeTemplateILb0EE14getNumChildrenEv(ptr noundef nonnull align 8 dereferenceable(8) %bvl)
          to label %invoke.cont unwind label %lpad

invoke.cont:                                      ; preds = %if.end
  %cmp = icmp ult i64 %conv, %call7
  br i1 %cmp, label %if.then8, label %if.else102

if.then8:                                         ; preds = %invoke.cont
  %call10 = invoke noundef i32 @_ZNK4cvc58internal12NodeTemplateILb0EE7getKindEv(ptr noundef nonnull align 8 dereferenceable(8) %a)
          to label %invoke.cont9 unwind label %lpad

invoke.cont9:                                     ; preds = %if.then8
  %cmp11 = icmp eq i32 %call10, 209
  br i1 %cmp11, label %if.then12, label %if.else

if.then12:                                        ; preds = %invoke.cont9
  invoke void @_ZNK4cvc58internal12NodeTemplateILb0EEixEi(ptr sret(%"class.cvc5::internal::NodeTemplate.0") align 8 %agg.tmp, ptr noundef nonnull align 8 dereferenceable(8) %a, i32 noundef 0)
          to label %invoke.cont13 unwind label %lpad

invoke.cont13:                                    ; preds = %if.then12
  invoke void @_ZN4cvc58internal12NodeTemplateILb0EEC2ERKS2_(ptr noundef nonnull align 8 dereferenceable(8) %agg.tmp14, ptr noundef nonnull align 8 dereferenceable(8) %bvl)
          to label %invoke.cont16 unwind label %lpad15

invoke.cont16:                                    ; preds = %invoke.cont13
  %3 = load i32, ptr %bvlIndex.addr, align 4
  %4 = load ptr, ptr %visited.addr, align 8
  invoke void @_ZN4cvc58internal6theory2uf13FunctionConst34getLambdaForArrayRepresentationRecENS0_12NodeTemplateILb0EEES5_jRSt13unordered_mapIS5_NS4_ILb1EEESt4hashIS5_ESt8equal_toIS5_ESaISt4pairIKS5_S7_EEE(ptr sret(%"class.cvc5::internal::NodeTemplate") align 8 %body, ptr noundef %agg.tmp, ptr noundef %agg.tmp14, i32 noundef %3, ptr noundef nonnull align 8 dereferenceable(56) %4)
          to label %invoke.cont18 unwind label %lpad17

invoke.cont18:                                    ; preds = %invoke.cont16
  call void @_ZN4cvc58internal12NodeTemplateILb0EED2Ev(ptr noundef nonnull align 8 dereferenceable(8) %agg.tmp14) #3
  call void @_ZN4cvc58internal12NodeTemplateILb0EED2Ev(ptr noundef nonnull align 8 dereferenceable(8) %agg.tmp) #3
  %call21 = invoke noundef zeroext i1 @_ZNK4cvc58internal12NodeTemplateILb1EE6isNullEv(ptr noundef nonnull align 8 dereferenceable(8) %body)
          to label %invoke.cont20 unwind label %lpad19

invoke.cont20:                                    ; preds = %invoke.cont18
  br i1 %call21, label %if.end69, label %if.then22

if.then22:                                        ; preds = %invoke.cont20
  invoke void @_ZNK4cvc58internal12NodeTemplateILb0EEixEi(ptr sret(%"class.cvc5::internal::NodeTemplate.0") align 8 %agg.tmp23, ptr noundef nonnull align 8 dereferenceable(8) %a, i32 noundef 2)
          to label %invoke.cont24 unwind label %lpad19

invoke.cont24:                                    ; preds = %if.then22
  invoke void @_ZN4cvc58internal12NodeTemplateILb0EEC2ERKS2_(ptr noundef nonnull align 8 dereferenceable(8) %agg.tmp25, ptr noundef nonnull align 8 dereferenceable(8) %bvl)
          to label %invoke.cont27 unwind label %lpad26

invoke.cont27:                                    ; preds = %invoke.cont24
  %5 = load i32, ptr %bvlIndex.addr, align 4
  %add = add i32 %5, 1
  %6 = load ptr, ptr %visited.addr, align 8
  invoke void @_ZN4cvc58internal6theory2uf13FunctionConst34getLambdaForArrayRepresentationRecENS0_12NodeTemplateILb0EEES5_jRSt13unordered_mapIS5_NS4_ILb1EEESt4hashIS5_ESt8equal_toIS5_ESaISt4pairIKS5_S7_EEE(ptr sret(%"class.cvc5::internal::NodeTemplate") align 8 %val, ptr noundef %agg.tmp23, ptr noundef %agg.tmp25, i32 noundef %add, ptr noundef nonnull align 8 dereferenceable(56) %6)
          to label %invoke.cont29 unwind label %lpad28

invoke.cont29:                                    ; preds = %invoke.cont27
  call void @_ZN4cvc58internal12NodeTemplateILb0EED2Ev(ptr noundef nonnull align 8 dereferenceable(8) %agg.tmp25) #3
  call void @_ZN4cvc58internal12NodeTemplateILb0EED2Ev(ptr noundef nonnull align 8 dereferenceable(8) %agg.tmp23) #3
  %call34 = invoke noundef zeroext i1 @_ZNK4cvc58internal12NodeTemplateILb1EE6isNullEv(ptr noundef nonnull align 8 dereferenceable(8) %val)
          to label %invoke.cont33 unwind label %lpad32

invoke.cont33:                                    ; preds = %invoke.cont29
  br i1 %call34, label %if.end67, label %if.then35

if.then35:                                        ; preds = %invoke.cont33
  %7 = load i32, ptr %bvlIndex.addr, align 4
  invoke void @_ZNK4cvc58internal12NodeTemplateILb0EEixEi(ptr sret(%"class.cvc5::internal::NodeTemplate.0") align 8 %ref.tmp36, ptr noundef nonnull align 8 dereferenceable(8) %bvl, i32 noundef %7)
          to label %invoke.cont37 unwind label %lpad32

invoke.cont37:                                    ; preds = %if.then35
  invoke void @_ZNK4cvc58internal12NodeTemplateILb0EEixEi(ptr sret(%"class.cvc5::internal::NodeTemplate.0") align 8 %ref.tmp38, ptr noundef nonnull align 8 dereferenceable(8) %a, i32 noundef 1)
          to label %invoke.cont40 unwind label %lpad39

invoke.cont40:                                    ; preds = %invoke.cont37
  invoke void @_ZNK4cvc58internal12NodeTemplateILb0EE6eqNodeILb0EEENS1_ILb1EEERKNS1_IXT_EEE(ptr sret(%"class.cvc5::internal::NodeTemplate") align 8 %cond, ptr noundef nonnull align 8 dereferenceable(8) %ref.tmp36, ptr noundef nonnull align 8 dereferenceable(8) %ref.tmp38)
          to label %invoke.cont42 unwind label %lpad41

invoke.cont42:                                    ; preds = %invoke.cont40
  call void @_ZN4cvc58internal12NodeTemplateILb0EED2Ev(ptr noundef nonnull align 8 dereferenceable(8) %ref.tmp38) #3
  call void @_ZN4cvc58internal12NodeTemplateILb0EED2Ev(ptr noundef nonnull align 8 dereferenceable(8) %ref.tmp36) #3
  %call48 = invoke noundef ptr @_ZN4cvc58internal11NodeManager9currentNMEv()
          to label %invoke.cont47 unwind label %lpad46

invoke.cont47:                                    ; preds = %invoke.cont42
  invoke void @_ZN4cvc58internal12NodeTemplateILb0EEC2ERKNS1_ILb1EEE(ptr noundef nonnull align 8 dereferenceable(8) %agg.tmp49, ptr noundef nonnull align 8 dereferenceable(8) %cond)
          to label %invoke.cont50 unwind label %lpad46

invoke.cont50:                                    ; preds = %invoke.cont47
  invoke void @_ZN4cvc58internal12NodeTemplateILb0EEC2ERKNS1_ILb1EEE(ptr noundef nonnull align 8 dereferenceable(8) %agg.tmp51, ptr noundef nonnull align 8 dereferenceable(8) %val)
          to label %invoke.cont53 unwind label %lpad52

invoke.cont53:                                    ; preds = %invoke.cont50
  invoke void @_ZN4cvc58internal12NodeTemplateILb0EEC2ERKNS1_ILb1EEE(ptr noundef nonnull align 8 dereferenceable(8) %agg.tmp54, ptr noundef nonnull align 8 dereferenceable(8) %body)
          to label %invoke.cont56 unwind label %lpad55

invoke.cont56:                                    ; preds = %invoke.cont53
  invoke void @_ZN4cvc58internal11NodeManager6mkNodeENS0_4kind6Kind_tENS0_12NodeTemplateILb0EEES5_S5_(ptr sret(%"class.cvc5::internal::NodeTemplate") align 8 %ref.tmp45, ptr noundef nonnull align 8 dereferenceable(3360) %call48, i32 noundef 23, ptr noundef %agg.tmp49, ptr noundef %agg.tmp51, ptr noundef %agg.tmp54)
          to label %invoke.cont58 unwind label %lpad57

invoke.cont58:                                    ; preds = %invoke.cont56
  %call61 = invoke noundef nonnull align 8 dereferenceable(8) ptr @_ZN4cvc58internal12NodeTemplateILb1EEaSERKS2_(ptr noundef nonnull align 8 dereferenceable(8) %agg.result, ptr noundef nonnull align 8 dereferenceable(8) %ref.tmp45)
          to label %invoke.cont60 unwind label %lpad59

invoke.cont60:                                    ; preds = %invoke.cont58
  call void @_ZN4cvc58internal12NodeTemplateILb1EED2Ev(ptr noundef nonnull align 8 dereferenceable(8) %ref.tmp45) #3
  call void @_ZN4cvc58internal12NodeTemplateILb0EED2Ev(ptr noundef nonnull align 8 dereferenceable(8) %agg.tmp54) #3
  call void @_ZN4cvc58internal12NodeTemplateILb0EED2Ev(ptr noundef nonnull align 8 dereferenceable(8) %agg.tmp51) #3
  call void @_ZN4cvc58internal12NodeTemplateILb0EED2Ev(ptr noundef nonnull align 8 dereferenceable(8) %agg.tmp49) #3
  call void @_ZN4cvc58internal12NodeTemplateILb1EED2Ev(ptr noundef nonnull align 8 dereferenceable(8) %cond) #3
  br label %if.end67

lpad:                                             ; preds = %invoke.cont106, %if.end105, %if.else102, %invoke.cont75, %if.then74, %if.else, %if.then12, %if.then8, %if.end
  %8 = landingpad { ptr, i32 }
          cleanup
  %9 = extractvalue { ptr, i32 } %8, 0
  store ptr %9, ptr %exn.slot, align 8
  %10 = extractvalue { ptr, i32 } %8, 1
  store i32 %10, ptr %ehselector.slot, align 4
  br label %ehcleanup110

lpad15:                                           ; preds = %invoke.cont13
  %11 = landingpad { ptr, i32 }
          cleanup
  %12 = extractvalue { ptr, i32 } %11, 0
  store ptr %12, ptr %exn.slot, align 8
  %13 = extractvalue { ptr, i32 } %11, 1
  store i32 %13, ptr %ehselector.slot, align 4
  br label %ehcleanup

lpad17:                                           ; preds = %invoke.cont16
  %14 = landingpad { ptr, i32 }
          cleanup
  %15 = extractvalue { ptr, i32 } %14, 0
  store ptr %15, ptr %exn.slot, align 8
  %16 = extractvalue { ptr, i32 } %14, 1
  store i32 %16, ptr %ehselector.slot, align 4
  call void @_ZN4cvc58internal12NodeTemplateILb0EED2Ev(ptr noundef nonnull align 8 dereferenceable(8) %agg.tmp14) #3
  br label %ehcleanup

ehcleanup:                                        ; preds = %lpad17, %lpad15
  call void @_ZN4cvc58internal12NodeTemplateILb0EED2Ev(ptr noundef nonnull align 8 dereferenceable(8) %agg.tmp) #3
  br label %ehcleanup110

lpad19:                                           ; preds = %if.then22, %invoke.cont18
  %17 = landingpad { ptr, i32 }
          cleanup
  %18 = extractvalue { ptr, i32 } %17, 0
  store ptr %18, ptr %exn.slot, align 8
  %19 = extractvalue { ptr, i32 } %17, 1
  store i32 %19, ptr %ehselector.slot, align 4
  br label %ehcleanup70

lpad26:                                           ; preds = %invoke.cont24
  %20 = landingpad { ptr, i32 }
          cleanup
  %21 = extractvalue { ptr, i32 } %20, 0
  store ptr %21, ptr %exn.slot, align 8
  %22 = extractvalue { ptr, i32 } %20, 1
  store i32 %22, ptr %ehselector.slot, align 4
  br label %ehcleanup31

lpad28:                                           ; preds = %invoke.cont27
  %23 = landingpad { ptr, i32 }
          cleanup
  %24 = extractvalue { ptr, i32 } %23, 0
  store ptr %24, ptr %exn.slot, align 8
  %25 = extractvalue { ptr, i32 } %23, 1
  store i32 %25, ptr %ehselector.slot, align 4
  call void @_ZN4cvc58internal12NodeTemplateILb0EED2Ev(ptr noundef nonnull align 8 dereferenceable(8) %agg.tmp25) #3
  br label %ehcleanup31

ehcleanup31:                                      ; preds = %lpad28, %lpad26
  call void @_ZN4cvc58internal12NodeTemplateILb0EED2Ev(ptr noundef nonnull align 8 dereferenceable(8) %agg.tmp23) #3
  br label %ehcleanup70

lpad32:                                           ; preds = %if.then35, %invoke.cont29
  %26 = landingpad { ptr, i32 }
          cleanup
  %27 = extractvalue { ptr, i32 } %26, 0
  store ptr %27, ptr %exn.slot, align 8
  %28 = extractvalue { ptr, i32 } %26, 1
  store i32 %28, ptr %ehselector.slot, align 4
  br label %ehcleanup68

lpad39:                                           ; preds = %invoke.cont37
  %29 = landingpad { ptr, i32 }
          cleanup
  %30 = extractvalue { ptr, i32 } %29, 0
  store ptr %30, ptr %exn.slot, align 8
  %31 = extractvalue { ptr, i32 } %29, 1
  store i32 %31, ptr %ehselector.slot, align 4
  br label %ehcleanup44

lpad41:                                           ; preds = %invoke.cont40
  %32 = landingpad { ptr, i32 }
          cleanup
  %33 = extractvalue { ptr, i32 } %32, 0
  store ptr %33, ptr %exn.slot, align 8
  %34 = extractvalue { ptr, i32 } %32, 1
  store i32 %34, ptr %ehselector.slot, align 4
  call void @_ZN4cvc58internal12NodeTemplateILb0EED2Ev(ptr noundef nonnull align 8 dereferenceable(8) %ref.tmp38) #3
  br label %ehcleanup44

ehcleanup44:                                      ; preds = %lpad41, %lpad39
  call void @_ZN4cvc58internal12NodeTemplateILb0EED2Ev(ptr noundef nonnull align 8 dereferenceable(8) %ref.tmp36) #3
  br label %ehcleanup68

lpad46:                                           ; preds = %invoke.cont47, %invoke.cont42
  %35 = landingpad { ptr, i32 }
          cleanup
  %36 = extractvalue { ptr, i32 } %35, 0
  store ptr %36, ptr %exn.slot, align 8
  %37 = extractvalue { ptr, i32 } %35, 1
  store i32 %37, ptr %ehselector.slot, align 4
  br label %ehcleanup66

lpad52:                                           ; preds = %invoke.cont50
  %38 = landingpad { ptr, i32 }
          cleanup
  %39 = extractvalue { ptr, i32 } %38, 0
  store ptr %39, ptr %exn.slot, align 8
  %40 = extractvalue { ptr, i32 } %38, 1
  store i32 %40, ptr %ehselector.slot, align 4
  br label %ehcleanup65

lpad55:                                           ; preds = %invoke.cont53
  %41 = landingpad { ptr, i32 }
          cleanup
  %42 = extractvalue { ptr, i32 } %41, 0
  store ptr %42, ptr %exn.slot, align 8
  %43 = extractvalue { ptr, i32 } %41, 1
  store i32 %43, ptr %ehselector.slot, align 4
  br label %ehcleanup64

lpad57:                                           ; preds = %invoke.cont56
  %44 = landingpad { ptr, i32 }
          cleanup
  %45 = extractvalue { ptr, i32 } %44, 0
  store ptr %45, ptr %exn.slot, align 8
  %46 = extractvalue { ptr, i32 } %44, 1
  store i32 %46, ptr %ehselector.slot, align 4
  br label %ehcleanup63

lpad59:                                           ; preds = %invoke.cont58
  %47 = landingpad { ptr, i32 }
          cleanup
  %48 = extractvalue { ptr, i32 } %47, 0
  store ptr %48, ptr %exn.slot, align 8
  %49 = extractvalue { ptr, i32 } %47, 1
  store i32 %49, ptr %ehselector.slot, align 4
  call void @_ZN4cvc58internal12NodeTemplateILb1EED2Ev(ptr noundef nonnull align 8 dereferenceable(8) %ref.tmp45) #3
  br label %ehcleanup63

ehcleanup63:                                      ; preds = %lpad59, %lpad57
  call void @_ZN4cvc58internal12NodeTemplateILb0EED2Ev(ptr noundef nonnull align 8 dereferenceable(8) %agg.tmp54) #3
  br label %ehcleanup64

ehcleanup64:                                      ; preds = %ehcleanup63, %lpad55
  call void @_ZN4cvc58internal12NodeTemplateILb0EED2Ev(ptr noundef nonnull align 8 dereferenceable(8) %agg.tmp51) #3
  br label %ehcleanup65

ehcleanup65:                                      ; preds = %ehcleanup64, %lpad52
  call void @_ZN4cvc58internal12NodeTemplateILb0EED2Ev(ptr noundef nonnull align 8 dereferenceable(8) %agg.tmp49) #3
  br label %ehcleanup66

ehcleanup66:                                      ; preds = %ehcleanup65, %lpad46
  call void @_ZN4cvc58internal12NodeTemplateILb1EED2Ev(ptr noundef nonnull align 8 dereferenceable(8) %cond) #3
  br label %ehcleanup68

if.end67:                                         ; preds = %invoke.cont60, %invoke.cont33
  call void @_ZN4cvc58internal12NodeTemplateILb1EED2Ev(ptr noundef nonnull align 8 dereferenceable(8) %val) #3
  br label %if.end69

ehcleanup68:                                      ; preds = %ehcleanup66, %ehcleanup44, %lpad32
  call void @_ZN4cvc58internal12NodeTemplateILb1EED2Ev(ptr noundef nonnull align 8 dereferenceable(8) %val) #3
  br label %ehcleanup70

if.end69:                                         ; preds = %if.end67, %invoke.cont20
  call void @_ZN4cvc58internal12NodeTemplateILb1EED2Ev(ptr noundef nonnull align 8 dereferenceable(8) %body) #3
  br label %if.end101

ehcleanup70:                                      ; preds = %ehcleanup68, %ehcleanup31, %lpad19
  call void @_ZN4cvc58internal12NodeTemplateILb1EED2Ev(ptr noundef nonnull align 8 dereferenceable(8) %body) #3
  br label %ehcleanup110

if.else:                                          ; preds = %invoke.cont9
  %call72 = invoke noundef i32 @_ZNK4cvc58internal12NodeTemplateILb0EE7getKindEv(ptr noundef nonnull align 8 dereferenceable(8) %a)
          to label %invoke.cont71 unwind label %lpad

invoke.cont71:                                    ; preds = %if.else
  %cmp73 = icmp eq i32 %call72, 211
  br i1 %cmp73, label %if.then74, label %if.end100

if.then74:                                        ; preds = %invoke.cont71
  %call76 = invoke noundef nonnull align 8 dereferenceable(16) ptr @_ZNK4cvc58internal12NodeTemplateILb0EE8getConstINS0_13ArrayStoreAllEEERKT_v(ptr noundef nonnull align 8 dereferenceable(8) %a)
          to label %invoke.cont75 unwind label %lpad

invoke.cont75:                                    ; preds = %if.then74
  invoke void @_ZN4cvc58internal13ArrayStoreAllC1ERKS1_(ptr noundef nonnull align 8 dereferenceable(16) %storeAll, ptr noundef nonnull align 8 dereferenceable(16) %call76)
          to label %invoke.cont77 unwind label %lpad

invoke.cont77:                                    ; preds = %invoke.cont75
  %call80 = invoke noundef nonnull align 8 dereferenceable(8) ptr @_ZNK4cvc58internal13ArrayStoreAll8getValueEv(ptr noundef nonnull align 8 dereferenceable(16) %storeAll)
          to label %invoke.cont79 unwind label %lpad78

invoke.cont79:                                    ; preds = %invoke.cont77
  invoke void @_ZN4cvc58internal12NodeTemplateILb1EEC2ERKS2_(ptr noundef nonnull align 8 dereferenceable(8) %sa, ptr noundef nonnull align 8 dereferenceable(8) %call80)
          to label %invoke.cont81 unwind label %lpad78

invoke.cont81:                                    ; preds = %invoke.cont79
  invoke void @_ZN4cvc58internal12NodeTemplateILb0EEC2ERKNS1_ILb1EEE(ptr noundef nonnull align 8 dereferenceable(8) %agg.tmp83, ptr noundef nonnull align 8 dereferenceable(8) %sa)
          to label %invoke.cont85 unwind label %lpad84

invoke.cont85:                                    ; preds = %invoke.cont81
  invoke void @_ZN4cvc58internal12NodeTemplateILb0EEC2ERKS2_(ptr noundef nonnull align 8 dereferenceable(8) %agg.tmp86, ptr noundef nonnull align 8 dereferenceable(8) %bvl)
          to label %invoke.cont88 unwind label %lpad87

invoke.cont88:                                    ; preds = %invoke.cont85
  %50 = load i32, ptr %bvlIndex.addr, align 4
  %add89 = add i32 %50, 1
  %51 = load ptr, ptr %visited.addr, align 8
  invoke void @_ZN4cvc58internal6theory2uf13FunctionConst34getLambdaForArrayRepresentationRecENS0_12NodeTemplateILb0EEES5_jRSt13unordered_mapIS5_NS4_ILb1EEESt4hashIS5_ESt8equal_toIS5_ESaISt4pairIKS5_S7_EEE(ptr sret(%"class.cvc5::internal::NodeTemplate") align 8 %ref.tmp82, ptr noundef %agg.tmp83, ptr noundef %agg.tmp86, i32 noundef %add89, ptr noundef nonnull align 8 dereferenceable(56) %51)
          to label %invoke.cont91 unwind label %lpad90

invoke.cont91:                                    ; preds = %invoke.cont88
  %call94 = invoke noundef nonnull align 8 dereferenceable(8) ptr @_ZN4cvc58internal12NodeTemplateILb1EEaSERKS2_(ptr noundef nonnull align 8 dereferenceable(8) %agg.result, ptr noundef nonnull align 8 dereferenceable(8) %ref.tmp82)
          to label %invoke.cont93 unwind label %lpad92

invoke.cont93:                                    ; preds = %invoke.cont91
  call void @_ZN4cvc58internal12NodeTemplateILb1EED2Ev(ptr noundef nonnull align 8 dereferenceable(8) %ref.tmp82) #3
  call void @_ZN4cvc58internal12NodeTemplateILb0EED2Ev(ptr noundef nonnull align 8 dereferenceable(8) %agg.tmp86) #3
  call void @_ZN4cvc58internal12NodeTemplateILb0EED2Ev(ptr noundef nonnull align 8 dereferenceable(8) %agg.tmp83) #3
  call void @_ZN4cvc58internal12NodeTemplateILb1EED2Ev(ptr noundef nonnull align 8 dereferenceable(8) %sa) #3
  call void @_ZN4cvc58internal13ArrayStoreAllD1Ev(ptr noundef nonnull align 8 dereferenceable(16) %storeAll) #3
  br label %if.end100

lpad78:                                           ; preds = %invoke.cont79, %invoke.cont77
  %52 = landingpad { ptr, i32 }
          cleanup
  %53 = extractvalue { ptr, i32 } %52, 0
  store ptr %53, ptr %exn.slot, align 8
  %54 = extractvalue { ptr, i32 } %52, 1
  store i32 %54, ptr %ehselector.slot, align 4
  br label %ehcleanup99

lpad84:                                           ; preds = %invoke.cont81
  %55 = landingpad { ptr, i32 }
          cleanup
  %56 = extractvalue { ptr, i32 } %55, 0
  store ptr %56, ptr %exn.slot, align 8
  %57 = extractvalue { ptr, i32 } %55, 1
  store i32 %57, ptr %ehselector.slot, align 4
  br label %ehcleanup98

lpad87:                                           ; preds = %invoke.cont85
  %58 = landingpad { ptr, i32 }
          cleanup
  %59 = extractvalue { ptr, i32 } %58, 0
  store ptr %59, ptr %exn.slot, align 8
  %60 = extractvalue { ptr, i32 } %58, 1
  store i32 %60, ptr %ehselector.slot, align 4
  br label %ehcleanup97

lpad90:                                           ; preds = %invoke.cont88
  %61 = landingpad { ptr, i32 }
          cleanup
  %62 = extractvalue { ptr, i32 } %61, 0
  store ptr %62, ptr %exn.slot, align 8
  %63 = extractvalue { ptr, i32 } %61, 1
  store i32 %63, ptr %ehselector.slot, align 4
  br label %ehcleanup96

lpad92:                                           ; preds = %invoke.cont91
  %64 = landingpad { ptr, i32 }
          cleanup
  %65 = extractvalue { ptr, i32 } %64, 0
  store ptr %65, ptr %exn.slot, align 8
  %66 = extractvalue { ptr, i32 } %64, 1
  store i32 %66, ptr %ehselector.slot, align 4
  call void @_ZN4cvc58internal12NodeTemplateILb1EED2Ev(ptr noundef nonnull align 8 dereferenceable(8) %ref.tmp82) #3
  br label %ehcleanup96

ehcleanup96:                                      ; preds = %lpad92, %lpad90
  call void @_ZN4cvc58internal12NodeTemplateILb0EED2Ev(ptr noundef nonnull align 8 dereferenceable(8) %agg.tmp86) #3
  br label %ehcleanup97

ehcleanup97:                                      ; preds = %ehcleanup96, %lpad87
  call void @_ZN4cvc58internal12NodeTemplateILb0EED2Ev(ptr noundef nonnull align 8 dereferenceable(8) %agg.tmp83) #3
  br label %ehcleanup98

ehcleanup98:                                      ; preds = %ehcleanup97, %lpad84
  call void @_ZN4cvc58internal12NodeTemplateILb1EED2Ev(ptr noundef nonnull align 8 dereferenceable(8) %sa) #3
  br label %ehcleanup99

ehcleanup99:                                      ; preds = %ehcleanup98, %lpad78
  call void @_ZN4cvc58internal13ArrayStoreAllD1Ev(ptr noundef nonnull align 8 dereferenceable(16) %storeAll) #3
  br label %ehcleanup110

if.end100:                                        ; preds = %invoke.cont93, %invoke.cont71
  br label %if.end101

if.end101:                                        ; preds = %if.end100, %if.end69
  br label %if.end105

if.else102:                                       ; preds = %invoke.cont
  %call104 = invoke noundef nonnull align 8 dereferenceable(8) ptr @_ZN4cvc58internal12NodeTemplateILb1EEaSERKNS1_ILb0EEE(ptr noundef nonnull align 8 dereferenceable(8) %agg.result, ptr noundef nonnull align 8 dereferenceable(8) %a)
          to label %invoke.cont103 unwind label %lpad

invoke.cont103:                                   ; preds = %if.else102
  br label %if.end105

if.end105:                                        ; preds = %invoke.cont103, %if.end101
  %67 = load ptr, ptr %visited.addr, align 8
  %call107 = invoke noundef nonnull align 8 dereferenceable(8) ptr @_ZNSt13unordered_mapIN4cvc58internal12NodeTemplateILb0EEENS2_ILb1EEESt4hashIS3_ESt8equal_toIS3_ESaISt4pairIKS3_S4_EEEixERSA_(ptr noundef nonnull align 8 dereferenceable(56) %67, ptr noundef nonnull align 8 dereferenceable(8) %a)
          to label %invoke.cont106 unwind label %lpad

invoke.cont106:                                   ; preds = %if.end105
  %call109 = invoke noundef nonnull align 8 dereferenceable(8) ptr @_ZN4cvc58internal12NodeTemplateILb1EEaSERKS2_(ptr noundef nonnull align 8 dereferenceable(8) %call107, ptr noundef nonnull align 8 dereferenceable(8) %agg.result)
          to label %invoke.cont108 unwind label %lpad

invoke.cont108:                                   ; preds = %invoke.cont106
  store i1 true, ptr %nrvo, align 1
  %nrvo.val = load i1, ptr %nrvo, align 1
  br i1 %nrvo.val, label %nrvo.skipdtor, label %nrvo.unused

nrvo.unused:                                      ; preds = %invoke.cont108
  call void @_ZN4cvc58internal12NodeTemplateILb1EED2Ev(ptr noundef nonnull align 8 dereferenceable(8) %agg.result) #3
  br label %nrvo.skipdtor

nrvo.skipdtor:                                    ; preds = %nrvo.unused, %invoke.cont108
  br label %return

ehcleanup110:                                     ; preds = %ehcleanup99, %ehcleanup70, %ehcleanup, %lpad
  call void @_ZN4cvc58internal12NodeTemplateILb1EED2Ev(ptr noundef nonnull align 8 dereferenceable(8) %agg.result) #3
  br label %eh.resume

return:                                           ; preds = %nrvo.skipdtor, %if.then
  ret void

eh.resume:                                        ; preds = %ehcleanup110
  %exn = load ptr, ptr %exn.slot, align 8
  %sel = load i32, ptr %ehselector.slot, align 4
  %lpad.val = insertvalue { ptr, i32 } poison, ptr %exn, 0
  %lpad.val111 = insertvalue { ptr, i32 } %lpad.val, i32 %sel, 1
  resume { ptr, i32 } %lpad.val111
}

; Function Attrs: mustprogress uwtable
define linkonce_odr hidden ptr @_ZNSt13unordered_mapIN4cvc58internal12NodeTemplateILb0EEENS2_ILb1EEESt4hashIS3_ESt8equal_toIS3_ESaISt4pairIKS3_S4_EEE4findERSA_(ptr noundef nonnull align 8 dereferenceable(56) %this, ptr noundef nonnull align 8 dereferenceable(8) %__x) #4 comdat align 2 {
entry:
  %retval = alloca %"struct.std::__detail::_Node_iterator", align 8
  %this.addr = alloca ptr, align 8
  %__x.addr = alloca ptr, align 8
  store ptr %this, ptr %this.addr, align 8
  store ptr %__x, ptr %__x.addr, align 8
  %this1 = load ptr, ptr %this.addr, align 8
  %_M_h = getelementptr inbounds %"class.std::unordered_map", ptr %this1, i32 0, i32 0
  %0 = load ptr, ptr %__x.addr, align 8
  %call = call ptr @_ZNSt10_HashtableIN4cvc58internal12NodeTemplateILb0EEESt4pairIKS3_NS2_ILb1EEEESaIS7_ENSt8__detail10_Select1stESt8equal_toIS3_ESt4hashIS3_ENS9_18_Mod_range_hashingENS9_20_Default_ranged_hashENS9_20_Prime_rehash_policyENS9_17_Hashtable_traitsILb1ELb0ELb1EEEE4findERS5_(ptr noundef nonnull align 8 dereferenceable(56) %_M_h, ptr noundef nonnull align 8 dereferenceable(8) %0)
  %coerce.dive = getelementptr inbounds %"struct.std::__detail::_Node_iterator", ptr %retval, i32 0, i32 0
  %coerce.dive2 = getelementptr inbounds %"struct.std::__detail::_Node_iterator_base", ptr %coerce.dive, i32 0, i32 0
  store ptr %call, ptr %coerce.dive2, align 8
  %coerce.dive3 = getelementptr inbounds %"struct.std::__detail::_Node_iterator", ptr %retval, i32 0, i32 0
  %coerce.dive4 = getelementptr inbounds %"struct.std::__detail::_Node_iterator_base", ptr %coerce.dive3, i32 0, i32 0
  %1 = load ptr, ptr %coerce.dive4, align 8
  ret ptr %1
}

; Function Attrs: mustprogress nounwind uwtable
define linkonce_odr noundef zeroext i1 @_ZNSt8__detailneERKNS_19_Node_iterator_baseISt4pairIKN4cvc58internal12NodeTemplateILb0EEENS4_ILb1EEEELb1EEESB_(ptr noundef nonnull align 8 dereferenceable(8) %__x, ptr noundef nonnull align 8 dereferenceable(8) %__y) #5 comdat {
entry:
  %__x.addr = alloca ptr, align 8
  %__y.addr = alloca ptr, align 8
  store ptr %__x, ptr %__x.addr, align 8
  store ptr %__y, ptr %__y.addr, align 8
  %0 = load ptr, ptr %__x.addr, align 8
  %_M_cur = getelementptr inbounds %"struct.std::__detail::_Node_iterator_base", ptr %0, i32 0, i32 0
  %1 = load ptr, ptr %_M_cur, align 8
  %2 = load ptr, ptr %__y.addr, align 8
  %_M_cur1 = getelementptr inbounds %"struct.std::__detail::_Node_iterator_base", ptr %2, i32 0, i32 0
  %3 = load ptr, ptr %_M_cur1, align 8
  %cmp = icmp ne ptr %1, %3
  ret i1 %cmp
}

; Function Attrs: mustprogress nounwind uwtable
define linkonce_odr hidden ptr @_ZNSt13unordered_mapIN4cvc58internal12NodeTemplateILb0EEENS2_ILb1EEESt4hashIS3_ESt8equal_toIS3_ESaISt4pairIKS3_S4_EEE3endEv(ptr noundef nonnull align 8 dereferenceable(56) %this) #5 comdat align 2 {
entry:
  %retval = alloca %"struct.std::__detail::_Node_iterator", align 8
  %this.addr = alloca ptr, align 8
  store ptr %this, ptr %this.addr, align 8
  %this1 = load ptr, ptr %this.addr, align 8
  %_M_h = getelementptr inbounds %"class.std::unordered_map", ptr %this1, i32 0, i32 0
  %call = call ptr @_ZNSt10_HashtableIN4cvc58internal12NodeTemplateILb0EEESt4pairIKS3_NS2_ILb1EEEESaIS7_ENSt8__detail10_Select1stESt8equal_toIS3_ESt4hashIS3_ENS9_18_Mod_range_hashingENS9_20_Default_ranged_hashENS9_20_Prime_rehash_policyENS9_17_Hashtable_traitsILb1ELb0ELb1EEEE3endEv(ptr noundef nonnull align 8 dereferenceable(56) %_M_h) #3
  %coerce.dive = getelementptr inbounds %"struct.std::__detail::_Node_iterator", ptr %retval, i32 0, i32 0
  %coerce.dive2 = getelementptr inbounds %"struct.std::__detail::_Node_iterator_base", ptr %coerce.dive, i32 0, i32 0
  store ptr %call, ptr %coerce.dive2, align 8
  %coerce.dive3 = getelementptr inbounds %"struct.std::__detail::_Node_iterator", ptr %retval, i32 0, i32 0
  %coerce.dive4 = getelementptr inbounds %"struct.std::__detail::_Node_iterator_base", ptr %coerce.dive3, i32 0, i32 0
  %0 = load ptr, ptr %coerce.dive4, align 8
  ret ptr %0
}

; Function Attrs: mustprogress nounwind uwtable
define linkonce_odr hidden noundef ptr @_ZNKSt8__detail14_Node_iteratorISt4pairIKN4cvc58internal12NodeTemplateILb0EEENS4_ILb1EEEELb0ELb1EEptEv(ptr noundef nonnull align 8 dereferenceable(8) %this) #5 comdat align 2 {
entry:
  %this.addr = alloca ptr, align 8
  store ptr %this, ptr %this.addr, align 8
  %this1 = load ptr, ptr %this.addr, align 8
  %_M_cur = getelementptr inbounds %"struct.std::__detail::_Node_iterator_base", ptr %this1, i32 0, i32 0
  %0 = load ptr, ptr %_M_cur, align 8
  %add.ptr = getelementptr inbounds i8, ptr %0, i64 8
  %call = call noundef ptr @_ZNSt8__detail21_Hash_node_value_baseISt4pairIKN4cvc58internal12NodeTemplateILb0EEENS4_ILb1EEEEE9_M_valptrEv(ptr noundef nonnull align 8 dereferenceable(16) %add.ptr) #3
  ret ptr %call
}

; Function Attrs: mustprogress uwtable
define linkonce_odr hidden void @_ZN4cvc58internal12NodeTemplateILb1EEC2Ev(ptr noundef nonnull align 8 dereferenceable(8) %this) unnamed_addr #4 comdat align 2 {
entry:
  %this.addr = alloca ptr, align 8
  store ptr %this, ptr %this.addr, align 8
  %this1 = load ptr, ptr %this.addr, align 8
  %d_nv = getelementptr inbounds %"class.cvc5::internal::NodeTemplate", ptr %this1, i32 0, i32 0
  %call = call noundef nonnull align 8 dereferenceable(16) ptr @_ZN4cvc58internal4expr9NodeValue4nullEv()
  store ptr %call, ptr %d_nv, align 8
  ret void
}

; Function Attrs: mustprogress uwtable
define linkonce_odr hidden noundef i64 @_ZNK4cvc58internal12NodeTemplateILb0EE14getNumChildrenEv(ptr noundef nonnull align 8 dereferenceable(8) %this) #4 comdat align 2 {
entry:
  %this.addr = alloca ptr, align 8
  store ptr %this, ptr %this.addr, align 8
  %this1 = load ptr, ptr %this.addr, align 8
  call void @_ZNK4cvc58internal12NodeTemplateILb0EE21assertTNodeNotExpiredEv(ptr noundef nonnull align 8 dereferenceable(8) %this1)
  %d_nv = getelementptr inbounds %"class.cvc5::internal::NodeTemplate.0", ptr %this1, i32 0, i32 0
  %0 = load ptr, ptr %d_nv, align 8
  %call = call noundef i32 @_ZNK4cvc58internal4expr9NodeValue14getNumChildrenEv(ptr noundef nonnull align 8 dereferenceable(16) %0)
  %conv = zext i32 %call to i64
  ret i64 %conv
}

; Function Attrs: mustprogress uwtable
define linkonce_odr hidden void @_ZNK4cvc58internal12NodeTemplateILb0EEixEi(ptr noalias sret(%"class.cvc5::internal::NodeTemplate.0") align 8 %agg.result, ptr noundef nonnull align 8 dereferenceable(8) %this, i32 noundef %i) #4 comdat align 2 {
entry:
  %result.ptr = alloca ptr, align 8
  %this.addr = alloca ptr, align 8
  %i.addr = alloca i32, align 4
  store ptr %agg.result, ptr %result.ptr, align 8
  store ptr %this, ptr %this.addr, align 8
  store i32 %i, ptr %i.addr, align 4
  %this1 = load ptr, ptr %this.addr, align 8
  call void @_ZNK4cvc58internal12NodeTemplateILb0EE21assertTNodeNotExpiredEv(ptr noundef nonnull align 8 dereferenceable(8) %this1)
  %d_nv = getelementptr inbounds %"class.cvc5::internal::NodeTemplate.0", ptr %this1, i32 0, i32 0
  %0 = load ptr, ptr %d_nv, align 8
  %1 = load i32, ptr %i.addr, align 4
  %call = call noundef ptr @_ZNK4cvc58internal4expr9NodeValue8getChildEi(ptr noundef nonnull align 8 dereferenceable(16) %0, i32 noundef %1)
  call void @_ZN4cvc58internal12NodeTemplateILb0EEC2EPKNS0_4expr9NodeValueE(ptr noundef nonnull align 8 dereferenceable(8) %agg.result, ptr noundef %call)
  ret void
}

; Function Attrs: mustprogress uwtable
define linkonce_odr hidden noundef zeroext i1 @_ZNK4cvc58internal12NodeTemplateILb1EE6isNullEv(ptr noundef nonnull align 8 dereferenceable(8) %this) #4 comdat align 2 {
entry:
  %this.addr = alloca ptr, align 8
  store ptr %this, ptr %this.addr, align 8
  %this1 = load ptr, ptr %this.addr, align 8
  call void @_ZNK4cvc58internal12NodeTemplateILb1EE21assertTNodeNotExpiredEv(ptr noundef nonnull align 8 dereferenceable(8) %this1)
  %d_nv = getelementptr inbounds %"class.cvc5::internal::NodeTemplate", ptr %this1, i32 0, i32 0
  %0 = load ptr, ptr %d_nv, align 8
  %call = call noundef nonnull align 8 dereferenceable(16) ptr @_ZN4cvc58internal4expr9NodeValue4nullEv()
  %cmp = icmp eq ptr %0, %call
  ret i1 %cmp
}

; Function Attrs: mustprogress uwtable
define linkonce_odr hidden void @_ZNK4cvc58internal12NodeTemplateILb0EE6eqNodeILb0EEENS1_ILb1EEERKNS1_IXT_EEE(ptr noalias sret(%"class.cvc5::internal::NodeTemplate") align 8 %agg.result, ptr noundef nonnull align 8 dereferenceable(8) %this, ptr noundef nonnull align 8 dereferenceable(8) %right) #4 comdat align 2 personality ptr @__gxx_personality_v0 {
entry:
  %result.ptr = alloca ptr, align 8
  %this.addr = alloca ptr, align 8
  %right.addr = alloca ptr, align 8
  %agg.tmp = alloca %"class.cvc5::internal::NodeTemplate.0", align 8
  %agg.tmp2 = alloca %"class.cvc5::internal::NodeTemplate.0", align 8
  %exn.slot = alloca ptr, align 8
  %ehselector.slot = alloca i32, align 4
  store ptr %agg.result, ptr %result.ptr, align 8
  store ptr %this, ptr %this.addr, align 8
  store ptr %right, ptr %right.addr, align 8
  %this1 = load ptr, ptr %this.addr, align 8
  call void @_ZNK4cvc58internal12NodeTemplateILb0EE21assertTNodeNotExpiredEv(ptr noundef nonnull align 8 dereferenceable(8) %this1)
  %call = call noundef ptr @_ZN4cvc58internal11NodeManager9currentNMEv()
  call void @_ZN4cvc58internal12NodeTemplateILb0EEC2ERKS2_(ptr noundef nonnull align 8 dereferenceable(8) %agg.tmp, ptr noundef nonnull align 8 dereferenceable(8) %this1)
  %0 = load ptr, ptr %right.addr, align 8
  invoke void @_ZN4cvc58internal12NodeTemplateILb0EEC2ERKS2_(ptr noundef nonnull align 8 dereferenceable(8) %agg.tmp2, ptr noundef nonnull align 8 dereferenceable(8) %0)
          to label %invoke.cont unwind label %lpad

invoke.cont:                                      ; preds = %entry
  invoke void @_ZN4cvc58internal11NodeManager6mkNodeENS0_4kind6Kind_tENS0_12NodeTemplateILb0EEES5_(ptr sret(%"class.cvc5::internal::NodeTemplate") align 8 %agg.result, ptr noundef nonnull align 8 dereferenceable(3360) %call, i32 noundef 5, ptr noundef %agg.tmp, ptr noundef %agg.tmp2)
          to label %invoke.cont4 unwind label %lpad3

invoke.cont4:                                     ; preds = %invoke.cont
  call void @_ZN4cvc58internal12NodeTemplateILb0EED2Ev(ptr noundef nonnull align 8 dereferenceable(8) %agg.tmp2) #3
  call void @_ZN4cvc58internal12NodeTemplateILb0EED2Ev(ptr noundef nonnull align 8 dereferenceable(8) %agg.tmp) #3
  ret void

lpad:                                             ; preds = %entry
  %1 = landingpad { ptr, i32 }
          cleanup
  %2 = extractvalue { ptr, i32 } %1, 0
  store ptr %2, ptr %exn.slot, align 8
  %3 = extractvalue { ptr, i32 } %1, 1
  store i32 %3, ptr %ehselector.slot, align 4
  br label %ehcleanup

lpad3:                                            ; preds = %invoke.cont
  %4 = landingpad { ptr, i32 }
          cleanup
  %5 = extractvalue { ptr, i32 } %4, 0
  store ptr %5, ptr %exn.slot, align 8
  %6 = extractvalue { ptr, i32 } %4, 1
  store i32 %6, ptr %ehselector.slot, align 4
  call void @_ZN4cvc58internal12NodeTemplateILb0EED2Ev(ptr noundef nonnull align 8 dereferenceable(8) %agg.tmp2) #3
  br label %ehcleanup

ehcleanup:                                        ; preds = %lpad3, %lpad
  call void @_ZN4cvc58internal12NodeTemplateILb0EED2Ev(ptr noundef nonnull align 8 dereferenceable(8) %agg.tmp) #3
  br label %eh.resume

eh.resume:                                        ; preds = %ehcleanup
  %exn = load ptr, ptr %exn.slot, align 8
  %sel = load i32, ptr %ehselector.slot, align 4
  %lpad.val = insertvalue { ptr, i32 } poison, ptr %exn, 0
  %lpad.val5 = insertvalue { ptr, i32 } %lpad.val, i32 %sel, 1
  resume { ptr, i32 } %lpad.val5
}

; Function Attrs: mustprogress uwtable
define linkonce_odr hidden void @_ZN4cvc58internal11NodeManager6mkNodeENS0_4kind6Kind_tENS0_12NodeTemplateILb0EEES5_S5_(ptr noalias sret(%"class.cvc5::internal::NodeTemplate") align 8 %agg.result, ptr noundef nonnull align 8 dereferenceable(3360) %this, i32 noundef %kind, ptr noundef %child1, ptr noundef %child2, ptr noundef %child3) #4 comdat align 2 personality ptr @__gxx_personality_v0 {
entry:
  %result.ptr = alloca ptr, align 8
  %this.addr = alloca ptr, align 8
  %kind.addr = alloca i32, align 4
  %child1.indirect_addr = alloca ptr, align 8
  %child2.indirect_addr = alloca ptr, align 8
  %child3.indirect_addr = alloca ptr, align 8
  %nb = alloca %"class.cvc5::internal::NodeBuilder", align 8
  %agg.tmp = alloca %"class.cvc5::internal::NodeTemplate.0", align 8
  %exn.slot = alloca ptr, align 8
  %ehselector.slot = alloca i32, align 4
  %agg.tmp4 = alloca %"class.cvc5::internal::NodeTemplate.0", align 8
  %agg.tmp9 = alloca %"class.cvc5::internal::NodeTemplate.0", align 8
  store ptr %agg.result, ptr %result.ptr, align 8
  store ptr %this, ptr %this.addr, align 8
  store i32 %kind, ptr %kind.addr, align 4
  store ptr %child1, ptr %child1.indirect_addr, align 8
  store ptr %child2, ptr %child2.indirect_addr, align 8
  store ptr %child3, ptr %child3.indirect_addr, align 8
  %this1 = load ptr, ptr %this.addr, align 8
  %0 = load i32, ptr %kind.addr, align 4
  call void @_ZN4cvc58internal11NodeBuilderC1EPNS0_11NodeManagerENS0_4kind6Kind_tE(ptr noundef nonnull align 8 dereferenceable(116) %nb, ptr noundef %this1, i32 noundef %0)
  invoke void @_ZN4cvc58internal12NodeTemplateILb0EEC2ERKS2_(ptr noundef nonnull align 8 dereferenceable(8) %agg.tmp, ptr noundef nonnull align 8 dereferenceable(8) %child1)
          to label %invoke.cont unwind label %lpad

invoke.cont:                                      ; preds = %entry
  %call = invoke noundef nonnull align 8 dereferenceable(116) ptr @_ZN4cvc58internal11NodeBuilderlsENS0_12NodeTemplateILb0EEE(ptr noundef nonnull align 8 dereferenceable(116) %nb, ptr noundef %agg.tmp)
          to label %invoke.cont3 unwind label %lpad2

invoke.cont3:                                     ; preds = %invoke.cont
  invoke void @_ZN4cvc58internal12NodeTemplateILb0EEC2ERKS2_(ptr noundef nonnull align 8 dereferenceable(8) %agg.tmp4, ptr noundef nonnull align 8 dereferenceable(8) %child2)
          to label %invoke.cont5 unwind label %lpad2

invoke.cont5:                                     ; preds = %invoke.cont3
  %call8 = invoke noundef nonnull align 8 dereferenceable(116) ptr @_ZN4cvc58internal11NodeBuilderlsENS0_12NodeTemplateILb0EEE(ptr noundef nonnull align 8 dereferenceable(116) %call, ptr noundef %agg.tmp4)
          to label %invoke.cont7 unwind label %lpad6

invoke.cont7:                                     ; preds = %invoke.cont5
  invoke void @_ZN4cvc58internal12NodeTemplateILb0EEC2ERKS2_(ptr noundef nonnull align 8 dereferenceable(8) %agg.tmp9, ptr noundef nonnull align 8 dereferenceable(8) %child3)
          to label %invoke.cont10 unwind label %lpad6

invoke.cont10:                                    ; preds = %invoke.cont7
  %call13 = invoke noundef nonnull align 8 dereferenceable(116) ptr @_ZN4cvc58internal11NodeBuilderlsENS0_12NodeTemplateILb0EEE(ptr noundef nonnull align 8 dereferenceable(116) %call8, ptr noundef %agg.tmp9)
          to label %invoke.cont12 unwind label %lpad11

invoke.cont12:                                    ; preds = %invoke.cont10
  call void @_ZN4cvc58internal12NodeTemplateILb0EED2Ev(ptr noundef nonnull align 8 dereferenceable(8) %agg.tmp9) #3
  call void @_ZN4cvc58internal12NodeTemplateILb0EED2Ev(ptr noundef nonnull align 8 dereferenceable(8) %agg.tmp4) #3
  call void @_ZN4cvc58internal12NodeTemplateILb0EED2Ev(ptr noundef nonnull align 8 dereferenceable(8) %agg.tmp) #3
  invoke void @_ZN4cvc58internal11NodeBuilder13constructNodeEv(ptr sret(%"class.cvc5::internal::NodeTemplate") align 8 %agg.result, ptr noundef nonnull align 8 dereferenceable(116) %nb)
          to label %invoke.cont15 unwind label %lpad

invoke.cont15:                                    ; preds = %invoke.cont12
  call void @_ZN4cvc58internal11NodeBuilderD1Ev(ptr noundef nonnull align 8 dereferenceable(116) %nb) #3
  ret void

lpad:                                             ; preds = %invoke.cont12, %entry
  %1 = landingpad { ptr, i32 }
          cleanup
  %2 = extractvalue { ptr, i32 } %1, 0
  store ptr %2, ptr %exn.slot, align 8
  %3 = extractvalue { ptr, i32 } %1, 1
  store i32 %3, ptr %ehselector.slot, align 4
  br label %ehcleanup16

lpad2:                                            ; preds = %invoke.cont3, %invoke.cont
  %4 = landingpad { ptr, i32 }
          cleanup
  %5 = extractvalue { ptr, i32 } %4, 0
  store ptr %5, ptr %exn.slot, align 8
  %6 = extractvalue { ptr, i32 } %4, 1
  store i32 %6, ptr %ehselector.slot, align 4
  br label %ehcleanup14

lpad6:                                            ; preds = %invoke.cont7, %invoke.cont5
  %7 = landingpad { ptr, i32 }
          cleanup
  %8 = extractvalue { ptr, i32 } %7, 0
  store ptr %8, ptr %exn.slot, align 8
  %9 = extractvalue { ptr, i32 } %7, 1
  store i32 %9, ptr %ehselector.slot, align 4
  br label %ehcleanup

lpad11:                                           ; preds = %invoke.cont10
  %10 = landingpad { ptr, i32 }
          cleanup
  %11 = extractvalue { ptr, i32 } %10, 0
  store ptr %11, ptr %exn.slot, align 8
  %12 = extractvalue { ptr, i32 } %10, 1
  store i32 %12, ptr %ehselector.slot, align 4
  call void @_ZN4cvc58internal12NodeTemplateILb0EED2Ev(ptr noundef nonnull align 8 dereferenceable(8) %agg.tmp9) #3
  br label %ehcleanup

ehcleanup:                                        ; preds = %lpad11, %lpad6
  call void @_ZN4cvc58internal12NodeTemplateILb0EED2Ev(ptr noundef nonnull align 8 dereferenceable(8) %agg.tmp4) #3
  br label %ehcleanup14

ehcleanup14:                                      ; preds = %ehcleanup, %lpad2
  call void @_ZN4cvc58internal12NodeTemplateILb0EED2Ev(ptr noundef nonnull align 8 dereferenceable(8) %agg.tmp) #3
  br label %ehcleanup16

ehcleanup16:                                      ; preds = %ehcleanup14, %lpad
  call void @_ZN4cvc58internal11NodeBuilderD1Ev(ptr noundef nonnull align 8 dereferenceable(116) %nb) #3
  br label %eh.resume

eh.resume:                                        ; preds = %ehcleanup16
  %exn = load ptr, ptr %exn.slot, align 8
  %sel = load i32, ptr %ehselector.slot, align 4
  %lpad.val = insertvalue { ptr, i32 } poison, ptr %exn, 0
  %lpad.val17 = insertvalue { ptr, i32 } %lpad.val, i32 %sel, 1
  resume { ptr, i32 } %lpad.val17
}

; Function Attrs: mustprogress uwtable
define linkonce_odr hidden noundef nonnull align 8 dereferenceable(8) ptr @_ZN4cvc58internal12NodeTemplateILb1EEaSERKS2_(ptr noundef nonnull align 8 dereferenceable(8) %this, ptr noundef nonnull align 8 dereferenceable(8) %e) #4 comdat align 2 {
entry:
  %this.addr = alloca ptr, align 8
  %e.addr = alloca ptr, align 8
  store ptr %this, ptr %this.addr, align 8
  store ptr %e, ptr %e.addr, align 8
  %this1 = load ptr, ptr %this.addr, align 8
  %d_nv = getelementptr inbounds %"class.cvc5::internal::NodeTemplate", ptr %this1, i32 0, i32 0
  %0 = load ptr, ptr %d_nv, align 8
  %1 = load ptr, ptr %e.addr, align 8
  %d_nv2 = getelementptr inbounds %"class.cvc5::internal::NodeTemplate", ptr %1, i32 0, i32 0
  %2 = load ptr, ptr %d_nv2, align 8
  %cmp = icmp ne ptr %0, %2
  br i1 %cmp, label %if.then, label %if.end

if.then:                                          ; preds = %entry
  %d_nv3 = getelementptr inbounds %"class.cvc5::internal::NodeTemplate", ptr %this1, i32 0, i32 0
  %3 = load ptr, ptr %d_nv3, align 8
  call void @_ZN4cvc58internal4expr9NodeValue3decEv(ptr noundef nonnull align 8 dereferenceable(16) %3)
  %4 = load ptr, ptr %e.addr, align 8
  %d_nv4 = getelementptr inbounds %"class.cvc5::internal::NodeTemplate", ptr %4, i32 0, i32 0
  %5 = load ptr, ptr %d_nv4, align 8
  %d_nv5 = getelementptr inbounds %"class.cvc5::internal::NodeTemplate", ptr %this1, i32 0, i32 0
  store ptr %5, ptr %d_nv5, align 8
  %d_nv6 = getelementptr inbounds %"class.cvc5::internal::NodeTemplate", ptr %this1, i32 0, i32 0
  %6 = load ptr, ptr %d_nv6, align 8
  call void @_ZN4cvc58internal4expr9NodeValue3incEv(ptr noundef nonnull align 8 dereferenceable(16) %6)
  br label %if.end

if.end:                                           ; preds = %if.then, %entry
  ret ptr %this1
}

; Function Attrs: mustprogress uwtable
define linkonce_odr hidden noundef nonnull align 8 dereferenceable(16) ptr @_ZNK4cvc58internal12NodeTemplateILb0EE8getConstINS0_13ArrayStoreAllEEERKT_v(ptr noundef nonnull align 8 dereferenceable(8) %this) #4 comdat align 2 {
entry:
  %this.addr = alloca ptr, align 8
  store ptr %this, ptr %this.addr, align 8
  %this1 = load ptr, ptr %this.addr, align 8
  call void @_ZNK4cvc58internal12NodeTemplateILb0EE21assertTNodeNotExpiredEv(ptr noundef nonnull align 8 dereferenceable(8) %this1)
  %d_nv = getelementptr inbounds %"class.cvc5::internal::NodeTemplate.0", ptr %this1, i32 0, i32 0
  %0 = load ptr, ptr %d_nv, align 8
  %call = call noundef nonnull align 8 dereferenceable(16) ptr @_ZNK4cvc58internal4expr9NodeValue8getConstINS0_13ArrayStoreAllEEERKT_v(ptr noundef nonnull align 8 dereferenceable(16) %0)
  ret ptr %call
}

declare void @_ZN4cvc58internal13ArrayStoreAllC1ERKS1_(ptr noundef nonnull align 8 dereferenceable(16), ptr noundef nonnull align 8 dereferenceable(16)) unnamed_addr #1

declare noundef nonnull align 8 dereferenceable(8) ptr @_ZNK4cvc58internal13ArrayStoreAll8getValueEv(ptr noundef nonnull align 8 dereferenceable(16)) #1

; Function Attrs: nounwind
declare void @_ZN4cvc58internal13ArrayStoreAllD1Ev(ptr noundef nonnull align 8 dereferenceable(16)) unnamed_addr #2

; Function Attrs: mustprogress uwtable
define linkonce_odr hidden noundef nonnull align 8 dereferenceable(8) ptr @_ZN4cvc58internal12NodeTemplateILb1EEaSERKNS1_ILb0EEE(ptr noundef nonnull align 8 dereferenceable(8) %this, ptr noundef nonnull align 8 dereferenceable(8) %e) #4 comdat align 2 {
entry:
  %this.addr = alloca ptr, align 8
  %e.addr = alloca ptr, align 8
  store ptr %this, ptr %this.addr, align 8
  store ptr %e, ptr %e.addr, align 8
  %this1 = load ptr, ptr %this.addr, align 8
  %d_nv = getelementptr inbounds %"class.cvc5::internal::NodeTemplate", ptr %this1, i32 0, i32 0
  %0 = load ptr, ptr %d_nv, align 8
  %1 = load ptr, ptr %e.addr, align 8
  %d_nv2 = getelementptr inbounds %"class.cvc5::internal::NodeTemplate.0", ptr %1, i32 0, i32 0
  %2 = load ptr, ptr %d_nv2, align 8
  %cmp = icmp ne ptr %0, %2
  br i1 %cmp, label %if.then, label %if.end

if.then:                                          ; preds = %entry
  %d_nv3 = getelementptr inbounds %"class.cvc5::internal::NodeTemplate", ptr %this1, i32 0, i32 0
  %3 = load ptr, ptr %d_nv3, align 8
  call void @_ZN4cvc58internal4expr9NodeValue3decEv(ptr noundef nonnull align 8 dereferenceable(16) %3)
  %4 = load ptr, ptr %e.addr, align 8
  %d_nv4 = getelementptr inbounds %"class.cvc5::internal::NodeTemplate.0", ptr %4, i32 0, i32 0
  %5 = load ptr, ptr %d_nv4, align 8
  %d_nv5 = getelementptr inbounds %"class.cvc5::internal::NodeTemplate", ptr %this1, i32 0, i32 0
  store ptr %5, ptr %d_nv5, align 8
  %d_nv6 = getelementptr inbounds %"class.cvc5::internal::NodeTemplate", ptr %this1, i32 0, i32 0
  %6 = load ptr, ptr %d_nv6, align 8
  call void @_ZN4cvc58internal4expr9NodeValue3incEv(ptr noundef nonnull align 8 dereferenceable(16) %6)
  br label %if.end

if.end:                                           ; preds = %if.then, %entry
  ret ptr %this1
}

; Function Attrs: mustprogress uwtable
define linkonce_odr hidden noundef nonnull align 8 dereferenceable(8) ptr @_ZNSt13unordered_mapIN4cvc58internal12NodeTemplateILb0EEENS2_ILb1EEESt4hashIS3_ESt8equal_toIS3_ESaISt4pairIKS3_S4_EEEixERSA_(ptr noundef nonnull align 8 dereferenceable(56) %this, ptr noundef nonnull align 8 dereferenceable(8) %__k) #4 comdat align 2 {
entry:
  %this.addr = alloca ptr, align 8
  %__k.addr = alloca ptr, align 8
  store ptr %this, ptr %this.addr, align 8
  store ptr %__k, ptr %__k.addr, align 8
  %this1 = load ptr, ptr %this.addr, align 8
  %_M_h = getelementptr inbounds %"class.std::unordered_map", ptr %this1, i32 0, i32 0
  %0 = load ptr, ptr %__k.addr, align 8
  %call = call noundef nonnull align 8 dereferenceable(8) ptr @_ZNSt8__detail9_Map_baseIN4cvc58internal12NodeTemplateILb0EEESt4pairIKS4_NS3_ILb1EEEESaIS8_ENS_10_Select1stESt8equal_toIS4_ESt4hashIS4_ENS_18_Mod_range_hashingENS_20_Default_ranged_hashENS_20_Prime_rehash_policyENS_17_Hashtable_traitsILb1ELb0ELb1EEELb1EEixERS6_(ptr noundef nonnull align 1 dereferenceable(1) %_M_h, ptr noundef nonnull align 8 dereferenceable(8) %0)
  ret ptr %call
}

; Function Attrs: mustprogress nounwind uwtable
define linkonce_odr hidden void @_ZNSt13unordered_mapIN4cvc58internal12NodeTemplateILb0EEENS2_ILb1EEESt4hashIS3_ESt8equal_toIS3_ESaISt4pairIKS3_S4_EEEC2Ev(ptr noundef nonnull align 8 dereferenceable(56) %this) unnamed_addr #5 comdat align 2 {
entry:
  %this.addr = alloca ptr, align 8
  store ptr %this, ptr %this.addr, align 8
  %this1 = load ptr, ptr %this.addr, align 8
  %_M_h = getelementptr inbounds %"class.std::unordered_map", ptr %this1, i32 0, i32 0
  call void @_ZNSt10_HashtableIN4cvc58internal12NodeTemplateILb0EEESt4pairIKS3_NS2_ILb1EEEESaIS7_ENSt8__detail10_Select1stESt8equal_toIS3_ESt4hashIS3_ENS9_18_Mod_range_hashingENS9_20_Default_ranged_hashENS9_20_Prime_rehash_policyENS9_17_Hashtable_traitsILb1ELb0ELb1EEEEC2Ev(ptr noundef nonnull align 8 dereferenceable(56) %_M_h) #3
  ret void
}

; Function Attrs: mustprogress nounwind uwtable
define linkonce_odr hidden noundef zeroext i1 @_ZN4cvc58internal11__cvc5_truecvbEv(ptr noundef nonnull align 1 dereferenceable(1) %this) #5 comdat align 2 {
entry:
  %this.addr = alloca ptr, align 8
  store ptr %this, ptr %this.addr, align 8
  ret i1 true
}

; Function Attrs: mustprogress uwtable
define linkonce_odr hidden void @_ZNK4cvc58internal5NullCcvNS0_11Cvc5ostreamEEv(ptr noalias sret(%"class.cvc5::internal::Cvc5ostream") align 8 %agg.result, ptr noundef nonnull align 1 dereferenceable(1) %this) #4 comdat align 2 {
entry:
  %this.addr = alloca ptr, align 8
  store ptr %this, ptr %this.addr, align 8
  call void @_ZN4cvc58internal11Cvc5ostreamC2Ev(ptr noundef nonnull align 8 dereferenceable(24) %agg.result)
  ret void
}

; Function Attrs: mustprogress uwtable
define linkonce_odr hidden void @_ZNK4cvc58internal6TraceCclEv(ptr noalias sret(%"class.cvc5::internal::Cvc5ostream") align 8 %agg.result, ptr noundef nonnull align 8 dereferenceable(32) %this) #4 comdat align 2 {
entry:
  %this.addr = alloca ptr, align 8
  store ptr %this, ptr %this.addr, align 8
  %this1 = load ptr, ptr %this.addr, align 8
  %d_os = getelementptr inbounds %"class.cvc5::internal::TraceC", ptr %this1, i32 0, i32 0
  %0 = load ptr, ptr %d_os, align 8
  call void @_ZN4cvc58internal11Cvc5ostreamC2EPSo(ptr noundef nonnull align 8 dereferenceable(24) %agg.result, ptr noundef %0)
  ret void
}

; Function Attrs: mustprogress uwtable
define linkonce_odr hidden noundef nonnull align 8 dereferenceable(24) ptr @_ZN4cvc58internal11Cvc5ostreamlsIA18_cEERS1_RKT_(ptr noundef nonnull align 8 dereferenceable(24) %this, ptr noundef nonnull align 1 dereferenceable(18) %t) #4 comdat align 2 {
entry:
  %this.addr = alloca ptr, align 8
  %t.addr = alloca ptr, align 8
  %indent = alloca i64, align 8
  %i = alloca i64, align 8
  store ptr %this, ptr %this.addr, align 8
  store ptr %t, ptr %t.addr, align 8
  %this1 = load ptr, ptr %this.addr, align 8
  %d_os = getelementptr inbounds %"class.cvc5::internal::Cvc5ostream", ptr %this1, i32 0, i32 0
  %0 = load ptr, ptr %d_os, align 8
  %cmp = icmp ne ptr %0, null
  br i1 %cmp, label %if.then, label %if.end11

if.then:                                          ; preds = %entry
  %d_firstColumn = getelementptr inbounds %"class.cvc5::internal::Cvc5ostream", ptr %this1, i32 0, i32 1
  %1 = load i8, ptr %d_firstColumn, align 8
  %tobool = trunc i8 %1 to i1
  br i1 %tobool, label %if.then2, label %if.end

if.then2:                                         ; preds = %if.then
  %d_firstColumn3 = getelementptr inbounds %"class.cvc5::internal::Cvc5ostream", ptr %this1, i32 0, i32 1
  store i8 0, ptr %d_firstColumn3, align 8
  %d_os4 = getelementptr inbounds %"class.cvc5::internal::Cvc5ostream", ptr %this1, i32 0, i32 0
  %2 = load ptr, ptr %d_os4, align 8
  %vtable = load ptr, ptr %2, align 8
  %vbase.offset.ptr = getelementptr i8, ptr %vtable, i64 -24
  %vbase.offset = load i64, ptr %vbase.offset.ptr, align 8
  %add.ptr = getelementptr inbounds i8, ptr %2, i64 %vbase.offset
  %3 = load i32, ptr @_ZN4cvc58internal11Cvc5ostream16s_indentIosIndexE, align 4
  %call = call noundef nonnull align 8 dereferenceable(8) ptr @_ZNSt8ios_base5iwordEi(ptr noundef nonnull align 8 dereferenceable(216) %add.ptr, i32 noundef %3)
  %4 = load i64, ptr %call, align 8
  store i64 %4, ptr %indent, align 8
  store i64 0, ptr %i, align 8
  br label %for.cond

for.cond:                                         ; preds = %for.inc, %if.then2
  %5 = load i64, ptr %i, align 8
  %6 = load i64, ptr %indent, align 8
  %cmp5 = icmp slt i64 %5, %6
  br i1 %cmp5, label %for.body, label %for.end

for.body:                                         ; preds = %for.cond
  %d_os6 = getelementptr inbounds %"class.cvc5::internal::Cvc5ostream", ptr %this1, i32 0, i32 0
  %7 = load ptr, ptr %d_os6, align 8
  %call7 = call noundef nonnull align 8 dereferenceable(8) ptr @_ZStlsIcSt11char_traitsIcESaIcEERSt13basic_ostreamIT_T0_ES7_RKNSt7__cxx1112basic_stringIS4_S5_T1_EE(ptr noundef nonnull align 8 dereferenceable(8) %7, ptr noundef nonnull align 8 dereferenceable(32) @_ZN4cvc58internal11Cvc5ostream5s_tabB5cxx11E)
  %d_os8 = getelementptr inbounds %"class.cvc5::internal::Cvc5ostream", ptr %this1, i32 0, i32 0
  store ptr %call7, ptr %d_os8, align 8
  br label %for.inc

for.inc:                                          ; preds = %for.body
  %8 = load i64, ptr %i, align 8
  %inc = add nsw i64 %8, 1
  store i64 %inc, ptr %i, align 8
  br label %for.cond, !llvm.loop !8

for.end:                                          ; preds = %for.cond
  br label %if.end

if.end:                                           ; preds = %for.end, %if.then
  %d_os9 = getelementptr inbounds %"class.cvc5::internal::Cvc5ostream", ptr %this1, i32 0, i32 0
  %9 = load ptr, ptr %d_os9, align 8
  %10 = load ptr, ptr %t.addr, align 8
  %arraydecay = getelementptr inbounds [18 x i8], ptr %10, i64 0, i64 0
  %call10 = call noundef nonnull align 8 dereferenceable(8) ptr @_ZStlsISt11char_traitsIcEERSt13basic_ostreamIcT_ES5_PKc(ptr noundef nonnull align 8 dereferenceable(8) %9, ptr noundef %arraydecay)
  br label %if.end11

if.end11:                                         ; preds = %if.end, %entry
  ret ptr %this1
}

; Function Attrs: mustprogress uwtable
define linkonce_odr hidden noundef nonnull align 8 dereferenceable(24) ptr @_ZN4cvc58internal11Cvc5ostreamlsINS0_12NodeTemplateILb0EEEEERS1_RKT_(ptr noundef nonnull align 8 dereferenceable(24) %this, ptr noundef nonnull align 8 dereferenceable(8) %t) #4 comdat align 2 personality ptr @__gxx_personality_v0 {
entry:
  %this.addr = alloca ptr, align 8
  %t.addr = alloca ptr, align 8
  %indent = alloca i64, align 8
  %i = alloca i64, align 8
  %agg.tmp = alloca %"class.cvc5::internal::NodeTemplate.0", align 8
  %exn.slot = alloca ptr, align 8
  %ehselector.slot = alloca i32, align 4
  store ptr %this, ptr %this.addr, align 8
  store ptr %t, ptr %t.addr, align 8
  %this1 = load ptr, ptr %this.addr, align 8
  %d_os = getelementptr inbounds %"class.cvc5::internal::Cvc5ostream", ptr %this1, i32 0, i32 0
  %0 = load ptr, ptr %d_os, align 8
  %cmp = icmp ne ptr %0, null
  br i1 %cmp, label %if.then, label %if.end11

if.then:                                          ; preds = %entry
  %d_firstColumn = getelementptr inbounds %"class.cvc5::internal::Cvc5ostream", ptr %this1, i32 0, i32 1
  %1 = load i8, ptr %d_firstColumn, align 8
  %tobool = trunc i8 %1 to i1
  br i1 %tobool, label %if.then2, label %if.end

if.then2:                                         ; preds = %if.then
  %d_firstColumn3 = getelementptr inbounds %"class.cvc5::internal::Cvc5ostream", ptr %this1, i32 0, i32 1
  store i8 0, ptr %d_firstColumn3, align 8
  %d_os4 = getelementptr inbounds %"class.cvc5::internal::Cvc5ostream", ptr %this1, i32 0, i32 0
  %2 = load ptr, ptr %d_os4, align 8
  %vtable = load ptr, ptr %2, align 8
  %vbase.offset.ptr = getelementptr i8, ptr %vtable, i64 -24
  %vbase.offset = load i64, ptr %vbase.offset.ptr, align 8
  %add.ptr = getelementptr inbounds i8, ptr %2, i64 %vbase.offset
  %3 = load i32, ptr @_ZN4cvc58internal11Cvc5ostream16s_indentIosIndexE, align 4
  %call = call noundef nonnull align 8 dereferenceable(8) ptr @_ZNSt8ios_base5iwordEi(ptr noundef nonnull align 8 dereferenceable(216) %add.ptr, i32 noundef %3)
  %4 = load i64, ptr %call, align 8
  store i64 %4, ptr %indent, align 8
  store i64 0, ptr %i, align 8
  br label %for.cond

for.cond:                                         ; preds = %for.inc, %if.then2
  %5 = load i64, ptr %i, align 8
  %6 = load i64, ptr %indent, align 8
  %cmp5 = icmp slt i64 %5, %6
  br i1 %cmp5, label %for.body, label %for.end

for.body:                                         ; preds = %for.cond
  %d_os6 = getelementptr inbounds %"class.cvc5::internal::Cvc5ostream", ptr %this1, i32 0, i32 0
  %7 = load ptr, ptr %d_os6, align 8
  %call7 = call noundef nonnull align 8 dereferenceable(8) ptr @_ZStlsIcSt11char_traitsIcESaIcEERSt13basic_ostreamIT_T0_ES7_RKNSt7__cxx1112basic_stringIS4_S5_T1_EE(ptr noundef nonnull align 8 dereferenceable(8) %7, ptr noundef nonnull align 8 dereferenceable(32) @_ZN4cvc58internal11Cvc5ostream5s_tabB5cxx11E)
  %d_os8 = getelementptr inbounds %"class.cvc5::internal::Cvc5ostream", ptr %this1, i32 0, i32 0
  store ptr %call7, ptr %d_os8, align 8
  br label %for.inc

for.inc:                                          ; preds = %for.body
  %8 = load i64, ptr %i, align 8
  %inc = add nsw i64 %8, 1
  store i64 %inc, ptr %i, align 8
  br label %for.cond, !llvm.loop !9

for.end:                                          ; preds = %for.cond
  br label %if.end

if.end:                                           ; preds = %for.end, %if.then
  %d_os9 = getelementptr inbounds %"class.cvc5::internal::Cvc5ostream", ptr %this1, i32 0, i32 0
  %9 = load ptr, ptr %d_os9, align 8
  %10 = load ptr, ptr %t.addr, align 8
  call void @_ZN4cvc58internal12NodeTemplateILb0EEC2ERKS2_(ptr noundef nonnull align 8 dereferenceable(8) %agg.tmp, ptr noundef nonnull align 8 dereferenceable(8) %10)
  %call10 = invoke noundef nonnull align 8 dereferenceable(8) ptr @_ZN4cvc58internallsERSoNS0_12NodeTemplateILb0EEE(ptr noundef nonnull align 8 dereferenceable(8) %9, ptr noundef %agg.tmp)
          to label %invoke.cont unwind label %lpad

invoke.cont:                                      ; preds = %if.end
  call void @_ZN4cvc58internal12NodeTemplateILb0EED2Ev(ptr noundef nonnull align 8 dereferenceable(8) %agg.tmp) #3
  br label %if.end11

lpad:                                             ; preds = %if.end
  %11 = landingpad { ptr, i32 }
          cleanup
  %12 = extractvalue { ptr, i32 } %11, 0
  store ptr %12, ptr %exn.slot, align 8
  %13 = extractvalue { ptr, i32 } %11, 1
  store i32 %13, ptr %ehselector.slot, align 4
  call void @_ZN4cvc58internal12NodeTemplateILb0EED2Ev(ptr noundef nonnull align 8 dereferenceable(8) %agg.tmp) #3
  br label %eh.resume

if.end11:                                         ; preds = %invoke.cont, %entry
  ret ptr %this1

eh.resume:                                        ; preds = %lpad
  %exn = load ptr, ptr %exn.slot, align 8
  %sel = load i32, ptr %ehselector.slot, align 4
  %lpad.val = insertvalue { ptr, i32 } poison, ptr %exn, 0
  %lpad.val12 = insertvalue { ptr, i32 } %lpad.val, i32 %sel, 1
  resume { ptr, i32 } %lpad.val12
}

; Function Attrs: mustprogress uwtable
define linkonce_odr hidden noundef nonnull align 8 dereferenceable(24) ptr @_ZN4cvc58internal11Cvc5ostreamlsEPFRSoS2_E(ptr noundef nonnull align 8 dereferenceable(24) %this, ptr noundef %pf) #4 comdat align 2 {
entry:
  %this.addr = alloca ptr, align 8
  %pf.addr = alloca ptr, align 8
  store ptr %this, ptr %this.addr, align 8
  store ptr %pf, ptr %pf.addr, align 8
  %this1 = load ptr, ptr %this.addr, align 8
  %d_os = getelementptr inbounds %"class.cvc5::internal::Cvc5ostream", ptr %this1, i32 0, i32 0
  %0 = load ptr, ptr %d_os, align 8
  %cmp = icmp ne ptr %0, null
  br i1 %cmp, label %if.then, label %if.end6

if.then:                                          ; preds = %entry
  %d_os2 = getelementptr inbounds %"class.cvc5::internal::Cvc5ostream", ptr %this1, i32 0, i32 0
  %1 = load ptr, ptr %d_os2, align 8
  %2 = load ptr, ptr %pf.addr, align 8
  %call = call noundef nonnull align 8 dereferenceable(8) ptr @_ZNSolsEPFRSoS_E(ptr noundef nonnull align 8 dereferenceable(8) %1, ptr noundef %2)
  %d_os3 = getelementptr inbounds %"class.cvc5::internal::Cvc5ostream", ptr %this1, i32 0, i32 0
  store ptr %call, ptr %d_os3, align 8
  %3 = load ptr, ptr %pf.addr, align 8
  %d_endl = getelementptr inbounds %"class.cvc5::internal::Cvc5ostream", ptr %this1, i32 0, i32 2
  %4 = load ptr, ptr %d_endl, align 8
  %cmp4 = icmp eq ptr %3, %4
  br i1 %cmp4, label %if.then5, label %if.end

if.then5:                                         ; preds = %if.then
  %d_firstColumn = getelementptr inbounds %"class.cvc5::internal::Cvc5ostream", ptr %this1, i32 0, i32 1
  store i8 1, ptr %d_firstColumn, align 8
  br label %if.end

if.end:                                           ; preds = %if.then5, %if.then
  br label %if.end6

if.end6:                                          ; preds = %if.end, %entry
  ret ptr %this1
}

declare noundef nonnull align 8 dereferenceable(8) ptr @_ZSt4endlIcSt11char_traitsIcEERSt13basic_ostreamIT_T0_ES6_(ptr noundef nonnull align 8 dereferenceable(8)) #1

; Function Attrs: nocallback nofree nounwind willreturn memory(argmem: readwrite)
declare void @llvm.memcpy.p0.p0.i64(ptr noalias nocapture writeonly, ptr noalias nocapture readonly, i64, i1 immarg) #6

; Function Attrs: mustprogress uwtable
define linkonce_odr hidden noundef nonnull align 8 dereferenceable(24) ptr @_ZN4cvc58internal11Cvc5ostreamlsIA20_cEERS1_RKT_(ptr noundef nonnull align 8 dereferenceable(24) %this, ptr noundef nonnull align 1 dereferenceable(20) %t) #4 comdat align 2 {
entry:
  %this.addr = alloca ptr, align 8
  %t.addr = alloca ptr, align 8
  %indent = alloca i64, align 8
  %i = alloca i64, align 8
  store ptr %this, ptr %this.addr, align 8
  store ptr %t, ptr %t.addr, align 8
  %this1 = load ptr, ptr %this.addr, align 8
  %d_os = getelementptr inbounds %"class.cvc5::internal::Cvc5ostream", ptr %this1, i32 0, i32 0
  %0 = load ptr, ptr %d_os, align 8
  %cmp = icmp ne ptr %0, null
  br i1 %cmp, label %if.then, label %if.end11

if.then:                                          ; preds = %entry
  %d_firstColumn = getelementptr inbounds %"class.cvc5::internal::Cvc5ostream", ptr %this1, i32 0, i32 1
  %1 = load i8, ptr %d_firstColumn, align 8
  %tobool = trunc i8 %1 to i1
  br i1 %tobool, label %if.then2, label %if.end

if.then2:                                         ; preds = %if.then
  %d_firstColumn3 = getelementptr inbounds %"class.cvc5::internal::Cvc5ostream", ptr %this1, i32 0, i32 1
  store i8 0, ptr %d_firstColumn3, align 8
  %d_os4 = getelementptr inbounds %"class.cvc5::internal::Cvc5ostream", ptr %this1, i32 0, i32 0
  %2 = load ptr, ptr %d_os4, align 8
  %vtable = load ptr, ptr %2, align 8
  %vbase.offset.ptr = getelementptr i8, ptr %vtable, i64 -24
  %vbase.offset = load i64, ptr %vbase.offset.ptr, align 8
  %add.ptr = getelementptr inbounds i8, ptr %2, i64 %vbase.offset
  %3 = load i32, ptr @_ZN4cvc58internal11Cvc5ostream16s_indentIosIndexE, align 4
  %call = call noundef nonnull align 8 dereferenceable(8) ptr @_ZNSt8ios_base5iwordEi(ptr noundef nonnull align 8 dereferenceable(216) %add.ptr, i32 noundef %3)
  %4 = load i64, ptr %call, align 8
  store i64 %4, ptr %indent, align 8
  store i64 0, ptr %i, align 8
  br label %for.cond

for.cond:                                         ; preds = %for.inc, %if.then2
  %5 = load i64, ptr %i, align 8
  %6 = load i64, ptr %indent, align 8
  %cmp5 = icmp slt i64 %5, %6
  br i1 %cmp5, label %for.body, label %for.end

for.body:                                         ; preds = %for.cond
  %d_os6 = getelementptr inbounds %"class.cvc5::internal::Cvc5ostream", ptr %this1, i32 0, i32 0
  %7 = load ptr, ptr %d_os6, align 8
  %call7 = call noundef nonnull align 8 dereferenceable(8) ptr @_ZStlsIcSt11char_traitsIcESaIcEERSt13basic_ostreamIT_T0_ES7_RKNSt7__cxx1112basic_stringIS4_S5_T1_EE(ptr noundef nonnull align 8 dereferenceable(8) %7, ptr noundef nonnull align 8 dereferenceable(32) @_ZN4cvc58internal11Cvc5ostream5s_tabB5cxx11E)
  %d_os8 = getelementptr inbounds %"class.cvc5::internal::Cvc5ostream", ptr %this1, i32 0, i32 0
  store ptr %call7, ptr %d_os8, align 8
  br label %for.inc

for.inc:                                          ; preds = %for.body
  %8 = load i64, ptr %i, align 8
  %inc = add nsw i64 %8, 1
  store i64 %inc, ptr %i, align 8
  br label %for.cond, !llvm.loop !10

for.end:                                          ; preds = %for.cond
  br label %if.end

if.end:                                           ; preds = %for.end, %if.then
  %d_os9 = getelementptr inbounds %"class.cvc5::internal::Cvc5ostream", ptr %this1, i32 0, i32 0
  %9 = load ptr, ptr %d_os9, align 8
  %10 = load ptr, ptr %t.addr, align 8
  %arraydecay = getelementptr inbounds [20 x i8], ptr %10, i64 0, i64 0
  %call10 = call noundef nonnull align 8 dereferenceable(8) ptr @_ZStlsISt11char_traitsIcEERSt13basic_ostreamIcT_ES5_PKc(ptr noundef nonnull align 8 dereferenceable(8) %9, ptr noundef %arraydecay)
  br label %if.end11

if.end11:                                         ; preds = %if.end, %entry
  ret ptr %this1
}

; Function Attrs: mustprogress uwtable
define linkonce_odr hidden noundef nonnull align 8 dereferenceable(24) ptr @_ZN4cvc58internal11Cvc5ostreamlsINS0_12NodeTemplateILb1EEEEERS1_RKT_(ptr noundef nonnull align 8 dereferenceable(24) %this, ptr noundef nonnull align 8 dereferenceable(8) %t) #4 comdat align 2 personality ptr @__gxx_personality_v0 {
entry:
  %this.addr = alloca ptr, align 8
  %t.addr = alloca ptr, align 8
  %indent = alloca i64, align 8
  %i = alloca i64, align 8
  %agg.tmp = alloca %"class.cvc5::internal::NodeTemplate.0", align 8
  %exn.slot = alloca ptr, align 8
  %ehselector.slot = alloca i32, align 4
  store ptr %this, ptr %this.addr, align 8
  store ptr %t, ptr %t.addr, align 8
  %this1 = load ptr, ptr %this.addr, align 8
  %d_os = getelementptr inbounds %"class.cvc5::internal::Cvc5ostream", ptr %this1, i32 0, i32 0
  %0 = load ptr, ptr %d_os, align 8
  %cmp = icmp ne ptr %0, null
  br i1 %cmp, label %if.then, label %if.end11

if.then:                                          ; preds = %entry
  %d_firstColumn = getelementptr inbounds %"class.cvc5::internal::Cvc5ostream", ptr %this1, i32 0, i32 1
  %1 = load i8, ptr %d_firstColumn, align 8
  %tobool = trunc i8 %1 to i1
  br i1 %tobool, label %if.then2, label %if.end

if.then2:                                         ; preds = %if.then
  %d_firstColumn3 = getelementptr inbounds %"class.cvc5::internal::Cvc5ostream", ptr %this1, i32 0, i32 1
  store i8 0, ptr %d_firstColumn3, align 8
  %d_os4 = getelementptr inbounds %"class.cvc5::internal::Cvc5ostream", ptr %this1, i32 0, i32 0
  %2 = load ptr, ptr %d_os4, align 8
  %vtable = load ptr, ptr %2, align 8
  %vbase.offset.ptr = getelementptr i8, ptr %vtable, i64 -24
  %vbase.offset = load i64, ptr %vbase.offset.ptr, align 8
  %add.ptr = getelementptr inbounds i8, ptr %2, i64 %vbase.offset
  %3 = load i32, ptr @_ZN4cvc58internal11Cvc5ostream16s_indentIosIndexE, align 4
  %call = call noundef nonnull align 8 dereferenceable(8) ptr @_ZNSt8ios_base5iwordEi(ptr noundef nonnull align 8 dereferenceable(216) %add.ptr, i32 noundef %3)
  %4 = load i64, ptr %call, align 8
  store i64 %4, ptr %indent, align 8
  store i64 0, ptr %i, align 8
  br label %for.cond

for.cond:                                         ; preds = %for.inc, %if.then2
  %5 = load i64, ptr %i, align 8
  %6 = load i64, ptr %indent, align 8
  %cmp5 = icmp slt i64 %5, %6
  br i1 %cmp5, label %for.body, label %for.end

for.body:                                         ; preds = %for.cond
  %d_os6 = getelementptr inbounds %"class.cvc5::internal::Cvc5ostream", ptr %this1, i32 0, i32 0
  %7 = load ptr, ptr %d_os6, align 8
  %call7 = call noundef nonnull align 8 dereferenceable(8) ptr @_ZStlsIcSt11char_traitsIcESaIcEERSt13basic_ostreamIT_T0_ES7_RKNSt7__cxx1112basic_stringIS4_S5_T1_EE(ptr noundef nonnull align 8 dereferenceable(8) %7, ptr noundef nonnull align 8 dereferenceable(32) @_ZN4cvc58internal11Cvc5ostream5s_tabB5cxx11E)
  %d_os8 = getelementptr inbounds %"class.cvc5::internal::Cvc5ostream", ptr %this1, i32 0, i32 0
  store ptr %call7, ptr %d_os8, align 8
  br label %for.inc

for.inc:                                          ; preds = %for.body
  %8 = load i64, ptr %i, align 8
  %inc = add nsw i64 %8, 1
  store i64 %inc, ptr %i, align 8
  br label %for.cond, !llvm.loop !11

for.end:                                          ; preds = %for.cond
  br label %if.end

if.end:                                           ; preds = %for.end, %if.then
  %d_os9 = getelementptr inbounds %"class.cvc5::internal::Cvc5ostream", ptr %this1, i32 0, i32 0
  %9 = load ptr, ptr %d_os9, align 8
  %10 = load ptr, ptr %t.addr, align 8
  call void @_ZN4cvc58internal12NodeTemplateILb0EEC2ERKNS1_ILb1EEE(ptr noundef nonnull align 8 dereferenceable(8) %agg.tmp, ptr noundef nonnull align 8 dereferenceable(8) %10)
  %call10 = invoke noundef nonnull align 8 dereferenceable(8) ptr @_ZN4cvc58internallsERSoNS0_12NodeTemplateILb0EEE(ptr noundef nonnull align 8 dereferenceable(8) %9, ptr noundef %agg.tmp)
          to label %invoke.cont unwind label %lpad

invoke.cont:                                      ; preds = %if.end
  call void @_ZN4cvc58internal12NodeTemplateILb0EED2Ev(ptr noundef nonnull align 8 dereferenceable(8) %agg.tmp) #3
  br label %if.end11

lpad:                                             ; preds = %if.end
  %11 = landingpad { ptr, i32 }
          cleanup
  %12 = extractvalue { ptr, i32 } %11, 0
  store ptr %12, ptr %exn.slot, align 8
  %13 = extractvalue { ptr, i32 } %11, 1
  store i32 %13, ptr %ehselector.slot, align 4
  call void @_ZN4cvc58internal12NodeTemplateILb0EED2Ev(ptr noundef nonnull align 8 dereferenceable(8) %agg.tmp) #3
  br label %eh.resume

if.end11:                                         ; preds = %invoke.cont, %entry
  ret ptr %this1

eh.resume:                                        ; preds = %lpad
  %exn = load ptr, ptr %exn.slot, align 8
  %sel = load i32, ptr %ehselector.slot, align 4
  %lpad.val = insertvalue { ptr, i32 } poison, ptr %exn, 0
  %lpad.val12 = insertvalue { ptr, i32 } %lpad.val, i32 %sel, 1
  resume { ptr, i32 } %lpad.val12
}

; Function Attrs: mustprogress uwtable
define linkonce_odr hidden void @_ZN4cvc58internal11NodeManager6mkNodeENS0_4kind6Kind_tENS0_12NodeTemplateILb0EEES5_(ptr noalias sret(%"class.cvc5::internal::NodeTemplate") align 8 %agg.result, ptr noundef nonnull align 8 dereferenceable(3360) %this, i32 noundef %kind, ptr noundef %child1, ptr noundef %child2) #4 comdat align 2 personality ptr @__gxx_personality_v0 {
entry:
  %result.ptr = alloca ptr, align 8
  %this.addr = alloca ptr, align 8
  %kind.addr = alloca i32, align 4
  %child1.indirect_addr = alloca ptr, align 8
  %child2.indirect_addr = alloca ptr, align 8
  %nb = alloca %"class.cvc5::internal::NodeBuilder", align 8
  %agg.tmp = alloca %"class.cvc5::internal::NodeTemplate.0", align 8
  %exn.slot = alloca ptr, align 8
  %ehselector.slot = alloca i32, align 4
  %agg.tmp4 = alloca %"class.cvc5::internal::NodeTemplate.0", align 8
  store ptr %agg.result, ptr %result.ptr, align 8
  store ptr %this, ptr %this.addr, align 8
  store i32 %kind, ptr %kind.addr, align 4
  store ptr %child1, ptr %child1.indirect_addr, align 8
  store ptr %child2, ptr %child2.indirect_addr, align 8
  %this1 = load ptr, ptr %this.addr, align 8
  %0 = load i32, ptr %kind.addr, align 4
  call void @_ZN4cvc58internal11NodeBuilderC1EPNS0_11NodeManagerENS0_4kind6Kind_tE(ptr noundef nonnull align 8 dereferenceable(116) %nb, ptr noundef %this1, i32 noundef %0)
  invoke void @_ZN4cvc58internal12NodeTemplateILb0EEC2ERKS2_(ptr noundef nonnull align 8 dereferenceable(8) %agg.tmp, ptr noundef nonnull align 8 dereferenceable(8) %child1)
          to label %invoke.cont unwind label %lpad

invoke.cont:                                      ; preds = %entry
  %call = invoke noundef nonnull align 8 dereferenceable(116) ptr @_ZN4cvc58internal11NodeBuilderlsENS0_12NodeTemplateILb0EEE(ptr noundef nonnull align 8 dereferenceable(116) %nb, ptr noundef %agg.tmp)
          to label %invoke.cont3 unwind label %lpad2

invoke.cont3:                                     ; preds = %invoke.cont
  invoke void @_ZN4cvc58internal12NodeTemplateILb0EEC2ERKS2_(ptr noundef nonnull align 8 dereferenceable(8) %agg.tmp4, ptr noundef nonnull align 8 dereferenceable(8) %child2)
          to label %invoke.cont5 unwind label %lpad2

invoke.cont5:                                     ; preds = %invoke.cont3
  %call8 = invoke noundef nonnull align 8 dereferenceable(116) ptr @_ZN4cvc58internal11NodeBuilderlsENS0_12NodeTemplateILb0EEE(ptr noundef nonnull align 8 dereferenceable(116) %call, ptr noundef %agg.tmp4)
          to label %invoke.cont7 unwind label %lpad6

invoke.cont7:                                     ; preds = %invoke.cont5
  call void @_ZN4cvc58internal12NodeTemplateILb0EED2Ev(ptr noundef nonnull align 8 dereferenceable(8) %agg.tmp4) #3
  call void @_ZN4cvc58internal12NodeTemplateILb0EED2Ev(ptr noundef nonnull align 8 dereferenceable(8) %agg.tmp) #3
  invoke void @_ZN4cvc58internal11NodeBuilder13constructNodeEv(ptr sret(%"class.cvc5::internal::NodeTemplate") align 8 %agg.result, ptr noundef nonnull align 8 dereferenceable(116) %nb)
          to label %invoke.cont9 unwind label %lpad

invoke.cont9:                                     ; preds = %invoke.cont7
  call void @_ZN4cvc58internal11NodeBuilderD1Ev(ptr noundef nonnull align 8 dereferenceable(116) %nb) #3
  ret void

lpad:                                             ; preds = %invoke.cont7, %entry
  %1 = landingpad { ptr, i32 }
          cleanup
  %2 = extractvalue { ptr, i32 } %1, 0
  store ptr %2, ptr %exn.slot, align 8
  %3 = extractvalue { ptr, i32 } %1, 1
  store i32 %3, ptr %ehselector.slot, align 4
  br label %ehcleanup10

lpad2:                                            ; preds = %invoke.cont3, %invoke.cont
  %4 = landingpad { ptr, i32 }
          cleanup
  %5 = extractvalue { ptr, i32 } %4, 0
  store ptr %5, ptr %exn.slot, align 8
  %6 = extractvalue { ptr, i32 } %4, 1
  store i32 %6, ptr %ehselector.slot, align 4
  br label %ehcleanup

lpad6:                                            ; preds = %invoke.cont5
  %7 = landingpad { ptr, i32 }
          cleanup
  %8 = extractvalue { ptr, i32 } %7, 0
  store ptr %8, ptr %exn.slot, align 8
  %9 = extractvalue { ptr, i32 } %7, 1
  store i32 %9, ptr %ehselector.slot, align 4
  call void @_ZN4cvc58internal12NodeTemplateILb0EED2Ev(ptr noundef nonnull align 8 dereferenceable(8) %agg.tmp4) #3
  br label %ehcleanup

ehcleanup:                                        ; preds = %lpad6, %lpad2
  call void @_ZN4cvc58internal12NodeTemplateILb0EED2Ev(ptr noundef nonnull align 8 dereferenceable(8) %agg.tmp) #3
  br label %ehcleanup10

ehcleanup10:                                      ; preds = %ehcleanup, %lpad
  call void @_ZN4cvc58internal11NodeBuilderD1Ev(ptr noundef nonnull align 8 dereferenceable(116) %nb) #3
  br label %eh.resume

eh.resume:                                        ; preds = %ehcleanup10
  %exn = load ptr, ptr %exn.slot, align 8
  %sel = load i32, ptr %ehselector.slot, align 4
  %lpad.val = insertvalue { ptr, i32 } poison, ptr %exn, 0
  %lpad.val11 = insertvalue { ptr, i32 } %lpad.val, i32 %sel, 1
  resume { ptr, i32 } %lpad.val11
}

; Function Attrs: mustprogress uwtable
define linkonce_odr hidden noundef nonnull align 8 dereferenceable(24) ptr @_ZN4cvc58internal11Cvc5ostreamlsIA29_cEERS1_RKT_(ptr noundef nonnull align 8 dereferenceable(24) %this, ptr noundef nonnull align 1 dereferenceable(29) %t) #4 comdat align 2 {
entry:
  %this.addr = alloca ptr, align 8
  %t.addr = alloca ptr, align 8
  %indent = alloca i64, align 8
  %i = alloca i64, align 8
  store ptr %this, ptr %this.addr, align 8
  store ptr %t, ptr %t.addr, align 8
  %this1 = load ptr, ptr %this.addr, align 8
  %d_os = getelementptr inbounds %"class.cvc5::internal::Cvc5ostream", ptr %this1, i32 0, i32 0
  %0 = load ptr, ptr %d_os, align 8
  %cmp = icmp ne ptr %0, null
  br i1 %cmp, label %if.then, label %if.end11

if.then:                                          ; preds = %entry
  %d_firstColumn = getelementptr inbounds %"class.cvc5::internal::Cvc5ostream", ptr %this1, i32 0, i32 1
  %1 = load i8, ptr %d_firstColumn, align 8
  %tobool = trunc i8 %1 to i1
  br i1 %tobool, label %if.then2, label %if.end

if.then2:                                         ; preds = %if.then
  %d_firstColumn3 = getelementptr inbounds %"class.cvc5::internal::Cvc5ostream", ptr %this1, i32 0, i32 1
  store i8 0, ptr %d_firstColumn3, align 8
  %d_os4 = getelementptr inbounds %"class.cvc5::internal::Cvc5ostream", ptr %this1, i32 0, i32 0
  %2 = load ptr, ptr %d_os4, align 8
  %vtable = load ptr, ptr %2, align 8
  %vbase.offset.ptr = getelementptr i8, ptr %vtable, i64 -24
  %vbase.offset = load i64, ptr %vbase.offset.ptr, align 8
  %add.ptr = getelementptr inbounds i8, ptr %2, i64 %vbase.offset
  %3 = load i32, ptr @_ZN4cvc58internal11Cvc5ostream16s_indentIosIndexE, align 4
  %call = call noundef nonnull align 8 dereferenceable(8) ptr @_ZNSt8ios_base5iwordEi(ptr noundef nonnull align 8 dereferenceable(216) %add.ptr, i32 noundef %3)
  %4 = load i64, ptr %call, align 8
  store i64 %4, ptr %indent, align 8
  store i64 0, ptr %i, align 8
  br label %for.cond

for.cond:                                         ; preds = %for.inc, %if.then2
  %5 = load i64, ptr %i, align 8
  %6 = load i64, ptr %indent, align 8
  %cmp5 = icmp slt i64 %5, %6
  br i1 %cmp5, label %for.body, label %for.end

for.body:                                         ; preds = %for.cond
  %d_os6 = getelementptr inbounds %"class.cvc5::internal::Cvc5ostream", ptr %this1, i32 0, i32 0
  %7 = load ptr, ptr %d_os6, align 8
  %call7 = call noundef nonnull align 8 dereferenceable(8) ptr @_ZStlsIcSt11char_traitsIcESaIcEERSt13basic_ostreamIT_T0_ES7_RKNSt7__cxx1112basic_stringIS4_S5_T1_EE(ptr noundef nonnull align 8 dereferenceable(8) %7, ptr noundef nonnull align 8 dereferenceable(32) @_ZN4cvc58internal11Cvc5ostream5s_tabB5cxx11E)
  %d_os8 = getelementptr inbounds %"class.cvc5::internal::Cvc5ostream", ptr %this1, i32 0, i32 0
  store ptr %call7, ptr %d_os8, align 8
  br label %for.inc

for.inc:                                          ; preds = %for.body
  %8 = load i64, ptr %i, align 8
  %inc = add nsw i64 %8, 1
  store i64 %inc, ptr %i, align 8
  br label %for.cond, !llvm.loop !12

for.end:                                          ; preds = %for.cond
  br label %if.end

if.end:                                           ; preds = %for.end, %if.then
  %d_os9 = getelementptr inbounds %"class.cvc5::internal::Cvc5ostream", ptr %this1, i32 0, i32 0
  %9 = load ptr, ptr %d_os9, align 8
  %10 = load ptr, ptr %t.addr, align 8
  %arraydecay = getelementptr inbounds [29 x i8], ptr %10, i64 0, i64 0
  %call10 = call noundef nonnull align 8 dereferenceable(8) ptr @_ZStlsISt11char_traitsIcEERSt13basic_ostreamIcT_ES5_PKc(ptr noundef nonnull align 8 dereferenceable(8) %9, ptr noundef %arraydecay)
  br label %if.end11

if.end11:                                         ; preds = %if.end, %entry
  ret ptr %this1
}

; Function Attrs: mustprogress nounwind uwtable
define linkonce_odr hidden void @_ZNSt13unordered_mapIN4cvc58internal12NodeTemplateILb0EEENS2_ILb1EEESt4hashIS3_ESt8equal_toIS3_ESaISt4pairIKS3_S4_EEED2Ev(ptr noundef nonnull align 8 dereferenceable(56) %this) unnamed_addr #5 comdat align 2 {
entry:
  %this.addr = alloca ptr, align 8
  store ptr %this, ptr %this.addr, align 8
  %this1 = load ptr, ptr %this.addr, align 8
  %_M_h = getelementptr inbounds %"class.std::unordered_map", ptr %this1, i32 0, i32 0
  call void @_ZNSt10_HashtableIN4cvc58internal12NodeTemplateILb0EEESt4pairIKS3_NS2_ILb1EEEESaIS7_ENSt8__detail10_Select1stESt8equal_toIS3_ESt4hashIS3_ENS9_18_Mod_range_hashingENS9_20_Default_ranged_hashENS9_20_Prime_rehash_policyENS9_17_Hashtable_traitsILb1ELb0ELb1EEEED2Ev(ptr noundef nonnull align 8 dereferenceable(56) %_M_h) #3
  ret void
}

; Function Attrs: mustprogress uwtable
define hidden void @_ZN4cvc58internal6theory2uf13FunctionConst34getArrayRepresentationForLambdaRecENS0_12NodeTemplateILb0EEENS0_8TypeNodeE(ptr noalias sret(%"class.cvc5::internal::NodeTemplate") align 8 %agg.result, ptr noundef %n, ptr noundef %retType) #4 align 2 personality ptr @__gxx_personality_v0 {
entry:
  %result.ptr = alloca ptr, align 8
  %n.indirect_addr = alloca ptr, align 8
  %retType.indirect_addr = alloca ptr, align 8
  %nm = alloca ptr, align 8
  %ref.tmp = alloca %"class.cvc5::internal::__cvc5_true", align 1
  %tmp = alloca %"class.cvc5::internal::Cvc5ostream", align 8
  %agg.tmp.ensured = alloca %"class.cvc5::internal::Cvc5ostream", align 8
  %ref.tmp2 = alloca %"class.cvc5::internal::Cvc5ostream", align 8
  %first_arg = alloca %"class.cvc5::internal::NodeTemplate", align 8
  %ref.tmp6 = alloca %"class.cvc5::internal::NodeTemplate.0", align 8
  %ref.tmp7 = alloca %"class.cvc5::internal::NodeTemplate.0", align 8
  %exn.slot = alloca ptr, align 8
  %ehselector.slot = alloca i32, align 4
  %rec_bvl = alloca %"class.cvc5::internal::NodeTemplate", align 8
  %size = alloca i64, align 8
  %ref.tmp12 = alloca %"class.cvc5::internal::NodeTemplate.0", align 8
  %args = alloca %"class.std::vector.11", align 8
  %i = alloca i64, align 8
  %ref.tmp20 = alloca %"class.cvc5::internal::NodeTemplate", align 8
  %ref.tmp21 = alloca %"class.cvc5::internal::NodeTemplate.0", align 8
  %ref.tmp22 = alloca %"class.cvc5::internal::NodeTemplate.0", align 8
  %ref.tmp34 = alloca %"class.cvc5::internal::NodeTemplate", align 8
  %ref.tmp41 = alloca %"class.cvc5::internal::__cvc5_true", align 1
  %tmp45 = alloca %"class.cvc5::internal::Cvc5ostream", align 8
  %agg.tmp.ensured48 = alloca %"class.cvc5::internal::Cvc5ostream", align 8
  %ref.tmp49 = alloca %"class.cvc5::internal::Cvc5ostream", align 8
  %conds = alloca %"class.std::vector.11", align 8
  %vals = alloca %"class.std::vector.11", align 8
  %curr = alloca %"class.cvc5::internal::NodeTemplate", align 8
  %ref.tmp56 = alloca %"class.cvc5::internal::NodeTemplate.0", align 8
  %ck = alloca i32, align 4
  %index_eq = alloca %"class.cvc5::internal::NodeTemplate", align 8
  %curr_val = alloca %"class.cvc5::internal::NodeTemplate", align 8
  %next = alloca %"class.cvc5::internal::NodeTemplate", align 8
  %ref.tmp81 = alloca %"class.cvc5::internal::__cvc5_true", align 1
  %tmp86 = alloca %"class.cvc5::internal::Cvc5ostream", align 8
  %agg.tmp.ensured89 = alloca %"class.cvc5::internal::Cvc5ostream", align 8
  %ref.tmp90 = alloca %"class.cvc5::internal::Cvc5ostream", align 8
  %ref.tmp94 = alloca %"class.cvc5::internal::NodeTemplate", align 8
  %cleanup.cond = alloca i1, align 1
  %ref.tmp106 = alloca %"class.cvc5::internal::NodeTemplate", align 8
  %ref.tmp112 = alloca %"class.cvc5::internal::NodeTemplate", align 8
  %ref.tmp118 = alloca %"class.cvc5::internal::NodeTemplate", align 8
  %ref.tmp128 = alloca %"class.cvc5::internal::__cvc5_true", align 1
  %tmp132 = alloca %"class.cvc5::internal::Cvc5ostream", align 8
  %agg.tmp.ensured135 = alloca %"class.cvc5::internal::Cvc5ostream", align 8
  %ref.tmp136 = alloca %"class.cvc5::internal::Cvc5ostream", align 8
  %pol = alloca i8, align 1
  %ref.tmp145 = alloca %"class.cvc5::internal::NodeTemplate", align 8
  %inverted = alloca i8, align 1
  %ref.tmp157 = alloca %"class.cvc5::internal::NodeTemplate", align 8
  %ref.tmp162 = alloca %"class.cvc5::internal::NodeTemplate", align 8
  %cleanup.cond164 = alloca i1, align 1
  %processed = alloca %"class.cvc5::internal::NodeTemplate", align 8
  %remainder = alloca %"class.cvc5::internal::NodeTemplate", align 8
  %ref.tmp182 = alloca %"class.cvc5::internal::NodeTemplate", align 8
  %ref.tmp183 = alloca i8, align 1
  %ref.tmp201 = alloca %"class.cvc5::internal::NodeTemplate", align 8
  %remainderNodes = alloca %"class.std::vector.11", align 8
  %agg.tmp = alloca %"class.cvc5::internal::expr::NodeValue::iterator", align 8
  %ref.tmp208 = alloca %"class.cvc5::internal::expr::NodeValue::iterator", align 8
  %agg.tmp214 = alloca %"class.cvc5::internal::expr::NodeValue::iterator", align 8
  %ref.tmp218 = alloca %"class.std::allocator.13", align 1
  %ref.tmp224 = alloca %"class.cvc5::internal::NodeTemplate", align 8
  %ref.tmp244 = alloca %"class.cvc5::internal::__cvc5_true", align 1
  %tmp248 = alloca %"class.cvc5::internal::Cvc5ostream", align 8
  %agg.tmp.ensured251 = alloca %"class.cvc5::internal::Cvc5ostream", align 8
  %ref.tmp252 = alloca %"class.cvc5::internal::Cvc5ostream", align 8
  %cleanup.dest.slot = alloca i32, align 4
  %ref.tmp269 = alloca %"class.cvc5::internal::__cvc5_true", align 1
  %tmp273 = alloca %"class.cvc5::internal::Cvc5ostream", align 8
  %agg.tmp.ensured276 = alloca %"class.cvc5::internal::Cvc5ostream", align 8
  %ref.tmp277 = alloca %"class.cvc5::internal::Cvc5ostream", align 8
  %ref.tmp286 = alloca %"class.cvc5::internal::__cvc5_true", align 1
  %tmp290 = alloca %"class.cvc5::internal::Cvc5ostream", align 8
  %agg.tmp.ensured293 = alloca %"class.cvc5::internal::Cvc5ostream", align 8
  %ref.tmp294 = alloca %"class.cvc5::internal::Cvc5ostream", align 8
  %ref.tmp303 = alloca %"class.cvc5::internal::__cvc5_true", align 1
  %tmp307 = alloca %"class.cvc5::internal::Cvc5ostream", align 8
  %agg.tmp.ensured310 = alloca %"class.cvc5::internal::Cvc5ostream", align 8
  %ref.tmp311 = alloca %"class.cvc5::internal::Cvc5ostream", align 8
  %ref.tmp324 = alloca %"class.cvc5::internal::__cvc5_true", align 1
  %tmp328 = alloca %"class.cvc5::internal::Cvc5ostream", align 8
  %agg.tmp.ensured331 = alloca %"class.cvc5::internal::Cvc5ostream", align 8
  %ref.tmp332 = alloca %"class.cvc5::internal::Cvc5ostream", align 8
  %pol341 = alloca i8, align 1
  %ref.tmp344 = alloca %"class.cvc5::internal::NodeTemplate", align 8
  %ref.tmp355 = alloca %"class.cvc5::internal::NodeTemplate", align 8
  %ref.tmp361 = alloca %"class.cvc5::internal::NodeTemplate", align 8
  %ref.tmp362 = alloca i8, align 1
  %pol377 = alloca i8, align 1
  %indexEqAtom = alloca %"class.cvc5::internal::NodeTemplate", align 8
  %ref.tmp393 = alloca %"class.cvc5::internal::TypeNode", align 8
  %ref.tmp401 = alloca %"class.cvc5::internal::__cvc5_true", align 1
  %tmp405 = alloca %"class.cvc5::internal::Cvc5ostream", align 8
  %agg.tmp.ensured408 = alloca %"class.cvc5::internal::Cvc5ostream", align 8
  %ref.tmp409 = alloca %"class.cvc5::internal::Cvc5ostream", align 8
  %ref.tmp418 = alloca %"class.cvc5::internal::NodeTemplate", align 8
  %ref.tmp419 = alloca %"class.cvc5::internal::NodeTemplate", align 8
  %ref.tmp429 = alloca %"class.cvc5::internal::__cvc5_true", align 1
  %tmp433 = alloca %"class.cvc5::internal::Cvc5ostream", align 8
  %agg.tmp.ensured436 = alloca %"class.cvc5::internal::Cvc5ostream", align 8
  %ref.tmp437 = alloca %"class.cvc5::internal::Cvc5ostream", align 8
  %curr_index = alloca %"class.cvc5::internal::NodeTemplate", align 8
  %r = alloca i32, align 4
  %arg = alloca %"class.cvc5::internal::NodeTemplate", align 8
  %val = alloca %"class.cvc5::internal::NodeTemplate", align 8
  %ref.tmp465 = alloca %"class.cvc5::internal::__cvc5_true", align 1
  %tmp469 = alloca %"class.cvc5::internal::Cvc5ostream", align 8
  %agg.tmp.ensured472 = alloca %"class.cvc5::internal::Cvc5ostream", align 8
  %ref.tmp473 = alloca %"class.cvc5::internal::Cvc5ostream", align 8
  %ref.tmp499 = alloca %"class.cvc5::internal::__cvc5_true", align 1
  %tmp503 = alloca %"class.cvc5::internal::Cvc5ostream", align 8
  %agg.tmp.ensured506 = alloca %"class.cvc5::internal::Cvc5ostream", align 8
  %ref.tmp507 = alloca %"class.cvc5::internal::Cvc5ostream", align 8
  %ref.tmp518 = alloca %"class.cvc5::internal::NodeTemplate", align 8
  %agg.tmp519 = alloca %"class.cvc5::internal::NodeTemplate.0", align 8
  %agg.tmp521 = alloca %"class.cvc5::internal::NodeTemplate.0", align 8
  %ref.tmp532 = alloca %"class.cvc5::internal::__cvc5_true", align 1
  %tmp536 = alloca %"class.cvc5::internal::Cvc5ostream", align 8
  %agg.tmp.ensured539 = alloca %"class.cvc5::internal::Cvc5ostream", align 8
  %ref.tmp540 = alloca %"class.cvc5::internal::Cvc5ostream", align 8
  %ref.tmp545 = alloca %"class.cvc5::internal::__cvc5_true", align 1
  %tmp549 = alloca %"class.cvc5::internal::Cvc5ostream", align 8
  %agg.tmp.ensured552 = alloca %"class.cvc5::internal::Cvc5ostream", align 8
  %ref.tmp553 = alloca %"class.cvc5::internal::Cvc5ostream", align 8
  %ref.tmp558 = alloca %"class.cvc5::internal::NodeTemplate", align 8
  %agg.tmp559 = alloca %"class.cvc5::internal::NodeTemplate.0", align 8
  %agg.tmp561 = alloca %"class.cvc5::internal::TypeNode", align 8
  %ref.tmp572 = alloca %"class.cvc5::internal::__cvc5_true", align 1
  %tmp576 = alloca %"class.cvc5::internal::Cvc5ostream", align 8
  %agg.tmp.ensured579 = alloca %"class.cvc5::internal::Cvc5ostream", align 8
  %ref.tmp580 = alloca %"class.cvc5::internal::Cvc5ostream", align 8
  %ref.tmp585 = alloca %"class.cvc5::internal::__cvc5_true", align 1
  %tmp589 = alloca %"class.cvc5::internal::Cvc5ostream", align 8
  %agg.tmp.ensured592 = alloca %"class.cvc5::internal::Cvc5ostream", align 8
  %ref.tmp593 = alloca %"class.cvc5::internal::Cvc5ostream", align 8
  %ref.tmp601 = alloca %"class.cvc5::internal::__cvc5_true", align 1
  %tmp605 = alloca %"class.cvc5::internal::Cvc5ostream", align 8
  %agg.tmp.ensured608 = alloca %"class.cvc5::internal::Cvc5ostream", align 8
  %ref.tmp609 = alloca %"class.cvc5::internal::Cvc5ostream", align 8
  %ref.tmp619 = alloca %"class.cvc5::internal::__cvc5_true", align 1
  %tmp623 = alloca %"class.cvc5::internal::Cvc5ostream", align 8
  %agg.tmp.ensured626 = alloca %"class.cvc5::internal::Cvc5ostream", align 8
  %ref.tmp627 = alloca %"class.cvc5::internal::Cvc5ostream", align 8
  %ref.tmp642 = alloca %"class.cvc5::internal::__cvc5_true", align 1
  %tmp646 = alloca %"class.cvc5::internal::Cvc5ostream", align 8
  %agg.tmp.ensured649 = alloca %"class.cvc5::internal::Cvc5ostream", align 8
  %ref.tmp650 = alloca %"class.cvc5::internal::Cvc5ostream", align 8
  %ref.tmp663 = alloca %"class.cvc5::internal::__cvc5_true", align 1
  %tmp667 = alloca %"class.cvc5::internal::Cvc5ostream", align 8
  %agg.tmp.ensured670 = alloca %"class.cvc5::internal::Cvc5ostream", align 8
  %ref.tmp671 = alloca %"class.cvc5::internal::Cvc5ostream", align 8
  %ref.tmp693 = alloca %"class.cvc5::internal::NodeTemplate", align 8
  %agg.tmp694 = alloca %"class.cvc5::internal::NodeTemplate.0", align 8
  %agg.tmp696 = alloca %"class.cvc5::internal::NodeTemplate.0", align 8
  %ref.tmp707 = alloca %"class.cvc5::internal::__cvc5_true", align 1
  %tmp711 = alloca %"class.cvc5::internal::Cvc5ostream", align 8
  %agg.tmp.ensured714 = alloca %"class.cvc5::internal::Cvc5ostream", align 8
  %ref.tmp715 = alloca %"class.cvc5::internal::Cvc5ostream", align 8
  %ref.tmp720 = alloca %"class.cvc5::internal::__cvc5_true", align 1
  %tmp724 = alloca %"class.cvc5::internal::Cvc5ostream", align 8
  %agg.tmp.ensured727 = alloca %"class.cvc5::internal::Cvc5ostream", align 8
  %ref.tmp728 = alloca %"class.cvc5::internal::Cvc5ostream", align 8
  %ref.tmp733 = alloca %"class.cvc5::internal::NodeTemplate", align 8
  %agg.tmp734 = alloca %"class.cvc5::internal::NodeTemplate.0", align 8
  %agg.tmp736 = alloca %"class.cvc5::internal::TypeNode", align 8
  %ref.tmp747 = alloca %"class.cvc5::internal::__cvc5_true", align 1
  %tmp751 = alloca %"class.cvc5::internal::Cvc5ostream", align 8
  %agg.tmp.ensured754 = alloca %"class.cvc5::internal::Cvc5ostream", align 8
  %ref.tmp755 = alloca %"class.cvc5::internal::Cvc5ostream", align 8
  %ref.tmp760 = alloca %"class.cvc5::internal::__cvc5_true", align 1
  %tmp764 = alloca %"class.cvc5::internal::Cvc5ostream", align 8
  %agg.tmp.ensured767 = alloca %"class.cvc5::internal::Cvc5ostream", align 8
  %ref.tmp768 = alloca %"class.cvc5::internal::Cvc5ostream", align 8
  %array_type = alloca %"class.cvc5::internal::TypeNode", align 8
  %i781 = alloca i64, align 8
  %index = alloca i64, align 8
  %ref.tmp787 = alloca %"class.cvc5::internal::TypeNode", align 8
  %agg.tmp788 = alloca %"class.cvc5::internal::TypeNode", align 8
  %ref.tmp789 = alloca %"class.cvc5::internal::NodeTemplate.0", align 8
  %ref.tmp790 = alloca %"class.cvc5::internal::NodeTemplate.0", align 8
  %agg.tmp798 = alloca %"class.cvc5::internal::TypeNode", align 8
  %ref.tmp814 = alloca %"class.cvc5::internal::__cvc5_true", align 1
  %tmp818 = alloca %"class.cvc5::internal::Cvc5ostream", align 8
  %agg.tmp.ensured821 = alloca %"class.cvc5::internal::Cvc5ostream", align 8
  %ref.tmp822 = alloca %"class.cvc5::internal::Cvc5ostream", align 8
  %ref.tmp826 = alloca %"class.cvc5::internal::TypeNode", align 8
  %cleanup.cond828 = alloca i1, align 1
  %ref.tmp850 = alloca %"class.cvc5::internal::NodeTemplate", align 8
  %ref.tmp851 = alloca %"class.cvc5::internal::ArrayStoreAll", align 8
  %ref.tmp860 = alloca %"class.cvc5::internal::__cvc5_true", align 1
  %tmp864 = alloca %"class.cvc5::internal::Cvc5ostream", align 8
  %agg.tmp.ensured867 = alloca %"class.cvc5::internal::Cvc5ostream", align 8
  %ref.tmp868 = alloca %"class.cvc5::internal::Cvc5ostream", align 8
  %ref.tmp875 = alloca %"class.cvc5::internal::__cvc5_true", align 1
  %tmp879 = alloca %"class.cvc5::internal::Cvc5ostream", align 8
  %agg.tmp.ensured882 = alloca %"class.cvc5::internal::Cvc5ostream", align 8
  %ref.tmp883 = alloca %"class.cvc5::internal::Cvc5ostream", align 8
  %ref.tmp892 = alloca %"class.cvc5::internal::__cvc5_true", align 1
  %tmp896 = alloca %"class.cvc5::internal::Cvc5ostream", align 8
  %agg.tmp.ensured899 = alloca %"class.cvc5::internal::Cvc5ostream", align 8
  %ref.tmp900 = alloca %"class.cvc5::internal::Cvc5ostream", align 8
  %ref.tmp909 = alloca %"class.cvc5::internal::__cvc5_true", align 1
  %tmp913 = alloca %"class.cvc5::internal::Cvc5ostream", align 8
  %agg.tmp.ensured916 = alloca %"class.cvc5::internal::Cvc5ostream", align 8
  %ref.tmp917 = alloca %"class.cvc5::internal::Cvc5ostream", align 8
  %i926 = alloca i64, align 8
  %numCond = alloca i64, align 8
  %ii = alloca i64, align 8
  %ref.tmp933 = alloca %"class.cvc5::internal::NodeTemplate", align 8
  %agg.tmp934 = alloca %"class.cvc5::internal::NodeTemplate.0", align 8
  %agg.tmp936 = alloca %"class.cvc5::internal::NodeTemplate.0", align 8
  %agg.tmp940 = alloca %"class.cvc5::internal::NodeTemplate.0", align 8
  %ref.tmp953 = alloca %"class.cvc5::internal::NodeTemplate", align 8
  %agg.tmp954 = alloca %"class.cvc5::internal::NodeTemplate.0", align 8
  %ref.tmp966 = alloca %"class.cvc5::internal::__cvc5_true", align 1
  %tmp970 = alloca %"class.cvc5::internal::Cvc5ostream", align 8
  %agg.tmp.ensured973 = alloca %"class.cvc5::internal::Cvc5ostream", align 8
  %ref.tmp974 = alloca %"class.cvc5::internal::Cvc5ostream", align 8
  %ref.tmp991 = alloca %"class.cvc5::internal::__cvc5_true", align 1
  %tmp995 = alloca %"class.cvc5::internal::Cvc5ostream", align 8
  %agg.tmp.ensured998 = alloca %"class.cvc5::internal::Cvc5ostream", align 8
  %ref.tmp999 = alloca %"class.cvc5::internal::Cvc5ostream", align 8
  store ptr %agg.result, ptr %result.ptr, align 8
  store ptr %n, ptr %n.indirect_addr, align 8
  store ptr %retType, ptr %retType.indirect_addr, align 8
  %call = call noundef ptr @_ZN4cvc58internal11NodeManager9currentNMEv()
  store ptr %call, ptr %nm, align 8
  %call1 = call noundef zeroext i1 @_ZN4cvc58internal11__cvc5_truecvbEv(ptr noundef nonnull align 1 dereferenceable(1) %ref.tmp)
  br i1 %call1, label %cond.true, label %cond.false

cond.true:                                        ; preds = %entry
  call void @_ZNK4cvc58internal5NullCcvNS0_11Cvc5ostreamEEv(ptr sret(%"class.cvc5::internal::Cvc5ostream") align 8 %tmp, ptr noundef nonnull align 1 dereferenceable(1) @_ZN4cvc58internal10nullStreamE)
  br label %cond.end

cond.false:                                       ; preds = %entry
  call void @_ZNK4cvc58internal6TraceCclEv(ptr sret(%"class.cvc5::internal::Cvc5ostream") align 8 %ref.tmp2, ptr noundef nonnull align 8 dereferenceable(32) @_ZN4cvc58internal12TraceChannelE)
  %call3 = call noundef nonnull align 8 dereferenceable(24) ptr @_ZN4cvc58internal11Cvc5ostreamlsIA32_cEERS1_RKT_(ptr noundef nonnull align 8 dereferenceable(24) %ref.tmp2, ptr noundef nonnull align 1 dereferenceable(32) @.str.4)
  %call4 = call noundef nonnull align 8 dereferenceable(24) ptr @_ZN4cvc58internal11Cvc5ostreamlsINS0_12NodeTemplateILb0EEEEERS1_RKT_(ptr noundef nonnull align 8 dereferenceable(24) %call3, ptr noundef nonnull align 8 dereferenceable(8) %n)
  %call5 = call noundef nonnull align 8 dereferenceable(24) ptr @_ZN4cvc58internal11Cvc5ostreamlsEPFRSoS2_E(ptr noundef nonnull align 8 dereferenceable(24) %call4, ptr noundef @_ZSt4endlIcSt11char_traitsIcEERSt13basic_ostreamIT_T0_ES6_)
  call void @llvm.memcpy.p0.p0.i64(ptr align 8 %agg.tmp.ensured, ptr align 8 %call5, i64 24, i1 false)
  br label %cond.end

cond.end:                                         ; preds = %cond.false, %cond.true
  call void @_ZNK4cvc58internal12NodeTemplateILb0EEixEi(ptr sret(%"class.cvc5::internal::NodeTemplate.0") align 8 %ref.tmp7, ptr noundef nonnull align 8 dereferenceable(8) %n, i32 noundef 0)
  invoke void @_ZNK4cvc58internal12NodeTemplateILb0EEixEi(ptr sret(%"class.cvc5::internal::NodeTemplate.0") align 8 %ref.tmp6, ptr noundef nonnull align 8 dereferenceable(8) %ref.tmp7, i32 noundef 0)
          to label %invoke.cont unwind label %lpad

invoke.cont:                                      ; preds = %cond.end
  invoke void @_ZN4cvc58internal12NodeTemplateILb1EEC2ERKNS1_ILb0EEE(ptr noundef nonnull align 8 dereferenceable(8) %first_arg, ptr noundef nonnull align 8 dereferenceable(8) %ref.tmp6)
          to label %invoke.cont9 unwind label %lpad8

invoke.cont9:                                     ; preds = %invoke.cont
  call void @_ZN4cvc58internal12NodeTemplateILb0EED2Ev(ptr noundef nonnull align 8 dereferenceable(8) %ref.tmp6) #3
  call void @_ZN4cvc58internal12NodeTemplateILb0EED2Ev(ptr noundef nonnull align 8 dereferenceable(8) %ref.tmp7) #3
  invoke void @_ZN4cvc58internal12NodeTemplateILb1EEC2Ev(ptr noundef nonnull align 8 dereferenceable(8) %rec_bvl)
          to label %invoke.cont11 unwind label %lpad10

invoke.cont11:                                    ; preds = %invoke.cont9
  invoke void @_ZNK4cvc58internal12NodeTemplateILb0EEixEi(ptr sret(%"class.cvc5::internal::NodeTemplate.0") align 8 %ref.tmp12, ptr noundef nonnull align 8 dereferenceable(8) %n, i32 noundef 0)
          to label %invoke.cont14 unwind label %lpad13

invoke.cont14:                                    ; preds = %invoke.cont11
  %call17 = invoke noundef i64 @_ZNK4cvc58internal12NodeTemplateILb0EE14getNumChildrenEv(ptr noundef nonnull align 8 dereferenceable(8) %ref.tmp12)
          to label %invoke.cont16 unwind label %lpad15

invoke.cont16:                                    ; preds = %invoke.cont14
  call void @_ZN4cvc58internal12NodeTemplateILb0EED2Ev(ptr noundef nonnull align 8 dereferenceable(8) %ref.tmp12) #3
  store i64 %call17, ptr %size, align 8
  %0 = load i64, ptr %size, align 8
  %cmp = icmp ugt i64 %0, 1
  br i1 %cmp, label %if.then, label %if.end

if.then:                                          ; preds = %invoke.cont16
  call void @_ZNSt6vectorIN4cvc58internal12NodeTemplateILb1EEESaIS3_EEC2Ev(ptr noundef nonnull align 8 dereferenceable(24) %args) #3
  store i64 1, ptr %i, align 8
  br label %for.cond

for.cond:                                         ; preds = %for.inc, %if.then
  %1 = load i64, ptr %i, align 8
  %2 = load i64, ptr %size, align 8
  %cmp19 = icmp ult i64 %1, %2
  br i1 %cmp19, label %for.body, label %for.end

for.body:                                         ; preds = %for.cond
  invoke void @_ZNK4cvc58internal12NodeTemplateILb0EEixEi(ptr sret(%"class.cvc5::internal::NodeTemplate.0") align 8 %ref.tmp22, ptr noundef nonnull align 8 dereferenceable(8) %n, i32 noundef 0)
          to label %invoke.cont24 unwind label %lpad23

invoke.cont24:                                    ; preds = %for.body
  %3 = load i64, ptr %i, align 8
  %conv = trunc i64 %3 to i32
  invoke void @_ZNK4cvc58internal12NodeTemplateILb0EEixEi(ptr sret(%"class.cvc5::internal::NodeTemplate.0") align 8 %ref.tmp21, ptr noundef nonnull align 8 dereferenceable(8) %ref.tmp22, i32 noundef %conv)
          to label %invoke.cont26 unwind label %lpad25

invoke.cont26:                                    ; preds = %invoke.cont24
  invoke void @_ZN4cvc58internal12NodeTemplateILb1EEC2ERKNS1_ILb0EEE(ptr noundef nonnull align 8 dereferenceable(8) %ref.tmp20, ptr noundef nonnull align 8 dereferenceable(8) %ref.tmp21)
          to label %invoke.cont28 unwind label %lpad27

invoke.cont28:                                    ; preds = %invoke.cont26
  invoke void @_ZNSt6vectorIN4cvc58internal12NodeTemplateILb1EEESaIS3_EE9push_backEOS3_(ptr noundef nonnull align 8 dereferenceable(24) %args, ptr noundef nonnull align 8 dereferenceable(8) %ref.tmp20)
          to label %invoke.cont30 unwind label %lpad29

invoke.cont30:                                    ; preds = %invoke.cont28
  call void @_ZN4cvc58internal12NodeTemplateILb1EED2Ev(ptr noundef nonnull align 8 dereferenceable(8) %ref.tmp20) #3
  call void @_ZN4cvc58internal12NodeTemplateILb0EED2Ev(ptr noundef nonnull align 8 dereferenceable(8) %ref.tmp21) #3
  call void @_ZN4cvc58internal12NodeTemplateILb0EED2Ev(ptr noundef nonnull align 8 dereferenceable(8) %ref.tmp22) #3
  br label %for.inc

for.inc:                                          ; preds = %invoke.cont30
  %4 = load i64, ptr %i, align 8
  %inc = add i64 %4, 1
  store i64 %inc, ptr %i, align 8
  br label %for.cond, !llvm.loop !13

lpad:                                             ; preds = %cond.end
  %5 = landingpad { ptr, i32 }
          cleanup
  %6 = extractvalue { ptr, i32 } %5, 0
  store ptr %6, ptr %exn.slot, align 8
  %7 = extractvalue { ptr, i32 } %5, 1
  store i32 %7, ptr %ehselector.slot, align 4
  br label %ehcleanup

lpad8:                                            ; preds = %invoke.cont
  %8 = landingpad { ptr, i32 }
          cleanup
  %9 = extractvalue { ptr, i32 } %8, 0
  store ptr %9, ptr %exn.slot, align 8
  %10 = extractvalue { ptr, i32 } %8, 1
  store i32 %10, ptr %ehselector.slot, align 4
  call void @_ZN4cvc58internal12NodeTemplateILb0EED2Ev(ptr noundef nonnull align 8 dereferenceable(8) %ref.tmp6) #3
  br label %ehcleanup

ehcleanup:                                        ; preds = %lpad8, %lpad
  call void @_ZN4cvc58internal12NodeTemplateILb0EED2Ev(ptr noundef nonnull align 8 dereferenceable(8) %ref.tmp7) #3
  br label %eh.resume

lpad10:                                           ; preds = %invoke.cont9
  %11 = landingpad { ptr, i32 }
          cleanup
  %12 = extractvalue { ptr, i32 } %11, 0
  store ptr %12, ptr %exn.slot, align 8
  %13 = extractvalue { ptr, i32 } %11, 1
  store i32 %13, ptr %ehselector.slot, align 4
  br label %ehcleanup1016

lpad13:                                           ; preds = %invoke.cont51, %invoke.cont50, %cond.false47, %cond.true44, %if.end, %invoke.cont11
  %14 = landingpad { ptr, i32 }
          cleanup
  %15 = extractvalue { ptr, i32 } %14, 0
  store ptr %15, ptr %exn.slot, align 8
  %16 = extractvalue { ptr, i32 } %14, 1
  store i32 %16, ptr %ehselector.slot, align 4
  br label %ehcleanup1014

lpad15:                                           ; preds = %invoke.cont14
  %17 = landingpad { ptr, i32 }
          cleanup
  %18 = extractvalue { ptr, i32 } %17, 0
  store ptr %18, ptr %exn.slot, align 8
  %19 = extractvalue { ptr, i32 } %17, 1
  store i32 %19, ptr %ehselector.slot, align 4
  call void @_ZN4cvc58internal12NodeTemplateILb0EED2Ev(ptr noundef nonnull align 8 dereferenceable(8) %ref.tmp12) #3
  br label %ehcleanup1014

lpad23:                                           ; preds = %for.end, %for.body
  %20 = landingpad { ptr, i32 }
          cleanup
  %21 = extractvalue { ptr, i32 } %20, 0
  store ptr %21, ptr %exn.slot, align 8
  %22 = extractvalue { ptr, i32 } %20, 1
  store i32 %22, ptr %ehselector.slot, align 4
  br label %ehcleanup40

lpad25:                                           ; preds = %invoke.cont24
  %23 = landingpad { ptr, i32 }
          cleanup
  %24 = extractvalue { ptr, i32 } %23, 0
  store ptr %24, ptr %exn.slot, align 8
  %25 = extractvalue { ptr, i32 } %23, 1
  store i32 %25, ptr %ehselector.slot, align 4
  br label %ehcleanup33

lpad27:                                           ; preds = %invoke.cont26
  %26 = landingpad { ptr, i32 }
          cleanup
  %27 = extractvalue { ptr, i32 } %26, 0
  store ptr %27, ptr %exn.slot, align 8
  %28 = extractvalue { ptr, i32 } %26, 1
  store i32 %28, ptr %ehselector.slot, align 4
  br label %ehcleanup32

lpad29:                                           ; preds = %invoke.cont28
  %29 = landingpad { ptr, i32 }
          cleanup
  %30 = extractvalue { ptr, i32 } %29, 0
  store ptr %30, ptr %exn.slot, align 8
  %31 = extractvalue { ptr, i32 } %29, 1
  store i32 %31, ptr %ehselector.slot, align 4
  call void @_ZN4cvc58internal12NodeTemplateILb1EED2Ev(ptr noundef nonnull align 8 dereferenceable(8) %ref.tmp20) #3
  br label %ehcleanup32

ehcleanup32:                                      ; preds = %lpad29, %lpad27
  call void @_ZN4cvc58internal12NodeTemplateILb0EED2Ev(ptr noundef nonnull align 8 dereferenceable(8) %ref.tmp21) #3
  br label %ehcleanup33

ehcleanup33:                                      ; preds = %ehcleanup32, %lpad25
  call void @_ZN4cvc58internal12NodeTemplateILb0EED2Ev(ptr noundef nonnull align 8 dereferenceable(8) %ref.tmp22) #3
  br label %ehcleanup40

for.end:                                          ; preds = %for.cond
  %32 = load ptr, ptr %nm, align 8
  invoke void @_ZN4cvc58internal11NodeManager6mkNodeILb1EEENS0_12NodeTemplateILb1EEENS0_4kind6Kind_tERKSt6vectorINS3_IXT_EEESaIS8_EE(ptr sret(%"class.cvc5::internal::NodeTemplate") align 8 %ref.tmp34, ptr noundef nonnull align 8 dereferenceable(3360) %32, i32 noundef 356, ptr noundef nonnull align 8 dereferenceable(24) %args)
          to label %invoke.cont35 unwind label %lpad23

invoke.cont35:                                    ; preds = %for.end
  %call38 = invoke noundef nonnull align 8 dereferenceable(8) ptr @_ZN4cvc58internal12NodeTemplateILb1EEaSERKS2_(ptr noundef nonnull align 8 dereferenceable(8) %rec_bvl, ptr noundef nonnull align 8 dereferenceable(8) %ref.tmp34)
          to label %invoke.cont37 unwind label %lpad36

invoke.cont37:                                    ; preds = %invoke.cont35
  call void @_ZN4cvc58internal12NodeTemplateILb1EED2Ev(ptr noundef nonnull align 8 dereferenceable(8) %ref.tmp34) #3
  call void @_ZNSt6vectorIN4cvc58internal12NodeTemplateILb1EEESaIS3_EED2Ev(ptr noundef nonnull align 8 dereferenceable(24) %args) #3
  br label %if.end

lpad36:                                           ; preds = %invoke.cont35
  %33 = landingpad { ptr, i32 }
          cleanup
  %34 = extractvalue { ptr, i32 } %33, 0
  store ptr %34, ptr %exn.slot, align 8
  %35 = extractvalue { ptr, i32 } %33, 1
  store i32 %35, ptr %ehselector.slot, align 4
  call void @_ZN4cvc58internal12NodeTemplateILb1EED2Ev(ptr noundef nonnull align 8 dereferenceable(8) %ref.tmp34) #3
  br label %ehcleanup40

ehcleanup40:                                      ; preds = %lpad36, %ehcleanup33, %lpad23
  call void @_ZNSt6vectorIN4cvc58internal12NodeTemplateILb1EEESaIS3_EED2Ev(ptr noundef nonnull align 8 dereferenceable(24) %args) #3
  br label %ehcleanup1014

if.end:                                           ; preds = %invoke.cont37, %invoke.cont16
  %call43 = invoke noundef zeroext i1 @_ZN4cvc58internal11__cvc5_truecvbEv(ptr noundef nonnull align 1 dereferenceable(1) %ref.tmp41)
          to label %invoke.cont42 unwind label %lpad13

invoke.cont42:                                    ; preds = %if.end
  br i1 %call43, label %cond.true44, label %cond.false47

cond.true44:                                      ; preds = %invoke.cont42
  invoke void @_ZNK4cvc58internal5NullCcvNS0_11Cvc5ostreamEEv(ptr sret(%"class.cvc5::internal::Cvc5ostream") align 8 %tmp45, ptr noundef nonnull align 1 dereferenceable(1) @_ZN4cvc58internal10nullStreamE)
          to label %invoke.cont46 unwind label %lpad13

invoke.cont46:                                    ; preds = %cond.true44
  br label %cond.end55

cond.false47:                                     ; preds = %invoke.cont42
  invoke void @_ZNK4cvc58internal6TraceCclEv(ptr sret(%"class.cvc5::internal::Cvc5ostream") align 8 %ref.tmp49, ptr noundef nonnull align 8 dereferenceable(32) @_ZN4cvc58internal12TraceChannelE)
          to label %invoke.cont50 unwind label %lpad13

invoke.cont50:                                    ; preds = %cond.false47
  %call52 = invoke noundef nonnull align 8 dereferenceable(24) ptr @_ZN4cvc58internal11Cvc5ostreamlsIA18_cEERS1_RKT_(ptr noundef nonnull align 8 dereferenceable(24) %ref.tmp49, ptr noundef nonnull align 1 dereferenceable(18) @.str.5)
          to label %invoke.cont51 unwind label %lpad13

invoke.cont51:                                    ; preds = %invoke.cont50
  %call54 = invoke noundef nonnull align 8 dereferenceable(24) ptr @_ZN4cvc58internal11Cvc5ostreamlsEPFRSoS2_E(ptr noundef nonnull align 8 dereferenceable(24) %call52, ptr noundef @_ZSt4endlIcSt11char_traitsIcEERSt13basic_ostreamIT_T0_ES6_)
          to label %invoke.cont53 unwind label %lpad13

invoke.cont53:                                    ; preds = %invoke.cont51
  call void @llvm.memcpy.p0.p0.i64(ptr align 8 %agg.tmp.ensured48, ptr align 8 %call54, i64 24, i1 false)
  br label %cond.end55

cond.end55:                                       ; preds = %invoke.cont53, %invoke.cont46
  call void @_ZNSt6vectorIN4cvc58internal12NodeTemplateILb1EEESaIS3_EEC2Ev(ptr noundef nonnull align 8 dereferenceable(24) %conds) #3
  call void @_ZNSt6vectorIN4cvc58internal12NodeTemplateILb1EEESaIS3_EEC2Ev(ptr noundef nonnull align 8 dereferenceable(24) %vals) #3
  invoke void @_ZNK4cvc58internal12NodeTemplateILb0EEixEi(ptr sret(%"class.cvc5::internal::NodeTemplate.0") align 8 %ref.tmp56, ptr noundef nonnull align 8 dereferenceable(8) %n, i32 noundef 1)
          to label %invoke.cont58 unwind label %lpad57

invoke.cont58:                                    ; preds = %cond.end55
  invoke void @_ZN4cvc58internal12NodeTemplateILb1EEC2ERKNS1_ILb0EEE(ptr noundef nonnull align 8 dereferenceable(8) %curr, ptr noundef nonnull align 8 dereferenceable(8) %ref.tmp56)
          to label %invoke.cont60 unwind label %lpad59

invoke.cont60:                                    ; preds = %invoke.cont58
  call void @_ZN4cvc58internal12NodeTemplateILb0EED2Ev(ptr noundef nonnull align 8 dereferenceable(8) %ref.tmp56) #3
  %call64 = invoke noundef i32 @_ZNK4cvc58internal12NodeTemplateILb1EE7getKindEv(ptr noundef nonnull align 8 dereferenceable(8) %curr)
          to label %invoke.cont63 unwind label %lpad62

invoke.cont63:                                    ; preds = %invoke.cont60
  store i32 %call64, ptr %ck, align 4
  br label %while.cond

while.cond:                                       ; preds = %cleanup.cont688, %invoke.cont63
  %36 = load i32, ptr %ck, align 4
  %cmp65 = icmp eq i32 %36, 23
  br i1 %cmp65, label %lor.end, label %lor.lhs.false

lor.lhs.false:                                    ; preds = %while.cond
  %37 = load i32, ptr %ck, align 4
  %cmp66 = icmp eq i32 %37, 21
  br i1 %cmp66, label %lor.end, label %lor.lhs.false67

lor.lhs.false67:                                  ; preds = %lor.lhs.false
  %38 = load i32, ptr %ck, align 4
  %cmp68 = icmp eq i32 %38, 19
  br i1 %cmp68, label %lor.end, label %lor.lhs.false69

lor.lhs.false69:                                  ; preds = %lor.lhs.false67
  %39 = load i32, ptr %ck, align 4
  %cmp70 = icmp eq i32 %39, 5
  br i1 %cmp70, label %lor.end, label %lor.lhs.false71

lor.lhs.false71:                                  ; preds = %lor.lhs.false69
  %40 = load i32, ptr %ck, align 4
  %cmp72 = icmp eq i32 %40, 18
  br i1 %cmp72, label %lor.end, label %lor.rhs

lor.rhs:                                          ; preds = %lor.lhs.false71
  %41 = load i32, ptr %ck, align 4
  %cmp73 = icmp eq i32 %41, 8
  br label %lor.end

lor.end:                                          ; preds = %lor.rhs, %lor.lhs.false71, %lor.lhs.false69, %lor.lhs.false67, %lor.lhs.false, %while.cond
  %42 = phi i1 [ true, %lor.lhs.false71 ], [ true, %lor.lhs.false69 ], [ true, %lor.lhs.false67 ], [ true, %lor.lhs.false ], [ true, %while.cond ], [ %cmp73, %lor.rhs ]
  br i1 %42, label %while.body, label %while.end

while.body:                                       ; preds = %lor.end
  invoke void @_ZN4cvc58internal12NodeTemplateILb1EEC2Ev(ptr noundef nonnull align 8 dereferenceable(8) %index_eq)
          to label %invoke.cont74 unwind label %lpad62

invoke.cont74:                                    ; preds = %while.body
  invoke void @_ZN4cvc58internal12NodeTemplateILb1EEC2Ev(ptr noundef nonnull align 8 dereferenceable(8) %curr_val)
          to label %invoke.cont76 unwind label %lpad75

invoke.cont76:                                    ; preds = %invoke.cont74
  invoke void @_ZN4cvc58internal12NodeTemplateILb1EEC2Ev(ptr noundef nonnull align 8 dereferenceable(8) %next)
          to label %invoke.cont78 unwind label %lpad77

invoke.cont78:                                    ; preds = %invoke.cont76
  %43 = load i32, ptr %ck, align 4
  %cmp79 = icmp eq i32 %43, 23
  br i1 %cmp79, label %if.then80, label %if.else

if.then80:                                        ; preds = %invoke.cont78
  store i1 false, ptr %cleanup.cond, align 1
  %call84 = invoke noundef zeroext i1 @_ZN4cvc58internal11__cvc5_truecvbEv(ptr noundef nonnull align 1 dereferenceable(1) %ref.tmp81)
          to label %invoke.cont83 unwind label %lpad82

invoke.cont83:                                    ; preds = %if.then80
  br i1 %call84, label %cond.true85, label %cond.false88

cond.true85:                                      ; preds = %invoke.cont83
  invoke void @_ZNK4cvc58internal5NullCcvNS0_11Cvc5ostreamEEv(ptr sret(%"class.cvc5::internal::Cvc5ostream") align 8 %tmp86, ptr noundef nonnull align 1 dereferenceable(1) @_ZN4cvc58internal10nullStreamE)
          to label %invoke.cont87 unwind label %lpad82

invoke.cont87:                                    ; preds = %cond.true85
  br label %cond.end101

cond.false88:                                     ; preds = %invoke.cont83
  invoke void @_ZNK4cvc58internal6TraceCclEv(ptr sret(%"class.cvc5::internal::Cvc5ostream") align 8 %ref.tmp90, ptr noundef nonnull align 8 dereferenceable(32) @_ZN4cvc58internal12TraceChannelE)
          to label %invoke.cont91 unwind label %lpad82

invoke.cont91:                                    ; preds = %cond.false88
  %call93 = invoke noundef nonnull align 8 dereferenceable(24) ptr @_ZN4cvc58internal11Cvc5ostreamlsIA23_cEERS1_RKT_(ptr noundef nonnull align 8 dereferenceable(24) %ref.tmp90, ptr noundef nonnull align 1 dereferenceable(23) @.str.6)
          to label %invoke.cont92 unwind label %lpad82

invoke.cont92:                                    ; preds = %invoke.cont91
  invoke void @_ZNK4cvc58internal12NodeTemplateILb1EEixEi(ptr sret(%"class.cvc5::internal::NodeTemplate") align 8 %ref.tmp94, ptr noundef nonnull align 8 dereferenceable(8) %curr, i32 noundef 0)
          to label %invoke.cont95 unwind label %lpad82

invoke.cont95:                                    ; preds = %invoke.cont92
  store i1 true, ptr %cleanup.cond, align 1
  %call98 = invoke noundef nonnull align 8 dereferenceable(24) ptr @_ZN4cvc58internal11Cvc5ostreamlsINS0_12NodeTemplateILb1EEEEERS1_RKT_(ptr noundef nonnull align 8 dereferenceable(24) %call93, ptr noundef nonnull align 8 dereferenceable(8) %ref.tmp94)
          to label %invoke.cont97 unwind label %lpad96

invoke.cont97:                                    ; preds = %invoke.cont95
  %call100 = invoke noundef nonnull align 8 dereferenceable(24) ptr @_ZN4cvc58internal11Cvc5ostreamlsEPFRSoS2_E(ptr noundef nonnull align 8 dereferenceable(24) %call98, ptr noundef @_ZSt4endlIcSt11char_traitsIcEERSt13basic_ostreamIT_T0_ES6_)
          to label %invoke.cont99 unwind label %lpad96

invoke.cont99:                                    ; preds = %invoke.cont97
  call void @llvm.memcpy.p0.p0.i64(ptr align 8 %agg.tmp.ensured89, ptr align 8 %call100, i64 24, i1 false)
  br label %cond.end101

cond.end101:                                      ; preds = %invoke.cont99, %invoke.cont87
  %cleanup.is_active = load i1, ptr %cleanup.cond, align 1
  br i1 %cleanup.is_active, label %cleanup.action, label %cleanup.done

cleanup.action:                                   ; preds = %cond.end101
  call void @_ZN4cvc58internal12NodeTemplateILb1EED2Ev(ptr noundef nonnull align 8 dereferenceable(8) %ref.tmp94) #3
  br label %cleanup.done

cleanup.done:                                     ; preds = %cleanup.action, %cond.end101
  invoke void @_ZNK4cvc58internal12NodeTemplateILb1EEixEi(ptr sret(%"class.cvc5::internal::NodeTemplate") align 8 %ref.tmp106, ptr noundef nonnull align 8 dereferenceable(8) %curr, i32 noundef 0)
          to label %invoke.cont107 unwind label %lpad82

invoke.cont107:                                   ; preds = %cleanup.done
  %call110 = invoke noundef nonnull align 8 dereferenceable(8) ptr @_ZN4cvc58internal12NodeTemplateILb1EEaSERKS2_(ptr noundef nonnull align 8 dereferenceable(8) %index_eq, ptr noundef nonnull align 8 dereferenceable(8) %ref.tmp106)
          to label %invoke.cont109 unwind label %lpad108

invoke.cont109:                                   ; preds = %invoke.cont107
  call void @_ZN4cvc58internal12NodeTemplateILb1EED2Ev(ptr noundef nonnull align 8 dereferenceable(8) %ref.tmp106) #3
  invoke void @_ZNK4cvc58internal12NodeTemplateILb1EEixEi(ptr sret(%"class.cvc5::internal::NodeTemplate") align 8 %ref.tmp112, ptr noundef nonnull align 8 dereferenceable(8) %curr, i32 noundef 1)
          to label %invoke.cont113 unwind label %lpad82

invoke.cont113:                                   ; preds = %invoke.cont109
  %call116 = invoke noundef nonnull align 8 dereferenceable(8) ptr @_ZN4cvc58internal12NodeTemplateILb1EEaSERKS2_(ptr noundef nonnull align 8 dereferenceable(8) %curr_val, ptr noundef nonnull align 8 dereferenceable(8) %ref.tmp112)
          to label %invoke.cont115 unwind label %lpad114

invoke.cont115:                                   ; preds = %invoke.cont113
  call void @_ZN4cvc58internal12NodeTemplateILb1EED2Ev(ptr noundef nonnull align 8 dereferenceable(8) %ref.tmp112) #3
  invoke void @_ZNK4cvc58internal12NodeTemplateILb1EEixEi(ptr sret(%"class.cvc5::internal::NodeTemplate") align 8 %ref.tmp118, ptr noundef nonnull align 8 dereferenceable(8) %curr, i32 noundef 2)
          to label %invoke.cont119 unwind label %lpad82

invoke.cont119:                                   ; preds = %invoke.cont115
  %call122 = invoke noundef nonnull align 8 dereferenceable(8) ptr @_ZN4cvc58internal12NodeTemplateILb1EEaSERKS2_(ptr noundef nonnull align 8 dereferenceable(8) %next, ptr noundef nonnull align 8 dereferenceable(8) %ref.tmp118)
          to label %invoke.cont121 unwind label %lpad120

invoke.cont121:                                   ; preds = %invoke.cont119
  call void @_ZN4cvc58internal12NodeTemplateILb1EED2Ev(ptr noundef nonnull align 8 dereferenceable(8) %ref.tmp118) #3
  br label %if.end372

lpad57:                                           ; preds = %cond.end55
  %44 = landingpad { ptr, i32 }
          cleanup
  %45 = extractvalue { ptr, i32 } %44, 0
  store ptr %45, ptr %exn.slot, align 8
  %46 = extractvalue { ptr, i32 } %44, 1
  store i32 %46, ptr %ehselector.slot, align 4
  br label %ehcleanup1010

lpad59:                                           ; preds = %invoke.cont58
  %47 = landingpad { ptr, i32 }
          cleanup
  %48 = extractvalue { ptr, i32 } %47, 0
  store ptr %48, ptr %exn.slot, align 8
  %49 = extractvalue { ptr, i32 } %47, 1
  store i32 %49, ptr %ehselector.slot, align 4
  call void @_ZN4cvc58internal12NodeTemplateILb0EED2Ev(ptr noundef nonnull align 8 dereferenceable(8) %ref.tmp56) #3
  br label %ehcleanup1010

lpad62:                                           ; preds = %cond.end1005, %invoke.cont1001, %invoke.cont1000, %cond.false997, %cond.true994, %if.end990, %if.then779, %land.lhs.true776, %if.end773, %invoke.cont769, %cond.false766, %cond.true763, %cond.end759, %invoke.cont756, %cond.false753, %cond.true750, %invoke.cont742, %cond.end732, %invoke.cont729, %cond.false726, %cond.true723, %cond.end719, %invoke.cont716, %cond.false713, %cond.true710, %invoke.cont702, %if.then692, %while.end, %while.body, %invoke.cont60
  %50 = landingpad { ptr, i32 }
          cleanup
  %51 = extractvalue { ptr, i32 } %50, 0
  store ptr %51, ptr %exn.slot, align 8
  %52 = extractvalue { ptr, i32 } %50, 1
  store i32 %52, ptr %ehselector.slot, align 4
  br label %ehcleanup1008

lpad75:                                           ; preds = %invoke.cont74
  %53 = landingpad { ptr, i32 }
          cleanup
  %54 = extractvalue { ptr, i32 } %53, 0
  store ptr %54, ptr %exn.slot, align 8
  %55 = extractvalue { ptr, i32 } %53, 1
  store i32 %55, ptr %ehselector.slot, align 4
  br label %ehcleanup689

lpad77:                                           ; preds = %invoke.cont76
  %56 = landingpad { ptr, i32 }
          cleanup
  %57 = extractvalue { ptr, i32 } %56, 0
  store ptr %57, ptr %exn.slot, align 8
  %58 = extractvalue { ptr, i32 } %56, 1
  store i32 %58, ptr %ehselector.slot, align 4
  br label %ehcleanup685

lpad82:                                           ; preds = %if.end450, %cond.false385, %cond.true383, %if.then376, %if.end372, %invoke.cont358, %invoke.cont352, %cond.false348, %cond.true346, %invoke.cont336, %invoke.cont334, %invoke.cont333, %cond.false330, %cond.true327, %if.else323, %cleanup.done174, %cond.false161, %cond.true159, %cond.end144, %invoke.cont140, %invoke.cont138, %invoke.cont137, %cond.false134, %cond.true131, %if.then127, %invoke.cont115, %invoke.cont109, %cleanup.done, %invoke.cont92, %invoke.cont91, %cond.false88, %cond.true85, %if.then80
  %59 = landingpad { ptr, i32 }
          cleanup
  %60 = extractvalue { ptr, i32 } %59, 0
  store ptr %60, ptr %exn.slot, align 8
  %61 = extractvalue { ptr, i32 } %59, 1
  store i32 %61, ptr %ehselector.slot, align 4
  br label %ehcleanup683

lpad96:                                           ; preds = %invoke.cont97, %invoke.cont95
  %62 = landingpad { ptr, i32 }
          cleanup
  %63 = extractvalue { ptr, i32 } %62, 0
  store ptr %63, ptr %exn.slot, align 8
  %64 = extractvalue { ptr, i32 } %62, 1
  store i32 %64, ptr %ehselector.slot, align 4
  %cleanup.is_active103 = load i1, ptr %cleanup.cond, align 1
  br i1 %cleanup.is_active103, label %cleanup.action104, label %cleanup.done105

cleanup.action104:                                ; preds = %lpad96
  call void @_ZN4cvc58internal12NodeTemplateILb1EED2Ev(ptr noundef nonnull align 8 dereferenceable(8) %ref.tmp94) #3
  br label %cleanup.done105

cleanup.done105:                                  ; preds = %cleanup.action104, %lpad96
  br label %ehcleanup683

lpad108:                                          ; preds = %invoke.cont107
  %65 = landingpad { ptr, i32 }
          cleanup
  %66 = extractvalue { ptr, i32 } %65, 0
  store ptr %66, ptr %exn.slot, align 8
  %67 = extractvalue { ptr, i32 } %65, 1
  store i32 %67, ptr %ehselector.slot, align 4
  call void @_ZN4cvc58internal12NodeTemplateILb1EED2Ev(ptr noundef nonnull align 8 dereferenceable(8) %ref.tmp106) #3
  br label %ehcleanup683

lpad114:                                          ; preds = %invoke.cont113
  %68 = landingpad { ptr, i32 }
          cleanup
  %69 = extractvalue { ptr, i32 } %68, 0
  store ptr %69, ptr %exn.slot, align 8
  %70 = extractvalue { ptr, i32 } %68, 1
  store i32 %70, ptr %ehselector.slot, align 4
  call void @_ZN4cvc58internal12NodeTemplateILb1EED2Ev(ptr noundef nonnull align 8 dereferenceable(8) %ref.tmp112) #3
  br label %ehcleanup683

lpad120:                                          ; preds = %invoke.cont119
  %71 = landingpad { ptr, i32 }
          cleanup
  %72 = extractvalue { ptr, i32 } %71, 0
  store ptr %72, ptr %exn.slot, align 8
  %73 = extractvalue { ptr, i32 } %71, 1
  store i32 %73, ptr %ehselector.slot, align 4
  call void @_ZN4cvc58internal12NodeTemplateILb1EED2Ev(ptr noundef nonnull align 8 dereferenceable(8) %ref.tmp118) #3
  br label %ehcleanup683

if.else:                                          ; preds = %invoke.cont78
  %74 = load i32, ptr %ck, align 4
  %cmp124 = icmp eq i32 %74, 21
  br i1 %cmp124, label %if.then127, label %lor.lhs.false125

lor.lhs.false125:                                 ; preds = %if.else
  %75 = load i32, ptr %ck, align 4
  %cmp126 = icmp eq i32 %75, 19
  br i1 %cmp126, label %if.then127, label %if.else323

if.then127:                                       ; preds = %lor.lhs.false125, %if.else
  %call130 = invoke noundef zeroext i1 @_ZN4cvc58internal11__cvc5_truecvbEv(ptr noundef nonnull align 1 dereferenceable(1) %ref.tmp128)
          to label %invoke.cont129 unwind label %lpad82

invoke.cont129:                                   ; preds = %if.then127
  br i1 %call130, label %cond.true131, label %cond.false134

cond.true131:                                     ; preds = %invoke.cont129
  invoke void @_ZNK4cvc58internal5NullCcvNS0_11Cvc5ostreamEEv(ptr sret(%"class.cvc5::internal::Cvc5ostream") align 8 %tmp132, ptr noundef nonnull align 1 dereferenceable(1) @_ZN4cvc58internal10nullStreamE)
          to label %invoke.cont133 unwind label %lpad82

invoke.cont133:                                   ; preds = %cond.true131
  br label %cond.end144

cond.false134:                                    ; preds = %invoke.cont129
  invoke void @_ZNK4cvc58internal6TraceCclEv(ptr sret(%"class.cvc5::internal::Cvc5ostream") align 8 %ref.tmp136, ptr noundef nonnull align 8 dereferenceable(32) @_ZN4cvc58internal12TraceChannelE)
          to label %invoke.cont137 unwind label %lpad82

invoke.cont137:                                   ; preds = %cond.false134
  %call139 = invoke noundef nonnull align 8 dereferenceable(24) ptr @_ZN4cvc58internal11Cvc5ostreamlsIA18_cEERS1_RKT_(ptr noundef nonnull align 8 dereferenceable(24) %ref.tmp136, ptr noundef nonnull align 1 dereferenceable(18) @.str.7)
          to label %invoke.cont138 unwind label %lpad82

invoke.cont138:                                   ; preds = %invoke.cont137
  %call141 = invoke noundef nonnull align 8 dereferenceable(24) ptr @_ZN4cvc58internal11Cvc5ostreamlsINS0_12NodeTemplateILb1EEEEERS1_RKT_(ptr noundef nonnull align 8 dereferenceable(24) %call139, ptr noundef nonnull align 8 dereferenceable(8) %curr)
          to label %invoke.cont140 unwind label %lpad82

invoke.cont140:                                   ; preds = %invoke.cont138
  %call143 = invoke noundef nonnull align 8 dereferenceable(24) ptr @_ZN4cvc58internal11Cvc5ostreamlsEPFRSoS2_E(ptr noundef nonnull align 8 dereferenceable(24) %call141, ptr noundef @_ZSt4endlIcSt11char_traitsIcEERSt13basic_ostreamIT_T0_ES6_)
          to label %invoke.cont142 unwind label %lpad82

invoke.cont142:                                   ; preds = %invoke.cont140
  call void @llvm.memcpy.p0.p0.i64(ptr align 8 %agg.tmp.ensured135, ptr align 8 %call143, i64 24, i1 false)
  br label %cond.end144

cond.end144:                                      ; preds = %invoke.cont142, %invoke.cont133
  invoke void @_ZNK4cvc58internal12NodeTemplateILb1EEixEi(ptr sret(%"class.cvc5::internal::NodeTemplate") align 8 %ref.tmp145, ptr noundef nonnull align 8 dereferenceable(8) %curr, i32 noundef 0)
          to label %invoke.cont146 unwind label %lpad82

invoke.cont146:                                   ; preds = %cond.end144
  %call149 = invoke noundef i32 @_ZNK4cvc58internal12NodeTemplateILb1EE7getKindEv(ptr noundef nonnull align 8 dereferenceable(8) %ref.tmp145)
          to label %invoke.cont148 unwind label %lpad147

invoke.cont148:                                   ; preds = %invoke.cont146
  %cmp150 = icmp ne i32 %call149, 18
  call void @_ZN4cvc58internal12NodeTemplateILb1EED2Ev(ptr noundef nonnull align 8 dereferenceable(8) %ref.tmp145) #3
  %frombool = zext i1 %cmp150 to i8
  store i8 %frombool, ptr %pol, align 1
  %76 = load i8, ptr %pol, align 1
  %tobool = trunc i8 %76 to i1
  %conv152 = zext i1 %tobool to i32
  %77 = load i32, ptr %ck, align 4
  %cmp153 = icmp eq i32 %77, 19
  %conv154 = zext i1 %cmp153 to i32
  %cmp155 = icmp eq i32 %conv152, %conv154
  %frombool156 = zext i1 %cmp155 to i8
  store i8 %frombool156, ptr %inverted, align 1
  %78 = load i8, ptr %pol, align 1
  %tobool158 = trunc i8 %78 to i1
  store i1 false, ptr %cleanup.cond164, align 1
  br i1 %tobool158, label %cond.true159, label %cond.false161

cond.true159:                                     ; preds = %invoke.cont148
  invoke void @_ZNK4cvc58internal12NodeTemplateILb1EEixEi(ptr sret(%"class.cvc5::internal::NodeTemplate") align 8 %ref.tmp157, ptr noundef nonnull align 8 dereferenceable(8) %curr, i32 noundef 0)
          to label %invoke.cont160 unwind label %lpad82

invoke.cont160:                                   ; preds = %cond.true159
  br label %cond.end167

cond.false161:                                    ; preds = %invoke.cont148
  invoke void @_ZNK4cvc58internal12NodeTemplateILb1EEixEi(ptr sret(%"class.cvc5::internal::NodeTemplate") align 8 %ref.tmp162, ptr noundef nonnull align 8 dereferenceable(8) %curr, i32 noundef 0)
          to label %invoke.cont163 unwind label %lpad82

invoke.cont163:                                   ; preds = %cond.false161
  store i1 true, ptr %cleanup.cond164, align 1
  invoke void @_ZNK4cvc58internal12NodeTemplateILb1EEixEi(ptr sret(%"class.cvc5::internal::NodeTemplate") align 8 %ref.tmp157, ptr noundef nonnull align 8 dereferenceable(8) %ref.tmp162, i32 noundef 0)
          to label %invoke.cont166 unwind label %lpad165

invoke.cont166:                                   ; preds = %invoke.cont163
  br label %cond.end167

cond.end167:                                      ; preds = %invoke.cont166, %invoke.cont160
  %call170 = invoke noundef nonnull align 8 dereferenceable(8) ptr @_ZN4cvc58internal12NodeTemplateILb1EEaSERKS2_(ptr noundef nonnull align 8 dereferenceable(8) %index_eq, ptr noundef nonnull align 8 dereferenceable(8) %ref.tmp157)
          to label %invoke.cont169 unwind label %lpad168

invoke.cont169:                                   ; preds = %cond.end167
  call void @_ZN4cvc58internal12NodeTemplateILb1EED2Ev(ptr noundef nonnull align 8 dereferenceable(8) %ref.tmp157) #3
  %cleanup.is_active172 = load i1, ptr %cleanup.cond164, align 1
  br i1 %cleanup.is_active172, label %cleanup.action173, label %cleanup.done174

cleanup.action173:                                ; preds = %invoke.cont169
  call void @_ZN4cvc58internal12NodeTemplateILb1EED2Ev(ptr noundef nonnull align 8 dereferenceable(8) %ref.tmp162) #3
  br label %cleanup.done174

cleanup.done174:                                  ; preds = %cleanup.action173, %invoke.cont169
  invoke void @_ZN4cvc58internal12NodeTemplateILb1EEC2Ev(ptr noundef nonnull align 8 dereferenceable(8) %processed)
          to label %invoke.cont179 unwind label %lpad82

invoke.cont179:                                   ; preds = %cleanup.done174
  invoke void @_ZN4cvc58internal12NodeTemplateILb1EEC2Ev(ptr noundef nonnull align 8 dereferenceable(8) %remainder)
          to label %invoke.cont181 unwind label %lpad180

invoke.cont181:                                   ; preds = %invoke.cont179
  %79 = load ptr, ptr %nm, align 8
  %80 = load i8, ptr %inverted, align 1
  %tobool184 = trunc i8 %80 to i1
  br i1 %tobool184, label %cond.false187, label %cond.true185

cond.true185:                                     ; preds = %invoke.cont181
  %81 = load i8, ptr %pol, align 1
  %tobool186 = trunc i8 %81 to i1
  br label %cond.end189

cond.false187:                                    ; preds = %invoke.cont181
  %82 = load i8, ptr %pol, align 1
  %tobool188 = trunc i8 %82 to i1
  %lnot = xor i1 %tobool188, true
  br label %cond.end189

cond.end189:                                      ; preds = %cond.false187, %cond.true185
  %cond = phi i1 [ %tobool186, %cond.true185 ], [ %lnot, %cond.false187 ]
  %frombool190 = zext i1 %cond to i8
  store i8 %frombool190, ptr %ref.tmp183, align 1
  invoke void @_ZN4cvc58internal11NodeManager7mkConstIbEENS0_12NodeTemplateILb1EEERKT_(ptr sret(%"class.cvc5::internal::NodeTemplate") align 8 %ref.tmp182, ptr noundef nonnull align 8 dereferenceable(3360) %79, ptr noundef nonnull align 1 dereferenceable(1) %ref.tmp183)
          to label %invoke.cont192 unwind label %lpad191

invoke.cont192:                                   ; preds = %cond.end189
  %call195 = invoke noundef nonnull align 8 dereferenceable(8) ptr @_ZN4cvc58internal12NodeTemplateILb1EEaSERKS2_(ptr noundef nonnull align 8 dereferenceable(8) %processed, ptr noundef nonnull align 8 dereferenceable(8) %ref.tmp182)
          to label %invoke.cont194 unwind label %lpad193

invoke.cont194:                                   ; preds = %invoke.cont192
  call void @_ZN4cvc58internal12NodeTemplateILb1EED2Ev(ptr noundef nonnull align 8 dereferenceable(8) %ref.tmp182) #3
  %call198 = invoke noundef i64 @_ZNK4cvc58internal12NodeTemplateILb1EE14getNumChildrenEv(ptr noundef nonnull align 8 dereferenceable(8) %curr)
          to label %invoke.cont197 unwind label %lpad191

invoke.cont197:                                   ; preds = %invoke.cont194
  %cmp199 = icmp eq i64 %call198, 2
  br i1 %cmp199, label %if.then200, label %if.else207

if.then200:                                       ; preds = %invoke.cont197
  invoke void @_ZNK4cvc58internal12NodeTemplateILb1EEixEi(ptr sret(%"class.cvc5::internal::NodeTemplate") align 8 %ref.tmp201, ptr noundef nonnull align 8 dereferenceable(8) %curr, i32 noundef 1)
          to label %invoke.cont202 unwind label %lpad191

invoke.cont202:                                   ; preds = %if.then200
  %call205 = invoke noundef nonnull align 8 dereferenceable(8) ptr @_ZN4cvc58internal12NodeTemplateILb1EEaSERKS2_(ptr noundef nonnull align 8 dereferenceable(8) %remainder, ptr noundef nonnull align 8 dereferenceable(8) %ref.tmp201)
          to label %invoke.cont204 unwind label %lpad203

invoke.cont204:                                   ; preds = %invoke.cont202
  call void @_ZN4cvc58internal12NodeTemplateILb1EED2Ev(ptr noundef nonnull align 8 dereferenceable(8) %ref.tmp201) #3
  br label %if.end232

lpad147:                                          ; preds = %invoke.cont146
  %83 = landingpad { ptr, i32 }
          cleanup
  %84 = extractvalue { ptr, i32 } %83, 0
  store ptr %84, ptr %exn.slot, align 8
  %85 = extractvalue { ptr, i32 } %83, 1
  store i32 %85, ptr %ehselector.slot, align 4
  call void @_ZN4cvc58internal12NodeTemplateILb1EED2Ev(ptr noundef nonnull align 8 dereferenceable(8) %ref.tmp145) #3
  br label %ehcleanup683

lpad165:                                          ; preds = %invoke.cont163
  %86 = landingpad { ptr, i32 }
          cleanup
  %87 = extractvalue { ptr, i32 } %86, 0
  store ptr %87, ptr %exn.slot, align 8
  %88 = extractvalue { ptr, i32 } %86, 1
  store i32 %88, ptr %ehselector.slot, align 4
  br label %ehcleanup175

lpad168:                                          ; preds = %cond.end167
  %89 = landingpad { ptr, i32 }
          cleanup
  %90 = extractvalue { ptr, i32 } %89, 0
  store ptr %90, ptr %exn.slot, align 8
  %91 = extractvalue { ptr, i32 } %89, 1
  store i32 %91, ptr %ehselector.slot, align 4
  call void @_ZN4cvc58internal12NodeTemplateILb1EED2Ev(ptr noundef nonnull align 8 dereferenceable(8) %ref.tmp157) #3
  br label %ehcleanup175

ehcleanup175:                                     ; preds = %lpad168, %lpad165
  %cleanup.is_active176 = load i1, ptr %cleanup.cond164, align 1
  br i1 %cleanup.is_active176, label %cleanup.action177, label %cleanup.done178

cleanup.action177:                                ; preds = %ehcleanup175
  call void @_ZN4cvc58internal12NodeTemplateILb1EED2Ev(ptr noundef nonnull align 8 dereferenceable(8) %ref.tmp162) #3
  br label %cleanup.done178

cleanup.done178:                                  ; preds = %cleanup.action177, %ehcleanup175
  br label %ehcleanup683

lpad180:                                          ; preds = %invoke.cont179
  %92 = landingpad { ptr, i32 }
          cleanup
  %93 = extractvalue { ptr, i32 } %92, 0
  store ptr %93, ptr %exn.slot, align 8
  %94 = extractvalue { ptr, i32 } %92, 1
  store i32 %94, ptr %ehselector.slot, align 4
  br label %ehcleanup322

lpad191:                                          ; preds = %invoke.cont315, %invoke.cont313, %invoke.cont312, %cond.false309, %cond.true306, %cond.end302, %invoke.cont298, %invoke.cont296, %invoke.cont295, %cond.false292, %cond.true289, %cond.end285, %invoke.cont281, %invoke.cont279, %invoke.cont278, %cond.false275, %cond.true272, %if.end268, %invoke.cont264, %if.else263, %cond.end260, %invoke.cont256, %invoke.cont254, %invoke.cont253, %cond.false250, %cond.true247, %if.then243, %land.lhs.true, %invoke.cont237, %invoke.cont235, %if.then234, %invoke.cont211, %invoke.cont209, %if.else207, %if.then200, %invoke.cont194, %cond.end189
  %95 = landingpad { ptr, i32 }
          cleanup
  %96 = extractvalue { ptr, i32 } %95, 0
  store ptr %96, ptr %exn.slot, align 8
  %97 = extractvalue { ptr, i32 } %95, 1
  store i32 %97, ptr %ehselector.slot, align 4
  br label %ehcleanup320

lpad193:                                          ; preds = %invoke.cont192
  %98 = landingpad { ptr, i32 }
          cleanup
  %99 = extractvalue { ptr, i32 } %98, 0
  store ptr %99, ptr %exn.slot, align 8
  %100 = extractvalue { ptr, i32 } %98, 1
  store i32 %100, ptr %ehselector.slot, align 4
  call void @_ZN4cvc58internal12NodeTemplateILb1EED2Ev(ptr noundef nonnull align 8 dereferenceable(8) %ref.tmp182) #3
  br label %ehcleanup320

lpad203:                                          ; preds = %invoke.cont202
  %101 = landingpad { ptr, i32 }
          cleanup
  %102 = extractvalue { ptr, i32 } %101, 0
  store ptr %102, ptr %exn.slot, align 8
  %103 = extractvalue { ptr, i32 } %101, 1
  store i32 %103, ptr %ehselector.slot, align 4
  call void @_ZN4cvc58internal12NodeTemplateILb1EED2Ev(ptr noundef nonnull align 8 dereferenceable(8) %ref.tmp201) #3
  br label %ehcleanup320

if.else207:                                       ; preds = %invoke.cont197
  %call210 = invoke ptr @_ZN4cvc58internal12NodeTemplateILb1EE5beginEv(ptr noundef nonnull align 8 dereferenceable(8) %curr)
          to label %invoke.cont209 unwind label %lpad191

invoke.cont209:                                   ; preds = %if.else207
  %coerce.dive = getelementptr inbounds %"class.cvc5::internal::expr::NodeValue::iterator", ptr %ref.tmp208, i32 0, i32 0
  store ptr %call210, ptr %coerce.dive, align 8
  %call212 = invoke ptr @_ZN4cvc58internal4expr9NodeValue8iteratorINS0_12NodeTemplateILb1EEEEplEl(ptr noundef nonnull align 8 dereferenceable(8) %ref.tmp208, i64 noundef 1)
          to label %invoke.cont211 unwind label %lpad191

invoke.cont211:                                   ; preds = %invoke.cont209
  %coerce.dive213 = getelementptr inbounds %"class.cvc5::internal::expr::NodeValue::iterator", ptr %agg.tmp, i32 0, i32 0
  store ptr %call212, ptr %coerce.dive213, align 8
  %call216 = invoke ptr @_ZN4cvc58internal12NodeTemplateILb1EE3endEv(ptr noundef nonnull align 8 dereferenceable(8) %curr)
          to label %invoke.cont215 unwind label %lpad191

invoke.cont215:                                   ; preds = %invoke.cont211
  %coerce.dive217 = getelementptr inbounds %"class.cvc5::internal::expr::NodeValue::iterator", ptr %agg.tmp214, i32 0, i32 0
  store ptr %call216, ptr %coerce.dive217, align 8
  call void @_ZNSaIN4cvc58internal12NodeTemplateILb1EEEEC2Ev(ptr noundef nonnull align 1 dereferenceable(1) %ref.tmp218) #3
  %coerce.dive219 = getelementptr inbounds %"class.cvc5::internal::expr::NodeValue::iterator", ptr %agg.tmp, i32 0, i32 0
  %104 = load ptr, ptr %coerce.dive219, align 8
  %coerce.dive220 = getelementptr inbounds %"class.cvc5::internal::expr::NodeValue::iterator", ptr %agg.tmp214, i32 0, i32 0
  %105 = load ptr, ptr %coerce.dive220, align 8
  invoke void @_ZNSt6vectorIN4cvc58internal12NodeTemplateILb1EEESaIS3_EEC2INS1_4expr9NodeValue8iteratorIS3_EEvEET_SB_RKS4_(ptr noundef nonnull align 8 dereferenceable(24) %remainderNodes, ptr %104, ptr %105, ptr noundef nonnull align 1 dereferenceable(1) %ref.tmp218)
          to label %invoke.cont222 unwind label %lpad221

invoke.cont222:                                   ; preds = %invoke.cont215
  call void @_ZNSaIN4cvc58internal12NodeTemplateILb1EEEED2Ev(ptr noundef nonnull align 1 dereferenceable(1) %ref.tmp218) #3
  %106 = load ptr, ptr %nm, align 8
  %107 = load i32, ptr %ck, align 4
  invoke void @_ZN4cvc58internal11NodeManager6mkNodeILb1EEENS0_12NodeTemplateILb1EEENS0_4kind6Kind_tERKSt6vectorINS3_IXT_EEESaIS8_EE(ptr sret(%"class.cvc5::internal::NodeTemplate") align 8 %ref.tmp224, ptr noundef nonnull align 8 dereferenceable(3360) %106, i32 noundef %107, ptr noundef nonnull align 8 dereferenceable(24) %remainderNodes)
          to label %invoke.cont226 unwind label %lpad225

invoke.cont226:                                   ; preds = %invoke.cont222
  %call229 = invoke noundef nonnull align 8 dereferenceable(8) ptr @_ZN4cvc58internal12NodeTemplateILb1EEaSERKS2_(ptr noundef nonnull align 8 dereferenceable(8) %remainder, ptr noundef nonnull align 8 dereferenceable(8) %ref.tmp224)
          to label %invoke.cont228 unwind label %lpad227

invoke.cont228:                                   ; preds = %invoke.cont226
  call void @_ZN4cvc58internal12NodeTemplateILb1EED2Ev(ptr noundef nonnull align 8 dereferenceable(8) %ref.tmp224) #3
  call void @_ZNSt6vectorIN4cvc58internal12NodeTemplateILb1EEESaIS3_EED2Ev(ptr noundef nonnull align 8 dereferenceable(24) %remainderNodes) #3
  br label %if.end232

lpad221:                                          ; preds = %invoke.cont215
  %108 = landingpad { ptr, i32 }
          cleanup
  %109 = extractvalue { ptr, i32 } %108, 0
  store ptr %109, ptr %exn.slot, align 8
  %110 = extractvalue { ptr, i32 } %108, 1
  store i32 %110, ptr %ehselector.slot, align 4
  call void @_ZNSaIN4cvc58internal12NodeTemplateILb1EEEED2Ev(ptr noundef nonnull align 1 dereferenceable(1) %ref.tmp218) #3
  br label %ehcleanup320

lpad225:                                          ; preds = %invoke.cont222
  %111 = landingpad { ptr, i32 }
          cleanup
  %112 = extractvalue { ptr, i32 } %111, 0
  store ptr %112, ptr %exn.slot, align 8
  %113 = extractvalue { ptr, i32 } %111, 1
  store i32 %113, ptr %ehselector.slot, align 4
  br label %ehcleanup231

lpad227:                                          ; preds = %invoke.cont226
  %114 = landingpad { ptr, i32 }
          cleanup
  %115 = extractvalue { ptr, i32 } %114, 0
  store ptr %115, ptr %exn.slot, align 8
  %116 = extractvalue { ptr, i32 } %114, 1
  store i32 %116, ptr %ehselector.slot, align 4
  call void @_ZN4cvc58internal12NodeTemplateILb1EED2Ev(ptr noundef nonnull align 8 dereferenceable(8) %ref.tmp224) #3
  br label %ehcleanup231

ehcleanup231:                                     ; preds = %lpad227, %lpad225
  call void @_ZNSt6vectorIN4cvc58internal12NodeTemplateILb1EEESaIS3_EED2Ev(ptr noundef nonnull align 8 dereferenceable(24) %remainderNodes) #3
  br label %ehcleanup320

if.end232:                                        ; preds = %invoke.cont228, %invoke.cont204
  %117 = load i8, ptr %inverted, align 1
  %tobool233 = trunc i8 %117 to i1
  br i1 %tobool233, label %if.then234, label %if.else263

if.then234:                                       ; preds = %if.end232
  %call236 = invoke noundef nonnull align 8 dereferenceable(8) ptr @_ZN4cvc58internal12NodeTemplateILb1EEaSERKS2_(ptr noundef nonnull align 8 dereferenceable(8) %curr_val, ptr noundef nonnull align 8 dereferenceable(8) %remainder)
          to label %invoke.cont235 unwind label %lpad191

invoke.cont235:                                   ; preds = %if.then234
  %call238 = invoke noundef nonnull align 8 dereferenceable(8) ptr @_ZN4cvc58internal12NodeTemplateILb1EEaSERKS2_(ptr noundef nonnull align 8 dereferenceable(8) %next, ptr noundef nonnull align 8 dereferenceable(8) %processed)
          to label %invoke.cont237 unwind label %lpad191

invoke.cont237:                                   ; preds = %invoke.cont235
  %call240 = invoke noundef zeroext i1 @_ZNK4cvc58internal12NodeTemplateILb1EE6isNullEv(ptr noundef nonnull align 8 dereferenceable(8) %rec_bvl)
          to label %invoke.cont239 unwind label %lpad191

invoke.cont239:                                   ; preds = %invoke.cont237
  br i1 %call240, label %land.lhs.true, label %if.end262

land.lhs.true:                                    ; preds = %invoke.cont239
  %call242 = invoke noundef zeroext i1 @_ZNK4cvc58internal12NodeTemplateILb1EE7isConstEv(ptr noundef nonnull align 8 dereferenceable(8) %curr_val)
          to label %invoke.cont241 unwind label %lpad191

invoke.cont241:                                   ; preds = %land.lhs.true
  br i1 %call242, label %if.end262, label %if.then243

if.then243:                                       ; preds = %invoke.cont241
  %call246 = invoke noundef zeroext i1 @_ZN4cvc58internal11__cvc5_truecvbEv(ptr noundef nonnull align 1 dereferenceable(1) %ref.tmp244)
          to label %invoke.cont245 unwind label %lpad191

invoke.cont245:                                   ; preds = %if.then243
  br i1 %call246, label %cond.true247, label %cond.false250

cond.true247:                                     ; preds = %invoke.cont245
  invoke void @_ZNK4cvc58internal5NullCcvNS0_11Cvc5ostreamEEv(ptr sret(%"class.cvc5::internal::Cvc5ostream") align 8 %tmp248, ptr noundef nonnull align 1 dereferenceable(1) @_ZN4cvc58internal10nullStreamE)
          to label %invoke.cont249 unwind label %lpad191

invoke.cont249:                                   ; preds = %cond.true247
  br label %cond.end260

cond.false250:                                    ; preds = %invoke.cont245
  invoke void @_ZNK4cvc58internal6TraceCclEv(ptr sret(%"class.cvc5::internal::Cvc5ostream") align 8 %ref.tmp252, ptr noundef nonnull align 8 dereferenceable(32) @_ZN4cvc58internal12TraceChannelE)
          to label %invoke.cont253 unwind label %lpad191

invoke.cont253:                                   ; preds = %cond.false250
  %call255 = invoke noundef nonnull align 8 dereferenceable(24) ptr @_ZN4cvc58internal11Cvc5ostreamlsIA23_cEERS1_RKT_(ptr noundef nonnull align 8 dereferenceable(24) %ref.tmp252, ptr noundef nonnull align 1 dereferenceable(23) @.str.8)
          to label %invoke.cont254 unwind label %lpad191

invoke.cont254:                                   ; preds = %invoke.cont253
  %call257 = invoke noundef nonnull align 8 dereferenceable(24) ptr @_ZN4cvc58internal11Cvc5ostreamlsINS0_12NodeTemplateILb1EEEEERS1_RKT_(ptr noundef nonnull align 8 dereferenceable(24) %call255, ptr noundef nonnull align 8 dereferenceable(8) %curr_val)
          to label %invoke.cont256 unwind label %lpad191

invoke.cont256:                                   ; preds = %invoke.cont254
  %call259 = invoke noundef nonnull align 8 dereferenceable(24) ptr @_ZN4cvc58internal11Cvc5ostreamlsIA2_cEERS1_RKT_(ptr noundef nonnull align 8 dereferenceable(24) %call257, ptr noundef nonnull align 1 dereferenceable(2) @.str.9)
          to label %invoke.cont258 unwind label %lpad191

invoke.cont258:                                   ; preds = %invoke.cont256
  call void @llvm.memcpy.p0.p0.i64(ptr align 8 %agg.tmp.ensured251, ptr align 8 %call259, i64 24, i1 false)
  br label %cond.end260

cond.end260:                                      ; preds = %invoke.cont258, %invoke.cont249
  invoke void @_ZN4cvc58internal12NodeTemplateILb1EE4nullEv(ptr sret(%"class.cvc5::internal::NodeTemplate") align 8 %agg.result)
          to label %invoke.cont261 unwind label %lpad191

invoke.cont261:                                   ; preds = %cond.end260
  store i32 1, ptr %cleanup.dest.slot, align 4
  br label %cleanup

if.end262:                                        ; preds = %invoke.cont241, %invoke.cont239
  br label %if.end268

if.else263:                                       ; preds = %if.end232
  %call265 = invoke noundef nonnull align 8 dereferenceable(8) ptr @_ZN4cvc58internal12NodeTemplateILb1EEaSERKS2_(ptr noundef nonnull align 8 dereferenceable(8) %curr_val, ptr noundef nonnull align 8 dereferenceable(8) %processed)
          to label %invoke.cont264 unwind label %lpad191

invoke.cont264:                                   ; preds = %if.else263
  %call267 = invoke noundef nonnull align 8 dereferenceable(8) ptr @_ZN4cvc58internal12NodeTemplateILb1EEaSERKS2_(ptr noundef nonnull align 8 dereferenceable(8) %next, ptr noundef nonnull align 8 dereferenceable(8) %remainder)
          to label %invoke.cont266 unwind label %lpad191

invoke.cont266:                                   ; preds = %invoke.cont264
  br label %if.end268

if.end268:                                        ; preds = %invoke.cont266, %if.end262
  %call271 = invoke noundef zeroext i1 @_ZN4cvc58internal11__cvc5_truecvbEv(ptr noundef nonnull align 1 dereferenceable(1) %ref.tmp269)
          to label %invoke.cont270 unwind label %lpad191

invoke.cont270:                                   ; preds = %if.end268
  br i1 %call271, label %cond.true272, label %cond.false275

cond.true272:                                     ; preds = %invoke.cont270
  invoke void @_ZNK4cvc58internal5NullCcvNS0_11Cvc5ostreamEEv(ptr sret(%"class.cvc5::internal::Cvc5ostream") align 8 %tmp273, ptr noundef nonnull align 1 dereferenceable(1) @_ZN4cvc58internal10nullStreamE)
          to label %invoke.cont274 unwind label %lpad191

invoke.cont274:                                   ; preds = %cond.true272
  br label %cond.end285

cond.false275:                                    ; preds = %invoke.cont270
  invoke void @_ZNK4cvc58internal6TraceCclEv(ptr sret(%"class.cvc5::internal::Cvc5ostream") align 8 %ref.tmp277, ptr noundef nonnull align 8 dereferenceable(32) @_ZN4cvc58internal12TraceChannelE)
          to label %invoke.cont278 unwind label %lpad191

invoke.cont278:                                   ; preds = %cond.false275
  %call280 = invoke noundef nonnull align 8 dereferenceable(24) ptr @_ZN4cvc58internal11Cvc5ostreamlsIA14_cEERS1_RKT_(ptr noundef nonnull align 8 dereferenceable(24) %ref.tmp277, ptr noundef nonnull align 1 dereferenceable(14) @.str.10)
          to label %invoke.cont279 unwind label %lpad191

invoke.cont279:                                   ; preds = %invoke.cont278
  %call282 = invoke noundef nonnull align 8 dereferenceable(24) ptr @_ZN4cvc58internal11Cvc5ostreamlsINS0_12NodeTemplateILb1EEEEERS1_RKT_(ptr noundef nonnull align 8 dereferenceable(24) %call280, ptr noundef nonnull align 8 dereferenceable(8) %index_eq)
          to label %invoke.cont281 unwind label %lpad191

invoke.cont281:                                   ; preds = %invoke.cont279
  %call284 = invoke noundef nonnull align 8 dereferenceable(24) ptr @_ZN4cvc58internal11Cvc5ostreamlsIA2_cEERS1_RKT_(ptr noundef nonnull align 8 dereferenceable(24) %call282, ptr noundef nonnull align 1 dereferenceable(2) @.str.9)
          to label %invoke.cont283 unwind label %lpad191

invoke.cont283:                                   ; preds = %invoke.cont281
  call void @llvm.memcpy.p0.p0.i64(ptr align 8 %agg.tmp.ensured276, ptr align 8 %call284, i64 24, i1 false)
  br label %cond.end285

cond.end285:                                      ; preds = %invoke.cont283, %invoke.cont274
  %call288 = invoke noundef zeroext i1 @_ZN4cvc58internal11__cvc5_truecvbEv(ptr noundef nonnull align 1 dereferenceable(1) %ref.tmp286)
          to label %invoke.cont287 unwind label %lpad191

invoke.cont287:                                   ; preds = %cond.end285
  br i1 %call288, label %cond.true289, label %cond.false292

cond.true289:                                     ; preds = %invoke.cont287
  invoke void @_ZNK4cvc58internal5NullCcvNS0_11Cvc5ostreamEEv(ptr sret(%"class.cvc5::internal::Cvc5ostream") align 8 %tmp290, ptr noundef nonnull align 1 dereferenceable(1) @_ZN4cvc58internal10nullStreamE)
          to label %invoke.cont291 unwind label %lpad191

invoke.cont291:                                   ; preds = %cond.true289
  br label %cond.end302

cond.false292:                                    ; preds = %invoke.cont287
  invoke void @_ZNK4cvc58internal6TraceCclEv(ptr sret(%"class.cvc5::internal::Cvc5ostream") align 8 %ref.tmp294, ptr noundef nonnull align 8 dereferenceable(32) @_ZN4cvc58internal12TraceChannelE)
          to label %invoke.cont295 unwind label %lpad191

invoke.cont295:                                   ; preds = %cond.false292
  %call297 = invoke noundef nonnull align 8 dereferenceable(24) ptr @_ZN4cvc58internal11Cvc5ostreamlsIA14_cEERS1_RKT_(ptr noundef nonnull align 8 dereferenceable(24) %ref.tmp294, ptr noundef nonnull align 1 dereferenceable(14) @.str.11)
          to label %invoke.cont296 unwind label %lpad191

invoke.cont296:                                   ; preds = %invoke.cont295
  %call299 = invoke noundef nonnull align 8 dereferenceable(24) ptr @_ZN4cvc58internal11Cvc5ostreamlsINS0_12NodeTemplateILb1EEEEERS1_RKT_(ptr noundef nonnull align 8 dereferenceable(24) %call297, ptr noundef nonnull align 8 dereferenceable(8) %curr_val)
          to label %invoke.cont298 unwind label %lpad191

invoke.cont298:                                   ; preds = %invoke.cont296
  %call301 = invoke noundef nonnull align 8 dereferenceable(24) ptr @_ZN4cvc58internal11Cvc5ostreamlsIA2_cEERS1_RKT_(ptr noundef nonnull align 8 dereferenceable(24) %call299, ptr noundef nonnull align 1 dereferenceable(2) @.str.9)
          to label %invoke.cont300 unwind label %lpad191

invoke.cont300:                                   ; preds = %invoke.cont298
  call void @llvm.memcpy.p0.p0.i64(ptr align 8 %agg.tmp.ensured293, ptr align 8 %call301, i64 24, i1 false)
  br label %cond.end302

cond.end302:                                      ; preds = %invoke.cont300, %invoke.cont291
  %call305 = invoke noundef zeroext i1 @_ZN4cvc58internal11__cvc5_truecvbEv(ptr noundef nonnull align 1 dereferenceable(1) %ref.tmp303)
          to label %invoke.cont304 unwind label %lpad191

invoke.cont304:                                   ; preds = %cond.end302
  br i1 %call305, label %cond.true306, label %cond.false309

cond.true306:                                     ; preds = %invoke.cont304
  invoke void @_ZNK4cvc58internal5NullCcvNS0_11Cvc5ostreamEEv(ptr sret(%"class.cvc5::internal::Cvc5ostream") align 8 %tmp307, ptr noundef nonnull align 1 dereferenceable(1) @_ZN4cvc58internal10nullStreamE)
          to label %invoke.cont308 unwind label %lpad191

invoke.cont308:                                   ; preds = %cond.true306
  br label %cond.end319

cond.false309:                                    ; preds = %invoke.cont304
  invoke void @_ZNK4cvc58internal6TraceCclEv(ptr sret(%"class.cvc5::internal::Cvc5ostream") align 8 %ref.tmp311, ptr noundef nonnull align 8 dereferenceable(32) @_ZN4cvc58internal12TraceChannelE)
          to label %invoke.cont312 unwind label %lpad191

invoke.cont312:                                   ; preds = %cond.false309
  %call314 = invoke noundef nonnull align 8 dereferenceable(24) ptr @_ZN4cvc58internal11Cvc5ostreamlsIA10_cEERS1_RKT_(ptr noundef nonnull align 8 dereferenceable(24) %ref.tmp311, ptr noundef nonnull align 1 dereferenceable(10) @.str.12)
          to label %invoke.cont313 unwind label %lpad191

invoke.cont313:                                   ; preds = %invoke.cont312
  %call316 = invoke noundef nonnull align 8 dereferenceable(24) ptr @_ZN4cvc58internal11Cvc5ostreamlsINS0_12NodeTemplateILb1EEEEERS1_RKT_(ptr noundef nonnull align 8 dereferenceable(24) %call314, ptr noundef nonnull align 8 dereferenceable(8) %next)
          to label %invoke.cont315 unwind label %lpad191

invoke.cont315:                                   ; preds = %invoke.cont313
  %call318 = invoke noundef nonnull align 8 dereferenceable(24) ptr @_ZN4cvc58internal11Cvc5ostreamlsEPFRSoS2_E(ptr noundef nonnull align 8 dereferenceable(24) %call316, ptr noundef @_ZSt4endlIcSt11char_traitsIcEERSt13basic_ostreamIT_T0_ES6_)
          to label %invoke.cont317 unwind label %lpad191

invoke.cont317:                                   ; preds = %invoke.cont315
  call void @llvm.memcpy.p0.p0.i64(ptr align 8 %agg.tmp.ensured310, ptr align 8 %call318, i64 24, i1 false)
  br label %cond.end319

cond.end319:                                      ; preds = %invoke.cont317, %invoke.cont308
  store i32 0, ptr %cleanup.dest.slot, align 4
  br label %cleanup

cleanup:                                          ; preds = %cond.end319, %invoke.cont261
  call void @_ZN4cvc58internal12NodeTemplateILb1EED2Ev(ptr noundef nonnull align 8 dereferenceable(8) %remainder) #3
  call void @_ZN4cvc58internal12NodeTemplateILb1EED2Ev(ptr noundef nonnull align 8 dereferenceable(8) %processed) #3
  %cleanup.dest = load i32, ptr %cleanup.dest.slot, align 4
  switch i32 %cleanup.dest, label %cleanup682 [
    i32 0, label %cleanup.cont
  ]

cleanup.cont:                                     ; preds = %cleanup
  br label %if.end371

ehcleanup320:                                     ; preds = %ehcleanup231, %lpad221, %lpad203, %lpad193, %lpad191
  call void @_ZN4cvc58internal12NodeTemplateILb1EED2Ev(ptr noundef nonnull align 8 dereferenceable(8) %remainder) #3
  br label %ehcleanup322

ehcleanup322:                                     ; preds = %ehcleanup320, %lpad180
  call void @_ZN4cvc58internal12NodeTemplateILb1EED2Ev(ptr noundef nonnull align 8 dereferenceable(8) %processed) #3
  br label %ehcleanup683

if.else323:                                       ; preds = %lor.lhs.false125
  %call326 = invoke noundef zeroext i1 @_ZN4cvc58internal11__cvc5_truecvbEv(ptr noundef nonnull align 1 dereferenceable(1) %ref.tmp324)
          to label %invoke.cont325 unwind label %lpad82

invoke.cont325:                                   ; preds = %if.else323
  br i1 %call326, label %cond.true327, label %cond.false330

cond.true327:                                     ; preds = %invoke.cont325
  invoke void @_ZNK4cvc58internal5NullCcvNS0_11Cvc5ostreamEEv(ptr sret(%"class.cvc5::internal::Cvc5ostream") align 8 %tmp328, ptr noundef nonnull align 1 dereferenceable(1) @_ZN4cvc58internal10nullStreamE)
          to label %invoke.cont329 unwind label %lpad82

invoke.cont329:                                   ; preds = %cond.true327
  br label %cond.end340

cond.false330:                                    ; preds = %invoke.cont325
  invoke void @_ZNK4cvc58internal6TraceCclEv(ptr sret(%"class.cvc5::internal::Cvc5ostream") align 8 %ref.tmp332, ptr noundef nonnull align 8 dereferenceable(32) @_ZN4cvc58internal12TraceChannelE)
          to label %invoke.cont333 unwind label %lpad82

invoke.cont333:                                   ; preds = %cond.false330
  %call335 = invoke noundef nonnull align 8 dereferenceable(24) ptr @_ZN4cvc58internal11Cvc5ostreamlsIA18_cEERS1_RKT_(ptr noundef nonnull align 8 dereferenceable(24) %ref.tmp332, ptr noundef nonnull align 1 dereferenceable(18) @.str.7)
          to label %invoke.cont334 unwind label %lpad82

invoke.cont334:                                   ; preds = %invoke.cont333
  %call337 = invoke noundef nonnull align 8 dereferenceable(24) ptr @_ZN4cvc58internal11Cvc5ostreamlsINS0_12NodeTemplateILb1EEEEERS1_RKT_(ptr noundef nonnull align 8 dereferenceable(24) %call335, ptr noundef nonnull align 8 dereferenceable(8) %curr)
          to label %invoke.cont336 unwind label %lpad82

invoke.cont336:                                   ; preds = %invoke.cont334
  %call339 = invoke noundef nonnull align 8 dereferenceable(24) ptr @_ZN4cvc58internal11Cvc5ostreamlsEPFRSoS2_E(ptr noundef nonnull align 8 dereferenceable(24) %call337, ptr noundef @_ZSt4endlIcSt11char_traitsIcEERSt13basic_ostreamIT_T0_ES6_)
          to label %invoke.cont338 unwind label %lpad82

invoke.cont338:                                   ; preds = %invoke.cont336
  call void @llvm.memcpy.p0.p0.i64(ptr align 8 %agg.tmp.ensured331, ptr align 8 %call339, i64 24, i1 false)
  br label %cond.end340

cond.end340:                                      ; preds = %invoke.cont338, %invoke.cont329
  %118 = load i32, ptr %ck, align 4
  %cmp342 = icmp ne i32 %118, 18
  %frombool343 = zext i1 %cmp342 to i8
  store i8 %frombool343, ptr %pol341, align 1
  %119 = load i8, ptr %pol341, align 1
  %tobool345 = trunc i8 %119 to i1
  br i1 %tobool345, label %cond.true346, label %cond.false348

cond.true346:                                     ; preds = %cond.end340
  invoke void @_ZN4cvc58internal12NodeTemplateILb1EEC2ERKS2_(ptr noundef nonnull align 8 dereferenceable(8) %ref.tmp344, ptr noundef nonnull align 8 dereferenceable(8) %curr)
          to label %invoke.cont347 unwind label %lpad82

invoke.cont347:                                   ; preds = %cond.true346
  br label %cond.end350

cond.false348:                                    ; preds = %cond.end340
  invoke void @_ZNK4cvc58internal12NodeTemplateILb1EEixEi(ptr sret(%"class.cvc5::internal::NodeTemplate") align 8 %ref.tmp344, ptr noundef nonnull align 8 dereferenceable(8) %curr, i32 noundef 0)
          to label %invoke.cont349 unwind label %lpad82

invoke.cont349:                                   ; preds = %cond.false348
  br label %cond.end350

cond.end350:                                      ; preds = %invoke.cont349, %invoke.cont347
  %call353 = invoke noundef nonnull align 8 dereferenceable(8) ptr @_ZN4cvc58internal12NodeTemplateILb1EEaSERKS2_(ptr noundef nonnull align 8 dereferenceable(8) %index_eq, ptr noundef nonnull align 8 dereferenceable(8) %ref.tmp344)
          to label %invoke.cont352 unwind label %lpad351

invoke.cont352:                                   ; preds = %cond.end350
  call void @_ZN4cvc58internal12NodeTemplateILb1EED2Ev(ptr noundef nonnull align 8 dereferenceable(8) %ref.tmp344) #3
  %120 = load ptr, ptr %nm, align 8
  invoke void @_ZN4cvc58internal11NodeManager7mkConstIbEENS0_12NodeTemplateILb1EEERKT_(ptr sret(%"class.cvc5::internal::NodeTemplate") align 8 %ref.tmp355, ptr noundef nonnull align 8 dereferenceable(3360) %120, ptr noundef nonnull align 1 dereferenceable(1) %pol341)
          to label %invoke.cont356 unwind label %lpad82

invoke.cont356:                                   ; preds = %invoke.cont352
  %call359 = invoke noundef nonnull align 8 dereferenceable(8) ptr @_ZN4cvc58internal12NodeTemplateILb1EEaSERKS2_(ptr noundef nonnull align 8 dereferenceable(8) %curr_val, ptr noundef nonnull align 8 dereferenceable(8) %ref.tmp355)
          to label %invoke.cont358 unwind label %lpad357

invoke.cont358:                                   ; preds = %invoke.cont356
  call void @_ZN4cvc58internal12NodeTemplateILb1EED2Ev(ptr noundef nonnull align 8 dereferenceable(8) %ref.tmp355) #3
  %121 = load ptr, ptr %nm, align 8
  %122 = load i8, ptr %pol341, align 1
  %tobool363 = trunc i8 %122 to i1
  %lnot364 = xor i1 %tobool363, true
  %frombool365 = zext i1 %lnot364 to i8
  store i8 %frombool365, ptr %ref.tmp362, align 1
  invoke void @_ZN4cvc58internal11NodeManager7mkConstIbEENS0_12NodeTemplateILb1EEERKT_(ptr sret(%"class.cvc5::internal::NodeTemplate") align 8 %ref.tmp361, ptr noundef nonnull align 8 dereferenceable(3360) %121, ptr noundef nonnull align 1 dereferenceable(1) %ref.tmp362)
          to label %invoke.cont366 unwind label %lpad82

invoke.cont366:                                   ; preds = %invoke.cont358
  %call369 = invoke noundef nonnull align 8 dereferenceable(8) ptr @_ZN4cvc58internal12NodeTemplateILb1EEaSERKS2_(ptr noundef nonnull align 8 dereferenceable(8) %next, ptr noundef nonnull align 8 dereferenceable(8) %ref.tmp361)
          to label %invoke.cont368 unwind label %lpad367

invoke.cont368:                                   ; preds = %invoke.cont366
  call void @_ZN4cvc58internal12NodeTemplateILb1EED2Ev(ptr noundef nonnull align 8 dereferenceable(8) %ref.tmp361) #3
  br label %if.end371

lpad351:                                          ; preds = %cond.end350
  %123 = landingpad { ptr, i32 }
          cleanup
  %124 = extractvalue { ptr, i32 } %123, 0
  store ptr %124, ptr %exn.slot, align 8
  %125 = extractvalue { ptr, i32 } %123, 1
  store i32 %125, ptr %ehselector.slot, align 4
  call void @_ZN4cvc58internal12NodeTemplateILb1EED2Ev(ptr noundef nonnull align 8 dereferenceable(8) %ref.tmp344) #3
  br label %ehcleanup683

lpad357:                                          ; preds = %invoke.cont356
  %126 = landingpad { ptr, i32 }
          cleanup
  %127 = extractvalue { ptr, i32 } %126, 0
  store ptr %127, ptr %exn.slot, align 8
  %128 = extractvalue { ptr, i32 } %126, 1
  store i32 %128, ptr %ehselector.slot, align 4
  call void @_ZN4cvc58internal12NodeTemplateILb1EED2Ev(ptr noundef nonnull align 8 dereferenceable(8) %ref.tmp355) #3
  br label %ehcleanup683

lpad367:                                          ; preds = %invoke.cont366
  %129 = landingpad { ptr, i32 }
          cleanup
  %130 = extractvalue { ptr, i32 } %129, 0
  store ptr %130, ptr %exn.slot, align 8
  %131 = extractvalue { ptr, i32 } %129, 1
  store i32 %131, ptr %ehselector.slot, align 4
  call void @_ZN4cvc58internal12NodeTemplateILb1EED2Ev(ptr noundef nonnull align 8 dereferenceable(8) %ref.tmp361) #3
  br label %ehcleanup683

if.end371:                                        ; preds = %invoke.cont368, %cleanup.cont
  br label %if.end372

if.end372:                                        ; preds = %if.end371, %invoke.cont121
  %call374 = invoke noundef i32 @_ZNK4cvc58internal12NodeTemplateILb1EE7getKindEv(ptr noundef nonnull align 8 dereferenceable(8) %index_eq)
          to label %invoke.cont373 unwind label %lpad82

invoke.cont373:                                   ; preds = %if.end372
  %cmp375 = icmp ne i32 %call374, 5
  br i1 %cmp375, label %if.then376, label %if.end450

if.then376:                                       ; preds = %invoke.cont373
  %call379 = invoke noundef i32 @_ZNK4cvc58internal12NodeTemplateILb1EE7getKindEv(ptr noundef nonnull align 8 dereferenceable(8) %index_eq)
          to label %invoke.cont378 unwind label %lpad82

invoke.cont378:                                   ; preds = %if.then376
  %cmp380 = icmp ne i32 %call379, 18
  %frombool381 = zext i1 %cmp380 to i8
  store i8 %frombool381, ptr %pol377, align 1
  %132 = load i8, ptr %pol377, align 1
  %tobool382 = trunc i8 %132 to i1
  br i1 %tobool382, label %cond.true383, label %cond.false385

cond.true383:                                     ; preds = %invoke.cont378
  invoke void @_ZN4cvc58internal12NodeTemplateILb1EEC2ERKS2_(ptr noundef nonnull align 8 dereferenceable(8) %indexEqAtom, ptr noundef nonnull align 8 dereferenceable(8) %index_eq)
          to label %invoke.cont384 unwind label %lpad82

invoke.cont384:                                   ; preds = %cond.true383
  br label %cond.end387

cond.false385:                                    ; preds = %invoke.cont378
  invoke void @_ZNK4cvc58internal12NodeTemplateILb1EEixEi(ptr sret(%"class.cvc5::internal::NodeTemplate") align 8 %indexEqAtom, ptr noundef nonnull align 8 dereferenceable(8) %index_eq, i32 noundef 0)
          to label %invoke.cont386 unwind label %lpad82

invoke.cont386:                                   ; preds = %cond.false385
  br label %cond.end387

cond.end387:                                      ; preds = %invoke.cont386, %invoke.cont384
  %call390 = invoke noundef i32 @_ZNK4cvc58internal12NodeTemplateILb1EE7getKindEv(ptr noundef nonnull align 8 dereferenceable(8) %indexEqAtom)
          to label %invoke.cont389 unwind label %lpad388

invoke.cont389:                                   ; preds = %cond.end387
  %cmp391 = icmp eq i32 %call390, 8
  br i1 %cmp391, label %if.then392, label %if.else428

if.then392:                                       ; preds = %invoke.cont389
  invoke void @_ZNK4cvc58internal12NodeTemplateILb1EE7getTypeEb(ptr sret(%"class.cvc5::internal::TypeNode") align 8 %ref.tmp393, ptr noundef nonnull align 8 dereferenceable(8) %indexEqAtom, i1 noundef zeroext false)
          to label %invoke.cont394 unwind label %lpad388

invoke.cont394:                                   ; preds = %if.then392
  %call397 = invoke noundef zeroext i1 @_ZNK4cvc58internal8TypeNode9isBooleanEv(ptr noundef nonnull align 8 dereferenceable(8) %ref.tmp393)
          to label %invoke.cont396 unwind label %lpad395

invoke.cont396:                                   ; preds = %invoke.cont394
  %lnot398 = xor i1 %call397, true
  call void @_ZN4cvc58internal8TypeNodeD2Ev(ptr noundef nonnull align 8 dereferenceable(8) %ref.tmp393) #3
  br i1 %lnot398, label %if.then400, label %if.end417

if.then400:                                       ; preds = %invoke.cont396
  %call403 = invoke noundef zeroext i1 @_ZN4cvc58internal11__cvc5_truecvbEv(ptr noundef nonnull align 1 dereferenceable(1) %ref.tmp401)
          to label %invoke.cont402 unwind label %lpad388

invoke.cont402:                                   ; preds = %if.then400
  br i1 %call403, label %cond.true404, label %cond.false407

cond.true404:                                     ; preds = %invoke.cont402
  invoke void @_ZNK4cvc58internal5NullCcvNS0_11Cvc5ostreamEEv(ptr sret(%"class.cvc5::internal::Cvc5ostream") align 8 %tmp405, ptr noundef nonnull align 1 dereferenceable(1) @_ZN4cvc58internal10nullStreamE)
          to label %invoke.cont406 unwind label %lpad388

invoke.cont406:                                   ; preds = %cond.true404
  br label %cond.end415

cond.false407:                                    ; preds = %invoke.cont402
  invoke void @_ZNK4cvc58internal6TraceCclEv(ptr sret(%"class.cvc5::internal::Cvc5ostream") align 8 %ref.tmp409, ptr noundef nonnull align 8 dereferenceable(32) @_ZN4cvc58internal12TraceChannelE)
          to label %invoke.cont410 unwind label %lpad388

invoke.cont410:                                   ; preds = %cond.false407
  %call412 = invoke noundef nonnull align 8 dereferenceable(24) ptr @_ZN4cvc58internal11Cvc5ostreamlsIA27_cEERS1_RKT_(ptr noundef nonnull align 8 dereferenceable(24) %ref.tmp409, ptr noundef nonnull align 1 dereferenceable(27) @.str.13)
          to label %invoke.cont411 unwind label %lpad388

invoke.cont411:                                   ; preds = %invoke.cont410
  %call414 = invoke noundef nonnull align 8 dereferenceable(24) ptr @_ZN4cvc58internal11Cvc5ostreamlsEPFRSoS2_E(ptr noundef nonnull align 8 dereferenceable(24) %call412, ptr noundef @_ZSt4endlIcSt11char_traitsIcEERSt13basic_ostreamIT_T0_ES6_)
          to label %invoke.cont413 unwind label %lpad388

invoke.cont413:                                   ; preds = %invoke.cont411
  call void @llvm.memcpy.p0.p0.i64(ptr align 8 %agg.tmp.ensured408, ptr align 8 %call414, i64 24, i1 false)
  br label %cond.end415

cond.end415:                                      ; preds = %invoke.cont413, %invoke.cont406
  invoke void @_ZN4cvc58internal12NodeTemplateILb1EE4nullEv(ptr sret(%"class.cvc5::internal::NodeTemplate") align 8 %agg.result)
          to label %invoke.cont416 unwind label %lpad388

invoke.cont416:                                   ; preds = %cond.end415
  store i32 1, ptr %cleanup.dest.slot, align 4
  br label %cleanup446

lpad388:                                          ; preds = %cond.end443, %invoke.cont439, %invoke.cont438, %cond.false435, %cond.true432, %if.else428, %if.end417, %cond.end415, %invoke.cont411, %invoke.cont410, %cond.false407, %cond.true404, %if.then400, %if.then392, %cond.end387
  %133 = landingpad { ptr, i32 }
          cleanup
  %134 = extractvalue { ptr, i32 } %133, 0
  store ptr %134, ptr %exn.slot, align 8
  %135 = extractvalue { ptr, i32 } %133, 1
  store i32 %135, ptr %ehselector.slot, align 4
  br label %ehcleanup449

lpad395:                                          ; preds = %invoke.cont394
  %136 = landingpad { ptr, i32 }
          cleanup
  %137 = extractvalue { ptr, i32 } %136, 0
  store ptr %137, ptr %exn.slot, align 8
  %138 = extractvalue { ptr, i32 } %136, 1
  store i32 %138, ptr %ehselector.slot, align 4
  call void @_ZN4cvc58internal8TypeNodeD2Ev(ptr noundef nonnull align 8 dereferenceable(8) %ref.tmp393) #3
  br label %ehcleanup449

if.end417:                                        ; preds = %invoke.cont396
  %139 = load ptr, ptr %nm, align 8
  invoke void @_ZN4cvc58internal11NodeManager7mkConstIbEENS0_12NodeTemplateILb1EEERKT_(ptr sret(%"class.cvc5::internal::NodeTemplate") align 8 %ref.tmp419, ptr noundef nonnull align 8 dereferenceable(3360) %139, ptr noundef nonnull align 1 dereferenceable(1) %pol377)
          to label %invoke.cont420 unwind label %lpad388

invoke.cont420:                                   ; preds = %if.end417
  invoke void @_ZNK4cvc58internal12NodeTemplateILb1EE6eqNodeILb1EEES2_RKNS1_IXT_EEE(ptr sret(%"class.cvc5::internal::NodeTemplate") align 8 %ref.tmp418, ptr noundef nonnull align 8 dereferenceable(8) %indexEqAtom, ptr noundef nonnull align 8 dereferenceable(8) %ref.tmp419)
          to label %invoke.cont422 unwind label %lpad421

invoke.cont422:                                   ; preds = %invoke.cont420
  %call425 = invoke noundef nonnull align 8 dereferenceable(8) ptr @_ZN4cvc58internal12NodeTemplateILb1EEaSERKS2_(ptr noundef nonnull align 8 dereferenceable(8) %index_eq, ptr noundef nonnull align 8 dereferenceable(8) %ref.tmp418)
          to label %invoke.cont424 unwind label %lpad423

invoke.cont424:                                   ; preds = %invoke.cont422
  call void @_ZN4cvc58internal12NodeTemplateILb1EED2Ev(ptr noundef nonnull align 8 dereferenceable(8) %ref.tmp418) #3
  call void @_ZN4cvc58internal12NodeTemplateILb1EED2Ev(ptr noundef nonnull align 8 dereferenceable(8) %ref.tmp419) #3
  br label %if.end445

lpad421:                                          ; preds = %invoke.cont420
  %140 = landingpad { ptr, i32 }
          cleanup
  %141 = extractvalue { ptr, i32 } %140, 0
  store ptr %141, ptr %exn.slot, align 8
  %142 = extractvalue { ptr, i32 } %140, 1
  store i32 %142, ptr %ehselector.slot, align 4
  br label %ehcleanup427

lpad423:                                          ; preds = %invoke.cont422
  %143 = landingpad { ptr, i32 }
          cleanup
  %144 = extractvalue { ptr, i32 } %143, 0
  store ptr %144, ptr %exn.slot, align 8
  %145 = extractvalue { ptr, i32 } %143, 1
  store i32 %145, ptr %ehselector.slot, align 4
  call void @_ZN4cvc58internal12NodeTemplateILb1EED2Ev(ptr noundef nonnull align 8 dereferenceable(8) %ref.tmp418) #3
  br label %ehcleanup427

ehcleanup427:                                     ; preds = %lpad423, %lpad421
  call void @_ZN4cvc58internal12NodeTemplateILb1EED2Ev(ptr noundef nonnull align 8 dereferenceable(8) %ref.tmp419) #3
  br label %ehcleanup449

if.else428:                                       ; preds = %invoke.cont389
  %call431 = invoke noundef zeroext i1 @_ZN4cvc58internal11__cvc5_truecvbEv(ptr noundef nonnull align 1 dereferenceable(1) %ref.tmp429)
          to label %invoke.cont430 unwind label %lpad388

invoke.cont430:                                   ; preds = %if.else428
  br i1 %call431, label %cond.true432, label %cond.false435

cond.true432:                                     ; preds = %invoke.cont430
  invoke void @_ZNK4cvc58internal5NullCcvNS0_11Cvc5ostreamEEv(ptr sret(%"class.cvc5::internal::Cvc5ostream") align 8 %tmp433, ptr noundef nonnull align 1 dereferenceable(1) @_ZN4cvc58internal10nullStreamE)
          to label %invoke.cont434 unwind label %lpad388

invoke.cont434:                                   ; preds = %cond.true432
  br label %cond.end443

cond.false435:                                    ; preds = %invoke.cont430
  invoke void @_ZNK4cvc58internal6TraceCclEv(ptr sret(%"class.cvc5::internal::Cvc5ostream") align 8 %ref.tmp437, ptr noundef nonnull align 8 dereferenceable(32) @_ZN4cvc58internal12TraceChannelE)
          to label %invoke.cont438 unwind label %lpad388

invoke.cont438:                                   ; preds = %cond.false435
  %call440 = invoke noundef nonnull align 8 dereferenceable(24) ptr @_ZN4cvc58internal11Cvc5ostreamlsIA29_cEERS1_RKT_(ptr noundef nonnull align 8 dereferenceable(24) %ref.tmp437, ptr noundef nonnull align 1 dereferenceable(29) @.str.14)
          to label %invoke.cont439 unwind label %lpad388

invoke.cont439:                                   ; preds = %invoke.cont438
  %call442 = invoke noundef nonnull align 8 dereferenceable(24) ptr @_ZN4cvc58internal11Cvc5ostreamlsEPFRSoS2_E(ptr noundef nonnull align 8 dereferenceable(24) %call440, ptr noundef @_ZSt4endlIcSt11char_traitsIcEERSt13basic_ostreamIT_T0_ES6_)
          to label %invoke.cont441 unwind label %lpad388

invoke.cont441:                                   ; preds = %invoke.cont439
  call void @llvm.memcpy.p0.p0.i64(ptr align 8 %agg.tmp.ensured436, ptr align 8 %call442, i64 24, i1 false)
  br label %cond.end443

cond.end443:                                      ; preds = %invoke.cont441, %invoke.cont434
  invoke void @_ZN4cvc58internal12NodeTemplateILb1EE4nullEv(ptr sret(%"class.cvc5::internal::NodeTemplate") align 8 %agg.result)
          to label %invoke.cont444 unwind label %lpad388

invoke.cont444:                                   ; preds = %cond.end443
  store i32 1, ptr %cleanup.dest.slot, align 4
  br label %cleanup446

if.end445:                                        ; preds = %invoke.cont424
  store i32 0, ptr %cleanup.dest.slot, align 4
  br label %cleanup446

cleanup446:                                       ; preds = %if.end445, %invoke.cont444, %invoke.cont416
  call void @_ZN4cvc58internal12NodeTemplateILb1EED2Ev(ptr noundef nonnull align 8 dereferenceable(8) %indexEqAtom) #3
  %cleanup.dest447 = load i32, ptr %cleanup.dest.slot, align 4
  switch i32 %cleanup.dest447, label %cleanup682 [
    i32 0, label %cleanup.cont448
  ]

cleanup.cont448:                                  ; preds = %cleanup446
  br label %if.end450

ehcleanup449:                                     ; preds = %ehcleanup427, %lpad395, %lpad388
  call void @_ZN4cvc58internal12NodeTemplateILb1EED2Ev(ptr noundef nonnull align 8 dereferenceable(8) %indexEqAtom) #3
  br label %ehcleanup683

if.end450:                                        ; preds = %cleanup.cont448, %invoke.cont373
  invoke void @_ZN4cvc58internal12NodeTemplateILb1EEC2Ev(ptr noundef nonnull align 8 dereferenceable(8) %curr_index)
          to label %invoke.cont451 unwind label %lpad82

invoke.cont451:                                   ; preds = %if.end450
  store i32 0, ptr %r, align 4
  br label %for.cond452

for.cond452:                                      ; preds = %for.inc493, %invoke.cont451
  %146 = load i32, ptr %r, align 4
  %cmp453 = icmp ult i32 %146, 2
  br i1 %cmp453, label %for.body454, label %for.end495

for.body454:                                      ; preds = %for.cond452
  %147 = load i32, ptr %r, align 4
  invoke void @_ZNK4cvc58internal12NodeTemplateILb1EEixEi(ptr sret(%"class.cvc5::internal::NodeTemplate") align 8 %arg, ptr noundef nonnull align 8 dereferenceable(8) %index_eq, i32 noundef %147)
          to label %invoke.cont456 unwind label %lpad455

invoke.cont456:                                   ; preds = %for.body454
  %148 = load i32, ptr %r, align 4
  %sub = sub i32 1, %148
  invoke void @_ZNK4cvc58internal12NodeTemplateILb1EEixEi(ptr sret(%"class.cvc5::internal::NodeTemplate") align 8 %val, ptr noundef nonnull align 8 dereferenceable(8) %index_eq, i32 noundef %sub)
          to label %invoke.cont458 unwind label %lpad457

invoke.cont458:                                   ; preds = %invoke.cont456
  %call461 = invoke noundef zeroext i1 @_ZNK4cvc58internal12NodeTemplateILb1EEeqILb1EEEbRKNS1_IXT_EEE(ptr noundef nonnull align 8 dereferenceable(8) %arg, ptr noundef nonnull align 8 dereferenceable(8) %first_arg)
          to label %invoke.cont460 unwind label %lpad459

invoke.cont460:                                   ; preds = %invoke.cont458
  br i1 %call461, label %if.then462, label %if.end486

if.then462:                                       ; preds = %invoke.cont460
  %call464 = invoke noundef nonnull align 8 dereferenceable(8) ptr @_ZN4cvc58internal12NodeTemplateILb1EEaSERKS2_(ptr noundef nonnull align 8 dereferenceable(8) %curr_index, ptr noundef nonnull align 8 dereferenceable(8) %val)
          to label %invoke.cont463 unwind label %lpad459

invoke.cont463:                                   ; preds = %if.then462
  %call467 = invoke noundef zeroext i1 @_ZN4cvc58internal11__cvc5_truecvbEv(ptr noundef nonnull align 1 dereferenceable(1) %ref.tmp465)
          to label %invoke.cont466 unwind label %lpad459

invoke.cont466:                                   ; preds = %invoke.cont463
  br i1 %call467, label %cond.true468, label %cond.false471

cond.true468:                                     ; preds = %invoke.cont466
  invoke void @_ZNK4cvc58internal5NullCcvNS0_11Cvc5ostreamEEv(ptr sret(%"class.cvc5::internal::Cvc5ostream") align 8 %tmp469, ptr noundef nonnull align 1 dereferenceable(1) @_ZN4cvc58internal10nullStreamE)
          to label %invoke.cont470 unwind label %lpad459

invoke.cont470:                                   ; preds = %cond.true468
  br label %cond.end485

cond.false471:                                    ; preds = %invoke.cont466
  invoke void @_ZNK4cvc58internal6TraceCclEv(ptr sret(%"class.cvc5::internal::Cvc5ostream") align 8 %ref.tmp473, ptr noundef nonnull align 8 dereferenceable(32) @_ZN4cvc58internal12TraceChannelE)
          to label %invoke.cont474 unwind label %lpad459

invoke.cont474:                                   ; preds = %cond.false471
  %call476 = invoke noundef nonnull align 8 dereferenceable(24) ptr @_ZN4cvc58internal11Cvc5ostreamlsIA7_cEERS1_RKT_(ptr noundef nonnull align 8 dereferenceable(24) %ref.tmp473, ptr noundef nonnull align 1 dereferenceable(7) @.str.15)
          to label %invoke.cont475 unwind label %lpad459

invoke.cont475:                                   ; preds = %invoke.cont474
  %call478 = invoke noundef nonnull align 8 dereferenceable(24) ptr @_ZN4cvc58internal11Cvc5ostreamlsINS0_12NodeTemplateILb1EEEEERS1_RKT_(ptr noundef nonnull align 8 dereferenceable(24) %call476, ptr noundef nonnull align 8 dereferenceable(8) %arg)
          to label %invoke.cont477 unwind label %lpad459

invoke.cont477:                                   ; preds = %invoke.cont475
  %call480 = invoke noundef nonnull align 8 dereferenceable(24) ptr @_ZN4cvc58internal11Cvc5ostreamlsIA5_cEERS1_RKT_(ptr noundef nonnull align 8 dereferenceable(24) %call478, ptr noundef nonnull align 1 dereferenceable(5) @.str.16)
          to label %invoke.cont479 unwind label %lpad459

invoke.cont479:                                   ; preds = %invoke.cont477
  %call482 = invoke noundef nonnull align 8 dereferenceable(24) ptr @_ZN4cvc58internal11Cvc5ostreamlsINS0_12NodeTemplateILb1EEEEERS1_RKT_(ptr noundef nonnull align 8 dereferenceable(24) %call480, ptr noundef nonnull align 8 dereferenceable(8) %val)
          to label %invoke.cont481 unwind label %lpad459

invoke.cont481:                                   ; preds = %invoke.cont479
  %call484 = invoke noundef nonnull align 8 dereferenceable(24) ptr @_ZN4cvc58internal11Cvc5ostreamlsEPFRSoS2_E(ptr noundef nonnull align 8 dereferenceable(24) %call482, ptr noundef @_ZSt4endlIcSt11char_traitsIcEERSt13basic_ostreamIT_T0_ES6_)
          to label %invoke.cont483 unwind label %lpad459

invoke.cont483:                                   ; preds = %invoke.cont481
  call void @llvm.memcpy.p0.p0.i64(ptr align 8 %agg.tmp.ensured472, ptr align 8 %call484, i64 24, i1 false)
  br label %cond.end485

cond.end485:                                      ; preds = %invoke.cont483, %invoke.cont470
  store i32 7, ptr %cleanup.dest.slot, align 4
  br label %cleanup487

lpad455:                                          ; preds = %invoke.cont675, %invoke.cont673, %invoke.cont672, %cond.false669, %cond.true666, %invoke.cont661, %invoke.cont659, %invoke.cont658, %invoke.cont657, %if.end656, %cond.end654, %invoke.cont651, %cond.false648, %cond.true645, %if.then641, %lor.lhs.false638, %cond.end635, %invoke.cont631, %invoke.cont629, %invoke.cont628, %cond.false625, %cond.true622, %if.end618, %cond.end615, %invoke.cont611, %invoke.cont610, %cond.false607, %cond.true604, %if.then600, %cond.end597, %invoke.cont594, %cond.false591, %cond.true588, %cond.end584, %invoke.cont581, %cond.false578, %cond.true575, %invoke.cont567, %cond.end557, %invoke.cont554, %cond.false551, %cond.true548, %cond.end544, %invoke.cont541, %cond.false538, %cond.true535, %invoke.cont527, %if.then517, %if.end514, %invoke.cont509, %invoke.cont508, %cond.false505, %cond.true502, %if.then498, %for.end495, %for.body454
  %149 = landingpad { ptr, i32 }
          cleanup
  %150 = extractvalue { ptr, i32 } %149, 0
  store ptr %150, ptr %exn.slot, align 8
  %151 = extractvalue { ptr, i32 } %149, 1
  store i32 %151, ptr %ehselector.slot, align 4
  br label %ehcleanup681

lpad457:                                          ; preds = %invoke.cont456
  %152 = landingpad { ptr, i32 }
          cleanup
  %153 = extractvalue { ptr, i32 } %152, 0
  store ptr %153, ptr %exn.slot, align 8
  %154 = extractvalue { ptr, i32 } %152, 1
  store i32 %154, ptr %ehselector.slot, align 4
  br label %ehcleanup492

lpad459:                                          ; preds = %invoke.cont481, %invoke.cont479, %invoke.cont477, %invoke.cont475, %invoke.cont474, %cond.false471, %cond.true468, %invoke.cont463, %if.then462, %invoke.cont458
  %155 = landingpad { ptr, i32 }
          cleanup
  %156 = extractvalue { ptr, i32 } %155, 0
  store ptr %156, ptr %exn.slot, align 8
  %157 = extractvalue { ptr, i32 } %155, 1
  store i32 %157, ptr %ehselector.slot, align 4
  call void @_ZN4cvc58internal12NodeTemplateILb1EED2Ev(ptr noundef nonnull align 8 dereferenceable(8) %val) #3
  br label %ehcleanup492

if.end486:                                        ; preds = %invoke.cont460
  store i32 0, ptr %cleanup.dest.slot, align 4
  br label %cleanup487

cleanup487:                                       ; preds = %if.end486, %cond.end485
  call void @_ZN4cvc58internal12NodeTemplateILb1EED2Ev(ptr noundef nonnull align 8 dereferenceable(8) %val) #3
  call void @_ZN4cvc58internal12NodeTemplateILb1EED2Ev(ptr noundef nonnull align 8 dereferenceable(8) %arg) #3
  %cleanup.dest490 = load i32, ptr %cleanup.dest.slot, align 4
  switch i32 %cleanup.dest490, label %unreachable [
    i32 0, label %cleanup.cont491
    i32 7, label %for.end495
  ]

cleanup.cont491:                                  ; preds = %cleanup487
  br label %for.inc493

for.inc493:                                       ; preds = %cleanup.cont491
  %158 = load i32, ptr %r, align 4
  %inc494 = add i32 %158, 1
  store i32 %inc494, ptr %r, align 4
  br label %for.cond452, !llvm.loop !14

ehcleanup492:                                     ; preds = %lpad459, %lpad457
  call void @_ZN4cvc58internal12NodeTemplateILb1EED2Ev(ptr noundef nonnull align 8 dereferenceable(8) %arg) #3
  br label %ehcleanup681

for.end495:                                       ; preds = %cleanup487, %for.cond452
  %call497 = invoke noundef zeroext i1 @_ZNK4cvc58internal12NodeTemplateILb1EE6isNullEv(ptr noundef nonnull align 8 dereferenceable(8) %curr_index)
          to label %invoke.cont496 unwind label %lpad455

invoke.cont496:                                   ; preds = %for.end495
  br i1 %call497, label %if.then498, label %if.end514

if.then498:                                       ; preds = %invoke.cont496
  %call501 = invoke noundef zeroext i1 @_ZN4cvc58internal11__cvc5_truecvbEv(ptr noundef nonnull align 1 dereferenceable(1) %ref.tmp499)
          to label %invoke.cont500 unwind label %lpad455

invoke.cont500:                                   ; preds = %if.then498
  br i1 %call501, label %cond.true502, label %cond.false505

cond.true502:                                     ; preds = %invoke.cont500
  invoke void @_ZNK4cvc58internal5NullCcvNS0_11Cvc5ostreamEEv(ptr sret(%"class.cvc5::internal::Cvc5ostream") align 8 %tmp503, ptr noundef nonnull align 1 dereferenceable(1) @_ZN4cvc58internal10nullStreamE)
          to label %invoke.cont504 unwind label %lpad455

invoke.cont504:                                   ; preds = %cond.true502
  br label %cond.end513

cond.false505:                                    ; preds = %invoke.cont500
  invoke void @_ZNK4cvc58internal6TraceCclEv(ptr sret(%"class.cvc5::internal::Cvc5ostream") align 8 %ref.tmp507, ptr noundef nonnull align 8 dereferenceable(32) @_ZN4cvc58internal12TraceChannelE)
          to label %invoke.cont508 unwind label %lpad455

invoke.cont508:                                   ; preds = %cond.false505
  %call510 = invoke noundef nonnull align 8 dereferenceable(24) ptr @_ZN4cvc58internal11Cvc5ostreamlsIA34_cEERS1_RKT_(ptr noundef nonnull align 8 dereferenceable(24) %ref.tmp507, ptr noundef nonnull align 1 dereferenceable(34) @.str.17)
          to label %invoke.cont509 unwind label %lpad455

invoke.cont509:                                   ; preds = %invoke.cont508
  %call512 = invoke noundef nonnull align 8 dereferenceable(24) ptr @_ZN4cvc58internal11Cvc5ostreamlsEPFRSoS2_E(ptr noundef nonnull align 8 dereferenceable(24) %call510, ptr noundef @_ZSt4endlIcSt11char_traitsIcEERSt13basic_ostreamIT_T0_ES6_)
          to label %invoke.cont511 unwind label %lpad455

invoke.cont511:                                   ; preds = %invoke.cont509
  call void @llvm.memcpy.p0.p0.i64(ptr align 8 %agg.tmp.ensured506, ptr align 8 %call512, i64 24, i1 false)
  br label %cond.end513

cond.end513:                                      ; preds = %invoke.cont511, %invoke.cont504
  store i32 6, ptr %cleanup.dest.slot, align 4
  br label %cleanup680

if.end514:                                        ; preds = %invoke.cont496
  %call516 = invoke noundef zeroext i1 @_ZNK4cvc58internal12NodeTemplateILb1EE6isNullEv(ptr noundef nonnull align 8 dereferenceable(8) %rec_bvl)
          to label %invoke.cont515 unwind label %lpad455

invoke.cont515:                                   ; preds = %if.end514
  br i1 %call516, label %if.end618, label %if.then517

if.then517:                                       ; preds = %invoke.cont515
  %159 = load ptr, ptr %nm, align 8
  invoke void @_ZN4cvc58internal12NodeTemplateILb0EEC2ERKNS1_ILb1EEE(ptr noundef nonnull align 8 dereferenceable(8) %agg.tmp519, ptr noundef nonnull align 8 dereferenceable(8) %rec_bvl)
          to label %invoke.cont520 unwind label %lpad455

invoke.cont520:                                   ; preds = %if.then517
  invoke void @_ZN4cvc58internal12NodeTemplateILb0EEC2ERKNS1_ILb1EEE(ptr noundef nonnull align 8 dereferenceable(8) %agg.tmp521, ptr noundef nonnull align 8 dereferenceable(8) %curr_val)
          to label %invoke.cont523 unwind label %lpad522

invoke.cont523:                                   ; preds = %invoke.cont520
  invoke void @_ZN4cvc58internal11NodeManager6mkNodeENS0_4kind6Kind_tENS0_12NodeTemplateILb0EEES5_(ptr sret(%"class.cvc5::internal::NodeTemplate") align 8 %ref.tmp518, ptr noundef nonnull align 8 dereferenceable(3360) %159, i32 noundef 26, ptr noundef %agg.tmp519, ptr noundef %agg.tmp521)
          to label %invoke.cont525 unwind label %lpad524

invoke.cont525:                                   ; preds = %invoke.cont523
  %call528 = invoke noundef nonnull align 8 dereferenceable(8) ptr @_ZN4cvc58internal12NodeTemplateILb1EEaSERKS2_(ptr noundef nonnull align 8 dereferenceable(8) %curr_val, ptr noundef nonnull align 8 dereferenceable(8) %ref.tmp518)
          to label %invoke.cont527 unwind label %lpad526

invoke.cont527:                                   ; preds = %invoke.cont525
  call void @_ZN4cvc58internal12NodeTemplateILb1EED2Ev(ptr noundef nonnull align 8 dereferenceable(8) %ref.tmp518) #3
  call void @_ZN4cvc58internal12NodeTemplateILb0EED2Ev(ptr noundef nonnull align 8 dereferenceable(8) %agg.tmp521) #3
  call void @_ZN4cvc58internal12NodeTemplateILb0EED2Ev(ptr noundef nonnull align 8 dereferenceable(8) %agg.tmp519) #3
  %call534 = invoke noundef zeroext i1 @_ZN4cvc58internal11__cvc5_truecvbEv(ptr noundef nonnull align 1 dereferenceable(1) %ref.tmp532)
          to label %invoke.cont533 unwind label %lpad455

invoke.cont533:                                   ; preds = %invoke.cont527
  br i1 %call534, label %cond.true535, label %cond.false538

cond.true535:                                     ; preds = %invoke.cont533
  invoke void @_ZNK4cvc58internal5NullCcvNS0_11Cvc5ostreamEEv(ptr sret(%"class.cvc5::internal::Cvc5ostream") align 8 %tmp536, ptr noundef nonnull align 1 dereferenceable(1) @_ZN4cvc58internal10nullStreamE)
          to label %invoke.cont537 unwind label %lpad455

invoke.cont537:                                   ; preds = %cond.true535
  br label %cond.end544

cond.false538:                                    ; preds = %invoke.cont533
  invoke void @_ZNK4cvc58internal6TraceCclEv(ptr sret(%"class.cvc5::internal::Cvc5ostream") align 8 %ref.tmp540, ptr noundef nonnull align 8 dereferenceable(32) @_ZN4cvc58internal12TraceChannelE)
          to label %invoke.cont541 unwind label %lpad455

invoke.cont541:                                   ; preds = %cond.false538
  %call543 = invoke noundef nonnull align 8 dereferenceable(24) ptr @_ZN4cvc58internal11Cvc5ostreamlsEPFRS1_S2_E(ptr noundef nonnull align 8 dereferenceable(24) %ref.tmp540, ptr noundef @_ZN4cvc58internal4pushERNS0_11Cvc5ostreamE)
          to label %invoke.cont542 unwind label %lpad455

invoke.cont542:                                   ; preds = %invoke.cont541
  call void @llvm.memcpy.p0.p0.i64(ptr align 8 %agg.tmp.ensured539, ptr align 8 %call543, i64 24, i1 false)
  br label %cond.end544

cond.end544:                                      ; preds = %invoke.cont542, %invoke.cont537
  %call547 = invoke noundef zeroext i1 @_ZN4cvc58internal11__cvc5_truecvbEv(ptr noundef nonnull align 1 dereferenceable(1) %ref.tmp545)
          to label %invoke.cont546 unwind label %lpad455

invoke.cont546:                                   ; preds = %cond.end544
  br i1 %call547, label %cond.true548, label %cond.false551

cond.true548:                                     ; preds = %invoke.cont546
  invoke void @_ZNK4cvc58internal5NullCcvNS0_11Cvc5ostreamEEv(ptr sret(%"class.cvc5::internal::Cvc5ostream") align 8 %tmp549, ptr noundef nonnull align 1 dereferenceable(1) @_ZN4cvc58internal10nullStreamE)
          to label %invoke.cont550 unwind label %lpad455

invoke.cont550:                                   ; preds = %cond.true548
  br label %cond.end557

cond.false551:                                    ; preds = %invoke.cont546
  invoke void @_ZNK4cvc58internal6TraceCclEv(ptr sret(%"class.cvc5::internal::Cvc5ostream") align 8 %ref.tmp553, ptr noundef nonnull align 8 dereferenceable(32) @_ZN4cvc58internal12TraceChannelE)
          to label %invoke.cont554 unwind label %lpad455

invoke.cont554:                                   ; preds = %cond.false551
  %call556 = invoke noundef nonnull align 8 dereferenceable(24) ptr @_ZN4cvc58internal11Cvc5ostreamlsEPFRS1_S2_E(ptr noundef nonnull align 8 dereferenceable(24) %ref.tmp553, ptr noundef @_ZN4cvc58internal4pushERNS0_11Cvc5ostreamE)
          to label %invoke.cont555 unwind label %lpad455

invoke.cont555:                                   ; preds = %invoke.cont554
  call void @llvm.memcpy.p0.p0.i64(ptr align 8 %agg.tmp.ensured552, ptr align 8 %call556, i64 24, i1 false)
  br label %cond.end557

cond.end557:                                      ; preds = %invoke.cont555, %invoke.cont550
  invoke void @_ZN4cvc58internal12NodeTemplateILb0EEC2ERKNS1_ILb1EEE(ptr noundef nonnull align 8 dereferenceable(8) %agg.tmp559, ptr noundef nonnull align 8 dereferenceable(8) %curr_val)
          to label %invoke.cont560 unwind label %lpad455

invoke.cont560:                                   ; preds = %cond.end557
  invoke void @_ZN4cvc58internal8TypeNodeC2ERKS1_(ptr noundef nonnull align 8 dereferenceable(8) %agg.tmp561, ptr noundef nonnull align 8 dereferenceable(8) %retType)
          to label %invoke.cont563 unwind label %lpad562

invoke.cont563:                                   ; preds = %invoke.cont560
  invoke void @_ZN4cvc58internal6theory2uf13FunctionConst34getArrayRepresentationForLambdaRecENS0_12NodeTemplateILb0EEENS0_8TypeNodeE(ptr sret(%"class.cvc5::internal::NodeTemplate") align 8 %ref.tmp558, ptr noundef %agg.tmp559, ptr noundef %agg.tmp561)
          to label %invoke.cont565 unwind label %lpad564

invoke.cont565:                                   ; preds = %invoke.cont563
  %call568 = invoke noundef nonnull align 8 dereferenceable(8) ptr @_ZN4cvc58internal12NodeTemplateILb1EEaSERKS2_(ptr noundef nonnull align 8 dereferenceable(8) %curr_val, ptr noundef nonnull align 8 dereferenceable(8) %ref.tmp558)
          to label %invoke.cont567 unwind label %lpad566

invoke.cont567:                                   ; preds = %invoke.cont565
  call void @_ZN4cvc58internal12NodeTemplateILb1EED2Ev(ptr noundef nonnull align 8 dereferenceable(8) %ref.tmp558) #3
  call void @_ZN4cvc58internal8TypeNodeD2Ev(ptr noundef nonnull align 8 dereferenceable(8) %agg.tmp561) #3
  call void @_ZN4cvc58internal12NodeTemplateILb0EED2Ev(ptr noundef nonnull align 8 dereferenceable(8) %agg.tmp559) #3
  %call574 = invoke noundef zeroext i1 @_ZN4cvc58internal11__cvc5_truecvbEv(ptr noundef nonnull align 1 dereferenceable(1) %ref.tmp572)
          to label %invoke.cont573 unwind label %lpad455

invoke.cont573:                                   ; preds = %invoke.cont567
  br i1 %call574, label %cond.true575, label %cond.false578

cond.true575:                                     ; preds = %invoke.cont573
  invoke void @_ZNK4cvc58internal5NullCcvNS0_11Cvc5ostreamEEv(ptr sret(%"class.cvc5::internal::Cvc5ostream") align 8 %tmp576, ptr noundef nonnull align 1 dereferenceable(1) @_ZN4cvc58internal10nullStreamE)
          to label %invoke.cont577 unwind label %lpad455

invoke.cont577:                                   ; preds = %cond.true575
  br label %cond.end584

cond.false578:                                    ; preds = %invoke.cont573
  invoke void @_ZNK4cvc58internal6TraceCclEv(ptr sret(%"class.cvc5::internal::Cvc5ostream") align 8 %ref.tmp580, ptr noundef nonnull align 8 dereferenceable(32) @_ZN4cvc58internal12TraceChannelE)
          to label %invoke.cont581 unwind label %lpad455

invoke.cont581:                                   ; preds = %cond.false578
  %call583 = invoke noundef nonnull align 8 dereferenceable(24) ptr @_ZN4cvc58internal11Cvc5ostreamlsEPFRS1_S2_E(ptr noundef nonnull align 8 dereferenceable(24) %ref.tmp580, ptr noundef @_ZN4cvc58internal3popERNS0_11Cvc5ostreamE)
          to label %invoke.cont582 unwind label %lpad455

invoke.cont582:                                   ; preds = %invoke.cont581
  call void @llvm.memcpy.p0.p0.i64(ptr align 8 %agg.tmp.ensured579, ptr align 8 %call583, i64 24, i1 false)
  br label %cond.end584

cond.end584:                                      ; preds = %invoke.cont582, %invoke.cont577
  %call587 = invoke noundef zeroext i1 @_ZN4cvc58internal11__cvc5_truecvbEv(ptr noundef nonnull align 1 dereferenceable(1) %ref.tmp585)
          to label %invoke.cont586 unwind label %lpad455

invoke.cont586:                                   ; preds = %cond.end584
  br i1 %call587, label %cond.true588, label %cond.false591

cond.true588:                                     ; preds = %invoke.cont586
  invoke void @_ZNK4cvc58internal5NullCcvNS0_11Cvc5ostreamEEv(ptr sret(%"class.cvc5::internal::Cvc5ostream") align 8 %tmp589, ptr noundef nonnull align 1 dereferenceable(1) @_ZN4cvc58internal10nullStreamE)
          to label %invoke.cont590 unwind label %lpad455

invoke.cont590:                                   ; preds = %cond.true588
  br label %cond.end597

cond.false591:                                    ; preds = %invoke.cont586
  invoke void @_ZNK4cvc58internal6TraceCclEv(ptr sret(%"class.cvc5::internal::Cvc5ostream") align 8 %ref.tmp593, ptr noundef nonnull align 8 dereferenceable(32) @_ZN4cvc58internal12TraceChannelE)
          to label %invoke.cont594 unwind label %lpad455

invoke.cont594:                                   ; preds = %cond.false591
  %call596 = invoke noundef nonnull align 8 dereferenceable(24) ptr @_ZN4cvc58internal11Cvc5ostreamlsEPFRS1_S2_E(ptr noundef nonnull align 8 dereferenceable(24) %ref.tmp593, ptr noundef @_ZN4cvc58internal3popERNS0_11Cvc5ostreamE)
          to label %invoke.cont595 unwind label %lpad455

invoke.cont595:                                   ; preds = %invoke.cont594
  call void @llvm.memcpy.p0.p0.i64(ptr align 8 %agg.tmp.ensured592, ptr align 8 %call596, i64 24, i1 false)
  br label %cond.end597

cond.end597:                                      ; preds = %invoke.cont595, %invoke.cont590
  %call599 = invoke noundef zeroext i1 @_ZNK4cvc58internal12NodeTemplateILb1EE6isNullEv(ptr noundef nonnull align 8 dereferenceable(8) %curr_val)
          to label %invoke.cont598 unwind label %lpad455

invoke.cont598:                                   ; preds = %cond.end597
  br i1 %call599, label %if.then600, label %if.end617

if.then600:                                       ; preds = %invoke.cont598
  %call603 = invoke noundef zeroext i1 @_ZN4cvc58internal11__cvc5_truecvbEv(ptr noundef nonnull align 1 dereferenceable(1) %ref.tmp601)
          to label %invoke.cont602 unwind label %lpad455

invoke.cont602:                                   ; preds = %if.then600
  br i1 %call603, label %cond.true604, label %cond.false607

cond.true604:                                     ; preds = %invoke.cont602
  invoke void @_ZNK4cvc58internal5NullCcvNS0_11Cvc5ostreamEEv(ptr sret(%"class.cvc5::internal::Cvc5ostream") align 8 %tmp605, ptr noundef nonnull align 1 dereferenceable(1) @_ZN4cvc58internal10nullStreamE)
          to label %invoke.cont606 unwind label %lpad455

invoke.cont606:                                   ; preds = %cond.true604
  br label %cond.end615

cond.false607:                                    ; preds = %invoke.cont602
  invoke void @_ZNK4cvc58internal6TraceCclEv(ptr sret(%"class.cvc5::internal::Cvc5ostream") align 8 %ref.tmp609, ptr noundef nonnull align 8 dereferenceable(32) @_ZN4cvc58internal12TraceChannelE)
          to label %invoke.cont610 unwind label %lpad455

invoke.cont610:                                   ; preds = %cond.false607
  %call612 = invoke noundef nonnull align 8 dereferenceable(24) ptr @_ZN4cvc58internal11Cvc5ostreamlsIA39_cEERS1_RKT_(ptr noundef nonnull align 8 dereferenceable(24) %ref.tmp609, ptr noundef nonnull align 1 dereferenceable(39) @.str.18)
          to label %invoke.cont611 unwind label %lpad455

invoke.cont611:                                   ; preds = %invoke.cont610
  %call614 = invoke noundef nonnull align 8 dereferenceable(24) ptr @_ZN4cvc58internal11Cvc5ostreamlsEPFRSoS2_E(ptr noundef nonnull align 8 dereferenceable(24) %call612, ptr noundef @_ZSt4endlIcSt11char_traitsIcEERSt13basic_ostreamIT_T0_ES6_)
          to label %invoke.cont613 unwind label %lpad455

invoke.cont613:                                   ; preds = %invoke.cont611
  call void @llvm.memcpy.p0.p0.i64(ptr align 8 %agg.tmp.ensured608, ptr align 8 %call614, i64 24, i1 false)
  br label %cond.end615

cond.end615:                                      ; preds = %invoke.cont613, %invoke.cont606
  invoke void @_ZN4cvc58internal12NodeTemplateILb1EE4nullEv(ptr sret(%"class.cvc5::internal::NodeTemplate") align 8 %agg.result)
          to label %invoke.cont616 unwind label %lpad455

invoke.cont616:                                   ; preds = %cond.end615
  store i32 1, ptr %cleanup.dest.slot, align 4
  br label %cleanup680

lpad522:                                          ; preds = %invoke.cont520
  %160 = landingpad { ptr, i32 }
          cleanup
  %161 = extractvalue { ptr, i32 } %160, 0
  store ptr %161, ptr %exn.slot, align 8
  %162 = extractvalue { ptr, i32 } %160, 1
  store i32 %162, ptr %ehselector.slot, align 4
  br label %ehcleanup531

lpad524:                                          ; preds = %invoke.cont523
  %163 = landingpad { ptr, i32 }
          cleanup
  %164 = extractvalue { ptr, i32 } %163, 0
  store ptr %164, ptr %exn.slot, align 8
  %165 = extractvalue { ptr, i32 } %163, 1
  store i32 %165, ptr %ehselector.slot, align 4
  br label %ehcleanup530

lpad526:                                          ; preds = %invoke.cont525
  %166 = landingpad { ptr, i32 }
          cleanup
  %167 = extractvalue { ptr, i32 } %166, 0
  store ptr %167, ptr %exn.slot, align 8
  %168 = extractvalue { ptr, i32 } %166, 1
  store i32 %168, ptr %ehselector.slot, align 4
  call void @_ZN4cvc58internal12NodeTemplateILb1EED2Ev(ptr noundef nonnull align 8 dereferenceable(8) %ref.tmp518) #3
  br label %ehcleanup530

ehcleanup530:                                     ; preds = %lpad526, %lpad524
  call void @_ZN4cvc58internal12NodeTemplateILb0EED2Ev(ptr noundef nonnull align 8 dereferenceable(8) %agg.tmp521) #3
  br label %ehcleanup531

ehcleanup531:                                     ; preds = %ehcleanup530, %lpad522
  call void @_ZN4cvc58internal12NodeTemplateILb0EED2Ev(ptr noundef nonnull align 8 dereferenceable(8) %agg.tmp519) #3
  br label %ehcleanup681

lpad562:                                          ; preds = %invoke.cont560
  %169 = landingpad { ptr, i32 }
          cleanup
  %170 = extractvalue { ptr, i32 } %169, 0
  store ptr %170, ptr %exn.slot, align 8
  %171 = extractvalue { ptr, i32 } %169, 1
  store i32 %171, ptr %ehselector.slot, align 4
  br label %ehcleanup571

lpad564:                                          ; preds = %invoke.cont563
  %172 = landingpad { ptr, i32 }
          cleanup
  %173 = extractvalue { ptr, i32 } %172, 0
  store ptr %173, ptr %exn.slot, align 8
  %174 = extractvalue { ptr, i32 } %172, 1
  store i32 %174, ptr %ehselector.slot, align 4
  br label %ehcleanup570

lpad566:                                          ; preds = %invoke.cont565
  %175 = landingpad { ptr, i32 }
          cleanup
  %176 = extractvalue { ptr, i32 } %175, 0
  store ptr %176, ptr %exn.slot, align 8
  %177 = extractvalue { ptr, i32 } %175, 1
  store i32 %177, ptr %ehselector.slot, align 4
  call void @_ZN4cvc58internal12NodeTemplateILb1EED2Ev(ptr noundef nonnull align 8 dereferenceable(8) %ref.tmp558) #3
  br label %ehcleanup570

ehcleanup570:                                     ; preds = %lpad566, %lpad564
  call void @_ZN4cvc58internal8TypeNodeD2Ev(ptr noundef nonnull align 8 dereferenceable(8) %agg.tmp561) #3
  br label %ehcleanup571

ehcleanup571:                                     ; preds = %ehcleanup570, %lpad562
  call void @_ZN4cvc58internal12NodeTemplateILb0EED2Ev(ptr noundef nonnull align 8 dereferenceable(8) %agg.tmp559) #3
  br label %ehcleanup681

if.end617:                                        ; preds = %invoke.cont598
  br label %if.end618

if.end618:                                        ; preds = %if.end617, %invoke.cont515
  %call621 = invoke noundef zeroext i1 @_ZN4cvc58internal11__cvc5_truecvbEv(ptr noundef nonnull align 1 dereferenceable(1) %ref.tmp619)
          to label %invoke.cont620 unwind label %lpad455

invoke.cont620:                                   ; preds = %if.end618
  br i1 %call621, label %cond.true622, label %cond.false625

cond.true622:                                     ; preds = %invoke.cont620
  invoke void @_ZNK4cvc58internal5NullCcvNS0_11Cvc5ostreamEEv(ptr sret(%"class.cvc5::internal::Cvc5ostream") align 8 %tmp623, ptr noundef nonnull align 1 dereferenceable(1) @_ZN4cvc58internal10nullStreamE)
          to label %invoke.cont624 unwind label %lpad455

invoke.cont624:                                   ; preds = %cond.true622
  br label %cond.end635

cond.false625:                                    ; preds = %invoke.cont620
  invoke void @_ZNK4cvc58internal6TraceCclEv(ptr sret(%"class.cvc5::internal::Cvc5ostream") align 8 %ref.tmp627, ptr noundef nonnull align 8 dereferenceable(32) @_ZN4cvc58internal12TraceChannelE)
          to label %invoke.cont628 unwind label %lpad455

invoke.cont628:                                   ; preds = %cond.false625
  %call630 = invoke noundef nonnull align 8 dereferenceable(24) ptr @_ZN4cvc58internal11Cvc5ostreamlsIA25_cEERS1_RKT_(ptr noundef nonnull align 8 dereferenceable(24) %ref.tmp627, ptr noundef nonnull align 1 dereferenceable(25) @.str.19)
          to label %invoke.cont629 unwind label %lpad455

invoke.cont629:                                   ; preds = %invoke.cont628
  %call632 = invoke noundef nonnull align 8 dereferenceable(24) ptr @_ZN4cvc58internal11Cvc5ostreamlsINS0_12NodeTemplateILb1EEEEERS1_RKT_(ptr noundef nonnull align 8 dereferenceable(24) %call630, ptr noundef nonnull align 8 dereferenceable(8) %curr_val)
          to label %invoke.cont631 unwind label %lpad455

invoke.cont631:                                   ; preds = %invoke.cont629
  %call634 = invoke noundef nonnull align 8 dereferenceable(24) ptr @_ZN4cvc58internal11Cvc5ostreamlsEPFRSoS2_E(ptr noundef nonnull align 8 dereferenceable(24) %call632, ptr noundef @_ZSt4endlIcSt11char_traitsIcEERSt13basic_ostreamIT_T0_ES6_)
          to label %invoke.cont633 unwind label %lpad455

invoke.cont633:                                   ; preds = %invoke.cont631
  call void @llvm.memcpy.p0.p0.i64(ptr align 8 %agg.tmp.ensured626, ptr align 8 %call634, i64 24, i1 false)
  br label %cond.end635

cond.end635:                                      ; preds = %invoke.cont633, %invoke.cont624
  %call637 = invoke noundef zeroext i1 @_ZNK4cvc58internal12NodeTemplateILb1EE7isConstEv(ptr noundef nonnull align 8 dereferenceable(8) %curr_index)
          to label %invoke.cont636 unwind label %lpad455

invoke.cont636:                                   ; preds = %cond.end635
  br i1 %call637, label %lor.lhs.false638, label %if.then641

lor.lhs.false638:                                 ; preds = %invoke.cont636
  %call640 = invoke noundef zeroext i1 @_ZNK4cvc58internal12NodeTemplateILb1EE7isConstEv(ptr noundef nonnull align 8 dereferenceable(8) %curr_val)
          to label %invoke.cont639 unwind label %lpad455

invoke.cont639:                                   ; preds = %lor.lhs.false638
  br i1 %call640, label %if.end656, label %if.then641

if.then641:                                       ; preds = %invoke.cont639, %invoke.cont636
  %call644 = invoke noundef zeroext i1 @_ZN4cvc58internal11__cvc5_truecvbEv(ptr noundef nonnull align 1 dereferenceable(1) %ref.tmp642)
          to label %invoke.cont643 unwind label %lpad455

invoke.cont643:                                   ; preds = %if.then641
  br i1 %call644, label %cond.true645, label %cond.false648

cond.true645:                                     ; preds = %invoke.cont643
  invoke void @_ZNK4cvc58internal5NullCcvNS0_11Cvc5ostreamEEv(ptr sret(%"class.cvc5::internal::Cvc5ostream") align 8 %tmp646, ptr noundef nonnull align 1 dereferenceable(1) @_ZN4cvc58internal10nullStreamE)
          to label %invoke.cont647 unwind label %lpad455

invoke.cont647:                                   ; preds = %cond.true645
  br label %cond.end654

cond.false648:                                    ; preds = %invoke.cont643
  invoke void @_ZNK4cvc58internal6TraceCclEv(ptr sret(%"class.cvc5::internal::Cvc5ostream") align 8 %ref.tmp650, ptr noundef nonnull align 8 dereferenceable(32) @_ZN4cvc58internal12TraceChannelE)
          to label %invoke.cont651 unwind label %lpad455

invoke.cont651:                                   ; preds = %cond.false648
  %call653 = invoke noundef nonnull align 8 dereferenceable(24) ptr @_ZN4cvc58internal11Cvc5ostreamlsIA36_cEERS1_RKT_(ptr noundef nonnull align 8 dereferenceable(24) %ref.tmp650, ptr noundef nonnull align 1 dereferenceable(36) @.str.20)
          to label %invoke.cont652 unwind label %lpad455

invoke.cont652:                                   ; preds = %invoke.cont651
  call void @llvm.memcpy.p0.p0.i64(ptr align 8 %agg.tmp.ensured649, ptr align 8 %call653, i64 24, i1 false)
  br label %cond.end654

cond.end654:                                      ; preds = %invoke.cont652, %invoke.cont647
  invoke void @_ZN4cvc58internal12NodeTemplateILb1EE4nullEv(ptr sret(%"class.cvc5::internal::NodeTemplate") align 8 %agg.result)
          to label %invoke.cont655 unwind label %lpad455

invoke.cont655:                                   ; preds = %cond.end654
  store i32 1, ptr %cleanup.dest.slot, align 4
  br label %cleanup680

if.end656:                                        ; preds = %invoke.cont639
  invoke void @_ZNSt6vectorIN4cvc58internal12NodeTemplateILb1EEESaIS3_EE9push_backERKS3_(ptr noundef nonnull align 8 dereferenceable(24) %conds, ptr noundef nonnull align 8 dereferenceable(8) %curr_index)
          to label %invoke.cont657 unwind label %lpad455

invoke.cont657:                                   ; preds = %if.end656
  invoke void @_ZNSt6vectorIN4cvc58internal12NodeTemplateILb1EEESaIS3_EE9push_backERKS3_(ptr noundef nonnull align 8 dereferenceable(24) %vals, ptr noundef nonnull align 8 dereferenceable(8) %curr_val)
          to label %invoke.cont658 unwind label %lpad455

invoke.cont658:                                   ; preds = %invoke.cont657
  %call660 = invoke noundef nonnull align 8 dereferenceable(8) ptr @_ZN4cvc58internal12NodeTemplateILb1EEaSERKS2_(ptr noundef nonnull align 8 dereferenceable(8) %curr, ptr noundef nonnull align 8 dereferenceable(8) %next)
          to label %invoke.cont659 unwind label %lpad455

invoke.cont659:                                   ; preds = %invoke.cont658
  %call662 = invoke noundef i32 @_ZNK4cvc58internal12NodeTemplateILb1EE7getKindEv(ptr noundef nonnull align 8 dereferenceable(8) %curr)
          to label %invoke.cont661 unwind label %lpad455

invoke.cont661:                                   ; preds = %invoke.cont659
  store i32 %call662, ptr %ck, align 4
  %call665 = invoke noundef zeroext i1 @_ZN4cvc58internal11__cvc5_truecvbEv(ptr noundef nonnull align 1 dereferenceable(1) %ref.tmp663)
          to label %invoke.cont664 unwind label %lpad455

invoke.cont664:                                   ; preds = %invoke.cont661
  br i1 %call665, label %cond.true666, label %cond.false669

cond.true666:                                     ; preds = %invoke.cont664
  invoke void @_ZNK4cvc58internal5NullCcvNS0_11Cvc5ostreamEEv(ptr sret(%"class.cvc5::internal::Cvc5ostream") align 8 %tmp667, ptr noundef nonnull align 1 dereferenceable(1) @_ZN4cvc58internal10nullStreamE)
          to label %invoke.cont668 unwind label %lpad455

invoke.cont668:                                   ; preds = %cond.true666
  br label %cond.end679

cond.false669:                                    ; preds = %invoke.cont664
  invoke void @_ZNK4cvc58internal6TraceCclEv(ptr sret(%"class.cvc5::internal::Cvc5ostream") align 8 %ref.tmp671, ptr noundef nonnull align 8 dereferenceable(32) @_ZN4cvc58internal12TraceChannelE)
          to label %invoke.cont672 unwind label %lpad455

invoke.cont672:                                   ; preds = %cond.false669
  %call674 = invoke noundef nonnull align 8 dereferenceable(24) ptr @_ZN4cvc58internal11Cvc5ostreamlsIA23_cEERS1_RKT_(ptr noundef nonnull align 8 dereferenceable(24) %ref.tmp671, ptr noundef nonnull align 1 dereferenceable(23) @.str.21)
          to label %invoke.cont673 unwind label %lpad455

invoke.cont673:                                   ; preds = %invoke.cont672
  %call676 = invoke noundef nonnull align 8 dereferenceable(24) ptr @_ZN4cvc58internal11Cvc5ostreamlsINS0_12NodeTemplateILb1EEEEERS1_RKT_(ptr noundef nonnull align 8 dereferenceable(24) %call674, ptr noundef nonnull align 8 dereferenceable(8) %curr)
          to label %invoke.cont675 unwind label %lpad455

invoke.cont675:                                   ; preds = %invoke.cont673
  %call678 = invoke noundef nonnull align 8 dereferenceable(24) ptr @_ZN4cvc58internal11Cvc5ostreamlsEPFRSoS2_E(ptr noundef nonnull align 8 dereferenceable(24) %call676, ptr noundef @_ZSt4endlIcSt11char_traitsIcEERSt13basic_ostreamIT_T0_ES6_)
          to label %invoke.cont677 unwind label %lpad455

invoke.cont677:                                   ; preds = %invoke.cont675
  call void @llvm.memcpy.p0.p0.i64(ptr align 8 %agg.tmp.ensured670, ptr align 8 %call678, i64 24, i1 false)
  br label %cond.end679

cond.end679:                                      ; preds = %invoke.cont677, %invoke.cont668
  store i32 0, ptr %cleanup.dest.slot, align 4
  br label %cleanup680

cleanup680:                                       ; preds = %cond.end679, %invoke.cont655, %invoke.cont616, %cond.end513
  call void @_ZN4cvc58internal12NodeTemplateILb1EED2Ev(ptr noundef nonnull align 8 dereferenceable(8) %curr_index) #3
  br label %cleanup682

cleanup682:                                       ; preds = %cleanup680, %cleanup446, %cleanup
  call void @_ZN4cvc58internal12NodeTemplateILb1EED2Ev(ptr noundef nonnull align 8 dereferenceable(8) %next) #3
  call void @_ZN4cvc58internal12NodeTemplateILb1EED2Ev(ptr noundef nonnull align 8 dereferenceable(8) %curr_val) #3
  call void @_ZN4cvc58internal12NodeTemplateILb1EED2Ev(ptr noundef nonnull align 8 dereferenceable(8) %index_eq) #3
  %cleanup.dest687 = load i32, ptr %cleanup.dest.slot, align 4
  switch i32 %cleanup.dest687, label %cleanup1007 [
    i32 0, label %cleanup.cont688
    i32 6, label %while.end
  ]

cleanup.cont688:                                  ; preds = %cleanup682
  br label %while.cond, !llvm.loop !15

ehcleanup681:                                     ; preds = %ehcleanup571, %ehcleanup531, %ehcleanup492, %lpad455
  call void @_ZN4cvc58internal12NodeTemplateILb1EED2Ev(ptr noundef nonnull align 8 dereferenceable(8) %curr_index) #3
  br label %ehcleanup683

ehcleanup683:                                     ; preds = %ehcleanup681, %ehcleanup449, %lpad367, %lpad357, %lpad351, %ehcleanup322, %cleanup.done178, %lpad147, %lpad120, %lpad114, %lpad108, %cleanup.done105, %lpad82
  call void @_ZN4cvc58internal12NodeTemplateILb1EED2Ev(ptr noundef nonnull align 8 dereferenceable(8) %next) #3
  br label %ehcleanup685

ehcleanup685:                                     ; preds = %ehcleanup683, %lpad77
  call void @_ZN4cvc58internal12NodeTemplateILb1EED2Ev(ptr noundef nonnull align 8 dereferenceable(8) %curr_val) #3
  br label %ehcleanup689

ehcleanup689:                                     ; preds = %ehcleanup685, %lpad75
  call void @_ZN4cvc58internal12NodeTemplateILb1EED2Ev(ptr noundef nonnull align 8 dereferenceable(8) %index_eq) #3
  br label %ehcleanup1008

while.end:                                        ; preds = %cleanup682, %lor.end
  %call691 = invoke noundef zeroext i1 @_ZNK4cvc58internal12NodeTemplateILb1EE6isNullEv(ptr noundef nonnull align 8 dereferenceable(8) %rec_bvl)
          to label %invoke.cont690 unwind label %lpad62

invoke.cont690:                                   ; preds = %while.end
  br i1 %call691, label %if.end773, label %if.then692

if.then692:                                       ; preds = %invoke.cont690
  %178 = load ptr, ptr %nm, align 8
  invoke void @_ZN4cvc58internal12NodeTemplateILb0EEC2ERKNS1_ILb1EEE(ptr noundef nonnull align 8 dereferenceable(8) %agg.tmp694, ptr noundef nonnull align 8 dereferenceable(8) %rec_bvl)
          to label %invoke.cont695 unwind label %lpad62

invoke.cont695:                                   ; preds = %if.then692
  invoke void @_ZN4cvc58internal12NodeTemplateILb0EEC2ERKNS1_ILb1EEE(ptr noundef nonnull align 8 dereferenceable(8) %agg.tmp696, ptr noundef nonnull align 8 dereferenceable(8) %curr)
          to label %invoke.cont698 unwind label %lpad697

invoke.cont698:                                   ; preds = %invoke.cont695
  invoke void @_ZN4cvc58internal11NodeManager6mkNodeENS0_4kind6Kind_tENS0_12NodeTemplateILb0EEES5_(ptr sret(%"class.cvc5::internal::NodeTemplate") align 8 %ref.tmp693, ptr noundef nonnull align 8 dereferenceable(3360) %178, i32 noundef 26, ptr noundef %agg.tmp694, ptr noundef %agg.tmp696)
          to label %invoke.cont700 unwind label %lpad699

invoke.cont700:                                   ; preds = %invoke.cont698
  %call703 = invoke noundef nonnull align 8 dereferenceable(8) ptr @_ZN4cvc58internal12NodeTemplateILb1EEaSERKS2_(ptr noundef nonnull align 8 dereferenceable(8) %curr, ptr noundef nonnull align 8 dereferenceable(8) %ref.tmp693)
          to label %invoke.cont702 unwind label %lpad701

invoke.cont702:                                   ; preds = %invoke.cont700
  call void @_ZN4cvc58internal12NodeTemplateILb1EED2Ev(ptr noundef nonnull align 8 dereferenceable(8) %ref.tmp693) #3
  call void @_ZN4cvc58internal12NodeTemplateILb0EED2Ev(ptr noundef nonnull align 8 dereferenceable(8) %agg.tmp696) #3
  call void @_ZN4cvc58internal12NodeTemplateILb0EED2Ev(ptr noundef nonnull align 8 dereferenceable(8) %agg.tmp694) #3
  %call709 = invoke noundef zeroext i1 @_ZN4cvc58internal11__cvc5_truecvbEv(ptr noundef nonnull align 1 dereferenceable(1) %ref.tmp707)
          to label %invoke.cont708 unwind label %lpad62

invoke.cont708:                                   ; preds = %invoke.cont702
  br i1 %call709, label %cond.true710, label %cond.false713

cond.true710:                                     ; preds = %invoke.cont708
  invoke void @_ZNK4cvc58internal5NullCcvNS0_11Cvc5ostreamEEv(ptr sret(%"class.cvc5::internal::Cvc5ostream") align 8 %tmp711, ptr noundef nonnull align 1 dereferenceable(1) @_ZN4cvc58internal10nullStreamE)
          to label %invoke.cont712 unwind label %lpad62

invoke.cont712:                                   ; preds = %cond.true710
  br label %cond.end719

cond.false713:                                    ; preds = %invoke.cont708
  invoke void @_ZNK4cvc58internal6TraceCclEv(ptr sret(%"class.cvc5::internal::Cvc5ostream") align 8 %ref.tmp715, ptr noundef nonnull align 8 dereferenceable(32) @_ZN4cvc58internal12TraceChannelE)
          to label %invoke.cont716 unwind label %lpad62

invoke.cont716:                                   ; preds = %cond.false713
  %call718 = invoke noundef nonnull align 8 dereferenceable(24) ptr @_ZN4cvc58internal11Cvc5ostreamlsEPFRS1_S2_E(ptr noundef nonnull align 8 dereferenceable(24) %ref.tmp715, ptr noundef @_ZN4cvc58internal4pushERNS0_11Cvc5ostreamE)
          to label %invoke.cont717 unwind label %lpad62

invoke.cont717:                                   ; preds = %invoke.cont716
  call void @llvm.memcpy.p0.p0.i64(ptr align 8 %agg.tmp.ensured714, ptr align 8 %call718, i64 24, i1 false)
  br label %cond.end719

cond.end719:                                      ; preds = %invoke.cont717, %invoke.cont712
  %call722 = invoke noundef zeroext i1 @_ZN4cvc58internal11__cvc5_truecvbEv(ptr noundef nonnull align 1 dereferenceable(1) %ref.tmp720)
          to label %invoke.cont721 unwind label %lpad62

invoke.cont721:                                   ; preds = %cond.end719
  br i1 %call722, label %cond.true723, label %cond.false726

cond.true723:                                     ; preds = %invoke.cont721
  invoke void @_ZNK4cvc58internal5NullCcvNS0_11Cvc5ostreamEEv(ptr sret(%"class.cvc5::internal::Cvc5ostream") align 8 %tmp724, ptr noundef nonnull align 1 dereferenceable(1) @_ZN4cvc58internal10nullStreamE)
          to label %invoke.cont725 unwind label %lpad62

invoke.cont725:                                   ; preds = %cond.true723
  br label %cond.end732

cond.false726:                                    ; preds = %invoke.cont721
  invoke void @_ZNK4cvc58internal6TraceCclEv(ptr sret(%"class.cvc5::internal::Cvc5ostream") align 8 %ref.tmp728, ptr noundef nonnull align 8 dereferenceable(32) @_ZN4cvc58internal12TraceChannelE)
          to label %invoke.cont729 unwind label %lpad62

invoke.cont729:                                   ; preds = %cond.false726
  %call731 = invoke noundef nonnull align 8 dereferenceable(24) ptr @_ZN4cvc58internal11Cvc5ostreamlsEPFRS1_S2_E(ptr noundef nonnull align 8 dereferenceable(24) %ref.tmp728, ptr noundef @_ZN4cvc58internal4pushERNS0_11Cvc5ostreamE)
          to label %invoke.cont730 unwind label %lpad62

invoke.cont730:                                   ; preds = %invoke.cont729
  call void @llvm.memcpy.p0.p0.i64(ptr align 8 %agg.tmp.ensured727, ptr align 8 %call731, i64 24, i1 false)
  br label %cond.end732

cond.end732:                                      ; preds = %invoke.cont730, %invoke.cont725
  invoke void @_ZN4cvc58internal12NodeTemplateILb0EEC2ERKNS1_ILb1EEE(ptr noundef nonnull align 8 dereferenceable(8) %agg.tmp734, ptr noundef nonnull align 8 dereferenceable(8) %curr)
          to label %invoke.cont735 unwind label %lpad62

invoke.cont735:                                   ; preds = %cond.end732
  invoke void @_ZN4cvc58internal8TypeNodeC2ERKS1_(ptr noundef nonnull align 8 dereferenceable(8) %agg.tmp736, ptr noundef nonnull align 8 dereferenceable(8) %retType)
          to label %invoke.cont738 unwind label %lpad737

invoke.cont738:                                   ; preds = %invoke.cont735
  invoke void @_ZN4cvc58internal6theory2uf13FunctionConst34getArrayRepresentationForLambdaRecENS0_12NodeTemplateILb0EEENS0_8TypeNodeE(ptr sret(%"class.cvc5::internal::NodeTemplate") align 8 %ref.tmp733, ptr noundef %agg.tmp734, ptr noundef %agg.tmp736)
          to label %invoke.cont740 unwind label %lpad739

invoke.cont740:                                   ; preds = %invoke.cont738
  %call743 = invoke noundef nonnull align 8 dereferenceable(8) ptr @_ZN4cvc58internal12NodeTemplateILb1EEaSERKS2_(ptr noundef nonnull align 8 dereferenceable(8) %curr, ptr noundef nonnull align 8 dereferenceable(8) %ref.tmp733)
          to label %invoke.cont742 unwind label %lpad741

invoke.cont742:                                   ; preds = %invoke.cont740
  call void @_ZN4cvc58internal12NodeTemplateILb1EED2Ev(ptr noundef nonnull align 8 dereferenceable(8) %ref.tmp733) #3
  call void @_ZN4cvc58internal8TypeNodeD2Ev(ptr noundef nonnull align 8 dereferenceable(8) %agg.tmp736) #3
  call void @_ZN4cvc58internal12NodeTemplateILb0EED2Ev(ptr noundef nonnull align 8 dereferenceable(8) %agg.tmp734) #3
  %call749 = invoke noundef zeroext i1 @_ZN4cvc58internal11__cvc5_truecvbEv(ptr noundef nonnull align 1 dereferenceable(1) %ref.tmp747)
          to label %invoke.cont748 unwind label %lpad62

invoke.cont748:                                   ; preds = %invoke.cont742
  br i1 %call749, label %cond.true750, label %cond.false753

cond.true750:                                     ; preds = %invoke.cont748
  invoke void @_ZNK4cvc58internal5NullCcvNS0_11Cvc5ostreamEEv(ptr sret(%"class.cvc5::internal::Cvc5ostream") align 8 %tmp751, ptr noundef nonnull align 1 dereferenceable(1) @_ZN4cvc58internal10nullStreamE)
          to label %invoke.cont752 unwind label %lpad62

invoke.cont752:                                   ; preds = %cond.true750
  br label %cond.end759

cond.false753:                                    ; preds = %invoke.cont748
  invoke void @_ZNK4cvc58internal6TraceCclEv(ptr sret(%"class.cvc5::internal::Cvc5ostream") align 8 %ref.tmp755, ptr noundef nonnull align 8 dereferenceable(32) @_ZN4cvc58internal12TraceChannelE)
          to label %invoke.cont756 unwind label %lpad62

invoke.cont756:                                   ; preds = %cond.false753
  %call758 = invoke noundef nonnull align 8 dereferenceable(24) ptr @_ZN4cvc58internal11Cvc5ostreamlsEPFRS1_S2_E(ptr noundef nonnull align 8 dereferenceable(24) %ref.tmp755, ptr noundef @_ZN4cvc58internal3popERNS0_11Cvc5ostreamE)
          to label %invoke.cont757 unwind label %lpad62

invoke.cont757:                                   ; preds = %invoke.cont756
  call void @llvm.memcpy.p0.p0.i64(ptr align 8 %agg.tmp.ensured754, ptr align 8 %call758, i64 24, i1 false)
  br label %cond.end759

cond.end759:                                      ; preds = %invoke.cont757, %invoke.cont752
  %call762 = invoke noundef zeroext i1 @_ZN4cvc58internal11__cvc5_truecvbEv(ptr noundef nonnull align 1 dereferenceable(1) %ref.tmp760)
          to label %invoke.cont761 unwind label %lpad62

invoke.cont761:                                   ; preds = %cond.end759
  br i1 %call762, label %cond.true763, label %cond.false766

cond.true763:                                     ; preds = %invoke.cont761
  invoke void @_ZNK4cvc58internal5NullCcvNS0_11Cvc5ostreamEEv(ptr sret(%"class.cvc5::internal::Cvc5ostream") align 8 %tmp764, ptr noundef nonnull align 1 dereferenceable(1) @_ZN4cvc58internal10nullStreamE)
          to label %invoke.cont765 unwind label %lpad62

invoke.cont765:                                   ; preds = %cond.true763
  br label %cond.end772

cond.false766:                                    ; preds = %invoke.cont761
  invoke void @_ZNK4cvc58internal6TraceCclEv(ptr sret(%"class.cvc5::internal::Cvc5ostream") align 8 %ref.tmp768, ptr noundef nonnull align 8 dereferenceable(32) @_ZN4cvc58internal12TraceChannelE)
          to label %invoke.cont769 unwind label %lpad62

invoke.cont769:                                   ; preds = %cond.false766
  %call771 = invoke noundef nonnull align 8 dereferenceable(24) ptr @_ZN4cvc58internal11Cvc5ostreamlsEPFRS1_S2_E(ptr noundef nonnull align 8 dereferenceable(24) %ref.tmp768, ptr noundef @_ZN4cvc58internal3popERNS0_11Cvc5ostreamE)
          to label %invoke.cont770 unwind label %lpad62

invoke.cont770:                                   ; preds = %invoke.cont769
  call void @llvm.memcpy.p0.p0.i64(ptr align 8 %agg.tmp.ensured767, ptr align 8 %call771, i64 24, i1 false)
  br label %cond.end772

cond.end772:                                      ; preds = %invoke.cont770, %invoke.cont765
  br label %if.end773

lpad697:                                          ; preds = %invoke.cont695
  %179 = landingpad { ptr, i32 }
          cleanup
  %180 = extractvalue { ptr, i32 } %179, 0
  store ptr %180, ptr %exn.slot, align 8
  %181 = extractvalue { ptr, i32 } %179, 1
  store i32 %181, ptr %ehselector.slot, align 4
  br label %ehcleanup706

lpad699:                                          ; preds = %invoke.cont698
  %182 = landingpad { ptr, i32 }
          cleanup
  %183 = extractvalue { ptr, i32 } %182, 0
  store ptr %183, ptr %exn.slot, align 8
  %184 = extractvalue { ptr, i32 } %182, 1
  store i32 %184, ptr %ehselector.slot, align 4
  br label %ehcleanup705

lpad701:                                          ; preds = %invoke.cont700
  %185 = landingpad { ptr, i32 }
          cleanup
  %186 = extractvalue { ptr, i32 } %185, 0
  store ptr %186, ptr %exn.slot, align 8
  %187 = extractvalue { ptr, i32 } %185, 1
  store i32 %187, ptr %ehselector.slot, align 4
  call void @_ZN4cvc58internal12NodeTemplateILb1EED2Ev(ptr noundef nonnull align 8 dereferenceable(8) %ref.tmp693) #3
  br label %ehcleanup705

ehcleanup705:                                     ; preds = %lpad701, %lpad699
  call void @_ZN4cvc58internal12NodeTemplateILb0EED2Ev(ptr noundef nonnull align 8 dereferenceable(8) %agg.tmp696) #3
  br label %ehcleanup706

ehcleanup706:                                     ; preds = %ehcleanup705, %lpad697
  call void @_ZN4cvc58internal12NodeTemplateILb0EED2Ev(ptr noundef nonnull align 8 dereferenceable(8) %agg.tmp694) #3
  br label %ehcleanup1008

lpad737:                                          ; preds = %invoke.cont735
  %188 = landingpad { ptr, i32 }
          cleanup
  %189 = extractvalue { ptr, i32 } %188, 0
  store ptr %189, ptr %exn.slot, align 8
  %190 = extractvalue { ptr, i32 } %188, 1
  store i32 %190, ptr %ehselector.slot, align 4
  br label %ehcleanup746

lpad739:                                          ; preds = %invoke.cont738
  %191 = landingpad { ptr, i32 }
          cleanup
  %192 = extractvalue { ptr, i32 } %191, 0
  store ptr %192, ptr %exn.slot, align 8
  %193 = extractvalue { ptr, i32 } %191, 1
  store i32 %193, ptr %ehselector.slot, align 4
  br label %ehcleanup745

lpad741:                                          ; preds = %invoke.cont740
  %194 = landingpad { ptr, i32 }
          cleanup
  %195 = extractvalue { ptr, i32 } %194, 0
  store ptr %195, ptr %exn.slot, align 8
  %196 = extractvalue { ptr, i32 } %194, 1
  store i32 %196, ptr %ehselector.slot, align 4
  call void @_ZN4cvc58internal12NodeTemplateILb1EED2Ev(ptr noundef nonnull align 8 dereferenceable(8) %ref.tmp733) #3
  br label %ehcleanup745

ehcleanup745:                                     ; preds = %lpad741, %lpad739
  call void @_ZN4cvc58internal8TypeNodeD2Ev(ptr noundef nonnull align 8 dereferenceable(8) %agg.tmp736) #3
  br label %ehcleanup746

ehcleanup746:                                     ; preds = %ehcleanup745, %lpad737
  call void @_ZN4cvc58internal12NodeTemplateILb0EED2Ev(ptr noundef nonnull align 8 dereferenceable(8) %agg.tmp734) #3
  br label %ehcleanup1008

if.end773:                                        ; preds = %cond.end772, %invoke.cont690
  %call775 = invoke noundef zeroext i1 @_ZNK4cvc58internal12NodeTemplateILb1EE6isNullEv(ptr noundef nonnull align 8 dereferenceable(8) %curr)
          to label %invoke.cont774 unwind label %lpad62

invoke.cont774:                                   ; preds = %if.end773
  br i1 %call775, label %if.end990, label %land.lhs.true776

land.lhs.true776:                                 ; preds = %invoke.cont774
  %call778 = invoke noundef zeroext i1 @_ZNK4cvc58internal12NodeTemplateILb1EE7isConstEv(ptr noundef nonnull align 8 dereferenceable(8) %curr)
          to label %invoke.cont777 unwind label %lpad62

invoke.cont777:                                   ; preds = %land.lhs.true776
  br i1 %call778, label %if.then779, label %if.end990

if.then779:                                       ; preds = %invoke.cont777
  invoke void @_ZN4cvc58internal8TypeNodeC2ERKS1_(ptr noundef nonnull align 8 dereferenceable(8) %array_type, ptr noundef nonnull align 8 dereferenceable(8) %retType)
          to label %invoke.cont780 unwind label %lpad62

invoke.cont780:                                   ; preds = %if.then779
  store i64 0, ptr %i781, align 8
  br label %for.cond782

for.cond782:                                      ; preds = %for.inc811, %invoke.cont780
  %197 = load i64, ptr %i781, align 8
  %198 = load i64, ptr %size, align 8
  %cmp783 = icmp ult i64 %197, %198
  br i1 %cmp783, label %for.body784, label %for.end813

for.body784:                                      ; preds = %for.cond782
  %199 = load i64, ptr %size, align 8
  %sub785 = sub i64 %199, 1
  %200 = load i64, ptr %i781, align 8
  %sub786 = sub i64 %sub785, %200
  store i64 %sub786, ptr %index, align 8
  %201 = load ptr, ptr %nm, align 8
  invoke void @_ZNK4cvc58internal12NodeTemplateILb0EEixEi(ptr sret(%"class.cvc5::internal::NodeTemplate.0") align 8 %ref.tmp790, ptr noundef nonnull align 8 dereferenceable(8) %n, i32 noundef 0)
          to label %invoke.cont792 unwind label %lpad791

invoke.cont792:                                   ; preds = %for.body784
  %202 = load i64, ptr %index, align 8
  %conv793 = trunc i64 %202 to i32
  invoke void @_ZNK4cvc58internal12NodeTemplateILb0EEixEi(ptr sret(%"class.cvc5::internal::NodeTemplate.0") align 8 %ref.tmp789, ptr noundef nonnull align 8 dereferenceable(8) %ref.tmp790, i32 noundef %conv793)
          to label %invoke.cont795 unwind label %lpad794

invoke.cont795:                                   ; preds = %invoke.cont792
  invoke void @_ZNK4cvc58internal12NodeTemplateILb0EE7getTypeEb(ptr sret(%"class.cvc5::internal::TypeNode") align 8 %agg.tmp788, ptr noundef nonnull align 8 dereferenceable(8) %ref.tmp789, i1 noundef zeroext false)
          to label %invoke.cont797 unwind label %lpad796

invoke.cont797:                                   ; preds = %invoke.cont795
  invoke void @_ZN4cvc58internal8TypeNodeC2ERKS1_(ptr noundef nonnull align 8 dereferenceable(8) %agg.tmp798, ptr noundef nonnull align 8 dereferenceable(8) %array_type)
          to label %invoke.cont800 unwind label %lpad799

invoke.cont800:                                   ; preds = %invoke.cont797
  invoke void @_ZN4cvc58internal11NodeManager11mkArrayTypeENS0_8TypeNodeES2_(ptr sret(%"class.cvc5::internal::TypeNode") align 8 %ref.tmp787, ptr noundef nonnull align 8 dereferenceable(3360) %201, ptr noundef %agg.tmp788, ptr noundef %agg.tmp798)
          to label %invoke.cont802 unwind label %lpad801

invoke.cont802:                                   ; preds = %invoke.cont800
  %call805 = invoke noundef nonnull align 8 dereferenceable(8) ptr @_ZN4cvc58internal8TypeNodeaSERKS1_(ptr noundef nonnull align 8 dereferenceable(8) %array_type, ptr noundef nonnull align 8 dereferenceable(8) %ref.tmp787)
          to label %invoke.cont804 unwind label %lpad803

invoke.cont804:                                   ; preds = %invoke.cont802
  call void @_ZN4cvc58internal8TypeNodeD2Ev(ptr noundef nonnull align 8 dereferenceable(8) %ref.tmp787) #3
  call void @_ZN4cvc58internal8TypeNodeD2Ev(ptr noundef nonnull align 8 dereferenceable(8) %agg.tmp798) #3
  call void @_ZN4cvc58internal8TypeNodeD2Ev(ptr noundef nonnull align 8 dereferenceable(8) %agg.tmp788) #3
  call void @_ZN4cvc58internal12NodeTemplateILb0EED2Ev(ptr noundef nonnull align 8 dereferenceable(8) %ref.tmp789) #3
  call void @_ZN4cvc58internal12NodeTemplateILb0EED2Ev(ptr noundef nonnull align 8 dereferenceable(8) %ref.tmp790) #3
  br label %for.inc811

for.inc811:                                       ; preds = %invoke.cont804
  %203 = load i64, ptr %i781, align 8
  %inc812 = add i64 %203, 1
  store i64 %inc812, ptr %i781, align 8
  br label %for.cond782, !llvm.loop !16

lpad791:                                          ; preds = %cond.end986, %invoke.cont982, %invoke.cont980, %invoke.cont978, %invoke.cont976, %invoke.cont975, %cond.false972, %cond.true969, %for.end965, %invoke.cont947, %for.body930, %invoke.cont921, %invoke.cont919, %invoke.cont918, %cond.false915, %cond.true912, %cond.end908, %invoke.cont904, %invoke.cont902, %invoke.cont901, %cond.false898, %cond.true895, %cond.end891, %invoke.cont887, %invoke.cont885, %invoke.cont884, %cond.false881, %cond.true878, %cond.end874, %invoke.cont870, %invoke.cont869, %cond.false866, %cond.true863, %invoke.cont856, %cleanup.done845, %invoke.cont824, %invoke.cont823, %cond.false820, %cond.true817, %for.end813, %for.body784
  %204 = landingpad { ptr, i32 }
          cleanup
  %205 = extractvalue { ptr, i32 } %204, 0
  store ptr %205, ptr %exn.slot, align 8
  %206 = extractvalue { ptr, i32 } %204, 1
  store i32 %206, ptr %ehselector.slot, align 4
  br label %ehcleanup989

lpad794:                                          ; preds = %invoke.cont792
  %207 = landingpad { ptr, i32 }
          cleanup
  %208 = extractvalue { ptr, i32 } %207, 0
  store ptr %208, ptr %exn.slot, align 8
  %209 = extractvalue { ptr, i32 } %207, 1
  store i32 %209, ptr %ehselector.slot, align 4
  br label %ehcleanup810

lpad796:                                          ; preds = %invoke.cont795
  %210 = landingpad { ptr, i32 }
          cleanup
  %211 = extractvalue { ptr, i32 } %210, 0
  store ptr %211, ptr %exn.slot, align 8
  %212 = extractvalue { ptr, i32 } %210, 1
  store i32 %212, ptr %ehselector.slot, align 4
  br label %ehcleanup809

lpad799:                                          ; preds = %invoke.cont797
  %213 = landingpad { ptr, i32 }
          cleanup
  %214 = extractvalue { ptr, i32 } %213, 0
  store ptr %214, ptr %exn.slot, align 8
  %215 = extractvalue { ptr, i32 } %213, 1
  store i32 %215, ptr %ehselector.slot, align 4
  br label %ehcleanup808

lpad801:                                          ; preds = %invoke.cont800
  %216 = landingpad { ptr, i32 }
          cleanup
  %217 = extractvalue { ptr, i32 } %216, 0
  store ptr %217, ptr %exn.slot, align 8
  %218 = extractvalue { ptr, i32 } %216, 1
  store i32 %218, ptr %ehselector.slot, align 4
  br label %ehcleanup807

lpad803:                                          ; preds = %invoke.cont802
  %219 = landingpad { ptr, i32 }
          cleanup
  %220 = extractvalue { ptr, i32 } %219, 0
  store ptr %220, ptr %exn.slot, align 8
  %221 = extractvalue { ptr, i32 } %219, 1
  store i32 %221, ptr %ehselector.slot, align 4
  call void @_ZN4cvc58internal8TypeNodeD2Ev(ptr noundef nonnull align 8 dereferenceable(8) %ref.tmp787) #3
  br label %ehcleanup807

ehcleanup807:                                     ; preds = %lpad803, %lpad801
  call void @_ZN4cvc58internal8TypeNodeD2Ev(ptr noundef nonnull align 8 dereferenceable(8) %agg.tmp798) #3
  br label %ehcleanup808

ehcleanup808:                                     ; preds = %ehcleanup807, %lpad799
  call void @_ZN4cvc58internal8TypeNodeD2Ev(ptr noundef nonnull align 8 dereferenceable(8) %agg.tmp788) #3
  br label %ehcleanup809

ehcleanup809:                                     ; preds = %ehcleanup808, %lpad796
  call void @_ZN4cvc58internal12NodeTemplateILb0EED2Ev(ptr noundef nonnull align 8 dereferenceable(8) %ref.tmp789) #3
  br label %ehcleanup810

ehcleanup810:                                     ; preds = %ehcleanup809, %lpad794
  call void @_ZN4cvc58internal12NodeTemplateILb0EED2Ev(ptr noundef nonnull align 8 dereferenceable(8) %ref.tmp790) #3
  br label %ehcleanup989

for.end813:                                       ; preds = %for.cond782
  store i1 false, ptr %cleanup.cond828, align 1
  %call816 = invoke noundef zeroext i1 @_ZN4cvc58internal11__cvc5_truecvbEv(ptr noundef nonnull align 1 dereferenceable(1) %ref.tmp814)
          to label %invoke.cont815 unwind label %lpad791

invoke.cont815:                                   ; preds = %for.end813
  br i1 %call816, label %cond.true817, label %cond.false820

cond.true817:                                     ; preds = %invoke.cont815
  invoke void @_ZNK4cvc58internal5NullCcvNS0_11Cvc5ostreamEEv(ptr sret(%"class.cvc5::internal::Cvc5ostream") align 8 %tmp818, ptr noundef nonnull align 1 dereferenceable(1) @_ZN4cvc58internal10nullStreamE)
          to label %invoke.cont819 unwind label %lpad791

invoke.cont819:                                   ; preds = %cond.true817
  br label %cond.end842

cond.false820:                                    ; preds = %invoke.cont815
  invoke void @_ZNK4cvc58internal6TraceCclEv(ptr sret(%"class.cvc5::internal::Cvc5ostream") align 8 %ref.tmp822, ptr noundef nonnull align 8 dereferenceable(32) @_ZN4cvc58internal12TraceChannelE)
          to label %invoke.cont823 unwind label %lpad791

invoke.cont823:                                   ; preds = %cond.false820
  %call825 = invoke noundef nonnull align 8 dereferenceable(24) ptr @_ZN4cvc58internal11Cvc5ostreamlsIA24_cEERS1_RKT_(ptr noundef nonnull align 8 dereferenceable(24) %ref.tmp822, ptr noundef nonnull align 1 dereferenceable(24) @.str.22)
          to label %invoke.cont824 unwind label %lpad791

invoke.cont824:                                   ; preds = %invoke.cont823
  invoke void @_ZNK4cvc58internal12NodeTemplateILb1EE7getTypeEb(ptr sret(%"class.cvc5::internal::TypeNode") align 8 %ref.tmp826, ptr noundef nonnull align 8 dereferenceable(8) %curr, i1 noundef zeroext false)
          to label %invoke.cont827 unwind label %lpad791

invoke.cont827:                                   ; preds = %invoke.cont824
  store i1 true, ptr %cleanup.cond828, align 1
  %call831 = invoke noundef nonnull align 8 dereferenceable(24) ptr @_ZN4cvc58internal11Cvc5ostreamlsINS0_8TypeNodeEEERS1_RKT_(ptr noundef nonnull align 8 dereferenceable(24) %call825, ptr noundef nonnull align 8 dereferenceable(8) %ref.tmp826)
          to label %invoke.cont830 unwind label %lpad829

invoke.cont830:                                   ; preds = %invoke.cont827
  %call833 = invoke noundef nonnull align 8 dereferenceable(24) ptr @_ZN4cvc58internal11Cvc5ostreamlsIA14_cEERS1_RKT_(ptr noundef nonnull align 8 dereferenceable(24) %call831, ptr noundef nonnull align 1 dereferenceable(14) @.str.23)
          to label %invoke.cont832 unwind label %lpad829

invoke.cont832:                                   ; preds = %invoke.cont830
  %call835 = invoke noundef nonnull align 8 dereferenceable(24) ptr @_ZN4cvc58internal11Cvc5ostreamlsINS0_8TypeNodeEEERS1_RKT_(ptr noundef nonnull align 8 dereferenceable(24) %call833, ptr noundef nonnull align 8 dereferenceable(8) %array_type)
          to label %invoke.cont834 unwind label %lpad829

invoke.cont834:                                   ; preds = %invoke.cont832
  %call837 = invoke noundef nonnull align 8 dereferenceable(24) ptr @_ZN4cvc58internal11Cvc5ostreamlsIA7_cEERS1_RKT_(ptr noundef nonnull align 8 dereferenceable(24) %call835, ptr noundef nonnull align 1 dereferenceable(7) @.str.24)
          to label %invoke.cont836 unwind label %lpad829

invoke.cont836:                                   ; preds = %invoke.cont834
  %call839 = invoke noundef nonnull align 8 dereferenceable(24) ptr @_ZN4cvc58internal11Cvc5ostreamlsINS0_12NodeTemplateILb1EEEEERS1_RKT_(ptr noundef nonnull align 8 dereferenceable(24) %call837, ptr noundef nonnull align 8 dereferenceable(8) %curr)
          to label %invoke.cont838 unwind label %lpad829

invoke.cont838:                                   ; preds = %invoke.cont836
  %call841 = invoke noundef nonnull align 8 dereferenceable(24) ptr @_ZN4cvc58internal11Cvc5ostreamlsEPFRSoS2_E(ptr noundef nonnull align 8 dereferenceable(24) %call839, ptr noundef @_ZSt4endlIcSt11char_traitsIcEERSt13basic_ostreamIT_T0_ES6_)
          to label %invoke.cont840 unwind label %lpad829

invoke.cont840:                                   ; preds = %invoke.cont838
  call void @llvm.memcpy.p0.p0.i64(ptr align 8 %agg.tmp.ensured821, ptr align 8 %call841, i64 24, i1 false)
  br label %cond.end842

cond.end842:                                      ; preds = %invoke.cont840, %invoke.cont819
  %cleanup.is_active843 = load i1, ptr %cleanup.cond828, align 1
  br i1 %cleanup.is_active843, label %cleanup.action844, label %cleanup.done845

cleanup.action844:                                ; preds = %cond.end842
  call void @_ZN4cvc58internal8TypeNodeD2Ev(ptr noundef nonnull align 8 dereferenceable(8) %ref.tmp826) #3
  br label %cleanup.done845

cleanup.done845:                                  ; preds = %cleanup.action844, %cond.end842
  %222 = load ptr, ptr %nm, align 8
  invoke void @_ZN4cvc58internal13ArrayStoreAllC1ERKNS0_8TypeNodeERKNS0_12NodeTemplateILb1EEE(ptr noundef nonnull align 8 dereferenceable(16) %ref.tmp851, ptr noundef nonnull align 8 dereferenceable(8) %array_type, ptr noundef nonnull align 8 dereferenceable(8) %curr)
          to label %invoke.cont852 unwind label %lpad791

invoke.cont852:                                   ; preds = %cleanup.done845
  invoke void @_ZN4cvc58internal11NodeManager7mkConstINS0_13ArrayStoreAllEEENS0_12NodeTemplateILb1EEERKT_(ptr sret(%"class.cvc5::internal::NodeTemplate") align 8 %ref.tmp850, ptr noundef nonnull align 8 dereferenceable(3360) %222, ptr noundef nonnull align 8 dereferenceable(16) %ref.tmp851)
          to label %invoke.cont854 unwind label %lpad853

invoke.cont854:                                   ; preds = %invoke.cont852
  %call857 = invoke noundef nonnull align 8 dereferenceable(8) ptr @_ZN4cvc58internal12NodeTemplateILb1EEaSERKS2_(ptr noundef nonnull align 8 dereferenceable(8) %curr, ptr noundef nonnull align 8 dereferenceable(8) %ref.tmp850)
          to label %invoke.cont856 unwind label %lpad855

invoke.cont856:                                   ; preds = %invoke.cont854
  call void @_ZN4cvc58internal12NodeTemplateILb1EED2Ev(ptr noundef nonnull align 8 dereferenceable(8) %ref.tmp850) #3
  call void @_ZN4cvc58internal13ArrayStoreAllD1Ev(ptr noundef nonnull align 8 dereferenceable(16) %ref.tmp851) #3
  %call862 = invoke noundef zeroext i1 @_ZN4cvc58internal11__cvc5_truecvbEv(ptr noundef nonnull align 1 dereferenceable(1) %ref.tmp860)
          to label %invoke.cont861 unwind label %lpad791

invoke.cont861:                                   ; preds = %invoke.cont856
  br i1 %call862, label %cond.true863, label %cond.false866

cond.true863:                                     ; preds = %invoke.cont861
  invoke void @_ZNK4cvc58internal5NullCcvNS0_11Cvc5ostreamEEv(ptr sret(%"class.cvc5::internal::Cvc5ostream") align 8 %tmp864, ptr noundef nonnull align 1 dereferenceable(1) @_ZN4cvc58internal10nullStreamE)
          to label %invoke.cont865 unwind label %lpad791

invoke.cont865:                                   ; preds = %cond.true863
  br label %cond.end874

cond.false866:                                    ; preds = %invoke.cont861
  invoke void @_ZNK4cvc58internal6TraceCclEv(ptr sret(%"class.cvc5::internal::Cvc5ostream") align 8 %ref.tmp868, ptr noundef nonnull align 8 dereferenceable(32) @_ZN4cvc58internal12TraceChannelE)
          to label %invoke.cont869 unwind label %lpad791

invoke.cont869:                                   ; preds = %cond.false866
  %call871 = invoke noundef nonnull align 8 dereferenceable(24) ptr @_ZN4cvc58internal11Cvc5ostreamlsIA17_cEERS1_RKT_(ptr noundef nonnull align 8 dereferenceable(24) %ref.tmp868, ptr noundef nonnull align 1 dereferenceable(17) @.str.25)
          to label %invoke.cont870 unwind label %lpad791

invoke.cont870:                                   ; preds = %invoke.cont869
  %call873 = invoke noundef nonnull align 8 dereferenceable(24) ptr @_ZN4cvc58internal11Cvc5ostreamlsEPFRSoS2_E(ptr noundef nonnull align 8 dereferenceable(24) %call871, ptr noundef @_ZSt4endlIcSt11char_traitsIcEERSt13basic_ostreamIT_T0_ES6_)
          to label %invoke.cont872 unwind label %lpad791

invoke.cont872:                                   ; preds = %invoke.cont870
  call void @llvm.memcpy.p0.p0.i64(ptr align 8 %agg.tmp.ensured867, ptr align 8 %call873, i64 24, i1 false)
  br label %cond.end874

cond.end874:                                      ; preds = %invoke.cont872, %invoke.cont865
  %call877 = invoke noundef zeroext i1 @_ZN4cvc58internal11__cvc5_truecvbEv(ptr noundef nonnull align 1 dereferenceable(1) %ref.tmp875)
          to label %invoke.cont876 unwind label %lpad791

invoke.cont876:                                   ; preds = %cond.end874
  br i1 %call877, label %cond.true878, label %cond.false881

cond.true878:                                     ; preds = %invoke.cont876
  invoke void @_ZNK4cvc58internal5NullCcvNS0_11Cvc5ostreamEEv(ptr sret(%"class.cvc5::internal::Cvc5ostream") align 8 %tmp879, ptr noundef nonnull align 1 dereferenceable(1) @_ZN4cvc58internal10nullStreamE)
          to label %invoke.cont880 unwind label %lpad791

invoke.cont880:                                   ; preds = %cond.true878
  br label %cond.end891

cond.false881:                                    ; preds = %invoke.cont876
  invoke void @_ZNK4cvc58internal6TraceCclEv(ptr sret(%"class.cvc5::internal::Cvc5ostream") align 8 %ref.tmp883, ptr noundef nonnull align 8 dereferenceable(32) @_ZN4cvc58internal12TraceChannelE)
          to label %invoke.cont884 unwind label %lpad791

invoke.cont884:                                   ; preds = %cond.false881
  %call886 = invoke noundef nonnull align 8 dereferenceable(24) ptr @_ZN4cvc58internal11Cvc5ostreamlsIA21_cEERS1_RKT_(ptr noundef nonnull align 8 dereferenceable(24) %ref.tmp883, ptr noundef nonnull align 1 dereferenceable(21) @.str.26)
          to label %invoke.cont885 unwind label %lpad791

invoke.cont885:                                   ; preds = %invoke.cont884
  %call888 = invoke noundef nonnull align 8 dereferenceable(24) ptr @_ZN4cvc58internal11Cvc5ostreamlsINS0_12NodeTemplateILb1EEEEERS1_RKT_(ptr noundef nonnull align 8 dereferenceable(24) %call886, ptr noundef nonnull align 8 dereferenceable(8) %curr)
          to label %invoke.cont887 unwind label %lpad791

invoke.cont887:                                   ; preds = %invoke.cont885
  %call890 = invoke noundef nonnull align 8 dereferenceable(24) ptr @_ZN4cvc58internal11Cvc5ostreamlsEPFRSoS2_E(ptr noundef nonnull align 8 dereferenceable(24) %call888, ptr noundef @_ZSt4endlIcSt11char_traitsIcEERSt13basic_ostreamIT_T0_ES6_)
          to label %invoke.cont889 unwind label %lpad791

invoke.cont889:                                   ; preds = %invoke.cont887
  call void @llvm.memcpy.p0.p0.i64(ptr align 8 %agg.tmp.ensured882, ptr align 8 %call890, i64 24, i1 false)
  br label %cond.end891

cond.end891:                                      ; preds = %invoke.cont889, %invoke.cont880
  %call894 = invoke noundef zeroext i1 @_ZN4cvc58internal11__cvc5_truecvbEv(ptr noundef nonnull align 1 dereferenceable(1) %ref.tmp892)
          to label %invoke.cont893 unwind label %lpad791

invoke.cont893:                                   ; preds = %cond.end891
  br i1 %call894, label %cond.true895, label %cond.false898

cond.true895:                                     ; preds = %invoke.cont893
  invoke void @_ZNK4cvc58internal5NullCcvNS0_11Cvc5ostreamEEv(ptr sret(%"class.cvc5::internal::Cvc5ostream") align 8 %tmp896, ptr noundef nonnull align 1 dereferenceable(1) @_ZN4cvc58internal10nullStreamE)
          to label %invoke.cont897 unwind label %lpad791

invoke.cont897:                                   ; preds = %cond.true895
  br label %cond.end908

cond.false898:                                    ; preds = %invoke.cont893
  invoke void @_ZNK4cvc58internal6TraceCclEv(ptr sret(%"class.cvc5::internal::Cvc5ostream") align 8 %ref.tmp900, ptr noundef nonnull align 8 dereferenceable(32) @_ZN4cvc58internal12TraceChannelE)
          to label %invoke.cont901 unwind label %lpad791

invoke.cont901:                                   ; preds = %cond.false898
  %call903 = invoke noundef nonnull align 8 dereferenceable(24) ptr @_ZN4cvc58internal11Cvc5ostreamlsIA14_cEERS1_RKT_(ptr noundef nonnull align 8 dereferenceable(24) %ref.tmp900, ptr noundef nonnull align 1 dereferenceable(14) @.str.27)
          to label %invoke.cont902 unwind label %lpad791

invoke.cont902:                                   ; preds = %invoke.cont901
  %call905 = invoke noundef nonnull align 8 dereferenceable(24) ptr @_ZN4cvc58internal11Cvc5ostreamlsISt6vectorINS0_12NodeTemplateILb1EEESaIS5_EEEERS1_RKT_(ptr noundef nonnull align 8 dereferenceable(24) %call903, ptr noundef nonnull align 8 dereferenceable(24) %conds)
          to label %invoke.cont904 unwind label %lpad791

invoke.cont904:                                   ; preds = %invoke.cont902
  %call907 = invoke noundef nonnull align 8 dereferenceable(24) ptr @_ZN4cvc58internal11Cvc5ostreamlsEPFRSoS2_E(ptr noundef nonnull align 8 dereferenceable(24) %call905, ptr noundef @_ZSt4endlIcSt11char_traitsIcEERSt13basic_ostreamIT_T0_ES6_)
          to label %invoke.cont906 unwind label %lpad791

invoke.cont906:                                   ; preds = %invoke.cont904
  call void @llvm.memcpy.p0.p0.i64(ptr align 8 %agg.tmp.ensured899, ptr align 8 %call907, i64 24, i1 false)
  br label %cond.end908

cond.end908:                                      ; preds = %invoke.cont906, %invoke.cont897
  %call911 = invoke noundef zeroext i1 @_ZN4cvc58internal11__cvc5_truecvbEv(ptr noundef nonnull align 1 dereferenceable(1) %ref.tmp909)
          to label %invoke.cont910 unwind label %lpad791

invoke.cont910:                                   ; preds = %cond.end908
  br i1 %call911, label %cond.true912, label %cond.false915

cond.true912:                                     ; preds = %invoke.cont910
  invoke void @_ZNK4cvc58internal5NullCcvNS0_11Cvc5ostreamEEv(ptr sret(%"class.cvc5::internal::Cvc5ostream") align 8 %tmp913, ptr noundef nonnull align 1 dereferenceable(1) @_ZN4cvc58internal10nullStreamE)
          to label %invoke.cont914 unwind label %lpad791

invoke.cont914:                                   ; preds = %cond.true912
  br label %cond.end925

cond.false915:                                    ; preds = %invoke.cont910
  invoke void @_ZNK4cvc58internal6TraceCclEv(ptr sret(%"class.cvc5::internal::Cvc5ostream") align 8 %ref.tmp917, ptr noundef nonnull align 8 dereferenceable(32) @_ZN4cvc58internal12TraceChannelE)
          to label %invoke.cont918 unwind label %lpad791

invoke.cont918:                                   ; preds = %cond.false915
  %call920 = invoke noundef nonnull align 8 dereferenceable(24) ptr @_ZN4cvc58internal11Cvc5ostreamlsIA10_cEERS1_RKT_(ptr noundef nonnull align 8 dereferenceable(24) %ref.tmp917, ptr noundef nonnull align 1 dereferenceable(10) @.str.28)
          to label %invoke.cont919 unwind label %lpad791

invoke.cont919:                                   ; preds = %invoke.cont918
  %call922 = invoke noundef nonnull align 8 dereferenceable(24) ptr @_ZN4cvc58internal11Cvc5ostreamlsISt6vectorINS0_12NodeTemplateILb1EEESaIS5_EEEERS1_RKT_(ptr noundef nonnull align 8 dereferenceable(24) %call920, ptr noundef nonnull align 8 dereferenceable(24) %vals)
          to label %invoke.cont921 unwind label %lpad791

invoke.cont921:                                   ; preds = %invoke.cont919
  %call924 = invoke noundef nonnull align 8 dereferenceable(24) ptr @_ZN4cvc58internal11Cvc5ostreamlsEPFRSoS2_E(ptr noundef nonnull align 8 dereferenceable(24) %call922, ptr noundef @_ZSt4endlIcSt11char_traitsIcEERSt13basic_ostreamIT_T0_ES6_)
          to label %invoke.cont923 unwind label %lpad791

invoke.cont923:                                   ; preds = %invoke.cont921
  call void @llvm.memcpy.p0.p0.i64(ptr align 8 %agg.tmp.ensured916, ptr align 8 %call924, i64 24, i1 false)
  br label %cond.end925

cond.end925:                                      ; preds = %invoke.cont923, %invoke.cont914
  store i64 0, ptr %i926, align 8
  %call927 = call noundef i64 @_ZNKSt6vectorIN4cvc58internal12NodeTemplateILb1EEESaIS3_EE4sizeEv(ptr noundef nonnull align 8 dereferenceable(24) %conds) #3
  store i64 %call927, ptr %numCond, align 8
  br label %for.cond928

for.cond928:                                      ; preds = %for.inc963, %cond.end925
  %223 = load i64, ptr %i926, align 8
  %224 = load i64, ptr %numCond, align 8
  %cmp929 = icmp ult i64 %223, %224
  br i1 %cmp929, label %for.body930, label %for.end965

for.body930:                                      ; preds = %for.cond928
  %225 = load i64, ptr %numCond, align 8
  %sub931 = sub i64 %225, 1
  %226 = load i64, ptr %i926, align 8
  %sub932 = sub i64 %sub931, %226
  store i64 %sub932, ptr %ii, align 8
  %227 = load ptr, ptr %nm, align 8
  invoke void @_ZN4cvc58internal12NodeTemplateILb0EEC2ERKNS1_ILb1EEE(ptr noundef nonnull align 8 dereferenceable(8) %agg.tmp934, ptr noundef nonnull align 8 dereferenceable(8) %curr)
          to label %invoke.cont935 unwind label %lpad791

invoke.cont935:                                   ; preds = %for.body930
  %228 = load i64, ptr %ii, align 8
  %call937 = call noundef nonnull align 8 dereferenceable(8) ptr @_ZNSt6vectorIN4cvc58internal12NodeTemplateILb1EEESaIS3_EEixEm(ptr noundef nonnull align 8 dereferenceable(24) %conds, i64 noundef %228) #3
  invoke void @_ZN4cvc58internal12NodeTemplateILb0EEC2ERKNS1_ILb1EEE(ptr noundef nonnull align 8 dereferenceable(8) %agg.tmp936, ptr noundef nonnull align 8 dereferenceable(8) %call937)
          to label %invoke.cont939 unwind label %lpad938

invoke.cont939:                                   ; preds = %invoke.cont935
  %229 = load i64, ptr %ii, align 8
  %call941 = call noundef nonnull align 8 dereferenceable(8) ptr @_ZNSt6vectorIN4cvc58internal12NodeTemplateILb1EEESaIS3_EEixEm(ptr noundef nonnull align 8 dereferenceable(24) %vals, i64 noundef %229) #3
  invoke void @_ZN4cvc58internal12NodeTemplateILb0EEC2ERKNS1_ILb1EEE(ptr noundef nonnull align 8 dereferenceable(8) %agg.tmp940, ptr noundef nonnull align 8 dereferenceable(8) %call941)
          to label %invoke.cont943 unwind label %lpad942

invoke.cont943:                                   ; preds = %invoke.cont939
  invoke void @_ZN4cvc58internal11NodeManager6mkNodeENS0_4kind6Kind_tENS0_12NodeTemplateILb0EEES5_S5_(ptr sret(%"class.cvc5::internal::NodeTemplate") align 8 %ref.tmp933, ptr noundef nonnull align 8 dereferenceable(3360) %227, i32 noundef 209, ptr noundef %agg.tmp934, ptr noundef %agg.tmp936, ptr noundef %agg.tmp940)
          to label %invoke.cont945 unwind label %lpad944

invoke.cont945:                                   ; preds = %invoke.cont943
  %call948 = invoke noundef nonnull align 8 dereferenceable(8) ptr @_ZN4cvc58internal12NodeTemplateILb1EEaSERKS2_(ptr noundef nonnull align 8 dereferenceable(8) %curr, ptr noundef nonnull align 8 dereferenceable(8) %ref.tmp933)
          to label %invoke.cont947 unwind label %lpad946

invoke.cont947:                                   ; preds = %invoke.cont945
  call void @_ZN4cvc58internal12NodeTemplateILb1EED2Ev(ptr noundef nonnull align 8 dereferenceable(8) %ref.tmp933) #3
  call void @_ZN4cvc58internal12NodeTemplateILb0EED2Ev(ptr noundef nonnull align 8 dereferenceable(8) %agg.tmp940) #3
  call void @_ZN4cvc58internal12NodeTemplateILb0EED2Ev(ptr noundef nonnull align 8 dereferenceable(8) %agg.tmp936) #3
  call void @_ZN4cvc58internal12NodeTemplateILb0EED2Ev(ptr noundef nonnull align 8 dereferenceable(8) %agg.tmp934) #3
  invoke void @_ZN4cvc58internal12NodeTemplateILb0EEC2ERKNS1_ILb1EEE(ptr noundef nonnull align 8 dereferenceable(8) %agg.tmp954, ptr noundef nonnull align 8 dereferenceable(8) %curr)
          to label %invoke.cont955 unwind label %lpad791

invoke.cont955:                                   ; preds = %invoke.cont947
  invoke void @_ZN4cvc58internal6theory6arrays20TheoryArraysRewriter17normalizeConstantENS0_12NodeTemplateILb0EEE(ptr sret(%"class.cvc5::internal::NodeTemplate") align 8 %ref.tmp953, ptr noundef %agg.tmp954)
          to label %invoke.cont957 unwind label %lpad956

invoke.cont957:                                   ; preds = %invoke.cont955
  %call960 = invoke noundef nonnull align 8 dereferenceable(8) ptr @_ZN4cvc58internal12NodeTemplateILb1EEaSERKS2_(ptr noundef nonnull align 8 dereferenceable(8) %curr, ptr noundef nonnull align 8 dereferenceable(8) %ref.tmp953)
          to label %invoke.cont959 unwind label %lpad958

invoke.cont959:                                   ; preds = %invoke.cont957
  call void @_ZN4cvc58internal12NodeTemplateILb1EED2Ev(ptr noundef nonnull align 8 dereferenceable(8) %ref.tmp953) #3
  call void @_ZN4cvc58internal12NodeTemplateILb0EED2Ev(ptr noundef nonnull align 8 dereferenceable(8) %agg.tmp954) #3
  br label %for.inc963

for.inc963:                                       ; preds = %invoke.cont959
  %230 = load i64, ptr %i926, align 8
  %inc964 = add i64 %230, 1
  store i64 %inc964, ptr %i926, align 8
  br label %for.cond928, !llvm.loop !17

lpad829:                                          ; preds = %invoke.cont838, %invoke.cont836, %invoke.cont834, %invoke.cont832, %invoke.cont830, %invoke.cont827
  %231 = landingpad { ptr, i32 }
          cleanup
  %232 = extractvalue { ptr, i32 } %231, 0
  store ptr %232, ptr %exn.slot, align 8
  %233 = extractvalue { ptr, i32 } %231, 1
  store i32 %233, ptr %ehselector.slot, align 4
  %cleanup.is_active847 = load i1, ptr %cleanup.cond828, align 1
  br i1 %cleanup.is_active847, label %cleanup.action848, label %cleanup.done849

cleanup.action848:                                ; preds = %lpad829
  call void @_ZN4cvc58internal8TypeNodeD2Ev(ptr noundef nonnull align 8 dereferenceable(8) %ref.tmp826) #3
  br label %cleanup.done849

cleanup.done849:                                  ; preds = %cleanup.action848, %lpad829
  br label %ehcleanup989

lpad853:                                          ; preds = %invoke.cont852
  %234 = landingpad { ptr, i32 }
          cleanup
  %235 = extractvalue { ptr, i32 } %234, 0
  store ptr %235, ptr %exn.slot, align 8
  %236 = extractvalue { ptr, i32 } %234, 1
  store i32 %236, ptr %ehselector.slot, align 4
  br label %ehcleanup859

lpad855:                                          ; preds = %invoke.cont854
  %237 = landingpad { ptr, i32 }
          cleanup
  %238 = extractvalue { ptr, i32 } %237, 0
  store ptr %238, ptr %exn.slot, align 8
  %239 = extractvalue { ptr, i32 } %237, 1
  store i32 %239, ptr %ehselector.slot, align 4
  call void @_ZN4cvc58internal12NodeTemplateILb1EED2Ev(ptr noundef nonnull align 8 dereferenceable(8) %ref.tmp850) #3
  br label %ehcleanup859

ehcleanup859:                                     ; preds = %lpad855, %lpad853
  call void @_ZN4cvc58internal13ArrayStoreAllD1Ev(ptr noundef nonnull align 8 dereferenceable(16) %ref.tmp851) #3
  br label %ehcleanup989

lpad938:                                          ; preds = %invoke.cont935
  %240 = landingpad { ptr, i32 }
          cleanup
  %241 = extractvalue { ptr, i32 } %240, 0
  store ptr %241, ptr %exn.slot, align 8
  %242 = extractvalue { ptr, i32 } %240, 1
  store i32 %242, ptr %ehselector.slot, align 4
  br label %ehcleanup952

lpad942:                                          ; preds = %invoke.cont939
  %243 = landingpad { ptr, i32 }
          cleanup
  %244 = extractvalue { ptr, i32 } %243, 0
  store ptr %244, ptr %exn.slot, align 8
  %245 = extractvalue { ptr, i32 } %243, 1
  store i32 %245, ptr %ehselector.slot, align 4
  br label %ehcleanup951

lpad944:                                          ; preds = %invoke.cont943
  %246 = landingpad { ptr, i32 }
          cleanup
  %247 = extractvalue { ptr, i32 } %246, 0
  store ptr %247, ptr %exn.slot, align 8
  %248 = extractvalue { ptr, i32 } %246, 1
  store i32 %248, ptr %ehselector.slot, align 4
  br label %ehcleanup950

lpad946:                                          ; preds = %invoke.cont945
  %249 = landingpad { ptr, i32 }
          cleanup
  %250 = extractvalue { ptr, i32 } %249, 0
  store ptr %250, ptr %exn.slot, align 8
  %251 = extractvalue { ptr, i32 } %249, 1
  store i32 %251, ptr %ehselector.slot, align 4
  call void @_ZN4cvc58internal12NodeTemplateILb1EED2Ev(ptr noundef nonnull align 8 dereferenceable(8) %ref.tmp933) #3
  br label %ehcleanup950

ehcleanup950:                                     ; preds = %lpad946, %lpad944
  call void @_ZN4cvc58internal12NodeTemplateILb0EED2Ev(ptr noundef nonnull align 8 dereferenceable(8) %agg.tmp940) #3
  br label %ehcleanup951

ehcleanup951:                                     ; preds = %ehcleanup950, %lpad942
  call void @_ZN4cvc58internal12NodeTemplateILb0EED2Ev(ptr noundef nonnull align 8 dereferenceable(8) %agg.tmp936) #3
  br label %ehcleanup952

ehcleanup952:                                     ; preds = %ehcleanup951, %lpad938
  call void @_ZN4cvc58internal12NodeTemplateILb0EED2Ev(ptr noundef nonnull align 8 dereferenceable(8) %agg.tmp934) #3
  br label %ehcleanup989

lpad956:                                          ; preds = %invoke.cont955
  %252 = landingpad { ptr, i32 }
          cleanup
  %253 = extractvalue { ptr, i32 } %252, 0
  store ptr %253, ptr %exn.slot, align 8
  %254 = extractvalue { ptr, i32 } %252, 1
  store i32 %254, ptr %ehselector.slot, align 4
  br label %ehcleanup962

lpad958:                                          ; preds = %invoke.cont957
  %255 = landingpad { ptr, i32 }
          cleanup
  %256 = extractvalue { ptr, i32 } %255, 0
  store ptr %256, ptr %exn.slot, align 8
  %257 = extractvalue { ptr, i32 } %255, 1
  store i32 %257, ptr %ehselector.slot, align 4
  call void @_ZN4cvc58internal12NodeTemplateILb1EED2Ev(ptr noundef nonnull align 8 dereferenceable(8) %ref.tmp953) #3
  br label %ehcleanup962

ehcleanup962:                                     ; preds = %lpad958, %lpad956
  call void @_ZN4cvc58internal12NodeTemplateILb0EED2Ev(ptr noundef nonnull align 8 dereferenceable(8) %agg.tmp954) #3
  br label %ehcleanup989

for.end965:                                       ; preds = %for.cond928
  %call968 = invoke noundef zeroext i1 @_ZN4cvc58internal11__cvc5_truecvbEv(ptr noundef nonnull align 1 dereferenceable(1) %ref.tmp966)
          to label %invoke.cont967 unwind label %lpad791

invoke.cont967:                                   ; preds = %for.end965
  br i1 %call968, label %cond.true969, label %cond.false972

cond.true969:                                     ; preds = %invoke.cont967
  invoke void @_ZNK4cvc58internal5NullCcvNS0_11Cvc5ostreamEEv(ptr sret(%"class.cvc5::internal::Cvc5ostream") align 8 %tmp970, ptr noundef nonnull align 1 dereferenceable(1) @_ZN4cvc58internal10nullStreamE)
          to label %invoke.cont971 unwind label %lpad791

invoke.cont971:                                   ; preds = %cond.true969
  br label %cond.end986

cond.false972:                                    ; preds = %invoke.cont967
  invoke void @_ZNK4cvc58internal6TraceCclEv(ptr sret(%"class.cvc5::internal::Cvc5ostream") align 8 %ref.tmp974, ptr noundef nonnull align 8 dereferenceable(32) @_ZN4cvc58internal12TraceChannelE)
          to label %invoke.cont975 unwind label %lpad791

invoke.cont975:                                   ; preds = %cond.false972
  %call977 = invoke noundef nonnull align 8 dereferenceable(24) ptr @_ZN4cvc58internal11Cvc5ostreamlsIA14_cEERS1_RKT_(ptr noundef nonnull align 8 dereferenceable(24) %ref.tmp974, ptr noundef nonnull align 1 dereferenceable(14) @.str.29)
          to label %invoke.cont976 unwind label %lpad791

invoke.cont976:                                   ; preds = %invoke.cont975
  %call979 = invoke noundef nonnull align 8 dereferenceable(24) ptr @_ZN4cvc58internal11Cvc5ostreamlsINS0_12NodeTemplateILb1EEEEERS1_RKT_(ptr noundef nonnull align 8 dereferenceable(24) %call977, ptr noundef nonnull align 8 dereferenceable(8) %curr)
          to label %invoke.cont978 unwind label %lpad791

invoke.cont978:                                   ; preds = %invoke.cont976
  %call981 = invoke noundef nonnull align 8 dereferenceable(24) ptr @_ZN4cvc58internal11Cvc5ostreamlsIA6_cEERS1_RKT_(ptr noundef nonnull align 8 dereferenceable(24) %call979, ptr noundef nonnull align 1 dereferenceable(6) @.str.30)
          to label %invoke.cont980 unwind label %lpad791

invoke.cont980:                                   ; preds = %invoke.cont978
  %call983 = invoke noundef nonnull align 8 dereferenceable(24) ptr @_ZN4cvc58internal11Cvc5ostreamlsINS0_12NodeTemplateILb0EEEEERS1_RKT_(ptr noundef nonnull align 8 dereferenceable(24) %call981, ptr noundef nonnull align 8 dereferenceable(8) %n)
          to label %invoke.cont982 unwind label %lpad791

invoke.cont982:                                   ; preds = %invoke.cont980
  %call985 = invoke noundef nonnull align 8 dereferenceable(24) ptr @_ZN4cvc58internal11Cvc5ostreamlsEPFRSoS2_E(ptr noundef nonnull align 8 dereferenceable(24) %call983, ptr noundef @_ZSt4endlIcSt11char_traitsIcEERSt13basic_ostreamIT_T0_ES6_)
          to label %invoke.cont984 unwind label %lpad791

invoke.cont984:                                   ; preds = %invoke.cont982
  call void @llvm.memcpy.p0.p0.i64(ptr align 8 %agg.tmp.ensured973, ptr align 8 %call985, i64 24, i1 false)
  br label %cond.end986

cond.end986:                                      ; preds = %invoke.cont984, %invoke.cont971
  invoke void @_ZN4cvc58internal12NodeTemplateILb1EEC2ERKS2_(ptr noundef nonnull align 8 dereferenceable(8) %agg.result, ptr noundef nonnull align 8 dereferenceable(8) %curr)
          to label %invoke.cont987 unwind label %lpad791

invoke.cont987:                                   ; preds = %cond.end986
  store i32 1, ptr %cleanup.dest.slot, align 4
  call void @_ZN4cvc58internal8TypeNodeD2Ev(ptr noundef nonnull align 8 dereferenceable(8) %array_type) #3
  br label %cleanup1007

ehcleanup989:                                     ; preds = %ehcleanup962, %ehcleanup952, %ehcleanup859, %cleanup.done849, %ehcleanup810, %lpad791
  call void @_ZN4cvc58internal8TypeNodeD2Ev(ptr noundef nonnull align 8 dereferenceable(8) %array_type) #3
  br label %ehcleanup1008

if.end990:                                        ; preds = %invoke.cont777, %invoke.cont774
  %call993 = invoke noundef zeroext i1 @_ZN4cvc58internal11__cvc5_truecvbEv(ptr noundef nonnull align 1 dereferenceable(1) %ref.tmp991)
          to label %invoke.cont992 unwind label %lpad62

invoke.cont992:                                   ; preds = %if.end990
  br i1 %call993, label %cond.true994, label %cond.false997

cond.true994:                                     ; preds = %invoke.cont992
  invoke void @_ZNK4cvc58internal5NullCcvNS0_11Cvc5ostreamEEv(ptr sret(%"class.cvc5::internal::Cvc5ostream") align 8 %tmp995, ptr noundef nonnull align 1 dereferenceable(1) @_ZN4cvc58internal10nullStreamE)
          to label %invoke.cont996 unwind label %lpad62

invoke.cont996:                                   ; preds = %cond.true994
  br label %cond.end1005

cond.false997:                                    ; preds = %invoke.cont992
  invoke void @_ZNK4cvc58internal6TraceCclEv(ptr sret(%"class.cvc5::internal::Cvc5ostream") align 8 %ref.tmp999, ptr noundef nonnull align 8 dereferenceable(32) @_ZN4cvc58internal12TraceChannelE)
          to label %invoke.cont1000 unwind label %lpad62

invoke.cont1000:                                  ; preds = %cond.false997
  %call1002 = invoke noundef nonnull align 8 dereferenceable(24) ptr @_ZN4cvc58internal11Cvc5ostreamlsIA59_cEERS1_RKT_(ptr noundef nonnull align 8 dereferenceable(24) %ref.tmp999, ptr noundef nonnull align 1 dereferenceable(59) @.str.31)
          to label %invoke.cont1001 unwind label %lpad62

invoke.cont1001:                                  ; preds = %invoke.cont1000
  %call1004 = invoke noundef nonnull align 8 dereferenceable(24) ptr @_ZN4cvc58internal11Cvc5ostreamlsEPFRSoS2_E(ptr noundef nonnull align 8 dereferenceable(24) %call1002, ptr noundef @_ZSt4endlIcSt11char_traitsIcEERSt13basic_ostreamIT_T0_ES6_)
          to label %invoke.cont1003 unwind label %lpad62

invoke.cont1003:                                  ; preds = %invoke.cont1001
  call void @llvm.memcpy.p0.p0.i64(ptr align 8 %agg.tmp.ensured998, ptr align 8 %call1004, i64 24, i1 false)
  br label %cond.end1005

cond.end1005:                                     ; preds = %invoke.cont1003, %invoke.cont996
  invoke void @_ZN4cvc58internal12NodeTemplateILb1EE4nullEv(ptr sret(%"class.cvc5::internal::NodeTemplate") align 8 %agg.result)
          to label %invoke.cont1006 unwind label %lpad62

invoke.cont1006:                                  ; preds = %cond.end1005
  store i32 1, ptr %cleanup.dest.slot, align 4
  br label %cleanup1007

