target datalayout = "e-m:e-p270:32:32-p271:32:32-p272:64:64-i64:64-i128:128-f80:128-n8:16:32:64-S128"
target triple = "x86_64-unknown-linux-gnu"

%"class.std::ios_base::Init" = type { i8 }
%"class.cvc5::internal::NullC" = type { i8 }
%"class.cvc5::internal::TraceC" = type { ptr, %"class.std::vector.89" }
%"class.std::vector.89" = type { %"struct.std::_Vector_base.90" }
%"struct.std::_Vector_base.90" = type { %"struct.std::_Vector_base<std::__cxx11::basic_string<char>, std::allocator<std::__cxx11::basic_string<char>>>::_Vector_impl" }
%"struct.std::_Vector_base<std::__cxx11::basic_string<char>, std::allocator<std::__cxx11::basic_string<char>>>::_Vector_impl" = type { %"struct.std::_Vector_base<std::__cxx11::basic_string<char>, std::allocator<std::__cxx11::basic_string<char>>>::_Vector_impl_data" }
%"struct.std::_Vector_base<std::__cxx11::basic_string<char>, std::allocator<std::__cxx11::basic_string<char>>>::_Vector_impl_data" = type { ptr, ptr, ptr }
%"class.std::__cxx11::basic_string" = type { %"struct.std::__cxx11::basic_string<char>::_Alloc_hider", i64, %union.anon }
%"struct.std::__cxx11::basic_string<char>::_Alloc_hider" = type { ptr }
%union.anon = type { i64, [8 x i8] }
%"struct.std::piecewise_construct_t" = type { i8 }
%"class.cvc5::internal::NodeTemplate" = type { ptr }
%"class.cvc5::internal::Rational" = type { %class.__gmp_expr }
%class.__gmp_expr = type { [1 x %struct.__mpq_struct] }
%struct.__mpq_struct = type { %struct.__mpz_struct, %struct.__mpz_struct }
%struct.__mpz_struct = type { i32, i32, ptr }
%"class.cvc5::internal::IntBlaster" = type <{ %"class.cvc5::internal::EnvObj", %"class.cvc5::context::CDHashMap", %"class.cvc5::context::CDHashMap", ptr, %"class.cvc5::context::CDHashSet", %"class.cvc5::context::CDHashSet", %"class.cvc5::internal::NodeTemplate", %"class.cvc5::internal::NodeTemplate", %"class.cvc5::internal::theory::arith::nl::IAndUtils", i32, [4 x i8], ptr, i32, [4 x i8] }>
%"class.cvc5::internal::EnvObj" = type { ptr, ptr }
%"class.cvc5::context::CDHashMap" = type { %"class.cvc5::context::ContextObj", %"class.std::unordered_map", ptr, ptr }
%"class.cvc5::context::ContextObj" = type { ptr, ptr, ptr, ptr, ptr }
%"class.std::unordered_map" = type { %"class.std::_Hashtable" }
%"class.std::_Hashtable" = type { ptr, i64, %"struct.std::__detail::_Hash_node_base", i64, %"struct.std::__detail::_Prime_rehash_policy", ptr }
%"struct.std::__detail::_Hash_node_base" = type { ptr }
%"struct.std::__detail::_Prime_rehash_policy" = type { float, i64 }
%"class.cvc5::context::CDHashSet" = type { %"class.cvc5::context::CDInsertHashMap" }
%"class.cvc5::context::CDInsertHashMap" = type { %"class.cvc5::context::ContextObj", ptr, i64 }
%"class.cvc5::internal::theory::arith::nl::IAndUtils" = type { %"class.std::map", %"class.cvc5::internal::NodeTemplate", %"class.cvc5::internal::NodeTemplate", %"class.cvc5::internal::NodeTemplate" }
%"class.std::map" = type { %"class.std::_Rb_tree" }
%"class.std::_Rb_tree" = type { %"struct.std::_Rb_tree<unsigned long, std::pair<const unsigned long, std::map<std::pair<long, long>, unsigned long>>, std::_Select1st<std::pair<const unsigned long, std::map<std::pair<long, long>, unsigned long>>>, std::less<unsigned long>>::_Rb_tree_impl" }
%"struct.std::_Rb_tree<unsigned long, std::pair<const unsigned long, std::map<std::pair<long, long>, unsigned long>>, std::_Select1st<std::pair<const unsigned long, std::map<std::pair<long, long>, unsigned long>>>, std::less<unsigned long>>::_Rb_tree_impl" = type { %"struct.std::_Rb_tree_key_compare", %"struct.std::_Rb_tree_header" }
%"struct.std::_Rb_tree_key_compare" = type { %"struct.std::less" }
%"struct.std::less" = type { i8 }
%"struct.std::_Rb_tree_header" = type { %"struct.std::_Rb_tree_node_base", i64 }
%"struct.std::_Rb_tree_node_base" = type { i32, ptr, ptr, ptr }
%class.__gmp_expr.132 = type { [1 x %struct.__mpz_struct] }
%"class.cvc5::internal::__cvc5_true" = type { i8 }
%"class.cvc5::internal::Cvc5ostream" = type { ptr, i8, ptr }
%"class.cvc5::context::CDHashSet<cvc5::internal::NodeTemplate<true>>::const_iterator" = type { %"struct.std::__detail::_Node_const_iterator" }
%"struct.std::__detail::_Node_const_iterator" = type { %"struct.std::__detail::_Node_iterator_base" }
%"struct.std::__detail::_Node_iterator_base" = type { ptr }
%"class.cvc5::internal::NodeTemplate.99" = type { ptr }
%"class.__gnu_cxx::__normal_iterator.353" = type { ptr }
%"struct.std::_Vector_base.95" = type { %"struct.std::_Vector_base<cvc5::internal::NodeTemplate<true>, std::allocator<cvc5::internal::NodeTemplate<true>>>::_Vector_impl" }
%"struct.std::_Vector_base<cvc5::internal::NodeTemplate<true>, std::allocator<cvc5::internal::NodeTemplate<true>>>::_Vector_impl" = type { %"struct.std::_Vector_base<cvc5::internal::NodeTemplate<true>, std::allocator<cvc5::internal::NodeTemplate<true>>>::_Vector_impl_data" }
%"struct.std::_Vector_base<cvc5::internal::NodeTemplate<true>, std::allocator<cvc5::internal::NodeTemplate<true>>>::_Vector_impl_data" = type { ptr, ptr, ptr }
%"class.cvc5::internal::NodeBuilder" = type <{ %"class.cvc5::internal::expr::NodeValue", [10 x ptr], ptr, ptr, i32, [4 x i8] }>
%"class.cvc5::internal::expr::NodeValue" = type { i64, i16, i32, [0 x ptr] }
%"class.cvc5::internal::Integer" = type { %class.__gmp_expr.132 }
%class.__gmp_expr.410 = type { %struct.__gmp_binary_expr }
%struct.__gmp_binary_expr = type { ptr, ptr }
%"class.cvc5::context::CDHashMap<cvc5::internal::NodeTemplate<true>, cvc5::internal::NodeTemplate<true>>::iterator" = type { ptr }
%"struct.std::__detail::_Node_const_iterator.443" = type { %"struct.std::__detail::_Node_iterator_base.422" }
%"struct.std::__detail::_Node_iterator_base.422" = type { ptr }
%"struct.std::pair.423" = type { %"class.cvc5::internal::NodeTemplate", ptr }
%"struct.std::pair.444" = type <{ %"struct.std::__detail::_Node_iterator.421", i8, [7 x i8] }>
%"struct.std::__detail::_Node_iterator.421" = type { %"struct.std::__detail::_Node_iterator_base.422" }
%"class.std::vector.94" = type { %"struct.std::_Vector_base.95" }
%"class.cvc5::internal::expr::NodeValue::iterator" = type { ptr }
%"class.__gnu_cxx::__normal_iterator.447" = type { ptr }
%"class.cvc5::context::CDOhash_map" = type { %"class.cvc5::context::ContextObj", %"struct.std::pair", ptr, ptr, ptr }
%"struct.std::pair" = type { %"class.cvc5::internal::NodeTemplate", %"class.cvc5::internal::NodeTemplate" }
%"class.cvc5::internal::TypeNode" = type { ptr }
%"class.std::__cxx11::basic_stringstream" = type { %"class.std::basic_iostream.base", %"class.std::__cxx11::basic_stringbuf", %"class.std::basic_ios" }
%"class.std::basic_iostream.base" = type { %"class.std::basic_istream.base", %"class.std::basic_ostream.base" }
%"class.std::basic_istream.base" = type { ptr, i64 }
%"class.std::basic_ostream.base" = type { ptr }
%"class.std::__cxx11::basic_stringbuf" = type { %"class.std::basic_streambuf", i32, %"class.std::__cxx11::basic_string" }
%"class.std::basic_streambuf" = type { ptr, ptr, ptr, ptr, ptr, ptr, ptr, %"class.std::locale" }
%"class.std::locale" = type { ptr }
%"class.std::basic_ios" = type { %"class.std::ios_base", ptr, i8, i8, ptr, ptr, ptr, ptr }
%"class.std::ios_base" = type { ptr, i64, i64, i32, i32, i32, ptr, %"struct.std::ios_base::_Words", [8 x %"struct.std::ios_base::_Words"], i32, ptr, %"class.std::locale" }
%"struct.std::ios_base::_Words" = type { ptr, i64 }
%"struct.std::_Rb_tree_iterator" = type { ptr }
%"class.cvc5::internal::BitVector" = type { i32, %"class.cvc5::internal::Integer" }
%"class.std::allocator.107" = type { i8 }
%"class.std::initializer_list" = type { ptr, i64 }
%"class.std::allocator.96" = type { i8 }
%"struct.cvc5::internal::IntToBitVector" = type { i32 }
%"struct.cvc5::internal::IntAnd" = type { i32 }
%"class.cvc5::internal::Options" = type { %"class.std::unique_ptr.138", %"class.std::unique_ptr.146", %"class.std::unique_ptr.154", %"class.std::unique_ptr.162", %"class.std::unique_ptr.170", %"class.std::unique_ptr.178", %"class.std::unique_ptr.186", %"class.std::unique_ptr.194", %"class.std::unique_ptr.202", %"class.std::unique_ptr.210", %"class.std::unique_ptr.218", %"class.std::unique_ptr.226", %"class.std::unique_ptr.234", %"class.std::unique_ptr.242", %"class.std::unique_ptr.250", %"class.std::unique_ptr.258", %"class.std::unique_ptr.266", %"class.std::unique_ptr.274", %"class.std::unique_ptr.282", %"class.std::unique_ptr.290", %"class.std::unique_ptr.298", %"class.std::unique_ptr.306", %"class.std::unique_ptr.314", %"class.std::unique_ptr.322", ptr, ptr, ptr, ptr, ptr, ptr, ptr, ptr, ptr, ptr, ptr, ptr, ptr, ptr, ptr, ptr, ptr, ptr, ptr, ptr, ptr, ptr, ptr, ptr, %"class.std::unique_ptr.330" }
%"class.std::unique_ptr.138" = type { %"struct.std::__uniq_ptr_data.139" }
%"struct.std::__uniq_ptr_data.139" = type { %"class.std::__uniq_ptr_impl.140" }
%"class.std::__uniq_ptr_impl.140" = type { %"class.std::tuple.141" }
%"class.std::tuple.141" = type { %"struct.std::_Tuple_impl.142" }
%"struct.std::_Tuple_impl.142" = type { %"struct.std::_Head_base.145" }
%"struct.std::_Head_base.145" = type { ptr }
%"class.std::unique_ptr.146" = type { %"struct.std::__uniq_ptr_data.147" }
%"struct.std::__uniq_ptr_data.147" = type { %"class.std::__uniq_ptr_impl.148" }
%"class.std::__uniq_ptr_impl.148" = type { %"class.std::tuple.149" }
%"class.std::tuple.149" = type { %"struct.std::_Tuple_impl.150" }
%"struct.std::_Tuple_impl.150" = type { %"struct.std::_Head_base.153" }
%"struct.std::_Head_base.153" = type { ptr }
%"class.std::unique_ptr.154" = type { %"struct.std::__uniq_ptr_data.155" }
%"struct.std::__uniq_ptr_data.155" = type { %"class.std::__uniq_ptr_impl.156" }
%"class.std::__uniq_ptr_impl.156" = type { %"class.std::tuple.157" }
%"class.std::tuple.157" = type { %"struct.std::_Tuple_impl.158" }
%"struct.std::_Tuple_impl.158" = type { %"struct.std::_Head_base.161" }
%"struct.std::_Head_base.161" = type { ptr }
%"class.std::unique_ptr.162" = type { %"struct.std::__uniq_ptr_data.163" }
%"struct.std::__uniq_ptr_data.163" = type { %"class.std::__uniq_ptr_impl.164" }
%"class.std::__uniq_ptr_impl.164" = type { %"class.std::tuple.165" }
%"class.std::tuple.165" = type { %"struct.std::_Tuple_impl.166" }
%"struct.std::_Tuple_impl.166" = type { %"struct.std::_Head_base.169" }
%"struct.std::_Head_base.169" = type { ptr }
%"class.std::unique_ptr.170" = type { %"struct.std::__uniq_ptr_data.171" }
%"struct.std::__uniq_ptr_data.171" = type { %"class.std::__uniq_ptr_impl.172" }
%"class.std::__uniq_ptr_impl.172" = type { %"class.std::tuple.173" }
%"class.std::tuple.173" = type { %"struct.std::_Tuple_impl.174" }
%"struct.std::_Tuple_impl.174" = type { %"struct.std::_Head_base.177" }
%"struct.std::_Head_base.177" = type { ptr }
%"class.std::unique_ptr.178" = type { %"struct.std::__uniq_ptr_data.179" }
%"struct.std::__uniq_ptr_data.179" = type { %"class.std::__uniq_ptr_impl.180" }
%"class.std::__uniq_ptr_impl.180" = type { %"class.std::tuple.181" }
%"class.std::tuple.181" = type { %"struct.std::_Tuple_impl.182" }
%"struct.std::_Tuple_impl.182" = type { %"struct.std::_Head_base.185" }
%"struct.std::_Head_base.185" = type { ptr }
%"class.std::unique_ptr.186" = type { %"struct.std::__uniq_ptr_data.187" }
%"struct.std::__uniq_ptr_data.187" = type { %"class.std::__uniq_ptr_impl.188" }
%"class.std::__uniq_ptr_impl.188" = type { %"class.std::tuple.189" }
%"class.std::tuple.189" = type { %"struct.std::_Tuple_impl.190" }
%"struct.std::_Tuple_impl.190" = type { %"struct.std::_Head_base.193" }
%"struct.std::_Head_base.193" = type { ptr }
%"class.std::unique_ptr.194" = type { %"struct.std::__uniq_ptr_data.195" }
%"struct.std::__uniq_ptr_data.195" = type { %"class.std::__uniq_ptr_impl.196" }
%"class.std::__uniq_ptr_impl.196" = type { %"class.std::tuple.197" }
%"class.std::tuple.197" = type { %"struct.std::_Tuple_impl.198" }
%"struct.std::_Tuple_impl.198" = type { %"struct.std::_Head_base.201" }
%"struct.std::_Head_base.201" = type { ptr }
%"class.std::unique_ptr.202" = type { %"struct.std::__uniq_ptr_data.203" }
%"struct.std::__uniq_ptr_data.203" = type { %"class.std::__uniq_ptr_impl.204" }
%"class.std::__uniq_ptr_impl.204" = type { %"class.std::tuple.205" }
%"class.std::tuple.205" = type { %"struct.std::_Tuple_impl.206" }
%"struct.std::_Tuple_impl.206" = type { %"struct.std::_Head_base.209" }
%"struct.std::_Head_base.209" = type { ptr }
%"class.std::unique_ptr.210" = type { %"struct.std::__uniq_ptr_data.211" }
%"struct.std::__uniq_ptr_data.211" = type { %"class.std::__uniq_ptr_impl.212" }
%"class.std::__uniq_ptr_impl.212" = type { %"class.std::tuple.213" }
%"class.std::tuple.213" = type { %"struct.std::_Tuple_impl.214" }
%"struct.std::_Tuple_impl.214" = type { %"struct.std::_Head_base.217" }
%"struct.std::_Head_base.217" = type { ptr }
%"class.std::unique_ptr.218" = type { %"struct.std::__uniq_ptr_data.219" }
%"struct.std::__uniq_ptr_data.219" = type { %"class.std::__uniq_ptr_impl.220" }
%"class.std::__uniq_ptr_impl.220" = type { %"class.std::tuple.221" }
%"class.std::tuple.221" = type { %"struct.std::_Tuple_impl.222" }
%"struct.std::_Tuple_impl.222" = type { %"struct.std::_Head_base.225" }
%"struct.std::_Head_base.225" = type { ptr }
%"class.std::unique_ptr.226" = type { %"struct.std::__uniq_ptr_data.227" }
%"struct.std::__uniq_ptr_data.227" = type { %"class.std::__uniq_ptr_impl.228" }
%"class.std::__uniq_ptr_impl.228" = type { %"class.std::tuple.229" }
%"class.std::tuple.229" = type { %"struct.std::_Tuple_impl.230" }
%"struct.std::_Tuple_impl.230" = type { %"struct.std::_Head_base.233" }
%"struct.std::_Head_base.233" = type { ptr }
%"class.std::unique_ptr.234" = type { %"struct.std::__uniq_ptr_data.235" }
%"struct.std::__uniq_ptr_data.235" = type { %"class.std::__uniq_ptr_impl.236" }
%"class.std::__uniq_ptr_impl.236" = type { %"class.std::tuple.237" }
%"class.std::tuple.237" = type { %"struct.std::_Tuple_impl.238" }
%"struct.std::_Tuple_impl.238" = type { %"struct.std::_Head_base.241" }
%"struct.std::_Head_base.241" = type { ptr }
%"class.std::unique_ptr.242" = type { %"struct.std::__uniq_ptr_data.243" }
%"struct.std::__uniq_ptr_data.243" = type { %"class.std::__uniq_ptr_impl.244" }
%"class.std::__uniq_ptr_impl.244" = type { %"class.std::tuple.245" }
%"class.std::tuple.245" = type { %"struct.std::_Tuple_impl.246" }
%"struct.std::_Tuple_impl.246" = type { %"struct.std::_Head_base.249" }
%"struct.std::_Head_base.249" = type { ptr }
%"class.std::unique_ptr.250" = type { %"struct.std::__uniq_ptr_data.251" }
%"struct.std::__uniq_ptr_data.251" = type { %"class.std::__uniq_ptr_impl.252" }
%"class.std::__uniq_ptr_impl.252" = type { %"class.std::tuple.253" }
%"class.std::tuple.253" = type { %"struct.std::_Tuple_impl.254" }
%"struct.std::_Tuple_impl.254" = type { %"struct.std::_Head_base.257" }
%"struct.std::_Head_base.257" = type { ptr }
%"class.std::unique_ptr.258" = type { %"struct.std::__uniq_ptr_data.259" }
%"struct.std::__uniq_ptr_data.259" = type { %"class.std::__uniq_ptr_impl.260" }
%"class.std::__uniq_ptr_impl.260" = type { %"class.std::tuple.261" }
%"class.std::tuple.261" = type { %"struct.std::_Tuple_impl.262" }
%"struct.std::_Tuple_impl.262" = type { %"struct.std::_Head_base.265" }
%"struct.std::_Head_base.265" = type { ptr }
%"class.std::unique_ptr.266" = type { %"struct.std::__uniq_ptr_data.267" }
%"struct.std::__uniq_ptr_data.267" = type { %"class.std::__uniq_ptr_impl.268" }
%"class.std::__uniq_ptr_impl.268" = type { %"class.std::tuple.269" }
%"class.std::tuple.269" = type { %"struct.std::_Tuple_impl.270" }
%"struct.std::_Tuple_impl.270" = type { %"struct.std::_Head_base.273" }
%"struct.std::_Head_base.273" = type { ptr }
%"class.std::unique_ptr.274" = type { %"struct.std::__uniq_ptr_data.275" }
%"struct.std::__uniq_ptr_data.275" = type { %"class.std::__uniq_ptr_impl.276" }
%"class.std::__uniq_ptr_impl.276" = type { %"class.std::tuple.277" }
%"class.std::tuple.277" = type { %"struct.std::_Tuple_impl.278" }
%"struct.std::_Tuple_impl.278" = type { %"struct.std::_Head_base.281" }
%"struct.std::_Head_base.281" = type { ptr }
%"class.std::unique_ptr.282" = type { %"struct.std::__uniq_ptr_data.283" }
%"struct.std::__uniq_ptr_data.283" = type { %"class.std::__uniq_ptr_impl.284" }
%"class.std::__uniq_ptr_impl.284" = type { %"class.std::tuple.285" }
%"class.std::tuple.285" = type { %"struct.std::_Tuple_impl.286" }
%"struct.std::_Tuple_impl.286" = type { %"struct.std::_Head_base.289" }
%"struct.std::_Head_base.289" = type { ptr }
%"class.std::unique_ptr.290" = type { %"struct.std::__uniq_ptr_data.291" }
%"struct.std::__uniq_ptr_data.291" = type { %"class.std::__uniq_ptr_impl.292" }
%"class.std::__uniq_ptr_impl.292" = type { %"class.std::tuple.293" }
%"class.std::tuple.293" = type { %"struct.std::_Tuple_impl.294" }
%"struct.std::_Tuple_impl.294" = type { %"struct.std::_Head_base.297" }
%"struct.std::_Head_base.297" = type { ptr }
%"class.std::unique_ptr.298" = type { %"struct.std::__uniq_ptr_data.299" }
%"struct.std::__uniq_ptr_data.299" = type { %"class.std::__uniq_ptr_impl.300" }
%"class.std::__uniq_ptr_impl.300" = type { %"class.std::tuple.301" }
%"class.std::tuple.301" = type { %"struct.std::_Tuple_impl.302" }
%"struct.std::_Tuple_impl.302" = type { %"struct.std::_Head_base.305" }
%"struct.std::_Head_base.305" = type { ptr }
%"class.std::unique_ptr.306" = type { %"struct.std::__uniq_ptr_data.307" }
%"struct.std::__uniq_ptr_data.307" = type { %"class.std::__uniq_ptr_impl.308" }
%"class.std::__uniq_ptr_impl.308" = type { %"class.std::tuple.309" }
%"class.std::tuple.309" = type { %"struct.std::_Tuple_impl.310" }
%"struct.std::_Tuple_impl.310" = type { %"struct.std::_Head_base.313" }
%"struct.std::_Head_base.313" = type { ptr }
%"class.std::unique_ptr.314" = type { %"struct.std::__uniq_ptr_data.315" }
%"struct.std::__uniq_ptr_data.315" = type { %"class.std::__uniq_ptr_impl.316" }
%"class.std::__uniq_ptr_impl.316" = type { %"class.std::tuple.317" }
%"class.std::tuple.317" = type { %"struct.std::_Tuple_impl.318" }
%"struct.std::_Tuple_impl.318" = type { %"struct.std::_Head_base.321" }
%"struct.std::_Head_base.321" = type { ptr }
%"class.std::unique_ptr.322" = type { %"struct.std::__uniq_ptr_data.323" }
%"struct.std::__uniq_ptr_data.323" = type { %"class.std::__uniq_ptr_impl.324" }
%"class.std::__uniq_ptr_impl.324" = type { %"class.std::tuple.325" }
%"class.std::tuple.325" = type { %"struct.std::_Tuple_impl.326" }
%"struct.std::_Tuple_impl.326" = type { %"struct.std::_Head_base.329" }
%"struct.std::_Head_base.329" = type { ptr }
%"class.std::unique_ptr.330" = type { %"struct.std::__uniq_ptr_data.331" }
%"struct.std::__uniq_ptr_data.331" = type { %"class.std::__uniq_ptr_impl.332" }
%"class.std::__uniq_ptr_impl.332" = type { %"class.std::tuple.333" }
%"class.std::tuple.333" = type { %"struct.std::_Tuple_impl.334" }
%"struct.std::_Tuple_impl.334" = type { %"struct.std::_Head_base.337" }
%"struct.std::_Head_base.337" = type { ptr }
%"struct.cvc5::internal::options::HolderSMT" = type <{ i8, i8, i8, i8, i8, i8, [2 x i8], i64, i8, i8, i8, i8, i8, i8, i8, i8, i8, i8, i8, i8, i8, i8, i8, i8, i32, i8, [3 x i8], double, i8, [3 x i8], i32, i8, i8, i8, i8, i32, i8, i8, i8, i8, i32, i8, [3 x i8], i32, i8, i8, i8, i8, i8, i8, i8, i8, i32, i8, i8, i8, i8, i8, i8, i8, i8, i8, i8, i8, i8, i8, i8, i8, i8, i8, i8, i8, i8, i8, i8, i8, i8, i8, i8, i8, i8, i32, i8, i8, i8, i8, i8, i8, i8, i8, i32, i8, i8, i8, i8, i32, i8, [7 x i8], i64, i8, i8, i8, i8, i8, i8, i8, i8, i64, i8, i8, i8, i8, i32, i8, [7 x i8] }>
%"class.std::unordered_set.338" = type { %"class.std::_Hashtable.339" }
%"class.std::_Hashtable.339" = type { ptr, i64, %"struct.std::__detail::_Hash_node_base", i64, %"struct.std::__detail::_Prime_rehash_policy", ptr }
%"struct.std::__detail::_Node_iterator" = type { %"struct.std::__detail::_Node_iterator_base.352" }
%"struct.std::__detail::_Node_iterator_base.352" = type { ptr }
%class.__gmp_expr.411 = type { %struct.__gmp_binary_expr.412 }
%struct.__gmp_binary_expr.412 = type { ptr, ptr }
%class.__gmp_expr.413 = type { %struct.__gmp_binary_expr.414 }
%struct.__gmp_binary_expr.414 = type { ptr, ptr }
%"class.cvc5::internal::NodeManager" = type { %"class.std::unique_ptr", %"class.std::unique_ptr.11", %"class.std::unordered_set", i64, ptr, ptr, i8, %"class.std::unordered_set.34", %"class.std::vector.45", [365 x %"class.cvc5::internal::NodeTemplate"], %"class.std::map.50", %"class.std::vector.58", %"class.std::vector.63", %"class.std::map.68", %"class.cvc5::internal::NodeManager::TupleTypeCache", %"class.cvc5::internal::NodeManager::RecTypeCache" }
%"class.std::unique_ptr" = type { %"struct.std::__uniq_ptr_data" }
%"struct.std::__uniq_ptr_data" = type { %"class.std::__uniq_ptr_impl" }
%"class.std::__uniq_ptr_impl" = type { %"class.std::tuple" }
%"class.std::tuple" = type { %"struct.std::_Tuple_impl" }
%"struct.std::_Tuple_impl" = type { %"struct.std::_Head_base.10" }
%"struct.std::_Head_base.10" = type { ptr }
%"class.std::unique_ptr.11" = type { %"struct.std::__uniq_ptr_data.12" }
%"struct.std::__uniq_ptr_data.12" = type { %"class.std::__uniq_ptr_impl.13" }
%"class.std::__uniq_ptr_impl.13" = type { %"class.std::tuple.14" }
%"class.std::tuple.14" = type { %"struct.std::_Tuple_impl.15" }
%"struct.std::_Tuple_impl.15" = type { %"struct.std::_Head_base.18" }
%"struct.std::_Head_base.18" = type { ptr }
%"class.std::unordered_set" = type { %"class.std::_Hashtable.19" }
%"class.std::_Hashtable.19" = type { ptr, i64, %"struct.std::__detail::_Hash_node_base", i64, %"struct.std::__detail::_Prime_rehash_policy", ptr }
%"class.std::unordered_set.34" = type { %"class.std::_Hashtable.35" }
%"class.std::_Hashtable.35" = type { ptr, i64, %"struct.std::__detail::_Hash_node_base", i64, %"struct.std::__detail::_Prime_rehash_policy", ptr }
%"class.std::vector.45" = type { %"struct.std::_Vector_base.46" }
%"struct.std::_Vector_base.46" = type { %"struct.std::_Vector_base<cvc5::internal::expr::NodeValue *, std::allocator<cvc5::internal::expr::NodeValue *>>::_Vector_impl" }
%"struct.std::_Vector_base<cvc5::internal::expr::NodeValue *, std::allocator<cvc5::internal::expr::NodeValue *>>::_Vector_impl" = type { %"struct.std::_Vector_base<cvc5::internal::expr::NodeValue *, std::allocator<cvc5::internal::expr::NodeValue *>>::_Vector_impl_data" }
%"struct.std::_Vector_base<cvc5::internal::expr::NodeValue *, std::allocator<cvc5::internal::expr::NodeValue *>>::_Vector_impl_data" = type { ptr, ptr, ptr }
%"class.std::map.50" = type { %"class.std::_Rb_tree.51" }
%"class.std::_Rb_tree.51" = type { %"struct.std::_Rb_tree<cvc5::internal::kind::Kind_t, std::pair<const cvc5::internal::kind::Kind_t, std::map<cvc5::internal::TypeNode, cvc5::internal::NodeTemplate<true>>>, std::_Select1st<std::pair<const cvc5::internal::kind::Kind_t, std::map<cvc5::internal::TypeNode, cvc5::internal::NodeTemplate<true>>>>, std::less<cvc5::internal::kind::Kind_t>>::_Rb_tree_impl" }
%"struct.std::_Rb_tree<cvc5::internal::kind::Kind_t, std::pair<const cvc5::internal::kind::Kind_t, std::map<cvc5::internal::TypeNode, cvc5::internal::NodeTemplate<true>>>, std::_Select1st<std::pair<const cvc5::internal::kind::Kind_t, std::map<cvc5::internal::TypeNode, cvc5::internal::NodeTemplate<true>>>>, std::less<cvc5::internal::kind::Kind_t>>::_Rb_tree_impl" = type { %"struct.std::_Rb_tree_key_compare.55", %"struct.std::_Rb_tree_header" }
%"struct.std::_Rb_tree_key_compare.55" = type { %"struct.std::less.56" }
%"struct.std::less.56" = type { i8 }
%"class.std::vector.58" = type { %"struct.std::_Vector_base.59" }
%"struct.std::_Vector_base.59" = type { %"struct.std::_Vector_base<std::unique_ptr<cvc5::internal::DType>, std::allocator<std::unique_ptr<cvc5::internal::DType>>>::_Vector_impl" }
%"struct.std::_Vector_base<std::unique_ptr<cvc5::internal::DType>, std::allocator<std::unique_ptr<cvc5::internal::DType>>>::_Vector_impl" = type { %"struct.std::_Vector_base<std::unique_ptr<cvc5::internal::DType>, std::allocator<std::unique_ptr<cvc5::internal::DType>>>::_Vector_impl_data" }
%"struct.std::_Vector_base<std::unique_ptr<cvc5::internal::DType>, std::allocator<std::unique_ptr<cvc5::internal::DType>>>::_Vector_impl_data" = type { ptr, ptr, ptr }
%"class.std::vector.63" = type { %"struct.std::_Vector_base.64" }
%"struct.std::_Vector_base.64" = type { %"struct.std::_Vector_base<std::unique_ptr<cvc5::internal::Oracle>, std::allocator<std::unique_ptr<cvc5::internal::Oracle>>>::_Vector_impl" }
%"struct.std::_Vector_base<std::unique_ptr<cvc5::internal::Oracle>, std::allocator<std::unique_ptr<cvc5::internal::Oracle>>>::_Vector_impl" = type { %"struct.std::_Vector_base<std::unique_ptr<cvc5::internal::Oracle>, std::allocator<std::unique_ptr<cvc5::internal::Oracle>>>::_Vector_impl_data" }
%"struct.std::_Vector_base<std::unique_ptr<cvc5::internal::Oracle>, std::allocator<std::unique_ptr<cvc5::internal::Oracle>>>::_Vector_impl_data" = type { ptr, ptr, ptr }
%"class.std::map.68" = type { %"class.std::_Rb_tree.69" }
%"class.std::_Rb_tree.69" = type { %"struct.std::_Rb_tree<std::pair<std::__cxx11::basic_string<char>, unsigned long>, std::pair<const std::pair<std::__cxx11::basic_string<char>, unsigned long>, cvc5::internal::TypeNode>, std::_Select1st<std::pair<const std::pair<std::__cxx11::basic_string<char>, unsigned long>, cvc5::internal::TypeNode>>, std::less<std::pair<std::__cxx11::basic_string<char>, unsigned long>>>::_Rb_tree_impl" }
%"struct.std::_Rb_tree<std::pair<std::__cxx11::basic_string<char>, unsigned long>, std::pair<const std::pair<std::__cxx11::basic_string<char>, unsigned long>, cvc5::internal::TypeNode>, std::_Select1st<std::pair<const std::pair<std::__cxx11::basic_string<char>, unsigned long>, cvc5::internal::TypeNode>>, std::less<std::pair<std::__cxx11::basic_string<char>, unsigned long>>>::_Rb_tree_impl" = type { %"struct.std::_Rb_tree_key_compare.73", %"struct.std::_Rb_tree_header" }
%"struct.std::_Rb_tree_key_compare.73" = type { %"struct.std::less.74" }
%"struct.std::less.74" = type { i8 }
%"class.cvc5::internal::NodeManager::TupleTypeCache" = type { %"class.std::map.76", %"class.cvc5::internal::TypeNode" }
%"class.std::map.76" = type { %"class.std::_Rb_tree.77" }
%"class.std::_Rb_tree.77" = type { %"struct.std::_Rb_tree<cvc5::internal::TypeNode, std::pair<const cvc5::internal::TypeNode, cvc5::internal::NodeManager::TupleTypeCache>, std::_Select1st<std::pair<const cvc5::internal::TypeNode, cvc5::internal::NodeManager::TupleTypeCache>>, std::less<cvc5::internal::TypeNode>>::_Rb_tree_impl" }
%"struct.std::_Rb_tree<cvc5::internal::TypeNode, std::pair<const cvc5::internal::TypeNode, cvc5::internal::NodeManager::TupleTypeCache>, std::_Select1st<std::pair<const cvc5::internal::TypeNode, cvc5::internal::NodeManager::TupleTypeCache>>, std::less<cvc5::internal::TypeNode>>::_Rb_tree_impl" = type { %"struct.std::_Rb_tree_key_compare.81", %"struct.std::_Rb_tree_header" }
%"struct.std::_Rb_tree_key_compare.81" = type { %"struct.std::less.82" }
%"struct.std::less.82" = type { i8 }
%"class.cvc5::internal::NodeManager::RecTypeCache" = type { %"class.std::map.84", %"class.cvc5::internal::TypeNode" }
%"class.std::map.84" = type { %"class.std::_Rb_tree.85" }
%"class.std::_Rb_tree.85" = type { %"struct.std::_Rb_tree<cvc5::internal::TypeNode, std::pair<const cvc5::internal::TypeNode, std::map<std::__cxx11::basic_string<char>, cvc5::internal::NodeManager::RecTypeCache>>, std::_Select1st<std::pair<const cvc5::internal::TypeNode, std::map<std::__cxx11::basic_string<char>, cvc5::internal::NodeManager::RecTypeCache>>>, std::less<cvc5::internal::TypeNode>>::_Rb_tree_impl" }
%"struct.std::_Rb_tree<cvc5::internal::TypeNode, std::pair<const cvc5::internal::TypeNode, std::map<std::__cxx11::basic_string<char>, cvc5::internal::NodeManager::RecTypeCache>>, std::_Select1st<std::pair<const cvc5::internal::TypeNode, std::map<std::__cxx11::basic_string<char>, cvc5::internal::NodeManager::RecTypeCache>>>, std::less<cvc5::internal::TypeNode>>::_Rb_tree_impl" = type { %"struct.std::_Rb_tree_key_compare.81", %"struct.std::_Rb_tree_header" }
%"class.std::map.100" = type { %"class.std::_Rb_tree.101" }
%"class.std::_Rb_tree.101" = type { %"struct.std::_Rb_tree<cvc5::internal::NodeTemplate<true>, std::pair<const cvc5::internal::NodeTemplate<true>, cvc5::internal::NodeTemplate<true>>, std::_Select1st<std::pair<const cvc5::internal::NodeTemplate<true>, cvc5::internal::NodeTemplate<true>>>, std::less<cvc5::internal::NodeTemplate<true>>>::_Rb_tree_impl" }
%"struct.std::_Rb_tree<cvc5::internal::NodeTemplate<true>, std::pair<const cvc5::internal::NodeTemplate<true>, cvc5::internal::NodeTemplate<true>>, std::_Select1st<std::pair<const cvc5::internal::NodeTemplate<true>, cvc5::internal::NodeTemplate<true>>>, std::less<cvc5::internal::NodeTemplate<true>>>::_Rb_tree_impl" = type { %"struct.std::_Rb_tree_key_compare.105", %"struct.std::_Rb_tree_header" }
%"struct.std::_Rb_tree_key_compare.105" = type { %"struct.std::less.106" }
%"struct.std::less.106" = type { i8 }
%"struct.std::_Rb_tree_const_iterator" = type { ptr }
%"class.std::tuple.452" = type { %"struct.std::_Tuple_impl.453" }
%"struct.std::_Tuple_impl.453" = type { %"struct.std::_Head_base.454" }
%"struct.std::_Head_base.454" = type { ptr }
%"class.std::tuple.455" = type { i8 }
%"struct.std::pair.450" = type { %"class.cvc5::internal::NodeTemplate", %"class.cvc5::internal::NodeTemplate" }
%"class.std::vector.133" = type { %"struct.std::_Vector_base.134" }
%"struct.std::_Vector_base.134" = type { %"struct.std::_Vector_base<cvc5::internal::TypeNode, std::allocator<cvc5::internal::TypeNode>>::_Vector_impl" }
%"struct.std::_Vector_base<cvc5::internal::TypeNode, std::allocator<cvc5::internal::TypeNode>>::_Vector_impl" = type { %"struct.std::_Vector_base<cvc5::internal::TypeNode, std::allocator<cvc5::internal::TypeNode>>::_Vector_impl_data" }
%"struct.std::_Vector_base<cvc5::internal::TypeNode, std::allocator<cvc5::internal::TypeNode>>::_Vector_impl_data" = type { ptr, ptr, ptr }
%"class.__gnu_cxx::__normal_iterator" = type { ptr }
%"class.std::__cxx11::basic_ostringstream" = type { %"class.std::basic_ostream.base", %"class.std::__cxx11::basic_stringbuf", %"class.std::basic_ios" }
%"class.std::unordered_map.459" = type { %"class.std::_Hashtable.460" }
%"class.std::_Hashtable.460" = type { ptr, i64, %"struct.std::__detail::_Hash_node_base", i64, %"struct.std::__detail::_Prime_rehash_policy", ptr }
%"struct.std::_Rb_tree_node" = type { %"struct.std::_Rb_tree_node_base", %"struct.__gnu_cxx::__aligned_membuf" }
%"struct.__gnu_cxx::__aligned_membuf" = type { [56 x i8] }
%"struct.std::pair.354" = type { i64, %"class.std::map.356" }
%"class.std::map.356" = type { %"class.std::_Rb_tree.357" }
%"class.std::_Rb_tree.357" = type { %"struct.std::_Rb_tree<std::pair<long, long>, std::pair<const std::pair<long, long>, unsigned long>, std::_Select1st<std::pair<const std::pair<long, long>, unsigned long>>, std::less<std::pair<long, long>>>::_Rb_tree_impl" }
%"struct.std::_Rb_tree<std::pair<long, long>, std::pair<const std::pair<long, long>, unsigned long>, std::_Select1st<std::pair<const std::pair<long, long>, unsigned long>>, std::less<std::pair<long, long>>>::_Rb_tree_impl" = type { %"struct.std::_Rb_tree_key_compare.361", %"struct.std::_Rb_tree_header" }
%"struct.std::_Rb_tree_key_compare.361" = type { %"struct.std::less.362" }
%"struct.std::less.362" = type { i8 }
%"struct.std::_Rb_tree_node.364" = type { %"struct.std::_Rb_tree_node_base", %"struct.__gnu_cxx::__aligned_membuf.365" }
%"struct.__gnu_cxx::__aligned_membuf.365" = type { [24 x i8] }
%"class.cvc5::context::InsertHashMap" = type { %"class.std::deque", %"class.std::unordered_map.370" }
%"class.std::deque" = type { %"class.std::_Deque_base" }
%"class.std::_Deque_base" = type { %"struct.std::_Deque_base<cvc5::internal::NodeTemplate<true>, std::allocator<cvc5::internal::NodeTemplate<true>>>::_Deque_impl" }
%"struct.std::_Deque_base<cvc5::internal::NodeTemplate<true>, std::allocator<cvc5::internal::NodeTemplate<true>>>::_Deque_impl" = type { %"struct.std::_Deque_base<cvc5::internal::NodeTemplate<true>, std::allocator<cvc5::internal::NodeTemplate<true>>>::_Deque_impl_data" }
%"struct.std::_Deque_base<cvc5::internal::NodeTemplate<true>, std::allocator<cvc5::internal::NodeTemplate<true>>>::_Deque_impl_data" = type { ptr, i64, %"struct.std::_Deque_iterator", %"struct.std::_Deque_iterator" }
%"struct.std::_Deque_iterator" = type { ptr, ptr, ptr, ptr }
%"class.std::unordered_map.370" = type { %"class.std::_Hashtable.371" }
%"class.std::_Hashtable.371" = type { ptr, i64, %"struct.std::__detail::_Hash_node_base", i64, %"struct.std::__detail::_Prime_rehash_policy", ptr }
%"struct.std::__detail::_Hash_node_value_base" = type { %"struct.__gnu_cxx::__aligned_buffer" }
%"struct.__gnu_cxx::__aligned_buffer" = type { %"union.std::aligned_storage<16, 8>::type" }
%"union.std::aligned_storage<16, 8>::type" = type { [16 x i8] }
%"struct.std::pair.388" = type <{ %"class.cvc5::internal::NodeTemplate", i8, [7 x i8] }>
%"class.std::allocator.390" = type { i8 }
%"class.std::allocator.393" = type { i8 }
%"struct.std::__detail::_Node_iterator.409" = type { %"struct.std::__detail::_Node_iterator_base" }
%"struct.std::__detail::_Select1st" = type { i8 }
%"struct.std::__detail::_Mod_range_hashing" = type { i8 }
%"struct.std::__detail::_Hash_node_code_cache" = type { i64 }
%"class.cvc5::internal::OstreamVoider" = type { i8 }
%"class.cvc5::internal::FatalStream" = type { i8 }
%"class.cvc5::internal::Exception" = type { %"class.std::exception", %"class.std::__cxx11::basic_string" }
%"class.std::exception" = type { ptr }
%"struct.std::__detail::_Hash_node_value_base.417" = type { %"struct.__gnu_cxx::__aligned_buffer.418" }
%"struct.__gnu_cxx::__aligned_buffer.418" = type { %"union.std::aligned_storage<8, 8>::type" }
%"union.std::aligned_storage<8, 8>::type" = type { [8 x i8] }
%struct._Guard = type { ptr }
%"class.cvc5::internal::options::ioutils::Scope" = type <{ ptr, i8, [7 x i8], i64, i64, i8, [3 x i8], i32, i32, [4 x i8] }>
%"struct.std::__detail::_Hash_node_value_base.427" = type { %"struct.__gnu_cxx::__aligned_buffer.428" }
%"struct.__gnu_cxx::__aligned_buffer.428" = type { %"union.std::aligned_storage<16, 8>::type" }
%"struct.std::pair.438" = type <{ %"class.cvc5::internal::NodeTemplate", i8, [7 x i8] }>
%"struct.std::pair.435" = type <{ %"struct.std::__detail::_Node_iterator.409", i8, [7 x i8] }>
%"class.cvc5::context::Scope" = type { ptr, ptr, i32, ptr, %"class.std::vector.429" }
%"class.std::vector.429" = type { %"struct.std::_Vector_base.430" }
%"struct.std::_Vector_base.430" = type { %"struct.std::_Vector_base<cvc5::context::ContextObj *, std::allocator<cvc5::context::ContextObj *>>::_Vector_impl" }
%"struct.std::_Vector_base<cvc5::context::ContextObj *, std::allocator<cvc5::context::ContextObj *>>::_Vector_impl" = type { %"struct.std::_Vector_base<cvc5::context::ContextObj *, std::allocator<cvc5::context::ContextObj *>>::_Vector_impl_data" }
%"struct.std::_Vector_base<cvc5::context::ContextObj *, std::allocator<cvc5::context::ContextObj *>>::_Vector_impl_data" = type { ptr, ptr, ptr }
%"class.cvc5::context::Context" = type { ptr, %"class.std::vector", ptr, ptr }
%"class.std::vector" = type { %"struct.std::_Vector_base" }
%"struct.std::_Vector_base" = type { %"struct.std::_Vector_base<cvc5::context::Scope *, std::allocator<cvc5::context::Scope *>>::_Vector_impl" }
%"struct.std::_Vector_base<cvc5::context::Scope *, std::allocator<cvc5::context::Scope *>>::_Vector_impl" = type { %"struct.std::_Vector_base<cvc5::context::Scope *, std::allocator<cvc5::context::Scope *>>::_Vector_impl_data" }
%"struct.std::_Vector_base<cvc5::context::Scope *, std::allocator<cvc5::context::Scope *>>::_Vector_impl_data" = type { ptr, ptr, ptr }
%"class.__gnu_cxx::__normal_iterator.434" = type { ptr }
%"struct.std::_Hashtable<const cvc5::internal::NodeTemplate<true>, std::pair<const cvc5::internal::NodeTemplate<true>, const bool>, std::allocator<std::pair<const cvc5::internal::NodeTemplate<true>, const bool>>, std::__detail::_Select1st, std::equal_to<const cvc5::internal::NodeTemplate<true>>, std::hash<cvc5::internal::Node>, std::__detail::_Mod_range_hashing, std::__detail::_Default_ranged_hash, std::__detail::_Prime_rehash_policy, std::__detail::_Hashtable_traits<true, false, true>>::_Scoped_node" = type { ptr, ptr }
%"struct.std::pair.441" = type { i8, i64 }
%"struct.std::_Hashtable<cvc5::internal::NodeTemplate<true>, std::pair<const cvc5::internal::NodeTemplate<true>, cvc5::context::CDOhash_map<cvc5::internal::NodeTemplate<true>, cvc5::internal::NodeTemplate<true>> *>, std::allocator<std::pair<const cvc5::internal::NodeTemplate<true>, cvc5::context::CDOhash_map<cvc5::internal::NodeTemplate<true>, cvc5::internal::NodeTemplate<true>> *>>, std::__detail::_Select1st, std::equal_to<cvc5::internal::NodeTemplate<true>>, std::hash<cvc5::internal::Node>, std::__detail::_Mod_range_hashing, std::__detail::_Default_ranged_hash, std::__detail::_Prime_rehash_policy, std::__detail::_Hashtable_traits<true, false, true>>::_Scoped_node" = type { ptr, ptr }
%"struct.std::_Select1st" = type { i8 }
%"struct.std::_Rb_tree_node.448" = type { %"struct.std::_Rb_tree_node_base", %"struct.__gnu_cxx::__aligned_membuf.449" }
%"struct.__gnu_cxx::__aligned_membuf.449" = type { [16 x i8] }
%"struct.std::_Rb_tree<cvc5::internal::NodeTemplate<true>, std::pair<const cvc5::internal::NodeTemplate<true>, cvc5::internal::NodeTemplate<true>>, std::_Select1st<std::pair<const cvc5::internal::NodeTemplate<true>, cvc5::internal::NodeTemplate<true>>>, std::less<cvc5::internal::NodeTemplate<true>>>::_Auto_node" = type { ptr, ptr }
%"struct.std::pair.456" = type { ptr, ptr }
%"struct.std::__detail::_Node_const_iterator.478" = type { %"struct.std::__detail::_Node_iterator_base.479" }
%"struct.std::__detail::_Node_iterator_base.479" = type { ptr }
%"struct.std::__detail::_Node_iterator.480" = type { %"struct.std::__detail::_Node_iterator_base.479" }
%"struct.std::pair.481" = type { %"class.cvc5::internal::NodeTemplate.99", %"class.cvc5::internal::NodeTemplate.99" }
%"struct.__gnu_cxx::__ops::_Iter_equals_val" = type { ptr }
%"struct.std::__detail::_Hash_node_value_base.485" = type { %"struct.__gnu_cxx::__aligned_buffer.486" }
%"struct.__gnu_cxx::__aligned_buffer.486" = type { %"union.std::aligned_storage<16, 8>::type" }
%"struct.std::_Hashtable<cvc5::internal::NodeTemplate<false>, std::pair<const cvc5::internal::NodeTemplate<false>, cvc5::internal::NodeTemplate<false>>, std::allocator<std::pair<const cvc5::internal::NodeTemplate<false>, cvc5::internal::NodeTemplate<false>>>, std::__detail::_Select1st, std::equal_to<cvc5::internal::NodeTemplate<false>>, std::hash<cvc5::internal::TNode>, std::__detail::_Mod_range_hashing, std::__detail::_Default_ranged_hash, std::__detail::_Prime_rehash_policy, std::__detail::_Hashtable_traits<true, false, true>>::_Scoped_node" = type { ptr, ptr }
%"class.std::tuple.487" = type { %"struct.std::_Tuple_impl.488" }
%"struct.std::_Tuple_impl.488" = type { %"struct.std::_Head_base.489" }
%"struct.std::_Head_base.489" = type { ptr }

$_ZN4cvc57context9CDHashMapINS_8internal12NodeTemplateILb1EEES4_St4hashIS4_EEC2EPNS0_7ContextE = comdat any

$_ZN4cvc57context9CDHashSetINS_8internal12NodeTemplateILb1EEESt4hashIS4_EEC2EPNS0_7ContextE = comdat any

$_ZN4cvc58internal12NodeTemplateILb1EEC2Ev = comdat any

$_ZN4cvc58internal8RationalC2Ei = comdat any

$_ZN4cvc58internal12NodeTemplateILb1EEaSERKS2_ = comdat any

$_ZN4cvc58internal12NodeTemplateILb1EED2Ev = comdat any

$_ZN4cvc58internal8RationalD2Ev = comdat any

$_ZN4cvc58internal6theory5arith2nl9IAndUtilsD2Ev = comdat any

$_ZN4cvc57context9CDHashSetINS_8internal12NodeTemplateILb1EEESt4hashIS4_EED2Ev = comdat any

$_ZN4cvc57context9CDHashMapINS_8internal12NodeTemplateILb1EEES4_St4hashIS4_EED2Ev = comdat any

$_ZN4cvc58internal6EnvObjD2Ev = comdat any

$_ZN4cvc58internal12NodeTemplateILb1EEC2ERKS2_ = comdat any

$_ZN4cvc58internal11__cvc5_truecvbEv = comdat any

$_ZNK4cvc58internal5NullCcvNS0_11Cvc5ostreamEEv = comdat any

$_ZNK4cvc58internal6TraceCclEv = comdat any

$_ZN4cvc58internal11Cvc5ostreamlsIA28_cEERS1_RKT_ = comdat any

$_ZN4cvc58internal11Cvc5ostreamlsINS0_12NodeTemplateILb1EEEEERS1_RKT_ = comdat any

$_ZN4cvc58internal11Cvc5ostreamlsEPFRSoS2_E = comdat any

$_ZNK4cvc57context9CDHashSetINS_8internal12NodeTemplateILb1EEESt4hashIS4_EE4findERKS4_ = comdat any

$_ZNK4cvc57context9CDHashSetINS_8internal12NodeTemplateILb1EEESt4hashIS4_EE14const_iteratoreqERKS8_ = comdat any

$_ZNK4cvc57context9CDHashSetINS_8internal12NodeTemplateILb1EEESt4hashIS4_EE3endEv = comdat any

$_ZN4cvc58internal11Cvc5ostreamlsIA44_cEERS1_RKT_ = comdat any

$_ZN4cvc57context9CDHashSetINS_8internal12NodeTemplateILb1EEESt4hashIS4_EE6insertERKS4_ = comdat any

$_ZNSt6vectorIN4cvc58internal12NodeTemplateILb1EEESaIS3_EE9push_backERKS3_ = comdat any

$_ZN4cvc58internal11Cvc5ostreamlsIA47_cEERS1_RKT_ = comdat any

$_ZN4cvc58internal11NodeManager6mkNodeENS0_4kind6Kind_tENS0_12NodeTemplateILb0EEES5_ = comdat any

$_ZN4cvc58internal12NodeTemplateILb0EEC2ERKNS1_ILb1EEE = comdat any

$_ZN4cvc58internal12NodeTemplateILb0EED2Ev = comdat any

$_ZNK4cvc58internal8RationalmiERKS1_ = comdat any

$_ZNK4cvc57context9CDHashMapINS_8internal12NodeTemplateILb1EEES4_St4hashIS4_EE4findERKS4_ = comdat any

$_ZNK4cvc57context9CDHashMapINS_8internal12NodeTemplateILb1EEES4_St4hashIS4_EE8iteratorneERKS8_ = comdat any

$_ZNK4cvc57context9CDHashMapINS_8internal12NodeTemplateILb1EEES4_St4hashIS4_EE3endEv = comdat any

$_ZN4cvc57context9CDHashMapINS_8internal12NodeTemplateILb1EEES4_St4hashIS4_EEixERKS4_ = comdat any

$_ZN4cvc57context11CDOhash_mapINS_8internal12NodeTemplateILb1EEES4_St4hashIS4_EEcvS4_Ev = comdat any

$_ZNK4cvc58internal12NodeTemplateILb1EE14getNumChildrenEv = comdat any

$_ZNK4cvc58internal12NodeTemplateILb1EE7getKindEv = comdat any

$_ZNK4cvc58internal12NodeTemplateILb1EEixEi = comdat any

$_ZN4cvc57context11CDOhash_mapINS_8internal12NodeTemplateILb1EEES4_St4hashIS4_EEaSERKS4_ = comdat any

$_ZN4cvc58internal11Cvc5ostreamlsIA22_cEERS1_RKT_ = comdat any

$_ZNSt6vectorIN4cvc58internal12NodeTemplateILb1EEESaIS3_EEC2Ev = comdat any

$_ZNSt6vectorIN4cvc58internal12NodeTemplateILb1EEESaIS3_EE9push_backEOS3_ = comdat any

$_ZNKSt6vectorIN4cvc58internal12NodeTemplateILb1EEESaIS3_EE5emptyEv = comdat any

$_ZNSt6vectorIN4cvc58internal12NodeTemplateILb1EEESaIS3_EE4backEv = comdat any

$_ZN4cvc58internal11Cvc5ostreamlsIA10_cEERS1_RKT_ = comdat any

$_ZNK4cvc57context9CDHashMapINS_8internal12NodeTemplateILb1EEES4_St4hashIS4_EE8iteratoreqERKS8_ = comdat any

$_ZN4cvc58internal12NodeTemplateILb1EE5beginEv = comdat any

$_ZN4cvc58internal12NodeTemplateILb1EE3endEv = comdat any

$_ZNK4cvc58internal4expr9NodeValue8iteratorINS0_12NodeTemplateILb1EEEEneERKS6_ = comdat any

$_ZNK4cvc58internal4expr9NodeValue8iteratorINS0_12NodeTemplateILb1EEEEdeEv = comdat any

$_ZN4cvc58internal4expr9NodeValue8iteratorINS0_12NodeTemplateILb1EEEEppEv = comdat any

$_ZNK4cvc58internal12NodeTemplateILb1EE11getOperatorEv = comdat any

$_ZNK4cvc57context11CDOhash_mapINS_8internal12NodeTemplateILb1EEES4_St4hashIS4_EE3getEv = comdat any

$_ZNK4cvc58internal12NodeTemplateILb1EE6isNullEv = comdat any

$_ZNSt6vectorIN4cvc58internal12NodeTemplateILb1EEESaIS3_EE8pop_backEv = comdat any

$_ZNSt6vectorIN4cvc58internal12NodeTemplateILb1EEESaIS3_EED2Ev = comdat any

$_ZNSt7__cxx1112basic_stringIcSt11char_traitsIcESaIcEEC2IS3_EEPKcRKS3_ = comdat any

$_ZN4cvc58internal15OptionExceptionC2ERKNSt7__cxx1112basic_stringIcSt11char_traitsIcESaIcEEE = comdat any

$_ZN4cvc58internal15OptionExceptionD2Ev = comdat any

$_ZNK4cvc58internal12NodeTemplateILb1EE7getTypeEb = comdat any

$_ZN4cvc58internal8TypeNodeD2Ev = comdat any

$_ZNKSt6vectorIN4cvc58internal12NodeTemplateILb1EEESaIS3_EEixEm = comdat any

$_ZN4cvc58internal11NodeManager6mkNodeILb1EEENS0_12NodeTemplateILb1EEENS0_4kind6Kind_tERKSt6vectorINS3_IXT_EEESaIS8_EE = comdat any

$_ZN4cvc58internal11NodeManager6mkNodeENS0_4kind6Kind_tENS0_12NodeTemplateILb0EEES5_S5_ = comdat any

$_ZNK4cvc58internal12NodeTemplateILb1EE8getConstINS0_14IntToBitVectorEEERKT_v = comdat any

$_ZNSt6vectorIN4cvc58internal12NodeTemplateILb1EEESaIS3_EEC2ERKS5_ = comdat any

$_ZNSaIN4cvc58internal12NodeTemplateILb1EEEEC2Ev = comdat any

$_ZNSt6vectorIN4cvc58internal12NodeTemplateILb1EEESaIS3_EEC2ESt16initializer_listIS3_ERKS4_ = comdat any

$_ZNSaIN4cvc58internal12NodeTemplateILb1EEEED2Ev = comdat any

$_ZN4cvc58internal8TypeNodeC2Ev = comdat any

$_ZN4cvc58internal8TypeNodeaSERKS1_ = comdat any

$_ZN4cvc58internal8TypeNodeC2ERKS1_ = comdat any

$_ZN4cvc58internal11Cvc5ostreamlsIA11_cEERS1_RKT_ = comdat any

$_ZN4cvc58internal11Cvc5ostreamlsIA13_cEERS1_RKT_ = comdat any

$_ZNK4cvc58internal12NodeTemplateILb1EE8getConstINS0_8RationalEEERKT_v = comdat any

$_ZN4cvc58internal8RationalC2ERKS1_ = comdat any

$_ZNK4cvc58internal8RationalltERKS1_ = comdat any

$_ZNK4cvc58internal8RationalmlERKS1_ = comdat any

$_ZNK4cvc58internal8RationalplERKS1_ = comdat any

$_ZN4cvc58internal11Cvc5ostreamlsIA19_cEERS1_RKT_ = comdat any

$_ZN4cvc58internal11Cvc5ostreamlsIA12_cEERS1_RKT_ = comdat any

$_ZN4cvc58internal11Cvc5ostreamlsINS0_8TypeNodeEEERS1_RKT_ = comdat any

$_ZNK4cvc58internal12NodeTemplateILb1EE5isVarEv = comdat any

$_ZN4cvc58internallsERSoNS0_12NodeTemplateILb0EEE = comdat any

$_ZStplIcSt11char_traitsIcESaIcEENSt7__cxx1112basic_stringIT_T0_T1_EEOS8_PKS5_ = comdat any

$_ZN4cvc58internal11NodeManager16getSkolemManagerEv = comdat any

$_ZSteqRKSt17_Rb_tree_iteratorISt4pairIKN4cvc58internal12NodeTemplateILb1EEES4_EES9_ = comdat any

$_ZNSt3mapIN4cvc58internal12NodeTemplateILb1EEES3_St4lessIS3_ESaISt4pairIKS3_S3_EEE4findERS7_ = comdat any

$_ZNSt3mapIN4cvc58internal12NodeTemplateILb1EEES3_St4lessIS3_ESaISt4pairIKS3_S3_EEE3endEv = comdat any

$_ZNSt3mapIN4cvc58internal12NodeTemplateILb1EEES3_St4lessIS3_ESaISt4pairIKS3_S3_EEEixERS7_ = comdat any

$_ZNK4cvc58internal8TypeNode10isFunctionEv = comdat any

$_ZNK4cvc58internal12NodeTemplateILb1EE8getConstINS0_9BitVectorEEERKT_v = comdat any

$_ZN4cvc58internal9BitVectorC2ERKS1_ = comdat any

$_ZN4cvc58internal7IntegerC2Ei = comdat any

$_ZN4cvc58internal8RationalC2ERKNS0_7IntegerES4_ = comdat any

$_ZN4cvc58internal7IntegerD2Ev = comdat any

$_ZN4cvc58internal9BitVectorD2Ev = comdat any

$_ZNSt6vectorIN4cvc58internal8TypeNodeESaIS2_EEC2Ev = comdat any

$_ZNSt6vectorIN4cvc58internal8TypeNodeESaIS2_EE5beginEv = comdat any

$_ZNSt6vectorIN4cvc58internal8TypeNodeESaIS2_EE3endEv = comdat any

$_ZN9__gnu_cxxneIPN4cvc58internal8TypeNodeESt6vectorIS3_SaIS3_EEEEbRKNS_17__normal_iteratorIT_T0_EESD_ = comdat any

$_ZNK9__gnu_cxx17__normal_iteratorIPN4cvc58internal8TypeNodeESt6vectorIS3_SaIS3_EEEdeEv = comdat any

$_ZNSt6vectorIN4cvc58internal8TypeNodeESaIS2_EE9push_backERKS2_ = comdat any

$_ZN9__gnu_cxx17__normal_iteratorIPN4cvc58internal8TypeNodeESt6vectorIS3_SaIS3_EEEppEv = comdat any

$_ZNSt6vectorIN4cvc58internal12NodeTemplateILb1EEESaIS3_EEixEm = comdat any

$_ZNSt6vectorIN4cvc58internal8TypeNodeESaIS2_EED2Ev = comdat any

$_ZNK4cvc58internal8TypeNodeneERKS1_ = comdat any

$_ZNK4cvc58internal8TypeNodeeqERKS1_ = comdat any

$_ZN4cvc58internal11Cvc5ostreamlsIA17_cEERS1_RKT_ = comdat any

$_ZN4cvc58internal11Cvc5ostreamlsIA5_cEERS1_RKT_ = comdat any

$_ZN4cvc58internal14IntToBitVectorC2Ej = comdat any

$_ZN4cvc58internal11NodeManager6mkNodeENS0_12NodeTemplateILb0EEES3_ = comdat any

$_ZN4cvc58internal11NodeManager6mkNodeENS0_4kind6Kind_tENS0_12NodeTemplateILb0EEE = comdat any

$_ZNK4cvc58internal12NodeTemplateILb1EE11getMetaKindEv = comdat any

$_ZN4cvc58internal7IntegerC2Ej = comdat any

$_ZNSt13unordered_setIN4cvc58internal12NodeTemplateILb1EEESt4hashIS3_ESt8equal_toIS3_ESaIS3_EEC2Ev = comdat any

$_ZNSt13unordered_setIN4cvc58internal12NodeTemplateILb1EEESt4hashIS3_ESt8equal_toIS3_ESaIS3_EE5beginEv = comdat any

$_ZNSt13unordered_setIN4cvc58internal12NodeTemplateILb1EEESt4hashIS3_ESt8equal_toIS3_ESaIS3_EE3endEv = comdat any

$_ZNSt8__detailneERKNS_19_Node_iterator_baseIN4cvc58internal12NodeTemplateILb1EEELb1EEES7_ = comdat any

$_ZNKSt8__detail14_Node_iteratorIN4cvc58internal12NodeTemplateILb1EEELb1ELb1EEdeEv = comdat any

$_ZN4cvc58internal11Cvc5ostreamlsIA23_cEERS1_RKT_ = comdat any

$_ZNSt8__detail14_Node_iteratorIN4cvc58internal12NodeTemplateILb1EEELb1ELb1EEppEv = comdat any

$_ZNK4cvc58internal12NodeTemplateILb1EE10substituteIN9__gnu_cxx17__normal_iteratorIPS2_St6vectorIS2_SaIS2_EEEESA_EES2_T_SB_T0_SC_ = comdat any

$_ZNSt6vectorIN4cvc58internal12NodeTemplateILb1EEESaIS3_EE5beginEv = comdat any

$_ZNSt6vectorIN4cvc58internal12NodeTemplateILb1EEESaIS3_EE3endEv = comdat any

$_ZN4cvc58internal11NodeManager5mkAndILb1EEENS0_12NodeTemplateILb1EEERKSt6vectorINS3_IXT_EEESaIS6_EE = comdat any

$_ZNSt13unordered_setIN4cvc58internal12NodeTemplateILb1EEESt4hashIS3_ESt8equal_toIS3_ESaIS3_EED2Ev = comdat any

$_ZN4cvc58internal6IntAndC2Ej = comdat any

$_ZNK4cvc58internal12NodeTemplateILb1EE6eqNodeILb1EEES2_RKNS1_IXT_EEE = comdat any

$_ZN10__gmp_exprIA1_12__mpz_structS1_EC2Ei = comdat any

$_ZN10__gmp_exprIA1_12__mpq_structS1_EC2ERKS_IA1_12__mpz_structS4_ES7_ = comdat any

$_ZN10__gmp_exprIA1_12__mpz_structS1_ED2Ev = comdat any

$_ZN10__gmp_exprIA1_12__mpq_structS1_E12canonicalizeEv = comdat any

$_ZN10__gmp_exprIA1_12__mpq_structS1_ED2Ev = comdat any

$_ZN10__gmp_exprIA1_12__mpz_structS1_E7init_siEl = comdat any

$_ZN10__gmp_exprIA1_12__mpz_structS1_E7init_uiEm = comdat any

$_ZNK10__gmp_exprIA1_12__mpz_structS1_E9get_mpz_tEv = comdat any

$__clang_call_terminate = comdat any

$_ZNSt3mapImS_ISt4pairIllEmSt4lessIS1_ESaIS0_IKS1_mEEES2_ImESaIS0_IKmS7_EEED2Ev = comdat any

$_ZNSt8_Rb_treeImSt4pairIKmSt3mapIS0_IllEmSt4lessIS3_ESaIS0_IKS3_mEEEESt10_Select1stISA_ES4_ImESaISA_EED2Ev = comdat any

$_ZNSt8_Rb_treeImSt4pairIKmSt3mapIS0_IllEmSt4lessIS3_ESaIS0_IKS3_mEEEESt10_Select1stISA_ES4_ImESaISA_EE8_M_eraseEPSt13_Rb_tree_nodeISA_E = comdat any

$_ZNSt8_Rb_treeImSt4pairIKmSt3mapIS0_IllEmSt4lessIS3_ESaIS0_IKS3_mEEEESt10_Select1stISA_ES4_ImESaISA_EE8_M_beginEv = comdat any

$_ZNSt8_Rb_treeImSt4pairIKmSt3mapIS0_IllEmSt4lessIS3_ESaIS0_IKS3_mEEEESt10_Select1stISA_ES4_ImESaISA_EE13_Rb_tree_implISD_Lb1EED2Ev = comdat any

$_ZNSt8_Rb_treeImSt4pairIKmSt3mapIS0_IllEmSt4lessIS3_ESaIS0_IKS3_mEEEESt10_Select1stISA_ES4_ImESaISA_EE8_S_rightEPSt18_Rb_tree_node_base = comdat any

$_ZNSt8_Rb_treeImSt4pairIKmSt3mapIS0_IllEmSt4lessIS3_ESaIS0_IKS3_mEEEESt10_Select1stISA_ES4_ImESaISA_EE7_S_leftEPSt18_Rb_tree_node_base = comdat any

$_ZNSt8_Rb_treeImSt4pairIKmSt3mapIS0_IllEmSt4lessIS3_ESaIS0_IKS3_mEEEESt10_Select1stISA_ES4_ImESaISA_EE12_M_drop_nodeEPSt13_Rb_tree_nodeISA_E = comdat any

$_ZNSt8_Rb_treeImSt4pairIKmSt3mapIS0_IllEmSt4lessIS3_ESaIS0_IKS3_mEEEESt10_Select1stISA_ES4_ImESaISA_EE15_M_destroy_nodeEPSt13_Rb_tree_nodeISA_E = comdat any

$_ZNSt8_Rb_treeImSt4pairIKmSt3mapIS0_IllEmSt4lessIS3_ESaIS0_IKS3_mEEEESt10_Select1stISA_ES4_ImESaISA_EE11_M_put_nodeEPSt13_Rb_tree_nodeISA_E = comdat any

$_ZNSt16allocator_traitsISaISt13_Rb_tree_nodeISt4pairIKmSt3mapIS1_IllEmSt4lessIS4_ESaIS1_IKS4_mEEEEEEE7destroyISB_EEvRSD_PT_ = comdat any

$_ZNSt8_Rb_treeImSt4pairIKmSt3mapIS0_IllEmSt4lessIS3_ESaIS0_IKS3_mEEEESt10_Select1stISA_ES4_ImESaISA_EE21_M_get_Node_allocatorEv = comdat any

$_ZNSt13_Rb_tree_nodeISt4pairIKmSt3mapIS0_IllEmSt4lessIS3_ESaIS0_IKS3_mEEEEE9_M_valptrEv = comdat any

$_ZNSt15__new_allocatorISt13_Rb_tree_nodeISt4pairIKmSt3mapIS1_IllEmSt4lessIS4_ESaIS1_IKS4_mEEEEEE7destroyISB_EEvPT_ = comdat any

$_ZNSt4pairIKmSt3mapIS_IllEmSt4lessIS2_ESaIS_IKS2_mEEEED2Ev = comdat any

$_ZNSt3mapISt4pairIllEmSt4lessIS1_ESaIS0_IKS1_mEEED2Ev = comdat any

$_ZNSt8_Rb_treeISt4pairIllES0_IKS1_mESt10_Select1stIS3_ESt4lessIS1_ESaIS3_EED2Ev = comdat any

$_ZNSt8_Rb_treeISt4pairIllES0_IKS1_mESt10_Select1stIS3_ESt4lessIS1_ESaIS3_EE8_M_eraseEPSt13_Rb_tree_nodeIS3_E = comdat any

$_ZNSt8_Rb_treeISt4pairIllES0_IKS1_mESt10_Select1stIS3_ESt4lessIS1_ESaIS3_EE8_M_beginEv = comdat any

$_ZNSt8_Rb_treeISt4pairIllES0_IKS1_mESt10_Select1stIS3_ESt4lessIS1_ESaIS3_EE13_Rb_tree_implIS7_Lb1EED2Ev = comdat any

$_ZNSt8_Rb_treeISt4pairIllES0_IKS1_mESt10_Select1stIS3_ESt4lessIS1_ESaIS3_EE8_S_rightEPSt18_Rb_tree_node_base = comdat any

$_ZNSt8_Rb_treeISt4pairIllES0_IKS1_mESt10_Select1stIS3_ESt4lessIS1_ESaIS3_EE7_S_leftEPSt18_Rb_tree_node_base = comdat any

$_ZNSt8_Rb_treeISt4pairIllES0_IKS1_mESt10_Select1stIS3_ESt4lessIS1_ESaIS3_EE12_M_drop_nodeEPSt13_Rb_tree_nodeIS3_E = comdat any

$_ZNSt8_Rb_treeISt4pairIllES0_IKS1_mESt10_Select1stIS3_ESt4lessIS1_ESaIS3_EE15_M_destroy_nodeEPSt13_Rb_tree_nodeIS3_E = comdat any

$_ZNSt8_Rb_treeISt4pairIllES0_IKS1_mESt10_Select1stIS3_ESt4lessIS1_ESaIS3_EE11_M_put_nodeEPSt13_Rb_tree_nodeIS3_E = comdat any

$_ZNSt16allocator_traitsISaISt13_Rb_tree_nodeISt4pairIKS1_IllEmEEEE7destroyIS4_EEvRS6_PT_ = comdat any

$_ZNSt8_Rb_treeISt4pairIllES0_IKS1_mESt10_Select1stIS3_ESt4lessIS1_ESaIS3_EE21_M_get_Node_allocatorEv = comdat any

$_ZNSt13_Rb_tree_nodeISt4pairIKS0_IllEmEE9_M_valptrEv = comdat any

$_ZNSt15__new_allocatorISt13_Rb_tree_nodeISt4pairIKS1_IllEmEEE7destroyIS4_EEvPT_ = comdat any

$_ZN9__gnu_cxx16__aligned_membufISt4pairIKS1_IllEmEE6_M_ptrEv = comdat any

$_ZN9__gnu_cxx16__aligned_membufISt4pairIKS1_IllEmEE7_M_addrEv = comdat any

$_ZNSt16allocator_traitsISaISt13_Rb_tree_nodeISt4pairIKS1_IllEmEEEE10deallocateERS6_PS5_m = comdat any

$_ZNSt15__new_allocatorISt13_Rb_tree_nodeISt4pairIKS1_IllEmEEE10deallocateEPS5_m = comdat any

$_ZNKSt8_Rb_treeISt4pairIllES0_IKS1_mESt10_Select1stIS3_ESt4lessIS1_ESaIS3_EE9_M_mbeginEv = comdat any

$_ZNSaISt13_Rb_tree_nodeISt4pairIKS0_IllEmEEED2Ev = comdat any

$_ZNSt15__new_allocatorISt13_Rb_tree_nodeISt4pairIKS1_IllEmEEED2Ev = comdat any

$_ZN9__gnu_cxx16__aligned_membufISt4pairIKmSt3mapIS1_IllEmSt4lessIS4_ESaIS1_IKS4_mEEEEE6_M_ptrEv = comdat any

$_ZN9__gnu_cxx16__aligned_membufISt4pairIKmSt3mapIS1_IllEmSt4lessIS4_ESaIS1_IKS4_mEEEEE7_M_addrEv = comdat any

$_ZNSt16allocator_traitsISaISt13_Rb_tree_nodeISt4pairIKmSt3mapIS1_IllEmSt4lessIS4_ESaIS1_IKS4_mEEEEEEE10deallocateERSD_PSC_m = comdat any

$_ZNSt15__new_allocatorISt13_Rb_tree_nodeISt4pairIKmSt3mapIS1_IllEmSt4lessIS4_ESaIS1_IKS4_mEEEEEE10deallocateEPSC_m = comdat any

$_ZNKSt8_Rb_treeImSt4pairIKmSt3mapIS0_IllEmSt4lessIS3_ESaIS0_IKS3_mEEEESt10_Select1stISA_ES4_ImESaISA_EE9_M_mbeginEv = comdat any

$_ZNSaISt13_Rb_tree_nodeISt4pairIKmSt3mapIS0_IllEmSt4lessIS3_ESaIS0_IKS3_mEEEEEED2Ev = comdat any

$_ZNSt15__new_allocatorISt13_Rb_tree_nodeISt4pairIKmSt3mapIS1_IllEmSt4lessIS4_ESaIS1_IKS4_mEEEEEED2Ev = comdat any

$_ZN4cvc57context13InsertHashMapINS_8internal12NodeTemplateILb1EEEbSt4hashIS4_EED2Ev = comdat any

$_ZN4cvc57context15CDInsertHashMapINS_8internal12NodeTemplateILb1EEEbSt4hashIS4_EE4saveEPNS0_20ContextMemoryManagerE = comdat any

$_ZN4cvc57context15CDInsertHashMapINS_8internal12NodeTemplateILb1EEEbSt4hashIS4_EE7restoreEPNS0_10ContextObjE = comdat any

$_ZN4cvc57context15CDInsertHashMapINS_8internal12NodeTemplateILb1EEEbSt4hashIS4_EED2Ev = comdat any

$_ZN4cvc57context15CDInsertHashMapINS_8internal12NodeTemplateILb1EEEbSt4hashIS4_EED0Ev = comdat any

$_ZNSt13unordered_mapIKN4cvc58internal12NodeTemplateILb1EEEKbSt4hashIS3_ESt8equal_toIS4_ESaISt4pairIS4_S5_EEED2Ev = comdat any

$_ZNSt5dequeIN4cvc58internal12NodeTemplateILb1EEESaIS3_EED2Ev = comdat any

$_ZNSt10_HashtableIKN4cvc58internal12NodeTemplateILb1EEESt4pairIS4_KbESaIS7_ENSt8__detail10_Select1stESt8equal_toIS4_ESt4hashIS3_ENS9_18_Mod_range_hashingENS9_20_Default_ranged_hashENS9_20_Prime_rehash_policyENS9_17_Hashtable_traitsILb1ELb0ELb1EEEED2Ev = comdat any

$_ZNSt10_HashtableIKN4cvc58internal12NodeTemplateILb1EEESt4pairIS4_KbESaIS7_ENSt8__detail10_Select1stESt8equal_toIS4_ESt4hashIS3_ENS9_18_Mod_range_hashingENS9_20_Default_ranged_hashENS9_20_Prime_rehash_policyENS9_17_Hashtable_traitsILb1ELb0ELb1EEEE5clearEv = comdat any

$_ZNSt10_HashtableIKN4cvc58internal12NodeTemplateILb1EEESt4pairIS4_KbESaIS7_ENSt8__detail10_Select1stESt8equal_toIS4_ESt4hashIS3_ENS9_18_Mod_range_hashingENS9_20_Default_ranged_hashENS9_20_Prime_rehash_policyENS9_17_Hashtable_traitsILb1ELb0ELb1EEEE21_M_deallocate_bucketsEv = comdat any

$_ZNSt8__detail16_Hashtable_allocISaINS_10_Hash_nodeISt4pairIKN4cvc58internal12NodeTemplateILb1EEEKbELb1EEEEED2Ev = comdat any

$_ZNSt8__detail16_Hashtable_allocISaINS_10_Hash_nodeISt4pairIKN4cvc58internal12NodeTemplateILb1EEEKbELb1EEEEE19_M_deallocate_nodesEPSA_ = comdat any

$_ZNKSt10_HashtableIKN4cvc58internal12NodeTemplateILb1EEESt4pairIS4_KbESaIS7_ENSt8__detail10_Select1stESt8equal_toIS4_ESt4hashIS3_ENS9_18_Mod_range_hashingENS9_20_Default_ranged_hashENS9_20_Prime_rehash_policyENS9_17_Hashtable_traitsILb1ELb0ELb1EEEE8_M_beginEv = comdat any

$_ZNKSt8__detail10_Hash_nodeISt4pairIKN4cvc58internal12NodeTemplateILb1EEEKbELb1EE7_M_nextEv = comdat any

$_ZNSt8__detail16_Hashtable_allocISaINS_10_Hash_nodeISt4pairIKN4cvc58internal12NodeTemplateILb1EEEKbELb1EEEEE18_M_deallocate_nodeEPSA_ = comdat any

$_ZNSt16allocator_traitsISaINSt8__detail10_Hash_nodeISt4pairIKN4cvc58internal12NodeTemplateILb1EEEKbELb1EEEEE7destroyIS9_EEvRSB_PT_ = comdat any

$_ZNSt8__detail16_Hashtable_allocISaINS_10_Hash_nodeISt4pairIKN4cvc58internal12NodeTemplateILb1EEEKbELb1EEEEE17_M_node_allocatorEv = comdat any

$_ZNSt8__detail21_Hash_node_value_baseISt4pairIKN4cvc58internal12NodeTemplateILb1EEEKbEE9_M_valptrEv = comdat any

$_ZNSt8__detail16_Hashtable_allocISaINS_10_Hash_nodeISt4pairIKN4cvc58internal12NodeTemplateILb1EEEKbELb1EEEEE22_M_deallocate_node_ptrEPSA_ = comdat any

$_ZNSt15__new_allocatorINSt8__detail10_Hash_nodeISt4pairIKN4cvc58internal12NodeTemplateILb1EEEKbELb1EEEE7destroyIS9_EEvPT_ = comdat any

$_ZNSt4pairIKN4cvc58internal12NodeTemplateILb1EEEKbED2Ev = comdat any

$_ZNSt8__detail21_Hashtable_ebo_helperILi0ESaINS_10_Hash_nodeISt4pairIKN4cvc58internal12NodeTemplateILb1EEEKbELb1EEEELb1EE6_M_getEv = comdat any

$_ZN9__gnu_cxx16__aligned_bufferISt4pairIKN4cvc58internal12NodeTemplateILb1EEEKbEE6_M_ptrEv = comdat any

$_ZN9__gnu_cxx16__aligned_bufferISt4pairIKN4cvc58internal12NodeTemplateILb1EEEKbEE7_M_addrEv = comdat any

$_ZNSt19__ptr_traits_ptr_toIPNSt8__detail10_Hash_nodeISt4pairIKN4cvc58internal12NodeTemplateILb1EEEKbELb1EEESA_Lb0EE10pointer_toERSA_ = comdat any

$_ZNSt16allocator_traitsISaINSt8__detail10_Hash_nodeISt4pairIKN4cvc58internal12NodeTemplateILb1EEEKbELb1EEEEE10deallocateERSB_PSA_m = comdat any

$_ZNSt15__new_allocatorINSt8__detail10_Hash_nodeISt4pairIKN4cvc58internal12NodeTemplateILb1EEEKbELb1EEEE10deallocateEPSA_m = comdat any

$_ZNSt10_HashtableIKN4cvc58internal12NodeTemplateILb1EEESt4pairIS4_KbESaIS7_ENSt8__detail10_Select1stESt8equal_toIS4_ESt4hashIS3_ENS9_18_Mod_range_hashingENS9_20_Default_ranged_hashENS9_20_Prime_rehash_policyENS9_17_Hashtable_traitsILb1ELb0ELb1EEEE21_M_deallocate_bucketsEPPNS9_15_Hash_node_baseEm = comdat any

$_ZNKSt10_HashtableIKN4cvc58internal12NodeTemplateILb1EEESt4pairIS4_KbESaIS7_ENSt8__detail10_Select1stESt8equal_toIS4_ESt4hashIS3_ENS9_18_Mod_range_hashingENS9_20_Default_ranged_hashENS9_20_Prime_rehash_policyENS9_17_Hashtable_traitsILb1ELb0ELb1EEEE21_M_uses_single_bucketEPPNS9_15_Hash_node_baseE = comdat any

$_ZNSt8__detail16_Hashtable_allocISaINS_10_Hash_nodeISt4pairIKN4cvc58internal12NodeTemplateILb1EEEKbELb1EEEEE21_M_deallocate_bucketsEPPNS_15_Hash_node_baseEm = comdat any

$_ZNSt19__ptr_traits_ptr_toIPPNSt8__detail15_Hash_node_baseES2_Lb0EE10pointer_toERS2_ = comdat any

$_ZNSaIPNSt8__detail15_Hash_node_baseEEC2INS_10_Hash_nodeISt4pairIKN4cvc58internal12NodeTemplateILb1EEEKbELb1EEEEERKSaIT_E = comdat any

$_ZNSt16allocator_traitsISaIPNSt8__detail15_Hash_node_baseEEE10deallocateERS3_PS2_m = comdat any

$_ZNSaIPNSt8__detail15_Hash_node_baseEED2Ev = comdat any

$_ZNSt15__new_allocatorIPNSt8__detail15_Hash_node_baseEEC2Ev = comdat any

$_ZNSt15__new_allocatorIPNSt8__detail15_Hash_node_baseEE10deallocateEPS2_m = comdat any

$_ZNSt15__new_allocatorIPNSt8__detail15_Hash_node_baseEED2Ev = comdat any

$_ZNSt8__detail21_Hashtable_ebo_helperILi0ESaINS_10_Hash_nodeISt4pairIKN4cvc58internal12NodeTemplateILb1EEEKbELb1EEEELb1EED2Ev = comdat any

$_ZNSaINSt8__detail10_Hash_nodeISt4pairIKN4cvc58internal12NodeTemplateILb1EEEKbELb1EEEED2Ev = comdat any

$_ZNSt15__new_allocatorINSt8__detail10_Hash_nodeISt4pairIKN4cvc58internal12NodeTemplateILb1EEEKbELb1EEEED2Ev = comdat any

$_ZNSt5dequeIN4cvc58internal12NodeTemplateILb1EEESaIS3_EE15_M_destroy_dataESt15_Deque_iteratorIS3_RS3_PS3_ES9_RKS4_ = comdat any

$_ZNSt5dequeIN4cvc58internal12NodeTemplateILb1EEESaIS3_EE5beginEv = comdat any

$_ZNSt5dequeIN4cvc58internal12NodeTemplateILb1EEESaIS3_EE3endEv = comdat any

$_ZNSt11_Deque_baseIN4cvc58internal12NodeTemplateILb1EEESaIS3_EE19_M_get_Tp_allocatorEv = comdat any

$_ZNSt11_Deque_baseIN4cvc58internal12NodeTemplateILb1EEESaIS3_EED2Ev = comdat any

$_ZNSt5dequeIN4cvc58internal12NodeTemplateILb1EEESaIS3_EE19_M_destroy_data_auxESt15_Deque_iteratorIS3_RS3_PS3_ES9_ = comdat any

$_ZNSt15_Deque_iteratorIN4cvc58internal12NodeTemplateILb1EEERS3_PS3_EC2ERKS6_ = comdat any

$_ZSt8_DestroyIPN4cvc58internal12NodeTemplateILb1EEES3_EvT_S5_RSaIT0_E = comdat any

$_ZNSt5dequeIN4cvc58internal12NodeTemplateILb1EEESaIS3_EE14_S_buffer_sizeEv = comdat any

$_ZSt8_DestroyIPN4cvc58internal12NodeTemplateILb1EEEEvT_S5_ = comdat any

$_ZNSt12_Destroy_auxILb0EE9__destroyIPN4cvc58internal12NodeTemplateILb1EEEEEvT_S7_ = comdat any

$_ZSt8_DestroyIN4cvc58internal12NodeTemplateILb1EEEEvPT_ = comdat any

$_ZSt16__deque_buf_sizem = comdat any

$_ZNSt11_Deque_baseIN4cvc58internal12NodeTemplateILb1EEESaIS3_EE16_M_destroy_nodesEPPS3_S7_ = comdat any

$_ZNSt11_Deque_baseIN4cvc58internal12NodeTemplateILb1EEESaIS3_EE17_M_deallocate_mapEPPS3_m = comdat any

$_ZNSt11_Deque_baseIN4cvc58internal12NodeTemplateILb1EEESaIS3_EE11_Deque_implD2Ev = comdat any

$_ZNSt11_Deque_baseIN4cvc58internal12NodeTemplateILb1EEESaIS3_EE18_M_deallocate_nodeEPS3_ = comdat any

$_ZNSt16allocator_traitsISaIN4cvc58internal12NodeTemplateILb1EEEEE10deallocateERS4_PS3_m = comdat any

$_ZNSt15__new_allocatorIN4cvc58internal12NodeTemplateILb1EEEE10deallocateEPS3_m = comdat any

$_ZNKSt11_Deque_baseIN4cvc58internal12NodeTemplateILb1EEESaIS3_EE20_M_get_map_allocatorEv = comdat any

$_ZNSt16allocator_traitsISaIPN4cvc58internal12NodeTemplateILb1EEEEE10deallocateERS5_PS4_m = comdat any

$_ZNSaIPN4cvc58internal12NodeTemplateILb1EEEED2Ev = comdat any

$_ZNKSt11_Deque_baseIN4cvc58internal12NodeTemplateILb1EEESaIS3_EE19_M_get_Tp_allocatorEv = comdat any

$_ZNSaIPN4cvc58internal12NodeTemplateILb1EEEEC2IS2_EERKSaIT_E = comdat any

$_ZNSt15__new_allocatorIPN4cvc58internal12NodeTemplateILb1EEEEC2Ev = comdat any

$_ZNSt15__new_allocatorIPN4cvc58internal12NodeTemplateILb1EEEE10deallocateEPS4_m = comdat any

$_ZNSt15__new_allocatorIPN4cvc58internal12NodeTemplateILb1EEEED2Ev = comdat any

$_ZNSt15__new_allocatorIN4cvc58internal12NodeTemplateILb1EEEED2Ev = comdat any

$_ZN4cvc57context10ContextObjnwEmPNS0_20ContextMemoryManagerE = comdat any

$_ZN4cvc57context15CDInsertHashMapINS_8internal12NodeTemplateILb1EEEbSt4hashIS4_EEC2ERKS7_ = comdat any

$_ZN4cvc57context10ContextObjdlEPvPNS0_20ContextMemoryManagerE = comdat any

$_ZN4cvc57context10ContextObjC2ERKS1_ = comdat any

$_ZN4cvc58internal11Cvc5ostreamlsIPNS_7context15CDInsertHashMapINS0_12NodeTemplateILb1EEEbSt4hashIS6_EEEEERS1_RKT_ = comdat any

$_ZN4cvc58internal11Cvc5ostreamlsIA7_cEERS1_RKT_ = comdat any

$_ZN4cvc58internal11Cvc5ostreamlsIPKNS_7context15CDInsertHashMapINS0_12NodeTemplateILb1EEEbSt4hashIS6_EEEEERS1_RKT_ = comdat any

$_ZN4cvc58internal11Cvc5ostreamlsImEERS1_RKT_ = comdat any

$_ZN4cvc57context10ContextObjD2Ev = comdat any

$_ZN4cvc57context10ContextObjD0Ev = comdat any

$_ZNSt8ios_base5iwordEi = comdat any

$_ZN4cvc57context13InsertHashMapINS_8internal12NodeTemplateILb1EEEbSt4hashIS4_EE11pop_to_sizeEm = comdat any

$_ZNK4cvc57context13InsertHashMapINS_8internal12NodeTemplateILb1EEEbSt4hashIS4_EE4sizeEv = comdat any

$_ZN4cvc57context13InsertHashMapINS_8internal12NodeTemplateILb1EEEbSt4hashIS4_EE8pop_backEv = comdat any

$_ZNKSt5dequeIN4cvc58internal12NodeTemplateILb1EEESaIS3_EE4sizeEv = comdat any

$_ZStmiRKSt15_Deque_iteratorIN4cvc58internal12NodeTemplateILb1EEERS3_PS3_ES8_ = comdat any

$_ZNSt15_Deque_iteratorIN4cvc58internal12NodeTemplateILb1EEERS3_PS3_E14_S_buffer_sizeEv = comdat any

$_ZNSt5dequeIN4cvc58internal12NodeTemplateILb1EEESaIS3_EE4backEv = comdat any

$_ZNSt13unordered_mapIKN4cvc58internal12NodeTemplateILb1EEEKbSt4hashIS3_ESt8equal_toIS4_ESaISt4pairIS4_S5_EEE5eraseERS4_ = comdat any

$_ZNSt5dequeIN4cvc58internal12NodeTemplateILb1EEESaIS3_EE8pop_backEv = comdat any

$_ZNSt15_Deque_iteratorIN4cvc58internal12NodeTemplateILb1EEERS3_PS3_EmmEv = comdat any

$_ZNKSt15_Deque_iteratorIN4cvc58internal12NodeTemplateILb1EEERS3_PS3_EdeEv = comdat any

$_ZNSt15_Deque_iteratorIN4cvc58internal12NodeTemplateILb1EEERS3_PS3_E11_M_set_nodeEPS5_ = comdat any

$_ZNSt10_HashtableIKN4cvc58internal12NodeTemplateILb1EEESt4pairIS4_KbESaIS7_ENSt8__detail10_Select1stESt8equal_toIS4_ESt4hashIS3_ENS9_18_Mod_range_hashingENS9_20_Default_ranged_hashENS9_20_Prime_rehash_policyENS9_17_Hashtable_traitsILb1ELb0ELb1EEEE5eraseERS4_ = comdat any

$_ZNSt10_HashtableIKN4cvc58internal12NodeTemplateILb1EEESt4pairIS4_KbESaIS7_ENSt8__detail10_Select1stESt8equal_toIS4_ESt4hashIS3_ENS9_18_Mod_range_hashingENS9_20_Default_ranged_hashENS9_20_Prime_rehash_policyENS9_17_Hashtable_traitsILb1ELb0ELb1EEEE8_M_eraseESt17integral_constantIbLb1EERS4_ = comdat any

$_ZNKSt10_HashtableIKN4cvc58internal12NodeTemplateILb1EEESt4pairIS4_KbESaIS7_ENSt8__detail10_Select1stESt8equal_toIS4_ESt4hashIS3_ENS9_18_Mod_range_hashingENS9_20_Default_ranged_hashENS9_20_Prime_rehash_policyENS9_17_Hashtable_traitsILb1ELb0ELb1EEEE4sizeEv = comdat any

$_ZNSt10_HashtableIKN4cvc58internal12NodeTemplateILb1EEESt4pairIS4_KbESaIS7_ENSt8__detail10_Select1stESt8equal_toIS4_ESt4hashIS3_ENS9_18_Mod_range_hashingENS9_20_Default_ranged_hashENS9_20_Prime_rehash_policyENS9_17_Hashtable_traitsILb1ELb0ELb1EEEE22__small_size_thresholdEv = comdat any

$_ZNSt10_HashtableIKN4cvc58internal12NodeTemplateILb1EEESt4pairIS4_KbESaIS7_ENSt8__detail10_Select1stESt8equal_toIS4_ESt4hashIS3_ENS9_18_Mod_range_hashingENS9_20_Default_ranged_hashENS9_20_Prime_rehash_policyENS9_17_Hashtable_traitsILb1ELb0ELb1EEEE19_M_find_before_nodeERS4_ = comdat any

$_ZNKSt10_HashtableIKN4cvc58internal12NodeTemplateILb1EEESt4pairIS4_KbESaIS7_ENSt8__detail10_Select1stESt8equal_toIS4_ESt4hashIS3_ENS9_18_Mod_range_hashingENS9_20_Default_ranged_hashENS9_20_Prime_rehash_policyENS9_17_Hashtable_traitsILb1ELb0ELb1EEEE15_M_bucket_indexERKNS9_16_Hash_node_valueIS7_Lb1EEE = comdat any

$_ZNKSt8__detail15_Hash_code_baseIKN4cvc58internal12NodeTemplateILb1EEESt4pairIS5_KbENS_10_Select1stESt4hashIS4_ENS_18_Mod_range_hashingENS_20_Default_ranged_hashELb1EE12_M_hash_codeERS5_ = comdat any

$_ZNKSt10_HashtableIKN4cvc58internal12NodeTemplateILb1EEESt4pairIS4_KbESaIS7_ENSt8__detail10_Select1stESt8equal_toIS4_ESt4hashIS3_ENS9_18_Mod_range_hashingENS9_20_Default_ranged_hashENS9_20_Prime_rehash_policyENS9_17_Hashtable_traitsILb1ELb0ELb1EEEE15_M_bucket_indexEm = comdat any

$_ZNKSt10_HashtableIKN4cvc58internal12NodeTemplateILb1EEESt4pairIS4_KbESaIS7_ENSt8__detail10_Select1stESt8equal_toIS4_ESt4hashIS3_ENS9_18_Mod_range_hashingENS9_20_Default_ranged_hashENS9_20_Prime_rehash_policyENS9_17_Hashtable_traitsILb1ELb0ELb1EEEE19_M_find_before_nodeEmRS4_m = comdat any

$_ZNSt10_HashtableIKN4cvc58internal12NodeTemplateILb1EEESt4pairIS4_KbESaIS7_ENSt8__detail10_Select1stESt8equal_toIS4_ESt4hashIS3_ENS9_18_Mod_range_hashingENS9_20_Default_ranged_hashENS9_20_Prime_rehash_policyENS9_17_Hashtable_traitsILb1ELb0ELb1EEEE8_M_eraseEmPNS9_15_Hash_node_baseEPNS9_10_Hash_nodeIS7_Lb1EEE = comdat any

$_ZNSt8__detail22_Hashtable_hash_traitsISt4hashIN4cvc58internal12NodeTemplateILb1EEEEE22__small_size_thresholdEv = comdat any

$_ZNKSt8__detail15_Hashtable_baseIKN4cvc58internal12NodeTemplateILb1EEESt4pairIS5_KbENS_10_Select1stESt8equal_toIS5_ESt4hashIS4_ENS_18_Mod_range_hashingENS_20_Default_ranged_hashENS_17_Hashtable_traitsILb1ELb0ELb1EEEE13_M_key_equalsERS5_RKNS_16_Hash_node_valueIS8_Lb1EEE = comdat any

$_ZNKSt8__detail15_Hashtable_baseIKN4cvc58internal12NodeTemplateILb1EEESt4pairIS5_KbENS_10_Select1stESt8equal_toIS5_ESt4hashIS4_ENS_18_Mod_range_hashingENS_20_Default_ranged_hashENS_17_Hashtable_traitsILb1ELb0ELb1EEEE5_M_eqEv = comdat any

$_ZNKSt8equal_toIKN4cvc58internal12NodeTemplateILb1EEEEclERS4_S6_ = comdat any

$_ZNKSt8__detail10_Select1stclIRKSt4pairIKN4cvc58internal12NodeTemplateILb1EEEKbEEEONS0_10__1st_typeIT_E4typeEOSD_ = comdat any

$_ZNKSt8__detail21_Hash_node_value_baseISt4pairIKN4cvc58internal12NodeTemplateILb1EEEKbEE4_M_vEv = comdat any

$_ZNKSt8__detail21_Hashtable_ebo_helperILi0ESt8equal_toIKN4cvc58internal12NodeTemplateILb1EEEELb1EE7_M_cgetEv = comdat any

$_ZNK4cvc58internal12NodeTemplateILb1EEeqILb1EEEbRKNS1_IXT_EEE = comdat any

$_ZNK4cvc58internal12NodeTemplateILb1EE21assertTNodeNotExpiredEv = comdat any

$_ZNKSt8__detail21_Hash_node_value_baseISt4pairIKN4cvc58internal12NodeTemplateILb1EEEKbEE9_M_valptrEv = comdat any

$_ZNK9__gnu_cxx16__aligned_bufferISt4pairIKN4cvc58internal12NodeTemplateILb1EEEKbEE6_M_ptrEv = comdat any

$_ZNK9__gnu_cxx16__aligned_bufferISt4pairIKN4cvc58internal12NodeTemplateILb1EEEKbEE7_M_addrEv = comdat any

$_ZNKSt8__detail15_Hash_code_baseIKN4cvc58internal12NodeTemplateILb1EEESt4pairIS5_KbENS_10_Select1stESt4hashIS4_ENS_18_Mod_range_hashingENS_20_Default_ranged_hashELb1EE15_M_bucket_indexERKNS_16_Hash_node_valueIS8_Lb1EEEm = comdat any

$_ZNKSt8__detail18_Mod_range_hashingclEmm = comdat any

$_ZNKSt8__detail15_Hash_code_baseIKN4cvc58internal12NodeTemplateILb1EEESt4pairIS5_KbENS_10_Select1stESt4hashIS4_ENS_18_Mod_range_hashingENS_20_Default_ranged_hashELb1EE7_M_hashEv = comdat any

$_ZNKSt8__detail21_Hashtable_ebo_helperILi1ESt4hashIN4cvc58internal12NodeTemplateILb1EEEELb1EE7_M_cgetEv = comdat any

$_ZNKSt8__detail15_Hash_code_baseIKN4cvc58internal12NodeTemplateILb1EEESt4pairIS5_KbENS_10_Select1stESt4hashIS4_ENS_18_Mod_range_hashingENS_20_Default_ranged_hashELb1EE15_M_bucket_indexEmm = comdat any

$_ZNKSt8__detail15_Hashtable_baseIKN4cvc58internal12NodeTemplateILb1EEESt4pairIS5_KbENS_10_Select1stESt8equal_toIS5_ESt4hashIS4_ENS_18_Mod_range_hashingENS_20_Default_ranged_hashENS_17_Hashtable_traitsILb1ELb0ELb1EEEE9_M_equalsERS5_mRKNS_16_Hash_node_valueIS8_Lb1EEE = comdat any

$_ZNSt8__detail15_Hashtable_baseIKN4cvc58internal12NodeTemplateILb1EEESt4pairIS5_KbENS_10_Select1stESt8equal_toIS5_ESt4hashIS4_ENS_18_Mod_range_hashingENS_20_Default_ranged_hashENS_17_Hashtable_traitsILb1ELb0ELb1EEEE9_S_equalsEmRKNS_21_Hash_node_code_cacheILb1EEE = comdat any

$_ZNSt10_HashtableIKN4cvc58internal12NodeTemplateILb1EEESt4pairIS4_KbESaIS7_ENSt8__detail10_Select1stESt8equal_toIS4_ESt4hashIS3_ENS9_18_Mod_range_hashingENS9_20_Default_ranged_hashENS9_20_Prime_rehash_policyENS9_17_Hashtable_traitsILb1ELb0ELb1EEEE22_M_remove_bucket_beginEmPNS9_10_Hash_nodeIS7_Lb1EEEm = comdat any

$_ZNSt8__detail14_Node_iteratorISt4pairIKN4cvc58internal12NodeTemplateILb1EEEKbELb0ELb1EEC2EPNS_10_Hash_nodeIS8_Lb1EEE = comdat any

$_ZNSt8__detail19_Node_iterator_baseISt4pairIKN4cvc58internal12NodeTemplateILb1EEEKbELb1EEC2EPNS_10_Hash_nodeIS8_Lb1EEE = comdat any

$_ZNSt16allocator_traitsISaIN4cvc58internal12NodeTemplateILb1EEEEE7destroyIS3_EEvRS4_PT_ = comdat any

$_ZNSt5dequeIN4cvc58internal12NodeTemplateILb1EEESaIS3_EE15_M_pop_back_auxEv = comdat any

$_ZNSt15__new_allocatorIN4cvc58internal12NodeTemplateILb1EEEE7destroyIS3_EEvPT_ = comdat any

$_ZN4cvc57context10ContextObjdlEPv = comdat any

$_ZN4cvc58internal13OstreamVoiderC2Ev = comdat any

$_ZN4cvc58internal13OstreamVoideranERSo = comdat any

$_ZN4cvc58internal11Cvc5ostreamC2Ev = comdat any

$_ZN4cvc58internal11Cvc5ostreamC2EPSo = comdat any

$_ZN4cvc58internal12NodeTemplateILb0EEC2ERKS2_ = comdat any

$_ZmiIA1_12__mpq_structS1_S1_S1_E10__gmp_exprIN18__gmp_resolve_exprIT_T1_E10value_typeE17__gmp_binary_exprIS2_IS4_T0_ES2_IS5_T2_E18__gmp_binary_minusEERKSA_RKSC_ = comdat any

$_ZN10__gmp_exprIA1_12__mpq_structS1_EC2I17__gmp_binary_exprIS2_S2_18__gmp_binary_minusEEERKS_IS1_T_E = comdat any

$_ZN4cvc58internal8RationalC2ERK10__gmp_exprIA1_12__mpq_structS4_E = comdat any

$_ZN10__gmp_exprIA1_12__mpq_struct17__gmp_binary_exprIS_IS1_S1_ES3_18__gmp_binary_minusEEC2ERKS3_S8_ = comdat any

$_ZN17__gmp_binary_exprI10__gmp_exprIA1_12__mpq_structS2_ES3_18__gmp_binary_minusEC2ERKS3_S7_ = comdat any

$_Z14__gmp_set_exprI17__gmp_binary_exprI10__gmp_exprIA1_12__mpq_structS3_ES4_18__gmp_binary_minusEEvPS2_RKS1_IS3_T_E = comdat any

$_ZNK10__gmp_exprIA1_12__mpq_struct17__gmp_binary_exprIS_IS1_S1_ES3_18__gmp_binary_minusEE4evalEPS0_ = comdat any

$_ZN18__gmp_binary_minus4evalEP12__mpq_structPKS0_S3_ = comdat any

$_ZNK10__gmp_exprIA1_12__mpq_structS1_E8__get_mpEv = comdat any

$_ZN10__gmp_exprIA1_12__mpq_structS1_EC2ERKS2_ = comdat any

$_ZNSt12_Vector_baseIN4cvc58internal12NodeTemplateILb1EEESaIS3_EEC2Ev = comdat any

$_ZNSt12_Vector_baseIN4cvc58internal12NodeTemplateILb1EEESaIS3_EE12_Vector_implC2Ev = comdat any

$_ZNSt12_Vector_baseIN4cvc58internal12NodeTemplateILb1EEESaIS3_EE17_Vector_impl_dataC2Ev = comdat any

$_ZNSt15__new_allocatorIN4cvc58internal12NodeTemplateILb1EEEEC2Ev = comdat any

$_ZStplIcSt11char_traitsIcESaIcEENSt7__cxx1112basic_stringIT_T0_T1_EERKS8_SA_ = comdat any

$_ZN4cvc58internal9ExceptionC2ERKNSt7__cxx1112basic_stringIcSt11char_traitsIcESaIcEEE = comdat any

$_ZN4cvc58internal15OptionExceptionD0Ev = comdat any

$_ZNK4cvc58internal9Exception4whatEv = comdat any

$_ZNSt9exceptionC2Ev = comdat any

$_ZN4cvc58internal9ExceptionD2Ev = comdat any

$_ZN4cvc58internal4expr9NodeValue3decEv = comdat any

$_ZN4cvc58internal4expr9NodeValue4nullEv = comdat any

$_ZN4cvc58internal4expr9NodeValueC2Ei = comdat any

$_ZN4cvc58internal4expr9NodeValue3incEv = comdat any

$_ZltIA1_12__mpq_structS1_S1_S1_EbRK10__gmp_exprIT_T0_ERKS2_IT1_T2_E = comdat any

$_ZN17__gmp_binary_less4evalEPK12__mpq_structS2_ = comdat any

$_ZmlIA1_12__mpq_structS1_S1_S1_E10__gmp_exprIN18__gmp_resolve_exprIT_T1_E10value_typeE17__gmp_binary_exprIS2_IS4_T0_ES2_IS5_T2_E23__gmp_binary_multipliesEERKSA_RKSC_ = comdat any

$_ZN10__gmp_exprIA1_12__mpq_structS1_EC2I17__gmp_binary_exprIS2_S2_23__gmp_binary_multipliesEEERKS_IS1_T_E = comdat any

$_ZN10__gmp_exprIA1_12__mpq_struct17__gmp_binary_exprIS_IS1_S1_ES3_23__gmp_binary_multipliesEEC2ERKS3_S8_ = comdat any

$_ZN17__gmp_binary_exprI10__gmp_exprIA1_12__mpq_structS2_ES3_23__gmp_binary_multipliesEC2ERKS3_S7_ = comdat any

$_Z14__gmp_set_exprI17__gmp_binary_exprI10__gmp_exprIA1_12__mpq_structS3_ES4_23__gmp_binary_multipliesEEvPS2_RKS1_IS3_T_E = comdat any

$_ZNK10__gmp_exprIA1_12__mpq_struct17__gmp_binary_exprIS_IS1_S1_ES3_23__gmp_binary_multipliesEE4evalEPS0_ = comdat any

$_ZN23__gmp_binary_multiplies4evalEP12__mpq_structPKS0_S3_ = comdat any

$_ZplIA1_12__mpq_structS1_S1_S1_E10__gmp_exprIN18__gmp_resolve_exprIT_T1_E10value_typeE17__gmp_binary_exprIS2_IS4_T0_ES2_IS5_T2_E17__gmp_binary_plusEERKSA_RKSC_ = comdat any

$_ZN10__gmp_exprIA1_12__mpq_structS1_EC2I17__gmp_binary_exprIS2_S2_17__gmp_binary_plusEEERKS_IS1_T_E = comdat any

$_ZN10__gmp_exprIA1_12__mpq_struct17__gmp_binary_exprIS_IS1_S1_ES3_17__gmp_binary_plusEEC2ERKS3_S8_ = comdat any

$_ZN17__gmp_binary_exprI10__gmp_exprIA1_12__mpq_structS2_ES3_17__gmp_binary_plusEC2ERKS3_S7_ = comdat any

$_Z14__gmp_set_exprI17__gmp_binary_exprI10__gmp_exprIA1_12__mpq_structS3_ES4_17__gmp_binary_plusEEvPS2_RKS1_IS3_T_E = comdat any

$_ZNK10__gmp_exprIA1_12__mpq_struct17__gmp_binary_exprIS_IS1_S1_ES3_17__gmp_binary_plusEE4evalEPS0_ = comdat any

$_ZN17__gmp_binary_plus4evalEP12__mpq_structPKS0_S3_ = comdat any

$_ZNK4cvc58internal12NodeTemplateILb0EE8toStreamERSo = comdat any

$_ZNK4cvc58internal12NodeTemplateILb0EE21assertTNodeNotExpiredEv = comdat any

$_ZNKSt10unique_ptrIN4cvc58internal13SkolemManagerESt14default_deleteIS2_EE3getEv = comdat any

$_ZNKSt15__uniq_ptr_implIN4cvc58internal13SkolemManagerESt14default_deleteIS2_EE6_M_ptrEv = comdat any

$_ZSt3getILm0EJPN4cvc58internal13SkolemManagerESt14default_deleteIS2_EEERKNSt13tuple_elementIXT_ESt5tupleIJDpT0_EEE4typeERKSA_ = comdat any

$_ZSt12__get_helperILm0EPN4cvc58internal13SkolemManagerEJSt14default_deleteIS2_EEERKT0_RKSt11_Tuple_implIXT_EJS6_DpT1_EE = comdat any

$_ZNSt11_Tuple_implILm0EJPN4cvc58internal13SkolemManagerESt14default_deleteIS2_EEE7_M_headERKS6_ = comdat any

$_ZNSt10_Head_baseILm0EPN4cvc58internal13SkolemManagerELb0EE7_M_headERKS4_ = comdat any

$_ZNK4cvc58internal8TypeNode7getKindEv = comdat any

$_ZN4cvc58internal7IntegerC2ERKS1_ = comdat any

$_ZN10__gmp_exprIA1_12__mpz_structS1_EC2ERKS2_ = comdat any

$_ZNK4cvc58internal7Integer7get_mpzEv = comdat any

$_ZNSt12_Vector_baseIN4cvc58internal8TypeNodeESaIS2_EEC2Ev = comdat any

$_ZNSt12_Vector_baseIN4cvc58internal8TypeNodeESaIS2_EE12_Vector_implC2Ev = comdat any

$_ZNSaIN4cvc58internal8TypeNodeEEC2Ev = comdat any

$_ZNSt12_Vector_baseIN4cvc58internal8TypeNodeESaIS2_EE17_Vector_impl_dataC2Ev = comdat any

$_ZNSt15__new_allocatorIN4cvc58internal8TypeNodeEEC2Ev = comdat any

$_ZN4cvc58internal11NodeManager14operatorToKindENS0_12NodeTemplateILb0EEE = comdat any

$_ZNK4cvc58internal12NodeTemplateILb0EE7getKindEv = comdat any

$_ZN10__gmp_exprIA1_12__mpz_structS1_EC2Ej = comdat any

$_ZNSt10_HashtableIN4cvc58internal12NodeTemplateILb1EEES3_SaIS3_ENSt8__detail9_IdentityESt8equal_toIS3_ESt4hashIS3_ENS5_18_Mod_range_hashingENS5_20_Default_ranged_hashENS5_20_Prime_rehash_policyENS5_17_Hashtable_traitsILb1ELb1ELb1EEEEC2Ev = comdat any

$_ZNSt8__detail15_Hashtable_baseIN4cvc58internal12NodeTemplateILb1EEES4_NS_9_IdentityESt8equal_toIS4_ESt4hashIS4_ENS_18_Mod_range_hashingENS_20_Default_ranged_hashENS_17_Hashtable_traitsILb1ELb1ELb1EEEEC2Ev = comdat any

$_ZNSt8__detail16_Hashtable_allocISaINS_10_Hash_nodeIN4cvc58internal12NodeTemplateILb1EEELb1EEEEEC2Ev = comdat any

$_ZNSt8__detail15_Hash_node_baseC2Ev = comdat any

$_ZNSt8__detail20_Prime_rehash_policyC2Ef = comdat any

$_ZNSt8__detail15_Hash_code_baseIN4cvc58internal12NodeTemplateILb1EEES4_NS_9_IdentityESt4hashIS4_ENS_18_Mod_range_hashingENS_20_Default_ranged_hashELb1EEC2Ev = comdat any

$_ZNSt8__detail21_Hashtable_ebo_helperILi0ESt8equal_toIN4cvc58internal12NodeTemplateILb1EEEELb1EEC2Ev = comdat any

$_ZNSt8__detail21_Hashtable_ebo_helperILi1ESt4hashIN4cvc58internal12NodeTemplateILb1EEEELb1EEC2Ev = comdat any

$_ZNSt8__detail21_Hashtable_ebo_helperILi0ESaINS_10_Hash_nodeIN4cvc58internal12NodeTemplateILb1EEELb1EEEELb1EEC2Ev = comdat any

$_ZNSaINSt8__detail10_Hash_nodeIN4cvc58internal12NodeTemplateILb1EEELb1EEEEC2Ev = comdat any

$_ZNSt15__new_allocatorINSt8__detail10_Hash_nodeIN4cvc58internal12NodeTemplateILb1EEELb1EEEEC2Ev = comdat any

$_ZNSt10_HashtableIN4cvc58internal12NodeTemplateILb1EEES3_SaIS3_ENSt8__detail9_IdentityESt8equal_toIS3_ESt4hashIS3_ENS5_18_Mod_range_hashingENS5_20_Default_ranged_hashENS5_20_Prime_rehash_policyENS5_17_Hashtable_traitsILb1ELb1ELb1EEEED2Ev = comdat any

$_ZNSt10_HashtableIN4cvc58internal12NodeTemplateILb1EEES3_SaIS3_ENSt8__detail9_IdentityESt8equal_toIS3_ESt4hashIS3_ENS5_18_Mod_range_hashingENS5_20_Default_ranged_hashENS5_20_Prime_rehash_policyENS5_17_Hashtable_traitsILb1ELb1ELb1EEEE5clearEv = comdat any

$_ZNSt10_HashtableIN4cvc58internal12NodeTemplateILb1EEES3_SaIS3_ENSt8__detail9_IdentityESt8equal_toIS3_ESt4hashIS3_ENS5_18_Mod_range_hashingENS5_20_Default_ranged_hashENS5_20_Prime_rehash_policyENS5_17_Hashtable_traitsILb1ELb1ELb1EEEE21_M_deallocate_bucketsEv = comdat any

$_ZNSt8__detail16_Hashtable_allocISaINS_10_Hash_nodeIN4cvc58internal12NodeTemplateILb1EEELb1EEEEED2Ev = comdat any

$_ZNSt8__detail16_Hashtable_allocISaINS_10_Hash_nodeIN4cvc58internal12NodeTemplateILb1EEELb1EEEEE19_M_deallocate_nodesEPS6_ = comdat any

$_ZNKSt10_HashtableIN4cvc58internal12NodeTemplateILb1EEES3_SaIS3_ENSt8__detail9_IdentityESt8equal_toIS3_ESt4hashIS3_ENS5_18_Mod_range_hashingENS5_20_Default_ranged_hashENS5_20_Prime_rehash_policyENS5_17_Hashtable_traitsILb1ELb1ELb1EEEE8_M_beginEv = comdat any

$_ZNKSt8__detail10_Hash_nodeIN4cvc58internal12NodeTemplateILb1EEELb1EE7_M_nextEv = comdat any

$_ZNSt8__detail16_Hashtable_allocISaINS_10_Hash_nodeIN4cvc58internal12NodeTemplateILb1EEELb1EEEEE18_M_deallocate_nodeEPS6_ = comdat any

$_ZNSt16allocator_traitsISaINSt8__detail10_Hash_nodeIN4cvc58internal12NodeTemplateILb1EEELb1EEEEE7destroyIS5_EEvRS7_PT_ = comdat any

$_ZNSt8__detail16_Hashtable_allocISaINS_10_Hash_nodeIN4cvc58internal12NodeTemplateILb1EEELb1EEEEE17_M_node_allocatorEv = comdat any

$_ZNSt8__detail21_Hash_node_value_baseIN4cvc58internal12NodeTemplateILb1EEEE9_M_valptrEv = comdat any

$_ZNSt8__detail16_Hashtable_allocISaINS_10_Hash_nodeIN4cvc58internal12NodeTemplateILb1EEELb1EEEEE22_M_deallocate_node_ptrEPS6_ = comdat any

$_ZNSt15__new_allocatorINSt8__detail10_Hash_nodeIN4cvc58internal12NodeTemplateILb1EEELb1EEEE7destroyIS5_EEvPT_ = comdat any

$_ZNSt8__detail21_Hashtable_ebo_helperILi0ESaINS_10_Hash_nodeIN4cvc58internal12NodeTemplateILb1EEELb1EEEELb1EE6_M_getEv = comdat any

$_ZN9__gnu_cxx16__aligned_bufferIN4cvc58internal12NodeTemplateILb1EEEE6_M_ptrEv = comdat any

$_ZN9__gnu_cxx16__aligned_bufferIN4cvc58internal12NodeTemplateILb1EEEE7_M_addrEv = comdat any

$_ZNSt19__ptr_traits_ptr_toIPNSt8__detail10_Hash_nodeIN4cvc58internal12NodeTemplateILb1EEELb1EEES6_Lb0EE10pointer_toERS6_ = comdat any

$_ZNSt16allocator_traitsISaINSt8__detail10_Hash_nodeIN4cvc58internal12NodeTemplateILb1EEELb1EEEEE10deallocateERS7_PS6_m = comdat any

$_ZNSt15__new_allocatorINSt8__detail10_Hash_nodeIN4cvc58internal12NodeTemplateILb1EEELb1EEEE10deallocateEPS6_m = comdat any

$_ZNSt10_HashtableIN4cvc58internal12NodeTemplateILb1EEES3_SaIS3_ENSt8__detail9_IdentityESt8equal_toIS3_ESt4hashIS3_ENS5_18_Mod_range_hashingENS5_20_Default_ranged_hashENS5_20_Prime_rehash_policyENS5_17_Hashtable_traitsILb1ELb1ELb1EEEE21_M_deallocate_bucketsEPPNS5_15_Hash_node_baseEm = comdat any

$_ZNKSt10_HashtableIN4cvc58internal12NodeTemplateILb1EEES3_SaIS3_ENSt8__detail9_IdentityESt8equal_toIS3_ESt4hashIS3_ENS5_18_Mod_range_hashingENS5_20_Default_ranged_hashENS5_20_Prime_rehash_policyENS5_17_Hashtable_traitsILb1ELb1ELb1EEEE21_M_uses_single_bucketEPPNS5_15_Hash_node_baseE = comdat any

$_ZNSt8__detail16_Hashtable_allocISaINS_10_Hash_nodeIN4cvc58internal12NodeTemplateILb1EEELb1EEEEE21_M_deallocate_bucketsEPPNS_15_Hash_node_baseEm = comdat any

$_ZNSaIPNSt8__detail15_Hash_node_baseEEC2INS_10_Hash_nodeIN4cvc58internal12NodeTemplateILb1EEELb1EEEEERKSaIT_E = comdat any

$_ZNSt8__detail21_Hashtable_ebo_helperILi0ESaINS_10_Hash_nodeIN4cvc58internal12NodeTemplateILb1EEELb1EEEELb1EED2Ev = comdat any

$_ZNSaINSt8__detail10_Hash_nodeIN4cvc58internal12NodeTemplateILb1EEELb1EEEED2Ev = comdat any

$_ZNSt15__new_allocatorINSt8__detail10_Hash_nodeIN4cvc58internal12NodeTemplateILb1EEELb1EEEED2Ev = comdat any

$_ZNSt11char_traitsIcE6lengthEPKc = comdat any

$_ZNSt7__cxx1112basic_stringIcSt11char_traitsIcESaIcEE12_M_constructIPKcEEvT_S8_St20forward_iterator_tag = comdat any

$_ZNSt7__cxx1112basic_stringIcSt11char_traitsIcESaIcEE12_Alloc_hiderD2Ev = comdat any

$_ZSt8distanceIPKcENSt15iterator_traitsIT_E15difference_typeES3_S3_ = comdat any

$_ZZNSt7__cxx1112basic_stringIcSt11char_traitsIcESaIcEE12_M_constructIPKcEEvT_S8_St20forward_iterator_tagEN6_GuardC2EPS4_ = comdat any

$_ZZNSt7__cxx1112basic_stringIcSt11char_traitsIcESaIcEE12_M_constructIPKcEEvT_S8_St20forward_iterator_tagEN6_GuardD2Ev = comdat any

$_ZSt10__distanceIPKcENSt15iterator_traitsIT_E15difference_typeES3_S3_St26random_access_iterator_tag = comdat any

$_ZSt19__iterator_categoryIPKcENSt15iterator_traitsIT_E17iterator_categoryERKS3_ = comdat any

$_ZN4cvc58internallsERSoRKNS0_8TypeNodeE = comdat any

$_ZNK4cvc58internal8TypeNode8toStreamERSo = comdat any

$_ZNSt13unordered_mapIN4cvc58internal12NodeTemplateILb1EEEPNS0_7context11CDOhash_mapIS3_S3_St4hashIS3_EEES7_St8equal_toIS3_ESaISt4pairIKS3_S9_EEEC2Ev = comdat any

$_ZN4cvc57context9CDHashMapINS_8internal12NodeTemplateILb1EEES4_St4hashIS4_EE4saveEPNS0_20ContextMemoryManagerE = comdat any

$_ZN4cvc57context9CDHashMapINS_8internal12NodeTemplateILb1EEES4_St4hashIS4_EE7restoreEPNS0_10ContextObjE = comdat any

$_ZN4cvc57context9CDHashMapINS_8internal12NodeTemplateILb1EEES4_St4hashIS4_EED0Ev = comdat any

$_ZNSt10_HashtableIN4cvc58internal12NodeTemplateILb1EEESt4pairIKS3_PNS0_7context11CDOhash_mapIS3_S3_St4hashIS3_EEEESaISC_ENSt8__detail10_Select1stESt8equal_toIS3_ES9_NSE_18_Mod_range_hashingENSE_20_Default_ranged_hashENSE_20_Prime_rehash_policyENSE_17_Hashtable_traitsILb1ELb0ELb1EEEEC2Ev = comdat any

$_ZNSt8__detail15_Hashtable_baseIN4cvc58internal12NodeTemplateILb1EEESt4pairIKS4_PNS1_7context11CDOhash_mapIS4_S4_St4hashIS4_EEEENS_10_Select1stESt8equal_toIS4_ESA_NS_18_Mod_range_hashingENS_20_Default_ranged_hashENS_17_Hashtable_traitsILb1ELb0ELb1EEEEC2Ev = comdat any

$_ZNSt8__detail16_Hashtable_allocISaINS_10_Hash_nodeISt4pairIKN4cvc58internal12NodeTemplateILb1EEEPNS3_7context11CDOhash_mapIS6_S6_St4hashIS6_EEEELb1EEEEEC2Ev = comdat any

$_ZNSt8__detail15_Hash_code_baseIN4cvc58internal12NodeTemplateILb1EEESt4pairIKS4_PNS1_7context11CDOhash_mapIS4_S4_St4hashIS4_EEEENS_10_Select1stESA_NS_18_Mod_range_hashingENS_20_Default_ranged_hashELb1EEC2Ev = comdat any

$_ZNSt8__detail21_Hashtable_ebo_helperILi0ESaINS_10_Hash_nodeISt4pairIKN4cvc58internal12NodeTemplateILb1EEEPNS3_7context11CDOhash_mapIS6_S6_St4hashIS6_EEEELb1EEEELb1EEC2Ev = comdat any

$_ZNSaINSt8__detail10_Hash_nodeISt4pairIKN4cvc58internal12NodeTemplateILb1EEEPNS2_7context11CDOhash_mapIS5_S5_St4hashIS5_EEEELb1EEEEC2Ev = comdat any

$_ZNSt15__new_allocatorINSt8__detail10_Hash_nodeISt4pairIKN4cvc58internal12NodeTemplateILb1EEEPNS3_7context11CDOhash_mapIS6_S6_St4hashIS6_EEEELb1EEEEC2Ev = comdat any

$_ZN4cvc57context15CDInsertHashMapINS_8internal12NodeTemplateILb1EEEbSt4hashIS4_EEC2EPNS0_7ContextE = comdat any

$_ZN4cvc57context9CDHashSetINS_8internal12NodeTemplateILb1EEESt4hashIS4_EED0Ev = comdat any

$_ZN4cvc57context13InsertHashMapINS_8internal12NodeTemplateILb1EEEbSt4hashIS4_EEC2Ev = comdat any

$_ZNSt5dequeIN4cvc58internal12NodeTemplateILb1EEESaIS3_EEC2Ev = comdat any

$_ZNSt13unordered_mapIKN4cvc58internal12NodeTemplateILb1EEEKbSt4hashIS3_ESt8equal_toIS4_ESaISt4pairIS4_S5_EEEC2Ev = comdat any

$_ZNSt11_Deque_baseIN4cvc58internal12NodeTemplateILb1EEESaIS3_EEC2Ev = comdat any

$_ZNSt11_Deque_baseIN4cvc58internal12NodeTemplateILb1EEESaIS3_EE11_Deque_implC2Ev = comdat any

$_ZNSt11_Deque_baseIN4cvc58internal12NodeTemplateILb1EEESaIS3_EE17_M_initialize_mapEm = comdat any

$_ZNSt11_Deque_baseIN4cvc58internal12NodeTemplateILb1EEESaIS3_EE16_Deque_impl_dataC2Ev = comdat any

$_ZNSt15_Deque_iteratorIN4cvc58internal12NodeTemplateILb1EEERS3_PS3_EC2Ev = comdat any

$_ZSt3maxImERKT_S2_S2_ = comdat any

$_ZNSt11_Deque_baseIN4cvc58internal12NodeTemplateILb1EEESaIS3_EE15_M_allocate_mapEm = comdat any

$_ZNSt11_Deque_baseIN4cvc58internal12NodeTemplateILb1EEESaIS3_EE15_M_create_nodesEPPS3_S7_ = comdat any

$_ZNSt16allocator_traitsISaIPN4cvc58internal12NodeTemplateILb1EEEEE8allocateERS5_m = comdat any

$_ZNSt15__new_allocatorIPN4cvc58internal12NodeTemplateILb1EEEE8allocateEmPKv = comdat any

$_ZNKSt15__new_allocatorIPN4cvc58internal12NodeTemplateILb1EEEE11_M_max_sizeEv = comdat any

$_ZNSt11_Deque_baseIN4cvc58internal12NodeTemplateILb1EEESaIS3_EE16_M_allocate_nodeEv = comdat any

$_ZNSt16allocator_traitsISaIN4cvc58internal12NodeTemplateILb1EEEEE8allocateERS4_m = comdat any

$_ZNSt15__new_allocatorIN4cvc58internal12NodeTemplateILb1EEEE8allocateEmPKv = comdat any

$_ZNKSt15__new_allocatorIN4cvc58internal12NodeTemplateILb1EEEE11_M_max_sizeEv = comdat any

$_ZNSt10_HashtableIKN4cvc58internal12NodeTemplateILb1EEESt4pairIS4_KbESaIS7_ENSt8__detail10_Select1stESt8equal_toIS4_ESt4hashIS3_ENS9_18_Mod_range_hashingENS9_20_Default_ranged_hashENS9_20_Prime_rehash_policyENS9_17_Hashtable_traitsILb1ELb0ELb1EEEEC2Ev = comdat any

$_ZNSt8__detail15_Hashtable_baseIKN4cvc58internal12NodeTemplateILb1EEESt4pairIS5_KbENS_10_Select1stESt8equal_toIS5_ESt4hashIS4_ENS_18_Mod_range_hashingENS_20_Default_ranged_hashENS_17_Hashtable_traitsILb1ELb0ELb1EEEEC2Ev = comdat any

$_ZNSt8__detail16_Hashtable_allocISaINS_10_Hash_nodeISt4pairIKN4cvc58internal12NodeTemplateILb1EEEKbELb1EEEEEC2Ev = comdat any

$_ZNSt8__detail15_Hash_code_baseIKN4cvc58internal12NodeTemplateILb1EEESt4pairIS5_KbENS_10_Select1stESt4hashIS4_ENS_18_Mod_range_hashingENS_20_Default_ranged_hashELb1EEC2Ev = comdat any

$_ZNSt8__detail21_Hashtable_ebo_helperILi0ESt8equal_toIKN4cvc58internal12NodeTemplateILb1EEEELb1EEC2Ev = comdat any

$_ZNSt8__detail21_Hashtable_ebo_helperILi0ESaINS_10_Hash_nodeISt4pairIKN4cvc58internal12NodeTemplateILb1EEEKbELb1EEEELb1EEC2Ev = comdat any

$_ZNSaINSt8__detail10_Hash_nodeISt4pairIKN4cvc58internal12NodeTemplateILb1EEEKbELb1EEEEC2Ev = comdat any

$_ZNSt15__new_allocatorINSt8__detail10_Hash_nodeISt4pairIKN4cvc58internal12NodeTemplateILb1EEEKbELb1EEEEC2Ev = comdat any

$_ZN4cvc57context9CDHashSetINS_8internal12NodeTemplateILb1EEESt4hashIS4_EEdlEPv = comdat any

$_ZN4cvc57context9CDHashMapINS_8internal12NodeTemplateILb1EEES4_St4hashIS4_EE5clearEv = comdat any

$_ZNSt13unordered_mapIN4cvc58internal12NodeTemplateILb1EEEPNS0_7context11CDOhash_mapIS3_S3_St4hashIS3_EEES7_St8equal_toIS3_ESaISt4pairIKS3_S9_EEED2Ev = comdat any

$_ZNSt13unordered_mapIN4cvc58internal12NodeTemplateILb1EEEPNS0_7context11CDOhash_mapIS3_S3_St4hashIS3_EEES7_St8equal_toIS3_ESaISt4pairIKS3_S9_EEE5beginEv = comdat any

$_ZNSt13unordered_mapIN4cvc58internal12NodeTemplateILb1EEEPNS0_7context11CDOhash_mapIS3_S3_St4hashIS3_EEES7_St8equal_toIS3_ESaISt4pairIKS3_S9_EEE3endEv = comdat any

$_ZNSt8__detailneERKNS_19_Node_iterator_baseISt4pairIKN4cvc58internal12NodeTemplateILb1EEEPNS2_7context11CDOhash_mapIS5_S5_St4hashIS5_EEEELb1EEESG_ = comdat any

$_ZNKSt8__detail14_Node_iteratorISt4pairIKN4cvc58internal12NodeTemplateILb1EEEPNS2_7context11CDOhash_mapIS5_S5_St4hashIS5_EEEELb0ELb1EEdeEv = comdat any

$_ZN4cvc57context10ContextObj10deleteSelfEv = comdat any

$_ZNSt8__detail14_Node_iteratorISt4pairIKN4cvc58internal12NodeTemplateILb1EEEPNS2_7context11CDOhash_mapIS5_S5_St4hashIS5_EEEELb0ELb1EEppEv = comdat any

$_ZNSt13unordered_mapIN4cvc58internal12NodeTemplateILb1EEEPNS0_7context11CDOhash_mapIS3_S3_St4hashIS3_EEES7_St8equal_toIS3_ESaISt4pairIKS3_S9_EEE5clearEv = comdat any

$_ZNSt10_HashtableIN4cvc58internal12NodeTemplateILb1EEESt4pairIKS3_PNS0_7context11CDOhash_mapIS3_S3_St4hashIS3_EEEESaISC_ENSt8__detail10_Select1stESt8equal_toIS3_ES9_NSE_18_Mod_range_hashingENSE_20_Default_ranged_hashENSE_20_Prime_rehash_policyENSE_17_Hashtable_traitsILb1ELb0ELb1EEEE5beginEv = comdat any

$_ZNKSt10_HashtableIN4cvc58internal12NodeTemplateILb1EEESt4pairIKS3_PNS0_7context11CDOhash_mapIS3_S3_St4hashIS3_EEEESaISC_ENSt8__detail10_Select1stESt8equal_toIS3_ES9_NSE_18_Mod_range_hashingENSE_20_Default_ranged_hashENSE_20_Prime_rehash_policyENSE_17_Hashtable_traitsILb1ELb0ELb1EEEE8_M_beginEv = comdat any

$_ZNSt8__detail14_Node_iteratorISt4pairIKN4cvc58internal12NodeTemplateILb1EEEPNS2_7context11CDOhash_mapIS5_S5_St4hashIS5_EEEELb0ELb1EEC2EPNS_10_Hash_nodeISD_Lb1EEE = comdat any

$_ZNSt8__detail19_Node_iterator_baseISt4pairIKN4cvc58internal12NodeTemplateILb1EEEPNS2_7context11CDOhash_mapIS5_S5_St4hashIS5_EEEELb1EEC2EPNS_10_Hash_nodeISD_Lb1EEE = comdat any

$_ZNSt10_HashtableIN4cvc58internal12NodeTemplateILb1EEESt4pairIKS3_PNS0_7context11CDOhash_mapIS3_S3_St4hashIS3_EEEESaISC_ENSt8__detail10_Select1stESt8equal_toIS3_ES9_NSE_18_Mod_range_hashingENSE_20_Default_ranged_hashENSE_20_Prime_rehash_policyENSE_17_Hashtable_traitsILb1ELb0ELb1EEEE3endEv = comdat any

$_ZNSt8__detail21_Hash_node_value_baseISt4pairIKN4cvc58internal12NodeTemplateILb1EEEPNS2_7context11CDOhash_mapIS5_S5_St4hashIS5_EEEEE4_M_vEv = comdat any

$_ZNSt8__detail21_Hash_node_value_baseISt4pairIKN4cvc58internal12NodeTemplateILb1EEEPNS2_7context11CDOhash_mapIS5_S5_St4hashIS5_EEEEE9_M_valptrEv = comdat any

$_ZN9__gnu_cxx16__aligned_bufferISt4pairIKN4cvc58internal12NodeTemplateILb1EEEPNS2_7context11CDOhash_mapIS5_S5_St4hashIS5_EEEEE6_M_ptrEv = comdat any

$_ZN9__gnu_cxx16__aligned_bufferISt4pairIKN4cvc58internal12NodeTemplateILb1EEEPNS2_7context11CDOhash_mapIS5_S5_St4hashIS5_EEEEE7_M_addrEv = comdat any

$_ZNSt8__detail19_Node_iterator_baseISt4pairIKN4cvc58internal12NodeTemplateILb1EEEPNS2_7context11CDOhash_mapIS5_S5_St4hashIS5_EEEELb1EE7_M_incrEv = comdat any

$_ZNKSt8__detail10_Hash_nodeISt4pairIKN4cvc58internal12NodeTemplateILb1EEEPNS2_7context11CDOhash_mapIS5_S5_St4hashIS5_EEEELb1EE7_M_nextEv = comdat any

$_ZNSt10_HashtableIN4cvc58internal12NodeTemplateILb1EEESt4pairIKS3_PNS0_7context11CDOhash_mapIS3_S3_St4hashIS3_EEEESaISC_ENSt8__detail10_Select1stESt8equal_toIS3_ES9_NSE_18_Mod_range_hashingENSE_20_Default_ranged_hashENSE_20_Prime_rehash_policyENSE_17_Hashtable_traitsILb1ELb0ELb1EEEE5clearEv = comdat any

$_ZNSt8__detail16_Hashtable_allocISaINS_10_Hash_nodeISt4pairIKN4cvc58internal12NodeTemplateILb1EEEPNS3_7context11CDOhash_mapIS6_S6_St4hashIS6_EEEELb1EEEEE19_M_deallocate_nodesEPSF_ = comdat any

$_ZNSt8__detail16_Hashtable_allocISaINS_10_Hash_nodeISt4pairIKN4cvc58internal12NodeTemplateILb1EEEPNS3_7context11CDOhash_mapIS6_S6_St4hashIS6_EEEELb1EEEEE18_M_deallocate_nodeEPSF_ = comdat any

$_ZNSt16allocator_traitsISaINSt8__detail10_Hash_nodeISt4pairIKN4cvc58internal12NodeTemplateILb1EEEPNS3_7context11CDOhash_mapIS6_S6_St4hashIS6_EEEELb1EEEEE7destroyISE_EEvRSG_PT_ = comdat any

$_ZNSt8__detail16_Hashtable_allocISaINS_10_Hash_nodeISt4pairIKN4cvc58internal12NodeTemplateILb1EEEPNS3_7context11CDOhash_mapIS6_S6_St4hashIS6_EEEELb1EEEEE17_M_node_allocatorEv = comdat any

$_ZNSt8__detail16_Hashtable_allocISaINS_10_Hash_nodeISt4pairIKN4cvc58internal12NodeTemplateILb1EEEPNS3_7context11CDOhash_mapIS6_S6_St4hashIS6_EEEELb1EEEEE22_M_deallocate_node_ptrEPSF_ = comdat any

$_ZNSt15__new_allocatorINSt8__detail10_Hash_nodeISt4pairIKN4cvc58internal12NodeTemplateILb1EEEPNS3_7context11CDOhash_mapIS6_S6_St4hashIS6_EEEELb1EEEE7destroyISE_EEvPT_ = comdat any

$_ZNSt4pairIKN4cvc58internal12NodeTemplateILb1EEEPNS0_7context11CDOhash_mapIS3_S3_St4hashIS3_EEEED2Ev = comdat any

$_ZNSt8__detail21_Hashtable_ebo_helperILi0ESaINS_10_Hash_nodeISt4pairIKN4cvc58internal12NodeTemplateILb1EEEPNS3_7context11CDOhash_mapIS6_S6_St4hashIS6_EEEELb1EEEELb1EE6_M_getEv = comdat any

$_ZNSt19__ptr_traits_ptr_toIPNSt8__detail10_Hash_nodeISt4pairIKN4cvc58internal12NodeTemplateILb1EEEPNS3_7context11CDOhash_mapIS6_S6_St4hashIS6_EEEELb1EEESF_Lb0EE10pointer_toERSF_ = comdat any

$_ZNSt16allocator_traitsISaINSt8__detail10_Hash_nodeISt4pairIKN4cvc58internal12NodeTemplateILb1EEEPNS3_7context11CDOhash_mapIS6_S6_St4hashIS6_EEEELb1EEEEE10deallocateERSG_PSF_m = comdat any

$_ZNSt15__new_allocatorINSt8__detail10_Hash_nodeISt4pairIKN4cvc58internal12NodeTemplateILb1EEEPNS3_7context11CDOhash_mapIS6_S6_St4hashIS6_EEEELb1EEEE10deallocateEPSF_m = comdat any

$_ZNSt10_HashtableIN4cvc58internal12NodeTemplateILb1EEESt4pairIKS3_PNS0_7context11CDOhash_mapIS3_S3_St4hashIS3_EEEESaISC_ENSt8__detail10_Select1stESt8equal_toIS3_ES9_NSE_18_Mod_range_hashingENSE_20_Default_ranged_hashENSE_20_Prime_rehash_policyENSE_17_Hashtable_traitsILb1ELb0ELb1EEEED2Ev = comdat any

$_ZNSt10_HashtableIN4cvc58internal12NodeTemplateILb1EEESt4pairIKS3_PNS0_7context11CDOhash_mapIS3_S3_St4hashIS3_EEEESaISC_ENSt8__detail10_Select1stESt8equal_toIS3_ES9_NSE_18_Mod_range_hashingENSE_20_Default_ranged_hashENSE_20_Prime_rehash_policyENSE_17_Hashtable_traitsILb1ELb0ELb1EEEE21_M_deallocate_bucketsEv = comdat any

$_ZNSt8__detail16_Hashtable_allocISaINS_10_Hash_nodeISt4pairIKN4cvc58internal12NodeTemplateILb1EEEPNS3_7context11CDOhash_mapIS6_S6_St4hashIS6_EEEELb1EEEEED2Ev = comdat any

$_ZNSt10_HashtableIN4cvc58internal12NodeTemplateILb1EEESt4pairIKS3_PNS0_7context11CDOhash_mapIS3_S3_St4hashIS3_EEEESaISC_ENSt8__detail10_Select1stESt8equal_toIS3_ES9_NSE_18_Mod_range_hashingENSE_20_Default_ranged_hashENSE_20_Prime_rehash_policyENSE_17_Hashtable_traitsILb1ELb0ELb1EEEE21_M_deallocate_bucketsEPPNSE_15_Hash_node_baseEm = comdat any

$_ZNKSt10_HashtableIN4cvc58internal12NodeTemplateILb1EEESt4pairIKS3_PNS0_7context11CDOhash_mapIS3_S3_St4hashIS3_EEEESaISC_ENSt8__detail10_Select1stESt8equal_toIS3_ES9_NSE_18_Mod_range_hashingENSE_20_Default_ranged_hashENSE_20_Prime_rehash_policyENSE_17_Hashtable_traitsILb1ELb0ELb1EEEE21_M_uses_single_bucketEPPNSE_15_Hash_node_baseE = comdat any

$_ZNSt8__detail16_Hashtable_allocISaINS_10_Hash_nodeISt4pairIKN4cvc58internal12NodeTemplateILb1EEEPNS3_7context11CDOhash_mapIS6_S6_St4hashIS6_EEEELb1EEEEE21_M_deallocate_bucketsEPPNS_15_Hash_node_baseEm = comdat any

$_ZNSaIPNSt8__detail15_Hash_node_baseEEC2INS_10_Hash_nodeISt4pairIKN4cvc58internal12NodeTemplateILb1EEEPNS6_7context11CDOhash_mapIS9_S9_St4hashIS9_EEEELb1EEEEERKSaIT_E = comdat any

$_ZNSt8__detail21_Hashtable_ebo_helperILi0ESaINS_10_Hash_nodeISt4pairIKN4cvc58internal12NodeTemplateILb1EEEPNS3_7context11CDOhash_mapIS6_S6_St4hashIS6_EEEELb1EEEELb1EED2Ev = comdat any

$_ZNSaINSt8__detail10_Hash_nodeISt4pairIKN4cvc58internal12NodeTemplateILb1EEEPNS2_7context11CDOhash_mapIS5_S5_St4hashIS5_EEEELb1EEEED2Ev = comdat any

$_ZNSt15__new_allocatorINSt8__detail10_Hash_nodeISt4pairIKN4cvc58internal12NodeTemplateILb1EEEPNS3_7context11CDOhash_mapIS6_S6_St4hashIS6_EEEELb1EEEED2Ev = comdat any

$_ZNK4cvc57context15CDInsertHashMapINS_8internal12NodeTemplateILb1EEEbSt4hashIS4_EE4findERKS4_ = comdat any

$_ZN4cvc57context9CDHashSetINS_8internal12NodeTemplateILb1EEESt4hashIS4_EE14const_iteratorC2ERKNSt8__detail20_Node_const_iteratorISt4pairIKS4_KbELb0ELb1EEE = comdat any

$_ZNK4cvc57context13InsertHashMapINS_8internal12NodeTemplateILb1EEEbSt4hashIS4_EE4findERKS4_ = comdat any

$_ZNKSt13unordered_mapIKN4cvc58internal12NodeTemplateILb1EEEKbSt4hashIS3_ESt8equal_toIS4_ESaISt4pairIS4_S5_EEE4findERS4_ = comdat any

$_ZNKSt10_HashtableIKN4cvc58internal12NodeTemplateILb1EEESt4pairIS4_KbESaIS7_ENSt8__detail10_Select1stESt8equal_toIS4_ESt4hashIS3_ENS9_18_Mod_range_hashingENS9_20_Default_ranged_hashENS9_20_Prime_rehash_policyENS9_17_Hashtable_traitsILb1ELb0ELb1EEEE4findERS4_ = comdat any

$_ZNKSt10_HashtableIKN4cvc58internal12NodeTemplateILb1EEESt4pairIS4_KbESaIS7_ENSt8__detail10_Select1stESt8equal_toIS4_ESt4hashIS3_ENS9_18_Mod_range_hashingENS9_20_Default_ranged_hashENS9_20_Prime_rehash_policyENS9_17_Hashtable_traitsILb1ELb0ELb1EEEE5beginEv = comdat any

$_ZNSt8__detailneERKNS_19_Node_iterator_baseISt4pairIKN4cvc58internal12NodeTemplateILb1EEEKbELb1EEESB_ = comdat any

$_ZNKSt10_HashtableIKN4cvc58internal12NodeTemplateILb1EEESt4pairIS4_KbESaIS7_ENSt8__detail10_Select1stESt8equal_toIS4_ESt4hashIS3_ENS9_18_Mod_range_hashingENS9_20_Default_ranged_hashENS9_20_Prime_rehash_policyENS9_17_Hashtable_traitsILb1ELb0ELb1EEEE3endEv = comdat any

$_ZNSt8__detail20_Node_const_iteratorISt4pairIKN4cvc58internal12NodeTemplateILb1EEEKbELb0ELb1EEppEv = comdat any

$_ZNKSt10_HashtableIKN4cvc58internal12NodeTemplateILb1EEESt4pairIS4_KbESaIS7_ENSt8__detail10_Select1stESt8equal_toIS4_ESt4hashIS3_ENS9_18_Mod_range_hashingENS9_20_Default_ranged_hashENS9_20_Prime_rehash_policyENS9_17_Hashtable_traitsILb1ELb0ELb1EEEE12_M_find_nodeEmRS4_m = comdat any

$_ZNSt8__detail20_Node_const_iteratorISt4pairIKN4cvc58internal12NodeTemplateILb1EEEKbELb0ELb1EEC2EPNS_10_Hash_nodeIS8_Lb1EEE = comdat any

$_ZNSt8__detail19_Node_iterator_baseISt4pairIKN4cvc58internal12NodeTemplateILb1EEEKbELb1EE7_M_incrEv = comdat any

$_ZNK4cvc57context15CDInsertHashMapINS_8internal12NodeTemplateILb1EEEbSt4hashIS4_EE3endEv = comdat any

$_ZNK4cvc57context13InsertHashMapINS_8internal12NodeTemplateILb1EEEbSt4hashIS4_EE3endEv = comdat any

$_ZNKSt13unordered_mapIKN4cvc58internal12NodeTemplateILb1EEEKbSt4hashIS3_ESt8equal_toIS4_ESaISt4pairIS4_S5_EEE3endEv = comdat any

$_ZNSt8__detaileqERKNS_19_Node_iterator_baseISt4pairIKN4cvc58internal12NodeTemplateILb1EEEKbELb1EEESB_ = comdat any

$_ZN4cvc57context15CDInsertHashMapINS_8internal12NodeTemplateILb1EEEbSt4hashIS4_EE11insert_safeERKS4_RKb = comdat any

$_ZNK4cvc57context15CDInsertHashMapINS_8internal12NodeTemplateILb1EEEbSt4hashIS4_EE8containsERKS4_ = comdat any

$_ZN4cvc57context15CDInsertHashMapINS_8internal12NodeTemplateILb1EEEbSt4hashIS4_EE6insertERKS4_RKb = comdat any

$_ZNK4cvc57context13InsertHashMapINS_8internal12NodeTemplateILb1EEEbSt4hashIS4_EE8containsERKS4_ = comdat any

$_ZN4cvc57context10ContextObj11makeCurrentEv = comdat any

$_ZN4cvc57context13InsertHashMapINS_8internal12NodeTemplateILb1EEEbSt4hashIS4_EE9push_backERKS4_RKb = comdat any

$_ZNK4cvc57context5Scope9isCurrentEv = comdat any

$_ZNK4cvc57context7Context11getTopScopeEv = comdat any

$_ZNKSt6vectorIPN4cvc57context5ScopeESaIS3_EE4backEv = comdat any

$_ZNKSt6vectorIPN4cvc57context5ScopeESaIS3_EE3endEv = comdat any

$_ZNK9__gnu_cxx17__normal_iteratorIPKPN4cvc57context5ScopeESt6vectorIS4_SaIS4_EEEmiEl = comdat any

$_ZNK9__gnu_cxx17__normal_iteratorIPKPN4cvc57context5ScopeESt6vectorIS4_SaIS4_EEEdeEv = comdat any

$_ZN9__gnu_cxx17__normal_iteratorIPKPN4cvc57context5ScopeESt6vectorIS4_SaIS4_EEEC2ERKS6_ = comdat any

$_ZNSt13unordered_mapIKN4cvc58internal12NodeTemplateILb1EEEKbSt4hashIS3_ESt8equal_toIS4_ESaISt4pairIS4_S5_EEE6insertISA_IS3_bEEENSt9enable_ifIXsr16is_constructibleISB_OT_EE5valueESA_INSt8__detail14_Node_iteratorISB_Lb0ELb1EEEbEE4typeESI_ = comdat any

$_ZSt9make_pairIRKN4cvc58internal12NodeTemplateILb1EEERKbESt4pairINSt25__strip_reference_wrapperINSt5decayIT_E4typeEE6__typeENS9_INSA_IT0_E4typeEE6__typeEEOSB_OSG_ = comdat any

$_ZNSt4pairIN4cvc58internal12NodeTemplateILb1EEEbED2Ev = comdat any

$_ZNSt5dequeIN4cvc58internal12NodeTemplateILb1EEESaIS3_EE9push_backERKS3_ = comdat any

$_ZNSt10_HashtableIKN4cvc58internal12NodeTemplateILb1EEESt4pairIS4_KbESaIS7_ENSt8__detail10_Select1stESt8equal_toIS4_ESt4hashIS3_ENS9_18_Mod_range_hashingENS9_20_Default_ranged_hashENS9_20_Prime_rehash_policyENS9_17_Hashtable_traitsILb1ELb0ELb1EEEE7emplaceIJS5_IS3_bEEEES5_INS9_14_Node_iteratorIS7_Lb0ELb1EEEbEDpOT_ = comdat any

$_ZNSt10_HashtableIKN4cvc58internal12NodeTemplateILb1EEESt4pairIS4_KbESaIS7_ENSt8__detail10_Select1stESt8equal_toIS4_ESt4hashIS3_ENS9_18_Mod_range_hashingENS9_20_Default_ranged_hashENS9_20_Prime_rehash_policyENS9_17_Hashtable_traitsILb1ELb0ELb1EEEE10_M_emplaceIJS5_IS3_bEEEES5_INS9_14_Node_iteratorIS7_Lb0ELb1EEEbESt17integral_constantIbLb1EEDpOT_ = comdat any

$_ZNSt10_HashtableIKN4cvc58internal12NodeTemplateILb1EEESt4pairIS4_KbESaIS7_ENSt8__detail10_Select1stESt8equal_toIS4_ESt4hashIS3_ENS9_18_Mod_range_hashingENS9_20_Default_ranged_hashENS9_20_Prime_rehash_policyENS9_17_Hashtable_traitsILb1ELb0ELb1EEEE12_Scoped_nodeC2IJS5_IS3_bEEEEPNS9_16_Hashtable_allocISaINS9_10_Hash_nodeIS7_Lb1EEEEEEDpOT_ = comdat any

$_ZNKSt8__detail10_Select1stclIRSt4pairIKN4cvc58internal12NodeTemplateILb1EEEKbEEEONS0_10__1st_typeIT_E4typeEOSC_ = comdat any

$_ZNSt8__detail21_Hash_node_value_baseISt4pairIKN4cvc58internal12NodeTemplateILb1EEEKbEE4_M_vEv = comdat any

$_ZNSt10_HashtableIKN4cvc58internal12NodeTemplateILb1EEESt4pairIS4_KbESaIS7_ENSt8__detail10_Select1stESt8equal_toIS4_ESt4hashIS3_ENS9_18_Mod_range_hashingENS9_20_Default_ranged_hashENS9_20_Prime_rehash_policyENS9_17_Hashtable_traitsILb1ELb0ELb1EEEE5beginEv = comdat any

$_ZNSt10_HashtableIKN4cvc58internal12NodeTemplateILb1EEESt4pairIS4_KbESaIS7_ENSt8__detail10_Select1stESt8equal_toIS4_ESt4hashIS3_ENS9_18_Mod_range_hashingENS9_20_Default_ranged_hashENS9_20_Prime_rehash_policyENS9_17_Hashtable_traitsILb1ELb0ELb1EEEE3endEv = comdat any

$_ZNSt4pairINSt8__detail14_Node_iteratorIS_IKN4cvc58internal12NodeTemplateILb1EEEKbELb0ELb1EEEbEC2IRS9_bTnNSt9enable_ifIXaaclsr5_PCCPE22_MoveConstructiblePairIT_T0_EEclsr5_PCCPE30_ImplicitlyMoveConvertiblePairISE_SF_EEEbE4typeELb1EEEOSE_OSF_ = comdat any

$_ZNSt8__detail14_Node_iteratorISt4pairIKN4cvc58internal12NodeTemplateILb1EEEKbELb0ELb1EEppEv = comdat any

$_ZNSt4pairINSt8__detail14_Node_iteratorIS_IKN4cvc58internal12NodeTemplateILb1EEEKbELb0ELb1EEEbEC2IS9_bTnNSt9enable_ifIXaaclsr5_PCCPE22_MoveConstructiblePairIT_T0_EEclsr5_PCCPE30_ImplicitlyMoveConvertiblePairISD_SE_EEEbE4typeELb1EEEOSD_OSE_ = comdat any

$_ZNSt10_HashtableIKN4cvc58internal12NodeTemplateILb1EEESt4pairIS4_KbESaIS7_ENSt8__detail10_Select1stESt8equal_toIS4_ESt4hashIS3_ENS9_18_Mod_range_hashingENS9_20_Default_ranged_hashENS9_20_Prime_rehash_policyENS9_17_Hashtable_traitsILb1ELb0ELb1EEEE21_M_insert_unique_nodeEmmPNS9_10_Hash_nodeIS7_Lb1EEEm = comdat any

$_ZNSt10_HashtableIKN4cvc58internal12NodeTemplateILb1EEESt4pairIS4_KbESaIS7_ENSt8__detail10_Select1stESt8equal_toIS4_ESt4hashIS3_ENS9_18_Mod_range_hashingENS9_20_Default_ranged_hashENS9_20_Prime_rehash_policyENS9_17_Hashtable_traitsILb1ELb0ELb1EEEE12_Scoped_nodeD2Ev = comdat any

$_ZNSt8__detail16_Hashtable_allocISaINS_10_Hash_nodeISt4pairIKN4cvc58internal12NodeTemplateILb1EEEKbELb1EEEEE16_M_allocate_nodeIJS2_IS6_bEEEEPSA_DpOT_ = comdat any

$_ZNSt16allocator_traitsISaINSt8__detail10_Hash_nodeISt4pairIKN4cvc58internal12NodeTemplateILb1EEEKbELb1EEEEE8allocateERSB_m = comdat any

$_ZSt12__to_addressINSt8__detail10_Hash_nodeISt4pairIKN4cvc58internal12NodeTemplateILb1EEEKbELb1EEEEPT_SC_ = comdat any

$_ZNSt8__detail10_Hash_nodeISt4pairIKN4cvc58internal12NodeTemplateILb1EEEKbELb1EEC2Ev = comdat any

$_ZNSt16allocator_traitsISaINSt8__detail10_Hash_nodeISt4pairIKN4cvc58internal12NodeTemplateILb1EEEKbELb1EEEEE9constructIS9_JS2_IS6_bEEEEvRSB_PT_DpOT0_ = comdat any

$_ZNSt15__new_allocatorINSt8__detail10_Hash_nodeISt4pairIKN4cvc58internal12NodeTemplateILb1EEEKbELb1EEEE8allocateEmPKv = comdat any

$_ZNKSt15__new_allocatorINSt8__detail10_Hash_nodeISt4pairIKN4cvc58internal12NodeTemplateILb1EEEKbELb1EEEE11_M_max_sizeEv = comdat any

$_ZNSt15__new_allocatorINSt8__detail10_Hash_nodeISt4pairIKN4cvc58internal12NodeTemplateILb1EEEKbELb1EEEE9constructIS9_JS2_IS6_bEEEEvPT_DpOT0_ = comdat any

$_ZNSt4pairIKN4cvc58internal12NodeTemplateILb1EEEKbEC2IS3_bTnNSt9enable_ifIXaaclsr6_PCCFPIT_T0_EE22_MoveConstructiblePairIS9_SA_EEclsr6_PCCFPIS9_SA_EE30_ImplicitlyMoveConvertiblePairIS9_SA_EEEbE4typeELb1EEEOS_IS9_SA_E = comdat any

$_ZNKSt8__detail20_Prime_rehash_policy8_M_stateEv = comdat any

$_ZNSt10_HashtableIKN4cvc58internal12NodeTemplateILb1EEESt4pairIS4_KbESaIS7_ENSt8__detail10_Select1stESt8equal_toIS4_ESt4hashIS3_ENS9_18_Mod_range_hashingENS9_20_Default_ranged_hashENS9_20_Prime_rehash_policyENS9_17_Hashtable_traitsILb1ELb0ELb1EEEE9_M_rehashEmRKm = comdat any

$_ZNKSt8__detail15_Hash_code_baseIKN4cvc58internal12NodeTemplateILb1EEESt4pairIS5_KbENS_10_Select1stESt4hashIS4_ENS_18_Mod_range_hashingENS_20_Default_ranged_hashELb1EE13_M_store_codeERNS_21_Hash_node_code_cacheILb1EEEm = comdat any

$_ZNSt10_HashtableIKN4cvc58internal12NodeTemplateILb1EEESt4pairIS4_KbESaIS7_ENSt8__detail10_Select1stESt8equal_toIS4_ESt4hashIS3_ENS9_18_Mod_range_hashingENS9_20_Default_ranged_hashENS9_20_Prime_rehash_policyENS9_17_Hashtable_traitsILb1ELb0ELb1EEEE22_M_insert_bucket_beginEmPNS9_10_Hash_nodeIS7_Lb1EEE = comdat any

$_ZNSt10_HashtableIKN4cvc58internal12NodeTemplateILb1EEESt4pairIS4_KbESaIS7_ENSt8__detail10_Select1stESt8equal_toIS4_ESt4hashIS3_ENS9_18_Mod_range_hashingENS9_20_Default_ranged_hashENS9_20_Prime_rehash_policyENS9_17_Hashtable_traitsILb1ELb0ELb1EEEE13_M_rehash_auxEmSt17integral_constantIbLb1EE = comdat any

$_ZNSt8__detail20_Prime_rehash_policy8_M_resetEm = comdat any

$_ZNSt10_HashtableIKN4cvc58internal12NodeTemplateILb1EEESt4pairIS4_KbESaIS7_ENSt8__detail10_Select1stESt8equal_toIS4_ESt4hashIS3_ENS9_18_Mod_range_hashingENS9_20_Default_ranged_hashENS9_20_Prime_rehash_policyENS9_17_Hashtable_traitsILb1ELb0ELb1EEEE19_M_allocate_bucketsEm = comdat any

$_ZNSt8__detail16_Hashtable_allocISaINS_10_Hash_nodeISt4pairIKN4cvc58internal12NodeTemplateILb1EEEKbELb1EEEEE19_M_allocate_bucketsEm = comdat any

$_ZNSt16allocator_traitsISaIPNSt8__detail15_Hash_node_baseEEE8allocateERS3_m = comdat any

$_ZSt12__to_addressIPNSt8__detail15_Hash_node_baseEEPT_S4_ = comdat any

$_ZNSt15__new_allocatorIPNSt8__detail15_Hash_node_baseEE8allocateEmPKv = comdat any

$_ZNKSt15__new_allocatorIPNSt8__detail15_Hash_node_baseEE11_M_max_sizeEv = comdat any

$_ZNSt4pairIN4cvc58internal12NodeTemplateILb1EEEbEC2IS3_bTnNSt9enable_ifIXaaclsr5_PCCPE18_ConstructiblePairIT_T0_EEclsr5_PCCPE26_ImplicitlyConvertiblePairIS7_S8_EEEbE4typeELb1EEERKS3_RKb = comdat any

$_ZNSt16allocator_traitsISaIN4cvc58internal12NodeTemplateILb1EEEEE9constructIS3_JRKS3_EEEvRS4_PT_DpOT0_ = comdat any

$_ZNSt5dequeIN4cvc58internal12NodeTemplateILb1EEESaIS3_EE16_M_push_back_auxIJRKS3_EEEvDpOT_ = comdat any

$_ZNSt15__new_allocatorIN4cvc58internal12NodeTemplateILb1EEEE9constructIS3_JRKS3_EEEvPT_DpOT0_ = comdat any

$_ZNKSt5dequeIN4cvc58internal12NodeTemplateILb1EEESaIS3_EE8max_sizeEv = comdat any

$_ZNSt5dequeIN4cvc58internal12NodeTemplateILb1EEESaIS3_EE22_M_reserve_map_at_backEm = comdat any

$_ZNSt5dequeIN4cvc58internal12NodeTemplateILb1EEESaIS3_EE11_S_max_sizeERKS4_ = comdat any

$_ZNSt16allocator_traitsISaIN4cvc58internal12NodeTemplateILb1EEEEE8max_sizeERKS4_ = comdat any

$_ZSt3minImERKT_S2_S2_ = comdat any

$_ZNKSt15__new_allocatorIN4cvc58internal12NodeTemplateILb1EEEE8max_sizeEv = comdat any

$_ZNSt5dequeIN4cvc58internal12NodeTemplateILb1EEESaIS3_EE17_M_reallocate_mapEmb = comdat any

$_ZSt4copyIPPN4cvc58internal12NodeTemplateILb1EEES5_ET0_T_S7_S6_ = comdat any

$_ZSt13copy_backwardIPPN4cvc58internal12NodeTemplateILb1EEES5_ET0_T_S7_S6_ = comdat any

$_ZSt13__copy_move_aILb0EPPN4cvc58internal12NodeTemplateILb1EEES5_ET1_T0_S7_S6_ = comdat any

$_ZSt12__miter_baseIPPN4cvc58internal12NodeTemplateILb1EEEET_S6_ = comdat any

$_ZSt12__niter_wrapIPPN4cvc58internal12NodeTemplateILb1EEEET_RKS6_S6_ = comdat any

$_ZSt14__copy_move_a1ILb0EPPN4cvc58internal12NodeTemplateILb1EEES5_ET1_T0_S7_S6_ = comdat any

$_ZSt12__niter_baseIPPN4cvc58internal12NodeTemplateILb1EEEET_S6_ = comdat any

$_ZSt14__copy_move_a2ILb0EPPN4cvc58internal12NodeTemplateILb1EEES5_ET1_T0_S7_S6_ = comdat any

$_ZNSt11__copy_moveILb0ELb1ESt26random_access_iterator_tagE8__copy_mIPN4cvc58internal12NodeTemplateILb1EEEEEPT_PKS8_SB_S9_ = comdat any

$_ZSt22__copy_move_backward_aILb0EPPN4cvc58internal12NodeTemplateILb1EEES5_ET1_T0_S7_S6_ = comdat any

$_ZSt23__copy_move_backward_a1ILb0EPPN4cvc58internal12NodeTemplateILb1EEES5_ET1_T0_S7_S6_ = comdat any

$_ZSt23__copy_move_backward_a2ILb0EPPN4cvc58internal12NodeTemplateILb1EEES5_ET1_T0_S7_S6_ = comdat any

$_ZNSt20__copy_move_backwardILb0ELb1ESt26random_access_iterator_tagE13__copy_move_bIPN4cvc58internal12NodeTemplateILb1EEEEEPT_PKS8_SB_S9_ = comdat any

$_ZNSt6vectorIN4cvc58internal12NodeTemplateILb1EEESaIS3_EE17_M_realloc_insertIJRKS3_EEEvN9__gnu_cxx17__normal_iteratorIPS3_S5_EEDpOT_ = comdat any

$_ZNKSt6vectorIN4cvc58internal12NodeTemplateILb1EEESaIS3_EE12_M_check_lenEmPKc = comdat any

$_ZN9__gnu_cxxmiIPN4cvc58internal12NodeTemplateILb1EEESt6vectorIS4_SaIS4_EEEENS_17__normal_iteratorIT_T0_E15difference_typeERKSC_SF_ = comdat any

$_ZNSt12_Vector_baseIN4cvc58internal12NodeTemplateILb1EEESaIS3_EE11_M_allocateEm = comdat any

$_ZSt34__uninitialized_move_if_noexcept_aIPN4cvc58internal12NodeTemplateILb1EEES4_SaIS3_EET0_T_S7_S6_RT1_ = comdat any

$_ZNK9__gnu_cxx17__normal_iteratorIPN4cvc58internal12NodeTemplateILb1EEESt6vectorIS4_SaIS4_EEE4baseEv = comdat any

$_ZNSt12_Vector_baseIN4cvc58internal12NodeTemplateILb1EEESaIS3_EE19_M_get_Tp_allocatorEv = comdat any

$_ZNSt12_Vector_baseIN4cvc58internal12NodeTemplateILb1EEESaIS3_EE13_M_deallocateEPS3_m = comdat any

$_ZNKSt6vectorIN4cvc58internal12NodeTemplateILb1EEESaIS3_EE8max_sizeEv = comdat any

$_ZNKSt6vectorIN4cvc58internal12NodeTemplateILb1EEESaIS3_EE4sizeEv = comdat any

$_ZNSt6vectorIN4cvc58internal12NodeTemplateILb1EEESaIS3_EE11_S_max_sizeERKS4_ = comdat any

$_ZNKSt12_Vector_baseIN4cvc58internal12NodeTemplateILb1EEESaIS3_EE19_M_get_Tp_allocatorEv = comdat any

$_ZSt22__uninitialized_copy_aIPKN4cvc58internal12NodeTemplateILb1EEEPS3_S3_ET0_T_S8_S7_RSaIT1_E = comdat any

$_ZSt32__make_move_if_noexcept_iteratorIN4cvc58internal12NodeTemplateILb1EEEPKS3_ET0_PT_ = comdat any

$_ZSt18uninitialized_copyIPKN4cvc58internal12NodeTemplateILb1EEEPS3_ET0_T_S8_S7_ = comdat any

$_ZNSt20__uninitialized_copyILb0EE13__uninit_copyIPKN4cvc58internal12NodeTemplateILb1EEEPS5_EET0_T_SA_S9_ = comdat any

$_ZSt16__do_uninit_copyIPKN4cvc58internal12NodeTemplateILb1EEEPS3_ET0_T_S8_S7_ = comdat any

$_ZSt10_ConstructIN4cvc58internal12NodeTemplateILb1EEEJRKS3_EEvPT_DpOT0_ = comdat any

$_ZNKSt13unordered_mapIN4cvc58internal12NodeTemplateILb1EEEPNS0_7context11CDOhash_mapIS3_S3_St4hashIS3_EEES7_St8equal_toIS3_ESaISt4pairIKS3_S9_EEE4findERSD_ = comdat any

$_ZNSt8__detaileqERKNS_19_Node_iterator_baseISt4pairIKN4cvc58internal12NodeTemplateILb1EEEPNS2_7context11CDOhash_mapIS5_S5_St4hashIS5_EEEELb1EEESG_ = comdat any

$_ZNKSt13unordered_mapIN4cvc58internal12NodeTemplateILb1EEEPNS0_7context11CDOhash_mapIS3_S3_St4hashIS3_EEES7_St8equal_toIS3_ESaISt4pairIKS3_S9_EEE3endEv = comdat any

$_ZNKSt8__detail20_Node_const_iteratorISt4pairIKN4cvc58internal12NodeTemplateILb1EEEPNS2_7context11CDOhash_mapIS5_S5_St4hashIS5_EEEELb0ELb1EEdeEv = comdat any

$_ZN4cvc57context9CDHashMapINS_8internal12NodeTemplateILb1EEES4_St4hashIS4_EE8iteratorC2EPKNS0_11CDOhash_mapIS4_S4_S6_EE = comdat any

$_ZNKSt10_HashtableIN4cvc58internal12NodeTemplateILb1EEESt4pairIKS3_PNS0_7context11CDOhash_mapIS3_S3_St4hashIS3_EEEESaISC_ENSt8__detail10_Select1stESt8equal_toIS3_ES9_NSE_18_Mod_range_hashingENSE_20_Default_ranged_hashENSE_20_Prime_rehash_policyENSE_17_Hashtable_traitsILb1ELb0ELb1EEEE4findERS5_ = comdat any

$_ZNKSt10_HashtableIN4cvc58internal12NodeTemplateILb1EEESt4pairIKS3_PNS0_7context11CDOhash_mapIS3_S3_St4hashIS3_EEEESaISC_ENSt8__detail10_Select1stESt8equal_toIS3_ES9_NSE_18_Mod_range_hashingENSE_20_Default_ranged_hashENSE_20_Prime_rehash_policyENSE_17_Hashtable_traitsILb1ELb0ELb1EEEE4sizeEv = comdat any

$_ZNSt10_HashtableIN4cvc58internal12NodeTemplateILb1EEESt4pairIKS3_PNS0_7context11CDOhash_mapIS3_S3_St4hashIS3_EEEESaISC_ENSt8__detail10_Select1stESt8equal_toIS3_ES9_NSE_18_Mod_range_hashingENSE_20_Default_ranged_hashENSE_20_Prime_rehash_policyENSE_17_Hashtable_traitsILb1ELb0ELb1EEEE22__small_size_thresholdEv = comdat any

$_ZNKSt10_HashtableIN4cvc58internal12NodeTemplateILb1EEESt4pairIKS3_PNS0_7context11CDOhash_mapIS3_S3_St4hashIS3_EEEESaISC_ENSt8__detail10_Select1stESt8equal_toIS3_ES9_NSE_18_Mod_range_hashingENSE_20_Default_ranged_hashENSE_20_Prime_rehash_policyENSE_17_Hashtable_traitsILb1ELb0ELb1EEEE5beginEv = comdat any

$_ZNKSt10_HashtableIN4cvc58internal12NodeTemplateILb1EEESt4pairIKS3_PNS0_7context11CDOhash_mapIS3_S3_St4hashIS3_EEEESaISC_ENSt8__detail10_Select1stESt8equal_toIS3_ES9_NSE_18_Mod_range_hashingENSE_20_Default_ranged_hashENSE_20_Prime_rehash_policyENSE_17_Hashtable_traitsILb1ELb0ELb1EEEE3endEv = comdat any

$_ZNKSt8__detail15_Hashtable_baseIN4cvc58internal12NodeTemplateILb1EEESt4pairIKS4_PNS1_7context11CDOhash_mapIS4_S4_St4hashIS4_EEEENS_10_Select1stESt8equal_toIS4_ESA_NS_18_Mod_range_hashingENS_20_Default_ranged_hashENS_17_Hashtable_traitsILb1ELb0ELb1EEEE13_M_key_equalsERS6_RKNS_16_Hash_node_valueISD_Lb1EEE = comdat any

$_ZNSt8__detail20_Node_const_iteratorISt4pairIKN4cvc58internal12NodeTemplateILb1EEEPNS2_7context11CDOhash_mapIS5_S5_St4hashIS5_EEEELb0ELb1EEppEv = comdat any

$_ZNKSt8__detail15_Hash_code_baseIN4cvc58internal12NodeTemplateILb1EEESt4pairIKS4_PNS1_7context11CDOhash_mapIS4_S4_St4hashIS4_EEEENS_10_Select1stESA_NS_18_Mod_range_hashingENS_20_Default_ranged_hashELb1EE12_M_hash_codeERS6_ = comdat any

$_ZNKSt10_HashtableIN4cvc58internal12NodeTemplateILb1EEESt4pairIKS3_PNS0_7context11CDOhash_mapIS3_S3_St4hashIS3_EEEESaISC_ENSt8__detail10_Select1stESt8equal_toIS3_ES9_NSE_18_Mod_range_hashingENSE_20_Default_ranged_hashENSE_20_Prime_rehash_policyENSE_17_Hashtable_traitsILb1ELb0ELb1EEEE15_M_bucket_indexEm = comdat any

$_ZNKSt10_HashtableIN4cvc58internal12NodeTemplateILb1EEESt4pairIKS3_PNS0_7context11CDOhash_mapIS3_S3_St4hashIS3_EEEESaISC_ENSt8__detail10_Select1stESt8equal_toIS3_ES9_NSE_18_Mod_range_hashingENSE_20_Default_ranged_hashENSE_20_Prime_rehash_policyENSE_17_Hashtable_traitsILb1ELb0ELb1EEEE12_M_find_nodeEmRS5_m = comdat any

$_ZNSt8__detail20_Node_const_iteratorISt4pairIKN4cvc58internal12NodeTemplateILb1EEEPNS2_7context11CDOhash_mapIS5_S5_St4hashIS5_EEEELb0ELb1EEC2EPNS_10_Hash_nodeISD_Lb1EEE = comdat any

$_ZNKSt8__detail15_Hashtable_baseIN4cvc58internal12NodeTemplateILb1EEESt4pairIKS4_PNS1_7context11CDOhash_mapIS4_S4_St4hashIS4_EEEENS_10_Select1stESt8equal_toIS4_ESA_NS_18_Mod_range_hashingENS_20_Default_ranged_hashENS_17_Hashtable_traitsILb1ELb0ELb1EEEE5_M_eqEv = comdat any

$_ZNKSt8equal_toIN4cvc58internal12NodeTemplateILb1EEEEclERKS3_S6_ = comdat any

$_ZNKSt8__detail10_Select1stclIRKSt4pairIKN4cvc58internal12NodeTemplateILb1EEEPNS3_7context11CDOhash_mapIS6_S6_St4hashIS6_EEEEEEONS0_10__1st_typeIT_E4typeEOSI_ = comdat any

$_ZNKSt8__detail21_Hash_node_value_baseISt4pairIKN4cvc58internal12NodeTemplateILb1EEEPNS2_7context11CDOhash_mapIS5_S5_St4hashIS5_EEEEE4_M_vEv = comdat any

$_ZNKSt8__detail21_Hashtable_ebo_helperILi0ESt8equal_toIN4cvc58internal12NodeTemplateILb1EEEELb1EE7_M_cgetEv = comdat any

$_ZNKSt8__detail21_Hash_node_value_baseISt4pairIKN4cvc58internal12NodeTemplateILb1EEEPNS2_7context11CDOhash_mapIS5_S5_St4hashIS5_EEEEE9_M_valptrEv = comdat any

$_ZNK9__gnu_cxx16__aligned_bufferISt4pairIKN4cvc58internal12NodeTemplateILb1EEEPNS2_7context11CDOhash_mapIS5_S5_St4hashIS5_EEEEE6_M_ptrEv = comdat any

$_ZNK9__gnu_cxx16__aligned_bufferISt4pairIKN4cvc58internal12NodeTemplateILb1EEEPNS2_7context11CDOhash_mapIS5_S5_St4hashIS5_EEEEE7_M_addrEv = comdat any

$_ZNKSt8__detail15_Hash_code_baseIN4cvc58internal12NodeTemplateILb1EEESt4pairIKS4_PNS1_7context11CDOhash_mapIS4_S4_St4hashIS4_EEEENS_10_Select1stESA_NS_18_Mod_range_hashingENS_20_Default_ranged_hashELb1EE7_M_hashEv = comdat any

$_ZNKSt8__detail15_Hash_code_baseIN4cvc58internal12NodeTemplateILb1EEESt4pairIKS4_PNS1_7context11CDOhash_mapIS4_S4_St4hashIS4_EEEENS_10_Select1stESA_NS_18_Mod_range_hashingENS_20_Default_ranged_hashELb1EE15_M_bucket_indexEmm = comdat any

$_ZNKSt10_HashtableIN4cvc58internal12NodeTemplateILb1EEESt4pairIKS3_PNS0_7context11CDOhash_mapIS3_S3_St4hashIS3_EEEESaISC_ENSt8__detail10_Select1stESt8equal_toIS3_ES9_NSE_18_Mod_range_hashingENSE_20_Default_ranged_hashENSE_20_Prime_rehash_policyENSE_17_Hashtable_traitsILb1ELb0ELb1EEEE19_M_find_before_nodeEmRS5_m = comdat any

$_ZNKSt8__detail15_Hashtable_baseIN4cvc58internal12NodeTemplateILb1EEESt4pairIKS4_PNS1_7context11CDOhash_mapIS4_S4_St4hashIS4_EEEENS_10_Select1stESt8equal_toIS4_ESA_NS_18_Mod_range_hashingENS_20_Default_ranged_hashENS_17_Hashtable_traitsILb1ELb0ELb1EEEE9_M_equalsERS6_mRKNS_16_Hash_node_valueISD_Lb1EEE = comdat any

$_ZNKSt10_HashtableIN4cvc58internal12NodeTemplateILb1EEESt4pairIKS3_PNS0_7context11CDOhash_mapIS3_S3_St4hashIS3_EEEESaISC_ENSt8__detail10_Select1stESt8equal_toIS3_ES9_NSE_18_Mod_range_hashingENSE_20_Default_ranged_hashENSE_20_Prime_rehash_policyENSE_17_Hashtable_traitsILb1ELb0ELb1EEEE15_M_bucket_indexERKNSE_16_Hash_node_valueISC_Lb1EEE = comdat any

$_ZNSt8__detail15_Hashtable_baseIN4cvc58internal12NodeTemplateILb1EEESt4pairIKS4_PNS1_7context11CDOhash_mapIS4_S4_St4hashIS4_EEEENS_10_Select1stESt8equal_toIS4_ESA_NS_18_Mod_range_hashingENS_20_Default_ranged_hashENS_17_Hashtable_traitsILb1ELb0ELb1EEEE9_S_equalsEmRKNS_21_Hash_node_code_cacheILb1EEE = comdat any

$_ZNKSt8__detail15_Hash_code_baseIN4cvc58internal12NodeTemplateILb1EEESt4pairIKS4_PNS1_7context11CDOhash_mapIS4_S4_St4hashIS4_EEEENS_10_Select1stESA_NS_18_Mod_range_hashingENS_20_Default_ranged_hashELb1EE15_M_bucket_indexERKNS_16_Hash_node_valueISD_Lb1EEEm = comdat any

$_ZNSt13unordered_mapIN4cvc58internal12NodeTemplateILb1EEEPNS0_7context11CDOhash_mapIS3_S3_St4hashIS3_EEES7_St8equal_toIS3_ESaISt4pairIKS3_S9_EEE6insertEOSE_ = comdat any

$_ZNSt4pairIKN4cvc58internal12NodeTemplateILb1EEEPNS0_7context11CDOhash_mapIS3_S3_St4hashIS3_EEEEC2IRS4_DnTnNSt9enable_ifIXaaclsr5_PCCPE22_MoveConstructiblePairIT_T0_EEclsr5_PCCPE30_ImplicitlyMoveConvertiblePairISF_SG_EEEbE4typeELb1EEEOSF_OSG_ = comdat any

$_ZN4cvc57context10ContextObjnwEmb = comdat any

$_ZN4cvc57context11CDOhash_mapINS_8internal12NodeTemplateILb1EEES4_St4hashIS4_EEC2EPNS0_7ContextEPNS0_9CDHashMapIS4_S4_S6_EERKS4_SE_ = comdat any

$_ZNKSt8__detail14_Node_iteratorISt4pairIKN4cvc58internal12NodeTemplateILb1EEEPNS2_7context11CDOhash_mapIS5_S5_St4hashIS5_EEEELb0ELb1EEptEv = comdat any

$_ZN4cvc57context10ContextObjdlEPvb = comdat any

$_ZNSt8__detail7_InsertIN4cvc58internal12NodeTemplateILb1EEESt4pairIKS4_PNS1_7context11CDOhash_mapIS4_S4_St4hashIS4_EEEESaISD_ENS_10_Select1stESt8equal_toIS4_ESA_NS_18_Mod_range_hashingENS_20_Default_ranged_hashENS_20_Prime_rehash_policyENS_17_Hashtable_traitsILb1ELb0ELb1EEELb0EE6insertISD_vEES5_INS_14_Node_iteratorISD_Lb0ELb1EEEbEOT_ = comdat any

$_ZNSt8__detail12_Insert_baseIN4cvc58internal12NodeTemplateILb1EEESt4pairIKS4_PNS1_7context11CDOhash_mapIS4_S4_St4hashIS4_EEEESaISD_ENS_10_Select1stESt8equal_toIS4_ESA_NS_18_Mod_range_hashingENS_20_Default_ranged_hashENS_20_Prime_rehash_policyENS_17_Hashtable_traitsILb1ELb0ELb1EEEE20_M_conjure_hashtableEv = comdat any

$_ZNSt10_HashtableIN4cvc58internal12NodeTemplateILb1EEESt4pairIKS3_PNS0_7context11CDOhash_mapIS3_S3_St4hashIS3_EEEESaISC_ENSt8__detail10_Select1stESt8equal_toIS3_ES9_NSE_18_Mod_range_hashingENSE_20_Default_ranged_hashENSE_20_Prime_rehash_policyENSE_17_Hashtable_traitsILb1ELb0ELb1EEEE10_M_emplaceIJSC_EEES4_INSE_14_Node_iteratorISC_Lb0ELb1EEEbESt17integral_constantIbLb1EEDpOT_ = comdat any

$_ZNSt10_HashtableIN4cvc58internal12NodeTemplateILb1EEESt4pairIKS3_PNS0_7context11CDOhash_mapIS3_S3_St4hashIS3_EEEESaISC_ENSt8__detail10_Select1stESt8equal_toIS3_ES9_NSE_18_Mod_range_hashingENSE_20_Default_ranged_hashENSE_20_Prime_rehash_policyENSE_17_Hashtable_traitsILb1ELb0ELb1EEEE12_Scoped_nodeC2IJSC_EEEPNSE_16_Hashtable_allocISaINSE_10_Hash_nodeISC_Lb1EEEEEEDpOT_ = comdat any

$_ZNKSt8__detail10_Select1stclIRSt4pairIKN4cvc58internal12NodeTemplateILb1EEEPNS3_7context11CDOhash_mapIS6_S6_St4hashIS6_EEEEEEONS0_10__1st_typeIT_E4typeEOSH_ = comdat any

$_ZNSt4pairINSt8__detail14_Node_iteratorIS_IKN4cvc58internal12NodeTemplateILb1EEEPNS2_7context11CDOhash_mapIS5_S5_St4hashIS5_EEEELb0ELb1EEEbEC2IRSE_bTnNSt9enable_ifIXaaclsr5_PCCPE22_MoveConstructiblePairIT_T0_EEclsr5_PCCPE30_ImplicitlyMoveConvertiblePairISJ_SK_EEEbE4typeELb1EEEOSJ_OSK_ = comdat any

$_ZNSt4pairINSt8__detail14_Node_iteratorIS_IKN4cvc58internal12NodeTemplateILb1EEEPNS2_7context11CDOhash_mapIS5_S5_St4hashIS5_EEEELb0ELb1EEEbEC2ISE_bTnNSt9enable_ifIXaaclsr5_PCCPE22_MoveConstructiblePairIT_T0_EEclsr5_PCCPE30_ImplicitlyMoveConvertiblePairISI_SJ_EEEbE4typeELb1EEEOSI_OSJ_ = comdat any

$_ZNSt10_HashtableIN4cvc58internal12NodeTemplateILb1EEESt4pairIKS3_PNS0_7context11CDOhash_mapIS3_S3_St4hashIS3_EEEESaISC_ENSt8__detail10_Select1stESt8equal_toIS3_ES9_NSE_18_Mod_range_hashingENSE_20_Default_ranged_hashENSE_20_Prime_rehash_policyENSE_17_Hashtable_traitsILb1ELb0ELb1EEEE21_M_insert_unique_nodeEmmPNSE_10_Hash_nodeISC_Lb1EEEm = comdat any

$_ZNSt10_HashtableIN4cvc58internal12NodeTemplateILb1EEESt4pairIKS3_PNS0_7context11CDOhash_mapIS3_S3_St4hashIS3_EEEESaISC_ENSt8__detail10_Select1stESt8equal_toIS3_ES9_NSE_18_Mod_range_hashingENSE_20_Default_ranged_hashENSE_20_Prime_rehash_policyENSE_17_Hashtable_traitsILb1ELb0ELb1EEEE12_Scoped_nodeD2Ev = comdat any

$_ZNSt8__detail16_Hashtable_allocISaINS_10_Hash_nodeISt4pairIKN4cvc58internal12NodeTemplateILb1EEEPNS3_7context11CDOhash_mapIS6_S6_St4hashIS6_EEEELb1EEEEE16_M_allocate_nodeIJSE_EEEPSF_DpOT_ = comdat any

$_ZNSt16allocator_traitsISaINSt8__detail10_Hash_nodeISt4pairIKN4cvc58internal12NodeTemplateILb1EEEPNS3_7context11CDOhash_mapIS6_S6_St4hashIS6_EEEELb1EEEEE8allocateERSG_m = comdat any

$_ZSt12__to_addressINSt8__detail10_Hash_nodeISt4pairIKN4cvc58internal12NodeTemplateILb1EEEPNS3_7context11CDOhash_mapIS6_S6_St4hashIS6_EEEELb1EEEEPT_SH_ = comdat any

$_ZNSt8__detail10_Hash_nodeISt4pairIKN4cvc58internal12NodeTemplateILb1EEEPNS2_7context11CDOhash_mapIS5_S5_St4hashIS5_EEEELb1EEC2Ev = comdat any

$_ZNSt16allocator_traitsISaINSt8__detail10_Hash_nodeISt4pairIKN4cvc58internal12NodeTemplateILb1EEEPNS3_7context11CDOhash_mapIS6_S6_St4hashIS6_EEEELb1EEEEE9constructISE_JSE_EEEvRSG_PT_DpOT0_ = comdat any

$_ZNSt15__new_allocatorINSt8__detail10_Hash_nodeISt4pairIKN4cvc58internal12NodeTemplateILb1EEEPNS3_7context11CDOhash_mapIS6_S6_St4hashIS6_EEEELb1EEEE8allocateEmPKv = comdat any

$_ZNKSt15__new_allocatorINSt8__detail10_Hash_nodeISt4pairIKN4cvc58internal12NodeTemplateILb1EEEPNS3_7context11CDOhash_mapIS6_S6_St4hashIS6_EEEELb1EEEE11_M_max_sizeEv = comdat any

$_ZNSt15__new_allocatorINSt8__detail10_Hash_nodeISt4pairIKN4cvc58internal12NodeTemplateILb1EEEPNS3_7context11CDOhash_mapIS6_S6_St4hashIS6_EEEELb1EEEE9constructISE_JSE_EEEvPT_DpOT0_ = comdat any

$_ZNSt4pairIKN4cvc58internal12NodeTemplateILb1EEEPNS0_7context11CDOhash_mapIS3_S3_St4hashIS3_EEEEC2EOSB_ = comdat any

$_ZNSt10_HashtableIN4cvc58internal12NodeTemplateILb1EEESt4pairIKS3_PNS0_7context11CDOhash_mapIS3_S3_St4hashIS3_EEEESaISC_ENSt8__detail10_Select1stESt8equal_toIS3_ES9_NSE_18_Mod_range_hashingENSE_20_Default_ranged_hashENSE_20_Prime_rehash_policyENSE_17_Hashtable_traitsILb1ELb0ELb1EEEE9_M_rehashEmRKm = comdat any

$_ZNKSt8__detail15_Hash_code_baseIN4cvc58internal12NodeTemplateILb1EEESt4pairIKS4_PNS1_7context11CDOhash_mapIS4_S4_St4hashIS4_EEEENS_10_Select1stESA_NS_18_Mod_range_hashingENS_20_Default_ranged_hashELb1EE13_M_store_codeERNS_21_Hash_node_code_cacheILb1EEEm = comdat any

$_ZNSt10_HashtableIN4cvc58internal12NodeTemplateILb1EEESt4pairIKS3_PNS0_7context11CDOhash_mapIS3_S3_St4hashIS3_EEEESaISC_ENSt8__detail10_Select1stESt8equal_toIS3_ES9_NSE_18_Mod_range_hashingENSE_20_Default_ranged_hashENSE_20_Prime_rehash_policyENSE_17_Hashtable_traitsILb1ELb0ELb1EEEE22_M_insert_bucket_beginEmPNSE_10_Hash_nodeISC_Lb1EEE = comdat any

$_ZNSt10_HashtableIN4cvc58internal12NodeTemplateILb1EEESt4pairIKS3_PNS0_7context11CDOhash_mapIS3_S3_St4hashIS3_EEEESaISC_ENSt8__detail10_Select1stESt8equal_toIS3_ES9_NSE_18_Mod_range_hashingENSE_20_Default_ranged_hashENSE_20_Prime_rehash_policyENSE_17_Hashtable_traitsILb1ELb0ELb1EEEE13_M_rehash_auxEmSt17integral_constantIbLb1EE = comdat any

$_ZNSt10_HashtableIN4cvc58internal12NodeTemplateILb1EEESt4pairIKS3_PNS0_7context11CDOhash_mapIS3_S3_St4hashIS3_EEEESaISC_ENSt8__detail10_Select1stESt8equal_toIS3_ES9_NSE_18_Mod_range_hashingENSE_20_Default_ranged_hashENSE_20_Prime_rehash_policyENSE_17_Hashtable_traitsILb1ELb0ELb1EEEE19_M_allocate_bucketsEm = comdat any

$_ZNSt8__detail16_Hashtable_allocISaINS_10_Hash_nodeISt4pairIKN4cvc58internal12NodeTemplateILb1EEEPNS3_7context11CDOhash_mapIS6_S6_St4hashIS6_EEEELb1EEEEE19_M_allocate_bucketsEm = comdat any

$_ZNSt4pairIKN4cvc58internal12NodeTemplateILb1EEES4_EC2IS4_S4_TnNSt9enable_ifIXaaclsr5_PCCPE18_ConstructiblePairIT_T0_EEclsr5_PCCPE26_ImplicitlyConvertiblePairIS8_S9_EEEbE4typeELb1EEERS4_SC_ = comdat any

$_ZN4cvc57context11CDOhash_mapINS_8internal12NodeTemplateILb1EEES4_St4hashIS4_EE3setERKS4_ = comdat any

$_ZNSt4pairIKN4cvc58internal12NodeTemplateILb1EEES4_ED2Ev = comdat any

$_ZN4cvc57context11CDOhash_mapINS_8internal12NodeTemplateILb1EEES4_St4hashIS4_EE4saveEPNS0_20ContextMemoryManagerE = comdat any

$_ZN4cvc57context11CDOhash_mapINS_8internal12NodeTemplateILb1EEES4_St4hashIS4_EE7restoreEPNS0_10ContextObjE = comdat any

$_ZN4cvc57context11CDOhash_mapINS_8internal12NodeTemplateILb1EEES4_St4hashIS4_EED2Ev = comdat any

$_ZN4cvc57context11CDOhash_mapINS_8internal12NodeTemplateILb1EEES4_St4hashIS4_EED0Ev = comdat any

$_ZN4cvc57context11CDOhash_mapINS_8internal12NodeTemplateILb1EEES4_St4hashIS4_EE12mutable_dataEv = comdat any

$_ZN4cvc57context11CDOhash_mapINS_8internal12NodeTemplateILb1EEES4_St4hashIS4_EEC2ERKS7_ = comdat any

$_ZNSt4pairIKN4cvc58internal12NodeTemplateILb1EEES4_EC2IS3_RS4_TnNSt9enable_ifIXaaclsr5_PCCPE22_MoveConstructiblePairIT_T0_EEclsr5_PCCPE30_ImplicitlyMoveConvertiblePairIS9_SA_EEEbE4typeELb1EEEOS9_OSA_ = comdat any

$_ZNSt13unordered_mapIN4cvc58internal12NodeTemplateILb1EEEPNS0_7context11CDOhash_mapIS3_S3_St4hashIS3_EEES7_St8equal_toIS3_ESaISt4pairIKS3_S9_EEE5eraseERSD_ = comdat any

$_ZNK4cvc57context11CDOhash_mapINS_8internal12NodeTemplateILb1EEES4_St4hashIS4_EE6getKeyEv = comdat any

$_ZN4cvc57context11CDOhash_mapINS_8internal12NodeTemplateILb1EEES4_St4hashIS4_EE11mutable_keyEv = comdat any

$_ZNSt10_HashtableIN4cvc58internal12NodeTemplateILb1EEESt4pairIKS3_PNS0_7context11CDOhash_mapIS3_S3_St4hashIS3_EEEESaISC_ENSt8__detail10_Select1stESt8equal_toIS3_ES9_NSE_18_Mod_range_hashingENSE_20_Default_ranged_hashENSE_20_Prime_rehash_policyENSE_17_Hashtable_traitsILb1ELb0ELb1EEEE5eraseERS5_ = comdat any

$_ZNSt10_HashtableIN4cvc58internal12NodeTemplateILb1EEESt4pairIKS3_PNS0_7context11CDOhash_mapIS3_S3_St4hashIS3_EEEESaISC_ENSt8__detail10_Select1stESt8equal_toIS3_ES9_NSE_18_Mod_range_hashingENSE_20_Default_ranged_hashENSE_20_Prime_rehash_policyENSE_17_Hashtable_traitsILb1ELb0ELb1EEEE8_M_eraseESt17integral_constantIbLb1EERS5_ = comdat any

$_ZNSt10_HashtableIN4cvc58internal12NodeTemplateILb1EEESt4pairIKS3_PNS0_7context11CDOhash_mapIS3_S3_St4hashIS3_EEEESaISC_ENSt8__detail10_Select1stESt8equal_toIS3_ES9_NSE_18_Mod_range_hashingENSE_20_Default_ranged_hashENSE_20_Prime_rehash_policyENSE_17_Hashtable_traitsILb1ELb0ELb1EEEE19_M_find_before_nodeERS5_ = comdat any

$_ZNSt10_HashtableIN4cvc58internal12NodeTemplateILb1EEESt4pairIKS3_PNS0_7context11CDOhash_mapIS3_S3_St4hashIS3_EEEESaISC_ENSt8__detail10_Select1stESt8equal_toIS3_ES9_NSE_18_Mod_range_hashingENSE_20_Default_ranged_hashENSE_20_Prime_rehash_policyENSE_17_Hashtable_traitsILb1ELb0ELb1EEEE8_M_eraseEmPNSE_15_Hash_node_baseEPNSE_10_Hash_nodeISC_Lb1EEE = comdat any

$_ZNSt10_HashtableIN4cvc58internal12NodeTemplateILb1EEESt4pairIKS3_PNS0_7context11CDOhash_mapIS3_S3_St4hashIS3_EEEESaISC_ENSt8__detail10_Select1stESt8equal_toIS3_ES9_NSE_18_Mod_range_hashingENSE_20_Default_ranged_hashENSE_20_Prime_rehash_policyENSE_17_Hashtable_traitsILb1ELb0ELb1EEEE22_M_remove_bucket_beginEmPNSE_10_Hash_nodeISC_Lb1EEEm = comdat any

$_ZNK4cvc58internal4expr9NodeValue14getNumChildrenEv = comdat any

$_ZNK4cvc58internal4expr9NodeValue11getMetaKindEv = comdat any

$_ZNK4cvc58internal4expr9NodeValue7getKindEv = comdat any

$_ZN4cvc58internal4expr9NodeValue11dKindToKindEj = comdat any

$_ZNK4cvc58internal4expr9NodeValue8getChildEi = comdat any

$_ZN4cvc58internal12NodeTemplateILb1EEC2EPKNS0_4expr9NodeValueE = comdat any

$_ZNSt12_Vector_baseIN4cvc58internal12NodeTemplateILb1EEESaIS3_EED2Ev = comdat any

$_ZNSt12_Vector_baseIN4cvc58internal12NodeTemplateILb1EEESaIS3_EE12_Vector_implD2Ev = comdat any

$_ZNSt6vectorIN4cvc58internal12NodeTemplateILb1EEESaIS3_EE12emplace_backIJS3_EEERS3_DpOT_ = comdat any

$_ZNSt16allocator_traitsISaIN4cvc58internal12NodeTemplateILb1EEEEE9constructIS3_JS3_EEEvRS4_PT_DpOT0_ = comdat any

$_ZNSt6vectorIN4cvc58internal12NodeTemplateILb1EEESaIS3_EE17_M_realloc_insertIJS3_EEEvN9__gnu_cxx17__normal_iteratorIPS3_S5_EEDpOT_ = comdat any

$_ZNSt15__new_allocatorIN4cvc58internal12NodeTemplateILb1EEEE9constructIS3_JS3_EEEvPT_DpOT0_ = comdat any

$_ZN9__gnu_cxxeqIPKN4cvc58internal12NodeTemplateILb1EEESt6vectorIS4_SaIS4_EEEEbRKNS_17__normal_iteratorIT_T0_EESF_ = comdat any

$_ZNKSt6vectorIN4cvc58internal12NodeTemplateILb1EEESaIS3_EE5beginEv = comdat any

$_ZNKSt6vectorIN4cvc58internal12NodeTemplateILb1EEESaIS3_EE3endEv = comdat any

$_ZNK9__gnu_cxx17__normal_iteratorIPKN4cvc58internal12NodeTemplateILb1EEESt6vectorIS4_SaIS4_EEE4baseEv = comdat any

$_ZN9__gnu_cxx17__normal_iteratorIPKN4cvc58internal12NodeTemplateILb1EEESt6vectorIS4_SaIS4_EEEC2ERKS6_ = comdat any

$_ZNK9__gnu_cxx17__normal_iteratorIPN4cvc58internal12NodeTemplateILb1EEESt6vectorIS4_SaIS4_EEEmiEl = comdat any

$_ZNK9__gnu_cxx17__normal_iteratorIPN4cvc58internal12NodeTemplateILb1EEESt6vectorIS4_SaIS4_EEEdeEv = comdat any

$_ZN9__gnu_cxx17__normal_iteratorIPN4cvc58internal12NodeTemplateILb1EEESt6vectorIS4_SaIS4_EEEC2ERKS5_ = comdat any

$_ZNK4cvc58internal4expr9NodeValue5beginINS0_12NodeTemplateILb1EEEEENS2_8iteratorIT_EEv = comdat any

$_ZN4cvc58internal4expr9NodeValue8iteratorINS0_12NodeTemplateILb1EEEEC2EPKPKS2_ = comdat any

$_ZNK4cvc58internal4expr9NodeValue3endINS0_12NodeTemplateILb1EEEEENS2_8iteratorIT_EEv = comdat any

$_ZN4cvc58internal12NodeTemplateILb1EEC2ERKNS1_ILb0EEE = comdat any

$_ZNK4cvc58internal8TypeNode6isNullEv = comdat any

$_ZN4cvc58internal11NodeBuilder6appendILb1EEERS1_RKSt6vectorINS0_12NodeTemplateIXT_EEESaIS6_EE = comdat any

$_ZN4cvc58internal11NodeBuilder6appendIN9__gnu_cxx17__normal_iteratorIPKNS0_12NodeTemplateILb1EEESt6vectorIS6_SaIS6_EEEEEERS1_RKT_SG_ = comdat any

$_ZN9__gnu_cxxneIPKN4cvc58internal12NodeTemplateILb1EEESt6vectorIS4_SaIS4_EEEEbRKNS_17__normal_iteratorIT_T0_EESF_ = comdat any

$_ZNK9__gnu_cxx17__normal_iteratorIPKN4cvc58internal12NodeTemplateILb1EEESt6vectorIS4_SaIS4_EEEdeEv = comdat any

$_ZN9__gnu_cxx17__normal_iteratorIPKN4cvc58internal12NodeTemplateILb1EEESt6vectorIS4_SaIS4_EEEppEv = comdat any

$_ZN9__gnu_cxx14__alloc_traitsISaIN4cvc58internal12NodeTemplateILb1EEEES4_E17_S_select_on_copyERKS5_ = comdat any

$_ZNSt12_Vector_baseIN4cvc58internal12NodeTemplateILb1EEESaIS3_EEC2EmRKS4_ = comdat any

$_ZSt22__uninitialized_copy_aIN9__gnu_cxx17__normal_iteratorIPKN4cvc58internal12NodeTemplateILb1EEESt6vectorIS5_SaIS5_EEEEPS5_S5_ET0_T_SE_SD_RSaIT1_E = comdat any

$_ZNSt16allocator_traitsISaIN4cvc58internal12NodeTemplateILb1EEEEE37select_on_container_copy_constructionERKS4_ = comdat any

$_ZNSaIN4cvc58internal12NodeTemplateILb1EEEEC2ERKS3_ = comdat any

$_ZNSt15__new_allocatorIN4cvc58internal12NodeTemplateILb1EEEEC2ERKS4_ = comdat any

$_ZNSt12_Vector_baseIN4cvc58internal12NodeTemplateILb1EEESaIS3_EE12_Vector_implC2ERKS4_ = comdat any

$_ZNSt12_Vector_baseIN4cvc58internal12NodeTemplateILb1EEESaIS3_EE17_M_create_storageEm = comdat any

$_ZSt18uninitialized_copyIN9__gnu_cxx17__normal_iteratorIPKN4cvc58internal12NodeTemplateILb1EEESt6vectorIS5_SaIS5_EEEEPS5_ET0_T_SE_SD_ = comdat any

$_ZNSt20__uninitialized_copyILb0EE13__uninit_copyIN9__gnu_cxx17__normal_iteratorIPKN4cvc58internal12NodeTemplateILb1EEESt6vectorIS7_SaIS7_EEEEPS7_EET0_T_SG_SF_ = comdat any

$_ZSt16__do_uninit_copyIN9__gnu_cxx17__normal_iteratorIPKN4cvc58internal12NodeTemplateILb1EEESt6vectorIS5_SaIS5_EEEEPS5_ET0_T_SE_SD_ = comdat any

$_ZNSt12_Vector_baseIN4cvc58internal12NodeTemplateILb1EEESaIS3_EEC2ERKS4_ = comdat any

$_ZNSt6vectorIN4cvc58internal12NodeTemplateILb1EEESaIS3_EE19_M_range_initializeIPKS3_EEvT_S9_St20forward_iterator_tag = comdat any

$_ZNKSt16initializer_listIN4cvc58internal12NodeTemplateILb1EEEE5beginEv = comdat any

$_ZNKSt16initializer_listIN4cvc58internal12NodeTemplateILb1EEEE3endEv = comdat any

$_ZSt8distanceIPKN4cvc58internal12NodeTemplateILb1EEEENSt15iterator_traitsIT_E15difference_typeES7_S7_ = comdat any

$_ZNSt6vectorIN4cvc58internal12NodeTemplateILb1EEESaIS3_EE17_S_check_init_lenEmRKS4_ = comdat any

$_ZSt10__distanceIPKN4cvc58internal12NodeTemplateILb1EEEENSt15iterator_traitsIT_E15difference_typeES7_S7_St26random_access_iterator_tag = comdat any

$_ZSt19__iterator_categoryIPKN4cvc58internal12NodeTemplateILb1EEEENSt15iterator_traitsIT_E17iterator_categoryERKS7_ = comdat any

$_ZNKSt16initializer_listIN4cvc58internal12NodeTemplateILb1EEEE4sizeEv = comdat any

$_ZNSt8_Rb_treeIN4cvc58internal12NodeTemplateILb1EEESt4pairIKS3_S3_ESt10_Select1stIS6_ESt4lessIS3_ESaIS6_EE4findERS5_ = comdat any

$_ZNSt8_Rb_treeIN4cvc58internal12NodeTemplateILb1EEESt4pairIKS3_S3_ESt10_Select1stIS6_ESt4lessIS3_ESaIS6_EE14_M_lower_boundEPSt13_Rb_tree_nodeIS6_EPSt18_Rb_tree_node_baseRS5_ = comdat any

$_ZNSt8_Rb_treeIN4cvc58internal12NodeTemplateILb1EEESt4pairIKS3_S3_ESt10_Select1stIS6_ESt4lessIS3_ESaIS6_EE8_M_beginEv = comdat any

$_ZNSt8_Rb_treeIN4cvc58internal12NodeTemplateILb1EEESt4pairIKS3_S3_ESt10_Select1stIS6_ESt4lessIS3_ESaIS6_EE6_M_endEv = comdat any

$_ZNSt8_Rb_treeIN4cvc58internal12NodeTemplateILb1EEESt4pairIKS3_S3_ESt10_Select1stIS6_ESt4lessIS3_ESaIS6_EE3endEv = comdat any

$_ZNKSt4lessIN4cvc58internal12NodeTemplateILb1EEEEclERKS3_S6_ = comdat any

$_ZNSt8_Rb_treeIN4cvc58internal12NodeTemplateILb1EEESt4pairIKS3_S3_ESt10_Select1stIS6_ESt4lessIS3_ESaIS6_EE6_S_keyEPKSt18_Rb_tree_node_base = comdat any

$_ZNSt8_Rb_treeIN4cvc58internal12NodeTemplateILb1EEESt4pairIKS3_S3_ESt10_Select1stIS6_ESt4lessIS3_ESaIS6_EE6_S_keyEPKSt13_Rb_tree_nodeIS6_E = comdat any

$_ZNSt8_Rb_treeIN4cvc58internal12NodeTemplateILb1EEESt4pairIKS3_S3_ESt10_Select1stIS6_ESt4lessIS3_ESaIS6_EE7_S_leftEPSt18_Rb_tree_node_base = comdat any

$_ZNSt8_Rb_treeIN4cvc58internal12NodeTemplateILb1EEESt4pairIKS3_S3_ESt10_Select1stIS6_ESt4lessIS3_ESaIS6_EE8_S_rightEPSt18_Rb_tree_node_base = comdat any

$_ZNSt17_Rb_tree_iteratorISt4pairIKN4cvc58internal12NodeTemplateILb1EEES4_EEC2EPSt18_Rb_tree_node_base = comdat any

$_ZNKSt10_Select1stISt4pairIKN4cvc58internal12NodeTemplateILb1EEES4_EEclERKS6_ = comdat any

$_ZNKSt13_Rb_tree_nodeISt4pairIKN4cvc58internal12NodeTemplateILb1EEES4_EE9_M_valptrEv = comdat any

$_ZNK9__gnu_cxx16__aligned_membufISt4pairIKN4cvc58internal12NodeTemplateILb1EEES5_EE6_M_ptrEv = comdat any

$_ZNK9__gnu_cxx16__aligned_membufISt4pairIKN4cvc58internal12NodeTemplateILb1EEES5_EE7_M_addrEv = comdat any

$_ZNKSt8_Rb_treeIN4cvc58internal12NodeTemplateILb1EEESt4pairIKS3_S3_ESt10_Select1stIS6_ESt4lessIS3_ESaIS6_EE9_M_mbeginEv = comdat any

$_ZNK4cvc58internal12NodeTemplateILb1EEltILb1EEEbRKNS1_IXT_EEE = comdat any

$_ZNSt3mapIN4cvc58internal12NodeTemplateILb1EEES3_St4lessIS3_ESaISt4pairIKS3_S3_EEE11lower_boundERS7_ = comdat any

$_ZNKSt3mapIN4cvc58internal12NodeTemplateILb1EEES3_St4lessIS3_ESaISt4pairIKS3_S3_EEE8key_compEv = comdat any

$_ZNKSt17_Rb_tree_iteratorISt4pairIKN4cvc58internal12NodeTemplateILb1EEES4_EEdeEv = comdat any

$_ZNSt8_Rb_treeIN4cvc58internal12NodeTemplateILb1EEESt4pairIKS3_S3_ESt10_Select1stIS6_ESt4lessIS3_ESaIS6_EE22_M_emplace_hint_uniqueIJRKSt21piecewise_construct_tSt5tupleIJRS5_EESH_IJEEEEESt17_Rb_tree_iteratorIS6_ESt23_Rb_tree_const_iteratorIS6_EDpOT_ = comdat any

$_ZNSt23_Rb_tree_const_iteratorISt4pairIKN4cvc58internal12NodeTemplateILb1EEES4_EEC2ERKSt17_Rb_tree_iteratorIS6_E = comdat any

$_ZNSt5tupleIJRKN4cvc58internal12NodeTemplateILb1EEEEEC2ILb1ETnNSt9enable_ifIXclsr4_TCCIXT_EEE29__is_implicitly_constructibleIS5_EEEbE4typeELb1EEES5_ = comdat any

$_ZNSt8_Rb_treeIN4cvc58internal12NodeTemplateILb1EEESt4pairIKS3_S3_ESt10_Select1stIS6_ESt4lessIS3_ESaIS6_EE11lower_boundERS5_ = comdat any

$_ZNKSt8_Rb_treeIN4cvc58internal12NodeTemplateILb1EEESt4pairIKS3_S3_ESt10_Select1stIS6_ESt4lessIS3_ESaIS6_EE8key_compEv = comdat any

$_ZNSt13_Rb_tree_nodeISt4pairIKN4cvc58internal12NodeTemplateILb1EEES4_EE9_M_valptrEv = comdat any

$_ZN9__gnu_cxx16__aligned_membufISt4pairIKN4cvc58internal12NodeTemplateILb1EEES5_EE6_M_ptrEv = comdat any

$_ZN9__gnu_cxx16__aligned_membufISt4pairIKN4cvc58internal12NodeTemplateILb1EEES5_EE7_M_addrEv = comdat any

$_ZNSt8_Rb_treeIN4cvc58internal12NodeTemplateILb1EEESt4pairIKS3_S3_ESt10_Select1stIS6_ESt4lessIS3_ESaIS6_EE10_Auto_nodeC2IJRKSt21piecewise_construct_tSt5tupleIJRS5_EESI_IJEEEEERSC_DpOT_ = comdat any

$_ZNSt8_Rb_treeIN4cvc58internal12NodeTemplateILb1EEESt4pairIKS3_S3_ESt10_Select1stIS6_ESt4lessIS3_ESaIS6_EE29_M_get_insert_hint_unique_posESt23_Rb_tree_const_iteratorIS6_ERS5_ = comdat any

$_ZNKSt8_Rb_treeIN4cvc58internal12NodeTemplateILb1EEESt4pairIKS3_S3_ESt10_Select1stIS6_ESt4lessIS3_ESaIS6_EE10_Auto_node6_M_keyEv = comdat any

$_ZNSt8_Rb_treeIN4cvc58internal12NodeTemplateILb1EEESt4pairIKS3_S3_ESt10_Select1stIS6_ESt4lessIS3_ESaIS6_EE10_Auto_node9_M_insertES4_IPSt18_Rb_tree_node_baseSF_E = comdat any

$_ZNSt8_Rb_treeIN4cvc58internal12NodeTemplateILb1EEESt4pairIKS3_S3_ESt10_Select1stIS6_ESt4lessIS3_ESaIS6_EE10_Auto_nodeD2Ev = comdat any

$_ZNSt8_Rb_treeIN4cvc58internal12NodeTemplateILb1EEESt4pairIKS3_S3_ESt10_Select1stIS6_ESt4lessIS3_ESaIS6_EE14_M_create_nodeIJRKSt21piecewise_construct_tSt5tupleIJRS5_EESH_IJEEEEEPSt13_Rb_tree_nodeIS6_EDpOT_ = comdat any

$_ZNSt8_Rb_treeIN4cvc58internal12NodeTemplateILb1EEESt4pairIKS3_S3_ESt10_Select1stIS6_ESt4lessIS3_ESaIS6_EE11_M_get_nodeEv = comdat any

$_ZNSt8_Rb_treeIN4cvc58internal12NodeTemplateILb1EEESt4pairIKS3_S3_ESt10_Select1stIS6_ESt4lessIS3_ESaIS6_EE17_M_construct_nodeIJRKSt21piecewise_construct_tSt5tupleIJRS5_EESH_IJEEEEEvPSt13_Rb_tree_nodeIS6_EDpOT_ = comdat any

$_ZNSt16allocator_traitsISaISt13_Rb_tree_nodeISt4pairIKN4cvc58internal12NodeTemplateILb1EEES5_EEEE8allocateERS9_m = comdat any

$_ZNSt8_Rb_treeIN4cvc58internal12NodeTemplateILb1EEESt4pairIKS3_S3_ESt10_Select1stIS6_ESt4lessIS3_ESaIS6_EE21_M_get_Node_allocatorEv = comdat any

$_ZNSt15__new_allocatorISt13_Rb_tree_nodeISt4pairIKN4cvc58internal12NodeTemplateILb1EEES5_EEE8allocateEmPKv = comdat any

$_ZNKSt15__new_allocatorISt13_Rb_tree_nodeISt4pairIKN4cvc58internal12NodeTemplateILb1EEES5_EEE11_M_max_sizeEv = comdat any

$_ZNSt16allocator_traitsISaISt13_Rb_tree_nodeISt4pairIKN4cvc58internal12NodeTemplateILb1EEES5_EEEE9constructIS7_JRKSt21piecewise_construct_tSt5tupleIJRS6_EESF_IJEEEEEvRS9_PT_DpOT0_ = comdat any

$_ZNSt8_Rb_treeIN4cvc58internal12NodeTemplateILb1EEESt4pairIKS3_S3_ESt10_Select1stIS6_ESt4lessIS3_ESaIS6_EE11_M_put_nodeEPSt13_Rb_tree_nodeIS6_E = comdat any

$_ZNSt15__new_allocatorISt13_Rb_tree_nodeISt4pairIKN4cvc58internal12NodeTemplateILb1EEES5_EEE9constructIS7_JRKSt21piecewise_construct_tSt5tupleIJRS6_EESE_IJEEEEEvPT_DpOT0_ = comdat any

$_ZNSt5tupleIJRKN4cvc58internal12NodeTemplateILb1EEEEEC2EOS6_ = comdat any

$_ZNSt4pairIKN4cvc58internal12NodeTemplateILb1EEES3_EC2IJRS4_EJEEESt21piecewise_construct_tSt5tupleIJDpT_EES9_IJDpT0_EE = comdat any

$_ZNSt11_Tuple_implILm0EJRKN4cvc58internal12NodeTemplateILb1EEEEEC2EOS6_ = comdat any

$_ZNSt4pairIKN4cvc58internal12NodeTemplateILb1EEES3_EC2IJRS4_EJLm0EEJETpTnmJEEERSt5tupleIJDpT_EERS8_IJDpT1_EESt12_Index_tupleIJXspT0_EEESH_IJXspT2_EEE = comdat any

$_ZSt3getILm0EJRKN4cvc58internal12NodeTemplateILb1EEEEERNSt13tuple_elementIXT_ESt5tupleIJDpT0_EEE4typeERSA_ = comdat any

$_ZSt12__get_helperILm0ERKN4cvc58internal12NodeTemplateILb1EEEJEERT0_RSt11_Tuple_implIXT_EJS6_DpT1_EE = comdat any

$_ZNSt11_Tuple_implILm0EJRKN4cvc58internal12NodeTemplateILb1EEEEE7_M_headERS6_ = comdat any

$_ZNSt10_Head_baseILm0ERKN4cvc58internal12NodeTemplateILb1EEELb0EE7_M_headERS6_ = comdat any

$_ZNSt16allocator_traitsISaISt13_Rb_tree_nodeISt4pairIKN4cvc58internal12NodeTemplateILb1EEES5_EEEE10deallocateERS9_PS8_m = comdat any

$_ZNSt15__new_allocatorISt13_Rb_tree_nodeISt4pairIKN4cvc58internal12NodeTemplateILb1EEES5_EEE10deallocateEPS8_m = comdat any

$_ZNKSt23_Rb_tree_const_iteratorISt4pairIKN4cvc58internal12NodeTemplateILb1EEES4_EE13_M_const_castEv = comdat any

$_ZNKSt8_Rb_treeIN4cvc58internal12NodeTemplateILb1EEESt4pairIKS3_S3_ESt10_Select1stIS6_ESt4lessIS3_ESaIS6_EE4sizeEv = comdat any

$_ZNSt8_Rb_treeIN4cvc58internal12NodeTemplateILb1EEESt4pairIKS3_S3_ESt10_Select1stIS6_ESt4lessIS3_ESaIS6_EE12_M_rightmostEv = comdat any

$_ZNSt4pairIPSt18_Rb_tree_node_baseS1_EC2IS1_S1_TnNSt9enable_ifIXaaclsr5_PCCPE18_ConstructiblePairIT_T0_EEclsr5_PCCPE26_ImplicitlyConvertiblePairIS5_S6_EEEbE4typeELb1EEERKS1_SA_ = comdat any

$_ZNSt8_Rb_treeIN4cvc58internal12NodeTemplateILb1EEESt4pairIKS3_S3_ESt10_Select1stIS6_ESt4lessIS3_ESaIS6_EE24_M_get_insert_unique_posERS5_ = comdat any

$_ZNSt8_Rb_treeIN4cvc58internal12NodeTemplateILb1EEESt4pairIKS3_S3_ESt10_Select1stIS6_ESt4lessIS3_ESaIS6_EE11_M_leftmostEv = comdat any

$_ZNSt4pairIPSt18_Rb_tree_node_baseS1_EC2IRS1_S4_TnNSt9enable_ifIXaaclsr5_PCCPE22_MoveConstructiblePairIT_T0_EEclsr5_PCCPE30_ImplicitlyMoveConvertiblePairIS6_S7_EEEbE4typeELb1EEEOS6_OS7_ = comdat any

$_ZNSt17_Rb_tree_iteratorISt4pairIKN4cvc58internal12NodeTemplateILb1EEES4_EEmmEv = comdat any

$_ZNSt17_Rb_tree_iteratorISt4pairIKN4cvc58internal12NodeTemplateILb1EEES4_EEppEv = comdat any

$_ZNSt8_Rb_treeIN4cvc58internal12NodeTemplateILb1EEESt4pairIKS3_S3_ESt10_Select1stIS6_ESt4lessIS3_ESaIS6_EE5beginEv = comdat any

$_ZNSt4pairIPSt18_Rb_tree_node_baseS1_EC2IRPSt13_Rb_tree_nodeIS_IKN4cvc58internal12NodeTemplateILb1EEES8_EERS1_TnNSt9enable_ifIXaaclsr5_PCCPE22_MoveConstructiblePairIT_T0_EEclsr5_PCCPE30_ImplicitlyMoveConvertiblePairISG_SH_EEEbE4typeELb1EEEOSG_OSH_ = comdat any

$_ZNSt8_Rb_treeIN4cvc58internal12NodeTemplateILb1EEESt4pairIKS3_S3_ESt10_Select1stIS6_ESt4lessIS3_ESaIS6_EE14_M_insert_nodeEPSt18_Rb_tree_node_baseSE_PSt13_Rb_tree_nodeIS6_E = comdat any

$_ZNSt8_Rb_treeIN4cvc58internal12NodeTemplateILb1EEESt4pairIKS3_S3_ESt10_Select1stIS6_ESt4lessIS3_ESaIS6_EE12_M_drop_nodeEPSt13_Rb_tree_nodeIS6_E = comdat any

$_ZNSt8_Rb_treeIN4cvc58internal12NodeTemplateILb1EEESt4pairIKS3_S3_ESt10_Select1stIS6_ESt4lessIS3_ESaIS6_EE15_M_destroy_nodeEPSt13_Rb_tree_nodeIS6_E = comdat any

$_ZNSt16allocator_traitsISaISt13_Rb_tree_nodeISt4pairIKN4cvc58internal12NodeTemplateILb1EEES5_EEEE7destroyIS7_EEvRS9_PT_ = comdat any

$_ZNSt15__new_allocatorISt13_Rb_tree_nodeISt4pairIKN4cvc58internal12NodeTemplateILb1EEES5_EEE7destroyIS7_EEvPT_ = comdat any

$_ZNSt4pairIKN4cvc58internal12NodeTemplateILb1EEES3_ED2Ev = comdat any

$_ZNSt11_Tuple_implILm0EJRKN4cvc58internal12NodeTemplateILb1EEEEEC2ES5_ = comdat any

$_ZNSt10_Head_baseILm0ERKN4cvc58internal12NodeTemplateILb1EEELb0EEC2ES5_ = comdat any

$_ZSt8_DestroyIPN4cvc58internal8TypeNodeES2_EvT_S4_RSaIT0_E = comdat any

$_ZNSt12_Vector_baseIN4cvc58internal8TypeNodeESaIS2_EE19_M_get_Tp_allocatorEv = comdat any

$_ZNSt12_Vector_baseIN4cvc58internal8TypeNodeESaIS2_EED2Ev = comdat any

$_ZSt8_DestroyIPN4cvc58internal8TypeNodeEEvT_S4_ = comdat any

$_ZNSt12_Destroy_auxILb0EE9__destroyIPN4cvc58internal8TypeNodeEEEvT_S6_ = comdat any

$_ZSt8_DestroyIN4cvc58internal8TypeNodeEEvPT_ = comdat any

$_ZNSt12_Vector_baseIN4cvc58internal8TypeNodeESaIS2_EE13_M_deallocateEPS2_m = comdat any

$_ZNSt12_Vector_baseIN4cvc58internal8TypeNodeESaIS2_EE12_Vector_implD2Ev = comdat any

$_ZNSt16allocator_traitsISaIN4cvc58internal8TypeNodeEEE10deallocateERS3_PS2_m = comdat any

$_ZNSt15__new_allocatorIN4cvc58internal8TypeNodeEE10deallocateEPS2_m = comdat any

$_ZNSaIN4cvc58internal8TypeNodeEED2Ev = comdat any

$_ZNSt15__new_allocatorIN4cvc58internal8TypeNodeEED2Ev = comdat any

$_ZN9__gnu_cxx17__normal_iteratorIPN4cvc58internal8TypeNodeESt6vectorIS3_SaIS3_EEEC2ERKS4_ = comdat any

$_ZNK9__gnu_cxx17__normal_iteratorIPN4cvc58internal8TypeNodeESt6vectorIS3_SaIS3_EEE4baseEv = comdat any

$_ZNSt16allocator_traitsISaIN4cvc58internal8TypeNodeEEE9constructIS2_JRKS2_EEEvRS3_PT_DpOT0_ = comdat any

$_ZNSt6vectorIN4cvc58internal8TypeNodeESaIS2_EE17_M_realloc_insertIJRKS2_EEEvN9__gnu_cxx17__normal_iteratorIPS2_S4_EEDpOT_ = comdat any

$_ZNSt15__new_allocatorIN4cvc58internal8TypeNodeEE9constructIS2_JRKS2_EEEvPT_DpOT0_ = comdat any

$_ZNKSt6vectorIN4cvc58internal8TypeNodeESaIS2_EE12_M_check_lenEmPKc = comdat any

$_ZN9__gnu_cxxmiIPN4cvc58internal8TypeNodeESt6vectorIS3_SaIS3_EEEENS_17__normal_iteratorIT_T0_E15difference_typeERKSB_SE_ = comdat any

$_ZNSt12_Vector_baseIN4cvc58internal8TypeNodeESaIS2_EE11_M_allocateEm = comdat any

$_ZSt34__uninitialized_move_if_noexcept_aIPN4cvc58internal8TypeNodeES3_SaIS2_EET0_T_S6_S5_RT1_ = comdat any

$_ZNSt16allocator_traitsISaIN4cvc58internal8TypeNodeEEE7destroyIS2_EEvRS3_PT_ = comdat any

$_ZNKSt6vectorIN4cvc58internal8TypeNodeESaIS2_EE8max_sizeEv = comdat any

$_ZNKSt6vectorIN4cvc58internal8TypeNodeESaIS2_EE4sizeEv = comdat any

$_ZNSt6vectorIN4cvc58internal8TypeNodeESaIS2_EE11_S_max_sizeERKS3_ = comdat any

$_ZNKSt12_Vector_baseIN4cvc58internal8TypeNodeESaIS2_EE19_M_get_Tp_allocatorEv = comdat any

$_ZNSt16allocator_traitsISaIN4cvc58internal8TypeNodeEEE8max_sizeERKS3_ = comdat any

$_ZNKSt15__new_allocatorIN4cvc58internal8TypeNodeEE8max_sizeEv = comdat any

$_ZNKSt15__new_allocatorIN4cvc58internal8TypeNodeEE11_M_max_sizeEv = comdat any

$_ZNSt16allocator_traitsISaIN4cvc58internal8TypeNodeEEE8allocateERS3_m = comdat any

$_ZNSt15__new_allocatorIN4cvc58internal8TypeNodeEE8allocateEmPKv = comdat any

$_ZSt22__uninitialized_copy_aIPKN4cvc58internal8TypeNodeEPS2_S2_ET0_T_S7_S6_RSaIT1_E = comdat any

$_ZSt32__make_move_if_noexcept_iteratorIN4cvc58internal8TypeNodeEPKS2_ET0_PT_ = comdat any

$_ZSt18uninitialized_copyIPKN4cvc58internal8TypeNodeEPS2_ET0_T_S7_S6_ = comdat any

$_ZNSt20__uninitialized_copyILb0EE13__uninit_copyIPKN4cvc58internal8TypeNodeEPS4_EET0_T_S9_S8_ = comdat any

$_ZSt16__do_uninit_copyIPKN4cvc58internal8TypeNodeEPS2_ET0_T_S7_S6_ = comdat any

$_ZSt10_ConstructIN4cvc58internal8TypeNodeEJRKS2_EEvPT_DpOT0_ = comdat any

$_ZNSt15__new_allocatorIN4cvc58internal8TypeNodeEE7destroyIS2_EEvPT_ = comdat any

$_ZNSt10_HashtableIN4cvc58internal12NodeTemplateILb1EEES3_SaIS3_ENSt8__detail9_IdentityESt8equal_toIS3_ESt4hashIS3_ENS5_18_Mod_range_hashingENS5_20_Default_ranged_hashENS5_20_Prime_rehash_policyENS5_17_Hashtable_traitsILb1ELb1ELb1EEEE5beginEv = comdat any

$_ZNSt8__detail14_Node_iteratorIN4cvc58internal12NodeTemplateILb1EEELb1ELb1EEC2EPNS_10_Hash_nodeIS4_Lb1EEE = comdat any

$_ZNSt8__detail19_Node_iterator_baseIN4cvc58internal12NodeTemplateILb1EEELb1EEC2EPNS_10_Hash_nodeIS4_Lb1EEE = comdat any

$_ZNSt10_HashtableIN4cvc58internal12NodeTemplateILb1EEES3_SaIS3_ENSt8__detail9_IdentityESt8equal_toIS3_ESt4hashIS3_ENS5_18_Mod_range_hashingENS5_20_Default_ranged_hashENS5_20_Prime_rehash_policyENS5_17_Hashtable_traitsILb1ELb1ELb1EEEE3endEv = comdat any

$_ZNSt8__detail19_Node_iterator_baseIN4cvc58internal12NodeTemplateILb1EEELb1EE7_M_incrEv = comdat any

$_ZNSt8__detail21_Hash_node_value_baseIN4cvc58internal12NodeTemplateILb1EEEE4_M_vEv = comdat any

$_ZNSt13unordered_mapIN4cvc58internal12NodeTemplateILb0EEES3_St4hashIS3_ESt8equal_toIS3_ESaISt4pairIKS3_S3_EEEC2Ev = comdat any

$_ZNK4cvc58internal12NodeTemplateILb1EE10substituteIN9__gnu_cxx17__normal_iteratorIPS2_St6vectorIS2_SaIS2_EEEESA_EES2_T_SB_T0_SC_RSt13unordered_mapINS1_ILb0EEESE_St4hashISE_ESt8equal_toISE_ESaISt4pairIKSE_SE_EEE = comdat any

$_ZNSt13unordered_mapIN4cvc58internal12NodeTemplateILb0EEES3_St4hashIS3_ESt8equal_toIS3_ESaISt4pairIKS3_S3_EEED2Ev = comdat any

$_ZNSt10_HashtableIN4cvc58internal12NodeTemplateILb0EEESt4pairIKS3_S3_ESaIS6_ENSt8__detail10_Select1stESt8equal_toIS3_ESt4hashIS3_ENS8_18_Mod_range_hashingENS8_20_Default_ranged_hashENS8_20_Prime_rehash_policyENS8_17_Hashtable_traitsILb1ELb0ELb1EEEEC2Ev = comdat any

$_ZNSt8__detail15_Hashtable_baseIN4cvc58internal12NodeTemplateILb0EEESt4pairIKS4_S4_ENS_10_Select1stESt8equal_toIS4_ESt4hashIS4_ENS_18_Mod_range_hashingENS_20_Default_ranged_hashENS_17_Hashtable_traitsILb1ELb0ELb1EEEEC2Ev = comdat any

$_ZNSt8__detail16_Hashtable_allocISaINS_10_Hash_nodeISt4pairIKN4cvc58internal12NodeTemplateILb0EEES6_ELb1EEEEEC2Ev = comdat any

$_ZNSt8__detail15_Hash_code_baseIN4cvc58internal12NodeTemplateILb0EEESt4pairIKS4_S4_ENS_10_Select1stESt4hashIS4_ENS_18_Mod_range_hashingENS_20_Default_ranged_hashELb1EEC2Ev = comdat any

$_ZNSt8__detail21_Hashtable_ebo_helperILi0ESt8equal_toIN4cvc58internal12NodeTemplateILb0EEEELb1EEC2Ev = comdat any

$_ZNSt8__detail21_Hashtable_ebo_helperILi1ESt4hashIN4cvc58internal12NodeTemplateILb0EEEELb1EEC2Ev = comdat any

$_ZNSt8__detail21_Hashtable_ebo_helperILi0ESaINS_10_Hash_nodeISt4pairIKN4cvc58internal12NodeTemplateILb0EEES6_ELb1EEEELb1EEC2Ev = comdat any

$_ZNSaINSt8__detail10_Hash_nodeISt4pairIKN4cvc58internal12NodeTemplateILb0EEES5_ELb1EEEEC2Ev = comdat any

$_ZNSt15__new_allocatorINSt8__detail10_Hash_nodeISt4pairIKN4cvc58internal12NodeTemplateILb0EEES6_ELb1EEEEC2Ev = comdat any

$_ZNSt13unordered_mapIN4cvc58internal12NodeTemplateILb0EEES3_St4hashIS3_ESt8equal_toIS3_ESaISt4pairIKS3_S3_EEE4findERS9_ = comdat any

$_ZNSt8__detail20_Node_const_iteratorISt4pairIKN4cvc58internal12NodeTemplateILb0EEES5_ELb0ELb1EEC2ERKNS_14_Node_iteratorIS7_Lb0ELb1EEE = comdat any

$_ZNSt8__detailneERKNS_19_Node_iterator_baseISt4pairIKN4cvc58internal12NodeTemplateILb0EEES5_ELb1EEESA_ = comdat any

$_ZNSt13unordered_mapIN4cvc58internal12NodeTemplateILb0EEES3_St4hashIS3_ESt8equal_toIS3_ESaISt4pairIKS3_S3_EEE3endEv = comdat any

$_ZNKSt8__detail20_Node_const_iteratorISt4pairIKN4cvc58internal12NodeTemplateILb0EEES5_ELb0ELb1EEdeEv = comdat any

$_ZSt4findIN9__gnu_cxx17__normal_iteratorIPN4cvc58internal12NodeTemplateILb1EEESt6vectorIS5_SaIS5_EEEENS4_ILb0EEEET_SC_SC_RKT0_ = comdat any

$_ZN9__gnu_cxxneIPN4cvc58internal12NodeTemplateILb1EEESt6vectorIS4_SaIS4_EEEEbRKNS_17__normal_iteratorIT_T0_EESE_ = comdat any

$_ZSt7advanceIN9__gnu_cxx17__normal_iteratorIPN4cvc58internal12NodeTemplateILb1EEESt6vectorIS5_SaIS5_EEEElEvRT_T0_ = comdat any

$_ZSt8distanceIN9__gnu_cxx17__normal_iteratorIPN4cvc58internal12NodeTemplateILb1EEESt6vectorIS5_SaIS5_EEEEENSt15iterator_traitsIT_E15difference_typeESC_SC_ = comdat any

$_ZNSt13unordered_mapIN4cvc58internal12NodeTemplateILb0EEES3_St4hashIS3_ESt8equal_toIS3_ESaISt4pairIKS3_S3_EEEixEOS3_ = comdat any

$_ZN4cvc58internal12NodeTemplateILb0EEaSERKNS1_ILb1EEE = comdat any

$_ZNK4cvc58internal12NodeTemplateILb1EE5beginEv = comdat any

$_ZNK4cvc58internal12NodeTemplateILb1EE3endEv = comdat any

$_ZNSt10_HashtableIN4cvc58internal12NodeTemplateILb0EEESt4pairIKS3_S3_ESaIS6_ENSt8__detail10_Select1stESt8equal_toIS3_ESt4hashIS3_ENS8_18_Mod_range_hashingENS8_20_Default_ranged_hashENS8_20_Prime_rehash_policyENS8_17_Hashtable_traitsILb1ELb0ELb1EEEE4findERS5_ = comdat any

$_ZNKSt10_HashtableIN4cvc58internal12NodeTemplateILb0EEESt4pairIKS3_S3_ESaIS6_ENSt8__detail10_Select1stESt8equal_toIS3_ESt4hashIS3_ENS8_18_Mod_range_hashingENS8_20_Default_ranged_hashENS8_20_Prime_rehash_policyENS8_17_Hashtable_traitsILb1ELb0ELb1EEEE4sizeEv = comdat any

$_ZNSt10_HashtableIN4cvc58internal12NodeTemplateILb0EEESt4pairIKS3_S3_ESaIS6_ENSt8__detail10_Select1stESt8equal_toIS3_ESt4hashIS3_ENS8_18_Mod_range_hashingENS8_20_Default_ranged_hashENS8_20_Prime_rehash_policyENS8_17_Hashtable_traitsILb1ELb0ELb1EEEE22__small_size_thresholdEv = comdat any

$_ZNSt10_HashtableIN4cvc58internal12NodeTemplateILb0EEESt4pairIKS3_S3_ESaIS6_ENSt8__detail10_Select1stESt8equal_toIS3_ESt4hashIS3_ENS8_18_Mod_range_hashingENS8_20_Default_ranged_hashENS8_20_Prime_rehash_policyENS8_17_Hashtable_traitsILb1ELb0ELb1EEEE5beginEv = comdat any

$_ZNSt10_HashtableIN4cvc58internal12NodeTemplateILb0EEESt4pairIKS3_S3_ESaIS6_ENSt8__detail10_Select1stESt8equal_toIS3_ESt4hashIS3_ENS8_18_Mod_range_hashingENS8_20_Default_ranged_hashENS8_20_Prime_rehash_policyENS8_17_Hashtable_traitsILb1ELb0ELb1EEEE3endEv = comdat any

$_ZNKSt8__detail15_Hashtable_baseIN4cvc58internal12NodeTemplateILb0EEESt4pairIKS4_S4_ENS_10_Select1stESt8equal_toIS4_ESt4hashIS4_ENS_18_Mod_range_hashingENS_20_Default_ranged_hashENS_17_Hashtable_traitsILb1ELb0ELb1EEEE13_M_key_equalsERS6_RKNS_16_Hash_node_valueIS7_Lb1EEE = comdat any

$_ZNSt8__detail14_Node_iteratorISt4pairIKN4cvc58internal12NodeTemplateILb0EEES5_ELb0ELb1EEppEv = comdat any

$_ZNKSt8__detail15_Hash_code_baseIN4cvc58internal12NodeTemplateILb0EEESt4pairIKS4_S4_ENS_10_Select1stESt4hashIS4_ENS_18_Mod_range_hashingENS_20_Default_ranged_hashELb1EE12_M_hash_codeERS6_ = comdat any

$_ZNKSt10_HashtableIN4cvc58internal12NodeTemplateILb0EEESt4pairIKS3_S3_ESaIS6_ENSt8__detail10_Select1stESt8equal_toIS3_ESt4hashIS3_ENS8_18_Mod_range_hashingENS8_20_Default_ranged_hashENS8_20_Prime_rehash_policyENS8_17_Hashtable_traitsILb1ELb0ELb1EEEE15_M_bucket_indexEm = comdat any

$_ZNKSt10_HashtableIN4cvc58internal12NodeTemplateILb0EEESt4pairIKS3_S3_ESaIS6_ENSt8__detail10_Select1stESt8equal_toIS3_ESt4hashIS3_ENS8_18_Mod_range_hashingENS8_20_Default_ranged_hashENS8_20_Prime_rehash_policyENS8_17_Hashtable_traitsILb1ELb0ELb1EEEE12_M_find_nodeEmRS5_m = comdat any

$_ZNSt8__detail14_Node_iteratorISt4pairIKN4cvc58internal12NodeTemplateILb0EEES5_ELb0ELb1EEC2EPNS_10_Hash_nodeIS7_Lb1EEE = comdat any

$_ZNSt8__detail22_Hashtable_hash_traitsISt4hashIN4cvc58internal12NodeTemplateILb0EEEEE22__small_size_thresholdEv = comdat any

$_ZNKSt10_HashtableIN4cvc58internal12NodeTemplateILb0EEESt4pairIKS3_S3_ESaIS6_ENSt8__detail10_Select1stESt8equal_toIS3_ESt4hashIS3_ENS8_18_Mod_range_hashingENS8_20_Default_ranged_hashENS8_20_Prime_rehash_policyENS8_17_Hashtable_traitsILb1ELb0ELb1EEEE8_M_beginEv = comdat any

$_ZNKSt8__detail15_Hashtable_baseIN4cvc58internal12NodeTemplateILb0EEESt4pairIKS4_S4_ENS_10_Select1stESt8equal_toIS4_ESt4hashIS4_ENS_18_Mod_range_hashingENS_20_Default_ranged_hashENS_17_Hashtable_traitsILb1ELb0ELb1EEEE5_M_eqEv = comdat any

$_ZNKSt8equal_toIN4cvc58internal12NodeTemplateILb0EEEEclERKS3_S6_ = comdat any

$_ZNKSt8__detail10_Select1stclIRKSt4pairIKN4cvc58internal12NodeTemplateILb0EEES6_EEEONS0_10__1st_typeIT_E4typeEOSC_ = comdat any

$_ZNKSt8__detail21_Hash_node_value_baseISt4pairIKN4cvc58internal12NodeTemplateILb0EEES5_EE4_M_vEv = comdat any

$_ZNKSt8__detail21_Hashtable_ebo_helperILi0ESt8equal_toIN4cvc58internal12NodeTemplateILb0EEEELb1EE7_M_cgetEv = comdat any

$_ZNK4cvc58internal12NodeTemplateILb0EEeqILb0EEEbRKNS1_IXT_EEE = comdat any

$_ZNKSt8__detail21_Hash_node_value_baseISt4pairIKN4cvc58internal12NodeTemplateILb0EEES5_EE9_M_valptrEv = comdat any

$_ZNK9__gnu_cxx16__aligned_bufferISt4pairIKN4cvc58internal12NodeTemplateILb0EEES5_EE6_M_ptrEv = comdat any

$_ZNK9__gnu_cxx16__aligned_bufferISt4pairIKN4cvc58internal12NodeTemplateILb0EEES5_EE7_M_addrEv = comdat any

$_ZNSt8__detail19_Node_iterator_baseISt4pairIKN4cvc58internal12NodeTemplateILb0EEES5_ELb1EE7_M_incrEv = comdat any

$_ZNKSt8__detail10_Hash_nodeISt4pairIKN4cvc58internal12NodeTemplateILb0EEES5_ELb1EE7_M_nextEv = comdat any

$_ZNKSt8__detail15_Hash_code_baseIN4cvc58internal12NodeTemplateILb0EEESt4pairIKS4_S4_ENS_10_Select1stESt4hashIS4_ENS_18_Mod_range_hashingENS_20_Default_ranged_hashELb1EE7_M_hashEv = comdat any

$_ZNKSt8__detail21_Hashtable_ebo_helperILi1ESt4hashIN4cvc58internal12NodeTemplateILb0EEEELb1EE7_M_cgetEv = comdat any

$_ZNKSt8__detail15_Hash_code_baseIN4cvc58internal12NodeTemplateILb0EEESt4pairIKS4_S4_ENS_10_Select1stESt4hashIS4_ENS_18_Mod_range_hashingENS_20_Default_ranged_hashELb1EE15_M_bucket_indexEmm = comdat any

$_ZNKSt10_HashtableIN4cvc58internal12NodeTemplateILb0EEESt4pairIKS3_S3_ESaIS6_ENSt8__detail10_Select1stESt8equal_toIS3_ESt4hashIS3_ENS8_18_Mod_range_hashingENS8_20_Default_ranged_hashENS8_20_Prime_rehash_policyENS8_17_Hashtable_traitsILb1ELb0ELb1EEEE19_M_find_before_nodeEmRS5_m = comdat any

$_ZNKSt8__detail15_Hashtable_baseIN4cvc58internal12NodeTemplateILb0EEESt4pairIKS4_S4_ENS_10_Select1stESt8equal_toIS4_ESt4hashIS4_ENS_18_Mod_range_hashingENS_20_Default_ranged_hashENS_17_Hashtable_traitsILb1ELb0ELb1EEEE9_M_equalsERS6_mRKNS_16_Hash_node_valueIS7_Lb1EEE = comdat any

$_ZNKSt10_HashtableIN4cvc58internal12NodeTemplateILb0EEESt4pairIKS3_S3_ESaIS6_ENSt8__detail10_Select1stESt8equal_toIS3_ESt4hashIS3_ENS8_18_Mod_range_hashingENS8_20_Default_ranged_hashENS8_20_Prime_rehash_policyENS8_17_Hashtable_traitsILb1ELb0ELb1EEEE15_M_bucket_indexERKNS8_16_Hash_node_valueIS6_Lb1EEE = comdat any

$_ZNSt8__detail15_Hashtable_baseIN4cvc58internal12NodeTemplateILb0EEESt4pairIKS4_S4_ENS_10_Select1stESt8equal_toIS4_ESt4hashIS4_ENS_18_Mod_range_hashingENS_20_Default_ranged_hashENS_17_Hashtable_traitsILb1ELb0ELb1EEEE9_S_equalsEmRKNS_21_Hash_node_code_cacheILb1EEE = comdat any

$_ZNKSt8__detail15_Hash_code_baseIN4cvc58internal12NodeTemplateILb0EEESt4pairIKS4_S4_ENS_10_Select1stESt4hashIS4_ENS_18_Mod_range_hashingENS_20_Default_ranged_hashELb1EE15_M_bucket_indexERKNS_16_Hash_node_valueIS7_Lb1EEEm = comdat any

$_ZNSt8__detail19_Node_iterator_baseISt4pairIKN4cvc58internal12NodeTemplateILb0EEES5_ELb1EEC2EPNS_10_Hash_nodeIS7_Lb1EEE = comdat any

$_ZNSt8__detail21_Hash_node_value_baseISt4pairIKN4cvc58internal12NodeTemplateILb0EEES5_EE4_M_vEv = comdat any

$_ZNSt8__detail21_Hash_node_value_baseISt4pairIKN4cvc58internal12NodeTemplateILb0EEES5_EE9_M_valptrEv = comdat any

$_ZN9__gnu_cxx16__aligned_bufferISt4pairIKN4cvc58internal12NodeTemplateILb0EEES5_EE6_M_ptrEv = comdat any

$_ZN9__gnu_cxx16__aligned_bufferISt4pairIKN4cvc58internal12NodeTemplateILb0EEES5_EE7_M_addrEv = comdat any

$_ZSt9__find_ifIN9__gnu_cxx17__normal_iteratorIPN4cvc58internal12NodeTemplateILb1EEESt6vectorIS5_SaIS5_EEEENS0_5__ops16_Iter_equals_valIKNS4_ILb0EEEEEET_SG_SG_T0_ = comdat any

$_ZN9__gnu_cxx5__ops17__iter_equals_valIKN4cvc58internal12NodeTemplateILb0EEEEENS0_16_Iter_equals_valIT_EERS8_ = comdat any

$_ZSt9__find_ifIN9__gnu_cxx17__normal_iteratorIPN4cvc58internal12NodeTemplateILb1EEESt6vectorIS5_SaIS5_EEEENS0_5__ops16_Iter_equals_valIKNS4_ILb0EEEEEET_SG_SG_T0_St26random_access_iterator_tag = comdat any

$_ZSt19__iterator_categoryIN9__gnu_cxx17__normal_iteratorIPN4cvc58internal12NodeTemplateILb1EEESt6vectorIS5_SaIS5_EEEEENSt15iterator_traitsIT_E17iterator_categoryERKSC_ = comdat any

$_ZN9__gnu_cxx5__ops16_Iter_equals_valIKN4cvc58internal12NodeTemplateILb0EEEEclINS_17__normal_iteratorIPNS4_ILb1EEESt6vectorISA_SaISA_EEEEEEbT_ = comdat any

$_ZN9__gnu_cxx17__normal_iteratorIPN4cvc58internal12NodeTemplateILb1EEESt6vectorIS4_SaIS4_EEEppEv = comdat any

$_ZNK4cvc58internal12NodeTemplateILb1EEeqILb0EEEbRKNS1_IXT_EEE = comdat any

$_ZN9__gnu_cxx5__ops16_Iter_equals_valIKN4cvc58internal12NodeTemplateILb0EEEEC2ERS6_ = comdat any

$_ZSt9__advanceIN9__gnu_cxx17__normal_iteratorIPN4cvc58internal12NodeTemplateILb1EEESt6vectorIS5_SaIS5_EEEElEvRT_T0_St26random_access_iterator_tag = comdat any

$_ZN9__gnu_cxx17__normal_iteratorIPN4cvc58internal12NodeTemplateILb1EEESt6vectorIS4_SaIS4_EEEmmEv = comdat any

$_ZN9__gnu_cxx17__normal_iteratorIPN4cvc58internal12NodeTemplateILb1EEESt6vectorIS4_SaIS4_EEEpLEl = comdat any

$_ZSt10__distanceIN9__gnu_cxx17__normal_iteratorIPN4cvc58internal12NodeTemplateILb1EEESt6vectorIS5_SaIS5_EEEEENSt15iterator_traitsIT_E15difference_typeESC_SC_St26random_access_iterator_tag = comdat any

$_ZNSt8__detail9_Map_baseIN4cvc58internal12NodeTemplateILb0EEESt4pairIKS4_S4_ESaIS7_ENS_10_Select1stESt8equal_toIS4_ESt4hashIS4_ENS_18_Mod_range_hashingENS_20_Default_ranged_hashENS_20_Prime_rehash_policyENS_17_Hashtable_traitsILb1ELb0ELb1EEELb1EEixEOS4_ = comdat any

$_ZSt16forward_as_tupleIJN4cvc58internal12NodeTemplateILb0EEEEESt5tupleIJDpOT_EES7_ = comdat any

$_ZNSt10_HashtableIN4cvc58internal12NodeTemplateILb0EEESt4pairIKS3_S3_ESaIS6_ENSt8__detail10_Select1stESt8equal_toIS3_ESt4hashIS3_ENS8_18_Mod_range_hashingENS8_20_Default_ranged_hashENS8_20_Prime_rehash_policyENS8_17_Hashtable_traitsILb1ELb0ELb1EEEE12_Scoped_nodeC2IJRKSt21piecewise_construct_tSt5tupleIJOS3_EESP_IJEEEEEPNS8_16_Hashtable_allocISaINS8_10_Hash_nodeIS6_Lb1EEEEEEDpOT_ = comdat any

$_ZNSt10_HashtableIN4cvc58internal12NodeTemplateILb0EEESt4pairIKS3_S3_ESaIS6_ENSt8__detail10_Select1stESt8equal_toIS3_ESt4hashIS3_ENS8_18_Mod_range_hashingENS8_20_Default_ranged_hashENS8_20_Prime_rehash_policyENS8_17_Hashtable_traitsILb1ELb0ELb1EEEE21_M_insert_unique_nodeEmmPNS8_10_Hash_nodeIS6_Lb1EEEm = comdat any

$_ZNKSt8__detail14_Node_iteratorISt4pairIKN4cvc58internal12NodeTemplateILb0EEES5_ELb0ELb1EEptEv = comdat any

$_ZNSt10_HashtableIN4cvc58internal12NodeTemplateILb0EEESt4pairIKS3_S3_ESaIS6_ENSt8__detail10_Select1stESt8equal_toIS3_ESt4hashIS3_ENS8_18_Mod_range_hashingENS8_20_Default_ranged_hashENS8_20_Prime_rehash_policyENS8_17_Hashtable_traitsILb1ELb0ELb1EEEE12_Scoped_nodeD2Ev = comdat any

$_ZNSt5tupleIJON4cvc58internal12NodeTemplateILb0EEEEEC2IJS3_ELb1ETnNSt9enable_ifIXclsr4_TCCIXT0_EEE29__is_implicitly_constructibleIDpT_EEEbE4typeELb1EEEDpOS8_ = comdat any

$_ZNSt11_Tuple_implILm0EJON4cvc58internal12NodeTemplateILb0EEEEEC2IS3_EEOT_ = comdat any

$_ZNSt10_Head_baseILm0EON4cvc58internal12NodeTemplateILb0EEELb0EEC2IS3_EEOT_ = comdat any

$_ZNSt8__detail16_Hashtable_allocISaINS_10_Hash_nodeISt4pairIKN4cvc58internal12NodeTemplateILb0EEES6_ELb1EEEEE16_M_allocate_nodeIJRKSt21piecewise_construct_tSt5tupleIJOS6_EESG_IJEEEEEPS9_DpOT_ = comdat any

$_ZNSt16allocator_traitsISaINSt8__detail10_Hash_nodeISt4pairIKN4cvc58internal12NodeTemplateILb0EEES6_ELb1EEEEE8allocateERSA_m = comdat any

$_ZNSt8__detail16_Hashtable_allocISaINS_10_Hash_nodeISt4pairIKN4cvc58internal12NodeTemplateILb0EEES6_ELb1EEEEE17_M_node_allocatorEv = comdat any

$_ZSt12__to_addressINSt8__detail10_Hash_nodeISt4pairIKN4cvc58internal12NodeTemplateILb0EEES6_ELb1EEEEPT_SB_ = comdat any

$_ZNSt8__detail10_Hash_nodeISt4pairIKN4cvc58internal12NodeTemplateILb0EEES5_ELb1EEC2Ev = comdat any

$_ZNSt16allocator_traitsISaINSt8__detail10_Hash_nodeISt4pairIKN4cvc58internal12NodeTemplateILb0EEES6_ELb1EEEEE9constructIS8_JRKSt21piecewise_construct_tSt5tupleIJOS6_EESG_IJEEEEEvRSA_PT_DpOT0_ = comdat any

$_ZNSt16allocator_traitsISaINSt8__detail10_Hash_nodeISt4pairIKN4cvc58internal12NodeTemplateILb0EEES6_ELb1EEEEE10deallocateERSA_PS9_m = comdat any

$_ZNSt15__new_allocatorINSt8__detail10_Hash_nodeISt4pairIKN4cvc58internal12NodeTemplateILb0EEES6_ELb1EEEE8allocateEmPKv = comdat any

$_ZNKSt15__new_allocatorINSt8__detail10_Hash_nodeISt4pairIKN4cvc58internal12NodeTemplateILb0EEES6_ELb1EEEE11_M_max_sizeEv = comdat any

$_ZNSt8__detail21_Hashtable_ebo_helperILi0ESaINS_10_Hash_nodeISt4pairIKN4cvc58internal12NodeTemplateILb0EEES6_ELb1EEEELb1EE6_M_getEv = comdat any

$_ZNSt15__new_allocatorINSt8__detail10_Hash_nodeISt4pairIKN4cvc58internal12NodeTemplateILb0EEES6_ELb1EEEE9constructIS8_JRKSt21piecewise_construct_tSt5tupleIJOS6_EESF_IJEEEEEvPT_DpOT0_ = comdat any

$_ZNSt5tupleIJON4cvc58internal12NodeTemplateILb0EEEEEC2EOS5_ = comdat any

$_ZNSt4pairIKN4cvc58internal12NodeTemplateILb0EEES3_EC2IJOS3_EJEEESt21piecewise_construct_tSt5tupleIJDpT_EES9_IJDpT0_EE = comdat any

$_ZNSt11_Tuple_implILm0EJON4cvc58internal12NodeTemplateILb0EEEEEC2EOS5_ = comdat any

$_ZNSt4pairIKN4cvc58internal12NodeTemplateILb0EEES3_EC2IJOS3_EJLm0EEJETpTnmJEEERSt5tupleIJDpT_EERS8_IJDpT1_EESt12_Index_tupleIJXspT0_EEESH_IJXspT2_EEE = comdat any

$_ZSt3getILm0EJON4cvc58internal12NodeTemplateILb0EEEEERNSt13tuple_elementIXT_ESt5tupleIJDpT0_EEE4typeERS9_ = comdat any

$_ZN4cvc58internal12NodeTemplateILb0EEC2Ev = comdat any

$_ZSt12__get_helperILm0EON4cvc58internal12NodeTemplateILb0EEEJEERT0_RSt11_Tuple_implIXT_EJS5_DpT1_EE = comdat any

$_ZNSt11_Tuple_implILm0EJON4cvc58internal12NodeTemplateILb0EEEEE7_M_headERS5_ = comdat any

$_ZNSt10_Head_baseILm0EON4cvc58internal12NodeTemplateILb0EEELb0EE7_M_headERS5_ = comdat any

$_ZNSt15__new_allocatorINSt8__detail10_Hash_nodeISt4pairIKN4cvc58internal12NodeTemplateILb0EEES6_ELb1EEEE10deallocateEPS9_m = comdat any

$_ZNSt10_HashtableIN4cvc58internal12NodeTemplateILb0EEESt4pairIKS3_S3_ESaIS6_ENSt8__detail10_Select1stESt8equal_toIS3_ESt4hashIS3_ENS8_18_Mod_range_hashingENS8_20_Default_ranged_hashENS8_20_Prime_rehash_policyENS8_17_Hashtable_traitsILb1ELb0ELb1EEEE9_M_rehashEmRKm = comdat any

$_ZNKSt8__detail15_Hash_code_baseIN4cvc58internal12NodeTemplateILb0EEESt4pairIKS4_S4_ENS_10_Select1stESt4hashIS4_ENS_18_Mod_range_hashingENS_20_Default_ranged_hashELb1EE13_M_store_codeERNS_21_Hash_node_code_cacheILb1EEEm = comdat any

$_ZNSt10_HashtableIN4cvc58internal12NodeTemplateILb0EEESt4pairIKS3_S3_ESaIS6_ENSt8__detail10_Select1stESt8equal_toIS3_ESt4hashIS3_ENS8_18_Mod_range_hashingENS8_20_Default_ranged_hashENS8_20_Prime_rehash_policyENS8_17_Hashtable_traitsILb1ELb0ELb1EEEE22_M_insert_bucket_beginEmPNS8_10_Hash_nodeIS6_Lb1EEE = comdat any

$_ZNSt10_HashtableIN4cvc58internal12NodeTemplateILb0EEESt4pairIKS3_S3_ESaIS6_ENSt8__detail10_Select1stESt8equal_toIS3_ESt4hashIS3_ENS8_18_Mod_range_hashingENS8_20_Default_ranged_hashENS8_20_Prime_rehash_policyENS8_17_Hashtable_traitsILb1ELb0ELb1EEEE13_M_rehash_auxEmSt17integral_constantIbLb1EE = comdat any

$_ZNSt10_HashtableIN4cvc58internal12NodeTemplateILb0EEESt4pairIKS3_S3_ESaIS6_ENSt8__detail10_Select1stESt8equal_toIS3_ESt4hashIS3_ENS8_18_Mod_range_hashingENS8_20_Default_ranged_hashENS8_20_Prime_rehash_policyENS8_17_Hashtable_traitsILb1ELb0ELb1EEEE19_M_allocate_bucketsEm = comdat any

$_ZNSt10_HashtableIN4cvc58internal12NodeTemplateILb0EEESt4pairIKS3_S3_ESaIS6_ENSt8__detail10_Select1stESt8equal_toIS3_ESt4hashIS3_ENS8_18_Mod_range_hashingENS8_20_Default_ranged_hashENS8_20_Prime_rehash_policyENS8_17_Hashtable_traitsILb1ELb0ELb1EEEE21_M_deallocate_bucketsEv = comdat any

$_ZNSt8__detail16_Hashtable_allocISaINS_10_Hash_nodeISt4pairIKN4cvc58internal12NodeTemplateILb0EEES6_ELb1EEEEE19_M_allocate_bucketsEm = comdat any

$_ZNSaIPNSt8__detail15_Hash_node_baseEEC2INS_10_Hash_nodeISt4pairIKN4cvc58internal12NodeTemplateILb0EEES9_ELb1EEEEERKSaIT_E = comdat any

$_ZNSt10_HashtableIN4cvc58internal12NodeTemplateILb0EEESt4pairIKS3_S3_ESaIS6_ENSt8__detail10_Select1stESt8equal_toIS3_ESt4hashIS3_ENS8_18_Mod_range_hashingENS8_20_Default_ranged_hashENS8_20_Prime_rehash_policyENS8_17_Hashtable_traitsILb1ELb0ELb1EEEE21_M_deallocate_bucketsEPPNS8_15_Hash_node_baseEm = comdat any

$_ZNKSt10_HashtableIN4cvc58internal12NodeTemplateILb0EEESt4pairIKS3_S3_ESaIS6_ENSt8__detail10_Select1stESt8equal_toIS3_ESt4hashIS3_ENS8_18_Mod_range_hashingENS8_20_Default_ranged_hashENS8_20_Prime_rehash_policyENS8_17_Hashtable_traitsILb1ELb0ELb1EEEE21_M_uses_single_bucketEPPNS8_15_Hash_node_baseE = comdat any

$_ZNSt8__detail16_Hashtable_allocISaINS_10_Hash_nodeISt4pairIKN4cvc58internal12NodeTemplateILb0EEES6_ELb1EEEEE21_M_deallocate_bucketsEPPNS_15_Hash_node_baseEm = comdat any

$_ZNSt8__detail16_Hashtable_allocISaINS_10_Hash_nodeISt4pairIKN4cvc58internal12NodeTemplateILb0EEES6_ELb1EEEEE18_M_deallocate_nodeEPS9_ = comdat any

$_ZNSt16allocator_traitsISaINSt8__detail10_Hash_nodeISt4pairIKN4cvc58internal12NodeTemplateILb0EEES6_ELb1EEEEE7destroyIS8_EEvRSA_PT_ = comdat any

$_ZNSt8__detail16_Hashtable_allocISaINS_10_Hash_nodeISt4pairIKN4cvc58internal12NodeTemplateILb0EEES6_ELb1EEEEE22_M_deallocate_node_ptrEPS9_ = comdat any

$_ZNSt15__new_allocatorINSt8__detail10_Hash_nodeISt4pairIKN4cvc58internal12NodeTemplateILb0EEES6_ELb1EEEE7destroyIS8_EEvPT_ = comdat any

$_ZNSt4pairIKN4cvc58internal12NodeTemplateILb0EEES3_ED2Ev = comdat any

$_ZNSt19__ptr_traits_ptr_toIPNSt8__detail10_Hash_nodeISt4pairIKN4cvc58internal12NodeTemplateILb0EEES6_ELb1EEES9_Lb0EE10pointer_toERS9_ = comdat any

$_ZNSt10_HashtableIN4cvc58internal12NodeTemplateILb0EEESt4pairIKS3_S3_ESaIS6_ENSt8__detail10_Select1stESt8equal_toIS3_ESt4hashIS3_ENS8_18_Mod_range_hashingENS8_20_Default_ranged_hashENS8_20_Prime_rehash_policyENS8_17_Hashtable_traitsILb1ELb0ELb1EEEED2Ev = comdat any

$_ZNSt10_HashtableIN4cvc58internal12NodeTemplateILb0EEESt4pairIKS3_S3_ESaIS6_ENSt8__detail10_Select1stESt8equal_toIS3_ESt4hashIS3_ENS8_18_Mod_range_hashingENS8_20_Default_ranged_hashENS8_20_Prime_rehash_policyENS8_17_Hashtable_traitsILb1ELb0ELb1EEEE5clearEv = comdat any

$_ZNSt8__detail16_Hashtable_allocISaINS_10_Hash_nodeISt4pairIKN4cvc58internal12NodeTemplateILb0EEES6_ELb1EEEEED2Ev = comdat any

$_ZNSt8__detail16_Hashtable_allocISaINS_10_Hash_nodeISt4pairIKN4cvc58internal12NodeTemplateILb0EEES6_ELb1EEEEE19_M_deallocate_nodesEPS9_ = comdat any

$_ZNSt8__detail21_Hashtable_ebo_helperILi0ESaINS_10_Hash_nodeISt4pairIKN4cvc58internal12NodeTemplateILb0EEES6_ELb1EEEELb1EED2Ev = comdat any

$_ZNSaINSt8__detail10_Hash_nodeISt4pairIKN4cvc58internal12NodeTemplateILb0EEES5_ELb1EEEED2Ev = comdat any

$_ZNSt15__new_allocatorINSt8__detail10_Hash_nodeISt4pairIKN4cvc58internal12NodeTemplateILb0EEES6_ELb1EEEED2Ev = comdat any

$_ZTSN4cvc58internal15OptionExceptionE = comdat any

$_ZTIN4cvc58internal15OptionExceptionE = comdat any

$_ZTSN4cvc58internal6EnvObjE = comdat any

$_ZTIN4cvc58internal6EnvObjE = comdat any

$_ZTVN4cvc57context15CDInsertHashMapINS_8internal12NodeTemplateILb1EEEbSt4hashIS4_EEE = comdat any

$_ZTSN4cvc57context15CDInsertHashMapINS_8internal12NodeTemplateILb1EEEbSt4hashIS4_EEE = comdat any

$_ZTSN4cvc57context10ContextObjE = comdat any

$_ZTIN4cvc57context10ContextObjE = comdat any

$_ZTIN4cvc57context15CDInsertHashMapINS_8internal12NodeTemplateILb1EEEbSt4hashIS4_EEE = comdat any

$_ZTVN4cvc57context10ContextObjE = comdat any

$_ZTVN4cvc58internal15OptionExceptionE = comdat any

$_ZZN4cvc58internal4expr9NodeValue4nullEvE6s_null = comdat any

$_ZGVZN4cvc58internal4expr9NodeValue4nullEvE6s_null = comdat any

$_ZTVN4cvc57context9CDHashMapINS_8internal12NodeTemplateILb1EEES4_St4hashIS4_EEE = comdat any

$_ZTSN4cvc57context9CDHashMapINS_8internal12NodeTemplateILb1EEES4_St4hashIS4_EEE = comdat any

$_ZTIN4cvc57context9CDHashMapINS_8internal12NodeTemplateILb1EEES4_St4hashIS4_EEE = comdat any

$_ZTVN4cvc57context9CDHashSetINS_8internal12NodeTemplateILb1EEESt4hashIS4_EEE = comdat any

$_ZTSN4cvc57context9CDHashSetINS_8internal12NodeTemplateILb1EEESt4hashIS4_EEE = comdat any

$_ZTIN4cvc57context9CDHashSetINS_8internal12NodeTemplateILb1EEESt4hashIS4_EEE = comdat any

$_ZTVN4cvc57context11CDOhash_mapINS_8internal12NodeTemplateILb1EEES4_St4hashIS4_EEE = comdat any

$_ZTSN4cvc57context11CDOhash_mapINS_8internal12NodeTemplateILb1EEES4_St4hashIS4_EEE = comdat any

$_ZTIN4cvc57context11CDOhash_mapINS_8internal12NodeTemplateILb1EEES4_St4hashIS4_EEE = comdat any

$_ZSt19piecewise_construct = comdat any

@_ZStL8__ioinit = internal global %"class.std::ios_base::Init" zeroinitializer, align 1
@__dso_handle = external hidden global i8
@_ZTVN4cvc58internal10IntBlasterE = hidden unnamed_addr constant { [4 x ptr] } { [4 x ptr] [ptr null, ptr @_ZTIN4cvc58internal10IntBlasterE, ptr @_ZN4cvc58internal10IntBlasterD1Ev, ptr @_ZN4cvc58internal10IntBlasterD0Ev] }, align 8
@_ZN4cvc58internal10nullStreamE = external global %"class.cvc5::internal::NullC", align 1
@_ZN4cvc58internal12TraceChannelE = external global %"class.cvc5::internal::TraceC", align 8
@.str = private unnamed_addr constant [28 x i8] c"range constraint computed: \00", align 1
@.str.1 = private unnamed_addr constant [44 x i8] c"range constraint added to cache and lemmas \00", align 1
@.str.2 = private unnamed_addr constant [47 x i8] c"bitwise constraint added to cache and lemmas: \00", align 1
@.str.3 = private unnamed_addr constant [22 x i8] c"binarization result: \00", align 1
@.str.4 = private unnamed_addr constant [10 x i8] c"current: \00", align 1
@.str.5 = private unnamed_addr constant [47 x i8] c"bv-to-int does not support higher order logic \00", align 1
@_ZTVN10__cxxabiv120__si_class_type_infoE = external global [0 x ptr]
@_ZTSN4cvc58internal15OptionExceptionE = linkonce_odr constant [34 x i8] c"N4cvc58internal15OptionExceptionE\00", comdat, align 1
@_ZTIN4cvc58internal9ExceptionE = external constant ptr
@_ZTIN4cvc58internal15OptionExceptionE = linkonce_odr constant { ptr, ptr, ptr } { ptr getelementptr inbounds (ptr, ptr @_ZTVN10__cxxabiv120__si_class_type_infoE, i64 2), ptr @_ZTSN4cvc58internal15OptionExceptionE, ptr @_ZTIN4cvc58internal9ExceptionE }, comdat, align 8
@.str.6 = private unnamed_addr constant [55 x i8] c"--solve-bv-as-int=bitwise does not support quantifiers\00", align 1
@.str.7 = private unnamed_addr constant [11 x i8] c"original: \00", align 1
@.str.8 = private unnamed_addr constant [13 x i8] c"returnNode: \00", align 1
@.str.9 = private unnamed_addr constant [19 x i8] c"translating leaf: \00", align 1
@.str.10 = private unnamed_addr constant [12 x i8] c"; of type: \00", align 1
@.str.11 = private unnamed_addr constant [5 x i8] c"_int\00", align 1
@.str.12 = private unnamed_addr constant [16 x i8] c"__intblast_fun_\00", align 1
@.str.13 = private unnamed_addr constant [16 x i8] c"bv2int function\00", align 1
@.str.14 = private unnamed_addr constant [17 x i8] c"castToType from \00", align 1
@.str.15 = private unnamed_addr constant [5 x i8] c" to \00", align 1
@.str.16 = private unnamed_addr constant [28 x i8] c"quantified uf application: \00", align 1
@.str.17 = private unnamed_addr constant [23 x i8] c"quantified uf symbol: \00", align 1
@_ZTVN10__cxxabiv121__vmi_class_type_infoE = external global [0 x ptr]
@_ZTSN4cvc58internal10IntBlasterE = hidden constant [29 x i8] c"N4cvc58internal10IntBlasterE\00", align 1
@_ZTVN10__cxxabiv117__class_type_infoE = external global [0 x ptr]
@_ZTSN4cvc58internal6EnvObjE = linkonce_odr hidden constant [24 x i8] c"N4cvc58internal6EnvObjE\00", comdat, align 1
@_ZTIN4cvc58internal6EnvObjE = linkonce_odr hidden constant { ptr, ptr } { ptr getelementptr inbounds (ptr, ptr @_ZTVN10__cxxabiv117__class_type_infoE, i64 2), ptr @_ZTSN4cvc58internal6EnvObjE }, comdat, align 8
@_ZTIN4cvc58internal10IntBlasterE = hidden constant { ptr, ptr, i32, i32, ptr, i64 } { ptr getelementptr inbounds (ptr, ptr @_ZTVN10__cxxabiv121__vmi_class_type_infoE, i64 2), ptr @_ZTSN4cvc58internal10IntBlasterE, i32 0, i32 1, ptr @_ZTIN4cvc58internal6EnvObjE, i64 0 }, align 8
@_ZTVN4cvc57context15CDInsertHashMapINS_8internal12NodeTemplateILb1EEEbSt4hashIS4_EEE = linkonce_odr hidden unnamed_addr constant { [6 x ptr] } { [6 x ptr] [ptr null, ptr @_ZTIN4cvc57context15CDInsertHashMapINS_8internal12NodeTemplateILb1EEEbSt4hashIS4_EEE, ptr @_ZN4cvc57context15CDInsertHashMapINS_8internal12NodeTemplateILb1EEEbSt4hashIS4_EE4saveEPNS0_20ContextMemoryManagerE, ptr @_ZN4cvc57context15CDInsertHashMapINS_8internal12NodeTemplateILb1EEEbSt4hashIS4_EE7restoreEPNS0_10ContextObjE, ptr @_ZN4cvc57context15CDInsertHashMapINS_8internal12NodeTemplateILb1EEEbSt4hashIS4_EED2Ev, ptr @_ZN4cvc57context15CDInsertHashMapINS_8internal12NodeTemplateILb1EEEbSt4hashIS4_EED0Ev] }, comdat, align 8
@_ZTSN4cvc57context15CDInsertHashMapINS_8internal12NodeTemplateILb1EEEbSt4hashIS4_EEE = linkonce_odr hidden constant [81 x i8] c"N4cvc57context15CDInsertHashMapINS_8internal12NodeTemplateILb1EEEbSt4hashIS4_EEE\00", comdat, align 1
@_ZTSN4cvc57context10ContextObjE = linkonce_odr constant [28 x i8] c"N4cvc57context10ContextObjE\00", comdat, align 1
@_ZTIN4cvc57context10ContextObjE = linkonce_odr constant { ptr, ptr } { ptr getelementptr inbounds (ptr, ptr @_ZTVN10__cxxabiv117__class_type_infoE, i64 2), ptr @_ZTSN4cvc57context10ContextObjE }, comdat, align 8
@_ZTIN4cvc57context15CDInsertHashMapINS_8internal12NodeTemplateILb1EEEbSt4hashIS4_EEE = linkonce_odr hidden constant { ptr, ptr, ptr } { ptr getelementptr inbounds (ptr, ptr @_ZTVN10__cxxabiv120__si_class_type_infoE, i64 2), ptr @_ZTSN4cvc57context15CDInsertHashMapINS_8internal12NodeTemplateILb1EEEbSt4hashIS4_EEE, ptr @_ZTIN4cvc57context10ContextObjE }, comdat, align 8
@.str.18 = private unnamed_addr constant [12 x i8] c"copy ctor: \00", align 1
@.str.19 = private unnamed_addr constant [7 x i8] c" from \00", align 1
@.str.20 = private unnamed_addr constant [7 x i8] c" size \00", align 1
@_ZTVN4cvc57context10ContextObjE = linkonce_odr unnamed_addr constant { [6 x ptr] } { [6 x ptr] [ptr null, ptr @_ZTIN4cvc57context10ContextObjE, ptr @__cxa_pure_virtual, ptr @__cxa_pure_virtual, ptr @_ZN4cvc57context10ContextObjD2Ev, ptr @_ZN4cvc57context10ContextObjD0Ev] }, comdat, align 8
@_ZN4cvc58internal11Cvc5ostream16s_indentIosIndexE = external constant i32, align 4
@_ZN4cvc58internal11Cvc5ostream5s_tabB5cxx11E = external global %"class.std::__cxx11::basic_string", align 8
@.str.21 = private unnamed_addr constant [23 x i8] c"TrailHashMap pop_back \00", align 1
@__PRETTY_FUNCTION__._ZN4cvc57context10ContextObjdlEPv = private unnamed_addr constant [63 x i8] c"static void cvc5::context::ContextObj::operator delete(void *)\00", align 1
@.str.22 = private unnamed_addr constant [109 x i8] c"generated/home/dtcxzyw/WorkSpace/Projects/compilers/llvm-opt-benchmark/bench/cvc5/cvc5/src/context/context.h\00", align 1
@.str.23 = private unnamed_addr constant [17 x i8] c"Check failure\0A\0A \00", align 1
@.str.24 = private unnamed_addr constant [6 x i8] c"false\00", align 1
@.str.25 = private unnamed_addr constant [2 x i8] c"\0A\00", align 1
@.str.26 = private unnamed_addr constant [51 x i8] c"It is not allowed to delete a ContextObj this way!\00", align 1
@_ZN4cvc58internal15OptionException11s_errPrefixB5cxx11E = external global %"class.std::__cxx11::basic_string", align 8
@_ZTVN4cvc58internal15OptionExceptionE = linkonce_odr unnamed_addr constant { [6 x ptr] } { [6 x ptr] [ptr null, ptr @_ZTIN4cvc58internal15OptionExceptionE, ptr @_ZN4cvc58internal15OptionExceptionD2Ev, ptr @_ZN4cvc58internal15OptionExceptionD0Ev, ptr @_ZNK4cvc58internal9Exception4whatEv, ptr @_ZNK4cvc58internal9Exception8toStreamERSo] }, comdat, align 8
@_ZTVN4cvc58internal9ExceptionE = external unnamed_addr constant { [6 x ptr] }, align 8
@_ZTVSt9exception = external unnamed_addr constant { [5 x ptr] }, align 8
@_ZZN4cvc58internal4expr9NodeValue4nullEvE6s_null = linkonce_odr global ptr null, comdat, align 8
@_ZGVZN4cvc58internal4expr9NodeValue4nullEvE6s_null = linkonce_odr global i64 0, comdat, align 8
@.str.27 = private unnamed_addr constant [50 x i8] c"basic_string: construction from null is not valid\00", align 1
@_ZTVN4cvc57context9CDHashMapINS_8internal12NodeTemplateILb1EEES4_St4hashIS4_EEE = linkonce_odr hidden unnamed_addr constant { [6 x ptr] } { [6 x ptr] [ptr null, ptr @_ZTIN4cvc57context9CDHashMapINS_8internal12NodeTemplateILb1EEES4_St4hashIS4_EEE, ptr @_ZN4cvc57context9CDHashMapINS_8internal12NodeTemplateILb1EEES4_St4hashIS4_EE4saveEPNS0_20ContextMemoryManagerE, ptr @_ZN4cvc57context9CDHashMapINS_8internal12NodeTemplateILb1EEES4_St4hashIS4_EE7restoreEPNS0_10ContextObjE, ptr @_ZN4cvc57context9CDHashMapINS_8internal12NodeTemplateILb1EEES4_St4hashIS4_EED2Ev, ptr @_ZN4cvc57context9CDHashMapINS_8internal12NodeTemplateILb1EEES4_St4hashIS4_EED0Ev] }, comdat, align 8
@_ZTSN4cvc57context9CDHashMapINS_8internal12NodeTemplateILb1EEES4_St4hashIS4_EEE = linkonce_odr hidden constant [76 x i8] c"N4cvc57context9CDHashMapINS_8internal12NodeTemplateILb1EEES4_St4hashIS4_EEE\00", comdat, align 1
@_ZTIN4cvc57context9CDHashMapINS_8internal12NodeTemplateILb1EEES4_St4hashIS4_EEE = linkonce_odr hidden constant { ptr, ptr, ptr } { ptr getelementptr inbounds (ptr, ptr @_ZTVN10__cxxabiv120__si_class_type_infoE, i64 2), ptr @_ZTSN4cvc57context9CDHashMapINS_8internal12NodeTemplateILb1EEES4_St4hashIS4_EEE, ptr @_ZTIN4cvc57context10ContextObjE }, comdat, align 8
@__PRETTY_FUNCTION__._ZN4cvc57context9CDHashMapINS_8internal12NodeTemplateILb1EEES4_St4hashIS4_EE4saveEPNS0_20ContextMemoryManagerE = private unnamed_addr constant [276 x i8] c"virtual ContextObj *cvc5::context::CDHashMap<cvc5::internal::NodeTemplate<true>, cvc5::internal::NodeTemplate<true>>::save(ContextMemoryManager *) [Key = cvc5::internal::NodeTemplate<true>, Data = cvc5::internal::NodeTemplate<true>, HashFcn = std::hash<cvc5::internal::Node>]\00", align 1
@.str.28 = private unnamed_addr constant [111 x i8] c"generated/home/dtcxzyw/WorkSpace/Projects/compilers/llvm-opt-benchmark/bench/cvc5/cvc5/src/context/cdhashmap.h\00", align 1
@.str.29 = private unnamed_addr constant [26 x i8] c"Unreachable code reached \00", align 1
@__PRETTY_FUNCTION__._ZN4cvc57context9CDHashMapINS_8internal12NodeTemplateILb1EEES4_St4hashIS4_EE7restoreEPNS0_10ContextObjE = private unnamed_addr constant [262 x i8] c"virtual void cvc5::context::CDHashMap<cvc5::internal::NodeTemplate<true>, cvc5::internal::NodeTemplate<true>>::restore(ContextObj *) [Key = cvc5::internal::NodeTemplate<true>, Data = cvc5::internal::NodeTemplate<true>, HashFcn = std::hash<cvc5::internal::Node>]\00", align 1
@_ZTVN4cvc57context9CDHashSetINS_8internal12NodeTemplateILb1EEESt4hashIS4_EEE = linkonce_odr hidden unnamed_addr constant { [6 x ptr] } { [6 x ptr] [ptr null, ptr @_ZTIN4cvc57context9CDHashSetINS_8internal12NodeTemplateILb1EEESt4hashIS4_EEE, ptr @_ZN4cvc57context15CDInsertHashMapINS_8internal12NodeTemplateILb1EEEbSt4hashIS4_EE4saveEPNS0_20ContextMemoryManagerE, ptr @_ZN4cvc57context15CDInsertHashMapINS_8internal12NodeTemplateILb1EEEbSt4hashIS4_EE7restoreEPNS0_10ContextObjE, ptr @_ZN4cvc57context9CDHashSetINS_8internal12NodeTemplateILb1EEESt4hashIS4_EED2Ev, ptr @_ZN4cvc57context9CDHashSetINS_8internal12NodeTemplateILb1EEESt4hashIS4_EED0Ev] }, comdat, align 8
@_ZTSN4cvc57context9CDHashSetINS_8internal12NodeTemplateILb1EEESt4hashIS4_EEE = linkonce_odr hidden constant [73 x i8] c"N4cvc57context9CDHashSetINS_8internal12NodeTemplateILb1EEESt4hashIS4_EEE\00", comdat, align 1
@_ZTIN4cvc57context9CDHashSetINS_8internal12NodeTemplateILb1EEESt4hashIS4_EEE = linkonce_odr hidden constant { ptr, ptr, i32, i32, ptr, i64 } { ptr getelementptr inbounds (ptr, ptr @_ZTVN10__cxxabiv121__vmi_class_type_infoE, i64 2), ptr @_ZTSN4cvc57context9CDHashSetINS_8internal12NodeTemplateILb1EEESt4hashIS4_EEE, i32 0, i32 1, ptr @_ZTIN4cvc57context15CDInsertHashMapINS_8internal12NodeTemplateILb1EEEbSt4hashIS4_EEE, i64 0 }, comdat, align 8
@__PRETTY_FUNCTION__._ZN4cvc57context9CDHashSetINS_8internal12NodeTemplateILb1EEESt4hashIS4_EEdlEPv = private unnamed_addr constant [182 x i8] c"static void cvc5::context::CDHashSet<cvc5::internal::NodeTemplate<true>>::operator delete(void *) [V = cvc5::internal::NodeTemplate<true>, HashFcn = std::hash<cvc5::internal::Node>]\00", align 1
@.str.30 = private unnamed_addr constant [111 x i8] c"generated/home/dtcxzyw/WorkSpace/Projects/compilers/llvm-opt-benchmark/bench/cvc5/cvc5/src/context/cdhashset.h\00", align 1
@.str.31 = private unnamed_addr constant [48 x i8] c"cannot create std::deque larger than max_size()\00", align 1
@.str.32 = private unnamed_addr constant [26 x i8] c"vector::_M_realloc_insert\00", align 1
@_ZTVN4cvc57context11CDOhash_mapINS_8internal12NodeTemplateILb1EEES4_St4hashIS4_EEE = linkonce_odr hidden unnamed_addr constant { [6 x ptr] } { [6 x ptr] [ptr null, ptr @_ZTIN4cvc57context11CDOhash_mapINS_8internal12NodeTemplateILb1EEES4_St4hashIS4_EEE, ptr @_ZN4cvc57context11CDOhash_mapINS_8internal12NodeTemplateILb1EEES4_St4hashIS4_EE4saveEPNS0_20ContextMemoryManagerE, ptr @_ZN4cvc57context11CDOhash_mapINS_8internal12NodeTemplateILb1EEES4_St4hashIS4_EE7restoreEPNS0_10ContextObjE, ptr @_ZN4cvc57context11CDOhash_mapINS_8internal12NodeTemplateILb1EEES4_St4hashIS4_EED2Ev, ptr @_ZN4cvc57context11CDOhash_mapINS_8internal12NodeTemplateILb1EEES4_St4hashIS4_EED0Ev] }, comdat, align 8
@_ZTSN4cvc57context11CDOhash_mapINS_8internal12NodeTemplateILb1EEES4_St4hashIS4_EEE = linkonce_odr hidden constant [79 x i8] c"N4cvc57context11CDOhash_mapINS_8internal12NodeTemplateILb1EEES4_St4hashIS4_EEE\00", comdat, align 1
@_ZTIN4cvc57context11CDOhash_mapINS_8internal12NodeTemplateILb1EEES4_St4hashIS4_EEE = linkonce_odr hidden constant { ptr, ptr, ptr } { ptr getelementptr inbounds (ptr, ptr @_ZTVN10__cxxabiv120__si_class_type_infoE, i64 2), ptr @_ZTSN4cvc57context11CDOhash_mapINS_8internal12NodeTemplateILb1EEES4_St4hashIS4_EEE, ptr @_ZTIN4cvc57context10ContextObjE }, comdat, align 8
@_ZTIN4cvc58internal28TypeCheckingExceptionPrivateE = external constant ptr
@.str.33 = private unnamed_addr constant [49 x i8] c"cannot create std::vector larger than max_size()\00", align 1
@_ZSt19piecewise_construct = linkonce_odr constant %"struct.std::piecewise_construct_t" zeroinitializer, comdat, align 1
@llvm.global_ctors = appending global [1 x { i32, ptr, ptr }] [{ i32, ptr, ptr } { i32 65535, ptr @_GLOBAL__sub_I_int_blaster.cpp, ptr null }]

@_ZN4cvc58internal10IntBlasterC1ERNS0_3EnvENS0_7options16SolveBVAsIntModeEm = hidden unnamed_addr alias void (ptr, ptr, i32, i64), ptr @_ZN4cvc58internal10IntBlasterC2ERNS0_3EnvENS0_7options16SolveBVAsIntModeEm
@_ZN4cvc58internal10IntBlasterD1Ev = hidden unnamed_addr alias void (ptr), ptr @_ZN4cvc58internal10IntBlasterD2Ev

; Function Attrs: uwtable
define internal void @__cxx_global_var_init() #0 section ".text.startup" {
entry:
  call void @_ZNSt8ios_base4InitC1Ev(ptr noundef nonnull align 1 dereferenceable(1) @_ZStL8__ioinit)
  %0 = call i32 @__cxa_atexit(ptr @_ZNSt8ios_base4InitD1Ev, ptr @_ZStL8__ioinit, ptr @__dso_handle) #3
  ret void
}

declare void @_ZNSt8ios_base4InitC1Ev(ptr noundef nonnull align 1 dereferenceable(1)) unnamed_addr #1

; Function Attrs: nounwind
declare void @_ZNSt8ios_base4InitD1Ev(ptr noundef nonnull align 1 dereferenceable(1)) unnamed_addr #2

; Function Attrs: nounwind
declare i32 @__cxa_atexit(ptr, ptr, ptr) #3

; Function Attrs: mustprogress uwtable
define hidden void @_ZN4cvc58internal10IntBlasterC2ERNS0_3EnvENS0_7options16SolveBVAsIntModeEm(ptr noundef nonnull align 8 dereferenceable(468) %this, ptr noundef nonnull align 1 %env, i32 noundef %mode, i64 noundef %granularity) unnamed_addr #4 align 2 personality ptr @__gxx_personality_v0 {
entry:
  %this.addr = alloca ptr, align 8
  %env.addr = alloca ptr, align 8
  %mode.addr = alloca i32, align 4
  %granularity.addr = alloca i64, align 8
  %exn.slot = alloca ptr, align 8
  %ehselector.slot = alloca i32, align 4
  %ref.tmp = alloca %"class.cvc5::internal::NodeTemplate", align 8
  %ref.tmp27 = alloca %"class.cvc5::internal::Rational", align 8
  %ref.tmp35 = alloca %"class.cvc5::internal::NodeTemplate", align 8
  %ref.tmp37 = alloca %"class.cvc5::internal::Rational", align 8
  store ptr %this, ptr %this.addr, align 8
  store ptr %env, ptr %env.addr, align 8
  store i32 %mode, ptr %mode.addr, align 4
  store i64 %granularity, ptr %granularity.addr, align 8
  %this1 = load ptr, ptr %this.addr, align 8
  %0 = load ptr, ptr %env.addr, align 8
  call void @_ZN4cvc58internal6EnvObjC2ERNS0_3EnvE(ptr noundef nonnull align 8 dereferenceable(16) %this1, ptr noundef nonnull align 1 %0)
  store ptr getelementptr inbounds ({ [4 x ptr] }, ptr @_ZTVN4cvc58internal10IntBlasterE, i32 0, inrange i32 0, i32 2), ptr %this1, align 8
  %d_binarizeCache = getelementptr inbounds %"class.cvc5::internal::IntBlaster", ptr %this1, i32 0, i32 1
  %call = invoke noundef ptr @_ZNK4cvc58internal6EnvObj11userContextEv(ptr noundef nonnull align 8 dereferenceable(16) %this1)
          to label %invoke.cont unwind label %lpad

invoke.cont:                                      ; preds = %entry
  invoke void @_ZN4cvc57context9CDHashMapINS_8internal12NodeTemplateILb1EEES4_St4hashIS4_EEC2EPNS0_7ContextE(ptr noundef nonnull align 8 dereferenceable(112) %d_binarizeCache, ptr noundef %call)
          to label %invoke.cont2 unwind label %lpad

invoke.cont2:                                     ; preds = %invoke.cont
  %d_intblastCache = getelementptr inbounds %"class.cvc5::internal::IntBlaster", ptr %this1, i32 0, i32 2
  %call5 = invoke noundef ptr @_ZNK4cvc58internal6EnvObj11userContextEv(ptr noundef nonnull align 8 dereferenceable(16) %this1)
          to label %invoke.cont4 unwind label %lpad3

invoke.cont4:                                     ; preds = %invoke.cont2
  invoke void @_ZN4cvc57context9CDHashMapINS_8internal12NodeTemplateILb1EEES4_St4hashIS4_EEC2EPNS0_7ContextE(ptr noundef nonnull align 8 dereferenceable(112) %d_intblastCache, ptr noundef %call5)
          to label %invoke.cont6 unwind label %lpad3

invoke.cont6:                                     ; preds = %invoke.cont4
  %d_rangeAssertions = getelementptr inbounds %"class.cvc5::internal::IntBlaster", ptr %this1, i32 0, i32 4
  %call9 = invoke noundef ptr @_ZNK4cvc58internal6EnvObj11userContextEv(ptr noundef nonnull align 8 dereferenceable(16) %this1)
          to label %invoke.cont8 unwind label %lpad7

invoke.cont8:                                     ; preds = %invoke.cont6
  invoke void @_ZN4cvc57context9CDHashSetINS_8internal12NodeTemplateILb1EEESt4hashIS4_EEC2EPNS0_7ContextE(ptr noundef nonnull align 8 dereferenceable(56) %d_rangeAssertions, ptr noundef %call9)
          to label %invoke.cont10 unwind label %lpad7

invoke.cont10:                                    ; preds = %invoke.cont8
  %d_bitwiseAssertions = getelementptr inbounds %"class.cvc5::internal::IntBlaster", ptr %this1, i32 0, i32 5
  %call13 = invoke noundef ptr @_ZNK4cvc58internal6EnvObj11userContextEv(ptr noundef nonnull align 8 dereferenceable(16) %this1)
          to label %invoke.cont12 unwind label %lpad11

invoke.cont12:                                    ; preds = %invoke.cont10
  invoke void @_ZN4cvc57context9CDHashSetINS_8internal12NodeTemplateILb1EEESt4hashIS4_EEC2EPNS0_7ContextE(ptr noundef nonnull align 8 dereferenceable(56) %d_bitwiseAssertions, ptr noundef %call13)
          to label %invoke.cont14 unwind label %lpad11

invoke.cont14:                                    ; preds = %invoke.cont12
  %d_zero = getelementptr inbounds %"class.cvc5::internal::IntBlaster", ptr %this1, i32 0, i32 6
  invoke void @_ZN4cvc58internal12NodeTemplateILb1EEC2Ev(ptr noundef nonnull align 8 dereferenceable(8) %d_zero)
          to label %invoke.cont16 unwind label %lpad15

invoke.cont16:                                    ; preds = %invoke.cont14
  %d_one = getelementptr inbounds %"class.cvc5::internal::IntBlaster", ptr %this1, i32 0, i32 7
  invoke void @_ZN4cvc58internal12NodeTemplateILb1EEC2Ev(ptr noundef nonnull align 8 dereferenceable(8) %d_one)
          to label %invoke.cont18 unwind label %lpad17

invoke.cont18:                                    ; preds = %invoke.cont16
  %d_iandUtils = getelementptr inbounds %"class.cvc5::internal::IntBlaster", ptr %this1, i32 0, i32 8
  invoke void @_ZN4cvc58internal6theory5arith2nl9IAndUtilsC1Ev(ptr noundef nonnull align 8 dereferenceable(72) %d_iandUtils)
          to label %invoke.cont20 unwind label %lpad19

invoke.cont20:                                    ; preds = %invoke.cont18
  %d_mode = getelementptr inbounds %"class.cvc5::internal::IntBlaster", ptr %this1, i32 0, i32 9
  %1 = load i32, ptr %mode.addr, align 4
  store i32 %1, ptr %d_mode, align 8
  %d_context = getelementptr inbounds %"class.cvc5::internal::IntBlaster", ptr %this1, i32 0, i32 11
  %call23 = invoke noundef ptr @_ZNK4cvc58internal6EnvObj11userContextEv(ptr noundef nonnull align 8 dereferenceable(16) %this1)
          to label %invoke.cont22 unwind label %lpad21

invoke.cont22:                                    ; preds = %invoke.cont20
  store ptr %call23, ptr %d_context, align 8
  %call25 = invoke noundef ptr @_ZN4cvc58internal11NodeManager9currentNMEv()
          to label %invoke.cont24 unwind label %lpad21

invoke.cont24:                                    ; preds = %invoke.cont22
  %d_nm = getelementptr inbounds %"class.cvc5::internal::IntBlaster", ptr %this1, i32 0, i32 3
  store ptr %call25, ptr %d_nm, align 8
  %d_nm26 = getelementptr inbounds %"class.cvc5::internal::IntBlaster", ptr %this1, i32 0, i32 3
  %2 = load ptr, ptr %d_nm26, align 8
  invoke void @_ZN4cvc58internal8RationalC2Ei(ptr noundef nonnull align 8 dereferenceable(32) %ref.tmp27, i32 noundef 0)
          to label %invoke.cont28 unwind label %lpad21

invoke.cont28:                                    ; preds = %invoke.cont24
  invoke void @_ZN4cvc58internal11NodeManager10mkConstIntERKNS0_8RationalE(ptr sret(%"class.cvc5::internal::NodeTemplate") align 8 %ref.tmp, ptr noundef nonnull align 8 dereferenceable(3360) %2, ptr noundef nonnull align 8 dereferenceable(32) %ref.tmp27)
          to label %invoke.cont30 unwind label %lpad29

invoke.cont30:                                    ; preds = %invoke.cont28
  %d_zero31 = getelementptr inbounds %"class.cvc5::internal::IntBlaster", ptr %this1, i32 0, i32 6
  %call34 = invoke noundef nonnull align 8 dereferenceable(8) ptr @_ZN4cvc58internal12NodeTemplateILb1EEaSERKS2_(ptr noundef nonnull align 8 dereferenceable(8) %d_zero31, ptr noundef nonnull align 8 dereferenceable(8) %ref.tmp)
          to label %invoke.cont33 unwind label %lpad32

invoke.cont33:                                    ; preds = %invoke.cont30
  call void @_ZN4cvc58internal12NodeTemplateILb1EED2Ev(ptr noundef nonnull align 8 dereferenceable(8) %ref.tmp) #3
  call void @_ZN4cvc58internal8RationalD2Ev(ptr noundef nonnull align 8 dereferenceable(32) %ref.tmp27) #3
  %d_nm36 = getelementptr inbounds %"class.cvc5::internal::IntBlaster", ptr %this1, i32 0, i32 3
  %3 = load ptr, ptr %d_nm36, align 8
  invoke void @_ZN4cvc58internal8RationalC2Ei(ptr noundef nonnull align 8 dereferenceable(32) %ref.tmp37, i32 noundef 1)
          to label %invoke.cont38 unwind label %lpad21

invoke.cont38:                                    ; preds = %invoke.cont33
  invoke void @_ZN4cvc58internal11NodeManager10mkConstIntERKNS0_8RationalE(ptr sret(%"class.cvc5::internal::NodeTemplate") align 8 %ref.tmp35, ptr noundef nonnull align 8 dereferenceable(3360) %3, ptr noundef nonnull align 8 dereferenceable(32) %ref.tmp37)
          to label %invoke.cont40 unwind label %lpad39

invoke.cont40:                                    ; preds = %invoke.cont38
  %d_one41 = getelementptr inbounds %"class.cvc5::internal::IntBlaster", ptr %this1, i32 0, i32 7
  %call44 = invoke noundef nonnull align 8 dereferenceable(8) ptr @_ZN4cvc58internal12NodeTemplateILb1EEaSERKS2_(ptr noundef nonnull align 8 dereferenceable(8) %d_one41, ptr noundef nonnull align 8 dereferenceable(8) %ref.tmp35)
          to label %invoke.cont43 unwind label %lpad42

invoke.cont43:                                    ; preds = %invoke.cont40
  call void @_ZN4cvc58internal12NodeTemplateILb1EED2Ev(ptr noundef nonnull align 8 dereferenceable(8) %ref.tmp35) #3
  call void @_ZN4cvc58internal8RationalD2Ev(ptr noundef nonnull align 8 dereferenceable(32) %ref.tmp37) #3
  %4 = load i64, ptr %granularity.addr, align 8
  %conv = trunc i64 %4 to i32
  %d_granularity = getelementptr inbounds %"class.cvc5::internal::IntBlaster", ptr %this1, i32 0, i32 12
  store i32 %conv, ptr %d_granularity, align 8
  ret void

lpad:                                             ; preds = %invoke.cont, %entry
  %5 = landingpad { ptr, i32 }
          cleanup
  %6 = extractvalue { ptr, i32 } %5, 0
  store ptr %6, ptr %exn.slot, align 8
  %7 = extractvalue { ptr, i32 } %5, 1
  store i32 %7, ptr %ehselector.slot, align 4
  br label %ehcleanup54

lpad3:                                            ; preds = %invoke.cont4, %invoke.cont2
  %8 = landingpad { ptr, i32 }
          cleanup
  %9 = extractvalue { ptr, i32 } %8, 0
  store ptr %9, ptr %exn.slot, align 8
  %10 = extractvalue { ptr, i32 } %8, 1
  store i32 %10, ptr %ehselector.slot, align 4
  br label %ehcleanup53

lpad7:                                            ; preds = %invoke.cont8, %invoke.cont6
  %11 = landingpad { ptr, i32 }
          cleanup
  %12 = extractvalue { ptr, i32 } %11, 0
  store ptr %12, ptr %exn.slot, align 8
  %13 = extractvalue { ptr, i32 } %11, 1
  store i32 %13, ptr %ehselector.slot, align 4
  br label %ehcleanup52

lpad11:                                           ; preds = %invoke.cont12, %invoke.cont10
  %14 = landingpad { ptr, i32 }
          cleanup
  %15 = extractvalue { ptr, i32 } %14, 0
  store ptr %15, ptr %exn.slot, align 8
  %16 = extractvalue { ptr, i32 } %14, 1
  store i32 %16, ptr %ehselector.slot, align 4
  br label %ehcleanup51

lpad15:                                           ; preds = %invoke.cont14
  %17 = landingpad { ptr, i32 }
          cleanup
  %18 = extractvalue { ptr, i32 } %17, 0
  store ptr %18, ptr %exn.slot, align 8
  %19 = extractvalue { ptr, i32 } %17, 1
  store i32 %19, ptr %ehselector.slot, align 4
  br label %ehcleanup50

lpad17:                                           ; preds = %invoke.cont16
  %20 = landingpad { ptr, i32 }
          cleanup
  %21 = extractvalue { ptr, i32 } %20, 0
  store ptr %21, ptr %exn.slot, align 8
  %22 = extractvalue { ptr, i32 } %20, 1
  store i32 %22, ptr %ehselector.slot, align 4
  br label %ehcleanup49

lpad19:                                           ; preds = %invoke.cont18
  %23 = landingpad { ptr, i32 }
          cleanup
  %24 = extractvalue { ptr, i32 } %23, 0
  store ptr %24, ptr %exn.slot, align 8
  %25 = extractvalue { ptr, i32 } %23, 1
  store i32 %25, ptr %ehselector.slot, align 4
  br label %ehcleanup48

lpad21:                                           ; preds = %invoke.cont33, %invoke.cont24, %invoke.cont22, %invoke.cont20
  %26 = landingpad { ptr, i32 }
          cleanup
  %27 = extractvalue { ptr, i32 } %26, 0
  store ptr %27, ptr %exn.slot, align 8
  %28 = extractvalue { ptr, i32 } %26, 1
  store i32 %28, ptr %ehselector.slot, align 4
  br label %ehcleanup47

lpad29:                                           ; preds = %invoke.cont28
  %29 = landingpad { ptr, i32 }
          cleanup
  %30 = extractvalue { ptr, i32 } %29, 0
  store ptr %30, ptr %exn.slot, align 8
  %31 = extractvalue { ptr, i32 } %29, 1
  store i32 %31, ptr %ehselector.slot, align 4
  br label %ehcleanup

lpad32:                                           ; preds = %invoke.cont30
  %32 = landingpad { ptr, i32 }
          cleanup
  %33 = extractvalue { ptr, i32 } %32, 0
  store ptr %33, ptr %exn.slot, align 8
  %34 = extractvalue { ptr, i32 } %32, 1
  store i32 %34, ptr %ehselector.slot, align 4
  call void @_ZN4cvc58internal12NodeTemplateILb1EED2Ev(ptr noundef nonnull align 8 dereferenceable(8) %ref.tmp) #3
  br label %ehcleanup

ehcleanup:                                        ; preds = %lpad32, %lpad29
  call void @_ZN4cvc58internal8RationalD2Ev(ptr noundef nonnull align 8 dereferenceable(32) %ref.tmp27) #3
  br label %ehcleanup47

lpad39:                                           ; preds = %invoke.cont38
  %35 = landingpad { ptr, i32 }
          cleanup
  %36 = extractvalue { ptr, i32 } %35, 0
  store ptr %36, ptr %exn.slot, align 8
  %37 = extractvalue { ptr, i32 } %35, 1
  store i32 %37, ptr %ehselector.slot, align 4
  br label %ehcleanup46

lpad42:                                           ; preds = %invoke.cont40
  %38 = landingpad { ptr, i32 }
          cleanup
  %39 = extractvalue { ptr, i32 } %38, 0
  store ptr %39, ptr %exn.slot, align 8
  %40 = extractvalue { ptr, i32 } %38, 1
  store i32 %40, ptr %ehselector.slot, align 4
  call void @_ZN4cvc58internal12NodeTemplateILb1EED2Ev(ptr noundef nonnull align 8 dereferenceable(8) %ref.tmp35) #3
  br label %ehcleanup46

ehcleanup46:                                      ; preds = %lpad42, %lpad39
  call void @_ZN4cvc58internal8RationalD2Ev(ptr noundef nonnull align 8 dereferenceable(32) %ref.tmp37) #3
  br label %ehcleanup47

ehcleanup47:                                      ; preds = %ehcleanup46, %ehcleanup, %lpad21
  call void @_ZN4cvc58internal6theory5arith2nl9IAndUtilsD2Ev(ptr noundef nonnull align 8 dereferenceable(72) %d_iandUtils) #3
  br label %ehcleanup48

ehcleanup48:                                      ; preds = %ehcleanup47, %lpad19
  call void @_ZN4cvc58internal12NodeTemplateILb1EED2Ev(ptr noundef nonnull align 8 dereferenceable(8) %d_one) #3
  br label %ehcleanup49

ehcleanup49:                                      ; preds = %ehcleanup48, %lpad17
  call void @_ZN4cvc58internal12NodeTemplateILb1EED2Ev(ptr noundef nonnull align 8 dereferenceable(8) %d_zero) #3
  br label %ehcleanup50

ehcleanup50:                                      ; preds = %ehcleanup49, %lpad15
  call void @_ZN4cvc57context9CDHashSetINS_8internal12NodeTemplateILb1EEESt4hashIS4_EED2Ev(ptr noundef nonnull align 8 dereferenceable(56) %d_bitwiseAssertions) #3
  br label %ehcleanup51

ehcleanup51:                                      ; preds = %ehcleanup50, %lpad11
  call void @_ZN4cvc57context9CDHashSetINS_8internal12NodeTemplateILb1EEESt4hashIS4_EED2Ev(ptr noundef nonnull align 8 dereferenceable(56) %d_rangeAssertions) #3
  br label %ehcleanup52

ehcleanup52:                                      ; preds = %ehcleanup51, %lpad7
  call void @_ZN4cvc57context9CDHashMapINS_8internal12NodeTemplateILb1EEES4_St4hashIS4_EED2Ev(ptr noundef nonnull align 8 dereferenceable(112) %d_intblastCache) #3
  br label %ehcleanup53

ehcleanup53:                                      ; preds = %ehcleanup52, %lpad3
  call void @_ZN4cvc57context9CDHashMapINS_8internal12NodeTemplateILb1EEES4_St4hashIS4_EED2Ev(ptr noundef nonnull align 8 dereferenceable(112) %d_binarizeCache) #3
  br label %ehcleanup54

ehcleanup54:                                      ; preds = %ehcleanup53, %lpad
  call void @_ZN4cvc58internal6EnvObjD2Ev(ptr noundef nonnull align 8 dereferenceable(16) %this1) #3
  br label %eh.resume

eh.resume:                                        ; preds = %ehcleanup54
  %exn = load ptr, ptr %exn.slot, align 8
  %sel = load i32, ptr %ehselector.slot, align 4
  %lpad.val = insertvalue { ptr, i32 } poison, ptr %exn, 0
  %lpad.val55 = insertvalue { ptr, i32 } %lpad.val, i32 %sel, 1
  resume { ptr, i32 } %lpad.val55
}

declare void @_ZN4cvc58internal6EnvObjC2ERNS0_3EnvE(ptr noundef nonnull align 8 dereferenceable(16), ptr noundef nonnull align 1) unnamed_addr #1

declare noundef ptr @_ZNK4cvc58internal6EnvObj11userContextEv(ptr noundef nonnull align 8 dereferenceable(16)) #1

declare i32 @__gxx_personality_v0(...)

; Function Attrs: mustprogress uwtable
define linkonce_odr hidden void @_ZN4cvc57context9CDHashMapINS_8internal12NodeTemplateILb1EEES4_St4hashIS4_EEC2EPNS0_7ContextE(ptr noundef nonnull align 8 dereferenceable(112) %this, ptr noundef %context) unnamed_addr #4 comdat align 2 {
entry:
  %this.addr = alloca ptr, align 8
  %context.addr = alloca ptr, align 8
  store ptr %this, ptr %this.addr, align 8
  store ptr %context, ptr %context.addr, align 8
  %this1 = load ptr, ptr %this.addr, align 8
  %0 = load ptr, ptr %context.addr, align 8
  call void @_ZN4cvc57context10ContextObjC2EPNS0_7ContextE(ptr noundef nonnull align 8 dereferenceable(40) %this1, ptr noundef %0)
  store ptr getelementptr inbounds ({ [6 x ptr] }, ptr @_ZTVN4cvc57context9CDHashMapINS_8internal12NodeTemplateILb1EEES4_St4hashIS4_EEE, i32 0, inrange i32 0, i32 2), ptr %this1, align 8
  %d_map = getelementptr inbounds %"class.cvc5::context::CDHashMap", ptr %this1, i32 0, i32 1
  call void @llvm.memset.p0.i64(ptr align 8 %d_map, i8 0, i64 56, i1 false)
  call void @_ZNSt13unordered_mapIN4cvc58internal12NodeTemplateILb1EEEPNS0_7context11CDOhash_mapIS3_S3_St4hashIS3_EEES7_St8equal_toIS3_ESaISt4pairIKS3_S9_EEEC2Ev(ptr noundef nonnull align 8 dereferenceable(56) %d_map) #3
  %d_first = getelementptr inbounds %"class.cvc5::context::CDHashMap", ptr %this1, i32 0, i32 2
  store ptr null, ptr %d_first, align 8
  %d_context = getelementptr inbounds %"class.cvc5::context::CDHashMap", ptr %this1, i32 0, i32 3
  %1 = load ptr, ptr %context.addr, align 8
  store ptr %1, ptr %d_context, align 8
  ret void
}

; Function Attrs: mustprogress uwtable
define linkonce_odr hidden void @_ZN4cvc57context9CDHashSetINS_8internal12NodeTemplateILb1EEESt4hashIS4_EEC2EPNS0_7ContextE(ptr noundef nonnull align 8 dereferenceable(56) %this, ptr noundef %context) unnamed_addr #4 comdat align 2 {
entry:
  %this.addr = alloca ptr, align 8
  %context.addr = alloca ptr, align 8
  store ptr %this, ptr %this.addr, align 8
  store ptr %context, ptr %context.addr, align 8
  %this1 = load ptr, ptr %this.addr, align 8
  %0 = load ptr, ptr %context.addr, align 8
  call void @_ZN4cvc57context15CDInsertHashMapINS_8internal12NodeTemplateILb1EEEbSt4hashIS4_EEC2EPNS0_7ContextE(ptr noundef nonnull align 8 dereferenceable(56) %this1, ptr noundef %0)
  store ptr getelementptr inbounds ({ [6 x ptr] }, ptr @_ZTVN4cvc57context9CDHashSetINS_8internal12NodeTemplateILb1EEESt4hashIS4_EEE, i32 0, inrange i32 0, i32 2), ptr %this1, align 8
  ret void
}

; Function Attrs: mustprogress uwtable
define linkonce_odr hidden void @_ZN4cvc58internal12NodeTemplateILb1EEC2Ev(ptr noundef nonnull align 8 dereferenceable(8) %this) unnamed_addr #4 comdat align 2 {
entry:
  %this.addr = alloca ptr, align 8
  store ptr %this, ptr %this.addr, align 8
  %this1 = load ptr, ptr %this.addr, align 8
  %d_nv = getelementptr inbounds %"class.cvc5::internal::NodeTemplate", ptr %this1, i32 0, i32 0
  %call = call noundef nonnull align 8 dereferenceable(16) ptr @_ZN4cvc58internal4expr9NodeValue4nullEv()
  store ptr %call, ptr %d_nv, align 8
  ret void
}

declare void @_ZN4cvc58internal6theory5arith2nl9IAndUtilsC1Ev(ptr noundef nonnull align 8 dereferenceable(72)) unnamed_addr #1

declare noundef ptr @_ZN4cvc58internal11NodeManager9currentNMEv() #1

declare void @_ZN4cvc58internal11NodeManager10mkConstIntERKNS0_8RationalE(ptr sret(%"class.cvc5::internal::NodeTemplate") align 8, ptr noundef nonnull align 8 dereferenceable(3360), ptr noundef nonnull align 8 dereferenceable(32)) #1

; Function Attrs: mustprogress uwtable
define linkonce_odr hidden void @_ZN4cvc58internal8RationalC2Ei(ptr noundef nonnull align 8 dereferenceable(32) %this, i32 noundef %n) unnamed_addr #4 comdat align 2 personality ptr @__gxx_personality_v0 {
entry:
  %this.addr = alloca ptr, align 8
  %n.addr = alloca i32, align 4
  %ref.tmp = alloca %class.__gmp_expr.132, align 8
  %ref.tmp2 = alloca %class.__gmp_expr.132, align 8
  %exn.slot = alloca ptr, align 8
  %ehselector.slot = alloca i32, align 4
  store ptr %this, ptr %this.addr, align 8
  store i32 %n, ptr %n.addr, align 4
  %this1 = load ptr, ptr %this.addr, align 8
  %d_value = getelementptr inbounds %"class.cvc5::internal::Rational", ptr %this1, i32 0, i32 0
  %0 = load i32, ptr %n.addr, align 4
  call void @_ZN10__gmp_exprIA1_12__mpz_structS1_EC2Ei(ptr noundef nonnull align 8 dereferenceable(16) %ref.tmp, i32 noundef %0)
  invoke void @_ZN10__gmp_exprIA1_12__mpz_structS1_EC2Ei(ptr noundef nonnull align 8 dereferenceable(16) %ref.tmp2, i32 noundef 1)
          to label %invoke.cont unwind label %lpad

invoke.cont:                                      ; preds = %entry
  invoke void @_ZN10__gmp_exprIA1_12__mpq_structS1_EC2ERKS_IA1_12__mpz_structS4_ES7_(ptr noundef nonnull align 8 dereferenceable(32) %d_value, ptr noundef nonnull align 8 dereferenceable(16) %ref.tmp, ptr noundef nonnull align 8 dereferenceable(16) %ref.tmp2)
          to label %invoke.cont4 unwind label %lpad3

invoke.cont4:                                     ; preds = %invoke.cont
  call void @_ZN10__gmp_exprIA1_12__mpz_structS1_ED2Ev(ptr noundef nonnull align 8 dereferenceable(16) %ref.tmp2) #3
  call void @_ZN10__gmp_exprIA1_12__mpz_structS1_ED2Ev(ptr noundef nonnull align 8 dereferenceable(16) %ref.tmp) #3
  %d_value5 = getelementptr inbounds %"class.cvc5::internal::Rational", ptr %this1, i32 0, i32 0
  invoke void @_ZN10__gmp_exprIA1_12__mpq_structS1_E12canonicalizeEv(ptr noundef nonnull align 8 dereferenceable(32) %d_value5)
          to label %invoke.cont7 unwind label %lpad6

invoke.cont7:                                     ; preds = %invoke.cont4
  ret void

lpad:                                             ; preds = %entry
  %1 = landingpad { ptr, i32 }
          cleanup
  %2 = extractvalue { ptr, i32 } %1, 0
  store ptr %2, ptr %exn.slot, align 8
  %3 = extractvalue { ptr, i32 } %1, 1
  store i32 %3, ptr %ehselector.slot, align 4
  br label %ehcleanup

lpad3:                                            ; preds = %invoke.cont
  %4 = landingpad { ptr, i32 }
          cleanup
  %5 = extractvalue { ptr, i32 } %4, 0
  store ptr %5, ptr %exn.slot, align 8
  %6 = extractvalue { ptr, i32 } %4, 1
  store i32 %6, ptr %ehselector.slot, align 4
  call void @_ZN10__gmp_exprIA1_12__mpz_structS1_ED2Ev(ptr noundef nonnull align 8 dereferenceable(16) %ref.tmp2) #3
  br label %ehcleanup

ehcleanup:                                        ; preds = %lpad3, %lpad
  call void @_ZN10__gmp_exprIA1_12__mpz_structS1_ED2Ev(ptr noundef nonnull align 8 dereferenceable(16) %ref.tmp) #3
  br label %eh.resume

lpad6:                                            ; preds = %invoke.cont4
  %7 = landingpad { ptr, i32 }
          cleanup
  %8 = extractvalue { ptr, i32 } %7, 0
  store ptr %8, ptr %exn.slot, align 8
  %9 = extractvalue { ptr, i32 } %7, 1
  store i32 %9, ptr %ehselector.slot, align 4
  call void @_ZN10__gmp_exprIA1_12__mpq_structS1_ED2Ev(ptr noundef nonnull align 8 dereferenceable(32) %d_value) #3
  br label %eh.resume

eh.resume:                                        ; preds = %lpad6, %ehcleanup
  %exn = load ptr, ptr %exn.slot, align 8
  %sel = load i32, ptr %ehselector.slot, align 4
  %lpad.val = insertvalue { ptr, i32 } poison, ptr %exn, 0
  %lpad.val9 = insertvalue { ptr, i32 } %lpad.val, i32 %sel, 1
  resume { ptr, i32 } %lpad.val9
}

; Function Attrs: mustprogress uwtable
define linkonce_odr hidden noundef nonnull align 8 dereferenceable(8) ptr @_ZN4cvc58internal12NodeTemplateILb1EEaSERKS2_(ptr noundef nonnull align 8 dereferenceable(8) %this, ptr noundef nonnull align 8 dereferenceable(8) %e) #4 comdat align 2 {
entry:
  %this.addr = alloca ptr, align 8
  %e.addr = alloca ptr, align 8
  store ptr %this, ptr %this.addr, align 8
  store ptr %e, ptr %e.addr, align 8
  %this1 = load ptr, ptr %this.addr, align 8
  %d_nv = getelementptr inbounds %"class.cvc5::internal::NodeTemplate", ptr %this1, i32 0, i32 0
  %0 = load ptr, ptr %d_nv, align 8
  %1 = load ptr, ptr %e.addr, align 8
  %d_nv2 = getelementptr inbounds %"class.cvc5::internal::NodeTemplate", ptr %1, i32 0, i32 0
  %2 = load ptr, ptr %d_nv2, align 8
  %cmp = icmp ne ptr %0, %2
  br i1 %cmp, label %if.then, label %if.end

if.then:                                          ; preds = %entry
  %d_nv3 = getelementptr inbounds %"class.cvc5::internal::NodeTemplate", ptr %this1, i32 0, i32 0
  %3 = load ptr, ptr %d_nv3, align 8
  call void @_ZN4cvc58internal4expr9NodeValue3decEv(ptr noundef nonnull align 8 dereferenceable(16) %3)
  %4 = load ptr, ptr %e.addr, align 8
  %d_nv4 = getelementptr inbounds %"class.cvc5::internal::NodeTemplate", ptr %4, i32 0, i32 0
  %5 = load ptr, ptr %d_nv4, align 8
  %d_nv5 = getelementptr inbounds %"class.cvc5::internal::NodeTemplate", ptr %this1, i32 0, i32 0
  store ptr %5, ptr %d_nv5, align 8
  %d_nv6 = getelementptr inbounds %"class.cvc5::internal::NodeTemplate", ptr %this1, i32 0, i32 0
  %6 = load ptr, ptr %d_nv6, align 8
  call void @_ZN4cvc58internal4expr9NodeValue3incEv(ptr noundef nonnull align 8 dereferenceable(16) %6)
  br label %if.end

if.end:                                           ; preds = %if.then, %entry
  ret ptr %this1
}

; Function Attrs: mustprogress nounwind uwtable
define linkonce_odr hidden void @_ZN4cvc58internal12NodeTemplateILb1EED2Ev(ptr noundef nonnull align 8 dereferenceable(8) %this) unnamed_addr #5 comdat align 2 personality ptr @__gxx_personality_v0 {
entry:
  %this.addr = alloca ptr, align 8
  store ptr %this, ptr %this.addr, align 8
  %this1 = load ptr, ptr %this.addr, align 8
  %d_nv = getelementptr inbounds %"class.cvc5::internal::NodeTemplate", ptr %this1, i32 0, i32 0
  %0 = load ptr, ptr %d_nv, align 8
  invoke void @_ZN4cvc58internal4expr9NodeValue3decEv(ptr noundef nonnull align 8 dereferenceable(16) %0)
          to label %invoke.cont unwind label %terminate.lpad

invoke.cont:                                      ; preds = %entry
  ret void

terminate.lpad:                                   ; preds = %entry
  %1 = landingpad { ptr, i32 }
          catch ptr null
  %2 = extractvalue { ptr, i32 } %1, 0
  call void @__clang_call_terminate(ptr %2) #16
  unreachable
}

; Function Attrs: mustprogress nounwind uwtable
define linkonce_odr hidden void @_ZN4cvc58internal8RationalD2Ev(ptr noundef nonnull align 8 dereferenceable(32) %this) unnamed_addr #5 comdat align 2 {
entry:
  %this.addr = alloca ptr, align 8
  store ptr %this, ptr %this.addr, align 8
  %this1 = load ptr, ptr %this.addr, align 8
  %d_value = getelementptr inbounds %"class.cvc5::internal::Rational", ptr %this1, i32 0, i32 0
  call void @_ZN10__gmp_exprIA1_12__mpq_structS1_ED2Ev(ptr noundef nonnull align 8 dereferenceable(32) %d_value) #3
  ret void
}

; Function Attrs: mustprogress nounwind uwtable
define linkonce_odr hidden void @_ZN4cvc58internal6theory5arith2nl9IAndUtilsD2Ev(ptr noundef nonnull align 8 dereferenceable(72) %this) unnamed_addr #5 comdat align 2 {
entry:
  %this.addr = alloca ptr, align 8
  store ptr %this, ptr %this.addr, align 8
  %this1 = load ptr, ptr %this.addr, align 8
  %d_two = getelementptr inbounds %"class.cvc5::internal::theory::arith::nl::IAndUtils", ptr %this1, i32 0, i32 3
  call void @_ZN4cvc58internal12NodeTemplateILb1EED2Ev(ptr noundef nonnull align 8 dereferenceable(8) %d_two) #3
  %d_one = getelementptr inbounds %"class.cvc5::internal::theory::arith::nl::IAndUtils", ptr %this1, i32 0, i32 2
  call void @_ZN4cvc58internal12NodeTemplateILb1EED2Ev(ptr noundef nonnull align 8 dereferenceable(8) %d_one) #3
  %d_zero = getelementptr inbounds %"class.cvc5::internal::theory::arith::nl::IAndUtils", ptr %this1, i32 0, i32 1
  call void @_ZN4cvc58internal12NodeTemplateILb1EED2Ev(ptr noundef nonnull align 8 dereferenceable(8) %d_zero) #3
  %d_bvandTable = getelementptr inbounds %"class.cvc5::internal::theory::arith::nl::IAndUtils", ptr %this1, i32 0, i32 0
  call void @_ZNSt3mapImS_ISt4pairIllEmSt4lessIS1_ESaIS0_IKS1_mEEES2_ImESaIS0_IKmS7_EEED2Ev(ptr noundef nonnull align 8 dereferenceable(48) %d_bvandTable) #3
  ret void
}

; Function Attrs: mustprogress nounwind uwtable
define linkonce_odr hidden void @_ZN4cvc57context9CDHashSetINS_8internal12NodeTemplateILb1EEESt4hashIS4_EED2Ev(ptr noundef nonnull align 8 dereferenceable(56) %this) unnamed_addr #5 comdat align 2 {
entry:
  %this.addr = alloca ptr, align 8
  store ptr %this, ptr %this.addr, align 8
  %this1 = load ptr, ptr %this.addr, align 8
  call void @_ZN4cvc57context15CDInsertHashMapINS_8internal12NodeTemplateILb1EEEbSt4hashIS4_EED2Ev(ptr noundef nonnull align 8 dereferenceable(56) %this1) #3
  ret void
}

; Function Attrs: mustprogress nounwind uwtable
define linkonce_odr hidden void @_ZN4cvc57context9CDHashMapINS_8internal12NodeTemplateILb1EEES4_St4hashIS4_EED2Ev(ptr noundef nonnull align 8 dereferenceable(112) %this) unnamed_addr #5 comdat align 2 personality ptr @__gxx_personality_v0 {
entry:
  %this.addr = alloca ptr, align 8
  store ptr %this, ptr %this.addr, align 8
  %this1 = load ptr, ptr %this.addr, align 8
  store ptr getelementptr inbounds ({ [6 x ptr] }, ptr @_ZTVN4cvc57context9CDHashMapINS_8internal12NodeTemplateILb1EEES4_St4hashIS4_EEE, i32 0, inrange i32 0, i32 2), ptr %this1, align 8
  invoke void @_ZN4cvc57context10ContextObj7destroyEv(ptr noundef nonnull align 8 dereferenceable(40) %this1)
          to label %invoke.cont unwind label %terminate.lpad

invoke.cont:                                      ; preds = %entry
  invoke void @_ZN4cvc57context9CDHashMapINS_8internal12NodeTemplateILb1EEES4_St4hashIS4_EE5clearEv(ptr noundef nonnull align 8 dereferenceable(112) %this1)
          to label %invoke.cont2 unwind label %terminate.lpad

invoke.cont2:                                     ; preds = %invoke.cont
  %d_map = getelementptr inbounds %"class.cvc5::context::CDHashMap", ptr %this1, i32 0, i32 1
  call void @_ZNSt13unordered_mapIN4cvc58internal12NodeTemplateILb1EEEPNS0_7context11CDOhash_mapIS3_S3_St4hashIS3_EEES7_St8equal_toIS3_ESaISt4pairIKS3_S9_EEED2Ev(ptr noundef nonnull align 8 dereferenceable(56) %d_map) #3
  call void @_ZN4cvc57context10ContextObjD2Ev(ptr noundef nonnull align 8 dereferenceable(40) %this1) #3
  ret void

terminate.lpad:                                   ; preds = %invoke.cont, %entry
  %0 = landingpad { ptr, i32 }
          catch ptr null
  %1 = extractvalue { ptr, i32 } %0, 0
  call void @__clang_call_terminate(ptr %1) #16
  unreachable
}

; Function Attrs: mustprogress nounwind uwtable
define linkonce_odr hidden void @_ZN4cvc58internal6EnvObjD2Ev(ptr noundef nonnull align 8 dereferenceable(16) %this) unnamed_addr #5 comdat align 2 {
entry:
  %this.addr = alloca ptr, align 8
  store ptr %this, ptr %this.addr, align 8
  ret void
}

; Function Attrs: mustprogress nounwind uwtable
define hidden void @_ZN4cvc58internal10IntBlasterD2Ev(ptr noundef nonnull align 8 dereferenceable(468) %this) unnamed_addr #5 align 2 {
entry:
  %this.addr = alloca ptr, align 8
  store ptr %this, ptr %this.addr, align 8
  %this1 = load ptr, ptr %this.addr, align 8
  store ptr getelementptr inbounds ({ [4 x ptr] }, ptr @_ZTVN4cvc58internal10IntBlasterE, i32 0, inrange i32 0, i32 2), ptr %this1, align 8
  %d_iandUtils = getelementptr inbounds %"class.cvc5::internal::IntBlaster", ptr %this1, i32 0, i32 8
  call void @_ZN4cvc58internal6theory5arith2nl9IAndUtilsD2Ev(ptr noundef nonnull align 8 dereferenceable(72) %d_iandUtils) #3
  %d_one = getelementptr inbounds %"class.cvc5::internal::IntBlaster", ptr %this1, i32 0, i32 7
  call void @_ZN4cvc58internal12NodeTemplateILb1EED2Ev(ptr noundef nonnull align 8 dereferenceable(8) %d_one) #3
  %d_zero = getelementptr inbounds %"class.cvc5::internal::IntBlaster", ptr %this1, i32 0, i32 6
  call void @_ZN4cvc58internal12NodeTemplateILb1EED2Ev(ptr noundef nonnull align 8 dereferenceable(8) %d_zero) #3
  %d_bitwiseAssertions = getelementptr inbounds %"class.cvc5::internal::IntBlaster", ptr %this1, i32 0, i32 5
  call void @_ZN4cvc57context9CDHashSetINS_8internal12NodeTemplateILb1EEESt4hashIS4_EED2Ev(ptr noundef nonnull align 8 dereferenceable(56) %d_bitwiseAssertions) #3
  %d_rangeAssertions = getelementptr inbounds %"class.cvc5::internal::IntBlaster", ptr %this1, i32 0, i32 4
  call void @_ZN4cvc57context9CDHashSetINS_8internal12NodeTemplateILb1EEESt4hashIS4_EED2Ev(ptr noundef nonnull align 8 dereferenceable(56) %d_rangeAssertions) #3
  %d_intblastCache = getelementptr inbounds %"class.cvc5::internal::IntBlaster", ptr %this1, i32 0, i32 2
  call void @_ZN4cvc57context9CDHashMapINS_8internal12NodeTemplateILb1EEES4_St4hashIS4_EED2Ev(ptr noundef nonnull align 8 dereferenceable(112) %d_intblastCache) #3
  %d_binarizeCache = getelementptr inbounds %"class.cvc5::internal::IntBlaster", ptr %this1, i32 0, i32 1
  call void @_ZN4cvc57context9CDHashMapINS_8internal12NodeTemplateILb1EEES4_St4hashIS4_EED2Ev(ptr noundef nonnull align 8 dereferenceable(112) %d_binarizeCache) #3
  call void @_ZN4cvc58internal6EnvObjD2Ev(ptr noundef nonnull align 8 dereferenceable(16) %this1) #3
  ret void
}

; Function Attrs: mustprogress nounwind uwtable
define hidden void @_ZN4cvc58internal10IntBlasterD0Ev(ptr noundef nonnull align 8 dereferenceable(468) %this) unnamed_addr #5 align 2 {
entry:
  %this.addr = alloca ptr, align 8
  store ptr %this, ptr %this.addr, align 8
  %this1 = load ptr, ptr %this.addr, align 8
  call void @_ZN4cvc58internal10IntBlasterD1Ev(ptr noundef nonnull align 8 dereferenceable(468) %this1) #3
  call void @_ZdlPv(ptr noundef %this1) #17
  ret void
}

; Function Attrs: nobuiltin nounwind
declare void @_ZdlPv(ptr noundef) #6

; Function Attrs: mustprogress uwtable
define hidden void @_ZN4cvc58internal10IntBlaster18addRangeConstraintENS0_12NodeTemplateILb1EEEjRSt6vectorIS3_SaIS3_EE(ptr noundef nonnull align 8 dereferenceable(468) %this, ptr noundef %node, i32 noundef %size, ptr noundef nonnull align 8 dereferenceable(24) %lemmas) #4 align 2 personality ptr @__gxx_personality_v0 {
entry:
  %this.addr = alloca ptr, align 8
  %node.indirect_addr = alloca ptr, align 8
  %size.addr = alloca i32, align 4
  %lemmas.addr = alloca ptr, align 8
  %rangeConstraint = alloca %"class.cvc5::internal::NodeTemplate", align 8
  %agg.tmp = alloca %"class.cvc5::internal::NodeTemplate", align 8
  %exn.slot = alloca ptr, align 8
  %ehselector.slot = alloca i32, align 4
  %ref.tmp = alloca %"class.cvc5::internal::__cvc5_true", align 1
  %tmp = alloca %"class.cvc5::internal::Cvc5ostream", align 8
  %agg.tmp.ensured = alloca %"class.cvc5::internal::Cvc5ostream", align 8
  %ref.tmp5 = alloca %"class.cvc5::internal::Cvc5ostream", align 8
  %ref.tmp13 = alloca %"class.cvc5::context::CDHashSet<cvc5::internal::NodeTemplate<true>>::const_iterator", align 8
  %ref.tmp15 = alloca %"class.cvc5::context::CDHashSet<cvc5::internal::NodeTemplate<true>>::const_iterator", align 8
  %ref.tmp20 = alloca %"class.cvc5::internal::__cvc5_true", align 1
  %tmp24 = alloca %"class.cvc5::internal::Cvc5ostream", align 8
  %agg.tmp.ensured27 = alloca %"class.cvc5::internal::Cvc5ostream", align 8
  %ref.tmp28 = alloca %"class.cvc5::internal::Cvc5ostream", align 8
  store ptr %this, ptr %this.addr, align 8
  store ptr %node, ptr %node.indirect_addr, align 8
  store i32 %size, ptr %size.addr, align 4
  store ptr %lemmas, ptr %lemmas.addr, align 8
  %this1 = load ptr, ptr %this.addr, align 8
  call void @_ZN4cvc58internal12NodeTemplateILb1EEC2ERKS2_(ptr noundef nonnull align 8 dereferenceable(8) %agg.tmp, ptr noundef nonnull align 8 dereferenceable(8) %node)
  %0 = load i32, ptr %size.addr, align 4
  invoke void @_ZN4cvc58internal10IntBlaster17mkRangeConstraintENS0_12NodeTemplateILb1EEEj(ptr sret(%"class.cvc5::internal::NodeTemplate") align 8 %rangeConstraint, ptr noundef nonnull align 8 dereferenceable(468) %this1, ptr noundef %agg.tmp, i32 noundef %0)
          to label %invoke.cont unwind label %lpad

invoke.cont:                                      ; preds = %entry
  call void @_ZN4cvc58internal12NodeTemplateILb1EED2Ev(ptr noundef nonnull align 8 dereferenceable(8) %agg.tmp) #3
  %call = invoke noundef zeroext i1 @_ZN4cvc58internal11__cvc5_truecvbEv(ptr noundef nonnull align 1 dereferenceable(1) %ref.tmp)
          to label %invoke.cont3 unwind label %lpad2

invoke.cont3:                                     ; preds = %invoke.cont
  br i1 %call, label %cond.true, label %cond.false

cond.true:                                        ; preds = %invoke.cont3
  invoke void @_ZNK4cvc58internal5NullCcvNS0_11Cvc5ostreamEEv(ptr sret(%"class.cvc5::internal::Cvc5ostream") align 8 %tmp, ptr noundef nonnull align 1 dereferenceable(1) @_ZN4cvc58internal10nullStreamE)
          to label %invoke.cont4 unwind label %lpad2

invoke.cont4:                                     ; preds = %cond.true
  br label %cond.end

cond.false:                                       ; preds = %invoke.cont3
  invoke void @_ZNK4cvc58internal6TraceCclEv(ptr sret(%"class.cvc5::internal::Cvc5ostream") align 8 %ref.tmp5, ptr noundef nonnull align 8 dereferenceable(32) @_ZN4cvc58internal12TraceChannelE)
          to label %invoke.cont6 unwind label %lpad2

invoke.cont6:                                     ; preds = %cond.false
  %call8 = invoke noundef nonnull align 8 dereferenceable(24) ptr @_ZN4cvc58internal11Cvc5ostreamlsIA28_cEERS1_RKT_(ptr noundef nonnull align 8 dereferenceable(24) %ref.tmp5, ptr noundef nonnull align 1 dereferenceable(28) @.str)
          to label %invoke.cont7 unwind label %lpad2

invoke.cont7:                                     ; preds = %invoke.cont6
  %call10 = invoke noundef nonnull align 8 dereferenceable(24) ptr @_ZN4cvc58internal11Cvc5ostreamlsINS0_12NodeTemplateILb1EEEEERS1_RKT_(ptr noundef nonnull align 8 dereferenceable(24) %call8, ptr noundef nonnull align 8 dereferenceable(8) %rangeConstraint)
          to label %invoke.cont9 unwind label %lpad2

invoke.cont9:                                     ; preds = %invoke.cont7
  %call12 = invoke noundef nonnull align 8 dereferenceable(24) ptr @_ZN4cvc58internal11Cvc5ostreamlsEPFRSoS2_E(ptr noundef nonnull align 8 dereferenceable(24) %call10, ptr noundef @_ZSt4endlIcSt11char_traitsIcEERSt13basic_ostreamIT_T0_ES6_)
          to label %invoke.cont11 unwind label %lpad2

invoke.cont11:                                    ; preds = %invoke.cont9
  call void @llvm.memcpy.p0.p0.i64(ptr align 8 %agg.tmp.ensured, ptr align 8 %call12, i64 24, i1 false)
  br label %cond.end

cond.end:                                         ; preds = %invoke.cont11, %invoke.cont4
  %d_rangeAssertions = getelementptr inbounds %"class.cvc5::internal::IntBlaster", ptr %this1, i32 0, i32 4
  invoke void @_ZNK4cvc57context9CDHashSetINS_8internal12NodeTemplateILb1EEESt4hashIS4_EE4findERKS4_(ptr sret(%"class.cvc5::context::CDHashSet<cvc5::internal::NodeTemplate<true>>::const_iterator") align 8 %ref.tmp13, ptr noundef nonnull align 8 dereferenceable(56) %d_rangeAssertions, ptr noundef nonnull align 8 dereferenceable(8) %rangeConstraint)
          to label %invoke.cont14 unwind label %lpad2

invoke.cont14:                                    ; preds = %cond.end
  %d_rangeAssertions16 = getelementptr inbounds %"class.cvc5::internal::IntBlaster", ptr %this1, i32 0, i32 4
  invoke void @_ZNK4cvc57context9CDHashSetINS_8internal12NodeTemplateILb1EEESt4hashIS4_EE3endEv(ptr sret(%"class.cvc5::context::CDHashSet<cvc5::internal::NodeTemplate<true>>::const_iterator") align 8 %ref.tmp15, ptr noundef nonnull align 8 dereferenceable(56) %d_rangeAssertions16)
          to label %invoke.cont17 unwind label %lpad2

invoke.cont17:                                    ; preds = %invoke.cont14
  %call19 = invoke noundef zeroext i1 @_ZNK4cvc57context9CDHashSetINS_8internal12NodeTemplateILb1EEESt4hashIS4_EE14const_iteratoreqERKS8_(ptr noundef nonnull align 8 dereferenceable(8) %ref.tmp13, ptr noundef nonnull align 8 dereferenceable(8) %ref.tmp15)
          to label %invoke.cont18 unwind label %lpad2

invoke.cont18:                                    ; preds = %invoke.cont17
  br i1 %call19, label %if.then, label %if.end

if.then:                                          ; preds = %invoke.cont18
  %call22 = invoke noundef zeroext i1 @_ZN4cvc58internal11__cvc5_truecvbEv(ptr noundef nonnull align 1 dereferenceable(1) %ref.tmp20)
          to label %invoke.cont21 unwind label %lpad2

invoke.cont21:                                    ; preds = %if.then
  br i1 %call22, label %cond.true23, label %cond.false26

cond.true23:                                      ; preds = %invoke.cont21
  invoke void @_ZNK4cvc58internal5NullCcvNS0_11Cvc5ostreamEEv(ptr sret(%"class.cvc5::internal::Cvc5ostream") align 8 %tmp24, ptr noundef nonnull align 1 dereferenceable(1) @_ZN4cvc58internal10nullStreamE)
          to label %invoke.cont25 unwind label %lpad2

invoke.cont25:                                    ; preds = %cond.true23
  br label %cond.end34

cond.false26:                                     ; preds = %invoke.cont21
  invoke void @_ZNK4cvc58internal6TraceCclEv(ptr sret(%"class.cvc5::internal::Cvc5ostream") align 8 %ref.tmp28, ptr noundef nonnull align 8 dereferenceable(32) @_ZN4cvc58internal12TraceChannelE)
          to label %invoke.cont29 unwind label %lpad2

invoke.cont29:                                    ; preds = %cond.false26
  %call31 = invoke noundef nonnull align 8 dereferenceable(24) ptr @_ZN4cvc58internal11Cvc5ostreamlsIA44_cEERS1_RKT_(ptr noundef nonnull align 8 dereferenceable(24) %ref.tmp28, ptr noundef nonnull align 1 dereferenceable(44) @.str.1)
          to label %invoke.cont30 unwind label %lpad2

invoke.cont30:                                    ; preds = %invoke.cont29
  %call33 = invoke noundef nonnull align 8 dereferenceable(24) ptr @_ZN4cvc58internal11Cvc5ostreamlsEPFRSoS2_E(ptr noundef nonnull align 8 dereferenceable(24) %call31, ptr noundef @_ZSt4endlIcSt11char_traitsIcEERSt13basic_ostreamIT_T0_ES6_)
          to label %invoke.cont32 unwind label %lpad2

invoke.cont32:                                    ; preds = %invoke.cont30
  call void @llvm.memcpy.p0.p0.i64(ptr align 8 %agg.tmp.ensured27, ptr align 8 %call33, i64 24, i1 false)
  br label %cond.end34

cond.end34:                                       ; preds = %invoke.cont32, %invoke.cont25
  %d_rangeAssertions35 = getelementptr inbounds %"class.cvc5::internal::IntBlaster", ptr %this1, i32 0, i32 4
  %call37 = invoke noundef zeroext i1 @_ZN4cvc57context9CDHashSetINS_8internal12NodeTemplateILb1EEESt4hashIS4_EE6insertERKS4_(ptr noundef nonnull align 8 dereferenceable(56) %d_rangeAssertions35, ptr noundef nonnull align 8 dereferenceable(8) %rangeConstraint)
          to label %invoke.cont36 unwind label %lpad2

invoke.cont36:                                    ; preds = %cond.end34
  %1 = load ptr, ptr %lemmas.addr, align 8
  invoke void @_ZNSt6vectorIN4cvc58internal12NodeTemplateILb1EEESaIS3_EE9push_backERKS3_(ptr noundef nonnull align 8 dereferenceable(24) %1, ptr noundef nonnull align 8 dereferenceable(8) %rangeConstraint)
          to label %invoke.cont38 unwind label %lpad2

invoke.cont38:                                    ; preds = %invoke.cont36
  br label %if.end

lpad:                                             ; preds = %entry
  %2 = landingpad { ptr, i32 }
          cleanup
  %3 = extractvalue { ptr, i32 } %2, 0
  store ptr %3, ptr %exn.slot, align 8
  %4 = extractvalue { ptr, i32 } %2, 1
  store i32 %4, ptr %ehselector.slot, align 4
  call void @_ZN4cvc58internal12NodeTemplateILb1EED2Ev(ptr noundef nonnull align 8 dereferenceable(8) %agg.tmp) #3
  br label %eh.resume

lpad2:                                            ; preds = %invoke.cont36, %cond.end34, %invoke.cont30, %invoke.cont29, %cond.false26, %cond.true23, %if.then, %invoke.cont17, %invoke.cont14, %cond.end, %invoke.cont9, %invoke.cont7, %invoke.cont6, %cond.false, %cond.true, %invoke.cont
  %5 = landingpad { ptr, i32 }
          cleanup
  %6 = extractvalue { ptr, i32 } %5, 0
  store ptr %6, ptr %exn.slot, align 8
  %7 = extractvalue { ptr, i32 } %5, 1
  store i32 %7, ptr %ehselector.slot, align 4
  call void @_ZN4cvc58internal12NodeTemplateILb1EED2Ev(ptr noundef nonnull align 8 dereferenceable(8) %rangeConstraint) #3
  br label %eh.resume

if.end:                                           ; preds = %invoke.cont38, %invoke.cont18
  call void @_ZN4cvc58internal12NodeTemplateILb1EED2Ev(ptr noundef nonnull align 8 dereferenceable(8) %rangeConstraint) #3
  ret void

eh.resume:                                        ; preds = %lpad2, %lpad
  %exn = load ptr, ptr %exn.slot, align 8
  %sel = load i32, ptr %ehselector.slot, align 4
  %lpad.val = insertvalue { ptr, i32 } poison, ptr %exn, 0
  %lpad.val39 = insertvalue { ptr, i32 } %lpad.val, i32 %sel, 1
  resume { ptr, i32 } %lpad.val39
}

; Function Attrs: mustprogress uwtable
define hidden void @_ZN4cvc58internal10IntBlaster17mkRangeConstraintENS0_12NodeTemplateILb1EEEj(ptr noalias sret(%"class.cvc5::internal::NodeTemplate") align 8 %agg.result, ptr noundef nonnull align 8 dereferenceable(468) %this, ptr noundef %newVar, i32 noundef %k) #4 align 2 personality ptr @__gxx_personality_v0 {
entry:
  %result.ptr = alloca ptr, align 8
  %this.addr = alloca ptr, align 8
  %newVar.indirect_addr = alloca ptr, align 8
  %k.addr = alloca i32, align 4
  %lower = alloca %"class.cvc5::internal::NodeTemplate", align 8
  %agg.tmp = alloca %"class.cvc5::internal::NodeTemplate.99", align 8
  %agg.tmp2 = alloca %"class.cvc5::internal::NodeTemplate.99", align 8
  %exn.slot = alloca ptr, align 8
  %ehselector.slot = alloca i32, align 4
  %upper = alloca %"class.cvc5::internal::NodeTemplate", align 8
  %agg.tmp6 = alloca %"class.cvc5::internal::NodeTemplate.99", align 8
  %agg.tmp9 = alloca %"class.cvc5::internal::NodeTemplate.99", align 8
  %ref.tmp = alloca %"class.cvc5::internal::NodeTemplate", align 8
  %result = alloca %"class.cvc5::internal::NodeTemplate", align 8
  %agg.tmp20 = alloca %"class.cvc5::internal::NodeTemplate.99", align 8
  %agg.tmp23 = alloca %"class.cvc5::internal::NodeTemplate.99", align 8
  %agg.tmp30 = alloca %"class.cvc5::internal::NodeTemplate.99", align 8
  store ptr %agg.result, ptr %result.ptr, align 8
  store ptr %this, ptr %this.addr, align 8
  store ptr %newVar, ptr %newVar.indirect_addr, align 8
  store i32 %k, ptr %k.addr, align 4
  %this1 = load ptr, ptr %this.addr, align 8
  %d_nm = getelementptr inbounds %"class.cvc5::internal::IntBlaster", ptr %this1, i32 0, i32 3
  %0 = load ptr, ptr %d_nm, align 8
  %d_zero = getelementptr inbounds %"class.cvc5::internal::IntBlaster", ptr %this1, i32 0, i32 6
  call void @_ZN4cvc58internal12NodeTemplateILb0EEC2ERKNS1_ILb1EEE(ptr noundef nonnull align 8 dereferenceable(8) %agg.tmp, ptr noundef nonnull align 8 dereferenceable(8) %d_zero)
  invoke void @_ZN4cvc58internal12NodeTemplateILb0EEC2ERKNS1_ILb1EEE(ptr noundef nonnull align 8 dereferenceable(8) %agg.tmp2, ptr noundef nonnull align 8 dereferenceable(8) %newVar)
          to label %invoke.cont unwind label %lpad

invoke.cont:                                      ; preds = %entry
  invoke void @_ZN4cvc58internal11NodeManager6mkNodeENS0_4kind6Kind_tENS0_12NodeTemplateILb0EEES5_(ptr sret(%"class.cvc5::internal::NodeTemplate") align 8 %lower, ptr noundef nonnull align 8 dereferenceable(3360) %0, i32 noundef 71, ptr noundef %agg.tmp, ptr noundef %agg.tmp2)
          to label %invoke.cont4 unwind label %lpad3

invoke.cont4:                                     ; preds = %invoke.cont
  call void @_ZN4cvc58internal12NodeTemplateILb0EED2Ev(ptr noundef nonnull align 8 dereferenceable(8) %agg.tmp2) #3
  call void @_ZN4cvc58internal12NodeTemplateILb0EED2Ev(ptr noundef nonnull align 8 dereferenceable(8) %agg.tmp) #3
  %d_nm5 = getelementptr inbounds %"class.cvc5::internal::IntBlaster", ptr %this1, i32 0, i32 3
  %1 = load ptr, ptr %d_nm5, align 8
  invoke void @_ZN4cvc58internal12NodeTemplateILb0EEC2ERKNS1_ILb1EEE(ptr noundef nonnull align 8 dereferenceable(8) %agg.tmp6, ptr noundef nonnull align 8 dereferenceable(8) %newVar)
          to label %invoke.cont8 unwind label %lpad7

invoke.cont8:                                     ; preds = %invoke.cont4
  %2 = load i32, ptr %k.addr, align 4
  invoke void @_ZN4cvc58internal10IntBlaster4pow2Ej(ptr sret(%"class.cvc5::internal::NodeTemplate") align 8 %ref.tmp, ptr noundef nonnull align 8 dereferenceable(468) %this1, i32 noundef %2)
          to label %invoke.cont11 unwind label %lpad10

invoke.cont11:                                    ; preds = %invoke.cont8
  invoke void @_ZN4cvc58internal12NodeTemplateILb0EEC2ERKNS1_ILb1EEE(ptr noundef nonnull align 8 dereferenceable(8) %agg.tmp9, ptr noundef nonnull align 8 dereferenceable(8) %ref.tmp)
          to label %invoke.cont13 unwind label %lpad12

invoke.cont13:                                    ; preds = %invoke.cont11
  invoke void @_ZN4cvc58internal11NodeManager6mkNodeENS0_4kind6Kind_tENS0_12NodeTemplateILb0EEES5_(ptr sret(%"class.cvc5::internal::NodeTemplate") align 8 %upper, ptr noundef nonnull align 8 dereferenceable(3360) %1, i32 noundef 70, ptr noundef %agg.tmp6, ptr noundef %agg.tmp9)
          to label %invoke.cont15 unwind label %lpad14

invoke.cont15:                                    ; preds = %invoke.cont13
  call void @_ZN4cvc58internal12NodeTemplateILb0EED2Ev(ptr noundef nonnull align 8 dereferenceable(8) %agg.tmp9) #3
  call void @_ZN4cvc58internal12NodeTemplateILb1EED2Ev(ptr noundef nonnull align 8 dereferenceable(8) %ref.tmp) #3
  call void @_ZN4cvc58internal12NodeTemplateILb0EED2Ev(ptr noundef nonnull align 8 dereferenceable(8) %agg.tmp6) #3
  %d_nm19 = getelementptr inbounds %"class.cvc5::internal::IntBlaster", ptr %this1, i32 0, i32 3
  %3 = load ptr, ptr %d_nm19, align 8
  invoke void @_ZN4cvc58internal12NodeTemplateILb0EEC2ERKNS1_ILb1EEE(ptr noundef nonnull align 8 dereferenceable(8) %agg.tmp20, ptr noundef nonnull align 8 dereferenceable(8) %lower)
          to label %invoke.cont22 unwind label %lpad21

invoke.cont22:                                    ; preds = %invoke.cont15
  invoke void @_ZN4cvc58internal12NodeTemplateILb0EEC2ERKNS1_ILb1EEE(ptr noundef nonnull align 8 dereferenceable(8) %agg.tmp23, ptr noundef nonnull align 8 dereferenceable(8) %upper)
          to label %invoke.cont25 unwind label %lpad24

invoke.cont25:                                    ; preds = %invoke.cont22
  invoke void @_ZN4cvc58internal11NodeManager6mkNodeENS0_4kind6Kind_tENS0_12NodeTemplateILb0EEES5_(ptr sret(%"class.cvc5::internal::NodeTemplate") align 8 %result, ptr noundef nonnull align 8 dereferenceable(3360) %3, i32 noundef 19, ptr noundef %agg.tmp20, ptr noundef %agg.tmp23)
          to label %invoke.cont27 unwind label %lpad26

invoke.cont27:                                    ; preds = %invoke.cont25
  call void @_ZN4cvc58internal12NodeTemplateILb0EED2Ev(ptr noundef nonnull align 8 dereferenceable(8) %agg.tmp23) #3
  call void @_ZN4cvc58internal12NodeTemplateILb0EED2Ev(ptr noundef nonnull align 8 dereferenceable(8) %agg.tmp20) #3
  invoke void @_ZN4cvc58internal12NodeTemplateILb0EEC2ERKNS1_ILb1EEE(ptr noundef nonnull align 8 dereferenceable(8) %agg.tmp30, ptr noundef nonnull align 8 dereferenceable(8) %result)
          to label %invoke.cont32 unwind label %lpad31

invoke.cont32:                                    ; preds = %invoke.cont27
  invoke void @_ZNK4cvc58internal6EnvObj7rewriteENS0_12NodeTemplateILb0EEE(ptr sret(%"class.cvc5::internal::NodeTemplate") align 8 %agg.result, ptr noundef nonnull align 8 dereferenceable(16) %this1, ptr noundef %agg.tmp30)
          to label %invoke.cont34 unwind label %lpad33

invoke.cont34:                                    ; preds = %invoke.cont32
  call void @_ZN4cvc58internal12NodeTemplateILb0EED2Ev(ptr noundef nonnull align 8 dereferenceable(8) %agg.tmp30) #3
  call void @_ZN4cvc58internal12NodeTemplateILb1EED2Ev(ptr noundef nonnull align 8 dereferenceable(8) %result) #3
  call void @_ZN4cvc58internal12NodeTemplateILb1EED2Ev(ptr noundef nonnull align 8 dereferenceable(8) %upper) #3
  call void @_ZN4cvc58internal12NodeTemplateILb1EED2Ev(ptr noundef nonnull align 8 dereferenceable(8) %lower) #3
  ret void

lpad:                                             ; preds = %entry
  %4 = landingpad { ptr, i32 }
          cleanup
  %5 = extractvalue { ptr, i32 } %4, 0
  store ptr %5, ptr %exn.slot, align 8
  %6 = extractvalue { ptr, i32 } %4, 1
  store i32 %6, ptr %ehselector.slot, align 4
  br label %ehcleanup

lpad3:                                            ; preds = %invoke.cont
  %7 = landingpad { ptr, i32 }
          cleanup
  %8 = extractvalue { ptr, i32 } %7, 0
  store ptr %8, ptr %exn.slot, align 8
  %9 = extractvalue { ptr, i32 } %7, 1
  store i32 %9, ptr %ehselector.slot, align 4
  call void @_ZN4cvc58internal12NodeTemplateILb0EED2Ev(ptr noundef nonnull align 8 dereferenceable(8) %agg.tmp2) #3
  br label %ehcleanup

ehcleanup:                                        ; preds = %lpad3, %lpad
  call void @_ZN4cvc58internal12NodeTemplateILb0EED2Ev(ptr noundef nonnull align 8 dereferenceable(8) %agg.tmp) #3
  br label %eh.resume

lpad7:                                            ; preds = %invoke.cont4
  %10 = landingpad { ptr, i32 }
          cleanup
  %11 = extractvalue { ptr, i32 } %10, 0
  store ptr %11, ptr %exn.slot, align 8
  %12 = extractvalue { ptr, i32 } %10, 1
  store i32 %12, ptr %ehselector.slot, align 4
  br label %ehcleanup38

lpad10:                                           ; preds = %invoke.cont8
  %13 = landingpad { ptr, i32 }
          cleanup
  %14 = extractvalue { ptr, i32 } %13, 0
  store ptr %14, ptr %exn.slot, align 8
  %15 = extractvalue { ptr, i32 } %13, 1
  store i32 %15, ptr %ehselector.slot, align 4
  br label %ehcleanup18

lpad12:                                           ; preds = %invoke.cont11
  %16 = landingpad { ptr, i32 }
          cleanup
  %17 = extractvalue { ptr, i32 } %16, 0
  store ptr %17, ptr %exn.slot, align 8
  %18 = extractvalue { ptr, i32 } %16, 1
  store i32 %18, ptr %ehselector.slot, align 4
  br label %ehcleanup17

lpad14:                                           ; preds = %invoke.cont13
  %19 = landingpad { ptr, i32 }
          cleanup
  %20 = extractvalue { ptr, i32 } %19, 0
  store ptr %20, ptr %exn.slot, align 8
  %21 = extractvalue { ptr, i32 } %19, 1
  store i32 %21, ptr %ehselector.slot, align 4
  call void @_ZN4cvc58internal12NodeTemplateILb0EED2Ev(ptr noundef nonnull align 8 dereferenceable(8) %agg.tmp9) #3
  br label %ehcleanup17

ehcleanup17:                                      ; preds = %lpad14, %lpad12
  call void @_ZN4cvc58internal12NodeTemplateILb1EED2Ev(ptr noundef nonnull align 8 dereferenceable(8) %ref.tmp) #3
  br label %ehcleanup18

ehcleanup18:                                      ; preds = %ehcleanup17, %lpad10
  call void @_ZN4cvc58internal12NodeTemplateILb0EED2Ev(ptr noundef nonnull align 8 dereferenceable(8) %agg.tmp6) #3
  br label %ehcleanup38

lpad21:                                           ; preds = %invoke.cont15
  %22 = landingpad { ptr, i32 }
          cleanup
  %23 = extractvalue { ptr, i32 } %22, 0
  store ptr %23, ptr %exn.slot, align 8
  %24 = extractvalue { ptr, i32 } %22, 1
  store i32 %24, ptr %ehselector.slot, align 4
  br label %ehcleanup37

lpad24:                                           ; preds = %invoke.cont22
  %25 = landingpad { ptr, i32 }
          cleanup
  %26 = extractvalue { ptr, i32 } %25, 0
  store ptr %26, ptr %exn.slot, align 8
  %27 = extractvalue { ptr, i32 } %25, 1
  store i32 %27, ptr %ehselector.slot, align 4
  br label %ehcleanup29

lpad26:                                           ; preds = %invoke.cont25
  %28 = landingpad { ptr, i32 }
          cleanup
  %29 = extractvalue { ptr, i32 } %28, 0
  store ptr %29, ptr %exn.slot, align 8
  %30 = extractvalue { ptr, i32 } %28, 1
  store i32 %30, ptr %ehselector.slot, align 4
  call void @_ZN4cvc58internal12NodeTemplateILb0EED2Ev(ptr noundef nonnull align 8 dereferenceable(8) %agg.tmp23) #3
  br label %ehcleanup29

ehcleanup29:                                      ; preds = %lpad26, %lpad24
  call void @_ZN4cvc58internal12NodeTemplateILb0EED2Ev(ptr noundef nonnull align 8 dereferenceable(8) %agg.tmp20) #3
  br label %ehcleanup37

lpad31:                                           ; preds = %invoke.cont27
  %31 = landingpad { ptr, i32 }
          cleanup
  %32 = extractvalue { ptr, i32 } %31, 0
  store ptr %32, ptr %exn.slot, align 8
  %33 = extractvalue { ptr, i32 } %31, 1
  store i32 %33, ptr %ehselector.slot, align 4
  br label %ehcleanup36

lpad33:                                           ; preds = %invoke.cont32
  %34 = landingpad { ptr, i32 }
          cleanup
  %35 = extractvalue { ptr, i32 } %34, 0
  store ptr %35, ptr %exn.slot, align 8
  %36 = extractvalue { ptr, i32 } %34, 1
  store i32 %36, ptr %ehselector.slot, align 4
  call void @_ZN4cvc58internal12NodeTemplateILb0EED2Ev(ptr noundef nonnull align 8 dereferenceable(8) %agg.tmp30) #3
  br label %ehcleanup36

ehcleanup36:                                      ; preds = %lpad33, %lpad31
  call void @_ZN4cvc58internal12NodeTemplateILb1EED2Ev(ptr noundef nonnull align 8 dereferenceable(8) %result) #3
  br label %ehcleanup37

ehcleanup37:                                      ; preds = %ehcleanup36, %ehcleanup29, %lpad21
  call void @_ZN4cvc58internal12NodeTemplateILb1EED2Ev(ptr noundef nonnull align 8 dereferenceable(8) %upper) #3
  br label %ehcleanup38

ehcleanup38:                                      ; preds = %ehcleanup37, %ehcleanup18, %lpad7
  call void @_ZN4cvc58internal12NodeTemplateILb1EED2Ev(ptr noundef nonnull align 8 dereferenceable(8) %lower) #3
  br label %eh.resume

eh.resume:                                        ; preds = %ehcleanup38, %ehcleanup
  %exn = load ptr, ptr %exn.slot, align 8
  %sel = load i32, ptr %ehselector.slot, align 4
  %lpad.val = insertvalue { ptr, i32 } poison, ptr %exn, 0
  %lpad.val39 = insertvalue { ptr, i32 } %lpad.val, i32 %sel, 1
  resume { ptr, i32 } %lpad.val39
}

; Function Attrs: mustprogress uwtable
define linkonce_odr hidden void @_ZN4cvc58internal12NodeTemplateILb1EEC2ERKS2_(ptr noundef nonnull align 8 dereferenceable(8) %this, ptr noundef nonnull align 8 dereferenceable(8) %e) unnamed_addr #4 comdat align 2 {
entry:
  %this.addr = alloca ptr, align 8
  %e.addr = alloca ptr, align 8
  store ptr %this, ptr %this.addr, align 8
  store ptr %e, ptr %e.addr, align 8
  %this1 = load ptr, ptr %this.addr, align 8
  %0 = load ptr, ptr %e.addr, align 8
  %d_nv = getelementptr inbounds %"class.cvc5::internal::NodeTemplate", ptr %0, i32 0, i32 0
  %1 = load ptr, ptr %d_nv, align 8
  %d_nv2 = getelementptr inbounds %"class.cvc5::internal::NodeTemplate", ptr %this1, i32 0, i32 0
  store ptr %1, ptr %d_nv2, align 8
  %d_nv3 = getelementptr inbounds %"class.cvc5::internal::NodeTemplate", ptr %this1, i32 0, i32 0
  %2 = load ptr, ptr %d_nv3, align 8
  call void @_ZN4cvc58internal4expr9NodeValue3incEv(ptr noundef nonnull align 8 dereferenceable(16) %2)
  ret void
}

; Function Attrs: mustprogress nounwind uwtable
define linkonce_odr hidden noundef zeroext i1 @_ZN4cvc58internal11__cvc5_truecvbEv(ptr noundef nonnull align 1 dereferenceable(1) %this) #5 comdat align 2 {
entry:
  %this.addr = alloca ptr, align 8
  store ptr %this, ptr %this.addr, align 8
  ret i1 true
}

; Function Attrs: mustprogress uwtable
define linkonce_odr hidden void @_ZNK4cvc58internal5NullCcvNS0_11Cvc5ostreamEEv(ptr noalias sret(%"class.cvc5::internal::Cvc5ostream") align 8 %agg.result, ptr noundef nonnull align 1 dereferenceable(1) %this) #4 comdat align 2 {
entry:
  %this.addr = alloca ptr, align 8
  store ptr %this, ptr %this.addr, align 8
  call void @_ZN4cvc58internal11Cvc5ostreamC2Ev(ptr noundef nonnull align 8 dereferenceable(24) %agg.result)
  ret void
}

; Function Attrs: mustprogress uwtable
define linkonce_odr hidden void @_ZNK4cvc58internal6TraceCclEv(ptr noalias sret(%"class.cvc5::internal::Cvc5ostream") align 8 %agg.result, ptr noundef nonnull align 8 dereferenceable(32) %this) #4 comdat align 2 {
entry:
  %this.addr = alloca ptr, align 8
  store ptr %this, ptr %this.addr, align 8
  %this1 = load ptr, ptr %this.addr, align 8
  %d_os = getelementptr inbounds %"class.cvc5::internal::TraceC", ptr %this1, i32 0, i32 0
  %0 = load ptr, ptr %d_os, align 8
  call void @_ZN4cvc58internal11Cvc5ostreamC2EPSo(ptr noundef nonnull align 8 dereferenceable(24) %agg.result, ptr noundef %0)
  ret void
}

; Function Attrs: mustprogress uwtable
define linkonce_odr hidden noundef nonnull align 8 dereferenceable(24) ptr @_ZN4cvc58internal11Cvc5ostreamlsIA28_cEERS1_RKT_(ptr noundef nonnull align 8 dereferenceable(24) %this, ptr noundef nonnull align 1 dereferenceable(28) %t) #4 comdat align 2 {
entry:
  %this.addr = alloca ptr, align 8
  %t.addr = alloca ptr, align 8
  %indent = alloca i64, align 8
  %i = alloca i64, align 8
  store ptr %this, ptr %this.addr, align 8
  store ptr %t, ptr %t.addr, align 8
  %this1 = load ptr, ptr %this.addr, align 8
  %d_os = getelementptr inbounds %"class.cvc5::internal::Cvc5ostream", ptr %this1, i32 0, i32 0
  %0 = load ptr, ptr %d_os, align 8
  %cmp = icmp ne ptr %0, null
  br i1 %cmp, label %if.then, label %if.end11

if.then:                                          ; preds = %entry
  %d_firstColumn = getelementptr inbounds %"class.cvc5::internal::Cvc5ostream", ptr %this1, i32 0, i32 1
  %1 = load i8, ptr %d_firstColumn, align 8
  %tobool = trunc i8 %1 to i1
  br i1 %tobool, label %if.then2, label %if.end

if.then2:                                         ; preds = %if.then
  %d_firstColumn3 = getelementptr inbounds %"class.cvc5::internal::Cvc5ostream", ptr %this1, i32 0, i32 1
  store i8 0, ptr %d_firstColumn3, align 8
  %d_os4 = getelementptr inbounds %"class.cvc5::internal::Cvc5ostream", ptr %this1, i32 0, i32 0
  %2 = load ptr, ptr %d_os4, align 8
  %vtable = load ptr, ptr %2, align 8
  %vbase.offset.ptr = getelementptr i8, ptr %vtable, i64 -24
  %vbase.offset = load i64, ptr %vbase.offset.ptr, align 8
  %add.ptr = getelementptr inbounds i8, ptr %2, i64 %vbase.offset
  %3 = load i32, ptr @_ZN4cvc58internal11Cvc5ostream16s_indentIosIndexE, align 4
  %call = call noundef nonnull align 8 dereferenceable(8) ptr @_ZNSt8ios_base5iwordEi(ptr noundef nonnull align 8 dereferenceable(216) %add.ptr, i32 noundef %3)
  %4 = load i64, ptr %call, align 8
  store i64 %4, ptr %indent, align 8
  store i64 0, ptr %i, align 8
  br label %for.cond

for.cond:                                         ; preds = %for.inc, %if.then2
  %5 = load i64, ptr %i, align 8
  %6 = load i64, ptr %indent, align 8
  %cmp5 = icmp slt i64 %5, %6
  br i1 %cmp5, label %for.body, label %for.end

for.body:                                         ; preds = %for.cond
  %d_os6 = getelementptr inbounds %"class.cvc5::internal::Cvc5ostream", ptr %this1, i32 0, i32 0
  %7 = load ptr, ptr %d_os6, align 8
  %call7 = call noundef nonnull align 8 dereferenceable(8) ptr @_ZStlsIcSt11char_traitsIcESaIcEERSt13basic_ostreamIT_T0_ES7_RKNSt7__cxx1112basic_stringIS4_S5_T1_EE(ptr noundef nonnull align 8 dereferenceable(8) %7, ptr noundef nonnull align 8 dereferenceable(32) @_ZN4cvc58internal11Cvc5ostream5s_tabB5cxx11E)
  %d_os8 = getelementptr inbounds %"class.cvc5::internal::Cvc5ostream", ptr %this1, i32 0, i32 0
  store ptr %call7, ptr %d_os8, align 8
  br label %for.inc

for.inc:                                          ; preds = %for.body
  %8 = load i64, ptr %i, align 8
  %inc = add nsw i64 %8, 1
  store i64 %inc, ptr %i, align 8
  br label %for.cond, !llvm.loop !4

for.end:                                          ; preds = %for.cond
  br label %if.end

if.end:                                           ; preds = %for.end, %if.then
  %d_os9 = getelementptr inbounds %"class.cvc5::internal::Cvc5ostream", ptr %this1, i32 0, i32 0
  %9 = load ptr, ptr %d_os9, align 8
  %10 = load ptr, ptr %t.addr, align 8
  %arraydecay = getelementptr inbounds [28 x i8], ptr %10, i64 0, i64 0
  %call10 = call noundef nonnull align 8 dereferenceable(8) ptr @_ZStlsISt11char_traitsIcEERSt13basic_ostreamIcT_ES5_PKc(ptr noundef nonnull align 8 dereferenceable(8) %9, ptr noundef %arraydecay)
  br label %if.end11

if.end11:                                         ; preds = %if.end, %entry
  ret ptr %this1
}

; Function Attrs: mustprogress uwtable
define linkonce_odr hidden noundef nonnull align 8 dereferenceable(24) ptr @_ZN4cvc58internal11Cvc5ostreamlsINS0_12NodeTemplateILb1EEEEERS1_RKT_(ptr noundef nonnull align 8 dereferenceable(24) %this, ptr noundef nonnull align 8 dereferenceable(8) %t) #4 comdat align 2 personality ptr @__gxx_personality_v0 {
entry:
  %this.addr = alloca ptr, align 8
  %t.addr = alloca ptr, align 8
  %indent = alloca i64, align 8
  %i = alloca i64, align 8
  %agg.tmp = alloca %"class.cvc5::internal::NodeTemplate.99", align 8
  %exn.slot = alloca ptr, align 8
  %ehselector.slot = alloca i32, align 4
  store ptr %this, ptr %this.addr, align 8
  store ptr %t, ptr %t.addr, align 8
  %this1 = load ptr, ptr %this.addr, align 8
  %d_os = getelementptr inbounds %"class.cvc5::internal::Cvc5ostream", ptr %this1, i32 0, i32 0
  %0 = load ptr, ptr %d_os, align 8
  %cmp = icmp ne ptr %0, null
  br i1 %cmp, label %if.then, label %if.end11

if.then:                                          ; preds = %entry
  %d_firstColumn = getelementptr inbounds %"class.cvc5::internal::Cvc5ostream", ptr %this1, i32 0, i32 1
  %1 = load i8, ptr %d_firstColumn, align 8
  %tobool = trunc i8 %1 to i1
  br i1 %tobool, label %if.then2, label %if.end

if.then2:                                         ; preds = %if.then
  %d_firstColumn3 = getelementptr inbounds %"class.cvc5::internal::Cvc5ostream", ptr %this1, i32 0, i32 1
  store i8 0, ptr %d_firstColumn3, align 8
  %d_os4 = getelementptr inbounds %"class.cvc5::internal::Cvc5ostream", ptr %this1, i32 0, i32 0
  %2 = load ptr, ptr %d_os4, align 8
  %vtable = load ptr, ptr %2, align 8
  %vbase.offset.ptr = getelementptr i8, ptr %vtable, i64 -24
  %vbase.offset = load i64, ptr %vbase.offset.ptr, align 8
  %add.ptr = getelementptr inbounds i8, ptr %2, i64 %vbase.offset
  %3 = load i32, ptr @_ZN4cvc58internal11Cvc5ostream16s_indentIosIndexE, align 4
  %call = call noundef nonnull align 8 dereferenceable(8) ptr @_ZNSt8ios_base5iwordEi(ptr noundef nonnull align 8 dereferenceable(216) %add.ptr, i32 noundef %3)
  %4 = load i64, ptr %call, align 8
  store i64 %4, ptr %indent, align 8
  store i64 0, ptr %i, align 8
  br label %for.cond

for.cond:                                         ; preds = %for.inc, %if.then2
  %5 = load i64, ptr %i, align 8
  %6 = load i64, ptr %indent, align 8
  %cmp5 = icmp slt i64 %5, %6
  br i1 %cmp5, label %for.body, label %for.end

for.body:                                         ; preds = %for.cond
  %d_os6 = getelementptr inbounds %"class.cvc5::internal::Cvc5ostream", ptr %this1, i32 0, i32 0
  %7 = load ptr, ptr %d_os6, align 8
  %call7 = call noundef nonnull align 8 dereferenceable(8) ptr @_ZStlsIcSt11char_traitsIcESaIcEERSt13basic_ostreamIT_T0_ES7_RKNSt7__cxx1112basic_stringIS4_S5_T1_EE(ptr noundef nonnull align 8 dereferenceable(8) %7, ptr noundef nonnull align 8 dereferenceable(32) @_ZN4cvc58internal11Cvc5ostream5s_tabB5cxx11E)
  %d_os8 = getelementptr inbounds %"class.cvc5::internal::Cvc5ostream", ptr %this1, i32 0, i32 0
  store ptr %call7, ptr %d_os8, align 8
  br label %for.inc

for.inc:                                          ; preds = %for.body
  %8 = load i64, ptr %i, align 8
  %inc = add nsw i64 %8, 1
  store i64 %inc, ptr %i, align 8
  br label %for.cond, !llvm.loop !6

for.end:                                          ; preds = %for.cond
  br label %if.end

if.end:                                           ; preds = %for.end, %if.then
  %d_os9 = getelementptr inbounds %"class.cvc5::internal::Cvc5ostream", ptr %this1, i32 0, i32 0
  %9 = load ptr, ptr %d_os9, align 8
  %10 = load ptr, ptr %t.addr, align 8
  call void @_ZN4cvc58internal12NodeTemplateILb0EEC2ERKNS1_ILb1EEE(ptr noundef nonnull align 8 dereferenceable(8) %agg.tmp, ptr noundef nonnull align 8 dereferenceable(8) %10)
  %call10 = invoke noundef nonnull align 8 dereferenceable(8) ptr @_ZN4cvc58internallsERSoNS0_12NodeTemplateILb0EEE(ptr noundef nonnull align 8 dereferenceable(8) %9, ptr noundef %agg.tmp)
          to label %invoke.cont unwind label %lpad

invoke.cont:                                      ; preds = %if.end
  call void @_ZN4cvc58internal12NodeTemplateILb0EED2Ev(ptr noundef nonnull align 8 dereferenceable(8) %agg.tmp) #3
  br label %if.end11

lpad:                                             ; preds = %if.end
  %11 = landingpad { ptr, i32 }
          cleanup
  %12 = extractvalue { ptr, i32 } %11, 0
  store ptr %12, ptr %exn.slot, align 8
  %13 = extractvalue { ptr, i32 } %11, 1
  store i32 %13, ptr %ehselector.slot, align 4
  call void @_ZN4cvc58internal12NodeTemplateILb0EED2Ev(ptr noundef nonnull align 8 dereferenceable(8) %agg.tmp) #3
  br label %eh.resume

if.end11:                                         ; preds = %invoke.cont, %entry
  ret ptr %this1

eh.resume:                                        ; preds = %lpad
  %exn = load ptr, ptr %exn.slot, align 8
  %sel = load i32, ptr %ehselector.slot, align 4
  %lpad.val = insertvalue { ptr, i32 } poison, ptr %exn, 0
  %lpad.val12 = insertvalue { ptr, i32 } %lpad.val, i32 %sel, 1
  resume { ptr, i32 } %lpad.val12
}

; Function Attrs: mustprogress uwtable
define linkonce_odr hidden noundef nonnull align 8 dereferenceable(24) ptr @_ZN4cvc58internal11Cvc5ostreamlsEPFRSoS2_E(ptr noundef nonnull align 8 dereferenceable(24) %this, ptr noundef %pf) #4 comdat align 2 {
entry:
  %this.addr = alloca ptr, align 8
  %pf.addr = alloca ptr, align 8
  store ptr %this, ptr %this.addr, align 8
  store ptr %pf, ptr %pf.addr, align 8
  %this1 = load ptr, ptr %this.addr, align 8
  %d_os = getelementptr inbounds %"class.cvc5::internal::Cvc5ostream", ptr %this1, i32 0, i32 0
  %0 = load ptr, ptr %d_os, align 8
  %cmp = icmp ne ptr %0, null
  br i1 %cmp, label %if.then, label %if.end6

if.then:                                          ; preds = %entry
  %d_os2 = getelementptr inbounds %"class.cvc5::internal::Cvc5ostream", ptr %this1, i32 0, i32 0
  %1 = load ptr, ptr %d_os2, align 8
  %2 = load ptr, ptr %pf.addr, align 8
  %call = call noundef nonnull align 8 dereferenceable(8) ptr @_ZNSolsEPFRSoS_E(ptr noundef nonnull align 8 dereferenceable(8) %1, ptr noundef %2)
  %d_os3 = getelementptr inbounds %"class.cvc5::internal::Cvc5ostream", ptr %this1, i32 0, i32 0
  store ptr %call, ptr %d_os3, align 8
  %3 = load ptr, ptr %pf.addr, align 8
  %d_endl = getelementptr inbounds %"class.cvc5::internal::Cvc5ostream", ptr %this1, i32 0, i32 2
  %4 = load ptr, ptr %d_endl, align 8
  %cmp4 = icmp eq ptr %3, %4
  br i1 %cmp4, label %if.then5, label %if.end

if.then5:                                         ; preds = %if.then
  %d_firstColumn = getelementptr inbounds %"class.cvc5::internal::Cvc5ostream", ptr %this1, i32 0, i32 1
  store i8 1, ptr %d_firstColumn, align 8
  br label %if.end

if.end:                                           ; preds = %if.then5, %if.then
  br label %if.end6

if.end6:                                          ; preds = %if.end, %entry
  ret ptr %this1
}

declare noundef nonnull align 8 dereferenceable(8) ptr @_ZSt4endlIcSt11char_traitsIcEERSt13basic_ostreamIT_T0_ES6_(ptr noundef nonnull align 8 dereferenceable(8)) #1

; Function Attrs: nocallback nofree nounwind willreturn memory(argmem: readwrite)
declare void @llvm.memcpy.p0.p0.i64(ptr noalias nocapture writeonly, ptr noalias nocapture readonly, i64, i1 immarg) #7

; Function Attrs: mustprogress uwtable
define linkonce_odr hidden void @_ZNK4cvc57context9CDHashSetINS_8internal12NodeTemplateILb1EEESt4hashIS4_EE4findERKS4_(ptr noalias sret(%"class.cvc5::context::CDHashSet<cvc5::internal::NodeTemplate<true>>::const_iterator") align 8 %agg.result, ptr noundef nonnull align 8 dereferenceable(56) %this, ptr noundef nonnull align 8 dereferenceable(8) %v) #4 comdat align 2 {
entry:
  %result.ptr = alloca ptr, align 8
  %this.addr = alloca ptr, align 8
  %v.addr = alloca ptr, align 8
  %ref.tmp = alloca %"struct.std::__detail::_Node_const_iterator", align 8
  store ptr %agg.result, ptr %result.ptr, align 8
  store ptr %this, ptr %this.addr, align 8
  store ptr %v, ptr %v.addr, align 8
  %this1 = load ptr, ptr %this.addr, align 8
  %0 = load ptr, ptr %v.addr, align 8
  %call = call ptr @_ZNK4cvc57context15CDInsertHashMapINS_8internal12NodeTemplateILb1EEEbSt4hashIS4_EE4findERKS4_(ptr noundef nonnull align 8 dereferenceable(56) %this1, ptr noundef nonnull align 8 dereferenceable(8) %0)
  %coerce.dive = getelementptr inbounds %"struct.std::__detail::_Node_const_iterator", ptr %ref.tmp, i32 0, i32 0
  %coerce.dive2 = getelementptr inbounds %"struct.std::__detail::_Node_iterator_base", ptr %coerce.dive, i32 0, i32 0
  store ptr %call, ptr %coerce.dive2, align 8
  call void @_ZN4cvc57context9CDHashSetINS_8internal12NodeTemplateILb1EEESt4hashIS4_EE14const_iteratorC2ERKNSt8__detail20_Node_const_iteratorISt4pairIKS4_KbELb0ELb1EEE(ptr noundef nonnull align 8 dereferenceable(8) %agg.result, ptr noundef nonnull align 8 dereferenceable(8) %ref.tmp)
  ret void
}

; Function Attrs: mustprogress nounwind uwtable
define linkonce_odr hidden noundef zeroext i1 @_ZNK4cvc57context9CDHashSetINS_8internal12NodeTemplateILb1EEESt4hashIS4_EE14const_iteratoreqERKS8_(ptr noundef nonnull align 8 dereferenceable(8) %this, ptr noundef nonnull align 8 dereferenceable(8) %i) #5 comdat align 2 {
entry:
  %this.addr = alloca ptr, align 8
  %i.addr = alloca ptr, align 8
  store ptr %this, ptr %this.addr, align 8
  store ptr %i, ptr %i.addr, align 8
  %this1 = load ptr, ptr %this.addr, align 8
  %d_it = getelementptr inbounds %"class.cvc5::context::CDHashSet<cvc5::internal::NodeTemplate<true>>::const_iterator", ptr %this1, i32 0, i32 0
  %0 = load ptr, ptr %i.addr, align 8
  %d_it2 = getelementptr inbounds %"class.cvc5::context::CDHashSet<cvc5::internal::NodeTemplate<true>>::const_iterator", ptr %0, i32 0, i32 0
  %call = call noundef zeroext i1 @_ZNSt8__detaileqERKNS_19_Node_iterator_baseISt4pairIKN4cvc58internal12NodeTemplateILb1EEEKbELb1EEESB_(ptr noundef nonnull align 8 dereferenceable(8) %d_it, ptr noundef nonnull align 8 dereferenceable(8) %d_it2) #3
  ret i1 %call
}

; Function Attrs: mustprogress uwtable
define linkonce_odr hidden void @_ZNK4cvc57context9CDHashSetINS_8internal12NodeTemplateILb1EEESt4hashIS4_EE3endEv(ptr noalias sret(%"class.cvc5::context::CDHashSet<cvc5::internal::NodeTemplate<true>>::const_iterator") align 8 %agg.result, ptr noundef nonnull align 8 dereferenceable(56) %this) #4 comdat align 2 {
entry:
  %result.ptr = alloca ptr, align 8
  %this.addr = alloca ptr, align 8
  %ref.tmp = alloca %"struct.std::__detail::_Node_const_iterator", align 8
  store ptr %agg.result, ptr %result.ptr, align 8
  store ptr %this, ptr %this.addr, align 8
  %this1 = load ptr, ptr %this.addr, align 8
  %call = call ptr @_ZNK4cvc57context15CDInsertHashMapINS_8internal12NodeTemplateILb1EEEbSt4hashIS4_EE3endEv(ptr noundef nonnull align 8 dereferenceable(56) %this1)
  %coerce.dive = getelementptr inbounds %"struct.std::__detail::_Node_const_iterator", ptr %ref.tmp, i32 0, i32 0
  %coerce.dive2 = getelementptr inbounds %"struct.std::__detail::_Node_iterator_base", ptr %coerce.dive, i32 0, i32 0
  store ptr %call, ptr %coerce.dive2, align 8
  call void @_ZN4cvc57context9CDHashSetINS_8internal12NodeTemplateILb1EEESt4hashIS4_EE14const_iteratorC2ERKNSt8__detail20_Node_const_iteratorISt4pairIKS4_KbELb0ELb1EEE(ptr noundef nonnull align 8 dereferenceable(8) %agg.result, ptr noundef nonnull align 8 dereferenceable(8) %ref.tmp)
  ret void
}

; Function Attrs: mustprogress uwtable
define linkonce_odr hidden noundef nonnull align 8 dereferenceable(24) ptr @_ZN4cvc58internal11Cvc5ostreamlsIA44_cEERS1_RKT_(ptr noundef nonnull align 8 dereferenceable(24) %this, ptr noundef nonnull align 1 dereferenceable(44) %t) #4 comdat align 2 {
entry:
  %this.addr = alloca ptr, align 8
  %t.addr = alloca ptr, align 8
  %indent = alloca i64, align 8
  %i = alloca i64, align 8
  store ptr %this, ptr %this.addr, align 8
  store ptr %t, ptr %t.addr, align 8
  %this1 = load ptr, ptr %this.addr, align 8
  %d_os = getelementptr inbounds %"class.cvc5::internal::Cvc5ostream", ptr %this1, i32 0, i32 0
  %0 = load ptr, ptr %d_os, align 8
  %cmp = icmp ne ptr %0, null
  br i1 %cmp, label %if.then, label %if.end11

if.then:                                          ; preds = %entry
  %d_firstColumn = getelementptr inbounds %"class.cvc5::internal::Cvc5ostream", ptr %this1, i32 0, i32 1
  %1 = load i8, ptr %d_firstColumn, align 8
  %tobool = trunc i8 %1 to i1
  br i1 %tobool, label %if.then2, label %if.end

if.then2:                                         ; preds = %if.then
  %d_firstColumn3 = getelementptr inbounds %"class.cvc5::internal::Cvc5ostream", ptr %this1, i32 0, i32 1
  store i8 0, ptr %d_firstColumn3, align 8
  %d_os4 = getelementptr inbounds %"class.cvc5::internal::Cvc5ostream", ptr %this1, i32 0, i32 0
  %2 = load ptr, ptr %d_os4, align 8
  %vtable = load ptr, ptr %2, align 8
  %vbase.offset.ptr = getelementptr i8, ptr %vtable, i64 -24
  %vbase.offset = load i64, ptr %vbase.offset.ptr, align 8
  %add.ptr = getelementptr inbounds i8, ptr %2, i64 %vbase.offset
  %3 = load i32, ptr @_ZN4cvc58internal11Cvc5ostream16s_indentIosIndexE, align 4
  %call = call noundef nonnull align 8 dereferenceable(8) ptr @_ZNSt8ios_base5iwordEi(ptr noundef nonnull align 8 dereferenceable(216) %add.ptr, i32 noundef %3)
  %4 = load i64, ptr %call, align 8
  store i64 %4, ptr %indent, align 8
  store i64 0, ptr %i, align 8
  br label %for.cond

for.cond:                                         ; preds = %for.inc, %if.then2
  %5 = load i64, ptr %i, align 8
  %6 = load i64, ptr %indent, align 8
  %cmp5 = icmp slt i64 %5, %6
  br i1 %cmp5, label %for.body, label %for.end

for.body:                                         ; preds = %for.cond
  %d_os6 = getelementptr inbounds %"class.cvc5::internal::Cvc5ostream", ptr %this1, i32 0, i32 0
  %7 = load ptr, ptr %d_os6, align 8
  %call7 = call noundef nonnull align 8 dereferenceable(8) ptr @_ZStlsIcSt11char_traitsIcESaIcEERSt13basic_ostreamIT_T0_ES7_RKNSt7__cxx1112basic_stringIS4_S5_T1_EE(ptr noundef nonnull align 8 dereferenceable(8) %7, ptr noundef nonnull align 8 dereferenceable(32) @_ZN4cvc58internal11Cvc5ostream5s_tabB5cxx11E)
  %d_os8 = getelementptr inbounds %"class.cvc5::internal::Cvc5ostream", ptr %this1, i32 0, i32 0
  store ptr %call7, ptr %d_os8, align 8
  br label %for.inc

for.inc:                                          ; preds = %for.body
  %8 = load i64, ptr %i, align 8
  %inc = add nsw i64 %8, 1
  store i64 %inc, ptr %i, align 8
  br label %for.cond, !llvm.loop !7

for.end:                                          ; preds = %for.cond
  br label %if.end

if.end:                                           ; preds = %for.end, %if.then
  %d_os9 = getelementptr inbounds %"class.cvc5::internal::Cvc5ostream", ptr %this1, i32 0, i32 0
  %9 = load ptr, ptr %d_os9, align 8
  %10 = load ptr, ptr %t.addr, align 8
  %arraydecay = getelementptr inbounds [44 x i8], ptr %10, i64 0, i64 0
  %call10 = call noundef nonnull align 8 dereferenceable(8) ptr @_ZStlsISt11char_traitsIcEERSt13basic_ostreamIcT_ES5_PKc(ptr noundef nonnull align 8 dereferenceable(8) %9, ptr noundef %arraydecay)
  br label %if.end11

if.end11:                                         ; preds = %if.end, %entry
  ret ptr %this1
}

; Function Attrs: mustprogress uwtable
define linkonce_odr hidden noundef zeroext i1 @_ZN4cvc57context9CDHashSetINS_8internal12NodeTemplateILb1EEESt4hashIS4_EE6insertERKS4_(ptr noundef nonnull align 8 dereferenceable(56) %this, ptr noundef nonnull align 8 dereferenceable(8) %v) #4 comdat align 2 {
entry:
  %this.addr = alloca ptr, align 8
  %v.addr = alloca ptr, align 8
  %ref.tmp = alloca i8, align 1
  store ptr %this, ptr %this.addr, align 8
  store ptr %v, ptr %v.addr, align 8
  %this1 = load ptr, ptr %this.addr, align 8
  %0 = load ptr, ptr %v.addr, align 8
  store i8 1, ptr %ref.tmp, align 1
  %call = call noundef zeroext i1 @_ZN4cvc57context15CDInsertHashMapINS_8internal12NodeTemplateILb1EEEbSt4hashIS4_EE11insert_safeERKS4_RKb(ptr noundef nonnull align 8 dereferenceable(56) %this1, ptr noundef nonnull align 8 dereferenceable(8) %0, ptr noundef nonnull align 1 dereferenceable(1) %ref.tmp)
  ret i1 %call
}

; Function Attrs: mustprogress uwtable
define linkonce_odr hidden void @_ZNSt6vectorIN4cvc58internal12NodeTemplateILb1EEESaIS3_EE9push_backERKS3_(ptr noundef nonnull align 8 dereferenceable(24) %this, ptr noundef nonnull align 8 dereferenceable(8) %__x) #4 comdat align 2 {
entry:
  %this.addr = alloca ptr, align 8
  %__x.addr = alloca ptr, align 8
  %agg.tmp = alloca %"class.__gnu_cxx::__normal_iterator.353", align 8
  store ptr %this, ptr %this.addr, align 8
  store ptr %__x, ptr %__x.addr, align 8
  %this1 = load ptr, ptr %this.addr, align 8
  %_M_impl = getelementptr inbounds %"struct.std::_Vector_base.95", ptr %this1, i32 0, i32 0
  %_M_finish = getelementptr inbounds %"struct.std::_Vector_base<cvc5::internal::NodeTemplate<true>, std::allocator<cvc5::internal::NodeTemplate<true>>>::_Vector_impl_data", ptr %_M_impl, i32 0, i32 1
  %0 = load ptr, ptr %_M_finish, align 8
  %_M_impl2 = getelementptr inbounds %"struct.std::_Vector_base.95", ptr %this1, i32 0, i32 0
  %_M_end_of_storage = getelementptr inbounds %"struct.std::_Vector_base<cvc5::internal::NodeTemplate<true>, std::allocator<cvc5::internal::NodeTemplate<true>>>::_Vector_impl_data", ptr %_M_impl2, i32 0, i32 2
  %1 = load ptr, ptr %_M_end_of_storage, align 8
  %cmp = icmp ne ptr %0, %1
  br i1 %cmp, label %if.then, label %if.else

if.then:                                          ; preds = %entry
  %_M_impl3 = getelementptr inbounds %"struct.std::_Vector_base.95", ptr %this1, i32 0, i32 0
  %_M_impl4 = getelementptr inbounds %"struct.std::_Vector_base.95", ptr %this1, i32 0, i32 0
  %_M_finish5 = getelementptr inbounds %"struct.std::_Vector_base<cvc5::internal::NodeTemplate<true>, std::allocator<cvc5::internal::NodeTemplate<true>>>::_Vector_impl_data", ptr %_M_impl4, i32 0, i32 1
  %2 = load ptr, ptr %_M_finish5, align 8
  %3 = load ptr, ptr %__x.addr, align 8
  call void @_ZNSt16allocator_traitsISaIN4cvc58internal12NodeTemplateILb1EEEEE9constructIS3_JRKS3_EEEvRS4_PT_DpOT0_(ptr noundef nonnull align 1 dereferenceable(1) %_M_impl3, ptr noundef %2, ptr noundef nonnull align 8 dereferenceable(8) %3)
  %_M_impl6 = getelementptr inbounds %"struct.std::_Vector_base.95", ptr %this1, i32 0, i32 0
  %_M_finish7 = getelementptr inbounds %"struct.std::_Vector_base<cvc5::internal::NodeTemplate<true>, std::allocator<cvc5::internal::NodeTemplate<true>>>::_Vector_impl_data", ptr %_M_impl6, i32 0, i32 1
  %4 = load ptr, ptr %_M_finish7, align 8
  %incdec.ptr = getelementptr inbounds %"class.cvc5::internal::NodeTemplate", ptr %4, i32 1
  store ptr %incdec.ptr, ptr %_M_finish7, align 8
  br label %if.end

if.else:                                          ; preds = %entry
  %call = call ptr @_ZNSt6vectorIN4cvc58internal12NodeTemplateILb1EEESaIS3_EE3endEv(ptr noundef nonnull align 8 dereferenceable(24) %this1) #3
  %coerce.dive = getelementptr inbounds %"class.__gnu_cxx::__normal_iterator.353", ptr %agg.tmp, i32 0, i32 0
  store ptr %call, ptr %coerce.dive, align 8
  %5 = load ptr, ptr %__x.addr, align 8
  %coerce.dive8 = getelementptr inbounds %"class.__gnu_cxx::__normal_iterator.353", ptr %agg.tmp, i32 0, i32 0
  %6 = load ptr, ptr %coerce.dive8, align 8
  call void @_ZNSt6vectorIN4cvc58internal12NodeTemplateILb1EEESaIS3_EE17_M_realloc_insertIJRKS3_EEEvN9__gnu_cxx17__normal_iteratorIPS3_S5_EEDpOT_(ptr noundef nonnull align 8 dereferenceable(24) %this1, ptr %6, ptr noundef nonnull align 8 dereferenceable(8) %5)
  br label %if.end

if.end:                                           ; preds = %if.else, %if.then
  ret void
}

; Function Attrs: mustprogress uwtable
define hidden void @_ZN4cvc58internal10IntBlaster20addBitwiseConstraintENS0_12NodeTemplateILb1EEERSt6vectorIS3_SaIS3_EE(ptr noundef nonnull align 8 dereferenceable(468) %this, ptr noundef %bitwiseConstraint, ptr noundef nonnull align 8 dereferenceable(24) %lemmas) #4 align 2 {
entry:
  %this.addr = alloca ptr, align 8
  %bitwiseConstraint.indirect_addr = alloca ptr, align 8
  %lemmas.addr = alloca ptr, align 8
  %ref.tmp = alloca %"class.cvc5::context::CDHashSet<cvc5::internal::NodeTemplate<true>>::const_iterator", align 8
  %ref.tmp2 = alloca %"class.cvc5::context::CDHashSet<cvc5::internal::NodeTemplate<true>>::const_iterator", align 8
  %ref.tmp4 = alloca %"class.cvc5::internal::__cvc5_true", align 1
  %tmp = alloca %"class.cvc5::internal::Cvc5ostream", align 8
  %agg.tmp.ensured = alloca %"class.cvc5::internal::Cvc5ostream", align 8
  %ref.tmp6 = alloca %"class.cvc5::internal::Cvc5ostream", align 8
  store ptr %this, ptr %this.addr, align 8
  store ptr %bitwiseConstraint, ptr %bitwiseConstraint.indirect_addr, align 8
  store ptr %lemmas, ptr %lemmas.addr, align 8
  %this1 = load ptr, ptr %this.addr, align 8
  %d_bitwiseAssertions = getelementptr inbounds %"class.cvc5::internal::IntBlaster", ptr %this1, i32 0, i32 5
  call void @_ZNK4cvc57context9CDHashSetINS_8internal12NodeTemplateILb1EEESt4hashIS4_EE4findERKS4_(ptr sret(%"class.cvc5::context::CDHashSet<cvc5::internal::NodeTemplate<true>>::const_iterator") align 8 %ref.tmp, ptr noundef nonnull align 8 dereferenceable(56) %d_bitwiseAssertions, ptr noundef nonnull align 8 dereferenceable(8) %bitwiseConstraint)
  %d_bitwiseAssertions3 = getelementptr inbounds %"class.cvc5::internal::IntBlaster", ptr %this1, i32 0, i32 5
  call void @_ZNK4cvc57context9CDHashSetINS_8internal12NodeTemplateILb1EEESt4hashIS4_EE3endEv(ptr sret(%"class.cvc5::context::CDHashSet<cvc5::internal::NodeTemplate<true>>::const_iterator") align 8 %ref.tmp2, ptr noundef nonnull align 8 dereferenceable(56) %d_bitwiseAssertions3)
  %call = call noundef zeroext i1 @_ZNK4cvc57context9CDHashSetINS_8internal12NodeTemplateILb1EEESt4hashIS4_EE14const_iteratoreqERKS8_(ptr noundef nonnull align 8 dereferenceable(8) %ref.tmp, ptr noundef nonnull align 8 dereferenceable(8) %ref.tmp2)
  br i1 %call, label %if.then, label %if.end

if.then:                                          ; preds = %entry
  %call5 = call noundef zeroext i1 @_ZN4cvc58internal11__cvc5_truecvbEv(ptr noundef nonnull align 1 dereferenceable(1) %ref.tmp4)
  br i1 %call5, label %cond.true, label %cond.false

cond.true:                                        ; preds = %if.then
  call void @_ZNK4cvc58internal5NullCcvNS0_11Cvc5ostreamEEv(ptr sret(%"class.cvc5::internal::Cvc5ostream") align 8 %tmp, ptr noundef nonnull align 1 dereferenceable(1) @_ZN4cvc58internal10nullStreamE)
  br label %cond.end

cond.false:                                       ; preds = %if.then
  call void @_ZNK4cvc58internal6TraceCclEv(ptr sret(%"class.cvc5::internal::Cvc5ostream") align 8 %ref.tmp6, ptr noundef nonnull align 8 dereferenceable(32) @_ZN4cvc58internal12TraceChannelE)
  %call7 = call noundef nonnull align 8 dereferenceable(24) ptr @_ZN4cvc58internal11Cvc5ostreamlsIA47_cEERS1_RKT_(ptr noundef nonnull align 8 dereferenceable(24) %ref.tmp6, ptr noundef nonnull align 1 dereferenceable(47) @.str.2)
  %call8 = call noundef nonnull align 8 dereferenceable(24) ptr @_ZN4cvc58internal11Cvc5ostreamlsINS0_12NodeTemplateILb1EEEEERS1_RKT_(ptr noundef nonnull align 8 dereferenceable(24) %call7, ptr noundef nonnull align 8 dereferenceable(8) %bitwiseConstraint)
  %call9 = call noundef nonnull align 8 dereferenceable(24) ptr @_ZN4cvc58internal11Cvc5ostreamlsEPFRSoS2_E(ptr noundef nonnull align 8 dereferenceable(24) %call8, ptr noundef @_ZSt4endlIcSt11char_traitsIcEERSt13basic_ostreamIT_T0_ES6_)
  call void @llvm.memcpy.p0.p0.i64(ptr align 8 %agg.tmp.ensured, ptr align 8 %call9, i64 24, i1 false)
  br label %cond.end

cond.end:                                         ; preds = %cond.false, %cond.true
  %d_bitwiseAssertions10 = getelementptr inbounds %"class.cvc5::internal::IntBlaster", ptr %this1, i32 0, i32 5
  %call11 = call noundef zeroext i1 @_ZN4cvc57context9CDHashSetINS_8internal12NodeTemplateILb1EEESt4hashIS4_EE6insertERKS4_(ptr noundef nonnull align 8 dereferenceable(56) %d_bitwiseAssertions10, ptr noundef nonnull align 8 dereferenceable(8) %bitwiseConstraint)
  %0 = load ptr, ptr %lemmas.addr, align 8
  call void @_ZNSt6vectorIN4cvc58internal12NodeTemplateILb1EEESaIS3_EE9push_backERKS3_(ptr noundef nonnull align 8 dereferenceable(24) %0, ptr noundef nonnull align 8 dereferenceable(8) %bitwiseConstraint)
  br label %if.end

if.end:                                           ; preds = %cond.end, %entry
  ret void
}

; Function Attrs: mustprogress uwtable
define linkonce_odr hidden noundef nonnull align 8 dereferenceable(24) ptr @_ZN4cvc58internal11Cvc5ostreamlsIA47_cEERS1_RKT_(ptr noundef nonnull align 8 dereferenceable(24) %this, ptr noundef nonnull align 1 dereferenceable(47) %t) #4 comdat align 2 {
entry:
  %this.addr = alloca ptr, align 8
  %t.addr = alloca ptr, align 8
  %indent = alloca i64, align 8
  %i = alloca i64, align 8
  store ptr %this, ptr %this.addr, align 8
  store ptr %t, ptr %t.addr, align 8
  %this1 = load ptr, ptr %this.addr, align 8
  %d_os = getelementptr inbounds %"class.cvc5::internal::Cvc5ostream", ptr %this1, i32 0, i32 0
  %0 = load ptr, ptr %d_os, align 8
  %cmp = icmp ne ptr %0, null
  br i1 %cmp, label %if.then, label %if.end11

if.then:                                          ; preds = %entry
  %d_firstColumn = getelementptr inbounds %"class.cvc5::internal::Cvc5ostream", ptr %this1, i32 0, i32 1
  %1 = load i8, ptr %d_firstColumn, align 8
  %tobool = trunc i8 %1 to i1
  br i1 %tobool, label %if.then2, label %if.end

if.then2:                                         ; preds = %if.then
  %d_firstColumn3 = getelementptr inbounds %"class.cvc5::internal::Cvc5ostream", ptr %this1, i32 0, i32 1
  store i8 0, ptr %d_firstColumn3, align 8
  %d_os4 = getelementptr inbounds %"class.cvc5::internal::Cvc5ostream", ptr %this1, i32 0, i32 0
  %2 = load ptr, ptr %d_os4, align 8
  %vtable = load ptr, ptr %2, align 8
  %vbase.offset.ptr = getelementptr i8, ptr %vtable, i64 -24
  %vbase.offset = load i64, ptr %vbase.offset.ptr, align 8
  %add.ptr = getelementptr inbounds i8, ptr %2, i64 %vbase.offset
  %3 = load i32, ptr @_ZN4cvc58internal11Cvc5ostream16s_indentIosIndexE, align 4
  %call = call noundef nonnull align 8 dereferenceable(8) ptr @_ZNSt8ios_base5iwordEi(ptr noundef nonnull align 8 dereferenceable(216) %add.ptr, i32 noundef %3)
  %4 = load i64, ptr %call, align 8
  store i64 %4, ptr %indent, align 8
  store i64 0, ptr %i, align 8
  br label %for.cond

for.cond:                                         ; preds = %for.inc, %if.then2
  %5 = load i64, ptr %i, align 8
  %6 = load i64, ptr %indent, align 8
  %cmp5 = icmp slt i64 %5, %6
  br i1 %cmp5, label %for.body, label %for.end

for.body:                                         ; preds = %for.cond
  %d_os6 = getelementptr inbounds %"class.cvc5::internal::Cvc5ostream", ptr %this1, i32 0, i32 0
  %7 = load ptr, ptr %d_os6, align 8
  %call7 = call noundef nonnull align 8 dereferenceable(8) ptr @_ZStlsIcSt11char_traitsIcESaIcEERSt13basic_ostreamIT_T0_ES7_RKNSt7__cxx1112basic_stringIS4_S5_T1_EE(ptr noundef nonnull align 8 dereferenceable(8) %7, ptr noundef nonnull align 8 dereferenceable(32) @_ZN4cvc58internal11Cvc5ostream5s_tabB5cxx11E)
  %d_os8 = getelementptr inbounds %"class.cvc5::internal::Cvc5ostream", ptr %this1, i32 0, i32 0
  store ptr %call7, ptr %d_os8, align 8
  br label %for.inc

for.inc:                                          ; preds = %for.body
  %8 = load i64, ptr %i, align 8
  %inc = add nsw i64 %8, 1
  store i64 %inc, ptr %i, align 8
  br label %for.cond, !llvm.loop !8

for.end:                                          ; preds = %for.cond
  br label %if.end

if.end:                                           ; preds = %for.end, %if.then
  %d_os9 = getelementptr inbounds %"class.cvc5::internal::Cvc5ostream", ptr %this1, i32 0, i32 0
  %9 = load ptr, ptr %d_os9, align 8
  %10 = load ptr, ptr %t.addr, align 8
  %arraydecay = getelementptr inbounds [47 x i8], ptr %10, i64 0, i64 0
  %call10 = call noundef nonnull align 8 dereferenceable(8) ptr @_ZStlsISt11char_traitsIcEERSt13basic_ostreamIcT_ES5_PKc(ptr noundef nonnull align 8 dereferenceable(8) %9, ptr noundef %arraydecay)
  br label %if.end11

if.end11:                                         ; preds = %if.end, %entry
  ret ptr %this1
}

; Function Attrs: mustprogress uwtable
define linkonce_odr hidden void @_ZN4cvc58internal11NodeManager6mkNodeENS0_4kind6Kind_tENS0_12NodeTemplateILb0EEES5_(ptr noalias sret(%"class.cvc5::internal::NodeTemplate") align 8 %agg.result, ptr noundef nonnull align 8 dereferenceable(3360) %this, i32 noundef %kind, ptr noundef %child1, ptr noundef %child2) #4 comdat align 2 personality ptr @__gxx_personality_v0 {
entry:
  %result.ptr = alloca ptr, align 8
  %this.addr = alloca ptr, align 8
  %kind.addr = alloca i32, align 4
  %child1.indirect_addr = alloca ptr, align 8
  %child2.indirect_addr = alloca ptr, align 8
  %nb = alloca %"class.cvc5::internal::NodeBuilder", align 8
  %agg.tmp = alloca %"class.cvc5::internal::NodeTemplate.99", align 8
  %exn.slot = alloca ptr, align 8
  %ehselector.slot = alloca i32, align 4
  %agg.tmp4 = alloca %"class.cvc5::internal::NodeTemplate.99", align 8
  store ptr %agg.result, ptr %result.ptr, align 8
  store ptr %this, ptr %this.addr, align 8
  store i32 %kind, ptr %kind.addr, align 4
  store ptr %child1, ptr %child1.indirect_addr, align 8
  store ptr %child2, ptr %child2.indirect_addr, align 8
  %this1 = load ptr, ptr %this.addr, align 8
  %0 = load i32, ptr %kind.addr, align 4
  call void @_ZN4cvc58internal11NodeBuilderC1EPNS0_11NodeManagerENS0_4kind6Kind_tE(ptr noundef nonnull align 8 dereferenceable(116) %nb, ptr noundef %this1, i32 noundef %0)
  invoke void @_ZN4cvc58internal12NodeTemplateILb0EEC2ERKS2_(ptr noundef nonnull align 8 dereferenceable(8) %agg.tmp, ptr noundef nonnull align 8 dereferenceable(8) %child1)
          to label %invoke.cont unwind label %lpad

invoke.cont:                                      ; preds = %entry
  %call = invoke noundef nonnull align 8 dereferenceable(116) ptr @_ZN4cvc58internal11NodeBuilderlsENS0_12NodeTemplateILb0EEE(ptr noundef nonnull align 8 dereferenceable(116) %nb, ptr noundef %agg.tmp)
          to label %invoke.cont3 unwind label %lpad2

invoke.cont3:                                     ; preds = %invoke.cont
  invoke void @_ZN4cvc58internal12NodeTemplateILb0EEC2ERKS2_(ptr noundef nonnull align 8 dereferenceable(8) %agg.tmp4, ptr noundef nonnull align 8 dereferenceable(8) %child2)
          to label %invoke.cont5 unwind label %lpad2

invoke.cont5:                                     ; preds = %invoke.cont3
  %call8 = invoke noundef nonnull align 8 dereferenceable(116) ptr @_ZN4cvc58internal11NodeBuilderlsENS0_12NodeTemplateILb0EEE(ptr noundef nonnull align 8 dereferenceable(116) %call, ptr noundef %agg.tmp4)
          to label %invoke.cont7 unwind label %lpad6

invoke.cont7:                                     ; preds = %invoke.cont5
  call void @_ZN4cvc58internal12NodeTemplateILb0EED2Ev(ptr noundef nonnull align 8 dereferenceable(8) %agg.tmp4) #3
  call void @_ZN4cvc58internal12NodeTemplateILb0EED2Ev(ptr noundef nonnull align 8 dereferenceable(8) %agg.tmp) #3
  invoke void @_ZN4cvc58internal11NodeBuilder13constructNodeEv(ptr sret(%"class.cvc5::internal::NodeTemplate") align 8 %agg.result, ptr noundef nonnull align 8 dereferenceable(116) %nb)
          to label %invoke.cont9 unwind label %lpad

invoke.cont9:                                     ; preds = %invoke.cont7
  call void @_ZN4cvc58internal11NodeBuilderD1Ev(ptr noundef nonnull align 8 dereferenceable(116) %nb) #3
  ret void

lpad:                                             ; preds = %invoke.cont7, %entry
  %1 = landingpad { ptr, i32 }
          cleanup
  %2 = extractvalue { ptr, i32 } %1, 0
  store ptr %2, ptr %exn.slot, align 8
  %3 = extractvalue { ptr, i32 } %1, 1
  store i32 %3, ptr %ehselector.slot, align 4
  br label %ehcleanup10

lpad2:                                            ; preds = %invoke.cont3, %invoke.cont
  %4 = landingpad { ptr, i32 }
          cleanup
  %5 = extractvalue { ptr, i32 } %4, 0
  store ptr %5, ptr %exn.slot, align 8
  %6 = extractvalue { ptr, i32 } %4, 1
  store i32 %6, ptr %ehselector.slot, align 4
  br label %ehcleanup

lpad6:                                            ; preds = %invoke.cont5
  %7 = landingpad { ptr, i32 }
          cleanup
  %8 = extractvalue { ptr, i32 } %7, 0
  store ptr %8, ptr %exn.slot, align 8
  %9 = extractvalue { ptr, i32 } %7, 1
  store i32 %9, ptr %ehselector.slot, align 4
  call void @_ZN4cvc58internal12NodeTemplateILb0EED2Ev(ptr noundef nonnull align 8 dereferenceable(8) %agg.tmp4) #3
  br label %ehcleanup

ehcleanup:                                        ; preds = %lpad6, %lpad2
  call void @_ZN4cvc58internal12NodeTemplateILb0EED2Ev(ptr noundef nonnull align 8 dereferenceable(8) %agg.tmp) #3
  br label %ehcleanup10

ehcleanup10:                                      ; preds = %ehcleanup, %lpad
  call void @_ZN4cvc58internal11NodeBuilderD1Ev(ptr noundef nonnull align 8 dereferenceable(116) %nb) #3
  br label %eh.resume

eh.resume:                                        ; preds = %ehcleanup10
  %exn = load ptr, ptr %exn.slot, align 8
  %sel = load i32, ptr %ehselector.slot, align 4
  %lpad.val = insertvalue { ptr, i32 } poison, ptr %exn, 0
  %lpad.val11 = insertvalue { ptr, i32 } %lpad.val, i32 %sel, 1
  resume { ptr, i32 } %lpad.val11
}

; Function Attrs: mustprogress nounwind uwtable
define linkonce_odr hidden void @_ZN4cvc58internal12NodeTemplateILb0EEC2ERKNS1_ILb1EEE(ptr noundef nonnull align 8 dereferenceable(8) %this, ptr noundef nonnull align 8 dereferenceable(8) %e) unnamed_addr #5 comdat align 2 {
entry:
  %this.addr = alloca ptr, align 8
  %e.addr = alloca ptr, align 8
  store ptr %this, ptr %this.addr, align 8
  store ptr %e, ptr %e.addr, align 8
  %this1 = load ptr, ptr %this.addr, align 8
  %0 = load ptr, ptr %e.addr, align 8
  %d_nv = getelementptr inbounds %"class.cvc5::internal::NodeTemplate", ptr %0, i32 0, i32 0
  %1 = load ptr, ptr %d_nv, align 8
  %d_nv2 = getelementptr inbounds %"class.cvc5::internal::NodeTemplate.99", ptr %this1, i32 0, i32 0
  store ptr %1, ptr %d_nv2, align 8
  ret void
}

; Function Attrs: mustprogress nounwind uwtable
define linkonce_odr hidden void @_ZN4cvc58internal12NodeTemplateILb0EED2Ev(ptr noundef nonnull align 8 dereferenceable(8) %this) unnamed_addr #5 comdat align 2 {
entry:
  %this.addr = alloca ptr, align 8
  store ptr %this, ptr %this.addr, align 8
  ret void
}

; Function Attrs: mustprogress uwtable
define hidden void @_ZN4cvc58internal10IntBlaster4pow2Ej(ptr noalias sret(%"class.cvc5::internal::NodeTemplate") align 8 %agg.result, ptr noundef nonnull align 8 dereferenceable(468) %this, i32 noundef %k) #4 align 2 personality ptr @__gxx_personality_v0 {
entry:
  %result.ptr = alloca ptr, align 8
  %this.addr = alloca ptr, align 8
  %k.addr = alloca i32, align 4
  %ref.tmp = alloca %"class.cvc5::internal::Rational", align 8
  %exn.slot = alloca ptr, align 8
  %ehselector.slot = alloca i32, align 4
  store ptr %agg.result, ptr %result.ptr, align 8
  store ptr %this, ptr %this.addr, align 8
  store i32 %k, ptr %k.addr, align 4
  %this1 = load ptr, ptr %this.addr, align 8
  %d_nm = getelementptr inbounds %"class.cvc5::internal::IntBlaster", ptr %this1, i32 0, i32 3
  %0 = load ptr, ptr %d_nm, align 8
  %1 = load i32, ptr %k.addr, align 4
  call void @_ZN4cvc58internal12_GLOBAL__N_17intpow2Ej(ptr sret(%"class.cvc5::internal::Rational") align 8 %ref.tmp, i32 noundef %1)
  invoke void @_ZN4cvc58internal11NodeManager10mkConstIntERKNS0_8RationalE(ptr sret(%"class.cvc5::internal::NodeTemplate") align 8 %agg.result, ptr noundef nonnull align 8 dereferenceable(3360) %0, ptr noundef nonnull align 8 dereferenceable(32) %ref.tmp)
          to label %invoke.cont unwind label %lpad

invoke.cont:                                      ; preds = %entry
  call void @_ZN4cvc58internal8RationalD2Ev(ptr noundef nonnull align 8 dereferenceable(32) %ref.tmp) #3
  ret void

lpad:                                             ; preds = %entry
  %2 = landingpad { ptr, i32 }
          cleanup
  %3 = extractvalue { ptr, i32 } %2, 0
  store ptr %3, ptr %exn.slot, align 8
  %4 = extractvalue { ptr, i32 } %2, 1
  store i32 %4, ptr %ehselector.slot, align 4
  call void @_ZN4cvc58internal8RationalD2Ev(ptr noundef nonnull align 8 dereferenceable(32) %ref.tmp) #3
  br label %eh.resume

eh.resume:                                        ; preds = %lpad
  %exn = load ptr, ptr %exn.slot, align 8
  %sel = load i32, ptr %ehselector.slot, align 4
  %lpad.val = insertvalue { ptr, i32 } poison, ptr %exn, 0
  %lpad.val2 = insertvalue { ptr, i32 } %lpad.val, i32 %sel, 1
  resume { ptr, i32 } %lpad.val2
}

declare void @_ZNK4cvc58internal6EnvObj7rewriteENS0_12NodeTemplateILb0EEE(ptr sret(%"class.cvc5::internal::NodeTemplate") align 8, ptr noundef nonnull align 8 dereferenceable(16), ptr noundef) #1

; Function Attrs: mustprogress uwtable
define hidden void @_ZN4cvc58internal10IntBlaster6maxIntEj(ptr noalias sret(%"class.cvc5::internal::NodeTemplate") align 8 %agg.result, ptr noundef nonnull align 8 dereferenceable(468) %this, i32 noundef %k) #4 align 2 personality ptr @__gxx_personality_v0 {
entry:
  %result.ptr = alloca ptr, align 8
  %this.addr = alloca ptr, align 8
  %k.addr = alloca i32, align 4
  %max_value = alloca %"class.cvc5::internal::Rational", align 8
  %ref.tmp = alloca %"class.cvc5::internal::Rational", align 8
  %ref.tmp2 = alloca %"class.cvc5::internal::Rational", align 8
  %exn.slot = alloca ptr, align 8
  %ehselector.slot = alloca i32, align 4
  store ptr %agg.result, ptr %result.ptr, align 8
  store ptr %this, ptr %this.addr, align 8
  store i32 %k, ptr %k.addr, align 4
  %this1 = load ptr, ptr %this.addr, align 8
  %0 = load i32, ptr %k.addr, align 4
  call void @_ZN4cvc58internal12_GLOBAL__N_17intpow2Ej(ptr sret(%"class.cvc5::internal::Rational") align 8 %ref.tmp, i32 noundef %0)
  invoke void @_ZN4cvc58internal8RationalC2Ei(ptr noundef nonnull align 8 dereferenceable(32) %ref.tmp2, i32 noundef 1)
          to label %invoke.cont unwind label %lpad

invoke.cont:                                      ; preds = %entry
  invoke void @_ZNK4cvc58internal8RationalmiERKS1_(ptr sret(%"class.cvc5::internal::Rational") align 8 %max_value, ptr noundef nonnull align 8 dereferenceable(32) %ref.tmp, ptr noundef nonnull align 8 dereferenceable(32) %ref.tmp2)
          to label %invoke.cont4 unwind label %lpad3

invoke.cont4:                                     ; preds = %invoke.cont
  call void @_ZN4cvc58internal8RationalD2Ev(ptr noundef nonnull align 8 dereferenceable(32) %ref.tmp2) #3
  call void @_ZN4cvc58internal8RationalD2Ev(ptr noundef nonnull align 8 dereferenceable(32) %ref.tmp) #3
  %d_nm = getelementptr inbounds %"class.cvc5::internal::IntBlaster", ptr %this1, i32 0, i32 3
  %1 = load ptr, ptr %d_nm, align 8
  invoke void @_ZN4cvc58internal11NodeManager10mkConstIntERKNS0_8RationalE(ptr sret(%"class.cvc5::internal::NodeTemplate") align 8 %agg.result, ptr noundef nonnull align 8 dereferenceable(3360) %1, ptr noundef nonnull align 8 dereferenceable(32) %max_value)
          to label %invoke.cont6 unwind label %lpad5

invoke.cont6:                                     ; preds = %invoke.cont4
  call void @_ZN4cvc58internal8RationalD2Ev(ptr noundef nonnull align 8 dereferenceable(32) %max_value) #3
  ret void

lpad:                                             ; preds = %entry
  %2 = landingpad { ptr, i32 }
          cleanup
  %3 = extractvalue { ptr, i32 } %2, 0
  store ptr %3, ptr %exn.slot, align 8
  %4 = extractvalue { ptr, i32 } %2, 1
  store i32 %4, ptr %ehselector.slot, align 4
  br label %ehcleanup

lpad3:                                            ; preds = %invoke.cont
  %5 = landingpad { ptr, i32 }
          cleanup
  %6 = extractvalue { ptr, i32 } %5, 0
  store ptr %6, ptr %exn.slot, align 8
  %7 = extractvalue { ptr, i32 } %5, 1
  store i32 %7, ptr %ehselector.slot, align 4
  call void @_ZN4cvc58internal8RationalD2Ev(ptr noundef nonnull align 8 dereferenceable(32) %ref.tmp2) #3
  br label %ehcleanup

ehcleanup:                                        ; preds = %lpad3, %lpad
  call void @_ZN4cvc58internal8RationalD2Ev(ptr noundef nonnull align 8 dereferenceable(32) %ref.tmp) #3
  br label %eh.resume

lpad5:                                            ; preds = %invoke.cont4
  %8 = landingpad { ptr, i32 }
          cleanup
  %9 = extractvalue { ptr, i32 } %8, 0
  store ptr %9, ptr %exn.slot, align 8
  %10 = extractvalue { ptr, i32 } %8, 1
  store i32 %10, ptr %ehselector.slot, align 4
  call void @_ZN4cvc58internal8RationalD2Ev(ptr noundef nonnull align 8 dereferenceable(32) %max_value) #3
  br label %eh.resume

eh.resume:                                        ; preds = %lpad5, %ehcleanup
  %exn = load ptr, ptr %exn.slot, align 8
  %sel = load i32, ptr %ehselector.slot, align 4
  %lpad.val = insertvalue { ptr, i32 } poison, ptr %exn, 0
  %lpad.val8 = insertvalue { ptr, i32 } %lpad.val, i32 %sel, 1
  resume { ptr, i32 } %lpad.val8
}

; Function Attrs: mustprogress uwtable
define internal void @_ZN4cvc58internal12_GLOBAL__N_17intpow2Ej(ptr noalias sret(%"class.cvc5::internal::Rational") align 8 %agg.result, i32 noundef %b) #4 personality ptr @__gxx_personality_v0 {
entry:
  %result.ptr = alloca ptr, align 8
  %b.addr = alloca i32, align 4
  %ref.tmp = alloca %"class.cvc5::internal::Integer", align 8
  %ref.tmp1 = alloca %"class.cvc5::internal::Integer", align 8
  %exn.slot = alloca ptr, align 8
  %ehselector.slot = alloca i32, align 4
  %ref.tmp2 = alloca %"class.cvc5::internal::Integer", align 8
  store ptr %agg.result, ptr %result.ptr, align 8
  store i32 %b, ptr %b.addr, align 4
  call void @_ZN4cvc58internal7IntegerC2Ei(ptr noundef nonnull align 8 dereferenceable(16) %ref.tmp1, i32 noundef 2)
  %0 = load i32, ptr %b.addr, align 4
  invoke void @_ZNK4cvc58internal7Integer3powEj(ptr sret(%"class.cvc5::internal::Integer") align 8 %ref.tmp, ptr noundef nonnull align 8 dereferenceable(16) %ref.tmp1, i32 noundef %0)
          to label %invoke.cont unwind label %lpad

invoke.cont:                                      ; preds = %entry
  invoke void @_ZN4cvc58internal7IntegerC2Ei(ptr noundef nonnull align 8 dereferenceable(16) %ref.tmp2, i32 noundef 1)
          to label %invoke.cont4 unwind label %lpad3

invoke.cont4:                                     ; preds = %invoke.cont
  invoke void @_ZN4cvc58internal8RationalC2ERKNS0_7IntegerES4_(ptr noundef nonnull align 8 dereferenceable(32) %agg.result, ptr noundef nonnull align 8 dereferenceable(16) %ref.tmp, ptr noundef nonnull align 8 dereferenceable(16) %ref.tmp2)
          to label %invoke.cont6 unwind label %lpad5

invoke.cont6:                                     ; preds = %invoke.cont4
  call void @_ZN4cvc58internal7IntegerD2Ev(ptr noundef nonnull align 8 dereferenceable(16) %ref.tmp2) #3
  call void @_ZN4cvc58internal7IntegerD2Ev(ptr noundef nonnull align 8 dereferenceable(16) %ref.tmp) #3
  call void @_ZN4cvc58internal7IntegerD2Ev(ptr noundef nonnull align 8 dereferenceable(16) %ref.tmp1) #3
  ret void

lpad:                                             ; preds = %entry
  %1 = landingpad { ptr, i32 }
          cleanup
  %2 = extractvalue { ptr, i32 } %1, 0
  store ptr %2, ptr %exn.slot, align 8
  %3 = extractvalue { ptr, i32 } %1, 1
  store i32 %3, ptr %ehselector.slot, align 4
  br label %ehcleanup7

lpad3:                                            ; preds = %invoke.cont
  %4 = landingpad { ptr, i32 }
          cleanup
  %5 = extractvalue { ptr, i32 } %4, 0
  store ptr %5, ptr %exn.slot, align 8
  %6 = extractvalue { ptr, i32 } %4, 1
  store i32 %6, ptr %ehselector.slot, align 4
  br label %ehcleanup

lpad5:                                            ; preds = %invoke.cont4
  %7 = landingpad { ptr, i32 }
          cleanup
  %8 = extractvalue { ptr, i32 } %7, 0
  store ptr %8, ptr %exn.slot, align 8
  %9 = extractvalue { ptr, i32 } %7, 1
  store i32 %9, ptr %ehselector.slot, align 4
  call void @_ZN4cvc58internal7IntegerD2Ev(ptr noundef nonnull align 8 dereferenceable(16) %ref.tmp2) #3
  br label %ehcleanup

ehcleanup:                                        ; preds = %lpad5, %lpad3
  call void @_ZN4cvc58internal7IntegerD2Ev(ptr noundef nonnull align 8 dereferenceable(16) %ref.tmp) #3
  br label %ehcleanup7

ehcleanup7:                                       ; preds = %ehcleanup, %lpad
  call void @_ZN4cvc58internal7IntegerD2Ev(ptr noundef nonnull align 8 dereferenceable(16) %ref.tmp1) #3
  br label %eh.resume

eh.resume:                                        ; preds = %ehcleanup7
  %exn = load ptr, ptr %exn.slot, align 8
  %sel = load i32, ptr %ehselector.slot, align 4
  %lpad.val = insertvalue { ptr, i32 } poison, ptr %exn, 0
  %lpad.val8 = insertvalue { ptr, i32 } %lpad.val, i32 %sel, 1
  resume { ptr, i32 } %lpad.val8
}

; Function Attrs: mustprogress uwtable
define linkonce_odr hidden void @_ZNK4cvc58internal8RationalmiERKS1_(ptr noalias sret(%"class.cvc5::internal::Rational") align 8 %agg.result, ptr noundef nonnull align 8 dereferenceable(32) %this, ptr noundef nonnull align 8 dereferenceable(32) %y) #4 comdat align 2 personality ptr @__gxx_personality_v0 {
entry:
  %result.ptr = alloca ptr, align 8
  %this.addr = alloca ptr, align 8
  %y.addr = alloca ptr, align 8
  %ref.tmp = alloca %class.__gmp_expr, align 8
  %ref.tmp2 = alloca %class.__gmp_expr.410, align 8
  %exn.slot = alloca ptr, align 8
  %ehselector.slot = alloca i32, align 4
  store ptr %agg.result, ptr %result.ptr, align 8
  store ptr %this, ptr %this.addr, align 8
  store ptr %y, ptr %y.addr, align 8
  %this1 = load ptr, ptr %this.addr, align 8
  %d_value = getelementptr inbounds %"class.cvc5::internal::Rational", ptr %this1, i32 0, i32 0
  %0 = load ptr, ptr %y.addr, align 8
  %d_value3 = getelementptr inbounds %"class.cvc5::internal::Rational", ptr %0, i32 0, i32 0
  %call = call { ptr, ptr } @_ZmiIA1_12__mpq_structS1_S1_S1_E10__gmp_exprIN18__gmp_resolve_exprIT_T1_E10value_typeE17__gmp_binary_exprIS2_IS4_T0_ES2_IS5_T2_E18__gmp_binary_minusEERKSA_RKSC_(ptr noundef nonnull align 8 dereferenceable(32) %d_value, ptr noundef nonnull align 8 dereferenceable(32) %d_value3)
  %coerce.dive = getelementptr inbounds %class.__gmp_expr.410, ptr %ref.tmp2, i32 0, i32 0
  %1 = getelementptr inbounds { ptr, ptr }, ptr %coerce.dive, i32 0, i32 0
  %2 = extractvalue { ptr, ptr } %call, 0
  store ptr %2, ptr %1, align 8
  %3 = getelementptr inbounds { ptr, ptr }, ptr %coerce.dive, i32 0, i32 1
  %4 = extractvalue { ptr, ptr } %call, 1
  store ptr %4, ptr %3, align 8
  call void @_ZN10__gmp_exprIA1_12__mpq_structS1_EC2I17__gmp_binary_exprIS2_S2_18__gmp_binary_minusEEERKS_IS1_T_E(ptr noundef nonnull align 8 dereferenceable(32) %ref.tmp, ptr noundef nonnull align 8 dereferenceable(16) %ref.tmp2)
  invoke void @_ZN4cvc58internal8RationalC2ERK10__gmp_exprIA1_12__mpq_structS4_E(ptr noundef nonnull align 8 dereferenceable(32) %agg.result, ptr noundef nonnull align 8 dereferenceable(32) %ref.tmp)
          to label %invoke.cont unwind label %lpad

invoke.cont:                                      ; preds = %entry
  call void @_ZN10__gmp_exprIA1_12__mpq_structS1_ED2Ev(ptr noundef nonnull align 8 dereferenceable(32) %ref.tmp) #3
  ret void

lpad:                                             ; preds = %entry
  %5 = landingpad { ptr, i32 }
          cleanup
  %6 = extractvalue { ptr, i32 } %5, 0
  store ptr %6, ptr %exn.slot, align 8
  %7 = extractvalue { ptr, i32 } %5, 1
  store i32 %7, ptr %ehselector.slot, align 4
  call void @_ZN10__gmp_exprIA1_12__mpq_structS1_ED2Ev(ptr noundef nonnull align 8 dereferenceable(32) %ref.tmp) #3
  br label %eh.resume

eh.resume:                                        ; preds = %lpad
  %exn = load ptr, ptr %exn.slot, align 8
  %sel = load i32, ptr %ehselector.slot, align 4
  %lpad.val = insertvalue { ptr, i32 } poison, ptr %exn, 0
  %lpad.val4 = insertvalue { ptr, i32 } %lpad.val, i32 %sel, 1
  resume { ptr, i32 } %lpad.val4
}

; Function Attrs: mustprogress uwtable
define hidden void @_ZN4cvc58internal10IntBlaster7modpow2ENS0_12NodeTemplateILb1EEEj(ptr noalias sret(%"class.cvc5::internal::NodeTemplate") align 8 %agg.result, ptr noundef nonnull align 8 dereferenceable(468) %this, ptr noundef %n, i32 noundef %exponent) #4 align 2 personality ptr @__gxx_personality_v0 {
entry:
  %result.ptr = alloca ptr, align 8
  %this.addr = alloca ptr, align 8
  %n.indirect_addr = alloca ptr, align 8
  %exponent.addr = alloca i32, align 4
  %p2 = alloca %"class.cvc5::internal::NodeTemplate", align 8
  %ref.tmp = alloca %"class.cvc5::internal::Rational", align 8
  %exn.slot = alloca ptr, align 8
  %ehselector.slot = alloca i32, align 4
  %agg.tmp = alloca %"class.cvc5::internal::NodeTemplate.99", align 8
  %agg.tmp5 = alloca %"class.cvc5::internal::NodeTemplate.99", align 8
  store ptr %agg.result, ptr %result.ptr, align 8
  store ptr %this, ptr %this.addr, align 8
  store ptr %n, ptr %n.indirect_addr, align 8
  store i32 %exponent, ptr %exponent.addr, align 4
  %this1 = load ptr, ptr %this.addr, align 8
  %d_nm = getelementptr inbounds %"class.cvc5::internal::IntBlaster", ptr %this1, i32 0, i32 3
  %0 = load ptr, ptr %d_nm, align 8
  %1 = load i32, ptr %exponent.addr, align 4
  call void @_ZN4cvc58internal12_GLOBAL__N_17intpow2Ej(ptr sret(%"class.cvc5::internal::Rational") align 8 %ref.tmp, i32 noundef %1)
  invoke void @_ZN4cvc58internal11NodeManager10mkConstIntERKNS0_8RationalE(ptr sret(%"class.cvc5::internal::NodeTemplate") align 8 %p2, ptr noundef nonnull align 8 dereferenceable(3360) %0, ptr noundef nonnull align 8 dereferenceable(32) %ref.tmp)
          to label %invoke.cont unwind label %lpad

invoke.cont:                                      ; preds = %entry
  call void @_ZN4cvc58internal8RationalD2Ev(ptr noundef nonnull align 8 dereferenceable(32) %ref.tmp) #3
  %d_nm2 = getelementptr inbounds %"class.cvc5::internal::IntBlaster", ptr %this1, i32 0, i32 3
  %2 = load ptr, ptr %d_nm2, align 8
  invoke void @_ZN4cvc58internal12NodeTemplateILb0EEC2ERKNS1_ILb1EEE(ptr noundef nonnull align 8 dereferenceable(8) %agg.tmp, ptr noundef nonnull align 8 dereferenceable(8) %n)
          to label %invoke.cont4 unwind label %lpad3

invoke.cont4:                                     ; preds = %invoke.cont
  invoke void @_ZN4cvc58internal12NodeTemplateILb0EEC2ERKNS1_ILb1EEE(ptr noundef nonnull align 8 dereferenceable(8) %agg.tmp5, ptr noundef nonnull align 8 dereferenceable(8) %p2)
          to label %invoke.cont7 unwind label %lpad6

invoke.cont7:                                     ; preds = %invoke.cont4
  invoke void @_ZN4cvc58internal11NodeManager6mkNodeENS0_4kind6Kind_tENS0_12NodeTemplateILb0EEES5_(ptr sret(%"class.cvc5::internal::NodeTemplate") align 8 %agg.result, ptr noundef nonnull align 8 dereferenceable(3360) %2, i32 noundef 46, ptr noundef %agg.tmp, ptr noundef %agg.tmp5)
          to label %invoke.cont9 unwind label %lpad8

invoke.cont9:                                     ; preds = %invoke.cont7
  call void @_ZN4cvc58internal12NodeTemplateILb0EED2Ev(ptr noundef nonnull align 8 dereferenceable(8) %agg.tmp5) #3
  call void @_ZN4cvc58internal12NodeTemplateILb0EED2Ev(ptr noundef nonnull align 8 dereferenceable(8) %agg.tmp) #3
  call void @_ZN4cvc58internal12NodeTemplateILb1EED2Ev(ptr noundef nonnull align 8 dereferenceable(8) %p2) #3
  ret void

lpad:                                             ; preds = %entry
  %3 = landingpad { ptr, i32 }
          cleanup
  %4 = extractvalue { ptr, i32 } %3, 0
  store ptr %4, ptr %exn.slot, align 8
  %5 = extractvalue { ptr, i32 } %3, 1
  store i32 %5, ptr %ehselector.slot, align 4
  call void @_ZN4cvc58internal8RationalD2Ev(ptr noundef nonnull align 8 dereferenceable(32) %ref.tmp) #3
  br label %eh.resume

lpad3:                                            ; preds = %invoke.cont
  %6 = landingpad { ptr, i32 }
          cleanup
  %7 = extractvalue { ptr, i32 } %6, 0
  store ptr %7, ptr %exn.slot, align 8
  %8 = extractvalue { ptr, i32 } %6, 1
  store i32 %8, ptr %ehselector.slot, align 4
  br label %ehcleanup10

lpad6:                                            ; preds = %invoke.cont4
  %9 = landingpad { ptr, i32 }
          cleanup
  %10 = extractvalue { ptr, i32 } %9, 0
  store ptr %10, ptr %exn.slot, align 8
  %11 = extractvalue { ptr, i32 } %9, 1
  store i32 %11, ptr %ehselector.slot, align 4
  br label %ehcleanup

lpad8:                                            ; preds = %invoke.cont7
  %12 = landingpad { ptr, i32 }
          cleanup
  %13 = extractvalue { ptr, i32 } %12, 0
  store ptr %13, ptr %exn.slot, align 8
  %14 = extractvalue { ptr, i32 } %12, 1
  store i32 %14, ptr %ehselector.slot, align 4
  call void @_ZN4cvc58internal12NodeTemplateILb0EED2Ev(ptr noundef nonnull align 8 dereferenceable(8) %agg.tmp5) #3
  br label %ehcleanup

ehcleanup:                                        ; preds = %lpad8, %lpad6
  call void @_ZN4cvc58internal12NodeTemplateILb0EED2Ev(ptr noundef nonnull align 8 dereferenceable(8) %agg.tmp) #3
  br label %ehcleanup10

ehcleanup10:                                      ; preds = %ehcleanup, %lpad3
  call void @_ZN4cvc58internal12NodeTemplateILb1EED2Ev(ptr noundef nonnull align 8 dereferenceable(8) %p2) #3
  br label %eh.resume

eh.resume:                                        ; preds = %ehcleanup10, %lpad
  %exn = load ptr, ptr %exn.slot, align 8
  %sel = load i32, ptr %ehselector.slot, align 4
  %lpad.val = insertvalue { ptr, i32 } poison, ptr %exn, 0
  %lpad.val11 = insertvalue { ptr, i32 } %lpad.val, i32 %sel, 1
  resume { ptr, i32 } %lpad.val11
}

; Function Attrs: mustprogress uwtable
define hidden void @_ZN4cvc58internal10IntBlaster10makeBinaryENS0_12NodeTemplateILb1EEE(ptr noalias sret(%"class.cvc5::internal::NodeTemplate") align 8 %agg.result, ptr noundef nonnull align 8 dereferenceable(468) %this, ptr noundef %n) #4 align 2 personality ptr @__gxx_personality_v0 {
entry:
  %result.ptr = alloca ptr, align 8
  %this.addr = alloca ptr, align 8
  %n.indirect_addr = alloca ptr, align 8
  %ref.tmp = alloca %"class.cvc5::context::CDHashMap<cvc5::internal::NodeTemplate<true>, cvc5::internal::NodeTemplate<true>>::iterator", align 8
  %ref.tmp2 = alloca %"class.cvc5::context::CDHashMap<cvc5::internal::NodeTemplate<true>, cvc5::internal::NodeTemplate<true>>::iterator", align 8
  %numChildren = alloca i64, align 8
  %k = alloca i32, align 4
  %nrvo = alloca i1, align 1
  %ref.tmp19 = alloca %"class.cvc5::internal::NodeTemplate", align 8
  %exn.slot = alloca ptr, align 8
  %ehselector.slot = alloca i32, align 4
  %i = alloca i32, align 4
  %ref.tmp24 = alloca %"class.cvc5::internal::NodeTemplate", align 8
  %agg.tmp = alloca %"class.cvc5::internal::NodeTemplate.99", align 8
  %agg.tmp28 = alloca %"class.cvc5::internal::NodeTemplate.99", align 8
  %ref.tmp29 = alloca %"class.cvc5::internal::NodeTemplate", align 8
  %ref.tmp47 = alloca %"class.cvc5::internal::__cvc5_true", align 1
  %tmp = alloca %"class.cvc5::internal::Cvc5ostream", align 8
  %agg.tmp.ensured = alloca %"class.cvc5::internal::Cvc5ostream", align 8
  %ref.tmp51 = alloca %"class.cvc5::internal::Cvc5ostream", align 8
  store ptr %agg.result, ptr %result.ptr, align 8
  store ptr %this, ptr %this.addr, align 8
  store ptr %n, ptr %n.indirect_addr, align 8
  %this1 = load ptr, ptr %this.addr, align 8
  %d_binarizeCache = getelementptr inbounds %"class.cvc5::internal::IntBlaster", ptr %this1, i32 0, i32 1
  call void @_ZNK4cvc57context9CDHashMapINS_8internal12NodeTemplateILb1EEES4_St4hashIS4_EE4findERKS4_(ptr sret(%"class.cvc5::context::CDHashMap<cvc5::internal::NodeTemplate<true>, cvc5::internal::NodeTemplate<true>>::iterator") align 8 %ref.tmp, ptr noundef nonnull align 8 dereferenceable(112) %d_binarizeCache, ptr noundef nonnull align 8 dereferenceable(8) %n)
  %d_binarizeCache3 = getelementptr inbounds %"class.cvc5::internal::IntBlaster", ptr %this1, i32 0, i32 1
  call void @_ZNK4cvc57context9CDHashMapINS_8internal12NodeTemplateILb1EEES4_St4hashIS4_EE3endEv(ptr sret(%"class.cvc5::context::CDHashMap<cvc5::internal::NodeTemplate<true>, cvc5::internal::NodeTemplate<true>>::iterator") align 8 %ref.tmp2, ptr noundef nonnull align 8 dereferenceable(112) %d_binarizeCache3)
  %call = call noundef zeroext i1 @_ZNK4cvc57context9CDHashMapINS_8internal12NodeTemplateILb1EEES4_St4hashIS4_EE8iteratorneERKS8_(ptr noundef nonnull align 8 dereferenceable(8) %ref.tmp, ptr noundef nonnull align 8 dereferenceable(8) %ref.tmp2)
  br i1 %call, label %if.then, label %if.end

if.then:                                          ; preds = %entry
  %d_binarizeCache4 = getelementptr inbounds %"class.cvc5::internal::IntBlaster", ptr %this1, i32 0, i32 1
  %call5 = call noundef nonnull align 8 dereferenceable(80) ptr @_ZN4cvc57context9CDHashMapINS_8internal12NodeTemplateILb1EEES4_St4hashIS4_EEixERKS4_(ptr noundef nonnull align 8 dereferenceable(112) %d_binarizeCache4, ptr noundef nonnull align 8 dereferenceable(8) %n)
  call void @_ZN4cvc57context11CDOhash_mapINS_8internal12NodeTemplateILb1EEES4_St4hashIS4_EEcvS4_Ev(ptr sret(%"class.cvc5::internal::NodeTemplate") align 8 %agg.result, ptr noundef nonnull align 8 dereferenceable(80) %call5)
  br label %return

if.end:                                           ; preds = %entry
  %call6 = call noundef i64 @_ZNK4cvc58internal12NodeTemplateILb1EE14getNumChildrenEv(ptr noundef nonnull align 8 dereferenceable(8) %n)
  store i64 %call6, ptr %numChildren, align 8
  %call7 = call noundef i32 @_ZNK4cvc58internal12NodeTemplateILb1EE7getKindEv(ptr noundef nonnull align 8 dereferenceable(8) %n)
  store i32 %call7, ptr %k, align 4
  store i1 false, ptr %nrvo, align 1
  call void @_ZN4cvc58internal12NodeTemplateILb1EEC2ERKS2_(ptr noundef nonnull align 8 dereferenceable(8) %agg.result, ptr noundef nonnull align 8 dereferenceable(8) %n)
  %0 = load i64, ptr %numChildren, align 8
  %cmp = icmp ugt i64 %0, 2
  br i1 %cmp, label %land.lhs.true, label %if.end41

land.lhs.true:                                    ; preds = %if.end
  %1 = load i32, ptr %k, align 4
  %cmp8 = icmp eq i32 %1, 96
  br i1 %cmp8, label %if.then18, label %lor.lhs.false

lor.lhs.false:                                    ; preds = %land.lhs.true
  %2 = load i32, ptr %k, align 4
  %cmp9 = icmp eq i32 %2, 94
  br i1 %cmp9, label %if.then18, label %lor.lhs.false10

lor.lhs.false10:                                  ; preds = %lor.lhs.false
  %3 = load i32, ptr %k, align 4
  %cmp11 = icmp eq i32 %3, 86
  br i1 %cmp11, label %if.then18, label %lor.lhs.false12

lor.lhs.false12:                                  ; preds = %lor.lhs.false10
  %4 = load i32, ptr %k, align 4
  %cmp13 = icmp eq i32 %4, 88
  br i1 %cmp13, label %if.then18, label %lor.lhs.false14

lor.lhs.false14:                                  ; preds = %lor.lhs.false12
  %5 = load i32, ptr %k, align 4
  %cmp15 = icmp eq i32 %5, 89
  br i1 %cmp15, label %if.then18, label %lor.lhs.false16

lor.lhs.false16:                                  ; preds = %lor.lhs.false14
  %6 = load i32, ptr %k, align 4
  %cmp17 = icmp eq i32 %6, 85
  br i1 %cmp17, label %if.then18, label %if.end41

if.then18:                                        ; preds = %lor.lhs.false16, %lor.lhs.false14, %lor.lhs.false12, %lor.lhs.false10, %lor.lhs.false, %land.lhs.true
  invoke void @_ZNK4cvc58internal12NodeTemplateILb1EEixEi(ptr sret(%"class.cvc5::internal::NodeTemplate") align 8 %ref.tmp19, ptr noundef nonnull align 8 dereferenceable(8) %n, i32 noundef 0)
          to label %invoke.cont unwind label %lpad

invoke.cont:                                      ; preds = %if.then18
  %call22 = invoke noundef nonnull align 8 dereferenceable(8) ptr @_ZN4cvc58internal12NodeTemplateILb1EEaSERKS2_(ptr noundef nonnull align 8 dereferenceable(8) %agg.result, ptr noundef nonnull align 8 dereferenceable(8) %ref.tmp19)
          to label %invoke.cont21 unwind label %lpad20

invoke.cont21:                                    ; preds = %invoke.cont
  call void @_ZN4cvc58internal12NodeTemplateILb1EED2Ev(ptr noundef nonnull align 8 dereferenceable(8) %ref.tmp19) #3
  store i32 1, ptr %i, align 4
  br label %for.cond

for.cond:                                         ; preds = %for.inc, %invoke.cont21
  %7 = load i32, ptr %i, align 4
  %conv = zext i32 %7 to i64
  %8 = load i64, ptr %numChildren, align 8
  %cmp23 = icmp ult i64 %conv, %8
  br i1 %cmp23, label %for.body, label %for.end

for.body:                                         ; preds = %for.cond
  %d_nm = getelementptr inbounds %"class.cvc5::internal::IntBlaster", ptr %this1, i32 0, i32 3
  %9 = load ptr, ptr %d_nm, align 8
  %call26 = invoke noundef i32 @_ZNK4cvc58internal12NodeTemplateILb1EE7getKindEv(ptr noundef nonnull align 8 dereferenceable(8) %n)
          to label %invoke.cont25 unwind label %lpad

invoke.cont25:                                    ; preds = %for.body
  invoke void @_ZN4cvc58internal12NodeTemplateILb0EEC2ERKNS1_ILb1EEE(ptr noundef nonnull align 8 dereferenceable(8) %agg.tmp, ptr noundef nonnull align 8 dereferenceable(8) %agg.result)
          to label %invoke.cont27 unwind label %lpad

invoke.cont27:                                    ; preds = %invoke.cont25
  %10 = load i32, ptr %i, align 4
  invoke void @_ZNK4cvc58internal12NodeTemplateILb1EEixEi(ptr sret(%"class.cvc5::internal::NodeTemplate") align 8 %ref.tmp29, ptr noundef nonnull align 8 dereferenceable(8) %n, i32 noundef %10)
          to label %invoke.cont31 unwind label %lpad30

invoke.cont31:                                    ; preds = %invoke.cont27
  invoke void @_ZN4cvc58internal12NodeTemplateILb0EEC2ERKNS1_ILb1EEE(ptr noundef nonnull align 8 dereferenceable(8) %agg.tmp28, ptr noundef nonnull align 8 dereferenceable(8) %ref.tmp29)
          to label %invoke.cont33 unwind label %lpad32

invoke.cont33:                                    ; preds = %invoke.cont31
  invoke void @_ZN4cvc58internal11NodeManager6mkNodeENS0_4kind6Kind_tENS0_12NodeTemplateILb0EEES5_(ptr sret(%"class.cvc5::internal::NodeTemplate") align 8 %ref.tmp24, ptr noundef nonnull align 8 dereferenceable(3360) %9, i32 noundef %call26, ptr noundef %agg.tmp, ptr noundef %agg.tmp28)
          to label %invoke.cont35 unwind label %lpad34

invoke.cont35:                                    ; preds = %invoke.cont33
  %call38 = invoke noundef nonnull align 8 dereferenceable(8) ptr @_ZN4cvc58internal12NodeTemplateILb1EEaSERKS2_(ptr noundef nonnull align 8 dereferenceable(8) %agg.result, ptr noundef nonnull align 8 dereferenceable(8) %ref.tmp24)
          to label %invoke.cont37 unwind label %lpad36

invoke.cont37:                                    ; preds = %invoke.cont35
  call void @_ZN4cvc58internal12NodeTemplateILb1EED2Ev(ptr noundef nonnull align 8 dereferenceable(8) %ref.tmp24) #3
  call void @_ZN4cvc58internal12NodeTemplateILb0EED2Ev(ptr noundef nonnull align 8 dereferenceable(8) %agg.tmp28) #3
  call void @_ZN4cvc58internal12NodeTemplateILb1EED2Ev(ptr noundef nonnull align 8 dereferenceable(8) %ref.tmp29) #3
  call void @_ZN4cvc58internal12NodeTemplateILb0EED2Ev(ptr noundef nonnull align 8 dereferenceable(8) %agg.tmp) #3
  br label %for.inc

for.inc:                                          ; preds = %invoke.cont37
  %11 = load i32, ptr %i, align 4
  %inc = add i32 %11, 1
  store i32 %inc, ptr %i, align 4
  br label %for.cond, !llvm.loop !9

lpad:                                             ; preds = %invoke.cont55, %invoke.cont53, %invoke.cont52, %cond.false, %cond.true, %invoke.cont45, %invoke.cont43, %if.end41, %invoke.cont25, %for.body, %if.then18
  %12 = landingpad { ptr, i32 }
          cleanup
  %13 = extractvalue { ptr, i32 } %12, 0
  store ptr %13, ptr %exn.slot, align 8
  %14 = extractvalue { ptr, i32 } %12, 1
  store i32 %14, ptr %ehselector.slot, align 4
  br label %ehcleanup59

lpad20:                                           ; preds = %invoke.cont
  %15 = landingpad { ptr, i32 }
          cleanup
  %16 = extractvalue { ptr, i32 } %15, 0
  store ptr %16, ptr %exn.slot, align 8
  %17 = extractvalue { ptr, i32 } %15, 1
  store i32 %17, ptr %ehselector.slot, align 4
  call void @_ZN4cvc58internal12NodeTemplateILb1EED2Ev(ptr noundef nonnull align 8 dereferenceable(8) %ref.tmp19) #3
  br label %ehcleanup59

lpad30:                                           ; preds = %invoke.cont27
  %18 = landingpad { ptr, i32 }
          cleanup
  %19 = extractvalue { ptr, i32 } %18, 0
  store ptr %19, ptr %exn.slot, align 8
  %20 = extractvalue { ptr, i32 } %18, 1
  store i32 %20, ptr %ehselector.slot, align 4
  br label %ehcleanup40

lpad32:                                           ; preds = %invoke.cont31
  %21 = landingpad { ptr, i32 }
          cleanup
  %22 = extractvalue { ptr, i32 } %21, 0
  store ptr %22, ptr %exn.slot, align 8
  %23 = extractvalue { ptr, i32 } %21, 1
  store i32 %23, ptr %ehselector.slot, align 4
  br label %ehcleanup39

lpad34:                                           ; preds = %invoke.cont33
  %24 = landingpad { ptr, i32 }
          cleanup
  %25 = extractvalue { ptr, i32 } %24, 0
  store ptr %25, ptr %exn.slot, align 8
  %26 = extractvalue { ptr, i32 } %24, 1
  store i32 %26, ptr %ehselector.slot, align 4
  br label %ehcleanup

lpad36:                                           ; preds = %invoke.cont35
  %27 = landingpad { ptr, i32 }
          cleanup
  %28 = extractvalue { ptr, i32 } %27, 0
  store ptr %28, ptr %exn.slot, align 8
  %29 = extractvalue { ptr, i32 } %27, 1
  store i32 %29, ptr %ehselector.slot, align 4
  call void @_ZN4cvc58internal12NodeTemplateILb1EED2Ev(ptr noundef nonnull align 8 dereferenceable(8) %ref.tmp24) #3
  br label %ehcleanup

ehcleanup:                                        ; preds = %lpad36, %lpad34
  call void @_ZN4cvc58internal12NodeTemplateILb0EED2Ev(ptr noundef nonnull align 8 dereferenceable(8) %agg.tmp28) #3
  br label %ehcleanup39

ehcleanup39:                                      ; preds = %ehcleanup, %lpad32
  call void @_ZN4cvc58internal12NodeTemplateILb1EED2Ev(ptr noundef nonnull align 8 dereferenceable(8) %ref.tmp29) #3
  br label %ehcleanup40

ehcleanup40:                                      ; preds = %ehcleanup39, %lpad30
  call void @_ZN4cvc58internal12NodeTemplateILb0EED2Ev(ptr noundef nonnull align 8 dereferenceable(8) %agg.tmp) #3
  br label %ehcleanup59

for.end:                                          ; preds = %for.cond
  br label %if.end41

if.end41:                                         ; preds = %for.end, %lor.lhs.false16, %if.end
  %d_binarizeCache42 = getelementptr inbounds %"class.cvc5::internal::IntBlaster", ptr %this1, i32 0, i32 1
  %call44 = invoke noundef nonnull align 8 dereferenceable(80) ptr @_ZN4cvc57context9CDHashMapINS_8internal12NodeTemplateILb1EEES4_St4hashIS4_EEixERKS4_(ptr noundef nonnull align 8 dereferenceable(112) %d_binarizeCache42, ptr noundef nonnull align 8 dereferenceable(8) %n)
          to label %invoke.cont43 unwind label %lpad

invoke.cont43:                                    ; preds = %if.end41
  %call46 = invoke noundef nonnull align 8 dereferenceable(8) ptr @_ZN4cvc57context11CDOhash_mapINS_8internal12NodeTemplateILb1EEES4_St4hashIS4_EEaSERKS4_(ptr noundef nonnull align 8 dereferenceable(80) %call44, ptr noundef nonnull align 8 dereferenceable(8) %agg.result)
          to label %invoke.cont45 unwind label %lpad

invoke.cont45:                                    ; preds = %invoke.cont43
  %call49 = invoke noundef zeroext i1 @_ZN4cvc58internal11__cvc5_truecvbEv(ptr noundef nonnull align 1 dereferenceable(1) %ref.tmp47)
          to label %invoke.cont48 unwind label %lpad

invoke.cont48:                                    ; preds = %invoke.cont45
  br i1 %call49, label %cond.true, label %cond.false

cond.true:                                        ; preds = %invoke.cont48
  invoke void @_ZNK4cvc58internal5NullCcvNS0_11Cvc5ostreamEEv(ptr sret(%"class.cvc5::internal::Cvc5ostream") align 8 %tmp, ptr noundef nonnull align 1 dereferenceable(1) @_ZN4cvc58internal10nullStreamE)
          to label %invoke.cont50 unwind label %lpad

invoke.cont50:                                    ; preds = %cond.true
  br label %cond.end

cond.false:                                       ; preds = %invoke.cont48
  invoke void @_ZNK4cvc58internal6TraceCclEv(ptr sret(%"class.cvc5::internal::Cvc5ostream") align 8 %ref.tmp51, ptr noundef nonnull align 8 dereferenceable(32) @_ZN4cvc58internal12TraceChannelE)
          to label %invoke.cont52 unwind label %lpad

invoke.cont52:                                    ; preds = %cond.false
  %call54 = invoke noundef nonnull align 8 dereferenceable(24) ptr @_ZN4cvc58internal11Cvc5ostreamlsIA22_cEERS1_RKT_(ptr noundef nonnull align 8 dereferenceable(24) %ref.tmp51, ptr noundef nonnull align 1 dereferenceable(22) @.str.3)
          to label %invoke.cont53 unwind label %lpad

invoke.cont53:                                    ; preds = %invoke.cont52
  %call56 = invoke noundef nonnull align 8 dereferenceable(24) ptr @_ZN4cvc58internal11Cvc5ostreamlsINS0_12NodeTemplateILb1EEEEERS1_RKT_(ptr noundef nonnull align 8 dereferenceable(24) %call54, ptr noundef nonnull align 8 dereferenceable(8) %agg.result)
          to label %invoke.cont55 unwind label %lpad

invoke.cont55:                                    ; preds = %invoke.cont53
  %call58 = invoke noundef nonnull align 8 dereferenceable(24) ptr @_ZN4cvc58internal11Cvc5ostreamlsEPFRSoS2_E(ptr noundef nonnull align 8 dereferenceable(24) %call56, ptr noundef @_ZSt4endlIcSt11char_traitsIcEERSt13basic_ostreamIT_T0_ES6_)
          to label %invoke.cont57 unwind label %lpad

invoke.cont57:                                    ; preds = %invoke.cont55
  call void @llvm.memcpy.p0.p0.i64(ptr align 8 %agg.tmp.ensured, ptr align 8 %call58, i64 24, i1 false)
  br label %cond.end

cond.end:                                         ; preds = %invoke.cont57, %invoke.cont50
  store i1 true, ptr %nrvo, align 1
  %nrvo.val = load i1, ptr %nrvo, align 1
  br i1 %nrvo.val, label %nrvo.skipdtor, label %nrvo.unused

nrvo.unused:                                      ; preds = %cond.end
  call void @_ZN4cvc58internal12NodeTemplateILb1EED2Ev(ptr noundef nonnull align 8 dereferenceable(8) %agg.result) #3
  br label %nrvo.skipdtor

nrvo.skipdtor:                                    ; preds = %nrvo.unused, %cond.end
  br label %return

ehcleanup59:                                      ; preds = %ehcleanup40, %lpad20, %lpad
  call void @_ZN4cvc58internal12NodeTemplateILb1EED2Ev(ptr noundef nonnull align 8 dereferenceable(8) %agg.result) #3
  br label %eh.resume

return:                                           ; preds = %nrvo.skipdtor, %if.then
  ret void

eh.resume:                                        ; preds = %ehcleanup59
  %exn = load ptr, ptr %exn.slot, align 8
  %sel = load i32, ptr %ehselector.slot, align 4
  %lpad.val = insertvalue { ptr, i32 } poison, ptr %exn, 0
  %lpad.val60 = insertvalue { ptr, i32 } %lpad.val, i32 %sel, 1
  resume { ptr, i32 } %lpad.val60
}

; Function Attrs: mustprogress uwtable
define linkonce_odr hidden void @_ZNK4cvc57context9CDHashMapINS_8internal12NodeTemplateILb1EEES4_St4hashIS4_EE4findERKS4_(ptr noalias sret(%"class.cvc5::context::CDHashMap<cvc5::internal::NodeTemplate<true>, cvc5::internal::NodeTemplate<true>>::iterator") align 8 %agg.result, ptr noundef nonnull align 8 dereferenceable(112) %this, ptr noundef nonnull align 8 dereferenceable(8) %k) #4 comdat align 2 {
entry:
  %result.ptr = alloca ptr, align 8
  %this.addr = alloca ptr, align 8
  %k.addr = alloca ptr, align 8
  %i = alloca %"struct.std::__detail::_Node_const_iterator.443", align 8
  %ref.tmp = alloca %"struct.std::__detail::_Node_const_iterator.443", align 8
  store ptr %agg.result, ptr %result.ptr, align 8
  store ptr %this, ptr %this.addr, align 8
  store ptr %k, ptr %k.addr, align 8
  %this1 = load ptr, ptr %this.addr, align 8
  %d_map = getelementptr inbounds %"class.cvc5::context::CDHashMap", ptr %this1, i32 0, i32 1
  %0 = load ptr, ptr %k.addr, align 8
  %call = call ptr @_ZNKSt13unordered_mapIN4cvc58internal12NodeTemplateILb1EEEPNS0_7context11CDOhash_mapIS3_S3_St4hashIS3_EEES7_St8equal_toIS3_ESaISt4pairIKS3_S9_EEE4findERSD_(ptr noundef nonnull align 8 dereferenceable(56) %d_map, ptr noundef nonnull align 8 dereferenceable(8) %0)
  %coerce.dive = getelementptr inbounds %"struct.std::__detail::_Node_const_iterator.443", ptr %i, i32 0, i32 0
  %coerce.dive2 = getelementptr inbounds %"struct.std::__detail::_Node_iterator_base.422", ptr %coerce.dive, i32 0, i32 0
  store ptr %call, ptr %coerce.dive2, align 8
  %d_map3 = getelementptr inbounds %"class.cvc5::context::CDHashMap", ptr %this1, i32 0, i32 1
  %call4 = call ptr @_ZNKSt13unordered_mapIN4cvc58internal12NodeTemplateILb1EEEPNS0_7context11CDOhash_mapIS3_S3_St4hashIS3_EEES7_St8equal_toIS3_ESaISt4pairIKS3_S9_EEE3endEv(ptr noundef nonnull align 8 dereferenceable(56) %d_map3) #3
  %coerce.dive5 = getelementptr inbounds %"struct.std::__detail::_Node_const_iterator.443", ptr %ref.tmp, i32 0, i32 0
  %coerce.dive6 = getelementptr inbounds %"struct.std::__detail::_Node_iterator_base.422", ptr %coerce.dive5, i32 0, i32 0
  store ptr %call4, ptr %coerce.dive6, align 8
  %call7 = call noundef zeroext i1 @_ZNSt8__detaileqERKNS_19_Node_iterator_baseISt4pairIKN4cvc58internal12NodeTemplateILb1EEEPNS2_7context11CDOhash_mapIS5_S5_St4hashIS5_EEEELb1EEESG_(ptr noundef nonnull align 8 dereferenceable(8) %i, ptr noundef nonnull align 8 dereferenceable(8) %ref.tmp) #3
  br i1 %call7, label %if.then, label %if.else

if.then:                                          ; preds = %entry
  call void @_ZNK4cvc57context9CDHashMapINS_8internal12NodeTemplateILb1EEES4_St4hashIS4_EE3endEv(ptr sret(%"class.cvc5::context::CDHashMap<cvc5::internal::NodeTemplate<true>, cvc5::internal::NodeTemplate<true>>::iterator") align 8 %agg.result, ptr noundef nonnull align 8 dereferenceable(112) %this1)
  br label %return

if.else:                                          ; preds = %entry
  %call8 = call noundef nonnull align 8 dereferenceable(16) ptr @_ZNKSt8__detail20_Node_const_iteratorISt4pairIKN4cvc58internal12NodeTemplateILb1EEEPNS2_7context11CDOhash_mapIS5_S5_St4hashIS5_EEEELb0ELb1EEdeEv(ptr noundef nonnull align 8 dereferenceable(8) %i) #3
  %second = getelementptr inbounds %"struct.std::pair.423", ptr %call8, i32 0, i32 1
  %1 = load ptr, ptr %second, align 8
  call void @_ZN4cvc57context9CDHashMapINS_8internal12NodeTemplateILb1EEES4_St4hashIS4_EE8iteratorC2EPKNS0_11CDOhash_mapIS4_S4_S6_EE(ptr noundef nonnull align 8 dereferenceable(8) %agg.result, ptr noundef %1)
  br label %return

return:                                           ; preds = %if.else, %if.then
  ret void
}

; Function Attrs: mustprogress nounwind uwtable
define linkonce_odr hidden noundef zeroext i1 @_ZNK4cvc57context9CDHashMapINS_8internal12NodeTemplateILb1EEES4_St4hashIS4_EE8iteratorneERKS8_(ptr noundef nonnull align 8 dereferenceable(8) %this, ptr noundef nonnull align 8 dereferenceable(8) %i) #5 comdat align 2 {
entry:
  %this.addr = alloca ptr, align 8
  %i.addr = alloca ptr, align 8
  store ptr %this, ptr %this.addr, align 8
  store ptr %i, ptr %i.addr, align 8
  %this1 = load ptr, ptr %this.addr, align 8
  %d_it = getelementptr inbounds %"class.cvc5::context::CDHashMap<cvc5::internal::NodeTemplate<true>, cvc5::internal::NodeTemplate<true>>::iterator", ptr %this1, i32 0, i32 0
  %0 = load ptr, ptr %d_it, align 8
  %1 = load ptr, ptr %i.addr, align 8
  %d_it2 = getelementptr inbounds %"class.cvc5::context::CDHashMap<cvc5::internal::NodeTemplate<true>, cvc5::internal::NodeTemplate<true>>::iterator", ptr %1, i32 0, i32 0
  %2 = load ptr, ptr %d_it2, align 8
  %cmp = icmp ne ptr %0, %2
  ret i1 %cmp
}

; Function Attrs: mustprogress uwtable
define linkonce_odr hidden void @_ZNK4cvc57context9CDHashMapINS_8internal12NodeTemplateILb1EEES4_St4hashIS4_EE3endEv(ptr noalias sret(%"class.cvc5::context::CDHashMap<cvc5::internal::NodeTemplate<true>, cvc5::internal::NodeTemplate<true>>::iterator") align 8 %agg.result, ptr noundef nonnull align 8 dereferenceable(112) %this) #4 comdat align 2 {
entry:
  %result.ptr = alloca ptr, align 8
  %this.addr = alloca ptr, align 8
  store ptr %agg.result, ptr %result.ptr, align 8
  store ptr %this, ptr %this.addr, align 8
  call void @_ZN4cvc57context9CDHashMapINS_8internal12NodeTemplateILb1EEES4_St4hashIS4_EE8iteratorC2EPKNS0_11CDOhash_mapIS4_S4_S6_EE(ptr noundef nonnull align 8 dereferenceable(8) %agg.result, ptr noundef null)
  ret void
}

; Function Attrs: mustprogress uwtable
define linkonce_odr hidden noundef nonnull align 8 dereferenceable(80) ptr @_ZN4cvc57context9CDHashMapINS_8internal12NodeTemplateILb1EEES4_St4hashIS4_EEixERKS4_(ptr noundef nonnull align 8 dereferenceable(112) %this, ptr noundef nonnull align 8 dereferenceable(8) %k) #4 comdat align 2 personality ptr @__gxx_personality_v0 {
entry:
  %this.addr = alloca ptr, align 8
  %k.addr = alloca ptr, align 8
  %res = alloca %"struct.std::pair.444", align 8
  %ref.tmp = alloca %"struct.std::pair.423", align 8
  %ref.tmp2 = alloca ptr, align 8
  %exn.slot = alloca ptr, align 8
  %ehselector.slot = alloca i32, align 4
  %ref.tmp4 = alloca %"class.cvc5::internal::NodeTemplate", align 8
  %cleanup.isactive = alloca i1, align 1
  store ptr %this, ptr %this.addr, align 8
  store ptr %k, ptr %k.addr, align 8
  %this1 = load ptr, ptr %this.addr, align 8
  %d_map = getelementptr inbounds %"class.cvc5::context::CDHashMap", ptr %this1, i32 0, i32 1
  %0 = load ptr, ptr %k.addr, align 8
  store ptr null, ptr %ref.tmp2, align 8
  call void @_ZNSt4pairIKN4cvc58internal12NodeTemplateILb1EEEPNS0_7context11CDOhash_mapIS3_S3_St4hashIS3_EEEEC2IRS4_DnTnNSt9enable_ifIXaaclsr5_PCCPE22_MoveConstructiblePairIT_T0_EEclsr5_PCCPE30_ImplicitlyMoveConvertiblePairISF_SG_EEEbE4typeELb1EEEOSF_OSG_(ptr noundef nonnull align 8 dereferenceable(16) %ref.tmp, ptr noundef nonnull align 8 dereferenceable(8) %0, ptr noundef nonnull align 8 dereferenceable(8) %ref.tmp2)
  %call = invoke { ptr, i8 } @_ZNSt13unordered_mapIN4cvc58internal12NodeTemplateILb1EEEPNS0_7context11CDOhash_mapIS3_S3_St4hashIS3_EEES7_St8equal_toIS3_ESaISt4pairIKS3_S9_EEE6insertEOSE_(ptr noundef nonnull align 8 dereferenceable(56) %d_map, ptr noundef nonnull align 8 dereferenceable(16) %ref.tmp)
          to label %invoke.cont unwind label %lpad

invoke.cont:                                      ; preds = %entry
  %1 = getelementptr inbounds { ptr, i8 }, ptr %res, i32 0, i32 0
  %2 = extractvalue { ptr, i8 } %call, 0
  store ptr %2, ptr %1, align 8
  %3 = getelementptr inbounds { ptr, i8 }, ptr %res, i32 0, i32 1
  %4 = extractvalue { ptr, i8 } %call, 1
  store i8 %4, ptr %3, align 8
  call void @_ZNSt4pairIKN4cvc58internal12NodeTemplateILb1EEEPNS0_7context11CDOhash_mapIS3_S3_St4hashIS3_EEEED2Ev(ptr noundef nonnull align 8 dereferenceable(16) %ref.tmp) #3
  %second = getelementptr inbounds %"struct.std::pair.444", ptr %res, i32 0, i32 1
  %5 = load i8, ptr %second, align 8
  %tobool = trunc i8 %5 to i1
  br i1 %tobool, label %if.then, label %if.end

if.then:                                          ; preds = %invoke.cont
  %call3 = call noundef ptr @_ZN4cvc57context10ContextObjnwEmb(i64 noundef 80, i1 noundef zeroext true)
  store i1 true, ptr %cleanup.isactive, align 1
  %d_context = getelementptr inbounds %"class.cvc5::context::CDHashMap", ptr %this1, i32 0, i32 3
  %6 = load ptr, ptr %d_context, align 8
  %7 = load ptr, ptr %k.addr, align 8
  invoke void @_ZN4cvc58internal12NodeTemplateILb1EEC2Ev(ptr noundef nonnull align 8 dereferenceable(8) %ref.tmp4)
          to label %invoke.cont6 unwind label %lpad5

invoke.cont6:                                     ; preds = %if.then
  invoke void @_ZN4cvc57context11CDOhash_mapINS_8internal12NodeTemplateILb1EEES4_St4hashIS4_EEC2EPNS0_7ContextEPNS0_9CDHashMapIS4_S4_S6_EERKS4_SE_(ptr noundef nonnull align 8 dereferenceable(80) %call3, ptr noundef %6, ptr noundef %this1, ptr noundef nonnull align 8 dereferenceable(8) %7, ptr noundef nonnull align 8 dereferenceable(8) %ref.tmp4)
          to label %invoke.cont8 unwind label %lpad7

invoke.cont8:                                     ; preds = %invoke.cont6
  store i1 false, ptr %cleanup.isactive, align 1
  %first = getelementptr inbounds %"struct.std::pair.444", ptr %res, i32 0, i32 0
  %call9 = call noundef ptr @_ZNKSt8__detail14_Node_iteratorISt4pairIKN4cvc58internal12NodeTemplateILb1EEEPNS2_7context11CDOhash_mapIS5_S5_St4hashIS5_EEEELb0ELb1EEptEv(ptr noundef nonnull align 8 dereferenceable(8) %first) #3
  %second10 = getelementptr inbounds %"struct.std::pair.423", ptr %call9, i32 0, i32 1
  store ptr %call3, ptr %second10, align 8
  call void @_ZN4cvc58internal12NodeTemplateILb1EED2Ev(ptr noundef nonnull align 8 dereferenceable(8) %ref.tmp4) #3
  br label %if.end

lpad:                                             ; preds = %entry
  %8 = landingpad { ptr, i32 }
          cleanup
  %9 = extractvalue { ptr, i32 } %8, 0
  store ptr %9, ptr %exn.slot, align 8
  %10 = extractvalue { ptr, i32 } %8, 1
  store i32 %10, ptr %ehselector.slot, align 4
  call void @_ZNSt4pairIKN4cvc58internal12NodeTemplateILb1EEEPNS0_7context11CDOhash_mapIS3_S3_St4hashIS3_EEEED2Ev(ptr noundef nonnull align 8 dereferenceable(16) %ref.tmp) #3
  br label %eh.resume

lpad5:                                            ; preds = %if.then
  %11 = landingpad { ptr, i32 }
          cleanup
  %12 = extractvalue { ptr, i32 } %11, 0
  store ptr %12, ptr %exn.slot, align 8
  %13 = extractvalue { ptr, i32 } %11, 1
  store i32 %13, ptr %ehselector.slot, align 4
  br label %ehcleanup

lpad7:                                            ; preds = %invoke.cont6
  %14 = landingpad { ptr, i32 }
          cleanup
  %15 = extractvalue { ptr, i32 } %14, 0
  store ptr %15, ptr %exn.slot, align 8
  %16 = extractvalue { ptr, i32 } %14, 1
  store i32 %16, ptr %ehselector.slot, align 4
  call void @_ZN4cvc58internal12NodeTemplateILb1EED2Ev(ptr noundef nonnull align 8 dereferenceable(8) %ref.tmp4) #3
  br label %ehcleanup

ehcleanup:                                        ; preds = %lpad7, %lpad5
  %cleanup.is_active = load i1, ptr %cleanup.isactive, align 1
  br i1 %cleanup.is_active, label %cleanup.action, label %cleanup.done

cleanup.action:                                   ; preds = %ehcleanup
  call void @_ZN4cvc57context10ContextObjdlEPvb(ptr noundef %call3, i1 noundef zeroext true) #3
  br label %cleanup.done

cleanup.done:                                     ; preds = %cleanup.action, %ehcleanup
  br label %eh.resume

if.end:                                           ; preds = %invoke.cont8, %invoke.cont
  %first11 = getelementptr inbounds %"struct.std::pair.444", ptr %res, i32 0, i32 0
  %call12 = call noundef ptr @_ZNKSt8__detail14_Node_iteratorISt4pairIKN4cvc58internal12NodeTemplateILb1EEEPNS2_7context11CDOhash_mapIS5_S5_St4hashIS5_EEEELb0ELb1EEptEv(ptr noundef nonnull align 8 dereferenceable(8) %first11) #3
  %second13 = getelementptr inbounds %"struct.std::pair.423", ptr %call12, i32 0, i32 1
  %17 = load ptr, ptr %second13, align 8
  ret ptr %17

eh.resume:                                        ; preds = %cleanup.done, %lpad
  %exn = load ptr, ptr %exn.slot, align 8
  %sel = load i32, ptr %ehselector.slot, align 4
  %lpad.val = insertvalue { ptr, i32 } poison, ptr %exn, 0
  %lpad.val14 = insertvalue { ptr, i32 } %lpad.val, i32 %sel, 1
  resume { ptr, i32 } %lpad.val14
}

; Function Attrs: mustprogress uwtable
define linkonce_odr hidden void @_ZN4cvc57context11CDOhash_mapINS_8internal12NodeTemplateILb1EEES4_St4hashIS4_EEcvS4_Ev(ptr noalias sret(%"class.cvc5::internal::NodeTemplate") align 8 %agg.result, ptr noundef nonnull align 8 dereferenceable(80) %this) #4 comdat align 2 {
entry:
  %result.ptr = alloca ptr, align 8
  %this.addr = alloca ptr, align 8
  store ptr %agg.result, ptr %result.ptr, align 8
  store ptr %this, ptr %this.addr, align 8
  %this1 = load ptr, ptr %this.addr, align 8
  %call = call noundef nonnull align 8 dereferenceable(8) ptr @_ZNK4cvc57context11CDOhash_mapINS_8internal12NodeTemplateILb1EEES4_St4hashIS4_EE3getEv(ptr noundef nonnull align 8 dereferenceable(80) %this1)
  call void @_ZN4cvc58internal12NodeTemplateILb1EEC2ERKS2_(ptr noundef nonnull align 8 dereferenceable(8) %agg.result, ptr noundef nonnull align 8 dereferenceable(8) %call)
  ret void
}

; Function Attrs: mustprogress uwtable
define linkonce_odr hidden noundef i64 @_ZNK4cvc58internal12NodeTemplateILb1EE14getNumChildrenEv(ptr noundef nonnull align 8 dereferenceable(8) %this) #4 comdat align 2 {
entry:
  %this.addr = alloca ptr, align 8
  store ptr %this, ptr %this.addr, align 8
  %this1 = load ptr, ptr %this.addr, align 8
  call void @_ZNK4cvc58internal12NodeTemplateILb1EE21assertTNodeNotExpiredEv(ptr noundef nonnull align 8 dereferenceable(8) %this1)
  %d_nv = getelementptr inbounds %"class.cvc5::internal::NodeTemplate", ptr %this1, i32 0, i32 0
  %0 = load ptr, ptr %d_nv, align 8
  %call = call noundef i32 @_ZNK4cvc58internal4expr9NodeValue14getNumChildrenEv(ptr noundef nonnull align 8 dereferenceable(16) %0)
  %conv = zext i32 %call to i64
  ret i64 %conv
}

; Function Attrs: mustprogress nounwind uwtable
define linkonce_odr hidden noundef i32 @_ZNK4cvc58internal12NodeTemplateILb1EE7getKindEv(ptr noundef nonnull align 8 dereferenceable(8) %this) #5 comdat align 2 {
entry:
  %this.addr = alloca ptr, align 8
  store ptr %this, ptr %this.addr, align 8
  %this1 = load ptr, ptr %this.addr, align 8
  call void @_ZNK4cvc58internal12NodeTemplateILb1EE21assertTNodeNotExpiredEv(ptr noundef nonnull align 8 dereferenceable(8) %this1)
  %d_nv = getelementptr inbounds %"class.cvc5::internal::NodeTemplate", ptr %this1, i32 0, i32 0
  %0 = load ptr, ptr %d_nv, align 8
  %d_kind = getelementptr inbounds %"class.cvc5::internal::expr::NodeValue", ptr %0, i32 0, i32 1
  %bf.load = load i16, ptr %d_kind, align 8
  %bf.clear = and i16 %bf.load, 1023
  %bf.cast = zext i16 %bf.clear to i32
  ret i32 %bf.cast
}

; Function Attrs: mustprogress uwtable
define linkonce_odr hidden void @_ZNK4cvc58internal12NodeTemplateILb1EEixEi(ptr noalias sret(%"class.cvc5::internal::NodeTemplate") align 8 %agg.result, ptr noundef nonnull align 8 dereferenceable(8) %this, i32 noundef %i) #4 comdat align 2 {
entry:
  %result.ptr = alloca ptr, align 8
  %this.addr = alloca ptr, align 8
  %i.addr = alloca i32, align 4
  store ptr %agg.result, ptr %result.ptr, align 8
  store ptr %this, ptr %this.addr, align 8
  store i32 %i, ptr %i.addr, align 4
  %this1 = load ptr, ptr %this.addr, align 8
  call void @_ZNK4cvc58internal12NodeTemplateILb1EE21assertTNodeNotExpiredEv(ptr noundef nonnull align 8 dereferenceable(8) %this1)
  %d_nv = getelementptr inbounds %"class.cvc5::internal::NodeTemplate", ptr %this1, i32 0, i32 0
  %0 = load ptr, ptr %d_nv, align 8
  %1 = load i32, ptr %i.addr, align 4
  %call = call noundef ptr @_ZNK4cvc58internal4expr9NodeValue8getChildEi(ptr noundef nonnull align 8 dereferenceable(16) %0, i32 noundef %1)
  call void @_ZN4cvc58internal12NodeTemplateILb1EEC2EPKNS0_4expr9NodeValueE(ptr noundef nonnull align 8 dereferenceable(8) %agg.result, ptr noundef %call)
  ret void
}

; Function Attrs: mustprogress uwtable
define linkonce_odr hidden noundef nonnull align 8 dereferenceable(8) ptr @_ZN4cvc57context11CDOhash_mapINS_8internal12NodeTemplateILb1EEES4_St4hashIS4_EEaSERKS4_(ptr noundef nonnull align 8 dereferenceable(80) %this, ptr noundef nonnull align 8 dereferenceable(8) %data) #4 comdat align 2 {
entry:
  %this.addr = alloca ptr, align 8
  %data.addr = alloca ptr, align 8
  store ptr %this, ptr %this.addr, align 8
  store ptr %data, ptr %data.addr, align 8
  %this1 = load ptr, ptr %this.addr, align 8
  %0 = load ptr, ptr %data.addr, align 8
  call void @_ZN4cvc57context11CDOhash_mapINS_8internal12NodeTemplateILb1EEES4_St4hashIS4_EE3setERKS4_(ptr noundef nonnull align 8 dereferenceable(80) %this1, ptr noundef nonnull align 8 dereferenceable(8) %0)
  %1 = load ptr, ptr %data.addr, align 8
  ret ptr %1
}

; Function Attrs: mustprogress uwtable
define linkonce_odr hidden noundef nonnull align 8 dereferenceable(24) ptr @_ZN4cvc58internal11Cvc5ostreamlsIA22_cEERS1_RKT_(ptr noundef nonnull align 8 dereferenceable(24) %this, ptr noundef nonnull align 1 dereferenceable(22) %t) #4 comdat align 2 {
entry:
  %this.addr = alloca ptr, align 8
  %t.addr = alloca ptr, align 8
  %indent = alloca i64, align 8
  %i = alloca i64, align 8
  store ptr %this, ptr %this.addr, align 8
  store ptr %t, ptr %t.addr, align 8
  %this1 = load ptr, ptr %this.addr, align 8
  %d_os = getelementptr inbounds %"class.cvc5::internal::Cvc5ostream", ptr %this1, i32 0, i32 0
  %0 = load ptr, ptr %d_os, align 8
  %cmp = icmp ne ptr %0, null
  br i1 %cmp, label %if.then, label %if.end11

if.then:                                          ; preds = %entry
  %d_firstColumn = getelementptr inbounds %"class.cvc5::internal::Cvc5ostream", ptr %this1, i32 0, i32 1
  %1 = load i8, ptr %d_firstColumn, align 8
  %tobool = trunc i8 %1 to i1
  br i1 %tobool, label %if.then2, label %if.end

if.then2:                                         ; preds = %if.then
  %d_firstColumn3 = getelementptr inbounds %"class.cvc5::internal::Cvc5ostream", ptr %this1, i32 0, i32 1
  store i8 0, ptr %d_firstColumn3, align 8
  %d_os4 = getelementptr inbounds %"class.cvc5::internal::Cvc5ostream", ptr %this1, i32 0, i32 0
  %2 = load ptr, ptr %d_os4, align 8
  %vtable = load ptr, ptr %2, align 8
  %vbase.offset.ptr = getelementptr i8, ptr %vtable, i64 -24
  %vbase.offset = load i64, ptr %vbase.offset.ptr, align 8
  %add.ptr = getelementptr inbounds i8, ptr %2, i64 %vbase.offset
  %3 = load i32, ptr @_ZN4cvc58internal11Cvc5ostream16s_indentIosIndexE, align 4
  %call = call noundef nonnull align 8 dereferenceable(8) ptr @_ZNSt8ios_base5iwordEi(ptr noundef nonnull align 8 dereferenceable(216) %add.ptr, i32 noundef %3)
  %4 = load i64, ptr %call, align 8
  store i64 %4, ptr %indent, align 8
  store i64 0, ptr %i, align 8
  br label %for.cond

for.cond:                                         ; preds = %for.inc, %if.then2
  %5 = load i64, ptr %i, align 8
  %6 = load i64, ptr %indent, align 8
  %cmp5 = icmp slt i64 %5, %6
  br i1 %cmp5, label %for.body, label %for.end

for.body:                                         ; preds = %for.cond
  %d_os6 = getelementptr inbounds %"class.cvc5::internal::Cvc5ostream", ptr %this1, i32 0, i32 0
  %7 = load ptr, ptr %d_os6, align 8
  %call7 = call noundef nonnull align 8 dereferenceable(8) ptr @_ZStlsIcSt11char_traitsIcESaIcEERSt13basic_ostreamIT_T0_ES7_RKNSt7__cxx1112basic_stringIS4_S5_T1_EE(ptr noundef nonnull align 8 dereferenceable(8) %7, ptr noundef nonnull align 8 dereferenceable(32) @_ZN4cvc58internal11Cvc5ostream5s_tabB5cxx11E)
  %d_os8 = getelementptr inbounds %"class.cvc5::internal::Cvc5ostream", ptr %this1, i32 0, i32 0
  store ptr %call7, ptr %d_os8, align 8
  br label %for.inc

for.inc:                                          ; preds = %for.body
  %8 = load i64, ptr %i, align 8
  %inc = add nsw i64 %8, 1
  store i64 %inc, ptr %i, align 8
  br label %for.cond, !llvm.loop !10

for.end:                                          ; preds = %for.cond
  br label %if.end

if.end:                                           ; preds = %for.end, %if.then
  %d_os9 = getelementptr inbounds %"class.cvc5::internal::Cvc5ostream", ptr %this1, i32 0, i32 0
  %9 = load ptr, ptr %d_os9, align 8
  %10 = load ptr, ptr %t.addr, align 8
  %arraydecay = getelementptr inbounds [22 x i8], ptr %10, i64 0, i64 0
  %call10 = call noundef nonnull align 8 dereferenceable(8) ptr @_ZStlsISt11char_traitsIcEERSt13basic_ostreamIcT_ES5_PKc(ptr noundef nonnull align 8 dereferenceable(8) %9, ptr noundef %arraydecay)
  br label %if.end11

if.end11:                                         ; preds = %if.end, %entry
  ret ptr %this1
}

; Function Attrs: mustprogress uwtable
define hidden void @_ZN4cvc58internal10IntBlaster8intBlastENS0_12NodeTemplateILb1EEERSt6vectorIS3_SaIS3_EERSt3mapIS3_S3_St4lessIS3_ESaISt4pairIKS3_S3_EEE(ptr noalias sret(%"class.cvc5::internal::NodeTemplate") align 8 %agg.result, ptr noundef nonnull align 8 dereferenceable(468) %this, ptr noundef %n, ptr noundef nonnull align 8 dereferenceable(24) %lemmas, ptr noundef nonnull align 8 dereferenceable(48) %skolems) #4 align 2 personality ptr @__gxx_personality_v0 {
entry:
  %result.ptr = alloca ptr, align 8
  %this.addr = alloca ptr, align 8
  %n.indirect_addr = alloca ptr, align 8
  %lemmas.addr = alloca ptr, align 8
  %skolems.addr = alloca ptr, align 8
  %ref.tmp = alloca %"class.cvc5::internal::NodeTemplate", align 8
  %agg.tmp = alloca %"class.cvc5::internal::NodeTemplate.99", align 8
  %exn.slot = alloca ptr, align 8
  %ehselector.slot = alloca i32, align 4
  %toVisit = alloca %"class.std::vector.94", align 8
  %ref.tmp4 = alloca %"class.cvc5::internal::NodeTemplate", align 8
  %agg.tmp5 = alloca %"class.cvc5::internal::NodeTemplate", align 8
  %current = alloca %"class.cvc5::internal::NodeTemplate", align 8
  %ref.tmp17 = alloca %"class.cvc5::internal::__cvc5_true", align 1
  %tmp = alloca %"class.cvc5::internal::Cvc5ostream", align 8
  %agg.tmp.ensured = alloca %"class.cvc5::internal::Cvc5ostream", align 8
  %ref.tmp22 = alloca %"class.cvc5::internal::Cvc5ostream", align 8
  %currentNumChildren = alloca i64, align 8
  %ref.tmp32 = alloca %"class.cvc5::context::CDHashMap<cvc5::internal::NodeTemplate<true>, cvc5::internal::NodeTemplate<true>>::iterator", align 8
  %ref.tmp34 = alloca %"class.cvc5::context::CDHashMap<cvc5::internal::NodeTemplate<true>, cvc5::internal::NodeTemplate<true>>::iterator", align 8
  %ref.tmp39 = alloca %"class.cvc5::internal::NodeTemplate", align 8
  %__range4 = alloca ptr, align 8
  %__begin4 = alloca %"class.cvc5::internal::expr::NodeValue::iterator", align 8
  %__end4 = alloca %"class.cvc5::internal::expr::NodeValue::iterator", align 8
  %child = alloca ptr, align 8
  %ref.tmp55 = alloca %"class.cvc5::internal::NodeTemplate", align 8
  %ref.tmp57 = alloca %"class.cvc5::internal::NodeTemplate", align 8
  %agg.tmp58 = alloca %"class.cvc5::internal::NodeTemplate", align 8
  %ref.tmp73 = alloca %"class.cvc5::internal::NodeTemplate", align 8
  %translation = alloca %"class.cvc5::internal::NodeTemplate", align 8
  %ref.tmp90 = alloca %"class.cvc5::internal::NodeTemplate", align 8
  %agg.tmp91 = alloca %"class.cvc5::internal::NodeTemplate", align 8
  %translated_children = alloca %"class.std::vector.94", align 8
  %ref.tmp107 = alloca %"class.cvc5::internal::NodeTemplate", align 8
  %ref.tmp109 = alloca %"class.cvc5::internal::NodeTemplate", align 8
  %__range6 = alloca ptr, align 8
  %__begin6 = alloca %"class.cvc5::internal::expr::NodeValue::iterator", align 8
  %__end6 = alloca %"class.cvc5::internal::expr::NodeValue::iterator", align 8
  %cc = alloca ptr, align 8
  %ref.tmp130 = alloca %"class.cvc5::internal::NodeTemplate", align 8
  %ccb = alloca %"class.cvc5::internal::NodeTemplate", align 8
  %agg.tmp132 = alloca %"class.cvc5::internal::NodeTemplate", align 8
  %ref.tmp138 = alloca %"class.cvc5::internal::NodeTemplate", align 8
  %ref.tmp153 = alloca %"class.cvc5::internal::NodeTemplate", align 8
  %agg.tmp154 = alloca %"class.cvc5::internal::NodeTemplate", align 8
  store ptr %agg.result, ptr %result.ptr, align 8
  store ptr %this, ptr %this.addr, align 8
  store ptr %n, ptr %n.indirect_addr, align 8
  store ptr %lemmas, ptr %lemmas.addr, align 8
  store ptr %skolems, ptr %skolems.addr, align 8
  %this1 = load ptr, ptr %this.addr, align 8
  call void @_ZN4cvc58internal12NodeTemplateILb0EEC2ERKNS1_ILb1EEE(ptr noundef nonnull align 8 dereferenceable(8) %agg.tmp, ptr noundef nonnull align 8 dereferenceable(8) %n)
  invoke void @_ZNK4cvc58internal6EnvObj7rewriteENS0_12NodeTemplateILb0EEE(ptr sret(%"class.cvc5::internal::NodeTemplate") align 8 %ref.tmp, ptr noundef nonnull align 8 dereferenceable(16) %this1, ptr noundef %agg.tmp)
          to label %invoke.cont unwind label %lpad

invoke.cont:                                      ; preds = %entry
  %call = invoke noundef nonnull align 8 dereferenceable(8) ptr @_ZN4cvc58internal12NodeTemplateILb1EEaSERKS2_(ptr noundef nonnull align 8 dereferenceable(8) %n, ptr noundef nonnull align 8 dereferenceable(8) %ref.tmp)
          to label %invoke.cont3 unwind label %lpad2

invoke.cont3:                                     ; preds = %invoke.cont
  call void @_ZN4cvc58internal12NodeTemplateILb1EED2Ev(ptr noundef nonnull align 8 dereferenceable(8) %ref.tmp) #3
  call void @_ZN4cvc58internal12NodeTemplateILb0EED2Ev(ptr noundef nonnull align 8 dereferenceable(8) %agg.tmp) #3
  call void @_ZNSt6vectorIN4cvc58internal12NodeTemplateILb1EEESaIS3_EEC2Ev(ptr noundef nonnull align 8 dereferenceable(24) %toVisit) #3
  invoke void @_ZN4cvc58internal12NodeTemplateILb1EEC2ERKS2_(ptr noundef nonnull align 8 dereferenceable(8) %agg.tmp5, ptr noundef nonnull align 8 dereferenceable(8) %n)
          to label %invoke.cont7 unwind label %lpad6

invoke.cont7:                                     ; preds = %invoke.cont3
  invoke void @_ZN4cvc58internal10IntBlaster10makeBinaryENS0_12NodeTemplateILb1EEE(ptr sret(%"class.cvc5::internal::NodeTemplate") align 8 %ref.tmp4, ptr noundef nonnull align 8 dereferenceable(468) %this1, ptr noundef %agg.tmp5)
          to label %invoke.cont9 unwind label %lpad8

invoke.cont9:                                     ; preds = %invoke.cont7
  invoke void @_ZNSt6vectorIN4cvc58internal12NodeTemplateILb1EEESaIS3_EE9push_backEOS3_(ptr noundef nonnull align 8 dereferenceable(24) %toVisit, ptr noundef nonnull align 8 dereferenceable(8) %ref.tmp4)
          to label %invoke.cont11 unwind label %lpad10

invoke.cont11:                                    ; preds = %invoke.cont9
  call void @_ZN4cvc58internal12NodeTemplateILb1EED2Ev(ptr noundef nonnull align 8 dereferenceable(8) %ref.tmp4) #3
  call void @_ZN4cvc58internal12NodeTemplateILb1EED2Ev(ptr noundef nonnull align 8 dereferenceable(8) %agg.tmp5) #3
  br label %while.cond

while.cond:                                       ; preds = %if.end177, %invoke.cont11
  %call14 = call noundef zeroext i1 @_ZNKSt6vectorIN4cvc58internal12NodeTemplateILb1EEESaIS3_EE5emptyEv(ptr noundef nonnull align 8 dereferenceable(24) %toVisit) #3
  %lnot = xor i1 %call14, true
  br i1 %lnot, label %while.body, label %while.end

while.body:                                       ; preds = %while.cond
  %call15 = call noundef nonnull align 8 dereferenceable(8) ptr @_ZNSt6vectorIN4cvc58internal12NodeTemplateILb1EEESaIS3_EE4backEv(ptr noundef nonnull align 8 dereferenceable(24) %toVisit) #3
  invoke void @_ZN4cvc58internal12NodeTemplateILb1EEC2ERKS2_(ptr noundef nonnull align 8 dereferenceable(8) %current, ptr noundef nonnull align 8 dereferenceable(8) %call15)
          to label %invoke.cont16 unwind label %lpad6

invoke.cont16:                                    ; preds = %while.body
  %call20 = invoke noundef zeroext i1 @_ZN4cvc58internal11__cvc5_truecvbEv(ptr noundef nonnull align 1 dereferenceable(1) %ref.tmp17)
          to label %invoke.cont19 unwind label %lpad18

invoke.cont19:                                    ; preds = %invoke.cont16
  br i1 %call20, label %cond.true, label %cond.false

cond.true:                                        ; preds = %invoke.cont19
  invoke void @_ZNK4cvc58internal5NullCcvNS0_11Cvc5ostreamEEv(ptr sret(%"class.cvc5::internal::Cvc5ostream") align 8 %tmp, ptr noundef nonnull align 1 dereferenceable(1) @_ZN4cvc58internal10nullStreamE)
          to label %invoke.cont21 unwind label %lpad18

invoke.cont21:                                    ; preds = %cond.true
  br label %cond.end

cond.false:                                       ; preds = %invoke.cont19
  invoke void @_ZNK4cvc58internal6TraceCclEv(ptr sret(%"class.cvc5::internal::Cvc5ostream") align 8 %ref.tmp22, ptr noundef nonnull align 8 dereferenceable(32) @_ZN4cvc58internal12TraceChannelE)
          to label %invoke.cont23 unwind label %lpad18

invoke.cont23:                                    ; preds = %cond.false
  %call25 = invoke noundef nonnull align 8 dereferenceable(24) ptr @_ZN4cvc58internal11Cvc5ostreamlsIA10_cEERS1_RKT_(ptr noundef nonnull align 8 dereferenceable(24) %ref.tmp22, ptr noundef nonnull align 1 dereferenceable(10) @.str.4)
          to label %invoke.cont24 unwind label %lpad18

invoke.cont24:                                    ; preds = %invoke.cont23
  %call27 = invoke noundef nonnull align 8 dereferenceable(24) ptr @_ZN4cvc58internal11Cvc5ostreamlsINS0_12NodeTemplateILb1EEEEERS1_RKT_(ptr noundef nonnull align 8 dereferenceable(24) %call25, ptr noundef nonnull align 8 dereferenceable(8) %current)
          to label %invoke.cont26 unwind label %lpad18

invoke.cont26:                                    ; preds = %invoke.cont24
  %call29 = invoke noundef nonnull align 8 dereferenceable(24) ptr @_ZN4cvc58internal11Cvc5ostreamlsEPFRSoS2_E(ptr noundef nonnull align 8 dereferenceable(24) %call27, ptr noundef @_ZSt4endlIcSt11char_traitsIcEERSt13basic_ostreamIT_T0_ES6_)
          to label %invoke.cont28 unwind label %lpad18

invoke.cont28:                                    ; preds = %invoke.cont26
  call void @llvm.memcpy.p0.p0.i64(ptr align 8 %agg.tmp.ensured, ptr align 8 %call29, i64 24, i1 false)
  br label %cond.end

cond.end:                                         ; preds = %invoke.cont28, %invoke.cont21
  %call31 = invoke noundef i64 @_ZNK4cvc58internal12NodeTemplateILb1EE14getNumChildrenEv(ptr noundef nonnull align 8 dereferenceable(8) %current)
          to label %invoke.cont30 unwind label %lpad18

invoke.cont30:                                    ; preds = %cond.end
  store i64 %call31, ptr %currentNumChildren, align 8
  %d_intblastCache = getelementptr inbounds %"class.cvc5::internal::IntBlaster", ptr %this1, i32 0, i32 2
  invoke void @_ZNK4cvc57context9CDHashMapINS_8internal12NodeTemplateILb1EEES4_St4hashIS4_EE4findERKS4_(ptr sret(%"class.cvc5::context::CDHashMap<cvc5::internal::NodeTemplate<true>, cvc5::internal::NodeTemplate<true>>::iterator") align 8 %ref.tmp32, ptr noundef nonnull align 8 dereferenceable(112) %d_intblastCache, ptr noundef nonnull align 8 dereferenceable(8) %current)
          to label %invoke.cont33 unwind label %lpad18

invoke.cont33:                                    ; preds = %invoke.cont30
  %d_intblastCache35 = getelementptr inbounds %"class.cvc5::internal::IntBlaster", ptr %this1, i32 0, i32 2
  invoke void @_ZNK4cvc57context9CDHashMapINS_8internal12NodeTemplateILb1EEES4_St4hashIS4_EE3endEv(ptr sret(%"class.cvc5::context::CDHashMap<cvc5::internal::NodeTemplate<true>, cvc5::internal::NodeTemplate<true>>::iterator") align 8 %ref.tmp34, ptr noundef nonnull align 8 dereferenceable(112) %d_intblastCache35)
          to label %invoke.cont36 unwind label %lpad18

invoke.cont36:                                    ; preds = %invoke.cont33
  %call38 = invoke noundef zeroext i1 @_ZNK4cvc57context9CDHashMapINS_8internal12NodeTemplateILb1EEES4_St4hashIS4_EE8iteratoreqERKS8_(ptr noundef nonnull align 8 dereferenceable(8) %ref.tmp32, ptr noundef nonnull align 8 dereferenceable(8) %ref.tmp34)
          to label %invoke.cont37 unwind label %lpad18

invoke.cont37:                                    ; preds = %invoke.cont36
  br i1 %call38, label %if.then, label %if.else

if.then:                                          ; preds = %invoke.cont37
  invoke void @_ZN4cvc58internal12NodeTemplateILb1EEC2Ev(ptr noundef nonnull align 8 dereferenceable(8) %ref.tmp39)
          to label %invoke.cont40 unwind label %lpad18

invoke.cont40:                                    ; preds = %if.then
  %d_intblastCache41 = getelementptr inbounds %"class.cvc5::internal::IntBlaster", ptr %this1, i32 0, i32 2
  %call44 = invoke noundef nonnull align 8 dereferenceable(80) ptr @_ZN4cvc57context9CDHashMapINS_8internal12NodeTemplateILb1EEES4_St4hashIS4_EEixERKS4_(ptr noundef nonnull align 8 dereferenceable(112) %d_intblastCache41, ptr noundef nonnull align 8 dereferenceable(8) %current)
          to label %invoke.cont43 unwind label %lpad42

invoke.cont43:                                    ; preds = %invoke.cont40
  %call46 = invoke noundef nonnull align 8 dereferenceable(8) ptr @_ZN4cvc57context11CDOhash_mapINS_8internal12NodeTemplateILb1EEES4_St4hashIS4_EEaSERKS4_(ptr noundef nonnull align 8 dereferenceable(80) %call44, ptr noundef nonnull align 8 dereferenceable(8) %ref.tmp39)
          to label %invoke.cont45 unwind label %lpad42

invoke.cont45:                                    ; preds = %invoke.cont43
  call void @_ZN4cvc58internal12NodeTemplateILb1EED2Ev(ptr noundef nonnull align 8 dereferenceable(8) %ref.tmp39) #3
  store ptr %current, ptr %__range4, align 8
  %0 = load ptr, ptr %__range4, align 8
  %call49 = invoke ptr @_ZN4cvc58internal12NodeTemplateILb1EE5beginEv(ptr noundef nonnull align 8 dereferenceable(8) %0)
          to label %invoke.cont48 unwind label %lpad18

invoke.cont48:                                    ; preds = %invoke.cont45
  %coerce.dive = getelementptr inbounds %"class.cvc5::internal::expr::NodeValue::iterator", ptr %__begin4, i32 0, i32 0
  store ptr %call49, ptr %coerce.dive, align 8
  %1 = load ptr, ptr %__range4, align 8
  %call51 = invoke ptr @_ZN4cvc58internal12NodeTemplateILb1EE3endEv(ptr noundef nonnull align 8 dereferenceable(8) %1)
          to label %invoke.cont50 unwind label %lpad18

invoke.cont50:                                    ; preds = %invoke.cont48
  %coerce.dive52 = getelementptr inbounds %"class.cvc5::internal::expr::NodeValue::iterator", ptr %__end4, i32 0, i32 0
  store ptr %call51, ptr %coerce.dive52, align 8
  br label %for.cond

for.cond:                                         ; preds = %invoke.cont68, %invoke.cont50
  %call54 = invoke noundef zeroext i1 @_ZNK4cvc58internal4expr9NodeValue8iteratorINS0_12NodeTemplateILb1EEEEneERKS6_(ptr noundef nonnull align 8 dereferenceable(8) %__begin4, ptr noundef nonnull align 8 dereferenceable(8) %__end4)
          to label %invoke.cont53 unwind label %lpad18

invoke.cont53:                                    ; preds = %for.cond
  br i1 %call54, label %for.body, label %for.end

for.body:                                         ; preds = %invoke.cont53
  invoke void @_ZNK4cvc58internal4expr9NodeValue8iteratorINS0_12NodeTemplateILb1EEEEdeEv(ptr sret(%"class.cvc5::internal::NodeTemplate") align 8 %ref.tmp55, ptr noundef nonnull align 8 dereferenceable(8) %__begin4)
          to label %invoke.cont56 unwind label %lpad18

invoke.cont56:                                    ; preds = %for.body
  store ptr %ref.tmp55, ptr %child, align 8
  %2 = load ptr, ptr %child, align 8
  invoke void @_ZN4cvc58internal12NodeTemplateILb1EEC2ERKS2_(ptr noundef nonnull align 8 dereferenceable(8) %agg.tmp58, ptr noundef nonnull align 8 dereferenceable(8) %2)
          to label %invoke.cont60 unwind label %lpad59

invoke.cont60:                                    ; preds = %invoke.cont56
  invoke void @_ZN4cvc58internal10IntBlaster10makeBinaryENS0_12NodeTemplateILb1EEE(ptr sret(%"class.cvc5::internal::NodeTemplate") align 8 %ref.tmp57, ptr noundef nonnull align 8 dereferenceable(468) %this1, ptr noundef %agg.tmp58)
          to label %invoke.cont62 unwind label %lpad61

invoke.cont62:                                    ; preds = %invoke.cont60
  invoke void @_ZNSt6vectorIN4cvc58internal12NodeTemplateILb1EEESaIS3_EE9push_backEOS3_(ptr noundef nonnull align 8 dereferenceable(24) %toVisit, ptr noundef nonnull align 8 dereferenceable(8) %ref.tmp57)
          to label %invoke.cont64 unwind label %lpad63

invoke.cont64:                                    ; preds = %invoke.cont62
  call void @_ZN4cvc58internal12NodeTemplateILb1EED2Ev(ptr noundef nonnull align 8 dereferenceable(8) %ref.tmp57) #3
  call void @_ZN4cvc58internal12NodeTemplateILb1EED2Ev(ptr noundef nonnull align 8 dereferenceable(8) %agg.tmp58) #3
  call void @_ZN4cvc58internal12NodeTemplateILb1EED2Ev(ptr noundef nonnull align 8 dereferenceable(8) %ref.tmp55) #3
  br label %for.inc

for.inc:                                          ; preds = %invoke.cont64
  %call69 = invoke noundef nonnull align 8 dereferenceable(8) ptr @_ZN4cvc58internal4expr9NodeValue8iteratorINS0_12NodeTemplateILb1EEEEppEv(ptr noundef nonnull align 8 dereferenceable(8) %__begin4)
          to label %invoke.cont68 unwind label %lpad18

invoke.cont68:                                    ; preds = %for.inc
  br label %for.cond

lpad:                                             ; preds = %entry
  %3 = landingpad { ptr, i32 }
          cleanup
  %4 = extractvalue { ptr, i32 } %3, 0
  store ptr %4, ptr %exn.slot, align 8
  %5 = extractvalue { ptr, i32 } %3, 1
  store i32 %5, ptr %ehselector.slot, align 4
  br label %ehcleanup

lpad2:                                            ; preds = %invoke.cont
  %6 = landingpad { ptr, i32 }
          cleanup
  %7 = extractvalue { ptr, i32 } %6, 0
  store ptr %7, ptr %exn.slot, align 8
  %8 = extractvalue { ptr, i32 } %6, 1
  store i32 %8, ptr %ehselector.slot, align 4
  call void @_ZN4cvc58internal12NodeTemplateILb1EED2Ev(ptr noundef nonnull align 8 dereferenceable(8) %ref.tmp) #3
  br label %ehcleanup

ehcleanup:                                        ; preds = %lpad2, %lpad
  call void @_ZN4cvc58internal12NodeTemplateILb0EED2Ev(ptr noundef nonnull align 8 dereferenceable(8) %agg.tmp) #3
  br label %eh.resume

lpad6:                                            ; preds = %invoke.cont182, %invoke.cont180, %while.end, %while.body, %invoke.cont3
  %9 = landingpad { ptr, i32 }
          cleanup
  %10 = extractvalue { ptr, i32 } %9, 0
  store ptr %10, ptr %exn.slot, align 8
  %11 = extractvalue { ptr, i32 } %9, 1
  store i32 %11, ptr %ehselector.slot, align 4
  br label %ehcleanup185

lpad8:                                            ; preds = %invoke.cont7
  %12 = landingpad { ptr, i32 }
          cleanup
  %13 = extractvalue { ptr, i32 } %12, 0
  store ptr %13, ptr %exn.slot, align 8
  %14 = extractvalue { ptr, i32 } %12, 1
  store i32 %14, ptr %ehselector.slot, align 4
  br label %ehcleanup13

lpad10:                                           ; preds = %invoke.cont9
  %15 = landingpad { ptr, i32 }
          cleanup
  %16 = extractvalue { ptr, i32 } %15, 0
  store ptr %16, ptr %exn.slot, align 8
  %17 = extractvalue { ptr, i32 } %15, 1
  store i32 %17, ptr %ehselector.slot, align 4
  call void @_ZN4cvc58internal12NodeTemplateILb1EED2Ev(ptr noundef nonnull align 8 dereferenceable(8) %ref.tmp4) #3
  br label %ehcleanup13

ehcleanup13:                                      ; preds = %lpad10, %lpad8
  call void @_ZN4cvc58internal12NodeTemplateILb1EED2Ev(ptr noundef nonnull align 8 dereferenceable(8) %agg.tmp5) #3
  br label %ehcleanup185

lpad18:                                           ; preds = %if.else86, %invoke.cont81, %invoke.cont79, %if.else, %if.then72, %for.end, %for.inc, %for.body, %for.cond, %invoke.cont48, %invoke.cont45, %if.then, %invoke.cont36, %invoke.cont33, %invoke.cont30, %cond.end, %invoke.cont26, %invoke.cont24, %invoke.cont23, %cond.false, %cond.true, %invoke.cont16
  %18 = landingpad { ptr, i32 }
          cleanup
  %19 = extractvalue { ptr, i32 } %18, 0
  store ptr %19, ptr %exn.slot, align 8
  %20 = extractvalue { ptr, i32 } %18, 1
  store i32 %20, ptr %ehselector.slot, align 4
  br label %ehcleanup178

lpad42:                                           ; preds = %invoke.cont43, %invoke.cont40
  %21 = landingpad { ptr, i32 }
          cleanup
  %22 = extractvalue { ptr, i32 } %21, 0
  store ptr %22, ptr %exn.slot, align 8
  %23 = extractvalue { ptr, i32 } %21, 1
  store i32 %23, ptr %ehselector.slot, align 4
  call void @_ZN4cvc58internal12NodeTemplateILb1EED2Ev(ptr noundef nonnull align 8 dereferenceable(8) %ref.tmp39) #3
  br label %ehcleanup178

lpad59:                                           ; preds = %invoke.cont56
  %24 = landingpad { ptr, i32 }
          cleanup
  %25 = extractvalue { ptr, i32 } %24, 0
  store ptr %25, ptr %exn.slot, align 8
  %26 = extractvalue { ptr, i32 } %24, 1
  store i32 %26, ptr %ehselector.slot, align 4
  br label %ehcleanup67

lpad61:                                           ; preds = %invoke.cont60
  %27 = landingpad { ptr, i32 }
          cleanup
  %28 = extractvalue { ptr, i32 } %27, 0
  store ptr %28, ptr %exn.slot, align 8
  %29 = extractvalue { ptr, i32 } %27, 1
  store i32 %29, ptr %ehselector.slot, align 4
  br label %ehcleanup66

lpad63:                                           ; preds = %invoke.cont62
  %30 = landingpad { ptr, i32 }
          cleanup
  %31 = extractvalue { ptr, i32 } %30, 0
  store ptr %31, ptr %exn.slot, align 8
  %32 = extractvalue { ptr, i32 } %30, 1
  store i32 %32, ptr %ehselector.slot, align 4
  call void @_ZN4cvc58internal12NodeTemplateILb1EED2Ev(ptr noundef nonnull align 8 dereferenceable(8) %ref.tmp57) #3
  br label %ehcleanup66

ehcleanup66:                                      ; preds = %lpad63, %lpad61
  call void @_ZN4cvc58internal12NodeTemplateILb1EED2Ev(ptr noundef nonnull align 8 dereferenceable(8) %agg.tmp58) #3
  br label %ehcleanup67

ehcleanup67:                                      ; preds = %ehcleanup66, %lpad59
  call void @_ZN4cvc58internal12NodeTemplateILb1EED2Ev(ptr noundef nonnull align 8 dereferenceable(8) %ref.tmp55) #3
  br label %ehcleanup178

for.end:                                          ; preds = %invoke.cont53
  %call71 = invoke noundef i32 @_ZNK4cvc58internal12NodeTemplateILb1EE7getKindEv(ptr noundef nonnull align 8 dereferenceable(8) %current)
          to label %invoke.cont70 unwind label %lpad18

invoke.cont70:                                    ; preds = %for.end
  %cmp = icmp eq i32 %call71, 24
  br i1 %cmp, label %if.then72, label %if.end

if.then72:                                        ; preds = %invoke.cont70
  invoke void @_ZNK4cvc58internal12NodeTemplateILb1EE11getOperatorEv(ptr sret(%"class.cvc5::internal::NodeTemplate") align 8 %ref.tmp73, ptr noundef nonnull align 8 dereferenceable(8) %current)
          to label %invoke.cont74 unwind label %lpad18

invoke.cont74:                                    ; preds = %if.then72
  invoke void @_ZNSt6vectorIN4cvc58internal12NodeTemplateILb1EEESaIS3_EE9push_backEOS3_(ptr noundef nonnull align 8 dereferenceable(24) %toVisit, ptr noundef nonnull align 8 dereferenceable(8) %ref.tmp73)
          to label %invoke.cont76 unwind label %lpad75

invoke.cont76:                                    ; preds = %invoke.cont74
  call void @_ZN4cvc58internal12NodeTemplateILb1EED2Ev(ptr noundef nonnull align 8 dereferenceable(8) %ref.tmp73) #3
  br label %if.end

lpad75:                                           ; preds = %invoke.cont74
  %33 = landingpad { ptr, i32 }
          cleanup
  %34 = extractvalue { ptr, i32 } %33, 0
  store ptr %34, ptr %exn.slot, align 8
  %35 = extractvalue { ptr, i32 } %33, 1
  store i32 %35, ptr %ehselector.slot, align 4
  call void @_ZN4cvc58internal12NodeTemplateILb1EED2Ev(ptr noundef nonnull align 8 dereferenceable(8) %ref.tmp73) #3
  br label %ehcleanup178

if.end:                                           ; preds = %invoke.cont76, %invoke.cont70
  br label %if.end177

if.else:                                          ; preds = %invoke.cont37
  %d_intblastCache78 = getelementptr inbounds %"class.cvc5::internal::IntBlaster", ptr %this1, i32 0, i32 2
  %call80 = invoke noundef nonnull align 8 dereferenceable(80) ptr @_ZN4cvc57context9CDHashMapINS_8internal12NodeTemplateILb1EEES4_St4hashIS4_EEixERKS4_(ptr noundef nonnull align 8 dereferenceable(112) %d_intblastCache78, ptr noundef nonnull align 8 dereferenceable(8) %current)
          to label %invoke.cont79 unwind label %lpad18

invoke.cont79:                                    ; preds = %if.else
  %call82 = invoke noundef nonnull align 8 dereferenceable(8) ptr @_ZNK4cvc57context11CDOhash_mapINS_8internal12NodeTemplateILb1EEES4_St4hashIS4_EE3getEv(ptr noundef nonnull align 8 dereferenceable(80) %call80)
          to label %invoke.cont81 unwind label %lpad18

invoke.cont81:                                    ; preds = %invoke.cont79
  %call84 = invoke noundef zeroext i1 @_ZNK4cvc58internal12NodeTemplateILb1EE6isNullEv(ptr noundef nonnull align 8 dereferenceable(8) %call82)
          to label %invoke.cont83 unwind label %lpad18

invoke.cont83:                                    ; preds = %invoke.cont81
  br i1 %call84, label %if.else86, label %if.then85

if.then85:                                        ; preds = %invoke.cont83
  call void @_ZNSt6vectorIN4cvc58internal12NodeTemplateILb1EEESaIS3_EE8pop_backEv(ptr noundef nonnull align 8 dereferenceable(24) %toVisit) #3
  br label %if.end176

if.else86:                                        ; preds = %invoke.cont83
  invoke void @_ZN4cvc58internal12NodeTemplateILb1EEC2Ev(ptr noundef nonnull align 8 dereferenceable(8) %translation)
          to label %invoke.cont87 unwind label %lpad18

invoke.cont87:                                    ; preds = %if.else86
  %36 = load i64, ptr %currentNumChildren, align 8
  %cmp88 = icmp eq i64 %36, 0
  br i1 %cmp88, label %if.then89, label %if.else101

if.then89:                                        ; preds = %invoke.cont87
  invoke void @_ZN4cvc58internal12NodeTemplateILb1EEC2ERKS2_(ptr noundef nonnull align 8 dereferenceable(8) %agg.tmp91, ptr noundef nonnull align 8 dereferenceable(8) %current)
          to label %invoke.cont93 unwind label %lpad92

invoke.cont93:                                    ; preds = %if.then89
  %37 = load ptr, ptr %lemmas.addr, align 8
  %38 = load ptr, ptr %skolems.addr, align 8
  invoke void @_ZN4cvc58internal10IntBlaster19translateNoChildrenENS0_12NodeTemplateILb1EEERSt6vectorIS3_SaIS3_EERSt3mapIS3_S3_St4lessIS3_ESaISt4pairIKS3_S3_EEE(ptr sret(%"class.cvc5::internal::NodeTemplate") align 8 %ref.tmp90, ptr noundef nonnull align 8 dereferenceable(468) %this1, ptr noundef %agg.tmp91, ptr noundef nonnull align 8 dereferenceable(24) %37, ptr noundef nonnull align 8 dereferenceable(48) %38)
          to label %invoke.cont95 unwind label %lpad94

invoke.cont95:                                    ; preds = %invoke.cont93
  %call98 = invoke noundef nonnull align 8 dereferenceable(8) ptr @_ZN4cvc58internal12NodeTemplateILb1EEaSERKS2_(ptr noundef nonnull align 8 dereferenceable(8) %translation, ptr noundef nonnull align 8 dereferenceable(8) %ref.tmp90)
          to label %invoke.cont97 unwind label %lpad96

invoke.cont97:                                    ; preds = %invoke.cont95
  call void @_ZN4cvc58internal12NodeTemplateILb1EED2Ev(ptr noundef nonnull align 8 dereferenceable(8) %ref.tmp90) #3
  call void @_ZN4cvc58internal12NodeTemplateILb1EED2Ev(ptr noundef nonnull align 8 dereferenceable(8) %agg.tmp91) #3
  br label %if.end164

lpad92:                                           ; preds = %invoke.cont171, %invoke.cont168, %invoke.cont166, %if.end164, %if.then89
  %39 = landingpad { ptr, i32 }
          cleanup
  %40 = extractvalue { ptr, i32 } %39, 0
  store ptr %40, ptr %exn.slot, align 8
  %41 = extractvalue { ptr, i32 } %39, 1
  store i32 %41, ptr %ehselector.slot, align 4
  br label %ehcleanup175

lpad94:                                           ; preds = %invoke.cont93
  %42 = landingpad { ptr, i32 }
          cleanup
  %43 = extractvalue { ptr, i32 } %42, 0
  store ptr %43, ptr %exn.slot, align 8
  %44 = extractvalue { ptr, i32 } %42, 1
  store i32 %44, ptr %ehselector.slot, align 4
  br label %ehcleanup100

lpad96:                                           ; preds = %invoke.cont95
  %45 = landingpad { ptr, i32 }
          cleanup
  %46 = extractvalue { ptr, i32 } %45, 0
  store ptr %46, ptr %exn.slot, align 8
  %47 = extractvalue { ptr, i32 } %45, 1
  store i32 %47, ptr %ehselector.slot, align 4
  call void @_ZN4cvc58internal12NodeTemplateILb1EED2Ev(ptr noundef nonnull align 8 dereferenceable(8) %ref.tmp90) #3
  br label %ehcleanup100

ehcleanup100:                                     ; preds = %lpad96, %lpad94
  call void @_ZN4cvc58internal12NodeTemplateILb1EED2Ev(ptr noundef nonnull align 8 dereferenceable(8) %agg.tmp91) #3
  br label %ehcleanup175

if.else101:                                       ; preds = %invoke.cont87
  call void @_ZNSt6vectorIN4cvc58internal12NodeTemplateILb1EEESaIS3_EEC2Ev(ptr noundef nonnull align 8 dereferenceable(24) %translated_children) #3
  %call104 = invoke noundef i32 @_ZNK4cvc58internal12NodeTemplateILb1EE7getKindEv(ptr noundef nonnull align 8 dereferenceable(8) %current)
          to label %invoke.cont103 unwind label %lpad102

invoke.cont103:                                   ; preds = %if.else101
  %cmp105 = icmp eq i32 %call104, 24
  br i1 %cmp105, label %if.then106, label %if.end119

if.then106:                                       ; preds = %invoke.cont103
  %d_intblastCache108 = getelementptr inbounds %"class.cvc5::internal::IntBlaster", ptr %this1, i32 0, i32 2
  invoke void @_ZNK4cvc58internal12NodeTemplateILb1EE11getOperatorEv(ptr sret(%"class.cvc5::internal::NodeTemplate") align 8 %ref.tmp109, ptr noundef nonnull align 8 dereferenceable(8) %current)
          to label %invoke.cont110 unwind label %lpad102

invoke.cont110:                                   ; preds = %if.then106
  %call113 = invoke noundef nonnull align 8 dereferenceable(80) ptr @_ZN4cvc57context9CDHashMapINS_8internal12NodeTemplateILb1EEES4_St4hashIS4_EEixERKS4_(ptr noundef nonnull align 8 dereferenceable(112) %d_intblastCache108, ptr noundef nonnull align 8 dereferenceable(8) %ref.tmp109)
          to label %invoke.cont112 unwind label %lpad111

invoke.cont112:                                   ; preds = %invoke.cont110
  invoke void @_ZN4cvc57context11CDOhash_mapINS_8internal12NodeTemplateILb1EEES4_St4hashIS4_EEcvS4_Ev(ptr sret(%"class.cvc5::internal::NodeTemplate") align 8 %ref.tmp107, ptr noundef nonnull align 8 dereferenceable(80) %call113)
          to label %invoke.cont114 unwind label %lpad111

invoke.cont114:                                   ; preds = %invoke.cont112
  invoke void @_ZNSt6vectorIN4cvc58internal12NodeTemplateILb1EEESaIS3_EE9push_backEOS3_(ptr noundef nonnull align 8 dereferenceable(24) %translated_children, ptr noundef nonnull align 8 dereferenceable(8) %ref.tmp107)
          to label %invoke.cont116 unwind label %lpad115

invoke.cont116:                                   ; preds = %invoke.cont114
  call void @_ZN4cvc58internal12NodeTemplateILb1EED2Ev(ptr noundef nonnull align 8 dereferenceable(8) %ref.tmp107) #3
  call void @_ZN4cvc58internal12NodeTemplateILb1EED2Ev(ptr noundef nonnull align 8 dereferenceable(8) %ref.tmp109) #3
  br label %if.end119

lpad102:                                          ; preds = %for.end152, %for.inc149, %for.body129, %for.cond126, %invoke.cont120, %if.end119, %if.then106, %if.else101
  %48 = landingpad { ptr, i32 }
          cleanup
  %49 = extractvalue { ptr, i32 } %48, 0
  store ptr %49, ptr %exn.slot, align 8
  %50 = extractvalue { ptr, i32 } %48, 1
  store i32 %50, ptr %ehselector.slot, align 4
  br label %ehcleanup163

lpad111:                                          ; preds = %invoke.cont112, %invoke.cont110
  %51 = landingpad { ptr, i32 }
          cleanup
  %52 = extractvalue { ptr, i32 } %51, 0
  store ptr %52, ptr %exn.slot, align 8
  %53 = extractvalue { ptr, i32 } %51, 1
  store i32 %53, ptr %ehselector.slot, align 4
  br label %ehcleanup118

lpad115:                                          ; preds = %invoke.cont114
  %54 = landingpad { ptr, i32 }
          cleanup
  %55 = extractvalue { ptr, i32 } %54, 0
  store ptr %55, ptr %exn.slot, align 8
  %56 = extractvalue { ptr, i32 } %54, 1
  store i32 %56, ptr %ehselector.slot, align 4
  call void @_ZN4cvc58internal12NodeTemplateILb1EED2Ev(ptr noundef nonnull align 8 dereferenceable(8) %ref.tmp107) #3
  br label %ehcleanup118

ehcleanup118:                                     ; preds = %lpad115, %lpad111
  call void @_ZN4cvc58internal12NodeTemplateILb1EED2Ev(ptr noundef nonnull align 8 dereferenceable(8) %ref.tmp109) #3
  br label %ehcleanup163

if.end119:                                        ; preds = %invoke.cont116, %invoke.cont103
  store ptr %current, ptr %__range6, align 8
  %57 = load ptr, ptr %__range6, align 8
  %call121 = invoke ptr @_ZN4cvc58internal12NodeTemplateILb1EE5beginEv(ptr noundef nonnull align 8 dereferenceable(8) %57)
          to label %invoke.cont120 unwind label %lpad102

invoke.cont120:                                   ; preds = %if.end119
  %coerce.dive122 = getelementptr inbounds %"class.cvc5::internal::expr::NodeValue::iterator", ptr %__begin6, i32 0, i32 0
  store ptr %call121, ptr %coerce.dive122, align 8
  %58 = load ptr, ptr %__range6, align 8
  %call124 = invoke ptr @_ZN4cvc58internal12NodeTemplateILb1EE3endEv(ptr noundef nonnull align 8 dereferenceable(8) %58)
          to label %invoke.cont123 unwind label %lpad102

invoke.cont123:                                   ; preds = %invoke.cont120
  %coerce.dive125 = getelementptr inbounds %"class.cvc5::internal::expr::NodeValue::iterator", ptr %__end6, i32 0, i32 0
  store ptr %call124, ptr %coerce.dive125, align 8
  br label %for.cond126

for.cond126:                                      ; preds = %invoke.cont150, %invoke.cont123
  %call128 = invoke noundef zeroext i1 @_ZNK4cvc58internal4expr9NodeValue8iteratorINS0_12NodeTemplateILb1EEEEneERKS6_(ptr noundef nonnull align 8 dereferenceable(8) %__begin6, ptr noundef nonnull align 8 dereferenceable(8) %__end6)
          to label %invoke.cont127 unwind label %lpad102

invoke.cont127:                                   ; preds = %for.cond126
  br i1 %call128, label %for.body129, label %for.end152

for.body129:                                      ; preds = %invoke.cont127
  invoke void @_ZNK4cvc58internal4expr9NodeValue8iteratorINS0_12NodeTemplateILb1EEEEdeEv(ptr sret(%"class.cvc5::internal::NodeTemplate") align 8 %ref.tmp130, ptr noundef nonnull align 8 dereferenceable(8) %__begin6)
          to label %invoke.cont131 unwind label %lpad102

invoke.cont131:                                   ; preds = %for.body129
  store ptr %ref.tmp130, ptr %cc, align 8
  %59 = load ptr, ptr %cc, align 8
  invoke void @_ZN4cvc58internal12NodeTemplateILb1EEC2ERKS2_(ptr noundef nonnull align 8 dereferenceable(8) %agg.tmp132, ptr noundef nonnull align 8 dereferenceable(8) %59)
          to label %invoke.cont134 unwind label %lpad133

invoke.cont134:                                   ; preds = %invoke.cont131
  invoke void @_ZN4cvc58internal10IntBlaster10makeBinaryENS0_12NodeTemplateILb1EEE(ptr sret(%"class.cvc5::internal::NodeTemplate") align 8 %ccb, ptr noundef nonnull align 8 dereferenceable(468) %this1, ptr noundef %agg.tmp132)
          to label %invoke.cont136 unwind label %lpad135

invoke.cont136:                                   ; preds = %invoke.cont134
  call void @_ZN4cvc58internal12NodeTemplateILb1EED2Ev(ptr noundef nonnull align 8 dereferenceable(8) %agg.tmp132) #3
  %d_intblastCache139 = getelementptr inbounds %"class.cvc5::internal::IntBlaster", ptr %this1, i32 0, i32 2
  %call142 = invoke noundef nonnull align 8 dereferenceable(80) ptr @_ZN4cvc57context9CDHashMapINS_8internal12NodeTemplateILb1EEES4_St4hashIS4_EEixERKS4_(ptr noundef nonnull align 8 dereferenceable(112) %d_intblastCache139, ptr noundef nonnull align 8 dereferenceable(8) %ccb)
          to label %invoke.cont141 unwind label %lpad140

invoke.cont141:                                   ; preds = %invoke.cont136
  invoke void @_ZN4cvc57context11CDOhash_mapINS_8internal12NodeTemplateILb1EEES4_St4hashIS4_EEcvS4_Ev(ptr sret(%"class.cvc5::internal::NodeTemplate") align 8 %ref.tmp138, ptr noundef nonnull align 8 dereferenceable(80) %call142)
          to label %invoke.cont143 unwind label %lpad140

invoke.cont143:                                   ; preds = %invoke.cont141
  invoke void @_ZNSt6vectorIN4cvc58internal12NodeTemplateILb1EEESaIS3_EE9push_backEOS3_(ptr noundef nonnull align 8 dereferenceable(24) %translated_children, ptr noundef nonnull align 8 dereferenceable(8) %ref.tmp138)
          to label %invoke.cont145 unwind label %lpad144

invoke.cont145:                                   ; preds = %invoke.cont143
  call void @_ZN4cvc58internal12NodeTemplateILb1EED2Ev(ptr noundef nonnull align 8 dereferenceable(8) %ref.tmp138) #3
  call void @_ZN4cvc58internal12NodeTemplateILb1EED2Ev(ptr noundef nonnull align 8 dereferenceable(8) %ccb) #3
  call void @_ZN4cvc58internal12NodeTemplateILb1EED2Ev(ptr noundef nonnull align 8 dereferenceable(8) %ref.tmp130) #3
  br label %for.inc149

for.inc149:                                       ; preds = %invoke.cont145
  %call151 = invoke noundef nonnull align 8 dereferenceable(8) ptr @_ZN4cvc58internal4expr9NodeValue8iteratorINS0_12NodeTemplateILb1EEEEppEv(ptr noundef nonnull align 8 dereferenceable(8) %__begin6)
          to label %invoke.cont150 unwind label %lpad102

invoke.cont150:                                   ; preds = %for.inc149
  br label %for.cond126

lpad133:                                          ; preds = %invoke.cont131
  %60 = landingpad { ptr, i32 }
          cleanup
  %61 = extractvalue { ptr, i32 } %60, 0
  store ptr %61, ptr %exn.slot, align 8
  %62 = extractvalue { ptr, i32 } %60, 1
  store i32 %62, ptr %ehselector.slot, align 4
  br label %ehcleanup148

lpad135:                                          ; preds = %invoke.cont134
  %63 = landingpad { ptr, i32 }
          cleanup
  %64 = extractvalue { ptr, i32 } %63, 0
  store ptr %64, ptr %exn.slot, align 8
  %65 = extractvalue { ptr, i32 } %63, 1
  store i32 %65, ptr %ehselector.slot, align 4
  call void @_ZN4cvc58internal12NodeTemplateILb1EED2Ev(ptr noundef nonnull align 8 dereferenceable(8) %agg.tmp132) #3
  br label %ehcleanup148

lpad140:                                          ; preds = %invoke.cont141, %invoke.cont136
  %66 = landingpad { ptr, i32 }
          cleanup
  %67 = extractvalue { ptr, i32 } %66, 0
  store ptr %67, ptr %exn.slot, align 8
  %68 = extractvalue { ptr, i32 } %66, 1
  store i32 %68, ptr %ehselector.slot, align 4
  br label %ehcleanup147

lpad144:                                          ; preds = %invoke.cont143
  %69 = landingpad { ptr, i32 }
          cleanup
  %70 = extractvalue { ptr, i32 } %69, 0
  store ptr %70, ptr %exn.slot, align 8
  %71 = extractvalue { ptr, i32 } %69, 1
  store i32 %71, ptr %ehselector.slot, align 4
  call void @_ZN4cvc58internal12NodeTemplateILb1EED2Ev(ptr noundef nonnull align 8 dereferenceable(8) %ref.tmp138) #3
  br label %ehcleanup147

ehcleanup147:                                     ; preds = %lpad144, %lpad140
  call void @_ZN4cvc58internal12NodeTemplateILb1EED2Ev(ptr noundef nonnull align 8 dereferenceable(8) %ccb) #3
  br label %ehcleanup148

ehcleanup148:                                     ; preds = %ehcleanup147, %lpad135, %lpad133
  call void @_ZN4cvc58internal12NodeTemplateILb1EED2Ev(ptr noundef nonnull align 8 dereferenceable(8) %ref.tmp130) #3
  br label %ehcleanup163

for.end152:                                       ; preds = %invoke.cont127
  invoke void @_ZN4cvc58internal12NodeTemplateILb1EEC2ERKS2_(ptr noundef nonnull align 8 dereferenceable(8) %agg.tmp154, ptr noundef nonnull align 8 dereferenceable(8) %current)
          to label %invoke.cont155 unwind label %lpad102

invoke.cont155:                                   ; preds = %for.end152
  %72 = load ptr, ptr %lemmas.addr, align 8
  invoke void @_ZN4cvc58internal10IntBlaster21translateWithChildrenENS0_12NodeTemplateILb1EEERKSt6vectorIS3_SaIS3_EERS6_(ptr sret(%"class.cvc5::internal::NodeTemplate") align 8 %ref.tmp153, ptr noundef nonnull align 8 dereferenceable(468) %this1, ptr noundef %agg.tmp154, ptr noundef nonnull align 8 dereferenceable(24) %translated_children, ptr noundef nonnull align 8 dereferenceable(24) %72)
          to label %invoke.cont157 unwind label %lpad156

invoke.cont157:                                   ; preds = %invoke.cont155
  %call160 = invoke noundef nonnull align 8 dereferenceable(8) ptr @_ZN4cvc58internal12NodeTemplateILb1EEaSERKS2_(ptr noundef nonnull align 8 dereferenceable(8) %translation, ptr noundef nonnull align 8 dereferenceable(8) %ref.tmp153)
          to label %invoke.cont159 unwind label %lpad158

invoke.cont159:                                   ; preds = %invoke.cont157
  call void @_ZN4cvc58internal12NodeTemplateILb1EED2Ev(ptr noundef nonnull align 8 dereferenceable(8) %ref.tmp153) #3
  call void @_ZN4cvc58internal12NodeTemplateILb1EED2Ev(ptr noundef nonnull align 8 dereferenceable(8) %agg.tmp154) #3
  call void @_ZNSt6vectorIN4cvc58internal12NodeTemplateILb1EEESaIS3_EED2Ev(ptr noundef nonnull align 8 dereferenceable(24) %translated_children) #3
  br label %if.end164

lpad156:                                          ; preds = %invoke.cont155
  %73 = landingpad { ptr, i32 }
          cleanup
  %74 = extractvalue { ptr, i32 } %73, 0
  store ptr %74, ptr %exn.slot, align 8
  %75 = extractvalue { ptr, i32 } %73, 1
  store i32 %75, ptr %ehselector.slot, align 4
  br label %ehcleanup162

lpad158:                                          ; preds = %invoke.cont157
  %76 = landingpad { ptr, i32 }
          cleanup
  %77 = extractvalue { ptr, i32 } %76, 0
  store ptr %77, ptr %exn.slot, align 8
  %78 = extractvalue { ptr, i32 } %76, 1
  store i32 %78, ptr %ehselector.slot, align 4
  call void @_ZN4cvc58internal12NodeTemplateILb1EED2Ev(ptr noundef nonnull align 8 dereferenceable(8) %ref.tmp153) #3
  br label %ehcleanup162

ehcleanup162:                                     ; preds = %lpad158, %lpad156
  call void @_ZN4cvc58internal12NodeTemplateILb1EED2Ev(ptr noundef nonnull align 8 dereferenceable(8) %agg.tmp154) #3
  br label %ehcleanup163

ehcleanup163:                                     ; preds = %ehcleanup162, %ehcleanup148, %ehcleanup118, %lpad102
  call void @_ZNSt6vectorIN4cvc58internal12NodeTemplateILb1EEESaIS3_EED2Ev(ptr noundef nonnull align 8 dereferenceable(24) %translated_children) #3
  br label %ehcleanup175

if.end164:                                        ; preds = %invoke.cont159, %invoke.cont97
  %d_intblastCache165 = getelementptr inbounds %"class.cvc5::internal::IntBlaster", ptr %this1, i32 0, i32 2
  %call167 = invoke noundef nonnull align 8 dereferenceable(80) ptr @_ZN4cvc57context9CDHashMapINS_8internal12NodeTemplateILb1EEES4_St4hashIS4_EEixERKS4_(ptr noundef nonnull align 8 dereferenceable(112) %d_intblastCache165, ptr noundef nonnull align 8 dereferenceable(8) %current)
          to label %invoke.cont166 unwind label %lpad92

invoke.cont166:                                   ; preds = %if.end164
  %call169 = invoke noundef nonnull align 8 dereferenceable(8) ptr @_ZN4cvc57context11CDOhash_mapINS_8internal12NodeTemplateILb1EEES4_St4hashIS4_EEaSERKS4_(ptr noundef nonnull align 8 dereferenceable(80) %call167, ptr noundef nonnull align 8 dereferenceable(8) %translation)
          to label %invoke.cont168 unwind label %lpad92

invoke.cont168:                                   ; preds = %invoke.cont166
  %d_intblastCache170 = getelementptr inbounds %"class.cvc5::internal::IntBlaster", ptr %this1, i32 0, i32 2
  %call172 = invoke noundef nonnull align 8 dereferenceable(80) ptr @_ZN4cvc57context9CDHashMapINS_8internal12NodeTemplateILb1EEES4_St4hashIS4_EEixERKS4_(ptr noundef nonnull align 8 dereferenceable(112) %d_intblastCache170, ptr noundef nonnull align 8 dereferenceable(8) %translation)
          to label %invoke.cont171 unwind label %lpad92

invoke.cont171:                                   ; preds = %invoke.cont168
  %call174 = invoke noundef nonnull align 8 dereferenceable(8) ptr @_ZN4cvc57context11CDOhash_mapINS_8internal12NodeTemplateILb1EEES4_St4hashIS4_EEaSERKS4_(ptr noundef nonnull align 8 dereferenceable(80) %call172, ptr noundef nonnull align 8 dereferenceable(8) %translation)
          to label %invoke.cont173 unwind label %lpad92

invoke.cont173:                                   ; preds = %invoke.cont171
  call void @_ZNSt6vectorIN4cvc58internal12NodeTemplateILb1EEESaIS3_EE8pop_backEv(ptr noundef nonnull align 8 dereferenceable(24) %toVisit) #3
  call void @_ZN4cvc58internal12NodeTemplateILb1EED2Ev(ptr noundef nonnull align 8 dereferenceable(8) %translation) #3
  br label %if.end176

ehcleanup175:                                     ; preds = %ehcleanup163, %ehcleanup100, %lpad92
  call void @_ZN4cvc58internal12NodeTemplateILb1EED2Ev(ptr noundef nonnull align 8 dereferenceable(8) %translation) #3
  br label %ehcleanup178

if.end176:                                        ; preds = %invoke.cont173, %if.then85
  br label %if.end177

if.end177:                                        ; preds = %if.end176, %if.end
  call void @_ZN4cvc58internal12NodeTemplateILb1EED2Ev(ptr noundef nonnull align 8 dereferenceable(8) %current) #3
  br label %while.cond, !llvm.loop !11

ehcleanup178:                                     ; preds = %ehcleanup175, %lpad75, %ehcleanup67, %lpad42, %lpad18
  call void @_ZN4cvc58internal12NodeTemplateILb1EED2Ev(ptr noundef nonnull align 8 dereferenceable(8) %current) #3
  br label %ehcleanup185

while.end:                                        ; preds = %while.cond
  %d_intblastCache179 = getelementptr inbounds %"class.cvc5::internal::IntBlaster", ptr %this1, i32 0, i32 2
  %call181 = invoke noundef nonnull align 8 dereferenceable(80) ptr @_ZN4cvc57context9CDHashMapINS_8internal12NodeTemplateILb1EEES4_St4hashIS4_EEixERKS4_(ptr noundef nonnull align 8 dereferenceable(112) %d_intblastCache179, ptr noundef nonnull align 8 dereferenceable(8) %n)
          to label %invoke.cont180 unwind label %lpad6

invoke.cont180:                                   ; preds = %while.end
  %call183 = invoke noundef nonnull align 8 dereferenceable(8) ptr @_ZNK4cvc57context11CDOhash_mapINS_8internal12NodeTemplateILb1EEES4_St4hashIS4_EE3getEv(ptr noundef nonnull align 8 dereferenceable(80) %call181)
          to label %invoke.cont182 unwind label %lpad6

invoke.cont182:                                   ; preds = %invoke.cont180
  invoke void @_ZN4cvc58internal12NodeTemplateILb1EEC2ERKS2_(ptr noundef nonnull align 8 dereferenceable(8) %agg.result, ptr noundef nonnull align 8 dereferenceable(8) %call183)
          to label %invoke.cont184 unwind label %lpad6

invoke.cont184:                                   ; preds = %invoke.cont182
  call void @_ZNSt6vectorIN4cvc58internal12NodeTemplateILb1EEESaIS3_EED2Ev(ptr noundef nonnull align 8 dereferenceable(24) %toVisit) #3
  ret void

ehcleanup185:                                     ; preds = %ehcleanup178, %ehcleanup13, %lpad6
  call void @_ZNSt6vectorIN4cvc58internal12NodeTemplateILb1EEESaIS3_EED2Ev(ptr noundef nonnull align 8 dereferenceable(24) %toVisit) #3
  br label %eh.resume

eh.resume:                                        ; preds = %ehcleanup185, %ehcleanup
  %exn = load ptr, ptr %exn.slot, align 8
  %sel = load i32, ptr %ehselector.slot, align 4
  %lpad.val = insertvalue { ptr, i32 } poison, ptr %exn, 0
  %lpad.val186 = insertvalue { ptr, i32 } %lpad.val, i32 %sel, 1
  resume { ptr, i32 } %lpad.val186
}

; Function Attrs: mustprogress nounwind uwtable
define linkonce_odr hidden void @_ZNSt6vectorIN4cvc58internal12NodeTemplateILb1EEESaIS3_EEC2Ev(ptr noundef nonnull align 8 dereferenceable(24) %this) unnamed_addr #5 comdat align 2 {
entry:
  %this.addr = alloca ptr, align 8
  store ptr %this, ptr %this.addr, align 8
  %this1 = load ptr, ptr %this.addr, align 8
  call void @_ZNSt12_Vector_baseIN4cvc58internal12NodeTemplateILb1EEESaIS3_EEC2Ev(ptr noundef nonnull align 8 dereferenceable(24) %this1) #3
  ret void
}

; Function Attrs: mustprogress uwtable
define linkonce_odr hidden void @_ZNSt6vectorIN4cvc58internal12NodeTemplateILb1EEESaIS3_EE9push_backEOS3_(ptr noundef nonnull align 8 dereferenceable(24) %this, ptr noundef nonnull align 8 dereferenceable(8) %__x) #4 comdat align 2 {
entry:
  %this.addr = alloca ptr, align 8
  %__x.addr = alloca ptr, align 8
  store ptr %this, ptr %this.addr, align 8
  store ptr %__x, ptr %__x.addr, align 8
  %this1 = load ptr, ptr %this.addr, align 8
  %0 = load ptr, ptr %__x.addr, align 8
  %call = call noundef nonnull align 8 dereferenceable(8) ptr @_ZNSt6vectorIN4cvc58internal12NodeTemplateILb1EEESaIS3_EE12emplace_backIJS3_EEERS3_DpOT_(ptr noundef nonnull align 8 dereferenceable(24) %this1, ptr noundef nonnull align 8 dereferenceable(8) %0)
  ret void
}

; Function Attrs: mustprogress nounwind uwtable
define linkonce_odr hidden noundef zeroext i1 @_ZNKSt6vectorIN4cvc58internal12NodeTemplateILb1EEESaIS3_EE5emptyEv(ptr noundef nonnull align 8 dereferenceable(24) %this) #5 comdat align 2 {
entry:
  %this.addr = alloca ptr, align 8
  %ref.tmp = alloca %"class.__gnu_cxx::__normal_iterator.447", align 8
  %ref.tmp2 = alloca %"class.__gnu_cxx::__normal_iterator.447", align 8
  store ptr %this, ptr %this.addr, align 8
  %this1 = load ptr, ptr %this.addr, align 8
  %call = call ptr @_ZNKSt6vectorIN4cvc58internal12NodeTemplateILb1EEESaIS3_EE5beginEv(ptr noundef nonnull align 8 dereferenceable(24) %this1) #3
  %coerce.dive = getelementptr inbounds %"class.__gnu_cxx::__normal_iterator.447", ptr %ref.tmp, i32 0, i32 0
  store ptr %call, ptr %coerce.dive, align 8
  %call3 = call ptr @_ZNKSt6vectorIN4cvc58internal12NodeTemplateILb1EEESaIS3_EE3endEv(ptr noundef nonnull align 8 dereferenceable(24) %this1) #3
  %coerce.dive4 = getelementptr inbounds %"class.__gnu_cxx::__normal_iterator.447", ptr %ref.tmp2, i32 0, i32 0
  store ptr %call3, ptr %coerce.dive4, align 8
  %call5 = call noundef zeroext i1 @_ZN9__gnu_cxxeqIPKN4cvc58internal12NodeTemplateILb1EEESt6vectorIS4_SaIS4_EEEEbRKNS_17__normal_iteratorIT_T0_EESF_(ptr noundef nonnull align 8 dereferenceable(8) %ref.tmp, ptr noundef nonnull align 8 dereferenceable(8) %ref.tmp2) #3
  ret i1 %call5
}

; Function Attrs: mustprogress nounwind uwtable
define linkonce_odr hidden noundef nonnull align 8 dereferenceable(8) ptr @_ZNSt6vectorIN4cvc58internal12NodeTemplateILb1EEESaIS3_EE4backEv(ptr noundef nonnull align 8 dereferenceable(24) %this) #5 comdat align 2 {
entry:
  %this.addr = alloca ptr, align 8
  %ref.tmp = alloca %"class.__gnu_cxx::__normal_iterator.353", align 8
  %ref.tmp2 = alloca %"class.__gnu_cxx::__normal_iterator.353", align 8
  store ptr %this, ptr %this.addr, align 8
  %this1 = load ptr, ptr %this.addr, align 8
  %call = call ptr @_ZNSt6vectorIN4cvc58internal12NodeTemplateILb1EEESaIS3_EE3endEv(ptr noundef nonnull align 8 dereferenceable(24) %this1) #3
  %coerce.dive = getelementptr inbounds %"class.__gnu_cxx::__normal_iterator.353", ptr %ref.tmp2, i32 0, i32 0
  store ptr %call, ptr %coerce.dive, align 8
  %call3 = call ptr @_ZNK9__gnu_cxx17__normal_iteratorIPN4cvc58internal12NodeTemplateILb1EEESt6vectorIS4_SaIS4_EEEmiEl(ptr noundef nonnull align 8 dereferenceable(8) %ref.tmp2, i64 noundef 1) #3
  %coerce.dive4 = getelementptr inbounds %"class.__gnu_cxx::__normal_iterator.353", ptr %ref.tmp, i32 0, i32 0
  store ptr %call3, ptr %coerce.dive4, align 8
  %call5 = call noundef nonnull align 8 dereferenceable(8) ptr @_ZNK9__gnu_cxx17__normal_iteratorIPN4cvc58internal12NodeTemplateILb1EEESt6vectorIS4_SaIS4_EEEdeEv(ptr noundef nonnull align 8 dereferenceable(8) %ref.tmp) #3
  ret ptr %call5
}

; Function Attrs: mustprogress uwtable
define linkonce_odr hidden noundef nonnull align 8 dereferenceable(24) ptr @_ZN4cvc58internal11Cvc5ostreamlsIA10_cEERS1_RKT_(ptr noundef nonnull align 8 dereferenceable(24) %this, ptr noundef nonnull align 1 dereferenceable(10) %t) #4 comdat align 2 {
entry:
  %this.addr = alloca ptr, align 8
  %t.addr = alloca ptr, align 8
  %indent = alloca i64, align 8
  %i = alloca i64, align 8
  store ptr %this, ptr %this.addr, align 8
  store ptr %t, ptr %t.addr, align 8
  %this1 = load ptr, ptr %this.addr, align 8
  %d_os = getelementptr inbounds %"class.cvc5::internal::Cvc5ostream", ptr %this1, i32 0, i32 0
  %0 = load ptr, ptr %d_os, align 8
  %cmp = icmp ne ptr %0, null
  br i1 %cmp, label %if.then, label %if.end11

if.then:                                          ; preds = %entry
  %d_firstColumn = getelementptr inbounds %"class.cvc5::internal::Cvc5ostream", ptr %this1, i32 0, i32 1
  %1 = load i8, ptr %d_firstColumn, align 8
  %tobool = trunc i8 %1 to i1
  br i1 %tobool, label %if.then2, label %if.end

if.then2:                                         ; preds = %if.then
  %d_firstColumn3 = getelementptr inbounds %"class.cvc5::internal::Cvc5ostream", ptr %this1, i32 0, i32 1
  store i8 0, ptr %d_firstColumn3, align 8
  %d_os4 = getelementptr inbounds %"class.cvc5::internal::Cvc5ostream", ptr %this1, i32 0, i32 0
  %2 = load ptr, ptr %d_os4, align 8
  %vtable = load ptr, ptr %2, align 8
  %vbase.offset.ptr = getelementptr i8, ptr %vtable, i64 -24
  %vbase.offset = load i64, ptr %vbase.offset.ptr, align 8
  %add.ptr = getelementptr inbounds i8, ptr %2, i64 %vbase.offset
  %3 = load i32, ptr @_ZN4cvc58internal11Cvc5ostream16s_indentIosIndexE, align 4
  %call = call noundef nonnull align 8 dereferenceable(8) ptr @_ZNSt8ios_base5iwordEi(ptr noundef nonnull align 8 dereferenceable(216) %add.ptr, i32 noundef %3)
  %4 = load i64, ptr %call, align 8
  store i64 %4, ptr %indent, align 8
  store i64 0, ptr %i, align 8
  br label %for.cond

for.cond:                                         ; preds = %for.inc, %if.then2
  %5 = load i64, ptr %i, align 8
  %6 = load i64, ptr %indent, align 8
  %cmp5 = icmp slt i64 %5, %6
  br i1 %cmp5, label %for.body, label %for.end

for.body:                                         ; preds = %for.cond
  %d_os6 = getelementptr inbounds %"class.cvc5::internal::Cvc5ostream", ptr %this1, i32 0, i32 0
  %7 = load ptr, ptr %d_os6, align 8
  %call7 = call noundef nonnull align 8 dereferenceable(8) ptr @_ZStlsIcSt11char_traitsIcESaIcEERSt13basic_ostreamIT_T0_ES7_RKNSt7__cxx1112basic_stringIS4_S5_T1_EE(ptr noundef nonnull align 8 dereferenceable(8) %7, ptr noundef nonnull align 8 dereferenceable(32) @_ZN4cvc58internal11Cvc5ostream5s_tabB5cxx11E)
  %d_os8 = getelementptr inbounds %"class.cvc5::internal::Cvc5ostream", ptr %this1, i32 0, i32 0
  store ptr %call7, ptr %d_os8, align 8
  br label %for.inc

for.inc:                                          ; preds = %for.body
  %8 = load i64, ptr %i, align 8
  %inc = add nsw i64 %8, 1
  store i64 %inc, ptr %i, align 8
  br label %for.cond, !llvm.loop !12

for.end:                                          ; preds = %for.cond
  br label %if.end

if.end:                                           ; preds = %for.end, %if.then
  %d_os9 = getelementptr inbounds %"class.cvc5::internal::Cvc5ostream", ptr %this1, i32 0, i32 0
  %9 = load ptr, ptr %d_os9, align 8
  %10 = load ptr, ptr %t.addr, align 8
  %arraydecay = getelementptr inbounds [10 x i8], ptr %10, i64 0, i64 0
  %call10 = call noundef nonnull align 8 dereferenceable(8) ptr @_ZStlsISt11char_traitsIcEERSt13basic_ostreamIcT_ES5_PKc(ptr noundef nonnull align 8 dereferenceable(8) %9, ptr noundef %arraydecay)
  br label %if.end11

if.end11:                                         ; preds = %if.end, %entry
  ret ptr %this1
}

; Function Attrs: mustprogress nounwind uwtable
define linkonce_odr hidden noundef zeroext i1 @_ZNK4cvc57context9CDHashMapINS_8internal12NodeTemplateILb1EEES4_St4hashIS4_EE8iteratoreqERKS8_(ptr noundef nonnull align 8 dereferenceable(8) %this, ptr noundef nonnull align 8 dereferenceable(8) %i) #5 comdat align 2 {
entry:
  %this.addr = alloca ptr, align 8
  %i.addr = alloca ptr, align 8
  store ptr %this, ptr %this.addr, align 8
  store ptr %i, ptr %i.addr, align 8
  %this1 = load ptr, ptr %this.addr, align 8
  %d_it = getelementptr inbounds %"class.cvc5::context::CDHashMap<cvc5::internal::NodeTemplate<true>, cvc5::internal::NodeTemplate<true>>::iterator", ptr %this1, i32 0, i32 0
  %0 = load ptr, ptr %d_it, align 8
  %1 = load ptr, ptr %i.addr, align 8
  %d_it2 = getelementptr inbounds %"class.cvc5::context::CDHashMap<cvc5::internal::NodeTemplate<true>, cvc5::internal::NodeTemplate<true>>::iterator", ptr %1, i32 0, i32 0
  %2 = load ptr, ptr %d_it2, align 8
  %cmp = icmp eq ptr %0, %2
  ret i1 %cmp
}

; Function Attrs: mustprogress uwtable
define linkonce_odr hidden ptr @_ZN4cvc58internal12NodeTemplateILb1EE5beginEv(ptr noundef nonnull align 8 dereferenceable(8) %this) #4 comdat align 2 {
entry:
  %retval = alloca %"class.cvc5::internal::expr::NodeValue::iterator", align 8
  %this.addr = alloca ptr, align 8
  store ptr %this, ptr %this.addr, align 8
  %this1 = load ptr, ptr %this.addr, align 8
  call void @_ZNK4cvc58internal12NodeTemplateILb1EE21assertTNodeNotExpiredEv(ptr noundef nonnull align 8 dereferenceable(8) %this1)
  %d_nv = getelementptr inbounds %"class.cvc5::internal::NodeTemplate", ptr %this1, i32 0, i32 0
  %0 = load ptr, ptr %d_nv, align 8
  %call = call ptr @_ZNK4cvc58internal4expr9NodeValue5beginINS0_12NodeTemplateILb1EEEEENS2_8iteratorIT_EEv(ptr noundef nonnull align 8 dereferenceable(16) %0)
  %coerce.dive = getelementptr inbounds %"class.cvc5::internal::expr::NodeValue::iterator", ptr %retval, i32 0, i32 0
  store ptr %call, ptr %coerce.dive, align 8
  %coerce.dive2 = getelementptr inbounds %"class.cvc5::internal::expr::NodeValue::iterator", ptr %retval, i32 0, i32 0
  %1 = load ptr, ptr %coerce.dive2, align 8
  ret ptr %1
}

; Function Attrs: mustprogress uwtable
define linkonce_odr hidden ptr @_ZN4cvc58internal12NodeTemplateILb1EE3endEv(ptr noundef nonnull align 8 dereferenceable(8) %this) #4 comdat align 2 {
entry:
  %retval = alloca %"class.cvc5::internal::expr::NodeValue::iterator", align 8
  %this.addr = alloca ptr, align 8
  store ptr %this, ptr %this.addr, align 8
  %this1 = load ptr, ptr %this.addr, align 8
  call void @_ZNK4cvc58internal12NodeTemplateILb1EE21assertTNodeNotExpiredEv(ptr noundef nonnull align 8 dereferenceable(8) %this1)
  %d_nv = getelementptr inbounds %"class.cvc5::internal::NodeTemplate", ptr %this1, i32 0, i32 0
  %0 = load ptr, ptr %d_nv, align 8
  %call = call ptr @_ZNK4cvc58internal4expr9NodeValue3endINS0_12NodeTemplateILb1EEEEENS2_8iteratorIT_EEv(ptr noundef nonnull align 8 dereferenceable(16) %0)
  %coerce.dive = getelementptr inbounds %"class.cvc5::internal::expr::NodeValue::iterator", ptr %retval, i32 0, i32 0
  store ptr %call, ptr %coerce.dive, align 8
  %coerce.dive2 = getelementptr inbounds %"class.cvc5::internal::expr::NodeValue::iterator", ptr %retval, i32 0, i32 0
  %1 = load ptr, ptr %coerce.dive2, align 8
  ret ptr %1
}

; Function Attrs: mustprogress nounwind uwtable
define linkonce_odr hidden noundef zeroext i1 @_ZNK4cvc58internal4expr9NodeValue8iteratorINS0_12NodeTemplateILb1EEEEneERKS6_(ptr noundef nonnull align 8 dereferenceable(8) %this, ptr noundef nonnull align 8 dereferenceable(8) %i) #5 comdat align 2 {
entry:
  %this.addr = alloca ptr, align 8
  %i.addr = alloca ptr, align 8
  store ptr %this, ptr %this.addr, align 8
  store ptr %i, ptr %i.addr, align 8
  %this1 = load ptr, ptr %this.addr, align 8
  %d_i = getelementptr inbounds %"class.cvc5::internal::expr::NodeValue::iterator", ptr %this1, i32 0, i32 0
  %0 = load ptr, ptr %d_i, align 8
  %1 = load ptr, ptr %i.addr, align 8
  %d_i2 = getelementptr inbounds %"class.cvc5::internal::expr::NodeValue::iterator", ptr %1, i32 0, i32 0
  %2 = load ptr, ptr %d_i2, align 8
  %cmp = icmp ne ptr %0, %2
  ret i1 %cmp
}

; Function Attrs: mustprogress uwtable
define linkonce_odr hidden void @_ZNK4cvc58internal4expr9NodeValue8iteratorINS0_12NodeTemplateILb1EEEEdeEv(ptr noalias sret(%"class.cvc5::internal::NodeTemplate") align 8 %agg.result, ptr noundef nonnull align 8 dereferenceable(8) %this) #4 comdat align 2 {
entry:
  %result.ptr = alloca ptr, align 8
  %this.addr = alloca ptr, align 8
  store ptr %agg.result, ptr %result.ptr, align 8
  store ptr %this, ptr %this.addr, align 8
  %this1 = load ptr, ptr %this.addr, align 8
  %d_i = getelementptr inbounds %"class.cvc5::internal::expr::NodeValue::iterator", ptr %this1, i32 0, i32 0
  %0 = load ptr, ptr %d_i, align 8
  %1 = load ptr, ptr %0, align 8
  call void @_ZN4cvc58internal12NodeTemplateILb1EEC2EPKNS0_4expr9NodeValueE(ptr noundef nonnull align 8 dereferenceable(8) %agg.result, ptr noundef %1)
  ret void
}

; Function Attrs: mustprogress nounwind uwtable
define linkonce_odr hidden noundef nonnull align 8 dereferenceable(8) ptr @_ZN4cvc58internal4expr9NodeValue8iteratorINS0_12NodeTemplateILb1EEEEppEv(ptr noundef nonnull align 8 dereferenceable(8) %this) #5 comdat align 2 {
entry:
  %this.addr = alloca ptr, align 8
  store ptr %this, ptr %this.addr, align 8
  %this1 = load ptr, ptr %this.addr, align 8
  %d_i = getelementptr inbounds %"class.cvc5::internal::expr::NodeValue::iterator", ptr %this1, i32 0, i32 0
  %0 = load ptr, ptr %d_i, align 8
  %incdec.ptr = getelementptr inbounds ptr, ptr %0, i32 1
  store ptr %incdec.ptr, ptr %d_i, align 8
  ret ptr %this1
}

; Function Attrs: mustprogress uwtable
define linkonce_odr hidden void @_ZNK4cvc58internal12NodeTemplateILb1EE11getOperatorEv(ptr noalias sret(%"class.cvc5::internal::NodeTemplate") align 8 %agg.result, ptr noundef nonnull align 8 dereferenceable(8) %this) #4 comdat align 2 personality ptr @__gxx_personality_v0 {
entry:
  %result.ptr = alloca ptr, align 8
  %this.addr = alloca ptr, align 8
  %mk = alloca i32, align 4
  %ref.tmp = alloca %"class.cvc5::internal::NodeTemplate.99", align 8
  %exn.slot = alloca ptr, align 8
  %ehselector.slot = alloca i32, align 4
  store ptr %agg.result, ptr %result.ptr, align 8
  store ptr %this, ptr %this.addr, align 8
  %this1 = load ptr, ptr %this.addr, align 8
  call void @_ZNK4cvc58internal12NodeTemplateILb1EE21assertTNodeNotExpiredEv(ptr noundef nonnull align 8 dereferenceable(8) %this1)
  %call = call noundef i32 @_ZNK4cvc58internal12NodeTemplateILb1EE11getMetaKindEv(ptr noundef nonnull align 8 dereferenceable(8) %this1)
  store i32 %call, ptr %mk, align 4
  %0 = load i32, ptr %mk, align 4
  %cmp = icmp eq i32 %0, 1
  br i1 %cmp, label %if.then, label %if.end

if.then:                                          ; preds = %entry
  %call2 = call noundef ptr @_ZN4cvc58internal11NodeManager9currentNMEv()
  %call3 = call noundef i32 @_ZNK4cvc58internal12NodeTemplateILb1EE7getKindEv(ptr noundef nonnull align 8 dereferenceable(8) %this1)
  call void @_ZN4cvc58internal11NodeManager10operatorOfENS0_4kind6Kind_tE(ptr sret(%"class.cvc5::internal::NodeTemplate.99") align 8 %ref.tmp, ptr noundef nonnull align 8 dereferenceable(3360) %call2, i32 noundef %call3)
  invoke void @_ZN4cvc58internal12NodeTemplateILb1EEC2ERKNS1_ILb0EEE(ptr noundef nonnull align 8 dereferenceable(8) %agg.result, ptr noundef nonnull align 8 dereferenceable(8) %ref.tmp)
          to label %invoke.cont unwind label %lpad

invoke.cont:                                      ; preds = %if.then
  call void @_ZN4cvc58internal12NodeTemplateILb0EED2Ev(ptr noundef nonnull align 8 dereferenceable(8) %ref.tmp) #3
  br label %return

lpad:                                             ; preds = %if.then
  %1 = landingpad { ptr, i32 }
          cleanup
  %2 = extractvalue { ptr, i32 } %1, 0
  store ptr %2, ptr %exn.slot, align 8
  %3 = extractvalue { ptr, i32 } %1, 1
  store i32 %3, ptr %ehselector.slot, align 4
  call void @_ZN4cvc58internal12NodeTemplateILb0EED2Ev(ptr noundef nonnull align 8 dereferenceable(8) %ref.tmp) #3
  br label %eh.resume

if.end:                                           ; preds = %entry
  %d_nv = getelementptr inbounds %"class.cvc5::internal::NodeTemplate", ptr %this1, i32 0, i32 0
  %4 = load ptr, ptr %d_nv, align 8
  %d_children = getelementptr inbounds %"class.cvc5::internal::expr::NodeValue", ptr %4, i32 0, i32 3
  %arrayidx = getelementptr inbounds [0 x ptr], ptr %d_children, i64 0, i64 0
  %5 = load ptr, ptr %arrayidx, align 8
  call void @_ZN4cvc58internal12NodeTemplateILb1EEC2EPKNS0_4expr9NodeValueE(ptr noundef nonnull align 8 dereferenceable(8) %agg.result, ptr noundef %5)
  br label %return

return:                                           ; preds = %if.end, %invoke.cont
  ret void

eh.resume:                                        ; preds = %lpad
  %exn = load ptr, ptr %exn.slot, align 8
  %sel = load i32, ptr %ehselector.slot, align 4
  %lpad.val = insertvalue { ptr, i32 } poison, ptr %exn, 0
  %lpad.val4 = insertvalue { ptr, i32 } %lpad.val, i32 %sel, 1
  resume { ptr, i32 } %lpad.val4
}

; Function Attrs: mustprogress nounwind uwtable
define linkonce_odr hidden noundef nonnull align 8 dereferenceable(8) ptr @_ZNK4cvc57context11CDOhash_mapINS_8internal12NodeTemplateILb1EEES4_St4hashIS4_EE3getEv(ptr noundef nonnull align 8 dereferenceable(80) %this) #5 comdat align 2 {
entry:
  %this.addr = alloca ptr, align 8
  store ptr %this, ptr %this.addr, align 8
  %this1 = load ptr, ptr %this.addr, align 8
  %d_value = getelementptr inbounds %"class.cvc5::context::CDOhash_map", ptr %this1, i32 0, i32 1
  %second = getelementptr inbounds %"struct.std::pair", ptr %d_value, i32 0, i32 1
  ret ptr %second
}

; Function Attrs: mustprogress uwtable
define linkonce_odr hidden noundef zeroext i1 @_ZNK4cvc58internal12NodeTemplateILb1EE6isNullEv(ptr noundef nonnull align 8 dereferenceable(8) %this) #4 comdat align 2 {
entry:
  %this.addr = alloca ptr, align 8
  store ptr %this, ptr %this.addr, align 8
  %this1 = load ptr, ptr %this.addr, align 8
  call void @_ZNK4cvc58internal12NodeTemplateILb1EE21assertTNodeNotExpiredEv(ptr noundef nonnull align 8 dereferenceable(8) %this1)
  %d_nv = getelementptr inbounds %"class.cvc5::internal::NodeTemplate", ptr %this1, i32 0, i32 0
  %0 = load ptr, ptr %d_nv, align 8
  %call = call noundef nonnull align 8 dereferenceable(16) ptr @_ZN4cvc58internal4expr9NodeValue4nullEv()
  %cmp = icmp eq ptr %0, %call
  ret i1 %cmp
}

; Function Attrs: mustprogress nounwind uwtable
define linkonce_odr hidden void @_ZNSt6vectorIN4cvc58internal12NodeTemplateILb1EEESaIS3_EE8pop_backEv(ptr noundef nonnull align 8 dereferenceable(24) %this) #5 comdat align 2 {
entry:
  %this.addr = alloca ptr, align 8
  store ptr %this, ptr %this.addr, align 8
  %this1 = load ptr, ptr %this.addr, align 8
  %_M_impl = getelementptr inbounds %"struct.std::_Vector_base.95", ptr %this1, i32 0, i32 0
  %_M_finish = getelementptr inbounds %"struct.std::_Vector_base<cvc5::internal::NodeTemplate<true>, std::allocator<cvc5::internal::NodeTemplate<true>>>::_Vector_impl_data", ptr %_M_impl, i32 0, i32 1
  %0 = load ptr, ptr %_M_finish, align 8
  %incdec.ptr = getelementptr inbounds %"class.cvc5::internal::NodeTemplate", ptr %0, i32 -1
  store ptr %incdec.ptr, ptr %_M_finish, align 8
  %_M_impl2 = getelementptr inbounds %"struct.std::_Vector_base.95", ptr %this1, i32 0, i32 0
  %_M_impl3 = getelementptr inbounds %"struct.std::_Vector_base.95", ptr %this1, i32 0, i32 0
  %_M_finish4 = getelementptr inbounds %"struct.std::_Vector_base<cvc5::internal::NodeTemplate<true>, std::allocator<cvc5::internal::NodeTemplate<true>>>::_Vector_impl_data", ptr %_M_impl3, i32 0, i32 1
  %1 = load ptr, ptr %_M_finish4, align 8
  call void @_ZNSt16allocator_traitsISaIN4cvc58internal12NodeTemplateILb1EEEEE7destroyIS3_EEvRS4_PT_(ptr noundef nonnull align 1 dereferenceable(1) %_M_impl2, ptr noundef %1) #3
  ret void
}

; Function Attrs: mustprogress uwtable
define hidden void @_ZN4cvc58internal10IntBlaster19translateNoChildrenENS0_12NodeTemplateILb1EEERSt6vectorIS3_SaIS3_EERSt3mapIS3_S3_St4lessIS3_ESaISt4pairIKS3_S3_EEE(ptr noalias sret(%"class.cvc5::internal::NodeTemplate") align 8 %agg.result, ptr noundef nonnull align 8 dereferenceable(468) %this, ptr noundef %original, ptr noundef nonnull align 8 dereferenceable(24) %lemmas, ptr noundef nonnull align 8 dereferenceable(48) %skolems) #4 align 2 personality ptr @__gxx_personality_v0 {
entry:
  %result.ptr = alloca ptr, align 8
  %this.addr = alloca ptr, align 8
  %original.indirect_addr = alloca ptr, align 8
  %lemmas.addr = alloca ptr, align 8
  %skolems.addr = alloca ptr, align 8
  %ref.tmp = alloca %"class.cvc5::internal::__cvc5_true", align 1
  %tmp = alloca %"class.cvc5::internal::Cvc5ostream", align 8
  %agg.tmp.ensured = alloca %"class.cvc5::internal::Cvc5ostream", align 8
  %ref.tmp2 = alloca %"class.cvc5::internal::Cvc5ostream", align 8
  %ref.tmp6 = alloca %"class.cvc5::internal::TypeNode", align 8
  %cleanup.cond = alloca i1, align 1
  %exn.slot = alloca ptr, align 8
  %ehselector.slot = alloca i32, align 4
  %nrvo = alloca i1, align 1
  %ref.tmp16 = alloca %"class.cvc5::internal::TypeNode", align 8
  %ss = alloca %"class.std::__cxx11::basic_stringstream", align 8
  %agg.tmp = alloca %"class.cvc5::internal::NodeTemplate.99", align 8
  %ref.tmp31 = alloca %"class.cvc5::internal::NodeTemplate", align 8
  %ref.tmp32 = alloca %"class.std::__cxx11::basic_string", align 8
  %ref.tmp33 = alloca %"class.std::__cxx11::basic_string", align 8
  %ref.tmp37 = alloca %"class.cvc5::internal::TypeNode", align 8
  %intCast = alloca %"class.cvc5::internal::NodeTemplate", align 8
  %agg.tmp49 = alloca %"class.cvc5::internal::NodeTemplate", align 8
  %agg.tmp51 = alloca %"class.cvc5::internal::TypeNode", align 8
  %bvCast = alloca %"class.cvc5::internal::NodeTemplate", align 8
  %ref.tmp61 = alloca %"class.cvc5::internal::NodeTemplate", align 8
  %agg.tmp66 = alloca %"class.cvc5::internal::NodeTemplate", align 8
  %bvsize = alloca i32, align 4
  %ref.tmp75 = alloca %"class.cvc5::internal::TypeNode", align 8
  %agg.tmp81 = alloca %"class.cvc5::internal::NodeTemplate", align 8
  %ref.tmp86 = alloca %"class.cvc5::internal::NodeTemplate", align 8
  %agg.tmp87 = alloca %"class.cvc5::internal::NodeTemplate", align 8
  %agg.tmp89 = alloca %"class.cvc5::internal::TypeNode", align 8
  %ref.tmp100 = alloca %"struct.std::_Rb_tree_iterator", align 8
  %ref.tmp103 = alloca %"struct.std::_Rb_tree_iterator", align 8
  %ref.tmp117 = alloca %"class.cvc5::internal::TypeNode", align 8
  %ref.tmp124 = alloca %"class.cvc5::internal::NodeTemplate", align 8
  %agg.tmp125 = alloca %"class.cvc5::internal::NodeTemplate", align 8
  %constant = alloca %"class.cvc5::internal::BitVector", align 8
  %c = alloca %"class.cvc5::internal::Integer", align 8
  %r = alloca %"class.cvc5::internal::Rational", align 8
  %ref.tmp149 = alloca %"class.cvc5::internal::Integer", align 8
  %ref.tmp155 = alloca %"class.cvc5::internal::NodeTemplate", align 8
  store ptr %agg.result, ptr %result.ptr, align 8
  store ptr %this, ptr %this.addr, align 8
  store ptr %original, ptr %original.indirect_addr, align 8
  store ptr %lemmas, ptr %lemmas.addr, align 8
  store ptr %skolems, ptr %skolems.addr, align 8
  %this1 = load ptr, ptr %this.addr, align 8
  %call = call noundef zeroext i1 @_ZN4cvc58internal11__cvc5_truecvbEv(ptr noundef nonnull align 1 dereferenceable(1) %ref.tmp)
  store i1 false, ptr %cleanup.cond, align 1
  br i1 %call, label %cond.true, label %cond.false

cond.true:                                        ; preds = %entry
  call void @_ZNK4cvc58internal5NullCcvNS0_11Cvc5ostreamEEv(ptr sret(%"class.cvc5::internal::Cvc5ostream") align 8 %tmp, ptr noundef nonnull align 1 dereferenceable(1) @_ZN4cvc58internal10nullStreamE)
  br label %cond.end

cond.false:                                       ; preds = %entry
  call void @_ZNK4cvc58internal6TraceCclEv(ptr sret(%"class.cvc5::internal::Cvc5ostream") align 8 %ref.tmp2, ptr noundef nonnull align 8 dereferenceable(32) @_ZN4cvc58internal12TraceChannelE)
  %call3 = call noundef nonnull align 8 dereferenceable(24) ptr @_ZN4cvc58internal11Cvc5ostreamlsIA19_cEERS1_RKT_(ptr noundef nonnull align 8 dereferenceable(24) %ref.tmp2, ptr noundef nonnull align 1 dereferenceable(19) @.str.9)
  %call4 = call noundef nonnull align 8 dereferenceable(24) ptr @_ZN4cvc58internal11Cvc5ostreamlsINS0_12NodeTemplateILb1EEEEERS1_RKT_(ptr noundef nonnull align 8 dereferenceable(24) %call3, ptr noundef nonnull align 8 dereferenceable(8) %original)
  %call5 = call noundef nonnull align 8 dereferenceable(24) ptr @_ZN4cvc58internal11Cvc5ostreamlsIA12_cEERS1_RKT_(ptr noundef nonnull align 8 dereferenceable(24) %call4, ptr noundef nonnull align 1 dereferenceable(12) @.str.10)
  call void @_ZNK4cvc58internal12NodeTemplateILb1EE7getTypeEb(ptr sret(%"class.cvc5::internal::TypeNode") align 8 %ref.tmp6, ptr noundef nonnull align 8 dereferenceable(8) %original, i1 noundef zeroext false)
  store i1 true, ptr %cleanup.cond, align 1
  %call7 = invoke noundef nonnull align 8 dereferenceable(24) ptr @_ZN4cvc58internal11Cvc5ostreamlsINS0_8TypeNodeEEERS1_RKT_(ptr noundef nonnull align 8 dereferenceable(24) %call5, ptr noundef nonnull align 8 dereferenceable(8) %ref.tmp6)
          to label %invoke.cont unwind label %lpad

invoke.cont:                                      ; preds = %cond.false
  %call9 = invoke noundef nonnull align 8 dereferenceable(24) ptr @_ZN4cvc58internal11Cvc5ostreamlsEPFRSoS2_E(ptr noundef nonnull align 8 dereferenceable(24) %call7, ptr noundef @_ZSt4endlIcSt11char_traitsIcEERSt13basic_ostreamIT_T0_ES6_)
          to label %invoke.cont8 unwind label %lpad

invoke.cont8:                                     ; preds = %invoke.cont
  call void @llvm.memcpy.p0.p0.i64(ptr align 8 %agg.tmp.ensured, ptr align 8 %call9, i64 24, i1 false)
  br label %cond.end

cond.end:                                         ; preds = %invoke.cont8, %cond.true
  %cleanup.is_active = load i1, ptr %cleanup.cond, align 1
  br i1 %cleanup.is_active, label %cleanup.action, label %cleanup.done

cleanup.action:                                   ; preds = %cond.end
  call void @_ZN4cvc58internal8TypeNodeD2Ev(ptr noundef nonnull align 8 dereferenceable(8) %ref.tmp6) #3
  br label %cleanup.done

cleanup.done:                                     ; preds = %cleanup.action, %cond.end
  store i1 false, ptr %nrvo, align 1
  call void @_ZN4cvc58internal12NodeTemplateILb1EEC2Ev(ptr noundef nonnull align 8 dereferenceable(8) %agg.result)
  %call15 = invoke noundef zeroext i1 @_ZNK4cvc58internal12NodeTemplateILb1EE5isVarEv(ptr noundef nonnull align 8 dereferenceable(8) %original)
          to label %invoke.cont14 unwind label %lpad13

invoke.cont14:                                    ; preds = %cleanup.done
  br i1 %call15, label %if.then, label %if.else139

if.then:                                          ; preds = %invoke.cont14
  invoke void @_ZNK4cvc58internal12NodeTemplateILb1EE7getTypeEb(ptr sret(%"class.cvc5::internal::TypeNode") align 8 %ref.tmp16, ptr noundef nonnull align 8 dereferenceable(8) %original, i1 noundef zeroext false)
          to label %invoke.cont17 unwind label %lpad13

invoke.cont17:                                    ; preds = %if.then
  %call20 = invoke noundef zeroext i1 @_ZNK4cvc58internal8TypeNode11isBitVectorEv(ptr noundef nonnull align 8 dereferenceable(8) %ref.tmp16)
          to label %invoke.cont19 unwind label %lpad18

invoke.cont19:                                    ; preds = %invoke.cont17
  call void @_ZN4cvc58internal8TypeNodeD2Ev(ptr noundef nonnull align 8 dereferenceable(8) %ref.tmp16) #3
  br i1 %call20, label %if.then21, label %if.else116

if.then21:                                        ; preds = %invoke.cont19
  %call23 = invoke noundef i32 @_ZNK4cvc58internal12NodeTemplateILb1EE7getKindEv(ptr noundef nonnull align 8 dereferenceable(8) %original)
          to label %invoke.cont22 unwind label %lpad13

invoke.cont22:                                    ; preds = %if.then21
  %cmp = icmp eq i32 %call23, 8
  br i1 %cmp, label %if.then24, label %if.else

if.then24:                                        ; preds = %invoke.cont22
  invoke void @_ZNSt7__cxx1118basic_stringstreamIcSt11char_traitsIcESaIcEEC1Ev(ptr noundef nonnull align 8 dereferenceable(128) %ss)
          to label %invoke.cont25 unwind label %lpad13

invoke.cont25:                                    ; preds = %if.then24
  %add.ptr = getelementptr inbounds i8, ptr %ss, i64 16
  invoke void @_ZN4cvc58internal12NodeTemplateILb0EEC2ERKNS1_ILb1EEE(ptr noundef nonnull align 8 dereferenceable(8) %agg.tmp, ptr noundef nonnull align 8 dereferenceable(8) %original)
          to label %invoke.cont27 unwind label %lpad26

invoke.cont27:                                    ; preds = %invoke.cont25
  %call30 = invoke noundef nonnull align 8 dereferenceable(8) ptr @_ZN4cvc58internallsERSoNS0_12NodeTemplateILb0EEE(ptr noundef nonnull align 8 dereferenceable(8) %add.ptr, ptr noundef %agg.tmp)
          to label %invoke.cont29 unwind label %lpad28

invoke.cont29:                                    ; preds = %invoke.cont27
  call void @_ZN4cvc58internal12NodeTemplateILb0EED2Ev(ptr noundef nonnull align 8 dereferenceable(8) %agg.tmp) #3
  %d_nm = getelementptr inbounds %"class.cvc5::internal::IntBlaster", ptr %this1, i32 0, i32 3
  %0 = load ptr, ptr %d_nm, align 8
  invoke void @_ZNKSt7__cxx1118basic_stringstreamIcSt11char_traitsIcESaIcEE3strEv(ptr sret(%"class.std::__cxx11::basic_string") align 8 %ref.tmp33, ptr noundef nonnull align 8 dereferenceable(128) %ss)
          to label %invoke.cont34 unwind label %lpad26

invoke.cont34:                                    ; preds = %invoke.cont29
  invoke void @_ZStplIcSt11char_traitsIcESaIcEENSt7__cxx1112basic_stringIT_T0_T1_EEOS8_PKS5_(ptr sret(%"class.std::__cxx11::basic_string") align 8 %ref.tmp32, ptr noundef nonnull align 8 dereferenceable(32) %ref.tmp33, ptr noundef @.str.11)
          to label %invoke.cont36 unwind label %lpad35

invoke.cont36:                                    ; preds = %invoke.cont34
  %d_nm38 = getelementptr inbounds %"class.cvc5::internal::IntBlaster", ptr %this1, i32 0, i32 3
  %1 = load ptr, ptr %d_nm38, align 8
  invoke void @_ZN4cvc58internal11NodeManager11integerTypeEv(ptr sret(%"class.cvc5::internal::TypeNode") align 8 %ref.tmp37, ptr noundef nonnull align 8 dereferenceable(3360) %1)
          to label %invoke.cont40 unwind label %lpad39

invoke.cont40:                                    ; preds = %invoke.cont36
  invoke void @_ZN4cvc58internal11NodeManager10mkBoundVarERKNSt7__cxx1112basic_stringIcSt11char_traitsIcESaIcEEERKNS0_8TypeNodeE(ptr sret(%"class.cvc5::internal::NodeTemplate") align 8 %ref.tmp31, ptr noundef nonnull align 8 dereferenceable(3360) %0, ptr noundef nonnull align 8 dereferenceable(32) %ref.tmp32, ptr noundef nonnull align 8 dereferenceable(8) %ref.tmp37)
          to label %invoke.cont42 unwind label %lpad41

invoke.cont42:                                    ; preds = %invoke.cont40
  %call45 = invoke noundef nonnull align 8 dereferenceable(8) ptr @_ZN4cvc58internal12NodeTemplateILb1EEaSERKS2_(ptr noundef nonnull align 8 dereferenceable(8) %agg.result, ptr noundef nonnull align 8 dereferenceable(8) %ref.tmp31)
          to label %invoke.cont44 unwind label %lpad43

invoke.cont44:                                    ; preds = %invoke.cont42
  call void @_ZN4cvc58internal12NodeTemplateILb1EED2Ev(ptr noundef nonnull align 8 dereferenceable(8) %ref.tmp31) #3
  call void @_ZN4cvc58internal8TypeNodeD2Ev(ptr noundef nonnull align 8 dereferenceable(8) %ref.tmp37) #3
  call void @_ZNSt7__cxx1112basic_stringIcSt11char_traitsIcESaIcEED1Ev(ptr noundef nonnull align 8 dereferenceable(32) %ref.tmp32) #3
  call void @_ZNSt7__cxx1112basic_stringIcSt11char_traitsIcESaIcEED1Ev(ptr noundef nonnull align 8 dereferenceable(32) %ref.tmp33) #3
  call void @_ZNSt7__cxx1118basic_stringstreamIcSt11char_traitsIcESaIcEED1Ev(ptr noundef nonnull align 8 dereferenceable(128) %ss) #3
  br label %if.end115

lpad:                                             ; preds = %invoke.cont, %cond.false
  %2 = landingpad { ptr, i32 }
          cleanup
  %3 = extractvalue { ptr, i32 } %2, 0
  store ptr %3, ptr %exn.slot, align 8
  %4 = extractvalue { ptr, i32 } %2, 1
  store i32 %4, ptr %ehselector.slot, align 4
  %cleanup.is_active10 = load i1, ptr %cleanup.cond, align 1
  br i1 %cleanup.is_active10, label %cleanup.action11, label %cleanup.done12

cleanup.action11:                                 ; preds = %lpad
  call void @_ZN4cvc58internal8TypeNodeD2Ev(ptr noundef nonnull align 8 dereferenceable(8) %ref.tmp6) #3
  br label %cleanup.done12

cleanup.done12:                                   ; preds = %cleanup.action11, %lpad
  br label %eh.resume

lpad13:                                           ; preds = %if.else166, %invoke.cont144, %if.then143, %if.else139, %if.else134, %if.then123, %if.else116, %if.else, %if.then24, %if.then21, %if.then, %cleanup.done
  %5 = landingpad { ptr, i32 }
          cleanup
  %6 = extractvalue { ptr, i32 } %5, 0
  store ptr %6, ptr %exn.slot, align 8
  %7 = extractvalue { ptr, i32 } %5, 1
  store i32 %7, ptr %ehselector.slot, align 4
  br label %ehcleanup171

lpad18:                                           ; preds = %invoke.cont17
  %8 = landingpad { ptr, i32 }
          cleanup
  %9 = extractvalue { ptr, i32 } %8, 0
  store ptr %9, ptr %exn.slot, align 8
  %10 = extractvalue { ptr, i32 } %8, 1
  store i32 %10, ptr %ehselector.slot, align 4
  call void @_ZN4cvc58internal8TypeNodeD2Ev(ptr noundef nonnull align 8 dereferenceable(8) %ref.tmp16) #3
  br label %ehcleanup171

lpad26:                                           ; preds = %invoke.cont29, %invoke.cont25
  %11 = landingpad { ptr, i32 }
          cleanup
  %12 = extractvalue { ptr, i32 } %11, 0
  store ptr %12, ptr %exn.slot, align 8
  %13 = extractvalue { ptr, i32 } %11, 1
  store i32 %13, ptr %ehselector.slot, align 4
  br label %ehcleanup48

lpad28:                                           ; preds = %invoke.cont27
  %14 = landingpad { ptr, i32 }
          cleanup
  %15 = extractvalue { ptr, i32 } %14, 0
  store ptr %15, ptr %exn.slot, align 8
  %16 = extractvalue { ptr, i32 } %14, 1
  store i32 %16, ptr %ehselector.slot, align 4
  call void @_ZN4cvc58internal12NodeTemplateILb0EED2Ev(ptr noundef nonnull align 8 dereferenceable(8) %agg.tmp) #3
  br label %ehcleanup48

lpad35:                                           ; preds = %invoke.cont34
  %17 = landingpad { ptr, i32 }
          cleanup
  %18 = extractvalue { ptr, i32 } %17, 0
  store ptr %18, ptr %exn.slot, align 8
  %19 = extractvalue { ptr, i32 } %17, 1
  store i32 %19, ptr %ehselector.slot, align 4
  br label %ehcleanup47

lpad39:                                           ; preds = %invoke.cont36
  %20 = landingpad { ptr, i32 }
          cleanup
  %21 = extractvalue { ptr, i32 } %20, 0
  store ptr %21, ptr %exn.slot, align 8
  %22 = extractvalue { ptr, i32 } %20, 1
  store i32 %22, ptr %ehselector.slot, align 4
  br label %ehcleanup46

lpad41:                                           ; preds = %invoke.cont40
  %23 = landingpad { ptr, i32 }
          cleanup
  %24 = extractvalue { ptr, i32 } %23, 0
  store ptr %24, ptr %exn.slot, align 8
  %25 = extractvalue { ptr, i32 } %23, 1
  store i32 %25, ptr %ehselector.slot, align 4
  br label %ehcleanup

lpad43:                                           ; preds = %invoke.cont42
  %26 = landingpad { ptr, i32 }
          cleanup
  %27 = extractvalue { ptr, i32 } %26, 0
  store ptr %27, ptr %exn.slot, align 8
  %28 = extractvalue { ptr, i32 } %26, 1
  store i32 %28, ptr %ehselector.slot, align 4
  call void @_ZN4cvc58internal12NodeTemplateILb1EED2Ev(ptr noundef nonnull align 8 dereferenceable(8) %ref.tmp31) #3
  br label %ehcleanup

ehcleanup:                                        ; preds = %lpad43, %lpad41
  call void @_ZN4cvc58internal8TypeNodeD2Ev(ptr noundef nonnull align 8 dereferenceable(8) %ref.tmp37) #3
  br label %ehcleanup46

ehcleanup46:                                      ; preds = %ehcleanup, %lpad39
  call void @_ZNSt7__cxx1112basic_stringIcSt11char_traitsIcESaIcEED1Ev(ptr noundef nonnull align 8 dereferenceable(32) %ref.tmp32) #3
  br label %ehcleanup47

ehcleanup47:                                      ; preds = %ehcleanup46, %lpad35
  call void @_ZNSt7__cxx1112basic_stringIcSt11char_traitsIcESaIcEED1Ev(ptr noundef nonnull align 8 dereferenceable(32) %ref.tmp33) #3
  br label %ehcleanup48

ehcleanup48:                                      ; preds = %ehcleanup47, %lpad28, %lpad26
  call void @_ZNSt7__cxx1118basic_stringstreamIcSt11char_traitsIcESaIcEED1Ev(ptr noundef nonnull align 8 dereferenceable(128) %ss) #3
  br label %ehcleanup171

if.else:                                          ; preds = %invoke.cont22
  invoke void @_ZN4cvc58internal12NodeTemplateILb1EEC2ERKS2_(ptr noundef nonnull align 8 dereferenceable(8) %agg.tmp49, ptr noundef nonnull align 8 dereferenceable(8) %original)
          to label %invoke.cont50 unwind label %lpad13

invoke.cont50:                                    ; preds = %if.else
  %d_nm52 = getelementptr inbounds %"class.cvc5::internal::IntBlaster", ptr %this1, i32 0, i32 3
  %29 = load ptr, ptr %d_nm52, align 8
  invoke void @_ZN4cvc58internal11NodeManager11integerTypeEv(ptr sret(%"class.cvc5::internal::TypeNode") align 8 %agg.tmp51, ptr noundef nonnull align 8 dereferenceable(3360) %29)
          to label %invoke.cont54 unwind label %lpad53

invoke.cont54:                                    ; preds = %invoke.cont50
  invoke void @_ZN4cvc58internal10IntBlaster10castToTypeENS0_12NodeTemplateILb1EEENS0_8TypeNodeE(ptr sret(%"class.cvc5::internal::NodeTemplate") align 8 %intCast, ptr noundef nonnull align 8 dereferenceable(468) %this1, ptr noundef %agg.tmp49, ptr noundef %agg.tmp51)
          to label %invoke.cont56 unwind label %lpad55

invoke.cont56:                                    ; preds = %invoke.cont54
  call void @_ZN4cvc58internal8TypeNodeD2Ev(ptr noundef nonnull align 8 dereferenceable(8) %agg.tmp51) #3
  call void @_ZN4cvc58internal12NodeTemplateILb1EED2Ev(ptr noundef nonnull align 8 dereferenceable(8) %agg.tmp49) #3
  invoke void @_ZN4cvc58internal12NodeTemplateILb1EEC2Ev(ptr noundef nonnull align 8 dereferenceable(8) %bvCast)
          to label %invoke.cont60 unwind label %lpad59

invoke.cont60:                                    ; preds = %invoke.cont56
  %d_nm62 = getelementptr inbounds %"class.cvc5::internal::IntBlaster", ptr %this1, i32 0, i32 3
  %30 = load ptr, ptr %d_nm62, align 8
  %call65 = invoke noundef ptr @_ZN4cvc58internal11NodeManager16getSkolemManagerEv(ptr noundef nonnull align 8 dereferenceable(3360) %30)
          to label %invoke.cont64 unwind label %lpad63

invoke.cont64:                                    ; preds = %invoke.cont60
  invoke void @_ZN4cvc58internal12NodeTemplateILb1EEC2ERKS2_(ptr noundef nonnull align 8 dereferenceable(8) %agg.tmp66, ptr noundef nonnull align 8 dereferenceable(8) %intCast)
          to label %invoke.cont67 unwind label %lpad63

invoke.cont67:                                    ; preds = %invoke.cont64
  invoke void @_ZN4cvc58internal13SkolemManager14mkPurifySkolemENS0_12NodeTemplateILb1EEEPNS0_14ProofGeneratorE(ptr sret(%"class.cvc5::internal::NodeTemplate") align 8 %ref.tmp61, ptr noundef nonnull align 8 dereferenceable(152) %call65, ptr noundef %agg.tmp66, ptr noundef null)
          to label %invoke.cont69 unwind label %lpad68

invoke.cont69:                                    ; preds = %invoke.cont67
  %call72 = invoke noundef nonnull align 8 dereferenceable(8) ptr @_ZN4cvc58internal12NodeTemplateILb1EEaSERKS2_(ptr noundef nonnull align 8 dereferenceable(8) %agg.result, ptr noundef nonnull align 8 dereferenceable(8) %ref.tmp61)
          to label %invoke.cont71 unwind label %lpad70

invoke.cont71:                                    ; preds = %invoke.cont69
  call void @_ZN4cvc58internal12NodeTemplateILb1EED2Ev(ptr noundef nonnull align 8 dereferenceable(8) %ref.tmp61) #3
  call void @_ZN4cvc58internal12NodeTemplateILb1EED2Ev(ptr noundef nonnull align 8 dereferenceable(8) %agg.tmp66) #3
  invoke void @_ZNK4cvc58internal12NodeTemplateILb1EE7getTypeEb(ptr sret(%"class.cvc5::internal::TypeNode") align 8 %ref.tmp75, ptr noundef nonnull align 8 dereferenceable(8) %original, i1 noundef zeroext false)
          to label %invoke.cont76 unwind label %lpad63

invoke.cont76:                                    ; preds = %invoke.cont71
  %call79 = invoke noundef i32 @_ZNK4cvc58internal8TypeNode16getBitVectorSizeEv(ptr noundef nonnull align 8 dereferenceable(8) %ref.tmp75)
          to label %invoke.cont78 unwind label %lpad77

invoke.cont78:                                    ; preds = %invoke.cont76
  call void @_ZN4cvc58internal8TypeNodeD2Ev(ptr noundef nonnull align 8 dereferenceable(8) %ref.tmp75) #3
  store i32 %call79, ptr %bvsize, align 4
  invoke void @_ZN4cvc58internal12NodeTemplateILb1EEC2ERKS2_(ptr noundef nonnull align 8 dereferenceable(8) %agg.tmp81, ptr noundef nonnull align 8 dereferenceable(8) %agg.result)
          to label %invoke.cont82 unwind label %lpad63

invoke.cont82:                                    ; preds = %invoke.cont78
  %31 = load i32, ptr %bvsize, align 4
  %32 = load ptr, ptr %lemmas.addr, align 8
  invoke void @_ZN4cvc58internal10IntBlaster18addRangeConstraintENS0_12NodeTemplateILb1EEEjRSt6vectorIS3_SaIS3_EE(ptr noundef nonnull align 8 dereferenceable(468) %this1, ptr noundef %agg.tmp81, i32 noundef %31, ptr noundef nonnull align 8 dereferenceable(24) %32)
          to label %invoke.cont84 unwind label %lpad83

invoke.cont84:                                    ; preds = %invoke.cont82
  call void @_ZN4cvc58internal12NodeTemplateILb1EED2Ev(ptr noundef nonnull align 8 dereferenceable(8) %agg.tmp81) #3
  invoke void @_ZN4cvc58internal12NodeTemplateILb1EEC2ERKS2_(ptr noundef nonnull align 8 dereferenceable(8) %agg.tmp87, ptr noundef nonnull align 8 dereferenceable(8) %agg.result)
          to label %invoke.cont88 unwind label %lpad63

invoke.cont88:                                    ; preds = %invoke.cont84
  invoke void @_ZNK4cvc58internal12NodeTemplateILb1EE7getTypeEb(ptr sret(%"class.cvc5::internal::TypeNode") align 8 %agg.tmp89, ptr noundef nonnull align 8 dereferenceable(8) %original, i1 noundef zeroext false)
          to label %invoke.cont91 unwind label %lpad90

invoke.cont91:                                    ; preds = %invoke.cont88
  invoke void @_ZN4cvc58internal10IntBlaster10castToTypeENS0_12NodeTemplateILb1EEENS0_8TypeNodeE(ptr sret(%"class.cvc5::internal::NodeTemplate") align 8 %ref.tmp86, ptr noundef nonnull align 8 dereferenceable(468) %this1, ptr noundef %agg.tmp87, ptr noundef %agg.tmp89)
          to label %invoke.cont93 unwind label %lpad92

invoke.cont93:                                    ; preds = %invoke.cont91
  %call96 = invoke noundef nonnull align 8 dereferenceable(8) ptr @_ZN4cvc58internal12NodeTemplateILb1EEaSERKS2_(ptr noundef nonnull align 8 dereferenceable(8) %bvCast, ptr noundef nonnull align 8 dereferenceable(8) %ref.tmp86)
          to label %invoke.cont95 unwind label %lpad94

invoke.cont95:                                    ; preds = %invoke.cont93
  call void @_ZN4cvc58internal12NodeTemplateILb1EED2Ev(ptr noundef nonnull align 8 dereferenceable(8) %ref.tmp86) #3
  call void @_ZN4cvc58internal8TypeNodeD2Ev(ptr noundef nonnull align 8 dereferenceable(8) %agg.tmp89) #3
  call void @_ZN4cvc58internal12NodeTemplateILb1EED2Ev(ptr noundef nonnull align 8 dereferenceable(8) %agg.tmp87) #3
  %33 = load ptr, ptr %skolems.addr, align 8
  %call102 = invoke ptr @_ZNSt3mapIN4cvc58internal12NodeTemplateILb1EEES3_St4lessIS3_ESaISt4pairIKS3_S3_EEE4findERS7_(ptr noundef nonnull align 8 dereferenceable(48) %33, ptr noundef nonnull align 8 dereferenceable(8) %original)
          to label %invoke.cont101 unwind label %lpad63

invoke.cont101:                                   ; preds = %invoke.cont95
  %coerce.dive = getelementptr inbounds %"struct.std::_Rb_tree_iterator", ptr %ref.tmp100, i32 0, i32 0
  store ptr %call102, ptr %coerce.dive, align 8
  %34 = load ptr, ptr %skolems.addr, align 8
  %call104 = call ptr @_ZNSt3mapIN4cvc58internal12NodeTemplateILb1EEES3_St4lessIS3_ESaISt4pairIKS3_S3_EEE3endEv(ptr noundef nonnull align 8 dereferenceable(48) %34) #3
  %coerce.dive105 = getelementptr inbounds %"struct.std::_Rb_tree_iterator", ptr %ref.tmp103, i32 0, i32 0
  store ptr %call104, ptr %coerce.dive105, align 8
  %call106 = call noundef zeroext i1 @_ZSteqRKSt17_Rb_tree_iteratorISt4pairIKN4cvc58internal12NodeTemplateILb1EEES4_EES9_(ptr noundef nonnull align 8 dereferenceable(8) %ref.tmp100, ptr noundef nonnull align 8 dereferenceable(8) %ref.tmp103) #3
  br i1 %call106, label %if.then107, label %if.else112

if.then107:                                       ; preds = %invoke.cont101
  %35 = load ptr, ptr %skolems.addr, align 8
  %call109 = invoke noundef nonnull align 8 dereferenceable(8) ptr @_ZNSt3mapIN4cvc58internal12NodeTemplateILb1EEES3_St4lessIS3_ESaISt4pairIKS3_S3_EEEixERS7_(ptr noundef nonnull align 8 dereferenceable(48) %35, ptr noundef nonnull align 8 dereferenceable(8) %original)
          to label %invoke.cont108 unwind label %lpad63

invoke.cont108:                                   ; preds = %if.then107
  %call111 = invoke noundef nonnull align 8 dereferenceable(8) ptr @_ZN4cvc58internal12NodeTemplateILb1EEaSERKS2_(ptr noundef nonnull align 8 dereferenceable(8) %call109, ptr noundef nonnull align 8 dereferenceable(8) %bvCast)
          to label %invoke.cont110 unwind label %lpad63

invoke.cont110:                                   ; preds = %invoke.cont108
  br label %if.end

lpad53:                                           ; preds = %invoke.cont50
  %36 = landingpad { ptr, i32 }
          cleanup
  %37 = extractvalue { ptr, i32 } %36, 0
  store ptr %37, ptr %exn.slot, align 8
  %38 = extractvalue { ptr, i32 } %36, 1
  store i32 %38, ptr %ehselector.slot, align 4
  br label %ehcleanup58

lpad55:                                           ; preds = %invoke.cont54
  %39 = landingpad { ptr, i32 }
          cleanup
  %40 = extractvalue { ptr, i32 } %39, 0
  store ptr %40, ptr %exn.slot, align 8
  %41 = extractvalue { ptr, i32 } %39, 1
  store i32 %41, ptr %ehselector.slot, align 4
  call void @_ZN4cvc58internal8TypeNodeD2Ev(ptr noundef nonnull align 8 dereferenceable(8) %agg.tmp51) #3
  br label %ehcleanup58

ehcleanup58:                                      ; preds = %lpad55, %lpad53
  call void @_ZN4cvc58internal12NodeTemplateILb1EED2Ev(ptr noundef nonnull align 8 dereferenceable(8) %agg.tmp49) #3
  br label %ehcleanup171

lpad59:                                           ; preds = %invoke.cont56
  %42 = landingpad { ptr, i32 }
          cleanup
  %43 = extractvalue { ptr, i32 } %42, 0
  store ptr %43, ptr %exn.slot, align 8
  %44 = extractvalue { ptr, i32 } %42, 1
  store i32 %44, ptr %ehselector.slot, align 4
  br label %ehcleanup114

lpad63:                                           ; preds = %invoke.cont108, %if.then107, %invoke.cont95, %invoke.cont84, %invoke.cont78, %invoke.cont71, %invoke.cont64, %invoke.cont60
  %45 = landingpad { ptr, i32 }
          cleanup
  %46 = extractvalue { ptr, i32 } %45, 0
  store ptr %46, ptr %exn.slot, align 8
  %47 = extractvalue { ptr, i32 } %45, 1
  store i32 %47, ptr %ehselector.slot, align 4
  br label %ehcleanup113

lpad68:                                           ; preds = %invoke.cont67
  %48 = landingpad { ptr, i32 }
          cleanup
  %49 = extractvalue { ptr, i32 } %48, 0
  store ptr %49, ptr %exn.slot, align 8
  %50 = extractvalue { ptr, i32 } %48, 1
  store i32 %50, ptr %ehselector.slot, align 4
  br label %ehcleanup74

lpad70:                                           ; preds = %invoke.cont69
  %51 = landingpad { ptr, i32 }
          cleanup
  %52 = extractvalue { ptr, i32 } %51, 0
  store ptr %52, ptr %exn.slot, align 8
  %53 = extractvalue { ptr, i32 } %51, 1
  store i32 %53, ptr %ehselector.slot, align 4
  call void @_ZN4cvc58internal12NodeTemplateILb1EED2Ev(ptr noundef nonnull align 8 dereferenceable(8) %ref.tmp61) #3
  br label %ehcleanup74

ehcleanup74:                                      ; preds = %lpad70, %lpad68
  call void @_ZN4cvc58internal12NodeTemplateILb1EED2Ev(ptr noundef nonnull align 8 dereferenceable(8) %agg.tmp66) #3
  br label %ehcleanup113

lpad77:                                           ; preds = %invoke.cont76
  %54 = landingpad { ptr, i32 }
          cleanup
  %55 = extractvalue { ptr, i32 } %54, 0
  store ptr %55, ptr %exn.slot, align 8
  %56 = extractvalue { ptr, i32 } %54, 1
  store i32 %56, ptr %ehselector.slot, align 4
  call void @_ZN4cvc58internal8TypeNodeD2Ev(ptr noundef nonnull align 8 dereferenceable(8) %ref.tmp75) #3
  br label %ehcleanup113

lpad83:                                           ; preds = %invoke.cont82
  %57 = landingpad { ptr, i32 }
          cleanup
  %58 = extractvalue { ptr, i32 } %57, 0
  store ptr %58, ptr %exn.slot, align 8
  %59 = extractvalue { ptr, i32 } %57, 1
  store i32 %59, ptr %ehselector.slot, align 4
  call void @_ZN4cvc58internal12NodeTemplateILb1EED2Ev(ptr noundef nonnull align 8 dereferenceable(8) %agg.tmp81) #3
  br label %ehcleanup113

lpad90:                                           ; preds = %invoke.cont88
  %60 = landingpad { ptr, i32 }
          cleanup
  %61 = extractvalue { ptr, i32 } %60, 0
  store ptr %61, ptr %exn.slot, align 8
  %62 = extractvalue { ptr, i32 } %60, 1
  store i32 %62, ptr %ehselector.slot, align 4
  br label %ehcleanup99

lpad92:                                           ; preds = %invoke.cont91
  %63 = landingpad { ptr, i32 }
          cleanup
  %64 = extractvalue { ptr, i32 } %63, 0
  store ptr %64, ptr %exn.slot, align 8
  %65 = extractvalue { ptr, i32 } %63, 1
  store i32 %65, ptr %ehselector.slot, align 4
  br label %ehcleanup98

lpad94:                                           ; preds = %invoke.cont93
  %66 = landingpad { ptr, i32 }
          cleanup
  %67 = extractvalue { ptr, i32 } %66, 0
  store ptr %67, ptr %exn.slot, align 8
  %68 = extractvalue { ptr, i32 } %66, 1
  store i32 %68, ptr %ehselector.slot, align 4
  call void @_ZN4cvc58internal12NodeTemplateILb1EED2Ev(ptr noundef nonnull align 8 dereferenceable(8) %ref.tmp86) #3
  br label %ehcleanup98

ehcleanup98:                                      ; preds = %lpad94, %lpad92
  call void @_ZN4cvc58internal8TypeNodeD2Ev(ptr noundef nonnull align 8 dereferenceable(8) %agg.tmp89) #3
  br label %ehcleanup99

ehcleanup99:                                      ; preds = %ehcleanup98, %lpad90
  call void @_ZN4cvc58internal12NodeTemplateILb1EED2Ev(ptr noundef nonnull align 8 dereferenceable(8) %agg.tmp87) #3
  br label %ehcleanup113

if.else112:                                       ; preds = %invoke.cont101
  br label %if.end

if.end:                                           ; preds = %if.else112, %invoke.cont110
  call void @_ZN4cvc58internal12NodeTemplateILb1EED2Ev(ptr noundef nonnull align 8 dereferenceable(8) %bvCast) #3
  call void @_ZN4cvc58internal12NodeTemplateILb1EED2Ev(ptr noundef nonnull align 8 dereferenceable(8) %intCast) #3
  br label %if.end115

ehcleanup113:                                     ; preds = %ehcleanup99, %lpad83, %lpad77, %ehcleanup74, %lpad63
  call void @_ZN4cvc58internal12NodeTemplateILb1EED2Ev(ptr noundef nonnull align 8 dereferenceable(8) %bvCast) #3
  br label %ehcleanup114

ehcleanup114:                                     ; preds = %ehcleanup113, %lpad59
  call void @_ZN4cvc58internal12NodeTemplateILb1EED2Ev(ptr noundef nonnull align 8 dereferenceable(8) %intCast) #3
  br label %ehcleanup171

if.end115:                                        ; preds = %if.end, %invoke.cont44
  br label %if.end138

if.else116:                                       ; preds = %invoke.cont19
  invoke void @_ZNK4cvc58internal12NodeTemplateILb1EE7getTypeEb(ptr sret(%"class.cvc5::internal::TypeNode") align 8 %ref.tmp117, ptr noundef nonnull align 8 dereferenceable(8) %original, i1 noundef zeroext false)
          to label %invoke.cont118 unwind label %lpad13

invoke.cont118:                                   ; preds = %if.else116
  %call121 = invoke noundef zeroext i1 @_ZNK4cvc58internal8TypeNode10isFunctionEv(ptr noundef nonnull align 8 dereferenceable(8) %ref.tmp117)
          to label %invoke.cont120 unwind label %lpad119

invoke.cont120:                                   ; preds = %invoke.cont118
  call void @_ZN4cvc58internal8TypeNodeD2Ev(ptr noundef nonnull align 8 dereferenceable(8) %ref.tmp117) #3
  br i1 %call121, label %if.then123, label %if.else134

if.then123:                                       ; preds = %invoke.cont120
  invoke void @_ZN4cvc58internal12NodeTemplateILb1EEC2ERKS2_(ptr noundef nonnull align 8 dereferenceable(8) %agg.tmp125, ptr noundef nonnull align 8 dereferenceable(8) %original)
          to label %invoke.cont126 unwind label %lpad13

invoke.cont126:                                   ; preds = %if.then123
  %69 = load ptr, ptr %skolems.addr, align 8
  invoke void @_ZN4cvc58internal10IntBlaster23translateFunctionSymbolENS0_12NodeTemplateILb1EEERSt3mapIS3_S3_St4lessIS3_ESaISt4pairIKS3_S3_EEE(ptr sret(%"class.cvc5::internal::NodeTemplate") align 8 %ref.tmp124, ptr noundef nonnull align 8 dereferenceable(468) %this1, ptr noundef %agg.tmp125, ptr noundef nonnull align 8 dereferenceable(48) %69)
          to label %invoke.cont128 unwind label %lpad127

invoke.cont128:                                   ; preds = %invoke.cont126
  %call131 = invoke noundef nonnull align 8 dereferenceable(8) ptr @_ZN4cvc58internal12NodeTemplateILb1EEaSERKS2_(ptr noundef nonnull align 8 dereferenceable(8) %agg.result, ptr noundef nonnull align 8 dereferenceable(8) %ref.tmp124)
          to label %invoke.cont130 unwind label %lpad129

invoke.cont130:                                   ; preds = %invoke.cont128
  call void @_ZN4cvc58internal12NodeTemplateILb1EED2Ev(ptr noundef nonnull align 8 dereferenceable(8) %ref.tmp124) #3
  call void @_ZN4cvc58internal12NodeTemplateILb1EED2Ev(ptr noundef nonnull align 8 dereferenceable(8) %agg.tmp125) #3
  br label %if.end137

lpad119:                                          ; preds = %invoke.cont118
  %70 = landingpad { ptr, i32 }
          cleanup
  %71 = extractvalue { ptr, i32 } %70, 0
  store ptr %71, ptr %exn.slot, align 8
  %72 = extractvalue { ptr, i32 } %70, 1
  store i32 %72, ptr %ehselector.slot, align 4
  call void @_ZN4cvc58internal8TypeNodeD2Ev(ptr noundef nonnull align 8 dereferenceable(8) %ref.tmp117) #3
  br label %ehcleanup171

lpad127:                                          ; preds = %invoke.cont126
  %73 = landingpad { ptr, i32 }
          cleanup
  %74 = extractvalue { ptr, i32 } %73, 0
  store ptr %74, ptr %exn.slot, align 8
  %75 = extractvalue { ptr, i32 } %73, 1
  store i32 %75, ptr %ehselector.slot, align 4
  br label %ehcleanup133

lpad129:                                          ; preds = %invoke.cont128
  %76 = landingpad { ptr, i32 }
          cleanup
  %77 = extractvalue { ptr, i32 } %76, 0
  store ptr %77, ptr %exn.slot, align 8
  %78 = extractvalue { ptr, i32 } %76, 1
  store i32 %78, ptr %ehselector.slot, align 4
  call void @_ZN4cvc58internal12NodeTemplateILb1EED2Ev(ptr noundef nonnull align 8 dereferenceable(8) %ref.tmp124) #3
  br label %ehcleanup133

ehcleanup133:                                     ; preds = %lpad129, %lpad127
  call void @_ZN4cvc58internal12NodeTemplateILb1EED2Ev(ptr noundef nonnull align 8 dereferenceable(8) %agg.tmp125) #3
  br label %ehcleanup171

if.else134:                                       ; preds = %invoke.cont120
  %call136 = invoke noundef nonnull align 8 dereferenceable(8) ptr @_ZN4cvc58internal12NodeTemplateILb1EEaSERKS2_(ptr noundef nonnull align 8 dereferenceable(8) %agg.result, ptr noundef nonnull align 8 dereferenceable(8) %original)
          to label %invoke.cont135 unwind label %lpad13

invoke.cont135:                                   ; preds = %if.else134
  br label %if.end137

if.end137:                                        ; preds = %invoke.cont135, %invoke.cont130
  br label %if.end138

if.end138:                                        ; preds = %if.end137, %if.end115
  br label %if.end170

if.else139:                                       ; preds = %invoke.cont14
  %call141 = invoke noundef i32 @_ZNK4cvc58internal12NodeTemplateILb1EE7getKindEv(ptr noundef nonnull align 8 dereferenceable(8) %original)
          to label %invoke.cont140 unwind label %lpad13

invoke.cont140:                                   ; preds = %if.else139
  %cmp142 = icmp eq i32 %call141, 83
  br i1 %cmp142, label %if.then143, label %if.else166

if.then143:                                       ; preds = %invoke.cont140
  %call145 = invoke noundef nonnull align 8 dereferenceable(24) ptr @_ZNK4cvc58internal12NodeTemplateILb1EE8getConstINS0_9BitVectorEEERKT_v(ptr noundef nonnull align 8 dereferenceable(8) %original)
          to label %invoke.cont144 unwind label %lpad13

invoke.cont144:                                   ; preds = %if.then143
  invoke void @_ZN4cvc58internal9BitVectorC2ERKS1_(ptr noundef nonnull align 8 dereferenceable(24) %constant, ptr noundef nonnull align 8 dereferenceable(24) %call145)
          to label %invoke.cont146 unwind label %lpad13

invoke.cont146:                                   ; preds = %invoke.cont144
  invoke void @_ZNK4cvc58internal9BitVector9toIntegerEv(ptr sret(%"class.cvc5::internal::Integer") align 8 %c, ptr noundef nonnull align 8 dereferenceable(24) %constant)
          to label %invoke.cont148 unwind label %lpad147

invoke.cont148:                                   ; preds = %invoke.cont146
  invoke void @_ZN4cvc58internal7IntegerC2Ei(ptr noundef nonnull align 8 dereferenceable(16) %ref.tmp149, i32 noundef 1)
          to label %invoke.cont151 unwind label %lpad150

invoke.cont151:                                   ; preds = %invoke.cont148
  invoke void @_ZN4cvc58internal8RationalC2ERKNS0_7IntegerES4_(ptr noundef nonnull align 8 dereferenceable(32) %r, ptr noundef nonnull align 8 dereferenceable(16) %c, ptr noundef nonnull align 8 dereferenceable(16) %ref.tmp149)
          to label %invoke.cont153 unwind label %lpad152

invoke.cont153:                                   ; preds = %invoke.cont151
  call void @_ZN4cvc58internal7IntegerD2Ev(ptr noundef nonnull align 8 dereferenceable(16) %ref.tmp149) #3
  %d_nm156 = getelementptr inbounds %"class.cvc5::internal::IntBlaster", ptr %this1, i32 0, i32 3
  %79 = load ptr, ptr %d_nm156, align 8
  invoke void @_ZN4cvc58internal11NodeManager10mkConstIntERKNS0_8RationalE(ptr sret(%"class.cvc5::internal::NodeTemplate") align 8 %ref.tmp155, ptr noundef nonnull align 8 dereferenceable(3360) %79, ptr noundef nonnull align 8 dereferenceable(32) %r)
          to label %invoke.cont158 unwind label %lpad157

invoke.cont158:                                   ; preds = %invoke.cont153
  %call161 = invoke noundef nonnull align 8 dereferenceable(8) ptr @_ZN4cvc58internal12NodeTemplateILb1EEaSERKS2_(ptr noundef nonnull align 8 dereferenceable(8) %agg.result, ptr noundef nonnull align 8 dereferenceable(8) %ref.tmp155)
          to label %invoke.cont160 unwind label %lpad159

invoke.cont160:                                   ; preds = %invoke.cont158
  call void @_ZN4cvc58internal12NodeTemplateILb1EED2Ev(ptr noundef nonnull align 8 dereferenceable(8) %ref.tmp155) #3
  call void @_ZN4cvc58internal8RationalD2Ev(ptr noundef nonnull align 8 dereferenceable(32) %r) #3
  call void @_ZN4cvc58internal7IntegerD2Ev(ptr noundef nonnull align 8 dereferenceable(16) %c) #3
  call void @_ZN4cvc58internal9BitVectorD2Ev(ptr noundef nonnull align 8 dereferenceable(24) %constant) #3
  br label %if.end169

lpad147:                                          ; preds = %invoke.cont146
  %80 = landingpad { ptr, i32 }
          cleanup
  %81 = extractvalue { ptr, i32 } %80, 0
  store ptr %81, ptr %exn.slot, align 8
  %82 = extractvalue { ptr, i32 } %80, 1
  store i32 %82, ptr %ehselector.slot, align 4
  br label %ehcleanup165

lpad150:                                          ; preds = %invoke.cont148
  %83 = landingpad { ptr, i32 }
          cleanup
  %84 = extractvalue { ptr, i32 } %83, 0
  store ptr %84, ptr %exn.slot, align 8
  %85 = extractvalue { ptr, i32 } %83, 1
  store i32 %85, ptr %ehselector.slot, align 4
  br label %ehcleanup164

lpad152:                                          ; preds = %invoke.cont151
  %86 = landingpad { ptr, i32 }
          cleanup
  %87 = extractvalue { ptr, i32 } %86, 0
  store ptr %87, ptr %exn.slot, align 8
  %88 = extractvalue { ptr, i32 } %86, 1
  store i32 %88, ptr %ehselector.slot, align 4
  call void @_ZN4cvc58internal7IntegerD2Ev(ptr noundef nonnull align 8 dereferenceable(16) %ref.tmp149) #3
  br label %ehcleanup164

lpad157:                                          ; preds = %invoke.cont153
  %89 = landingpad { ptr, i32 }
          cleanup
  %90 = extractvalue { ptr, i32 } %89, 0
  store ptr %90, ptr %exn.slot, align 8
  %91 = extractvalue { ptr, i32 } %89, 1
  store i32 %91, ptr %ehselector.slot, align 4
  br label %ehcleanup163

lpad159:                                          ; preds = %invoke.cont158
  %92 = landingpad { ptr, i32 }
          cleanup
  %93 = extractvalue { ptr, i32 } %92, 0
  store ptr %93, ptr %exn.slot, align 8
  %94 = extractvalue { ptr, i32 } %92, 1
  store i32 %94, ptr %ehselector.slot, align 4
  call void @_ZN4cvc58internal12NodeTemplateILb1EED2Ev(ptr noundef nonnull align 8 dereferenceable(8) %ref.tmp155) #3
  br label %ehcleanup163

ehcleanup163:                                     ; preds = %lpad159, %lpad157
  call void @_ZN4cvc58internal8RationalD2Ev(ptr noundef nonnull align 8 dereferenceable(32) %r) #3
  br label %ehcleanup164

ehcleanup164:                                     ; preds = %ehcleanup163, %lpad152, %lpad150
  call void @_ZN4cvc58internal7IntegerD2Ev(ptr noundef nonnull align 8 dereferenceable(16) %c) #3
  br label %ehcleanup165

ehcleanup165:                                     ; preds = %ehcleanup164, %lpad147
  call void @_ZN4cvc58internal9BitVectorD2Ev(ptr noundef nonnull align 8 dereferenceable(24) %constant) #3
  br label %ehcleanup171

if.else166:                                       ; preds = %invoke.cont140
  %call168 = invoke noundef nonnull align 8 dereferenceable(8) ptr @_ZN4cvc58internal12NodeTemplateILb1EEaSERKS2_(ptr noundef nonnull align 8 dereferenceable(8) %agg.result, ptr noundef nonnull align 8 dereferenceable(8) %original)
          to label %invoke.cont167 unwind label %lpad13

invoke.cont167:                                   ; preds = %if.else166
  br label %if.end169

if.end169:                                        ; preds = %invoke.cont167, %invoke.cont160
  br label %if.end170

if.end170:                                        ; preds = %if.end169, %if.end138
  store i1 true, ptr %nrvo, align 1
  %nrvo.val = load i1, ptr %nrvo, align 1
  br i1 %nrvo.val, label %nrvo.skipdtor, label %nrvo.unused

nrvo.unused:                                      ; preds = %if.end170
  call void @_ZN4cvc58internal12NodeTemplateILb1EED2Ev(ptr noundef nonnull align 8 dereferenceable(8) %agg.result) #3
  br label %nrvo.skipdtor

nrvo.skipdtor:                                    ; preds = %nrvo.unused, %if.end170
  ret void

ehcleanup171:                                     ; preds = %ehcleanup165, %ehcleanup133, %lpad119, %ehcleanup114, %ehcleanup58, %ehcleanup48, %lpad18, %lpad13
  call void @_ZN4cvc58internal12NodeTemplateILb1EED2Ev(ptr noundef nonnull align 8 dereferenceable(8) %agg.result) #3
  br label %eh.resume

eh.resume:                                        ; preds = %ehcleanup171, %cleanup.done12
  %exn = load ptr, ptr %exn.slot, align 8
  %sel = load i32, ptr %ehselector.slot, align 4
  %lpad.val = insertvalue { ptr, i32 } poison, ptr %exn, 0
  %lpad.val172 = insertvalue { ptr, i32 } %lpad.val, i32 %sel, 1
  resume { ptr, i32 } %lpad.val172
}

; Function Attrs: mustprogress uwtable
define hidden void @_ZN4cvc58internal10IntBlaster21translateWithChildrenENS0_12NodeTemplateILb1EEERKSt6vectorIS3_SaIS3_EERS6_(ptr noalias sret(%"class.cvc5::internal::NodeTemplate") align 8 %agg.result, ptr noundef nonnull align 8 dereferenceable(468) %this, ptr noundef %original, ptr noundef nonnull align 8 dereferenceable(24) %translated_children, ptr noundef nonnull align 8 dereferenceable(24) %lemmas) #4 align 2 personality ptr @__gxx_personality_v0 {
entry:
  %result.ptr = alloca ptr, align 8
  %this.addr = alloca ptr, align 8
  %original.indirect_addr = alloca ptr, align 8
  %translated_children.addr = alloca ptr, align 8
  %lemmas.addr = alloca ptr, align 8
  %oldKind = alloca i32, align 4
  %nrvo = alloca i1, align 1
  %agg.tmp = alloca %"class.cvc5::internal::NodeTemplate", align 8
  %exn.slot = alloca ptr, align 8
  %ehselector.slot = alloca i32, align 4
  %ref.tmp = alloca %"class.std::__cxx11::basic_string", align 8
  %ref.tmp9 = alloca %"class.std::allocator.107", align 1
  %cleanup.isactive = alloca i1, align 1
  %bvsize = alloca i32, align 4
  %ref.tmp15 = alloca %"class.cvc5::internal::TypeNode", align 8
  %ref.tmp16 = alloca %"class.cvc5::internal::NodeTemplate", align 8
  %ref.tmp25 = alloca %"class.cvc5::internal::NodeTemplate", align 8
  %agg.tmp26 = alloca %"class.cvc5::internal::NodeTemplate", align 8
  %agg.tmp29 = alloca %"class.cvc5::internal::NodeTemplate", align 8
  %bvsize42 = alloca i32, align 4
  %ref.tmp43 = alloca %"class.cvc5::internal::TypeNode", align 8
  %ref.tmp44 = alloca %"class.cvc5::internal::NodeTemplate", align 8
  %mult = alloca %"class.cvc5::internal::NodeTemplate", align 8
  %p2 = alloca %"class.cvc5::internal::NodeTemplate", align 8
  %ref.tmp56 = alloca %"class.cvc5::internal::NodeTemplate", align 8
  %agg.tmp58 = alloca %"class.cvc5::internal::NodeTemplate.99", align 8
  %agg.tmp61 = alloca %"class.cvc5::internal::NodeTemplate.99", align 8
  %bvsize75 = alloca i32, align 4
  %ref.tmp76 = alloca %"class.cvc5::internal::TypeNode", align 8
  %ref.tmp77 = alloca %"class.cvc5::internal::NodeTemplate", align 8
  %pow2BvSize = alloca %"class.cvc5::internal::NodeTemplate", align 8
  %divNode = alloca %"class.cvc5::internal::NodeTemplate", align 8
  %ref.tmp90 = alloca %"class.cvc5::internal::NodeTemplate", align 8
  %agg.tmp92 = alloca %"class.cvc5::internal::NodeTemplate.99", align 8
  %ref.tmp93 = alloca %"class.cvc5::internal::NodeTemplate", align 8
  %agg.tmp95 = alloca %"class.cvc5::internal::NodeTemplate.99", align 8
  %agg.tmp99 = alloca %"class.cvc5::internal::NodeTemplate.99", align 8
  %agg.tmp106 = alloca %"class.cvc5::internal::NodeTemplate.99", align 8
  %ref.tmp107 = alloca %"class.cvc5::internal::NodeTemplate", align 8
  %agg.tmp109 = alloca %"class.cvc5::internal::NodeTemplate.99", align 8
  %agg.tmp112 = alloca %"class.cvc5::internal::NodeTemplate.99", align 8
  %agg.tmp119 = alloca %"class.cvc5::internal::NodeTemplate.99", align 8
  %modNode = alloca %"class.cvc5::internal::NodeTemplate", align 8
  %ref.tmp142 = alloca %"class.cvc5::internal::NodeTemplate", align 8
  %agg.tmp144 = alloca %"class.cvc5::internal::NodeTemplate.99", align 8
  %ref.tmp145 = alloca %"class.cvc5::internal::NodeTemplate", align 8
  %agg.tmp147 = alloca %"class.cvc5::internal::NodeTemplate.99", align 8
  %agg.tmp151 = alloca %"class.cvc5::internal::NodeTemplate.99", align 8
  %agg.tmp159 = alloca %"class.cvc5::internal::NodeTemplate.99", align 8
  %agg.tmp163 = alloca %"class.cvc5::internal::NodeTemplate.99", align 8
  %bvsize180 = alloca i32, align 4
  %ref.tmp181 = alloca %"class.cvc5::internal::TypeNode", align 8
  %ref.tmp182 = alloca %"class.cvc5::internal::NodeTemplate", align 8
  %ref.tmp191 = alloca %"class.cvc5::internal::NodeTemplate", align 8
  %agg.tmp192 = alloca %"class.cvc5::internal::NodeTemplate", align 8
  %bvsize203 = alloca i32, align 4
  %ref.tmp204 = alloca %"class.cvc5::internal::TypeNode", align 8
  %ref.tmp205 = alloca %"class.cvc5::internal::NodeTemplate", align 8
  %ref.tmp214 = alloca %"class.cvc5::internal::NodeTemplate", align 8
  %agg.tmp215 = alloca %"class.cvc5::internal::NodeTemplate", align 8
  %ref.tmp230 = alloca %"class.cvc5::internal::NodeTemplate", align 8
  %agg.tmp231 = alloca %"class.cvc5::internal::NodeTemplate", align 8
  %ref.tmp234 = alloca %"class.cvc5::internal::NodeTemplate", align 8
  %bvsize248 = alloca i32, align 4
  %ref.tmp249 = alloca %"class.cvc5::internal::TypeNode", align 8
  %ref.tmp250 = alloca %"class.cvc5::internal::NodeTemplate", align 8
  %ref.tmp259 = alloca %"class.cvc5::internal::NodeTemplate", align 8
  %agg.tmp260 = alloca %"class.cvc5::internal::NodeTemplate", align 8
  %agg.tmp263 = alloca %"class.cvc5::internal::NodeTemplate", align 8
  %bvsize276 = alloca i32, align 4
  %ref.tmp277 = alloca %"class.cvc5::internal::TypeNode", align 8
  %ref.tmp278 = alloca %"class.cvc5::internal::NodeTemplate", align 8
  %bvor = alloca %"class.cvc5::internal::NodeTemplate", align 8
  %agg.tmp287 = alloca %"class.cvc5::internal::NodeTemplate", align 8
  %agg.tmp290 = alloca %"class.cvc5::internal::NodeTemplate", align 8
  %bvand = alloca %"class.cvc5::internal::NodeTemplate", align 8
  %agg.tmp298 = alloca %"class.cvc5::internal::NodeTemplate", align 8
  %agg.tmp302 = alloca %"class.cvc5::internal::NodeTemplate", align 8
  %ref.tmp310 = alloca %"class.cvc5::internal::NodeTemplate", align 8
  %agg.tmp311 = alloca %"class.cvc5::internal::NodeTemplate", align 8
  %agg.tmp314 = alloca %"class.cvc5::internal::NodeTemplate", align 8
  %bvsize328 = alloca i32, align 4
  %ref.tmp329 = alloca %"class.cvc5::internal::TypeNode", align 8
  %ref.tmp330 = alloca %"class.cvc5::internal::NodeTemplate", align 8
  %ref.tmp339 = alloca %"class.cvc5::internal::NodeTemplate", align 8
  %agg.tmp340 = alloca %"class.cvc5::internal::NodeTemplate", align 8
  %agg.tmp343 = alloca %"class.cvc5::internal::NodeTemplate", align 8
  %bvsize356 = alloca i32, align 4
  %ref.tmp357 = alloca %"class.cvc5::internal::TypeNode", align 8
  %ref.tmp358 = alloca %"class.cvc5::internal::NodeTemplate", align 8
  %ref.tmp367 = alloca %"class.cvc5::internal::NodeTemplate", align 8
  %agg.tmp368 = alloca %"class.std::vector.94", align 8
  %bvsize378 = alloca i32, align 4
  %ref.tmp379 = alloca %"class.cvc5::internal::TypeNode", align 8
  %ref.tmp380 = alloca %"class.cvc5::internal::NodeTemplate", align 8
  %ref.tmp389 = alloca %"class.cvc5::internal::NodeTemplate", align 8
  %agg.tmp390 = alloca %"class.std::vector.94", align 8
  %bvsize400 = alloca i32, align 4
  %ref.tmp401 = alloca %"class.cvc5::internal::TypeNode", align 8
  %ref.tmp402 = alloca %"class.cvc5::internal::NodeTemplate", align 8
  %signed_min = alloca %"class.cvc5::internal::NodeTemplate", align 8
  %condition = alloca %"class.cvc5::internal::NodeTemplate", align 8
  %agg.tmp413 = alloca %"class.cvc5::internal::NodeTemplate.99", align 8
  %agg.tmp417 = alloca %"class.cvc5::internal::NodeTemplate.99", align 8
  %thenNode = alloca %"class.cvc5::internal::NodeTemplate", align 8
  %agg.tmp424 = alloca %"class.std::vector.94", align 8
  %children = alloca %"class.std::vector.94", align 8
  %agg.tmp430 = alloca %"class.std::initializer_list", align 8
  %ref.tmp431 = alloca [2 x %"class.cvc5::internal::NodeTemplate"], align 8
  %arrayinit.endOfInit = alloca ptr, align 8
  %agg.tmp432 = alloca %"class.cvc5::internal::NodeTemplate", align 8
  %cleanup.isactive440 = alloca i1, align 1
  %ref.tmp441 = alloca %"class.std::allocator.96", align 1
  %elseNode = alloca %"class.cvc5::internal::NodeTemplate", align 8
  %agg.tmp463 = alloca %"class.cvc5::internal::NodeTemplate", align 8
  %agg.tmp464 = alloca %"class.std::vector.94", align 8
  %ref.tmp473 = alloca %"class.cvc5::internal::NodeTemplate", align 8
  %agg.tmp475 = alloca %"class.cvc5::internal::NodeTemplate.99", align 8
  %agg.tmp478 = alloca %"class.cvc5::internal::NodeTemplate.99", align 8
  %agg.tmp481 = alloca %"class.cvc5::internal::NodeTemplate.99", align 8
  %cond = alloca %"class.cvc5::internal::NodeTemplate", align 8
  %agg.tmp500 = alloca %"class.cvc5::internal::NodeTemplate.99", align 8
  %agg.tmp503 = alloca %"class.cvc5::internal::NodeTemplate.99", align 8
  %ref.tmp511 = alloca %"class.cvc5::internal::NodeTemplate", align 8
  %agg.tmp513 = alloca %"class.cvc5::internal::NodeTemplate.99", align 8
  %agg.tmp516 = alloca %"class.cvc5::internal::NodeTemplate.99", align 8
  %agg.tmp520 = alloca %"class.cvc5::internal::NodeTemplate.99", align 8
  %bvsize539 = alloca i32, align 4
  %ref.tmp540 = alloca %"class.cvc5::internal::TypeNode", align 8
  %ref.tmp541 = alloca %"class.cvc5::internal::NodeTemplate", align 8
  %ref.tmp550 = alloca %"class.cvc5::internal::NodeTemplate", align 8
  %agg.tmp551 = alloca %"class.cvc5::internal::NodeTemplate", align 8
  %agg.tmp554 = alloca %"class.cvc5::internal::NodeTemplate.99", align 8
  %bvsizeRight = alloca i32, align 4
  %ref.tmp568 = alloca %"class.cvc5::internal::TypeNode", align 8
  %ref.tmp569 = alloca %"class.cvc5::internal::NodeTemplate", align 8
  %pow2BvSizeRight = alloca %"class.cvc5::internal::NodeTemplate", align 8
  %a = alloca %"class.cvc5::internal::NodeTemplate", align 8
  %agg.tmp580 = alloca %"class.cvc5::internal::NodeTemplate.99", align 8
  %agg.tmp584 = alloca %"class.cvc5::internal::NodeTemplate.99", align 8
  %b = alloca %"class.cvc5::internal::NodeTemplate", align 8
  %ref.tmp594 = alloca %"class.cvc5::internal::NodeTemplate", align 8
  %agg.tmp596 = alloca %"class.cvc5::internal::NodeTemplate.99", align 8
  %agg.tmp599 = alloca %"class.cvc5::internal::NodeTemplate.99", align 8
  %i = alloca i32, align 4
  %agg.tmp614 = alloca %"class.cvc5::internal::NodeTemplate.99", align 8
  %j = alloca i32, align 4
  %agg.tmp620 = alloca %"class.cvc5::internal::NodeTemplate.99", align 8
  %div = alloca %"class.cvc5::internal::NodeTemplate", align 8
  %agg.tmp627 = alloca %"class.cvc5::internal::NodeTemplate.99", align 8
  %agg.tmp630 = alloca %"class.cvc5::internal::NodeTemplate.99", align 8
  %ref.tmp631 = alloca %"class.cvc5::internal::NodeTemplate", align 8
  %ref.tmp641 = alloca %"class.cvc5::internal::NodeTemplate", align 8
  %agg.tmp642 = alloca %"class.cvc5::internal::NodeTemplate", align 8
  %ref.tmp655 = alloca %"class.cvc5::internal::NodeTemplate", align 8
  %ref.tmp663 = alloca %"class.cvc5::internal::NodeTemplate", align 8
  %bvsize671 = alloca i32, align 4
  %ref.tmp672 = alloca %"class.cvc5::internal::TypeNode", align 8
  %ref.tmp673 = alloca %"class.cvc5::internal::NodeTemplate", align 8
  %ref.tmp682 = alloca %"class.cvc5::internal::NodeTemplate", align 8
  %agg.tmp684 = alloca %"class.cvc5::internal::NodeTemplate.99", align 8
  %ref.tmp685 = alloca %"class.cvc5::internal::NodeTemplate", align 8
  %agg.tmp686 = alloca %"class.cvc5::internal::NodeTemplate", align 8
  %agg.tmp693 = alloca %"class.cvc5::internal::NodeTemplate.99", align 8
  %ref.tmp694 = alloca %"class.cvc5::internal::NodeTemplate", align 8
  %agg.tmp695 = alloca %"class.cvc5::internal::NodeTemplate", align 8
  %ref.tmp716 = alloca %"class.cvc5::internal::NodeTemplate", align 8
  %ref.tmp724 = alloca %"class.cvc5::internal::NodeTemplate", align 8
  %ref.tmp732 = alloca %"class.cvc5::internal::NodeTemplate", align 8
  %ref.tmp740 = alloca %"class.cvc5::internal::NodeTemplate", align 8
  %agg.tmp742 = alloca %"class.cvc5::internal::NodeTemplate.99", align 8
  %ref.tmp743 = alloca %"class.cvc5::internal::NodeTemplate", align 8
  %agg.tmp748 = alloca %"class.cvc5::internal::NodeTemplate.99", align 8
  %agg.tmp752 = alloca %"class.cvc5::internal::NodeTemplate.99", align 8
  %bvsize767 = alloca i32, align 4
  %ref.tmp768 = alloca %"class.cvc5::internal::TypeNode", align 8
  %ref.tmp769 = alloca %"class.cvc5::internal::NodeTemplate", align 8
  %ref.tmp778 = alloca %"class.cvc5::internal::NodeTemplate", align 8
  %agg.tmp780 = alloca %"class.cvc5::internal::NodeTemplate.99", align 8
  %ref.tmp781 = alloca %"class.cvc5::internal::NodeTemplate", align 8
  %agg.tmp783 = alloca %"class.cvc5::internal::NodeTemplate.99", align 8
  %ref.tmp784 = alloca %"class.cvc5::internal::NodeTemplate", align 8
  %agg.tmp785 = alloca %"class.cvc5::internal::NodeTemplate", align 8
  %agg.tmp792 = alloca %"class.cvc5::internal::NodeTemplate.99", align 8
  %ref.tmp793 = alloca %"class.cvc5::internal::NodeTemplate", align 8
  %agg.tmp794 = alloca %"class.cvc5::internal::NodeTemplate", align 8
  %agg.tmp806 = alloca %"class.cvc5::internal::NodeTemplate.99", align 8
  %agg.tmp810 = alloca %"class.cvc5::internal::NodeTemplate.99", align 8
  %ref.tmp831 = alloca %"class.cvc5::internal::NodeTemplate", align 8
  %agg.tmp833 = alloca %"class.cvc5::internal::NodeTemplate.99", align 8
  %ref.tmp834 = alloca %"class.cvc5::internal::NodeTemplate", align 8
  %agg.tmp836 = alloca %"class.cvc5::internal::NodeTemplate.99", align 8
  %agg.tmp839 = alloca %"class.cvc5::internal::NodeTemplate.99", align 8
  %agg.tmp847 = alloca %"class.cvc5::internal::NodeTemplate.99", align 8
  %agg.tmp851 = alloca %"class.cvc5::internal::NodeTemplate.99", align 8
  %ref.tmp868 = alloca %"class.cvc5::internal::NodeTemplate", align 8
  %ref.tmp876 = alloca %"class.cvc5::internal::NodeTemplate", align 8
  %ref.tmp883 = alloca %"class.cvc5::internal::TypeNode", align 8
  %agg.tmp889 = alloca %"class.cvc5::internal::NodeTemplate.99", align 8
  %cleanup.cond = alloca i1, align 1
  %agg.tmp904 = alloca %"class.cvc5::internal::NodeTemplate", align 8
  %ref.tmp906 = alloca %"class.cvc5::internal::TypeNode", align 8
  %ref.tmp917 = alloca %"class.cvc5::internal::NodeTemplate", align 8
  %ref.tmp926 = alloca %"class.std::__cxx11::basic_string", align 8
  %ref.tmp927 = alloca %"class.std::allocator.107", align 1
  %cleanup.isactive932 = alloca i1, align 1
  %ref.tmp941 = alloca %"class.cvc5::internal::NodeTemplate", align 8
  %agg.tmp942 = alloca %"class.cvc5::internal::NodeTemplate", align 8
  %resultingType = alloca %"class.cvc5::internal::TypeNode", align 8
  %ref.tmp952 = alloca %"class.cvc5::internal::TypeNode", align 8
  %ref.tmp960 = alloca %"class.cvc5::internal::TypeNode", align 8
  %ref.tmp967 = alloca %"class.cvc5::internal::TypeNode", align 8
  %reconstruction = alloca %"class.cvc5::internal::NodeTemplate", align 8
  %agg.tmp974 = alloca %"class.cvc5::internal::NodeTemplate", align 8
  %agg.tmp976 = alloca %"class.cvc5::internal::TypeNode", align 8
  %ref.tmp988 = alloca %"class.cvc5::internal::__cvc5_true", align 1
  %tmp = alloca %"class.cvc5::internal::Cvc5ostream", align 8
  %agg.tmp.ensured = alloca %"class.cvc5::internal::Cvc5ostream", align 8
  %ref.tmp992 = alloca %"class.cvc5::internal::Cvc5ostream", align 8
  %ref.tmp1000 = alloca %"class.cvc5::internal::__cvc5_true", align 1
  %tmp1004 = alloca %"class.cvc5::internal::Cvc5ostream", align 8
  %agg.tmp.ensured1007 = alloca %"class.cvc5::internal::Cvc5ostream", align 8
  %ref.tmp1008 = alloca %"class.cvc5::internal::Cvc5ostream", align 8
  store ptr %agg.result, ptr %result.ptr, align 8
  store ptr %this, ptr %this.addr, align 8
  store ptr %original, ptr %original.indirect_addr, align 8
  store ptr %translated_children, ptr %translated_children.addr, align 8
  store ptr %lemmas, ptr %lemmas.addr, align 8
  %this1 = load ptr, ptr %this.addr, align 8
  %call = call noundef i32 @_ZNK4cvc58internal12NodeTemplateILb1EE7getKindEv(ptr noundef nonnull align 8 dereferenceable(8) %original)
  store i32 %call, ptr %oldKind, align 4
  store i1 false, ptr %nrvo, align 1
  call void @_ZN4cvc58internal12NodeTemplateILb1EEC2Ev(ptr noundef nonnull align 8 dereferenceable(8) %agg.result)
  invoke void @_ZN4cvc58internal12NodeTemplateILb1EEC2ERKS2_(ptr noundef nonnull align 8 dereferenceable(8) %agg.tmp, ptr noundef nonnull align 8 dereferenceable(8) %original)
          to label %invoke.cont unwind label %lpad

invoke.cont:                                      ; preds = %entry
  %call4 = invoke noundef zeroext i1 @_ZN4cvc58internal10IntBlaster20childrenTypesChangedENS0_12NodeTemplateILb1EEE(ptr noundef nonnull align 8 dereferenceable(468) %this1, ptr noundef %agg.tmp)
          to label %invoke.cont3 unwind label %lpad2

invoke.cont3:                                     ; preds = %invoke.cont
  br i1 %call4, label %land.rhs, label %land.end

land.rhs:                                         ; preds = %invoke.cont3
  %call6 = invoke noundef nonnull align 8 dereferenceable(88) ptr @_ZNK4cvc58internal6EnvObj9logicInfoEv(ptr noundef nonnull align 8 dereferenceable(16) %this1)
          to label %invoke.cont5 unwind label %lpad2

invoke.cont5:                                     ; preds = %land.rhs
  %call8 = invoke noundef zeroext i1 @_ZNK4cvc58internal9LogicInfo13isHigherOrderEv(ptr noundef nonnull align 8 dereferenceable(88) %call6)
          to label %invoke.cont7 unwind label %lpad2

invoke.cont7:                                     ; preds = %invoke.cont5
  br label %land.end

land.end:                                         ; preds = %invoke.cont7, %invoke.cont3
  %0 = phi i1 [ false, %invoke.cont3 ], [ %call8, %invoke.cont7 ]
  call void @_ZN4cvc58internal12NodeTemplateILb1EED2Ev(ptr noundef nonnull align 8 dereferenceable(8) %agg.tmp) #3
  br i1 %0, label %if.then, label %if.end

if.then:                                          ; preds = %land.end
  store i1 true, ptr %cleanup.isactive, align 1
  %exception = call ptr @__cxa_allocate_exception(i64 40) #3
  call void @_ZNSaIcEC1Ev(ptr noundef nonnull align 1 dereferenceable(1) %ref.tmp9) #3
  invoke void @_ZNSt7__cxx1112basic_stringIcSt11char_traitsIcESaIcEEC2IS3_EEPKcRKS3_(ptr noundef nonnull align 8 dereferenceable(32) %ref.tmp, ptr noundef @.str.5, ptr noundef nonnull align 1 dereferenceable(1) %ref.tmp9)
          to label %invoke.cont11 unwind label %lpad10

invoke.cont11:                                    ; preds = %if.then
  invoke void @_ZN4cvc58internal15OptionExceptionC2ERKNSt7__cxx1112basic_stringIcSt11char_traitsIcESaIcEEE(ptr noundef nonnull align 8 dereferenceable(40) %exception, ptr noundef nonnull align 8 dereferenceable(32) %ref.tmp)
          to label %invoke.cont13 unwind label %lpad12

invoke.cont13:                                    ; preds = %invoke.cont11
  store i1 false, ptr %cleanup.isactive, align 1
  invoke void @__cxa_throw(ptr %exception, ptr @_ZTIN4cvc58internal15OptionExceptionE, ptr @_ZN4cvc58internal15OptionExceptionD2Ev) #18
          to label %unreachable unwind label %lpad12

lpad:                                             ; preds = %invoke.cont1012, %invoke.cont1010, %invoke.cont1009, %cond.false1006, %cond.true1003, %cond.end, %invoke.cont996, %invoke.cont994, %invoke.cont993, %cond.false, %cond.true, %sw.epilog, %sw.default, %sw.bb940, %sw.bb916, %if.then903, %invoke.cont880, %sw.bb875, %sw.bb867, %sw.bb830, %invoke.cont774, %sw.bb766, %sw.bb739, %sw.bb731, %sw.bb723, %sw.bb715, %invoke.cont678, %sw.bb670, %sw.bb662, %sw.bb654, %invoke.cont623, %invoke.cont617, %sw.bb613, %invoke.cont574, %sw.bb567, %invoke.cont546, %sw.bb538, %sw.bb534, %sw.bb498, %invoke.cont407, %sw.bb399, %invoke.cont385, %sw.bb377, %invoke.cont363, %sw.bb355, %invoke.cont335, %sw.bb327, %invoke.cont283, %sw.bb275, %invoke.cont255, %sw.bb247, %sw.bb229, %sw.bb225, %invoke.cont210, %sw.bb202, %invoke.cont187, %sw.bb179, %sw.bb139, %invoke.cont82, %sw.bb74, %invoke.cont49, %sw.bb41, %invoke.cont21, %sw.bb, %entry
  %1 = landingpad { ptr, i32 }
          cleanup
  %2 = extractvalue { ptr, i32 } %1, 0
  store ptr %2, ptr %exn.slot, align 8
  %3 = extractvalue { ptr, i32 } %1, 1
  store i32 %3, ptr %ehselector.slot, align 4
  br label %ehcleanup1017

lpad2:                                            ; preds = %invoke.cont5, %land.rhs, %invoke.cont
  %4 = landingpad { ptr, i32 }
          cleanup
  %5 = extractvalue { ptr, i32 } %4, 0
  store ptr %5, ptr %exn.slot, align 8
  %6 = extractvalue { ptr, i32 } %4, 1
  store i32 %6, ptr %ehselector.slot, align 4
  call void @_ZN4cvc58internal12NodeTemplateILb1EED2Ev(ptr noundef nonnull align 8 dereferenceable(8) %agg.tmp) #3
  br label %ehcleanup1017

lpad10:                                           ; preds = %if.then
  %7 = landingpad { ptr, i32 }
          cleanup
  %8 = extractvalue { ptr, i32 } %7, 0
  store ptr %8, ptr %exn.slot, align 8
  %9 = extractvalue { ptr, i32 } %7, 1
  store i32 %9, ptr %ehselector.slot, align 4
  br label %ehcleanup

lpad12:                                           ; preds = %invoke.cont13, %invoke.cont11
  %10 = landingpad { ptr, i32 }
          cleanup
  %11 = extractvalue { ptr, i32 } %10, 0
  store ptr %11, ptr %exn.slot, align 8
  %12 = extractvalue { ptr, i32 } %10, 1
  store i32 %12, ptr %ehselector.slot, align 4
  call void @_ZNSt7__cxx1112basic_stringIcSt11char_traitsIcESaIcEED1Ev(ptr noundef nonnull align 8 dereferenceable(32) %ref.tmp) #3
  br label %ehcleanup

ehcleanup:                                        ; preds = %lpad12, %lpad10
  call void @_ZNSaIcED1Ev(ptr noundef nonnull align 1 dereferenceable(1) %ref.tmp9) #3
  %cleanup.is_active = load i1, ptr %cleanup.isactive, align 1
  br i1 %cleanup.is_active, label %cleanup.action, label %cleanup.done

cleanup.action:                                   ; preds = %ehcleanup
  call void @__cxa_free_exception(ptr %exception) #3
  br label %cleanup.done

cleanup.done:                                     ; preds = %cleanup.action, %ehcleanup
  br label %ehcleanup1017

if.end:                                           ; preds = %land.end
  %13 = load i32, ptr %oldKind, align 4
  switch i32 %13, label %sw.default [
    i32 96, label %sw.bb
    i32 94, label %sw.bb41
    i32 98, label %sw.bb74
    i32 99, label %sw.bb139
    i32 90, label %sw.bb179
    i32 95, label %sw.bb202
    i32 33, label %sw.bb225
    i32 35, label %sw.bb229
    i32 88, label %sw.bb247
    i32 89, label %sw.bb275
    i32 86, label %sw.bb327
    i32 105, label %sw.bb355
    i32 104, label %sw.bb377
    i32 103, label %sw.bb399
    i32 126, label %sw.bb498
    i32 143, label %sw.bb534
    i32 141, label %sw.bb538
    i32 85, label %sw.bb567
    i32 133, label %sw.bb613
    i32 5, label %sw.bb654
    i32 107, label %sw.bb662
    i32 111, label %sw.bb670
    i32 106, label %sw.bb715
    i32 109, label %sw.bb723
    i32 108, label %sw.bb731
    i32 114, label %sw.bb739
    i32 115, label %sw.bb766
    i32 87, label %sw.bb830
    i32 23, label %sw.bb867
    i32 24, label %sw.bb875
    i32 356, label %sw.bb916
    i32 352, label %sw.bb940
  ]

sw.bb:                                            ; preds = %if.end
  invoke void @_ZNK4cvc58internal12NodeTemplateILb1EEixEi(ptr sret(%"class.cvc5::internal::NodeTemplate") align 8 %ref.tmp16, ptr noundef nonnull align 8 dereferenceable(8) %original, i32 noundef 0)
          to label %invoke.cont17 unwind label %lpad

invoke.cont17:                                    ; preds = %sw.bb
  invoke void @_ZNK4cvc58internal12NodeTemplateILb1EE7getTypeEb(ptr sret(%"class.cvc5::internal::TypeNode") align 8 %ref.tmp15, ptr noundef nonnull align 8 dereferenceable(8) %ref.tmp16, i1 noundef zeroext false)
          to label %invoke.cont19 unwind label %lpad18

invoke.cont19:                                    ; preds = %invoke.cont17
  %call22 = invoke noundef i32 @_ZNK4cvc58internal8TypeNode16getBitVectorSizeEv(ptr noundef nonnull align 8 dereferenceable(8) %ref.tmp15)
          to label %invoke.cont21 unwind label %lpad20

invoke.cont21:                                    ; preds = %invoke.cont19
  call void @_ZN4cvc58internal8TypeNodeD2Ev(ptr noundef nonnull align 8 dereferenceable(8) %ref.tmp15) #3
  call void @_ZN4cvc58internal12NodeTemplateILb1EED2Ev(ptr noundef nonnull align 8 dereferenceable(8) %ref.tmp16) #3
  store i32 %call22, ptr %bvsize, align 4
  %14 = load ptr, ptr %translated_children.addr, align 8
  %call27 = call noundef nonnull align 8 dereferenceable(8) ptr @_ZNKSt6vectorIN4cvc58internal12NodeTemplateILb1EEESaIS3_EEixEm(ptr noundef nonnull align 8 dereferenceable(24) %14, i64 noundef 0) #3
  invoke void @_ZN4cvc58internal12NodeTemplateILb1EEC2ERKS2_(ptr noundef nonnull align 8 dereferenceable(8) %agg.tmp26, ptr noundef nonnull align 8 dereferenceable(8) %call27)
          to label %invoke.cont28 unwind label %lpad

invoke.cont28:                                    ; preds = %invoke.cont21
  %15 = load ptr, ptr %translated_children.addr, align 8
  %call30 = call noundef nonnull align 8 dereferenceable(8) ptr @_ZNKSt6vectorIN4cvc58internal12NodeTemplateILb1EEESaIS3_EEixEm(ptr noundef nonnull align 8 dereferenceable(24) %15, i64 noundef 1) #3
  invoke void @_ZN4cvc58internal12NodeTemplateILb1EEC2ERKS2_(ptr noundef nonnull align 8 dereferenceable(8) %agg.tmp29, ptr noundef nonnull align 8 dereferenceable(8) %call30)
          to label %invoke.cont32 unwind label %lpad31

invoke.cont32:                                    ; preds = %invoke.cont28
  %16 = load i32, ptr %bvsize, align 4
  invoke void @_ZN4cvc58internal10IntBlaster15createBVAddNodeENS0_12NodeTemplateILb1EEES3_j(ptr sret(%"class.cvc5::internal::NodeTemplate") align 8 %ref.tmp25, ptr noundef nonnull align 8 dereferenceable(468) %this1, ptr noundef %agg.tmp26, ptr noundef %agg.tmp29, i32 noundef %16)
          to label %invoke.cont34 unwind label %lpad33

invoke.cont34:                                    ; preds = %invoke.cont32
  %call37 = invoke noundef nonnull align 8 dereferenceable(8) ptr @_ZN4cvc58internal12NodeTemplateILb1EEaSERKS2_(ptr noundef nonnull align 8 dereferenceable(8) %agg.result, ptr noundef nonnull align 8 dereferenceable(8) %ref.tmp25)
          to label %invoke.cont36 unwind label %lpad35

invoke.cont36:                                    ; preds = %invoke.cont34
  call void @_ZN4cvc58internal12NodeTemplateILb1EED2Ev(ptr noundef nonnull align 8 dereferenceable(8) %ref.tmp25) #3
  call void @_ZN4cvc58internal12NodeTemplateILb1EED2Ev(ptr noundef nonnull align 8 dereferenceable(8) %agg.tmp29) #3
  call void @_ZN4cvc58internal12NodeTemplateILb1EED2Ev(ptr noundef nonnull align 8 dereferenceable(8) %agg.tmp26) #3
  br label %sw.epilog

lpad18:                                           ; preds = %invoke.cont17
  %17 = landingpad { ptr, i32 }
          cleanup
  %18 = extractvalue { ptr, i32 } %17, 0
  store ptr %18, ptr %exn.slot, align 8
  %19 = extractvalue { ptr, i32 } %17, 1
  store i32 %19, ptr %ehselector.slot, align 4
  br label %ehcleanup24

lpad20:                                           ; preds = %invoke.cont19
  %20 = landingpad { ptr, i32 }
          cleanup
  %21 = extractvalue { ptr, i32 } %20, 0
  store ptr %21, ptr %exn.slot, align 8
  %22 = extractvalue { ptr, i32 } %20, 1
  store i32 %22, ptr %ehselector.slot, align 4
  call void @_ZN4cvc58internal8TypeNodeD2Ev(ptr noundef nonnull align 8 dereferenceable(8) %ref.tmp15) #3
  br label %ehcleanup24

ehcleanup24:                                      ; preds = %lpad20, %lpad18
  call void @_ZN4cvc58internal12NodeTemplateILb1EED2Ev(ptr noundef nonnull align 8 dereferenceable(8) %ref.tmp16) #3
  br label %ehcleanup1017

lpad31:                                           ; preds = %invoke.cont28
  %23 = landingpad { ptr, i32 }
          cleanup
  %24 = extractvalue { ptr, i32 } %23, 0
  store ptr %24, ptr %exn.slot, align 8
  %25 = extractvalue { ptr, i32 } %23, 1
  store i32 %25, ptr %ehselector.slot, align 4
  br label %ehcleanup40

lpad33:                                           ; preds = %invoke.cont32
  %26 = landingpad { ptr, i32 }
          cleanup
  %27 = extractvalue { ptr, i32 } %26, 0
  store ptr %27, ptr %exn.slot, align 8
  %28 = extractvalue { ptr, i32 } %26, 1
  store i32 %28, ptr %ehselector.slot, align 4
  br label %ehcleanup39

lpad35:                                           ; preds = %invoke.cont34
  %29 = landingpad { ptr, i32 }
          cleanup
  %30 = extractvalue { ptr, i32 } %29, 0
  store ptr %30, ptr %exn.slot, align 8
  %31 = extractvalue { ptr, i32 } %29, 1
  store i32 %31, ptr %ehselector.slot, align 4
  call void @_ZN4cvc58internal12NodeTemplateILb1EED2Ev(ptr noundef nonnull align 8 dereferenceable(8) %ref.tmp25) #3
  br label %ehcleanup39

ehcleanup39:                                      ; preds = %lpad35, %lpad33
  call void @_ZN4cvc58internal12NodeTemplateILb1EED2Ev(ptr noundef nonnull align 8 dereferenceable(8) %agg.tmp29) #3
  br label %ehcleanup40

ehcleanup40:                                      ; preds = %ehcleanup39, %lpad31
  call void @_ZN4cvc58internal12NodeTemplateILb1EED2Ev(ptr noundef nonnull align 8 dereferenceable(8) %agg.tmp26) #3
  br label %ehcleanup1017

sw.bb41:                                          ; preds = %if.end
  invoke void @_ZNK4cvc58internal12NodeTemplateILb1EEixEi(ptr sret(%"class.cvc5::internal::NodeTemplate") align 8 %ref.tmp44, ptr noundef nonnull align 8 dereferenceable(8) %original, i32 noundef 0)
          to label %invoke.cont45 unwind label %lpad

invoke.cont45:                                    ; preds = %sw.bb41
  invoke void @_ZNK4cvc58internal12NodeTemplateILb1EE7getTypeEb(ptr sret(%"class.cvc5::internal::TypeNode") align 8 %ref.tmp43, ptr noundef nonnull align 8 dereferenceable(8) %ref.tmp44, i1 noundef zeroext false)
          to label %invoke.cont47 unwind label %lpad46

invoke.cont47:                                    ; preds = %invoke.cont45
  %call50 = invoke noundef i32 @_ZNK4cvc58internal8TypeNode16getBitVectorSizeEv(ptr noundef nonnull align 8 dereferenceable(8) %ref.tmp43)
          to label %invoke.cont49 unwind label %lpad48

invoke.cont49:                                    ; preds = %invoke.cont47
  call void @_ZN4cvc58internal8TypeNodeD2Ev(ptr noundef nonnull align 8 dereferenceable(8) %ref.tmp43) #3
  call void @_ZN4cvc58internal12NodeTemplateILb1EED2Ev(ptr noundef nonnull align 8 dereferenceable(8) %ref.tmp44) #3
  store i32 %call50, ptr %bvsize42, align 4
  %d_nm = getelementptr inbounds %"class.cvc5::internal::IntBlaster", ptr %this1, i32 0, i32 3
  %32 = load ptr, ptr %d_nm, align 8
  %33 = load ptr, ptr %translated_children.addr, align 8
  invoke void @_ZN4cvc58internal11NodeManager6mkNodeILb1EEENS0_12NodeTemplateILb1EEENS0_4kind6Kind_tERKSt6vectorINS3_IXT_EEESaIS8_EE(ptr sret(%"class.cvc5::internal::NodeTemplate") align 8 %mult, ptr noundef nonnull align 8 dereferenceable(3360) %32, i32 noundef 37, ptr noundef nonnull align 8 dereferenceable(24) %33)
          to label %invoke.cont53 unwind label %lpad

invoke.cont53:                                    ; preds = %invoke.cont49
  %34 = load i32, ptr %bvsize42, align 4
  invoke void @_ZN4cvc58internal10IntBlaster4pow2Ej(ptr sret(%"class.cvc5::internal::NodeTemplate") align 8 %p2, ptr noundef nonnull align 8 dereferenceable(468) %this1, i32 noundef %34)
          to label %invoke.cont55 unwind label %lpad54

invoke.cont55:                                    ; preds = %invoke.cont53
  %d_nm57 = getelementptr inbounds %"class.cvc5::internal::IntBlaster", ptr %this1, i32 0, i32 3
  %35 = load ptr, ptr %d_nm57, align 8
  invoke void @_ZN4cvc58internal12NodeTemplateILb0EEC2ERKNS1_ILb1EEE(ptr noundef nonnull align 8 dereferenceable(8) %agg.tmp58, ptr noundef nonnull align 8 dereferenceable(8) %mult)
          to label %invoke.cont60 unwind label %lpad59

invoke.cont60:                                    ; preds = %invoke.cont55
  invoke void @_ZN4cvc58internal12NodeTemplateILb0EEC2ERKNS1_ILb1EEE(ptr noundef nonnull align 8 dereferenceable(8) %agg.tmp61, ptr noundef nonnull align 8 dereferenceable(8) %p2)
          to label %invoke.cont63 unwind label %lpad62

invoke.cont63:                                    ; preds = %invoke.cont60
  invoke void @_ZN4cvc58internal11NodeManager6mkNodeENS0_4kind6Kind_tENS0_12NodeTemplateILb0EEES5_(ptr sret(%"class.cvc5::internal::NodeTemplate") align 8 %ref.tmp56, ptr noundef nonnull align 8 dereferenceable(3360) %35, i32 noundef 46, ptr noundef %agg.tmp58, ptr noundef %agg.tmp61)
          to label %invoke.cont65 unwind label %lpad64

invoke.cont65:                                    ; preds = %invoke.cont63
  %call68 = invoke noundef nonnull align 8 dereferenceable(8) ptr @_ZN4cvc58internal12NodeTemplateILb1EEaSERKS2_(ptr noundef nonnull align 8 dereferenceable(8) %agg.result, ptr noundef nonnull align 8 dereferenceable(8) %ref.tmp56)
          to label %invoke.cont67 unwind label %lpad66

invoke.cont67:                                    ; preds = %invoke.cont65
  call void @_ZN4cvc58internal12NodeTemplateILb1EED2Ev(ptr noundef nonnull align 8 dereferenceable(8) %ref.tmp56) #3
  call void @_ZN4cvc58internal12NodeTemplateILb0EED2Ev(ptr noundef nonnull align 8 dereferenceable(8) %agg.tmp61) #3
  call void @_ZN4cvc58internal12NodeTemplateILb0EED2Ev(ptr noundef nonnull align 8 dereferenceable(8) %agg.tmp58) #3
  call void @_ZN4cvc58internal12NodeTemplateILb1EED2Ev(ptr noundef nonnull align 8 dereferenceable(8) %p2) #3
  call void @_ZN4cvc58internal12NodeTemplateILb1EED2Ev(ptr noundef nonnull align 8 dereferenceable(8) %mult) #3
  br label %sw.epilog

lpad46:                                           ; preds = %invoke.cont45
  %36 = landingpad { ptr, i32 }
          cleanup
  %37 = extractvalue { ptr, i32 } %36, 0
  store ptr %37, ptr %exn.slot, align 8
  %38 = extractvalue { ptr, i32 } %36, 1
  store i32 %38, ptr %ehselector.slot, align 4
  br label %ehcleanup52

lpad48:                                           ; preds = %invoke.cont47
  %39 = landingpad { ptr, i32 }
          cleanup
  %40 = extractvalue { ptr, i32 } %39, 0
  store ptr %40, ptr %exn.slot, align 8
  %41 = extractvalue { ptr, i32 } %39, 1
  store i32 %41, ptr %ehselector.slot, align 4
  call void @_ZN4cvc58internal8TypeNodeD2Ev(ptr noundef nonnull align 8 dereferenceable(8) %ref.tmp43) #3
  br label %ehcleanup52

ehcleanup52:                                      ; preds = %lpad48, %lpad46
  call void @_ZN4cvc58internal12NodeTemplateILb1EED2Ev(ptr noundef nonnull align 8 dereferenceable(8) %ref.tmp44) #3
  br label %ehcleanup1017

lpad54:                                           ; preds = %invoke.cont53
  %42 = landingpad { ptr, i32 }
          cleanup
  %43 = extractvalue { ptr, i32 } %42, 0
  store ptr %43, ptr %exn.slot, align 8
  %44 = extractvalue { ptr, i32 } %42, 1
  store i32 %44, ptr %ehselector.slot, align 4
  br label %ehcleanup73

lpad59:                                           ; preds = %invoke.cont55
  %45 = landingpad { ptr, i32 }
          cleanup
  %46 = extractvalue { ptr, i32 } %45, 0
  store ptr %46, ptr %exn.slot, align 8
  %47 = extractvalue { ptr, i32 } %45, 1
  store i32 %47, ptr %ehselector.slot, align 4
  br label %ehcleanup72

lpad62:                                           ; preds = %invoke.cont60
  %48 = landingpad { ptr, i32 }
          cleanup
  %49 = extractvalue { ptr, i32 } %48, 0
  store ptr %49, ptr %exn.slot, align 8
  %50 = extractvalue { ptr, i32 } %48, 1
  store i32 %50, ptr %ehselector.slot, align 4
  br label %ehcleanup71

lpad64:                                           ; preds = %invoke.cont63
  %51 = landingpad { ptr, i32 }
          cleanup
  %52 = extractvalue { ptr, i32 } %51, 0
  store ptr %52, ptr %exn.slot, align 8
  %53 = extractvalue { ptr, i32 } %51, 1
  store i32 %53, ptr %ehselector.slot, align 4
  br label %ehcleanup70

lpad66:                                           ; preds = %invoke.cont65
  %54 = landingpad { ptr, i32 }
          cleanup
  %55 = extractvalue { ptr, i32 } %54, 0
  store ptr %55, ptr %exn.slot, align 8
  %56 = extractvalue { ptr, i32 } %54, 1
  store i32 %56, ptr %ehselector.slot, align 4
  call void @_ZN4cvc58internal12NodeTemplateILb1EED2Ev(ptr noundef nonnull align 8 dereferenceable(8) %ref.tmp56) #3
  br label %ehcleanup70

ehcleanup70:                                      ; preds = %lpad66, %lpad64
  call void @_ZN4cvc58internal12NodeTemplateILb0EED2Ev(ptr noundef nonnull align 8 dereferenceable(8) %agg.tmp61) #3
  br label %ehcleanup71

ehcleanup71:                                      ; preds = %ehcleanup70, %lpad62
  call void @_ZN4cvc58internal12NodeTemplateILb0EED2Ev(ptr noundef nonnull align 8 dereferenceable(8) %agg.tmp58) #3
  br label %ehcleanup72

ehcleanup72:                                      ; preds = %ehcleanup71, %lpad59
  call void @_ZN4cvc58internal12NodeTemplateILb1EED2Ev(ptr noundef nonnull align 8 dereferenceable(8) %p2) #3
  br label %ehcleanup73

ehcleanup73:                                      ; preds = %ehcleanup72, %lpad54
  call void @_ZN4cvc58internal12NodeTemplateILb1EED2Ev(ptr noundef nonnull align 8 dereferenceable(8) %mult) #3
  br label %ehcleanup1017

sw.bb74:                                          ; preds = %if.end
  invoke void @_ZNK4cvc58internal12NodeTemplateILb1EEixEi(ptr sret(%"class.cvc5::internal::NodeTemplate") align 8 %ref.tmp77, ptr noundef nonnull align 8 dereferenceable(8) %original, i32 noundef 0)
          to label %invoke.cont78 unwind label %lpad

invoke.cont78:                                    ; preds = %sw.bb74
  invoke void @_ZNK4cvc58internal12NodeTemplateILb1EE7getTypeEb(ptr sret(%"class.cvc5::internal::TypeNode") align 8 %ref.tmp76, ptr noundef nonnull align 8 dereferenceable(8) %ref.tmp77, i1 noundef zeroext false)
          to label %invoke.cont80 unwind label %lpad79

invoke.cont80:                                    ; preds = %invoke.cont78
  %call83 = invoke noundef i32 @_ZNK4cvc58internal8TypeNode16getBitVectorSizeEv(ptr noundef nonnull align 8 dereferenceable(8) %ref.tmp76)
          to label %invoke.cont82 unwind label %lpad81

invoke.cont82:                                    ; preds = %invoke.cont80
  call void @_ZN4cvc58internal8TypeNodeD2Ev(ptr noundef nonnull align 8 dereferenceable(8) %ref.tmp76) #3
  call void @_ZN4cvc58internal12NodeTemplateILb1EED2Ev(ptr noundef nonnull align 8 dereferenceable(8) %ref.tmp77) #3
  store i32 %call83, ptr %bvsize75, align 4
  %57 = load i32, ptr %bvsize75, align 4
  invoke void @_ZN4cvc58internal10IntBlaster4pow2Ej(ptr sret(%"class.cvc5::internal::NodeTemplate") align 8 %pow2BvSize, ptr noundef nonnull align 8 dereferenceable(468) %this1, i32 noundef %57)
          to label %invoke.cont86 unwind label %lpad

invoke.cont86:                                    ; preds = %invoke.cont82
  %d_nm87 = getelementptr inbounds %"class.cvc5::internal::IntBlaster", ptr %this1, i32 0, i32 3
  %58 = load ptr, ptr %d_nm87, align 8
  %59 = load ptr, ptr %translated_children.addr, align 8
  invoke void @_ZN4cvc58internal11NodeManager6mkNodeILb1EEENS0_12NodeTemplateILb1EEENS0_4kind6Kind_tERKSt6vectorINS3_IXT_EEESaIS8_EE(ptr sret(%"class.cvc5::internal::NodeTemplate") align 8 %divNode, ptr noundef nonnull align 8 dereferenceable(3360) %58, i32 noundef 44, ptr noundef nonnull align 8 dereferenceable(24) %59)
          to label %invoke.cont89 unwind label %lpad88

invoke.cont89:                                    ; preds = %invoke.cont86
  %d_nm91 = getelementptr inbounds %"class.cvc5::internal::IntBlaster", ptr %this1, i32 0, i32 3
  %60 = load ptr, ptr %d_nm91, align 8
  %d_nm94 = getelementptr inbounds %"class.cvc5::internal::IntBlaster", ptr %this1, i32 0, i32 3
  %61 = load ptr, ptr %d_nm94, align 8
  %62 = load ptr, ptr %translated_children.addr, align 8
  %call96 = call noundef nonnull align 8 dereferenceable(8) ptr @_ZNKSt6vectorIN4cvc58internal12NodeTemplateILb1EEESaIS3_EEixEm(ptr noundef nonnull align 8 dereferenceable(24) %62, i64 noundef 1) #3
  invoke void @_ZN4cvc58internal12NodeTemplateILb0EEC2ERKNS1_ILb1EEE(ptr noundef nonnull align 8 dereferenceable(8) %agg.tmp95, ptr noundef nonnull align 8 dereferenceable(8) %call96)
          to label %invoke.cont98 unwind label %lpad97

invoke.cont98:                                    ; preds = %invoke.cont89
  %d_zero = getelementptr inbounds %"class.cvc5::internal::IntBlaster", ptr %this1, i32 0, i32 6
  invoke void @_ZN4cvc58internal12NodeTemplateILb0EEC2ERKNS1_ILb1EEE(ptr noundef nonnull align 8 dereferenceable(8) %agg.tmp99, ptr noundef nonnull align 8 dereferenceable(8) %d_zero)
          to label %invoke.cont101 unwind label %lpad100

invoke.cont101:                                   ; preds = %invoke.cont98
  invoke void @_ZN4cvc58internal11NodeManager6mkNodeENS0_4kind6Kind_tENS0_12NodeTemplateILb0EEES5_(ptr sret(%"class.cvc5::internal::NodeTemplate") align 8 %ref.tmp93, ptr noundef nonnull align 8 dereferenceable(3360) %61, i32 noundef 5, ptr noundef %agg.tmp95, ptr noundef %agg.tmp99)
          to label %invoke.cont103 unwind label %lpad102

invoke.cont103:                                   ; preds = %invoke.cont101
  invoke void @_ZN4cvc58internal12NodeTemplateILb0EEC2ERKNS1_ILb1EEE(ptr noundef nonnull align 8 dereferenceable(8) %agg.tmp92, ptr noundef nonnull align 8 dereferenceable(8) %ref.tmp93)
          to label %invoke.cont105 unwind label %lpad104

invoke.cont105:                                   ; preds = %invoke.cont103
  %d_nm108 = getelementptr inbounds %"class.cvc5::internal::IntBlaster", ptr %this1, i32 0, i32 3
  %63 = load ptr, ptr %d_nm108, align 8
  invoke void @_ZN4cvc58internal12NodeTemplateILb0EEC2ERKNS1_ILb1EEE(ptr noundef nonnull align 8 dereferenceable(8) %agg.tmp109, ptr noundef nonnull align 8 dereferenceable(8) %pow2BvSize)
          to label %invoke.cont111 unwind label %lpad110

invoke.cont111:                                   ; preds = %invoke.cont105
  %d_one = getelementptr inbounds %"class.cvc5::internal::IntBlaster", ptr %this1, i32 0, i32 7
  invoke void @_ZN4cvc58internal12NodeTemplateILb0EEC2ERKNS1_ILb1EEE(ptr noundef nonnull align 8 dereferenceable(8) %agg.tmp112, ptr noundef nonnull align 8 dereferenceable(8) %d_one)
          to label %invoke.cont114 unwind label %lpad113

invoke.cont114:                                   ; preds = %invoke.cont111
  invoke void @_ZN4cvc58internal11NodeManager6mkNodeENS0_4kind6Kind_tENS0_12NodeTemplateILb0EEES5_(ptr sret(%"class.cvc5::internal::NodeTemplate") align 8 %ref.tmp107, ptr noundef nonnull align 8 dereferenceable(3360) %63, i32 noundef 39, ptr noundef %agg.tmp109, ptr noundef %agg.tmp112)
          to label %invoke.cont116 unwind label %lpad115

invoke.cont116:                                   ; preds = %invoke.cont114
  invoke void @_ZN4cvc58internal12NodeTemplateILb0EEC2ERKNS1_ILb1EEE(ptr noundef nonnull align 8 dereferenceable(8) %agg.tmp106, ptr noundef nonnull align 8 dereferenceable(8) %ref.tmp107)
          to label %invoke.cont118 unwind label %lpad117

invoke.cont118:                                   ; preds = %invoke.cont116
  invoke void @_ZN4cvc58internal12NodeTemplateILb0EEC2ERKNS1_ILb1EEE(ptr noundef nonnull align 8 dereferenceable(8) %agg.tmp119, ptr noundef nonnull align 8 dereferenceable(8) %divNode)
          to label %invoke.cont121 unwind label %lpad120

invoke.cont121:                                   ; preds = %invoke.cont118
  invoke void @_ZN4cvc58internal11NodeManager6mkNodeENS0_4kind6Kind_tENS0_12NodeTemplateILb0EEES5_S5_(ptr sret(%"class.cvc5::internal::NodeTemplate") align 8 %ref.tmp90, ptr noundef nonnull align 8 dereferenceable(3360) %60, i32 noundef 23, ptr noundef %agg.tmp92, ptr noundef %agg.tmp106, ptr noundef %agg.tmp119)
          to label %invoke.cont123 unwind label %lpad122

invoke.cont123:                                   ; preds = %invoke.cont121
  %call126 = invoke noundef nonnull align 8 dereferenceable(8) ptr @_ZN4cvc58internal12NodeTemplateILb1EEaSERKS2_(ptr noundef nonnull align 8 dereferenceable(8) %agg.result, ptr noundef nonnull align 8 dereferenceable(8) %ref.tmp90)
          to label %invoke.cont125 unwind label %lpad124

invoke.cont125:                                   ; preds = %invoke.cont123
  call void @_ZN4cvc58internal12NodeTemplateILb1EED2Ev(ptr noundef nonnull align 8 dereferenceable(8) %ref.tmp90) #3
  call void @_ZN4cvc58internal12NodeTemplateILb0EED2Ev(ptr noundef nonnull align 8 dereferenceable(8) %agg.tmp119) #3
  call void @_ZN4cvc58internal12NodeTemplateILb0EED2Ev(ptr noundef nonnull align 8 dereferenceable(8) %agg.tmp106) #3
  call void @_ZN4cvc58internal12NodeTemplateILb1EED2Ev(ptr noundef nonnull align 8 dereferenceable(8) %ref.tmp107) #3
  call void @_ZN4cvc58internal12NodeTemplateILb0EED2Ev(ptr noundef nonnull align 8 dereferenceable(8) %agg.tmp112) #3
  call void @_ZN4cvc58internal12NodeTemplateILb0EED2Ev(ptr noundef nonnull align 8 dereferenceable(8) %agg.tmp109) #3
  call void @_ZN4cvc58internal12NodeTemplateILb0EED2Ev(ptr noundef nonnull align 8 dereferenceable(8) %agg.tmp92) #3
  call void @_ZN4cvc58internal12NodeTemplateILb1EED2Ev(ptr noundef nonnull align 8 dereferenceable(8) %ref.tmp93) #3
  call void @_ZN4cvc58internal12NodeTemplateILb0EED2Ev(ptr noundef nonnull align 8 dereferenceable(8) %agg.tmp99) #3
  call void @_ZN4cvc58internal12NodeTemplateILb0EED2Ev(ptr noundef nonnull align 8 dereferenceable(8) %agg.tmp95) #3
  call void @_ZN4cvc58internal12NodeTemplateILb1EED2Ev(ptr noundef nonnull align 8 dereferenceable(8) %divNode) #3
  call void @_ZN4cvc58internal12NodeTemplateILb1EED2Ev(ptr noundef nonnull align 8 dereferenceable(8) %pow2BvSize) #3
  br label %sw.epilog

lpad79:                                           ; preds = %invoke.cont78
  %64 = landingpad { ptr, i32 }
          cleanup
  %65 = extractvalue { ptr, i32 } %64, 0
  store ptr %65, ptr %exn.slot, align 8
  %66 = extractvalue { ptr, i32 } %64, 1
  store i32 %66, ptr %ehselector.slot, align 4
  br label %ehcleanup85

lpad81:                                           ; preds = %invoke.cont80
  %67 = landingpad { ptr, i32 }
          cleanup
