target datalayout = "e-m:e-p270:32:32-p271:32:32-p272:64:64-i64:64-i128:128-f80:128-n8:16:32:64-S128"
target triple = "x86_64-unknown-linux-gnu"

%"class.std::ios_base::Init" = type { i8 }
%"class.cvc5::internal::NullC" = type { i8 }
%"class.cvc5::internal::TraceC" = type { ptr, %"class.std::vector.210" }
%"class.std::vector.210" = type { %"struct.std::_Vector_base.211" }
%"struct.std::_Vector_base.211" = type { %"struct.std::_Vector_base<std::__cxx11::basic_string<char>, std::allocator<std::__cxx11::basic_string<char>>>::_Vector_impl" }
%"struct.std::_Vector_base<std::__cxx11::basic_string<char>, std::allocator<std::__cxx11::basic_string<char>>>::_Vector_impl" = type { %"struct.std::_Vector_base<std::__cxx11::basic_string<char>, std::allocator<std::__cxx11::basic_string<char>>>::_Vector_impl_data" }
%"struct.std::_Vector_base<std::__cxx11::basic_string<char>, std::allocator<std::__cxx11::basic_string<char>>>::_Vector_impl_data" = type { ptr, ptr, ptr }
%"class.std::__cxx11::basic_string" = type { %"struct.std::__cxx11::basic_string<char>::_Alloc_hider", i64, %union.anon }
%"struct.std::__cxx11::basic_string<char>::_Alloc_hider" = type { ptr }
%union.anon = type { i64, [8 x i8] }
%"class.cvc5::internal::NodeTemplate" = type { ptr }
%"class.cvc5::internal::LetBinding" = type { %"class.std::__cxx11::basic_string", i32, %"class.cvc5::context::Context", %"class.cvc5::context::CDList", %"class.cvc5::context::CDHashMap", %"class.cvc5::context::CDList", %"class.cvc5::context::CDHashMap" }
%"class.cvc5::context::Context" = type { ptr, %"class.std::vector", ptr, ptr }
%"class.std::vector" = type { %"struct.std::_Vector_base" }
%"struct.std::_Vector_base" = type { %"struct.std::_Vector_base<cvc5::context::Scope *, std::allocator<cvc5::context::Scope *>>::_Vector_impl" }
%"struct.std::_Vector_base<cvc5::context::Scope *, std::allocator<cvc5::context::Scope *>>::_Vector_impl" = type { %"struct.std::_Vector_base<cvc5::context::Scope *, std::allocator<cvc5::context::Scope *>>::_Vector_impl_data" }
%"struct.std::_Vector_base<cvc5::context::Scope *, std::allocator<cvc5::context::Scope *>>::_Vector_impl_data" = type { ptr, ptr, ptr }
%"class.cvc5::context::CDList" = type <{ %"class.cvc5::context::ContextObj", %"class.std::vector.3", i64, i8, %"class.cvc5::context::DefaultCleanUp", [6 x i8] }>
%"class.cvc5::context::ContextObj" = type { ptr, ptr, ptr, ptr, ptr }
%"class.std::vector.3" = type { %"struct.std::_Vector_base.4" }
%"struct.std::_Vector_base.4" = type { %"struct.std::_Vector_base<cvc5::internal::NodeTemplate<true>, std::allocator<cvc5::internal::NodeTemplate<true>>>::_Vector_impl" }
%"struct.std::_Vector_base<cvc5::internal::NodeTemplate<true>, std::allocator<cvc5::internal::NodeTemplate<true>>>::_Vector_impl" = type { %"struct.std::_Vector_base<cvc5::internal::NodeTemplate<true>, std::allocator<cvc5::internal::NodeTemplate<true>>>::_Vector_impl_data" }
%"struct.std::_Vector_base<cvc5::internal::NodeTemplate<true>, std::allocator<cvc5::internal::NodeTemplate<true>>>::_Vector_impl_data" = type { ptr, ptr, ptr }
%"class.cvc5::context::DefaultCleanUp" = type { i8 }
%"class.cvc5::context::CDHashMap" = type { %"class.cvc5::context::ContextObj", %"class.std::unordered_map", ptr, ptr }
%"class.std::unordered_map" = type { %"class.std::_Hashtable" }
%"class.std::_Hashtable" = type { ptr, i64, %"struct.std::__detail::_Hash_node_base", i64, %"struct.std::__detail::_Prime_rehash_policy", ptr }
%"struct.std::__detail::_Hash_node_base" = type { ptr }
%"struct.std::__detail::_Prime_rehash_policy" = type { float, i64 }
%"class.std::allocator" = type { i8 }
%"class.cvc5::internal::NodeTemplate.13" = type { ptr }
%"class.std::__cxx11::basic_stringstream" = type { %"class.std::basic_iostream.base", %"class.std::__cxx11::basic_stringbuf", %"class.std::basic_ios" }
%"class.std::basic_iostream.base" = type { %"class.std::basic_istream.base", %"class.std::basic_ostream.base" }
%"class.std::basic_istream.base" = type { ptr, i64 }
%"class.std::basic_ostream.base" = type { ptr }
%"class.std::__cxx11::basic_stringbuf" = type { %"class.std::basic_streambuf", i32, %"class.std::__cxx11::basic_string" }
%"class.std::basic_streambuf" = type { ptr, ptr, ptr, ptr, ptr, ptr, ptr, %"class.std::locale" }
%"class.std::locale" = type { ptr }
%"class.std::basic_ios" = type { %"class.std::ios_base", ptr, i8, i8, ptr, ptr, ptr, ptr }
%"class.std::ios_base" = type { ptr, i64, i64, i32, i32, i32, ptr, %"struct.std::ios_base::_Words", [8 x %"struct.std::ios_base::_Words"], i32, ptr, %"class.std::locale" }
%"struct.std::ios_base::_Words" = type { ptr, i64 }
%"struct.std::_Rb_tree_const_iterator" = type { ptr }
%"class.std::vector.197" = type { %"struct.std::_Vector_base.198" }
%"struct.std::_Vector_base.198" = type { %"struct.std::_Vector_base<std::tuple<cvc5::internal::NodeTemplate<false>, unsigned long, int>, std::allocator<std::tuple<cvc5::internal::NodeTemplate<false>, unsigned long, int>>>::_Vector_impl" }
%"struct.std::_Vector_base<std::tuple<cvc5::internal::NodeTemplate<false>, unsigned long, int>, std::allocator<std::tuple<cvc5::internal::NodeTemplate<false>, unsigned long, int>>>::_Vector_impl" = type { %"struct.std::_Vector_base<std::tuple<cvc5::internal::NodeTemplate<false>, unsigned long, int>, std::allocator<std::tuple<cvc5::internal::NodeTemplate<false>, unsigned long, int>>>::_Vector_impl_data" }
%"struct.std::_Vector_base<std::tuple<cvc5::internal::NodeTemplate<false>, unsigned long, int>, std::allocator<std::tuple<cvc5::internal::NodeTemplate<false>, unsigned long, int>>>::_Vector_impl_data" = type { ptr, ptr, ptr }
%"class.__gnu_cxx::__normal_iterator.196" = type { ptr }
%"class.cvc5::internal::FatalStream" = type { i8 }
%"class.cvc5::internal::TypeNode" = type { ptr }
%"class.cvc5::internal::ArrayStoreAll" = type { %"class.std::unique_ptr.22", %"class.std::unique_ptr.30" }
%"class.std::unique_ptr.22" = type { %"struct.std::__uniq_ptr_data.23" }
%"struct.std::__uniq_ptr_data.23" = type { %"class.std::__uniq_ptr_impl.24" }
%"class.std::__uniq_ptr_impl.24" = type { %"class.std::tuple.25" }
%"class.std::tuple.25" = type { %"struct.std::_Tuple_impl.26" }
%"struct.std::_Tuple_impl.26" = type { %"struct.std::_Head_base.29" }
%"struct.std::_Head_base.29" = type { ptr }
%"class.std::unique_ptr.30" = type { %"struct.std::__uniq_ptr_data.31" }
%"struct.std::__uniq_ptr_data.31" = type { %"class.std::__uniq_ptr_impl.32" }
%"class.std::__uniq_ptr_impl.32" = type { %"class.std::tuple.33" }
%"class.std::tuple.33" = type { %"struct.std::_Tuple_impl.34" }
%"struct.std::_Tuple_impl.34" = type { %"struct.std::_Head_base.37" }
%"struct.std::_Head_base.37" = type { ptr }
%"struct.cvc5::internal::BitVectorExtract" = type { i32, i32 }
%"class.cvc5::internal::FloatingPointSize" = type { i32, i32 }
%"class.cvc5::internal::ProjectOp" = type { %"class.std::vector.17" }
%"class.std::vector.17" = type { %"struct.std::_Vector_base.18" }
%"struct.std::_Vector_base.18" = type { %"struct.std::_Vector_base<unsigned int, std::allocator<unsigned int>>::_Vector_impl" }
%"struct.std::_Vector_base<unsigned int, std::allocator<unsigned int>>::_Vector_impl" = type { %"struct.std::_Vector_base<unsigned int, std::allocator<unsigned int>>::_Vector_impl_data" }
%"struct.std::_Vector_base<unsigned int, std::allocator<unsigned int>>::_Vector_impl_data" = type { ptr, ptr, ptr }
%"class.__gnu_cxx::__normal_iterator" = type { ptr }
%"class.__gnu_cxx::__normal_iterator.195" = type { ptr }
%"class.cvc5::internal::expr::NodeValue::iterator" = type { ptr }
%"struct.cvc5::internal::BitVectorSize" = type { i32 }
%"struct.cvc5::internal::FfSize" = type { %"class.cvc5::internal::Integer" }
%"class.cvc5::internal::Integer" = type { %class.__gmp_expr }
%class.__gmp_expr = type { [1 x %struct.__mpz_struct] }
%struct.__mpz_struct = type { i32, i32, ptr }
%"class.cvc5::internal::printer::smt2::Smt2Printer" = type <{ %"class.cvc5::internal::Printer", i32, [4 x i8] }>
%"class.cvc5::internal::Printer" = type { ptr }
%"struct.cvc5::internal::Divisible" = type { %"class.cvc5::internal::Integer" }
%"struct.cvc5::internal::BitVectorRepeat" = type { i32 }
%"struct.cvc5::internal::BitVectorZeroExtend" = type { i32 }
%"struct.cvc5::internal::BitVectorSignExtend" = type { i32 }
%"struct.cvc5::internal::BitVectorRotateLeft" = type { i32 }
%"struct.cvc5::internal::BitVectorRotateRight" = type { i32 }
%"struct.cvc5::internal::IntToBitVector" = type { i32 }
%"class.cvc5::internal::FloatingPointToBV" = type { %"struct.cvc5::internal::BitVectorSize" }
%"struct.cvc5::internal::RegExpRepeat" = type { i32 }
%"struct.cvc5::internal::RegExpLoop" = type { i32, i32 }
%"struct.cvc5::internal::IndexedRootPredicate" = type { i64 }
%"struct.cvc5::internal::BitVectorBitOf" = type { i32 }
%"class.cvc5::internal::expr::NodeValue" = type { i64, i16, i32, [0 x ptr] }
%"class.cvc5::internal::Rational" = type { %class.__gmp_expr.16 }
%class.__gmp_expr.16 = type { [1 x %struct.__mpq_struct] }
%struct.__mpq_struct = type { %struct.__mpz_struct, %struct.__mpz_struct }
%"class.cvc5::internal::FloatingPointConvertSort" = type { %"class.cvc5::internal::FloatingPointSize" }
%"class.cvc5::internal::NodeManager" = type { %"class.std::unique_ptr.38", %"class.std::unique_ptr.46", %"class.std::unordered_set", i64, ptr, ptr, i8, %"class.std::unordered_set.69", %"class.std::vector.80", [365 x %"class.cvc5::internal::NodeTemplate.13"], %"class.std::map", %"class.std::vector.89", %"class.std::vector.94", %"class.std::map.99", %"class.cvc5::internal::NodeManager::TupleTypeCache", %"class.cvc5::internal::NodeManager::RecTypeCache" }
%"class.std::unique_ptr.38" = type { %"struct.std::__uniq_ptr_data.39" }
%"struct.std::__uniq_ptr_data.39" = type { %"class.std::__uniq_ptr_impl.40" }
%"class.std::__uniq_ptr_impl.40" = type { %"class.std::tuple.41" }
%"class.std::tuple.41" = type { %"struct.std::_Tuple_impl.42" }
%"struct.std::_Tuple_impl.42" = type { %"struct.std::_Head_base.45" }
%"struct.std::_Head_base.45" = type { ptr }
%"class.std::unique_ptr.46" = type { %"struct.std::__uniq_ptr_data.47" }
%"struct.std::__uniq_ptr_data.47" = type { %"class.std::__uniq_ptr_impl.48" }
%"class.std::__uniq_ptr_impl.48" = type { %"class.std::tuple.49" }
%"class.std::tuple.49" = type { %"struct.std::_Tuple_impl.50" }
%"struct.std::_Tuple_impl.50" = type { %"struct.std::_Head_base.53" }
%"struct.std::_Head_base.53" = type { ptr }
%"class.std::unordered_set" = type { %"class.std::_Hashtable.54" }
%"class.std::_Hashtable.54" = type { ptr, i64, %"struct.std::__detail::_Hash_node_base", i64, %"struct.std::__detail::_Prime_rehash_policy", ptr }
%"class.std::unordered_set.69" = type { %"class.std::_Hashtable.70" }
%"class.std::_Hashtable.70" = type { ptr, i64, %"struct.std::__detail::_Hash_node_base", i64, %"struct.std::__detail::_Prime_rehash_policy", ptr }
%"class.std::vector.80" = type { %"struct.std::_Vector_base.81" }
%"struct.std::_Vector_base.81" = type { %"struct.std::_Vector_base<cvc5::internal::expr::NodeValue *, std::allocator<cvc5::internal::expr::NodeValue *>>::_Vector_impl" }
%"struct.std::_Vector_base<cvc5::internal::expr::NodeValue *, std::allocator<cvc5::internal::expr::NodeValue *>>::_Vector_impl" = type { %"struct.std::_Vector_base<cvc5::internal::expr::NodeValue *, std::allocator<cvc5::internal::expr::NodeValue *>>::_Vector_impl_data" }
%"struct.std::_Vector_base<cvc5::internal::expr::NodeValue *, std::allocator<cvc5::internal::expr::NodeValue *>>::_Vector_impl_data" = type { ptr, ptr, ptr }
%"class.std::map" = type { %"class.std::_Rb_tree" }
%"class.std::_Rb_tree" = type { %"struct.std::_Rb_tree<cvc5::internal::kind::Kind_t, std::pair<const cvc5::internal::kind::Kind_t, std::map<cvc5::internal::TypeNode, cvc5::internal::NodeTemplate<true>>>, std::_Select1st<std::pair<const cvc5::internal::kind::Kind_t, std::map<cvc5::internal::TypeNode, cvc5::internal::NodeTemplate<true>>>>, std::less<cvc5::internal::kind::Kind_t>>::_Rb_tree_impl" }
%"struct.std::_Rb_tree<cvc5::internal::kind::Kind_t, std::pair<const cvc5::internal::kind::Kind_t, std::map<cvc5::internal::TypeNode, cvc5::internal::NodeTemplate<true>>>, std::_Select1st<std::pair<const cvc5::internal::kind::Kind_t, std::map<cvc5::internal::TypeNode, cvc5::internal::NodeTemplate<true>>>>, std::less<cvc5::internal::kind::Kind_t>>::_Rb_tree_impl" = type { %"struct.std::_Rb_tree_key_compare", %"struct.std::_Rb_tree_header" }
%"struct.std::_Rb_tree_key_compare" = type { %"struct.std::less" }
%"struct.std::less" = type { i8 }
%"struct.std::_Rb_tree_header" = type { %"struct.std::_Rb_tree_node_base", i64 }
%"struct.std::_Rb_tree_node_base" = type { i32, ptr, ptr, ptr }
%"class.std::vector.89" = type { %"struct.std::_Vector_base.90" }
%"struct.std::_Vector_base.90" = type { %"struct.std::_Vector_base<std::unique_ptr<cvc5::internal::DType>, std::allocator<std::unique_ptr<cvc5::internal::DType>>>::_Vector_impl" }
%"struct.std::_Vector_base<std::unique_ptr<cvc5::internal::DType>, std::allocator<std::unique_ptr<cvc5::internal::DType>>>::_Vector_impl" = type { %"struct.std::_Vector_base<std::unique_ptr<cvc5::internal::DType>, std::allocator<std::unique_ptr<cvc5::internal::DType>>>::_Vector_impl_data" }
%"struct.std::_Vector_base<std::unique_ptr<cvc5::internal::DType>, std::allocator<std::unique_ptr<cvc5::internal::DType>>>::_Vector_impl_data" = type { ptr, ptr, ptr }
%"class.std::vector.94" = type { %"struct.std::_Vector_base.95" }
%"struct.std::_Vector_base.95" = type { %"struct.std::_Vector_base<std::unique_ptr<cvc5::internal::Oracle>, std::allocator<std::unique_ptr<cvc5::internal::Oracle>>>::_Vector_impl" }
%"struct.std::_Vector_base<std::unique_ptr<cvc5::internal::Oracle>, std::allocator<std::unique_ptr<cvc5::internal::Oracle>>>::_Vector_impl" = type { %"struct.std::_Vector_base<std::unique_ptr<cvc5::internal::Oracle>, std::allocator<std::unique_ptr<cvc5::internal::Oracle>>>::_Vector_impl_data" }
%"struct.std::_Vector_base<std::unique_ptr<cvc5::internal::Oracle>, std::allocator<std::unique_ptr<cvc5::internal::Oracle>>>::_Vector_impl_data" = type { ptr, ptr, ptr }
%"class.std::map.99" = type { %"class.std::_Rb_tree.100" }
%"class.std::_Rb_tree.100" = type { %"struct.std::_Rb_tree<std::pair<std::__cxx11::basic_string<char>, unsigned long>, std::pair<const std::pair<std::__cxx11::basic_string<char>, unsigned long>, cvc5::internal::TypeNode>, std::_Select1st<std::pair<const std::pair<std::__cxx11::basic_string<char>, unsigned long>, cvc5::internal::TypeNode>>, std::less<std::pair<std::__cxx11::basic_string<char>, unsigned long>>>::_Rb_tree_impl" }
%"struct.std::_Rb_tree<std::pair<std::__cxx11::basic_string<char>, unsigned long>, std::pair<const std::pair<std::__cxx11::basic_string<char>, unsigned long>, cvc5::internal::TypeNode>, std::_Select1st<std::pair<const std::pair<std::__cxx11::basic_string<char>, unsigned long>, cvc5::internal::TypeNode>>, std::less<std::pair<std::__cxx11::basic_string<char>, unsigned long>>>::_Rb_tree_impl" = type { %"struct.std::_Rb_tree_key_compare.104", %"struct.std::_Rb_tree_header" }
%"struct.std::_Rb_tree_key_compare.104" = type { %"struct.std::less.105" }
%"struct.std::less.105" = type { i8 }
%"class.cvc5::internal::NodeManager::TupleTypeCache" = type { %"class.std::map.107", %"class.cvc5::internal::TypeNode" }
%"class.std::map.107" = type { %"class.std::_Rb_tree.108" }
%"class.std::_Rb_tree.108" = type { %"struct.std::_Rb_tree<cvc5::internal::TypeNode, std::pair<const cvc5::internal::TypeNode, cvc5::internal::NodeManager::TupleTypeCache>, std::_Select1st<std::pair<const cvc5::internal::TypeNode, cvc5::internal::NodeManager::TupleTypeCache>>, std::less<cvc5::internal::TypeNode>>::_Rb_tree_impl" }
%"struct.std::_Rb_tree<cvc5::internal::TypeNode, std::pair<const cvc5::internal::TypeNode, cvc5::internal::NodeManager::TupleTypeCache>, std::_Select1st<std::pair<const cvc5::internal::TypeNode, cvc5::internal::NodeManager::TupleTypeCache>>, std::less<cvc5::internal::TypeNode>>::_Rb_tree_impl" = type { %"struct.std::_Rb_tree_key_compare.112", %"struct.std::_Rb_tree_header" }
%"struct.std::_Rb_tree_key_compare.112" = type { %"struct.std::less.113" }
%"struct.std::less.113" = type { i8 }
%"class.cvc5::internal::NodeManager::RecTypeCache" = type { %"class.std::map.115", %"class.cvc5::internal::TypeNode" }
%"class.std::map.115" = type { %"class.std::_Rb_tree.116" }
%"class.std::_Rb_tree.116" = type { %"struct.std::_Rb_tree<cvc5::internal::TypeNode, std::pair<const cvc5::internal::TypeNode, std::map<std::__cxx11::basic_string<char>, cvc5::internal::NodeManager::RecTypeCache>>, std::_Select1st<std::pair<const cvc5::internal::TypeNode, std::map<std::__cxx11::basic_string<char>, cvc5::internal::NodeManager::RecTypeCache>>>, std::less<cvc5::internal::TypeNode>>::_Rb_tree_impl" }
%"struct.std::_Rb_tree<cvc5::internal::TypeNode, std::pair<const cvc5::internal::TypeNode, std::map<std::__cxx11::basic_string<char>, cvc5::internal::NodeManager::RecTypeCache>>, std::_Select1st<std::pair<const cvc5::internal::TypeNode, std::map<std::__cxx11::basic_string<char>, cvc5::internal::NodeManager::RecTypeCache>>>, std::less<cvc5::internal::TypeNode>>::_Rb_tree_impl" = type { %"struct.std::_Rb_tree_key_compare.112", %"struct.std::_Rb_tree_header" }
%"class.__gnu_cxx::__normal_iterator.249" = type { ptr }
%"class.std::tuple.202" = type { %"struct.std::_Tuple_impl.203" }
%"struct.std::_Tuple_impl.203" = type { %"struct.std::_Tuple_impl.204", %"struct.std::_Head_base.208" }
%"struct.std::_Tuple_impl.204" = type { %"struct.std::_Tuple_impl.205", %"struct.std::_Head_base.207" }
%"struct.std::_Tuple_impl.205" = type { %"struct.std::_Head_base.206" }
%"struct.std::_Head_base.206" = type { i32 }
%"struct.std::_Head_base.207" = type { i64 }
%"struct.std::_Head_base.208" = type { %"class.cvc5::internal::NodeTemplate" }
%"class.__gnu_cxx::__normal_iterator.250" = type { ptr }
%"class.__gnu_cxx::__normal_iterator.209" = type { ptr }
%"class.std::ostream_iterator" = type { ptr, ptr }
%"struct.std::_Vector_base.121" = type { %"struct.std::_Vector_base<cvc5::internal::TypeNode, std::allocator<cvc5::internal::TypeNode>>::_Vector_impl" }
%"struct.std::_Vector_base<cvc5::internal::TypeNode, std::allocator<cvc5::internal::TypeNode>>::_Vector_impl" = type { %"struct.std::_Vector_base<cvc5::internal::TypeNode, std::allocator<cvc5::internal::TypeNode>>::_Vector_impl_data" }
%"struct.std::_Vector_base<cvc5::internal::TypeNode, std::allocator<cvc5::internal::TypeNode>>::_Vector_impl_data" = type { ptr, ptr, ptr }
%"class.cvc5::internal::options::ioutils::Scope" = type <{ ptr, i8, [7 x i8], i64, i64, i8, [3 x i8], i32, i32, [4 x i8] }>
%"class.__gnu_cxx::__normal_iterator.215" = type { ptr }
%"class.cvc5::internal::UnsatCore" = type { i8, %"class.std::vector.3", %"class.std::vector.210" }
%"class.std::ostream_iterator.221" = type { ptr, ptr }
%"class.std::initializer_list" = type { ptr, i64 }
%"class.std::allocator.5" = type { i8 }
%"struct.std::_Vector_base.223" = type { %"struct.std::_Vector_base<std::vector<cvc5::internal::NodeTemplate<true>>, std::allocator<std::vector<cvc5::internal::NodeTemplate<true>>>>::_Vector_impl" }
%"struct.std::_Vector_base<std::vector<cvc5::internal::NodeTemplate<true>>, std::allocator<std::vector<cvc5::internal::NodeTemplate<true>>>>::_Vector_impl" = type { %"struct.std::_Vector_base<std::vector<cvc5::internal::NodeTemplate<true>>, std::allocator<std::vector<cvc5::internal::NodeTemplate<true>>>>::_Vector_impl_data" }
%"struct.std::_Vector_base<std::vector<cvc5::internal::NodeTemplate<true>>, std::allocator<std::vector<cvc5::internal::NodeTemplate<true>>>>::_Vector_impl_data" = type { ptr, ptr, ptr }
%"class.std::set" = type { %"class.std::_Rb_tree.227" }
%"class.std::_Rb_tree.227" = type { %"struct.std::_Rb_tree<cvc5::internal::TypeNode, cvc5::internal::TypeNode, std::_Identity<cvc5::internal::TypeNode>, std::less<cvc5::internal::TypeNode>>::_Rb_tree_impl" }
%"struct.std::_Rb_tree<cvc5::internal::TypeNode, cvc5::internal::TypeNode, std::_Identity<cvc5::internal::TypeNode>, std::less<cvc5::internal::TypeNode>>::_Rb_tree_impl" = type { %"struct.std::_Rb_tree_key_compare.112", %"struct.std::_Rb_tree_header" }
%"class.std::__cxx11::list" = type { %"class.std::__cxx11::_List_base" }
%"class.std::__cxx11::_List_base" = type { %"struct.std::__cxx11::_List_base<cvc5::internal::TypeNode, std::allocator<cvc5::internal::TypeNode>>::_List_impl" }
%"struct.std::__cxx11::_List_base<cvc5::internal::TypeNode, std::allocator<cvc5::internal::TypeNode>>::_List_impl" = type { %"struct.std::__detail::_List_node_header" }
%"struct.std::__detail::_List_node_header" = type { %"struct.std::__detail::_List_node_base", i64 }
%"struct.std::__detail::_List_node_base" = type { ptr, ptr }
%"struct.std::pair" = type <{ %"struct.std::_Rb_tree_const_iterator.234", i8, [7 x i8] }>
%"struct.std::_Rb_tree_const_iterator.234" = type { ptr }
%"struct.std::pair.251" = type <{ %"struct.std::_Rb_tree_iterator", i8, [7 x i8] }>
%"struct.std::_Rb_tree_iterator" = type { ptr }
%"struct.std::_List_iterator" = type { ptr }
%"class.cvc5::internal::NodeBuilder" = type <{ %"class.cvc5::internal::expr::NodeValue", [10 x ptr], ptr, ptr, i32, [4 x i8] }>
%"struct.std::__detail::_Node_iterator" = type { %"struct.std::__detail::_Node_iterator_base" }
%"struct.std::__detail::_Node_iterator_base" = type { ptr }
%"struct.std::pair.235" = type { %"class.cvc5::internal::NodeTemplate.13", ptr }
%"class.cvc5::context::CDOhash_map" = type { %"class.cvc5::context::ContextObj", %"struct.std::pair.237", ptr, ptr, ptr }
%"struct.std::pair.237" = type <{ %"class.cvc5::internal::NodeTemplate.13", i32, [4 x i8] }>
%"struct.std::__detail::_Hash_node_value_base" = type { %"struct.__gnu_cxx::__aligned_buffer" }
%"struct.__gnu_cxx::__aligned_buffer" = type { %"union.std::aligned_storage<16, 8>::type" }
%"union.std::aligned_storage<16, 8>::type" = type { [16 x i8] }
%"class.std::allocator.240" = type { i8 }
%"class.cvc5::internal::OstreamVoider" = type { i8 }
%"class.cvc5::internal::__cvc5_true" = type { i8 }
%"class.cvc5::internal::Cvc5ostream" = type { ptr, i8, ptr }
%class.__gmp_expr.248 = type { %struct.__gmp_unary_expr }
%struct.__gmp_unary_expr = type { ptr }
%"class.std::allocator.19" = type { i8 }
%"struct.std::_List_node" = type { %"struct.std::__detail::_List_node_base", %"struct.__gnu_cxx::__aligned_membuf" }
%"struct.__gnu_cxx::__aligned_membuf" = type { [8 x i8] }
%"struct.std::_Rb_tree_node" = type { %"struct.std::_Rb_tree_node_base", %"struct.__gnu_cxx::__aligned_membuf" }
%struct._Guard = type { ptr }
%"struct.std::pair.254" = type { ptr, ptr }
%"struct.std::_Identity" = type { i8 }
%"struct.std::_Rb_tree<cvc5::internal::TypeNode, cvc5::internal::TypeNode, std::_Identity<cvc5::internal::TypeNode>, std::less<cvc5::internal::TypeNode>>::_Alloc_node" = type { ptr }
%"struct.std::__allocated_ptr" = type { ptr, ptr }

$_ZN4cvc58internal12NodeTemplateILb0EEC2ERKS2_ = comdat any

$_ZN4cvc58internal12NodeTemplateILb0EED2Ev = comdat any

$_ZNSt7__cxx1112basic_stringIcSt11char_traitsIcESaIcEEC2IS3_EEPKcRKS3_ = comdat any

$_ZNSt6vectorIN4cvc58internal12NodeTemplateILb1EEESaIS3_EEC2Ev = comdat any

$_ZN4cvc58internal12NodeTemplateILb1EEC2ERKNS1_ILb0EEE = comdat any

$_ZN4cvc58internal12NodeTemplateILb1EED2Ev = comdat any

$_ZNKSt6vectorIN4cvc58internal12NodeTemplateILb1EEESaIS3_EE5emptyEv = comdat any

$_ZNSt23_Rb_tree_const_iteratorISt4pairIKN4cvc58internal12NodeTemplateILb1EEEjEEC2Ev = comdat any

$_ZNKSt6vectorIN4cvc58internal12NodeTemplateILb1EEESaIS3_EE4sizeEv = comdat any

$_ZNSt6vectorIN4cvc58internal12NodeTemplateILb1EEESaIS3_EEixEm = comdat any

$_ZN4cvc58internal12NodeTemplateILb1EEC2ERKS2_ = comdat any

$_ZN4cvc58internal12NodeTemplateILb0EEC2ERKNS1_ILb1EEE = comdat any

$_ZNSt6vectorIN4cvc58internal12NodeTemplateILb1EEESaIS3_EED2Ev = comdat any

$_ZN4cvc58internal10LetBindingD2Ev = comdat any

$_ZNK4cvc58internal12NodeTemplateILb0EE7getKindEv = comdat any

$_ZNK4cvc58internal12NodeTemplateILb0EE11getMetaKindEv = comdat any

$_ZNK4cvc58internal12NodeTemplateILb0EE8getConstINS0_12TypeConstantEEERKT_v = comdat any

$_ZNK4cvc58internal12NodeTemplateILb0EE13constToStreamERSo = comdat any

$_ZNK4cvc58internal12NodeTemplateILb0EE8getConstINS0_12AbstractTypeEEERKT_v = comdat any

$_ZNK4cvc58internal12NodeTemplateILb0EE8getConstINS0_9GenericOpEEERKT_v = comdat any

$_ZNK4cvc58internal12NodeTemplateILb0EE8getConstINS0_13BitVectorSizeEEERKT_v = comdat any

$_ZN4cvc58internallsERSoRKNS0_7IntegerE = comdat any

$_ZNK4cvc58internal12NodeTemplateILb0EE8getConstINS0_6FfSizeEEERKT_v = comdat any

$_ZNK4cvc58internal12NodeTemplateILb0EE8getConstINS0_17FloatingPointSizeEEERKT_v = comdat any

$_ZNK4cvc58internal17FloatingPointSize13exponentWidthEv = comdat any

$_ZNK4cvc58internal17FloatingPointSize16significandWidthEv = comdat any

$_ZNK4cvc58internal12NodeTemplateILb0EE8getConstINS0_9BitVectorEEERKT_v = comdat any

$_ZNK4cvc58internal12NodeTemplateILb0EE8getConstINS0_16FiniteFieldValueEEERKT_v = comdat any

$_ZNK4cvc58internal12NodeTemplateILb0EE8getConstINS0_13FloatingPointEEERKT_v = comdat any

$_ZNK4cvc58internal12NodeTemplateILb0EE8getConstINS0_12RoundingModeEEERKT_v = comdat any

$_ZNK4cvc58internal12NodeTemplateILb0EE8getConstIbEERKT_v = comdat any

$_ZNK4cvc58internal12NodeTemplateILb0EE8getConstINS0_4kind6Kind_tEEERKT_v = comdat any

$_ZNK4cvc58internal12NodeTemplateILb0EE8getConstINS0_8RationalEEERKT_v = comdat any

$_ZNK4cvc58internal12NodeTemplateILb0EE8getConstINS0_6StringEEERKT_v = comdat any

$_ZNK4cvc58internal12NodeTemplateILb0EE8getConstINS0_8SequenceEEERKT_v = comdat any

$_ZNK4cvc58internal12NodeTemplateILb0EE7getTypeEb = comdat any

$_ZN4cvc58internal8TypeNodeD2Ev = comdat any

$_ZNK4cvc58internal12NodeTemplateILb0EE8getConstINS0_13ArrayStoreAllEEERKT_v = comdat any

$_ZN4cvc58internal8TypeNodeC2ERKS1_ = comdat any

$_ZNK4cvc58internal12NodeTemplateILb0EE8getConstINS0_22UninterpretedSortValueEEERKT_v = comdat any

$_ZN4cvc58internallsERSoRKNS0_8TypeNodeE = comdat any

$_ZNK4cvc58internal12NodeTemplateILb0EE8getConstINS0_9DivisibleEEERKT_v = comdat any

$_ZNK4cvc58internal12NodeTemplateILb0EE8getConstINS0_8EmptySetEEERKT_v = comdat any

$_ZNK4cvc58internal12NodeTemplateILb0EE8getConstINS0_8EmptyBagEEERKT_v = comdat any

$_ZNK4cvc58internal12NodeTemplateILb0EE8getConstINS0_16BitVectorExtractEEERKT_v = comdat any

$_ZNK4cvc58internal12NodeTemplateILb0EE8getConstINS0_15BitVectorRepeatEEERKT_v = comdat any

$_ZNK4cvc58internal12NodeTemplateILb0EE8getConstINS0_19BitVectorZeroExtendEEERKT_v = comdat any

$_ZNK4cvc58internal12NodeTemplateILb0EE8getConstINS0_19BitVectorSignExtendEEERKT_v = comdat any

$_ZNK4cvc58internal12NodeTemplateILb0EE8getConstINS0_19BitVectorRotateLeftEEERKT_v = comdat any

$_ZNK4cvc58internal12NodeTemplateILb0EE8getConstINS0_20BitVectorRotateRightEEERKT_v = comdat any

$_ZNK4cvc58internal12NodeTemplateILb0EE8getConstINS0_14IntToBitVectorEEERKT_v = comdat any

$_ZNK4cvc58internal12NodeTemplateILb0EE8getConstINS0_30FloatingPointToFPIEEEBitVectorEEERKT_v = comdat any

$_ZNK4cvc58internal24FloatingPointConvertSort7getSizeEv = comdat any

$_ZNK4cvc58internal12NodeTemplateILb0EE8getConstINS0_30FloatingPointToFPFloatingPointEEERKT_v = comdat any

$_ZNK4cvc58internal12NodeTemplateILb0EE8getConstINS0_21FloatingPointToFPRealEEERKT_v = comdat any

$_ZNK4cvc58internal12NodeTemplateILb0EE8getConstINS0_32FloatingPointToFPSignedBitVectorEEERKT_v = comdat any

$_ZNK4cvc58internal12NodeTemplateILb0EE8getConstINS0_34FloatingPointToFPUnsignedBitVectorEEERKT_v = comdat any

$_ZNK4cvc58internal12NodeTemplateILb0EE8getConstINS0_18FloatingPointToUBVEEERKT_v = comdat any

$_ZNK4cvc58internal12NodeTemplateILb0EE8getConstINS0_18FloatingPointToSBVEEERKT_v = comdat any

$_ZNK4cvc58internal12NodeTemplateILb0EE8getConstINS0_23FloatingPointToUBVTotalEEERKT_v = comdat any

$_ZNK4cvc58internal12NodeTemplateILb0EE8getConstINS0_23FloatingPointToSBVTotalEEERKT_v = comdat any

$_ZNK4cvc58internal12NodeTemplateILb0EE8getConstINS0_12RegExpRepeatEEERKT_v = comdat any

$_ZNK4cvc58internal12NodeTemplateILb0EE8getConstINS0_10RegExpLoopEEERKT_v = comdat any

$_ZNK4cvc58internal12NodeTemplateILb0EE8getConstINS0_9ProjectOpEEERKT_v = comdat any

$_ZN4cvc58internal9ProjectOpC2ERKS1_ = comdat any

$_ZN4cvc58internal11NodeManager14operatorToKindENS0_12NodeTemplateILb0EEE = comdat any

$_ZNKSt6vectorIjSaIjEE5emptyEv = comdat any

$_ZNKSt6vectorIjSaIjEE5beginEv = comdat any

$_ZNKSt6vectorIjSaIjEE3endEv = comdat any

$_ZN9__gnu_cxxneIPKjSt6vectorIjSaIjEEEEbRKNS_17__normal_iteratorIT_T0_EESB_ = comdat any

$_ZNK9__gnu_cxx17__normal_iteratorIPKjSt6vectorIjSaIjEEEdeEv = comdat any

$_ZN9__gnu_cxx17__normal_iteratorIPKjSt6vectorIjSaIjEEEppEv = comdat any

$_ZN4cvc58internal9ProjectOpD2Ev = comdat any

$_ZNK4cvc58internal12NodeTemplateILb0EE11getOperatorEv = comdat any

$_ZNK4cvc58internal12NodeTemplateILb1EE8getConstINS0_14AscriptionTypeEEERKT_v = comdat any

$_ZNK4cvc58internal12NodeTemplateILb0EEixEi = comdat any

$_ZNK4cvc58internal12NodeTemplateILb0EE5isVarEv = comdat any

$_ZN4cvc58internal11NodeManager16getSkolemManagerEv = comdat any

$_ZNK4cvc58internal12NodeTemplateILb0EE5getIdEv = comdat any

$_ZNK4cvc58internal12NodeTemplateILb1EE5isVarEv = comdat any

$_ZNK4cvc58internal12NodeTemplateILb0EE14getNumChildrenEv = comdat any

$_ZNK4cvc58internal12NodeTemplateILb1EE7getKindEv = comdat any

$_ZNSt6vectorIN4cvc58internal12NodeTemplateILb1EEESaIS3_EE6insertEN9__gnu_cxx17__normal_iteratorIPKS3_S5_EEOS3_ = comdat any

$_ZNSt6vectorIN4cvc58internal12NodeTemplateILb1EEESaIS3_EE5beginEv = comdat any

$_ZN9__gnu_cxx17__normal_iteratorIPKN4cvc58internal12NodeTemplateILb1EEESt6vectorIS4_SaIS4_EEEC2IPS4_vEERKNS0_IT_S9_EE = comdat any

$_ZNK4cvc58internal12NodeTemplateILb1EEixEi = comdat any

$_ZN4cvc58internal12NodeTemplateILb1EEaSERKS2_ = comdat any

$_ZN4cvc58internallsERSoNS0_12NodeTemplateILb0EEE = comdat any

$_ZN4cvc58internal12NodeTemplateILb0EE5beginEv = comdat any

$_ZN4cvc58internal12NodeTemplateILb0EE3endEv = comdat any

$_ZNK4cvc58internal4expr9NodeValue8iteratorINS0_12NodeTemplateILb0EEEEneERKS6_ = comdat any

$_ZNK4cvc58internal4expr9NodeValue8iteratorINS0_12NodeTemplateILb0EEEEdeEv = comdat any

$_ZN4cvc58internal4expr9NodeValue8iteratorINS0_12NodeTemplateILb0EEEEppEv = comdat any

$_ZNK4cvc58internal12NodeTemplateILb1EE14getNumChildrenEv = comdat any

$_ZNK4cvc58internal12NodeTemplateILb1EE8getConstINS0_6StringEEERKT_v = comdat any

$_ZNK4cvc58internal12NodeTemplateILb1EE8getConstINS0_19RealAlgebraicNumberEEERKT_v = comdat any

$_ZNK4cvc58internal12NodeTemplateILb0EE8getConstINS0_20IndexedRootPredicateEEERKT_v = comdat any

$_ZNK4cvc58internal12NodeTemplateILb1EE8getConstINS0_14BitVectorBitOfEEERKT_v = comdat any

$_ZNSt6vectorISt5tupleIJN4cvc58internal12NodeTemplateILb0EEEmiEESaIS5_EEC2Ev = comdat any

$_ZN4cvc58internal12NodeTemplateILb0EEC2Ev = comdat any

$_ZNSt6vectorISt5tupleIJN4cvc58internal12NodeTemplateILb0EEEmiEESaIS5_EE12emplace_backIJRS4_iRiEEERS5_DpOT_ = comdat any

$_ZSt3getILm0EJN4cvc58internal12NodeTemplateILb0EEEmiEERNSt13tuple_elementIXT_ESt5tupleIJDpT0_EEE4typeERS8_ = comdat any

$_ZNSt6vectorISt5tupleIJN4cvc58internal12NodeTemplateILb0EEEmiEESaIS5_EE4backEv = comdat any

$_ZN4cvc58internal12NodeTemplateILb0EEaSERKS2_ = comdat any

$_ZSt3getILm1EJN4cvc58internal12NodeTemplateILb0EEEmiEERNSt13tuple_elementIXT_ESt5tupleIJDpT0_EEE4typeERS8_ = comdat any

$_ZSt3getILm2EJN4cvc58internal12NodeTemplateILb0EEEmiEERNSt13tuple_elementIXT_ESt5tupleIJDpT0_EEE4typeERS8_ = comdat any

$_ZNK4cvc58internal10LetBinding9getPrefixB5cxx11Ev = comdat any

$_ZNSt6vectorISt5tupleIJN4cvc58internal12NodeTemplateILb0EEEmiEESaIS5_EE8pop_backEv = comdat any

$_ZNSt6vectorISt5tupleIJN4cvc58internal12NodeTemplateILb0EEEmiEESaIS5_EE12emplace_backIJS4_iiEEERS5_DpOT_ = comdat any

$_ZNKSt6vectorISt5tupleIJN4cvc58internal12NodeTemplateILb0EEEmiEESaIS5_EE5emptyEv = comdat any

$_ZNSt6vectorISt5tupleIJN4cvc58internal12NodeTemplateILb0EEEmiEESaIS5_EED2Ev = comdat any

$_ZNK4cvc58internal12NodeTemplateILb1EE7getTypeEb = comdat any

$_ZNK4cvc58internal8TypeNode10isSequenceEv = comdat any

$_ZNKSt6vectorIN4cvc58internal8TypeNodeESaIS2_EE5emptyEv = comdat any

$_ZSt4copyIN9__gnu_cxx17__normal_iteratorIPKN4cvc58internal8TypeNodeESt6vectorIS4_SaIS4_EEEESt16ostream_iteratorIS4_cSt11char_traitsIcEEET0_T_SG_SF_ = comdat any

$_ZNKSt6vectorIN4cvc58internal8TypeNodeESaIS2_EE5beginEv = comdat any

$_ZNKSt6vectorIN4cvc58internal8TypeNodeESaIS2_EE3endEv = comdat any

$_ZNK9__gnu_cxx17__normal_iteratorIPKN4cvc58internal8TypeNodeESt6vectorIS3_SaIS3_EEEmiEl = comdat any

$_ZNSt16ostream_iteratorIN4cvc58internal8TypeNodeEcSt11char_traitsIcEEC2ERSoPKc = comdat any

$_ZNKSt6vectorIN4cvc58internal8TypeNodeESaIS2_EE4backEv = comdat any

$_ZNK4cvc58internal8TypeNode8toStreamERSo = comdat any

$_ZNK4cvc58internal9UnsatCore8useNamesEv = comdat any

$_ZNKSt6vectorINSt7__cxx1112basic_stringIcSt11char_traitsIcESaIcEEESaIS5_EE5beginEv = comdat any

$_ZNKSt6vectorINSt7__cxx1112basic_stringIcSt11char_traitsIcESaIcEEESaIS5_EE3endEv = comdat any

$_ZN9__gnu_cxxneIPKNSt7__cxx1112basic_stringIcSt11char_traitsIcESaIcEEESt6vectorIS6_SaIS6_EEEEbRKNS_17__normal_iteratorIT_T0_EESH_ = comdat any

$_ZNK9__gnu_cxx17__normal_iteratorIPKNSt7__cxx1112basic_stringIcSt11char_traitsIcESaIcEEESt6vectorIS6_SaIS6_EEEdeEv = comdat any

$_ZN9__gnu_cxx17__normal_iteratorIPKNSt7__cxx1112basic_stringIcSt11char_traitsIcESaIcEEESt6vectorIS6_SaIS6_EEEppEv = comdat any

$_ZN9__gnu_cxxneIPKN4cvc58internal12NodeTemplateILb1EEESt6vectorIS4_SaIS4_EEEEbRKNS_17__normal_iteratorIT_T0_EESF_ = comdat any

$_ZNK9__gnu_cxx17__normal_iteratorIPKN4cvc58internal12NodeTemplateILb1EEESt6vectorIS4_SaIS4_EEEdeEv = comdat any

$_ZN9__gnu_cxx17__normal_iteratorIPKN4cvc58internal12NodeTemplateILb1EEESt6vectorIS4_SaIS4_EEEppEv = comdat any

$_ZN4cvc58internal12NodeTemplateILb1EEC2Ev = comdat any

$_ZNKSt6vectorIN4cvc58internal12NodeTemplateILb1EEESaIS3_EE5beginEv = comdat any

$_ZNKSt6vectorIN4cvc58internal12NodeTemplateILb1EEESaIS3_EE3endEv = comdat any

$_ZNK4cvc58internal12NodeTemplateILb1EE8getConstINS0_22UninterpretedSortValueEEERKT_v = comdat any

$_ZSt4copyIN9__gnu_cxx17__normal_iteratorIPKN4cvc58internal12NodeTemplateILb1EEESt6vectorIS5_SaIS5_EEEESt16ostream_iteratorIS5_cSt11char_traitsIcEEET0_T_SH_SG_ = comdat any

$_ZNSt16ostream_iteratorIN4cvc58internal12NodeTemplateILb1EEEcSt11char_traitsIcEEC2ERSoPKc = comdat any

$_ZNK4cvc58internal12NodeTemplateILb1EE6isNullEv = comdat any

$_ZNSaIN4cvc58internal12NodeTemplateILb1EEEEC2Ev = comdat any

$_ZNSt6vectorIN4cvc58internal12NodeTemplateILb1EEESaIS3_EEC2ESt16initializer_listIS3_ERKS4_ = comdat any

$_ZNSaIN4cvc58internal12NodeTemplateILb1EEEED2Ev = comdat any

$_ZNKSt6vectorIN4cvc58internal12NodeTemplateILb1EEESaIS3_EEixEm = comdat any

$_ZNKSt6vectorIS_IN4cvc58internal12NodeTemplateILb1EEESaIS3_EESaIS5_EEixEm = comdat any

$_ZNK4cvc58internal8TypeNode10isFunctionEv = comdat any

$_ZN4cvc58internal8TypeNodeaSERKS1_ = comdat any

$_ZNKSt6vectorIN4cvc58internal8TypeNodeESaIS2_EE4sizeEv = comdat any

$_ZSteqIcSt11char_traitsIcESaIcEEbRKNSt7__cxx1112basic_stringIT_T0_T1_EEPKS5_ = comdat any

$_ZNKSt6vectorIN4cvc58internal8TypeNodeESaIS2_EEixEm = comdat any

$_ZN9__gnu_cxxneIPKN4cvc58internal8TypeNodeESt6vectorIS3_SaIS3_EEEEbRKNS_17__normal_iteratorIT_T0_EESE_ = comdat any

$_ZNK9__gnu_cxx17__normal_iteratorIPKN4cvc58internal8TypeNodeESt6vectorIS3_SaIS3_EEEdeEv = comdat any

$_ZN9__gnu_cxx17__normal_iteratorIPKN4cvc58internal8TypeNodeESt6vectorIS3_SaIS3_EEEppEv = comdat any

$_ZNK4cvc58internal8TypeNode6isNullEv = comdat any

$_ZNSt3setIN4cvc58internal8TypeNodeESt4lessIS2_ESaIS2_EEC2Ev = comdat any

$_ZNSt7__cxx114listIN4cvc58internal8TypeNodeESaIS3_EEC2Ev = comdat any

$_ZNSt3setIN4cvc58internal8TypeNodeESt4lessIS2_ESaIS2_EE6insertERKS2_ = comdat any

$_ZNSt7__cxx114listIN4cvc58internal8TypeNodeESaIS3_EE9push_backERKS3_ = comdat any

$_ZNSt7__cxx114listIN4cvc58internal8TypeNodeESaIS3_EE5frontEv = comdat any

$_ZNSt7__cxx114listIN4cvc58internal8TypeNodeESaIS3_EE9pop_frontEv = comdat any

$_ZNSt6vectorIN4cvc58internal12NodeTemplateILb1EEESaIS3_EE9push_backEOS3_ = comdat any

$_ZNSt6vectorIN4cvc58internal12NodeTemplateILb1EEESaIS3_EE9push_backERKS3_ = comdat any

$_ZN4cvc58internal11NodeManager6mkNodeILb1EEENS0_12NodeTemplateILb1EEENS0_4kind6Kind_tERKSt6vectorINS3_IXT_EEESaIS8_EE = comdat any

$_ZNKSt7__cxx114listIN4cvc58internal8TypeNodeESaIS3_EE5emptyEv = comdat any

$_ZNSt7__cxx114listIN4cvc58internal8TypeNodeESaIS3_EED2Ev = comdat any

$_ZNSt3setIN4cvc58internal8TypeNodeESt4lessIS2_ESaIS2_EED2Ev = comdat any

$_ZN4cvc58internal7printer4smt211Smt2PrinterD2Ev = comdat any

$_ZN4cvc58internal7printer4smt211Smt2PrinterD0Ev = comdat any

$_ZNSt12_Vector_baseIN4cvc58internal12NodeTemplateILb1EEESaIS3_EEC2Ev = comdat any

$_ZNSt12_Vector_baseIN4cvc58internal12NodeTemplateILb1EEESaIS3_EE12_Vector_implC2Ev = comdat any

$_ZNSt12_Vector_baseIN4cvc58internal12NodeTemplateILb1EEESaIS3_EE17_Vector_impl_dataC2Ev = comdat any

$_ZNSt15__new_allocatorIN4cvc58internal12NodeTemplateILb1EEEEC2Ev = comdat any

$_ZN4cvc57context9CDHashMapINS_8internal12NodeTemplateILb1EEEjSt4hashIS4_EED2Ev = comdat any

$_ZN4cvc57context6CDListINS_8internal12NodeTemplateILb1EEENS0_14DefaultCleanUpIS4_EESaIS4_EED2Ev = comdat any

$__clang_call_terminate = comdat any

$_ZN4cvc57context9CDHashMapINS_8internal12NodeTemplateILb1EEEjSt4hashIS4_EE5clearEv = comdat any

$_ZNSt13unordered_mapIN4cvc58internal12NodeTemplateILb1EEEPNS0_7context11CDOhash_mapIS3_jSt4hashIS3_EEES7_St8equal_toIS3_ESaISt4pairIKS3_S9_EEED2Ev = comdat any

$_ZN4cvc57context9CDHashMapINS_8internal12NodeTemplateILb1EEEjSt4hashIS4_EE4saveEPNS0_20ContextMemoryManagerE = comdat any

$_ZN4cvc57context9CDHashMapINS_8internal12NodeTemplateILb1EEEjSt4hashIS4_EE7restoreEPNS0_10ContextObjE = comdat any

$_ZN4cvc57context9CDHashMapINS_8internal12NodeTemplateILb1EEEjSt4hashIS4_EED0Ev = comdat any

$_ZNSt13unordered_mapIN4cvc58internal12NodeTemplateILb1EEEPNS0_7context11CDOhash_mapIS3_jSt4hashIS3_EEES7_St8equal_toIS3_ESaISt4pairIKS3_S9_EEE5beginEv = comdat any

$_ZNSt13unordered_mapIN4cvc58internal12NodeTemplateILb1EEEPNS0_7context11CDOhash_mapIS3_jSt4hashIS3_EEES7_St8equal_toIS3_ESaISt4pairIKS3_S9_EEE3endEv = comdat any

$_ZNSt8__detailneERKNS_19_Node_iterator_baseISt4pairIKN4cvc58internal12NodeTemplateILb1EEEPNS2_7context11CDOhash_mapIS5_jSt4hashIS5_EEEELb1EEESG_ = comdat any

$_ZNKSt8__detail14_Node_iteratorISt4pairIKN4cvc58internal12NodeTemplateILb1EEEPNS2_7context11CDOhash_mapIS5_jSt4hashIS5_EEEELb0ELb1EEdeEv = comdat any

$_ZN4cvc57context10ContextObj10deleteSelfEv = comdat any

$_ZNSt8__detail14_Node_iteratorISt4pairIKN4cvc58internal12NodeTemplateILb1EEEPNS2_7context11CDOhash_mapIS5_jSt4hashIS5_EEEELb0ELb1EEppEv = comdat any

$_ZNSt13unordered_mapIN4cvc58internal12NodeTemplateILb1EEEPNS0_7context11CDOhash_mapIS3_jSt4hashIS3_EEES7_St8equal_toIS3_ESaISt4pairIKS3_S9_EEE5clearEv = comdat any

$_ZNSt10_HashtableIN4cvc58internal12NodeTemplateILb1EEESt4pairIKS3_PNS0_7context11CDOhash_mapIS3_jSt4hashIS3_EEEESaISC_ENSt8__detail10_Select1stESt8equal_toIS3_ES9_NSE_18_Mod_range_hashingENSE_20_Default_ranged_hashENSE_20_Prime_rehash_policyENSE_17_Hashtable_traitsILb1ELb0ELb1EEEE5beginEv = comdat any

$_ZNKSt10_HashtableIN4cvc58internal12NodeTemplateILb1EEESt4pairIKS3_PNS0_7context11CDOhash_mapIS3_jSt4hashIS3_EEEESaISC_ENSt8__detail10_Select1stESt8equal_toIS3_ES9_NSE_18_Mod_range_hashingENSE_20_Default_ranged_hashENSE_20_Prime_rehash_policyENSE_17_Hashtable_traitsILb1ELb0ELb1EEEE8_M_beginEv = comdat any

$_ZNSt8__detail14_Node_iteratorISt4pairIKN4cvc58internal12NodeTemplateILb1EEEPNS2_7context11CDOhash_mapIS5_jSt4hashIS5_EEEELb0ELb1EEC2EPNS_10_Hash_nodeISD_Lb1EEE = comdat any

$_ZNSt8__detail19_Node_iterator_baseISt4pairIKN4cvc58internal12NodeTemplateILb1EEEPNS2_7context11CDOhash_mapIS5_jSt4hashIS5_EEEELb1EEC2EPNS_10_Hash_nodeISD_Lb1EEE = comdat any

$_ZNSt10_HashtableIN4cvc58internal12NodeTemplateILb1EEESt4pairIKS3_PNS0_7context11CDOhash_mapIS3_jSt4hashIS3_EEEESaISC_ENSt8__detail10_Select1stESt8equal_toIS3_ES9_NSE_18_Mod_range_hashingENSE_20_Default_ranged_hashENSE_20_Prime_rehash_policyENSE_17_Hashtable_traitsILb1ELb0ELb1EEEE3endEv = comdat any

$_ZNSt8__detail21_Hash_node_value_baseISt4pairIKN4cvc58internal12NodeTemplateILb1EEEPNS2_7context11CDOhash_mapIS5_jSt4hashIS5_EEEEE4_M_vEv = comdat any

$_ZNSt8__detail21_Hash_node_value_baseISt4pairIKN4cvc58internal12NodeTemplateILb1EEEPNS2_7context11CDOhash_mapIS5_jSt4hashIS5_EEEEE9_M_valptrEv = comdat any

$_ZN9__gnu_cxx16__aligned_bufferISt4pairIKN4cvc58internal12NodeTemplateILb1EEEPNS2_7context11CDOhash_mapIS5_jSt4hashIS5_EEEEE6_M_ptrEv = comdat any

$_ZN9__gnu_cxx16__aligned_bufferISt4pairIKN4cvc58internal12NodeTemplateILb1EEEPNS2_7context11CDOhash_mapIS5_jSt4hashIS5_EEEEE7_M_addrEv = comdat any

$_ZNSt8__detail19_Node_iterator_baseISt4pairIKN4cvc58internal12NodeTemplateILb1EEEPNS2_7context11CDOhash_mapIS5_jSt4hashIS5_EEEELb1EE7_M_incrEv = comdat any

$_ZNKSt8__detail10_Hash_nodeISt4pairIKN4cvc58internal12NodeTemplateILb1EEEPNS2_7context11CDOhash_mapIS5_jSt4hashIS5_EEEELb1EE7_M_nextEv = comdat any

$_ZNSt10_HashtableIN4cvc58internal12NodeTemplateILb1EEESt4pairIKS3_PNS0_7context11CDOhash_mapIS3_jSt4hashIS3_EEEESaISC_ENSt8__detail10_Select1stESt8equal_toIS3_ES9_NSE_18_Mod_range_hashingENSE_20_Default_ranged_hashENSE_20_Prime_rehash_policyENSE_17_Hashtable_traitsILb1ELb0ELb1EEEE5clearEv = comdat any

$_ZNSt8__detail16_Hashtable_allocISaINS_10_Hash_nodeISt4pairIKN4cvc58internal12NodeTemplateILb1EEEPNS3_7context11CDOhash_mapIS6_jSt4hashIS6_EEEELb1EEEEE19_M_deallocate_nodesEPSF_ = comdat any

$_ZNSt8__detail16_Hashtable_allocISaINS_10_Hash_nodeISt4pairIKN4cvc58internal12NodeTemplateILb1EEEPNS3_7context11CDOhash_mapIS6_jSt4hashIS6_EEEELb1EEEEE18_M_deallocate_nodeEPSF_ = comdat any

$_ZNSt16allocator_traitsISaINSt8__detail10_Hash_nodeISt4pairIKN4cvc58internal12NodeTemplateILb1EEEPNS3_7context11CDOhash_mapIS6_jSt4hashIS6_EEEELb1EEEEE7destroyISE_EEvRSG_PT_ = comdat any

$_ZNSt8__detail16_Hashtable_allocISaINS_10_Hash_nodeISt4pairIKN4cvc58internal12NodeTemplateILb1EEEPNS3_7context11CDOhash_mapIS6_jSt4hashIS6_EEEELb1EEEEE17_M_node_allocatorEv = comdat any

$_ZNSt8__detail16_Hashtable_allocISaINS_10_Hash_nodeISt4pairIKN4cvc58internal12NodeTemplateILb1EEEPNS3_7context11CDOhash_mapIS6_jSt4hashIS6_EEEELb1EEEEE22_M_deallocate_node_ptrEPSF_ = comdat any

$_ZNSt15__new_allocatorINSt8__detail10_Hash_nodeISt4pairIKN4cvc58internal12NodeTemplateILb1EEEPNS3_7context11CDOhash_mapIS6_jSt4hashIS6_EEEELb1EEEE7destroyISE_EEvPT_ = comdat any

$_ZNSt4pairIKN4cvc58internal12NodeTemplateILb1EEEPNS0_7context11CDOhash_mapIS3_jSt4hashIS3_EEEED2Ev = comdat any

$_ZNSt8__detail21_Hashtable_ebo_helperILi0ESaINS_10_Hash_nodeISt4pairIKN4cvc58internal12NodeTemplateILb1EEEPNS3_7context11CDOhash_mapIS6_jSt4hashIS6_EEEELb1EEEELb1EE6_M_getEv = comdat any

$_ZNSt19__ptr_traits_ptr_toIPNSt8__detail10_Hash_nodeISt4pairIKN4cvc58internal12NodeTemplateILb1EEEPNS3_7context11CDOhash_mapIS6_jSt4hashIS6_EEEELb1EEESF_Lb0EE10pointer_toERSF_ = comdat any

$_ZNSt16allocator_traitsISaINSt8__detail10_Hash_nodeISt4pairIKN4cvc58internal12NodeTemplateILb1EEEPNS3_7context11CDOhash_mapIS6_jSt4hashIS6_EEEELb1EEEEE10deallocateERSG_PSF_m = comdat any

$_ZNSt15__new_allocatorINSt8__detail10_Hash_nodeISt4pairIKN4cvc58internal12NodeTemplateILb1EEEPNS3_7context11CDOhash_mapIS6_jSt4hashIS6_EEEELb1EEEE10deallocateEPSF_m = comdat any

$_ZNSt10_HashtableIN4cvc58internal12NodeTemplateILb1EEESt4pairIKS3_PNS0_7context11CDOhash_mapIS3_jSt4hashIS3_EEEESaISC_ENSt8__detail10_Select1stESt8equal_toIS3_ES9_NSE_18_Mod_range_hashingENSE_20_Default_ranged_hashENSE_20_Prime_rehash_policyENSE_17_Hashtable_traitsILb1ELb0ELb1EEEED2Ev = comdat any

$_ZNSt10_HashtableIN4cvc58internal12NodeTemplateILb1EEESt4pairIKS3_PNS0_7context11CDOhash_mapIS3_jSt4hashIS3_EEEESaISC_ENSt8__detail10_Select1stESt8equal_toIS3_ES9_NSE_18_Mod_range_hashingENSE_20_Default_ranged_hashENSE_20_Prime_rehash_policyENSE_17_Hashtable_traitsILb1ELb0ELb1EEEE21_M_deallocate_bucketsEv = comdat any

$_ZNSt8__detail16_Hashtable_allocISaINS_10_Hash_nodeISt4pairIKN4cvc58internal12NodeTemplateILb1EEEPNS3_7context11CDOhash_mapIS6_jSt4hashIS6_EEEELb1EEEEED2Ev = comdat any

$_ZNSt10_HashtableIN4cvc58internal12NodeTemplateILb1EEESt4pairIKS3_PNS0_7context11CDOhash_mapIS3_jSt4hashIS3_EEEESaISC_ENSt8__detail10_Select1stESt8equal_toIS3_ES9_NSE_18_Mod_range_hashingENSE_20_Default_ranged_hashENSE_20_Prime_rehash_policyENSE_17_Hashtable_traitsILb1ELb0ELb1EEEE21_M_deallocate_bucketsEPPNSE_15_Hash_node_baseEm = comdat any

$_ZNKSt10_HashtableIN4cvc58internal12NodeTemplateILb1EEESt4pairIKS3_PNS0_7context11CDOhash_mapIS3_jSt4hashIS3_EEEESaISC_ENSt8__detail10_Select1stESt8equal_toIS3_ES9_NSE_18_Mod_range_hashingENSE_20_Default_ranged_hashENSE_20_Prime_rehash_policyENSE_17_Hashtable_traitsILb1ELb0ELb1EEEE21_M_uses_single_bucketEPPNSE_15_Hash_node_baseE = comdat any

$_ZNSt8__detail16_Hashtable_allocISaINS_10_Hash_nodeISt4pairIKN4cvc58internal12NodeTemplateILb1EEEPNS3_7context11CDOhash_mapIS6_jSt4hashIS6_EEEELb1EEEEE21_M_deallocate_bucketsEPPNS_15_Hash_node_baseEm = comdat any

$_ZNSt19__ptr_traits_ptr_toIPPNSt8__detail15_Hash_node_baseES2_Lb0EE10pointer_toERS2_ = comdat any

$_ZNSaIPNSt8__detail15_Hash_node_baseEEC2INS_10_Hash_nodeISt4pairIKN4cvc58internal12NodeTemplateILb1EEEPNS6_7context11CDOhash_mapIS9_jSt4hashIS9_EEEELb1EEEEERKSaIT_E = comdat any

$_ZNSt16allocator_traitsISaIPNSt8__detail15_Hash_node_baseEEE10deallocateERS3_PS2_m = comdat any

$_ZNSaIPNSt8__detail15_Hash_node_baseEED2Ev = comdat any

$_ZNSt15__new_allocatorIPNSt8__detail15_Hash_node_baseEEC2Ev = comdat any

$_ZNSt15__new_allocatorIPNSt8__detail15_Hash_node_baseEE10deallocateEPS2_m = comdat any

$_ZNSt15__new_allocatorIPNSt8__detail15_Hash_node_baseEED2Ev = comdat any

$_ZNSt8__detail21_Hashtable_ebo_helperILi0ESaINS_10_Hash_nodeISt4pairIKN4cvc58internal12NodeTemplateILb1EEEPNS3_7context11CDOhash_mapIS6_jSt4hashIS6_EEEELb1EEEELb1EED2Ev = comdat any

$_ZNSaINSt8__detail10_Hash_nodeISt4pairIKN4cvc58internal12NodeTemplateILb1EEEPNS2_7context11CDOhash_mapIS5_jSt4hashIS5_EEEELb1EEEED2Ev = comdat any

$_ZNSt15__new_allocatorINSt8__detail10_Hash_nodeISt4pairIKN4cvc58internal12NodeTemplateILb1EEEPNS3_7context11CDOhash_mapIS6_jSt4hashIS6_EEEELb1EEEED2Ev = comdat any

$_ZN4cvc57context10ContextObjdlEPv = comdat any

$_ZN4cvc58internal13OstreamVoiderC2Ev = comdat any

$_ZN4cvc58internal13OstreamVoideranERSo = comdat any

$_ZN4cvc57context6CDListINS_8internal12NodeTemplateILb1EEENS0_14DefaultCleanUpIS4_EESaIS4_EE12truncateListEm = comdat any

$_ZN4cvc57context6CDListINS_8internal12NodeTemplateILb1EEENS0_14DefaultCleanUpIS4_EESaIS4_EE4saveEPNS0_20ContextMemoryManagerE = comdat any

$_ZN4cvc57context6CDListINS_8internal12NodeTemplateILb1EEENS0_14DefaultCleanUpIS4_EESaIS4_EE7restoreEPNS0_10ContextObjE = comdat any

$_ZN4cvc57context6CDListINS_8internal12NodeTemplateILb1EEENS0_14DefaultCleanUpIS4_EESaIS4_EED0Ev = comdat any

$_ZNK4cvc57context14DefaultCleanUpINS_8internal12NodeTemplateILb1EEEEclERS4_ = comdat any

$_ZNSt6vectorIN4cvc58internal12NodeTemplateILb1EEESaIS3_EE5eraseEN9__gnu_cxx17__normal_iteratorIPKS3_S5_EESA_ = comdat any

$_ZNK9__gnu_cxx17__normal_iteratorIPN4cvc58internal12NodeTemplateILb1EEESt6vectorIS4_SaIS4_EEEplEl = comdat any

$_ZNSt6vectorIN4cvc58internal12NodeTemplateILb1EEESaIS3_EE3endEv = comdat any

$_ZNKSt6vectorIN4cvc58internal12NodeTemplateILb1EEESaIS3_EE6cbeginEv = comdat any

$_ZNSt6vectorIN4cvc58internal12NodeTemplateILb1EEESaIS3_EE8_M_eraseEN9__gnu_cxx17__normal_iteratorIPS3_S5_EES9_ = comdat any

$_ZN9__gnu_cxxmiIPKN4cvc58internal12NodeTemplateILb1EEESt6vectorIS4_SaIS4_EEEENS_17__normal_iteratorIT_T0_E15difference_typeERKSD_SG_ = comdat any

$_ZN9__gnu_cxx17__normal_iteratorIPKN4cvc58internal12NodeTemplateILb1EEESt6vectorIS4_SaIS4_EEEC2ERKS6_ = comdat any

$_ZN9__gnu_cxxneIPN4cvc58internal12NodeTemplateILb1EEESt6vectorIS4_SaIS4_EEEEbRKNS_17__normal_iteratorIT_T0_EESE_ = comdat any

$_ZSt4moveIN9__gnu_cxx17__normal_iteratorIPN4cvc58internal12NodeTemplateILb1EEESt6vectorIS5_SaIS5_EEEESA_ET0_T_SC_SB_ = comdat any

$_ZNSt6vectorIN4cvc58internal12NodeTemplateILb1EEESaIS3_EE15_M_erase_at_endEPS3_ = comdat any

$_ZNK9__gnu_cxx17__normal_iteratorIPN4cvc58internal12NodeTemplateILb1EEESt6vectorIS4_SaIS4_EEE4baseEv = comdat any

$_ZN9__gnu_cxxmiIPN4cvc58internal12NodeTemplateILb1EEESt6vectorIS4_SaIS4_EEEENS_17__normal_iteratorIT_T0_E15difference_typeERKSC_SF_ = comdat any

$_ZSt13__copy_move_aILb1EN9__gnu_cxx17__normal_iteratorIPN4cvc58internal12NodeTemplateILb1EEESt6vectorIS5_SaIS5_EEEESA_ET1_T0_SC_SB_ = comdat any

$_ZSt12__miter_baseIN9__gnu_cxx17__normal_iteratorIPN4cvc58internal12NodeTemplateILb1EEESt6vectorIS5_SaIS5_EEEEET_SB_ = comdat any

$_ZSt12__niter_wrapIN9__gnu_cxx17__normal_iteratorIPN4cvc58internal12NodeTemplateILb1EEESt6vectorIS5_SaIS5_EEEES6_ET_SB_T0_ = comdat any

$_ZSt14__copy_move_a1ILb1EPN4cvc58internal12NodeTemplateILb1EEES4_ET1_T0_S6_S5_ = comdat any

$_ZSt12__niter_baseIPN4cvc58internal12NodeTemplateILb1EEESt6vectorIS3_SaIS3_EEET_N9__gnu_cxx17__normal_iteratorIS8_T0_EE = comdat any

$_ZSt14__copy_move_a2ILb1EPN4cvc58internal12NodeTemplateILb1EEES4_ET1_T0_S6_S5_ = comdat any

$_ZNSt11__copy_moveILb1ELb0ESt26random_access_iterator_tagE8__copy_mIPN4cvc58internal12NodeTemplateILb1EEES7_EET0_T_S9_S8_ = comdat any

$_ZSt8_DestroyIPN4cvc58internal12NodeTemplateILb1EEES3_EvT_S5_RSaIT0_E = comdat any

$_ZNSt12_Vector_baseIN4cvc58internal12NodeTemplateILb1EEESaIS3_EE19_M_get_Tp_allocatorEv = comdat any

$_ZSt8_DestroyIPN4cvc58internal12NodeTemplateILb1EEEEvT_S5_ = comdat any

$_ZNSt12_Destroy_auxILb0EE9__destroyIPN4cvc58internal12NodeTemplateILb1EEEEEvT_S7_ = comdat any

$_ZSt8_DestroyIN4cvc58internal12NodeTemplateILb1EEEEvPT_ = comdat any

$_ZNK9__gnu_cxx17__normal_iteratorIPKN4cvc58internal12NodeTemplateILb1EEESt6vectorIS4_SaIS4_EEE4baseEv = comdat any

$_ZN9__gnu_cxx17__normal_iteratorIPN4cvc58internal12NodeTemplateILb1EEESt6vectorIS4_SaIS4_EEEC2ERKS5_ = comdat any

$_ZN4cvc57context10ContextObjnwEmPNS0_20ContextMemoryManagerE = comdat any

$_ZN4cvc57context6CDListINS_8internal12NodeTemplateILb1EEENS0_14DefaultCleanUpIS4_EESaIS4_EEC2ERKS8_ = comdat any

$_ZN4cvc57context10ContextObjdlEPvPNS0_20ContextMemoryManagerE = comdat any

$_ZN4cvc57context10ContextObjC2ERKS1_ = comdat any

$_ZN4cvc58internal11__cvc5_truecvbEv = comdat any

$_ZNK4cvc58internal5NullCcvNS0_11Cvc5ostreamEEv = comdat any

$_ZNK4cvc58internal6TraceCclEv = comdat any

$_ZN4cvc58internal11Cvc5ostreamlsIA12_cEERS1_RKT_ = comdat any

$_ZN4cvc58internal11Cvc5ostreamlsIPNS_7context6CDListINS0_12NodeTemplateILb1EEENS3_14DefaultCleanUpIS6_EESaIS6_EEEEERS1_RKT_ = comdat any

$_ZN4cvc58internal11Cvc5ostreamlsIA7_cEERS1_RKT_ = comdat any

$_ZN4cvc58internal11Cvc5ostreamlsIPKNS_7context6CDListINS0_12NodeTemplateILb1EEENS3_14DefaultCleanUpIS6_EESaIS6_EEEEERS1_RKT_ = comdat any

$_ZN4cvc58internal11Cvc5ostreamlsImEERS1_RKT_ = comdat any

$_ZN4cvc58internal11Cvc5ostreamlsEPFRSoS2_E = comdat any

$_ZN4cvc57context10ContextObjD2Ev = comdat any

$_ZN4cvc57context10ContextObjD0Ev = comdat any

$_ZN4cvc58internal11Cvc5ostreamC2Ev = comdat any

$_ZN4cvc58internal11Cvc5ostreamC2EPSo = comdat any

$_ZNSt8ios_base5iwordEi = comdat any

$_ZNK4cvc58internal8Rational3sgnEv = comdat any

$_ZNK4cvc58internal8Rational10isIntegralEv = comdat any

$_ZNK4cvc58internal8RationalngEv = comdat any

$_ZN4cvc58internal8RationalD2Ev = comdat any

$_ZNK4cvc58internal8Rational12getNumeratorEv = comdat any

$_ZN4cvc58internal7IntegerD2Ev = comdat any

$_ZNK4cvc58internal8Rational14getDenominatorEv = comdat any

$_ZNK10__gmp_exprIA1_12__mpq_structS1_E9get_mpq_tEv = comdat any

$_ZNK10__gmp_exprIA1_12__mpq_structS1_E13get_den_mpz_tEv = comdat any

$_ZngIA1_12__mpq_structS1_E10__gmp_exprIT_16__gmp_unary_exprIS2_IS3_T0_E17__gmp_unary_minusEERKS6_ = comdat any

$_ZN10__gmp_exprIA1_12__mpq_structS1_EC2I16__gmp_unary_exprIS2_17__gmp_unary_minusEEERKS_IS1_T_E = comdat any

$_ZN4cvc58internal8RationalC2ERK10__gmp_exprIA1_12__mpq_structS4_E = comdat any

$_ZN10__gmp_exprIA1_12__mpq_structS1_ED2Ev = comdat any

$_ZN10__gmp_exprIA1_12__mpq_struct16__gmp_unary_exprIS_IS1_S1_E17__gmp_unary_minusEEC2ERKS3_ = comdat any

$_ZN16__gmp_unary_exprI10__gmp_exprIA1_12__mpq_structS2_E17__gmp_unary_minusEC2ERKS3_ = comdat any

$_Z14__gmp_set_exprI16__gmp_unary_exprI10__gmp_exprIA1_12__mpq_structS3_E17__gmp_unary_minusEEvPS2_RKS1_IS3_T_E = comdat any

$_ZNK10__gmp_exprIA1_12__mpq_struct16__gmp_unary_exprIS_IS1_S1_E17__gmp_unary_minusEE4evalEPS0_ = comdat any

$_ZN17__gmp_unary_minus4evalEP12__mpq_structPKS0_ = comdat any

$_ZNK10__gmp_exprIA1_12__mpq_structS1_E8__get_mpEv = comdat any

$_ZN10__gmp_exprIA1_12__mpq_structS1_EC2ERKS2_ = comdat any

$_ZNK10__gmp_exprIA1_12__mpq_structS1_E7get_numEv = comdat any

$_ZN4cvc58internal7IntegerC2ERK10__gmp_exprIA1_12__mpz_structS4_E = comdat any

$_ZN10__gmp_exprIA1_12__mpz_structS1_EC2ERKS2_ = comdat any

$_ZN10__gmp_exprIA1_12__mpz_structS1_ED2Ev = comdat any

$_ZNK10__gmp_exprIA1_12__mpq_structS1_E7get_denEv = comdat any

$_ZN4cvc58internal4expr9NodeValue3decEv = comdat any

$_ZN4cvc58internal4expr9NodeValue3incEv = comdat any

$_ZNSt6vectorIjSaIjEEC2ERKS1_ = comdat any

$_ZNKSt6vectorIjSaIjEE4sizeEv = comdat any

$_ZN9__gnu_cxx14__alloc_traitsISaIjEjE17_S_select_on_copyERKS1_ = comdat any

$_ZNKSt12_Vector_baseIjSaIjEE19_M_get_Tp_allocatorEv = comdat any

$_ZNSt12_Vector_baseIjSaIjEEC2EmRKS0_ = comdat any

$_ZNSaIjED2Ev = comdat any

$_ZSt22__uninitialized_copy_aIN9__gnu_cxx17__normal_iteratorIPKjSt6vectorIjSaIjEEEEPjjET0_T_SA_S9_RSaIT1_E = comdat any

$_ZNSt12_Vector_baseIjSaIjEE19_M_get_Tp_allocatorEv = comdat any

$_ZNSt12_Vector_baseIjSaIjEED2Ev = comdat any

$_ZNSt16allocator_traitsISaIjEE37select_on_container_copy_constructionERKS0_ = comdat any

$_ZNSaIjEC2ERKS_ = comdat any

$_ZNSt15__new_allocatorIjEC2ERKS0_ = comdat any

$_ZNSt12_Vector_baseIjSaIjEE12_Vector_implC2ERKS0_ = comdat any

$_ZNSt12_Vector_baseIjSaIjEE17_M_create_storageEm = comdat any

$_ZNSt12_Vector_baseIjSaIjEE12_Vector_implD2Ev = comdat any

$_ZNSt12_Vector_baseIjSaIjEE17_Vector_impl_dataC2Ev = comdat any

$_ZNSt12_Vector_baseIjSaIjEE11_M_allocateEm = comdat any

$_ZNSt16allocator_traitsISaIjEE8allocateERS0_m = comdat any

$_ZNSt15__new_allocatorIjE8allocateEmPKv = comdat any

$_ZNKSt15__new_allocatorIjE11_M_max_sizeEv = comdat any

$_ZNSt15__new_allocatorIjED2Ev = comdat any

$_ZSt18uninitialized_copyIN9__gnu_cxx17__normal_iteratorIPKjSt6vectorIjSaIjEEEEPjET0_T_SA_S9_ = comdat any

$_ZNSt20__uninitialized_copyILb1EE13__uninit_copyIN9__gnu_cxx17__normal_iteratorIPKjSt6vectorIjSaIjEEEEPjEET0_T_SC_SB_ = comdat any

$_ZSt4copyIN9__gnu_cxx17__normal_iteratorIPKjSt6vectorIjSaIjEEEEPjET0_T_SA_S9_ = comdat any

$_ZSt13__copy_move_aILb0EN9__gnu_cxx17__normal_iteratorIPKjSt6vectorIjSaIjEEEEPjET1_T0_SA_S9_ = comdat any

$_ZSt12__miter_baseIN9__gnu_cxx17__normal_iteratorIPKjSt6vectorIjSaIjEEEEET_S8_ = comdat any

$_ZSt12__niter_wrapIPjET_RKS1_S1_ = comdat any

$_ZSt14__copy_move_a1ILb0EPKjPjET1_T0_S4_S3_ = comdat any

$_ZSt12__niter_baseIPKjSt6vectorIjSaIjEEET_N9__gnu_cxx17__normal_iteratorIS5_T0_EE = comdat any

$_ZSt12__niter_baseIPjET_S1_ = comdat any

$_ZSt14__copy_move_a2ILb0EPKjPjET1_T0_S4_S3_ = comdat any

$_ZNSt11__copy_moveILb0ELb1ESt26random_access_iterator_tagE8__copy_mIjEEPT_PKS3_S6_S4_ = comdat any

$_ZNK9__gnu_cxx17__normal_iteratorIPKjSt6vectorIjSaIjEEE4baseEv = comdat any

$_ZNSt12_Vector_baseIjSaIjEE13_M_deallocateEPjm = comdat any

$_ZNSt16allocator_traitsISaIjEE10deallocateERS0_Pjm = comdat any

$_ZNSt15__new_allocatorIjE10deallocateEPjm = comdat any

$_ZNSt6vectorIjSaIjEED2Ev = comdat any

$_ZSt8_DestroyIPjjEvT_S1_RSaIT0_E = comdat any

$_ZSt8_DestroyIPjEvT_S1_ = comdat any

$_ZNSt12_Destroy_auxILb1EE9__destroyIPjEEvT_S3_ = comdat any

$_ZNKSt10unique_ptrIN4cvc58internal13SkolemManagerESt14default_deleteIS2_EE3getEv = comdat any

$_ZNKSt15__uniq_ptr_implIN4cvc58internal13SkolemManagerESt14default_deleteIS2_EE6_M_ptrEv = comdat any

$_ZSt3getILm0EJPN4cvc58internal13SkolemManagerESt14default_deleteIS2_EEERKNSt13tuple_elementIXT_ESt5tupleIJDpT0_EEE4typeERKSA_ = comdat any

$_ZSt12__get_helperILm0EPN4cvc58internal13SkolemManagerEJSt14default_deleteIS2_EEERKT0_RKSt11_Tuple_implIXT_EJS6_DpT1_EE = comdat any

$_ZNSt11_Tuple_implILm0EJPN4cvc58internal13SkolemManagerESt14default_deleteIS2_EEE7_M_headERKS6_ = comdat any

$_ZNSt10_Head_baseILm0EPN4cvc58internal13SkolemManagerELb0EE7_M_headERKS4_ = comdat any

$_ZNK4cvc58internal12NodeTemplateILb0EE8toStreamERSo = comdat any

$_ZNK4cvc58internal12NodeTemplateILb0EE21assertTNodeNotExpiredEv = comdat any

$_ZNSt12_Vector_baseISt5tupleIJN4cvc58internal12NodeTemplateILb0EEEmiEESaIS5_EEC2Ev = comdat any

$_ZNSt12_Vector_baseISt5tupleIJN4cvc58internal12NodeTemplateILb0EEEmiEESaIS5_EE12_Vector_implC2Ev = comdat any

$_ZNSaISt5tupleIJN4cvc58internal12NodeTemplateILb0EEEmiEEEC2Ev = comdat any

$_ZNSt12_Vector_baseISt5tupleIJN4cvc58internal12NodeTemplateILb0EEEmiEESaIS5_EE17_Vector_impl_dataC2Ev = comdat any

$_ZNSt15__new_allocatorISt5tupleIJN4cvc58internal12NodeTemplateILb0EEEmiEEEC2Ev = comdat any

$_ZSt12__get_helperILm0EN4cvc58internal12NodeTemplateILb0EEEJmiEERT0_RSt11_Tuple_implIXT_EJS4_DpT1_EE = comdat any

$_ZNSt11_Tuple_implILm0EJN4cvc58internal12NodeTemplateILb0EEEmiEE7_M_headERS4_ = comdat any

$_ZNSt10_Head_baseILm0EN4cvc58internal12NodeTemplateILb0EEELb0EE7_M_headERS4_ = comdat any

$_ZSt12__get_helperILm1EmJiEERT0_RSt11_Tuple_implIXT_EJS0_DpT1_EE = comdat any

$_ZNSt11_Tuple_implILm1EJmiEE7_M_headERS0_ = comdat any

$_ZNSt10_Head_baseILm1EmLb0EE7_M_headERS0_ = comdat any

$_ZSt12__get_helperILm2EiJEERT0_RSt11_Tuple_implIXT_EJS0_DpT1_EE = comdat any

$_ZNSt11_Tuple_implILm2EJiEE7_M_headERS0_ = comdat any

$_ZNSt10_Head_baseILm2EiLb0EE7_M_headERS0_ = comdat any

$_ZNK4cvc58internal8TypeNode7getKindEv = comdat any

$_ZN4cvc58internal4expr9NodeValue4nullEv = comdat any

$_ZN4cvc58internal4expr9NodeValueC2Ei = comdat any

$_ZNSt8_Rb_treeIN4cvc58internal8TypeNodeES2_St9_IdentityIS2_ESt4lessIS2_ESaIS2_EEC2Ev = comdat any

$_ZNSt8_Rb_treeIN4cvc58internal8TypeNodeES2_St9_IdentityIS2_ESt4lessIS2_ESaIS2_EE13_Rb_tree_implIS6_Lb1EEC2Ev = comdat any

$_ZNSaISt13_Rb_tree_nodeIN4cvc58internal8TypeNodeEEEC2Ev = comdat any

$_ZNSt20_Rb_tree_key_compareISt4lessIN4cvc58internal8TypeNodeEEEC2Ev = comdat any

$_ZNSt15_Rb_tree_headerC2Ev = comdat any

$_ZNSt15__new_allocatorISt13_Rb_tree_nodeIN4cvc58internal8TypeNodeEEEC2Ev = comdat any

$_ZNSt15_Rb_tree_header8_M_resetEv = comdat any

$_ZNSt7__cxx1110_List_baseIN4cvc58internal8TypeNodeESaIS3_EEC2Ev = comdat any

$_ZNSt7__cxx1110_List_baseIN4cvc58internal8TypeNodeESaIS3_EE10_List_implC2Ev = comdat any

$_ZNSaISt10_List_nodeIN4cvc58internal8TypeNodeEEEC2Ev = comdat any

$_ZNSt8__detail17_List_node_headerC2Ev = comdat any

$_ZNSt15__new_allocatorISt10_List_nodeIN4cvc58internal8TypeNodeEEEC2Ev = comdat any

$_ZNSt8__detail17_List_node_header7_M_initEv = comdat any

$_ZNSt7__cxx1110_List_baseIN4cvc58internal8TypeNodeESaIS3_EED2Ev = comdat any

$_ZNSt7__cxx1110_List_baseIN4cvc58internal8TypeNodeESaIS3_EE8_M_clearEv = comdat any

$_ZNSt7__cxx1110_List_baseIN4cvc58internal8TypeNodeESaIS3_EE10_List_implD2Ev = comdat any

$_ZNSt10_List_nodeIN4cvc58internal8TypeNodeEE9_M_valptrEv = comdat any

$_ZNSt16allocator_traitsISaISt10_List_nodeIN4cvc58internal8TypeNodeEEEE7destroyIS3_EEvRS5_PT_ = comdat any

$_ZNSt7__cxx1110_List_baseIN4cvc58internal8TypeNodeESaIS3_EE21_M_get_Node_allocatorEv = comdat any

$_ZNSt7__cxx1110_List_baseIN4cvc58internal8TypeNodeESaIS3_EE11_M_put_nodeEPSt10_List_nodeIS3_E = comdat any

$_ZN9__gnu_cxx16__aligned_membufIN4cvc58internal8TypeNodeEE6_M_ptrEv = comdat any

$_ZN9__gnu_cxx16__aligned_membufIN4cvc58internal8TypeNodeEE7_M_addrEv = comdat any

$_ZNSt15__new_allocatorISt10_List_nodeIN4cvc58internal8TypeNodeEEE7destroyIS3_EEvPT_ = comdat any

$_ZNSt16allocator_traitsISaISt10_List_nodeIN4cvc58internal8TypeNodeEEEE10deallocateERS5_PS4_m = comdat any

$_ZNSt15__new_allocatorISt10_List_nodeIN4cvc58internal8TypeNodeEEE10deallocateEPS4_m = comdat any

$_ZNSaISt10_List_nodeIN4cvc58internal8TypeNodeEEED2Ev = comdat any

$_ZNSt15__new_allocatorISt10_List_nodeIN4cvc58internal8TypeNodeEEED2Ev = comdat any

$_ZNSt8_Rb_treeIN4cvc58internal8TypeNodeES2_St9_IdentityIS2_ESt4lessIS2_ESaIS2_EED2Ev = comdat any

$_ZNSt8_Rb_treeIN4cvc58internal8TypeNodeES2_St9_IdentityIS2_ESt4lessIS2_ESaIS2_EE8_M_eraseEPSt13_Rb_tree_nodeIS2_E = comdat any

$_ZNSt8_Rb_treeIN4cvc58internal8TypeNodeES2_St9_IdentityIS2_ESt4lessIS2_ESaIS2_EE8_M_beginEv = comdat any

$_ZNSt8_Rb_treeIN4cvc58internal8TypeNodeES2_St9_IdentityIS2_ESt4lessIS2_ESaIS2_EE13_Rb_tree_implIS6_Lb1EED2Ev = comdat any

$_ZNSt8_Rb_treeIN4cvc58internal8TypeNodeES2_St9_IdentityIS2_ESt4lessIS2_ESaIS2_EE8_S_rightEPSt18_Rb_tree_node_base = comdat any

$_ZNSt8_Rb_treeIN4cvc58internal8TypeNodeES2_St9_IdentityIS2_ESt4lessIS2_ESaIS2_EE7_S_leftEPSt18_Rb_tree_node_base = comdat any

$_ZNSt8_Rb_treeIN4cvc58internal8TypeNodeES2_St9_IdentityIS2_ESt4lessIS2_ESaIS2_EE12_M_drop_nodeEPSt13_Rb_tree_nodeIS2_E = comdat any

$_ZNSt8_Rb_treeIN4cvc58internal8TypeNodeES2_St9_IdentityIS2_ESt4lessIS2_ESaIS2_EE15_M_destroy_nodeEPSt13_Rb_tree_nodeIS2_E = comdat any

$_ZNSt8_Rb_treeIN4cvc58internal8TypeNodeES2_St9_IdentityIS2_ESt4lessIS2_ESaIS2_EE11_M_put_nodeEPSt13_Rb_tree_nodeIS2_E = comdat any

$_ZNSt16allocator_traitsISaISt13_Rb_tree_nodeIN4cvc58internal8TypeNodeEEEE7destroyIS3_EEvRS5_PT_ = comdat any

$_ZNSt8_Rb_treeIN4cvc58internal8TypeNodeES2_St9_IdentityIS2_ESt4lessIS2_ESaIS2_EE21_M_get_Node_allocatorEv = comdat any

$_ZNSt13_Rb_tree_nodeIN4cvc58internal8TypeNodeEE9_M_valptrEv = comdat any

$_ZNSt15__new_allocatorISt13_Rb_tree_nodeIN4cvc58internal8TypeNodeEEE7destroyIS3_EEvPT_ = comdat any

$_ZNSt16allocator_traitsISaISt13_Rb_tree_nodeIN4cvc58internal8TypeNodeEEEE10deallocateERS5_PS4_m = comdat any

$_ZNSt15__new_allocatorISt13_Rb_tree_nodeIN4cvc58internal8TypeNodeEEE10deallocateEPS4_m = comdat any

$_ZNKSt8_Rb_treeIN4cvc58internal8TypeNodeES2_St9_IdentityIS2_ESt4lessIS2_ESaIS2_EE9_M_mbeginEv = comdat any

$_ZNSaISt13_Rb_tree_nodeIN4cvc58internal8TypeNodeEEED2Ev = comdat any

$_ZNSt15__new_allocatorISt13_Rb_tree_nodeIN4cvc58internal8TypeNodeEEED2Ev = comdat any

$_ZN4cvc58internal7PrinterD2Ev = comdat any

$_ZNSt11char_traitsIcE6lengthEPKc = comdat any

$_ZNSt7__cxx1112basic_stringIcSt11char_traitsIcESaIcEE12_M_constructIPKcEEvT_S8_St20forward_iterator_tag = comdat any

$_ZNSt7__cxx1112basic_stringIcSt11char_traitsIcESaIcEE12_Alloc_hiderD2Ev = comdat any

$_ZSt8distanceIPKcENSt15iterator_traitsIT_E15difference_typeES3_S3_ = comdat any

$_ZZNSt7__cxx1112basic_stringIcSt11char_traitsIcESaIcEE12_M_constructIPKcEEvT_S8_St20forward_iterator_tagEN6_GuardC2EPS4_ = comdat any

$_ZZNSt7__cxx1112basic_stringIcSt11char_traitsIcESaIcEE12_M_constructIPKcEEvT_S8_St20forward_iterator_tagEN6_GuardD2Ev = comdat any

$_ZSt10__distanceIPKcENSt15iterator_traitsIT_E15difference_typeES3_S3_St26random_access_iterator_tag = comdat any

$_ZSt19__iterator_categoryIPKcENSt15iterator_traitsIT_E17iterator_categoryERKS3_ = comdat any

$_ZN9__gnu_cxx17__normal_iteratorIPKNSt7__cxx1112basic_stringIcSt11char_traitsIcESaIcEEESt6vectorIS6_SaIS6_EEEC2ERKS8_ = comdat any

$_ZNK9__gnu_cxx17__normal_iteratorIPKNSt7__cxx1112basic_stringIcSt11char_traitsIcESaIcEEESt6vectorIS6_SaIS6_EEE4baseEv = comdat any

$_ZNSt15__new_allocatorIN4cvc58internal12NodeTemplateILb1EEEED2Ev = comdat any

$_ZNSt12_Vector_baseIN4cvc58internal12NodeTemplateILb1EEESaIS3_EED2Ev = comdat any

$_ZNSt12_Vector_baseIN4cvc58internal12NodeTemplateILb1EEESaIS3_EE13_M_deallocateEPS3_m = comdat any

$_ZNSt12_Vector_baseIN4cvc58internal12NodeTemplateILb1EEESaIS3_EE12_Vector_implD2Ev = comdat any

$_ZNSt16allocator_traitsISaIN4cvc58internal12NodeTemplateILb1EEEEE10deallocateERS4_PS3_m = comdat any

$_ZNSt15__new_allocatorIN4cvc58internal12NodeTemplateILb1EEEE10deallocateEPS3_m = comdat any

$_ZNK4cvc58internal12NodeTemplateILb1EE21assertTNodeNotExpiredEv = comdat any

$_ZN9__gnu_cxxeqIPKjSt6vectorIjSaIjEEEEbRKNS_17__normal_iteratorIT_T0_EESB_ = comdat any

$_ZN9__gnu_cxxeqIPKN4cvc58internal12NodeTemplateILb1EEESt6vectorIS4_SaIS4_EEEEbRKNS_17__normal_iteratorIT_T0_EESF_ = comdat any

$_ZN9__gnu_cxx17__normal_iteratorIPKjSt6vectorIjSaIjEEEC2ERKS2_ = comdat any

$_ZN4cvc58internal12NodeTemplateILb1EEC2EPKNS0_4expr9NodeValueE = comdat any

$_ZNK4cvc58internal4expr9NodeValue8getChildEi = comdat any

$_ZN4cvc58internal12NodeTemplateILb0EEC2EPKNS0_4expr9NodeValueE = comdat any

$_ZNK4cvc58internal4expr9NodeValue11getMetaKindEv = comdat any

$_ZNK4cvc58internal4expr9NodeValue7getKindEv = comdat any

$_ZN4cvc58internal4expr9NodeValue11dKindToKindEj = comdat any

$_ZNK4cvc58internal4expr9NodeValue5getIdEv = comdat any

$_ZNK4cvc58internal12NodeTemplateILb1EE11getMetaKindEv = comdat any

$_ZNK4cvc58internal4expr9NodeValue14getNumChildrenEv = comdat any

$_ZNSt6vectorIN4cvc58internal12NodeTemplateILb1EEESaIS3_EE14_M_insert_rvalEN9__gnu_cxx17__normal_iteratorIPKS3_S5_EEOS3_ = comdat any

$_ZNKSt6vectorIN4cvc58internal12NodeTemplateILb1EEESaIS3_EE4cendEv = comdat any

$_ZNSt16allocator_traitsISaIN4cvc58internal12NodeTemplateILb1EEEEE9constructIS3_JS3_EEEvRS4_PT_DpOT0_ = comdat any

$_ZNSt6vectorIN4cvc58internal12NodeTemplateILb1EEESaIS3_EE13_M_insert_auxIS3_EEvN9__gnu_cxx17__normal_iteratorIPS3_S5_EEOT_ = comdat any

$_ZNSt6vectorIN4cvc58internal12NodeTemplateILb1EEESaIS3_EE17_M_realloc_insertIJS3_EEEvN9__gnu_cxx17__normal_iteratorIPS3_S5_EEDpOT_ = comdat any

$_ZNSt15__new_allocatorIN4cvc58internal12NodeTemplateILb1EEEE9constructIS3_JS3_EEEvPT_DpOT0_ = comdat any

$_ZSt13move_backwardIPN4cvc58internal12NodeTemplateILb1EEES4_ET0_T_S6_S5_ = comdat any

$_ZNK9__gnu_cxx17__normal_iteratorIPN4cvc58internal12NodeTemplateILb1EEESt6vectorIS4_SaIS4_EEEdeEv = comdat any

$_ZSt22__copy_move_backward_aILb1EPN4cvc58internal12NodeTemplateILb1EEES4_ET1_T0_S6_S5_ = comdat any

$_ZSt12__miter_baseIPN4cvc58internal12NodeTemplateILb1EEEET_S5_ = comdat any

$_ZSt12__niter_wrapIPN4cvc58internal12NodeTemplateILb1EEEET_RKS5_S5_ = comdat any

$_ZSt23__copy_move_backward_a1ILb1EPN4cvc58internal12NodeTemplateILb1EEES4_ET1_T0_S6_S5_ = comdat any

$_ZSt12__niter_baseIPN4cvc58internal12NodeTemplateILb1EEEET_S5_ = comdat any

$_ZSt23__copy_move_backward_a2ILb1EPN4cvc58internal12NodeTemplateILb1EEES4_ET1_T0_S6_S5_ = comdat any

$_ZNSt20__copy_move_backwardILb1ELb0ESt26random_access_iterator_tagE13__copy_move_bIPN4cvc58internal12NodeTemplateILb1EEES7_EET0_T_S9_S8_ = comdat any

$_ZNKSt6vectorIN4cvc58internal12NodeTemplateILb1EEESaIS3_EE12_M_check_lenEmPKc = comdat any

$_ZNSt12_Vector_baseIN4cvc58internal12NodeTemplateILb1EEESaIS3_EE11_M_allocateEm = comdat any

$_ZSt34__uninitialized_move_if_noexcept_aIPN4cvc58internal12NodeTemplateILb1EEES4_SaIS3_EET0_T_S7_S6_RT1_ = comdat any

$_ZNSt16allocator_traitsISaIN4cvc58internal12NodeTemplateILb1EEEEE7destroyIS3_EEvRS4_PT_ = comdat any

$_ZNKSt6vectorIN4cvc58internal12NodeTemplateILb1EEESaIS3_EE8max_sizeEv = comdat any

$_ZSt3maxImERKT_S2_S2_ = comdat any

$_ZNSt6vectorIN4cvc58internal12NodeTemplateILb1EEESaIS3_EE11_S_max_sizeERKS4_ = comdat any

$_ZNKSt12_Vector_baseIN4cvc58internal12NodeTemplateILb1EEESaIS3_EE19_M_get_Tp_allocatorEv = comdat any

$_ZNSt16allocator_traitsISaIN4cvc58internal12NodeTemplateILb1EEEEE8max_sizeERKS4_ = comdat any

$_ZSt3minImERKT_S2_S2_ = comdat any

$_ZNKSt15__new_allocatorIN4cvc58internal12NodeTemplateILb1EEEE8max_sizeEv = comdat any

$_ZNKSt15__new_allocatorIN4cvc58internal12NodeTemplateILb1EEEE11_M_max_sizeEv = comdat any

$_ZNSt16allocator_traitsISaIN4cvc58internal12NodeTemplateILb1EEEEE8allocateERS4_m = comdat any

$_ZNSt15__new_allocatorIN4cvc58internal12NodeTemplateILb1EEEE8allocateEmPKv = comdat any

$_ZSt22__uninitialized_copy_aIPKN4cvc58internal12NodeTemplateILb1EEEPS3_S3_ET0_T_S8_S7_RSaIT1_E = comdat any

$_ZSt32__make_move_if_noexcept_iteratorIN4cvc58internal12NodeTemplateILb1EEEPKS3_ET0_PT_ = comdat any

$_ZSt18uninitialized_copyIPKN4cvc58internal12NodeTemplateILb1EEEPS3_ET0_T_S8_S7_ = comdat any

$_ZNSt20__uninitialized_copyILb0EE13__uninit_copyIPKN4cvc58internal12NodeTemplateILb1EEEPS5_EET0_T_SA_S9_ = comdat any

$_ZSt16__do_uninit_copyIPKN4cvc58internal12NodeTemplateILb1EEEPS3_ET0_T_S8_S7_ = comdat any

$_ZSt10_ConstructIN4cvc58internal12NodeTemplateILb1EEEJRKS3_EEvPT_DpOT0_ = comdat any

$_ZNSt15__new_allocatorIN4cvc58internal12NodeTemplateILb1EEEE7destroyIS3_EEvPT_ = comdat any

$_ZNK4cvc58internal4expr9NodeValue5beginINS0_12NodeTemplateILb0EEEEENS2_8iteratorIT_EEv = comdat any

$_ZN4cvc58internal4expr9NodeValue8iteratorINS0_12NodeTemplateILb0EEEEC2EPKPKS2_ = comdat any

$_ZNK4cvc58internal4expr9NodeValue3endINS0_12NodeTemplateILb0EEEEENS2_8iteratorIT_EEv = comdat any

$_ZSt8_DestroyIPSt5tupleIJN4cvc58internal12NodeTemplateILb0EEEmiEES5_EvT_S7_RSaIT0_E = comdat any

$_ZNSt12_Vector_baseISt5tupleIJN4cvc58internal12NodeTemplateILb0EEEmiEESaIS5_EE19_M_get_Tp_allocatorEv = comdat any

$_ZNSt12_Vector_baseISt5tupleIJN4cvc58internal12NodeTemplateILb0EEEmiEESaIS5_EED2Ev = comdat any

$_ZSt8_DestroyIPSt5tupleIJN4cvc58internal12NodeTemplateILb0EEEmiEEEvT_S7_ = comdat any

$_ZNSt12_Destroy_auxILb0EE9__destroyIPSt5tupleIJN4cvc58internal12NodeTemplateILb0EEEmiEEEEvT_S9_ = comdat any

$_ZSt8_DestroyISt5tupleIJN4cvc58internal12NodeTemplateILb0EEEmiEEEvPT_ = comdat any

$_ZNSt5tupleIJN4cvc58internal12NodeTemplateILb0EEEmiEED2Ev = comdat any

$_ZNSt11_Tuple_implILm0EJN4cvc58internal12NodeTemplateILb0EEEmiEED2Ev = comdat any

$_ZNSt10_Head_baseILm0EN4cvc58internal12NodeTemplateILb0EEELb0EED2Ev = comdat any

$_ZNSt12_Vector_baseISt5tupleIJN4cvc58internal12NodeTemplateILb0EEEmiEESaIS5_EE13_M_deallocateEPS5_m = comdat any

$_ZNSt12_Vector_baseISt5tupleIJN4cvc58internal12NodeTemplateILb0EEEmiEESaIS5_EE12_Vector_implD2Ev = comdat any

$_ZNSt16allocator_traitsISaISt5tupleIJN4cvc58internal12NodeTemplateILb0EEEmiEEEE10deallocateERS6_PS5_m = comdat any

$_ZNSt15__new_allocatorISt5tupleIJN4cvc58internal12NodeTemplateILb0EEEmiEEE10deallocateEPS5_m = comdat any

$_ZNSaISt5tupleIJN4cvc58internal12NodeTemplateILb0EEEmiEEED2Ev = comdat any

$_ZNSt15__new_allocatorISt5tupleIJN4cvc58internal12NodeTemplateILb0EEEmiEEED2Ev = comdat any

$_ZNSt16allocator_traitsISaISt5tupleIJN4cvc58internal12NodeTemplateILb0EEEmiEEEE9constructIS5_JRS4_iRiEEEvRS6_PT_DpOT0_ = comdat any

$_ZNSt6vectorISt5tupleIJN4cvc58internal12NodeTemplateILb0EEEmiEESaIS5_EE17_M_realloc_insertIJRS4_iRiEEEvN9__gnu_cxx17__normal_iteratorIPS5_S7_EEDpOT_ = comdat any

$_ZNSt6vectorISt5tupleIJN4cvc58internal12NodeTemplateILb0EEEmiEESaIS5_EE3endEv = comdat any

$_ZNSt15__new_allocatorISt5tupleIJN4cvc58internal12NodeTemplateILb0EEEmiEEE9constructIS5_JRS4_iRiEEEvPT_DpOT0_ = comdat any

$_ZNSt5tupleIJN4cvc58internal12NodeTemplateILb0EEEmiEEC2IJRS3_iRiELb1ETnNSt9enable_ifIXclsr4_TCCIXT0_EEE29__is_implicitly_constructibleIDpT_EEEbE4typeELb1EEEDpOS9_ = comdat any

$_ZNSt11_Tuple_implILm0EJN4cvc58internal12NodeTemplateILb0EEEmiEEC2IRS3_JiRiEvEEOT_DpOT0_ = comdat any

$_ZNSt11_Tuple_implILm1EJmiEEC2IiJRiEvEEOT_DpOT0_ = comdat any

$_ZNSt10_Head_baseILm0EN4cvc58internal12NodeTemplateILb0EEELb0EEC2IRS3_EEOT_ = comdat any

$_ZNSt11_Tuple_implILm2EJiEEC2IRiEEOT_ = comdat any

$_ZNSt10_Head_baseILm1EmLb0EEC2IiEEOT_ = comdat any

$_ZNSt10_Head_baseILm2EiLb0EEC2IRiEEOT_ = comdat any

$_ZNKSt6vectorISt5tupleIJN4cvc58internal12NodeTemplateILb0EEEmiEESaIS5_EE12_M_check_lenEmPKc = comdat any

$_ZN9__gnu_cxxmiIPSt5tupleIJN4cvc58internal12NodeTemplateILb0EEEmiEESt6vectorIS6_SaIS6_EEEENS_17__normal_iteratorIT_T0_E15difference_typeERKSE_SH_ = comdat any

$_ZNSt6vectorISt5tupleIJN4cvc58internal12NodeTemplateILb0EEEmiEESaIS5_EE5beginEv = comdat any

$_ZNSt12_Vector_baseISt5tupleIJN4cvc58internal12NodeTemplateILb0EEEmiEESaIS5_EE11_M_allocateEm = comdat any

$_ZSt34__uninitialized_move_if_noexcept_aIPSt5tupleIJN4cvc58internal12NodeTemplateILb0EEEmiEES6_SaIS5_EET0_T_S9_S8_RT1_ = comdat any

$_ZNK9__gnu_cxx17__normal_iteratorIPSt5tupleIJN4cvc58internal12NodeTemplateILb0EEEmiEESt6vectorIS6_SaIS6_EEE4baseEv = comdat any

$_ZNSt16allocator_traitsISaISt5tupleIJN4cvc58internal12NodeTemplateILb0EEEmiEEEE7destroyIS5_EEvRS6_PT_ = comdat any

$_ZNKSt6vectorISt5tupleIJN4cvc58internal12NodeTemplateILb0EEEmiEESaIS5_EE8max_sizeEv = comdat any

$_ZNKSt6vectorISt5tupleIJN4cvc58internal12NodeTemplateILb0EEEmiEESaIS5_EE4sizeEv = comdat any

$_ZNSt6vectorISt5tupleIJN4cvc58internal12NodeTemplateILb0EEEmiEESaIS5_EE11_S_max_sizeERKS6_ = comdat any

$_ZNKSt12_Vector_baseISt5tupleIJN4cvc58internal12NodeTemplateILb0EEEmiEESaIS5_EE19_M_get_Tp_allocatorEv = comdat any

$_ZNSt16allocator_traitsISaISt5tupleIJN4cvc58internal12NodeTemplateILb0EEEmiEEEE8max_sizeERKS6_ = comdat any

$_ZNKSt15__new_allocatorISt5tupleIJN4cvc58internal12NodeTemplateILb0EEEmiEEE8max_sizeEv = comdat any

$_ZNKSt15__new_allocatorISt5tupleIJN4cvc58internal12NodeTemplateILb0EEEmiEEE11_M_max_sizeEv = comdat any

$_ZN9__gnu_cxx17__normal_iteratorIPSt5tupleIJN4cvc58internal12NodeTemplateILb0EEEmiEESt6vectorIS6_SaIS6_EEEC2ERKS7_ = comdat any

$_ZNSt16allocator_traitsISaISt5tupleIJN4cvc58internal12NodeTemplateILb0EEEmiEEEE8allocateERS6_m = comdat any

$_ZNSt15__new_allocatorISt5tupleIJN4cvc58internal12NodeTemplateILb0EEEmiEEE8allocateEmPKv = comdat any

$_ZSt22__uninitialized_copy_aIPKSt5tupleIJN4cvc58internal12NodeTemplateILb0EEEmiEEPS5_S5_ET0_T_SA_S9_RSaIT1_E = comdat any

$_ZSt32__make_move_if_noexcept_iteratorISt5tupleIJN4cvc58internal12NodeTemplateILb0EEEmiEEPKS5_ET0_PT_ = comdat any

$_ZSt18uninitialized_copyIPKSt5tupleIJN4cvc58internal12NodeTemplateILb0EEEmiEEPS5_ET0_T_SA_S9_ = comdat any

$_ZNSt20__uninitialized_copyILb0EE13__uninit_copyIPKSt5tupleIJN4cvc58internal12NodeTemplateILb0EEEmiEEPS7_EET0_T_SC_SB_ = comdat any

$_ZSt16__do_uninit_copyIPKSt5tupleIJN4cvc58internal12NodeTemplateILb0EEEmiEEPS5_ET0_T_SA_S9_ = comdat any

$_ZSt10_ConstructISt5tupleIJN4cvc58internal12NodeTemplateILb0EEEmiEEJRKS5_EEvPT_DpOT0_ = comdat any

$_ZNSt5tupleIJN4cvc58internal12NodeTemplateILb0EEEmiEEC2ERKS4_ = comdat any

$_ZNSt11_Tuple_implILm0EJN4cvc58internal12NodeTemplateILb0EEEmiEEC2ERKS4_ = comdat any

$_ZNSt10_Head_baseILm0EN4cvc58internal12NodeTemplateILb0EEELb0EEC2ERKS4_ = comdat any

$_ZNSt15__new_allocatorISt5tupleIJN4cvc58internal12NodeTemplateILb0EEEmiEEE7destroyIS5_EEvPT_ = comdat any

$_ZNK9__gnu_cxx17__normal_iteratorIPSt5tupleIJN4cvc58internal12NodeTemplateILb0EEEmiEESt6vectorIS6_SaIS6_EEEmiEl = comdat any

$_ZNK9__gnu_cxx17__normal_iteratorIPSt5tupleIJN4cvc58internal12NodeTemplateILb0EEEmiEESt6vectorIS6_SaIS6_EEEdeEv = comdat any

$_ZNSt16allocator_traitsISaISt5tupleIJN4cvc58internal12NodeTemplateILb0EEEmiEEEE9constructIS5_JS4_iiEEEvRS6_PT_DpOT0_ = comdat any

$_ZNSt6vectorISt5tupleIJN4cvc58internal12NodeTemplateILb0EEEmiEESaIS5_EE17_M_realloc_insertIJS4_iiEEEvN9__gnu_cxx17__normal_iteratorIPS5_S7_EEDpOT_ = comdat any

$_ZNSt15__new_allocatorISt5tupleIJN4cvc58internal12NodeTemplateILb0EEEmiEEE9constructIS5_JS4_iiEEEvPT_DpOT0_ = comdat any

$_ZNSt5tupleIJN4cvc58internal12NodeTemplateILb0EEEmiEEC2IJS3_iiELb1ETnNSt9enable_ifIXclsr4_TCCIXT0_EEE29__is_implicitly_constructibleIDpT_EEEbE4typeELb1EEEDpOS7_ = comdat any

$_ZNSt11_Tuple_implILm0EJN4cvc58internal12NodeTemplateILb0EEEmiEEC2IS3_JiiEvEEOT_DpOT0_ = comdat any

$_ZNSt11_Tuple_implILm1EJmiEEC2IiJiEvEEOT_DpOT0_ = comdat any

$_ZNSt10_Head_baseILm0EN4cvc58internal12NodeTemplateILb0EEELb0EEC2IS3_EEOT_ = comdat any

$_ZNSt11_Tuple_implILm2EJiEEC2IiEEOT_ = comdat any

$_ZNSt10_Head_baseILm2EiLb0EEC2IiEEOT_ = comdat any

$_ZN9__gnu_cxxeqIPKSt5tupleIJN4cvc58internal12NodeTemplateILb0EEEmiEESt6vectorIS6_SaIS6_EEEEbRKNS_17__normal_iteratorIT_T0_EESH_ = comdat any

$_ZNKSt6vectorISt5tupleIJN4cvc58internal12NodeTemplateILb0EEEmiEESaIS5_EE5beginEv = comdat any

$_ZNKSt6vectorISt5tupleIJN4cvc58internal12NodeTemplateILb0EEEmiEESaIS5_EE3endEv = comdat any

$_ZNK9__gnu_cxx17__normal_iteratorIPKSt5tupleIJN4cvc58internal12NodeTemplateILb0EEEmiEESt6vectorIS6_SaIS6_EEE4baseEv = comdat any

$_ZN9__gnu_cxx17__normal_iteratorIPKSt5tupleIJN4cvc58internal12NodeTemplateILb0EEEmiEESt6vectorIS6_SaIS6_EEEC2ERKS8_ = comdat any

$_ZN9__gnu_cxxeqIPKN4cvc58internal8TypeNodeESt6vectorIS3_SaIS3_EEEEbRKNS_17__normal_iteratorIT_T0_EESE_ = comdat any

$_ZNK9__gnu_cxx17__normal_iteratorIPKN4cvc58internal8TypeNodeESt6vectorIS3_SaIS3_EEE4baseEv = comdat any

$_ZN9__gnu_cxx17__normal_iteratorIPKN4cvc58internal8TypeNodeESt6vectorIS3_SaIS3_EEEC2ERKS5_ = comdat any

$_ZSt13__copy_move_aILb0EN9__gnu_cxx17__normal_iteratorIPKN4cvc58internal8TypeNodeESt6vectorIS4_SaIS4_EEEESt16ostream_iteratorIS4_cSt11char_traitsIcEEET1_T0_SG_SF_ = comdat any

$_ZSt12__miter_baseIN9__gnu_cxx17__normal_iteratorIPKN4cvc58internal8TypeNodeESt6vectorIS4_SaIS4_EEEEET_SB_ = comdat any

$_ZNSt16ostream_iteratorIN4cvc58internal8TypeNodeEcSt11char_traitsIcEEC2ERKS5_ = comdat any

$_ZSt12__niter_wrapISt16ostream_iteratorIN4cvc58internal8TypeNodeEcSt11char_traitsIcEEET_RKS7_S7_ = comdat any

$_ZSt14__copy_move_a1ILb0EPKN4cvc58internal8TypeNodeESt16ostream_iteratorIS2_cSt11char_traitsIcEEET1_T0_SA_S9_ = comdat any

$_ZSt12__niter_baseIPKN4cvc58internal8TypeNodeESt6vectorIS2_SaIS2_EEET_N9__gnu_cxx17__normal_iteratorIS8_T0_EE = comdat any

$_ZSt12__niter_baseISt16ostream_iteratorIN4cvc58internal8TypeNodeEcSt11char_traitsIcEEET_S7_ = comdat any

$_ZSt14__copy_move_a2ILb0EPKN4cvc58internal8TypeNodeESt16ostream_iteratorIS2_cSt11char_traitsIcEEET1_T0_SA_S9_ = comdat any

$_ZNSt11__copy_moveILb0ELb0ESt26random_access_iterator_tagE8__copy_mIPKN4cvc58internal8TypeNodeESt16ostream_iteratorIS5_cSt11char_traitsIcEEEET0_T_SD_SC_ = comdat any

$_ZNSt16ostream_iteratorIN4cvc58internal8TypeNodeEcSt11char_traitsIcEEdeEv = comdat any

$_ZNSt16ostream_iteratorIN4cvc58internal8TypeNodeEcSt11char_traitsIcEEaSERKS2_ = comdat any

$_ZNSt16ostream_iteratorIN4cvc58internal8TypeNodeEcSt11char_traitsIcEEppEv = comdat any

$_ZSt13__copy_move_aILb0EN9__gnu_cxx17__normal_iteratorIPKN4cvc58internal12NodeTemplateILb1EEESt6vectorIS5_SaIS5_EEEESt16ostream_iteratorIS5_cSt11char_traitsIcEEET1_T0_SH_SG_ = comdat any

$_ZSt12__miter_baseIN9__gnu_cxx17__normal_iteratorIPKN4cvc58internal12NodeTemplateILb1EEESt6vectorIS5_SaIS5_EEEEET_SC_ = comdat any

$_ZNSt16ostream_iteratorIN4cvc58internal12NodeTemplateILb1EEEcSt11char_traitsIcEEC2ERKS6_ = comdat any

$_ZSt12__niter_wrapISt16ostream_iteratorIN4cvc58internal12NodeTemplateILb1EEEcSt11char_traitsIcEEET_RKS8_S8_ = comdat any

$_ZSt14__copy_move_a1ILb0EPKN4cvc58internal12NodeTemplateILb1EEESt16ostream_iteratorIS3_cSt11char_traitsIcEEET1_T0_SB_SA_ = comdat any

$_ZSt12__niter_baseIPKN4cvc58internal12NodeTemplateILb1EEESt6vectorIS3_SaIS3_EEET_N9__gnu_cxx17__normal_iteratorIS9_T0_EE = comdat any

$_ZSt12__niter_baseISt16ostream_iteratorIN4cvc58internal12NodeTemplateILb1EEEcSt11char_traitsIcEEET_S8_ = comdat any

$_ZSt14__copy_move_a2ILb0EPKN4cvc58internal12NodeTemplateILb1EEESt16ostream_iteratorIS3_cSt11char_traitsIcEEET1_T0_SB_SA_ = comdat any

$_ZNSt11__copy_moveILb0ELb0ESt26random_access_iterator_tagE8__copy_mIPKN4cvc58internal12NodeTemplateILb1EEESt16ostream_iteratorIS6_cSt11char_traitsIcEEEET0_T_SE_SD_ = comdat any

$_ZNSt16ostream_iteratorIN4cvc58internal12NodeTemplateILb1EEEcSt11char_traitsIcEEdeEv = comdat any

$_ZNSt16ostream_iteratorIN4cvc58internal12NodeTemplateILb1EEEcSt11char_traitsIcEEaSERKS3_ = comdat any

$_ZNSt16ostream_iteratorIN4cvc58internal12NodeTemplateILb1EEEcSt11char_traitsIcEEppEv = comdat any

$_ZNSt12_Vector_baseIN4cvc58internal12NodeTemplateILb1EEESaIS3_EEC2ERKS4_ = comdat any

$_ZNSt6vectorIN4cvc58internal12NodeTemplateILb1EEESaIS3_EE19_M_range_initializeIPKS3_EEvT_S9_St20forward_iterator_tag = comdat any

$_ZNKSt16initializer_listIN4cvc58internal12NodeTemplateILb1EEEE5beginEv = comdat any

$_ZNKSt16initializer_listIN4cvc58internal12NodeTemplateILb1EEEE3endEv = comdat any

$_ZNSt12_Vector_baseIN4cvc58internal12NodeTemplateILb1EEESaIS3_EE12_Vector_implC2ERKS4_ = comdat any

$_ZNSt15__new_allocatorIN4cvc58internal12NodeTemplateILb1EEEEC2ERKS4_ = comdat any

$_ZSt8distanceIPKN4cvc58internal12NodeTemplateILb1EEEENSt15iterator_traitsIT_E15difference_typeES7_S7_ = comdat any

$_ZNSt6vectorIN4cvc58internal12NodeTemplateILb1EEESaIS3_EE17_S_check_init_lenEmRKS4_ = comdat any

$_ZSt10__distanceIPKN4cvc58internal12NodeTemplateILb1EEEENSt15iterator_traitsIT_E15difference_typeES7_S7_St26random_access_iterator_tag = comdat any

$_ZSt19__iterator_categoryIPKN4cvc58internal12NodeTemplateILb1EEEENSt15iterator_traitsIT_E17iterator_categoryERKS7_ = comdat any

$_ZNSaIN4cvc58internal12NodeTemplateILb1EEEEC2ERKS3_ = comdat any

$_ZNKSt16initializer_listIN4cvc58internal12NodeTemplateILb1EEEE4sizeEv = comdat any

$_ZNSt8_Rb_treeIN4cvc58internal8TypeNodeES2_St9_IdentityIS2_ESt4lessIS2_ESaIS2_EE16_M_insert_uniqueIRKS2_EESt4pairISt17_Rb_tree_iteratorIS2_EbEOT_ = comdat any

$_ZNSt4pairISt23_Rb_tree_const_iteratorIN4cvc58internal8TypeNodeEEbEC2IRSt17_Rb_tree_iteratorIS3_ERbTnNSt9enable_ifIXaaclsr5_PCCPE22_MoveConstructiblePairIT_T0_EEclsr5_PCCPE30_ImplicitlyMoveConvertiblePairISC_SD_EEEbE4typeELb1EEEOSC_OSD_ = comdat any

$_ZNSt8_Rb_treeIN4cvc58internal8TypeNodeES2_St9_IdentityIS2_ESt4lessIS2_ESaIS2_EE24_M_get_insert_unique_posERKS2_ = comdat any

$_ZNKSt9_IdentityIN4cvc58internal8TypeNodeEEclERKS2_ = comdat any

$_ZNSt8_Rb_treeIN4cvc58internal8TypeNodeES2_St9_IdentityIS2_ESt4lessIS2_ESaIS2_EE11_Alloc_nodeC2ERS8_ = comdat any

$_ZNSt8_Rb_treeIN4cvc58internal8TypeNodeES2_St9_IdentityIS2_ESt4lessIS2_ESaIS2_EE10_M_insert_IRKS2_NS8_11_Alloc_nodeEEESt17_Rb_tree_iteratorIS2_EPSt18_Rb_tree_node_baseSG_OT_RT0_ = comdat any

$_ZNSt4pairISt17_Rb_tree_iteratorIN4cvc58internal8TypeNodeEEbEC2IS4_bTnNSt9enable_ifIXaaclsr5_PCCPE22_MoveConstructiblePairIT_T0_EEclsr5_PCCPE30_ImplicitlyMoveConvertiblePairIS8_S9_EEEbE4typeELb1EEEOS8_OS9_ = comdat any

$_ZNSt17_Rb_tree_iteratorIN4cvc58internal8TypeNodeEEC2EPSt18_Rb_tree_node_base = comdat any

$_ZNSt8_Rb_treeIN4cvc58internal8TypeNodeES2_St9_IdentityIS2_ESt4lessIS2_ESaIS2_EE6_M_endEv = comdat any

$_ZNKSt4lessIN4cvc58internal8TypeNodeEEclERKS2_S5_ = comdat any

$_ZNSt8_Rb_treeIN4cvc58internal8TypeNodeES2_St9_IdentityIS2_ESt4lessIS2_ESaIS2_EE6_S_keyEPKSt13_Rb_tree_nodeIS2_E = comdat any

$_ZSteqRKSt17_Rb_tree_iteratorIN4cvc58internal8TypeNodeEES5_ = comdat any

$_ZNSt8_Rb_treeIN4cvc58internal8TypeNodeES2_St9_IdentityIS2_ESt4lessIS2_ESaIS2_EE5beginEv = comdat any

$_ZNSt4pairIPSt18_Rb_tree_node_baseS1_EC2IRPSt13_Rb_tree_nodeIN4cvc58internal8TypeNodeEERS1_TnNSt9enable_ifIXaaclsr5_PCCPE22_MoveConstructiblePairIT_T0_EEclsr5_PCCPE30_ImplicitlyMoveConvertiblePairISD_SE_EEEbE4typeELb1EEEOSD_OSE_ = comdat any

$_ZNSt17_Rb_tree_iteratorIN4cvc58internal8TypeNodeEEmmEv = comdat any

$_ZNSt8_Rb_treeIN4cvc58internal8TypeNodeES2_St9_IdentityIS2_ESt4lessIS2_ESaIS2_EE6_S_keyEPKSt18_Rb_tree_node_base = comdat any

$_ZNSt4pairIPSt18_Rb_tree_node_baseS1_EC2IS1_S1_TnNSt9enable_ifIXaaclsr5_PCCPE18_ConstructiblePairIT_T0_EEclsr5_PCCPE26_ImplicitlyConvertiblePairIS5_S6_EEEbE4typeELb1EEERKS1_SA_ = comdat any

$_ZNK4cvc58internal8TypeNodeltERKS1_ = comdat any

$_ZNKSt13_Rb_tree_nodeIN4cvc58internal8TypeNodeEE9_M_valptrEv = comdat any

$_ZNK9__gnu_cxx16__aligned_membufIN4cvc58internal8TypeNodeEE6_M_ptrEv = comdat any

$_ZNK9__gnu_cxx16__aligned_membufIN4cvc58internal8TypeNodeEE7_M_addrEv = comdat any

$_ZNKSt8_Rb_treeIN4cvc58internal8TypeNodeES2_St9_IdentityIS2_ESt4lessIS2_ESaIS2_EE11_Alloc_nodeclIRKS2_EEPSt13_Rb_tree_nodeIS2_EOT_ = comdat any

$_ZNSt8_Rb_treeIN4cvc58internal8TypeNodeES2_St9_IdentityIS2_ESt4lessIS2_ESaIS2_EE14_M_create_nodeIJRKS2_EEEPSt13_Rb_tree_nodeIS2_EDpOT_ = comdat any

$_ZNSt8_Rb_treeIN4cvc58internal8TypeNodeES2_St9_IdentityIS2_ESt4lessIS2_ESaIS2_EE11_M_get_nodeEv = comdat any

$_ZNSt8_Rb_treeIN4cvc58internal8TypeNodeES2_St9_IdentityIS2_ESt4lessIS2_ESaIS2_EE17_M_construct_nodeIJRKS2_EEEvPSt13_Rb_tree_nodeIS2_EDpOT_ = comdat any

$_ZNSt16allocator_traitsISaISt13_Rb_tree_nodeIN4cvc58internal8TypeNodeEEEE8allocateERS5_m = comdat any

$_ZNSt15__new_allocatorISt13_Rb_tree_nodeIN4cvc58internal8TypeNodeEEE8allocateEmPKv = comdat any

$_ZNKSt15__new_allocatorISt13_Rb_tree_nodeIN4cvc58internal8TypeNodeEEE11_M_max_sizeEv = comdat any

$_ZNSt16allocator_traitsISaISt13_Rb_tree_nodeIN4cvc58internal8TypeNodeEEEE9constructIS3_JRKS3_EEEvRS5_PT_DpOT0_ = comdat any

$_ZNSt15__new_allocatorISt13_Rb_tree_nodeIN4cvc58internal8TypeNodeEEE9constructIS3_JRKS3_EEEvPT_DpOT0_ = comdat any

$_ZNSt23_Rb_tree_const_iteratorIN4cvc58internal8TypeNodeEEC2ERKSt17_Rb_tree_iteratorIS2_E = comdat any

$_ZNSt7__cxx114listIN4cvc58internal8TypeNodeESaIS3_EE9_M_insertIJRKS3_EEEvSt14_List_iteratorIS3_EDpOT_ = comdat any

$_ZNSt7__cxx114listIN4cvc58internal8TypeNodeESaIS3_EE3endEv = comdat any

$_ZNSt7__cxx114listIN4cvc58internal8TypeNodeESaIS3_EE14_M_create_nodeIJRKS3_EEEPSt10_List_nodeIS3_EDpOT_ = comdat any

$_ZNSt7__cxx1110_List_baseIN4cvc58internal8TypeNodeESaIS3_EE11_M_inc_sizeEm = comdat any

$_ZNSt7__cxx1110_List_baseIN4cvc58internal8TypeNodeESaIS3_EE11_M_get_nodeEv = comdat any

$_ZNSt15__allocated_ptrISaISt10_List_nodeIN4cvc58internal8TypeNodeEEEEC2ERS5_PS4_ = comdat any

$_ZNSt16allocator_traitsISaISt10_List_nodeIN4cvc58internal8TypeNodeEEEE9constructIS3_JRKS3_EEEvRS5_PT_DpOT0_ = comdat any

$_ZNSt15__allocated_ptrISaISt10_List_nodeIN4cvc58internal8TypeNodeEEEEaSEDn = comdat any

$_ZNSt15__allocated_ptrISaISt10_List_nodeIN4cvc58internal8TypeNodeEEEED2Ev = comdat any

$_ZNSt16allocator_traitsISaISt10_List_nodeIN4cvc58internal8TypeNodeEEEE8allocateERS5_m = comdat any

$_ZNSt15__new_allocatorISt10_List_nodeIN4cvc58internal8TypeNodeEEE8allocateEmPKv = comdat any

$_ZNKSt15__new_allocatorISt10_List_nodeIN4cvc58internal8TypeNodeEEE11_M_max_sizeEv = comdat any

$_ZNSt15__new_allocatorISt10_List_nodeIN4cvc58internal8TypeNodeEEE9constructIS3_JRKS3_EEEvPT_DpOT0_ = comdat any

$_ZNSt14_List_iteratorIN4cvc58internal8TypeNodeEEC2EPNSt8__detail15_List_node_baseE = comdat any

$_ZNSt7__cxx114listIN4cvc58internal8TypeNodeESaIS3_EE5beginEv = comdat any

$_ZNKSt14_List_iteratorIN4cvc58internal8TypeNodeEEdeEv = comdat any

$_ZNSt7__cxx114listIN4cvc58internal8TypeNodeESaIS3_EE8_M_eraseESt14_List_iteratorIS3_E = comdat any

$_ZNSt7__cxx1110_List_baseIN4cvc58internal8TypeNodeESaIS3_EE11_M_dec_sizeEm = comdat any

$_ZNSt6vectorIN4cvc58internal12NodeTemplateILb1EEESaIS3_EE12emplace_backIJS3_EEERS3_DpOT_ = comdat any

$_ZNSt6vectorIN4cvc58internal12NodeTemplateILb1EEESaIS3_EE4backEv = comdat any

$_ZNK9__gnu_cxx17__normal_iteratorIPN4cvc58internal12NodeTemplateILb1EEESt6vectorIS4_SaIS4_EEEmiEl = comdat any

$_ZNSt16allocator_traitsISaIN4cvc58internal12NodeTemplateILb1EEEEE9constructIS3_JRKS3_EEEvRS4_PT_DpOT0_ = comdat any

$_ZNSt6vectorIN4cvc58internal12NodeTemplateILb1EEESaIS3_EE17_M_realloc_insertIJRKS3_EEEvN9__gnu_cxx17__normal_iteratorIPS3_S5_EEDpOT_ = comdat any

$_ZNSt15__new_allocatorIN4cvc58internal12NodeTemplateILb1EEEE9constructIS3_JRKS3_EEEvPT_DpOT0_ = comdat any

$_ZN4cvc58internal11NodeBuilder6appendILb1EEERS1_RKSt6vectorINS0_12NodeTemplateIXT_EEESaIS6_EE = comdat any

$_ZN4cvc58internal11NodeBuilder6appendIN9__gnu_cxx17__normal_iteratorIPKNS0_12NodeTemplateILb1EEESt6vectorIS6_SaIS6_EEEEEERS1_RKT_SG_ = comdat any

$_ZTVN4cvc57context9CDHashMapINS_8internal12NodeTemplateILb1EEEjSt4hashIS4_EEE = comdat any

$_ZTSN4cvc57context9CDHashMapINS_8internal12NodeTemplateILb1EEEjSt4hashIS4_EEE = comdat any

$_ZTSN4cvc57context10ContextObjE = comdat any

$_ZTIN4cvc57context10ContextObjE = comdat any

$_ZTIN4cvc57context9CDHashMapINS_8internal12NodeTemplateILb1EEEjSt4hashIS4_EEE = comdat any

$_ZTVN4cvc57context6CDListINS_8internal12NodeTemplateILb1EEENS0_14DefaultCleanUpIS4_EESaIS4_EEE = comdat any

$_ZTSN4cvc57context6CDListINS_8internal12NodeTemplateILb1EEENS0_14DefaultCleanUpIS4_EESaIS4_EEE = comdat any

$_ZTIN4cvc57context6CDListINS_8internal12NodeTemplateILb1EEENS0_14DefaultCleanUpIS4_EESaIS4_EEE = comdat any

$_ZTVN4cvc57context10ContextObjE = comdat any

$_ZZN4cvc58internal4expr9NodeValue4nullEvE6s_null = comdat any

$_ZGVZN4cvc58internal4expr9NodeValue4nullEvE6s_null = comdat any

@_ZStL8__ioinit = internal global %"class.std::ios_base::Init" zeroinitializer, align 1
@__dso_handle = external hidden global i8
@.str = private unnamed_addr constant [6 x i8] c"_let_\00", align 1
@.str.1 = private unnamed_addr constant [8 x i8] c"(let ((\00", align 1
@.str.2 = private unnamed_addr constant [2 x i8] c" \00", align 1
@.str.3 = private unnamed_addr constant [4 x i8] c")) \00", align 1
@.str.4 = private unnamed_addr constant [2 x i8] c")\00", align 1
@.str.5 = private unnamed_addr constant [5 x i8] c"null\00", align 1
@.str.6 = private unnamed_addr constant [5 x i8] c"Bool\00", align 1
@.str.7 = private unnamed_addr constant [5 x i8] c"Real\00", align 1
@.str.8 = private unnamed_addr constant [4 x i8] c"Int\00", align 1
@.str.9 = private unnamed_addr constant [7 x i8] c"String\00", align 1
@.str.10 = private unnamed_addr constant [7 x i8] c"RegLan\00", align 1
@.str.11 = private unnamed_addr constant [13 x i8] c"RoundingMode\00", align 1
@.str.12 = private unnamed_addr constant [2 x i8] c"?\00", align 1
@.str.13 = private unnamed_addr constant [11 x i8] c"(_ BitVec \00", align 1
@.str.14 = private unnamed_addr constant [16 x i8] c"(_ FiniteField \00", align 1
@.str.15 = private unnamed_addr constant [18 x i8] c"(_ FloatingPoint \00", align 1
@.str.16 = private unnamed_addr constant [6 x i8] c"(_ bv\00", align 1
@.str.17 = private unnamed_addr constant [3 x i8] c"#b\00", align 1
@.str.18 = private unnamed_addr constant [3 x i8] c"#f\00", align 1
@.str.19 = private unnamed_addr constant [2 x i8] c"m\00", align 1
@.str.20 = private unnamed_addr constant [23 x i8] c"roundNearestTiesToEven\00", align 1
@.str.21 = private unnamed_addr constant [23 x i8] c"roundNearestTiesToAway\00", align 1
@.str.22 = private unnamed_addr constant [20 x i8] c"roundTowardPositive\00", align 1
@.str.23 = private unnamed_addr constant [20 x i8] c"roundTowardNegative\00", align 1
@.str.24 = private unnamed_addr constant [16 x i8] c"roundTowardZero\00", align 1
@__PRETTY_FUNCTION__._ZNK4cvc58internal7printer4smt211Smt2Printer12toStreamBaseERSoNS0_12NodeTemplateILb0EEEPKNS0_10LetBindingEi = private unnamed_addr constant [116 x i8] c"bool cvc5::internal::printer::smt2::Smt2Printer::toStreamBase(std::ostream &, TNode, const LetBinding *, int) const\00", align 1
@.str.25 = private unnamed_addr constant [121 x i8] c"generated/home/dtcxzyw/WorkSpace/Projects/compilers/llvm-opt-benchmark/bench/cvc5/cvc5/src/printer/smt2/smt2_printer.cpp\00", align 1
@.str.26 = private unnamed_addr constant [26 x i8] c"Unreachable code reached \00", align 1
@.str.27 = private unnamed_addr constant [42 x i8] c"Invalid value of rounding mode constant (\00", align 1
@.str.28 = private unnamed_addr constant [5 x i8] c"true\00", align 1
@.str.29 = private unnamed_addr constant [6 x i8] c"false\00", align 1
@.str.30 = private unnamed_addr constant [3 x i8] c"\22\22\00", align 1
@.str.31 = private unnamed_addr constant [15 x i8] c"(as seq.empty \00", align 1
@.str.32 = private unnamed_addr constant [12 x i8] c"((as const \00", align 1
@.str.33 = private unnamed_addr constant [3 x i8] c") \00", align 1
@.str.34 = private unnamed_addr constant [5 x i8] c"(as \00", align 1
@.str.35 = private unnamed_addr constant [14 x i8] c"(_ divisible \00", align 1
@.str.36 = private unnamed_addr constant [15 x i8] c"(as set.empty \00", align 1
@.str.37 = private unnamed_addr constant [15 x i8] c"(as bag.empty \00", align 1
@.str.38 = private unnamed_addr constant [12 x i8] c"(_ extract \00", align 1
@.str.39 = private unnamed_addr constant [11 x i8] c"(_ repeat \00", align 1
@.str.40 = private unnamed_addr constant [16 x i8] c"(_ zero_extend \00", align 1
@.str.41 = private unnamed_addr constant [16 x i8] c"(_ sign_extend \00", align 1
@.str.42 = private unnamed_addr constant [16 x i8] c"(_ rotate_left \00", align 1
@.str.43 = private unnamed_addr constant [17 x i8] c"(_ rotate_right \00", align 1
@.str.44 = private unnamed_addr constant [11 x i8] c"(_ int2bv \00", align 1
@.str.45 = private unnamed_addr constant [10 x i8] c"(_ to_fp \00", align 1
@.str.46 = private unnamed_addr constant [19 x i8] c"(_ to_fp_unsigned \00", align 1
@.str.47 = private unnamed_addr constant [14 x i8] c"(_ fp.to_ubv \00", align 1
@.str.48 = private unnamed_addr constant [14 x i8] c"(_ fp.to_sbv \00", align 1
@.str.49 = private unnamed_addr constant [20 x i8] c"(_ fp.to_ubv_total \00", align 1
@.str.50 = private unnamed_addr constant [20 x i8] c"(_ fp.to_sbv_total \00", align 1
@.str.51 = private unnamed_addr constant [9 x i8] c"(_ re.^ \00", align 1
@.str.52 = private unnamed_addr constant [12 x i8] c"(_ re.loop \00", align 1
@.str.53 = private unnamed_addr constant [4 x i8] c"(_ \00", align 1
@.str.54 = private unnamed_addr constant [10 x i8] c"UnitTuple\00", align 1
@.str.55 = private unnamed_addr constant [7 x i8] c"(Tuple\00", align 1
@.str.56 = private unnamed_addr constant [5 x i8] c"var_\00", align 1
@.str.57 = private unnamed_addr constant [3 x i8] c" (\00", align 1
@.str.58 = private unnamed_addr constant [3 x i8] c"))\00", align 1
@.str.59 = private unnamed_addr constant [2 x i8] c"(\00", align 1
@.str.60 = private unnamed_addr constant [18 x i8] c"(as set.universe \00", align 1
@.str.61 = private unnamed_addr constant [13 x i8] c"(as sep.nil \00", align 1
@.str.62 = private unnamed_addr constant [11 x i8] c" :pattern \00", align 1
@.str.63 = private unnamed_addr constant [14 x i8] c" :no-pattern \00", align 1
@.str.64 = private unnamed_addr constant [7 x i8] c" :pool\00", align 1
@.str.65 = private unnamed_addr constant [19 x i8] c" :inst-add-to-pool\00", align 1
@.str.66 = private unnamed_addr constant [21 x i8] c" :skolem-add-to-pool\00", align 1
@.str.67 = private unnamed_addr constant [3 x i8] c" :\00", align 1
@.str.68 = private unnamed_addr constant [4 x i8] c"(! \00", align 1
@.str.69 = private unnamed_addr constant [26 x i8] c"(_ real_algebraic_number \00", align 1
@.str.70 = private unnamed_addr constant [19 x i8] c"(_ root_predicate \00", align 1
@.str.71 = private unnamed_addr constant [10 x i8] c"(_ bitOf \00", align 1
@.str.72 = private unnamed_addr constant [11 x i8] c"tuple.unit\00", align 1
@.str.73 = private unnamed_addr constant [6 x i8] c"tuple\00", align 1
@.str.74 = private unnamed_addr constant [17 x i8] c"(_ tuple.select \00", align 1
@.str.75 = private unnamed_addr constant [7 x i8] c"(_ is \00", align 1
@.str.76 = private unnamed_addr constant [17 x i8] c"(_ tuple.update \00", align 1
@.str.77 = private unnamed_addr constant [11 x i8] c"(_ update \00", align 1
@.str.78 = private unnamed_addr constant [6 x i8] c"(...)\00", align 1
@.str.79 = private unnamed_addr constant [3 x i8] c"->\00", align 1
@.str.80 = private unnamed_addr constant [2 x i8] c"=\00", align 1
@.str.81 = private unnamed_addr constant [9 x i8] c"distinct\00", align 1
@.str.82 = private unnamed_addr constant [4 x i8] c"not\00", align 1
@.str.83 = private unnamed_addr constant [4 x i8] c"and\00", align 1
@.str.84 = private unnamed_addr constant [3 x i8] c"=>\00", align 1
@.str.85 = private unnamed_addr constant [3 x i8] c"or\00", align 1
@.str.86 = private unnamed_addr constant [4 x i8] c"xor\00", align 1
@.str.87 = private unnamed_addr constant [4 x i8] c"ite\00", align 1
@.str.88 = private unnamed_addr constant [7 x i8] c"lambda\00", align 1
@.str.89 = private unnamed_addr constant [6 x i8] c"match\00", align 1
@.str.90 = private unnamed_addr constant [8 x i8] c"witness\00", align 1
@.str.91 = private unnamed_addr constant [2 x i8] c"+\00", align 1
@.str.92 = private unnamed_addr constant [2 x i8] c"*\00", align 1
@.str.93 = private unnamed_addr constant [5 x i8] c"iand\00", align 1
@.str.94 = private unnamed_addr constant [9 x i8] c"int.pow2\00", align 1
@.str.95 = private unnamed_addr constant [4 x i8] c"exp\00", align 1
@.str.96 = private unnamed_addr constant [4 x i8] c"sin\00", align 1
@.str.97 = private unnamed_addr constant [4 x i8] c"cos\00", align 1
@.str.98 = private unnamed_addr constant [4 x i8] c"tan\00", align 1
@.str.99 = private unnamed_addr constant [4 x i8] c"csc\00", align 1
@.str.100 = private unnamed_addr constant [4 x i8] c"sec\00", align 1
@.str.101 = private unnamed_addr constant [4 x i8] c"cot\00", align 1
@.str.102 = private unnamed_addr constant [7 x i8] c"arcsin\00", align 1
@.str.103 = private unnamed_addr constant [7 x i8] c"arccos\00", align 1
@.str.104 = private unnamed_addr constant [7 x i8] c"arctan\00", align 1
@.str.105 = private unnamed_addr constant [7 x i8] c"arccsc\00", align 1
@.str.106 = private unnamed_addr constant [7 x i8] c"arcsec\00", align 1
@.str.107 = private unnamed_addr constant [7 x i8] c"arccot\00", align 1
@.str.108 = private unnamed_addr constant [8 x i8] c"real.pi\00", align 1
@.str.109 = private unnamed_addr constant [5 x i8] c"sqrt\00", align 1
@.str.110 = private unnamed_addr constant [2 x i8] c"-\00", align 1
@.str.111 = private unnamed_addr constant [2 x i8] c"<\00", align 1
@.str.112 = private unnamed_addr constant [3 x i8] c"<=\00", align 1
@.str.113 = private unnamed_addr constant [2 x i8] c">\00", align 1
@.str.114 = private unnamed_addr constant [3 x i8] c">=\00", align 1
@.str.115 = private unnamed_addr constant [2 x i8] c"/\00", align 1
@.str.116 = private unnamed_addr constant [4 x i8] c"div\00", align 1
@.str.117 = private unnamed_addr constant [4 x i8] c"mod\00", align 1
@.str.118 = private unnamed_addr constant [4 x i8] c"abs\00", align 1
@.str.119 = private unnamed_addr constant [7 x i8] c"is_int\00", align 1
@.str.120 = private unnamed_addr constant [7 x i8] c"to_int\00", align 1
@.str.121 = private unnamed_addr constant [8 x i8] c"to_real\00", align 1
@.str.122 = private unnamed_addr constant [2 x i8] c"^\00", align 1
@.str.123 = private unnamed_addr constant [7 x i8] c"select\00", align 1
@.str.124 = private unnamed_addr constant [6 x i8] c"store\00", align 1
@.str.125 = private unnamed_addr constant [6 x i8] c"Array\00", align 1
@.str.126 = private unnamed_addr constant [8 x i8] c"eqrange\00", align 1
@.str.127 = private unnamed_addr constant [7 x i8] c"ff.add\00", align 1
@.str.128 = private unnamed_addr constant [10 x i8] c"ff.bitsum\00", align 1
@.str.129 = private unnamed_addr constant [7 x i8] c"ff.mul\00", align 1
@.str.130 = private unnamed_addr constant [7 x i8] c"ff.neg\00", align 1
@.str.131 = private unnamed_addr constant [7 x i8] c"concat\00", align 1
@.str.132 = private unnamed_addr constant [6 x i8] c"bvand\00", align 1
@.str.133 = private unnamed_addr constant [5 x i8] c"bvor\00", align 1
@.str.134 = private unnamed_addr constant [6 x i8] c"bvxor\00", align 1
@.str.135 = private unnamed_addr constant [6 x i8] c"bvnot\00", align 1
@.str.136 = private unnamed_addr constant [7 x i8] c"bvnand\00", align 1
@.str.137 = private unnamed_addr constant [6 x i8] c"bvnor\00", align 1
@.str.138 = private unnamed_addr constant [7 x i8] c"bvxnor\00", align 1
@.str.139 = private unnamed_addr constant [7 x i8] c"bvcomp\00", align 1
@.str.140 = private unnamed_addr constant [6 x i8] c"bvmul\00", align 1
@.str.141 = private unnamed_addr constant [6 x i8] c"bvadd\00", align 1
@.str.142 = private unnamed_addr constant [6 x i8] c"bvsub\00", align 1
@.str.143 = private unnamed_addr constant [6 x i8] c"bvneg\00", align 1
@.str.144 = private unnamed_addr constant [7 x i8] c"bvudiv\00", align 1
@.str.145 = private unnamed_addr constant [7 x i8] c"bvurem\00", align 1
@.str.146 = private unnamed_addr constant [7 x i8] c"bvsdiv\00", align 1
@.str.147 = private unnamed_addr constant [7 x i8] c"bvsrem\00", align 1
@.str.148 = private unnamed_addr constant [7 x i8] c"bvsmod\00", align 1
@.str.149 = private unnamed_addr constant [6 x i8] c"bvshl\00", align 1
@.str.150 = private unnamed_addr constant [7 x i8] c"bvlshr\00", align 1
@.str.151 = private unnamed_addr constant [7 x i8] c"bvashr\00", align 1
@.str.152 = private unnamed_addr constant [6 x i8] c"bvult\00", align 1
@.str.153 = private unnamed_addr constant [6 x i8] c"bvule\00", align 1
@.str.154 = private unnamed_addr constant [6 x i8] c"bvugt\00", align 1
@.str.155 = private unnamed_addr constant [6 x i8] c"bvuge\00", align 1
@.str.156 = private unnamed_addr constant [6 x i8] c"bvslt\00", align 1
@.str.157 = private unnamed_addr constant [6 x i8] c"bvsle\00", align 1
@.str.158 = private unnamed_addr constant [6 x i8] c"bvsgt\00", align 1
@.str.159 = private unnamed_addr constant [6 x i8] c"bvsge\00", align 1
@.str.160 = private unnamed_addr constant [7 x i8] c"bvnego\00", align 1
@.str.161 = private unnamed_addr constant [8 x i8] c"bvuaddo\00", align 1
@.str.162 = private unnamed_addr constant [8 x i8] c"bvsaddo\00", align 1
@.str.163 = private unnamed_addr constant [8 x i8] c"bvumulo\00", align 1
@.str.164 = private unnamed_addr constant [8 x i8] c"bvsmulo\00", align 1
@.str.165 = private unnamed_addr constant [8 x i8] c"bvusubo\00", align 1
@.str.166 = private unnamed_addr constant [8 x i8] c"bvssubo\00", align 1
@.str.167 = private unnamed_addr constant [8 x i8] c"bvsdivo\00", align 1
@.str.168 = private unnamed_addr constant [7 x i8] c"bv2nat\00", align 1
@.str.169 = private unnamed_addr constant [8 x i8] c"bvredor\00", align 1
@.str.170 = private unnamed_addr constant [9 x i8] c"bvredand\00", align 1
@.str.171 = private unnamed_addr constant [8 x i8] c"extract\00", align 1
@.str.172 = private unnamed_addr constant [7 x i8] c"repeat\00", align 1
@.str.173 = private unnamed_addr constant [12 x i8] c"zero_extend\00", align 1
@.str.174 = private unnamed_addr constant [12 x i8] c"sign_extend\00", align 1
@.str.175 = private unnamed_addr constant [12 x i8] c"rotate_left\00", align 1
@.str.176 = private unnamed_addr constant [13 x i8] c"rotate_right\00", align 1
@.str.177 = private unnamed_addr constant [7 x i8] c"int2bv\00", align 1
@.str.178 = private unnamed_addr constant [4 x i8] c"bbT\00", align 1
@.str.179 = private unnamed_addr constant [6 x i8] c"bitOf\00", align 1
@.str.180 = private unnamed_addr constant [6 x i8] c"bvite\00", align 1
@.str.181 = private unnamed_addr constant [8 x i8] c"bvultbv\00", align 1
@.str.182 = private unnamed_addr constant [8 x i8] c"bvsltbv\00", align 1
@.str.183 = private unnamed_addr constant [3 x i8] c"is\00", align 1
@.str.184 = private unnamed_addr constant [7 x i8] c"update\00", align 1
@.str.185 = private unnamed_addr constant [6 x i8] c"Tuple\00", align 1
@.str.186 = private unnamed_addr constant [14 x i8] c"tuple.project\00", align 1
@.str.187 = private unnamed_addr constant [10 x i8] c"set.empty\00", align 1
@.str.188 = private unnamed_addr constant [13 x i8] c"set.universe\00", align 1
@.str.189 = private unnamed_addr constant [10 x i8] c"set.union\00", align 1
@.str.190 = private unnamed_addr constant [10 x i8] c"set.inter\00", align 1
@.str.191 = private unnamed_addr constant [10 x i8] c"set.minus\00", align 1
@.str.192 = private unnamed_addr constant [11 x i8] c"set.subset\00", align 1
@.str.193 = private unnamed_addr constant [11 x i8] c"set.member\00", align 1
@.str.194 = private unnamed_addr constant [4 x i8] c"Set\00", align 1
@.str.195 = private unnamed_addr constant [14 x i8] c"set.singleton\00", align 1
@.str.196 = private unnamed_addr constant [11 x i8] c"set.insert\00", align 1
@.str.197 = private unnamed_addr constant [15 x i8] c"set.complement\00", align 1
@.str.198 = private unnamed_addr constant [9 x i8] c"set.card\00", align 1
@.str.199 = private unnamed_addr constant [18 x i8] c"set.comprehension\00", align 1
@.str.200 = private unnamed_addr constant [11 x i8] c"set.choose\00", align 1
@.str.201 = private unnamed_addr constant [17 x i8] c"set.is_singleton\00", align 1
@.str.202 = private unnamed_addr constant [8 x i8] c"set.map\00", align 1
@.str.203 = private unnamed_addr constant [11 x i8] c"set.filter\00", align 1
@.str.204 = private unnamed_addr constant [9 x i8] c"set.fold\00", align 1
@.str.205 = private unnamed_addr constant [9 x i8] c"rel.join\00", align 1
@.str.206 = private unnamed_addr constant [12 x i8] c"rel.product\00", align 1
@.str.207 = private unnamed_addr constant [14 x i8] c"rel.transpose\00", align 1
@.str.208 = private unnamed_addr constant [13 x i8] c"rel.tclosure\00", align 1
@.str.209 = private unnamed_addr constant [9 x i8] c"rel.iden\00", align 1
@.str.210 = private unnamed_addr constant [15 x i8] c"rel.join_image\00", align 1
@.str.211 = private unnamed_addr constant [10 x i8] c"rel.group\00", align 1
@.str.212 = private unnamed_addr constant [9 x i8] c"rel.aggr\00", align 1
@.str.213 = private unnamed_addr constant [12 x i8] c"rel.project\00", align 1
@.str.214 = private unnamed_addr constant [4 x i8] c"Bag\00", align 1
@.str.215 = private unnamed_addr constant [10 x i8] c"bag.empty\00", align 1
@.str.216 = private unnamed_addr constant [14 x i8] c"bag.union_max\00", align 1
@.str.217 = private unnamed_addr constant [19 x i8] c"bag.union_disjoint\00", align 1
@.str.218 = private unnamed_addr constant [14 x i8] c"bag.inter_min\00", align 1
@.str.219 = private unnamed_addr constant [24 x i8] c"bag.difference_subtract\00", align 1
@.str.220 = private unnamed_addr constant [22 x i8] c"bag.difference_remove\00", align 1
@.str.221 = private unnamed_addr constant [11 x i8] c"bag.subbag\00", align 1
@.str.222 = private unnamed_addr constant [10 x i8] c"bag.count\00", align 1
@.str.223 = private unnamed_addr constant [11 x i8] c"bag.member\00", align 1
@.str.224 = private unnamed_addr constant [22 x i8] c"bag.duplicate_removal\00", align 1
@.str.225 = private unnamed_addr constant [4 x i8] c"bag\00", align 1
@.str.226 = private unnamed_addr constant [9 x i8] c"bag.card\00", align 1
@.str.227 = private unnamed_addr constant [11 x i8] c"bag.choose\00", align 1
@.str.228 = private unnamed_addr constant [17 x i8] c"bag.is_singleton\00", align 1
@.str.229 = private unnamed_addr constant [13 x i8] c"bag.from_set\00", align 1
@.str.230 = private unnamed_addr constant [11 x i8] c"bag.to_set\00", align 1
@.str.231 = private unnamed_addr constant [8 x i8] c"bag.map\00", align 1
@.str.232 = private unnamed_addr constant [11 x i8] c"bag.filter\00", align 1
@.str.233 = private unnamed_addr constant [9 x i8] c"bag.fold\00", align 1
@.str.234 = private unnamed_addr constant [14 x i8] c"bag.partition\00", align 1
@.str.235 = private unnamed_addr constant [14 x i8] c"table.product\00", align 1
@.str.236 = private unnamed_addr constant [14 x i8] c"table.project\00", align 1
@.str.237 = private unnamed_addr constant [11 x i8] c"table.aggr\00", align 1
@.str.238 = private unnamed_addr constant [11 x i8] c"table.join\00", align 1
@.str.239 = private unnamed_addr constant [12 x i8] c"table.group\00", align 1
@.str.240 = private unnamed_addr constant [3 x i8] c"fp\00", align 1
@.str.241 = private unnamed_addr constant [6 x i8] c"fp.eq\00", align 1
@.str.242 = private unnamed_addr constant [7 x i8] c"fp.abs\00", align 1
@.str.243 = private unnamed_addr constant [7 x i8] c"fp.neg\00", align 1
@.str.244 = private unnamed_addr constant [7 x i8] c"fp.add\00", align 1
@.str.245 = private unnamed_addr constant [7 x i8] c"fp.sub\00", align 1
@.str.246 = private unnamed_addr constant [7 x i8] c"fp.mul\00", align 1
@.str.247 = private unnamed_addr constant [7 x i8] c"fp.div\00", align 1
@.str.248 = private unnamed_addr constant [7 x i8] c"fp.fma\00", align 1
@.str.249 = private unnamed_addr constant [8 x i8] c"fp.sqrt\00", align 1
@.str.250 = private unnamed_addr constant [7 x i8] c"fp.rem\00", align 1
@.str.251 = private unnamed_addr constant [19 x i8] c"fp.roundToIntegral\00", align 1
@.str.252 = private unnamed_addr constant [7 x i8] c"fp.min\00", align 1
@.str.253 = private unnamed_addr constant [7 x i8] c"fp.max\00", align 1
@.str.254 = private unnamed_addr constant [13 x i8] c"fp.min_total\00", align 1
@.str.255 = private unnamed_addr constant [13 x i8] c"fp.max_total\00", align 1
@.str.256 = private unnamed_addr constant [7 x i8] c"fp.leq\00", align 1
@.str.257 = private unnamed_addr constant [6 x i8] c"fp.lt\00", align 1
@.str.258 = private unnamed_addr constant [7 x i8] c"fp.geq\00", align 1
@.str.259 = private unnamed_addr constant [6 x i8] c"fp.gt\00", align 1
@.str.260 = private unnamed_addr constant [12 x i8] c"fp.isNormal\00", align 1
@.str.261 = private unnamed_addr constant [15 x i8] c"fp.isSubnormal\00", align 1
@.str.262 = private unnamed_addr constant [10 x i8] c"fp.isZero\00", align 1
@.str.263 = private unnamed_addr constant [14 x i8] c"fp.isInfinite\00", align 1
@.str.264 = private unnamed_addr constant [9 x i8] c"fp.isNaN\00", align 1
@.str.265 = private unnamed_addr constant [14 x i8] c"fp.isNegative\00", align 1
@.str.266 = private unnamed_addr constant [14 x i8] c"fp.isPositive\00", align 1
@.str.267 = private unnamed_addr constant [6 x i8] c"to_fp\00", align 1
@.str.268 = private unnamed_addr constant [15 x i8] c"to_fp_unsigned\00", align 1
@.str.269 = private unnamed_addr constant [10 x i8] c"fp.to_ubv\00", align 1
@.str.270 = private unnamed_addr constant [16 x i8] c"fp.to_ubv_total\00", align 1
@.str.271 = private unnamed_addr constant [10 x i8] c"fp.to_sbv\00", align 1
@.str.272 = private unnamed_addr constant [16 x i8] c"fp.to_sbv_total\00", align 1
@.str.273 = private unnamed_addr constant [11 x i8] c"fp.to_real\00", align 1
@.str.274 = private unnamed_addr constant [17 x i8] c"fp.to_real_total\00", align 1
@.str.275 = private unnamed_addr constant [4 x i8] c"NAN\00", align 1
@.str.276 = private unnamed_addr constant [4 x i8] c"INF\00", align 1
@.str.277 = private unnamed_addr constant [5 x i8] c"ZERO\00", align 1
@.str.278 = private unnamed_addr constant [5 x i8] c"SIGN\00", align 1
@.str.279 = private unnamed_addr constant [9 x i8] c"EXPONENT\00", align 1
@.str.280 = private unnamed_addr constant [12 x i8] c"SIGNIFICAND\00", align 1
@.str.281 = private unnamed_addr constant [11 x i8] c"RMBITBLAST\00", align 1
@.str.282 = private unnamed_addr constant [7 x i8] c"str.++\00", align 1
@.str.283 = private unnamed_addr constant [8 x i8] c"str.len\00", align 1
@.str.284 = private unnamed_addr constant [11 x i8] c"str.substr\00", align 1
@.str.285 = private unnamed_addr constant [11 x i8] c"str.update\00", align 1
@.str.286 = private unnamed_addr constant [13 x i8] c"str.contains\00", align 1
@.str.287 = private unnamed_addr constant [7 x i8] c"str.at\00", align 1
@.str.288 = private unnamed_addr constant [12 x i8] c"str.indexof\00", align 1
@.str.289 = private unnamed_addr constant [15 x i8] c"str.indexof_re\00", align 1
@.str.290 = private unnamed_addr constant [12 x i8] c"str.replace\00", align 1
@.str.291 = private unnamed_addr constant [16 x i8] c"str.replace_all\00", align 1
@.str.292 = private unnamed_addr constant [15 x i8] c"str.replace_re\00", align 1
@.str.293 = private unnamed_addr constant [19 x i8] c"str.replace_re_all\00", align 1
@.str.294 = private unnamed_addr constant [13 x i8] c"str.to_lower\00", align 1
@.str.295 = private unnamed_addr constant [13 x i8] c"str.to_upper\00", align 1
@.str.296 = private unnamed_addr constant [8 x i8] c"str.rev\00", align 1
@.str.297 = private unnamed_addr constant [13 x i8] c"str.prefixof\00", align 1
@.str.298 = private unnamed_addr constant [13 x i8] c"str.suffixof\00", align 1
@.str.299 = private unnamed_addr constant [7 x i8] c"str.<=\00", align 1
@.str.300 = private unnamed_addr constant [6 x i8] c"str.<\00", align 1
@.str.301 = private unnamed_addr constant [14 x i8] c"str.from_code\00", align 1
@.str.302 = private unnamed_addr constant [12 x i8] c"str.to_code\00", align 1
@.str.303 = private unnamed_addr constant [13 x i8] c"str.is_digit\00", align 1
@.str.304 = private unnamed_addr constant [13 x i8] c"str.from_int\00", align 1
@.str.305 = private unnamed_addr constant [11 x i8] c"str.to_int\00", align 1
@.str.306 = private unnamed_addr constant [10 x i8] c"str.in_re\00", align 1
@.str.307 = private unnamed_addr constant [10 x i8] c"str.to_re\00", align 1
@.str.308 = private unnamed_addr constant [9 x i8] c"str.unit\00", align 1
@.str.309 = private unnamed_addr constant [8 x i8] c"re.none\00", align 1
@.str.310 = private unnamed_addr constant [7 x i8] c"re.all\00", align 1
@.str.311 = private unnamed_addr constant [11 x i8] c"re.allchar\00", align 1
@.str.312 = private unnamed_addr constant [6 x i8] c"re.++\00", align 1
@.str.313 = private unnamed_addr constant [9 x i8] c"re.union\00", align 1
@.str.314 = private unnamed_addr constant [9 x i8] c"re.inter\00", align 1
@.str.315 = private unnamed_addr constant [5 x i8] c"re.*\00", align 1
@.str.316 = private unnamed_addr constant [5 x i8] c"re.+\00", align 1
@.str.317 = private unnamed_addr constant [7 x i8] c"re.opt\00", align 1
@.str.318 = private unnamed_addr constant [9 x i8] c"re.range\00", align 1
@.str.319 = private unnamed_addr constant [5 x i8] c"re.^\00", align 1
@.str.320 = private unnamed_addr constant [8 x i8] c"re.loop\00", align 1
@.str.321 = private unnamed_addr constant [8 x i8] c"re.comp\00", align 1
@.str.322 = private unnamed_addr constant [8 x i8] c"re.diff\00", align 1
@.str.323 = private unnamed_addr constant [4 x i8] c"Seq\00", align 1
@.str.324 = private unnamed_addr constant [9 x i8] c"seq.unit\00", align 1
@.str.325 = private unnamed_addr constant [8 x i8] c"seq.nth\00", align 1
@.str.326 = private unnamed_addr constant [4 x i8] c"sep\00", align 1
@.str.327 = private unnamed_addr constant [4 x i8] c"pto\00", align 1
@.str.328 = private unnamed_addr constant [5 x i8] c"wand\00", align 1
@.str.329 = private unnamed_addr constant [8 x i8] c"sep.emp\00", align 1
@.str.330 = private unnamed_addr constant [8 x i8] c"sep.nil\00", align 1
@.str.331 = private unnamed_addr constant [7 x i8] c"forall\00", align 1
@.str.332 = private unnamed_addr constant [7 x i8] c"exists\00", align 1
@.str.333 = private unnamed_addr constant [2 x i8] c"@\00", align 1
@.str.334 = private unnamed_addr constant [11 x i8] c"seq.concat\00", align 1
@.str.335 = private unnamed_addr constant [8 x i8] c"seq.len\00", align 1
@.str.336 = private unnamed_addr constant [12 x i8] c"seq.extract\00", align 1
@.str.337 = private unnamed_addr constant [11 x i8] c"seq.update\00", align 1
@.str.338 = private unnamed_addr constant [7 x i8] c"seq.at\00", align 1
@.str.339 = private unnamed_addr constant [13 x i8] c"seq.contains\00", align 1
@.str.340 = private unnamed_addr constant [12 x i8] c"seq.indexof\00", align 1
@.str.341 = private unnamed_addr constant [12 x i8] c"seq.replace\00", align 1
@.str.342 = private unnamed_addr constant [16 x i8] c"seq.replace_all\00", align 1
@.str.343 = private unnamed_addr constant [8 x i8] c"seq.rev\00", align 1
@.str.344 = private unnamed_addr constant [13 x i8] c"seq.prefixof\00", align 1
@.str.345 = private unnamed_addr constant [13 x i8] c"seq.suffixof\00", align 1
@.str.346 = private unnamed_addr constant [6 x i8] c"(heap\00", align 1
@.str.347 = private unnamed_addr constant [65 x i8] c"ERROR: don't know how to print non uninterpreted sort in model: \00", align 1
@.str.348 = private unnamed_addr constant [18 x i8] c"; cardinality of \00", align 1
@.str.349 = private unnamed_addr constant [5 x i8] c" is \00", align 1
@.str.350 = private unnamed_addr constant [14 x i8] c"(declare-fun \00", align 1
@.str.351 = private unnamed_addr constant [5 x i8] c" () \00", align 1
@.str.352 = private unnamed_addr constant [8 x i8] c"; rep: \00", align 1
@.str.353 = private unnamed_addr constant [13 x i8] c"(define-fun \00", align 1
@.str.354 = private unnamed_addr constant [8 x i8] c"success\00", align 1
@.str.355 = private unnamed_addr constant [12 x i8] c"interrupted\00", align 1
@.str.356 = private unnamed_addr constant [12 x i8] c"unsupported\00", align 1
@.str.357 = private unnamed_addr constant [9 x i8] c"(assert \00", align 1
@.str.358 = private unnamed_addr constant [7 x i8] c"(push \00", align 1
@.str.359 = private unnamed_addr constant [6 x i8] c"(pop \00", align 1
@.str.360 = private unnamed_addr constant [12 x i8] c"(check-sat)\00", align 1
@.str.361 = private unnamed_addr constant [23 x i8] c"(check-sat-assuming ( \00", align 1
@.str.362 = private unnamed_addr constant [8 x i8] c"(reset)\00", align 1
@.str.363 = private unnamed_addr constant [19 x i8] c"(reset-assertions)\00", align 1
@.str.364 = private unnamed_addr constant [7 x i8] c"(exit)\00", align 1
@.str.365 = private unnamed_addr constant [21 x i8] c"(declare-oracle-fun \00", align 1
@.str.366 = private unnamed_addr constant [15 x i8] c"(declare-pool \00", align 1
@.str.367 = private unnamed_addr constant [12 x i8] c"(define-fun\00", align 1
@.str.368 = private unnamed_addr constant [2 x i8] c"s\00", align 1
@.str.369 = private unnamed_addr constant [6 x i8] c"-rec \00", align 1
@.str.370 = private unnamed_addr constant [4 x i8] c") (\00", align 1
@.str.371 = private unnamed_addr constant [15 x i8] c"(declare-sort \00", align 1
@.str.372 = private unnamed_addr constant [14 x i8] c"(define-sort \00", align 1
@.str.373 = private unnamed_addr constant [11 x i8] c"(simplify \00", align 1
@.str.374 = private unnamed_addr constant [14 x i8] c"(get-value ( \00", align 1
@.str.375 = private unnamed_addr constant [12 x i8] c"(get-model)\00", align 1
@.str.376 = private unnamed_addr constant [15 x i8] c"(block-model :\00", align 1
@.str.377 = private unnamed_addr constant [9 x i8] c"literals\00", align 1
@.str.378 = private unnamed_addr constant [7 x i8] c"values\00", align 1
@__PRETTY_FUNCTION__._ZNK4cvc58internal7printer4smt211Smt2Printer21toStreamCmdBlockModelERSoNS_5modes15BlockModelsModeE = private unnamed_addr constant [125 x i8] c"virtual void cvc5::internal::printer::smt2::Smt2Printer::toStreamCmdBlockModel(std::ostream &, modes::BlockModelsMode) const\00", align 1
@.str.379 = private unnamed_addr constant [27 x i8] c"Invalid block models mode \00", align 1
@.str.380 = private unnamed_addr constant [22 x i8] c"(block-model-values (\00", align 1
@.str.381 = private unnamed_addr constant [17 x i8] c"(get-assignment)\00", align 1
@.str.382 = private unnamed_addr constant [17 x i8] c"(get-assertions)\00", align 1
@.str.383 = private unnamed_addr constant [11 x i8] c"(get-proof\00", align 1
@.str.384 = private unnamed_addr constant [24 x i8] c"(get-unsat-assumptions)\00", align 1
@.str.385 = private unnamed_addr constant [17 x i8] c"(get-unsat-core)\00", align 1
@.str.386 = private unnamed_addr constant [17 x i8] c"(get-difficulty)\00", align 1
@.str.387 = private unnamed_addr constant [19 x i8] c"(get-timeout-core)\00", align 1
@.str.388 = private unnamed_addr constant [29 x i8] c"(get-timeout-core-assuming (\00", align 1
@.str.389 = private unnamed_addr constant [22 x i8] c"(get-learned-literals\00", align 1
@.str.390 = private unnamed_addr constant [12 x i8] c"(set-logic \00", align 1
@.str.391 = private unnamed_addr constant [12 x i8] c"(set-info :\00", align 1
@.str.392 = private unnamed_addr constant [12 x i8] c"(get-info :\00", align 1
@.str.393 = private unnamed_addr constant [14 x i8] c"(set-option :\00", align 1
@.str.394 = private unnamed_addr constant [26 x i8] c"diagnostic-output-channel\00", align 1
@.str.395 = private unnamed_addr constant [23 x i8] c"regular-output-channel\00", align 1
@.str.396 = private unnamed_addr constant [3 x i8] c"in\00", align 1
@.str.397 = private unnamed_addr constant [2 x i8] c"\22\00", align 1
@.str.398 = private unnamed_addr constant [14 x i8] c"(get-option :\00", align 1
@.str.399 = private unnamed_addr constant [10 x i8] c"(declare-\00", align 1
@.str.400 = private unnamed_addr constant [3 x i8] c"co\00", align 1
@.str.401 = private unnamed_addr constant [10 x i8] c"datatypes\00", align 1
@.str.402 = private unnamed_addr constant [7 x i8] c"(par (\00", align 1
@.str.403 = private unnamed_addr constant [1 x i8] zeroinitializer, align 1
@.str.404 = private unnamed_addr constant [16 x i8] c"(declare-heap (\00", align 1
@.str.405 = private unnamed_addr constant [7 x i8] c"(echo \00", align 1
@.str.406 = private unnamed_addr constant [11 x i8] c"(Constant \00", align 1
@.str.407 = private unnamed_addr constant [3 x i8] c")(\00", align 1
@.str.408 = private unnamed_addr constant [12 x i8] c"(synth-fun \00", align 1
@.str.409 = private unnamed_addr constant [14 x i8] c"(declare-var \00", align 1
@.str.410 = private unnamed_addr constant [13 x i8] c"(constraint \00", align 1
@.str.411 = private unnamed_addr constant [9 x i8] c"(assume \00", align 1
@.str.412 = private unnamed_addr constant [17 x i8] c"(inv-constraint \00", align 1
@.str.413 = private unnamed_addr constant [14 x i8] c"(check-synth)\00", align 1
@.str.414 = private unnamed_addr constant [19 x i8] c"(check-synth-next)\00", align 1
@.str.415 = private unnamed_addr constant [14 x i8] c"(find-synth :\00", align 1
@.str.416 = private unnamed_addr constant [18 x i8] c"(find-synth-next)\00", align 1
@.str.417 = private unnamed_addr constant [18 x i8] c"(get-interpolant \00", align 1
@.str.418 = private unnamed_addr constant [23 x i8] c"(get-interpolant-next)\00", align 1
@.str.419 = private unnamed_addr constant [13 x i8] c"(get-abduct \00", align 1
@.str.420 = private unnamed_addr constant [18 x i8] c"(get-abduct-next)\00", align 1
@.str.421 = private unnamed_addr constant [7 x i8] c"get-qe\00", align 1
@.str.422 = private unnamed_addr constant [16 x i8] c"get-qe-disjunct\00", align 1
@_ZTVN4cvc58internal7printer4smt211Smt2PrinterE = hidden unnamed_addr constant { [71 x ptr] } { [71 x ptr] [ptr null, ptr @_ZTIN4cvc58internal7printer4smt211Smt2PrinterE, ptr @_ZN4cvc58internal7printer4smt211Smt2PrinterD2Ev, ptr @_ZN4cvc58internal7printer4smt211Smt2PrinterD0Ev, ptr @_ZNK4cvc58internal7printer4smt211Smt2Printer8toStreamERSoNS0_12NodeTemplateILb0EEE, ptr @_ZNK4cvc58internal7printer4smt211Smt2Printer8toStreamERSoNS0_12NodeTemplateILb0EEEPKNS0_10LetBindingE, ptr @_ZNK4cvc58internal7printer4smt211Smt2Printer8toStreamERSoNS0_4kind6Kind_tE, ptr @_ZNK4cvc58internal7printer4smt211Smt2Printer8toStreamERSoRKNS0_3smt5ModelE, ptr @_ZNK4cvc58internal7printer4smt211Smt2Printer8toStreamERSoRKNS0_9UnsatCoreE, ptr @_ZNK4cvc58internal7Printer8toStreamERSoRKNS0_17InstantiationListE, ptr @_ZNK4cvc58internal7Printer8toStreamERSoRKNS0_10SkolemListE, ptr @_ZNK4cvc58internal7printer4smt211Smt2Printer18toStreamCmdSuccessERSo, ptr @_ZNK4cvc58internal7printer4smt211Smt2Printer22toStreamCmdInterruptedERSo, ptr @_ZNK4cvc58internal7printer4smt211Smt2Printer22toStreamCmdUnsupportedERSo, ptr @_ZNK4cvc58internal7printer4smt211Smt2Printer18toStreamCmdFailureERSoRKNSt7__cxx1112basic_stringIcSt11char_traitsIcESaIcEEE, ptr @_ZNK4cvc58internal7printer4smt211Smt2Printer29toStreamCmdRecoverableFailureERSoRKNSt7__cxx1112basic_stringIcSt11char_traitsIcESaIcEEE, ptr @_ZNK4cvc58internal7printer4smt211Smt2Printer16toStreamCmdEmptyERSoRKNSt7__cxx1112basic_stringIcSt11char_traitsIcESaIcEEE, ptr @_ZNK4cvc58internal7printer4smt211Smt2Printer15toStreamCmdEchoERSoRKNSt7__cxx1112basic_stringIcSt11char_traitsIcESaIcEEE, ptr @_ZNK4cvc58internal7printer4smt211Smt2Printer17toStreamCmdAssertERSoNS0_12NodeTemplateILb1EEE, ptr @_ZNK4cvc58internal7printer4smt211Smt2Printer15toStreamCmdPushERSoj, ptr @_ZNK4cvc58internal7printer4smt211Smt2Printer14toStreamCmdPopERSoj, ptr @_ZNK4cvc58internal7printer4smt211Smt2Printer26toStreamCmdDeclareFunctionERSoRKNSt7__cxx1112basic_stringIcSt11char_traitsIcESaIcEEERKSt6vectorINS0_8TypeNodeESaISE_EESE_, ptr @_ZNK4cvc58internal7printer4smt211Smt2Printer22toStreamCmdDeclarePoolERSoRKNSt7__cxx1112basic_stringIcSt11char_traitsIcESaIcEEENS0_8TypeNodeERKSt6vectorINS0_12NodeTemplateILb1EEESaISG_EE, ptr @_ZNK4cvc58internal7printer4smt211Smt2Printer27toStreamCmdDeclareOracleFunERSoRKNSt7__cxx1112basic_stringIcSt11char_traitsIcESaIcEEERKSt6vectorINS0_8TypeNodeESaISE_EESE_SC_, ptr @_ZNK4cvc58internal7printer4smt211Smt2Printer22toStreamCmdDeclareTypeERSoRKNSt7__cxx1112basic_stringIcSt11char_traitsIcESaIcEEEm, ptr @_ZNK4cvc58internal7printer4smt211Smt2Printer21toStreamCmdDefineTypeERSoRKNSt7__cxx1112basic_stringIcSt11char_traitsIcESaIcEEERKSt6vectorINS0_8TypeNodeESaISE_EESE_, ptr @_ZNK4cvc58internal7printer4smt211Smt2Printer25toStreamCmdDefineFunctionERSoRKNSt7__cxx1112basic_stringIcSt11char_traitsIcESaIcEEERKSt6vectorINS0_12NodeTemplateILb1EEESaISF_EENS0_8TypeNodeESF_, ptr @_ZNK4cvc58internal7printer4smt211Smt2Printer28toStreamCmdDefineFunctionRecERSoRKSt6vectorINS0_12NodeTemplateILb1EEESaIS7_EERKS5_IS9_SaIS9_EESB_, ptr @_ZNK4cvc58internal7printer4smt211Smt2Printer19toStreamCmdCheckSatERSo, ptr @_ZNK4cvc58internal7printer4smt211Smt2Printer27toStreamCmdCheckSatAssumingERSoRKSt6vectorINS0_12NodeTemplateILb1EEESaIS7_EE, ptr @_ZNK4cvc58internal7printer4smt211Smt2Printer16toStreamCmdQueryERSoNS0_12NodeTemplateILb1EEE, ptr @_ZNK4cvc58internal7printer4smt211Smt2Printer21toStreamCmdDeclareVarERSoRKNSt7__cxx1112basic_stringIcSt11char_traitsIcESaIcEEENS0_8TypeNodeE, ptr @_ZNK4cvc58internal7printer4smt211Smt2Printer19toStreamCmdSynthFunERSoRKNSt7__cxx1112basic_stringIcSt11char_traitsIcESaIcEEERKSt6vectorINS0_12NodeTemplateILb1EEESaISF_EENS0_8TypeNodeESK_, ptr @_ZNK4cvc58internal7printer4smt211Smt2Printer21toStreamCmdConstraintERSoNS0_12NodeTemplateILb1EEE, ptr @_ZNK4cvc58internal7printer4smt211Smt2Printer17toStreamCmdAssumeERSoNS0_12NodeTemplateILb1EEE, ptr @_ZNK4cvc58internal7printer4smt211Smt2Printer24toStreamCmdInvConstraintERSoNS0_12NodeTemplateILb1EEES6_S6_S6_, ptr @_ZNK4cvc58internal7printer4smt211Smt2Printer21toStreamCmdCheckSynthERSo, ptr @_ZNK4cvc58internal7printer4smt211Smt2Printer25toStreamCmdCheckSynthNextERSo, ptr @_ZNK4cvc58internal7printer4smt211Smt2Printer20toStreamCmdFindSynthERSoNS_5modes15FindSynthTargetENS0_8TypeNodeE, ptr @_ZNK4cvc58internal7printer4smt211Smt2Printer24toStreamCmdFindSynthNextERSo, ptr @_ZNK4cvc58internal7printer4smt211Smt2Printer19toStreamCmdSimplifyERSoNS0_12NodeTemplateILb1EEE, ptr @_ZNK4cvc58internal7printer4smt211Smt2Printer19toStreamCmdGetValueERSoRKSt6vectorINS0_12NodeTemplateILb1EEESaIS7_EE, ptr @_ZNK4cvc58internal7printer4smt211Smt2Printer24toStreamCmdGetAssignmentERSo, ptr @_ZNK4cvc58internal7printer4smt211Smt2Printer19toStreamCmdGetModelERSo, ptr @_ZNK4cvc58internal7printer4smt211Smt2Printer21toStreamCmdBlockModelERSoNS_5modes15BlockModelsModeE, ptr @_ZNK4cvc58internal7printer4smt211Smt2Printer27toStreamCmdBlockModelValuesERSoRKSt6vectorINS0_12NodeTemplateILb1EEESaIS7_EE, ptr @_ZNK4cvc58internal7printer4smt211Smt2Printer19toStreamCmdGetProofERSoNS_5modes14ProofComponentE, ptr @_ZNK4cvc58internal7printer4smt211Smt2Printer22toStreamCmdGetInterpolERSoRKNSt7__cxx1112basic_stringIcSt11char_traitsIcESaIcEEENS0_12NodeTemplateILb1EEENS0_8TypeNodeE, ptr @_ZNK4cvc58internal7printer4smt211Smt2Printer26toStreamCmdGetInterpolNextERSo, ptr @_ZNK4cvc58internal7printer4smt211Smt2Printer20toStreamCmdGetAbductERSoRKNSt7__cxx1112basic_stringIcSt11char_traitsIcESaIcEEENS0_12NodeTemplateILb1EEENS0_8TypeNodeE, ptr @_ZNK4cvc58internal7printer4smt211Smt2Printer24toStreamCmdGetAbductNextERSo, ptr @_ZNK4cvc58internal7printer4smt211Smt2Printer35toStreamCmdGetQuantifierEliminationERSoNS0_12NodeTemplateILb1EEEb, ptr @_ZNK4cvc58internal7printer4smt211Smt2Printer30toStreamCmdGetUnsatAssumptionsERSo, ptr @_ZNK4cvc58internal7printer4smt211Smt2Printer23toStreamCmdGetUnsatCoreERSo, ptr @_ZNK4cvc58internal7printer4smt211Smt2Printer24toStreamCmdGetDifficultyERSo, ptr @_ZNK4cvc58internal7printer4smt211Smt2Printer25toStreamCmdGetTimeoutCoreERSo, ptr @_ZNK4cvc58internal7printer4smt211Smt2Printer33toStreamCmdGetTimeoutCoreAssumingERSoRKSt6vectorINS0_12NodeTemplateILb1EEESaIS7_EE, ptr @_ZNK4cvc58internal7printer4smt211Smt2Printer29toStreamCmdGetLearnedLiteralsERSoNS_5modes14LearnedLitTypeE, ptr @_ZNK4cvc58internal7printer4smt211Smt2Printer24toStreamCmdGetAssertionsERSo, ptr @_ZNK4cvc58internal7printer4smt211Smt2Printer28toStreamCmdSetBenchmarkLogicERSoRKNSt7__cxx1112basic_stringIcSt11char_traitsIcESaIcEEE, ptr @_ZNK4cvc58internal7printer4smt211Smt2Printer18toStreamCmdSetInfoERSoRKNSt7__cxx1112basic_stringIcSt11char_traitsIcESaIcEEESC_, ptr @_ZNK4cvc58internal7printer4smt211Smt2Printer18toStreamCmdGetInfoERSoRKNSt7__cxx1112basic_stringIcSt11char_traitsIcESaIcEEE, ptr @_ZNK4cvc58internal7printer4smt211Smt2Printer20toStreamCmdSetOptionERSoRKNSt7__cxx1112basic_stringIcSt11char_traitsIcESaIcEEESC_, ptr @_ZNK4cvc58internal7printer4smt211Smt2Printer20toStreamCmdGetOptionERSoRKNSt7__cxx1112basic_stringIcSt11char_traitsIcESaIcEEE, ptr @_ZNK4cvc58internal7printer4smt211Smt2Printer30toStreamCmdDatatypeDeclarationERSoRKSt6vectorINS0_8TypeNodeESaIS6_EE, ptr @_ZNK4cvc58internal7printer4smt211Smt2Printer16toStreamCmdResetERSo, ptr @_ZNK4cvc58internal7printer4smt211Smt2Printer26toStreamCmdResetAssertionsERSo, ptr @_ZNK4cvc58internal7printer4smt211Smt2Printer15toStreamCmdQuitERSo, ptr @_ZNK4cvc58internal7printer4smt211Smt2Printer22toStreamCmdDeclareHeapERSoNS0_8TypeNodeES5_, ptr @_ZNK4cvc58internal7printer4smt211Smt2Printer17toStreamModelSortERSoNS0_8TypeNodeERKSt6vectorINS0_12NodeTemplateILb1EEESaIS8_EE, ptr @_ZNK4cvc58internal7printer4smt211Smt2Printer17toStreamModelTermERSoRKNS0_12NodeTemplateILb1EEES8_] }, align 8
@_ZTVN10__cxxabiv120__si_class_type_infoE = external global [0 x ptr]
@_ZTSN4cvc58internal7printer4smt211Smt2PrinterE = hidden constant [43 x i8] c"N4cvc58internal7printer4smt211Smt2PrinterE\00", align 1
@_ZTIN4cvc58internal7PrinterE = external constant ptr
@_ZTIN4cvc58internal7printer4smt211Smt2PrinterE = hidden constant { ptr, ptr, ptr } { ptr getelementptr inbounds (ptr, ptr @_ZTVN10__cxxabiv120__si_class_type_infoE, i64 2), ptr @_ZTSN4cvc58internal7printer4smt211Smt2PrinterE, ptr @_ZTIN4cvc58internal7PrinterE }, align 8
@_ZTVN4cvc57context9CDHashMapINS_8internal12NodeTemplateILb1EEEjSt4hashIS4_EEE = linkonce_odr hidden unnamed_addr constant { [6 x ptr] } { [6 x ptr] [ptr null, ptr @_ZTIN4cvc57context9CDHashMapINS_8internal12NodeTemplateILb1EEEjSt4hashIS4_EEE, ptr @_ZN4cvc57context9CDHashMapINS_8internal12NodeTemplateILb1EEEjSt4hashIS4_EE4saveEPNS0_20ContextMemoryManagerE, ptr @_ZN4cvc57context9CDHashMapINS_8internal12NodeTemplateILb1EEEjSt4hashIS4_EE7restoreEPNS0_10ContextObjE, ptr @_ZN4cvc57context9CDHashMapINS_8internal12NodeTemplateILb1EEEjSt4hashIS4_EED2Ev, ptr @_ZN4cvc57context9CDHashMapINS_8internal12NodeTemplateILb1EEEjSt4hashIS4_EED0Ev] }, comdat, align 8
@_ZTSN4cvc57context9CDHashMapINS_8internal12NodeTemplateILb1EEEjSt4hashIS4_EEE = linkonce_odr hidden constant [74 x i8] c"N4cvc57context9CDHashMapINS_8internal12NodeTemplateILb1EEEjSt4hashIS4_EEE\00", comdat, align 1
@_ZTVN10__cxxabiv117__class_type_infoE = external global [0 x ptr]
@_ZTSN4cvc57context10ContextObjE = linkonce_odr constant [28 x i8] c"N4cvc57context10ContextObjE\00", comdat, align 1
@_ZTIN4cvc57context10ContextObjE = linkonce_odr constant { ptr, ptr } { ptr getelementptr inbounds (ptr, ptr @_ZTVN10__cxxabiv117__class_type_infoE, i64 2), ptr @_ZTSN4cvc57context10ContextObjE }, comdat, align 8
@_ZTIN4cvc57context9CDHashMapINS_8internal12NodeTemplateILb1EEEjSt4hashIS4_EEE = linkonce_odr hidden constant { ptr, ptr, ptr } { ptr getelementptr inbounds (ptr, ptr @_ZTVN10__cxxabiv120__si_class_type_infoE, i64 2), ptr @_ZTSN4cvc57context9CDHashMapINS_8internal12NodeTemplateILb1EEEjSt4hashIS4_EEE, ptr @_ZTIN4cvc57context10ContextObjE }, comdat, align 8
@__PRETTY_FUNCTION__._ZN4cvc57context9CDHashMapINS_8internal12NodeTemplateILb1EEEjSt4hashIS4_EE4saveEPNS0_20ContextMemoryManagerE = private unnamed_addr constant [232 x i8] c"virtual ContextObj *cvc5::context::CDHashMap<cvc5::internal::NodeTemplate<true>, unsigned int>::save(ContextMemoryManager *) [Key = cvc5::internal::NodeTemplate<true>, Data = unsigned int, HashFcn = std::hash<cvc5::internal::Node>]\00", align 1
@.str.423 = private unnamed_addr constant [111 x i8] c"generated/home/dtcxzyw/WorkSpace/Projects/compilers/llvm-opt-benchmark/bench/cvc5/cvc5/src/context/cdhashmap.h\00", align 1
@__PRETTY_FUNCTION__._ZN4cvc57context9CDHashMapINS_8internal12NodeTemplateILb1EEEjSt4hashIS4_EE7restoreEPNS0_10ContextObjE = private unnamed_addr constant [218 x i8] c"virtual void cvc5::context::CDHashMap<cvc5::internal::NodeTemplate<true>, unsigned int>::restore(ContextObj *) [Key = cvc5::internal::NodeTemplate<true>, Data = unsigned int, HashFcn = std::hash<cvc5::internal::Node>]\00", align 1
@__PRETTY_FUNCTION__._ZN4cvc57context10ContextObjdlEPv = private unnamed_addr constant [63 x i8] c"static void cvc5::context::ContextObj::operator delete(void *)\00", align 1
@.str.424 = private unnamed_addr constant [109 x i8] c"generated/home/dtcxzyw/WorkSpace/Projects/compilers/llvm-opt-benchmark/bench/cvc5/cvc5/src/context/context.h\00", align 1
@.str.425 = private unnamed_addr constant [17 x i8] c"Check failure\0A\0A \00", align 1
@.str.426 = private unnamed_addr constant [2 x i8] c"\0A\00", align 1
@.str.427 = private unnamed_addr constant [51 x i8] c"It is not allowed to delete a ContextObj this way!\00", align 1
@_ZTVN4cvc57context6CDListINS_8internal12NodeTemplateILb1EEENS0_14DefaultCleanUpIS4_EESaIS4_EEE = linkonce_odr hidden unnamed_addr constant { [6 x ptr] } { [6 x ptr] [ptr null, ptr @_ZTIN4cvc57context6CDListINS_8internal12NodeTemplateILb1EEENS0_14DefaultCleanUpIS4_EESaIS4_EEE, ptr @_ZN4cvc57context6CDListINS_8internal12NodeTemplateILb1EEENS0_14DefaultCleanUpIS4_EESaIS4_EE4saveEPNS0_20ContextMemoryManagerE, ptr @_ZN4cvc57context6CDListINS_8internal12NodeTemplateILb1EEENS0_14DefaultCleanUpIS4_EESaIS4_EE7restoreEPNS0_10ContextObjE, ptr @_ZN4cvc57context6CDListINS_8internal12NodeTemplateILb1EEENS0_14DefaultCleanUpIS4_EESaIS4_EED2Ev, ptr @_ZN4cvc57context6CDListINS_8internal12NodeTemplateILb1EEENS0_14DefaultCleanUpIS4_EESaIS4_EED0Ev] }, comdat, align 8
@_ZTSN4cvc57context6CDListINS_8internal12NodeTemplateILb1EEENS0_14DefaultCleanUpIS4_EESaIS4_EEE = linkonce_odr hidden constant [91 x i8] c"N4cvc57context6CDListINS_8internal12NodeTemplateILb1EEENS0_14DefaultCleanUpIS4_EESaIS4_EEE\00", comdat, align 1
@_ZTIN4cvc57context6CDListINS_8internal12NodeTemplateILb1EEENS0_14DefaultCleanUpIS4_EESaIS4_EEE = linkonce_odr hidden constant { ptr, ptr, ptr } { ptr getelementptr inbounds (ptr, ptr @_ZTVN10__cxxabiv120__si_class_type_infoE, i64 2), ptr @_ZTSN4cvc57context6CDListINS_8internal12NodeTemplateILb1EEENS0_14DefaultCleanUpIS4_EESaIS4_EEE, ptr @_ZTIN4cvc57context10ContextObjE }, comdat, align 8
@_ZN4cvc58internal10nullStreamE = external global %"class.cvc5::internal::NullC", align 1
@_ZN4cvc58internal12TraceChannelE = external global %"class.cvc5::internal::TraceC", align 8
@.str.428 = private unnamed_addr constant [12 x i8] c"copy ctor: \00", align 1
@.str.429 = private unnamed_addr constant [7 x i8] c" from \00", align 1
@.str.430 = private unnamed_addr constant [7 x i8] c" size \00", align 1
@_ZTVN4cvc57context10ContextObjE = linkonce_odr unnamed_addr constant { [6 x ptr] } { [6 x ptr] [ptr null, ptr @_ZTIN4cvc57context10ContextObjE, ptr @__cxa_pure_virtual, ptr @__cxa_pure_virtual, ptr @_ZN4cvc57context10ContextObjD2Ev, ptr @_ZN4cvc57context10ContextObjD0Ev] }, comdat, align 8
@_ZN4cvc58internal11Cvc5ostream16s_indentIosIndexE = external constant i32, align 4
@_ZN4cvc58internal11Cvc5ostream5s_tabB5cxx11E = external global %"class.std::__cxx11::basic_string", align 8
@.str.431 = private unnamed_addr constant [4 x i8] c"(- \00", align 1
@.str.432 = private unnamed_addr constant [3 x i8] c".0\00", align 1
@.str.433 = private unnamed_addr constant [4 x i8] c"(/ \00", align 1
@.str.434 = private unnamed_addr constant [8 x i8] c"(error \00", align 1
@_ZZN4cvc58internal4expr9NodeValue4nullEvE6s_null = linkonce_odr global ptr null, comdat, align 8
@_ZGVZN4cvc58internal4expr9NodeValue4nullEvE6s_null = linkonce_odr global i64 0, comdat, align 8
@.str.435 = private unnamed_addr constant [50 x i8] c"basic_string: construction from null is not valid\00", align 1
@_ZTIN4cvc58internal28TypeCheckingExceptionPrivateE = external constant ptr
@.str.436 = private unnamed_addr constant [26 x i8] c"vector::_M_realloc_insert\00", align 1
@.str.437 = private unnamed_addr constant [49 x i8] c"cannot create std::vector larger than max_size()\00", align 1
@llvm.global_ctors = appending global [1 x { i32, ptr, ptr }] [{ i32, ptr, ptr } { i32 65535, ptr @_GLOBAL__sub_I_smt2_printer.cpp, ptr null }]

; Function Attrs: uwtable
define internal void @__cxx_global_var_init() #0 section ".text.startup" {
entry:
  call void @_ZNSt8ios_base4InitC1Ev(ptr noundef nonnull align 1 dereferenceable(1) @_ZStL8__ioinit)
  %0 = call i32 @__cxa_atexit(ptr @_ZNSt8ios_base4InitD1Ev, ptr @_ZStL8__ioinit, ptr @__dso_handle) #3
  ret void
}

declare void @_ZNSt8ios_base4InitC1Ev(ptr noundef nonnull align 1 dereferenceable(1)) unnamed_addr #1

; Function Attrs: nounwind
declare void @_ZNSt8ios_base4InitD1Ev(ptr noundef nonnull align 1 dereferenceable(1)) unnamed_addr #2

; Function Attrs: nounwind
declare i32 @__cxa_atexit(ptr, ptr, ptr) #3

; Function Attrs: mustprogress uwtable
define hidden void @_ZNK4cvc58internal7printer4smt211Smt2Printer8toStreamERSoNS0_12NodeTemplateILb0EEEim(ptr noundef nonnull align 8 dereferenceable(12) %this, ptr noundef nonnull align 8 dereferenceable(8) %out, ptr noundef %n, i32 noundef %toDepth, i64 noundef %dag) #4 align 2 personality ptr @__gxx_personality_v0 {
entry:
  %this.addr = alloca ptr, align 8
  %out.addr = alloca ptr, align 8
  %n.indirect_addr = alloca ptr, align 8
  %toDepth.addr = alloca i32, align 4
  %dag.addr = alloca i64, align 8
  %agg.tmp = alloca %"class.cvc5::internal::NodeTemplate", align 8
  %exn.slot = alloca ptr, align 8
  %ehselector.slot = alloca i32, align 4
  %lbind = alloca %"class.cvc5::internal::LetBinding", align 8
  %ref.tmp = alloca %"class.std::__cxx11::basic_string", align 8
  %ref.tmp2 = alloca %"class.std::allocator", align 1
  %cparen = alloca %"class.std::__cxx11::basic_string", align 8
  %letList = alloca %"class.std::vector.3", align 8
  %agg.tmp7 = alloca %"class.cvc5::internal::NodeTemplate.13", align 8
  %cparens = alloca %"class.std::__cxx11::basic_stringstream", align 8
  %it = alloca %"struct.std::_Rb_tree_const_iterator", align 8
  %i = alloca i64, align 8
  %nlets = alloca i64, align 8
  %nl = alloca %"class.cvc5::internal::NodeTemplate.13", align 8
  %id = alloca i32, align 4
  %agg.tmp23 = alloca %"class.cvc5::internal::NodeTemplate.13", align 8
  %agg.tmp35 = alloca %"class.cvc5::internal::NodeTemplate", align 8
  %ref.tmp45 = alloca %"class.std::__cxx11::basic_string", align 8
  %agg.tmp50 = alloca %"class.cvc5::internal::NodeTemplate", align 8
  store ptr %this, ptr %this.addr, align 8
  store ptr %out, ptr %out.addr, align 8
  store ptr %n, ptr %n.indirect_addr, align 8
  store i32 %toDepth, ptr %toDepth.addr, align 4
  store i64 %dag, ptr %dag.addr, align 8
  %this1 = load ptr, ptr %this.addr, align 8
  %0 = load i64, ptr %dag.addr, align 8
  %cmp = icmp eq i64 %0, 0
  br i1 %cmp, label %if.then, label %if.end

if.then:                                          ; preds = %entry
  %1 = load ptr, ptr %out.addr, align 8
  call void @_ZN4cvc58internal12NodeTemplateILb0EEC2ERKS2_(ptr noundef nonnull align 8 dereferenceable(8) %agg.tmp, ptr noundef nonnull align 8 dereferenceable(8) %n)
  %2 = load i32, ptr %toDepth.addr, align 4
  invoke void @_ZNK4cvc58internal7printer4smt211Smt2Printer8toStreamERSoNS0_12NodeTemplateILb0EEEPKNS0_10LetBindingEib(ptr noundef nonnull align 8 dereferenceable(12) %this1, ptr noundef nonnull align 8 dereferenceable(8) %1, ptr noundef %agg.tmp, ptr noundef null, i32 noundef %2, i1 noundef zeroext true)
          to label %invoke.cont unwind label %lpad

invoke.cont:                                      ; preds = %if.then
  call void @_ZN4cvc58internal12NodeTemplateILb0EED2Ev(ptr noundef nonnull align 8 dereferenceable(8) %agg.tmp) #3
  br label %return

lpad:                                             ; preds = %if.then
  %3 = landingpad { ptr, i32 }
          cleanup
  %4 = extractvalue { ptr, i32 } %3, 0
  store ptr %4, ptr %exn.slot, align 8
  %5 = extractvalue { ptr, i32 } %3, 1
  store i32 %5, ptr %ehselector.slot, align 4
  call void @_ZN4cvc58internal12NodeTemplateILb0EED2Ev(ptr noundef nonnull align 8 dereferenceable(8) %agg.tmp) #3
  br label %eh.resume

if.end:                                           ; preds = %entry
  call void @_ZNSaIcEC1Ev(ptr noundef nonnull align 1 dereferenceable(1) %ref.tmp2) #3
  invoke void @_ZNSt7__cxx1112basic_stringIcSt11char_traitsIcESaIcEEC2IS3_EEPKcRKS3_(ptr noundef nonnull align 8 dereferenceable(32) %ref.tmp, ptr noundef @.str, ptr noundef nonnull align 1 dereferenceable(1) %ref.tmp2)
          to label %invoke.cont4 unwind label %lpad3

invoke.cont4:                                     ; preds = %if.end
  %6 = load i64, ptr %dag.addr, align 8
  %add = add i64 %6, 1
  %conv = trunc i64 %add to i32
  invoke void @_ZN4cvc58internal10LetBindingC1ERKNSt7__cxx1112basic_stringIcSt11char_traitsIcESaIcEEEj(ptr noundef nonnull align 8 dereferenceable(472) %lbind, ptr noundef nonnull align 8 dereferenceable(32) %ref.tmp, i32 noundef %conv)
          to label %invoke.cont6 unwind label %lpad5

invoke.cont6:                                     ; preds = %invoke.cont4
  call void @_ZNSt7__cxx1112basic_stringIcSt11char_traitsIcESaIcEED1Ev(ptr noundef nonnull align 8 dereferenceable(32) %ref.tmp) #3
  call void @_ZNSaIcED1Ev(ptr noundef nonnull align 1 dereferenceable(1) %ref.tmp2) #3
  call void @_ZNSt7__cxx1112basic_stringIcSt11char_traitsIcESaIcEEC1Ev(ptr noundef nonnull align 8 dereferenceable(32) %cparen) #3
  call void @_ZNSt6vectorIN4cvc58internal12NodeTemplateILb1EEESaIS3_EEC2Ev(ptr noundef nonnull align 8 dereferenceable(24) %letList) #3
  invoke void @_ZN4cvc58internal12NodeTemplateILb1EEC2ERKNS1_ILb0EEE(ptr noundef nonnull align 8 dereferenceable(8) %agg.tmp7, ptr noundef nonnull align 8 dereferenceable(8) %n)
          to label %invoke.cont9 unwind label %lpad8

invoke.cont9:                                     ; preds = %invoke.cont6
  invoke void @_ZN4cvc58internal10LetBinding6letifyENS0_12NodeTemplateILb1EEERSt6vectorIS3_SaIS3_EE(ptr noundef nonnull align 8 dereferenceable(472) %lbind, ptr noundef %agg.tmp7, ptr noundef nonnull align 8 dereferenceable(24) %letList)
          to label %invoke.cont11 unwind label %lpad10

invoke.cont11:                                    ; preds = %invoke.cont9
  call void @_ZN4cvc58internal12NodeTemplateILb1EED2Ev(ptr noundef nonnull align 8 dereferenceable(8) %agg.tmp7) #3
  %call = call noundef zeroext i1 @_ZNKSt6vectorIN4cvc58internal12NodeTemplateILb1EEESaIS3_EE5emptyEv(ptr noundef nonnull align 8 dereferenceable(24) %letList) #3
  br i1 %call, label %if.end49, label %if.then13

if.then13:                                        ; preds = %invoke.cont11
  invoke void @_ZNSt7__cxx1118basic_stringstreamIcSt11char_traitsIcESaIcEEC1Ev(ptr noundef nonnull align 8 dereferenceable(128) %cparens)
          to label %invoke.cont14 unwind label %lpad8

invoke.cont14:                                    ; preds = %if.then13
  call void @_ZNSt23_Rb_tree_const_iteratorISt4pairIKN4cvc58internal12NodeTemplateILb1EEEjEEC2Ev(ptr noundef nonnull align 8 dereferenceable(8) %it) #3
  store i64 0, ptr %i, align 8
  %call15 = call noundef i64 @_ZNKSt6vectorIN4cvc58internal12NodeTemplateILb1EEESaIS3_EE4sizeEv(ptr noundef nonnull align 8 dereferenceable(24) %letList) #3
  store i64 %call15, ptr %nlets, align 8
  br label %for.cond

for.cond:                                         ; preds = %for.inc, %invoke.cont14
  %7 = load i64, ptr %i, align 8
  %8 = load i64, ptr %nlets, align 8
  %cmp16 = icmp ult i64 %7, %8
  br i1 %cmp16, label %for.body, label %for.end

for.body:                                         ; preds = %for.cond
  %9 = load i64, ptr %i, align 8
  %call17 = call noundef nonnull align 8 dereferenceable(8) ptr @_ZNSt6vectorIN4cvc58internal12NodeTemplateILb1EEESaIS3_EEixEm(ptr noundef nonnull align 8 dereferenceable(24) %letList, i64 noundef %9) #3
  invoke void @_ZN4cvc58internal12NodeTemplateILb1EEC2ERKS2_(ptr noundef nonnull align 8 dereferenceable(8) %nl, ptr noundef nonnull align 8 dereferenceable(8) %call17)
          to label %invoke.cont19 unwind label %lpad18

invoke.cont19:                                    ; preds = %for.body
  %10 = load ptr, ptr %out.addr, align 8
  %call22 = invoke noundef nonnull align 8 dereferenceable(8) ptr @_ZStlsISt11char_traitsIcEERSt13basic_ostreamIcT_ES5_PKc(ptr noundef nonnull align 8 dereferenceable(8) %10, ptr noundef @.str.1)
          to label %invoke.cont21 unwind label %lpad20

invoke.cont21:                                    ; preds = %invoke.cont19
  invoke void @_ZN4cvc58internal12NodeTemplateILb1EEC2ERKS2_(ptr noundef nonnull align 8 dereferenceable(8) %agg.tmp23, ptr noundef nonnull align 8 dereferenceable(8) %nl)
          to label %invoke.cont24 unwind label %lpad20

invoke.cont24:                                    ; preds = %invoke.cont21
  %call27 = invoke noundef i32 @_ZNK4cvc58internal10LetBinding5getIdENS0_12NodeTemplateILb1EEE(ptr noundef nonnull align 8 dereferenceable(472) %lbind, ptr noundef %agg.tmp23)
          to label %invoke.cont26 unwind label %lpad25

invoke.cont26:                                    ; preds = %invoke.cont24
  call void @_ZN4cvc58internal12NodeTemplateILb1EED2Ev(ptr noundef nonnull align 8 dereferenceable(8) %agg.tmp23) #3
  store i32 %call27, ptr %id, align 4
  %11 = load ptr, ptr %out.addr, align 8
  %call30 = invoke noundef nonnull align 8 dereferenceable(8) ptr @_ZStlsISt11char_traitsIcEERSt13basic_ostreamIcT_ES5_PKc(ptr noundef nonnull align 8 dereferenceable(8) %11, ptr noundef @.str)
          to label %invoke.cont29 unwind label %lpad20

invoke.cont29:                                    ; preds = %invoke.cont26
  %12 = load i32, ptr %id, align 4
  %call32 = invoke noundef nonnull align 8 dereferenceable(8) ptr @_ZNSolsEj(ptr noundef nonnull align 8 dereferenceable(8) %call30, i32 noundef %12)
          to label %invoke.cont31 unwind label %lpad20

invoke.cont31:                                    ; preds = %invoke.cont29
  %call34 = invoke noundef nonnull align 8 dereferenceable(8) ptr @_ZStlsISt11char_traitsIcEERSt13basic_ostreamIcT_ES5_PKc(ptr noundef nonnull align 8 dereferenceable(8) %call32, ptr noundef @.str.2)
          to label %invoke.cont33 unwind label %lpad20

invoke.cont33:                                    ; preds = %invoke.cont31
  %13 = load ptr, ptr %out.addr, align 8
  invoke void @_ZN4cvc58internal12NodeTemplateILb0EEC2ERKNS1_ILb1EEE(ptr noundef nonnull align 8 dereferenceable(8) %agg.tmp35, ptr noundef nonnull align 8 dereferenceable(8) %nl)
          to label %invoke.cont36 unwind label %lpad20

invoke.cont36:                                    ; preds = %invoke.cont33
  %14 = load i32, ptr %toDepth.addr, align 4
  invoke void @_ZNK4cvc58internal7printer4smt211Smt2Printer8toStreamERSoNS0_12NodeTemplateILb0EEEPKNS0_10LetBindingEib(ptr noundef nonnull align 8 dereferenceable(12) %this1, ptr noundef nonnull align 8 dereferenceable(8) %13, ptr noundef %agg.tmp35, ptr noundef %lbind, i32 noundef %14, i1 noundef zeroext false)
          to label %invoke.cont38 unwind label %lpad37

invoke.cont38:                                    ; preds = %invoke.cont36
  call void @_ZN4cvc58internal12NodeTemplateILb0EED2Ev(ptr noundef nonnull align 8 dereferenceable(8) %agg.tmp35) #3
  %15 = load ptr, ptr %out.addr, align 8
  %call41 = invoke noundef nonnull align 8 dereferenceable(8) ptr @_ZStlsISt11char_traitsIcEERSt13basic_ostreamIcT_ES5_PKc(ptr noundef nonnull align 8 dereferenceable(8) %15, ptr noundef @.str.3)
          to label %invoke.cont40 unwind label %lpad20

invoke.cont40:                                    ; preds = %invoke.cont38
  %add.ptr = getelementptr inbounds i8, ptr %cparens, i64 16
  %call43 = invoke noundef nonnull align 8 dereferenceable(8) ptr @_ZStlsISt11char_traitsIcEERSt13basic_ostreamIcT_ES5_PKc(ptr noundef nonnull align 8 dereferenceable(8) %add.ptr, ptr noundef @.str.4)
          to label %invoke.cont42 unwind label %lpad20

invoke.cont42:                                    ; preds = %invoke.cont40
  call void @_ZN4cvc58internal12NodeTemplateILb1EED2Ev(ptr noundef nonnull align 8 dereferenceable(8) %nl) #3
  br label %for.inc

for.inc:                                          ; preds = %invoke.cont42
  %16 = load i64, ptr %i, align 8
  %inc = add i64 %16, 1
  store i64 %inc, ptr %i, align 8
  br label %for.cond, !llvm.loop !4

lpad3:                                            ; preds = %if.end
  %17 = landingpad { ptr, i32 }
          cleanup
  %18 = extractvalue { ptr, i32 } %17, 0
  store ptr %18, ptr %exn.slot, align 8
  %19 = extractvalue { ptr, i32 } %17, 1
  store i32 %19, ptr %ehselector.slot, align 4
  br label %ehcleanup

lpad5:                                            ; preds = %invoke.cont4
  %20 = landingpad { ptr, i32 }
          cleanup
  %21 = extractvalue { ptr, i32 } %20, 0
  store ptr %21, ptr %exn.slot, align 8
  %22 = extractvalue { ptr, i32 } %20, 1
  store i32 %22, ptr %ehselector.slot, align 4
  call void @_ZNSt7__cxx1112basic_stringIcSt11char_traitsIcESaIcEED1Ev(ptr noundef nonnull align 8 dereferenceable(32) %ref.tmp) #3
  br label %ehcleanup

ehcleanup:                                        ; preds = %lpad5, %lpad3
  call void @_ZNSaIcED1Ev(ptr noundef nonnull align 1 dereferenceable(1) %ref.tmp2) #3
  br label %eh.resume

lpad8:                                            ; preds = %invoke.cont55, %invoke.cont53, %if.end49, %if.then13, %invoke.cont6
  %23 = landingpad { ptr, i32 }
          cleanup
  %24 = extractvalue { ptr, i32 } %23, 0
  store ptr %24, ptr %exn.slot, align 8
  %25 = extractvalue { ptr, i32 } %23, 1
  store i32 %25, ptr %ehselector.slot, align 4
  br label %ehcleanup58

lpad10:                                           ; preds = %invoke.cont9
  %26 = landingpad { ptr, i32 }
          cleanup
  %27 = extractvalue { ptr, i32 } %26, 0
  store ptr %27, ptr %exn.slot, align 8
  %28 = extractvalue { ptr, i32 } %26, 1
  store i32 %28, ptr %ehselector.slot, align 4
  call void @_ZN4cvc58internal12NodeTemplateILb1EED2Ev(ptr noundef nonnull align 8 dereferenceable(8) %agg.tmp7) #3
  br label %ehcleanup58

lpad18:                                           ; preds = %for.end, %for.body
  %29 = landingpad { ptr, i32 }
          cleanup
  %30 = extractvalue { ptr, i32 } %29, 0
  store ptr %30, ptr %exn.slot, align 8
  %31 = extractvalue { ptr, i32 } %29, 1
  store i32 %31, ptr %ehselector.slot, align 4
  br label %ehcleanup48

lpad20:                                           ; preds = %invoke.cont40, %invoke.cont38, %invoke.cont33, %invoke.cont31, %invoke.cont29, %invoke.cont26, %invoke.cont21, %invoke.cont19
  %32 = landingpad { ptr, i32 }
          cleanup
  %33 = extractvalue { ptr, i32 } %32, 0
  store ptr %33, ptr %exn.slot, align 8
  %34 = extractvalue { ptr, i32 } %32, 1
  store i32 %34, ptr %ehselector.slot, align 4
  br label %ehcleanup44

lpad25:                                           ; preds = %invoke.cont24
  %35 = landingpad { ptr, i32 }
          cleanup
  %36 = extractvalue { ptr, i32 } %35, 0
  store ptr %36, ptr %exn.slot, align 8
  %37 = extractvalue { ptr, i32 } %35, 1
  store i32 %37, ptr %ehselector.slot, align 4
  call void @_ZN4cvc58internal12NodeTemplateILb1EED2Ev(ptr noundef nonnull align 8 dereferenceable(8) %agg.tmp23) #3
  br label %ehcleanup44

lpad37:                                           ; preds = %invoke.cont36
  %38 = landingpad { ptr, i32 }
          cleanup
  %39 = extractvalue { ptr, i32 } %38, 0
  store ptr %39, ptr %exn.slot, align 8
  %40 = extractvalue { ptr, i32 } %38, 1
  store i32 %40, ptr %ehselector.slot, align 4
  call void @_ZN4cvc58internal12NodeTemplateILb0EED2Ev(ptr noundef nonnull align 8 dereferenceable(8) %agg.tmp35) #3
  br label %ehcleanup44

ehcleanup44:                                      ; preds = %lpad37, %lpad25, %lpad20
  call void @_ZN4cvc58internal12NodeTemplateILb1EED2Ev(ptr noundef nonnull align 8 dereferenceable(8) %nl) #3
  br label %ehcleanup48

for.end:                                          ; preds = %for.cond
  invoke void @_ZNKSt7__cxx1118basic_stringstreamIcSt11char_traitsIcESaIcEE3strEv(ptr sret(%"class.std::__cxx11::basic_string") align 8 %ref.tmp45, ptr noundef nonnull align 8 dereferenceable(128) %cparens)
          to label %invoke.cont46 unwind label %lpad18

invoke.cont46:                                    ; preds = %for.end
  %call47 = call noundef nonnull align 8 dereferenceable(32) ptr @_ZNSt7__cxx1112basic_stringIcSt11char_traitsIcESaIcEEaSEOS4_(ptr noundef nonnull align 8 dereferenceable(32) %cparen, ptr noundef nonnull align 8 dereferenceable(32) %ref.tmp45) #3
  call void @_ZNSt7__cxx1112basic_stringIcSt11char_traitsIcESaIcEED1Ev(ptr noundef nonnull align 8 dereferenceable(32) %ref.tmp45) #3
  call void @_ZNSt7__cxx1118basic_stringstreamIcSt11char_traitsIcESaIcEED1Ev(ptr noundef nonnull align 8 dereferenceable(128) %cparens) #3
  br label %if.end49

ehcleanup48:                                      ; preds = %ehcleanup44, %lpad18
  call void @_ZNSt7__cxx1118basic_stringstreamIcSt11char_traitsIcESaIcEED1Ev(ptr noundef nonnull align 8 dereferenceable(128) %cparens) #3
  br label %ehcleanup58

if.end49:                                         ; preds = %invoke.cont46, %invoke.cont11
  %41 = load ptr, ptr %out.addr, align 8
  invoke void @_ZN4cvc58internal12NodeTemplateILb0EEC2ERKS2_(ptr noundef nonnull align 8 dereferenceable(8) %agg.tmp50, ptr noundef nonnull align 8 dereferenceable(8) %n)
          to label %invoke.cont51 unwind label %lpad8

invoke.cont51:                                    ; preds = %if.end49
  %42 = load i32, ptr %toDepth.addr, align 4
  invoke void @_ZNK4cvc58internal7printer4smt211Smt2Printer8toStreamERSoNS0_12NodeTemplateILb0EEEPKNS0_10LetBindingEib(ptr noundef nonnull align 8 dereferenceable(12) %this1, ptr noundef nonnull align 8 dereferenceable(8) %41, ptr noundef %agg.tmp50, ptr noundef %lbind, i32 noundef %42, i1 noundef zeroext true)
          to label %invoke.cont53 unwind label %lpad52

invoke.cont53:                                    ; preds = %invoke.cont51
  call void @_ZN4cvc58internal12NodeTemplateILb0EED2Ev(ptr noundef nonnull align 8 dereferenceable(8) %agg.tmp50) #3
  %43 = load ptr, ptr %out.addr, align 8
  %call56 = invoke noundef nonnull align 8 dereferenceable(8) ptr @_ZStlsIcSt11char_traitsIcESaIcEERSt13basic_ostreamIT_T0_ES7_RKNSt7__cxx1112basic_stringIS4_S5_T1_EE(ptr noundef nonnull align 8 dereferenceable(8) %43, ptr noundef nonnull align 8 dereferenceable(32) %cparen)
          to label %invoke.cont55 unwind label %lpad8

invoke.cont55:                                    ; preds = %invoke.cont53
  invoke void @_ZN4cvc58internal10LetBinding8popScopeEv(ptr noundef nonnull align 8 dereferenceable(472) %lbind)
          to label %invoke.cont57 unwind label %lpad8

invoke.cont57:                                    ; preds = %invoke.cont55
  call void @_ZNSt6vectorIN4cvc58internal12NodeTemplateILb1EEESaIS3_EED2Ev(ptr noundef nonnull align 8 dereferenceable(24) %letList) #3
  call void @_ZNSt7__cxx1112basic_stringIcSt11char_traitsIcESaIcEED1Ev(ptr noundef nonnull align 8 dereferenceable(32) %cparen) #3
  call void @_ZN4cvc58internal10LetBindingD2Ev(ptr noundef nonnull align 8 dereferenceable(472) %lbind) #3
  br label %return

return:                                           ; preds = %invoke.cont57, %invoke.cont
  ret void

lpad52:                                           ; preds = %invoke.cont51
  %44 = landingpad { ptr, i32 }
          cleanup
  %45 = extractvalue { ptr, i32 } %44, 0
  store ptr %45, ptr %exn.slot, align 8
  %46 = extractvalue { ptr, i32 } %44, 1
  store i32 %46, ptr %ehselector.slot, align 4
  call void @_ZN4cvc58internal12NodeTemplateILb0EED2Ev(ptr noundef nonnull align 8 dereferenceable(8) %agg.tmp50) #3
  br label %ehcleanup58

ehcleanup58:                                      ; preds = %lpad52, %ehcleanup48, %lpad10, %lpad8
  call void @_ZNSt6vectorIN4cvc58internal12NodeTemplateILb1EEESaIS3_EED2Ev(ptr noundef nonnull align 8 dereferenceable(24) %letList) #3
  call void @_ZNSt7__cxx1112basic_stringIcSt11char_traitsIcESaIcEED1Ev(ptr noundef nonnull align 8 dereferenceable(32) %cparen) #3
  call void @_ZN4cvc58internal10LetBindingD2Ev(ptr noundef nonnull align 8 dereferenceable(472) %lbind) #3
  br label %eh.resume

eh.resume:                                        ; preds = %ehcleanup58, %ehcleanup, %lpad
  %exn = load ptr, ptr %exn.slot, align 8
  %sel = load i32, ptr %ehselector.slot, align 4
  %lpad.val = insertvalue { ptr, i32 } poison, ptr %exn, 0
  %lpad.val61 = insertvalue { ptr, i32 } %lpad.val, i32 %sel, 1
  resume { ptr, i32 } %lpad.val61
}

; Function Attrs: mustprogress uwtable
define hidden void @_ZNK4cvc58internal7printer4smt211Smt2Printer8toStreamERSoNS0_12NodeTemplateILb0EEEPKNS0_10LetBindingEib(ptr noundef nonnull align 8 dereferenceable(12) %this, ptr noundef nonnull align 8 dereferenceable(8) %out, ptr noundef %n, ptr noundef %lbind, i32 noundef %toDepth, i1 noundef zeroext %lbindTop) #4 align 2 personality ptr @__gxx_personality_v0 {
entry:
  %this.addr = alloca ptr, align 8
  %out.addr = alloca ptr, align 8
  %n.indirect_addr = alloca ptr, align 8
  %lbind.addr = alloca ptr, align 8
  %toDepth.addr = alloca i32, align 4
  %lbindTop.addr = alloca i8, align 1
  %visit = alloca %"class.std::vector.197", align 8
  %cur = alloca %"class.cvc5::internal::NodeTemplate", align 8
  %exn.slot = alloca ptr, align 8
  %ehselector.slot = alloca i32, align 4
  %curChild = alloca i64, align 8
  %cdepth = alloca i32, align 4
  %ref.tmp = alloca i32, align 4
  %lid = alloca i32, align 4
  %agg.tmp = alloca %"class.cvc5::internal::NodeTemplate.13", align 8
  %agg.tmp29 = alloca %"class.cvc5::internal::NodeTemplate", align 8
  %ref.tmp54 = alloca %"class.cvc5::internal::NodeTemplate", align 8
  %ref.tmp56 = alloca i32, align 4
  %ref.tmp57 = alloca i32, align 4
  store ptr %this, ptr %this.addr, align 8
  store ptr %out, ptr %out.addr, align 8
  store ptr %n, ptr %n.indirect_addr, align 8
  store ptr %lbind, ptr %lbind.addr, align 8
  store i32 %toDepth, ptr %toDepth.addr, align 4
  %frombool = zext i1 %lbindTop to i8
  store i8 %frombool, ptr %lbindTop.addr, align 1
  %this1 = load ptr, ptr %this.addr, align 8
  call void @_ZNSt6vectorISt5tupleIJN4cvc58internal12NodeTemplateILb0EEEmiEESaIS5_EEC2Ev(ptr noundef nonnull align 8 dereferenceable(24) %visit) #3
  invoke void @_ZN4cvc58internal12NodeTemplateILb0EEC2Ev(ptr noundef nonnull align 8 dereferenceable(8) %cur)
          to label %invoke.cont unwind label %lpad

invoke.cont:                                      ; preds = %entry
  store i32 0, ptr %ref.tmp, align 4
  %call = invoke noundef nonnull align 8 dereferenceable(24) ptr @_ZNSt6vectorISt5tupleIJN4cvc58internal12NodeTemplateILb0EEEmiEESaIS5_EE12emplace_backIJRS4_iRiEEERS5_DpOT_(ptr noundef nonnull align 8 dereferenceable(24) %visit, ptr noundef nonnull align 8 dereferenceable(8) %n, ptr noundef nonnull align 4 dereferenceable(4) %ref.tmp, ptr noundef nonnull align 4 dereferenceable(4) %toDepth.addr)
          to label %invoke.cont3 unwind label %lpad2

invoke.cont3:                                     ; preds = %invoke.cont
  br label %do.body

do.body:                                          ; preds = %do.cond, %invoke.cont3
  %call4 = call noundef nonnull align 8 dereferenceable(24) ptr @_ZNSt6vectorISt5tupleIJN4cvc58internal12NodeTemplateILb0EEEmiEESaIS5_EE4backEv(ptr noundef nonnull align 8 dereferenceable(24) %visit) #3
  %call5 = call noundef nonnull align 8 dereferenceable(8) ptr @_ZSt3getILm0EJN4cvc58internal12NodeTemplateILb0EEEmiEERNSt13tuple_elementIXT_ESt5tupleIJDpT0_EEE4typeERS8_(ptr noundef nonnull align 8 dereferenceable(24) %call4) #3
  %call7 = invoke noundef nonnull align 8 dereferenceable(8) ptr @_ZN4cvc58internal12NodeTemplateILb0EEaSERKS2_(ptr noundef nonnull align 8 dereferenceable(8) %cur, ptr noundef nonnull align 8 dereferenceable(8) %call5)
          to label %invoke.cont6 unwind label %lpad2

invoke.cont6:                                     ; preds = %do.body
  %call8 = call noundef nonnull align 8 dereferenceable(24) ptr @_ZNSt6vectorISt5tupleIJN4cvc58internal12NodeTemplateILb0EEEmiEESaIS5_EE4backEv(ptr noundef nonnull align 8 dereferenceable(24) %visit) #3
  %call9 = call noundef nonnull align 8 dereferenceable(8) ptr @_ZSt3getILm1EJN4cvc58internal12NodeTemplateILb0EEEmiEERNSt13tuple_elementIXT_ESt5tupleIJDpT0_EEE4typeERS8_(ptr noundef nonnull align 8 dereferenceable(24) %call8) #3
  %0 = load i64, ptr %call9, align 8
  store i64 %0, ptr %curChild, align 8
  %call10 = call noundef nonnull align 8 dereferenceable(24) ptr @_ZNSt6vectorISt5tupleIJN4cvc58internal12NodeTemplateILb0EEEmiEESaIS5_EE4backEv(ptr noundef nonnull align 8 dereferenceable(24) %visit) #3
  %call11 = call noundef nonnull align 4 dereferenceable(4) ptr @_ZSt3getILm2EJN4cvc58internal12NodeTemplateILb0EEEmiEERNSt13tuple_elementIXT_ESt5tupleIJDpT0_EEE4typeERS8_(ptr noundef nonnull align 8 dereferenceable(24) %call10) #3
  %1 = load i32, ptr %call11, align 4
  store i32 %1, ptr %cdepth, align 4
  %2 = load i64, ptr %curChild, align 8
  %cmp = icmp eq i64 %2, 0
  br i1 %cmp, label %if.then, label %if.end42

if.then:                                          ; preds = %invoke.cont6
  %3 = load ptr, ptr %lbind.addr, align 8
  %cmp12 = icmp ne ptr %3, null
  br i1 %cmp12, label %if.then13, label %if.end28

if.then13:                                        ; preds = %if.then
  %4 = load i8, ptr %lbindTop.addr, align 1
  %tobool = trunc i8 %4 to i1
  br i1 %tobool, label %if.then14, label %if.else

if.then14:                                        ; preds = %if.then13
  %5 = load ptr, ptr %lbind.addr, align 8
  invoke void @_ZN4cvc58internal12NodeTemplateILb1EEC2ERKNS1_ILb0EEE(ptr noundef nonnull align 8 dereferenceable(8) %agg.tmp, ptr noundef nonnull align 8 dereferenceable(8) %cur)
          to label %invoke.cont15 unwind label %lpad2

invoke.cont15:                                    ; preds = %if.then14
  %call18 = invoke noundef i32 @_ZNK4cvc58internal10LetBinding5getIdENS0_12NodeTemplateILb1EEE(ptr noundef nonnull align 8 dereferenceable(472) %5, ptr noundef %agg.tmp)
          to label %invoke.cont17 unwind label %lpad16

invoke.cont17:                                    ; preds = %invoke.cont15
  call void @_ZN4cvc58internal12NodeTemplateILb1EED2Ev(ptr noundef nonnull align 8 dereferenceable(8) %agg.tmp) #3
  store i32 %call18, ptr %lid, align 4
  %6 = load i32, ptr %lid, align 4
  %cmp19 = icmp ne i32 %6, 0
  br i1 %cmp19, label %if.then20, label %if.end

if.then20:                                        ; preds = %invoke.cont17
  %7 = load ptr, ptr %out.addr, align 8
  %8 = load ptr, ptr %lbind.addr, align 8
  %call22 = invoke noundef nonnull align 8 dereferenceable(32) ptr @_ZNK4cvc58internal10LetBinding9getPrefixB5cxx11Ev(ptr noundef nonnull align 8 dereferenceable(472) %8)
          to label %invoke.cont21 unwind label %lpad2

invoke.cont21:                                    ; preds = %if.then20
  %call24 = invoke noundef nonnull align 8 dereferenceable(8) ptr @_ZStlsIcSt11char_traitsIcESaIcEERSt13basic_ostreamIT_T0_ES7_RKNSt7__cxx1112basic_stringIS4_S5_T1_EE(ptr noundef nonnull align 8 dereferenceable(8) %7, ptr noundef nonnull align 8 dereferenceable(32) %call22)
          to label %invoke.cont23 unwind label %lpad2

invoke.cont23:                                    ; preds = %invoke.cont21
  %9 = load i32, ptr %lid, align 4
  %call26 = invoke noundef nonnull align 8 dereferenceable(8) ptr @_ZNSolsEj(ptr noundef nonnull align 8 dereferenceable(8) %call24, i32 noundef %9)
          to label %invoke.cont25 unwind label %lpad2

invoke.cont25:                                    ; preds = %invoke.cont23
  call void @_ZNSt6vectorISt5tupleIJN4cvc58internal12NodeTemplateILb0EEEmiEESaIS5_EE8pop_backEv(ptr noundef nonnull align 8 dereferenceable(24) %visit) #3
  br label %do.cond

lpad:                                             ; preds = %entry
  %10 = landingpad { ptr, i32 }
          cleanup
  %11 = extractvalue { ptr, i32 } %10, 0
  store ptr %11, ptr %exn.slot, align 8
  %12 = extractvalue { ptr, i32 } %10, 1
  store i32 %12, ptr %ehselector.slot, align 4
  br label %ehcleanup67

lpad2:                                            ; preds = %if.else62, %if.end53, %if.then50, %if.end42, %if.then37, %if.end28, %invoke.cont23, %invoke.cont21, %if.then20, %if.then14, %do.body, %invoke.cont
  %13 = landingpad { ptr, i32 }
          cleanup
  %14 = extractvalue { ptr, i32 } %13, 0
  store ptr %14, ptr %exn.slot, align 8
  %15 = extractvalue { ptr, i32 } %13, 1
  store i32 %15, ptr %ehselector.slot, align 4
  br label %ehcleanup

lpad16:                                           ; preds = %invoke.cont15
  %16 = landingpad { ptr, i32 }
          cleanup
  %17 = extractvalue { ptr, i32 } %16, 0
  store ptr %17, ptr %exn.slot, align 8
  %18 = extractvalue { ptr, i32 } %16, 1
  store i32 %18, ptr %ehselector.slot, align 4
  call void @_ZN4cvc58internal12NodeTemplateILb1EED2Ev(ptr noundef nonnull align 8 dereferenceable(8) %agg.tmp) #3
  br label %ehcleanup

if.end:                                           ; preds = %invoke.cont17
  br label %if.end27

if.else:                                          ; preds = %if.then13
  store i8 1, ptr %lbindTop.addr, align 1
  br label %if.end27

if.end27:                                         ; preds = %if.else, %if.end
  br label %if.end28

if.end28:                                         ; preds = %if.end27, %if.then
  %19 = load ptr, ptr %out.addr, align 8
  invoke void @_ZN4cvc58internal12NodeTemplateILb0EEC2ERKS2_(ptr noundef nonnull align 8 dereferenceable(8) %agg.tmp29, ptr noundef nonnull align 8 dereferenceable(8) %cur)
          to label %invoke.cont30 unwind label %lpad2

invoke.cont30:                                    ; preds = %if.end28
  %20 = load ptr, ptr %lbind.addr, align 8
  %21 = load i32, ptr %cdepth, align 4
  %call33 = invoke noundef zeroext i1 @_ZNK4cvc58internal7printer4smt211Smt2Printer12toStreamBaseERSoNS0_12NodeTemplateILb0EEEPKNS0_10LetBindingEi(ptr noundef nonnull align 8 dereferenceable(12) %this1, ptr noundef nonnull align 8 dereferenceable(8) %19, ptr noundef %agg.tmp29, ptr noundef %20, i32 noundef %21)
          to label %invoke.cont32 unwind label %lpad31

invoke.cont32:                                    ; preds = %invoke.cont30
  call void @_ZN4cvc58internal12NodeTemplateILb0EED2Ev(ptr noundef nonnull align 8 dereferenceable(8) %agg.tmp29) #3
  br i1 %call33, label %if.then34, label %if.else35

if.then34:                                        ; preds = %invoke.cont32
  call void @_ZNSt6vectorISt5tupleIJN4cvc58internal12NodeTemplateILb0EEEmiEESaIS5_EE8pop_backEv(ptr noundef nonnull align 8 dereferenceable(24) %visit) #3
  br label %do.cond

lpad31:                                           ; preds = %invoke.cont30
  %22 = landingpad { ptr, i32 }
          cleanup
  %23 = extractvalue { ptr, i32 } %22, 0
  store ptr %23, ptr %exn.slot, align 8
  %24 = extractvalue { ptr, i32 } %22, 1
  store i32 %24, ptr %ehselector.slot, align 4
  call void @_ZN4cvc58internal12NodeTemplateILb0EED2Ev(ptr noundef nonnull align 8 dereferenceable(8) %agg.tmp29) #3
  br label %ehcleanup

if.else35:                                        ; preds = %invoke.cont32
  %25 = load i32, ptr %cdepth, align 4
  %cmp36 = icmp eq i32 %25, 0
  br i1 %cmp36, label %if.then37, label %if.end40

if.then37:                                        ; preds = %if.else35
  call void @_ZNSt6vectorISt5tupleIJN4cvc58internal12NodeTemplateILb0EEEmiEESaIS5_EE8pop_backEv(ptr noundef nonnull align 8 dereferenceable(24) %visit) #3
  %26 = load ptr, ptr %out.addr, align 8
  %call39 = invoke noundef nonnull align 8 dereferenceable(8) ptr @_ZStlsISt11char_traitsIcEERSt13basic_ostreamIcT_ES5_PKc(ptr noundef nonnull align 8 dereferenceable(8) %26, ptr noundef @.str.78)
          to label %invoke.cont38 unwind label %lpad2

invoke.cont38:                                    ; preds = %if.then37
  br label %do.cond

if.end40:                                         ; preds = %if.else35
  br label %if.end41

if.end41:                                         ; preds = %if.end40
  br label %if.end42

if.end42:                                         ; preds = %if.end41, %invoke.cont6
  %27 = load i64, ptr %curChild, align 8
  %call44 = invoke noundef i64 @_ZNK4cvc58internal12NodeTemplateILb0EE14getNumChildrenEv(ptr noundef nonnull align 8 dereferenceable(8) %cur)
          to label %invoke.cont43 unwind label %lpad2

invoke.cont43:                                    ; preds = %if.end42
  %cmp45 = icmp ult i64 %27, %call44
  br i1 %cmp45, label %if.then46, label %if.else62

if.then46:                                        ; preds = %invoke.cont43
  %call47 = call noundef nonnull align 8 dereferenceable(24) ptr @_ZNSt6vectorISt5tupleIJN4cvc58internal12NodeTemplateILb0EEEmiEESaIS5_EE4backEv(ptr noundef nonnull align 8 dereferenceable(24) %visit) #3
  %call48 = call noundef nonnull align 8 dereferenceable(8) ptr @_ZSt3getILm1EJN4cvc58internal12NodeTemplateILb0EEEmiEERNSt13tuple_elementIXT_ESt5tupleIJDpT0_EEE4typeERS8_(ptr noundef nonnull align 8 dereferenceable(24) %call47) #3
  %28 = load i64, ptr %call48, align 8
  %inc = add i64 %28, 1
  store i64 %inc, ptr %call48, align 8
  %29 = load i64, ptr %curChild, align 8
  %cmp49 = icmp ugt i64 %29, 0
  br i1 %cmp49, label %if.then50, label %if.end53

if.then50:                                        ; preds = %if.then46
  %30 = load ptr, ptr %out.addr, align 8
  %call52 = invoke noundef nonnull align 8 dereferenceable(8) ptr @_ZStlsISt11char_traitsIcEERSt13basic_ostreamIcT_ES5_c(ptr noundef nonnull align 8 dereferenceable(8) %30, i8 noundef signext 32)
          to label %invoke.cont51 unwind label %lpad2

invoke.cont51:                                    ; preds = %if.then50
  br label %if.end53

if.end53:                                         ; preds = %invoke.cont51, %if.then46
  %31 = load i64, ptr %curChild, align 8
  %conv = trunc i64 %31 to i32
  invoke void @_ZNK4cvc58internal12NodeTemplateILb0EEixEi(ptr sret(%"class.cvc5::internal::NodeTemplate") align 8 %ref.tmp54, ptr noundef nonnull align 8 dereferenceable(8) %cur, i32 noundef %conv)
          to label %invoke.cont55 unwind label %lpad2

invoke.cont55:                                    ; preds = %if.end53
  store i32 0, ptr %ref.tmp56, align 4
  %32 = load i32, ptr %cdepth, align 4
  %cmp58 = icmp slt i32 %32, 0
  br i1 %cmp58, label %cond.true, label %cond.false

cond.true:                                        ; preds = %invoke.cont55
  %33 = load i32, ptr %cdepth, align 4
  br label %cond.end

cond.false:                                       ; preds = %invoke.cont55
  %34 = load i32, ptr %cdepth, align 4
  %sub = sub nsw i32 %34, 1
  br label %cond.end

cond.end:                                         ; preds = %cond.false, %cond.true
  %cond = phi i32 [ %33, %cond.true ], [ %sub, %cond.false ]
  store i32 %cond, ptr %ref.tmp57, align 4
  %call61 = invoke noundef nonnull align 8 dereferenceable(24) ptr @_ZNSt6vectorISt5tupleIJN4cvc58internal12NodeTemplateILb0EEEmiEESaIS5_EE12emplace_backIJS4_iiEEERS5_DpOT_(ptr noundef nonnull align 8 dereferenceable(24) %visit, ptr noundef nonnull align 8 dereferenceable(8) %ref.tmp54, ptr noundef nonnull align 4 dereferenceable(4) %ref.tmp56, ptr noundef nonnull align 4 dereferenceable(4) %ref.tmp57)
          to label %invoke.cont60 unwind label %lpad59

invoke.cont60:                                    ; preds = %cond.end
  call void @_ZN4cvc58internal12NodeTemplateILb0EED2Ev(ptr noundef nonnull align 8 dereferenceable(8) %ref.tmp54) #3
  br label %if.end65

lpad59:                                           ; preds = %cond.end
  %35 = landingpad { ptr, i32 }
          cleanup
  %36 = extractvalue { ptr, i32 } %35, 0
  store ptr %36, ptr %exn.slot, align 8
  %37 = extractvalue { ptr, i32 } %35, 1
  store i32 %37, ptr %ehselector.slot, align 4
  call void @_ZN4cvc58internal12NodeTemplateILb0EED2Ev(ptr noundef nonnull align 8 dereferenceable(8) %ref.tmp54) #3
  br label %ehcleanup

if.else62:                                        ; preds = %invoke.cont43
  %38 = load ptr, ptr %out.addr, align 8
  %call64 = invoke noundef nonnull align 8 dereferenceable(8) ptr @_ZStlsISt11char_traitsIcEERSt13basic_ostreamIcT_ES5_c(ptr noundef nonnull align 8 dereferenceable(8) %38, i8 noundef signext 41)
          to label %invoke.cont63 unwind label %lpad2

invoke.cont63:                                    ; preds = %if.else62
  call void @_ZNSt6vectorISt5tupleIJN4cvc58internal12NodeTemplateILb0EEEmiEESaIS5_EE8pop_backEv(ptr noundef nonnull align 8 dereferenceable(24) %visit) #3
  br label %if.end65

if.end65:                                         ; preds = %invoke.cont63, %invoke.cont60
  br label %do.cond

do.cond:                                          ; preds = %if.end65, %invoke.cont38, %if.then34, %invoke.cont25
  %call66 = call noundef zeroext i1 @_ZNKSt6vectorISt5tupleIJN4cvc58internal12NodeTemplateILb0EEEmiEESaIS5_EE5emptyEv(ptr noundef nonnull align 8 dereferenceable(24) %visit) #3
  %lnot = xor i1 %call66, true
  br i1 %lnot, label %do.body, label %do.end, !llvm.loop !6

do.end:                                           ; preds = %do.cond
  call void @_ZN4cvc58internal12NodeTemplateILb0EED2Ev(ptr noundef nonnull align 8 dereferenceable(8) %cur) #3
  call void @_ZNSt6vectorISt5tupleIJN4cvc58internal12NodeTemplateILb0EEEmiEESaIS5_EED2Ev(ptr noundef nonnull align 8 dereferenceable(24) %visit) #3
  ret void

ehcleanup:                                        ; preds = %lpad59, %lpad31, %lpad16, %lpad2
  call void @_ZN4cvc58internal12NodeTemplateILb0EED2Ev(ptr noundef nonnull align 8 dereferenceable(8) %cur) #3
  br label %ehcleanup67

ehcleanup67:                                      ; preds = %ehcleanup, %lpad
  call void @_ZNSt6vectorISt5tupleIJN4cvc58internal12NodeTemplateILb0EEEmiEESaIS5_EED2Ev(ptr noundef nonnull align 8 dereferenceable(24) %visit) #3
  br label %eh.resume

eh.resume:                                        ; preds = %ehcleanup67
  %exn = load ptr, ptr %exn.slot, align 8
  %sel = load i32, ptr %ehselector.slot, align 4
  %lpad.val = insertvalue { ptr, i32 } poison, ptr %exn, 0
  %lpad.val68 = insertvalue { ptr, i32 } %lpad.val, i32 %sel, 1
  resume { ptr, i32 } %lpad.val68
}

; Function Attrs: mustprogress nounwind uwtable
define linkonce_odr hidden void @_ZN4cvc58internal12NodeTemplateILb0EEC2ERKS2_(ptr noundef nonnull align 8 dereferenceable(8) %this, ptr noundef nonnull align 8 dereferenceable(8) %e) unnamed_addr #5 comdat align 2 {
entry:
  %this.addr = alloca ptr, align 8
  %e.addr = alloca ptr, align 8
  store ptr %this, ptr %this.addr, align 8
  store ptr %e, ptr %e.addr, align 8
  %this1 = load ptr, ptr %this.addr, align 8
  %0 = load ptr, ptr %e.addr, align 8
  %d_nv = getelementptr inbounds %"class.cvc5::internal::NodeTemplate", ptr %0, i32 0, i32 0
  %1 = load ptr, ptr %d_nv, align 8
  %d_nv2 = getelementptr inbounds %"class.cvc5::internal::NodeTemplate", ptr %this1, i32 0, i32 0
  store ptr %1, ptr %d_nv2, align 8
  ret void
}

declare i32 @__gxx_personality_v0(...)

; Function Attrs: mustprogress nounwind uwtable
define linkonce_odr hidden void @_ZN4cvc58internal12NodeTemplateILb0EED2Ev(ptr noundef nonnull align 8 dereferenceable(8) %this) unnamed_addr #5 comdat align 2 {
entry:
  %this.addr = alloca ptr, align 8
  store ptr %this, ptr %this.addr, align 8
  ret void
}

; Function Attrs: nounwind
declare void @_ZNSaIcEC1Ev(ptr noundef nonnull align 1 dereferenceable(1)) unnamed_addr #2

; Function Attrs: mustprogress uwtable
define linkonce_odr hidden void @_ZNSt7__cxx1112basic_stringIcSt11char_traitsIcESaIcEEC2IS3_EEPKcRKS3_(ptr noundef nonnull align 8 dereferenceable(32) %this, ptr noundef %__s, ptr noundef nonnull align 1 dereferenceable(1) %__a) unnamed_addr #4 comdat align 2 personality ptr @__gxx_personality_v0 {
entry:
  %this.addr = alloca ptr, align 8
  %__s.addr = alloca ptr, align 8
  %__a.addr = alloca ptr, align 8
  %exn.slot = alloca ptr, align 8
  %ehselector.slot = alloca i32, align 4
  %__end = alloca ptr, align 8
  store ptr %this, ptr %this.addr, align 8
  store ptr %__s, ptr %__s.addr, align 8
  store ptr %__a, ptr %__a.addr, align 8
  %this1 = load ptr, ptr %this.addr, align 8
  %_M_dataplus = getelementptr inbounds %"class.std::__cxx11::basic_string", ptr %this1, i32 0, i32 0
  %call = call noundef ptr @_ZNSt7__cxx1112basic_stringIcSt11char_traitsIcESaIcEE13_M_local_dataEv(ptr noundef nonnull align 8 dereferenceable(32) %this1)
  %0 = load ptr, ptr %__a.addr, align 8
  call void @_ZNSt7__cxx1112basic_stringIcSt11char_traitsIcESaIcEE12_Alloc_hiderC1EPcRKS3_(ptr noundef nonnull align 8 dereferenceable(8) %_M_dataplus, ptr noundef %call, ptr noundef nonnull align 1 dereferenceable(1) %0)
  %1 = load ptr, ptr %__s.addr, align 8
  %cmp = icmp eq ptr %1, null
  br i1 %cmp, label %if.then, label %if.end

if.then:                                          ; preds = %entry
  invoke void @_ZSt19__throw_logic_errorPKc(ptr noundef @.str.435) #15
          to label %invoke.cont unwind label %lpad

invoke.cont:                                      ; preds = %if.then
  unreachable

lpad:                                             ; preds = %invoke.cont2, %if.end, %if.then
  %2 = landingpad { ptr, i32 }
          cleanup
  %3 = extractvalue { ptr, i32 } %2, 0
  store ptr %3, ptr %exn.slot, align 8
  %4 = extractvalue { ptr, i32 } %2, 1
  store i32 %4, ptr %ehselector.slot, align 4
  call void @_ZNSt7__cxx1112basic_stringIcSt11char_traitsIcESaIcEE12_Alloc_hiderD2Ev(ptr noundef nonnull align 8 dereferenceable(8) %_M_dataplus) #3
  br label %eh.resume

if.end:                                           ; preds = %entry
  %5 = load ptr, ptr %__s.addr, align 8
  %6 = load ptr, ptr %__s.addr, align 8
  %call3 = invoke noundef i64 @_ZNSt11char_traitsIcE6lengthEPKc(ptr noundef %6)
          to label %invoke.cont2 unwind label %lpad

invoke.cont2:                                     ; preds = %if.end
  %add.ptr = getelementptr inbounds i8, ptr %5, i64 %call3
  store ptr %add.ptr, ptr %__end, align 8
  %7 = load ptr, ptr %__s.addr, align 8
  %8 = load ptr, ptr %__end, align 8
  invoke void @_ZNSt7__cxx1112basic_stringIcSt11char_traitsIcESaIcEE12_M_constructIPKcEEvT_S8_St20forward_iterator_tag(ptr noundef nonnull align 8 dereferenceable(32) %this1, ptr noundef %7, ptr noundef %8)
          to label %invoke.cont4 unwind label %lpad

invoke.cont4:                                     ; preds = %invoke.cont2
  ret void

eh.resume:                                        ; preds = %lpad
  %exn = load ptr, ptr %exn.slot, align 8
  %sel = load i32, ptr %ehselector.slot, align 4
  %lpad.val = insertvalue { ptr, i32 } poison, ptr %exn, 0
  %lpad.val5 = insertvalue { ptr, i32 } %lpad.val, i32 %sel, 1
  resume { ptr, i32 } %lpad.val5
}

declare void @_ZN4cvc58internal10LetBindingC1ERKNSt7__cxx1112basic_stringIcSt11char_traitsIcESaIcEEEj(ptr noundef nonnull align 8 dereferenceable(472), ptr noundef nonnull align 8 dereferenceable(32), i32 noundef) unnamed_addr #1

; Function Attrs: nounwind
declare void @_ZNSt7__cxx1112basic_stringIcSt11char_traitsIcESaIcEED1Ev(ptr noundef nonnull align 8 dereferenceable(32)) unnamed_addr #2

; Function Attrs: nounwind
declare void @_ZNSaIcED1Ev(ptr noundef nonnull align 1 dereferenceable(1)) unnamed_addr #2

; Function Attrs: nounwind
declare void @_ZNSt7__cxx1112basic_stringIcSt11char_traitsIcESaIcEEC1Ev(ptr noundef nonnull align 8 dereferenceable(32)) unnamed_addr #2

; Function Attrs: mustprogress nounwind uwtable
define linkonce_odr hidden void @_ZNSt6vectorIN4cvc58internal12NodeTemplateILb1EEESaIS3_EEC2Ev(ptr noundef nonnull align 8 dereferenceable(24) %this) unnamed_addr #5 comdat align 2 {
entry:
  %this.addr = alloca ptr, align 8
  store ptr %this, ptr %this.addr, align 8
  %this1 = load ptr, ptr %this.addr, align 8
  call void @_ZNSt12_Vector_baseIN4cvc58internal12NodeTemplateILb1EEESaIS3_EEC2Ev(ptr noundef nonnull align 8 dereferenceable(24) %this1) #3
  ret void
}

declare void @_ZN4cvc58internal10LetBinding6letifyENS0_12NodeTemplateILb1EEERSt6vectorIS3_SaIS3_EE(ptr noundef nonnull align 8 dereferenceable(472), ptr noundef, ptr noundef nonnull align 8 dereferenceable(24)) #1

; Function Attrs: mustprogress uwtable
define linkonce_odr hidden void @_ZN4cvc58internal12NodeTemplateILb1EEC2ERKNS1_ILb0EEE(ptr noundef nonnull align 8 dereferenceable(8) %this, ptr noundef nonnull align 8 dereferenceable(8) %e) unnamed_addr #4 comdat align 2 {
entry:
  %this.addr = alloca ptr, align 8
  %e.addr = alloca ptr, align 8
  store ptr %this, ptr %this.addr, align 8
  store ptr %e, ptr %e.addr, align 8
  %this1 = load ptr, ptr %this.addr, align 8
  %0 = load ptr, ptr %e.addr, align 8
  %d_nv = getelementptr inbounds %"class.cvc5::internal::NodeTemplate", ptr %0, i32 0, i32 0
  %1 = load ptr, ptr %d_nv, align 8
  %d_nv2 = getelementptr inbounds %"class.cvc5::internal::NodeTemplate.13", ptr %this1, i32 0, i32 0
  store ptr %1, ptr %d_nv2, align 8
  %d_nv3 = getelementptr inbounds %"class.cvc5::internal::NodeTemplate.13", ptr %this1, i32 0, i32 0
  %2 = load ptr, ptr %d_nv3, align 8
  call void @_ZN4cvc58internal4expr9NodeValue3incEv(ptr noundef nonnull align 8 dereferenceable(16) %2)
  ret void
}

; Function Attrs: mustprogress nounwind uwtable
define linkonce_odr hidden void @_ZN4cvc58internal12NodeTemplateILb1EED2Ev(ptr noundef nonnull align 8 dereferenceable(8) %this) unnamed_addr #5 comdat align 2 personality ptr @__gxx_personality_v0 {
entry:
  %this.addr = alloca ptr, align 8
  store ptr %this, ptr %this.addr, align 8
  %this1 = load ptr, ptr %this.addr, align 8
  %d_nv = getelementptr inbounds %"class.cvc5::internal::NodeTemplate.13", ptr %this1, i32 0, i32 0
  %0 = load ptr, ptr %d_nv, align 8
  invoke void @_ZN4cvc58internal4expr9NodeValue3decEv(ptr noundef nonnull align 8 dereferenceable(16) %0)
          to label %invoke.cont unwind label %terminate.lpad

invoke.cont:                                      ; preds = %entry
  ret void

terminate.lpad:                                   ; preds = %entry
  %1 = landingpad { ptr, i32 }
          catch ptr null
  %2 = extractvalue { ptr, i32 } %1, 0
  call void @__clang_call_terminate(ptr %2) #16
  unreachable
}

; Function Attrs: mustprogress nounwind uwtable
define linkonce_odr hidden noundef zeroext i1 @_ZNKSt6vectorIN4cvc58internal12NodeTemplateILb1EEESaIS3_EE5emptyEv(ptr noundef nonnull align 8 dereferenceable(24) %this) #5 comdat align 2 {
entry:
  %this.addr = alloca ptr, align 8
  %ref.tmp = alloca %"class.__gnu_cxx::__normal_iterator.196", align 8
  %ref.tmp2 = alloca %"class.__gnu_cxx::__normal_iterator.196", align 8
  store ptr %this, ptr %this.addr, align 8
  %this1 = load ptr, ptr %this.addr, align 8
  %call = call ptr @_ZNKSt6vectorIN4cvc58internal12NodeTemplateILb1EEESaIS3_EE5beginEv(ptr noundef nonnull align 8 dereferenceable(24) %this1) #3
  %coerce.dive = getelementptr inbounds %"class.__gnu_cxx::__normal_iterator.196", ptr %ref.tmp, i32 0, i32 0
  store ptr %call, ptr %coerce.dive, align 8
  %call3 = call ptr @_ZNKSt6vectorIN4cvc58internal12NodeTemplateILb1EEESaIS3_EE3endEv(ptr noundef nonnull align 8 dereferenceable(24) %this1) #3
  %coerce.dive4 = getelementptr inbounds %"class.__gnu_cxx::__normal_iterator.196", ptr %ref.tmp2, i32 0, i32 0
  store ptr %call3, ptr %coerce.dive4, align 8
  %call5 = call noundef zeroext i1 @_ZN9__gnu_cxxeqIPKN4cvc58internal12NodeTemplateILb1EEESt6vectorIS4_SaIS4_EEEEbRKNS_17__normal_iteratorIT_T0_EESF_(ptr noundef nonnull align 8 dereferenceable(8) %ref.tmp, ptr noundef nonnull align 8 dereferenceable(8) %ref.tmp2) #3
  ret i1 %call5
}

declare void @_ZNSt7__cxx1118basic_stringstreamIcSt11char_traitsIcESaIcEEC1Ev(ptr noundef nonnull align 8 dereferenceable(128)) unnamed_addr #1

; Function Attrs: mustprogress nounwind uwtable
define linkonce_odr hidden void @_ZNSt23_Rb_tree_const_iteratorISt4pairIKN4cvc58internal12NodeTemplateILb1EEEjEEC2Ev(ptr noundef nonnull align 8 dereferenceable(8) %this) unnamed_addr #5 comdat align 2 {
entry:
  %this.addr = alloca ptr, align 8
  store ptr %this, ptr %this.addr, align 8
  %this1 = load ptr, ptr %this.addr, align 8
  %_M_node = getelementptr inbounds %"struct.std::_Rb_tree_const_iterator", ptr %this1, i32 0, i32 0
  store ptr null, ptr %_M_node, align 8
  ret void
}

; Function Attrs: mustprogress nounwind uwtable
define linkonce_odr hidden noundef i64 @_ZNKSt6vectorIN4cvc58internal12NodeTemplateILb1EEESaIS3_EE4sizeEv(ptr noundef nonnull align 8 dereferenceable(24) %this) #5 comdat align 2 {
entry:
  %this.addr = alloca ptr, align 8
  store ptr %this, ptr %this.addr, align 8
  %this1 = load ptr, ptr %this.addr, align 8
  %_M_impl = getelementptr inbounds %"struct.std::_Vector_base.4", ptr %this1, i32 0, i32 0
  %_M_finish = getelementptr inbounds %"struct.std::_Vector_base<cvc5::internal::NodeTemplate<true>, std::allocator<cvc5::internal::NodeTemplate<true>>>::_Vector_impl_data", ptr %_M_impl, i32 0, i32 1
  %0 = load ptr, ptr %_M_finish, align 8
  %_M_impl2 = getelementptr inbounds %"struct.std::_Vector_base.4", ptr %this1, i32 0, i32 0
  %_M_start = getelementptr inbounds %"struct.std::_Vector_base<cvc5::internal::NodeTemplate<true>, std::allocator<cvc5::internal::NodeTemplate<true>>>::_Vector_impl_data", ptr %_M_impl2, i32 0, i32 0
  %1 = load ptr, ptr %_M_start, align 8
  %sub.ptr.lhs.cast = ptrtoint ptr %0 to i64
  %sub.ptr.rhs.cast = ptrtoint ptr %1 to i64
  %sub.ptr.sub = sub i64 %sub.ptr.lhs.cast, %sub.ptr.rhs.cast
  %sub.ptr.div = sdiv exact i64 %sub.ptr.sub, 8
  ret i64 %sub.ptr.div
}

; Function Attrs: mustprogress nounwind uwtable
define linkonce_odr hidden noundef nonnull align 8 dereferenceable(8) ptr @_ZNSt6vectorIN4cvc58internal12NodeTemplateILb1EEESaIS3_EEixEm(ptr noundef nonnull align 8 dereferenceable(24) %this, i64 noundef %__n) #5 comdat align 2 {
entry:
  %this.addr = alloca ptr, align 8
  %__n.addr = alloca i64, align 8
  store ptr %this, ptr %this.addr, align 8
  store i64 %__n, ptr %__n.addr, align 8
  %this1 = load ptr, ptr %this.addr, align 8
  %_M_impl = getelementptr inbounds %"struct.std::_Vector_base.4", ptr %this1, i32 0, i32 0
  %_M_start = getelementptr inbounds %"struct.std::_Vector_base<cvc5::internal::NodeTemplate<true>, std::allocator<cvc5::internal::NodeTemplate<true>>>::_Vector_impl_data", ptr %_M_impl, i32 0, i32 0
  %0 = load ptr, ptr %_M_start, align 8
  %1 = load i64, ptr %__n.addr, align 8
  %add.ptr = getelementptr inbounds %"class.cvc5::internal::NodeTemplate.13", ptr %0, i64 %1
  ret ptr %add.ptr
}

; Function Attrs: mustprogress uwtable
define linkonce_odr hidden void @_ZN4cvc58internal12NodeTemplateILb1EEC2ERKS2_(ptr noundef nonnull align 8 dereferenceable(8) %this, ptr noundef nonnull align 8 dereferenceable(8) %e) unnamed_addr #4 comdat align 2 {
entry:
  %this.addr = alloca ptr, align 8
  %e.addr = alloca ptr, align 8
  store ptr %this, ptr %this.addr, align 8
  store ptr %e, ptr %e.addr, align 8
  %this1 = load ptr, ptr %this.addr, align 8
  %0 = load ptr, ptr %e.addr, align 8
  %d_nv = getelementptr inbounds %"class.cvc5::internal::NodeTemplate.13", ptr %0, i32 0, i32 0
  %1 = load ptr, ptr %d_nv, align 8
  %d_nv2 = getelementptr inbounds %"class.cvc5::internal::NodeTemplate.13", ptr %this1, i32 0, i32 0
  store ptr %1, ptr %d_nv2, align 8
  %d_nv3 = getelementptr inbounds %"class.cvc5::internal::NodeTemplate.13", ptr %this1, i32 0, i32 0
  %2 = load ptr, ptr %d_nv3, align 8
  call void @_ZN4cvc58internal4expr9NodeValue3incEv(ptr noundef nonnull align 8 dereferenceable(16) %2)
  ret void
}

declare noundef nonnull align 8 dereferenceable(8) ptr @_ZStlsISt11char_traitsIcEERSt13basic_ostreamIcT_ES5_PKc(ptr noundef nonnull align 8 dereferenceable(8), ptr noundef) #1

declare noundef i32 @_ZNK4cvc58internal10LetBinding5getIdENS0_12NodeTemplateILb1EEE(ptr noundef nonnull align 8 dereferenceable(472), ptr noundef) #1

declare noundef nonnull align 8 dereferenceable(8) ptr @_ZNSolsEj(ptr noundef nonnull align 8 dereferenceable(8), i32 noundef) #1

; Function Attrs: mustprogress nounwind uwtable
define linkonce_odr hidden void @_ZN4cvc58internal12NodeTemplateILb0EEC2ERKNS1_ILb1EEE(ptr noundef nonnull align 8 dereferenceable(8) %this, ptr noundef nonnull align 8 dereferenceable(8) %e) unnamed_addr #5 comdat align 2 {
entry:
  %this.addr = alloca ptr, align 8
  %e.addr = alloca ptr, align 8
  store ptr %this, ptr %this.addr, align 8
  store ptr %e, ptr %e.addr, align 8
  %this1 = load ptr, ptr %this.addr, align 8
  %0 = load ptr, ptr %e.addr, align 8
  %d_nv = getelementptr inbounds %"class.cvc5::internal::NodeTemplate.13", ptr %0, i32 0, i32 0
  %1 = load ptr, ptr %d_nv, align 8
  %d_nv2 = getelementptr inbounds %"class.cvc5::internal::NodeTemplate", ptr %this1, i32 0, i32 0
  store ptr %1, ptr %d_nv2, align 8
  ret void
}

declare void @_ZNKSt7__cxx1118basic_stringstreamIcSt11char_traitsIcESaIcEE3strEv(ptr sret(%"class.std::__cxx11::basic_string") align 8, ptr noundef nonnull align 8 dereferenceable(128)) #1

; Function Attrs: nounwind
declare noundef nonnull align 8 dereferenceable(32) ptr @_ZNSt7__cxx1112basic_stringIcSt11char_traitsIcESaIcEEaSEOS4_(ptr noundef nonnull align 8 dereferenceable(32), ptr noundef nonnull align 8 dereferenceable(32)) #2

; Function Attrs: nounwind
declare void @_ZNSt7__cxx1118basic_stringstreamIcSt11char_traitsIcESaIcEED1Ev(ptr noundef nonnull align 8 dereferenceable(128)) unnamed_addr #2

declare noundef nonnull align 8 dereferenceable(8) ptr @_ZStlsIcSt11char_traitsIcESaIcEERSt13basic_ostreamIT_T0_ES7_RKNSt7__cxx1112basic_stringIS4_S5_T1_EE(ptr noundef nonnull align 8 dereferenceable(8), ptr noundef nonnull align 8 dereferenceable(32)) #1

declare void @_ZN4cvc58internal10LetBinding8popScopeEv(ptr noundef nonnull align 8 dereferenceable(472)) #1

; Function Attrs: mustprogress nounwind uwtable
define linkonce_odr hidden void @_ZNSt6vectorIN4cvc58internal12NodeTemplateILb1EEESaIS3_EED2Ev(ptr noundef nonnull align 8 dereferenceable(24) %this) unnamed_addr #5 comdat align 2 personality ptr @__gxx_personality_v0 {
entry:
  %this.addr = alloca ptr, align 8
  store ptr %this, ptr %this.addr, align 8
  %this1 = load ptr, ptr %this.addr, align 8
  %_M_impl = getelementptr inbounds %"struct.std::_Vector_base.4", ptr %this1, i32 0, i32 0
  %_M_start = getelementptr inbounds %"struct.std::_Vector_base<cvc5::internal::NodeTemplate<true>, std::allocator<cvc5::internal::NodeTemplate<true>>>::_Vector_impl_data", ptr %_M_impl, i32 0, i32 0
  %0 = load ptr, ptr %_M_start, align 8
  %_M_impl2 = getelementptr inbounds %"struct.std::_Vector_base.4", ptr %this1, i32 0, i32 0
  %_M_finish = getelementptr inbounds %"struct.std::_Vector_base<cvc5::internal::NodeTemplate<true>, std::allocator<cvc5::internal::NodeTemplate<true>>>::_Vector_impl_data", ptr %_M_impl2, i32 0, i32 1
  %1 = load ptr, ptr %_M_finish, align 8
  %call = call noundef nonnull align 1 dereferenceable(1) ptr @_ZNSt12_Vector_baseIN4cvc58internal12NodeTemplateILb1EEESaIS3_EE19_M_get_Tp_allocatorEv(ptr noundef nonnull align 8 dereferenceable(24) %this1) #3
  invoke void @_ZSt8_DestroyIPN4cvc58internal12NodeTemplateILb1EEES3_EvT_S5_RSaIT0_E(ptr noundef %0, ptr noundef %1, ptr noundef nonnull align 1 dereferenceable(1) %call)
          to label %invoke.cont unwind label %terminate.lpad

invoke.cont:                                      ; preds = %entry
  call void @_ZNSt12_Vector_baseIN4cvc58internal12NodeTemplateILb1EEESaIS3_EED2Ev(ptr noundef nonnull align 8 dereferenceable(24) %this1) #3
  ret void

terminate.lpad:                                   ; preds = %entry
  %2 = landingpad { ptr, i32 }
          catch ptr null
  %3 = extractvalue { ptr, i32 } %2, 0
  call void @__clang_call_terminate(ptr %3) #16
  unreachable
}

; Function Attrs: mustprogress nounwind uwtable
define linkonce_odr hidden void @_ZN4cvc58internal10LetBindingD2Ev(ptr noundef nonnull align 8 dereferenceable(472) %this) unnamed_addr #5 comdat align 2 {
entry:
  %this.addr = alloca ptr, align 8
  store ptr %this, ptr %this.addr, align 8
  %this1 = load ptr, ptr %this.addr, align 8
  %d_letMap = getelementptr inbounds %"class.cvc5::internal::LetBinding", ptr %this1, i32 0, i32 6
  call void @_ZN4cvc57context9CDHashMapINS_8internal12NodeTemplateILb1EEEjSt4hashIS4_EED2Ev(ptr noundef nonnull align 8 dereferenceable(112) %d_letMap) #3
  %d_letList = getelementptr inbounds %"class.cvc5::internal::LetBinding", ptr %this1, i32 0, i32 5
  call void @_ZN4cvc57context6CDListINS_8internal12NodeTemplateILb1EEENS0_14DefaultCleanUpIS4_EESaIS4_EED2Ev(ptr noundef nonnull align 8 dereferenceable(74) %d_letList) #3
  %d_count = getelementptr inbounds %"class.cvc5::internal::LetBinding", ptr %this1, i32 0, i32 4
  call void @_ZN4cvc57context9CDHashMapINS_8internal12NodeTemplateILb1EEEjSt4hashIS4_EED2Ev(ptr noundef nonnull align 8 dereferenceable(112) %d_count) #3
  %d_visitList = getelementptr inbounds %"class.cvc5::internal::LetBinding", ptr %this1, i32 0, i32 3
  call void @_ZN4cvc57context6CDListINS_8internal12NodeTemplateILb1EEENS0_14DefaultCleanUpIS4_EESaIS4_EED2Ev(ptr noundef nonnull align 8 dereferenceable(74) %d_visitList) #3
  %d_context = getelementptr inbounds %"class.cvc5::internal::LetBinding", ptr %this1, i32 0, i32 2
  call void @_ZN4cvc57context7ContextD1Ev(ptr noundef nonnull align 8 dereferenceable(48) %d_context) #3
  %d_prefix = getelementptr inbounds %"class.cvc5::internal::LetBinding", ptr %this1, i32 0, i32 0
  call void @_ZNSt7__cxx1112basic_stringIcSt11char_traitsIcESaIcEED1Ev(ptr noundef nonnull align 8 dereferenceable(32) %d_prefix) #3
  ret void
}

; Function Attrs: mustprogress uwtable
define hidden void @_ZNK4cvc58internal7printer4smt211Smt2Printer8toStreamERSoNS0_12NodeTemplateILb0EEEPKNS0_10LetBindingE(ptr noundef nonnull align 8 dereferenceable(12) %this, ptr noundef nonnull align 8 dereferenceable(8) %out, ptr noundef %n, ptr noundef %lbind) unnamed_addr #4 align 2 personality ptr @__gxx_personality_v0 {
entry:
  %this.addr = alloca ptr, align 8
  %out.addr = alloca ptr, align 8
  %n.indirect_addr = alloca ptr, align 8
  %lbind.addr = alloca ptr, align 8
  %toDepth = alloca i32, align 4
  %agg.tmp = alloca %"class.cvc5::internal::NodeTemplate", align 8
  %exn.slot = alloca ptr, align 8
  %ehselector.slot = alloca i32, align 4
  store ptr %this, ptr %this.addr, align 8
  store ptr %out, ptr %out.addr, align 8
  store ptr %n, ptr %n.indirect_addr, align 8
  store ptr %lbind, ptr %lbind.addr, align 8
  %this1 = load ptr, ptr %this.addr, align 8
  %0 = load ptr, ptr %out.addr, align 8
  %vtable = load ptr, ptr %0, align 8
  %vbase.offset.ptr = getelementptr i8, ptr %vtable, i64 -24
  %vbase.offset = load i64, ptr %vbase.offset.ptr, align 8
  %add.ptr = getelementptr inbounds i8, ptr %0, i64 %vbase.offset
  %call = call noundef i64 @_ZN4cvc58internal7options7ioutils12getNodeDepthERSt8ios_base(ptr noundef nonnull align 8 dereferenceable(216) %add.ptr)
  %conv = trunc i64 %call to i32
  store i32 %conv, ptr %toDepth, align 4
  %1 = load ptr, ptr %out.addr, align 8
  call void @_ZN4cvc58internal12NodeTemplateILb0EEC2ERKS2_(ptr noundef nonnull align 8 dereferenceable(8) %agg.tmp, ptr noundef nonnull align 8 dereferenceable(8) %n)
  %2 = load ptr, ptr %lbind.addr, align 8
  %3 = load i32, ptr %toDepth, align 4
  invoke void @_ZNK4cvc58internal7printer4smt211Smt2Printer8toStreamERSoNS0_12NodeTemplateILb0EEEPKNS0_10LetBindingEib(ptr noundef nonnull align 8 dereferenceable(12) %this1, ptr noundef nonnull align 8 dereferenceable(8) %1, ptr noundef %agg.tmp, ptr noundef %2, i32 noundef %3, i1 noundef zeroext true)
          to label %invoke.cont unwind label %lpad

invoke.cont:                                      ; preds = %entry
  call void @_ZN4cvc58internal12NodeTemplateILb0EED2Ev(ptr noundef nonnull align 8 dereferenceable(8) %agg.tmp) #3
  ret void

lpad:                                             ; preds = %entry
  %4 = landingpad { ptr, i32 }
          cleanup
  %5 = extractvalue { ptr, i32 } %4, 0
  store ptr %5, ptr %exn.slot, align 8
  %6 = extractvalue { ptr, i32 } %4, 1
  store i32 %6, ptr %ehselector.slot, align 4
  call void @_ZN4cvc58internal12NodeTemplateILb0EED2Ev(ptr noundef nonnull align 8 dereferenceable(8) %agg.tmp) #3
  br label %eh.resume

eh.resume:                                        ; preds = %lpad
  %exn = load ptr, ptr %exn.slot, align 8
  %sel = load i32, ptr %ehselector.slot, align 4
  %lpad.val = insertvalue { ptr, i32 } poison, ptr %exn, 0
  %lpad.val2 = insertvalue { ptr, i32 } %lpad.val, i32 %sel, 1
  resume { ptr, i32 } %lpad.val2
}

declare noundef i64 @_ZN4cvc58internal7options7ioutils12getNodeDepthERSt8ios_base(ptr noundef nonnull align 8 dereferenceable(216)) #1

; Function Attrs: mustprogress uwtable
define hidden void @_ZNK4cvc58internal7printer4smt211Smt2Printer8toStreamERSoNS0_12NodeTemplateILb0EEE(ptr noundef nonnull align 8 dereferenceable(12) %this, ptr noundef nonnull align 8 dereferenceable(8) %out, ptr noundef %n) unnamed_addr #4 align 2 personality ptr @__gxx_personality_v0 {
entry:
  %this.addr = alloca ptr, align 8
  %out.addr = alloca ptr, align 8
  %n.indirect_addr = alloca ptr, align 8
  %dag = alloca i64, align 8
  %toDepth = alloca i32, align 4
  %agg.tmp = alloca %"class.cvc5::internal::NodeTemplate", align 8
  %exn.slot = alloca ptr, align 8
  %ehselector.slot = alloca i32, align 4
  store ptr %this, ptr %this.addr, align 8
  store ptr %out, ptr %out.addr, align 8
  store ptr %n, ptr %n.indirect_addr, align 8
  %this1 = load ptr, ptr %this.addr, align 8
  %0 = load ptr, ptr %out.addr, align 8
  %vtable = load ptr, ptr %0, align 8
  %vbase.offset.ptr = getelementptr i8, ptr %vtable, i64 -24
  %vbase.offset = load i64, ptr %vbase.offset.ptr, align 8
  %add.ptr = getelementptr inbounds i8, ptr %0, i64 %vbase.offset
  %call = call noundef i64 @_ZN4cvc58internal7options7ioutils12getDagThreshERSt8ios_base(ptr noundef nonnull align 8 dereferenceable(216) %add.ptr)
  store i64 %call, ptr %dag, align 8
  %1 = load ptr, ptr %out.addr, align 8
  %vtable2 = load ptr, ptr %1, align 8
  %vbase.offset.ptr3 = getelementptr i8, ptr %vtable2, i64 -24
  %vbase.offset4 = load i64, ptr %vbase.offset.ptr3, align 8
  %add.ptr5 = getelementptr inbounds i8, ptr %1, i64 %vbase.offset4
  %call6 = call noundef i64 @_ZN4cvc58internal7options7ioutils12getNodeDepthERSt8ios_base(ptr noundef nonnull align 8 dereferenceable(216) %add.ptr5)
  %conv = trunc i64 %call6 to i32
  store i32 %conv, ptr %toDepth, align 4
  %2 = load ptr, ptr %out.addr, align 8
  call void @_ZN4cvc58internal12NodeTemplateILb0EEC2ERKS2_(ptr noundef nonnull align 8 dereferenceable(8) %agg.tmp, ptr noundef nonnull align 8 dereferenceable(8) %n)
  %3 = load i32, ptr %toDepth, align 4
  %4 = load i64, ptr %dag, align 8
  invoke void @_ZNK4cvc58internal7printer4smt211Smt2Printer8toStreamERSoNS0_12NodeTemplateILb0EEEim(ptr noundef nonnull align 8 dereferenceable(12) %this1, ptr noundef nonnull align 8 dereferenceable(8) %2, ptr noundef %agg.tmp, i32 noundef %3, i64 noundef %4)
          to label %invoke.cont unwind label %lpad

invoke.cont:                                      ; preds = %entry
  call void @_ZN4cvc58internal12NodeTemplateILb0EED2Ev(ptr noundef nonnull align 8 dereferenceable(8) %agg.tmp) #3
  ret void

lpad:                                             ; preds = %entry
  %5 = landingpad { ptr, i32 }
          cleanup
  %6 = extractvalue { ptr, i32 } %5, 0
  store ptr %6, ptr %exn.slot, align 8
  %7 = extractvalue { ptr, i32 } %5, 1
  store i32 %7, ptr %ehselector.slot, align 4
  call void @_ZN4cvc58internal12NodeTemplateILb0EED2Ev(ptr noundef nonnull align 8 dereferenceable(8) %agg.tmp) #3
  br label %eh.resume

eh.resume:                                        ; preds = %lpad
  %exn = load ptr, ptr %exn.slot, align 8
  %sel = load i32, ptr %ehselector.slot, align 4
  %lpad.val = insertvalue { ptr, i32 } poison, ptr %exn, 0
  %lpad.val7 = insertvalue { ptr, i32 } %lpad.val, i32 %sel, 1
  resume { ptr, i32 } %lpad.val7
}

declare noundef i64 @_ZN4cvc58internal7options7ioutils12getDagThreshERSt8ios_base(ptr noundef nonnull align 8 dereferenceable(216)) #1

; Function Attrs: mustprogress uwtable
define hidden void @_ZNK4cvc58internal7printer4smt211Smt2Printer8toStreamERSoNS0_4kind6Kind_tE(ptr noundef nonnull align 8 dereferenceable(12) %this, ptr noundef nonnull align 8 dereferenceable(8) %out, i32 noundef %k) unnamed_addr #4 align 2 personality ptr @__gxx_personality_v0 {
entry:
  %this.addr = alloca ptr, align 8
  %out.addr = alloca ptr, align 8
  %k.addr = alloca i32, align 4
  %ref.tmp = alloca %"class.std::__cxx11::basic_string", align 8
  %exn.slot = alloca ptr, align 8
  %ehselector.slot = alloca i32, align 4
  store ptr %this, ptr %this.addr, align 8
  store ptr %out, ptr %out.addr, align 8
  store i32 %k, ptr %k.addr, align 4
  %0 = load ptr, ptr %out.addr, align 8
  %1 = load i32, ptr %k.addr, align 4
  call void @_ZN4cvc58internal7printer4smt211Smt2Printer13smtKindStringB5cxx11ENS0_4kind6Kind_tE(ptr sret(%"class.std::__cxx11::basic_string") align 8 %ref.tmp, i32 noundef %1)
  %call = invoke noundef nonnull align 8 dereferenceable(8) ptr @_ZStlsIcSt11char_traitsIcESaIcEERSt13basic_ostreamIT_T0_ES7_RKNSt7__cxx1112basic_stringIS4_S5_T1_EE(ptr noundef nonnull align 8 dereferenceable(8) %0, ptr noundef nonnull align 8 dereferenceable(32) %ref.tmp)
          to label %invoke.cont unwind label %lpad

invoke.cont:                                      ; preds = %entry
  call void @_ZNSt7__cxx1112basic_stringIcSt11char_traitsIcESaIcEED1Ev(ptr noundef nonnull align 8 dereferenceable(32) %ref.tmp) #3
  ret void

lpad:                                             ; preds = %entry
  %2 = landingpad { ptr, i32 }
          cleanup
  %3 = extractvalue { ptr, i32 } %2, 0
  store ptr %3, ptr %exn.slot, align 8
  %4 = extractvalue { ptr, i32 } %2, 1
  store i32 %4, ptr %ehselector.slot, align 4
  call void @_ZNSt7__cxx1112basic_stringIcSt11char_traitsIcESaIcEED1Ev(ptr noundef nonnull align 8 dereferenceable(32) %ref.tmp) #3
  br label %eh.resume

eh.resume:                                        ; preds = %lpad
  %exn = load ptr, ptr %exn.slot, align 8
  %sel = load i32, ptr %ehselector.slot, align 4
  %lpad.val = insertvalue { ptr, i32 } poison, ptr %exn, 0
  %lpad.val2 = insertvalue { ptr, i32 } %lpad.val, i32 %sel, 1
  resume { ptr, i32 } %lpad.val2
}

; Function Attrs: mustprogress uwtable
define hidden void @_ZN4cvc58internal7printer4smt211Smt2Printer13smtKindStringB5cxx11ENS0_4kind6Kind_tE(ptr noalias sret(%"class.std::__cxx11::basic_string") align 8 %agg.result, i32 noundef %k) #4 align 2 personality ptr @__gxx_personality_v0 {
entry:
  %result.ptr = alloca ptr, align 8
  %k.addr = alloca i32, align 4
  %ref.tmp = alloca %"class.std::allocator", align 1
  %exn.slot = alloca ptr, align 8
  %ehselector.slot = alloca i32, align 4
  %ref.tmp2 = alloca %"class.std::allocator", align 1
  %ref.tmp6 = alloca %"class.std::allocator", align 1
  %ref.tmp11 = alloca %"class.std::allocator", align 1
  %ref.tmp15 = alloca %"class.std::allocator", align 1
  %ref.tmp19 = alloca %"class.std::allocator", align 1
  %ref.tmp23 = alloca %"class.std::allocator", align 1
  %ref.tmp27 = alloca %"class.std::allocator", align 1
  %ref.tmp31 = alloca %"class.std::allocator", align 1
  %ref.tmp36 = alloca %"class.std::allocator", align 1
  %ref.tmp40 = alloca %"class.std::allocator", align 1
  %ref.tmp44 = alloca %"class.std::allocator", align 1
  %ref.tmp48 = alloca %"class.std::allocator", align 1
  %ref.tmp52 = alloca %"class.std::allocator", align 1
  %ref.tmp56 = alloca %"class.std::allocator", align 1
  %ref.tmp60 = alloca %"class.std::allocator", align 1
  %ref.tmp64 = alloca %"class.std::allocator", align 1
  %ref.tmp68 = alloca %"class.std::allocator", align 1
  %ref.tmp72 = alloca %"class.std::allocator", align 1
  %ref.tmp76 = alloca %"class.std::allocator", align 1
  %ref.tmp80 = alloca %"class.std::allocator", align 1
  %ref.tmp84 = alloca %"class.std::allocator", align 1
  %ref.tmp88 = alloca %"class.std::allocator", align 1
  %ref.tmp92 = alloca %"class.std::allocator", align 1
  %ref.tmp96 = alloca %"class.std::allocator", align 1
  %ref.tmp100 = alloca %"class.std::allocator", align 1
  %ref.tmp104 = alloca %"class.std::allocator", align 1
  %ref.tmp108 = alloca %"class.std::allocator", align 1
  %ref.tmp112 = alloca %"class.std::allocator", align 1
  %ref.tmp116 = alloca %"class.std::allocator", align 1
  %ref.tmp120 = alloca %"class.std::allocator", align 1
  %ref.tmp124 = alloca %"class.std::allocator", align 1
  %ref.tmp128 = alloca %"class.std::allocator", align 1
  %ref.tmp132 = alloca %"class.std::allocator", align 1
  %ref.tmp136 = alloca %"class.std::allocator", align 1
  %ref.tmp140 = alloca %"class.std::allocator", align 1
  %ref.tmp144 = alloca %"class.std::allocator", align 1
  %ref.tmp148 = alloca %"class.std::allocator", align 1
  %ref.tmp152 = alloca %"class.std::allocator", align 1
  %ref.tmp156 = alloca %"class.std::allocator", align 1
  %ref.tmp160 = alloca %"class.std::allocator", align 1
  %ref.tmp164 = alloca %"class.std::allocator", align 1
  %ref.tmp168 = alloca %"class.std::allocator", align 1
  %ref.tmp172 = alloca %"class.std::allocator", align 1
  %ref.tmp176 = alloca %"class.std::allocator", align 1
  %ref.tmp180 = alloca %"class.std::allocator", align 1
  %ref.tmp184 = alloca %"class.std::allocator", align 1
  %ref.tmp188 = alloca %"class.std::allocator", align 1
  %ref.tmp192 = alloca %"class.std::allocator", align 1
  %ref.tmp196 = alloca %"class.std::allocator", align 1
  %ref.tmp200 = alloca %"class.std::allocator", align 1
  %ref.tmp204 = alloca %"class.std::allocator", align 1
  %ref.tmp208 = alloca %"class.std::allocator", align 1
  %ref.tmp212 = alloca %"class.std::allocator", align 1
  %ref.tmp216 = alloca %"class.std::allocator", align 1
  %ref.tmp220 = alloca %"class.std::allocator", align 1
  %ref.tmp224 = alloca %"class.std::allocator", align 1
  %ref.tmp228 = alloca %"class.std::allocator", align 1
  %ref.tmp232 = alloca %"class.std::allocator", align 1
  %ref.tmp236 = alloca %"class.std::allocator", align 1
  %ref.tmp240 = alloca %"class.std::allocator", align 1
  %ref.tmp244 = alloca %"class.std::allocator", align 1
  %ref.tmp248 = alloca %"class.std::allocator", align 1
  %ref.tmp252 = alloca %"class.std::allocator", align 1
  %ref.tmp256 = alloca %"class.std::allocator", align 1
  %ref.tmp260 = alloca %"class.std::allocator", align 1
  %ref.tmp264 = alloca %"class.std::allocator", align 1
  %ref.tmp268 = alloca %"class.std::allocator", align 1
  %ref.tmp272 = alloca %"class.std::allocator", align 1
  %ref.tmp276 = alloca %"class.std::allocator", align 1
  %ref.tmp280 = alloca %"class.std::allocator", align 1
  %ref.tmp284 = alloca %"class.std::allocator", align 1
  %ref.tmp288 = alloca %"class.std::allocator", align 1
  %ref.tmp292 = alloca %"class.std::allocator", align 1
  %ref.tmp296 = alloca %"class.std::allocator", align 1
  %ref.tmp300 = alloca %"class.std::allocator", align 1
  %ref.tmp304 = alloca %"class.std::allocator", align 1
  %ref.tmp308 = alloca %"class.std::allocator", align 1
  %ref.tmp312 = alloca %"class.std::allocator", align 1
  %ref.tmp316 = alloca %"class.std::allocator", align 1
  %ref.tmp320 = alloca %"class.std::allocator", align 1
  %ref.tmp324 = alloca %"class.std::allocator", align 1
  %ref.tmp328 = alloca %"class.std::allocator", align 1
  %ref.tmp332 = alloca %"class.std::allocator", align 1
  %ref.tmp336 = alloca %"class.std::allocator", align 1
  %ref.tmp340 = alloca %"class.std::allocator", align 1
  %ref.tmp344 = alloca %"class.std::allocator", align 1
  %ref.tmp348 = alloca %"class.std::allocator", align 1
  %ref.tmp352 = alloca %"class.std::allocator", align 1
  %ref.tmp356 = alloca %"class.std::allocator", align 1
  %ref.tmp360 = alloca %"class.std::allocator", align 1
  %ref.tmp364 = alloca %"class.std::allocator", align 1
  %ref.tmp368 = alloca %"class.std::allocator", align 1
  %ref.tmp372 = alloca %"class.std::allocator", align 1
  %ref.tmp376 = alloca %"class.std::allocator", align 1
  %ref.tmp380 = alloca %"class.std::allocator", align 1
  %ref.tmp384 = alloca %"class.std::allocator", align 1
  %ref.tmp388 = alloca %"class.std::allocator", align 1
  %ref.tmp392 = alloca %"class.std::allocator", align 1
  %ref.tmp396 = alloca %"class.std::allocator", align 1
  %ref.tmp400 = alloca %"class.std::allocator", align 1
  %ref.tmp404 = alloca %"class.std::allocator", align 1
  %ref.tmp408 = alloca %"class.std::allocator", align 1
  %ref.tmp412 = alloca %"class.std::allocator", align 1
  %ref.tmp416 = alloca %"class.std::allocator", align 1
  %ref.tmp420 = alloca %"class.std::allocator", align 1
  %ref.tmp424 = alloca %"class.std::allocator", align 1
  %ref.tmp428 = alloca %"class.std::allocator", align 1
  %ref.tmp432 = alloca %"class.std::allocator", align 1
  %ref.tmp436 = alloca %"class.std::allocator", align 1
  %ref.tmp440 = alloca %"class.std::allocator", align 1
  %ref.tmp444 = alloca %"class.std::allocator", align 1
  %ref.tmp448 = alloca %"class.std::allocator", align 1
  %ref.tmp452 = alloca %"class.std::allocator", align 1
  %ref.tmp456 = alloca %"class.std::allocator", align 1
  %ref.tmp460 = alloca %"class.std::allocator", align 1
  %ref.tmp464 = alloca %"class.std::allocator", align 1
  %ref.tmp468 = alloca %"class.std::allocator", align 1
  %ref.tmp472 = alloca %"class.std::allocator", align 1
  %ref.tmp476 = alloca %"class.std::allocator", align 1
  %ref.tmp480 = alloca %"class.std::allocator", align 1
  %ref.tmp484 = alloca %"class.std::allocator", align 1
  %ref.tmp488 = alloca %"class.std::allocator", align 1
  %ref.tmp492 = alloca %"class.std::allocator", align 1
  %ref.tmp496 = alloca %"class.std::allocator", align 1
  %ref.tmp500 = alloca %"class.std::allocator", align 1
  %ref.tmp504 = alloca %"class.std::allocator", align 1
  %ref.tmp508 = alloca %"class.std::allocator", align 1
  %ref.tmp512 = alloca %"class.std::allocator", align 1
  %ref.tmp516 = alloca %"class.std::allocator", align 1
  %ref.tmp520 = alloca %"class.std::allocator", align 1
  %ref.tmp524 = alloca %"class.std::allocator", align 1
  %ref.tmp528 = alloca %"class.std::allocator", align 1
  %ref.tmp532 = alloca %"class.std::allocator", align 1
  %ref.tmp536 = alloca %"class.std::allocator", align 1
  %ref.tmp540 = alloca %"class.std::allocator", align 1
  %ref.tmp544 = alloca %"class.std::allocator", align 1
  %ref.tmp548 = alloca %"class.std::allocator", align 1
  %ref.tmp552 = alloca %"class.std::allocator", align 1
  %ref.tmp556 = alloca %"class.std::allocator", align 1
  %ref.tmp560 = alloca %"class.std::allocator", align 1
  %ref.tmp564 = alloca %"class.std::allocator", align 1
  %ref.tmp568 = alloca %"class.std::allocator", align 1
  %ref.tmp572 = alloca %"class.std::allocator", align 1
  %ref.tmp576 = alloca %"class.std::allocator", align 1
  %ref.tmp580 = alloca %"class.std::allocator", align 1
  %ref.tmp584 = alloca %"class.std::allocator", align 1
  %ref.tmp588 = alloca %"class.std::allocator", align 1
  %ref.tmp592 = alloca %"class.std::allocator", align 1
  %ref.tmp596 = alloca %"class.std::allocator", align 1
  %ref.tmp600 = alloca %"class.std::allocator", align 1
  %ref.tmp604 = alloca %"class.std::allocator", align 1
  %ref.tmp608 = alloca %"class.std::allocator", align 1
  %ref.tmp612 = alloca %"class.std::allocator", align 1
  %ref.tmp616 = alloca %"class.std::allocator", align 1
  %ref.tmp620 = alloca %"class.std::allocator", align 1
  %ref.tmp624 = alloca %"class.std::allocator", align 1
  %ref.tmp628 = alloca %"class.std::allocator", align 1
  %ref.tmp632 = alloca %"class.std::allocator", align 1
  %ref.tmp636 = alloca %"class.std::allocator", align 1
  %ref.tmp640 = alloca %"class.std::allocator", align 1
  %ref.tmp644 = alloca %"class.std::allocator", align 1
  %ref.tmp648 = alloca %"class.std::allocator", align 1
  %ref.tmp652 = alloca %"class.std::allocator", align 1
  %ref.tmp656 = alloca %"class.std::allocator", align 1
  %ref.tmp660 = alloca %"class.std::allocator", align 1
  %ref.tmp664 = alloca %"class.std::allocator", align 1
  %ref.tmp668 = alloca %"class.std::allocator", align 1
  %ref.tmp672 = alloca %"class.std::allocator", align 1
  %ref.tmp676 = alloca %"class.std::allocator", align 1
  %ref.tmp680 = alloca %"class.std::allocator", align 1
  %ref.tmp684 = alloca %"class.std::allocator", align 1
  %ref.tmp688 = alloca %"class.std::allocator", align 1
  %ref.tmp692 = alloca %"class.std::allocator", align 1
  %ref.tmp696 = alloca %"class.std::allocator", align 1
  %ref.tmp700 = alloca %"class.std::allocator", align 1
  %ref.tmp704 = alloca %"class.std::allocator", align 1
  %ref.tmp708 = alloca %"class.std::allocator", align 1
  %ref.tmp712 = alloca %"class.std::allocator", align 1
  %ref.tmp716 = alloca %"class.std::allocator", align 1
  %ref.tmp720 = alloca %"class.std::allocator", align 1
  %ref.tmp724 = alloca %"class.std::allocator", align 1
  %ref.tmp728 = alloca %"class.std::allocator", align 1
  %ref.tmp732 = alloca %"class.std::allocator", align 1
  %ref.tmp736 = alloca %"class.std::allocator", align 1
  %ref.tmp740 = alloca %"class.std::allocator", align 1
  %ref.tmp744 = alloca %"class.std::allocator", align 1
  %ref.tmp748 = alloca %"class.std::allocator", align 1
  %ref.tmp752 = alloca %"class.std::allocator", align 1
  %ref.tmp756 = alloca %"class.std::allocator", align 1
  %ref.tmp760 = alloca %"class.std::allocator", align 1
  %ref.tmp764 = alloca %"class.std::allocator", align 1
  %ref.tmp768 = alloca %"class.std::allocator", align 1
  %ref.tmp772 = alloca %"class.std::allocator", align 1
  %ref.tmp776 = alloca %"class.std::allocator", align 1
  %ref.tmp780 = alloca %"class.std::allocator", align 1
  %ref.tmp784 = alloca %"class.std::allocator", align 1
  %ref.tmp788 = alloca %"class.std::allocator", align 1
  %ref.tmp792 = alloca %"class.std::allocator", align 1
  %ref.tmp796 = alloca %"class.std::allocator", align 1
  %ref.tmp800 = alloca %"class.std::allocator", align 1
  %ref.tmp804 = alloca %"class.std::allocator", align 1
  %ref.tmp808 = alloca %"class.std::allocator", align 1
  %ref.tmp812 = alloca %"class.std::allocator", align 1
  %ref.tmp816 = alloca %"class.std::allocator", align 1
  %ref.tmp820 = alloca %"class.std::allocator", align 1
  %ref.tmp824 = alloca %"class.std::allocator", align 1
  %ref.tmp828 = alloca %"class.std::allocator", align 1
  %ref.tmp832 = alloca %"class.std::allocator", align 1
  %ref.tmp836 = alloca %"class.std::allocator", align 1
  %ref.tmp840 = alloca %"class.std::allocator", align 1
  %ref.tmp844 = alloca %"class.std::allocator", align 1
  %ref.tmp848 = alloca %"class.std::allocator", align 1
  %ref.tmp852 = alloca %"class.std::allocator", align 1
  %ref.tmp856 = alloca %"class.std::allocator", align 1
  %ref.tmp860 = alloca %"class.std::allocator", align 1
  %ref.tmp864 = alloca %"class.std::allocator", align 1
  %ref.tmp868 = alloca %"class.std::allocator", align 1
  %ref.tmp872 = alloca %"class.std::allocator", align 1
  %ref.tmp876 = alloca %"class.std::allocator", align 1
  %ref.tmp880 = alloca %"class.std::allocator", align 1
  %ref.tmp884 = alloca %"class.std::allocator", align 1
  %ref.tmp888 = alloca %"class.std::allocator", align 1
  %ref.tmp892 = alloca %"class.std::allocator", align 1
  %ref.tmp896 = alloca %"class.std::allocator", align 1
  %ref.tmp900 = alloca %"class.std::allocator", align 1
  %ref.tmp904 = alloca %"class.std::allocator", align 1
  %ref.tmp908 = alloca %"class.std::allocator", align 1
  %ref.tmp912 = alloca %"class.std::allocator", align 1
  %ref.tmp916 = alloca %"class.std::allocator", align 1
  %ref.tmp920 = alloca %"class.std::allocator", align 1
  %ref.tmp924 = alloca %"class.std::allocator", align 1
  %ref.tmp928 = alloca %"class.std::allocator", align 1
  %ref.tmp932 = alloca %"class.std::allocator", align 1
  %ref.tmp936 = alloca %"class.std::allocator", align 1
  %ref.tmp940 = alloca %"class.std::allocator", align 1
  %ref.tmp944 = alloca %"class.std::allocator", align 1
  %ref.tmp948 = alloca %"class.std::allocator", align 1
  %ref.tmp952 = alloca %"class.std::allocator", align 1
  %ref.tmp956 = alloca %"class.std::allocator", align 1
  %ref.tmp960 = alloca %"class.std::allocator", align 1
  %ref.tmp964 = alloca %"class.std::allocator", align 1
  %ref.tmp968 = alloca %"class.std::allocator", align 1
  %ref.tmp972 = alloca %"class.std::allocator", align 1
  %ref.tmp976 = alloca %"class.std::allocator", align 1
  %ref.tmp980 = alloca %"class.std::allocator", align 1
  %ref.tmp984 = alloca %"class.std::allocator", align 1
  %ref.tmp988 = alloca %"class.std::allocator", align 1
  %ref.tmp992 = alloca %"class.std::allocator", align 1
  %ref.tmp996 = alloca %"class.std::allocator", align 1
  %ref.tmp1000 = alloca %"class.std::allocator", align 1
  %ref.tmp1004 = alloca %"class.std::allocator", align 1
  %ref.tmp1008 = alloca %"class.std::allocator", align 1
  %ref.tmp1012 = alloca %"class.std::allocator", align 1
  %ref.tmp1016 = alloca %"class.std::allocator", align 1
  %ref.tmp1020 = alloca %"class.std::allocator", align 1
  %ref.tmp1024 = alloca %"class.std::allocator", align 1
  %ref.tmp1028 = alloca %"class.std::allocator", align 1
  %ref.tmp1032 = alloca %"class.std::allocator", align 1
  store ptr %agg.result, ptr %result.ptr, align 8
  store i32 %k, ptr %k.addr, align 4
  %0 = load i32, ptr %k.addr, align 4
  switch i32 %0, label %sw.default [
    i32 25, label %sw.bb
    i32 5, label %sw.bb1
    i32 6, label %sw.bb5
    i32 10, label %sw.bb9
    i32 18, label %sw.bb10
    i32 19, label %sw.bb14
    i32 20, label %sw.bb18
    i32 21, label %sw.bb22
    i32 22, label %sw.bb26
    i32 23, label %sw.bb30
    i32 24, label %sw.bb34
    i32 26, label %sw.bb35
    i32 231, label %sw.bb39
    i32 11, label %sw.bb43
    i32 36, label %sw.bb47
    i32 37, label %sw.bb51
    i32 38, label %sw.bb51
    i32 81, label %sw.bb55
    i32 50, label %sw.bb59
    i32 51, label %sw.bb63
    i32 52, label %sw.bb67
    i32 53, label %sw.bb71
    i32 54, label %sw.bb75
    i32 55, label %sw.bb79
    i32 56, label %sw.bb83
    i32 57, label %sw.bb87
    i32 58, label %sw.bb91
    i32 59, label %sw.bb95
    i32 60, label %sw.bb99
    i32 61, label %sw.bb103
    i32 62, label %sw.bb107
    i32 63, label %sw.bb111
    i32 79, label %sw.bb115
    i32 64, label %sw.bb119
    i32 39, label %sw.bb123
    i32 40, label %sw.bb127
    i32 70, label %sw.bb131
    i32 71, label %sw.bb135
    i32 72, label %sw.bb139
    i32 73, label %sw.bb143
    i32 41, label %sw.bb147
    i32 42, label %sw.bb147
    i32 44, label %sw.bb151
    i32 43, label %sw.bb151
    i32 46, label %sw.bb155
    i32 45, label %sw.bb155
    i32 47, label %sw.bb159
    i32 76, label %sw.bb163
    i32 77, label %sw.bb167
    i32 78, label %sw.bb171
    i32 49, label %sw.bb175
    i32 208, label %sw.bb179
    i32 209, label %sw.bb183
    i32 207, label %sw.bb187
    i32 210, label %sw.bb191
    i32 148, label %sw.bb195
    i32 149, label %sw.bb199
    i32 146, label %sw.bb203
    i32 147, label %sw.bb207
    i32 85, label %sw.bb211
    i32 86, label %sw.bb215
    i32 88, label %sw.bb219
    i32 89, label %sw.bb223
    i32 90, label %sw.bb227
    i32 91, label %sw.bb231
    i32 92, label %sw.bb235
    i32 93, label %sw.bb239
    i32 87, label %sw.bb243
    i32 94, label %sw.bb247
    i32 96, label %sw.bb251
    i32 97, label %sw.bb255
    i32 95, label %sw.bb259
    i32 98, label %sw.bb263
    i32 99, label %sw.bb267
    i32 100, label %sw.bb271
    i32 102, label %sw.bb275
    i32 101, label %sw.bb279
    i32 105, label %sw.bb283
    i32 104, label %sw.bb287
    i32 103, label %sw.bb291
    i32 107, label %sw.bb295
    i32 106, label %sw.bb299
    i32 109, label %sw.bb303
    i32 108, label %sw.bb307
    i32 111, label %sw.bb311
    i32 110, label %sw.bb315
    i32 113, label %sw.bb319
    i32 112, label %sw.bb323
    i32 118, label %sw.bb327
    i32 119, label %sw.bb331
    i32 120, label %sw.bb335
    i32 121, label %sw.bb339
    i32 122, label %sw.bb343
    i32 123, label %sw.bb347
    i32 124, label %sw.bb351
    i32 125, label %sw.bb355
    i32 33, label %sw.bb359
    i32 117, label %sw.bb363
    i32 116, label %sw.bb367
    i32 133, label %sw.bb371
    i32 135, label %sw.bb375
    i32 143, label %sw.bb379
    i32 141, label %sw.bb383
    i32 137, label %sw.bb387
    i32 139, label %sw.bb391
    i32 35, label %sw.bb395
    i32 84, label %sw.bb399
    i32 131, label %sw.bb403
    i32 126, label %sw.bb407
    i32 114, label %sw.bb411
    i32 115, label %sw.bb415
    i32 219, label %sw.bb419
    i32 220, label %sw.bb423
    i32 223, label %sw.bb427
    i32 235, label %sw.bb431
    i32 243, label %sw.bb435
    i32 254, label %sw.bb439
    i32 245, label %sw.bb443
    i32 246, label %sw.bb447
    i32 247, label %sw.bb451
    i32 248, label %sw.bb455
    i32 249, label %sw.bb459
    i32 244, label %sw.bb463
    i32 250, label %sw.bb467
    i32 251, label %sw.bb471
    i32 253, label %sw.bb475
    i32 252, label %sw.bb479
    i32 255, label %sw.bb483
    i32 256, label %sw.bb487
    i32 257, label %sw.bb491
    i32 258, label %sw.bb495
    i32 259, label %sw.bb499
    i32 260, label %sw.bb503
    i32 267, label %sw.bb507
    i32 268, label %sw.bb511
    i32 269, label %sw.bb515
    i32 270, label %sw.bb519
    i32 272, label %sw.bb523
    i32 271, label %sw.bb527
    i32 262, label %sw.bb531
    i32 264, label %sw.bb535
    i32 266, label %sw.bb539
    i32 274, label %sw.bb543
    i32 273, label %sw.bb547
    i32 275, label %sw.bb551
    i32 276, label %sw.bb555
    i32 277, label %sw.bb559
    i32 278, label %sw.bb563
    i32 279, label %sw.bb567
    i32 280, label %sw.bb571
    i32 281, label %sw.bb575
    i32 282, label %sw.bb579
    i32 283, label %sw.bb583
    i32 284, label %sw.bb587
    i32 286, label %sw.bb591
    i32 289, label %sw.bb595
    i32 285, label %sw.bb599
    i32 287, label %sw.bb603
    i32 288, label %sw.bb607
    i32 290, label %sw.bb611
    i32 291, label %sw.bb615
    i32 292, label %sw.bb619
    i32 293, label %sw.bb623
    i32 294, label %sw.bb627
    i32 296, label %sw.bb631
    i32 298, label %sw.bb635
    i32 300, label %sw.bb639
    i32 302, label %sw.bb643
    i32 153, label %sw.bb647
    i32 154, label %sw.bb651
    i32 155, label %sw.bb655
    i32 156, label %sw.bb659
    i32 157, label %sw.bb663
    i32 158, label %sw.bb667
    i32 159, label %sw.bb671
    i32 160, label %sw.bb675
    i32 161, label %sw.bb679
    i32 162, label %sw.bb683
    i32 163, label %sw.bb687
    i32 164, label %sw.bb691
    i32 165, label %sw.bb695
    i32 166, label %sw.bb699
    i32 167, label %sw.bb703
    i32 168, label %sw.bb707
    i32 169, label %sw.bb711
    i32 170, label %sw.bb715
    i32 171, label %sw.bb719
    i32 172, label %sw.bb723
    i32 173, label %sw.bb727
    i32 174, label %sw.bb731
    i32 175, label %sw.bb735
    i32 176, label %sw.bb739
    i32 177, label %sw.bb743
    i32 178, label %sw.bb747
    i32 179, label %sw.bb751
    i32 181, label %sw.bb755
    i32 183, label %sw.bb759
    i32 185, label %sw.bb763
    i32 187, label %sw.bb767
    i32 189, label %sw.bb771
    i32 191, label %sw.bb775
    i32 193, label %sw.bb779
    i32 195, label %sw.bb783
    i32 197, label %sw.bb787
    i32 198, label %sw.bb791
    i32 199, label %sw.bb795
    i32 200, label %sw.bb799
    i32 201, label %sw.bb803
    i32 202, label %sw.bb807
    i32 203, label %sw.bb811
    i32 204, label %sw.bb815
    i32 205, label %sw.bb819
    i32 206, label %sw.bb823
    i32 303, label %sw.bb827
    i32 305, label %sw.bb831
    i32 306, label %sw.bb835
    i32 307, label %sw.bb839
    i32 309, label %sw.bb843
    i32 308, label %sw.bb847
    i32 312, label %sw.bb851
    i32 313, label %sw.bb855
    i32 314, label %sw.bb859
    i32 315, label %sw.bb863
    i32 316, label %sw.bb867
    i32 317, label %sw.bb871
    i32 326, label %sw.bb875
    i32 327, label %sw.bb879
    i32 328, label %sw.bb883
    i32 318, label %sw.bb887
    i32 319, label %sw.bb891
    i32 311, label %sw.bb895
    i32 310, label %sw.bb899
    i32 324, label %sw.bb903
    i32 323, label %sw.bb907
    i32 320, label %sw.bb911
    i32 321, label %sw.bb915
    i32 322, label %sw.bb919
    i32 304, label %sw.bb923
    i32 334, label %sw.bb927
    i32 325, label %sw.bb931
    i32 344, label %sw.bb935
    i32 345, label %sw.bb939
    i32 346, label %sw.bb943
    i32 335, label %sw.bb947
    i32 336, label %sw.bb951
    i32 337, label %sw.bb955
    i32 339, label %sw.bb959
    i32 340, label %sw.bb963
    i32 341, label %sw.bb967
    i32 342, label %sw.bb971
    i32 348, label %sw.bb975
    i32 350, label %sw.bb979
    i32 343, label %sw.bb983
    i32 338, label %sw.bb987
    i32 330, label %sw.bb991
    i32 332, label %sw.bb995
    i32 333, label %sw.bb999
    i32 240, label %sw.bb1003
    i32 239, label %sw.bb1007
    i32 241, label %sw.bb1011
    i32 238, label %sw.bb1015
    i32 237, label %sw.bb1019
    i32 352, label %sw.bb1023
    i32 353, label %sw.bb1027
    i32 27, label %sw.bb1031
  ]

sw.bb:                                            ; preds = %entry
  call void @_ZNSaIcEC1Ev(ptr noundef nonnull align 1 dereferenceable(1) %ref.tmp) #3
  invoke void @_ZNSt7__cxx1112basic_stringIcSt11char_traitsIcESaIcEEC2IS3_EEPKcRKS3_(ptr noundef nonnull align 8 dereferenceable(32) %agg.result, ptr noundef @.str.79, ptr noundef nonnull align 1 dereferenceable(1) %ref.tmp)
          to label %invoke.cont unwind label %lpad

invoke.cont:                                      ; preds = %sw.bb
  call void @_ZNSaIcED1Ev(ptr noundef nonnull align 1 dereferenceable(1) %ref.tmp) #3
  br label %return

lpad:                                             ; preds = %sw.bb
  %1 = landingpad { ptr, i32 }
          cleanup
  %2 = extractvalue { ptr, i32 } %1, 0
  store ptr %2, ptr %exn.slot, align 8
  %3 = extractvalue { ptr, i32 } %1, 1
  store i32 %3, ptr %ehselector.slot, align 4
  call void @_ZNSaIcED1Ev(ptr noundef nonnull align 1 dereferenceable(1) %ref.tmp) #3
  br label %eh.resume

sw.bb1:                                           ; preds = %entry
  call void @_ZNSaIcEC1Ev(ptr noundef nonnull align 1 dereferenceable(1) %ref.tmp2) #3
  invoke void @_ZNSt7__cxx1112basic_stringIcSt11char_traitsIcESaIcEEC2IS3_EEPKcRKS3_(ptr noundef nonnull align 8 dereferenceable(32) %agg.result, ptr noundef @.str.80, ptr noundef nonnull align 1 dereferenceable(1) %ref.tmp2)
          to label %invoke.cont4 unwind label %lpad3

invoke.cont4:                                     ; preds = %sw.bb1
  call void @_ZNSaIcED1Ev(ptr noundef nonnull align 1 dereferenceable(1) %ref.tmp2) #3
  br label %return

lpad3:                                            ; preds = %sw.bb1
  %4 = landingpad { ptr, i32 }
          cleanup
  %5 = extractvalue { ptr, i32 } %4, 0
  store ptr %5, ptr %exn.slot, align 8
  %6 = extractvalue { ptr, i32 } %4, 1
  store i32 %6, ptr %ehselector.slot, align 4
  call void @_ZNSaIcED1Ev(ptr noundef nonnull align 1 dereferenceable(1) %ref.tmp2) #3
  br label %eh.resume

sw.bb5:                                           ; preds = %entry
  call void @_ZNSaIcEC1Ev(ptr noundef nonnull align 1 dereferenceable(1) %ref.tmp6) #3
  invoke void @_ZNSt7__cxx1112basic_stringIcSt11char_traitsIcESaIcEEC2IS3_EEPKcRKS3_(ptr noundef nonnull align 8 dereferenceable(32) %agg.result, ptr noundef @.str.81, ptr noundef nonnull align 1 dereferenceable(1) %ref.tmp6)
          to label %invoke.cont8 unwind label %lpad7

invoke.cont8:                                     ; preds = %sw.bb5
  call void @_ZNSaIcED1Ev(ptr noundef nonnull align 1 dereferenceable(1) %ref.tmp6) #3
  br label %return

lpad7:                                            ; preds = %sw.bb5
  %7 = landingpad { ptr, i32 }
          cleanup
  %8 = extractvalue { ptr, i32 } %7, 0
  store ptr %8, ptr %exn.slot, align 8
  %9 = extractvalue { ptr, i32 } %7, 1
  store i32 %9, ptr %ehselector.slot, align 4
  call void @_ZNSaIcED1Ev(ptr noundef nonnull align 1 dereferenceable(1) %ref.tmp6) #3
  br label %eh.resume

sw.bb9:                                           ; preds = %entry
  br label %sw.epilog

sw.bb10:                                          ; preds = %entry
  call void @_ZNSaIcEC1Ev(ptr noundef nonnull align 1 dereferenceable(1) %ref.tmp11) #3
  invoke void @_ZNSt7__cxx1112basic_stringIcSt11char_traitsIcESaIcEEC2IS3_EEPKcRKS3_(ptr noundef nonnull align 8 dereferenceable(32) %agg.result, ptr noundef @.str.82, ptr noundef nonnull align 1 dereferenceable(1) %ref.tmp11)
          to label %invoke.cont13 unwind label %lpad12

invoke.cont13:                                    ; preds = %sw.bb10
  call void @_ZNSaIcED1Ev(ptr noundef nonnull align 1 dereferenceable(1) %ref.tmp11) #3
  br label %return

lpad12:                                           ; preds = %sw.bb10
  %10 = landingpad { ptr, i32 }
          cleanup
  %11 = extractvalue { ptr, i32 } %10, 0
  store ptr %11, ptr %exn.slot, align 8
  %12 = extractvalue { ptr, i32 } %10, 1
  store i32 %12, ptr %ehselector.slot, align 4
  call void @_ZNSaIcED1Ev(ptr noundef nonnull align 1 dereferenceable(1) %ref.tmp11) #3
  br label %eh.resume

sw.bb14:                                          ; preds = %entry
  call void @_ZNSaIcEC1Ev(ptr noundef nonnull align 1 dereferenceable(1) %ref.tmp15) #3
  invoke void @_ZNSt7__cxx1112basic_stringIcSt11char_traitsIcESaIcEEC2IS3_EEPKcRKS3_(ptr noundef nonnull align 8 dereferenceable(32) %agg.result, ptr noundef @.str.83, ptr noundef nonnull align 1 dereferenceable(1) %ref.tmp15)
          to label %invoke.cont17 unwind label %lpad16

invoke.cont17:                                    ; preds = %sw.bb14
  call void @_ZNSaIcED1Ev(ptr noundef nonnull align 1 dereferenceable(1) %ref.tmp15) #3
  br label %return

lpad16:                                           ; preds = %sw.bb14
  %13 = landingpad { ptr, i32 }
          cleanup
  %14 = extractvalue { ptr, i32 } %13, 0
  store ptr %14, ptr %exn.slot, align 8
  %15 = extractvalue { ptr, i32 } %13, 1
  store i32 %15, ptr %ehselector.slot, align 4
  call void @_ZNSaIcED1Ev(ptr noundef nonnull align 1 dereferenceable(1) %ref.tmp15) #3
  br label %eh.resume

sw.bb18:                                          ; preds = %entry
  call void @_ZNSaIcEC1Ev(ptr noundef nonnull align 1 dereferenceable(1) %ref.tmp19) #3
  invoke void @_ZNSt7__cxx1112basic_stringIcSt11char_traitsIcESaIcEEC2IS3_EEPKcRKS3_(ptr noundef nonnull align 8 dereferenceable(32) %agg.result, ptr noundef @.str.84, ptr noundef nonnull align 1 dereferenceable(1) %ref.tmp19)
          to label %invoke.cont21 unwind label %lpad20

invoke.cont21:                                    ; preds = %sw.bb18
  call void @_ZNSaIcED1Ev(ptr noundef nonnull align 1 dereferenceable(1) %ref.tmp19) #3
  br label %return

lpad20:                                           ; preds = %sw.bb18
  %16 = landingpad { ptr, i32 }
          cleanup
  %17 = extractvalue { ptr, i32 } %16, 0
  store ptr %17, ptr %exn.slot, align 8
  %18 = extractvalue { ptr, i32 } %16, 1
  store i32 %18, ptr %ehselector.slot, align 4
  call void @_ZNSaIcED1Ev(ptr noundef nonnull align 1 dereferenceable(1) %ref.tmp19) #3
  br label %eh.resume

sw.bb22:                                          ; preds = %entry
  call void @_ZNSaIcEC1Ev(ptr noundef nonnull align 1 dereferenceable(1) %ref.tmp23) #3
  invoke void @_ZNSt7__cxx1112basic_stringIcSt11char_traitsIcESaIcEEC2IS3_EEPKcRKS3_(ptr noundef nonnull align 8 dereferenceable(32) %agg.result, ptr noundef @.str.85, ptr noundef nonnull align 1 dereferenceable(1) %ref.tmp23)
          to label %invoke.cont25 unwind label %lpad24

invoke.cont25:                                    ; preds = %sw.bb22
  call void @_ZNSaIcED1Ev(ptr noundef nonnull align 1 dereferenceable(1) %ref.tmp23) #3
  br label %return

lpad24:                                           ; preds = %sw.bb22
  %19 = landingpad { ptr, i32 }
          cleanup
  %20 = extractvalue { ptr, i32 } %19, 0
  store ptr %20, ptr %exn.slot, align 8
  %21 = extractvalue { ptr, i32 } %19, 1
  store i32 %21, ptr %ehselector.slot, align 4
  call void @_ZNSaIcED1Ev(ptr noundef nonnull align 1 dereferenceable(1) %ref.tmp23) #3
  br label %eh.resume

sw.bb26:                                          ; preds = %entry
  call void @_ZNSaIcEC1Ev(ptr noundef nonnull align 1 dereferenceable(1) %ref.tmp27) #3
  invoke void @_ZNSt7__cxx1112basic_stringIcSt11char_traitsIcESaIcEEC2IS3_EEPKcRKS3_(ptr noundef nonnull align 8 dereferenceable(32) %agg.result, ptr noundef @.str.86, ptr noundef nonnull align 1 dereferenceable(1) %ref.tmp27)
          to label %invoke.cont29 unwind label %lpad28

invoke.cont29:                                    ; preds = %sw.bb26
  call void @_ZNSaIcED1Ev(ptr noundef nonnull align 1 dereferenceable(1) %ref.tmp27) #3
  br label %return

lpad28:                                           ; preds = %sw.bb26
  %22 = landingpad { ptr, i32 }
          cleanup
  %23 = extractvalue { ptr, i32 } %22, 0
  store ptr %23, ptr %exn.slot, align 8
  %24 = extractvalue { ptr, i32 } %22, 1
  store i32 %24, ptr %ehselector.slot, align 4
  call void @_ZNSaIcED1Ev(ptr noundef nonnull align 1 dereferenceable(1) %ref.tmp27) #3
  br label %eh.resume

sw.bb30:                                          ; preds = %entry
  call void @_ZNSaIcEC1Ev(ptr noundef nonnull align 1 dereferenceable(1) %ref.tmp31) #3
  invoke void @_ZNSt7__cxx1112basic_stringIcSt11char_traitsIcESaIcEEC2IS3_EEPKcRKS3_(ptr noundef nonnull align 8 dereferenceable(32) %agg.result, ptr noundef @.str.87, ptr noundef nonnull align 1 dereferenceable(1) %ref.tmp31)
          to label %invoke.cont33 unwind label %lpad32

invoke.cont33:                                    ; preds = %sw.bb30
  call void @_ZNSaIcED1Ev(ptr noundef nonnull align 1 dereferenceable(1) %ref.tmp31) #3
  br label %return

lpad32:                                           ; preds = %sw.bb30
  %25 = landingpad { ptr, i32 }
          cleanup
  %26 = extractvalue { ptr, i32 } %25, 0
  store ptr %26, ptr %exn.slot, align 8
  %27 = extractvalue { ptr, i32 } %25, 1
  store i32 %27, ptr %ehselector.slot, align 4
  call void @_ZNSaIcED1Ev(ptr noundef nonnull align 1 dereferenceable(1) %ref.tmp31) #3
  br label %eh.resume

sw.bb34:                                          ; preds = %entry
  br label %sw.epilog

sw.bb35:                                          ; preds = %entry
  call void @_ZNSaIcEC1Ev(ptr noundef nonnull align 1 dereferenceable(1) %ref.tmp36) #3
  invoke void @_ZNSt7__cxx1112basic_stringIcSt11char_traitsIcESaIcEEC2IS3_EEPKcRKS3_(ptr noundef nonnull align 8 dereferenceable(32) %agg.result, ptr noundef @.str.88, ptr noundef nonnull align 1 dereferenceable(1) %ref.tmp36)
          to label %invoke.cont38 unwind label %lpad37

invoke.cont38:                                    ; preds = %sw.bb35
  call void @_ZNSaIcED1Ev(ptr noundef nonnull align 1 dereferenceable(1) %ref.tmp36) #3
  br label %return

lpad37:                                           ; preds = %sw.bb35
  %28 = landingpad { ptr, i32 }
          cleanup
  %29 = extractvalue { ptr, i32 } %28, 0
  store ptr %29, ptr %exn.slot, align 8
  %30 = extractvalue { ptr, i32 } %28, 1
  store i32 %30, ptr %ehselector.slot, align 4
  call void @_ZNSaIcED1Ev(ptr noundef nonnull align 1 dereferenceable(1) %ref.tmp36) #3
  br label %eh.resume

sw.bb39:                                          ; preds = %entry
  call void @_ZNSaIcEC1Ev(ptr noundef nonnull align 1 dereferenceable(1) %ref.tmp40) #3
  invoke void @_ZNSt7__cxx1112basic_stringIcSt11char_traitsIcESaIcEEC2IS3_EEPKcRKS3_(ptr noundef nonnull align 8 dereferenceable(32) %agg.result, ptr noundef @.str.89, ptr noundef nonnull align 1 dereferenceable(1) %ref.tmp40)
          to label %invoke.cont42 unwind label %lpad41

invoke.cont42:                                    ; preds = %sw.bb39
  call void @_ZNSaIcED1Ev(ptr noundef nonnull align 1 dereferenceable(1) %ref.tmp40) #3
  br label %return

lpad41:                                           ; preds = %sw.bb39
  %31 = landingpad { ptr, i32 }
          cleanup
  %32 = extractvalue { ptr, i32 } %31, 0
  store ptr %32, ptr %exn.slot, align 8
  %33 = extractvalue { ptr, i32 } %31, 1
  store i32 %33, ptr %ehselector.slot, align 4
  call void @_ZNSaIcED1Ev(ptr noundef nonnull align 1 dereferenceable(1) %ref.tmp40) #3
  br label %eh.resume

sw.bb43:                                          ; preds = %entry
  call void @_ZNSaIcEC1Ev(ptr noundef nonnull align 1 dereferenceable(1) %ref.tmp44) #3
  invoke void @_ZNSt7__cxx1112basic_stringIcSt11char_traitsIcESaIcEEC2IS3_EEPKcRKS3_(ptr noundef nonnull align 8 dereferenceable(32) %agg.result, ptr noundef @.str.90, ptr noundef nonnull align 1 dereferenceable(1) %ref.tmp44)
          to label %invoke.cont46 unwind label %lpad45

invoke.cont46:                                    ; preds = %sw.bb43
  call void @_ZNSaIcED1Ev(ptr noundef nonnull align 1 dereferenceable(1) %ref.tmp44) #3
  br label %return

lpad45:                                           ; preds = %sw.bb43
  %34 = landingpad { ptr, i32 }
          cleanup
  %35 = extractvalue { ptr, i32 } %34, 0
  store ptr %35, ptr %exn.slot, align 8
  %36 = extractvalue { ptr, i32 } %34, 1
  store i32 %36, ptr %ehselector.slot, align 4
  call void @_ZNSaIcED1Ev(ptr noundef nonnull align 1 dereferenceable(1) %ref.tmp44) #3
  br label %eh.resume

sw.bb47:                                          ; preds = %entry
  call void @_ZNSaIcEC1Ev(ptr noundef nonnull align 1 dereferenceable(1) %ref.tmp48) #3
  invoke void @_ZNSt7__cxx1112basic_stringIcSt11char_traitsIcESaIcEEC2IS3_EEPKcRKS3_(ptr noundef nonnull align 8 dereferenceable(32) %agg.result, ptr noundef @.str.91, ptr noundef nonnull align 1 dereferenceable(1) %ref.tmp48)
          to label %invoke.cont50 unwind label %lpad49

invoke.cont50:                                    ; preds = %sw.bb47
  call void @_ZNSaIcED1Ev(ptr noundef nonnull align 1 dereferenceable(1) %ref.tmp48) #3
  br label %return

lpad49:                                           ; preds = %sw.bb47
  %37 = landingpad { ptr, i32 }
          cleanup
  %38 = extractvalue { ptr, i32 } %37, 0
  store ptr %38, ptr %exn.slot, align 8
  %39 = extractvalue { ptr, i32 } %37, 1
  store i32 %39, ptr %ehselector.slot, align 4
  call void @_ZNSaIcED1Ev(ptr noundef nonnull align 1 dereferenceable(1) %ref.tmp48) #3
  br label %eh.resume

sw.bb51:                                          ; preds = %entry, %entry
  call void @_ZNSaIcEC1Ev(ptr noundef nonnull align 1 dereferenceable(1) %ref.tmp52) #3
  invoke void @_ZNSt7__cxx1112basic_stringIcSt11char_traitsIcESaIcEEC2IS3_EEPKcRKS3_(ptr noundef nonnull align 8 dereferenceable(32) %agg.result, ptr noundef @.str.92, ptr noundef nonnull align 1 dereferenceable(1) %ref.tmp52)
          to label %invoke.cont54 unwind label %lpad53

invoke.cont54:                                    ; preds = %sw.bb51
  call void @_ZNSaIcED1Ev(ptr noundef nonnull align 1 dereferenceable(1) %ref.tmp52) #3
  br label %return

lpad53:                                           ; preds = %sw.bb51
  %40 = landingpad { ptr, i32 }
          cleanup
  %41 = extractvalue { ptr, i32 } %40, 0
  store ptr %41, ptr %exn.slot, align 8
  %42 = extractvalue { ptr, i32 } %40, 1
  store i32 %42, ptr %ehselector.slot, align 4
  call void @_ZNSaIcED1Ev(ptr noundef nonnull align 1 dereferenceable(1) %ref.tmp52) #3
  br label %eh.resume

sw.bb55:                                          ; preds = %entry
  call void @_ZNSaIcEC1Ev(ptr noundef nonnull align 1 dereferenceable(1) %ref.tmp56) #3
  invoke void @_ZNSt7__cxx1112basic_stringIcSt11char_traitsIcESaIcEEC2IS3_EEPKcRKS3_(ptr noundef nonnull align 8 dereferenceable(32) %agg.result, ptr noundef @.str.93, ptr noundef nonnull align 1 dereferenceable(1) %ref.tmp56)
          to label %invoke.cont58 unwind label %lpad57

invoke.cont58:                                    ; preds = %sw.bb55
  call void @_ZNSaIcED1Ev(ptr noundef nonnull align 1 dereferenceable(1) %ref.tmp56) #3
  br label %return

lpad57:                                           ; preds = %sw.bb55
  %43 = landingpad { ptr, i32 }
          cleanup
  %44 = extractvalue { ptr, i32 } %43, 0
  store ptr %44, ptr %exn.slot, align 8
  %45 = extractvalue { ptr, i32 } %43, 1
  store i32 %45, ptr %ehselector.slot, align 4
  call void @_ZNSaIcED1Ev(ptr noundef nonnull align 1 dereferenceable(1) %ref.tmp56) #3
  br label %eh.resume

sw.bb59:                                          ; preds = %entry
  call void @_ZNSaIcEC1Ev(ptr noundef nonnull align 1 dereferenceable(1) %ref.tmp60) #3
  invoke void @_ZNSt7__cxx1112basic_stringIcSt11char_traitsIcESaIcEEC2IS3_EEPKcRKS3_(ptr noundef nonnull align 8 dereferenceable(32) %agg.result, ptr noundef @.str.94, ptr noundef nonnull align 1 dereferenceable(1) %ref.tmp60)
          to label %invoke.cont62 unwind label %lpad61

invoke.cont62:                                    ; preds = %sw.bb59
  call void @_ZNSaIcED1Ev(ptr noundef nonnull align 1 dereferenceable(1) %ref.tmp60) #3
  br label %return

lpad61:                                           ; preds = %sw.bb59
  %46 = landingpad { ptr, i32 }
          cleanup
  %47 = extractvalue { ptr, i32 } %46, 0
  store ptr %47, ptr %exn.slot, align 8
  %48 = extractvalue { ptr, i32 } %46, 1
  store i32 %48, ptr %ehselector.slot, align 4
  call void @_ZNSaIcED1Ev(ptr noundef nonnull align 1 dereferenceable(1) %ref.tmp60) #3
  br label %eh.resume

sw.bb63:                                          ; preds = %entry
  call void @_ZNSaIcEC1Ev(ptr noundef nonnull align 1 dereferenceable(1) %ref.tmp64) #3
  invoke void @_ZNSt7__cxx1112basic_stringIcSt11char_traitsIcESaIcEEC2IS3_EEPKcRKS3_(ptr noundef nonnull align 8 dereferenceable(32) %agg.result, ptr noundef @.str.95, ptr noundef nonnull align 1 dereferenceable(1) %ref.tmp64)
          to label %invoke.cont66 unwind label %lpad65

invoke.cont66:                                    ; preds = %sw.bb63
  call void @_ZNSaIcED1Ev(ptr noundef nonnull align 1 dereferenceable(1) %ref.tmp64) #3
  br label %return

lpad65:                                           ; preds = %sw.bb63
  %49 = landingpad { ptr, i32 }
          cleanup
  %50 = extractvalue { ptr, i32 } %49, 0
  store ptr %50, ptr %exn.slot, align 8
  %51 = extractvalue { ptr, i32 } %49, 1
  store i32 %51, ptr %ehselector.slot, align 4
  call void @_ZNSaIcED1Ev(ptr noundef nonnull align 1 dereferenceable(1) %ref.tmp64) #3
  br label %eh.resume

sw.bb67:                                          ; preds = %entry
  call void @_ZNSaIcEC1Ev(ptr noundef nonnull align 1 dereferenceable(1) %ref.tmp68) #3
  invoke void @_ZNSt7__cxx1112basic_stringIcSt11char_traitsIcESaIcEEC2IS3_EEPKcRKS3_(ptr noundef nonnull align 8 dereferenceable(32) %agg.result, ptr noundef @.str.96, ptr noundef nonnull align 1 dereferenceable(1) %ref.tmp68)
          to label %invoke.cont70 unwind label %lpad69

invoke.cont70:                                    ; preds = %sw.bb67
  call void @_ZNSaIcED1Ev(ptr noundef nonnull align 1 dereferenceable(1) %ref.tmp68) #3
  br label %return

lpad69:                                           ; preds = %sw.bb67
  %52 = landingpad { ptr, i32 }
          cleanup
  %53 = extractvalue { ptr, i32 } %52, 0
  store ptr %53, ptr %exn.slot, align 8
  %54 = extractvalue { ptr, i32 } %52, 1
  store i32 %54, ptr %ehselector.slot, align 4
  call void @_ZNSaIcED1Ev(ptr noundef nonnull align 1 dereferenceable(1) %ref.tmp68) #3
  br label %eh.resume

sw.bb71:                                          ; preds = %entry
  call void @_ZNSaIcEC1Ev(ptr noundef nonnull align 1 dereferenceable(1) %ref.tmp72) #3
  invoke void @_ZNSt7__cxx1112basic_stringIcSt11char_traitsIcESaIcEEC2IS3_EEPKcRKS3_(ptr noundef nonnull align 8 dereferenceable(32) %agg.result, ptr noundef @.str.97, ptr noundef nonnull align 1 dereferenceable(1) %ref.tmp72)
          to label %invoke.cont74 unwind label %lpad73

invoke.cont74:                                    ; preds = %sw.bb71
  call void @_ZNSaIcED1Ev(ptr noundef nonnull align 1 dereferenceable(1) %ref.tmp72) #3
  br label %return

lpad73:                                           ; preds = %sw.bb71
  %55 = landingpad { ptr, i32 }
          cleanup
  %56 = extractvalue { ptr, i32 } %55, 0
  store ptr %56, ptr %exn.slot, align 8
  %57 = extractvalue { ptr, i32 } %55, 1
  store i32 %57, ptr %ehselector.slot, align 4
  call void @_ZNSaIcED1Ev(ptr noundef nonnull align 1 dereferenceable(1) %ref.tmp72) #3
  br label %eh.resume

sw.bb75:                                          ; preds = %entry
  call void @_ZNSaIcEC1Ev(ptr noundef nonnull align 1 dereferenceable(1) %ref.tmp76) #3
  invoke void @_ZNSt7__cxx1112basic_stringIcSt11char_traitsIcESaIcEEC2IS3_EEPKcRKS3_(ptr noundef nonnull align 8 dereferenceable(32) %agg.result, ptr noundef @.str.98, ptr noundef nonnull align 1 dereferenceable(1) %ref.tmp76)
          to label %invoke.cont78 unwind label %lpad77

invoke.cont78:                                    ; preds = %sw.bb75
  call void @_ZNSaIcED1Ev(ptr noundef nonnull align 1 dereferenceable(1) %ref.tmp76) #3
  br label %return

lpad77:                                           ; preds = %sw.bb75
  %58 = landingpad { ptr, i32 }
          cleanup
  %59 = extractvalue { ptr, i32 } %58, 0
  store ptr %59, ptr %exn.slot, align 8
  %60 = extractvalue { ptr, i32 } %58, 1
  store i32 %60, ptr %ehselector.slot, align 4
  call void @_ZNSaIcED1Ev(ptr noundef nonnull align 1 dereferenceable(1) %ref.tmp76) #3
  br label %eh.resume

sw.bb79:                                          ; preds = %entry
  call void @_ZNSaIcEC1Ev(ptr noundef nonnull align 1 dereferenceable(1) %ref.tmp80) #3
  invoke void @_ZNSt7__cxx1112basic_stringIcSt11char_traitsIcESaIcEEC2IS3_EEPKcRKS3_(ptr noundef nonnull align 8 dereferenceable(32) %agg.result, ptr noundef @.str.99, ptr noundef nonnull align 1 dereferenceable(1) %ref.tmp80)
          to label %invoke.cont82 unwind label %lpad81

invoke.cont82:                                    ; preds = %sw.bb79
  call void @_ZNSaIcED1Ev(ptr noundef nonnull align 1 dereferenceable(1) %ref.tmp80) #3
  br label %return

lpad81:                                           ; preds = %sw.bb79
  %61 = landingpad { ptr, i32 }
          cleanup
  %62 = extractvalue { ptr, i32 } %61, 0
  store ptr %62, ptr %exn.slot, align 8
  %63 = extractvalue { ptr, i32 } %61, 1
  store i32 %63, ptr %ehselector.slot, align 4
  call void @_ZNSaIcED1Ev(ptr noundef nonnull align 1 dereferenceable(1) %ref.tmp80) #3
  br label %eh.resume

sw.bb83:                                          ; preds = %entry
  call void @_ZNSaIcEC1Ev(ptr noundef nonnull align 1 dereferenceable(1) %ref.tmp84) #3
  invoke void @_ZNSt7__cxx1112basic_stringIcSt11char_traitsIcESaIcEEC2IS3_EEPKcRKS3_(ptr noundef nonnull align 8 dereferenceable(32) %agg.result, ptr noundef @.str.100, ptr noundef nonnull align 1 dereferenceable(1) %ref.tmp84)
          to label %invoke.cont86 unwind label %lpad85

invoke.cont86:                                    ; preds = %sw.bb83
  call void @_ZNSaIcED1Ev(ptr noundef nonnull align 1 dereferenceable(1) %ref.tmp84) #3
  br label %return

lpad85:                                           ; preds = %sw.bb83
  %64 = landingpad { ptr, i32 }
          cleanup
  %65 = extractvalue { ptr, i32 } %64, 0
  store ptr %65, ptr %exn.slot, align 8
  %66 = extractvalue { ptr, i32 } %64, 1
  store i32 %66, ptr %ehselector.slot, align 4
  call void @_ZNSaIcED1Ev(ptr noundef nonnull align 1 dereferenceable(1) %ref.tmp84) #3
  br label %eh.resume

sw.bb87:                                          ; preds = %entry
  call void @_ZNSaIcEC1Ev(ptr noundef nonnull align 1 dereferenceable(1) %ref.tmp88) #3
  invoke void @_ZNSt7__cxx1112basic_stringIcSt11char_traitsIcESaIcEEC2IS3_EEPKcRKS3_(ptr noundef nonnull align 8 dereferenceable(32) %agg.result, ptr noundef @.str.101, ptr noundef nonnull align 1 dereferenceable(1) %ref.tmp88)
          to label %invoke.cont90 unwind label %lpad89

invoke.cont90:                                    ; preds = %sw.bb87
  call void @_ZNSaIcED1Ev(ptr noundef nonnull align 1 dereferenceable(1) %ref.tmp88) #3
  br label %return

lpad89:                                           ; preds = %sw.bb87
  %67 = landingpad { ptr, i32 }
          cleanup
  %68 = extractvalue { ptr, i32 } %67, 0
  store ptr %68, ptr %exn.slot, align 8
  %69 = extractvalue { ptr, i32 } %67, 1
  store i32 %69, ptr %ehselector.slot, align 4
  call void @_ZNSaIcED1Ev(ptr noundef nonnull align 1 dereferenceable(1) %ref.tmp88) #3
  br label %eh.resume

sw.bb91:                                          ; preds = %entry
  call void @_ZNSaIcEC1Ev(ptr noundef nonnull align 1 dereferenceable(1) %ref.tmp92) #3
  invoke void @_ZNSt7__cxx1112basic_stringIcSt11char_traitsIcESaIcEEC2IS3_EEPKcRKS3_(ptr noundef nonnull align 8 dereferenceable(32) %agg.result, ptr noundef @.str.102, ptr noundef nonnull align 1 dereferenceable(1) %ref.tmp92)
          to label %invoke.cont94 unwind label %lpad93

invoke.cont94:                                    ; preds = %sw.bb91
  call void @_ZNSaIcED1Ev(ptr noundef nonnull align 1 dereferenceable(1) %ref.tmp92) #3
  br label %return

lpad93:                                           ; preds = %sw.bb91
  %70 = landingpad { ptr, i32 }
          cleanup
  %71 = extractvalue { ptr, i32 } %70, 0
  store ptr %71, ptr %exn.slot, align 8
  %72 = extractvalue { ptr, i32 } %70, 1
  store i32 %72, ptr %ehselector.slot, align 4
  call void @_ZNSaIcED1Ev(ptr noundef nonnull align 1 dereferenceable(1) %ref.tmp92) #3
  br label %eh.resume

sw.bb95:                                          ; preds = %entry
  call void @_ZNSaIcEC1Ev(ptr noundef nonnull align 1 dereferenceable(1) %ref.tmp96) #3
  invoke void @_ZNSt7__cxx1112basic_stringIcSt11char_traitsIcESaIcEEC2IS3_EEPKcRKS3_(ptr noundef nonnull align 8 dereferenceable(32) %agg.result, ptr noundef @.str.103, ptr noundef nonnull align 1 dereferenceable(1) %ref.tmp96)
          to label %invoke.cont98 unwind label %lpad97

invoke.cont98:                                    ; preds = %sw.bb95
  call void @_ZNSaIcED1Ev(ptr noundef nonnull align 1 dereferenceable(1) %ref.tmp96) #3
  br label %return

lpad97:                                           ; preds = %sw.bb95
  %73 = landingpad { ptr, i32 }
          cleanup
  %74 = extractvalue { ptr, i32 } %73, 0
  store ptr %74, ptr %exn.slot, align 8
  %75 = extractvalue { ptr, i32 } %73, 1
  store i32 %75, ptr %ehselector.slot, align 4
  call void @_ZNSaIcED1Ev(ptr noundef nonnull align 1 dereferenceable(1) %ref.tmp96) #3
  br label %eh.resume

sw.bb99:                                          ; preds = %entry
  call void @_ZNSaIcEC1Ev(ptr noundef nonnull align 1 dereferenceable(1) %ref.tmp100) #3
  invoke void @_ZNSt7__cxx1112basic_stringIcSt11char_traitsIcESaIcEEC2IS3_EEPKcRKS3_(ptr noundef nonnull align 8 dereferenceable(32) %agg.result, ptr noundef @.str.104, ptr noundef nonnull align 1 dereferenceable(1) %ref.tmp100)
          to label %invoke.cont102 unwind label %lpad101

invoke.cont102:                                   ; preds = %sw.bb99
  call void @_ZNSaIcED1Ev(ptr noundef nonnull align 1 dereferenceable(1) %ref.tmp100) #3
  br label %return

lpad101:                                          ; preds = %sw.bb99
  %76 = landingpad { ptr, i32 }
          cleanup
  %77 = extractvalue { ptr, i32 } %76, 0
  store ptr %77, ptr %exn.slot, align 8
  %78 = extractvalue { ptr, i32 } %76, 1
  store i32 %78, ptr %ehselector.slot, align 4
  call void @_ZNSaIcED1Ev(ptr noundef nonnull align 1 dereferenceable(1) %ref.tmp100) #3
  br label %eh.resume

sw.bb103:                                         ; preds = %entry
  call void @_ZNSaIcEC1Ev(ptr noundef nonnull align 1 dereferenceable(1) %ref.tmp104) #3
  invoke void @_ZNSt7__cxx1112basic_stringIcSt11char_traitsIcESaIcEEC2IS3_EEPKcRKS3_(ptr noundef nonnull align 8 dereferenceable(32) %agg.result, ptr noundef @.str.105, ptr noundef nonnull align 1 dereferenceable(1) %ref.tmp104)
          to label %invoke.cont106 unwind label %lpad105

invoke.cont106:                                   ; preds = %sw.bb103
  call void @_ZNSaIcED1Ev(ptr noundef nonnull align 1 dereferenceable(1) %ref.tmp104) #3
  br label %return

lpad105:                                          ; preds = %sw.bb103
  %79 = landingpad { ptr, i32 }
          cleanup
  %80 = extractvalue { ptr, i32 } %79, 0
  store ptr %80, ptr %exn.slot, align 8
  %81 = extractvalue { ptr, i32 } %79, 1
  store i32 %81, ptr %ehselector.slot, align 4
  call void @_ZNSaIcED1Ev(ptr noundef nonnull align 1 dereferenceable(1) %ref.tmp104) #3
  br label %eh.resume

sw.bb107:                                         ; preds = %entry
  call void @_ZNSaIcEC1Ev(ptr noundef nonnull align 1 dereferenceable(1) %ref.tmp108) #3
  invoke void @_ZNSt7__cxx1112basic_stringIcSt11char_traitsIcESaIcEEC2IS3_EEPKcRKS3_(ptr noundef nonnull align 8 dereferenceable(32) %agg.result, ptr noundef @.str.106, ptr noundef nonnull align 1 dereferenceable(1) %ref.tmp108)
          to label %invoke.cont110 unwind label %lpad109

invoke.cont110:                                   ; preds = %sw.bb107
  call void @_ZNSaIcED1Ev(ptr noundef nonnull align 1 dereferenceable(1) %ref.tmp108) #3
  br label %return

lpad109:                                          ; preds = %sw.bb107
  %82 = landingpad { ptr, i32 }
          cleanup
  %83 = extractvalue { ptr, i32 } %82, 0
  store ptr %83, ptr %exn.slot, align 8
  %84 = extractvalue { ptr, i32 } %82, 1
  store i32 %84, ptr %ehselector.slot, align 4
  call void @_ZNSaIcED1Ev(ptr noundef nonnull align 1 dereferenceable(1) %ref.tmp108) #3
  br label %eh.resume

sw.bb111:                                         ; preds = %entry
  call void @_ZNSaIcEC1Ev(ptr noundef nonnull align 1 dereferenceable(1) %ref.tmp112) #3
  invoke void @_ZNSt7__cxx1112basic_stringIcSt11char_traitsIcESaIcEEC2IS3_EEPKcRKS3_(ptr noundef nonnull align 8 dereferenceable(32) %agg.result, ptr noundef @.str.107, ptr noundef nonnull align 1 dereferenceable(1) %ref.tmp112)
          to label %invoke.cont114 unwind label %lpad113

invoke.cont114:                                   ; preds = %sw.bb111
  call void @_ZNSaIcED1Ev(ptr noundef nonnull align 1 dereferenceable(1) %ref.tmp112) #3
  br label %return

lpad113:                                          ; preds = %sw.bb111
  %85 = landingpad { ptr, i32 }
          cleanup
  %86 = extractvalue { ptr, i32 } %85, 0
  store ptr %86, ptr %exn.slot, align 8
  %87 = extractvalue { ptr, i32 } %85, 1
  store i32 %87, ptr %ehselector.slot, align 4
  call void @_ZNSaIcED1Ev(ptr noundef nonnull align 1 dereferenceable(1) %ref.tmp112) #3
  br label %eh.resume

sw.bb115:                                         ; preds = %entry
  call void @_ZNSaIcEC1Ev(ptr noundef nonnull align 1 dereferenceable(1) %ref.tmp116) #3
  invoke void @_ZNSt7__cxx1112basic_stringIcSt11char_traitsIcESaIcEEC2IS3_EEPKcRKS3_(ptr noundef nonnull align 8 dereferenceable(32) %agg.result, ptr noundef @.str.108, ptr noundef nonnull align 1 dereferenceable(1) %ref.tmp116)
          to label %invoke.cont118 unwind label %lpad117

invoke.cont118:                                   ; preds = %sw.bb115
  call void @_ZNSaIcED1Ev(ptr noundef nonnull align 1 dereferenceable(1) %ref.tmp116) #3
  br label %return

lpad117:                                          ; preds = %sw.bb115
  %88 = landingpad { ptr, i32 }
          cleanup
  %89 = extractvalue { ptr, i32 } %88, 0
  store ptr %89, ptr %exn.slot, align 8
  %90 = extractvalue { ptr, i32 } %88, 1
  store i32 %90, ptr %ehselector.slot, align 4
  call void @_ZNSaIcED1Ev(ptr noundef nonnull align 1 dereferenceable(1) %ref.tmp116) #3
  br label %eh.resume

sw.bb119:                                         ; preds = %entry
  call void @_ZNSaIcEC1Ev(ptr noundef nonnull align 1 dereferenceable(1) %ref.tmp120) #3
  invoke void @_ZNSt7__cxx1112basic_stringIcSt11char_traitsIcESaIcEEC2IS3_EEPKcRKS3_(ptr noundef nonnull align 8 dereferenceable(32) %agg.result, ptr noundef @.str.109, ptr noundef nonnull align 1 dereferenceable(1) %ref.tmp120)
          to label %invoke.cont122 unwind label %lpad121

invoke.cont122:                                   ; preds = %sw.bb119
  call void @_ZNSaIcED1Ev(ptr noundef nonnull align 1 dereferenceable(1) %ref.tmp120) #3
  br label %return

lpad121:                                          ; preds = %sw.bb119
  %91 = landingpad { ptr, i32 }
          cleanup
  %92 = extractvalue { ptr, i32 } %91, 0
  store ptr %92, ptr %exn.slot, align 8
  %93 = extractvalue { ptr, i32 } %91, 1
  store i32 %93, ptr %ehselector.slot, align 4
  call void @_ZNSaIcED1Ev(ptr noundef nonnull align 1 dereferenceable(1) %ref.tmp120) #3
  br label %eh.resume

sw.bb123:                                         ; preds = %entry
  call void @_ZNSaIcEC1Ev(ptr noundef nonnull align 1 dereferenceable(1) %ref.tmp124) #3
  invoke void @_ZNSt7__cxx1112basic_stringIcSt11char_traitsIcESaIcEEC2IS3_EEPKcRKS3_(ptr noundef nonnull align 8 dereferenceable(32) %agg.result, ptr noundef @.str.110, ptr noundef nonnull align 1 dereferenceable(1) %ref.tmp124)
          to label %invoke.cont126 unwind label %lpad125

invoke.cont126:                                   ; preds = %sw.bb123
  call void @_ZNSaIcED1Ev(ptr noundef nonnull align 1 dereferenceable(1) %ref.tmp124) #3
  br label %return

lpad125:                                          ; preds = %sw.bb123
  %94 = landingpad { ptr, i32 }
          cleanup
  %95 = extractvalue { ptr, i32 } %94, 0
  store ptr %95, ptr %exn.slot, align 8
  %96 = extractvalue { ptr, i32 } %94, 1
  store i32 %96, ptr %ehselector.slot, align 4
  call void @_ZNSaIcED1Ev(ptr noundef nonnull align 1 dereferenceable(1) %ref.tmp124) #3
  br label %eh.resume

sw.bb127:                                         ; preds = %entry
  call void @_ZNSaIcEC1Ev(ptr noundef nonnull align 1 dereferenceable(1) %ref.tmp128) #3
  invoke void @_ZNSt7__cxx1112basic_stringIcSt11char_traitsIcESaIcEEC2IS3_EEPKcRKS3_(ptr noundef nonnull align 8 dereferenceable(32) %agg.result, ptr noundef @.str.110, ptr noundef nonnull align 1 dereferenceable(1) %ref.tmp128)
          to label %invoke.cont130 unwind label %lpad129

invoke.cont130:                                   ; preds = %sw.bb127
  call void @_ZNSaIcED1Ev(ptr noundef nonnull align 1 dereferenceable(1) %ref.tmp128) #3
  br label %return

lpad129:                                          ; preds = %sw.bb127
  %97 = landingpad { ptr, i32 }
          cleanup
  %98 = extractvalue { ptr, i32 } %97, 0
  store ptr %98, ptr %exn.slot, align 8
  %99 = extractvalue { ptr, i32 } %97, 1
  store i32 %99, ptr %ehselector.slot, align 4
  call void @_ZNSaIcED1Ev(ptr noundef nonnull align 1 dereferenceable(1) %ref.tmp128) #3
  br label %eh.resume

sw.bb131:                                         ; preds = %entry
  call void @_ZNSaIcEC1Ev(ptr noundef nonnull align 1 dereferenceable(1) %ref.tmp132) #3
  invoke void @_ZNSt7__cxx1112basic_stringIcSt11char_traitsIcESaIcEEC2IS3_EEPKcRKS3_(ptr noundef nonnull align 8 dereferenceable(32) %agg.result, ptr noundef @.str.111, ptr noundef nonnull align 1 dereferenceable(1) %ref.tmp132)
          to label %invoke.cont134 unwind label %lpad133

invoke.cont134:                                   ; preds = %sw.bb131
  call void @_ZNSaIcED1Ev(ptr noundef nonnull align 1 dereferenceable(1) %ref.tmp132) #3
  br label %return

lpad133:                                          ; preds = %sw.bb131
  %100 = landingpad { ptr, i32 }
          cleanup
  %101 = extractvalue { ptr, i32 } %100, 0
  store ptr %101, ptr %exn.slot, align 8
  %102 = extractvalue { ptr, i32 } %100, 1
  store i32 %102, ptr %ehselector.slot, align 4
  call void @_ZNSaIcED1Ev(ptr noundef nonnull align 1 dereferenceable(1) %ref.tmp132) #3
  br label %eh.resume

sw.bb135:                                         ; preds = %entry
  call void @_ZNSaIcEC1Ev(ptr noundef nonnull align 1 dereferenceable(1) %ref.tmp136) #3
  invoke void @_ZNSt7__cxx1112basic_stringIcSt11char_traitsIcESaIcEEC2IS3_EEPKcRKS3_(ptr noundef nonnull align 8 dereferenceable(32) %agg.result, ptr noundef @.str.112, ptr noundef nonnull align 1 dereferenceable(1) %ref.tmp136)
          to label %invoke.cont138 unwind label %lpad137

invoke.cont138:                                   ; preds = %sw.bb135
  call void @_ZNSaIcED1Ev(ptr noundef nonnull align 1 dereferenceable(1) %ref.tmp136) #3
  br label %return

lpad137:                                          ; preds = %sw.bb135
  %103 = landingpad { ptr, i32 }
          cleanup
  %104 = extractvalue { ptr, i32 } %103, 0
  store ptr %104, ptr %exn.slot, align 8
  %105 = extractvalue { ptr, i32 } %103, 1
  store i32 %105, ptr %ehselector.slot, align 4
  call void @_ZNSaIcED1Ev(ptr noundef nonnull align 1 dereferenceable(1) %ref.tmp136) #3
  br label %eh.resume

sw.bb139:                                         ; preds = %entry
  call void @_ZNSaIcEC1Ev(ptr noundef nonnull align 1 dereferenceable(1) %ref.tmp140) #3
  invoke void @_ZNSt7__cxx1112basic_stringIcSt11char_traitsIcESaIcEEC2IS3_EEPKcRKS3_(ptr noundef nonnull align 8 dereferenceable(32) %agg.result, ptr noundef @.str.113, ptr noundef nonnull align 1 dereferenceable(1) %ref.tmp140)
          to label %invoke.cont142 unwind label %lpad141

invoke.cont142:                                   ; preds = %sw.bb139
  call void @_ZNSaIcED1Ev(ptr noundef nonnull align 1 dereferenceable(1) %ref.tmp140) #3
  br label %return

lpad141:                                          ; preds = %sw.bb139
  %106 = landingpad { ptr, i32 }
          cleanup
  %107 = extractvalue { ptr, i32 } %106, 0
  store ptr %107, ptr %exn.slot, align 8
  %108 = extractvalue { ptr, i32 } %106, 1
  store i32 %108, ptr %ehselector.slot, align 4
  call void @_ZNSaIcED1Ev(ptr noundef nonnull align 1 dereferenceable(1) %ref.tmp140) #3
  br label %eh.resume

sw.bb143:                                         ; preds = %entry
  call void @_ZNSaIcEC1Ev(ptr noundef nonnull align 1 dereferenceable(1) %ref.tmp144) #3
  invoke void @_ZNSt7__cxx1112basic_stringIcSt11char_traitsIcESaIcEEC2IS3_EEPKcRKS3_(ptr noundef nonnull align 8 dereferenceable(32) %agg.result, ptr noundef @.str.114, ptr noundef nonnull align 1 dereferenceable(1) %ref.tmp144)
          to label %invoke.cont146 unwind label %lpad145

invoke.cont146:                                   ; preds = %sw.bb143
  call void @_ZNSaIcED1Ev(ptr noundef nonnull align 1 dereferenceable(1) %ref.tmp144) #3
  br label %return

lpad145:                                          ; preds = %sw.bb143
  %109 = landingpad { ptr, i32 }
          cleanup
  %110 = extractvalue { ptr, i32 } %109, 0
  store ptr %110, ptr %exn.slot, align 8
  %111 = extractvalue { ptr, i32 } %109, 1
  store i32 %111, ptr %ehselector.slot, align 4
  call void @_ZNSaIcED1Ev(ptr noundef nonnull align 1 dereferenceable(1) %ref.tmp144) #3
  br label %eh.resume

sw.bb147:                                         ; preds = %entry, %entry
  call void @_ZNSaIcEC1Ev(ptr noundef nonnull align 1 dereferenceable(1) %ref.tmp148) #3
  invoke void @_ZNSt7__cxx1112basic_stringIcSt11char_traitsIcESaIcEEC2IS3_EEPKcRKS3_(ptr noundef nonnull align 8 dereferenceable(32) %agg.result, ptr noundef @.str.115, ptr noundef nonnull align 1 dereferenceable(1) %ref.tmp148)
          to label %invoke.cont150 unwind label %lpad149

invoke.cont150:                                   ; preds = %sw.bb147
  call void @_ZNSaIcED1Ev(ptr noundef nonnull align 1 dereferenceable(1) %ref.tmp148) #3
  br label %return

lpad149:                                          ; preds = %sw.bb147
  %112 = landingpad { ptr, i32 }
          cleanup
  %113 = extractvalue { ptr, i32 } %112, 0
  store ptr %113, ptr %exn.slot, align 8
  %114 = extractvalue { ptr, i32 } %112, 1
  store i32 %114, ptr %ehselector.slot, align 4
  call void @_ZNSaIcED1Ev(ptr noundef nonnull align 1 dereferenceable(1) %ref.tmp148) #3
  br label %eh.resume

sw.bb151:                                         ; preds = %entry, %entry
  call void @_ZNSaIcEC1Ev(ptr noundef nonnull align 1 dereferenceable(1) %ref.tmp152) #3
  invoke void @_ZNSt7__cxx1112basic_stringIcSt11char_traitsIcESaIcEEC2IS3_EEPKcRKS3_(ptr noundef nonnull align 8 dereferenceable(32) %agg.result, ptr noundef @.str.116, ptr noundef nonnull align 1 dereferenceable(1) %ref.tmp152)
          to label %invoke.cont154 unwind label %lpad153

invoke.cont154:                                   ; preds = %sw.bb151
  call void @_ZNSaIcED1Ev(ptr noundef nonnull align 1 dereferenceable(1) %ref.tmp152) #3
  br label %return

lpad153:                                          ; preds = %sw.bb151
  %115 = landingpad { ptr, i32 }
          cleanup
  %116 = extractvalue { ptr, i32 } %115, 0
  store ptr %116, ptr %exn.slot, align 8
  %117 = extractvalue { ptr, i32 } %115, 1
  store i32 %117, ptr %ehselector.slot, align 4
  call void @_ZNSaIcED1Ev(ptr noundef nonnull align 1 dereferenceable(1) %ref.tmp152) #3
  br label %eh.resume

sw.bb155:                                         ; preds = %entry, %entry
  call void @_ZNSaIcEC1Ev(ptr noundef nonnull align 1 dereferenceable(1) %ref.tmp156) #3
  invoke void @_ZNSt7__cxx1112basic_stringIcSt11char_traitsIcESaIcEEC2IS3_EEPKcRKS3_(ptr noundef nonnull align 8 dereferenceable(32) %agg.result, ptr noundef @.str.117, ptr noundef nonnull align 1 dereferenceable(1) %ref.tmp156)
          to label %invoke.cont158 unwind label %lpad157

invoke.cont158:                                   ; preds = %sw.bb155
  call void @_ZNSaIcED1Ev(ptr noundef nonnull align 1 dereferenceable(1) %ref.tmp156) #3
  br label %return

lpad157:                                          ; preds = %sw.bb155
  %118 = landingpad { ptr, i32 }
          cleanup
  %119 = extractvalue { ptr, i32 } %118, 0
  store ptr %119, ptr %exn.slot, align 8
  %120 = extractvalue { ptr, i32 } %118, 1
  store i32 %120, ptr %ehselector.slot, align 4
  call void @_ZNSaIcED1Ev(ptr noundef nonnull align 1 dereferenceable(1) %ref.tmp156) #3
  br label %eh.resume

sw.bb159:                                         ; preds = %entry
  call void @_ZNSaIcEC1Ev(ptr noundef nonnull align 1 dereferenceable(1) %ref.tmp160) #3
  invoke void @_ZNSt7__cxx1112basic_stringIcSt11char_traitsIcESaIcEEC2IS3_EEPKcRKS3_(ptr noundef nonnull align 8 dereferenceable(32) %agg.result, ptr noundef @.str.118, ptr noundef nonnull align 1 dereferenceable(1) %ref.tmp160)
          to label %invoke.cont162 unwind label %lpad161

invoke.cont162:                                   ; preds = %sw.bb159
  call void @_ZNSaIcED1Ev(ptr noundef nonnull align 1 dereferenceable(1) %ref.tmp160) #3
  br label %return

lpad161:                                          ; preds = %sw.bb159
  %121 = landingpad { ptr, i32 }
          cleanup
  %122 = extractvalue { ptr, i32 } %121, 0
  store ptr %122, ptr %exn.slot, align 8
  %123 = extractvalue { ptr, i32 } %121, 1
  store i32 %123, ptr %ehselector.slot, align 4
  call void @_ZNSaIcED1Ev(ptr noundef nonnull align 1 dereferenceable(1) %ref.tmp160) #3
  br label %eh.resume

sw.bb163:                                         ; preds = %entry
  call void @_ZNSaIcEC1Ev(ptr noundef nonnull align 1 dereferenceable(1) %ref.tmp164) #3
  invoke void @_ZNSt7__cxx1112basic_stringIcSt11char_traitsIcESaIcEEC2IS3_EEPKcRKS3_(ptr noundef nonnull align 8 dereferenceable(32) %agg.result, ptr noundef @.str.119, ptr noundef nonnull align 1 dereferenceable(1) %ref.tmp164)
          to label %invoke.cont166 unwind label %lpad165

invoke.cont166:                                   ; preds = %sw.bb163
  call void @_ZNSaIcED1Ev(ptr noundef nonnull align 1 dereferenceable(1) %ref.tmp164) #3
  br label %return

lpad165:                                          ; preds = %sw.bb163
  %124 = landingpad { ptr, i32 }
          cleanup
  %125 = extractvalue { ptr, i32 } %124, 0
  store ptr %125, ptr %exn.slot, align 8
  %126 = extractvalue { ptr, i32 } %124, 1
  store i32 %126, ptr %ehselector.slot, align 4
  call void @_ZNSaIcED1Ev(ptr noundef nonnull align 1 dereferenceable(1) %ref.tmp164) #3
  br label %eh.resume

sw.bb167:                                         ; preds = %entry
  call void @_ZNSaIcEC1Ev(ptr noundef nonnull align 1 dereferenceable(1) %ref.tmp168) #3
  invoke void @_ZNSt7__cxx1112basic_stringIcSt11char_traitsIcESaIcEEC2IS3_EEPKcRKS3_(ptr noundef nonnull align 8 dereferenceable(32) %agg.result, ptr noundef @.str.120, ptr noundef nonnull align 1 dereferenceable(1) %ref.tmp168)
          to label %invoke.cont170 unwind label %lpad169

invoke.cont170:                                   ; preds = %sw.bb167
  call void @_ZNSaIcED1Ev(ptr noundef nonnull align 1 dereferenceable(1) %ref.tmp168) #3
  br label %return

lpad169:                                          ; preds = %sw.bb167
  %127 = landingpad { ptr, i32 }
          cleanup
  %128 = extractvalue { ptr, i32 } %127, 0
  store ptr %128, ptr %exn.slot, align 8
  %129 = extractvalue { ptr, i32 } %127, 1
  store i32 %129, ptr %ehselector.slot, align 4
  call void @_ZNSaIcED1Ev(ptr noundef nonnull align 1 dereferenceable(1) %ref.tmp168) #3
  br label %eh.resume

sw.bb171:                                         ; preds = %entry
  call void @_ZNSaIcEC1Ev(ptr noundef nonnull align 1 dereferenceable(1) %ref.tmp172) #3
  invoke void @_ZNSt7__cxx1112basic_stringIcSt11char_traitsIcESaIcEEC2IS3_EEPKcRKS3_(ptr noundef nonnull align 8 dereferenceable(32) %agg.result, ptr noundef @.str.121, ptr noundef nonnull align 1 dereferenceable(1) %ref.tmp172)
          to label %invoke.cont174 unwind label %lpad173

invoke.cont174:                                   ; preds = %sw.bb171
  call void @_ZNSaIcED1Ev(ptr noundef nonnull align 1 dereferenceable(1) %ref.tmp172) #3
  br label %return

lpad173:                                          ; preds = %sw.bb171
  %130 = landingpad { ptr, i32 }
          cleanup
  %131 = extractvalue { ptr, i32 } %130, 0
  store ptr %131, ptr %exn.slot, align 8
  %132 = extractvalue { ptr, i32 } %130, 1
  store i32 %132, ptr %ehselector.slot, align 4
  call void @_ZNSaIcED1Ev(ptr noundef nonnull align 1 dereferenceable(1) %ref.tmp172) #3
  br label %eh.resume

sw.bb175:                                         ; preds = %entry
  call void @_ZNSaIcEC1Ev(ptr noundef nonnull align 1 dereferenceable(1) %ref.tmp176) #3
  invoke void @_ZNSt7__cxx1112basic_stringIcSt11char_traitsIcESaIcEEC2IS3_EEPKcRKS3_(ptr noundef nonnull align 8 dereferenceable(32) %agg.result, ptr noundef @.str.122, ptr noundef nonnull align 1 dereferenceable(1) %ref.tmp176)
          to label %invoke.cont178 unwind label %lpad177

invoke.cont178:                                   ; preds = %sw.bb175
  call void @_ZNSaIcED1Ev(ptr noundef nonnull align 1 dereferenceable(1) %ref.tmp176) #3
  br label %return

lpad177:                                          ; preds = %sw.bb175
  %133 = landingpad { ptr, i32 }
          cleanup
  %134 = extractvalue { ptr, i32 } %133, 0
  store ptr %134, ptr %exn.slot, align 8
  %135 = extractvalue { ptr, i32 } %133, 1
  store i32 %135, ptr %ehselector.slot, align 4
  call void @_ZNSaIcED1Ev(ptr noundef nonnull align 1 dereferenceable(1) %ref.tmp176) #3
  br label %eh.resume

sw.bb179:                                         ; preds = %entry
  call void @_ZNSaIcEC1Ev(ptr noundef nonnull align 1 dereferenceable(1) %ref.tmp180) #3
  invoke void @_ZNSt7__cxx1112basic_stringIcSt11char_traitsIcESaIcEEC2IS3_EEPKcRKS3_(ptr noundef nonnull align 8 dereferenceable(32) %agg.result, ptr noundef @.str.123, ptr noundef nonnull align 1 dereferenceable(1) %ref.tmp180)
          to label %invoke.cont182 unwind label %lpad181

invoke.cont182:                                   ; preds = %sw.bb179
  call void @_ZNSaIcED1Ev(ptr noundef nonnull align 1 dereferenceable(1) %ref.tmp180) #3
  br label %return

lpad181:                                          ; preds = %sw.bb179
  %136 = landingpad { ptr, i32 }
          cleanup
  %137 = extractvalue { ptr, i32 } %136, 0
  store ptr %137, ptr %exn.slot, align 8
  %138 = extractvalue { ptr, i32 } %136, 1
  store i32 %138, ptr %ehselector.slot, align 4
  call void @_ZNSaIcED1Ev(ptr noundef nonnull align 1 dereferenceable(1) %ref.tmp180) #3
  br label %eh.resume

sw.bb183:                                         ; preds = %entry
  call void @_ZNSaIcEC1Ev(ptr noundef nonnull align 1 dereferenceable(1) %ref.tmp184) #3
  invoke void @_ZNSt7__cxx1112basic_stringIcSt11char_traitsIcESaIcEEC2IS3_EEPKcRKS3_(ptr noundef nonnull align 8 dereferenceable(32) %agg.result, ptr noundef @.str.124, ptr noundef nonnull align 1 dereferenceable(1) %ref.tmp184)
          to label %invoke.cont186 unwind label %lpad185

invoke.cont186:                                   ; preds = %sw.bb183
  call void @_ZNSaIcED1Ev(ptr noundef nonnull align 1 dereferenceable(1) %ref.tmp184) #3
  br label %return

lpad185:                                          ; preds = %sw.bb183
  %139 = landingpad { ptr, i32 }
          cleanup
  %140 = extractvalue { ptr, i32 } %139, 0
  store ptr %140, ptr %exn.slot, align 8
  %141 = extractvalue { ptr, i32 } %139, 1
  store i32 %141, ptr %ehselector.slot, align 4
  call void @_ZNSaIcED1Ev(ptr noundef nonnull align 1 dereferenceable(1) %ref.tmp184) #3
  br label %eh.resume

sw.bb187:                                         ; preds = %entry
  call void @_ZNSaIcEC1Ev(ptr noundef nonnull align 1 dereferenceable(1) %ref.tmp188) #3
  invoke void @_ZNSt7__cxx1112basic_stringIcSt11char_traitsIcESaIcEEC2IS3_EEPKcRKS3_(ptr noundef nonnull align 8 dereferenceable(32) %agg.result, ptr noundef @.str.125, ptr noundef nonnull align 1 dereferenceable(1) %ref.tmp188)
          to label %invoke.cont190 unwind label %lpad189

invoke.cont190:                                   ; preds = %sw.bb187
  call void @_ZNSaIcED1Ev(ptr noundef nonnull align 1 dereferenceable(1) %ref.tmp188) #3
  br label %return

lpad189:                                          ; preds = %sw.bb187
  %142 = landingpad { ptr, i32 }
          cleanup
  %143 = extractvalue { ptr, i32 } %142, 0
  store ptr %143, ptr %exn.slot, align 8
  %144 = extractvalue { ptr, i32 } %142, 1
  store i32 %144, ptr %ehselector.slot, align 4
  call void @_ZNSaIcED1Ev(ptr noundef nonnull align 1 dereferenceable(1) %ref.tmp188) #3
  br label %eh.resume

sw.bb191:                                         ; preds = %entry
  call void @_ZNSaIcEC1Ev(ptr noundef nonnull align 1 dereferenceable(1) %ref.tmp192) #3
  invoke void @_ZNSt7__cxx1112basic_stringIcSt11char_traitsIcESaIcEEC2IS3_EEPKcRKS3_(ptr noundef nonnull align 8 dereferenceable(32) %agg.result, ptr noundef @.str.126, ptr noundef nonnull align 1 dereferenceable(1) %ref.tmp192)
          to label %invoke.cont194 unwind label %lpad193

invoke.cont194:                                   ; preds = %sw.bb191
  call void @_ZNSaIcED1Ev(ptr noundef nonnull align 1 dereferenceable(1) %ref.tmp192) #3
  br label %return

lpad193:                                          ; preds = %sw.bb191
  %145 = landingpad { ptr, i32 }
          cleanup
  %146 = extractvalue { ptr, i32 } %145, 0
  store ptr %146, ptr %exn.slot, align 8
  %147 = extractvalue { ptr, i32 } %145, 1
  store i32 %147, ptr %ehselector.slot, align 4
  call void @_ZNSaIcED1Ev(ptr noundef nonnull align 1 dereferenceable(1) %ref.tmp192) #3
  br label %eh.resume

sw.bb195:                                         ; preds = %entry
  call void @_ZNSaIcEC1Ev(ptr noundef nonnull align 1 dereferenceable(1) %ref.tmp196) #3
  invoke void @_ZNSt7__cxx1112basic_stringIcSt11char_traitsIcESaIcEEC2IS3_EEPKcRKS3_(ptr noundef nonnull align 8 dereferenceable(32) %agg.result, ptr noundef @.str.127, ptr noundef nonnull align 1 dereferenceable(1) %ref.tmp196)
          to label %invoke.cont198 unwind label %lpad197

invoke.cont198:                                   ; preds = %sw.bb195
  call void @_ZNSaIcED1Ev(ptr noundef nonnull align 1 dereferenceable(1) %ref.tmp196) #3
  br label %return

lpad197:                                          ; preds = %sw.bb195
  %148 = landingpad { ptr, i32 }
          cleanup
  %149 = extractvalue { ptr, i32 } %148, 0
  store ptr %149, ptr %exn.slot, align 8
  %150 = extractvalue { ptr, i32 } %148, 1
  store i32 %150, ptr %ehselector.slot, align 4
  call void @_ZNSaIcED1Ev(ptr noundef nonnull align 1 dereferenceable(1) %ref.tmp196) #3
  br label %eh.resume

sw.bb199:                                         ; preds = %entry
  call void @_ZNSaIcEC1Ev(ptr noundef nonnull align 1 dereferenceable(1) %ref.tmp200) #3
  invoke void @_ZNSt7__cxx1112basic_stringIcSt11char_traitsIcESaIcEEC2IS3_EEPKcRKS3_(ptr noundef nonnull align 8 dereferenceable(32) %agg.result, ptr noundef @.str.128, ptr noundef nonnull align 1 dereferenceable(1) %ref.tmp200)
          to label %invoke.cont202 unwind label %lpad201

invoke.cont202:                                   ; preds = %sw.bb199
  call void @_ZNSaIcED1Ev(ptr noundef nonnull align 1 dereferenceable(1) %ref.tmp200) #3
  br label %return

lpad201:                                          ; preds = %sw.bb199
  %151 = landingpad { ptr, i32 }
          cleanup
  %152 = extractvalue { ptr, i32 } %151, 0
  store ptr %152, ptr %exn.slot, align 8
  %153 = extractvalue { ptr, i32 } %151, 1
  store i32 %153, ptr %ehselector.slot, align 4
  call void @_ZNSaIcED1Ev(ptr noundef nonnull align 1 dereferenceable(1) %ref.tmp200) #3
  br label %eh.resume

sw.bb203:                                         ; preds = %entry
  call void @_ZNSaIcEC1Ev(ptr noundef nonnull align 1 dereferenceable(1) %ref.tmp204) #3
  invoke void @_ZNSt7__cxx1112basic_stringIcSt11char_traitsIcESaIcEEC2IS3_EEPKcRKS3_(ptr noundef nonnull align 8 dereferenceable(32) %agg.result, ptr noundef @.str.129, ptr noundef nonnull align 1 dereferenceable(1) %ref.tmp204)
          to label %invoke.cont206 unwind label %lpad205

invoke.cont206:                                   ; preds = %sw.bb203
  call void @_ZNSaIcED1Ev(ptr noundef nonnull align 1 dereferenceable(1) %ref.tmp204) #3
  br label %return

lpad205:                                          ; preds = %sw.bb203
  %154 = landingpad { ptr, i32 }
          cleanup
  %155 = extractvalue { ptr, i32 } %154, 0
  store ptr %155, ptr %exn.slot, align 8
  %156 = extractvalue { ptr, i32 } %154, 1
  store i32 %156, ptr %ehselector.slot, align 4
  call void @_ZNSaIcED1Ev(ptr noundef nonnull align 1 dereferenceable(1) %ref.tmp204) #3
  br label %eh.resume

sw.bb207:                                         ; preds = %entry
  call void @_ZNSaIcEC1Ev(ptr noundef nonnull align 1 dereferenceable(1) %ref.tmp208) #3
  invoke void @_ZNSt7__cxx1112basic_stringIcSt11char_traitsIcESaIcEEC2IS3_EEPKcRKS3_(ptr noundef nonnull align 8 dereferenceable(32) %agg.result, ptr noundef @.str.130, ptr noundef nonnull align 1 dereferenceable(1) %ref.tmp208)
          to label %invoke.cont210 unwind label %lpad209

invoke.cont210:                                   ; preds = %sw.bb207
  call void @_ZNSaIcED1Ev(ptr noundef nonnull align 1 dereferenceable(1) %ref.tmp208) #3
  br label %return

lpad209:                                          ; preds = %sw.bb207
  %157 = landingpad { ptr, i32 }
          cleanup
  %158 = extractvalue { ptr, i32 } %157, 0
  store ptr %158, ptr %exn.slot, align 8
  %159 = extractvalue { ptr, i32 } %157, 1
  store i32 %159, ptr %ehselector.slot, align 4
  call void @_ZNSaIcED1Ev(ptr noundef nonnull align 1 dereferenceable(1) %ref.tmp208) #3
  br label %eh.resume

sw.bb211:                                         ; preds = %entry
  call void @_ZNSaIcEC1Ev(ptr noundef nonnull align 1 dereferenceable(1) %ref.tmp212) #3
  invoke void @_ZNSt7__cxx1112basic_stringIcSt11char_traitsIcESaIcEEC2IS3_EEPKcRKS3_(ptr noundef nonnull align 8 dereferenceable(32) %agg.result, ptr noundef @.str.131, ptr noundef nonnull align 1 dereferenceable(1) %ref.tmp212)
          to label %invoke.cont214 unwind label %lpad213

invoke.cont214:                                   ; preds = %sw.bb211
  call void @_ZNSaIcED1Ev(ptr noundef nonnull align 1 dereferenceable(1) %ref.tmp212) #3
  br label %return

lpad213:                                          ; preds = %sw.bb211
  %160 = landingpad { ptr, i32 }
          cleanup
  %161 = extractvalue { ptr, i32 } %160, 0
  store ptr %161, ptr %exn.slot, align 8
  %162 = extractvalue { ptr, i32 } %160, 1
  store i32 %162, ptr %ehselector.slot, align 4
  call void @_ZNSaIcED1Ev(ptr noundef nonnull align 1 dereferenceable(1) %ref.tmp212) #3
  br label %eh.resume

sw.bb215:                                         ; preds = %entry
  call void @_ZNSaIcEC1Ev(ptr noundef nonnull align 1 dereferenceable(1) %ref.tmp216) #3
  invoke void @_ZNSt7__cxx1112basic_stringIcSt11char_traitsIcESaIcEEC2IS3_EEPKcRKS3_(ptr noundef nonnull align 8 dereferenceable(32) %agg.result, ptr noundef @.str.132, ptr noundef nonnull align 1 dereferenceable(1) %ref.tmp216)
          to label %invoke.cont218 unwind label %lpad217

invoke.cont218:                                   ; preds = %sw.bb215
  call void @_ZNSaIcED1Ev(ptr noundef nonnull align 1 dereferenceable(1) %ref.tmp216) #3
  br label %return

lpad217:                                          ; preds = %sw.bb215
  %163 = landingpad { ptr, i32 }
          cleanup
  %164 = extractvalue { ptr, i32 } %163, 0
  store ptr %164, ptr %exn.slot, align 8
  %165 = extractvalue { ptr, i32 } %163, 1
  store i32 %165, ptr %ehselector.slot, align 4
  call void @_ZNSaIcED1Ev(ptr noundef nonnull align 1 dereferenceable(1) %ref.tmp216) #3
  br label %eh.resume

sw.bb219:                                         ; preds = %entry
  call void @_ZNSaIcEC1Ev(ptr noundef nonnull align 1 dereferenceable(1) %ref.tmp220) #3
  invoke void @_ZNSt7__cxx1112basic_stringIcSt11char_traitsIcESaIcEEC2IS3_EEPKcRKS3_(ptr noundef nonnull align 8 dereferenceable(32) %agg.result, ptr noundef @.str.133, ptr noundef nonnull align 1 dereferenceable(1) %ref.tmp220)
          to label %invoke.cont222 unwind label %lpad221

invoke.cont222:                                   ; preds = %sw.bb219
  call void @_ZNSaIcED1Ev(ptr noundef nonnull align 1 dereferenceable(1) %ref.tmp220) #3
  br label %return

lpad221:                                          ; preds = %sw.bb219
  %166 = landingpad { ptr, i32 }
          cleanup
  %167 = extractvalue { ptr, i32 } %166, 0
  store ptr %167, ptr %exn.slot, align 8
  %168 = extractvalue { ptr, i32 } %166, 1
  store i32 %168, ptr %ehselector.slot, align 4
  call void @_ZNSaIcED1Ev(ptr noundef nonnull align 1 dereferenceable(1) %ref.tmp220) #3
  br label %eh.resume

sw.bb223:                                         ; preds = %entry
  call void @_ZNSaIcEC1Ev(ptr noundef nonnull align 1 dereferenceable(1) %ref.tmp224) #3
  invoke void @_ZNSt7__cxx1112basic_stringIcSt11char_traitsIcESaIcEEC2IS3_EEPKcRKS3_(ptr noundef nonnull align 8 dereferenceable(32) %agg.result, ptr noundef @.str.134, ptr noundef nonnull align 1 dereferenceable(1) %ref.tmp224)
          to label %invoke.cont226 unwind label %lpad225

invoke.cont226:                                   ; preds = %sw.bb223
  call void @_ZNSaIcED1Ev(ptr noundef nonnull align 1 dereferenceable(1) %ref.tmp224) #3
  br label %return

lpad225:                                          ; preds = %sw.bb223
  %169 = landingpad { ptr, i32 }
          cleanup
  %170 = extractvalue { ptr, i32 } %169, 0
  store ptr %170, ptr %exn.slot, align 8
  %171 = extractvalue { ptr, i32 } %169, 1
  store i32 %171, ptr %ehselector.slot, align 4
  call void @_ZNSaIcED1Ev(ptr noundef nonnull align 1 dereferenceable(1) %ref.tmp224) #3
  br label %eh.resume

sw.bb227:                                         ; preds = %entry
  call void @_ZNSaIcEC1Ev(ptr noundef nonnull align 1 dereferenceable(1) %ref.tmp228) #3
  invoke void @_ZNSt7__cxx1112basic_stringIcSt11char_traitsIcESaIcEEC2IS3_EEPKcRKS3_(ptr noundef nonnull align 8 dereferenceable(32) %agg.result, ptr noundef @.str.135, ptr noundef nonnull align 1 dereferenceable(1) %ref.tmp228)
          to label %invoke.cont230 unwind label %lpad229

invoke.cont230:                                   ; preds = %sw.bb227
  call void @_ZNSaIcED1Ev(ptr noundef nonnull align 1 dereferenceable(1) %ref.tmp228) #3
  br label %return

lpad229:                                          ; preds = %sw.bb227
  %172 = landingpad { ptr, i32 }
          cleanup
  %173 = extractvalue { ptr, i32 } %172, 0
  store ptr %173, ptr %exn.slot, align 8
  %174 = extractvalue { ptr, i32 } %172, 1
  store i32 %174, ptr %ehselector.slot, align 4
  call void @_ZNSaIcED1Ev(ptr noundef nonnull align 1 dereferenceable(1) %ref.tmp228) #3
  br label %eh.resume

sw.bb231:                                         ; preds = %entry
  call void @_ZNSaIcEC1Ev(ptr noundef nonnull align 1 dereferenceable(1) %ref.tmp232) #3
  invoke void @_ZNSt7__cxx1112basic_stringIcSt11char_traitsIcESaIcEEC2IS3_EEPKcRKS3_(ptr noundef nonnull align 8 dereferenceable(32) %agg.result, ptr noundef @.str.136, ptr noundef nonnull align 1 dereferenceable(1) %ref.tmp232)
          to label %invoke.cont234 unwind label %lpad233

invoke.cont234:                                   ; preds = %sw.bb231
  call void @_ZNSaIcED1Ev(ptr noundef nonnull align 1 dereferenceable(1) %ref.tmp232) #3
  br label %return

lpad233:                                          ; preds = %sw.bb231
  %175 = landingpad { ptr, i32 }
          cleanup
  %176 = extractvalue { ptr, i32 } %175, 0
  store ptr %176, ptr %exn.slot, align 8
  %177 = extractvalue { ptr, i32 } %175, 1
  store i32 %177, ptr %ehselector.slot, align 4
  call void @_ZNSaIcED1Ev(ptr noundef nonnull align 1 dereferenceable(1) %ref.tmp232) #3
  br label %eh.resume

sw.bb235:                                         ; preds = %entry
  call void @_ZNSaIcEC1Ev(ptr noundef nonnull align 1 dereferenceable(1) %ref.tmp236) #3
  invoke void @_ZNSt7__cxx1112basic_stringIcSt11char_traitsIcESaIcEEC2IS3_EEPKcRKS3_(ptr noundef nonnull align 8 dereferenceable(32) %agg.result, ptr noundef @.str.137, ptr noundef nonnull align 1 dereferenceable(1) %ref.tmp236)
          to label %invoke.cont238 unwind label %lpad237

invoke.cont238:                                   ; preds = %sw.bb235
  call void @_ZNSaIcED1Ev(ptr noundef nonnull align 1 dereferenceable(1) %ref.tmp236) #3
  br label %return

lpad237:                                          ; preds = %sw.bb235
  %178 = landingpad { ptr, i32 }
          cleanup
  %179 = extractvalue { ptr, i32 } %178, 0
  store ptr %179, ptr %exn.slot, align 8
  %180 = extractvalue { ptr, i32 } %178, 1
  store i32 %180, ptr %ehselector.slot, align 4
  call void @_ZNSaIcED1Ev(ptr noundef nonnull align 1 dereferenceable(1) %ref.tmp236) #3
  br label %eh.resume

sw.bb239:                                         ; preds = %entry
  call void @_ZNSaIcEC1Ev(ptr noundef nonnull align 1 dereferenceable(1) %ref.tmp240) #3
  invoke void @_ZNSt7__cxx1112basic_stringIcSt11char_traitsIcESaIcEEC2IS3_EEPKcRKS3_(ptr noundef nonnull align 8 dereferenceable(32) %agg.result, ptr noundef @.str.138, ptr noundef nonnull align 1 dereferenceable(1) %ref.tmp240)
          to label %invoke.cont242 unwind label %lpad241

invoke.cont242:                                   ; preds = %sw.bb239
  call void @_ZNSaIcED1Ev(ptr noundef nonnull align 1 dereferenceable(1) %ref.tmp240) #3
  br label %return

lpad241:                                          ; preds = %sw.bb239
  %181 = landingpad { ptr, i32 }
          cleanup
  %182 = extractvalue { ptr, i32 } %181, 0
  store ptr %182, ptr %exn.slot, align 8
  %183 = extractvalue { ptr, i32 } %181, 1
  store i32 %183, ptr %ehselector.slot, align 4
  call void @_ZNSaIcED1Ev(ptr noundef nonnull align 1 dereferenceable(1) %ref.tmp240) #3
  br label %eh.resume

sw.bb243:                                         ; preds = %entry
  call void @_ZNSaIcEC1Ev(ptr noundef nonnull align 1 dereferenceable(1) %ref.tmp244) #3
  invoke void @_ZNSt7__cxx1112basic_stringIcSt11char_traitsIcESaIcEEC2IS3_EEPKcRKS3_(ptr noundef nonnull align 8 dereferenceable(32) %agg.result, ptr noundef @.str.139, ptr noundef nonnull align 1 dereferenceable(1) %ref.tmp244)
          to label %invoke.cont246 unwind label %lpad245

invoke.cont246:                                   ; preds = %sw.bb243
  call void @_ZNSaIcED1Ev(ptr noundef nonnull align 1 dereferenceable(1) %ref.tmp244) #3
  br label %return

lpad245:                                          ; preds = %sw.bb243
  %184 = landingpad { ptr, i32 }
          cleanup
  %185 = extractvalue { ptr, i32 } %184, 0
  store ptr %185, ptr %exn.slot, align 8
  %186 = extractvalue { ptr, i32 } %184, 1
  store i32 %186, ptr %ehselector.slot, align 4
  call void @_ZNSaIcED1Ev(ptr noundef nonnull align 1 dereferenceable(1) %ref.tmp244) #3
  br label %eh.resume

sw.bb247:                                         ; preds = %entry
  call void @_ZNSaIcEC1Ev(ptr noundef nonnull align 1 dereferenceable(1) %ref.tmp248) #3
  invoke void @_ZNSt7__cxx1112basic_stringIcSt11char_traitsIcESaIcEEC2IS3_EEPKcRKS3_(ptr noundef nonnull align 8 dereferenceable(32) %agg.result, ptr noundef @.str.140, ptr noundef nonnull align 1 dereferenceable(1) %ref.tmp248)
          to label %invoke.cont250 unwind label %lpad249

invoke.cont250:                                   ; preds = %sw.bb247
  call void @_ZNSaIcED1Ev(ptr noundef nonnull align 1 dereferenceable(1) %ref.tmp248) #3
  br label %return

lpad249:                                          ; preds = %sw.bb247
  %187 = landingpad { ptr, i32 }
          cleanup
  %188 = extractvalue { ptr, i32 } %187, 0
  store ptr %188, ptr %exn.slot, align 8
  %189 = extractvalue { ptr, i32 } %187, 1
  store i32 %189, ptr %ehselector.slot, align 4
  call void @_ZNSaIcED1Ev(ptr noundef nonnull align 1 dereferenceable(1) %ref.tmp248) #3
  br label %eh.resume

sw.bb251:                                         ; preds = %entry
  call void @_ZNSaIcEC1Ev(ptr noundef nonnull align 1 dereferenceable(1) %ref.tmp252) #3
  invoke void @_ZNSt7__cxx1112basic_stringIcSt11char_traitsIcESaIcEEC2IS3_EEPKcRKS3_(ptr noundef nonnull align 8 dereferenceable(32) %agg.result, ptr noundef @.str.141, ptr noundef nonnull align 1 dereferenceable(1) %ref.tmp252)
          to label %invoke.cont254 unwind label %lpad253

invoke.cont254:                                   ; preds = %sw.bb251
  call void @_ZNSaIcED1Ev(ptr noundef nonnull align 1 dereferenceable(1) %ref.tmp252) #3
  br label %return

lpad253:                                          ; preds = %sw.bb251
  %190 = landingpad { ptr, i32 }
          cleanup
  %191 = extractvalue { ptr, i32 } %190, 0
  store ptr %191, ptr %exn.slot, align 8
  %192 = extractvalue { ptr, i32 } %190, 1
  store i32 %192, ptr %ehselector.slot, align 4
  call void @_ZNSaIcED1Ev(ptr noundef nonnull align 1 dereferenceable(1) %ref.tmp252) #3
  br label %eh.resume

sw.bb255:                                         ; preds = %entry
  call void @_ZNSaIcEC1Ev(ptr noundef nonnull align 1 dereferenceable(1) %ref.tmp256) #3
  invoke void @_ZNSt7__cxx1112basic_stringIcSt11char_traitsIcESaIcEEC2IS3_EEPKcRKS3_(ptr noundef nonnull align 8 dereferenceable(32) %agg.result, ptr noundef @.str.142, ptr noundef nonnull align 1 dereferenceable(1) %ref.tmp256)
          to label %invoke.cont258 unwind label %lpad257

invoke.cont258:                                   ; preds = %sw.bb255
  call void @_ZNSaIcED1Ev(ptr noundef nonnull align 1 dereferenceable(1) %ref.tmp256) #3
  br label %return

lpad257:                                          ; preds = %sw.bb255
  %193 = landingpad { ptr, i32 }
          cleanup
  %194 = extractvalue { ptr, i32 } %193, 0
  store ptr %194, ptr %exn.slot, align 8
  %195 = extractvalue { ptr, i32 } %193, 1
  store i32 %195, ptr %ehselector.slot, align 4
  call void @_ZNSaIcED1Ev(ptr noundef nonnull align 1 dereferenceable(1) %ref.tmp256) #3
  br label %eh.resume

sw.bb259:                                         ; preds = %entry
  call void @_ZNSaIcEC1Ev(ptr noundef nonnull align 1 dereferenceable(1) %ref.tmp260) #3
  invoke void @_ZNSt7__cxx1112basic_stringIcSt11char_traitsIcESaIcEEC2IS3_EEPKcRKS3_(ptr noundef nonnull align 8 dereferenceable(32) %agg.result, ptr noundef @.str.143, ptr noundef nonnull align 1 dereferenceable(1) %ref.tmp260)
          to label %invoke.cont262 unwind label %lpad261

invoke.cont262:                                   ; preds = %sw.bb259
  call void @_ZNSaIcED1Ev(ptr noundef nonnull align 1 dereferenceable(1) %ref.tmp260) #3
  br label %return

lpad261:                                          ; preds = %sw.bb259
  %196 = landingpad { ptr, i32 }
          cleanup
  %197 = extractvalue { ptr, i32 } %196, 0
  store ptr %197, ptr %exn.slot, align 8
  %198 = extractvalue { ptr, i32 } %196, 1
  store i32 %198, ptr %ehselector.slot, align 4
  call void @_ZNSaIcED1Ev(ptr noundef nonnull align 1 dereferenceable(1) %ref.tmp260) #3
  br label %eh.resume

sw.bb263:                                         ; preds = %entry
  call void @_ZNSaIcEC1Ev(ptr noundef nonnull align 1 dereferenceable(1) %ref.tmp264) #3
  invoke void @_ZNSt7__cxx1112basic_stringIcSt11char_traitsIcESaIcEEC2IS3_EEPKcRKS3_(ptr noundef nonnull align 8 dereferenceable(32) %agg.result, ptr noundef @.str.144, ptr noundef nonnull align 1 dereferenceable(1) %ref.tmp264)
          to label %invoke.cont266 unwind label %lpad265

invoke.cont266:                                   ; preds = %sw.bb263
  call void @_ZNSaIcED1Ev(ptr noundef nonnull align 1 dereferenceable(1) %ref.tmp264) #3
  br label %return

lpad265:                                          ; preds = %sw.bb263
  %199 = landingpad { ptr, i32 }
          cleanup
  %200 = extractvalue { ptr, i32 } %199, 0
  store ptr %200, ptr %exn.slot, align 8
  %201 = extractvalue { ptr, i32 } %199, 1
  store i32 %201, ptr %ehselector.slot, align 4
  call void @_ZNSaIcED1Ev(ptr noundef nonnull align 1 dereferenceable(1) %ref.tmp264) #3
  br label %eh.resume

sw.bb267:                                         ; preds = %entry
  call void @_ZNSaIcEC1Ev(ptr noundef nonnull align 1 dereferenceable(1) %ref.tmp268) #3
  invoke void @_ZNSt7__cxx1112basic_stringIcSt11char_traitsIcESaIcEEC2IS3_EEPKcRKS3_(ptr noundef nonnull align 8 dereferenceable(32) %agg.result, ptr noundef @.str.145, ptr noundef nonnull align 1 dereferenceable(1) %ref.tmp268)
          to label %invoke.cont270 unwind label %lpad269

invoke.cont270:                                   ; preds = %sw.bb267
  call void @_ZNSaIcED1Ev(ptr noundef nonnull align 1 dereferenceable(1) %ref.tmp268) #3
  br label %return

lpad269:                                          ; preds = %sw.bb267
  %202 = landingpad { ptr, i32 }
          cleanup
  %203 = extractvalue { ptr, i32 } %202, 0
  store ptr %203, ptr %exn.slot, align 8
  %204 = extractvalue { ptr, i32 } %202, 1
  store i32 %204, ptr %ehselector.slot, align 4
  call void @_ZNSaIcED1Ev(ptr noundef nonnull align 1 dereferenceable(1) %ref.tmp268) #3
  br label %eh.resume

sw.bb271:                                         ; preds = %entry
  call void @_ZNSaIcEC1Ev(ptr noundef nonnull align 1 dereferenceable(1) %ref.tmp272) #3
  invoke void @_ZNSt7__cxx1112basic_stringIcSt11char_traitsIcESaIcEEC2IS3_EEPKcRKS3_(ptr noundef nonnull align 8 dereferenceable(32) %agg.result, ptr noundef @.str.146, ptr noundef nonnull align 1 dereferenceable(1) %ref.tmp272)
          to label %invoke.cont274 unwind label %lpad273

invoke.cont274:                                   ; preds = %sw.bb271
  call void @_ZNSaIcED1Ev(ptr noundef nonnull align 1 dereferenceable(1) %ref.tmp272) #3
  br label %return

lpad273:                                          ; preds = %sw.bb271
  %205 = landingpad { ptr, i32 }
          cleanup
  %206 = extractvalue { ptr, i32 } %205, 0
  store ptr %206, ptr %exn.slot, align 8
  %207 = extractvalue { ptr, i32 } %205, 1
  store i32 %207, ptr %ehselector.slot, align 4
  call void @_ZNSaIcED1Ev(ptr noundef nonnull align 1 dereferenceable(1) %ref.tmp272) #3
  br label %eh.resume

sw.bb275:                                         ; preds = %entry
  call void @_ZNSaIcEC1Ev(ptr noundef nonnull align 1 dereferenceable(1) %ref.tmp276) #3
  invoke void @_ZNSt7__cxx1112basic_stringIcSt11char_traitsIcESaIcEEC2IS3_EEPKcRKS3_(ptr noundef nonnull align 8 dereferenceable(32) %agg.result, ptr noundef @.str.147, ptr noundef nonnull align 1 dereferenceable(1) %ref.tmp276)
          to label %invoke.cont278 unwind label %lpad277

invoke.cont278:                                   ; preds = %sw.bb275
  call void @_ZNSaIcED1Ev(ptr noundef nonnull align 1 dereferenceable(1) %ref.tmp276) #3
  br label %return

lpad277:                                          ; preds = %sw.bb275
  %208 = landingpad { ptr, i32 }
          cleanup
  %209 = extractvalue { ptr, i32 } %208, 0
  store ptr %209, ptr %exn.slot, align 8
  %210 = extractvalue { ptr, i32 } %208, 1
  store i32 %210, ptr %ehselector.slot, align 4
  call void @_ZNSaIcED1Ev(ptr noundef nonnull align 1 dereferenceable(1) %ref.tmp276) #3
  br label %eh.resume

sw.bb279:                                         ; preds = %entry
  call void @_ZNSaIcEC1Ev(ptr noundef nonnull align 1 dereferenceable(1) %ref.tmp280) #3
  invoke void @_ZNSt7__cxx1112basic_stringIcSt11char_traitsIcESaIcEEC2IS3_EEPKcRKS3_(ptr noundef nonnull align 8 dereferenceable(32) %agg.result, ptr noundef @.str.148, ptr noundef nonnull align 1 dereferenceable(1) %ref.tmp280)
          to label %invoke.cont282 unwind label %lpad281

invoke.cont282:                                   ; preds = %sw.bb279
  call void @_ZNSaIcED1Ev(ptr noundef nonnull align 1 dereferenceable(1) %ref.tmp280) #3
  br label %return

lpad281:                                          ; preds = %sw.bb279
  %211 = landingpad { ptr, i32 }
          cleanup
  %212 = extractvalue { ptr, i32 } %211, 0
  store ptr %212, ptr %exn.slot, align 8
  %213 = extractvalue { ptr, i32 } %211, 1
  store i32 %213, ptr %ehselector.slot, align 4
  call void @_ZNSaIcED1Ev(ptr noundef nonnull align 1 dereferenceable(1) %ref.tmp280) #3
  br label %eh.resume

sw.bb283:                                         ; preds = %entry
  call void @_ZNSaIcEC1Ev(ptr noundef nonnull align 1 dereferenceable(1) %ref.tmp284) #3
  invoke void @_ZNSt7__cxx1112basic_stringIcSt11char_traitsIcESaIcEEC2IS3_EEPKcRKS3_(ptr noundef nonnull align 8 dereferenceable(32) %agg.result, ptr noundef @.str.149, ptr noundef nonnull align 1 dereferenceable(1) %ref.tmp284)
          to label %invoke.cont286 unwind label %lpad285

invoke.cont286:                                   ; preds = %sw.bb283
  call void @_ZNSaIcED1Ev(ptr noundef nonnull align 1 dereferenceable(1) %ref.tmp284) #3
  br label %return

lpad285:                                          ; preds = %sw.bb283
  %214 = landingpad { ptr, i32 }
          cleanup
  %215 = extractvalue { ptr, i32 } %214, 0
  store ptr %215, ptr %exn.slot, align 8
  %216 = extractvalue { ptr, i32 } %214, 1
  store i32 %216, ptr %ehselector.slot, align 4
  call void @_ZNSaIcED1Ev(ptr noundef nonnull align 1 dereferenceable(1) %ref.tmp284) #3
  br label %eh.resume

sw.bb287:                                         ; preds = %entry
  call void @_ZNSaIcEC1Ev(ptr noundef nonnull align 1 dereferenceable(1) %ref.tmp288) #3
  invoke void @_ZNSt7__cxx1112basic_stringIcSt11char_traitsIcESaIcEEC2IS3_EEPKcRKS3_(ptr noundef nonnull align 8 dereferenceable(32) %agg.result, ptr noundef @.str.150, ptr noundef nonnull align 1 dereferenceable(1) %ref.tmp288)
          to label %invoke.cont290 unwind label %lpad289

invoke.cont290:                                   ; preds = %sw.bb287
  call void @_ZNSaIcED1Ev(ptr noundef nonnull align 1 dereferenceable(1) %ref.tmp288) #3
  br label %return

lpad289:                                          ; preds = %sw.bb287
  %217 = landingpad { ptr, i32 }
          cleanup
  %218 = extractvalue { ptr, i32 } %217, 0
  store ptr %218, ptr %exn.slot, align 8
  %219 = extractvalue { ptr, i32 } %217, 1
  store i32 %219, ptr %ehselector.slot, align 4
  call void @_ZNSaIcED1Ev(ptr noundef nonnull align 1 dereferenceable(1) %ref.tmp288) #3
  br label %eh.resume

sw.bb291:                                         ; preds = %entry
  call void @_ZNSaIcEC1Ev(ptr noundef nonnull align 1 dereferenceable(1) %ref.tmp292) #3
  invoke void @_ZNSt7__cxx1112basic_stringIcSt11char_traitsIcESaIcEEC2IS3_EEPKcRKS3_(ptr noundef nonnull align 8 dereferenceable(32) %agg.result, ptr noundef @.str.151, ptr noundef nonnull align 1 dereferenceable(1) %ref.tmp292)
          to label %invoke.cont294 unwind label %lpad293

invoke.cont294:                                   ; preds = %sw.bb291
  call void @_ZNSaIcED1Ev(ptr noundef nonnull align 1 dereferenceable(1) %ref.tmp292) #3
  br label %return

lpad293:                                          ; preds = %sw.bb291
  %220 = landingpad { ptr, i32 }
          cleanup
  %221 = extractvalue { ptr, i32 } %220, 0
  store ptr %221, ptr %exn.slot, align 8
  %222 = extractvalue { ptr, i32 } %220, 1
  store i32 %222, ptr %ehselector.slot, align 4
  call void @_ZNSaIcED1Ev(ptr noundef nonnull align 1 dereferenceable(1) %ref.tmp292) #3
  br label %eh.resume

sw.bb295:                                         ; preds = %entry
  call void @_ZNSaIcEC1Ev(ptr noundef nonnull align 1 dereferenceable(1) %ref.tmp296) #3
  invoke void @_ZNSt7__cxx1112basic_stringIcSt11char_traitsIcESaIcEEC2IS3_EEPKcRKS3_(ptr noundef nonnull align 8 dereferenceable(32) %agg.result, ptr noundef @.str.152, ptr noundef nonnull align 1 dereferenceable(1) %ref.tmp296)
          to label %invoke.cont298 unwind label %lpad297

invoke.cont298:                                   ; preds = %sw.bb295
  call void @_ZNSaIcED1Ev(ptr noundef nonnull align 1 dereferenceable(1) %ref.tmp296) #3
  br label %return

lpad297:                                          ; preds = %sw.bb295
  %223 = landingpad { ptr, i32 }
          cleanup
  %224 = extractvalue { ptr, i32 } %223, 0
  store ptr %224, ptr %exn.slot, align 8
  %225 = extractvalue { ptr, i32 } %223, 1
  store i32 %225, ptr %ehselector.slot, align 4
  call void @_ZNSaIcED1Ev(ptr noundef nonnull align 1 dereferenceable(1) %ref.tmp296) #3
  br label %eh.resume

sw.bb299:                                         ; preds = %entry
  call void @_ZNSaIcEC1Ev(ptr noundef nonnull align 1 dereferenceable(1) %ref.tmp300) #3
  invoke void @_ZNSt7__cxx1112basic_stringIcSt11char_traitsIcESaIcEEC2IS3_EEPKcRKS3_(ptr noundef nonnull align 8 dereferenceable(32) %agg.result, ptr noundef @.str.153, ptr noundef nonnull align 1 dereferenceable(1) %ref.tmp300)
          to label %invoke.cont302 unwind label %lpad301

invoke.cont302:                                   ; preds = %sw.bb299
  call void @_ZNSaIcED1Ev(ptr noundef nonnull align 1 dereferenceable(1) %ref.tmp300) #3
  br label %return

lpad301:                                          ; preds = %sw.bb299
  %226 = landingpad { ptr, i32 }
          cleanup
  %227 = extractvalue { ptr, i32 } %226, 0
  store ptr %227, ptr %exn.slot, align 8
  %228 = extractvalue { ptr, i32 } %226, 1
  store i32 %228, ptr %ehselector.slot, align 4
  call void @_ZNSaIcED1Ev(ptr noundef nonnull align 1 dereferenceable(1) %ref.tmp300) #3
  br label %eh.resume

sw.bb303:                                         ; preds = %entry
  call void @_ZNSaIcEC1Ev(ptr noundef nonnull align 1 dereferenceable(1) %ref.tmp304) #3
  invoke void @_ZNSt7__cxx1112basic_stringIcSt11char_traitsIcESaIcEEC2IS3_EEPKcRKS3_(ptr noundef nonnull align 8 dereferenceable(32) %agg.result, ptr noundef @.str.154, ptr noundef nonnull align 1 dereferenceable(1) %ref.tmp304)
          to label %invoke.cont306 unwind label %lpad305

invoke.cont306:                                   ; preds = %sw.bb303
  call void @_ZNSaIcED1Ev(ptr noundef nonnull align 1 dereferenceable(1) %ref.tmp304) #3
  br label %return

lpad305:                                          ; preds = %sw.bb303
  %229 = landingpad { ptr, i32 }
          cleanup
  %230 = extractvalue { ptr, i32 } %229, 0
  store ptr %230, ptr %exn.slot, align 8
  %231 = extractvalue { ptr, i32 } %229, 1
  store i32 %231, ptr %ehselector.slot, align 4
  call void @_ZNSaIcED1Ev(ptr noundef nonnull align 1 dereferenceable(1) %ref.tmp304) #3
  br label %eh.resume

sw.bb307:                                         ; preds = %entry
  call void @_ZNSaIcEC1Ev(ptr noundef nonnull align 1 dereferenceable(1) %ref.tmp308) #3
  invoke void @_ZNSt7__cxx1112basic_stringIcSt11char_traitsIcESaIcEEC2IS3_EEPKcRKS3_(ptr noundef nonnull align 8 dereferenceable(32) %agg.result, ptr noundef @.str.155, ptr noundef nonnull align 1 dereferenceable(1) %ref.tmp308)
          to label %invoke.cont310 unwind label %lpad309

invoke.cont310:                                   ; preds = %sw.bb307
  call void @_ZNSaIcED1Ev(ptr noundef nonnull align 1 dereferenceable(1) %ref.tmp308) #3
  br label %return

lpad309:                                          ; preds = %sw.bb307
  %232 = landingpad { ptr, i32 }
          cleanup
  %233 = extractvalue { ptr, i32 } %232, 0
  store ptr %233, ptr %exn.slot, align 8
  %234 = extractvalue { ptr, i32 } %232, 1
  store i32 %234, ptr %ehselector.slot, align 4
  call void @_ZNSaIcED1Ev(ptr noundef nonnull align 1 dereferenceable(1) %ref.tmp308) #3
  br label %eh.resume

sw.bb311:                                         ; preds = %entry
  call void @_ZNSaIcEC1Ev(ptr noundef nonnull align 1 dereferenceable(1) %ref.tmp312) #3
  invoke void @_ZNSt7__cxx1112basic_stringIcSt11char_traitsIcESaIcEEC2IS3_EEPKcRKS3_(ptr noundef nonnull align 8 dereferenceable(32) %agg.result, ptr noundef @.str.156, ptr noundef nonnull align 1 dereferenceable(1) %ref.tmp312)
          to label %invoke.cont314 unwind label %lpad313

invoke.cont314:                                   ; preds = %sw.bb311
  call void @_ZNSaIcED1Ev(ptr noundef nonnull align 1 dereferenceable(1) %ref.tmp312) #3
  br label %return

lpad313:                                          ; preds = %sw.bb311
  %235 = landingpad { ptr, i32 }
          cleanup
  %236 = extractvalue { ptr, i32 } %235, 0
  store ptr %236, ptr %exn.slot, align 8
  %237 = extractvalue { ptr, i32 } %235, 1
  store i32 %237, ptr %ehselector.slot, align 4
  call void @_ZNSaIcED1Ev(ptr noundef nonnull align 1 dereferenceable(1) %ref.tmp312) #3
  br label %eh.resume

sw.bb315:                                         ; preds = %entry
  call void @_ZNSaIcEC1Ev(ptr noundef nonnull align 1 dereferenceable(1) %ref.tmp316) #3
  invoke void @_ZNSt7__cxx1112basic_stringIcSt11char_traitsIcESaIcEEC2IS3_EEPKcRKS3_(ptr noundef nonnull align 8 dereferenceable(32) %agg.result, ptr noundef @.str.157, ptr noundef nonnull align 1 dereferenceable(1) %ref.tmp316)
          to label %invoke.cont318 unwind label %lpad317

invoke.cont318:                                   ; preds = %sw.bb315
  call void @_ZNSaIcED1Ev(ptr noundef nonnull align 1 dereferenceable(1) %ref.tmp316) #3
  br label %return

lpad317:                                          ; preds = %sw.bb315
  %238 = landingpad { ptr, i32 }
          cleanup
  %239 = extractvalue { ptr, i32 } %238, 0
  store ptr %239, ptr %exn.slot, align 8
  %240 = extractvalue { ptr, i32 } %238, 1
  store i32 %240, ptr %ehselector.slot, align 4
  call void @_ZNSaIcED1Ev(ptr noundef nonnull align 1 dereferenceable(1) %ref.tmp316) #3
  br label %eh.resume

sw.bb319:                                         ; preds = %entry
  call void @_ZNSaIcEC1Ev(ptr noundef nonnull align 1 dereferenceable(1) %ref.tmp320) #3
  invoke void @_ZNSt7__cxx1112basic_stringIcSt11char_traitsIcESaIcEEC2IS3_EEPKcRKS3_(ptr noundef nonnull align 8 dereferenceable(32) %agg.result, ptr noundef @.str.158, ptr noundef nonnull align 1 dereferenceable(1) %ref.tmp320)
          to label %invoke.cont322 unwind label %lpad321

invoke.cont322:                                   ; preds = %sw.bb319
  call void @_ZNSaIcED1Ev(ptr noundef nonnull align 1 dereferenceable(1) %ref.tmp320) #3
  br label %return

lpad321:                                          ; preds = %sw.bb319
  %241 = landingpad { ptr, i32 }
          cleanup
  %242 = extractvalue { ptr, i32 } %241, 0
  store ptr %242, ptr %exn.slot, align 8
  %243 = extractvalue { ptr, i32 } %241, 1
  store i32 %243, ptr %ehselector.slot, align 4
  call void @_ZNSaIcED1Ev(ptr noundef nonnull align 1 dereferenceable(1) %ref.tmp320) #3
  br label %eh.resume

sw.bb323:                                         ; preds = %entry
  call void @_ZNSaIcEC1Ev(ptr noundef nonnull align 1 dereferenceable(1) %ref.tmp324) #3
  invoke void @_ZNSt7__cxx1112basic_stringIcSt11char_traitsIcESaIcEEC2IS3_EEPKcRKS3_(ptr noundef nonnull align 8 dereferenceable(32) %agg.result, ptr noundef @.str.159, ptr noundef nonnull align 1 dereferenceable(1) %ref.tmp324)
          to label %invoke.cont326 unwind label %lpad325

invoke.cont326:                                   ; preds = %sw.bb323
  call void @_ZNSaIcED1Ev(ptr noundef nonnull align 1 dereferenceable(1) %ref.tmp324) #3
  br label %return

lpad325:                                          ; preds = %sw.bb323
  %244 = landingpad { ptr, i32 }
          cleanup
  %245 = extractvalue { ptr, i32 } %244, 0
  store ptr %245, ptr %exn.slot, align 8
  %246 = extractvalue { ptr, i32 } %244, 1
  store i32 %246, ptr %ehselector.slot, align 4
  call void @_ZNSaIcED1Ev(ptr noundef nonnull align 1 dereferenceable(1) %ref.tmp324) #3
  br label %eh.resume

sw.bb327:                                         ; preds = %entry
  call void @_ZNSaIcEC1Ev(ptr noundef nonnull align 1 dereferenceable(1) %ref.tmp328) #3
  invoke void @_ZNSt7__cxx1112basic_stringIcSt11char_traitsIcESaIcEEC2IS3_EEPKcRKS3_(ptr noundef nonnull align 8 dereferenceable(32) %agg.result, ptr noundef @.str.160, ptr noundef nonnull align 1 dereferenceable(1) %ref.tmp328)
          to label %invoke.cont330 unwind label %lpad329

invoke.cont330:                                   ; preds = %sw.bb327
  call void @_ZNSaIcED1Ev(ptr noundef nonnull align 1 dereferenceable(1) %ref.tmp328) #3
  br label %return

lpad329:                                          ; preds = %sw.bb327
  %247 = landingpad { ptr, i32 }
          cleanup
  %248 = extractvalue { ptr, i32 } %247, 0
  store ptr %248, ptr %exn.slot, align 8
  %249 = extractvalue { ptr, i32 } %247, 1
  store i32 %249, ptr %ehselector.slot, align 4
  call void @_ZNSaIcED1Ev(ptr noundef nonnull align 1 dereferenceable(1) %ref.tmp328) #3
  br label %eh.resume

sw.bb331:                                         ; preds = %entry
  call void @_ZNSaIcEC1Ev(ptr noundef nonnull align 1 dereferenceable(1) %ref.tmp332) #3
  invoke void @_ZNSt7__cxx1112basic_stringIcSt11char_traitsIcESaIcEEC2IS3_EEPKcRKS3_(ptr noundef nonnull align 8 dereferenceable(32) %agg.result, ptr noundef @.str.161, ptr noundef nonnull align 1 dereferenceable(1) %ref.tmp332)
          to label %invoke.cont334 unwind label %lpad333

invoke.cont334:                                   ; preds = %sw.bb331
  call void @_ZNSaIcED1Ev(ptr noundef nonnull align 1 dereferenceable(1) %ref.tmp332) #3
  br label %return

lpad333:                                          ; preds = %sw.bb331
  %250 = landingpad { ptr, i32 }
          cleanup
  %251 = extractvalue { ptr, i32 } %250, 0
  store ptr %251, ptr %exn.slot, align 8
  %252 = extractvalue { ptr, i32 } %250, 1
  store i32 %252, ptr %ehselector.slot, align 4
  call void @_ZNSaIcED1Ev(ptr noundef nonnull align 1 dereferenceable(1) %ref.tmp332) #3
  br label %eh.resume

sw.bb335:                                         ; preds = %entry
  call void @_ZNSaIcEC1Ev(ptr noundef nonnull align 1 dereferenceable(1) %ref.tmp336) #3
  invoke void @_ZNSt7__cxx1112basic_stringIcSt11char_traitsIcESaIcEEC2IS3_EEPKcRKS3_(ptr noundef nonnull align 8 dereferenceable(32) %agg.result, ptr noundef @.str.162, ptr noundef nonnull align 1 dereferenceable(1) %ref.tmp336)
          to label %invoke.cont338 unwind label %lpad337

invoke.cont338:                                   ; preds = %sw.bb335
  call void @_ZNSaIcED1Ev(ptr noundef nonnull align 1 dereferenceable(1) %ref.tmp336) #3
  br label %return

lpad337:                                          ; preds = %sw.bb335
  %253 = landingpad { ptr, i32 }
          cleanup
  %254 = extractvalue { ptr, i32 } %253, 0
  store ptr %254, ptr %exn.slot, align 8
  %255 = extractvalue { ptr, i32 } %253, 1
  store i32 %255, ptr %ehselector.slot, align 4
  call void @_ZNSaIcED1Ev(ptr noundef nonnull align 1 dereferenceable(1) %ref.tmp336) #3
  br label %eh.resume

sw.bb339:                                         ; preds = %entry
  call void @_ZNSaIcEC1Ev(ptr noundef nonnull align 1 dereferenceable(1) %ref.tmp340) #3
  invoke void @_ZNSt7__cxx1112basic_stringIcSt11char_traitsIcESaIcEEC2IS3_EEPKcRKS3_(ptr noundef nonnull align 8 dereferenceable(32) %agg.result, ptr noundef @.str.163, ptr noundef nonnull align 1 dereferenceable(1) %ref.tmp340)
          to label %invoke.cont342 unwind label %lpad341

invoke.cont342:                                   ; preds = %sw.bb339
  call void @_ZNSaIcED1Ev(ptr noundef nonnull align 1 dereferenceable(1) %ref.tmp340) #3
  br label %return

lpad341:                                          ; preds = %sw.bb339
  %256 = landingpad { ptr, i32 }
          cleanup
  %257 = extractvalue { ptr, i32 } %256, 0
  store ptr %257, ptr %exn.slot, align 8
  %258 = extractvalue { ptr, i32 } %256, 1
  store i32 %258, ptr %ehselector.slot, align 4
  call void @_ZNSaIcED1Ev(ptr noundef nonnull align 1 dereferenceable(1) %ref.tmp340) #3
  br label %eh.resume

sw.bb343:                                         ; preds = %entry
  call void @_ZNSaIcEC1Ev(ptr noundef nonnull align 1 dereferenceable(1) %ref.tmp344) #3
  invoke void @_ZNSt7__cxx1112basic_stringIcSt11char_traitsIcESaIcEEC2IS3_EEPKcRKS3_(ptr noundef nonnull align 8 dereferenceable(32) %agg.result, ptr noundef @.str.164, ptr noundef nonnull align 1 dereferenceable(1) %ref.tmp344)
          to label %invoke.cont346 unwind label %lpad345

invoke.cont346:                                   ; preds = %sw.bb343
  call void @_ZNSaIcED1Ev(ptr noundef nonnull align 1 dereferenceable(1) %ref.tmp344) #3
  br label %return

lpad345:                                          ; preds = %sw.bb343
  %259 = landingpad { ptr, i32 }
          cleanup
  %260 = extractvalue { ptr, i32 } %259, 0
  store ptr %260, ptr %exn.slot, align 8
  %261 = extractvalue { ptr, i32 } %259, 1
  store i32 %261, ptr %ehselector.slot, align 4
  call void @_ZNSaIcED1Ev(ptr noundef nonnull align 1 dereferenceable(1) %ref.tmp344) #3
  br label %eh.resume

sw.bb347:                                         ; preds = %entry
  call void @_ZNSaIcEC1Ev(ptr noundef nonnull align 1 dereferenceable(1) %ref.tmp348) #3
  invoke void @_ZNSt7__cxx1112basic_stringIcSt11char_traitsIcESaIcEEC2IS3_EEPKcRKS3_(ptr noundef nonnull align 8 dereferenceable(32) %agg.result, ptr noundef @.str.165, ptr noundef nonnull align 1 dereferenceable(1) %ref.tmp348)
          to label %invoke.cont350 unwind label %lpad349

invoke.cont350:                                   ; preds = %sw.bb347
  call void @_ZNSaIcED1Ev(ptr noundef nonnull align 1 dereferenceable(1) %ref.tmp348) #3
  br label %return

lpad349:                                          ; preds = %sw.bb347
  %262 = landingpad { ptr, i32 }
          cleanup
  %263 = extractvalue { ptr, i32 } %262, 0
  store ptr %263, ptr %exn.slot, align 8
  %264 = extractvalue { ptr, i32 } %262, 1
  store i32 %264, ptr %ehselector.slot, align 4
  call void @_ZNSaIcED1Ev(ptr noundef nonnull align 1 dereferenceable(1) %ref.tmp348) #3
  br label %eh.resume

sw.bb351:                                         ; preds = %entry
  call void @_ZNSaIcEC1Ev(ptr noundef nonnull align 1 dereferenceable(1) %ref.tmp352) #3
  invoke void @_ZNSt7__cxx1112basic_stringIcSt11char_traitsIcESaIcEEC2IS3_EEPKcRKS3_(ptr noundef nonnull align 8 dereferenceable(32) %agg.result, ptr noundef @.str.166, ptr noundef nonnull align 1 dereferenceable(1) %ref.tmp352)
          to label %invoke.cont354 unwind label %lpad353

invoke.cont354:                                   ; preds = %sw.bb351
  call void @_ZNSaIcED1Ev(ptr noundef nonnull align 1 dereferenceable(1) %ref.tmp352) #3
  br label %return

lpad353:                                          ; preds = %sw.bb351
  %265 = landingpad { ptr, i32 }
          cleanup
  %266 = extractvalue { ptr, i32 } %265, 0
  store ptr %266, ptr %exn.slot, align 8
  %267 = extractvalue { ptr, i32 } %265, 1
  store i32 %267, ptr %ehselector.slot, align 4
  call void @_ZNSaIcED1Ev(ptr noundef nonnull align 1 dereferenceable(1) %ref.tmp352) #3
  br label %eh.resume

sw.bb355:                                         ; preds = %entry
  call void @_ZNSaIcEC1Ev(ptr noundef nonnull align 1 dereferenceable(1) %ref.tmp356) #3
  invoke void @_ZNSt7__cxx1112basic_stringIcSt11char_traitsIcESaIcEEC2IS3_EEPKcRKS3_(ptr noundef nonnull align 8 dereferenceable(32) %agg.result, ptr noundef @.str.167, ptr noundef nonnull align 1 dereferenceable(1) %ref.tmp356)
          to label %invoke.cont358 unwind label %lpad357

invoke.cont358:                                   ; preds = %sw.bb355
  call void @_ZNSaIcED1Ev(ptr noundef nonnull align 1 dereferenceable(1) %ref.tmp356) #3
  br label %return

lpad357:                                          ; preds = %sw.bb355
  %268 = landingpad { ptr, i32 }
          cleanup
  %269 = extractvalue { ptr, i32 } %268, 0
  store ptr %269, ptr %exn.slot, align 8
  %270 = extractvalue { ptr, i32 } %268, 1
  store i32 %270, ptr %ehselector.slot, align 4
  call void @_ZNSaIcED1Ev(ptr noundef nonnull align 1 dereferenceable(1) %ref.tmp356) #3
  br label %eh.resume

sw.bb359:                                         ; preds = %entry
  call void @_ZNSaIcEC1Ev(ptr noundef nonnull align 1 dereferenceable(1) %ref.tmp360) #3
  invoke void @_ZNSt7__cxx1112basic_stringIcSt11char_traitsIcESaIcEEC2IS3_EEPKcRKS3_(ptr noundef nonnull align 8 dereferenceable(32) %agg.result, ptr noundef @.str.168, ptr noundef nonnull align 1 dereferenceable(1) %ref.tmp360)
          to label %invoke.cont362 unwind label %lpad361

invoke.cont362:                                   ; preds = %sw.bb359
  call void @_ZNSaIcED1Ev(ptr noundef nonnull align 1 dereferenceable(1) %ref.tmp360) #3
  br label %return

lpad361:                                          ; preds = %sw.bb359
  %271 = landingpad { ptr, i32 }
          cleanup
  %272 = extractvalue { ptr, i32 } %271, 0
  store ptr %272, ptr %exn.slot, align 8
  %273 = extractvalue { ptr, i32 } %271, 1
  store i32 %273, ptr %ehselector.slot, align 4
  call void @_ZNSaIcED1Ev(ptr noundef nonnull align 1 dereferenceable(1) %ref.tmp360) #3
  br label %eh.resume

sw.bb363:                                         ; preds = %entry
  call void @_ZNSaIcEC1Ev(ptr noundef nonnull align 1 dereferenceable(1) %ref.tmp364) #3
  invoke void @_ZNSt7__cxx1112basic_stringIcSt11char_traitsIcESaIcEEC2IS3_EEPKcRKS3_(ptr noundef nonnull align 8 dereferenceable(32) %agg.result, ptr noundef @.str.169, ptr noundef nonnull align 1 dereferenceable(1) %ref.tmp364)
          to label %invoke.cont366 unwind label %lpad365

invoke.cont366:                                   ; preds = %sw.bb363
  call void @_ZNSaIcED1Ev(ptr noundef nonnull align 1 dereferenceable(1) %ref.tmp364) #3
  br label %return

lpad365:                                          ; preds = %sw.bb363
  %274 = landingpad { ptr, i32 }
          cleanup
  %275 = extractvalue { ptr, i32 } %274, 0
  store ptr %275, ptr %exn.slot, align 8
  %276 = extractvalue { ptr, i32 } %274, 1
  store i32 %276, ptr %ehselector.slot, align 4
  call void @_ZNSaIcED1Ev(ptr noundef nonnull align 1 dereferenceable(1) %ref.tmp364) #3
  br label %eh.resume

sw.bb367:                                         ; preds = %entry
  call void @_ZNSaIcEC1Ev(ptr noundef nonnull align 1 dereferenceable(1) %ref.tmp368) #3
  invoke void @_ZNSt7__cxx1112basic_stringIcSt11char_traitsIcESaIcEEC2IS3_EEPKcRKS3_(ptr noundef nonnull align 8 dereferenceable(32) %agg.result, ptr noundef @.str.170, ptr noundef nonnull align 1 dereferenceable(1) %ref.tmp368)
          to label %invoke.cont370 unwind label %lpad369

invoke.cont370:                                   ; preds = %sw.bb367
  call void @_ZNSaIcED1Ev(ptr noundef nonnull align 1 dereferenceable(1) %ref.tmp368) #3
  br label %return

lpad369:                                          ; preds = %sw.bb367
  %277 = landingpad { ptr, i32 }
          cleanup
  %278 = extractvalue { ptr, i32 } %277, 0
  store ptr %278, ptr %exn.slot, align 8
  %279 = extractvalue { ptr, i32 } %277, 1
  store i32 %279, ptr %ehselector.slot, align 4
  call void @_ZNSaIcED1Ev(ptr noundef nonnull align 1 dereferenceable(1) %ref.tmp368) #3
  br label %eh.resume

sw.bb371:                                         ; preds = %entry
  call void @_ZNSaIcEC1Ev(ptr noundef nonnull align 1 dereferenceable(1) %ref.tmp372) #3
  invoke void @_ZNSt7__cxx1112basic_stringIcSt11char_traitsIcESaIcEEC2IS3_EEPKcRKS3_(ptr noundef nonnull align 8 dereferenceable(32) %agg.result, ptr noundef @.str.171, ptr noundef nonnull align 1 dereferenceable(1) %ref.tmp372)
          to label %invoke.cont374 unwind label %lpad373

invoke.cont374:                                   ; preds = %sw.bb371
  call void @_ZNSaIcED1Ev(ptr noundef nonnull align 1 dereferenceable(1) %ref.tmp372) #3
  br label %return

lpad373:                                          ; preds = %sw.bb371
  %280 = landingpad { ptr, i32 }
          cleanup
  %281 = extractvalue { ptr, i32 } %280, 0
  store ptr %281, ptr %exn.slot, align 8
  %282 = extractvalue { ptr, i32 } %280, 1
  store i32 %282, ptr %ehselector.slot, align 4
  call void @_ZNSaIcED1Ev(ptr noundef nonnull align 1 dereferenceable(1) %ref.tmp372) #3
  br label %eh.resume

sw.bb375:                                         ; preds = %entry
  call void @_ZNSaIcEC1Ev(ptr noundef nonnull align 1 dereferenceable(1) %ref.tmp376) #3
  invoke void @_ZNSt7__cxx1112basic_stringIcSt11char_traitsIcESaIcEEC2IS3_EEPKcRKS3_(ptr noundef nonnull align 8 dereferenceable(32) %agg.result, ptr noundef @.str.172, ptr noundef nonnull align 1 dereferenceable(1) %ref.tmp376)
          to label %invoke.cont378 unwind label %lpad377

invoke.cont378:                                   ; preds = %sw.bb375
  call void @_ZNSaIcED1Ev(ptr noundef nonnull align 1 dereferenceable(1) %ref.tmp376) #3
  br label %return

lpad377:                                          ; preds = %sw.bb375
  %283 = landingpad { ptr, i32 }
          cleanup
  %284 = extractvalue { ptr, i32 } %283, 0
  store ptr %284, ptr %exn.slot, align 8
  %285 = extractvalue { ptr, i32 } %283, 1
  store i32 %285, ptr %ehselector.slot, align 4
  call void @_ZNSaIcED1Ev(ptr noundef nonnull align 1 dereferenceable(1) %ref.tmp376) #3
  br label %eh.resume

sw.bb379:                                         ; preds = %entry
  call void @_ZNSaIcEC1Ev(ptr noundef nonnull align 1 dereferenceable(1) %ref.tmp380) #3
  invoke void @_ZNSt7__cxx1112basic_stringIcSt11char_traitsIcESaIcEEC2IS3_EEPKcRKS3_(ptr noundef nonnull align 8 dereferenceable(32) %agg.result, ptr noundef @.str.173, ptr noundef nonnull align 1 dereferenceable(1) %ref.tmp380)
          to label %invoke.cont382 unwind label %lpad381

invoke.cont382:                                   ; preds = %sw.bb379
  call void @_ZNSaIcED1Ev(ptr noundef nonnull align 1 dereferenceable(1) %ref.tmp380) #3
  br label %return

lpad381:                                          ; preds = %sw.bb379
  %286 = landingpad { ptr, i32 }
          cleanup
  %287 = extractvalue { ptr, i32 } %286, 0
  store ptr %287, ptr %exn.slot, align 8
  %288 = extractvalue { ptr, i32 } %286, 1
  store i32 %288, ptr %ehselector.slot, align 4
  call void @_ZNSaIcED1Ev(ptr noundef nonnull align 1 dereferenceable(1) %ref.tmp380) #3
  br label %eh.resume

sw.bb383:                                         ; preds = %entry
  call void @_ZNSaIcEC1Ev(ptr noundef nonnull align 1 dereferenceable(1) %ref.tmp384) #3
  invoke void @_ZNSt7__cxx1112basic_stringIcSt11char_traitsIcESaIcEEC2IS3_EEPKcRKS3_(ptr noundef nonnull align 8 dereferenceable(32) %agg.result, ptr noundef @.str.174, ptr noundef nonnull align 1 dereferenceable(1) %ref.tmp384)
          to label %invoke.cont386 unwind label %lpad385

invoke.cont386:                                   ; preds = %sw.bb383
  call void @_ZNSaIcED1Ev(ptr noundef nonnull align 1 dereferenceable(1) %ref.tmp384) #3
  br label %return

lpad385:                                          ; preds = %sw.bb383
  %289 = landingpad { ptr, i32 }
          cleanup
  %290 = extractvalue { ptr, i32 } %289, 0
  store ptr %290, ptr %exn.slot, align 8
  %291 = extractvalue { ptr, i32 } %289, 1
  store i32 %291, ptr %ehselector.slot, align 4
  call void @_ZNSaIcED1Ev(ptr noundef nonnull align 1 dereferenceable(1) %ref.tmp384) #3
  br label %eh.resume

sw.bb387:                                         ; preds = %entry
  call void @_ZNSaIcEC1Ev(ptr noundef nonnull align 1 dereferenceable(1) %ref.tmp388) #3
  invoke void @_ZNSt7__cxx1112basic_stringIcSt11char_traitsIcESaIcEEC2IS3_EEPKcRKS3_(ptr noundef nonnull align 8 dereferenceable(32) %agg.result, ptr noundef @.str.175, ptr noundef nonnull align 1 dereferenceable(1) %ref.tmp388)
          to label %invoke.cont390 unwind label %lpad389

invoke.cont390:                                   ; preds = %sw.bb387
  call void @_ZNSaIcED1Ev(ptr noundef nonnull align 1 dereferenceable(1) %ref.tmp388) #3
  br label %return

lpad389:                                          ; preds = %sw.bb387
  %292 = landingpad { ptr, i32 }
          cleanup
  %293 = extractvalue { ptr, i32 } %292, 0
  store ptr %293, ptr %exn.slot, align 8
  %294 = extractvalue { ptr, i32 } %292, 1
  store i32 %294, ptr %ehselector.slot, align 4
  call void @_ZNSaIcED1Ev(ptr noundef nonnull align 1 dereferenceable(1) %ref.tmp388) #3
  br label %eh.resume

sw.bb391:                                         ; preds = %entry
  call void @_ZNSaIcEC1Ev(ptr noundef nonnull align 1 dereferenceable(1) %ref.tmp392) #3
  invoke void @_ZNSt7__cxx1112basic_stringIcSt11char_traitsIcESaIcEEC2IS3_EEPKcRKS3_(ptr noundef nonnull align 8 dereferenceable(32) %agg.result, ptr noundef @.str.176, ptr noundef nonnull align 1 dereferenceable(1) %ref.tmp392)
          to label %invoke.cont394 unwind label %lpad393

invoke.cont394:                                   ; preds = %sw.bb391
  call void @_ZNSaIcED1Ev(ptr noundef nonnull align 1 dereferenceable(1) %ref.tmp392) #3
  br label %return

lpad393:                                          ; preds = %sw.bb391
  %295 = landingpad { ptr, i32 }
          cleanup
  %296 = extractvalue { ptr, i32 } %295, 0
  store ptr %296, ptr %exn.slot, align 8
  %297 = extractvalue { ptr, i32 } %295, 1
  store i32 %297, ptr %ehselector.slot, align 4
  call void @_ZNSaIcED1Ev(ptr noundef nonnull align 1 dereferenceable(1) %ref.tmp392) #3
  br label %eh.resume

sw.bb395:                                         ; preds = %entry
  call void @_ZNSaIcEC1Ev(ptr noundef nonnull align 1 dereferenceable(1) %ref.tmp396) #3
  invoke void @_ZNSt7__cxx1112basic_stringIcSt11char_traitsIcESaIcEEC2IS3_EEPKcRKS3_(ptr noundef nonnull align 8 dereferenceable(32) %agg.result, ptr noundef @.str.177, ptr noundef nonnull align 1 dereferenceable(1) %ref.tmp396)
          to label %invoke.cont398 unwind label %lpad397

invoke.cont398:                                   ; preds = %sw.bb395
  call void @_ZNSaIcED1Ev(ptr noundef nonnull align 1 dereferenceable(1) %ref.tmp396) #3
  br label %return

lpad397:                                          ; preds = %sw.bb395
  %298 = landingpad { ptr, i32 }
          cleanup
  %299 = extractvalue { ptr, i32 } %298, 0
  store ptr %299, ptr %exn.slot, align 8
  %300 = extractvalue { ptr, i32 } %298, 1
  store i32 %300, ptr %ehselector.slot, align 4
  call void @_ZNSaIcED1Ev(ptr noundef nonnull align 1 dereferenceable(1) %ref.tmp396) #3
  br label %eh.resume

sw.bb399:                                         ; preds = %entry
  call void @_ZNSaIcEC1Ev(ptr noundef nonnull align 1 dereferenceable(1) %ref.tmp400) #3
  invoke void @_ZNSt7__cxx1112basic_stringIcSt11char_traitsIcESaIcEEC2IS3_EEPKcRKS3_(ptr noundef nonnull align 8 dereferenceable(32) %agg.result, ptr noundef @.str.178, ptr noundef nonnull align 1 dereferenceable(1) %ref.tmp400)
          to label %invoke.cont402 unwind label %lpad401

invoke.cont402:                                   ; preds = %sw.bb399
  call void @_ZNSaIcED1Ev(ptr noundef nonnull align 1 dereferenceable(1) %ref.tmp400) #3
  br label %return

lpad401:                                          ; preds = %sw.bb399
  %301 = landingpad { ptr, i32 }
          cleanup
  %302 = extractvalue { ptr, i32 } %301, 0
  store ptr %302, ptr %exn.slot, align 8
  %303 = extractvalue { ptr, i32 } %301, 1
  store i32 %303, ptr %ehselector.slot, align 4
  call void @_ZNSaIcED1Ev(ptr noundef nonnull align 1 dereferenceable(1) %ref.tmp400) #3
  br label %eh.resume

sw.bb403:                                         ; preds = %entry
  call void @_ZNSaIcEC1Ev(ptr noundef nonnull align 1 dereferenceable(1) %ref.tmp404) #3
  invoke void @_ZNSt7__cxx1112basic_stringIcSt11char_traitsIcESaIcEEC2IS3_EEPKcRKS3_(ptr noundef nonnull align 8 dereferenceable(32) %agg.result, ptr noundef @.str.179, ptr noundef nonnull align 1 dereferenceable(1) %ref.tmp404)
          to label %invoke.cont406 unwind label %lpad405

invoke.cont406:                                   ; preds = %sw.bb403
  call void @_ZNSaIcED1Ev(ptr noundef nonnull align 1 dereferenceable(1) %ref.tmp404) #3
  br label %return

lpad405:                                          ; preds = %sw.bb403
  %304 = landingpad { ptr, i32 }
          cleanup
  %305 = extractvalue { ptr, i32 } %304, 0
  store ptr %305, ptr %exn.slot, align 8
  %306 = extractvalue { ptr, i32 } %304, 1
  store i32 %306, ptr %ehselector.slot, align 4
  call void @_ZNSaIcED1Ev(ptr noundef nonnull align 1 dereferenceable(1) %ref.tmp404) #3
  br label %eh.resume

sw.bb407:                                         ; preds = %entry
  call void @_ZNSaIcEC1Ev(ptr noundef nonnull align 1 dereferenceable(1) %ref.tmp408) #3
  invoke void @_ZNSt7__cxx1112basic_stringIcSt11char_traitsIcESaIcEEC2IS3_EEPKcRKS3_(ptr noundef nonnull align 8 dereferenceable(32) %agg.result, ptr noundef @.str.180, ptr noundef nonnull align 1 dereferenceable(1) %ref.tmp408)
          to label %invoke.cont410 unwind label %lpad409

invoke.cont410:                                   ; preds = %sw.bb407
  call void @_ZNSaIcED1Ev(ptr noundef nonnull align 1 dereferenceable(1) %ref.tmp408) #3
  br label %return

lpad409:                                          ; preds = %sw.bb407
  %307 = landingpad { ptr, i32 }
          cleanup
  %308 = extractvalue { ptr, i32 } %307, 0
  store ptr %308, ptr %exn.slot, align 8
  %309 = extractvalue { ptr, i32 } %307, 1
  store i32 %309, ptr %ehselector.slot, align 4
  call void @_ZNSaIcED1Ev(ptr noundef nonnull align 1 dereferenceable(1) %ref.tmp408) #3
  br label %eh.resume

sw.bb411:                                         ; preds = %entry
  call void @_ZNSaIcEC1Ev(ptr noundef nonnull align 1 dereferenceable(1) %ref.tmp412) #3
  invoke void @_ZNSt7__cxx1112basic_stringIcSt11char_traitsIcESaIcEEC2IS3_EEPKcRKS3_(ptr noundef nonnull align 8 dereferenceable(32) %agg.result, ptr noundef @.str.181, ptr noundef nonnull align 1 dereferenceable(1) %ref.tmp412)
          to label %invoke.cont414 unwind label %lpad413

invoke.cont414:                                   ; preds = %sw.bb411
  call void @_ZNSaIcED1Ev(ptr noundef nonnull align 1 dereferenceable(1) %ref.tmp412) #3
  br label %return

lpad413:                                          ; preds = %sw.bb411
  %310 = landingpad { ptr, i32 }
          cleanup
  %311 = extractvalue { ptr, i32 } %310, 0
  store ptr %311, ptr %exn.slot, align 8
  %312 = extractvalue { ptr, i32 } %310, 1
  store i32 %312, ptr %ehselector.slot, align 4
  call void @_ZNSaIcED1Ev(ptr noundef nonnull align 1 dereferenceable(1) %ref.tmp412) #3
  br label %eh.resume

sw.bb415:                                         ; preds = %entry
  call void @_ZNSaIcEC1Ev(ptr noundef nonnull align 1 dereferenceable(1) %ref.tmp416) #3
  invoke void @_ZNSt7__cxx1112basic_stringIcSt11char_traitsIcESaIcEEC2IS3_EEPKcRKS3_(ptr noundef nonnull align 8 dereferenceable(32) %agg.result, ptr noundef @.str.182, ptr noundef nonnull align 1 dereferenceable(1) %ref.tmp416)
          to label %invoke.cont418 unwind label %lpad417

invoke.cont418:                                   ; preds = %sw.bb415
  call void @_ZNSaIcED1Ev(ptr noundef nonnull align 1 dereferenceable(1) %ref.tmp416) #3
  br label %return

lpad417:                                          ; preds = %sw.bb415
  %313 = landingpad { ptr, i32 }
          cleanup
  %314 = extractvalue { ptr, i32 } %313, 0
  store ptr %314, ptr %exn.slot, align 8
  %315 = extractvalue { ptr, i32 } %313, 1
  store i32 %315, ptr %ehselector.slot, align 4
  call void @_ZNSaIcED1Ev(ptr noundef nonnull align 1 dereferenceable(1) %ref.tmp416) #3
  br label %eh.resume

sw.bb419:                                         ; preds = %entry
  call void @_ZNSaIcEC1Ev(ptr noundef nonnull align 1 dereferenceable(1) %ref.tmp420) #3
  invoke void @_ZNSt7__cxx1112basic_stringIcSt11char_traitsIcESaIcEEC2IS3_EEPKcRKS3_(ptr noundef nonnull align 8 dereferenceable(32) %agg.result, ptr noundef @.str.183, ptr noundef nonnull align 1 dereferenceable(1) %ref.tmp420)
          to label %invoke.cont422 unwind label %lpad421

invoke.cont422:                                   ; preds = %sw.bb419
  call void @_ZNSaIcED1Ev(ptr noundef nonnull align 1 dereferenceable(1) %ref.tmp420) #3
  br label %return

lpad421:                                          ; preds = %sw.bb419
  %316 = landingpad { ptr, i32 }
          cleanup
  %317 = extractvalue { ptr, i32 } %316, 0
  store ptr %317, ptr %exn.slot, align 8
  %318 = extractvalue { ptr, i32 } %316, 1
  store i32 %318, ptr %ehselector.slot, align 4
  call void @_ZNSaIcED1Ev(ptr noundef nonnull align 1 dereferenceable(1) %ref.tmp420) #3
  br label %eh.resume

sw.bb423:                                         ; preds = %entry
  call void @_ZNSaIcEC1Ev(ptr noundef nonnull align 1 dereferenceable(1) %ref.tmp424) #3
  invoke void @_ZNSt7__cxx1112basic_stringIcSt11char_traitsIcESaIcEEC2IS3_EEPKcRKS3_(ptr noundef nonnull align 8 dereferenceable(32) %agg.result, ptr noundef @.str.184, ptr noundef nonnull align 1 dereferenceable(1) %ref.tmp424)
          to label %invoke.cont426 unwind label %lpad425

invoke.cont426:                                   ; preds = %sw.bb423
  call void @_ZNSaIcED1Ev(ptr noundef nonnull align 1 dereferenceable(1) %ref.tmp424) #3
  br label %return

lpad425:                                          ; preds = %sw.bb423
  %319 = landingpad { ptr, i32 }
          cleanup
  %320 = extractvalue { ptr, i32 } %319, 0
  store ptr %320, ptr %exn.slot, align 8
  %321 = extractvalue { ptr, i32 } %319, 1
  store i32 %321, ptr %ehselector.slot, align 4
  call void @_ZNSaIcED1Ev(ptr noundef nonnull align 1 dereferenceable(1) %ref.tmp424) #3
  br label %eh.resume

sw.bb427:                                         ; preds = %entry
  call void @_ZNSaIcEC1Ev(ptr noundef nonnull align 1 dereferenceable(1) %ref.tmp428) #3
  invoke void @_ZNSt7__cxx1112basic_stringIcSt11char_traitsIcESaIcEEC2IS3_EEPKcRKS3_(ptr noundef nonnull align 8 dereferenceable(32) %agg.result, ptr noundef @.str.185, ptr noundef nonnull align 1 dereferenceable(1) %ref.tmp428)
          to label %invoke.cont430 unwind label %lpad429

invoke.cont430:                                   ; preds = %sw.bb427
  call void @_ZNSaIcED1Ev(ptr noundef nonnull align 1 dereferenceable(1) %ref.tmp428) #3
  br label %return

lpad429:                                          ; preds = %sw.bb427
  %322 = landingpad { ptr, i32 }
          cleanup
  %323 = extractvalue { ptr, i32 } %322, 0
  store ptr %323, ptr %exn.slot, align 8
  %324 = extractvalue { ptr, i32 } %322, 1
  store i32 %324, ptr %ehselector.slot, align 4
  call void @_ZNSaIcED1Ev(ptr noundef nonnull align 1 dereferenceable(1) %ref.tmp428) #3
  br label %eh.resume

sw.bb431:                                         ; preds = %entry
  call void @_ZNSaIcEC1Ev(ptr noundef nonnull align 1 dereferenceable(1) %ref.tmp432) #3
  invoke void @_ZNSt7__cxx1112basic_stringIcSt11char_traitsIcESaIcEEC2IS3_EEPKcRKS3_(ptr noundef nonnull align 8 dereferenceable(32) %agg.result, ptr noundef @.str.186, ptr noundef nonnull align 1 dereferenceable(1) %ref.tmp432)
          to label %invoke.cont434 unwind label %lpad433

invoke.cont434:                                   ; preds = %sw.bb431
  call void @_ZNSaIcED1Ev(ptr noundef nonnull align 1 dereferenceable(1) %ref.tmp432) #3
  br label %return

lpad433:                                          ; preds = %sw.bb431
  %325 = landingpad { ptr, i32 }
          cleanup
  %326 = extractvalue { ptr, i32 } %325, 0
  store ptr %326, ptr %exn.slot, align 8
  %327 = extractvalue { ptr, i32 } %325, 1
  store i32 %327, ptr %ehselector.slot, align 4
  call void @_ZNSaIcED1Ev(ptr noundef nonnull align 1 dereferenceable(1) %ref.tmp432) #3
  br label %eh.resume

sw.bb435:                                         ; preds = %entry
  call void @_ZNSaIcEC1Ev(ptr noundef nonnull align 1 dereferenceable(1) %ref.tmp436) #3
  invoke void @_ZNSt7__cxx1112basic_stringIcSt11char_traitsIcESaIcEEC2IS3_EEPKcRKS3_(ptr noundef nonnull align 8 dereferenceable(32) %agg.result, ptr noundef @.str.187, ptr noundef nonnull align 1 dereferenceable(1) %ref.tmp436)
          to label %invoke.cont438 unwind label %lpad437

invoke.cont438:                                   ; preds = %sw.bb435
  call void @_ZNSaIcED1Ev(ptr noundef nonnull align 1 dereferenceable(1) %ref.tmp436) #3
  br label %return

lpad437:                                          ; preds = %sw.bb435
  %328 = landingpad { ptr, i32 }
          cleanup
  %329 = extractvalue { ptr, i32 } %328, 0
  store ptr %329, ptr %exn.slot, align 8
  %330 = extractvalue { ptr, i32 } %328, 1
  store i32 %330, ptr %ehselector.slot, align 4
  call void @_ZNSaIcED1Ev(ptr noundef nonnull align 1 dereferenceable(1) %ref.tmp436) #3
  br label %eh.resume

sw.bb439:                                         ; preds = %entry
  call void @_ZNSaIcEC1Ev(ptr noundef nonnull align 1 dereferenceable(1) %ref.tmp440) #3
  invoke void @_ZNSt7__cxx1112basic_stringIcSt11char_traitsIcESaIcEEC2IS3_EEPKcRKS3_(ptr noundef nonnull align 8 dereferenceable(32) %agg.result, ptr noundef @.str.188, ptr noundef nonnull align 1 dereferenceable(1) %ref.tmp440)
          to label %invoke.cont442 unwind label %lpad441

invoke.cont442:                                   ; preds = %sw.bb439
  call void @_ZNSaIcED1Ev(ptr noundef nonnull align 1 dereferenceable(1) %ref.tmp440) #3
  br label %return

lpad441:                                          ; preds = %sw.bb439
  %331 = landingpad { ptr, i32 }
          cleanup
  %332 = extractvalue { ptr, i32 } %331, 0
  store ptr %332, ptr %exn.slot, align 8
  %333 = extractvalue { ptr, i32 } %331, 1
  store i32 %333, ptr %ehselector.slot, align 4
  call void @_ZNSaIcED1Ev(ptr noundef nonnull align 1 dereferenceable(1) %ref.tmp440) #3
  br label %eh.resume

sw.bb443:                                         ; preds = %entry
  call void @_ZNSaIcEC1Ev(ptr noundef nonnull align 1 dereferenceable(1) %ref.tmp444) #3
  invoke void @_ZNSt7__cxx1112basic_stringIcSt11char_traitsIcESaIcEEC2IS3_EEPKcRKS3_(ptr noundef nonnull align 8 dereferenceable(32) %agg.result, ptr noundef @.str.189, ptr noundef nonnull align 1 dereferenceable(1) %ref.tmp444)
          to label %invoke.cont446 unwind label %lpad445

invoke.cont446:                                   ; preds = %sw.bb443
  call void @_ZNSaIcED1Ev(ptr noundef nonnull align 1 dereferenceable(1) %ref.tmp444) #3
  br label %return

lpad445:                                          ; preds = %sw.bb443
  %334 = landingpad { ptr, i32 }
          cleanup
  %335 = extractvalue { ptr, i32 } %334, 0
  store ptr %335, ptr %exn.slot, align 8
  %336 = extractvalue { ptr, i32 } %334, 1
  store i32 %336, ptr %ehselector.slot, align 4
  call void @_ZNSaIcED1Ev(ptr noundef nonnull align 1 dereferenceable(1) %ref.tmp444) #3
  br label %eh.resume

sw.bb447:                                         ; preds = %entry
  call void @_ZNSaIcEC1Ev(ptr noundef nonnull align 1 dereferenceable(1) %ref.tmp448) #3
  invoke void @_ZNSt7__cxx1112basic_stringIcSt11char_traitsIcESaIcEEC2IS3_EEPKcRKS3_(ptr noundef nonnull align 8 dereferenceable(32) %agg.result, ptr noundef @.str.190, ptr noundef nonnull align 1 dereferenceable(1) %ref.tmp448)
          to label %invoke.cont450 unwind label %lpad449

invoke.cont450:                                   ; preds = %sw.bb447
  call void @_ZNSaIcED1Ev(ptr noundef nonnull align 1 dereferenceable(1) %ref.tmp448) #3
  br label %return

lpad449:                                          ; preds = %sw.bb447
  %337 = landingpad { ptr, i32 }
          cleanup
  %338 = extractvalue { ptr, i32 } %337, 0
  store ptr %338, ptr %exn.slot, align 8
  %339 = extractvalue { ptr, i32 } %337, 1
  store i32 %339, ptr %ehselector.slot, align 4
  call void @_ZNSaIcED1Ev(ptr noundef nonnull align 1 dereferenceable(1) %ref.tmp448) #3
  br label %eh.resume

sw.bb451:                                         ; preds = %entry
  call void @_ZNSaIcEC1Ev(ptr noundef nonnull align 1 dereferenceable(1) %ref.tmp452) #3
  invoke void @_ZNSt7__cxx1112basic_stringIcSt11char_traitsIcESaIcEEC2IS3_EEPKcRKS3_(ptr noundef nonnull align 8 dereferenceable(32) %agg.result, ptr noundef @.str.191, ptr noundef nonnull align 1 dereferenceable(1) %ref.tmp452)
          to label %invoke.cont454 unwind label %lpad453

invoke.cont454:                                   ; preds = %sw.bb451
  call void @_ZNSaIcED1Ev(ptr noundef nonnull align 1 dereferenceable(1) %ref.tmp452) #3
  br label %return

lpad453:                                          ; preds = %sw.bb451
  %340 = landingpad { ptr, i32 }
          cleanup
  %341 = extractvalue { ptr, i32 } %340, 0
  store ptr %341, ptr %exn.slot, align 8
  %342 = extractvalue { ptr, i32 } %340, 1
  store i32 %342, ptr %ehselector.slot, align 4
  call void @_ZNSaIcED1Ev(ptr noundef nonnull align 1 dereferenceable(1) %ref.tmp452) #3
  br label %eh.resume

sw.bb455:                                         ; preds = %entry
  call void @_ZNSaIcEC1Ev(ptr noundef nonnull align 1 dereferenceable(1) %ref.tmp456) #3
  invoke void @_ZNSt7__cxx1112basic_stringIcSt11char_traitsIcESaIcEEC2IS3_EEPKcRKS3_(ptr noundef nonnull align 8 dereferenceable(32) %agg.result, ptr noundef @.str.192, ptr noundef nonnull align 1 dereferenceable(1) %ref.tmp456)
          to label %invoke.cont458 unwind label %lpad457

invoke.cont458:                                   ; preds = %sw.bb455
  call void @_ZNSaIcED1Ev(ptr noundef nonnull align 1 dereferenceable(1) %ref.tmp456) #3
  br label %return

lpad457:                                          ; preds = %sw.bb455
  %343 = landingpad { ptr, i32 }
          cleanup
  %344 = extractvalue { ptr, i32 } %343, 0
  store ptr %344, ptr %exn.slot, align 8
  %345 = extractvalue { ptr, i32 } %343, 1
  store i32 %345, ptr %ehselector.slot, align 4
  call void @_ZNSaIcED1Ev(ptr noundef nonnull align 1 dereferenceable(1) %ref.tmp456) #3
  br label %eh.resume

sw.bb459:                                         ; preds = %entry
  call void @_ZNSaIcEC1Ev(ptr noundef nonnull align 1 dereferenceable(1) %ref.tmp460) #3
  invoke void @_ZNSt7__cxx1112basic_stringIcSt11char_traitsIcESaIcEEC2IS3_EEPKcRKS3_(ptr noundef nonnull align 8 dereferenceable(32) %agg.result, ptr noundef @.str.193, ptr noundef nonnull align 1 dereferenceable(1) %ref.tmp460)
          to label %invoke.cont462 unwind label %lpad461

invoke.cont462:                                   ; preds = %sw.bb459
  call void @_ZNSaIcED1Ev(ptr noundef nonnull align 1 dereferenceable(1) %ref.tmp460) #3
  br label %return

lpad461:                                          ; preds = %sw.bb459
  %346 = landingpad { ptr, i32 }
          cleanup
  %347 = extractvalue { ptr, i32 } %346, 0
  store ptr %347, ptr %exn.slot, align 8
  %348 = extractvalue { ptr, i32 } %346, 1
  store i32 %348, ptr %ehselector.slot, align 4
  call void @_ZNSaIcED1Ev(ptr noundef nonnull align 1 dereferenceable(1) %ref.tmp460) #3
  br label %eh.resume

sw.bb463:                                         ; preds = %entry
  call void @_ZNSaIcEC1Ev(ptr noundef nonnull align 1 dereferenceable(1) %ref.tmp464) #3
  invoke void @_ZNSt7__cxx1112basic_stringIcSt11char_traitsIcESaIcEEC2IS3_EEPKcRKS3_(ptr noundef nonnull align 8 dereferenceable(32) %agg.result, ptr noundef @.str.194, ptr noundef nonnull align 1 dereferenceable(1) %ref.tmp464)
          to label %invoke.cont466 unwind label %lpad465

invoke.cont466:                                   ; preds = %sw.bb463
  call void @_ZNSaIcED1Ev(ptr noundef nonnull align 1 dereferenceable(1) %ref.tmp464) #3
  br label %return

lpad465:                                          ; preds = %sw.bb463
  %349 = landingpad { ptr, i32 }
          cleanup
  %350 = extractvalue { ptr, i32 } %349, 0
  store ptr %350, ptr %exn.slot, align 8
  %351 = extractvalue { ptr, i32 } %349, 1
  store i32 %351, ptr %ehselector.slot, align 4
  call void @_ZNSaIcED1Ev(ptr noundef nonnull align 1 dereferenceable(1) %ref.tmp464) #3
  br label %eh.resume

sw.bb467:                                         ; preds = %entry
  call void @_ZNSaIcEC1Ev(ptr noundef nonnull align 1 dereferenceable(1) %ref.tmp468) #3
  invoke void @_ZNSt7__cxx1112basic_stringIcSt11char_traitsIcESaIcEEC2IS3_EEPKcRKS3_(ptr noundef nonnull align 8 dereferenceable(32) %agg.result, ptr noundef @.str.195, ptr noundef nonnull align 1 dereferenceable(1) %ref.tmp468)
          to label %invoke.cont470 unwind label %lpad469

invoke.cont470:                                   ; preds = %sw.bb467
  call void @_ZNSaIcED1Ev(ptr noundef nonnull align 1 dereferenceable(1) %ref.tmp468) #3
  br label %return

lpad469:                                          ; preds = %sw.bb467
  %352 = landingpad { ptr, i32 }
          cleanup
  %353 = extractvalue { ptr, i32 } %352, 0
  store ptr %353, ptr %exn.slot, align 8
  %354 = extractvalue { ptr, i32 } %352, 1
  store i32 %354, ptr %ehselector.slot, align 4
  call void @_ZNSaIcED1Ev(ptr noundef nonnull align 1 dereferenceable(1) %ref.tmp468) #3
  br label %eh.resume

sw.bb471:                                         ; preds = %entry
  call void @_ZNSaIcEC1Ev(ptr noundef nonnull align 1 dereferenceable(1) %ref.tmp472) #3
  invoke void @_ZNSt7__cxx1112basic_stringIcSt11char_traitsIcESaIcEEC2IS3_EEPKcRKS3_(ptr noundef nonnull align 8 dereferenceable(32) %agg.result, ptr noundef @.str.196, ptr noundef nonnull align 1 dereferenceable(1) %ref.tmp472)
          to label %invoke.cont474 unwind label %lpad473

invoke.cont474:                                   ; preds = %sw.bb471
  call void @_ZNSaIcED1Ev(ptr noundef nonnull align 1 dereferenceable(1) %ref.tmp472) #3
  br label %return

lpad473:                                          ; preds = %sw.bb471
  %355 = landingpad { ptr, i32 }
          cleanup
  %356 = extractvalue { ptr, i32 } %355, 0
  store ptr %356, ptr %exn.slot, align 8
  %357 = extractvalue { ptr, i32 } %355, 1
  store i32 %357, ptr %ehselector.slot, align 4
  call void @_ZNSaIcED1Ev(ptr noundef nonnull align 1 dereferenceable(1) %ref.tmp472) #3
  br label %eh.resume

sw.bb475:                                         ; preds = %entry
  call void @_ZNSaIcEC1Ev(ptr noundef nonnull align 1 dereferenceable(1) %ref.tmp476) #3
  invoke void @_ZNSt7__cxx1112basic_stringIcSt11char_traitsIcESaIcEEC2IS3_EEPKcRKS3_(ptr noundef nonnull align 8 dereferenceable(32) %agg.result, ptr noundef @.str.197, ptr noundef nonnull align 1 dereferenceable(1) %ref.tmp476)
          to label %invoke.cont478 unwind label %lpad477

invoke.cont478:                                   ; preds = %sw.bb475
  call void @_ZNSaIcED1Ev(ptr noundef nonnull align 1 dereferenceable(1) %ref.tmp476) #3
  br label %return

lpad477:                                          ; preds = %sw.bb475
  %358 = landingpad { ptr, i32 }
          cleanup
  %359 = extractvalue { ptr, i32 } %358, 0
  store ptr %359, ptr %exn.slot, align 8
  %360 = extractvalue { ptr, i32 } %358, 1
  store i32 %360, ptr %ehselector.slot, align 4
  call void @_ZNSaIcED1Ev(ptr noundef nonnull align 1 dereferenceable(1) %ref.tmp476) #3
  br label %eh.resume

sw.bb479:                                         ; preds = %entry
  call void @_ZNSaIcEC1Ev(ptr noundef nonnull align 1 dereferenceable(1) %ref.tmp480) #3
  invoke void @_ZNSt7__cxx1112basic_stringIcSt11char_traitsIcESaIcEEC2IS3_EEPKcRKS3_(ptr noundef nonnull align 8 dereferenceable(32) %agg.result, ptr noundef @.str.198, ptr noundef nonnull align 1 dereferenceable(1) %ref.tmp480)
          to label %invoke.cont482 unwind label %lpad481

invoke.cont482:                                   ; preds = %sw.bb479
  call void @_ZNSaIcED1Ev(ptr noundef nonnull align 1 dereferenceable(1) %ref.tmp480) #3
  br label %return

lpad481:                                          ; preds = %sw.bb479
  %361 = landingpad { ptr, i32 }
          cleanup
  %362 = extractvalue { ptr, i32 } %361, 0
  store ptr %362, ptr %exn.slot, align 8
  %363 = extractvalue { ptr, i32 } %361, 1
  store i32 %363, ptr %ehselector.slot, align 4
  call void @_ZNSaIcED1Ev(ptr noundef nonnull align 1 dereferenceable(1) %ref.tmp480) #3
  br label %eh.resume

sw.bb483:                                         ; preds = %entry
  call void @_ZNSaIcEC1Ev(ptr noundef nonnull align 1 dereferenceable(1) %ref.tmp484) #3
  invoke void @_ZNSt7__cxx1112basic_stringIcSt11char_traitsIcESaIcEEC2IS3_EEPKcRKS3_(ptr noundef nonnull align 8 dereferenceable(32) %agg.result, ptr noundef @.str.199, ptr noundef nonnull align 1 dereferenceable(1) %ref.tmp484)
          to label %invoke.cont486 unwind label %lpad485

invoke.cont486:                                   ; preds = %sw.bb483
  call void @_ZNSaIcED1Ev(ptr noundef nonnull align 1 dereferenceable(1) %ref.tmp484) #3
  br label %return

lpad485:                                          ; preds = %sw.bb483
  %364 = landingpad { ptr, i32 }
          cleanup
  %365 = extractvalue { ptr, i32 } %364, 0
  store ptr %365, ptr %exn.slot, align 8
  %366 = extractvalue { ptr, i32 } %364, 1
  store i32 %366, ptr %ehselector.slot, align 4
  call void @_ZNSaIcED1Ev(ptr noundef nonnull align 1 dereferenceable(1) %ref.tmp484) #3
  br label %eh.resume

sw.bb487:                                         ; preds = %entry
  call void @_ZNSaIcEC1Ev(ptr noundef nonnull align 1 dereferenceable(1) %ref.tmp488) #3
  invoke void @_ZNSt7__cxx1112basic_stringIcSt11char_traitsIcESaIcEEC2IS3_EEPKcRKS3_(ptr noundef nonnull align 8 dereferenceable(32) %agg.result, ptr noundef @.str.200, ptr noundef nonnull align 1 dereferenceable(1) %ref.tmp488)
          to label %invoke.cont490 unwind label %lpad489

invoke.cont490:                                   ; preds = %sw.bb487
  call void @_ZNSaIcED1Ev(ptr noundef nonnull align 1 dereferenceable(1) %ref.tmp488) #3
  br label %return

lpad489:                                          ; preds = %sw.bb487
  %367 = landingpad { ptr, i32 }
          cleanup
  %368 = extractvalue { ptr, i32 } %367, 0
  store ptr %368, ptr %exn.slot, align 8
  %369 = extractvalue { ptr, i32 } %367, 1
  store i32 %369, ptr %ehselector.slot, align 4
  call void @_ZNSaIcED1Ev(ptr noundef nonnull align 1 dereferenceable(1) %ref.tmp488) #3
  br label %eh.resume

sw.bb491:                                         ; preds = %entry
  call void @_ZNSaIcEC1Ev(ptr noundef nonnull align 1 dereferenceable(1) %ref.tmp492) #3
  invoke void @_ZNSt7__cxx1112basic_stringIcSt11char_traitsIcESaIcEEC2IS3_EEPKcRKS3_(ptr noundef nonnull align 8 dereferenceable(32) %agg.result, ptr noundef @.str.201, ptr noundef nonnull align 1 dereferenceable(1) %ref.tmp492)
          to label %invoke.cont494 unwind label %lpad493

invoke.cont494:                                   ; preds = %sw.bb491
  call void @_ZNSaIcED1Ev(ptr noundef nonnull align 1 dereferenceable(1) %ref.tmp492) #3
  br label %return

lpad493:                                          ; preds = %sw.bb491
  %370 = landingpad { ptr, i32 }
          cleanup
  %371 = extractvalue { ptr, i32 } %370, 0
  store ptr %371, ptr %exn.slot, align 8
  %372 = extractvalue { ptr, i32 } %370, 1
  store i32 %372, ptr %ehselector.slot, align 4
  call void @_ZNSaIcED1Ev(ptr noundef nonnull align 1 dereferenceable(1) %ref.tmp492) #3
  br label %eh.resume

sw.bb495:                                         ; preds = %entry
  call void @_ZNSaIcEC1Ev(ptr noundef nonnull align 1 dereferenceable(1) %ref.tmp496) #3
  invoke void @_ZNSt7__cxx1112basic_stringIcSt11char_traitsIcESaIcEEC2IS3_EEPKcRKS3_(ptr noundef nonnull align 8 dereferenceable(32) %agg.result, ptr noundef @.str.202, ptr noundef nonnull align 1 dereferenceable(1) %ref.tmp496)
          to label %invoke.cont498 unwind label %lpad497

invoke.cont498:                                   ; preds = %sw.bb495
  call void @_ZNSaIcED1Ev(ptr noundef nonnull align 1 dereferenceable(1) %ref.tmp496) #3
  br label %return

lpad497:                                          ; preds = %sw.bb495
  %373 = landingpad { ptr, i32 }
          cleanup
  %374 = extractvalue { ptr, i32 } %373, 0
  store ptr %374, ptr %exn.slot, align 8
  %375 = extractvalue { ptr, i32 } %373, 1
  store i32 %375, ptr %ehselector.slot, align 4
  call void @_ZNSaIcED1Ev(ptr noundef nonnull align 1 dereferenceable(1) %ref.tmp496) #3
  br label %eh.resume

sw.bb499:                                         ; preds = %entry
  call void @_ZNSaIcEC1Ev(ptr noundef nonnull align 1 dereferenceable(1) %ref.tmp500) #3
  invoke void @_ZNSt7__cxx1112basic_stringIcSt11char_traitsIcESaIcEEC2IS3_EEPKcRKS3_(ptr noundef nonnull align 8 dereferenceable(32) %agg.result, ptr noundef @.str.203, ptr noundef nonnull align 1 dereferenceable(1) %ref.tmp500)
          to label %invoke.cont502 unwind label %lpad501

invoke.cont502:                                   ; preds = %sw.bb499
  call void @_ZNSaIcED1Ev(ptr noundef nonnull align 1 dereferenceable(1) %ref.tmp500) #3
  br label %return

lpad501:                                          ; preds = %sw.bb499
  %376 = landingpad { ptr, i32 }
          cleanup
  %377 = extractvalue { ptr, i32 } %376, 0
  store ptr %377, ptr %exn.slot, align 8
  %378 = extractvalue { ptr, i32 } %376, 1
  store i32 %378, ptr %ehselector.slot, align 4
  call void @_ZNSaIcED1Ev(ptr noundef nonnull align 1 dereferenceable(1) %ref.tmp500) #3
  br label %eh.resume

sw.bb503:                                         ; preds = %entry
  call void @_ZNSaIcEC1Ev(ptr noundef nonnull align 1 dereferenceable(1) %ref.tmp504) #3
  invoke void @_ZNSt7__cxx1112basic_stringIcSt11char_traitsIcESaIcEEC2IS3_EEPKcRKS3_(ptr noundef nonnull align 8 dereferenceable(32) %agg.result, ptr noundef @.str.204, ptr noundef nonnull align 1 dereferenceable(1) %ref.tmp504)
          to label %invoke.cont506 unwind label %lpad505

invoke.cont506:                                   ; preds = %sw.bb503
  call void @_ZNSaIcED1Ev(ptr noundef nonnull align 1 dereferenceable(1) %ref.tmp504) #3
  br label %return

lpad505:                                          ; preds = %sw.bb503
  %379 = landingpad { ptr, i32 }
          cleanup
  %380 = extractvalue { ptr, i32 } %379, 0
  store ptr %380, ptr %exn.slot, align 8
  %381 = extractvalue { ptr, i32 } %379, 1
  store i32 %381, ptr %ehselector.slot, align 4
  call void @_ZNSaIcED1Ev(ptr noundef nonnull align 1 dereferenceable(1) %ref.tmp504) #3
  br label %eh.resume

sw.bb507:                                         ; preds = %entry
  call void @_ZNSaIcEC1Ev(ptr noundef nonnull align 1 dereferenceable(1) %ref.tmp508) #3
  invoke void @_ZNSt7__cxx1112basic_stringIcSt11char_traitsIcESaIcEEC2IS3_EEPKcRKS3_(ptr noundef nonnull align 8 dereferenceable(32) %agg.result, ptr noundef @.str.205, ptr noundef nonnull align 1 dereferenceable(1) %ref.tmp508)
          to label %invoke.cont510 unwind label %lpad509

invoke.cont510:                                   ; preds = %sw.bb507
  call void @_ZNSaIcED1Ev(ptr noundef nonnull align 1 dereferenceable(1) %ref.tmp508) #3
  br label %return

lpad509:                                          ; preds = %sw.bb507
  %382 = landingpad { ptr, i32 }
          cleanup
  %383 = extractvalue { ptr, i32 } %382, 0
  store ptr %383, ptr %exn.slot, align 8
  %384 = extractvalue { ptr, i32 } %382, 1
  store i32 %384, ptr %ehselector.slot, align 4
  call void @_ZNSaIcED1Ev(ptr noundef nonnull align 1 dereferenceable(1) %ref.tmp508) #3
  br label %eh.resume

sw.bb511:                                         ; preds = %entry
  call void @_ZNSaIcEC1Ev(ptr noundef nonnull align 1 dereferenceable(1) %ref.tmp512) #3
  invoke void @_ZNSt7__cxx1112basic_stringIcSt11char_traitsIcESaIcEEC2IS3_EEPKcRKS3_(ptr noundef nonnull align 8 dereferenceable(32) %agg.result, ptr noundef @.str.206, ptr noundef nonnull align 1 dereferenceable(1) %ref.tmp512)
          to label %invoke.cont514 unwind label %lpad513

invoke.cont514:                                   ; preds = %sw.bb511
  call void @_ZNSaIcED1Ev(ptr noundef nonnull align 1 dereferenceable(1) %ref.tmp512) #3
  br label %return

lpad513:                                          ; preds = %sw.bb511
  %385 = landingpad { ptr, i32 }
          cleanup
  %386 = extractvalue { ptr, i32 } %385, 0
  store ptr %386, ptr %exn.slot, align 8
  %387 = extractvalue { ptr, i32 } %385, 1
  store i32 %387, ptr %ehselector.slot, align 4
  call void @_ZNSaIcED1Ev(ptr noundef nonnull align 1 dereferenceable(1) %ref.tmp512) #3
  br label %eh.resume

sw.bb515:                                         ; preds = %entry
  call void @_ZNSaIcEC1Ev(ptr noundef nonnull align 1 dereferenceable(1) %ref.tmp516) #3
  invoke void @_ZNSt7__cxx1112basic_stringIcSt11char_traitsIcESaIcEEC2IS3_EEPKcRKS3_(ptr noundef nonnull align 8 dereferenceable(32) %agg.result, ptr noundef @.str.207, ptr noundef nonnull align 1 dereferenceable(1) %ref.tmp516)
          to label %invoke.cont518 unwind label %lpad517

invoke.cont518:                                   ; preds = %sw.bb515
  call void @_ZNSaIcED1Ev(ptr noundef nonnull align 1 dereferenceable(1) %ref.tmp516) #3
  br label %return

lpad517:                                          ; preds = %sw.bb515
  %388 = landingpad { ptr, i32 }
          cleanup
  %389 = extractvalue { ptr, i32 } %388, 0
  store ptr %389, ptr %exn.slot, align 8
  %390 = extractvalue { ptr, i32 } %388, 1
  store i32 %390, ptr %ehselector.slot, align 4
  call void @_ZNSaIcED1Ev(ptr noundef nonnull align 1 dereferenceable(1) %ref.tmp516) #3
  br label %eh.resume

sw.bb519:                                         ; preds = %entry
  call void @_ZNSaIcEC1Ev(ptr noundef nonnull align 1 dereferenceable(1) %ref.tmp520) #3
  invoke void @_ZNSt7__cxx1112basic_stringIcSt11char_traitsIcESaIcEEC2IS3_EEPKcRKS3_(ptr noundef nonnull align 8 dereferenceable(32) %agg.result, ptr noundef @.str.208, ptr noundef nonnull align 1 dereferenceable(1) %ref.tmp520)
          to label %invoke.cont522 unwind label %lpad521

invoke.cont522:                                   ; preds = %sw.bb519
  call void @_ZNSaIcED1Ev(ptr noundef nonnull align 1 dereferenceable(1) %ref.tmp520) #3
  br label %return

lpad521:                                          ; preds = %sw.bb519
  %391 = landingpad { ptr, i32 }
          cleanup
  %392 = extractvalue { ptr, i32 } %391, 0
  store ptr %392, ptr %exn.slot, align 8
  %393 = extractvalue { ptr, i32 } %391, 1
  store i32 %393, ptr %ehselector.slot, align 4
  call void @_ZNSaIcED1Ev(ptr noundef nonnull align 1 dereferenceable(1) %ref.tmp520) #3
  br label %eh.resume

sw.bb523:                                         ; preds = %entry
  call void @_ZNSaIcEC1Ev(ptr noundef nonnull align 1 dereferenceable(1) %ref.tmp524) #3
  invoke void @_ZNSt7__cxx1112basic_stringIcSt11char_traitsIcESaIcEEC2IS3_EEPKcRKS3_(ptr noundef nonnull align 8 dereferenceable(32) %agg.result, ptr noundef @.str.209, ptr noundef nonnull align 1 dereferenceable(1) %ref.tmp524)
          to label %invoke.cont526 unwind label %lpad525

invoke.cont526:                                   ; preds = %sw.bb523
  call void @_ZNSaIcED1Ev(ptr noundef nonnull align 1 dereferenceable(1) %ref.tmp524) #3
  br label %return

lpad525:                                          ; preds = %sw.bb523
  %394 = landingpad { ptr, i32 }
          cleanup
  %395 = extractvalue { ptr, i32 } %394, 0
  store ptr %395, ptr %exn.slot, align 8
  %396 = extractvalue { ptr, i32 } %394, 1
  store i32 %396, ptr %ehselector.slot, align 4
  call void @_ZNSaIcED1Ev(ptr noundef nonnull align 1 dereferenceable(1) %ref.tmp524) #3
  br label %eh.resume

sw.bb527:                                         ; preds = %entry
  call void @_ZNSaIcEC1Ev(ptr noundef nonnull align 1 dereferenceable(1) %ref.tmp528) #3
  invoke void @_ZNSt7__cxx1112basic_stringIcSt11char_traitsIcESaIcEEC2IS3_EEPKcRKS3_(ptr noundef nonnull align 8 dereferenceable(32) %agg.result, ptr noundef @.str.210, ptr noundef nonnull align 1 dereferenceable(1) %ref.tmp528)
          to label %invoke.cont530 unwind label %lpad529

invoke.cont530:                                   ; preds = %sw.bb527
  call void @_ZNSaIcED1Ev(ptr noundef nonnull align 1 dereferenceable(1) %ref.tmp528) #3
  br label %return

lpad529:                                          ; preds = %sw.bb527
  %397 = landingpad { ptr, i32 }
          cleanup
  %398 = extractvalue { ptr, i32 } %397, 0
  store ptr %398, ptr %exn.slot, align 8
  %399 = extractvalue { ptr, i32 } %397, 1
  store i32 %399, ptr %ehselector.slot, align 4
  call void @_ZNSaIcED1Ev(ptr noundef nonnull align 1 dereferenceable(1) %ref.tmp528) #3
  br label %eh.resume

sw.bb531:                                         ; preds = %entry
  call void @_ZNSaIcEC1Ev(ptr noundef nonnull align 1 dereferenceable(1) %ref.tmp532) #3
  invoke void @_ZNSt7__cxx1112basic_stringIcSt11char_traitsIcESaIcEEC2IS3_EEPKcRKS3_(ptr noundef nonnull align 8 dereferenceable(32) %agg.result, ptr noundef @.str.211, ptr noundef nonnull align 1 dereferenceable(1) %ref.tmp532)
          to label %invoke.cont534 unwind label %lpad533

invoke.cont534:                                   ; preds = %sw.bb531
  call void @_ZNSaIcED1Ev(ptr noundef nonnull align 1 dereferenceable(1) %ref.tmp532) #3
  br label %return

lpad533:                                          ; preds = %sw.bb531
  %400 = landingpad { ptr, i32 }
          cleanup
  %401 = extractvalue { ptr, i32 } %400, 0
  store ptr %401, ptr %exn.slot, align 8
  %402 = extractvalue { ptr, i32 } %400, 1
  store i32 %402, ptr %ehselector.slot, align 4
  call void @_ZNSaIcED1Ev(ptr noundef nonnull align 1 dereferenceable(1) %ref.tmp532) #3
  br label %eh.resume

sw.bb535:                                         ; preds = %entry
  call void @_ZNSaIcEC1Ev(ptr noundef nonnull align 1 dereferenceable(1) %ref.tmp536) #3
  invoke void @_ZNSt7__cxx1112basic_stringIcSt11char_traitsIcESaIcEEC2IS3_EEPKcRKS3_(ptr noundef nonnull align 8 dereferenceable(32) %agg.result, ptr noundef @.str.212, ptr noundef nonnull align 1 dereferenceable(1) %ref.tmp536)
          to label %invoke.cont538 unwind label %lpad537

invoke.cont538:                                   ; preds = %sw.bb535
  call void @_ZNSaIcED1Ev(ptr noundef nonnull align 1 dereferenceable(1) %ref.tmp536) #3
  br label %return

lpad537:                                          ; preds = %sw.bb535
  %403 = landingpad { ptr, i32 }
          cleanup
  %404 = extractvalue { ptr, i32 } %403, 0
  store ptr %404, ptr %exn.slot, align 8
  %405 = extractvalue { ptr, i32 } %403, 1
  store i32 %405, ptr %ehselector.slot, align 4
  call void @_ZNSaIcED1Ev(ptr noundef nonnull align 1 dereferenceable(1) %ref.tmp536) #3
  br label %eh.resume

sw.bb539:                                         ; preds = %entry
  call void @_ZNSaIcEC1Ev(ptr noundef nonnull align 1 dereferenceable(1) %ref.tmp540) #3
  invoke void @_ZNSt7__cxx1112basic_stringIcSt11char_traitsIcESaIcEEC2IS3_EEPKcRKS3_(ptr noundef nonnull align 8 dereferenceable(32) %agg.result, ptr noundef @.str.213, ptr noundef nonnull align 1 dereferenceable(1) %ref.tmp540)
          to label %invoke.cont542 unwind label %lpad541

invoke.cont542:                                   ; preds = %sw.bb539
  call void @_ZNSaIcED1Ev(ptr noundef nonnull align 1 dereferenceable(1) %ref.tmp540) #3
  br label %return

lpad541:                                          ; preds = %sw.bb539
  %406 = landingpad { ptr, i32 }
          cleanup
  %407 = extractvalue { ptr, i32 } %406, 0
  store ptr %407, ptr %exn.slot, align 8
  %408 = extractvalue { ptr, i32 } %406, 1
  store i32 %408, ptr %ehselector.slot, align 4
  call void @_ZNSaIcED1Ev(ptr noundef nonnull align 1 dereferenceable(1) %ref.tmp540) #3
  br label %eh.resume

sw.bb543:                                         ; preds = %entry
  call void @_ZNSaIcEC1Ev(ptr noundef nonnull align 1 dereferenceable(1) %ref.tmp544) #3
  invoke void @_ZNSt7__cxx1112basic_stringIcSt11char_traitsIcESaIcEEC2IS3_EEPKcRKS3_(ptr noundef nonnull align 8 dereferenceable(32) %agg.result, ptr noundef @.str.214, ptr noundef nonnull align 1 dereferenceable(1) %ref.tmp544)
          to label %invoke.cont546 unwind label %lpad545

invoke.cont546:                                   ; preds = %sw.bb543
  call void @_ZNSaIcED1Ev(ptr noundef nonnull align 1 dereferenceable(1) %ref.tmp544) #3
  br label %return

lpad545:                                          ; preds = %sw.bb543
  %409 = landingpad { ptr, i32 }
          cleanup
  %410 = extractvalue { ptr, i32 } %409, 0
  store ptr %410, ptr %exn.slot, align 8
  %411 = extractvalue { ptr, i32 } %409, 1
  store i32 %411, ptr %ehselector.slot, align 4
  call void @_ZNSaIcED1Ev(ptr noundef nonnull align 1 dereferenceable(1) %ref.tmp544) #3
  br label %eh.resume

sw.bb547:                                         ; preds = %entry
  call void @_ZNSaIcEC1Ev(ptr noundef nonnull align 1 dereferenceable(1) %ref.tmp548) #3
  invoke void @_ZNSt7__cxx1112basic_stringIcSt11char_traitsIcESaIcEEC2IS3_EEPKcRKS3_(ptr noundef nonnull align 8 dereferenceable(32) %agg.result, ptr noundef @.str.215, ptr noundef nonnull align 1 dereferenceable(1) %ref.tmp548)
          to label %invoke.cont550 unwind label %lpad549

invoke.cont550:                                   ; preds = %sw.bb547
  call void @_ZNSaIcED1Ev(ptr noundef nonnull align 1 dereferenceable(1) %ref.tmp548) #3
  br label %return

lpad549:                                          ; preds = %sw.bb547
  %412 = landingpad { ptr, i32 }
          cleanup
  %413 = extractvalue { ptr, i32 } %412, 0
  store ptr %413, ptr %exn.slot, align 8
  %414 = extractvalue { ptr, i32 } %412, 1
  store i32 %414, ptr %ehselector.slot, align 4
  call void @_ZNSaIcED1Ev(ptr noundef nonnull align 1 dereferenceable(1) %ref.tmp548) #3
  br label %eh.resume

sw.bb551:                                         ; preds = %entry
  call void @_ZNSaIcEC1Ev(ptr noundef nonnull align 1 dereferenceable(1) %ref.tmp552) #3
  invoke void @_ZNSt7__cxx1112basic_stringIcSt11char_traitsIcESaIcEEC2IS3_EEPKcRKS3_(ptr noundef nonnull align 8 dereferenceable(32) %agg.result, ptr noundef @.str.216, ptr noundef nonnull align 1 dereferenceable(1) %ref.tmp552)
          to label %invoke.cont554 unwind label %lpad553

invoke.cont554:                                   ; preds = %sw.bb551
  call void @_ZNSaIcED1Ev(ptr noundef nonnull align 1 dereferenceable(1) %ref.tmp552) #3
  br label %return

lpad553:                                          ; preds = %sw.bb551
  %415 = landingpad { ptr, i32 }
          cleanup
  %416 = extractvalue { ptr, i32 } %415, 0
  store ptr %416, ptr %exn.slot, align 8
  %417 = extractvalue { ptr, i32 } %415, 1
  store i32 %417, ptr %ehselector.slot, align 4
  call void @_ZNSaIcED1Ev(ptr noundef nonnull align 1 dereferenceable(1) %ref.tmp552) #3
  br label %eh.resume

sw.bb555:                                         ; preds = %entry
  call void @_ZNSaIcEC1Ev(ptr noundef nonnull align 1 dereferenceable(1) %ref.tmp556) #3
  invoke void @_ZNSt7__cxx1112basic_stringIcSt11char_traitsIcESaIcEEC2IS3_EEPKcRKS3_(ptr noundef nonnull align 8 dereferenceable(32) %agg.result, ptr noundef @.str.217, ptr noundef nonnull align 1 dereferenceable(1) %ref.tmp556)
          to label %invoke.cont558 unwind label %lpad557

invoke.cont558:                                   ; preds = %sw.bb555
  call void @_ZNSaIcED1Ev(ptr noundef nonnull align 1 dereferenceable(1) %ref.tmp556) #3
  br label %return

lpad557:                                          ; preds = %sw.bb555
  %418 = landingpad { ptr, i32 }
          cleanup
  %419 = extractvalue { ptr, i32 } %418, 0
  store ptr %419, ptr %exn.slot, align 8
  %420 = extractvalue { ptr, i32 } %418, 1
  store i32 %420, ptr %ehselector.slot, align 4
  call void @_ZNSaIcED1Ev(ptr noundef nonnull align 1 dereferenceable(1) %ref.tmp556) #3
  br label %eh.resume

sw.bb559:                                         ; preds = %entry
  call void @_ZNSaIcEC1Ev(ptr noundef nonnull align 1 dereferenceable(1) %ref.tmp560) #3
  invoke void @_ZNSt7__cxx1112basic_stringIcSt11char_traitsIcESaIcEEC2IS3_EEPKcRKS3_(ptr noundef nonnull align 8 dereferenceable(32) %agg.result, ptr noundef @.str.218, ptr noundef nonnull align 1 dereferenceable(1) %ref.tmp560)
          to label %invoke.cont562 unwind label %lpad561

invoke.cont562:                                   ; preds = %sw.bb559
  call void @_ZNSaIcED1Ev(ptr noundef nonnull align 1 dereferenceable(1) %ref.tmp560) #3
  br label %return

lpad561:                                          ; preds = %sw.bb559
  %421 = landingpad { ptr, i32 }
          cleanup
  %422 = extractvalue { ptr, i32 } %421, 0
  store ptr %422, ptr %exn.slot, align 8
  %423 = extractvalue { ptr, i32 } %421, 1
  store i32 %423, ptr %ehselector.slot, align 4
  call void @_ZNSaIcED1Ev(ptr noundef nonnull align 1 dereferenceable(1) %ref.tmp560) #3
  br label %eh.resume

sw.bb563:                                         ; preds = %entry
  call void @_ZNSaIcEC1Ev(ptr noundef nonnull align 1 dereferenceable(1) %ref.tmp564) #3
  invoke void @_ZNSt7__cxx1112basic_stringIcSt11char_traitsIcESaIcEEC2IS3_EEPKcRKS3_(ptr noundef nonnull align 8 dereferenceable(32) %agg.result, ptr noundef @.str.219, ptr noundef nonnull align 1 dereferenceable(1) %ref.tmp564)
          to label %invoke.cont566 unwind label %lpad565

invoke.cont566:                                   ; preds = %sw.bb563
  call void @_ZNSaIcED1Ev(ptr noundef nonnull align 1 dereferenceable(1) %ref.tmp564) #3
  br label %return

lpad565:                                          ; preds = %sw.bb563
  %424 = landingpad { ptr, i32 }
          cleanup
  %425 = extractvalue { ptr, i32 } %424, 0
  store ptr %425, ptr %exn.slot, align 8
  %426 = extractvalue { ptr, i32 } %424, 1
  store i32 %426, ptr %ehselector.slot, align 4
  call void @_ZNSaIcED1Ev(ptr noundef nonnull align 1 dereferenceable(1) %ref.tmp564) #3
  br label %eh.resume

sw.bb567:                                         ; preds = %entry
  call void @_ZNSaIcEC1Ev(ptr noundef nonnull align 1 dereferenceable(1) %ref.tmp568) #3
  invoke void @_ZNSt7__cxx1112basic_stringIcSt11char_traitsIcESaIcEEC2IS3_EEPKcRKS3_(ptr noundef nonnull align 8 dereferenceable(32) %agg.result, ptr noundef @.str.220, ptr noundef nonnull align 1 dereferenceable(1) %ref.tmp568)
          to label %invoke.cont570 unwind label %lpad569

invoke.cont570:                                   ; preds = %sw.bb567
  call void @_ZNSaIcED1Ev(ptr noundef nonnull align 1 dereferenceable(1) %ref.tmp568) #3
  br label %return

lpad569:                                          ; preds = %sw.bb567
  %427 = landingpad { ptr, i32 }
          cleanup
  %428 = extractvalue { ptr, i32 } %427, 0
  store ptr %428, ptr %exn.slot, align 8
  %429 = extractvalue { ptr, i32 } %427, 1
  store i32 %429, ptr %ehselector.slot, align 4
  call void @_ZNSaIcED1Ev(ptr noundef nonnull align 1 dereferenceable(1) %ref.tmp568) #3
  br label %eh.resume

sw.bb571:                                         ; preds = %entry
  call void @_ZNSaIcEC1Ev(ptr noundef nonnull align 1 dereferenceable(1) %ref.tmp572) #3
  invoke void @_ZNSt7__cxx1112basic_stringIcSt11char_traitsIcESaIcEEC2IS3_EEPKcRKS3_(ptr noundef nonnull align 8 dereferenceable(32) %agg.result, ptr noundef @.str.221, ptr noundef nonnull align 1 dereferenceable(1) %ref.tmp572)
          to label %invoke.cont574 unwind label %lpad573

invoke.cont574:                                   ; preds = %sw.bb571
  call void @_ZNSaIcED1Ev(ptr noundef nonnull align 1 dereferenceable(1) %ref.tmp572) #3
  br label %return

lpad573:                                          ; preds = %sw.bb571
  %430 = landingpad { ptr, i32 }
          cleanup
  %431 = extractvalue { ptr, i32 } %430, 0
  store ptr %431, ptr %exn.slot, align 8
  %432 = extractvalue { ptr, i32 } %430, 1
  store i32 %432, ptr %ehselector.slot, align 4
  call void @_ZNSaIcED1Ev(ptr noundef nonnull align 1 dereferenceable(1) %ref.tmp572) #3
  br label %eh.resume

sw.bb575:                                         ; preds = %entry
  call void @_ZNSaIcEC1Ev(ptr noundef nonnull align 1 dereferenceable(1) %ref.tmp576) #3
  invoke void @_ZNSt7__cxx1112basic_stringIcSt11char_traitsIcESaIcEEC2IS3_EEPKcRKS3_(ptr noundef nonnull align 8 dereferenceable(32) %agg.result, ptr noundef @.str.222, ptr noundef nonnull align 1 dereferenceable(1) %ref.tmp576)
          to label %invoke.cont578 unwind label %lpad577

invoke.cont578:                                   ; preds = %sw.bb575
  call void @_ZNSaIcED1Ev(ptr noundef nonnull align 1 dereferenceable(1) %ref.tmp576) #3
  br label %return

lpad577:                                          ; preds = %sw.bb575
  %433 = landingpad { ptr, i32 }
          cleanup
  %434 = extractvalue { ptr, i32 } %433, 0
  store ptr %434, ptr %exn.slot, align 8
  %435 = extractvalue { ptr, i32 } %433, 1
  store i32 %435, ptr %ehselector.slot, align 4
  call void @_ZNSaIcED1Ev(ptr noundef nonnull align 1 dereferenceable(1) %ref.tmp576) #3
  br label %eh.resume

sw.bb579:                                         ; preds = %entry
  call void @_ZNSaIcEC1Ev(ptr noundef nonnull align 1 dereferenceable(1) %ref.tmp580) #3
  invoke void @_ZNSt7__cxx1112basic_stringIcSt11char_traitsIcESaIcEEC2IS3_EEPKcRKS3_(ptr noundef nonnull align 8 dereferenceable(32) %agg.result, ptr noundef @.str.223, ptr noundef nonnull align 1 dereferenceable(1) %ref.tmp580)
          to label %invoke.cont582 unwind label %lpad581

invoke.cont582:                                   ; preds = %sw.bb579
  call void @_ZNSaIcED1Ev(ptr noundef nonnull align 1 dereferenceable(1) %ref.tmp580) #3
  br label %return

lpad581:                                          ; preds = %sw.bb579
  %436 = landingpad { ptr, i32 }
          cleanup
  %437 = extractvalue { ptr, i32 } %436, 0
  store ptr %437, ptr %exn.slot, align 8
  %438 = extractvalue { ptr, i32 } %436, 1
  store i32 %438, ptr %ehselector.slot, align 4
  call void @_ZNSaIcED1Ev(ptr noundef nonnull align 1 dereferenceable(1) %ref.tmp580) #3
  br label %eh.resume

sw.bb583:                                         ; preds = %entry
  call void @_ZNSaIcEC1Ev(ptr noundef nonnull align 1 dereferenceable(1) %ref.tmp584) #3
  invoke void @_ZNSt7__cxx1112basic_stringIcSt11char_traitsIcESaIcEEC2IS3_EEPKcRKS3_(ptr noundef nonnull align 8 dereferenceable(32) %agg.result, ptr noundef @.str.224, ptr noundef nonnull align 1 dereferenceable(1) %ref.tmp584)
          to label %invoke.cont586 unwind label %lpad585

invoke.cont586:                                   ; preds = %sw.bb583
  call void @_ZNSaIcED1Ev(ptr noundef nonnull align 1 dereferenceable(1) %ref.tmp584) #3
  br label %return

lpad585:                                          ; preds = %sw.bb583
  %439 = landingpad { ptr, i32 }
          cleanup
  %440 = extractvalue { ptr, i32 } %439, 0
  store ptr %440, ptr %exn.slot, align 8
  %441 = extractvalue { ptr, i32 } %439, 1
  store i32 %441, ptr %ehselector.slot, align 4
  call void @_ZNSaIcED1Ev(ptr noundef nonnull align 1 dereferenceable(1) %ref.tmp584) #3
  br label %eh.resume

sw.bb587:                                         ; preds = %entry
  call void @_ZNSaIcEC1Ev(ptr noundef nonnull align 1 dereferenceable(1) %ref.tmp588) #3
  invoke void @_ZNSt7__cxx1112basic_stringIcSt11char_traitsIcESaIcEEC2IS3_EEPKcRKS3_(ptr noundef nonnull align 8 dereferenceable(32) %agg.result, ptr noundef @.str.225, ptr noundef nonnull align 1 dereferenceable(1) %ref.tmp588)
          to label %invoke.cont590 unwind label %lpad589

invoke.cont590:                                   ; preds = %sw.bb587
  call void @_ZNSaIcED1Ev(ptr noundef nonnull align 1 dereferenceable(1) %ref.tmp588) #3
  br label %return

lpad589:                                          ; preds = %sw.bb587
  %442 = landingpad { ptr, i32 }
          cleanup
  %443 = extractvalue { ptr, i32 } %442, 0
  store ptr %443, ptr %exn.slot, align 8
  %444 = extractvalue { ptr, i32 } %442, 1
  store i32 %444, ptr %ehselector.slot, align 4
  call void @_ZNSaIcED1Ev(ptr noundef nonnull align 1 dereferenceable(1) %ref.tmp588) #3
  br label %eh.resume

sw.bb591:                                         ; preds = %entry
  call void @_ZNSaIcEC1Ev(ptr noundef nonnull align 1 dereferenceable(1) %ref.tmp592) #3
  invoke void @_ZNSt7__cxx1112basic_stringIcSt11char_traitsIcESaIcEEC2IS3_EEPKcRKS3_(ptr noundef nonnull align 8 dereferenceable(32) %agg.result, ptr noundef @.str.226, ptr noundef nonnull align 1 dereferenceable(1) %ref.tmp592)
          to label %invoke.cont594 unwind label %lpad593

invoke.cont594:                                   ; preds = %sw.bb591
  call void @_ZNSaIcED1Ev(ptr noundef nonnull align 1 dereferenceable(1) %ref.tmp592) #3
  br label %return

lpad593:                                          ; preds = %sw.bb591
  %445 = landingpad { ptr, i32 }
          cleanup
  %446 = extractvalue { ptr, i32 } %445, 0
  store ptr %446, ptr %exn.slot, align 8
  %447 = extractvalue { ptr, i32 } %445, 1
  store i32 %447, ptr %ehselector.slot, align 4
  call void @_ZNSaIcED1Ev(ptr noundef nonnull align 1 dereferenceable(1) %ref.tmp592) #3
  br label %eh.resume

sw.bb595:                                         ; preds = %entry
  call void @_ZNSaIcEC1Ev(ptr noundef nonnull align 1 dereferenceable(1) %ref.tmp596) #3
  invoke void @_ZNSt7__cxx1112basic_stringIcSt11char_traitsIcESaIcEEC2IS3_EEPKcRKS3_(ptr noundef nonnull align 8 dereferenceable(32) %agg.result, ptr noundef @.str.227, ptr noundef nonnull align 1 dereferenceable(1) %ref.tmp596)
          to label %invoke.cont598 unwind label %lpad597

invoke.cont598:                                   ; preds = %sw.bb595
  call void @_ZNSaIcED1Ev(ptr noundef nonnull align 1 dereferenceable(1) %ref.tmp596) #3
  br label %return

lpad597:                                          ; preds = %sw.bb595
  %448 = landingpad { ptr, i32 }
          cleanup
  %449 = extractvalue { ptr, i32 } %448, 0
  store ptr %449, ptr %exn.slot, align 8
  %450 = extractvalue { ptr, i32 } %448, 1
  store i32 %450, ptr %ehselector.slot, align 4
  call void @_ZNSaIcED1Ev(ptr noundef nonnull align 1 dereferenceable(1) %ref.tmp596) #3
  br label %eh.resume

sw.bb599:                                         ; preds = %entry
  call void @_ZNSaIcEC1Ev(ptr noundef nonnull align 1 dereferenceable(1) %ref.tmp600) #3
  invoke void @_ZNSt7__cxx1112basic_stringIcSt11char_traitsIcESaIcEEC2IS3_EEPKcRKS3_(ptr noundef nonnull align 8 dereferenceable(32) %agg.result, ptr noundef @.str.228, ptr noundef nonnull align 1 dereferenceable(1) %ref.tmp600)
          to label %invoke.cont602 unwind label %lpad601

invoke.cont602:                                   ; preds = %sw.bb599
  call void @_ZNSaIcED1Ev(ptr noundef nonnull align 1 dereferenceable(1) %ref.tmp600) #3
  br label %return

lpad601:                                          ; preds = %sw.bb599
  %451 = landingpad { ptr, i32 }
          cleanup
  %452 = extractvalue { ptr, i32 } %451, 0
  store ptr %452, ptr %exn.slot, align 8
  %453 = extractvalue { ptr, i32 } %451, 1
  store i32 %453, ptr %ehselector.slot, align 4
  call void @_ZNSaIcED1Ev(ptr noundef nonnull align 1 dereferenceable(1) %ref.tmp600) #3
  br label %eh.resume

sw.bb603:                                         ; preds = %entry
  call void @_ZNSaIcEC1Ev(ptr noundef nonnull align 1 dereferenceable(1) %ref.tmp604) #3
  invoke void @_ZNSt7__cxx1112basic_stringIcSt11char_traitsIcESaIcEEC2IS3_EEPKcRKS3_(ptr noundef nonnull align 8 dereferenceable(32) %agg.result, ptr noundef @.str.229, ptr noundef nonnull align 1 dereferenceable(1) %ref.tmp604)
          to label %invoke.cont606 unwind label %lpad605

invoke.cont606:                                   ; preds = %sw.bb603
  call void @_ZNSaIcED1Ev(ptr noundef nonnull align 1 dereferenceable(1) %ref.tmp604) #3
  br label %return

lpad605:                                          ; preds = %sw.bb603
  %454 = landingpad { ptr, i32 }
          cleanup
  %455 = extractvalue { ptr, i32 } %454, 0
  store ptr %455, ptr %exn.slot, align 8
  %456 = extractvalue { ptr, i32 } %454, 1
  store i32 %456, ptr %ehselector.slot, align 4
  call void @_ZNSaIcED1Ev(ptr noundef nonnull align 1 dereferenceable(1) %ref.tmp604) #3
  br label %eh.resume

sw.bb607:                                         ; preds = %entry
  call void @_ZNSaIcEC1Ev(ptr noundef nonnull align 1 dereferenceable(1) %ref.tmp608) #3
  invoke void @_ZNSt7__cxx1112basic_stringIcSt11char_traitsIcESaIcEEC2IS3_EEPKcRKS3_(ptr noundef nonnull align 8 dereferenceable(32) %agg.result, ptr noundef @.str.230, ptr noundef nonnull align 1 dereferenceable(1) %ref.tmp608)
          to label %invoke.cont610 unwind label %lpad609

invoke.cont610:                                   ; preds = %sw.bb607
  call void @_ZNSaIcED1Ev(ptr noundef nonnull align 1 dereferenceable(1) %ref.tmp608) #3
  br label %return

lpad609:                                          ; preds = %sw.bb607
  %457 = landingpad { ptr, i32 }
          cleanup
  %458 = extractvalue { ptr, i32 } %457, 0
  store ptr %458, ptr %exn.slot, align 8
  %459 = extractvalue { ptr, i32 } %457, 1
  store i32 %459, ptr %ehselector.slot, align 4
  call void @_ZNSaIcED1Ev(ptr noundef nonnull align 1 dereferenceable(1) %ref.tmp608) #3
  br label %eh.resume

sw.bb611:                                         ; preds = %entry
  call void @_ZNSaIcEC1Ev(ptr noundef nonnull align 1 dereferenceable(1) %ref.tmp612) #3
  invoke void @_ZNSt7__cxx1112basic_stringIcSt11char_traitsIcESaIcEEC2IS3_EEPKcRKS3_(ptr noundef nonnull align 8 dereferenceable(32) %agg.result, ptr noundef @.str.231, ptr noundef nonnull align 1 dereferenceable(1) %ref.tmp612)
          to label %invoke.cont614 unwind label %lpad613

invoke.cont614:                                   ; preds = %sw.bb611
  call void @_ZNSaIcED1Ev(ptr noundef nonnull align 1 dereferenceable(1) %ref.tmp612) #3
  br label %return

lpad613:                                          ; preds = %sw.bb611
  %460 = landingpad { ptr, i32 }
          cleanup
  %461 = extractvalue { ptr, i32 } %460, 0
  store ptr %461, ptr %exn.slot, align 8
  %462 = extractvalue { ptr, i32 } %460, 1
  store i32 %462, ptr %ehselector.slot, align 4
  call void @_ZNSaIcED1Ev(ptr noundef nonnull align 1 dereferenceable(1) %ref.tmp612) #3
  br label %eh.resume

sw.bb615:                                         ; preds = %entry
  call void @_ZNSaIcEC1Ev(ptr noundef nonnull align 1 dereferenceable(1) %ref.tmp616) #3
  invoke void @_ZNSt7__cxx1112basic_stringIcSt11char_traitsIcESaIcEEC2IS3_EEPKcRKS3_(ptr noundef nonnull align 8 dereferenceable(32) %agg.result, ptr noundef @.str.232, ptr noundef nonnull align 1 dereferenceable(1) %ref.tmp616)
          to label %invoke.cont618 unwind label %lpad617

invoke.cont618:                                   ; preds = %sw.bb615
  call void @_ZNSaIcED1Ev(ptr noundef nonnull align 1 dereferenceable(1) %ref.tmp616) #3
  br label %return

lpad617:                                          ; preds = %sw.bb615
  %463 = landingpad { ptr, i32 }
          cleanup
  %464 = extractvalue { ptr, i32 } %463, 0
  store ptr %464, ptr %exn.slot, align 8
  %465 = extractvalue { ptr, i32 } %463, 1
  store i32 %465, ptr %ehselector.slot, align 4
  call void @_ZNSaIcED1Ev(ptr noundef nonnull align 1 dereferenceable(1) %ref.tmp616) #3
  br label %eh.resume

sw.bb619:                                         ; preds = %entry
  call void @_ZNSaIcEC1Ev(ptr noundef nonnull align 1 dereferenceable(1) %ref.tmp620) #3
  invoke void @_ZNSt7__cxx1112basic_stringIcSt11char_traitsIcESaIcEEC2IS3_EEPKcRKS3_(ptr noundef nonnull align 8 dereferenceable(32) %agg.result, ptr noundef @.str.233, ptr noundef nonnull align 1 dereferenceable(1) %ref.tmp620)
          to label %invoke.cont622 unwind label %lpad621

invoke.cont622:                                   ; preds = %sw.bb619
  call void @_ZNSaIcED1Ev(ptr noundef nonnull align 1 dereferenceable(1) %ref.tmp620) #3
  br label %return

lpad621:                                          ; preds = %sw.bb619
  %466 = landingpad { ptr, i32 }
          cleanup
  %467 = extractvalue { ptr, i32 } %466, 0
  store ptr %467, ptr %exn.slot, align 8
  %468 = extractvalue { ptr, i32 } %466, 1
  store i32 %468, ptr %ehselector.slot, align 4
  call void @_ZNSaIcED1Ev(ptr noundef nonnull align 1 dereferenceable(1) %ref.tmp620) #3
  br label %eh.resume

sw.bb623:                                         ; preds = %entry
  call void @_ZNSaIcEC1Ev(ptr noundef nonnull align 1 dereferenceable(1) %ref.tmp624) #3
  invoke void @_ZNSt7__cxx1112basic_stringIcSt11char_traitsIcESaIcEEC2IS3_EEPKcRKS3_(ptr noundef nonnull align 8 dereferenceable(32) %agg.result, ptr noundef @.str.234, ptr noundef nonnull align 1 dereferenceable(1) %ref.tmp624)
          to label %invoke.cont626 unwind label %lpad625

invoke.cont626:                                   ; preds = %sw.bb623
  call void @_ZNSaIcED1Ev(ptr noundef nonnull align 1 dereferenceable(1) %ref.tmp624) #3
  br label %return

lpad625:                                          ; preds = %sw.bb623
  %469 = landingpad { ptr, i32 }
          cleanup
  %470 = extractvalue { ptr, i32 } %469, 0
  store ptr %470, ptr %exn.slot, align 8
  %471 = extractvalue { ptr, i32 } %469, 1
  store i32 %471, ptr %ehselector.slot, align 4
  call void @_ZNSaIcED1Ev(ptr noundef nonnull align 1 dereferenceable(1) %ref.tmp624) #3
  br label %eh.resume

sw.bb627:                                         ; preds = %entry
  call void @_ZNSaIcEC1Ev(ptr noundef nonnull align 1 dereferenceable(1) %ref.tmp628) #3
  invoke void @_ZNSt7__cxx1112basic_stringIcSt11char_traitsIcESaIcEEC2IS3_EEPKcRKS3_(ptr noundef nonnull align 8 dereferenceable(32) %agg.result, ptr noundef @.str.235, ptr noundef nonnull align 1 dereferenceable(1) %ref.tmp628)
          to label %invoke.cont630 unwind label %lpad629

invoke.cont630:                                   ; preds = %sw.bb627
  call void @_ZNSaIcED1Ev(ptr noundef nonnull align 1 dereferenceable(1) %ref.tmp628) #3
  br label %return

lpad629:                                          ; preds = %sw.bb627
  %472 = landingpad { ptr, i32 }
          cleanup
  %473 = extractvalue { ptr, i32 } %472, 0
  store ptr %473, ptr %exn.slot, align 8
  %474 = extractvalue { ptr, i32 } %472, 1
  store i32 %474, ptr %ehselector.slot, align 4
  call void @_ZNSaIcED1Ev(ptr noundef nonnull align 1 dereferenceable(1) %ref.tmp628) #3
  br label %eh.resume

sw.bb631:                                         ; preds = %entry
  call void @_ZNSaIcEC1Ev(ptr noundef nonnull align 1 dereferenceable(1) %ref.tmp632) #3
  invoke void @_ZNSt7__cxx1112basic_stringIcSt11char_traitsIcESaIcEEC2IS3_EEPKcRKS3_(ptr noundef nonnull align 8 dereferenceable(32) %agg.result, ptr noundef @.str.236, ptr noundef nonnull align 1 dereferenceable(1) %ref.tmp632)
          to label %invoke.cont634 unwind label %lpad633

invoke.cont634:                                   ; preds = %sw.bb631
  call void @_ZNSaIcED1Ev(ptr noundef nonnull align 1 dereferenceable(1) %ref.tmp632) #3
  br label %return

lpad633:                                          ; preds = %sw.bb631
  %475 = landingpad { ptr, i32 }
          cleanup
  %476 = extractvalue { ptr, i32 } %475, 0
  store ptr %476, ptr %exn.slot, align 8
  %477 = extractvalue { ptr, i32 } %475, 1
  store i32 %477, ptr %ehselector.slot, align 4
  call void @_ZNSaIcED1Ev(ptr noundef nonnull align 1 dereferenceable(1) %ref.tmp632) #3
  br label %eh.resume

sw.bb635:                                         ; preds = %entry
  call void @_ZNSaIcEC1Ev(ptr noundef nonnull align 1 dereferenceable(1) %ref.tmp636) #3
  invoke void @_ZNSt7__cxx1112basic_stringIcSt11char_traitsIcESaIcEEC2IS3_EEPKcRKS3_(ptr noundef nonnull align 8 dereferenceable(32) %agg.result, ptr noundef @.str.237, ptr noundef nonnull align 1 dereferenceable(1) %ref.tmp636)
          to label %invoke.cont638 unwind label %lpad637

invoke.cont638:                                   ; preds = %sw.bb635
  call void @_ZNSaIcED1Ev(ptr noundef nonnull align 1 dereferenceable(1) %ref.tmp636) #3
  br label %return

lpad637:                                          ; preds = %sw.bb635
  %478 = landingpad { ptr, i32 }
          cleanup
  %479 = extractvalue { ptr, i32 } %478, 0
  store ptr %479, ptr %exn.slot, align 8
  %480 = extractvalue { ptr, i32 } %478, 1
  store i32 %480, ptr %ehselector.slot, align 4
  call void @_ZNSaIcED1Ev(ptr noundef nonnull align 1 dereferenceable(1) %ref.tmp636) #3
  br label %eh.resume

sw.bb639:                                         ; preds = %entry
  call void @_ZNSaIcEC1Ev(ptr noundef nonnull align 1 dereferenceable(1) %ref.tmp640) #3
  invoke void @_ZNSt7__cxx1112basic_stringIcSt11char_traitsIcESaIcEEC2IS3_EEPKcRKS3_(ptr noundef nonnull align 8 dereferenceable(32) %agg.result, ptr noundef @.str.238, ptr noundef nonnull align 1 dereferenceable(1) %ref.tmp640)
          to label %invoke.cont642 unwind label %lpad641

invoke.cont642:                                   ; preds = %sw.bb639
  call void @_ZNSaIcED1Ev(ptr noundef nonnull align 1 dereferenceable(1) %ref.tmp640) #3
  br label %return

lpad641:                                          ; preds = %sw.bb639
  %481 = landingpad { ptr, i32 }
          cleanup
  %482 = extractvalue { ptr, i32 } %481, 0
  store ptr %482, ptr %exn.slot, align 8
  %483 = extractvalue { ptr, i32 } %481, 1
  store i32 %483, ptr %ehselector.slot, align 4
  call void @_ZNSaIcED1Ev(ptr noundef nonnull align 1 dereferenceable(1) %ref.tmp640) #3
  br label %eh.resume

sw.bb643:                                         ; preds = %entry
  call void @_ZNSaIcEC1Ev(ptr noundef nonnull align 1 dereferenceable(1) %ref.tmp644) #3
  invoke void @_ZNSt7__cxx1112basic_stringIcSt11char_traitsIcESaIcEEC2IS3_EEPKcRKS3_(ptr noundef nonnull align 8 dereferenceable(32) %agg.result, ptr noundef @.str.239, ptr noundef nonnull align 1 dereferenceable(1) %ref.tmp644)
          to label %invoke.cont646 unwind label %lpad645

invoke.cont646:                                   ; preds = %sw.bb643
  call void @_ZNSaIcED1Ev(ptr noundef nonnull align 1 dereferenceable(1) %ref.tmp644) #3
  br label %return

lpad645:                                          ; preds = %sw.bb643
  %484 = landingpad { ptr, i32 }
          cleanup
  %485 = extractvalue { ptr, i32 } %484, 0
  store ptr %485, ptr %exn.slot, align 8
  %486 = extractvalue { ptr, i32 } %484, 1
  store i32 %486, ptr %ehselector.slot, align 4
  call void @_ZNSaIcED1Ev(ptr noundef nonnull align 1 dereferenceable(1) %ref.tmp644) #3
  br label %eh.resume

sw.bb647:                                         ; preds = %entry
  call void @_ZNSaIcEC1Ev(ptr noundef nonnull align 1 dereferenceable(1) %ref.tmp648) #3
  invoke void @_ZNSt7__cxx1112basic_stringIcSt11char_traitsIcESaIcEEC2IS3_EEPKcRKS3_(ptr noundef nonnull align 8 dereferenceable(32) %agg.result, ptr noundef @.str.240, ptr noundef nonnull align 1 dereferenceable(1) %ref.tmp648)
          to label %invoke.cont650 unwind label %lpad649

invoke.cont650:                                   ; preds = %sw.bb647
  call void @_ZNSaIcED1Ev(ptr noundef nonnull align 1 dereferenceable(1) %ref.tmp648) #3
  br label %return

lpad649:                                          ; preds = %sw.bb647
  %487 = landingpad { ptr, i32 }
          cleanup
  %488 = extractvalue { ptr, i32 } %487, 0
  store ptr %488, ptr %exn.slot, align 8
  %489 = extractvalue { ptr, i32 } %487, 1
  store i32 %489, ptr %ehselector.slot, align 4
  call void @_ZNSaIcED1Ev(ptr noundef nonnull align 1 dereferenceable(1) %ref.tmp648) #3
  br label %eh.resume

sw.bb651:                                         ; preds = %entry
  call void @_ZNSaIcEC1Ev(ptr noundef nonnull align 1 dereferenceable(1) %ref.tmp652) #3
  invoke void @_ZNSt7__cxx1112basic_stringIcSt11char_traitsIcESaIcEEC2IS3_EEPKcRKS3_(ptr noundef nonnull align 8 dereferenceable(32) %agg.result, ptr noundef @.str.241, ptr noundef nonnull align 1 dereferenceable(1) %ref.tmp652)
          to label %invoke.cont654 unwind label %lpad653

invoke.cont654:                                   ; preds = %sw.bb651
  call void @_ZNSaIcED1Ev(ptr noundef nonnull align 1 dereferenceable(1) %ref.tmp652) #3
  br label %return

lpad653:                                          ; preds = %sw.bb651
  %490 = landingpad { ptr, i32 }
          cleanup
  %491 = extractvalue { ptr, i32 } %490, 0
  store ptr %491, ptr %exn.slot, align 8
  %492 = extractvalue { ptr, i32 } %490, 1
  store i32 %492, ptr %ehselector.slot, align 4
  call void @_ZNSaIcED1Ev(ptr noundef nonnull align 1 dereferenceable(1) %ref.tmp652) #3
  br label %eh.resume

sw.bb655:                                         ; preds = %entry
  call void @_ZNSaIcEC1Ev(ptr noundef nonnull align 1 dereferenceable(1) %ref.tmp656) #3
  invoke void @_ZNSt7__cxx1112basic_stringIcSt11char_traitsIcESaIcEEC2IS3_EEPKcRKS3_(ptr noundef nonnull align 8 dereferenceable(32) %agg.result, ptr noundef @.str.242, ptr noundef nonnull align 1 dereferenceable(1) %ref.tmp656)
          to label %invoke.cont658 unwind label %lpad657

invoke.cont658:                                   ; preds = %sw.bb655
  call void @_ZNSaIcED1Ev(ptr noundef nonnull align 1 dereferenceable(1) %ref.tmp656) #3
  br label %return

lpad657:                                          ; preds = %sw.bb655
  %493 = landingpad { ptr, i32 }
          cleanup
  %494 = extractvalue { ptr, i32 } %493, 0
  store ptr %494, ptr %exn.slot, align 8
  %495 = extractvalue { ptr, i32 } %493, 1
  store i32 %495, ptr %ehselector.slot, align 4
  call void @_ZNSaIcED1Ev(ptr noundef nonnull align 1 dereferenceable(1) %ref.tmp656) #3
  br label %eh.resume

sw.bb659:                                         ; preds = %entry
  call void @_ZNSaIcEC1Ev(ptr noundef nonnull align 1 dereferenceable(1) %ref.tmp660) #3
  invoke void @_ZNSt7__cxx1112basic_stringIcSt11char_traitsIcESaIcEEC2IS3_EEPKcRKS3_(ptr noundef nonnull align 8 dereferenceable(32) %agg.result, ptr noundef @.str.243, ptr noundef nonnull align 1 dereferenceable(1) %ref.tmp660)
          to label %invoke.cont662 unwind label %lpad661

invoke.cont662:                                   ; preds = %sw.bb659
  call void @_ZNSaIcED1Ev(ptr noundef nonnull align 1 dereferenceable(1) %ref.tmp660) #3
  br label %return

lpad661:                                          ; preds = %sw.bb659
  %496 = landingpad { ptr, i32 }
          cleanup
  %497 = extractvalue { ptr, i32 } %496, 0
  store ptr %497, ptr %exn.slot, align 8
  %498 = extractvalue { ptr, i32 } %496, 1
  store i32 %498, ptr %ehselector.slot, align 4
  call void @_ZNSaIcED1Ev(ptr noundef nonnull align 1 dereferenceable(1) %ref.tmp660) #3
  br label %eh.resume

sw.bb663:                                         ; preds = %entry
  call void @_ZNSaIcEC1Ev(ptr noundef nonnull align 1 dereferenceable(1) %ref.tmp664) #3
  invoke void @_ZNSt7__cxx1112basic_stringIcSt11char_traitsIcESaIcEEC2IS3_EEPKcRKS3_(ptr noundef nonnull align 8 dereferenceable(32) %agg.result, ptr noundef @.str.244, ptr noundef nonnull align 1 dereferenceable(1) %ref.tmp664)
          to label %invoke.cont666 unwind label %lpad665

invoke.cont666:                                   ; preds = %sw.bb663
  call void @_ZNSaIcED1Ev(ptr noundef nonnull align 1 dereferenceable(1) %ref.tmp664) #3
  br label %return

lpad665:                                          ; preds = %sw.bb663
  %499 = landingpad { ptr, i32 }
          cleanup
  %500 = extractvalue { ptr, i32 } %499, 0
  store ptr %500, ptr %exn.slot, align 8
  %501 = extractvalue { ptr, i32 } %499, 1
  store i32 %501, ptr %ehselector.slot, align 4
  call void @_ZNSaIcED1Ev(ptr noundef nonnull align 1 dereferenceable(1) %ref.tmp664) #3
  br label %eh.resume

sw.bb667:                                         ; preds = %entry
  call void @_ZNSaIcEC1Ev(ptr noundef nonnull align 1 dereferenceable(1) %ref.tmp668) #3
  invoke void @_ZNSt7__cxx1112basic_stringIcSt11char_traitsIcESaIcEEC2IS3_EEPKcRKS3_(ptr noundef nonnull align 8 dereferenceable(32) %agg.result, ptr noundef @.str.245, ptr noundef nonnull align 1 dereferenceable(1) %ref.tmp668)
          to label %invoke.cont670 unwind label %lpad669

invoke.cont670:                                   ; preds = %sw.bb667
  call void @_ZNSaIcED1Ev(ptr noundef nonnull align 1 dereferenceable(1) %ref.tmp668) #3
  br label %return

lpad669:                                          ; preds = %sw.bb667
  %502 = landingpad { ptr, i32 }
          cleanup
  %503 = extractvalue { ptr, i32 } %502, 0
  store ptr %503, ptr %exn.slot, align 8
  %504 = extractvalue { ptr, i32 } %502, 1
  store i32 %504, ptr %ehselector.slot, align 4
  call void @_ZNSaIcED1Ev(ptr noundef nonnull align 1 dereferenceable(1) %ref.tmp668) #3
  br label %eh.resume

sw.bb671:                                         ; preds = %entry
  call void @_ZNSaIcEC1Ev(ptr noundef nonnull align 1 dereferenceable(1) %ref.tmp672) #3
  invoke void @_ZNSt7__cxx1112basic_stringIcSt11char_traitsIcESaIcEEC2IS3_EEPKcRKS3_(ptr noundef nonnull align 8 dereferenceable(32) %agg.result, ptr noundef @.str.246, ptr noundef nonnull align 1 dereferenceable(1) %ref.tmp672)
          to label %invoke.cont674 unwind label %lpad673

invoke.cont674:                                   ; preds = %sw.bb671
  call void @_ZNSaIcED1Ev(ptr noundef nonnull align 1 dereferenceable(1) %ref.tmp672) #3
  br label %return

lpad673:                                          ; preds = %sw.bb671
  %505 = landingpad { ptr, i32 }
          cleanup
  %506 = extractvalue { ptr, i32 } %505, 0
  store ptr %506, ptr %exn.slot, align 8
  %507 = extractvalue { ptr, i32 } %505, 1
  store i32 %507, ptr %ehselector.slot, align 4
  call void @_ZNSaIcED1Ev(ptr noundef nonnull align 1 dereferenceable(1) %ref.tmp672) #3
  br label %eh.resume

sw.bb675:                                         ; preds = %entry
  call void @_ZNSaIcEC1Ev(ptr noundef nonnull align 1 dereferenceable(1) %ref.tmp676) #3
  invoke void @_ZNSt7__cxx1112basic_stringIcSt11char_traitsIcESaIcEEC2IS3_EEPKcRKS3_(ptr noundef nonnull align 8 dereferenceable(32) %agg.result, ptr noundef @.str.247, ptr noundef nonnull align 1 dereferenceable(1) %ref.tmp676)
          to label %invoke.cont678 unwind label %lpad677

invoke.cont678:                                   ; preds = %sw.bb675
  call void @_ZNSaIcED1Ev(ptr noundef nonnull align 1 dereferenceable(1) %ref.tmp676) #3
  br label %return

lpad677:                                          ; preds = %sw.bb675
  %508 = landingpad { ptr, i32 }
          cleanup
  %509 = extractvalue { ptr, i32 } %508, 0
  store ptr %509, ptr %exn.slot, align 8
  %510 = extractvalue { ptr, i32 } %508, 1
  store i32 %510, ptr %ehselector.slot, align 4
  call void @_ZNSaIcED1Ev(ptr noundef nonnull align 1 dereferenceable(1) %ref.tmp676) #3
  br label %eh.resume

sw.bb679:                                         ; preds = %entry
  call void @_ZNSaIcEC1Ev(ptr noundef nonnull align 1 dereferenceable(1) %ref.tmp680) #3
  invoke void @_ZNSt7__cxx1112basic_stringIcSt11char_traitsIcESaIcEEC2IS3_EEPKcRKS3_(ptr noundef nonnull align 8 dereferenceable(32) %agg.result, ptr noundef @.str.248, ptr noundef nonnull align 1 dereferenceable(1) %ref.tmp680)
          to label %invoke.cont682 unwind label %lpad681

invoke.cont682:                                   ; preds = %sw.bb679
  call void @_ZNSaIcED1Ev(ptr noundef nonnull align 1 dereferenceable(1) %ref.tmp680) #3
  br label %return

lpad681:                                          ; preds = %sw.bb679
  %511 = landingpad { ptr, i32 }
          cleanup
  %512 = extractvalue { ptr, i32 } %511, 0
  store ptr %512, ptr %exn.slot, align 8
  %513 = extractvalue { ptr, i32 } %511, 1
  store i32 %513, ptr %ehselector.slot, align 4
  call void @_ZNSaIcED1Ev(ptr noundef nonnull align 1 dereferenceable(1) %ref.tmp680) #3
  br label %eh.resume

sw.bb683:                                         ; preds = %entry
  call void @_ZNSaIcEC1Ev(ptr noundef nonnull align 1 dereferenceable(1) %ref.tmp684) #3
  invoke void @_ZNSt7__cxx1112basic_stringIcSt11char_traitsIcESaIcEEC2IS3_EEPKcRKS3_(ptr noundef nonnull align 8 dereferenceable(32) %agg.result, ptr noundef @.str.249, ptr noundef nonnull align 1 dereferenceable(1) %ref.tmp684)
          to label %invoke.cont686 unwind label %lpad685

invoke.cont686:                                   ; preds = %sw.bb683
  call void @_ZNSaIcED1Ev(ptr noundef nonnull align 1 dereferenceable(1) %ref.tmp684) #3
  br label %return

lpad685:                                          ; preds = %sw.bb683
  %514 = landingpad { ptr, i32 }
          cleanup
  %515 = extractvalue { ptr, i32 } %514, 0
  store ptr %515, ptr %exn.slot, align 8
  %516 = extractvalue { ptr, i32 } %514, 1
  store i32 %516, ptr %ehselector.slot, align 4
  call void @_ZNSaIcED1Ev(ptr noundef nonnull align 1 dereferenceable(1) %ref.tmp684) #3
  br label %eh.resume

sw.bb687:                                         ; preds = %entry
  call void @_ZNSaIcEC1Ev(ptr noundef nonnull align 1 dereferenceable(1) %ref.tmp688) #3
  invoke void @_ZNSt7__cxx1112basic_stringIcSt11char_traitsIcESaIcEEC2IS3_EEPKcRKS3_(ptr noundef nonnull align 8 dereferenceable(32) %agg.result, ptr noundef @.str.250, ptr noundef nonnull align 1 dereferenceable(1) %ref.tmp688)
          to label %invoke.cont690 unwind label %lpad689

invoke.cont690:                                   ; preds = %sw.bb687
  call void @_ZNSaIcED1Ev(ptr noundef nonnull align 1 dereferenceable(1) %ref.tmp688) #3
  br label %return

lpad689:                                          ; preds = %sw.bb687
  %517 = landingpad { ptr, i32 }
          cleanup
  %518 = extractvalue { ptr, i32 } %517, 0
  store ptr %518, ptr %exn.slot, align 8
  %519 = extractvalue { ptr, i32 } %517, 1
  store i32 %519, ptr %ehselector.slot, align 4
  call void @_ZNSaIcED1Ev(ptr noundef nonnull align 1 dereferenceable(1) %ref.tmp688) #3
  br label %eh.resume

sw.bb691:                                         ; preds = %entry
  call void @_ZNSaIcEC1Ev(ptr noundef nonnull align 1 dereferenceable(1) %ref.tmp692) #3
  invoke void @_ZNSt7__cxx1112basic_stringIcSt11char_traitsIcESaIcEEC2IS3_EEPKcRKS3_(ptr noundef nonnull align 8 dereferenceable(32) %agg.result, ptr noundef @.str.251, ptr noundef nonnull align 1 dereferenceable(1) %ref.tmp692)
          to label %invoke.cont694 unwind label %lpad693

invoke.cont694:                                   ; preds = %sw.bb691
  call void @_ZNSaIcED1Ev(ptr noundef nonnull align 1 dereferenceable(1) %ref.tmp692) #3
  br label %return

lpad693:                                          ; preds = %sw.bb691
  %520 = landingpad { ptr, i32 }
          cleanup
  %521 = extractvalue { ptr, i32 } %520, 0
  store ptr %521, ptr %exn.slot, align 8
  %522 = extractvalue { ptr, i32 } %520, 1
  store i32 %522, ptr %ehselector.slot, align 4
  call void @_ZNSaIcED1Ev(ptr noundef nonnull align 1 dereferenceable(1) %ref.tmp692) #3
  br label %eh.resume

sw.bb695:                                         ; preds = %entry
  call void @_ZNSaIcEC1Ev(ptr noundef nonnull align 1 dereferenceable(1) %ref.tmp696) #3
  invoke void @_ZNSt7__cxx1112basic_stringIcSt11char_traitsIcESaIcEEC2IS3_EEPKcRKS3_(ptr noundef nonnull align 8 dereferenceable(32) %agg.result, ptr noundef @.str.252, ptr noundef nonnull align 1 dereferenceable(1) %ref.tmp696)
          to label %invoke.cont698 unwind label %lpad697

invoke.cont698:                                   ; preds = %sw.bb695
  call void @_ZNSaIcED1Ev(ptr noundef nonnull align 1 dereferenceable(1) %ref.tmp696) #3
  br label %return

lpad697:                                          ; preds = %sw.bb695
  %523 = landingpad { ptr, i32 }
          cleanup
  %524 = extractvalue { ptr, i32 } %523, 0
  store ptr %524, ptr %exn.slot, align 8
  %525 = extractvalue { ptr, i32 } %523, 1
  store i32 %525, ptr %ehselector.slot, align 4
  call void @_ZNSaIcED1Ev(ptr noundef nonnull align 1 dereferenceable(1) %ref.tmp696) #3
  br label %eh.resume

sw.bb699:                                         ; preds = %entry
  call void @_ZNSaIcEC1Ev(ptr noundef nonnull align 1 dereferenceable(1) %ref.tmp700) #3
  invoke void @_ZNSt7__cxx1112basic_stringIcSt11char_traitsIcESaIcEEC2IS3_EEPKcRKS3_(ptr noundef nonnull align 8 dereferenceable(32) %agg.result, ptr noundef @.str.253, ptr noundef nonnull align 1 dereferenceable(1) %ref.tmp700)
          to label %invoke.cont702 unwind label %lpad701

invoke.cont702:                                   ; preds = %sw.bb699
  call void @_ZNSaIcED1Ev(ptr noundef nonnull align 1 dereferenceable(1) %ref.tmp700) #3
  br label %return

lpad701:                                          ; preds = %sw.bb699
  %526 = landingpad { ptr, i32 }
          cleanup
  %527 = extractvalue { ptr, i32 } %526, 0
  store ptr %527, ptr %exn.slot, align 8
  %528 = extractvalue { ptr, i32 } %526, 1
  store i32 %528, ptr %ehselector.slot, align 4
  call void @_ZNSaIcED1Ev(ptr noundef nonnull align 1 dereferenceable(1) %ref.tmp700) #3
  br label %eh.resume

sw.bb703:                                         ; preds = %entry
  call void @_ZNSaIcEC1Ev(ptr noundef nonnull align 1 dereferenceable(1) %ref.tmp704) #3
  invoke void @_ZNSt7__cxx1112basic_stringIcSt11char_traitsIcESaIcEEC2IS3_EEPKcRKS3_(ptr noundef nonnull align 8 dereferenceable(32) %agg.result, ptr noundef @.str.254, ptr noundef nonnull align 1 dereferenceable(1) %ref.tmp704)
          to label %invoke.cont706 unwind label %lpad705

invoke.cont706:                                   ; preds = %sw.bb703
  call void @_ZNSaIcED1Ev(ptr noundef nonnull align 1 dereferenceable(1) %ref.tmp704) #3
  br label %return

lpad705:                                          ; preds = %sw.bb703
  %529 = landingpad { ptr, i32 }
          cleanup
  %530 = extractvalue { ptr, i32 } %529, 0
  store ptr %530, ptr %exn.slot, align 8
  %531 = extractvalue { ptr, i32 } %529, 1
  store i32 %531, ptr %ehselector.slot, align 4
  call void @_ZNSaIcED1Ev(ptr noundef nonnull align 1 dereferenceable(1) %ref.tmp704) #3
  br label %eh.resume

sw.bb707:                                         ; preds = %entry
  call void @_ZNSaIcEC1Ev(ptr noundef nonnull align 1 dereferenceable(1) %ref.tmp708) #3
  invoke void @_ZNSt7__cxx1112basic_stringIcSt11char_traitsIcESaIcEEC2IS3_EEPKcRKS3_(ptr noundef nonnull align 8 dereferenceable(32) %agg.result, ptr noundef @.str.255, ptr noundef nonnull align 1 dereferenceable(1) %ref.tmp708)
          to label %invoke.cont710 unwind label %lpad709

invoke.cont710:                                   ; preds = %sw.bb707
  call void @_ZNSaIcED1Ev(ptr noundef nonnull align 1 dereferenceable(1) %ref.tmp708) #3
  br label %return

lpad709:                                          ; preds = %sw.bb707
  %532 = landingpad { ptr, i32 }
          cleanup
  %533 = extractvalue { ptr, i32 } %532, 0
  store ptr %533, ptr %exn.slot, align 8
  %534 = extractvalue { ptr, i32 } %532, 1
  store i32 %534, ptr %ehselector.slot, align 4
  call void @_ZNSaIcED1Ev(ptr noundef nonnull align 1 dereferenceable(1) %ref.tmp708) #3
  br label %eh.resume

sw.bb711:                                         ; preds = %entry
  call void @_ZNSaIcEC1Ev(ptr noundef nonnull align 1 dereferenceable(1) %ref.tmp712) #3
  invoke void @_ZNSt7__cxx1112basic_stringIcSt11char_traitsIcESaIcEEC2IS3_EEPKcRKS3_(ptr noundef nonnull align 8 dereferenceable(32) %agg.result, ptr noundef @.str.256, ptr noundef nonnull align 1 dereferenceable(1) %ref.tmp712)
          to label %invoke.cont714 unwind label %lpad713

invoke.cont714:                                   ; preds = %sw.bb711
  call void @_ZNSaIcED1Ev(ptr noundef nonnull align 1 dereferenceable(1) %ref.tmp712) #3
  br label %return

lpad713:                                          ; preds = %sw.bb711
  %535 = landingpad { ptr, i32 }
          cleanup
  %536 = extractvalue { ptr, i32 } %535, 0
  store ptr %536, ptr %exn.slot, align 8
  %537 = extractvalue { ptr, i32 } %535, 1
  store i32 %537, ptr %ehselector.slot, align 4
  call void @_ZNSaIcED1Ev(ptr noundef nonnull align 1 dereferenceable(1) %ref.tmp712) #3
  br label %eh.resume

sw.bb715:                                         ; preds = %entry
  call void @_ZNSaIcEC1Ev(ptr noundef nonnull align 1 dereferenceable(1) %ref.tmp716) #3
  invoke void @_ZNSt7__cxx1112basic_stringIcSt11char_traitsIcESaIcEEC2IS3_EEPKcRKS3_(ptr noundef nonnull align 8 dereferenceable(32) %agg.result, ptr noundef @.str.257, ptr noundef nonnull align 1 dereferenceable(1) %ref.tmp716)
          to label %invoke.cont718 unwind label %lpad717

invoke.cont718:                                   ; preds = %sw.bb715
  call void @_ZNSaIcED1Ev(ptr noundef nonnull align 1 dereferenceable(1) %ref.tmp716) #3
  br label %return

lpad717:                                          ; preds = %sw.bb715
  %538 = landingpad { ptr, i32 }
          cleanup
  %539 = extractvalue { ptr, i32 } %538, 0
  store ptr %539, ptr %exn.slot, align 8
  %540 = extractvalue { ptr, i32 } %538, 1
  store i32 %540, ptr %ehselector.slot, align 4
  call void @_ZNSaIcED1Ev(ptr noundef nonnull align 1 dereferenceable(1) %ref.tmp716) #3
  br label %eh.resume

sw.bb719:                                         ; preds = %entry
  call void @_ZNSaIcEC1Ev(ptr noundef nonnull align 1 dereferenceable(1) %ref.tmp720) #3
  invoke void @_ZNSt7__cxx1112basic_stringIcSt11char_traitsIcESaIcEEC2IS3_EEPKcRKS3_(ptr noundef nonnull align 8 dereferenceable(32) %agg.result, ptr noundef @.str.258, ptr noundef nonnull align 1 dereferenceable(1) %ref.tmp720)
          to label %invoke.cont722 unwind label %lpad721

invoke.cont722:                                   ; preds = %sw.bb719
  call void @_ZNSaIcED1Ev(ptr noundef nonnull align 1 dereferenceable(1) %ref.tmp720) #3
  br label %return

lpad721:                                          ; preds = %sw.bb719
  %541 = landingpad { ptr, i32 }
          cleanup
  %542 = extractvalue { ptr, i32 } %541, 0
  store ptr %542, ptr %exn.slot, align 8
  %543 = extractvalue { ptr, i32 } %541, 1
  store i32 %543, ptr %ehselector.slot, align 4
  call void @_ZNSaIcED1Ev(ptr noundef nonnull align 1 dereferenceable(1) %ref.tmp720) #3
  br label %eh.resume

sw.bb723:                                         ; preds = %entry
  call void @_ZNSaIcEC1Ev(ptr noundef nonnull align 1 dereferenceable(1) %ref.tmp724) #3
  invoke void @_ZNSt7__cxx1112basic_stringIcSt11char_traitsIcESaIcEEC2IS3_EEPKcRKS3_(ptr noundef nonnull align 8 dereferenceable(32) %agg.result, ptr noundef @.str.259, ptr noundef nonnull align 1 dereferenceable(1) %ref.tmp724)
          to label %invoke.cont726 unwind label %lpad725

invoke.cont726:                                   ; preds = %sw.bb723
  call void @_ZNSaIcED1Ev(ptr noundef nonnull align 1 dereferenceable(1) %ref.tmp724) #3
  br label %return

lpad725:                                          ; preds = %sw.bb723
  %544 = landingpad { ptr, i32 }
          cleanup
  %545 = extractvalue { ptr, i32 } %544, 0
  store ptr %545, ptr %exn.slot, align 8
  %546 = extractvalue { ptr, i32 } %544, 1
  store i32 %546, ptr %ehselector.slot, align 4
  call void @_ZNSaIcED1Ev(ptr noundef nonnull align 1 dereferenceable(1) %ref.tmp724) #3
  br label %eh.resume

sw.bb727:                                         ; preds = %entry
  call void @_ZNSaIcEC1Ev(ptr noundef nonnull align 1 dereferenceable(1) %ref.tmp728) #3
  invoke void @_ZNSt7__cxx1112basic_stringIcSt11char_traitsIcESaIcEEC2IS3_EEPKcRKS3_(ptr noundef nonnull align 8 dereferenceable(32) %agg.result, ptr noundef @.str.260, ptr noundef nonnull align 1 dereferenceable(1) %ref.tmp728)
          to label %invoke.cont730 unwind label %lpad729

invoke.cont730:                                   ; preds = %sw.bb727
  call void @_ZNSaIcED1Ev(ptr noundef nonnull align 1 dereferenceable(1) %ref.tmp728) #3
  br label %return

lpad729:                                          ; preds = %sw.bb727
  %547 = landingpad { ptr, i32 }
          cleanup
  %548 = extractvalue { ptr, i32 } %547, 0
  store ptr %548, ptr %exn.slot, align 8
  %549 = extractvalue { ptr, i32 } %547, 1
  store i32 %549, ptr %ehselector.slot, align 4
  call void @_ZNSaIcED1Ev(ptr noundef nonnull align 1 dereferenceable(1) %ref.tmp728) #3
  br label %eh.resume

sw.bb731:                                         ; preds = %entry
  call void @_ZNSaIcEC1Ev(ptr noundef nonnull align 1 dereferenceable(1) %ref.tmp732) #3
  invoke void @_ZNSt7__cxx1112basic_stringIcSt11char_traitsIcESaIcEEC2IS3_EEPKcRKS3_(ptr noundef nonnull align 8 dereferenceable(32) %agg.result, ptr noundef @.str.261, ptr noundef nonnull align 1 dereferenceable(1) %ref.tmp732)
          to label %invoke.cont734 unwind label %lpad733

invoke.cont734:                                   ; preds = %sw.bb731
  call void @_ZNSaIcED1Ev(ptr noundef nonnull align 1 dereferenceable(1) %ref.tmp732) #3
  br label %return

lpad733:                                          ; preds = %sw.bb731
  %550 = landingpad { ptr, i32 }
          cleanup
  %551 = extractvalue { ptr, i32 } %550, 0
  store ptr %551, ptr %exn.slot, align 8
  %552 = extractvalue { ptr, i32 } %550, 1
  store i32 %552, ptr %ehselector.slot, align 4
  call void @_ZNSaIcED1Ev(ptr noundef nonnull align 1 dereferenceable(1) %ref.tmp732) #3
  br label %eh.resume

sw.bb735:                                         ; preds = %entry
  call void @_ZNSaIcEC1Ev(ptr noundef nonnull align 1 dereferenceable(1) %ref.tmp736) #3
  invoke void @_ZNSt7__cxx1112basic_stringIcSt11char_traitsIcESaIcEEC2IS3_EEPKcRKS3_(ptr noundef nonnull align 8 dereferenceable(32) %agg.result, ptr noundef @.str.262, ptr noundef nonnull align 1 dereferenceable(1) %ref.tmp736)
          to label %invoke.cont738 unwind label %lpad737

invoke.cont738:                                   ; preds = %sw.bb735
  call void @_ZNSaIcED1Ev(ptr noundef nonnull align 1 dereferenceable(1) %ref.tmp736) #3
  br label %return

lpad737:                                          ; preds = %sw.bb735
  %553 = landingpad { ptr, i32 }
          cleanup
  %554 = extractvalue { ptr, i32 } %553, 0
  store ptr %554, ptr %exn.slot, align 8
  %555 = extractvalue { ptr, i32 } %553, 1
  store i32 %555, ptr %ehselector.slot, align 4
  call void @_ZNSaIcED1Ev(ptr noundef nonnull align 1 dereferenceable(1) %ref.tmp736) #3
  br label %eh.resume

sw.bb739:                                         ; preds = %entry
  call void @_ZNSaIcEC1Ev(ptr noundef nonnull align 1 dereferenceable(1) %ref.tmp740) #3
  invoke void @_ZNSt7__cxx1112basic_stringIcSt11char_traitsIcESaIcEEC2IS3_EEPKcRKS3_(ptr noundef nonnull align 8 dereferenceable(32) %agg.result, ptr noundef @.str.263, ptr noundef nonnull align 1 dereferenceable(1) %ref.tmp740)
          to label %invoke.cont742 unwind label %lpad741

invoke.cont742:                                   ; preds = %sw.bb739
  call void @_ZNSaIcED1Ev(ptr noundef nonnull align 1 dereferenceable(1) %ref.tmp740) #3
  br label %return

lpad741:                                          ; preds = %sw.bb739
  %556 = landingpad { ptr, i32 }
          cleanup
  %557 = extractvalue { ptr, i32 } %556, 0
  store ptr %557, ptr %exn.slot, align 8
  %558 = extractvalue { ptr, i32 } %556, 1
  store i32 %558, ptr %ehselector.slot, align 4
  call void @_ZNSaIcED1Ev(ptr noundef nonnull align 1 dereferenceable(1) %ref.tmp740) #3
  br label %eh.resume

sw.bb743:                                         ; preds = %entry
  call void @_ZNSaIcEC1Ev(ptr noundef nonnull align 1 dereferenceable(1) %ref.tmp744) #3
  invoke void @_ZNSt7__cxx1112basic_stringIcSt11char_traitsIcESaIcEEC2IS3_EEPKcRKS3_(ptr noundef nonnull align 8 dereferenceable(32) %agg.result, ptr noundef @.str.264, ptr noundef nonnull align 1 dereferenceable(1) %ref.tmp744)
          to label %invoke.cont746 unwind label %lpad745

invoke.cont746:                                   ; preds = %sw.bb743
  call void @_ZNSaIcED1Ev(ptr noundef nonnull align 1 dereferenceable(1) %ref.tmp744) #3
  br label %return

lpad745:                                          ; preds = %sw.bb743
  %559 = landingpad { ptr, i32 }
          cleanup
  %560 = extractvalue { ptr, i32 } %559, 0
  store ptr %560, ptr %exn.slot, align 8
  %561 = extractvalue { ptr, i32 } %559, 1
  store i32 %561, ptr %ehselector.slot, align 4
  call void @_ZNSaIcED1Ev(ptr noundef nonnull align 1 dereferenceable(1) %ref.tmp744) #3
  br label %eh.resume

sw.bb747:                                         ; preds = %entry
  call void @_ZNSaIcEC1Ev(ptr noundef nonnull align 1 dereferenceable(1) %ref.tmp748) #3
  invoke void @_ZNSt7__cxx1112basic_stringIcSt11char_traitsIcESaIcEEC2IS3_EEPKcRKS3_(ptr noundef nonnull align 8 dereferenceable(32) %agg.result, ptr noundef @.str.265, ptr noundef nonnull align 1 dereferenceable(1) %ref.tmp748)
          to label %invoke.cont750 unwind label %lpad749

invoke.cont750:                                   ; preds = %sw.bb747
  call void @_ZNSaIcED1Ev(ptr noundef nonnull align 1 dereferenceable(1) %ref.tmp748) #3
  br label %return

lpad749:                                          ; preds = %sw.bb747
  %562 = landingpad { ptr, i32 }
          cleanup
  %563 = extractvalue { ptr, i32 } %562, 0
  store ptr %563, ptr %exn.slot, align 8
  %564 = extractvalue { ptr, i32 } %562, 1
  store i32 %564, ptr %ehselector.slot, align 4
  call void @_ZNSaIcED1Ev(ptr noundef nonnull align 1 dereferenceable(1) %ref.tmp748) #3
  br label %eh.resume

sw.bb751:                                         ; preds = %entry
  call void @_ZNSaIcEC1Ev(ptr noundef nonnull align 1 dereferenceable(1) %ref.tmp752) #3
  invoke void @_ZNSt7__cxx1112basic_stringIcSt11char_traitsIcESaIcEEC2IS3_EEPKcRKS3_(ptr noundef nonnull align 8 dereferenceable(32) %agg.result, ptr noundef @.str.266, ptr noundef nonnull align 1 dereferenceable(1) %ref.tmp752)
          to label %invoke.cont754 unwind label %lpad753

invoke.cont754:                                   ; preds = %sw.bb751
  call void @_ZNSaIcED1Ev(ptr noundef nonnull align 1 dereferenceable(1) %ref.tmp752) #3
  br label %return

lpad753:                                          ; preds = %sw.bb751
  %565 = landingpad { ptr, i32 }
          cleanup
  %566 = extractvalue { ptr, i32 } %565, 0
  store ptr %566, ptr %exn.slot, align 8
  %567 = extractvalue { ptr, i32 } %565, 1
  store i32 %567, ptr %ehselector.slot, align 4
  call void @_ZNSaIcED1Ev(ptr noundef nonnull align 1 dereferenceable(1) %ref.tmp752) #3
  br label %eh.resume

sw.bb755:                                         ; preds = %entry
  call void @_ZNSaIcEC1Ev(ptr noundef nonnull align 1 dereferenceable(1) %ref.tmp756) #3
  invoke void @_ZNSt7__cxx1112basic_stringIcSt11char_traitsIcESaIcEEC2IS3_EEPKcRKS3_(ptr noundef nonnull align 8 dereferenceable(32) %agg.result, ptr noundef @.str.267, ptr noundef nonnull align 1 dereferenceable(1) %ref.tmp756)
          to label %invoke.cont758 unwind label %lpad757

invoke.cont758:                                   ; preds = %sw.bb755
  call void @_ZNSaIcED1Ev(ptr noundef nonnull align 1 dereferenceable(1) %ref.tmp756) #3
  br label %return

lpad757:                                          ; preds = %sw.bb755
  %568 = landingpad { ptr, i32 }
          cleanup
  %569 = extractvalue { ptr, i32 } %568, 0
  store ptr %569, ptr %exn.slot, align 8
  %570 = extractvalue { ptr, i32 } %568, 1
  store i32 %570, ptr %ehselector.slot, align 4
  call void @_ZNSaIcED1Ev(ptr noundef nonnull align 1 dereferenceable(1) %ref.tmp756) #3
  br label %eh.resume

sw.bb759:                                         ; preds = %entry
  call void @_ZNSaIcEC1Ev(ptr noundef nonnull align 1 dereferenceable(1) %ref.tmp760) #3
  invoke void @_ZNSt7__cxx1112basic_stringIcSt11char_traitsIcESaIcEEC2IS3_EEPKcRKS3_(ptr noundef nonnull align 8 dereferenceable(32) %agg.result, ptr noundef @.str.267, ptr noundef nonnull align 1 dereferenceable(1) %ref.tmp760)
          to label %invoke.cont762 unwind label %lpad761

invoke.cont762:                                   ; preds = %sw.bb759
  call void @_ZNSaIcED1Ev(ptr noundef nonnull align 1 dereferenceable(1) %ref.tmp760) #3
  br label %return

lpad761:                                          ; preds = %sw.bb759
  %571 = landingpad { ptr, i32 }
          cleanup
  %572 = extractvalue { ptr, i32 } %571, 0
  store ptr %572, ptr %exn.slot, align 8
  %573 = extractvalue { ptr, i32 } %571, 1
  store i32 %573, ptr %ehselector.slot, align 4
  call void @_ZNSaIcED1Ev(ptr noundef nonnull align 1 dereferenceable(1) %ref.tmp760) #3
  br label %eh.resume

sw.bb763:                                         ; preds = %entry
  call void @_ZNSaIcEC1Ev(ptr noundef nonnull align 1 dereferenceable(1) %ref.tmp764) #3
  invoke void @_ZNSt7__cxx1112basic_stringIcSt11char_traitsIcESaIcEEC2IS3_EEPKcRKS3_(ptr noundef nonnull align 8 dereferenceable(32) %agg.result, ptr noundef @.str.267, ptr noundef nonnull align 1 dereferenceable(1) %ref.tmp764)
          to label %invoke.cont766 unwind label %lpad765

invoke.cont766:                                   ; preds = %sw.bb763
  call void @_ZNSaIcED1Ev(ptr noundef nonnull align 1 dereferenceable(1) %ref.tmp764) #3
  br label %return

lpad765:                                          ; preds = %sw.bb763
  %574 = landingpad { ptr, i32 }
          cleanup
  %575 = extractvalue { ptr, i32 } %574, 0
  store ptr %575, ptr %exn.slot, align 8
  %576 = extractvalue { ptr, i32 } %574, 1
  store i32 %576, ptr %ehselector.slot, align 4
  call void @_ZNSaIcED1Ev(ptr noundef nonnull align 1 dereferenceable(1) %ref.tmp764) #3
  br label %eh.resume

sw.bb767:                                         ; preds = %entry
  call void @_ZNSaIcEC1Ev(ptr noundef nonnull align 1 dereferenceable(1) %ref.tmp768) #3
  invoke void @_ZNSt7__cxx1112basic_stringIcSt11char_traitsIcESaIcEEC2IS3_EEPKcRKS3_(ptr noundef nonnull align 8 dereferenceable(32) %agg.result, ptr noundef @.str.267, ptr noundef nonnull align 1 dereferenceable(1) %ref.tmp768)
          to label %invoke.cont770 unwind label %lpad769

invoke.cont770:                                   ; preds = %sw.bb767
  call void @_ZNSaIcED1Ev(ptr noundef nonnull align 1 dereferenceable(1) %ref.tmp768) #3
  br label %return

lpad769:                                          ; preds = %sw.bb767
  %577 = landingpad { ptr, i32 }
          cleanup
  %578 = extractvalue { ptr, i32 } %577, 0
  store ptr %578, ptr %exn.slot, align 8
  %579 = extractvalue { ptr, i32 } %577, 1
  store i32 %579, ptr %ehselector.slot, align 4
  call void @_ZNSaIcED1Ev(ptr noundef nonnull align 1 dereferenceable(1) %ref.tmp768) #3
  br label %eh.resume

sw.bb771:                                         ; preds = %entry
  call void @_ZNSaIcEC1Ev(ptr noundef nonnull align 1 dereferenceable(1) %ref.tmp772) #3
  invoke void @_ZNSt7__cxx1112basic_stringIcSt11char_traitsIcESaIcEEC2IS3_EEPKcRKS3_(ptr noundef nonnull align 8 dereferenceable(32) %agg.result, ptr noundef @.str.268, ptr noundef nonnull align 1 dereferenceable(1) %ref.tmp772)
          to label %invoke.cont774 unwind label %lpad773

invoke.cont774:                                   ; preds = %sw.bb771
  call void @_ZNSaIcED1Ev(ptr noundef nonnull align 1 dereferenceable(1) %ref.tmp772) #3
  br label %return

lpad773:                                          ; preds = %sw.bb771
  %580 = landingpad { ptr, i32 }
          cleanup
  %581 = extractvalue { ptr, i32 } %580, 0
  store ptr %581, ptr %exn.slot, align 8
  %582 = extractvalue { ptr, i32 } %580, 1
  store i32 %582, ptr %ehselector.slot, align 4
  call void @_ZNSaIcED1Ev(ptr noundef nonnull align 1 dereferenceable(1) %ref.tmp772) #3
  br label %eh.resume

sw.bb775:                                         ; preds = %entry
  call void @_ZNSaIcEC1Ev(ptr noundef nonnull align 1 dereferenceable(1) %ref.tmp776) #3
  invoke void @_ZNSt7__cxx1112basic_stringIcSt11char_traitsIcESaIcEEC2IS3_EEPKcRKS3_(ptr noundef nonnull align 8 dereferenceable(32) %agg.result, ptr noundef @.str.269, ptr noundef nonnull align 1 dereferenceable(1) %ref.tmp776)
          to label %invoke.cont778 unwind label %lpad777

invoke.cont778:                                   ; preds = %sw.bb775
  call void @_ZNSaIcED1Ev(ptr noundef nonnull align 1 dereferenceable(1) %ref.tmp776) #3
  br label %return

lpad777:                                          ; preds = %sw.bb775
  %583 = landingpad { ptr, i32 }
          cleanup
  %584 = extractvalue { ptr, i32 } %583, 0
  store ptr %584, ptr %exn.slot, align 8
  %585 = extractvalue { ptr, i32 } %583, 1
  store i32 %585, ptr %ehselector.slot, align 4
  call void @_ZNSaIcED1Ev(ptr noundef nonnull align 1 dereferenceable(1) %ref.tmp776) #3
  br label %eh.resume

sw.bb779:                                         ; preds = %entry
  call void @_ZNSaIcEC1Ev(ptr noundef nonnull align 1 dereferenceable(1) %ref.tmp780) #3
  invoke void @_ZNSt7__cxx1112basic_stringIcSt11char_traitsIcESaIcEEC2IS3_EEPKcRKS3_(ptr noundef nonnull align 8 dereferenceable(32) %agg.result, ptr noundef @.str.270, ptr noundef nonnull align 1 dereferenceable(1) %ref.tmp780)
          to label %invoke.cont782 unwind label %lpad781

invoke.cont782:                                   ; preds = %sw.bb779
  call void @_ZNSaIcED1Ev(ptr noundef nonnull align 1 dereferenceable(1) %ref.tmp780) #3
  br label %return

lpad781:                                          ; preds = %sw.bb779
  %586 = landingpad { ptr, i32 }
          cleanup
  %587 = extractvalue { ptr, i32 } %586, 0
  store ptr %587, ptr %exn.slot, align 8
  %588 = extractvalue { ptr, i32 } %586, 1
  store i32 %588, ptr %ehselector.slot, align 4
  call void @_ZNSaIcED1Ev(ptr noundef nonnull align 1 dereferenceable(1) %ref.tmp780) #3
  br label %eh.resume

sw.bb783:                                         ; preds = %entry
  call void @_ZNSaIcEC1Ev(ptr noundef nonnull align 1 dereferenceable(1) %ref.tmp784) #3
  invoke void @_ZNSt7__cxx1112basic_stringIcSt11char_traitsIcESaIcEEC2IS3_EEPKcRKS3_(ptr noundef nonnull align 8 dereferenceable(32) %agg.result, ptr noundef @.str.271, ptr noundef nonnull align 1 dereferenceable(1) %ref.tmp784)
          to label %invoke.cont786 unwind label %lpad785

invoke.cont786:                                   ; preds = %sw.bb783
  call void @_ZNSaIcED1Ev(ptr noundef nonnull align 1 dereferenceable(1) %ref.tmp784) #3
  br label %return

lpad785:                                          ; preds = %sw.bb783
  %589 = landingpad { ptr, i32 }
          cleanup
  %590 = extractvalue { ptr, i32 } %589, 0
  store ptr %590, ptr %exn.slot, align 8
  %591 = extractvalue { ptr, i32 } %589, 1
  store i32 %591, ptr %ehselector.slot, align 4
  call void @_ZNSaIcED1Ev(ptr noundef nonnull align 1 dereferenceable(1) %ref.tmp784) #3
  br label %eh.resume

sw.bb787:                                         ; preds = %entry
  call void @_ZNSaIcEC1Ev(ptr noundef nonnull align 1 dereferenceable(1) %ref.tmp788) #3
  invoke void @_ZNSt7__cxx1112basic_stringIcSt11char_traitsIcESaIcEEC2IS3_EEPKcRKS3_(ptr noundef nonnull align 8 dereferenceable(32) %agg.result, ptr noundef @.str.272, ptr noundef nonnull align 1 dereferenceable(1) %ref.tmp788)
          to label %invoke.cont790 unwind label %lpad789

invoke.cont790:                                   ; preds = %sw.bb787
  call void @_ZNSaIcED1Ev(ptr noundef nonnull align 1 dereferenceable(1) %ref.tmp788) #3
  br label %return

lpad789:                                          ; preds = %sw.bb787
  %592 = landingpad { ptr, i32 }
          cleanup
  %593 = extractvalue { ptr, i32 } %592, 0
  store ptr %593, ptr %exn.slot, align 8
  %594 = extractvalue { ptr, i32 } %592, 1
  store i32 %594, ptr %ehselector.slot, align 4
  call void @_ZNSaIcED1Ev(ptr noundef nonnull align 1 dereferenceable(1) %ref.tmp788) #3
  br label %eh.resume

sw.bb791:                                         ; preds = %entry
  call void @_ZNSaIcEC1Ev(ptr noundef nonnull align 1 dereferenceable(1) %ref.tmp792) #3
  invoke void @_ZNSt7__cxx1112basic_stringIcSt11char_traitsIcESaIcEEC2IS3_EEPKcRKS3_(ptr noundef nonnull align 8 dereferenceable(32) %agg.result, ptr noundef @.str.273, ptr noundef nonnull align 1 dereferenceable(1) %ref.tmp792)
          to label %invoke.cont794 unwind label %lpad793

invoke.cont794:                                   ; preds = %sw.bb791
  call void @_ZNSaIcED1Ev(ptr noundef nonnull align 1 dereferenceable(1) %ref.tmp792) #3
  br label %return

lpad793:                                          ; preds = %sw.bb791
  %595 = landingpad { ptr, i32 }
          cleanup
  %596 = extractvalue { ptr, i32 } %595, 0
  store ptr %596, ptr %exn.slot, align 8
  %597 = extractvalue { ptr, i32 } %595, 1
  store i32 %597, ptr %ehselector.slot, align 4
  call void @_ZNSaIcED1Ev(ptr noundef nonnull align 1 dereferenceable(1) %ref.tmp792) #3
  br label %eh.resume

sw.bb795:                                         ; preds = %entry
  call void @_ZNSaIcEC1Ev(ptr noundef nonnull align 1 dereferenceable(1) %ref.tmp796) #3
  invoke void @_ZNSt7__cxx1112basic_stringIcSt11char_traitsIcESaIcEEC2IS3_EEPKcRKS3_(ptr noundef nonnull align 8 dereferenceable(32) %agg.result, ptr noundef @.str.274, ptr noundef nonnull align 1 dereferenceable(1) %ref.tmp796)
          to label %invoke.cont798 unwind label %lpad797

invoke.cont798:                                   ; preds = %sw.bb795
  call void @_ZNSaIcED1Ev(ptr noundef nonnull align 1 dereferenceable(1) %ref.tmp796) #3
  br label %return

lpad797:                                          ; preds = %sw.bb795
  %598 = landingpad { ptr, i32 }
          cleanup
  %599 = extractvalue { ptr, i32 } %598, 0
  store ptr %599, ptr %exn.slot, align 8
  %600 = extractvalue { ptr, i32 } %598, 1
  store i32 %600, ptr %ehselector.slot, align 4
  call void @_ZNSaIcED1Ev(ptr noundef nonnull align 1 dereferenceable(1) %ref.tmp796) #3
  br label %eh.resume

sw.bb799:                                         ; preds = %entry
  call void @_ZNSaIcEC1Ev(ptr noundef nonnull align 1 dereferenceable(1) %ref.tmp800) #3
  invoke void @_ZNSt7__cxx1112basic_stringIcSt11char_traitsIcESaIcEEC2IS3_EEPKcRKS3_(ptr noundef nonnull align 8 dereferenceable(32) %agg.result, ptr noundef @.str.275, ptr noundef nonnull align 1 dereferenceable(1) %ref.tmp800)
          to label %invoke.cont802 unwind label %lpad801

invoke.cont802:                                   ; preds = %sw.bb799
  call void @_ZNSaIcED1Ev(ptr noundef nonnull align 1 dereferenceable(1) %ref.tmp800) #3
  br label %return

lpad801:                                          ; preds = %sw.bb799
  %601 = landingpad { ptr, i32 }
          cleanup
  %602 = extractvalue { ptr, i32 } %601, 0
  store ptr %602, ptr %exn.slot, align 8
  %603 = extractvalue { ptr, i32 } %601, 1
  store i32 %603, ptr %ehselector.slot, align 4
  call void @_ZNSaIcED1Ev(ptr noundef nonnull align 1 dereferenceable(1) %ref.tmp800) #3
  br label %eh.resume

sw.bb803:                                         ; preds = %entry
  call void @_ZNSaIcEC1Ev(ptr noundef nonnull align 1 dereferenceable(1) %ref.tmp804) #3
  invoke void @_ZNSt7__cxx1112basic_stringIcSt11char_traitsIcESaIcEEC2IS3_EEPKcRKS3_(ptr noundef nonnull align 8 dereferenceable(32) %agg.result, ptr noundef @.str.276, ptr noundef nonnull align 1 dereferenceable(1) %ref.tmp804)
          to label %invoke.cont806 unwind label %lpad805

invoke.cont806:                                   ; preds = %sw.bb803
  call void @_ZNSaIcED1Ev(ptr noundef nonnull align 1 dereferenceable(1) %ref.tmp804) #3
  br label %return

lpad805:                                          ; preds = %sw.bb803
  %604 = landingpad { ptr, i32 }
          cleanup
  %605 = extractvalue { ptr, i32 } %604, 0
  store ptr %605, ptr %exn.slot, align 8
  %606 = extractvalue { ptr, i32 } %604, 1
  store i32 %606, ptr %ehselector.slot, align 4
  call void @_ZNSaIcED1Ev(ptr noundef nonnull align 1 dereferenceable(1) %ref.tmp804) #3
  br label %eh.resume

sw.bb807:                                         ; preds = %entry
  call void @_ZNSaIcEC1Ev(ptr noundef nonnull align 1 dereferenceable(1) %ref.tmp808) #3
  invoke void @_ZNSt7__cxx1112basic_stringIcSt11char_traitsIcESaIcEEC2IS3_EEPKcRKS3_(ptr noundef nonnull align 8 dereferenceable(32) %agg.result, ptr noundef @.str.277, ptr noundef nonnull align 1 dereferenceable(1) %ref.tmp808)
          to label %invoke.cont810 unwind label %lpad809

invoke.cont810:                                   ; preds = %sw.bb807
  call void @_ZNSaIcED1Ev(ptr noundef nonnull align 1 dereferenceable(1) %ref.tmp808) #3
  br label %return

lpad809:                                          ; preds = %sw.bb807
  %607 = landingpad { ptr, i32 }
          cleanup
  %608 = extractvalue { ptr, i32 } %607, 0
  store ptr %608, ptr %exn.slot, align 8
  %609 = extractvalue { ptr, i32 } %607, 1
  store i32 %609, ptr %ehselector.slot, align 4
  call void @_ZNSaIcED1Ev(ptr noundef nonnull align 1 dereferenceable(1) %ref.tmp808) #3
  br label %eh.resume

sw.bb811:                                         ; preds = %entry
  call void @_ZNSaIcEC1Ev(ptr noundef nonnull align 1 dereferenceable(1) %ref.tmp812) #3
  invoke void @_ZNSt7__cxx1112basic_stringIcSt11char_traitsIcESaIcEEC2IS3_EEPKcRKS3_(ptr noundef nonnull align 8 dereferenceable(32) %agg.result, ptr noundef @.str.278, ptr noundef nonnull align 1 dereferenceable(1) %ref.tmp812)
          to label %invoke.cont814 unwind label %lpad813

invoke.cont814:                                   ; preds = %sw.bb811
  call void @_ZNSaIcED1Ev(ptr noundef nonnull align 1 dereferenceable(1) %ref.tmp812) #3
  br label %return

lpad813:                                          ; preds = %sw.bb811
  %610 = landingpad { ptr, i32 }
          cleanup
  %611 = extractvalue { ptr, i32 } %610, 0
  store ptr %611, ptr %exn.slot, align 8
  %612 = extractvalue { ptr, i32 } %610, 1
  store i32 %612, ptr %ehselector.slot, align 4
  call void @_ZNSaIcED1Ev(ptr noundef nonnull align 1 dereferenceable(1) %ref.tmp812) #3
  br label %eh.resume

sw.bb815:                                         ; preds = %entry
  call void @_ZNSaIcEC1Ev(ptr noundef nonnull align 1 dereferenceable(1) %ref.tmp816) #3
  invoke void @_ZNSt7__cxx1112basic_stringIcSt11char_traitsIcESaIcEEC2IS3_EEPKcRKS3_(ptr noundef nonnull align 8 dereferenceable(32) %agg.result, ptr noundef @.str.279, ptr noundef nonnull align 1 dereferenceable(1) %ref.tmp816)
          to label %invoke.cont818 unwind label %lpad817

invoke.cont818:                                   ; preds = %sw.bb815
  call void @_ZNSaIcED1Ev(ptr noundef nonnull align 1 dereferenceable(1) %ref.tmp816) #3
  br label %return

lpad817:                                          ; preds = %sw.bb815
  %613 = landingpad { ptr, i32 }
          cleanup
  %614 = extractvalue { ptr, i32 } %613, 0
  store ptr %614, ptr %exn.slot, align 8
  %615 = extractvalue { ptr, i32 } %613, 1
  store i32 %615, ptr %ehselector.slot, align 4
  call void @_ZNSaIcED1Ev(ptr noundef nonnull align 1 dereferenceable(1) %ref.tmp816) #3
  br label %eh.resume

sw.bb819:                                         ; preds = %entry
  call void @_ZNSaIcEC1Ev(ptr noundef nonnull align 1 dereferenceable(1) %ref.tmp820) #3
  invoke void @_ZNSt7__cxx1112basic_stringIcSt11char_traitsIcESaIcEEC2IS3_EEPKcRKS3_(ptr noundef nonnull align 8 dereferenceable(32) %agg.result, ptr noundef @.str.280, ptr noundef nonnull align 1 dereferenceable(1) %ref.tmp820)
          to label %invoke.cont822 unwind label %lpad821

invoke.cont822:                                   ; preds = %sw.bb819
  call void @_ZNSaIcED1Ev(ptr noundef nonnull align 1 dereferenceable(1) %ref.tmp820) #3
  br label %return

lpad821:                                          ; preds = %sw.bb819
  %616 = landingpad { ptr, i32 }
          cleanup
  %617 = extractvalue { ptr, i32 } %616, 0
  store ptr %617, ptr %exn.slot, align 8
  %618 = extractvalue { ptr, i32 } %616, 1
  store i32 %618, ptr %ehselector.slot, align 4
  call void @_ZNSaIcED1Ev(ptr noundef nonnull align 1 dereferenceable(1) %ref.tmp820) #3
  br label %eh.resume

sw.bb823:                                         ; preds = %entry
  call void @_ZNSaIcEC1Ev(ptr noundef nonnull align 1 dereferenceable(1) %ref.tmp824) #3
  invoke void @_ZNSt7__cxx1112basic_stringIcSt11char_traitsIcESaIcEEC2IS3_EEPKcRKS3_(ptr noundef nonnull align 8 dereferenceable(32) %agg.result, ptr noundef @.str.281, ptr noundef nonnull align 1 dereferenceable(1) %ref.tmp824)
          to label %invoke.cont826 unwind label %lpad825

invoke.cont826:                                   ; preds = %sw.bb823
  call void @_ZNSaIcED1Ev(ptr noundef nonnull align 1 dereferenceable(1) %ref.tmp824) #3
  br label %return

lpad825:                                          ; preds = %sw.bb823
  %619 = landingpad { ptr, i32 }
          cleanup
  %620 = extractvalue { ptr, i32 } %619, 0
  store ptr %620, ptr %exn.slot, align 8
  %621 = extractvalue { ptr, i32 } %619, 1
  store i32 %621, ptr %ehselector.slot, align 4
  call void @_ZNSaIcED1Ev(ptr noundef nonnull align 1 dereferenceable(1) %ref.tmp824) #3
  br label %eh.resume

sw.bb827:                                         ; preds = %entry
  call void @_ZNSaIcEC1Ev(ptr noundef nonnull align 1 dereferenceable(1) %ref.tmp828) #3
  invoke void @_ZNSt7__cxx1112basic_stringIcSt11char_traitsIcESaIcEEC2IS3_EEPKcRKS3_(ptr noundef nonnull align 8 dereferenceable(32) %agg.result, ptr noundef @.str.282, ptr noundef nonnull align 1 dereferenceable(1) %ref.tmp828)
          to label %invoke.cont830 unwind label %lpad829

invoke.cont830:                                   ; preds = %sw.bb827
  call void @_ZNSaIcED1Ev(ptr noundef nonnull align 1 dereferenceable(1) %ref.tmp828) #3
  br label %return

lpad829:                                          ; preds = %sw.bb827
  %622 = landingpad { ptr, i32 }
          cleanup
  %623 = extractvalue { ptr, i32 } %622, 0
  store ptr %623, ptr %exn.slot, align 8
  %624 = extractvalue { ptr, i32 } %622, 1
  store i32 %624, ptr %ehselector.slot, align 4
  call void @_ZNSaIcED1Ev(ptr noundef nonnull align 1 dereferenceable(1) %ref.tmp828) #3
  br label %eh.resume

sw.bb831:                                         ; preds = %entry
  call void @_ZNSaIcEC1Ev(ptr noundef nonnull align 1 dereferenceable(1) %ref.tmp832) #3
  invoke void @_ZNSt7__cxx1112basic_stringIcSt11char_traitsIcESaIcEEC2IS3_EEPKcRKS3_(ptr noundef nonnull align 8 dereferenceable(32) %agg.result, ptr noundef @.str.283, ptr noundef nonnull align 1 dereferenceable(1) %ref.tmp832)
          to label %invoke.cont834 unwind label %lpad833

invoke.cont834:                                   ; preds = %sw.bb831
  call void @_ZNSaIcED1Ev(ptr noundef nonnull align 1 dereferenceable(1) %ref.tmp832) #3
  br label %return

lpad833:                                          ; preds = %sw.bb831
  %625 = landingpad { ptr, i32 }
          cleanup
  %626 = extractvalue { ptr, i32 } %625, 0
  store ptr %626, ptr %exn.slot, align 8
  %627 = extractvalue { ptr, i32 } %625, 1
  store i32 %627, ptr %ehselector.slot, align 4
  call void @_ZNSaIcED1Ev(ptr noundef nonnull align 1 dereferenceable(1) %ref.tmp832) #3
  br label %eh.resume

sw.bb835:                                         ; preds = %entry
  call void @_ZNSaIcEC1Ev(ptr noundef nonnull align 1 dereferenceable(1) %ref.tmp836) #3
  invoke void @_ZNSt7__cxx1112basic_stringIcSt11char_traitsIcESaIcEEC2IS3_EEPKcRKS3_(ptr noundef nonnull align 8 dereferenceable(32) %agg.result, ptr noundef @.str.284, ptr noundef nonnull align 1 dereferenceable(1) %ref.tmp836)
          to label %invoke.cont838 unwind label %lpad837

invoke.cont838:                                   ; preds = %sw.bb835
  call void @_ZNSaIcED1Ev(ptr noundef nonnull align 1 dereferenceable(1) %ref.tmp836) #3
  br label %return

lpad837:                                          ; preds = %sw.bb835
  %628 = landingpad { ptr, i32 }
          cleanup
  %629 = extractvalue { ptr, i32 } %628, 0
  store ptr %629, ptr %exn.slot, align 8
  %630 = extractvalue { ptr, i32 } %628, 1
  store i32 %630, ptr %ehselector.slot, align 4
  call void @_ZNSaIcED1Ev(ptr noundef nonnull align 1 dereferenceable(1) %ref.tmp836) #3
  br label %eh.resume

sw.bb839:                                         ; preds = %entry
  call void @_ZNSaIcEC1Ev(ptr noundef nonnull align 1 dereferenceable(1) %ref.tmp840) #3
  invoke void @_ZNSt7__cxx1112basic_stringIcSt11char_traitsIcESaIcEEC2IS3_EEPKcRKS3_(ptr noundef nonnull align 8 dereferenceable(32) %agg.result, ptr noundef @.str.285, ptr noundef nonnull align 1 dereferenceable(1) %ref.tmp840)
          to label %invoke.cont842 unwind label %lpad841

invoke.cont842:                                   ; preds = %sw.bb839
  call void @_ZNSaIcED1Ev(ptr noundef nonnull align 1 dereferenceable(1) %ref.tmp840) #3
  br label %return

lpad841:                                          ; preds = %sw.bb839
  %631 = landingpad { ptr, i32 }
          cleanup
  %632 = extractvalue { ptr, i32 } %631, 0
  store ptr %632, ptr %exn.slot, align 8
  %633 = extractvalue { ptr, i32 } %631, 1
  store i32 %633, ptr %ehselector.slot, align 4
  call void @_ZNSaIcED1Ev(ptr noundef nonnull align 1 dereferenceable(1) %ref.tmp840) #3
  br label %eh.resume

sw.bb843:                                         ; preds = %entry
  call void @_ZNSaIcEC1Ev(ptr noundef nonnull align 1 dereferenceable(1) %ref.tmp844) #3
  invoke void @_ZNSt7__cxx1112basic_stringIcSt11char_traitsIcESaIcEEC2IS3_EEPKcRKS3_(ptr noundef nonnull align 8 dereferenceable(32) %agg.result, ptr noundef @.str.286, ptr noundef nonnull align 1 dereferenceable(1) %ref.tmp844)
          to label %invoke.cont846 unwind label %lpad845

invoke.cont846:                                   ; preds = %sw.bb843
  call void @_ZNSaIcED1Ev(ptr noundef nonnull align 1 dereferenceable(1) %ref.tmp844) #3
  br label %return

lpad845:                                          ; preds = %sw.bb843
  %634 = landingpad { ptr, i32 }
          cleanup
  %635 = extractvalue { ptr, i32 } %634, 0
  store ptr %635, ptr %exn.slot, align 8
  %636 = extractvalue { ptr, i32 } %634, 1
  store i32 %636, ptr %ehselector.slot, align 4
  call void @_ZNSaIcED1Ev(ptr noundef nonnull align 1 dereferenceable(1) %ref.tmp844) #3
  br label %eh.resume

sw.bb847:                                         ; preds = %entry
  call void @_ZNSaIcEC1Ev(ptr noundef nonnull align 1 dereferenceable(1) %ref.tmp848) #3
  invoke void @_ZNSt7__cxx1112basic_stringIcSt11char_traitsIcESaIcEEC2IS3_EEPKcRKS3_(ptr noundef nonnull align 8 dereferenceable(32) %agg.result, ptr noundef @.str.287, ptr noundef nonnull align 1 dereferenceable(1) %ref.tmp848)
          to label %invoke.cont850 unwind label %lpad849

invoke.cont850:                                   ; preds = %sw.bb847
  call void @_ZNSaIcED1Ev(ptr noundef nonnull align 1 dereferenceable(1) %ref.tmp848) #3
  br label %return

lpad849:                                          ; preds = %sw.bb847
  %637 = landingpad { ptr, i32 }
          cleanup
  %638 = extractvalue { ptr, i32 } %637, 0
  store ptr %638, ptr %exn.slot, align 8
  %639 = extractvalue { ptr, i32 } %637, 1
  store i32 %639, ptr %ehselector.slot, align 4
  call void @_ZNSaIcED1Ev(ptr noundef nonnull align 1 dereferenceable(1) %ref.tmp848) #3
  br label %eh.resume

sw.bb851:                                         ; preds = %entry
  call void @_ZNSaIcEC1Ev(ptr noundef nonnull align 1 dereferenceable(1) %ref.tmp852) #3
  invoke void @_ZNSt7__cxx1112basic_stringIcSt11char_traitsIcESaIcEEC2IS3_EEPKcRKS3_(ptr noundef nonnull align 8 dereferenceable(32) %agg.result, ptr noundef @.str.288, ptr noundef nonnull align 1 dereferenceable(1) %ref.tmp852)
          to label %invoke.cont854 unwind label %lpad853

invoke.cont854:                                   ; preds = %sw.bb851
  call void @_ZNSaIcED1Ev(ptr noundef nonnull align 1 dereferenceable(1) %ref.tmp852) #3
  br label %return

lpad853:                                          ; preds = %sw.bb851
  %640 = landingpad { ptr, i32 }
          cleanup
  %641 = extractvalue { ptr, i32 } %640, 0
  store ptr %641, ptr %exn.slot, align 8
  %642 = extractvalue { ptr, i32 } %640, 1
  store i32 %642, ptr %ehselector.slot, align 4
  call void @_ZNSaIcED1Ev(ptr noundef nonnull align 1 dereferenceable(1) %ref.tmp852) #3
  br label %eh.resume

sw.bb855:                                         ; preds = %entry
  call void @_ZNSaIcEC1Ev(ptr noundef nonnull align 1 dereferenceable(1) %ref.tmp856) #3
  invoke void @_ZNSt7__cxx1112basic_stringIcSt11char_traitsIcESaIcEEC2IS3_EEPKcRKS3_(ptr noundef nonnull align 8 dereferenceable(32) %agg.result, ptr noundef @.str.289, ptr noundef nonnull align 1 dereferenceable(1) %ref.tmp856)
          to label %invoke.cont858 unwind label %lpad857

invoke.cont858:                                   ; preds = %sw.bb855
  call void @_ZNSaIcED1Ev(ptr noundef nonnull align 1 dereferenceable(1) %ref.tmp856) #3
  br label %return

lpad857:                                          ; preds = %sw.bb855
  %643 = landingpad { ptr, i32 }
          cleanup
  %644 = extractvalue { ptr, i32 } %643, 0
  store ptr %644, ptr %exn.slot, align 8
  %645 = extractvalue { ptr, i32 } %643, 1
  store i32 %645, ptr %ehselector.slot, align 4
  call void @_ZNSaIcED1Ev(ptr noundef nonnull align 1 dereferenceable(1) %ref.tmp856) #3
  br label %eh.resume

sw.bb859:                                         ; preds = %entry
  call void @_ZNSaIcEC1Ev(ptr noundef nonnull align 1 dereferenceable(1) %ref.tmp860) #3
  invoke void @_ZNSt7__cxx1112basic_stringIcSt11char_traitsIcESaIcEEC2IS3_EEPKcRKS3_(ptr noundef nonnull align 8 dereferenceable(32) %agg.result, ptr noundef @.str.290, ptr noundef nonnull align 1 dereferenceable(1) %ref.tmp860)
          to label %invoke.cont862 unwind label %lpad861

invoke.cont862:                                   ; preds = %sw.bb859
  call void @_ZNSaIcED1Ev(ptr noundef nonnull align 1 dereferenceable(1) %ref.tmp860) #3
  br label %return

lpad861:                                          ; preds = %sw.bb859
  %646 = landingpad { ptr, i32 }
          cleanup
  %647 = extractvalue { ptr, i32 } %646, 0
  store ptr %647, ptr %exn.slot, align 8
  %648 = extractvalue { ptr, i32 } %646, 1
  store i32 %648, ptr %ehselector.slot, align 4
  call void @_ZNSaIcED1Ev(ptr noundef nonnull align 1 dereferenceable(1) %ref.tmp860) #3
  br label %eh.resume

sw.bb863:                                         ; preds = %entry
  call void @_ZNSaIcEC1Ev(ptr noundef nonnull align 1 dereferenceable(1) %ref.tmp864) #3
  invoke void @_ZNSt7__cxx1112basic_stringIcSt11char_traitsIcESaIcEEC2IS3_EEPKcRKS3_(ptr noundef nonnull align 8 dereferenceable(32) %agg.result, ptr noundef @.str.291, ptr noundef nonnull align 1 dereferenceable(1) %ref.tmp864)
          to label %invoke.cont866 unwind label %lpad865

invoke.cont866:                                   ; preds = %sw.bb863
  call void @_ZNSaIcED1Ev(ptr noundef nonnull align 1 dereferenceable(1) %ref.tmp864) #3
  br label %return

lpad865:                                          ; preds = %sw.bb863
  %649 = landingpad { ptr, i32 }
          cleanup
  %650 = extractvalue { ptr, i32 } %649, 0
  store ptr %650, ptr %exn.slot, align 8
  %651 = extractvalue { ptr, i32 } %649, 1
  store i32 %651, ptr %ehselector.slot, align 4
  call void @_ZNSaIcED1Ev(ptr noundef nonnull align 1 dereferenceable(1) %ref.tmp864) #3
  br label %eh.resume

sw.bb867:                                         ; preds = %entry
  call void @_ZNSaIcEC1Ev(ptr noundef nonnull align 1 dereferenceable(1) %ref.tmp868) #3
  invoke void @_ZNSt7__cxx1112basic_stringIcSt11char_traitsIcESaIcEEC2IS3_EEPKcRKS3_(ptr noundef nonnull align 8 dereferenceable(32) %agg.result, ptr noundef @.str.292, ptr noundef nonnull align 1 dereferenceable(1) %ref.tmp868)
          to label %invoke.cont870 unwind label %lpad869

invoke.cont870:                                   ; preds = %sw.bb867
  call void @_ZNSaIcED1Ev(ptr noundef nonnull align 1 dereferenceable(1) %ref.tmp868) #3
  br label %return

lpad869:                                          ; preds = %sw.bb867
  %652 = landingpad { ptr, i32 }
          cleanup
  %653 = extractvalue { ptr, i32 } %652, 0
  store ptr %653, ptr %exn.slot, align 8
  %654 = extractvalue { ptr, i32 } %652, 1
  store i32 %654, ptr %ehselector.slot, align 4
  call void @_ZNSaIcED1Ev(ptr noundef nonnull align 1 dereferenceable(1) %ref.tmp868) #3
  br label %eh.resume

sw.bb871:                                         ; preds = %entry
  call void @_ZNSaIcEC1Ev(ptr noundef nonnull align 1 dereferenceable(1) %ref.tmp872) #3
  invoke void @_ZNSt7__cxx1112basic_stringIcSt11char_traitsIcESaIcEEC2IS3_EEPKcRKS3_(ptr noundef nonnull align 8 dereferenceable(32) %agg.result, ptr noundef @.str.293, ptr noundef nonnull align 1 dereferenceable(1) %ref.tmp872)
          to label %invoke.cont874 unwind label %lpad873

invoke.cont874:                                   ; preds = %sw.bb871
  call void @_ZNSaIcED1Ev(ptr noundef nonnull align 1 dereferenceable(1) %ref.tmp872) #3
  br label %return

lpad873:                                          ; preds = %sw.bb871
  %655 = landingpad { ptr, i32 }
          cleanup
  %656 = extractvalue { ptr, i32 } %655, 0
  store ptr %656, ptr %exn.slot, align 8
  %657 = extractvalue { ptr, i32 } %655, 1
  store i32 %657, ptr %ehselector.slot, align 4
  call void @_ZNSaIcED1Ev(ptr noundef nonnull align 1 dereferenceable(1) %ref.tmp872) #3
  br label %eh.resume

sw.bb875:                                         ; preds = %entry
  call void @_ZNSaIcEC1Ev(ptr noundef nonnull align 1 dereferenceable(1) %ref.tmp876) #3
  invoke void @_ZNSt7__cxx1112basic_stringIcSt11char_traitsIcESaIcEEC2IS3_EEPKcRKS3_(ptr noundef nonnull align 8 dereferenceable(32) %agg.result, ptr noundef @.str.294, ptr noundef nonnull align 1 dereferenceable(1) %ref.tmp876)
          to label %invoke.cont878 unwind label %lpad877

invoke.cont878:                                   ; preds = %sw.bb875
  call void @_ZNSaIcED1Ev(ptr noundef nonnull align 1 dereferenceable(1) %ref.tmp876) #3
  br label %return

lpad877:                                          ; preds = %sw.bb875
  %658 = landingpad { ptr, i32 }
          cleanup
  %659 = extractvalue { ptr, i32 } %658, 0
  store ptr %659, ptr %exn.slot, align 8
  %660 = extractvalue { ptr, i32 } %658, 1
  store i32 %660, ptr %ehselector.slot, align 4
  call void @_ZNSaIcED1Ev(ptr noundef nonnull align 1 dereferenceable(1) %ref.tmp876) #3
  br label %eh.resume

sw.bb879:                                         ; preds = %entry
  call void @_ZNSaIcEC1Ev(ptr noundef nonnull align 1 dereferenceable(1) %ref.tmp880) #3
  invoke void @_ZNSt7__cxx1112basic_stringIcSt11char_traitsIcESaIcEEC2IS3_EEPKcRKS3_(ptr noundef nonnull align 8 dereferenceable(32) %agg.result, ptr noundef @.str.295, ptr noundef nonnull align 1 dereferenceable(1) %ref.tmp880)
          to label %invoke.cont882 unwind label %lpad881

invoke.cont882:                                   ; preds = %sw.bb879
  call void @_ZNSaIcED1Ev(ptr noundef nonnull align 1 dereferenceable(1) %ref.tmp880) #3
  br label %return

lpad881:                                          ; preds = %sw.bb879
  %661 = landingpad { ptr, i32 }
          cleanup
  %662 = extractvalue { ptr, i32 } %661, 0
  store ptr %662, ptr %exn.slot, align 8
  %663 = extractvalue { ptr, i32 } %661, 1
  store i32 %663, ptr %ehselector.slot, align 4
  call void @_ZNSaIcED1Ev(ptr noundef nonnull align 1 dereferenceable(1) %ref.tmp880) #3
  br label %eh.resume

sw.bb883:                                         ; preds = %entry
  call void @_ZNSaIcEC1Ev(ptr noundef nonnull align 1 dereferenceable(1) %ref.tmp884) #3
  invoke void @_ZNSt7__cxx1112basic_stringIcSt11char_traitsIcESaIcEEC2IS3_EEPKcRKS3_(ptr noundef nonnull align 8 dereferenceable(32) %agg.result, ptr noundef @.str.296, ptr noundef nonnull align 1 dereferenceable(1) %ref.tmp884)
          to label %invoke.cont886 unwind label %lpad885

invoke.cont886:                                   ; preds = %sw.bb883
  call void @_ZNSaIcED1Ev(ptr noundef nonnull align 1 dereferenceable(1) %ref.tmp884) #3
  br label %return

lpad885:                                          ; preds = %sw.bb883
  %664 = landingpad { ptr, i32 }
          cleanup
  %665 = extractvalue { ptr, i32 } %664, 0
  store ptr %665, ptr %exn.slot, align 8
  %666 = extractvalue { ptr, i32 } %664, 1
  store i32 %666, ptr %ehselector.slot, align 4
  call void @_ZNSaIcED1Ev(ptr noundef nonnull align 1 dereferenceable(1) %ref.tmp884) #3
  br label %eh.resume

sw.bb887:                                         ; preds = %entry
  call void @_ZNSaIcEC1Ev(ptr noundef nonnull align 1 dereferenceable(1) %ref.tmp888) #3
  invoke void @_ZNSt7__cxx1112basic_stringIcSt11char_traitsIcESaIcEEC2IS3_EEPKcRKS3_(ptr noundef nonnull align 8 dereferenceable(32) %agg.result, ptr noundef @.str.297, ptr noundef nonnull align 1 dereferenceable(1) %ref.tmp888)
          to label %invoke.cont890 unwind label %lpad889

invoke.cont890:                                   ; preds = %sw.bb887
  call void @_ZNSaIcED1Ev(ptr noundef nonnull align 1 dereferenceable(1) %ref.tmp888) #3
  br label %return

lpad889:                                          ; preds = %sw.bb887
  %667 = landingpad { ptr, i32 }
          cleanup
  %668 = extractvalue { ptr, i32 } %667, 0
  store ptr %668, ptr %exn.slot, align 8
  %669 = extractvalue { ptr, i32 } %667, 1
  store i32 %669, ptr %ehselector.slot, align 4
  call void @_ZNSaIcED1Ev(ptr noundef nonnull align 1 dereferenceable(1) %ref.tmp888) #3
  br label %eh.resume

sw.bb891:                                         ; preds = %entry
  call void @_ZNSaIcEC1Ev(ptr noundef nonnull align 1 dereferenceable(1) %ref.tmp892) #3
  invoke void @_ZNSt7__cxx1112basic_stringIcSt11char_traitsIcESaIcEEC2IS3_EEPKcRKS3_(ptr noundef nonnull align 8 dereferenceable(32) %agg.result, ptr noundef @.str.298, ptr noundef nonnull align 1 dereferenceable(1) %ref.tmp892)
          to label %invoke.cont894 unwind label %lpad893

invoke.cont894:                                   ; preds = %sw.bb891
  call void @_ZNSaIcED1Ev(ptr noundef nonnull align 1 dereferenceable(1) %ref.tmp892) #3
  br label %return

lpad893:                                          ; preds = %sw.bb891
  %670 = landingpad { ptr, i32 }
          cleanup
  %671 = extractvalue { ptr, i32 } %670, 0
  store ptr %671, ptr %exn.slot, align 8
  %672 = extractvalue { ptr, i32 } %670, 1
  store i32 %672, ptr %ehselector.slot, align 4
  call void @_ZNSaIcED1Ev(ptr noundef nonnull align 1 dereferenceable(1) %ref.tmp892) #3
  br label %eh.resume

sw.bb895:                                         ; preds = %entry
  call void @_ZNSaIcEC1Ev(ptr noundef nonnull align 1 dereferenceable(1) %ref.tmp896) #3
  invoke void @_ZNSt7__cxx1112basic_stringIcSt11char_traitsIcESaIcEEC2IS3_EEPKcRKS3_(ptr noundef nonnull align 8 dereferenceable(32) %agg.result, ptr noundef @.str.299, ptr noundef nonnull align 1 dereferenceable(1) %ref.tmp896)
          to label %invoke.cont898 unwind label %lpad897

invoke.cont898:                                   ; preds = %sw.bb895
  call void @_ZNSaIcED1Ev(ptr noundef nonnull align 1 dereferenceable(1) %ref.tmp896) #3
  br label %return

lpad897:                                          ; preds = %sw.bb895
  %673 = landingpad { ptr, i32 }
          cleanup
  %674 = extractvalue { ptr, i32 } %673, 0
  store ptr %674, ptr %exn.slot, align 8
  %675 = extractvalue { ptr, i32 } %673, 1
  store i32 %675, ptr %ehselector.slot, align 4
  call void @_ZNSaIcED1Ev(ptr noundef nonnull align 1 dereferenceable(1) %ref.tmp896) #3
  br label %eh.resume

sw.bb899:                                         ; preds = %entry
  call void @_ZNSaIcEC1Ev(ptr noundef nonnull align 1 dereferenceable(1) %ref.tmp900) #3
  invoke void @_ZNSt7__cxx1112basic_stringIcSt11char_traitsIcESaIcEEC2IS3_EEPKcRKS3_(ptr noundef nonnull align 8 dereferenceable(32) %agg.result, ptr noundef @.str.300, ptr noundef nonnull align 1 dereferenceable(1) %ref.tmp900)
          to label %invoke.cont902 unwind label %lpad901

invoke.cont902:                                   ; preds = %sw.bb899
  call void @_ZNSaIcED1Ev(ptr noundef nonnull align 1 dereferenceable(1) %ref.tmp900) #3
  br label %return

lpad901:                                          ; preds = %sw.bb899
  %676 = landingpad { ptr, i32 }
          cleanup
  %677 = extractvalue { ptr, i32 } %676, 0
  store ptr %677, ptr %exn.slot, align 8
  %678 = extractvalue { ptr, i32 } %676, 1
  store i32 %678, ptr %ehselector.slot, align 4
  call void @_ZNSaIcED1Ev(ptr noundef nonnull align 1 dereferenceable(1) %ref.tmp900) #3
  br label %eh.resume

sw.bb903:                                         ; preds = %entry
  call void @_ZNSaIcEC1Ev(ptr noundef nonnull align 1 dereferenceable(1) %ref.tmp904) #3
  invoke void @_ZNSt7__cxx1112basic_stringIcSt11char_traitsIcESaIcEEC2IS3_EEPKcRKS3_(ptr noundef nonnull align 8 dereferenceable(32) %agg.result, ptr noundef @.str.301, ptr noundef nonnull align 1 dereferenceable(1) %ref.tmp904)
          to label %invoke.cont906 unwind label %lpad905

invoke.cont906:                                   ; preds = %sw.bb903
  call void @_ZNSaIcED1Ev(ptr noundef nonnull align 1 dereferenceable(1) %ref.tmp904) #3
  br label %return

lpad905:                                          ; preds = %sw.bb903
  %679 = landingpad { ptr, i32 }
          cleanup
  %680 = extractvalue { ptr, i32 } %679, 0
  store ptr %680, ptr %exn.slot, align 8
  %681 = extractvalue { ptr, i32 } %679, 1
  store i32 %681, ptr %ehselector.slot, align 4
  call void @_ZNSaIcED1Ev(ptr noundef nonnull align 1 dereferenceable(1) %ref.tmp904) #3
  br label %eh.resume

sw.bb907:                                         ; preds = %entry
  call void @_ZNSaIcEC1Ev(ptr noundef nonnull align 1 dereferenceable(1) %ref.tmp908) #3
  invoke void @_ZNSt7__cxx1112basic_stringIcSt11char_traitsIcESaIcEEC2IS3_EEPKcRKS3_(ptr noundef nonnull align 8 dereferenceable(32) %agg.result, ptr noundef @.str.302, ptr noundef nonnull align 1 dereferenceable(1) %ref.tmp908)
          to label %invoke.cont910 unwind label %lpad909

invoke.cont910:                                   ; preds = %sw.bb907
  call void @_ZNSaIcED1Ev(ptr noundef nonnull align 1 dereferenceable(1) %ref.tmp908) #3
  br label %return

lpad909:                                          ; preds = %sw.bb907
  %682 = landingpad { ptr, i32 }
          cleanup
  %683 = extractvalue { ptr, i32 } %682, 0
  store ptr %683, ptr %exn.slot, align 8
  %684 = extractvalue { ptr, i32 } %682, 1
  store i32 %684, ptr %ehselector.slot, align 4
  call void @_ZNSaIcED1Ev(ptr noundef nonnull align 1 dereferenceable(1) %ref.tmp908) #3
  br label %eh.resume

sw.bb911:                                         ; preds = %entry
  call void @_ZNSaIcEC1Ev(ptr noundef nonnull align 1 dereferenceable(1) %ref.tmp912) #3
  invoke void @_ZNSt7__cxx1112basic_stringIcSt11char_traitsIcESaIcEEC2IS3_EEPKcRKS3_(ptr noundef nonnull align 8 dereferenceable(32) %agg.result, ptr noundef @.str.303, ptr noundef nonnull align 1 dereferenceable(1) %ref.tmp912)
          to label %invoke.cont914 unwind label %lpad913

invoke.cont914:                                   ; preds = %sw.bb911
  call void @_ZNSaIcED1Ev(ptr noundef nonnull align 1 dereferenceable(1) %ref.tmp912) #3
  br label %return

lpad913:                                          ; preds = %sw.bb911
  %685 = landingpad { ptr, i32 }
          cleanup
  %686 = extractvalue { ptr, i32 } %685, 0
  store ptr %686, ptr %exn.slot, align 8
  %687 = extractvalue { ptr, i32 } %685, 1
  store i32 %687, ptr %ehselector.slot, align 4
  call void @_ZNSaIcED1Ev(ptr noundef nonnull align 1 dereferenceable(1) %ref.tmp912) #3
  br label %eh.resume

sw.bb915:                                         ; preds = %entry
  call void @_ZNSaIcEC1Ev(ptr noundef nonnull align 1 dereferenceable(1) %ref.tmp916) #3
  invoke void @_ZNSt7__cxx1112basic_stringIcSt11char_traitsIcESaIcEEC2IS3_EEPKcRKS3_(ptr noundef nonnull align 8 dereferenceable(32) %agg.result, ptr noundef @.str.304, ptr noundef nonnull align 1 dereferenceable(1) %ref.tmp916)
          to label %invoke.cont918 unwind label %lpad917

invoke.cont918:                                   ; preds = %sw.bb915
  call void @_ZNSaIcED1Ev(ptr noundef nonnull align 1 dereferenceable(1) %ref.tmp916) #3
  br label %return

lpad917:                                          ; preds = %sw.bb915
  %688 = landingpad { ptr, i32 }
          cleanup
  %689 = extractvalue { ptr, i32 } %688, 0
  store ptr %689, ptr %exn.slot, align 8
  %690 = extractvalue { ptr, i32 } %688, 1
  store i32 %690, ptr %ehselector.slot, align 4
  call void @_ZNSaIcED1Ev(ptr noundef nonnull align 1 dereferenceable(1) %ref.tmp916) #3
  br label %eh.resume

sw.bb919:                                         ; preds = %entry
  call void @_ZNSaIcEC1Ev(ptr noundef nonnull align 1 dereferenceable(1) %ref.tmp920) #3
  invoke void @_ZNSt7__cxx1112basic_stringIcSt11char_traitsIcESaIcEEC2IS3_EEPKcRKS3_(ptr noundef nonnull align 8 dereferenceable(32) %agg.result, ptr noundef @.str.305, ptr noundef nonnull align 1 dereferenceable(1) %ref.tmp920)
          to label %invoke.cont922 unwind label %lpad921

invoke.cont922:                                   ; preds = %sw.bb919
  call void @_ZNSaIcED1Ev(ptr noundef nonnull align 1 dereferenceable(1) %ref.tmp920) #3
  br label %return

lpad921:                                          ; preds = %sw.bb919
  %691 = landingpad { ptr, i32 }
          cleanup
  %692 = extractvalue { ptr, i32 } %691, 0
  store ptr %692, ptr %exn.slot, align 8
  %693 = extractvalue { ptr, i32 } %691, 1
  store i32 %693, ptr %ehselector.slot, align 4
  call void @_ZNSaIcED1Ev(ptr noundef nonnull align 1 dereferenceable(1) %ref.tmp920) #3
  br label %eh.resume

sw.bb923:                                         ; preds = %entry
  call void @_ZNSaIcEC1Ev(ptr noundef nonnull align 1 dereferenceable(1) %ref.tmp924) #3
  invoke void @_ZNSt7__cxx1112basic_stringIcSt11char_traitsIcESaIcEEC2IS3_EEPKcRKS3_(ptr noundef nonnull align 8 dereferenceable(32) %agg.result, ptr noundef @.str.306, ptr noundef nonnull align 1 dereferenceable(1) %ref.tmp924)
          to label %invoke.cont926 unwind label %lpad925

invoke.cont926:                                   ; preds = %sw.bb923
  call void @_ZNSaIcED1Ev(ptr noundef nonnull align 1 dereferenceable(1) %ref.tmp924) #3
  br label %return

lpad925:                                          ; preds = %sw.bb923
  %694 = landingpad { ptr, i32 }
          cleanup
  %695 = extractvalue { ptr, i32 } %694, 0
  store ptr %695, ptr %exn.slot, align 8
  %696 = extractvalue { ptr, i32 } %694, 1
  store i32 %696, ptr %ehselector.slot, align 4
  call void @_ZNSaIcED1Ev(ptr noundef nonnull align 1 dereferenceable(1) %ref.tmp924) #3
  br label %eh.resume

sw.bb927:                                         ; preds = %entry
  call void @_ZNSaIcEC1Ev(ptr noundef nonnull align 1 dereferenceable(1) %ref.tmp928) #3
  invoke void @_ZNSt7__cxx1112basic_stringIcSt11char_traitsIcESaIcEEC2IS3_EEPKcRKS3_(ptr noundef nonnull align 8 dereferenceable(32) %agg.result, ptr noundef @.str.307, ptr noundef nonnull align 1 dereferenceable(1) %ref.tmp928)
          to label %invoke.cont930 unwind label %lpad929

invoke.cont930:                                   ; preds = %sw.bb927
  call void @_ZNSaIcED1Ev(ptr noundef nonnull align 1 dereferenceable(1) %ref.tmp928) #3
  br label %return

lpad929:                                          ; preds = %sw.bb927
  %697 = landingpad { ptr, i32 }
          cleanup
  %698 = extractvalue { ptr, i32 } %697, 0
  store ptr %698, ptr %exn.slot, align 8
  %699 = extractvalue { ptr, i32 } %697, 1
  store i32 %699, ptr %ehselector.slot, align 4
  call void @_ZNSaIcED1Ev(ptr noundef nonnull align 1 dereferenceable(1) %ref.tmp928) #3
  br label %eh.resume

sw.bb931:                                         ; preds = %entry
  call void @_ZNSaIcEC1Ev(ptr noundef nonnull align 1 dereferenceable(1) %ref.tmp932) #3
  invoke void @_ZNSt7__cxx1112basic_stringIcSt11char_traitsIcESaIcEEC2IS3_EEPKcRKS3_(ptr noundef nonnull align 8 dereferenceable(32) %agg.result, ptr noundef @.str.308, ptr noundef nonnull align 1 dereferenceable(1) %ref.tmp932)
          to label %invoke.cont934 unwind label %lpad933

invoke.cont934:                                   ; preds = %sw.bb931
  call void @_ZNSaIcED1Ev(ptr noundef nonnull align 1 dereferenceable(1) %ref.tmp932) #3
  br label %return

lpad933:                                          ; preds = %sw.bb931
  %700 = landingpad { ptr, i32 }
          cleanup
  %701 = extractvalue { ptr, i32 } %700, 0
  store ptr %701, ptr %exn.slot, align 8
  %702 = extractvalue { ptr, i32 } %700, 1
  store i32 %702, ptr %ehselector.slot, align 4
  call void @_ZNSaIcED1Ev(ptr noundef nonnull align 1 dereferenceable(1) %ref.tmp932) #3
  br label %eh.resume

sw.bb935:                                         ; preds = %entry
  call void @_ZNSaIcEC1Ev(ptr noundef nonnull align 1 dereferenceable(1) %ref.tmp936) #3
  invoke void @_ZNSt7__cxx1112basic_stringIcSt11char_traitsIcESaIcEEC2IS3_EEPKcRKS3_(ptr noundef nonnull align 8 dereferenceable(32) %agg.result, ptr noundef @.str.309, ptr noundef nonnull align 1 dereferenceable(1) %ref.tmp936)
          to label %invoke.cont938 unwind label %lpad937

invoke.cont938:                                   ; preds = %sw.bb935
  call void @_ZNSaIcED1Ev(ptr noundef nonnull align 1 dereferenceable(1) %ref.tmp936) #3
  br label %return

lpad937:                                          ; preds = %sw.bb935
  %703 = landingpad { ptr, i32 }
          cleanup
  %704 = extractvalue { ptr, i32 } %703, 0
  store ptr %704, ptr %exn.slot, align 8
  %705 = extractvalue { ptr, i32 } %703, 1
  store i32 %705, ptr %ehselector.slot, align 4
  call void @_ZNSaIcED1Ev(ptr noundef nonnull align 1 dereferenceable(1) %ref.tmp936) #3
  br label %eh.resume

sw.bb939:                                         ; preds = %entry
  call void @_ZNSaIcEC1Ev(ptr noundef nonnull align 1 dereferenceable(1) %ref.tmp940) #3
  invoke void @_ZNSt7__cxx1112basic_stringIcSt11char_traitsIcESaIcEEC2IS3_EEPKcRKS3_(ptr noundef nonnull align 8 dereferenceable(32) %agg.result, ptr noundef @.str.310, ptr noundef nonnull align 1 dereferenceable(1) %ref.tmp940)
          to label %invoke.cont942 unwind label %lpad941

invoke.cont942:                                   ; preds = %sw.bb939
  call void @_ZNSaIcED1Ev(ptr noundef nonnull align 1 dereferenceable(1) %ref.tmp940) #3
  br label %return

lpad941:                                          ; preds = %sw.bb939
  %706 = landingpad { ptr, i32 }
          cleanup
  %707 = extractvalue { ptr, i32 } %706, 0
  store ptr %707, ptr %exn.slot, align 8
  %708 = extractvalue { ptr, i32 } %706, 1
  store i32 %708, ptr %ehselector.slot, align 4
  call void @_ZNSaIcED1Ev(ptr noundef nonnull align 1 dereferenceable(1) %ref.tmp940) #3
  br label %eh.resume

sw.bb943:                                         ; preds = %entry
  call void @_ZNSaIcEC1Ev(ptr noundef nonnull align 1 dereferenceable(1) %ref.tmp944) #3
  invoke void @_ZNSt7__cxx1112basic_stringIcSt11char_traitsIcESaIcEEC2IS3_EEPKcRKS3_(ptr noundef nonnull align 8 dereferenceable(32) %agg.result, ptr noundef @.str.311, ptr noundef nonnull align 1 dereferenceable(1) %ref.tmp944)
          to label %invoke.cont946 unwind label %lpad945

invoke.cont946:                                   ; preds = %sw.bb943
  call void @_ZNSaIcED1Ev(ptr noundef nonnull align 1 dereferenceable(1) %ref.tmp944) #3
  br label %return

lpad945:                                          ; preds = %sw.bb943
  %709 = landingpad { ptr, i32 }
          cleanup
  %710 = extractvalue { ptr, i32 } %709, 0
  store ptr %710, ptr %exn.slot, align 8
  %711 = extractvalue { ptr, i32 } %709, 1
  store i32 %711, ptr %ehselector.slot, align 4
  call void @_ZNSaIcED1Ev(ptr noundef nonnull align 1 dereferenceable(1) %ref.tmp944) #3
  br label %eh.resume

sw.bb947:                                         ; preds = %entry
  call void @_ZNSaIcEC1Ev(ptr noundef nonnull align 1 dereferenceable(1) %ref.tmp948) #3
  invoke void @_ZNSt7__cxx1112basic_stringIcSt11char_traitsIcESaIcEEC2IS3_EEPKcRKS3_(ptr noundef nonnull align 8 dereferenceable(32) %agg.result, ptr noundef @.str.312, ptr noundef nonnull align 1 dereferenceable(1) %ref.tmp948)
          to label %invoke.cont950 unwind label %lpad949

invoke.cont950:                                   ; preds = %sw.bb947
  call void @_ZNSaIcED1Ev(ptr noundef nonnull align 1 dereferenceable(1) %ref.tmp948) #3
  br label %return

lpad949:                                          ; preds = %sw.bb947
  %712 = landingpad { ptr, i32 }
          cleanup
  %713 = extractvalue { ptr, i32 } %712, 0
  store ptr %713, ptr %exn.slot, align 8
  %714 = extractvalue { ptr, i32 } %712, 1
  store i32 %714, ptr %ehselector.slot, align 4
  call void @_ZNSaIcED1Ev(ptr noundef nonnull align 1 dereferenceable(1) %ref.tmp948) #3
  br label %eh.resume

sw.bb951:                                         ; preds = %entry
  call void @_ZNSaIcEC1Ev(ptr noundef nonnull align 1 dereferenceable(1) %ref.tmp952) #3
  invoke void @_ZNSt7__cxx1112basic_stringIcSt11char_traitsIcESaIcEEC2IS3_EEPKcRKS3_(ptr noundef nonnull align 8 dereferenceable(32) %agg.result, ptr noundef @.str.313, ptr noundef nonnull align 1 dereferenceable(1) %ref.tmp952)
          to label %invoke.cont954 unwind label %lpad953

invoke.cont954:                                   ; preds = %sw.bb951
  call void @_ZNSaIcED1Ev(ptr noundef nonnull align 1 dereferenceable(1) %ref.tmp952) #3
  br label %return

lpad953:                                          ; preds = %sw.bb951
  %715 = landingpad { ptr, i32 }
          cleanup
  %716 = extractvalue { ptr, i32 } %715, 0
  store ptr %716, ptr %exn.slot, align 8
  %717 = extractvalue { ptr, i32 } %715, 1
  store i32 %717, ptr %ehselector.slot, align 4
  call void @_ZNSaIcED1Ev(ptr noundef nonnull align 1 dereferenceable(1) %ref.tmp952) #3
  br label %eh.resume

sw.bb955:                                         ; preds = %entry
  call void @_ZNSaIcEC1Ev(ptr noundef nonnull align 1 dereferenceable(1) %ref.tmp956) #3
  invoke void @_ZNSt7__cxx1112basic_stringIcSt11char_traitsIcESaIcEEC2IS3_EEPKcRKS3_(ptr noundef nonnull align 8 dereferenceable(32) %agg.result, ptr noundef @.str.314, ptr noundef nonnull align 1 dereferenceable(1) %ref.tmp956)
          to label %invoke.cont958 unwind label %lpad957

invoke.cont958:                                   ; preds = %sw.bb955
  call void @_ZNSaIcED1Ev(ptr noundef nonnull align 1 dereferenceable(1) %ref.tmp956) #3
  br label %return

lpad957:                                          ; preds = %sw.bb955
  %718 = landingpad { ptr, i32 }
          cleanup
  %719 = extractvalue { ptr, i32 } %718, 0
  store ptr %719, ptr %exn.slot, align 8
  %720 = extractvalue { ptr, i32 } %718, 1
  store i32 %720, ptr %ehselector.slot, align 4
  call void @_ZNSaIcED1Ev(ptr noundef nonnull align 1 dereferenceable(1) %ref.tmp956) #3
  br label %eh.resume

sw.bb959:                                         ; preds = %entry
  call void @_ZNSaIcEC1Ev(ptr noundef nonnull align 1 dereferenceable(1) %ref.tmp960) #3
  invoke void @_ZNSt7__cxx1112basic_stringIcSt11char_traitsIcESaIcEEC2IS3_EEPKcRKS3_(ptr noundef nonnull align 8 dereferenceable(32) %agg.result, ptr noundef @.str.315, ptr noundef nonnull align 1 dereferenceable(1) %ref.tmp960)
          to label %invoke.cont962 unwind label %lpad961

invoke.cont962:                                   ; preds = %sw.bb959
  call void @_ZNSaIcED1Ev(ptr noundef nonnull align 1 dereferenceable(1) %ref.tmp960) #3
  br label %return

lpad961:                                          ; preds = %sw.bb959
  %721 = landingpad { ptr, i32 }
          cleanup
  %722 = extractvalue { ptr, i32 } %721, 0
  store ptr %722, ptr %exn.slot, align 8
  %723 = extractvalue { ptr, i32 } %721, 1
  store i32 %723, ptr %ehselector.slot, align 4
  call void @_ZNSaIcED1Ev(ptr noundef nonnull align 1 dereferenceable(1) %ref.tmp960) #3
  br label %eh.resume

sw.bb963:                                         ; preds = %entry
  call void @_ZNSaIcEC1Ev(ptr noundef nonnull align 1 dereferenceable(1) %ref.tmp964) #3
  invoke void @_ZNSt7__cxx1112basic_stringIcSt11char_traitsIcESaIcEEC2IS3_EEPKcRKS3_(ptr noundef nonnull align 8 dereferenceable(32) %agg.result, ptr noundef @.str.316, ptr noundef nonnull align 1 dereferenceable(1) %ref.tmp964)
          to label %invoke.cont966 unwind label %lpad965

invoke.cont966:                                   ; preds = %sw.bb963
  call void @_ZNSaIcED1Ev(ptr noundef nonnull align 1 dereferenceable(1) %ref.tmp964) #3
  br label %return

lpad965:                                          ; preds = %sw.bb963
  %724 = landingpad { ptr, i32 }
          cleanup
  %725 = extractvalue { ptr, i32 } %724, 0
  store ptr %725, ptr %exn.slot, align 8
  %726 = extractvalue { ptr, i32 } %724, 1
  store i32 %726, ptr %ehselector.slot, align 4
  call void @_ZNSaIcED1Ev(ptr noundef nonnull align 1 dereferenceable(1) %ref.tmp964) #3
  br label %eh.resume

sw.bb967:                                         ; preds = %entry
  call void @_ZNSaIcEC1Ev(ptr noundef nonnull align 1 dereferenceable(1) %ref.tmp968) #3
  invoke void @_ZNSt7__cxx1112basic_stringIcSt11char_traitsIcESaIcEEC2IS3_EEPKcRKS3_(ptr noundef nonnull align 8 dereferenceable(32) %agg.result, ptr noundef @.str.317, ptr noundef nonnull align 1 dereferenceable(1) %ref.tmp968)
          to label %invoke.cont970 unwind label %lpad969

invoke.cont970:                                   ; preds = %sw.bb967
  call void @_ZNSaIcED1Ev(ptr noundef nonnull align 1 dereferenceable(1) %ref.tmp968) #3
  br label %return

lpad969:                                          ; preds = %sw.bb967
  %727 = landingpad { ptr, i32 }
          cleanup
  %728 = extractvalue { ptr, i32 } %727, 0
  store ptr %728, ptr %exn.slot, align 8
  %729 = extractvalue { ptr, i32 } %727, 1
  store i32 %729, ptr %ehselector.slot, align 4
  call void @_ZNSaIcED1Ev(ptr noundef nonnull align 1 dereferenceable(1) %ref.tmp968) #3
  br label %eh.resume

sw.bb971:                                         ; preds = %entry
  call void @_ZNSaIcEC1Ev(ptr noundef nonnull align 1 dereferenceable(1) %ref.tmp972) #3
  invoke void @_ZNSt7__cxx1112basic_stringIcSt11char_traitsIcESaIcEEC2IS3_EEPKcRKS3_(ptr noundef nonnull align 8 dereferenceable(32) %agg.result, ptr noundef @.str.318, ptr noundef nonnull align 1 dereferenceable(1) %ref.tmp972)
          to label %invoke.cont974 unwind label %lpad973

invoke.cont974:                                   ; preds = %sw.bb971
  call void @_ZNSaIcED1Ev(ptr noundef nonnull align 1 dereferenceable(1) %ref.tmp972) #3
  br label %return

lpad973:                                          ; preds = %sw.bb971
  %730 = landingpad { ptr, i32 }
          cleanup
  %731 = extractvalue { ptr, i32 } %730, 0
  store ptr %731, ptr %exn.slot, align 8
  %732 = extractvalue { ptr, i32 } %730, 1
  store i32 %732, ptr %ehselector.slot, align 4
  call void @_ZNSaIcED1Ev(ptr noundef nonnull align 1 dereferenceable(1) %ref.tmp972) #3
  br label %eh.resume

sw.bb975:                                         ; preds = %entry
  call void @_ZNSaIcEC1Ev(ptr noundef nonnull align 1 dereferenceable(1) %ref.tmp976) #3
  invoke void @_ZNSt7__cxx1112basic_stringIcSt11char_traitsIcESaIcEEC2IS3_EEPKcRKS3_(ptr noundef nonnull align 8 dereferenceable(32) %agg.result, ptr noundef @.str.319, ptr noundef nonnull align 1 dereferenceable(1) %ref.tmp976)
          to label %invoke.cont978 unwind label %lpad977

invoke.cont978:                                   ; preds = %sw.bb975
  call void @_ZNSaIcED1Ev(ptr noundef nonnull align 1 dereferenceable(1) %ref.tmp976) #3
  br label %return

lpad977:                                          ; preds = %sw.bb975
  %733 = landingpad { ptr, i32 }
          cleanup
  %734 = extractvalue { ptr, i32 } %733, 0
  store ptr %734, ptr %exn.slot, align 8
  %735 = extractvalue { ptr, i32 } %733, 1
  store i32 %735, ptr %ehselector.slot, align 4
  call void @_ZNSaIcED1Ev(ptr noundef nonnull align 1 dereferenceable(1) %ref.tmp976) #3
  br label %eh.resume

sw.bb979:                                         ; preds = %entry
  call void @_ZNSaIcEC1Ev(ptr noundef nonnull align 1 dereferenceable(1) %ref.tmp980) #3
  invoke void @_ZNSt7__cxx1112basic_stringIcSt11char_traitsIcESaIcEEC2IS3_EEPKcRKS3_(ptr noundef nonnull align 8 dereferenceable(32) %agg.result, ptr noundef @.str.320, ptr noundef nonnull align 1 dereferenceable(1) %ref.tmp980)
          to label %invoke.cont982 unwind label %lpad981

invoke.cont982:                                   ; preds = %sw.bb979
  call void @_ZNSaIcED1Ev(ptr noundef nonnull align 1 dereferenceable(1) %ref.tmp980) #3
  br label %return

lpad981:                                          ; preds = %sw.bb979
  %736 = landingpad { ptr, i32 }
          cleanup
  %737 = extractvalue { ptr, i32 } %736, 0
  store ptr %737, ptr %exn.slot, align 8
  %738 = extractvalue { ptr, i32 } %736, 1
  store i32 %738, ptr %ehselector.slot, align 4
  call void @_ZNSaIcED1Ev(ptr noundef nonnull align 1 dereferenceable(1) %ref.tmp980) #3
  br label %eh.resume

sw.bb983:                                         ; preds = %entry
  call void @_ZNSaIcEC1Ev(ptr noundef nonnull align 1 dereferenceable(1) %ref.tmp984) #3
  invoke void @_ZNSt7__cxx1112basic_stringIcSt11char_traitsIcESaIcEEC2IS3_EEPKcRKS3_(ptr noundef nonnull align 8 dereferenceable(32) %agg.result, ptr noundef @.str.321, ptr noundef nonnull align 1 dereferenceable(1) %ref.tmp984)
          to label %invoke.cont986 unwind label %lpad985

invoke.cont986:                                   ; preds = %sw.bb983
  call void @_ZNSaIcED1Ev(ptr noundef nonnull align 1 dereferenceable(1) %ref.tmp984) #3
  br label %return

lpad985:                                          ; preds = %sw.bb983
  %739 = landingpad { ptr, i32 }
          cleanup
  %740 = extractvalue { ptr, i32 } %739, 0
  store ptr %740, ptr %exn.slot, align 8
  %741 = extractvalue { ptr, i32 } %739, 1
  store i32 %741, ptr %ehselector.slot, align 4
  call void @_ZNSaIcED1Ev(ptr noundef nonnull align 1 dereferenceable(1) %ref.tmp984) #3
  br label %eh.resume

sw.bb987:                                         ; preds = %entry
  call void @_ZNSaIcEC1Ev(ptr noundef nonnull align 1 dereferenceable(1) %ref.tmp988) #3
  invoke void @_ZNSt7__cxx1112basic_stringIcSt11char_traitsIcESaIcEEC2IS3_EEPKcRKS3_(ptr noundef nonnull align 8 dereferenceable(32) %agg.result, ptr noundef @.str.322, ptr noundef nonnull align 1 dereferenceable(1) %ref.tmp988)
          to label %invoke.cont990 unwind label %lpad989

invoke.cont990:                                   ; preds = %sw.bb987
  call void @_ZNSaIcED1Ev(ptr noundef nonnull align 1 dereferenceable(1) %ref.tmp988) #3
  br label %return

lpad989:                                          ; preds = %sw.bb987
  %742 = landingpad { ptr, i32 }
          cleanup
  %743 = extractvalue { ptr, i32 } %742, 0
  store ptr %743, ptr %exn.slot, align 8
  %744 = extractvalue { ptr, i32 } %742, 1
  store i32 %744, ptr %ehselector.slot, align 4
  call void @_ZNSaIcED1Ev(ptr noundef nonnull align 1 dereferenceable(1) %ref.tmp988) #3
  br label %eh.resume

sw.bb991:                                         ; preds = %entry
  call void @_ZNSaIcEC1Ev(ptr noundef nonnull align 1 dereferenceable(1) %ref.tmp992) #3
  invoke void @_ZNSt7__cxx1112basic_stringIcSt11char_traitsIcESaIcEEC2IS3_EEPKcRKS3_(ptr noundef nonnull align 8 dereferenceable(32) %agg.result, ptr noundef @.str.323, ptr noundef nonnull align 1 dereferenceable(1) %ref.tmp992)
          to label %invoke.cont994 unwind label %lpad993

invoke.cont994:                                   ; preds = %sw.bb991
  call void @_ZNSaIcED1Ev(ptr noundef nonnull align 1 dereferenceable(1) %ref.tmp992) #3
  br label %return

lpad993:                                          ; preds = %sw.bb991
  %745 = landingpad { ptr, i32 }
          cleanup
  %746 = extractvalue { ptr, i32 } %745, 0
  store ptr %746, ptr %exn.slot, align 8
  %747 = extractvalue { ptr, i32 } %745, 1
  store i32 %747, ptr %ehselector.slot, align 4
  call void @_ZNSaIcED1Ev(ptr noundef nonnull align 1 dereferenceable(1) %ref.tmp992) #3
  br label %eh.resume

sw.bb995:                                         ; preds = %entry
  call void @_ZNSaIcEC1Ev(ptr noundef nonnull align 1 dereferenceable(1) %ref.tmp996) #3
  invoke void @_ZNSt7__cxx1112basic_stringIcSt11char_traitsIcESaIcEEC2IS3_EEPKcRKS3_(ptr noundef nonnull align 8 dereferenceable(32) %agg.result, ptr noundef @.str.324, ptr noundef nonnull align 1 dereferenceable(1) %ref.tmp996)
          to label %invoke.cont998 unwind label %lpad997

invoke.cont998:                                   ; preds = %sw.bb995
  call void @_ZNSaIcED1Ev(ptr noundef nonnull align 1 dereferenceable(1) %ref.tmp996) #3
  br label %return

lpad997:                                          ; preds = %sw.bb995
  %748 = landingpad { ptr, i32 }
          cleanup
  %749 = extractvalue { ptr, i32 } %748, 0
  store ptr %749, ptr %exn.slot, align 8
  %750 = extractvalue { ptr, i32 } %748, 1
  store i32 %750, ptr %ehselector.slot, align 4
  call void @_ZNSaIcED1Ev(ptr noundef nonnull align 1 dereferenceable(1) %ref.tmp996) #3
  br label %eh.resume

sw.bb999:                                         ; preds = %entry
  call void @_ZNSaIcEC1Ev(ptr noundef nonnull align 1 dereferenceable(1) %ref.tmp1000) #3
  invoke void @_ZNSt7__cxx1112basic_stringIcSt11char_traitsIcESaIcEEC2IS3_EEPKcRKS3_(ptr noundef nonnull align 8 dereferenceable(32) %agg.result, ptr noundef @.str.325, ptr noundef nonnull align 1 dereferenceable(1) %ref.tmp1000)
          to label %invoke.cont1002 unwind label %lpad1001

invoke.cont1002:                                  ; preds = %sw.bb999
  call void @_ZNSaIcED1Ev(ptr noundef nonnull align 1 dereferenceable(1) %ref.tmp1000) #3
  br label %return

lpad1001:                                         ; preds = %sw.bb999
  %751 = landingpad { ptr, i32 }
          cleanup
  %752 = extractvalue { ptr, i32 } %751, 0
  store ptr %752, ptr %exn.slot, align 8
  %753 = extractvalue { ptr, i32 } %751, 1
  store i32 %753, ptr %ehselector.slot, align 4
  call void @_ZNSaIcED1Ev(ptr noundef nonnull align 1 dereferenceable(1) %ref.tmp1000) #3
  br label %eh.resume

sw.bb1003:                                        ; preds = %entry
  call void @_ZNSaIcEC1Ev(ptr noundef nonnull align 1 dereferenceable(1) %ref.tmp1004) #3
  invoke void @_ZNSt7__cxx1112basic_stringIcSt11char_traitsIcESaIcEEC2IS3_EEPKcRKS3_(ptr noundef nonnull align 8 dereferenceable(32) %agg.result, ptr noundef @.str.326, ptr noundef nonnull align 1 dereferenceable(1) %ref.tmp1004)
          to label %invoke.cont1006 unwind label %lpad1005

invoke.cont1006:                                  ; preds = %sw.bb1003
  call void @_ZNSaIcED1Ev(ptr noundef nonnull align 1 dereferenceable(1) %ref.tmp1004) #3
  br label %return

lpad1005:                                         ; preds = %sw.bb1003
  %754 = landingpad { ptr, i32 }
          cleanup
  %755 = extractvalue { ptr, i32 } %754, 0
  store ptr %755, ptr %exn.slot, align 8
  %756 = extractvalue { ptr, i32 } %754, 1
  store i32 %756, ptr %ehselector.slot, align 4
  call void @_ZNSaIcED1Ev(ptr noundef nonnull align 1 dereferenceable(1) %ref.tmp1004) #3
  br label %eh.resume

sw.bb1007:                                        ; preds = %entry
  call void @_ZNSaIcEC1Ev(ptr noundef nonnull align 1 dereferenceable(1) %ref.tmp1008) #3
  invoke void @_ZNSt7__cxx1112basic_stringIcSt11char_traitsIcESaIcEEC2IS3_EEPKcRKS3_(ptr noundef nonnull align 8 dereferenceable(32) %agg.result, ptr noundef @.str.327, ptr noundef nonnull align 1 dereferenceable(1) %ref.tmp1008)
          to label %invoke.cont1010 unwind label %lpad1009

invoke.cont1010:                                  ; preds = %sw.bb1007
  call void @_ZNSaIcED1Ev(ptr noundef nonnull align 1 dereferenceable(1) %ref.tmp1008) #3
  br label %return

lpad1009:                                         ; preds = %sw.bb1007
  %757 = landingpad { ptr, i32 }
          cleanup
  %758 = extractvalue { ptr, i32 } %757, 0
  store ptr %758, ptr %exn.slot, align 8
  %759 = extractvalue { ptr, i32 } %757, 1
  store i32 %759, ptr %ehselector.slot, align 4
  call void @_ZNSaIcED1Ev(ptr noundef nonnull align 1 dereferenceable(1) %ref.tmp1008) #3
  br label %eh.resume

sw.bb1011:                                        ; preds = %entry
  call void @_ZNSaIcEC1Ev(ptr noundef nonnull align 1 dereferenceable(1) %ref.tmp1012) #3
  invoke void @_ZNSt7__cxx1112basic_stringIcSt11char_traitsIcESaIcEEC2IS3_EEPKcRKS3_(ptr noundef nonnull align 8 dereferenceable(32) %agg.result, ptr noundef @.str.328, ptr noundef nonnull align 1 dereferenceable(1) %ref.tmp1012)
          to label %invoke.cont1014 unwind label %lpad1013

invoke.cont1014:                                  ; preds = %sw.bb1011
  call void @_ZNSaIcED1Ev(ptr noundef nonnull align 1 dereferenceable(1) %ref.tmp1012) #3
  br label %return

lpad1013:                                         ; preds = %sw.bb1011
  %760 = landingpad { ptr, i32 }
          cleanup
  %761 = extractvalue { ptr, i32 } %760, 0
  store ptr %761, ptr %exn.slot, align 8
  %762 = extractvalue { ptr, i32 } %760, 1
  store i32 %762, ptr %ehselector.slot, align 4
  call void @_ZNSaIcED1Ev(ptr noundef nonnull align 1 dereferenceable(1) %ref.tmp1012) #3
  br label %eh.resume

sw.bb1015:                                        ; preds = %entry
  call void @_ZNSaIcEC1Ev(ptr noundef nonnull align 1 dereferenceable(1) %ref.tmp1016) #3
  invoke void @_ZNSt7__cxx1112basic_stringIcSt11char_traitsIcESaIcEEC2IS3_EEPKcRKS3_(ptr noundef nonnull align 8 dereferenceable(32) %agg.result, ptr noundef @.str.329, ptr noundef nonnull align 1 dereferenceable(1) %ref.tmp1016)
          to label %invoke.cont1018 unwind label %lpad1017

invoke.cont1018:                                  ; preds = %sw.bb1015
  call void @_ZNSaIcED1Ev(ptr noundef nonnull align 1 dereferenceable(1) %ref.tmp1016) #3
  br label %return

lpad1017:                                         ; preds = %sw.bb1015
  %763 = landingpad { ptr, i32 }
          cleanup
  %764 = extractvalue { ptr, i32 } %763, 0
  store ptr %764, ptr %exn.slot, align 8
  %765 = extractvalue { ptr, i32 } %763, 1
  store i32 %765, ptr %ehselector.slot, align 4
  call void @_ZNSaIcED1Ev(ptr noundef nonnull align 1 dereferenceable(1) %ref.tmp1016) #3
  br label %eh.resume

sw.bb1019:                                        ; preds = %entry
  call void @_ZNSaIcEC1Ev(ptr noundef nonnull align 1 dereferenceable(1) %ref.tmp1020) #3
  invoke void @_ZNSt7__cxx1112basic_stringIcSt11char_traitsIcESaIcEEC2IS3_EEPKcRKS3_(ptr noundef nonnull align 8 dereferenceable(32) %agg.result, ptr noundef @.str.330, ptr noundef nonnull align 1 dereferenceable(1) %ref.tmp1020)
          to label %invoke.cont1022 unwind label %lpad1021

invoke.cont1022:                                  ; preds = %sw.bb1019
  call void @_ZNSaIcED1Ev(ptr noundef nonnull align 1 dereferenceable(1) %ref.tmp1020) #3
  br label %return

lpad1021:                                         ; preds = %sw.bb1019
  %766 = landingpad { ptr, i32 }
          cleanup
  %767 = extractvalue { ptr, i32 } %766, 0
  store ptr %767, ptr %exn.slot, align 8
  %768 = extractvalue { ptr, i32 } %766, 1
  store i32 %768, ptr %ehselector.slot, align 4
  call void @_ZNSaIcED1Ev(ptr noundef nonnull align 1 dereferenceable(1) %ref.tmp1020) #3
  br label %eh.resume

sw.bb1023:                                        ; preds = %entry
  call void @_ZNSaIcEC1Ev(ptr noundef nonnull align 1 dereferenceable(1) %ref.tmp1024) #3
  invoke void @_ZNSt7__cxx1112basic_stringIcSt11char_traitsIcESaIcEEC2IS3_EEPKcRKS3_(ptr noundef nonnull align 8 dereferenceable(32) %agg.result, ptr noundef @.str.331, ptr noundef nonnull align 1 dereferenceable(1) %ref.tmp1024)
          to label %invoke.cont1026 unwind label %lpad1025

invoke.cont1026:                                  ; preds = %sw.bb1023
  call void @_ZNSaIcED1Ev(ptr noundef nonnull align 1 dereferenceable(1) %ref.tmp1024) #3
  br label %return

lpad1025:                                         ; preds = %sw.bb1023
  %769 = landingpad { ptr, i32 }
          cleanup
  %770 = extractvalue { ptr, i32 } %769, 0
  store ptr %770, ptr %exn.slot, align 8
  %771 = extractvalue { ptr, i32 } %769, 1
  store i32 %771, ptr %ehselector.slot, align 4
  call void @_ZNSaIcED1Ev(ptr noundef nonnull align 1 dereferenceable(1) %ref.tmp1024) #3
  br label %eh.resume

sw.bb1027:                                        ; preds = %entry
  call void @_ZNSaIcEC1Ev(ptr noundef nonnull align 1 dereferenceable(1) %ref.tmp1028) #3
  invoke void @_ZNSt7__cxx1112basic_stringIcSt11char_traitsIcESaIcEEC2IS3_EEPKcRKS3_(ptr noundef nonnull align 8 dereferenceable(32) %agg.result, ptr noundef @.str.332, ptr noundef nonnull align 1 dereferenceable(1) %ref.tmp1028)
          to label %invoke.cont1030 unwind label %lpad1029

invoke.cont1030:                                  ; preds = %sw.bb1027
  call void @_ZNSaIcED1Ev(ptr noundef nonnull align 1 dereferenceable(1) %ref.tmp1028) #3
  br label %return

lpad1029:                                         ; preds = %sw.bb1027
  %772 = landingpad { ptr, i32 }
          cleanup
  %773 = extractvalue { ptr, i32 } %772, 0
  store ptr %773, ptr %exn.slot, align 8
  %774 = extractvalue { ptr, i32 } %772, 1
  store i32 %774, ptr %ehselector.slot, align 4
  call void @_ZNSaIcED1Ev(ptr noundef nonnull align 1 dereferenceable(1) %ref.tmp1028) #3
  br label %eh.resume

sw.bb1031:                                        ; preds = %entry
  call void @_ZNSaIcEC1Ev(ptr noundef nonnull align 1 dereferenceable(1) %ref.tmp1032) #3
  invoke void @_ZNSt7__cxx1112basic_stringIcSt11char_traitsIcESaIcEEC2IS3_EEPKcRKS3_(ptr noundef nonnull align 8 dereferenceable(32) %agg.result, ptr noundef @.str.333, ptr noundef nonnull align 1 dereferenceable(1) %ref.tmp1032)
          to label %invoke.cont1034 unwind label %lpad1033

invoke.cont1034:                                  ; preds = %sw.bb1031
  call void @_ZNSaIcED1Ev(ptr noundef nonnull align 1 dereferenceable(1) %ref.tmp1032) #3
  br label %return

lpad1033:                                         ; preds = %sw.bb1031
  %775 = landingpad { ptr, i32 }
          cleanup
  %776 = extractvalue { ptr, i32 } %775, 0
  store ptr %776, ptr %exn.slot, align 8
  %777 = extractvalue { ptr, i32 } %775, 1
  store i32 %777, ptr %ehselector.slot, align 4
  call void @_ZNSaIcED1Ev(ptr noundef nonnull align 1 dereferenceable(1) %ref.tmp1032) #3
  br label %eh.resume

sw.default:                                       ; preds = %entry
  br label %sw.epilog

sw.epilog:                                        ; preds = %sw.default, %sw.bb34, %sw.bb9
  %778 = load i32, ptr %k.addr, align 4
  call void @_ZN4cvc58internal4kind12kindToStringB5cxx11ENS1_6Kind_tE(ptr sret(%"class.std::__cxx11::basic_string") align 8 %agg.result, i32 noundef %778)
  br label %return

return:                                           ; preds = %sw.epilog, %invoke.cont1034, %invoke.cont1030, %invoke.cont1026, %invoke.cont1022, %invoke.cont1018, %invoke.cont1014, %invoke.cont1010, %invoke.cont1006, %invoke.cont1002, %invoke.cont998, %invoke.cont994, %invoke.cont990, %invoke.cont986, %invoke.cont982, %invoke.cont978, %invoke.cont974, %invoke.cont970, %invoke.cont966, %invoke.cont962, %invoke.cont958, %invoke.cont954, %invoke.cont950, %invoke.cont946, %invoke.cont942, %invoke.cont938, %invoke.cont934, %invoke.cont930, %invoke.cont926, %invoke.cont922, %invoke.cont918, %invoke.cont914, %invoke.cont910, %invoke.cont906, %invoke.cont902, %invoke.cont898, %invoke.cont894, %invoke.cont890, %invoke.cont886, %invoke.cont882, %invoke.cont878, %invoke.cont874, %invoke.cont870, %invoke.cont866, %invoke.cont862, %invoke.cont858, %invoke.cont854, %invoke.cont850, %invoke.cont846, %invoke.cont842, %invoke.cont838, %invoke.cont834, %invoke.cont830, %invoke.cont826, %invoke.cont822, %invoke.cont818, %invoke.cont814, %invoke.cont810, %invoke.cont806, %invoke.cont802, %invoke.cont798, %invoke.cont794, %invoke.cont790, %invoke.cont786, %invoke.cont782, %invoke.cont778, %invoke.cont774, %invoke.cont770, %invoke.cont766, %invoke.cont762, %invoke.cont758, %invoke.cont754, %invoke.cont750, %invoke.cont746, %invoke.cont742, %invoke.cont738, %invoke.cont734, %invoke.cont730, %invoke.cont726, %invoke.cont722, %invoke.cont718, %invoke.cont714, %invoke.cont710, %invoke.cont706, %invoke.cont702, %invoke.cont698, %invoke.cont694, %invoke.cont690, %invoke.cont686, %invoke.cont682, %invoke.cont678, %invoke.cont674, %invoke.cont670, %invoke.cont666, %invoke.cont662, %invoke.cont658, %invoke.cont654, %invoke.cont650, %invoke.cont646, %invoke.cont642, %invoke.cont638, %invoke.cont634, %invoke.cont630, %invoke.cont626, %invoke.cont622, %invoke.cont618, %invoke.cont614, %invoke.cont610, %invoke.cont606, %invoke.cont602, %invoke.cont598, %invoke.cont594, %invoke.cont590, %invoke.cont586, %invoke.cont582, %invoke.cont578, %invoke.cont574, %invoke.cont570, %invoke.cont566, %invoke.cont562, %invoke.cont558, %invoke.cont554, %invoke.cont550, %invoke.cont546, %invoke.cont542, %invoke.cont538, %invoke.cont534, %invoke.cont530, %invoke.cont526, %invoke.cont522, %invoke.cont518, %invoke.cont514, %invoke.cont510, %invoke.cont506, %invoke.cont502, %invoke.cont498, %invoke.cont494, %invoke.cont490, %invoke.cont486, %invoke.cont482, %invoke.cont478, %invoke.cont474, %invoke.cont470, %invoke.cont466, %invoke.cont462, %invoke.cont458, %invoke.cont454, %invoke.cont450, %invoke.cont446, %invoke.cont442, %invoke.cont438, %invoke.cont434, %invoke.cont430, %invoke.cont426, %invoke.cont422, %invoke.cont418, %invoke.cont414, %invoke.cont410, %invoke.cont406, %invoke.cont402, %invoke.cont398, %invoke.cont394, %invoke.cont390, %invoke.cont386, %invoke.cont382, %invoke.cont378, %invoke.cont374, %invoke.cont370, %invoke.cont366, %invoke.cont362, %invoke.cont358, %invoke.cont354, %invoke.cont350, %invoke.cont346, %invoke.cont342, %invoke.cont338, %invoke.cont334, %invoke.cont330, %invoke.cont326, %invoke.cont322, %invoke.cont318, %invoke.cont314, %invoke.cont310, %invoke.cont306, %invoke.cont302, %invoke.cont298, %invoke.cont294, %invoke.cont290, %invoke.cont286, %invoke.cont282, %invoke.cont278, %invoke.cont274, %invoke.cont270, %invoke.cont266, %invoke.cont262, %invoke.cont258, %invoke.cont254, %invoke.cont250, %invoke.cont246, %invoke.cont242, %invoke.cont238, %invoke.cont234, %invoke.cont230, %invoke.cont226, %invoke.cont222, %invoke.cont218, %invoke.cont214, %invoke.cont210, %invoke.cont206, %invoke.cont202, %invoke.cont198, %invoke.cont194, %invoke.cont190, %invoke.cont186, %invoke.cont182, %invoke.cont178, %invoke.cont174, %invoke.cont170, %invoke.cont166, %invoke.cont162, %invoke.cont158, %invoke.cont154, %invoke.cont150, %invoke.cont146, %invoke.cont142, %invoke.cont138, %invoke.cont134, %invoke.cont130, %invoke.cont126, %invoke.cont122, %invoke.cont118, %invoke.cont114, %invoke.cont110, %invoke.cont106, %invoke.cont102, %invoke.cont98, %invoke.cont94, %invoke.cont90, %invoke.cont86, %invoke.cont82, %invoke.cont78, %invoke.cont74, %invoke.cont70, %invoke.cont66, %invoke.cont62, %invoke.cont58, %invoke.cont54, %invoke.cont50, %invoke.cont46, %invoke.cont42, %invoke.cont38, %invoke.cont33, %invoke.cont29, %invoke.cont25, %invoke.cont21, %invoke.cont17, %invoke.cont13, %invoke.cont8, %invoke.cont4, %invoke.cont
  ret void

eh.resume:                                        ; preds = %lpad1033, %lpad1029, %lpad1025, %lpad1021, %lpad1017, %lpad1013, %lpad1009, %lpad1005, %lpad1001, %lpad997, %lpad993, %lpad989, %lpad985, %lpad981, %lpad977, %lpad973, %lpad969, %lpad965, %lpad961, %lpad957, %lpad953, %lpad949, %lpad945, %lpad941, %lpad937, %lpad933, %lpad929, %lpad925, %lpad921, %lpad917, %lpad913, %lpad909, %lpad905, %lpad901, %lpad897, %lpad893, %lpad889, %lpad885, %lpad881, %lpad877, %lpad873, %lpad869, %lpad865, %lpad861, %lpad857, %lpad853, %lpad849, %lpad845, %lpad841, %lpad837, %lpad833, %lpad829, %lpad825, %lpad821, %lpad817, %lpad813, %lpad809, %lpad805, %lpad801, %lpad797, %lpad793, %lpad789, %lpad785, %lpad781, %lpad777, %lpad773, %lpad769, %lpad765, %lpad761, %lpad757, %lpad753, %lpad749, %lpad745, %lpad741, %lpad737, %lpad733, %lpad729, %lpad725, %lpad721, %lpad717, %lpad713, %lpad709, %lpad705, %lpad701, %lpad697, %lpad693, %lpad689, %lpad685, %lpad681, %lpad677, %lpad673, %lpad669, %lpad665, %lpad661, %lpad657, %lpad653, %lpad649, %lpad645, %lpad641, %lpad637, %lpad633, %lpad629, %lpad625, %lpad621, %lpad617, %lpad613, %lpad609, %lpad605, %lpad601, %lpad597, %lpad593, %lpad589, %lpad585, %lpad581, %lpad577, %lpad573, %lpad569, %lpad565, %lpad561, %lpad557, %lpad553, %lpad549, %lpad545, %lpad541, %lpad537, %lpad533, %lpad529, %lpad525, %lpad521, %lpad517, %lpad513, %lpad509, %lpad505, %lpad501, %lpad497, %lpad493, %lpad489, %lpad485, %lpad481, %lpad477, %lpad473, %lpad469, %lpad465, %lpad461, %lpad457, %lpad453, %lpad449, %lpad445, %lpad441, %lpad437, %lpad433, %lpad429, %lpad425, %lpad421, %lpad417, %lpad413, %lpad409, %lpad405, %lpad401, %lpad397, %lpad393, %lpad389, %lpad385, %lpad381, %lpad377, %lpad373, %lpad369, %lpad365, %lpad361, %lpad357, %lpad353, %lpad349, %lpad345, %lpad341, %lpad337, %lpad333, %lpad329, %lpad325, %lpad321, %lpad317, %lpad313, %lpad309, %lpad305, %lpad301, %lpad297, %lpad293, %lpad289, %lpad285, %lpad281, %lpad277, %lpad273, %lpad269, %lpad265, %lpad261, %lpad257, %lpad253, %lpad249, %lpad245, %lpad241, %lpad237, %lpad233, %lpad229, %lpad225, %lpad221, %lpad217, %lpad213, %lpad209, %lpad205, %lpad201, %lpad197, %lpad193, %lpad189, %lpad185, %lpad181, %lpad177, %lpad173, %lpad169, %lpad165, %lpad161, %lpad157, %lpad153, %lpad149, %lpad145, %lpad141, %lpad137, %lpad133, %lpad129, %lpad125, %lpad121, %lpad117, %lpad113, %lpad109, %lpad105, %lpad101, %lpad97, %lpad93, %lpad89, %lpad85, %lpad81, %lpad77, %lpad73, %lpad69, %lpad65, %lpad61, %lpad57, %lpad53, %lpad49, %lpad45, %lpad41, %lpad37, %lpad32, %lpad28, %lpad24, %lpad20, %lpad16, %lpad12, %lpad7, %lpad3, %lpad
  %exn = load ptr, ptr %exn.slot, align 8
  %sel = load i32, ptr %ehselector.slot, align 4
  %lpad.val = insertvalue { ptr, i32 } poison, ptr %exn, 0
  %lpad.val1035 = insertvalue { ptr, i32 } %lpad.val, i32 %sel, 1
  resume { ptr, i32 } %lpad.val1035
}

; Function Attrs: mustprogress uwtable
define hidden noundef zeroext i1 @_ZNK4cvc58internal7printer4smt211Smt2Printer12toStreamBaseERSoNS0_12NodeTemplateILb0EEEPKNS0_10LetBindingEi(ptr noundef nonnull align 8 dereferenceable(12) %this, ptr noundef nonnull align 8 dereferenceable(8) %out, ptr noundef %n, ptr noundef %lbind, i32 noundef %toDepth) #4 align 2 personality ptr @__gxx_personality_v0 {
entry:
  %retval = alloca i1, align 1
  %this.addr = alloca ptr, align 8
  %out.addr = alloca ptr, align 8
  %n.indirect_addr = alloca ptr, align 8
  %lbind.addr = alloca ptr, align 8
  %toDepth.addr = alloca i32, align 4
  %nm = alloca ptr, align 8
  %at = alloca ptr, align 8
  %atk = alloca i32, align 4
  %ref.tmp = alloca %"class.std::__cxx11::basic_string", align 8
  %exn.slot = alloca ptr, align 8
  %ehselector.slot = alloca i32, align 4
