target datalayout = "e-m:e-p270:32:32-p271:32:32-p272:64:64-i64:64-i128:128-f80:128-n8:16:32:64-S128"
target triple = "x86_64-unknown-linux-gnu"

%"class.std::ios_base::Init" = type { i8 }
%"struct.std::in_place_index_t" = type { i8 }
%"struct.std::in_place_index_t.311" = type { i8 }
%"struct.std::in_place_index_t.312" = type { i8 }
%"struct.std::in_place_index_t.313" = type { i8 }
%"class.cvc5::internal::StatisticsRegistry" = type { %"class.cvc5::internal::EnvObj", %"class.std::map", %"class.std::unique_ptr" }
%"class.cvc5::internal::EnvObj" = type { ptr, ptr }
%"class.std::map" = type { %"class.std::_Rb_tree" }
%"class.std::_Rb_tree" = type { %"struct.std::_Rb_tree<std::__cxx11::basic_string<char>, std::pair<const std::__cxx11::basic_string<char>, std::unique_ptr<cvc5::internal::StatisticBaseValue>>, std::_Select1st<std::pair<const std::__cxx11::basic_string<char>, std::unique_ptr<cvc5::internal::StatisticBaseValue>>>, std::less<std::__cxx11::basic_string<char>>>::_Rb_tree_impl" }
%"struct.std::_Rb_tree<std::__cxx11::basic_string<char>, std::pair<const std::__cxx11::basic_string<char>, std::unique_ptr<cvc5::internal::StatisticBaseValue>>, std::_Select1st<std::pair<const std::__cxx11::basic_string<char>, std::unique_ptr<cvc5::internal::StatisticBaseValue>>>, std::less<std::__cxx11::basic_string<char>>>::_Rb_tree_impl" = type { %"struct.std::_Rb_tree_key_compare", %"struct.std::_Rb_tree_header" }
%"struct.std::_Rb_tree_key_compare" = type { %"struct.std::less" }
%"struct.std::less" = type { i8 }
%"struct.std::_Rb_tree_header" = type { %"struct.std::_Rb_tree_node_base", i64 }
%"struct.std::_Rb_tree_node_base" = type { i32, ptr, ptr, ptr }
%"class.std::unique_ptr" = type { %"struct.std::__uniq_ptr_data" }
%"struct.std::__uniq_ptr_data" = type { %"class.std::__uniq_ptr_impl" }
%"class.std::__uniq_ptr_impl" = type { %"class.std::tuple" }
%"class.std::tuple" = type { %"struct.std::_Tuple_impl" }
%"struct.std::_Tuple_impl" = type { %"struct.std::_Head_base.1" }
%"struct.std::_Head_base.1" = type { ptr }
%"class.cvc5::internal::AverageStat" = type { ptr }
%"struct.std::_Rb_tree_iterator" = type { ptr }
%"struct.std::pair.262" = type <{ %"struct.std::_Rb_tree_iterator", i8, [7 x i8] }>
%"class.std::unique_ptr.265" = type { %"struct.std::__uniq_ptr_data.266" }
%"struct.std::__uniq_ptr_data.266" = type { %"class.std::__uniq_ptr_impl.267" }
%"class.std::__uniq_ptr_impl.267" = type { %"class.std::tuple.268" }
%"class.std::tuple.268" = type { %"struct.std::_Tuple_impl.269" }
%"struct.std::_Tuple_impl.269" = type { %"struct.std::_Head_base.272" }
%"struct.std::_Head_base.272" = type { ptr }
%"struct.std::pair" = type { %"class.std::__cxx11::basic_string", %"class.std::unique_ptr.5" }
%"class.std::__cxx11::basic_string" = type { %"struct.std::__cxx11::basic_string<char>::_Alloc_hider", i64, %union.anon }
%"struct.std::__cxx11::basic_string<char>::_Alloc_hider" = type { ptr }
%union.anon = type { i64, [8 x i8] }
%"class.std::unique_ptr.5" = type { %"struct.std::__uniq_ptr_data.6" }
%"struct.std::__uniq_ptr_data.6" = type { %"class.std::__uniq_ptr_impl.7" }
%"class.std::__uniq_ptr_impl.7" = type { %"class.std::tuple.8" }
%"class.std::tuple.8" = type { %"struct.std::_Tuple_impl.9" }
%"struct.std::_Tuple_impl.9" = type { %"struct.std::_Head_base.12" }
%"struct.std::_Head_base.12" = type { ptr }
%"struct.cvc5::internal::StatisticBaseValue" = type <{ ptr, i8, [7 x i8] }>
%"class.cvc5::internal::IntStat" = type { %"class.cvc5::internal::ValueStat" }
%"class.cvc5::internal::ValueStat" = type { ptr }
%"class.std::unique_ptr.279" = type { %"struct.std::__uniq_ptr_data.280" }
%"struct.std::__uniq_ptr_data.280" = type { %"class.std::__uniq_ptr_impl.281" }
%"class.std::__uniq_ptr_impl.281" = type { %"class.std::tuple.282" }
%"class.std::tuple.282" = type { %"struct.std::_Tuple_impl.283" }
%"struct.std::_Tuple_impl.283" = type { %"struct.std::_Head_base.286" }
%"struct.std::_Head_base.286" = type { ptr }
%"class.cvc5::internal::TimerStat" = type { ptr }
%"class.std::unique_ptr.291" = type { %"struct.std::__uniq_ptr_data.292" }
%"struct.std::__uniq_ptr_data.292" = type { %"class.std::__uniq_ptr_impl.293" }
%"class.std::__uniq_ptr_impl.293" = type { %"class.std::tuple.294" }
%"class.std::tuple.294" = type { %"struct.std::_Tuple_impl.295" }
%"struct.std::_Tuple_impl.295" = type { %"struct.std::_Head_base.298" }
%"struct.std::_Head_base.298" = type { ptr }
%"class.std::variant" = type { %"struct.std::__detail::__variant::_Variant_base.base", [7 x i8] }
%"struct.std::__detail::__variant::_Variant_base.base" = type { %"struct.std::__detail::__variant::_Move_assign_base.base" }
%"struct.std::__detail::__variant::_Move_assign_base.base" = type { %"struct.std::__detail::__variant::_Copy_assign_base.base" }
%"struct.std::__detail::__variant::_Copy_assign_base.base" = type { %"struct.std::__detail::__variant::_Move_ctor_base.base" }
%"struct.std::__detail::__variant::_Move_ctor_base.base" = type { %"struct.std::__detail::__variant::_Copy_ctor_base.base" }
%"struct.std::__detail::__variant::_Copy_ctor_base.base" = type { %"struct.std::__detail::__variant::_Variant_storage.base" }
%"struct.std::__detail::__variant::_Variant_storage.base" = type <{ %"union.std::__detail::__variant::_Variadic_union", i8 }>
%"union.std::__detail::__variant::_Variadic_union" = type { %"union.std::__detail::__variant::_Variadic_union.228" }
%"union.std::__detail::__variant::_Variadic_union.228" = type { %"struct.std::__detail::__variant::_Uninitialized.229", [40 x i8] }
%"struct.std::__detail::__variant::_Uninitialized.229" = type { double }
%"struct.std::pair.225" = type <{ %"struct.std::_Rb_tree_iterator.227", i8, [7 x i8] }>
%"struct.std::_Rb_tree_iterator.227" = type { ptr }
%"class.cvc5::internal::Options" = type { %"class.std::unique_ptr.13", %"class.std::unique_ptr.21", %"class.std::unique_ptr.29", %"class.std::unique_ptr.37", %"class.std::unique_ptr.45", %"class.std::unique_ptr.53", %"class.std::unique_ptr.61", %"class.std::unique_ptr.69", %"class.std::unique_ptr.77", %"class.std::unique_ptr.85", %"class.std::unique_ptr.93", %"class.std::unique_ptr.101", %"class.std::unique_ptr.109", %"class.std::unique_ptr.117", %"class.std::unique_ptr.125", %"class.std::unique_ptr.133", %"class.std::unique_ptr.141", %"class.std::unique_ptr.149", %"class.std::unique_ptr.157", %"class.std::unique_ptr.165", %"class.std::unique_ptr.173", %"class.std::unique_ptr.181", %"class.std::unique_ptr.189", %"class.std::unique_ptr.197", ptr, ptr, ptr, ptr, ptr, ptr, ptr, ptr, ptr, ptr, ptr, ptr, ptr, ptr, ptr, ptr, ptr, ptr, ptr, ptr, ptr, ptr, ptr, ptr, %"class.std::unique_ptr.205" }
%"class.std::unique_ptr.13" = type { %"struct.std::__uniq_ptr_data.14" }
%"struct.std::__uniq_ptr_data.14" = type { %"class.std::__uniq_ptr_impl.15" }
%"class.std::__uniq_ptr_impl.15" = type { %"class.std::tuple.16" }
%"class.std::tuple.16" = type { %"struct.std::_Tuple_impl.17" }
%"struct.std::_Tuple_impl.17" = type { %"struct.std::_Head_base.20" }
%"struct.std::_Head_base.20" = type { ptr }
%"class.std::unique_ptr.21" = type { %"struct.std::__uniq_ptr_data.22" }
%"struct.std::__uniq_ptr_data.22" = type { %"class.std::__uniq_ptr_impl.23" }
%"class.std::__uniq_ptr_impl.23" = type { %"class.std::tuple.24" }
%"class.std::tuple.24" = type { %"struct.std::_Tuple_impl.25" }
%"struct.std::_Tuple_impl.25" = type { %"struct.std::_Head_base.28" }
%"struct.std::_Head_base.28" = type { ptr }
%"class.std::unique_ptr.29" = type { %"struct.std::__uniq_ptr_data.30" }
%"struct.std::__uniq_ptr_data.30" = type { %"class.std::__uniq_ptr_impl.31" }
%"class.std::__uniq_ptr_impl.31" = type { %"class.std::tuple.32" }
%"class.std::tuple.32" = type { %"struct.std::_Tuple_impl.33" }
%"struct.std::_Tuple_impl.33" = type { %"struct.std::_Head_base.36" }
%"struct.std::_Head_base.36" = type { ptr }
%"class.std::unique_ptr.37" = type { %"struct.std::__uniq_ptr_data.38" }
%"struct.std::__uniq_ptr_data.38" = type { %"class.std::__uniq_ptr_impl.39" }
%"class.std::__uniq_ptr_impl.39" = type { %"class.std::tuple.40" }
%"class.std::tuple.40" = type { %"struct.std::_Tuple_impl.41" }
%"struct.std::_Tuple_impl.41" = type { %"struct.std::_Head_base.44" }
%"struct.std::_Head_base.44" = type { ptr }
%"class.std::unique_ptr.45" = type { %"struct.std::__uniq_ptr_data.46" }
%"struct.std::__uniq_ptr_data.46" = type { %"class.std::__uniq_ptr_impl.47" }
%"class.std::__uniq_ptr_impl.47" = type { %"class.std::tuple.48" }
%"class.std::tuple.48" = type { %"struct.std::_Tuple_impl.49" }
%"struct.std::_Tuple_impl.49" = type { %"struct.std::_Head_base.52" }
%"struct.std::_Head_base.52" = type { ptr }
%"class.std::unique_ptr.53" = type { %"struct.std::__uniq_ptr_data.54" }
%"struct.std::__uniq_ptr_data.54" = type { %"class.std::__uniq_ptr_impl.55" }
%"class.std::__uniq_ptr_impl.55" = type { %"class.std::tuple.56" }
%"class.std::tuple.56" = type { %"struct.std::_Tuple_impl.57" }
%"struct.std::_Tuple_impl.57" = type { %"struct.std::_Head_base.60" }
%"struct.std::_Head_base.60" = type { ptr }
%"class.std::unique_ptr.61" = type { %"struct.std::__uniq_ptr_data.62" }
%"struct.std::__uniq_ptr_data.62" = type { %"class.std::__uniq_ptr_impl.63" }
%"class.std::__uniq_ptr_impl.63" = type { %"class.std::tuple.64" }
%"class.std::tuple.64" = type { %"struct.std::_Tuple_impl.65" }
%"struct.std::_Tuple_impl.65" = type { %"struct.std::_Head_base.68" }
%"struct.std::_Head_base.68" = type { ptr }
%"class.std::unique_ptr.69" = type { %"struct.std::__uniq_ptr_data.70" }
%"struct.std::__uniq_ptr_data.70" = type { %"class.std::__uniq_ptr_impl.71" }
%"class.std::__uniq_ptr_impl.71" = type { %"class.std::tuple.72" }
%"class.std::tuple.72" = type { %"struct.std::_Tuple_impl.73" }
%"struct.std::_Tuple_impl.73" = type { %"struct.std::_Head_base.76" }
%"struct.std::_Head_base.76" = type { ptr }
%"class.std::unique_ptr.77" = type { %"struct.std::__uniq_ptr_data.78" }
%"struct.std::__uniq_ptr_data.78" = type { %"class.std::__uniq_ptr_impl.79" }
%"class.std::__uniq_ptr_impl.79" = type { %"class.std::tuple.80" }
%"class.std::tuple.80" = type { %"struct.std::_Tuple_impl.81" }
%"struct.std::_Tuple_impl.81" = type { %"struct.std::_Head_base.84" }
%"struct.std::_Head_base.84" = type { ptr }
%"class.std::unique_ptr.85" = type { %"struct.std::__uniq_ptr_data.86" }
%"struct.std::__uniq_ptr_data.86" = type { %"class.std::__uniq_ptr_impl.87" }
%"class.std::__uniq_ptr_impl.87" = type { %"class.std::tuple.88" }
%"class.std::tuple.88" = type { %"struct.std::_Tuple_impl.89" }
%"struct.std::_Tuple_impl.89" = type { %"struct.std::_Head_base.92" }
%"struct.std::_Head_base.92" = type { ptr }
%"class.std::unique_ptr.93" = type { %"struct.std::__uniq_ptr_data.94" }
%"struct.std::__uniq_ptr_data.94" = type { %"class.std::__uniq_ptr_impl.95" }
%"class.std::__uniq_ptr_impl.95" = type { %"class.std::tuple.96" }
%"class.std::tuple.96" = type { %"struct.std::_Tuple_impl.97" }
%"struct.std::_Tuple_impl.97" = type { %"struct.std::_Head_base.100" }
%"struct.std::_Head_base.100" = type { ptr }
%"class.std::unique_ptr.101" = type { %"struct.std::__uniq_ptr_data.102" }
%"struct.std::__uniq_ptr_data.102" = type { %"class.std::__uniq_ptr_impl.103" }
%"class.std::__uniq_ptr_impl.103" = type { %"class.std::tuple.104" }
%"class.std::tuple.104" = type { %"struct.std::_Tuple_impl.105" }
%"struct.std::_Tuple_impl.105" = type { %"struct.std::_Head_base.108" }
%"struct.std::_Head_base.108" = type { ptr }
%"class.std::unique_ptr.109" = type { %"struct.std::__uniq_ptr_data.110" }
%"struct.std::__uniq_ptr_data.110" = type { %"class.std::__uniq_ptr_impl.111" }
%"class.std::__uniq_ptr_impl.111" = type { %"class.std::tuple.112" }
%"class.std::tuple.112" = type { %"struct.std::_Tuple_impl.113" }
%"struct.std::_Tuple_impl.113" = type { %"struct.std::_Head_base.116" }
%"struct.std::_Head_base.116" = type { ptr }
%"class.std::unique_ptr.117" = type { %"struct.std::__uniq_ptr_data.118" }
%"struct.std::__uniq_ptr_data.118" = type { %"class.std::__uniq_ptr_impl.119" }
%"class.std::__uniq_ptr_impl.119" = type { %"class.std::tuple.120" }
%"class.std::tuple.120" = type { %"struct.std::_Tuple_impl.121" }
%"struct.std::_Tuple_impl.121" = type { %"struct.std::_Head_base.124" }
%"struct.std::_Head_base.124" = type { ptr }
%"class.std::unique_ptr.125" = type { %"struct.std::__uniq_ptr_data.126" }
%"struct.std::__uniq_ptr_data.126" = type { %"class.std::__uniq_ptr_impl.127" }
%"class.std::__uniq_ptr_impl.127" = type { %"class.std::tuple.128" }
%"class.std::tuple.128" = type { %"struct.std::_Tuple_impl.129" }
%"struct.std::_Tuple_impl.129" = type { %"struct.std::_Head_base.132" }
%"struct.std::_Head_base.132" = type { ptr }
%"class.std::unique_ptr.133" = type { %"struct.std::__uniq_ptr_data.134" }
%"struct.std::__uniq_ptr_data.134" = type { %"class.std::__uniq_ptr_impl.135" }
%"class.std::__uniq_ptr_impl.135" = type { %"class.std::tuple.136" }
%"class.std::tuple.136" = type { %"struct.std::_Tuple_impl.137" }
%"struct.std::_Tuple_impl.137" = type { %"struct.std::_Head_base.140" }
%"struct.std::_Head_base.140" = type { ptr }
%"class.std::unique_ptr.141" = type { %"struct.std::__uniq_ptr_data.142" }
%"struct.std::__uniq_ptr_data.142" = type { %"class.std::__uniq_ptr_impl.143" }
%"class.std::__uniq_ptr_impl.143" = type { %"class.std::tuple.144" }
%"class.std::tuple.144" = type { %"struct.std::_Tuple_impl.145" }
%"struct.std::_Tuple_impl.145" = type { %"struct.std::_Head_base.148" }
%"struct.std::_Head_base.148" = type { ptr }
%"class.std::unique_ptr.149" = type { %"struct.std::__uniq_ptr_data.150" }
%"struct.std::__uniq_ptr_data.150" = type { %"class.std::__uniq_ptr_impl.151" }
%"class.std::__uniq_ptr_impl.151" = type { %"class.std::tuple.152" }
%"class.std::tuple.152" = type { %"struct.std::_Tuple_impl.153" }
%"struct.std::_Tuple_impl.153" = type { %"struct.std::_Head_base.156" }
%"struct.std::_Head_base.156" = type { ptr }
%"class.std::unique_ptr.157" = type { %"struct.std::__uniq_ptr_data.158" }
%"struct.std::__uniq_ptr_data.158" = type { %"class.std::__uniq_ptr_impl.159" }
%"class.std::__uniq_ptr_impl.159" = type { %"class.std::tuple.160" }
%"class.std::tuple.160" = type { %"struct.std::_Tuple_impl.161" }
%"struct.std::_Tuple_impl.161" = type { %"struct.std::_Head_base.164" }
%"struct.std::_Head_base.164" = type { ptr }
%"class.std::unique_ptr.165" = type { %"struct.std::__uniq_ptr_data.166" }
%"struct.std::__uniq_ptr_data.166" = type { %"class.std::__uniq_ptr_impl.167" }
%"class.std::__uniq_ptr_impl.167" = type { %"class.std::tuple.168" }
%"class.std::tuple.168" = type { %"struct.std::_Tuple_impl.169" }
%"struct.std::_Tuple_impl.169" = type { %"struct.std::_Head_base.172" }
%"struct.std::_Head_base.172" = type { ptr }
%"class.std::unique_ptr.173" = type { %"struct.std::__uniq_ptr_data.174" }
%"struct.std::__uniq_ptr_data.174" = type { %"class.std::__uniq_ptr_impl.175" }
%"class.std::__uniq_ptr_impl.175" = type { %"class.std::tuple.176" }
%"class.std::tuple.176" = type { %"struct.std::_Tuple_impl.177" }
%"struct.std::_Tuple_impl.177" = type { %"struct.std::_Head_base.180" }
%"struct.std::_Head_base.180" = type { ptr }
%"class.std::unique_ptr.181" = type { %"struct.std::__uniq_ptr_data.182" }
%"struct.std::__uniq_ptr_data.182" = type { %"class.std::__uniq_ptr_impl.183" }
%"class.std::__uniq_ptr_impl.183" = type { %"class.std::tuple.184" }
%"class.std::tuple.184" = type { %"struct.std::_Tuple_impl.185" }
%"struct.std::_Tuple_impl.185" = type { %"struct.std::_Head_base.188" }
%"struct.std::_Head_base.188" = type { ptr }
%"class.std::unique_ptr.189" = type { %"struct.std::__uniq_ptr_data.190" }
%"struct.std::__uniq_ptr_data.190" = type { %"class.std::__uniq_ptr_impl.191" }
%"class.std::__uniq_ptr_impl.191" = type { %"class.std::tuple.192" }
%"class.std::tuple.192" = type { %"struct.std::_Tuple_impl.193" }
%"struct.std::_Tuple_impl.193" = type { %"struct.std::_Head_base.196" }
%"struct.std::_Head_base.196" = type { ptr }
%"class.std::unique_ptr.197" = type { %"struct.std::__uniq_ptr_data.198" }
%"struct.std::__uniq_ptr_data.198" = type { %"class.std::__uniq_ptr_impl.199" }
%"class.std::__uniq_ptr_impl.199" = type { %"class.std::tuple.200" }
%"class.std::tuple.200" = type { %"struct.std::_Tuple_impl.201" }
%"struct.std::_Tuple_impl.201" = type { %"struct.std::_Head_base.204" }
%"struct.std::_Head_base.204" = type { ptr }
%"class.std::unique_ptr.205" = type { %"struct.std::__uniq_ptr_data.206" }
%"struct.std::__uniq_ptr_data.206" = type { %"class.std::__uniq_ptr_impl.207" }
%"class.std::__uniq_ptr_impl.207" = type { %"class.std::tuple.208" }
%"class.std::tuple.208" = type { %"struct.std::_Tuple_impl.209" }
%"struct.std::_Tuple_impl.209" = type { %"struct.std::_Head_base.212" }
%"struct.std::_Head_base.212" = type { ptr }
%"struct.cvc5::internal::options::HolderBASE" = type <{ %"class.cvc5::internal::ManagedErr", i8, [7 x i8], %"class.cvc5::internal::ManagedIn", i8, i8, i8, i8, i32, i8, [7 x i8], %"class.cvc5::internal::ManagedOut", i8, i8, i8, i8, i8, [3 x i8], i64, i8, [7 x i8], i64, i8, i8, i8, i8, i8, i8, i8, i8, i8, i8, i8, [5 x i8], i64, i8, [7 x i8], i64, i8, [7 x i8], i64, i8, [7 x i8], %"class.std::bitset", i8, [7 x i8], %"class.std::vector", i8, [7 x i8] }>
%"class.cvc5::internal::ManagedErr" = type { %"class.cvc5::internal::ManagedStream" }
%"class.cvc5::internal::ManagedStream" = type { ptr, ptr, %"class.std::shared_ptr", %"class.std::__cxx11::basic_string" }
%"class.std::shared_ptr" = type { %"class.std::__shared_ptr" }
%"class.std::__shared_ptr" = type { ptr, %"class.std::__shared_count" }
%"class.std::__shared_count" = type { ptr }
%"class.cvc5::internal::ManagedIn" = type { %"class.cvc5::internal::ManagedStream.213" }
%"class.cvc5::internal::ManagedStream.213" = type { ptr, ptr, %"class.std::shared_ptr.214", %"class.std::__cxx11::basic_string" }
%"class.std::shared_ptr.214" = type { %"class.std::__shared_ptr.215" }
%"class.std::__shared_ptr.215" = type { ptr, %"class.std::__shared_count" }
%"class.cvc5::internal::ManagedOut" = type { %"class.cvc5::internal::ManagedStream" }
%"class.std::bitset" = type { %"struct.std::_Base_bitset" }
%"struct.std::_Base_bitset" = type { i64 }
%"class.std::vector" = type { %"struct.std::_Vector_base" }
%"struct.std::_Vector_base" = type { %"struct.std::_Vector_base<std::__cxx11::basic_string<char>, std::allocator<std::__cxx11::basic_string<char>>>::_Vector_impl" }
%"struct.std::_Vector_base<std::__cxx11::basic_string<char>, std::allocator<std::__cxx11::basic_string<char>>>::_Vector_impl" = type { %"struct.std::_Vector_base<std::__cxx11::basic_string<char>, std::allocator<std::__cxx11::basic_string<char>>>::_Vector_impl_data" }
%"struct.std::_Vector_base<std::__cxx11::basic_string<char>, std::allocator<std::__cxx11::basic_string<char>>>::_Vector_impl_data" = type { ptr, ptr, ptr }
%"struct.std::pair.303" = type { ptr, ptr }
%"struct.std::_Rb_tree_const_iterator.305" = type { ptr }
%"struct.std::pair.236" = type { %"class.std::__cxx11::basic_string", %"class.std::variant" }
%"struct.std::_Rb_tree_const_iterator" = type { ptr }
%"class.std::map.220" = type { %"class.std::_Rb_tree.221" }
%"class.std::_Rb_tree.221" = type { %"struct.std::_Rb_tree<std::__cxx11::basic_string<char>, std::pair<const std::__cxx11::basic_string<char>, std::variant<long, double, std::__cxx11::basic_string<char>, std::map<std::__cxx11::basic_string<char>, unsigned long>>>, std::_Select1st<std::pair<const std::__cxx11::basic_string<char>, std::variant<long, double, std::__cxx11::basic_string<char>, std::map<std::__cxx11::basic_string<char>, unsigned long>>>>, std::less<std::__cxx11::basic_string<char>>>::_Rb_tree_impl" }
%"struct.std::_Rb_tree<std::__cxx11::basic_string<char>, std::pair<const std::__cxx11::basic_string<char>, std::variant<long, double, std::__cxx11::basic_string<char>, std::map<std::__cxx11::basic_string<char>, unsigned long>>>, std::_Select1st<std::pair<const std::__cxx11::basic_string<char>, std::variant<long, double, std::__cxx11::basic_string<char>, std::map<std::__cxx11::basic_string<char>, unsigned long>>>>, std::less<std::__cxx11::basic_string<char>>>::_Rb_tree_impl" = type { %"struct.std::_Rb_tree_key_compare", %"struct.std::_Rb_tree_header" }
%class.anon.254 = type { ptr, ptr }
%"struct.std::_Rb_tree_node" = type { %"struct.std::_Rb_tree_node_base", %"struct.__gnu_cxx::__aligned_membuf.238" }
%"struct.__gnu_cxx::__aligned_membuf.238" = type { [40 x i8] }
%"struct.std::_Rb_tree_node.241" = type { %"struct.std::_Rb_tree_node_base", %"struct.__gnu_cxx::__aligned_membuf.242" }
%"struct.__gnu_cxx::__aligned_membuf.242" = type { [88 x i8] }
%class.anon = type { i8 }
%"struct.std::__detail::__variant::_Variant_storage" = type <{ %"union.std::__detail::__variant::_Variadic_union", i8, [7 x i8] }>
%class.anon.243 = type { i8 }
%"struct.std::__detail::__variant::_Uninitialized" = type { i64 }
%"struct.std::__detail::__variant::_Uninitialized.231" = type { %"struct.__gnu_cxx::__aligned_membuf" }
%"struct.__gnu_cxx::__aligned_membuf" = type { [32 x i8] }
%"class.std::map.245" = type { %"class.std::_Rb_tree.246" }
%"class.std::_Rb_tree.246" = type { %"struct.std::_Rb_tree<std::__cxx11::basic_string<char>, std::pair<const std::__cxx11::basic_string<char>, unsigned long>, std::_Select1st<std::pair<const std::__cxx11::basic_string<char>, unsigned long>>, std::less<std::__cxx11::basic_string<char>>>::_Rb_tree_impl" }
%"struct.std::_Rb_tree<std::__cxx11::basic_string<char>, std::pair<const std::__cxx11::basic_string<char>, unsigned long>, std::_Select1st<std::pair<const std::__cxx11::basic_string<char>, unsigned long>>, std::less<std::__cxx11::basic_string<char>>>::_Rb_tree_impl" = type { %"struct.std::_Rb_tree_key_compare", %"struct.std::_Rb_tree_header" }
%"struct.std::_Rb_tree_node.250" = type { %"struct.std::_Rb_tree_node_base", %"struct.__gnu_cxx::__aligned_membuf.251" }
%"struct.__gnu_cxx::__aligned_membuf.251" = type { [40 x i8] }
%"struct.std::pair.252" = type { %"class.std::__cxx11::basic_string", i64 }
%"struct.std::__detail::__variant::_Uninitialized.233" = type { %"struct.__gnu_cxx::__aligned_membuf.234" }
%"struct.__gnu_cxx::__aligned_membuf.234" = type { [48 x i8] }
%class.anon.255 = type { i8 }
%"struct.std::integral_constant" = type { i8 }
%"struct.std::integral_constant.257" = type { i8 }
%"struct.std::integral_constant.258" = type { i8 }
%"struct.std::integral_constant.259" = type { i8 }
%"struct.std::__detail::__variant::__variant_cookie" = type { i8 }
%"struct.std::integral_constant.261" = type { i8 }
%"class.std::bad_variant_access" = type { %"class.std::exception", ptr }
%"class.std::exception" = type { ptr }
%"struct.std::_Rb_tree_const_iterator.260" = type { ptr }
%"struct.std::pair.273" = type { ptr, ptr }
%"struct.std::_Select1st" = type { i8 }
%"struct.std::_Rb_tree<std::__cxx11::basic_string<char>, std::pair<const std::__cxx11::basic_string<char>, std::unique_ptr<cvc5::internal::StatisticBaseValue>>, std::_Select1st<std::pair<const std::__cxx11::basic_string<char>, std::unique_ptr<cvc5::internal::StatisticBaseValue>>>, std::less<std::__cxx11::basic_string<char>>>::_Auto_node" = type { ptr, ptr }
%"struct.std::pair.275" = type { ptr, ptr }
%"struct.std::pair.287" = type { ptr, ptr }
%"struct.cvc5::internal::StatisticBackedValue" = type { %"struct.cvc5::internal::StatisticBaseValue.base", i64 }
%"struct.cvc5::internal::StatisticBaseValue.base" = type <{ ptr, i8 }>
%"struct.std::pair.299" = type { ptr, ptr }
%"struct.cvc5::internal::StatisticTimerValue" = type <{ %"struct.cvc5::internal::StatisticBaseValue.base", [7 x i8], %"struct.cvc5::internal::StatisticTimerValue::duration", %"class.std::chrono::time_point", i8, [7 x i8] }>
%"struct.cvc5::internal::StatisticTimerValue::duration" = type { %"class.std::chrono::duration" }
%"class.std::chrono::duration" = type { i64 }
%"class.std::chrono::time_point" = type { %"class.std::chrono::duration" }
%"struct.std::_Select1st.306" = type { i8 }
%"struct.std::_Rb_tree<std::__cxx11::basic_string<char>, std::pair<const std::__cxx11::basic_string<char>, std::variant<long, double, std::__cxx11::basic_string<char>, std::map<std::__cxx11::basic_string<char>, unsigned long>>>, std::_Select1st<std::pair<const std::__cxx11::basic_string<char>, std::variant<long, double, std::__cxx11::basic_string<char>, std::map<std::__cxx11::basic_string<char>, unsigned long>>>>, std::less<std::__cxx11::basic_string<char>>>::_Auto_node" = type { ptr, ptr }
%class.anon.308 = type { ptr }
%class.anon.309 = type { i8 }

$_ZNSt3mapINSt7__cxx1112basic_stringIcSt11char_traitsIcESaIcEEESt10unique_ptrIN4cvc58internal18StatisticBaseValueESt14default_deleteIS9_EESt4lessIS5_ESaISt4pairIKS5_SC_EEEC2Ev = comdat any

$_ZNSt10unique_ptrISt3mapINSt7__cxx1112basic_stringIcSt11char_traitsIcESaIcEEESt7variantIJldS6_S0_IS6_mSt4lessIS6_ESaISt4pairIKS6_mEEEEES9_SaISA_ISB_SF_EEESt14default_deleteISI_EEC2ISK_vEEv = comdat any

$_ZNSt10unique_ptrISt3mapINSt7__cxx1112basic_stringIcSt11char_traitsIcESaIcEEESt7variantIJldS6_S0_IS6_mSt4lessIS6_ESaISt4pairIKS6_mEEEEES9_SaISA_ISB_SF_EEESt14default_deleteISI_EED2Ev = comdat any

$_ZNSt3mapINSt7__cxx1112basic_stringIcSt11char_traitsIcESaIcEEESt10unique_ptrIN4cvc58internal18StatisticBaseValueESt14default_deleteIS9_EESt4lessIS5_ESaISt4pairIKS5_SC_EEED2Ev = comdat any

$_ZN4cvc58internal6EnvObjD2Ev = comdat any

$_ZN4cvc58internal18StatisticsRegistry12registerStatINS0_11AverageStatEEET_RKNSt7__cxx1112basic_stringIcSt11char_traitsIcESaIcEEEb = comdat any

$_ZN4cvc58internal18StatisticsRegistry12registerStatINS0_7IntStatEEET_RKNSt7__cxx1112basic_stringIcSt11char_traitsIcESaIcEEEb = comdat any

$_ZN4cvc58internal18StatisticsRegistry12registerStatINS0_9TimerStatEEET_RKNSt7__cxx1112basic_stringIcSt11char_traitsIcESaIcEEEb = comdat any

$_ZSt11make_uniqueISt3mapINSt7__cxx1112basic_stringIcSt11char_traitsIcESaIcEEESt7variantIJldS6_S0_IS6_mSt4lessIS6_ESaISt4pairIKS6_mEEEEES9_SaISA_ISB_SF_EEEJEENSt8__detail9_MakeUniqIT_E15__single_objectEDpOT0_ = comdat any

$_ZNSt10unique_ptrISt3mapINSt7__cxx1112basic_stringIcSt11char_traitsIcESaIcEEESt7variantIJldS6_S0_IS6_mSt4lessIS6_ESaISt4pairIKS6_mEEEEES9_SaISA_ISB_SF_EEESt14default_deleteISI_EEaSEOSL_ = comdat any

$_ZNSt3mapINSt7__cxx1112basic_stringIcSt11char_traitsIcESaIcEEESt10unique_ptrIN4cvc58internal18StatisticBaseValueESt14default_deleteIS9_EESt4lessIS5_ESaISt4pairIKS5_SC_EEE5beginEv = comdat any

$_ZNSt3mapINSt7__cxx1112basic_stringIcSt11char_traitsIcESaIcEEESt10unique_ptrIN4cvc58internal18StatisticBaseValueESt14default_deleteIS9_EESt4lessIS5_ESaISt4pairIKS5_SC_EEE3endEv = comdat any

$_ZStneRKSt17_Rb_tree_iteratorISt4pairIKNSt7__cxx1112basic_stringIcSt11char_traitsIcESaIcEEESt10unique_ptrIN4cvc58internal18StatisticBaseValueESt14default_deleteISB_EEEESI_ = comdat any

$_ZNKSt17_Rb_tree_iteratorISt4pairIKNSt7__cxx1112basic_stringIcSt11char_traitsIcESaIcEEESt10unique_ptrIN4cvc58internal18StatisticBaseValueESt14default_deleteISB_EEEEdeEv = comdat any

$_ZNKSt10unique_ptrIN4cvc58internal18StatisticBaseValueESt14default_deleteIS2_EEptEv = comdat any

$_ZNKSt10unique_ptrISt3mapINSt7__cxx1112basic_stringIcSt11char_traitsIcESaIcEEESt7variantIJldS6_S0_IS6_mSt4lessIS6_ESaISt4pairIKS6_mEEEEES9_SaISA_ISB_SF_EEESt14default_deleteISI_EEptEv = comdat any

$_ZNSt3mapINSt7__cxx1112basic_stringIcSt11char_traitsIcESaIcEEESt7variantIJldS5_S_IS5_mSt4lessIS5_ESaISt4pairIKS5_mEEEEES8_SaIS9_ISA_SE_EEE7emplaceIJRSA_SE_EEES9_ISt17_Rb_tree_iteratorISF_EbEDpOT_ = comdat any

$_ZNSt7variantIJldNSt7__cxx1112basic_stringIcSt11char_traitsIcESaIcEEESt3mapIS5_mSt4lessIS5_ESaISt4pairIKS5_mEEEEED2Ev = comdat any

$_ZNSt17_Rb_tree_iteratorISt4pairIKNSt7__cxx1112basic_stringIcSt11char_traitsIcESaIcEEESt10unique_ptrIN4cvc58internal18StatisticBaseValueESt14default_deleteISB_EEEEppEv = comdat any

$_ZNKSt3mapINSt7__cxx1112basic_stringIcSt11char_traitsIcESaIcEEESt10unique_ptrIN4cvc58internal18StatisticBaseValueESt14default_deleteIS9_EESt4lessIS5_ESaISt4pairIKS5_SC_EEE4findERSG_ = comdat any

$_ZSteqRKSt23_Rb_tree_const_iteratorISt4pairIKNSt7__cxx1112basic_stringIcSt11char_traitsIcESaIcEEESt10unique_ptrIN4cvc58internal18StatisticBaseValueESt14default_deleteISB_EEEESI_ = comdat any

$_ZNKSt3mapINSt7__cxx1112basic_stringIcSt11char_traitsIcESaIcEEESt10unique_ptrIN4cvc58internal18StatisticBaseValueESt14default_deleteIS9_EESt4lessIS5_ESaISt4pairIKS5_SC_EEE3endEv = comdat any

$_ZNKSt23_Rb_tree_const_iteratorISt4pairIKNSt7__cxx1112basic_stringIcSt11char_traitsIcESaIcEEESt10unique_ptrIN4cvc58internal18StatisticBaseValueESt14default_deleteISB_EEEEptEv = comdat any

$_ZNKSt10unique_ptrIN4cvc58internal18StatisticBaseValueESt14default_deleteIS2_EE3getEv = comdat any

$_ZNKSt3mapINSt7__cxx1112basic_stringIcSt11char_traitsIcESaIcEEESt10unique_ptrIN4cvc58internal18StatisticBaseValueESt14default_deleteIS9_EESt4lessIS5_ESaISt4pairIKS5_SC_EEE5beginEv = comdat any

$_ZStneRKSt23_Rb_tree_const_iteratorISt4pairIKNSt7__cxx1112basic_stringIcSt11char_traitsIcESaIcEEESt10unique_ptrIN4cvc58internal18StatisticBaseValueESt14default_deleteISB_EEEESI_ = comdat any

$_ZNKSt23_Rb_tree_const_iteratorISt4pairIKNSt7__cxx1112basic_stringIcSt11char_traitsIcESaIcEEESt10unique_ptrIN4cvc58internal18StatisticBaseValueESt14default_deleteISB_EEEEdeEv = comdat any

$_ZNKSt10unique_ptrIN4cvc58internal18StatisticBaseValueESt14default_deleteIS2_EEdeEv = comdat any

$_ZNSt23_Rb_tree_const_iteratorISt4pairIKNSt7__cxx1112basic_stringIcSt11char_traitsIcESaIcEEESt10unique_ptrIN4cvc58internal18StatisticBaseValueESt14default_deleteISB_EEEEppEv = comdat any

$_ZN4cvc58internal10safe_printILm4EEEviRAT__Kc = comdat any

$_ZN4cvc58internal10safe_printILm2EEEviRAT__Kc = comdat any

$_ZNKSt10unique_ptrISt3mapINSt7__cxx1112basic_stringIcSt11char_traitsIcESaIcEEESt7variantIJldS6_S0_IS6_mSt4lessIS6_ESaISt4pairIKS6_mEEEEES9_SaISA_ISB_SF_EEESt14default_deleteISI_EEcvbEv = comdat any

$_ZNSt3mapINSt7__cxx1112basic_stringIcSt11char_traitsIcESaIcEEESt7variantIJldS5_S_IS5_mSt4lessIS5_ESaISt4pairIKS5_mEEEEES8_SaIS9_ISA_SE_EEE4findERSA_ = comdat any

$_ZStneRKSt17_Rb_tree_iteratorISt4pairIKNSt7__cxx1112basic_stringIcSt11char_traitsIcESaIcEEESt7variantIJldS6_St3mapIS6_mSt4lessIS6_ESaIS0_IS7_mEEEEEEESJ_ = comdat any

$_ZNSt3mapINSt7__cxx1112basic_stringIcSt11char_traitsIcESaIcEEESt7variantIJldS5_S_IS5_mSt4lessIS5_ESaISt4pairIKS5_mEEEEES8_SaIS9_ISA_SE_EEE3endEv = comdat any

$_ZStneIJldNSt7__cxx1112basic_stringIcSt11char_traitsIcESaIcEEESt3mapIS5_mSt4lessIS5_ESaISt4pairIKS5_mEEEEEbRKSt7variantIJDpT_EESJ_ = comdat any

$_ZNKSt17_Rb_tree_iteratorISt4pairIKNSt7__cxx1112basic_stringIcSt11char_traitsIcESaIcEEESt7variantIJldS6_St3mapIS6_mSt4lessIS6_ESaIS0_IS7_mEEEEEEEptEv = comdat any

$_ZSteqRKSt17_Rb_tree_iteratorISt4pairIKNSt7__cxx1112basic_stringIcSt11char_traitsIcESaIcEEESt7variantIJldS6_St3mapIS6_mSt4lessIS6_ESaIS0_IS7_mEEEEEEESJ_ = comdat any

$_ZN4cvc58internal18StatisticsRegistryD2Ev = comdat any

$_ZN4cvc58internal18StatisticsRegistryD0Ev = comdat any

$_ZNSt8_Rb_treeINSt7__cxx1112basic_stringIcSt11char_traitsIcESaIcEEESt4pairIKS5_St10unique_ptrIN4cvc58internal18StatisticBaseValueESt14default_deleteISB_EEESt10_Select1stISF_ESt4lessIS5_ESaISF_EEC2Ev = comdat any

$_ZNSt8_Rb_treeINSt7__cxx1112basic_stringIcSt11char_traitsIcESaIcEEESt4pairIKS5_St10unique_ptrIN4cvc58internal18StatisticBaseValueESt14default_deleteISB_EEESt10_Select1stISF_ESt4lessIS5_ESaISF_EE13_Rb_tree_implISJ_Lb1EEC2Ev = comdat any

$_ZNSaISt13_Rb_tree_nodeISt4pairIKNSt7__cxx1112basic_stringIcSt11char_traitsIcESaIcEEESt10unique_ptrIN4cvc58internal18StatisticBaseValueESt14default_deleteISB_EEEEEC2Ev = comdat any

$_ZNSt20_Rb_tree_key_compareISt4lessINSt7__cxx1112basic_stringIcSt11char_traitsIcESaIcEEEEEC2Ev = comdat any

$_ZNSt15_Rb_tree_headerC2Ev = comdat any

$_ZNSt15__new_allocatorISt13_Rb_tree_nodeISt4pairIKNSt7__cxx1112basic_stringIcSt11char_traitsIcESaIcEEESt10unique_ptrIN4cvc58internal18StatisticBaseValueESt14default_deleteISC_EEEEEC2Ev = comdat any

$_ZNSt15_Rb_tree_header8_M_resetEv = comdat any

$__clang_call_terminate = comdat any

$_ZNSt15__uniq_ptr_dataISt3mapINSt7__cxx1112basic_stringIcSt11char_traitsIcESaIcEEESt7variantIJldS6_S0_IS6_mSt4lessIS6_ESaISt4pairIKS6_mEEEEES9_SaISA_ISB_SF_EEESt14default_deleteISI_ELb1ELb1EEC2Ev = comdat any

$_ZNSt15__uniq_ptr_implISt3mapINSt7__cxx1112basic_stringIcSt11char_traitsIcESaIcEEESt7variantIJldS6_S0_IS6_mSt4lessIS6_ESaISt4pairIKS6_mEEEEES9_SaISA_ISB_SF_EEESt14default_deleteISI_EEC2Ev = comdat any

$_ZNSt5tupleIJPSt3mapINSt7__cxx1112basic_stringIcSt11char_traitsIcESaIcEEESt7variantIJldS6_S0_IS6_mSt4lessIS6_ESaISt4pairIKS6_mEEEEES9_SaISA_ISB_SF_EEESt14default_deleteISI_EEEC2ILb1ETnNSt9enable_ifIXclsr17_TupleConstraintsIXT_ESJ_SL_EE37__is_implicitly_default_constructibleEEbE4typeELb1EEEv = comdat any

$_ZNSt11_Tuple_implILm0EJPSt3mapINSt7__cxx1112basic_stringIcSt11char_traitsIcESaIcEEESt7variantIJldS6_S0_IS6_mSt4lessIS6_ESaISt4pairIKS6_mEEEEES9_SaISA_ISB_SF_EEESt14default_deleteISI_EEEC2Ev = comdat any

$_ZNSt11_Tuple_implILm1EJSt14default_deleteISt3mapINSt7__cxx1112basic_stringIcSt11char_traitsIcESaIcEEESt7variantIJldS7_S1_IS7_mSt4lessIS7_ESaISt4pairIKS7_mEEEEESA_SaISB_ISC_SG_EEEEEEC2Ev = comdat any

$_ZNSt10_Head_baseILm0EPSt3mapINSt7__cxx1112basic_stringIcSt11char_traitsIcESaIcEEESt7variantIJldS6_S0_IS6_mSt4lessIS6_ESaISt4pairIKS6_mEEEEES9_SaISA_ISB_SF_EEELb0EEC2Ev = comdat any

$_ZNSt10_Head_baseILm1ESt14default_deleteISt3mapINSt7__cxx1112basic_stringIcSt11char_traitsIcESaIcEEESt7variantIJldS7_S1_IS7_mSt4lessIS7_ESaISt4pairIKS7_mEEEEESA_SaISB_ISC_SG_EEEELb1EEC2Ev = comdat any

$_ZNSt8_Rb_treeINSt7__cxx1112basic_stringIcSt11char_traitsIcESaIcEEESt4pairIKS5_St10unique_ptrIN4cvc58internal18StatisticBaseValueESt14default_deleteISB_EEESt10_Select1stISF_ESt4lessIS5_ESaISF_EED2Ev = comdat any

$_ZNSt8_Rb_treeINSt7__cxx1112basic_stringIcSt11char_traitsIcESaIcEEESt4pairIKS5_St10unique_ptrIN4cvc58internal18StatisticBaseValueESt14default_deleteISB_EEESt10_Select1stISF_ESt4lessIS5_ESaISF_EE8_M_eraseEPSt13_Rb_tree_nodeISF_E = comdat any

$_ZNSt8_Rb_treeINSt7__cxx1112basic_stringIcSt11char_traitsIcESaIcEEESt4pairIKS5_St10unique_ptrIN4cvc58internal18StatisticBaseValueESt14default_deleteISB_EEESt10_Select1stISF_ESt4lessIS5_ESaISF_EE8_M_beginEv = comdat any

$_ZNSt8_Rb_treeINSt7__cxx1112basic_stringIcSt11char_traitsIcESaIcEEESt4pairIKS5_St10unique_ptrIN4cvc58internal18StatisticBaseValueESt14default_deleteISB_EEESt10_Select1stISF_ESt4lessIS5_ESaISF_EE13_Rb_tree_implISJ_Lb1EED2Ev = comdat any

$_ZNSt8_Rb_treeINSt7__cxx1112basic_stringIcSt11char_traitsIcESaIcEEESt4pairIKS5_St10unique_ptrIN4cvc58internal18StatisticBaseValueESt14default_deleteISB_EEESt10_Select1stISF_ESt4lessIS5_ESaISF_EE8_S_rightEPSt18_Rb_tree_node_base = comdat any

$_ZNSt8_Rb_treeINSt7__cxx1112basic_stringIcSt11char_traitsIcESaIcEEESt4pairIKS5_St10unique_ptrIN4cvc58internal18StatisticBaseValueESt14default_deleteISB_EEESt10_Select1stISF_ESt4lessIS5_ESaISF_EE7_S_leftEPSt18_Rb_tree_node_base = comdat any

$_ZNSt8_Rb_treeINSt7__cxx1112basic_stringIcSt11char_traitsIcESaIcEEESt4pairIKS5_St10unique_ptrIN4cvc58internal18StatisticBaseValueESt14default_deleteISB_EEESt10_Select1stISF_ESt4lessIS5_ESaISF_EE12_M_drop_nodeEPSt13_Rb_tree_nodeISF_E = comdat any

$_ZNSt8_Rb_treeINSt7__cxx1112basic_stringIcSt11char_traitsIcESaIcEEESt4pairIKS5_St10unique_ptrIN4cvc58internal18StatisticBaseValueESt14default_deleteISB_EEESt10_Select1stISF_ESt4lessIS5_ESaISF_EE15_M_destroy_nodeEPSt13_Rb_tree_nodeISF_E = comdat any

$_ZNSt8_Rb_treeINSt7__cxx1112basic_stringIcSt11char_traitsIcESaIcEEESt4pairIKS5_St10unique_ptrIN4cvc58internal18StatisticBaseValueESt14default_deleteISB_EEESt10_Select1stISF_ESt4lessIS5_ESaISF_EE11_M_put_nodeEPSt13_Rb_tree_nodeISF_E = comdat any

$_ZNSt16allocator_traitsISaISt13_Rb_tree_nodeISt4pairIKNSt7__cxx1112basic_stringIcSt11char_traitsIcESaIcEEESt10unique_ptrIN4cvc58internal18StatisticBaseValueESt14default_deleteISC_EEEEEE7destroyISG_EEvRSI_PT_ = comdat any

$_ZNSt8_Rb_treeINSt7__cxx1112basic_stringIcSt11char_traitsIcESaIcEEESt4pairIKS5_St10unique_ptrIN4cvc58internal18StatisticBaseValueESt14default_deleteISB_EEESt10_Select1stISF_ESt4lessIS5_ESaISF_EE21_M_get_Node_allocatorEv = comdat any

$_ZNSt13_Rb_tree_nodeISt4pairIKNSt7__cxx1112basic_stringIcSt11char_traitsIcESaIcEEESt10unique_ptrIN4cvc58internal18StatisticBaseValueESt14default_deleteISB_EEEE9_M_valptrEv = comdat any

$_ZNSt15__new_allocatorISt13_Rb_tree_nodeISt4pairIKNSt7__cxx1112basic_stringIcSt11char_traitsIcESaIcEEESt10unique_ptrIN4cvc58internal18StatisticBaseValueESt14default_deleteISC_EEEEE7destroyISG_EEvPT_ = comdat any

$_ZNSt4pairIKNSt7__cxx1112basic_stringIcSt11char_traitsIcESaIcEEESt10unique_ptrIN4cvc58internal18StatisticBaseValueESt14default_deleteISA_EEED2Ev = comdat any

$_ZNSt10unique_ptrIN4cvc58internal18StatisticBaseValueESt14default_deleteIS2_EED2Ev = comdat any

$_ZNSt15__uniq_ptr_implIN4cvc58internal18StatisticBaseValueESt14default_deleteIS2_EE6_M_ptrEv = comdat any

$_ZNSt10unique_ptrIN4cvc58internal18StatisticBaseValueESt14default_deleteIS2_EE11get_deleterEv = comdat any

$_ZNKSt14default_deleteIN4cvc58internal18StatisticBaseValueEEclEPS2_ = comdat any

$_ZSt3getILm0EJPN4cvc58internal18StatisticBaseValueESt14default_deleteIS2_EEERNSt13tuple_elementIXT_ESt5tupleIJDpT0_EEE4typeERSA_ = comdat any

$_ZSt12__get_helperILm0EPN4cvc58internal18StatisticBaseValueEJSt14default_deleteIS2_EEERT0_RSt11_Tuple_implIXT_EJS6_DpT1_EE = comdat any

$_ZNSt11_Tuple_implILm0EJPN4cvc58internal18StatisticBaseValueESt14default_deleteIS2_EEE7_M_headERS6_ = comdat any

$_ZNSt10_Head_baseILm0EPN4cvc58internal18StatisticBaseValueELb0EE7_M_headERS4_ = comdat any

$_ZNSt15__uniq_ptr_implIN4cvc58internal18StatisticBaseValueESt14default_deleteIS2_EE10_M_deleterEv = comdat any

$_ZSt3getILm1EJPN4cvc58internal18StatisticBaseValueESt14default_deleteIS2_EEERNSt13tuple_elementIXT_ESt5tupleIJDpT0_EEE4typeERSA_ = comdat any

$_ZSt12__get_helperILm1ESt14default_deleteIN4cvc58internal18StatisticBaseValueEEJEERT0_RSt11_Tuple_implIXT_EJS5_DpT1_EE = comdat any

$_ZNSt11_Tuple_implILm1EJSt14default_deleteIN4cvc58internal18StatisticBaseValueEEEE7_M_headERS5_ = comdat any

$_ZNSt10_Head_baseILm1ESt14default_deleteIN4cvc58internal18StatisticBaseValueEELb1EE7_M_headERS5_ = comdat any

$_ZN9__gnu_cxx16__aligned_membufISt4pairIKNSt7__cxx1112basic_stringIcSt11char_traitsIcESaIcEEESt10unique_ptrIN4cvc58internal18StatisticBaseValueESt14default_deleteISC_EEEE6_M_ptrEv = comdat any

$_ZN9__gnu_cxx16__aligned_membufISt4pairIKNSt7__cxx1112basic_stringIcSt11char_traitsIcESaIcEEESt10unique_ptrIN4cvc58internal18StatisticBaseValueESt14default_deleteISC_EEEE7_M_addrEv = comdat any

$_ZNSt16allocator_traitsISaISt13_Rb_tree_nodeISt4pairIKNSt7__cxx1112basic_stringIcSt11char_traitsIcESaIcEEESt10unique_ptrIN4cvc58internal18StatisticBaseValueESt14default_deleteISC_EEEEEE10deallocateERSI_PSH_m = comdat any

$_ZNSt15__new_allocatorISt13_Rb_tree_nodeISt4pairIKNSt7__cxx1112basic_stringIcSt11char_traitsIcESaIcEEESt10unique_ptrIN4cvc58internal18StatisticBaseValueESt14default_deleteISC_EEEEE10deallocateEPSH_m = comdat any

$_ZNKSt8_Rb_treeINSt7__cxx1112basic_stringIcSt11char_traitsIcESaIcEEESt4pairIKS5_St10unique_ptrIN4cvc58internal18StatisticBaseValueESt14default_deleteISB_EEESt10_Select1stISF_ESt4lessIS5_ESaISF_EE9_M_mbeginEv = comdat any

$_ZNSaISt13_Rb_tree_nodeISt4pairIKNSt7__cxx1112basic_stringIcSt11char_traitsIcESaIcEEESt10unique_ptrIN4cvc58internal18StatisticBaseValueESt14default_deleteISB_EEEEED2Ev = comdat any

$_ZNSt15__new_allocatorISt13_Rb_tree_nodeISt4pairIKNSt7__cxx1112basic_stringIcSt11char_traitsIcESaIcEEESt10unique_ptrIN4cvc58internal18StatisticBaseValueESt14default_deleteISC_EEEEED2Ev = comdat any

$_ZNSt15__uniq_ptr_dataISt3mapINSt7__cxx1112basic_stringIcSt11char_traitsIcESaIcEEESt7variantIJldS6_S0_IS6_mSt4lessIS6_ESaISt4pairIKS6_mEEEEES9_SaISA_ISB_SF_EEESt14default_deleteISI_ELb1ELb1EEaSEOSL_ = comdat any

$_ZNSt15__uniq_ptr_implISt3mapINSt7__cxx1112basic_stringIcSt11char_traitsIcESaIcEEESt7variantIJldS6_S0_IS6_mSt4lessIS6_ESaISt4pairIKS6_mEEEEES9_SaISA_ISB_SF_EEESt14default_deleteISI_EEaSEOSL_ = comdat any

$_ZNSt15__uniq_ptr_implISt3mapINSt7__cxx1112basic_stringIcSt11char_traitsIcESaIcEEESt7variantIJldS6_S0_IS6_mSt4lessIS6_ESaISt4pairIKS6_mEEEEES9_SaISA_ISB_SF_EEESt14default_deleteISI_EE5resetEPSI_ = comdat any

$_ZNSt15__uniq_ptr_implISt3mapINSt7__cxx1112basic_stringIcSt11char_traitsIcESaIcEEESt7variantIJldS6_S0_IS6_mSt4lessIS6_ESaISt4pairIKS6_mEEEEES9_SaISA_ISB_SF_EEESt14default_deleteISI_EE7releaseEv = comdat any

$_ZNSt15__uniq_ptr_implISt3mapINSt7__cxx1112basic_stringIcSt11char_traitsIcESaIcEEESt7variantIJldS6_S0_IS6_mSt4lessIS6_ESaISt4pairIKS6_mEEEEES9_SaISA_ISB_SF_EEESt14default_deleteISI_EE10_M_deleterEv = comdat any

$_ZNSt15__uniq_ptr_implISt3mapINSt7__cxx1112basic_stringIcSt11char_traitsIcESaIcEEESt7variantIJldS6_S0_IS6_mSt4lessIS6_ESaISt4pairIKS6_mEEEEES9_SaISA_ISB_SF_EEESt14default_deleteISI_EE6_M_ptrEv = comdat any

$_ZNKSt14default_deleteISt3mapINSt7__cxx1112basic_stringIcSt11char_traitsIcESaIcEEESt7variantIJldS6_S0_IS6_mSt4lessIS6_ESaISt4pairIKS6_mEEEEES9_SaISA_ISB_SF_EEEEclEPSI_ = comdat any

$_ZSt3getILm0EJPSt3mapINSt7__cxx1112basic_stringIcSt11char_traitsIcESaIcEEESt7variantIJldS6_S0_IS6_mSt4lessIS6_ESaISt4pairIKS6_mEEEEES9_SaISA_ISB_SF_EEESt14default_deleteISI_EEERNSt13tuple_elementIXT_ESt5tupleIJDpT0_EEE4typeERSQ_ = comdat any

$_ZSt12__get_helperILm0EPSt3mapINSt7__cxx1112basic_stringIcSt11char_traitsIcESaIcEEESt7variantIJldS6_S0_IS6_mSt4lessIS6_ESaISt4pairIKS6_mEEEEES9_SaISA_ISB_SF_EEEJSt14default_deleteISI_EEERT0_RSt11_Tuple_implIXT_EJSM_DpT1_EE = comdat any

$_ZNSt11_Tuple_implILm0EJPSt3mapINSt7__cxx1112basic_stringIcSt11char_traitsIcESaIcEEESt7variantIJldS6_S0_IS6_mSt4lessIS6_ESaISt4pairIKS6_mEEEEES9_SaISA_ISB_SF_EEESt14default_deleteISI_EEE7_M_headERSM_ = comdat any

$_ZNSt10_Head_baseILm0EPSt3mapINSt7__cxx1112basic_stringIcSt11char_traitsIcESaIcEEESt7variantIJldS6_S0_IS6_mSt4lessIS6_ESaISt4pairIKS6_mEEEEES9_SaISA_ISB_SF_EEELb0EE7_M_headERSK_ = comdat any

$_ZNSt3mapINSt7__cxx1112basic_stringIcSt11char_traitsIcESaIcEEESt7variantIJldS5_S_IS5_mSt4lessIS5_ESaISt4pairIKS5_mEEEEES8_SaIS9_ISA_SE_EEED2Ev = comdat any

$_ZNSt8_Rb_treeINSt7__cxx1112basic_stringIcSt11char_traitsIcESaIcEEESt4pairIKS5_St7variantIJldS5_St3mapIS5_mSt4lessIS5_ESaIS6_IS7_mEEEEEESt10_Select1stISG_ESB_SaISG_EED2Ev = comdat any

$_ZNSt8_Rb_treeINSt7__cxx1112basic_stringIcSt11char_traitsIcESaIcEEESt4pairIKS5_St7variantIJldS5_St3mapIS5_mSt4lessIS5_ESaIS6_IS7_mEEEEEESt10_Select1stISG_ESB_SaISG_EE8_M_eraseEPSt13_Rb_tree_nodeISG_E = comdat any

$_ZNSt8_Rb_treeINSt7__cxx1112basic_stringIcSt11char_traitsIcESaIcEEESt4pairIKS5_St7variantIJldS5_St3mapIS5_mSt4lessIS5_ESaIS6_IS7_mEEEEEESt10_Select1stISG_ESB_SaISG_EE8_M_beginEv = comdat any

$_ZNSt8_Rb_treeINSt7__cxx1112basic_stringIcSt11char_traitsIcESaIcEEESt4pairIKS5_St7variantIJldS5_St3mapIS5_mSt4lessIS5_ESaIS6_IS7_mEEEEEESt10_Select1stISG_ESB_SaISG_EE13_Rb_tree_implISB_Lb1EED2Ev = comdat any

$_ZNSt8_Rb_treeINSt7__cxx1112basic_stringIcSt11char_traitsIcESaIcEEESt4pairIKS5_St7variantIJldS5_St3mapIS5_mSt4lessIS5_ESaIS6_IS7_mEEEEEESt10_Select1stISG_ESB_SaISG_EE8_S_rightEPSt18_Rb_tree_node_base = comdat any

$_ZNSt8_Rb_treeINSt7__cxx1112basic_stringIcSt11char_traitsIcESaIcEEESt4pairIKS5_St7variantIJldS5_St3mapIS5_mSt4lessIS5_ESaIS6_IS7_mEEEEEESt10_Select1stISG_ESB_SaISG_EE7_S_leftEPSt18_Rb_tree_node_base = comdat any

$_ZNSt8_Rb_treeINSt7__cxx1112basic_stringIcSt11char_traitsIcESaIcEEESt4pairIKS5_St7variantIJldS5_St3mapIS5_mSt4lessIS5_ESaIS6_IS7_mEEEEEESt10_Select1stISG_ESB_SaISG_EE12_M_drop_nodeEPSt13_Rb_tree_nodeISG_E = comdat any

$_ZNSt8_Rb_treeINSt7__cxx1112basic_stringIcSt11char_traitsIcESaIcEEESt4pairIKS5_St7variantIJldS5_St3mapIS5_mSt4lessIS5_ESaIS6_IS7_mEEEEEESt10_Select1stISG_ESB_SaISG_EE15_M_destroy_nodeEPSt13_Rb_tree_nodeISG_E = comdat any

$_ZNSt8_Rb_treeINSt7__cxx1112basic_stringIcSt11char_traitsIcESaIcEEESt4pairIKS5_St7variantIJldS5_St3mapIS5_mSt4lessIS5_ESaIS6_IS7_mEEEEEESt10_Select1stISG_ESB_SaISG_EE11_M_put_nodeEPSt13_Rb_tree_nodeISG_E = comdat any

$_ZNSt16allocator_traitsISaISt13_Rb_tree_nodeISt4pairIKNSt7__cxx1112basic_stringIcSt11char_traitsIcESaIcEEESt7variantIJldS7_St3mapIS7_mSt4lessIS7_ESaIS1_IS8_mEEEEEEEEE7destroyISH_EEvRSJ_PT_ = comdat any

$_ZNSt8_Rb_treeINSt7__cxx1112basic_stringIcSt11char_traitsIcESaIcEEESt4pairIKS5_St7variantIJldS5_St3mapIS5_mSt4lessIS5_ESaIS6_IS7_mEEEEEESt10_Select1stISG_ESB_SaISG_EE21_M_get_Node_allocatorEv = comdat any

$_ZNSt13_Rb_tree_nodeISt4pairIKNSt7__cxx1112basic_stringIcSt11char_traitsIcESaIcEEESt7variantIJldS6_St3mapIS6_mSt4lessIS6_ESaIS0_IS7_mEEEEEEE9_M_valptrEv = comdat any

$_ZNSt15__new_allocatorISt13_Rb_tree_nodeISt4pairIKNSt7__cxx1112basic_stringIcSt11char_traitsIcESaIcEEESt7variantIJldS7_St3mapIS7_mSt4lessIS7_ESaIS1_IS8_mEEEEEEEE7destroyISH_EEvPT_ = comdat any

$_ZNSt4pairIKNSt7__cxx1112basic_stringIcSt11char_traitsIcESaIcEEESt7variantIJldS5_St3mapIS5_mSt4lessIS5_ESaIS_IS6_mEEEEEED2Ev = comdat any

$_ZN9__gnu_cxx16__aligned_membufISt4pairIKNSt7__cxx1112basic_stringIcSt11char_traitsIcESaIcEEESt7variantIJldS7_St3mapIS7_mSt4lessIS7_ESaIS1_IS8_mEEEEEEE6_M_ptrEv = comdat any

$_ZN9__gnu_cxx16__aligned_membufISt4pairIKNSt7__cxx1112basic_stringIcSt11char_traitsIcESaIcEEESt7variantIJldS7_St3mapIS7_mSt4lessIS7_ESaIS1_IS8_mEEEEEEE7_M_addrEv = comdat any

$_ZNSt16allocator_traitsISaISt13_Rb_tree_nodeISt4pairIKNSt7__cxx1112basic_stringIcSt11char_traitsIcESaIcEEESt7variantIJldS7_St3mapIS7_mSt4lessIS7_ESaIS1_IS8_mEEEEEEEEE10deallocateERSJ_PSI_m = comdat any

$_ZNSt15__new_allocatorISt13_Rb_tree_nodeISt4pairIKNSt7__cxx1112basic_stringIcSt11char_traitsIcESaIcEEESt7variantIJldS7_St3mapIS7_mSt4lessIS7_ESaIS1_IS8_mEEEEEEEE10deallocateEPSI_m = comdat any

$_ZNKSt8_Rb_treeINSt7__cxx1112basic_stringIcSt11char_traitsIcESaIcEEESt4pairIKS5_St7variantIJldS5_St3mapIS5_mSt4lessIS5_ESaIS6_IS7_mEEEEEESt10_Select1stISG_ESB_SaISG_EE9_M_mbeginEv = comdat any

$_ZNSaISt13_Rb_tree_nodeISt4pairIKNSt7__cxx1112basic_stringIcSt11char_traitsIcESaIcEEESt7variantIJldS6_St3mapIS6_mSt4lessIS6_ESaIS0_IS7_mEEEEEEEED2Ev = comdat any

$_ZNSt15__new_allocatorISt13_Rb_tree_nodeISt4pairIKNSt7__cxx1112basic_stringIcSt11char_traitsIcESaIcEEESt7variantIJldS7_St3mapIS7_mSt4lessIS7_ESaIS1_IS8_mEEEEEEEED2Ev = comdat any

$_ZSt3getILm1EJPSt3mapINSt7__cxx1112basic_stringIcSt11char_traitsIcESaIcEEESt7variantIJldS6_S0_IS6_mSt4lessIS6_ESaISt4pairIKS6_mEEEEES9_SaISA_ISB_SF_EEESt14default_deleteISI_EEERNSt13tuple_elementIXT_ESt5tupleIJDpT0_EEE4typeERSQ_ = comdat any

$_ZSt12__get_helperILm1ESt14default_deleteISt3mapINSt7__cxx1112basic_stringIcSt11char_traitsIcESaIcEEESt7variantIJldS7_S1_IS7_mSt4lessIS7_ESaISt4pairIKS7_mEEEEESA_SaISB_ISC_SG_EEEEJEERT0_RSt11_Tuple_implIXT_EJSL_DpT1_EE = comdat any

$_ZNSt11_Tuple_implILm1EJSt14default_deleteISt3mapINSt7__cxx1112basic_stringIcSt11char_traitsIcESaIcEEESt7variantIJldS7_S1_IS7_mSt4lessIS7_ESaISt4pairIKS7_mEEEEESA_SaISB_ISC_SG_EEEEEE7_M_headERSL_ = comdat any

$_ZNSt10_Head_baseILm1ESt14default_deleteISt3mapINSt7__cxx1112basic_stringIcSt11char_traitsIcESaIcEEESt7variantIJldS7_S1_IS7_mSt4lessIS7_ESaISt4pairIKS7_mEEEEESA_SaISB_ISC_SG_EEEELb1EE7_M_headERSL_ = comdat any

$_ZNSt8__detail9__variant13_Variant_baseIJldNSt7__cxx1112basic_stringIcSt11char_traitsIcESaIcEEESt3mapIS7_mSt4lessIS7_ESaISt4pairIKS7_mEEEEED2Ev = comdat any

$_ZNSt8__detail9__variant17_Move_assign_baseILb0EJldNSt7__cxx1112basic_stringIcSt11char_traitsIcESaIcEEESt3mapIS7_mSt4lessIS7_ESaISt4pairIKS7_mEEEEED2Ev = comdat any

$_ZNSt8__detail9__variant17_Copy_assign_baseILb0EJldNSt7__cxx1112basic_stringIcSt11char_traitsIcESaIcEEESt3mapIS7_mSt4lessIS7_ESaISt4pairIKS7_mEEEEED2Ev = comdat any

$_ZNSt8__detail9__variant15_Move_ctor_baseILb0EJldNSt7__cxx1112basic_stringIcSt11char_traitsIcESaIcEEESt3mapIS7_mSt4lessIS7_ESaISt4pairIKS7_mEEEEED2Ev = comdat any

$_ZNSt8__detail9__variant15_Copy_ctor_baseILb0EJldNSt7__cxx1112basic_stringIcSt11char_traitsIcESaIcEEESt3mapIS7_mSt4lessIS7_ESaISt4pairIKS7_mEEEEED2Ev = comdat any

$_ZNSt8__detail9__variant16_Variant_storageILb0EJldNSt7__cxx1112basic_stringIcSt11char_traitsIcESaIcEEESt3mapIS7_mSt4lessIS7_ESaISt4pairIKS7_mEEEEED2Ev = comdat any

$_ZNSt8__detail9__variant16_Variant_storageILb0EJldNSt7__cxx1112basic_stringIcSt11char_traitsIcESaIcEEESt3mapIS7_mSt4lessIS7_ESaISt4pairIKS7_mEEEEE8_M_resetEv = comdat any

$_ZNKSt8__detail9__variant16_Variant_storageILb0EJldNSt7__cxx1112basic_stringIcSt11char_traitsIcESaIcEEESt3mapIS7_mSt4lessIS7_ESaISt4pairIKS7_mEEEEE8_M_validEv = comdat any

$_ZSt10__do_visitIvZNSt8__detail9__variant16_Variant_storageILb0EJldNSt7__cxx1112basic_stringIcSt11char_traitsIcESaIcEEESt3mapIS8_mSt4lessIS8_ESaISt4pairIKS8_mEEEEE8_M_resetEvEUlOT_E_JRSt7variantIJldS8_SG_EEEEDcOT0_DpOT1_ = comdat any

$_ZSt14__variant_castIJldNSt7__cxx1112basic_stringIcSt11char_traitsIcESaIcEEESt3mapIS5_mSt4lessIS5_ESaISt4pairIKS5_mEEEERNSt8__detail9__variant16_Variant_storageILb0EJldS5_SD_EEEEDcOT0_ = comdat any

$_ZZSt10__do_visitIvZNSt8__detail9__variant16_Variant_storageILb0EJldNSt7__cxx1112basic_stringIcSt11char_traitsIcESaIcEEESt3mapIS8_mSt4lessIS8_ESaISt4pairIKS8_mEEEEE8_M_resetEvEUlOT_E_JRSt7variantIJldS8_SG_EEEEDcOT0_DpOT1_ENKUlSN_zE_clB5cxx11ESN_z = comdat any

$_ZNKSt7variantIJldNSt7__cxx1112basic_stringIcSt11char_traitsIcESaIcEEESt3mapIS5_mSt4lessIS5_ESaISt4pairIKS5_mEEEEE5indexEv = comdat any

$_ZNSt8__detail9__variant17__gen_vtable_implINS0_12_Multi_arrayIPFvOZNS0_16_Variant_storageILb0EJldNSt7__cxx1112basic_stringIcSt11char_traitsIcESaIcEEESt3mapIS9_mSt4lessIS9_ESaISt4pairIKS9_mEEEEE8_M_resetEvEUlOT_E_RSt7variantIJldS9_SH_EEEJEEESt16integer_sequenceImJLm0EEEE14__visit_invokeESM_SP_ = comdat any

$_ZNSt8__detail9__variant17__gen_vtable_implINS0_12_Multi_arrayIPFvOZNS0_16_Variant_storageILb0EJldNSt7__cxx1112basic_stringIcSt11char_traitsIcESaIcEEESt3mapIS9_mSt4lessIS9_ESaISt4pairIKS9_mEEEEE8_M_resetEvEUlOT_E_RSt7variantIJldS9_SH_EEEJEEESt16integer_sequenceImJLm1EEEE14__visit_invokeESM_SP_ = comdat any

$_ZNSt8__detail9__variant17__gen_vtable_implINS0_12_Multi_arrayIPFvOZNS0_16_Variant_storageILb0EJldNSt7__cxx1112basic_stringIcSt11char_traitsIcESaIcEEESt3mapIS9_mSt4lessIS9_ESaISt4pairIKS9_mEEEEE8_M_resetEvEUlOT_E_RSt7variantIJldS9_SH_EEEJEEESt16integer_sequenceImJLm2EEEE14__visit_invokeESM_SP_ = comdat any

$_ZNSt8__detail9__variant17__gen_vtable_implINS0_12_Multi_arrayIPFvOZNS0_16_Variant_storageILb0EJldNSt7__cxx1112basic_stringIcSt11char_traitsIcESaIcEEESt3mapIS9_mSt4lessIS9_ESaISt4pairIKS9_mEEEEE8_M_resetEvEUlOT_E_RSt7variantIJldS9_SH_EEEJEEESt16integer_sequenceImJLm3EEEE14__visit_invokeESM_SP_ = comdat any

$_ZSt10__invoke_rIvZNSt8__detail9__variant16_Variant_storageILb0EJldNSt7__cxx1112basic_stringIcSt11char_traitsIcESaIcEEESt3mapIS8_mSt4lessIS8_ESaISt4pairIKS8_mEEEEE8_M_resetEvEUlOT_E_JRlEENSt9enable_ifIX16is_invocable_r_vISI_T0_DpT1_EESI_E4typeEOSN_DpOSO_ = comdat any

$_ZNSt8__detail9__variant5__getILm0ERSt7variantIJldNSt7__cxx1112basic_stringIcSt11char_traitsIcESaIcEEESt3mapIS8_mSt4lessIS8_ESaISt4pairIKS8_mEEEEEEEDcOT0_ = comdat any

$_ZSt13__invoke_implIvZNSt8__detail9__variant16_Variant_storageILb0EJldNSt7__cxx1112basic_stringIcSt11char_traitsIcESaIcEEESt3mapIS8_mSt4lessIS8_ESaISt4pairIKS8_mEEEEE8_M_resetEvEUlOT_E_JRlEESI_St14__invoke_otherOT0_DpOT1_ = comdat any

$_ZZNSt8__detail9__variant16_Variant_storageILb0EJldNSt7__cxx1112basic_stringIcSt11char_traitsIcESaIcEEESt3mapIS7_mSt4lessIS7_ESaISt4pairIKS7_mEEEEE8_M_resetEvENUlOT_E_clIRlEEDaSI_ = comdat any

$_ZSt8_DestroyIlEvPT_ = comdat any

$_ZNSt8__detail9__variant7__get_nILm0ERNS0_15_Variadic_unionIJldNSt7__cxx1112basic_stringIcSt11char_traitsIcESaIcEEESt3mapIS8_mSt4lessIS8_ESaISt4pairIKS8_mEEEEEEEEDcOT0_ = comdat any

$_ZNRSt8__detail9__variant14_UninitializedIlLb1EE6_M_getEv = comdat any

$_ZSt10__invoke_rIvZNSt8__detail9__variant16_Variant_storageILb0EJldNSt7__cxx1112basic_stringIcSt11char_traitsIcESaIcEEESt3mapIS8_mSt4lessIS8_ESaISt4pairIKS8_mEEEEE8_M_resetEvEUlOT_E_JRdEENSt9enable_ifIX16is_invocable_r_vISI_T0_DpT1_EESI_E4typeEOSN_DpOSO_ = comdat any

$_ZNSt8__detail9__variant5__getILm1ERSt7variantIJldNSt7__cxx1112basic_stringIcSt11char_traitsIcESaIcEEESt3mapIS8_mSt4lessIS8_ESaISt4pairIKS8_mEEEEEEEDcOT0_ = comdat any

$_ZSt13__invoke_implIvZNSt8__detail9__variant16_Variant_storageILb0EJldNSt7__cxx1112basic_stringIcSt11char_traitsIcESaIcEEESt3mapIS8_mSt4lessIS8_ESaISt4pairIKS8_mEEEEE8_M_resetEvEUlOT_E_JRdEESI_St14__invoke_otherOT0_DpOT1_ = comdat any

$_ZZNSt8__detail9__variant16_Variant_storageILb0EJldNSt7__cxx1112basic_stringIcSt11char_traitsIcESaIcEEESt3mapIS7_mSt4lessIS7_ESaISt4pairIKS7_mEEEEE8_M_resetEvENUlOT_E_clIRdEEDaSI_ = comdat any

$_ZSt8_DestroyIdEvPT_ = comdat any

$_ZNSt8__detail9__variant7__get_nILm1ERNS0_15_Variadic_unionIJldNSt7__cxx1112basic_stringIcSt11char_traitsIcESaIcEEESt3mapIS8_mSt4lessIS8_ESaISt4pairIKS8_mEEEEEEEEDcOT0_ = comdat any

$_ZNRSt8__detail9__variant14_UninitializedIdLb1EE6_M_getEv = comdat any

$_ZSt10__invoke_rIvZNSt8__detail9__variant16_Variant_storageILb0EJldNSt7__cxx1112basic_stringIcSt11char_traitsIcESaIcEEESt3mapIS8_mSt4lessIS8_ESaISt4pairIKS8_mEEEEE8_M_resetEvEUlOT_E_JRS8_EENSt9enable_ifIX16is_invocable_r_vISI_T0_DpT1_EESI_E4typeEOSN_DpOSO_ = comdat any

$_ZNSt8__detail9__variant5__getILm2ERSt7variantIJldNSt7__cxx1112basic_stringIcSt11char_traitsIcESaIcEEESt3mapIS8_mSt4lessIS8_ESaISt4pairIKS8_mEEEEEEEDcOT0_ = comdat any

$_ZSt13__invoke_implIvZNSt8__detail9__variant16_Variant_storageILb0EJldNSt7__cxx1112basic_stringIcSt11char_traitsIcESaIcEEESt3mapIS8_mSt4lessIS8_ESaISt4pairIKS8_mEEEEE8_M_resetEvEUlOT_E_JRS8_EESI_St14__invoke_otherOT0_DpOT1_ = comdat any

$_ZZNSt8__detail9__variant16_Variant_storageILb0EJldNSt7__cxx1112basic_stringIcSt11char_traitsIcESaIcEEESt3mapIS7_mSt4lessIS7_ESaISt4pairIKS7_mEEEEE8_M_resetEvENUlOT_E_clIRS7_EEDaSI_ = comdat any

$_ZSt8_DestroyINSt7__cxx1112basic_stringIcSt11char_traitsIcESaIcEEEEvPT_ = comdat any

$_ZNSt8__detail9__variant7__get_nILm2ERNS0_15_Variadic_unionIJldNSt7__cxx1112basic_stringIcSt11char_traitsIcESaIcEEESt3mapIS8_mSt4lessIS8_ESaISt4pairIKS8_mEEEEEEEEDcOT0_ = comdat any

$_ZNRSt8__detail9__variant14_UninitializedINSt7__cxx1112basic_stringIcSt11char_traitsIcESaIcEEELb0EE6_M_getEv = comdat any

$_ZN9__gnu_cxx16__aligned_membufINSt7__cxx1112basic_stringIcSt11char_traitsIcESaIcEEEE6_M_ptrEv = comdat any

$_ZN9__gnu_cxx16__aligned_membufINSt7__cxx1112basic_stringIcSt11char_traitsIcESaIcEEEE7_M_addrEv = comdat any

$_ZSt10__invoke_rIvZNSt8__detail9__variant16_Variant_storageILb0EJldNSt7__cxx1112basic_stringIcSt11char_traitsIcESaIcEEESt3mapIS8_mSt4lessIS8_ESaISt4pairIKS8_mEEEEE8_M_resetEvEUlOT_E_JRSG_EENSt9enable_ifIX16is_invocable_r_vISI_T0_DpT1_EESI_E4typeEOSN_DpOSO_ = comdat any

$_ZNSt8__detail9__variant5__getILm3ERSt7variantIJldNSt7__cxx1112basic_stringIcSt11char_traitsIcESaIcEEESt3mapIS8_mSt4lessIS8_ESaISt4pairIKS8_mEEEEEEEDcOT0_ = comdat any

$_ZSt13__invoke_implIvZNSt8__detail9__variant16_Variant_storageILb0EJldNSt7__cxx1112basic_stringIcSt11char_traitsIcESaIcEEESt3mapIS8_mSt4lessIS8_ESaISt4pairIKS8_mEEEEE8_M_resetEvEUlOT_E_JRSG_EESI_St14__invoke_otherOT0_DpOT1_ = comdat any

$_ZZNSt8__detail9__variant16_Variant_storageILb0EJldNSt7__cxx1112basic_stringIcSt11char_traitsIcESaIcEEESt3mapIS7_mSt4lessIS7_ESaISt4pairIKS7_mEEEEE8_M_resetEvENUlOT_E_clIRSF_EEDaSI_ = comdat any

$_ZSt8_DestroyISt3mapINSt7__cxx1112basic_stringIcSt11char_traitsIcESaIcEEEmSt4lessIS6_ESaISt4pairIKS6_mEEEEvPT_ = comdat any

$_ZNSt3mapINSt7__cxx1112basic_stringIcSt11char_traitsIcESaIcEEEmSt4lessIS5_ESaISt4pairIKS5_mEEED2Ev = comdat any

$_ZNSt8_Rb_treeINSt7__cxx1112basic_stringIcSt11char_traitsIcESaIcEEESt4pairIKS5_mESt10_Select1stIS8_ESt4lessIS5_ESaIS8_EED2Ev = comdat any

$_ZNSt8_Rb_treeINSt7__cxx1112basic_stringIcSt11char_traitsIcESaIcEEESt4pairIKS5_mESt10_Select1stIS8_ESt4lessIS5_ESaIS8_EE8_M_eraseEPSt13_Rb_tree_nodeIS8_E = comdat any

$_ZNSt8_Rb_treeINSt7__cxx1112basic_stringIcSt11char_traitsIcESaIcEEESt4pairIKS5_mESt10_Select1stIS8_ESt4lessIS5_ESaIS8_EE8_M_beginEv = comdat any

$_ZNSt8_Rb_treeINSt7__cxx1112basic_stringIcSt11char_traitsIcESaIcEEESt4pairIKS5_mESt10_Select1stIS8_ESt4lessIS5_ESaIS8_EE13_Rb_tree_implISC_Lb1EED2Ev = comdat any

$_ZNSt8_Rb_treeINSt7__cxx1112basic_stringIcSt11char_traitsIcESaIcEEESt4pairIKS5_mESt10_Select1stIS8_ESt4lessIS5_ESaIS8_EE8_S_rightEPSt18_Rb_tree_node_base = comdat any

$_ZNSt8_Rb_treeINSt7__cxx1112basic_stringIcSt11char_traitsIcESaIcEEESt4pairIKS5_mESt10_Select1stIS8_ESt4lessIS5_ESaIS8_EE7_S_leftEPSt18_Rb_tree_node_base = comdat any

$_ZNSt8_Rb_treeINSt7__cxx1112basic_stringIcSt11char_traitsIcESaIcEEESt4pairIKS5_mESt10_Select1stIS8_ESt4lessIS5_ESaIS8_EE12_M_drop_nodeEPSt13_Rb_tree_nodeIS8_E = comdat any

$_ZNSt8_Rb_treeINSt7__cxx1112basic_stringIcSt11char_traitsIcESaIcEEESt4pairIKS5_mESt10_Select1stIS8_ESt4lessIS5_ESaIS8_EE15_M_destroy_nodeEPSt13_Rb_tree_nodeIS8_E = comdat any

$_ZNSt8_Rb_treeINSt7__cxx1112basic_stringIcSt11char_traitsIcESaIcEEESt4pairIKS5_mESt10_Select1stIS8_ESt4lessIS5_ESaIS8_EE11_M_put_nodeEPSt13_Rb_tree_nodeIS8_E = comdat any

$_ZNSt16allocator_traitsISaISt13_Rb_tree_nodeISt4pairIKNSt7__cxx1112basic_stringIcSt11char_traitsIcESaIcEEEmEEEE7destroyIS9_EEvRSB_PT_ = comdat any

$_ZNSt8_Rb_treeINSt7__cxx1112basic_stringIcSt11char_traitsIcESaIcEEESt4pairIKS5_mESt10_Select1stIS8_ESt4lessIS5_ESaIS8_EE21_M_get_Node_allocatorEv = comdat any

$_ZNSt13_Rb_tree_nodeISt4pairIKNSt7__cxx1112basic_stringIcSt11char_traitsIcESaIcEEEmEE9_M_valptrEv = comdat any

$_ZNSt15__new_allocatorISt13_Rb_tree_nodeISt4pairIKNSt7__cxx1112basic_stringIcSt11char_traitsIcESaIcEEEmEEE7destroyIS9_EEvPT_ = comdat any

$_ZNSt4pairIKNSt7__cxx1112basic_stringIcSt11char_traitsIcESaIcEEEmED2Ev = comdat any

$_ZN9__gnu_cxx16__aligned_membufISt4pairIKNSt7__cxx1112basic_stringIcSt11char_traitsIcESaIcEEEmEE6_M_ptrEv = comdat any

$_ZN9__gnu_cxx16__aligned_membufISt4pairIKNSt7__cxx1112basic_stringIcSt11char_traitsIcESaIcEEEmEE7_M_addrEv = comdat any

$_ZNSt16allocator_traitsISaISt13_Rb_tree_nodeISt4pairIKNSt7__cxx1112basic_stringIcSt11char_traitsIcESaIcEEEmEEEE10deallocateERSB_PSA_m = comdat any

$_ZNSt15__new_allocatorISt13_Rb_tree_nodeISt4pairIKNSt7__cxx1112basic_stringIcSt11char_traitsIcESaIcEEEmEEE10deallocateEPSA_m = comdat any

$_ZNKSt8_Rb_treeINSt7__cxx1112basic_stringIcSt11char_traitsIcESaIcEEESt4pairIKS5_mESt10_Select1stIS8_ESt4lessIS5_ESaIS8_EE9_M_mbeginEv = comdat any

$_ZNSaISt13_Rb_tree_nodeISt4pairIKNSt7__cxx1112basic_stringIcSt11char_traitsIcESaIcEEEmEEED2Ev = comdat any

$_ZNSt15__new_allocatorISt13_Rb_tree_nodeISt4pairIKNSt7__cxx1112basic_stringIcSt11char_traitsIcESaIcEEEmEEED2Ev = comdat any

$_ZNSt8__detail9__variant7__get_nILm3ERNS0_15_Variadic_unionIJldNSt7__cxx1112basic_stringIcSt11char_traitsIcESaIcEEESt3mapIS8_mSt4lessIS8_ESaISt4pairIKS8_mEEEEEEEEDcOT0_ = comdat any

$_ZNSt8__detail9__variant7__get_nILm0ERNS0_15_Variadic_unionIJSt3mapINSt7__cxx1112basic_stringIcSt11char_traitsIcESaIcEEEmSt4lessIS9_ESaISt4pairIKS9_mEEEEEEEEDcOT0_ = comdat any

$_ZNRSt8__detail9__variant14_UninitializedISt3mapINSt7__cxx1112basic_stringIcSt11char_traitsIcESaIcEEEmSt4lessIS8_ESaISt4pairIKS8_mEEELb0EE6_M_getEv = comdat any

$_ZN9__gnu_cxx16__aligned_membufISt3mapINSt7__cxx1112basic_stringIcSt11char_traitsIcESaIcEEEmSt4lessIS7_ESaISt4pairIKS7_mEEEE6_M_ptrEv = comdat any

$_ZN9__gnu_cxx16__aligned_membufISt3mapINSt7__cxx1112basic_stringIcSt11char_traitsIcESaIcEEEmSt4lessIS7_ESaISt4pairIKS7_mEEEE7_M_addrEv = comdat any

$_ZNSt8__detail9__variant15__raw_idx_visitIZStneIJldNSt7__cxx1112basic_stringIcSt11char_traitsIcESaIcEEESt3mapIS8_mSt4lessIS8_ESaISt4pairIKS8_mEEEEEbRKSt7variantIJDpT_EESM_EUlOT_T0_E_JRKSH_IJldS8_SG_EEEEEvSO_DpOT0_ = comdat any

$_ZSt10__do_visitINSt8__detail9__variant20__variant_idx_cookieEZStneIJldNSt7__cxx1112basic_stringIcSt11char_traitsIcESaIcEEESt3mapIS9_mSt4lessIS9_ESaISt4pairIKS9_mEEEEEbRKSt7variantIJDpT_EESN_EUlOT_T0_E_JRKSI_IJldS9_SH_EEEEDcOSQ_DpOT1_ = comdat any

$_ZZSt10__do_visitINSt8__detail9__variant20__variant_idx_cookieEZStneIJldNSt7__cxx1112basic_stringIcSt11char_traitsIcESaIcEEESt3mapIS9_mSt4lessIS9_ESaISt4pairIKS9_mEEEEEbRKSt7variantIJDpT_EESN_EUlOT_T0_E_JRKSI_IJldS9_SH_EEEEDcOSQ_DpOT1_ENKUlSU_zE_clB5cxx11ESU_z = comdat any

$_ZNSt8__detail9__variant17__gen_vtable_implINS0_12_Multi_arrayIPFNS0_20__variant_idx_cookieEOZStneIJldNSt7__cxx1112basic_stringIcSt11char_traitsIcESaIcEEESt3mapISA_mSt4lessISA_ESaISt4pairIKSA_mEEEEEbRKSt7variantIJDpT_EESO_EUlOT_T0_E_RKSJ_IJldSA_SI_EEEJEEESt16integer_sequenceImJLm0EEEE14__visit_invokeEST_SW_ = comdat any

$_ZNSt8__detail9__variant17__gen_vtable_implINS0_12_Multi_arrayIPFNS0_20__variant_idx_cookieEOZStneIJldNSt7__cxx1112basic_stringIcSt11char_traitsIcESaIcEEESt3mapISA_mSt4lessISA_ESaISt4pairIKSA_mEEEEEbRKSt7variantIJDpT_EESO_EUlOT_T0_E_RKSJ_IJldSA_SI_EEEJEEESt16integer_sequenceImJLm1EEEE14__visit_invokeEST_SW_ = comdat any

$_ZNSt8__detail9__variant17__gen_vtable_implINS0_12_Multi_arrayIPFNS0_20__variant_idx_cookieEOZStneIJldNSt7__cxx1112basic_stringIcSt11char_traitsIcESaIcEEESt3mapISA_mSt4lessISA_ESaISt4pairIKSA_mEEEEEbRKSt7variantIJDpT_EESO_EUlOT_T0_E_RKSJ_IJldSA_SI_EEEJEEESt16integer_sequenceImJLm2EEEE14__visit_invokeEST_SW_ = comdat any

$_ZNSt8__detail9__variant17__gen_vtable_implINS0_12_Multi_arrayIPFNS0_20__variant_idx_cookieEOZStneIJldNSt7__cxx1112basic_stringIcSt11char_traitsIcESaIcEEESt3mapISA_mSt4lessISA_ESaISt4pairIKSA_mEEEEEbRKSt7variantIJDpT_EESO_EUlOT_T0_E_RKSJ_IJldSA_SI_EEEJEEESt16integer_sequenceImJLm3EEEE14__visit_invokeEST_SW_ = comdat any

$_ZNSt8__detail9__variant17__gen_vtable_implINS0_12_Multi_arrayIPFNS0_20__variant_idx_cookieEOZStneIJldNSt7__cxx1112basic_stringIcSt11char_traitsIcESaIcEEESt3mapISA_mSt4lessISA_ESaISt4pairIKSA_mEEEEEbRKSt7variantIJDpT_EESO_EUlOT_T0_E_RKSJ_IJldSA_SI_EEEJEEESt16integer_sequenceImJLm18446744073709551615EEEE14__visit_invokeEST_SW_ = comdat any

$_ZSt8__invokeIZStneIJldNSt7__cxx1112basic_stringIcSt11char_traitsIcESaIcEEESt3mapIS6_mSt4lessIS6_ESaISt4pairIKS6_mEEEEEbRKSt7variantIJDpT_EESK_EUlOT_T0_E_JRKlSt17integral_constantImLm0EEEENSt15__invoke_resultISL_JDpT0_EE4typeESM_DpOSU_ = comdat any

$_ZNSt8__detail9__variant17__gen_vtable_implINS0_12_Multi_arrayIPFNS0_20__variant_idx_cookieEOZStneIJldNSt7__cxx1112basic_stringIcSt11char_traitsIcESaIcEEESt3mapISA_mSt4lessISA_ESaISt4pairIKSA_mEEEEEbRKSt7variantIJDpT_EESO_EUlOT_T0_E_RKSJ_IJldSA_SI_EEEJEEESt16integer_sequenceImJLm0EEEE28__element_by_index_or_cookieILm0ESW_EEDcOSR_ = comdat any

$_ZSt13__invoke_implIvZStneIJldNSt7__cxx1112basic_stringIcSt11char_traitsIcESaIcEEESt3mapIS6_mSt4lessIS6_ESaISt4pairIKS6_mEEEEEbRKSt7variantIJDpT_EESK_EUlOT_T0_E_JRKlSt17integral_constantImLm0EEEESL_St14__invoke_otherOSN_DpOT1_ = comdat any

$_ZZStneIJldNSt7__cxx1112basic_stringIcSt11char_traitsIcESaIcEEESt3mapIS5_mSt4lessIS5_ESaISt4pairIKS5_mEEEEEbRKSt7variantIJDpT_EESJ_ENUlOT_T0_E_clIRKlSt17integral_constantImLm0EEEEDaSL_SM_ = comdat any

$_ZNKSt17integral_constantImLm0EEcvmEv = comdat any

$_ZSt3getILm0EJldNSt7__cxx1112basic_stringIcSt11char_traitsIcESaIcEEESt3mapIS5_mSt4lessIS5_ESaISt4pairIKS5_mEEEEERKNSt19variant_alternativeIXT_ESt7variantIJDpT0_EEE4typeERKSI_ = comdat any

$_ZSt26__throw_bad_variant_accessb = comdat any

$_ZNKSt7variantIJldNSt7__cxx1112basic_stringIcSt11char_traitsIcESaIcEEESt3mapIS5_mSt4lessIS5_ESaISt4pairIKS5_mEEEEE22valueless_by_exceptionEv = comdat any

$_ZNSt8__detail9__variant5__getILm0ERKSt7variantIJldNSt7__cxx1112basic_stringIcSt11char_traitsIcESaIcEEESt3mapIS8_mSt4lessIS8_ESaISt4pairIKS8_mEEEEEEEDcOT0_ = comdat any

$_ZSt26__throw_bad_variant_accessPKc = comdat any

$_ZNSt18bad_variant_accessC2EPKc = comdat any

$_ZNSt18bad_variant_accessD2Ev = comdat any

$_ZNSt9exceptionC2Ev = comdat any

$_ZNSt18bad_variant_accessD0Ev = comdat any

$_ZNKSt18bad_variant_access4whatEv = comdat any

$_ZNSt8__detail9__variant7__get_nILm0ERKNS0_15_Variadic_unionIJldNSt7__cxx1112basic_stringIcSt11char_traitsIcESaIcEEESt3mapIS8_mSt4lessIS8_ESaISt4pairIKS8_mEEEEEEEEDcOT0_ = comdat any

$_ZNKRSt8__detail9__variant14_UninitializedIlLb1EE6_M_getEv = comdat any

$_ZSt8__invokeIZStneIJldNSt7__cxx1112basic_stringIcSt11char_traitsIcESaIcEEESt3mapIS6_mSt4lessIS6_ESaISt4pairIKS6_mEEEEEbRKSt7variantIJDpT_EESK_EUlOT_T0_E_JRKdSt17integral_constantImLm1EEEENSt15__invoke_resultISL_JDpT0_EE4typeESM_DpOSU_ = comdat any

$_ZNSt8__detail9__variant17__gen_vtable_implINS0_12_Multi_arrayIPFNS0_20__variant_idx_cookieEOZStneIJldNSt7__cxx1112basic_stringIcSt11char_traitsIcESaIcEEESt3mapISA_mSt4lessISA_ESaISt4pairIKSA_mEEEEEbRKSt7variantIJDpT_EESO_EUlOT_T0_E_RKSJ_IJldSA_SI_EEEJEEESt16integer_sequenceImJLm1EEEE28__element_by_index_or_cookieILm1ESW_EEDcOSR_ = comdat any

$_ZSt13__invoke_implIvZStneIJldNSt7__cxx1112basic_stringIcSt11char_traitsIcESaIcEEESt3mapIS6_mSt4lessIS6_ESaISt4pairIKS6_mEEEEEbRKSt7variantIJDpT_EESK_EUlOT_T0_E_JRKdSt17integral_constantImLm1EEEESL_St14__invoke_otherOSN_DpOT1_ = comdat any

$_ZZStneIJldNSt7__cxx1112basic_stringIcSt11char_traitsIcESaIcEEESt3mapIS5_mSt4lessIS5_ESaISt4pairIKS5_mEEEEEbRKSt7variantIJDpT_EESJ_ENUlOT_T0_E_clIRKdSt17integral_constantImLm1EEEEDaSL_SM_ = comdat any

$_ZNKSt17integral_constantImLm1EEcvmEv = comdat any

$_ZSt3getILm1EJldNSt7__cxx1112basic_stringIcSt11char_traitsIcESaIcEEESt3mapIS5_mSt4lessIS5_ESaISt4pairIKS5_mEEEEERKNSt19variant_alternativeIXT_ESt7variantIJDpT0_EEE4typeERKSI_ = comdat any

$_ZNSt8__detail9__variant5__getILm1ERKSt7variantIJldNSt7__cxx1112basic_stringIcSt11char_traitsIcESaIcEEESt3mapIS8_mSt4lessIS8_ESaISt4pairIKS8_mEEEEEEEDcOT0_ = comdat any

$_ZNSt8__detail9__variant7__get_nILm1ERKNS0_15_Variadic_unionIJldNSt7__cxx1112basic_stringIcSt11char_traitsIcESaIcEEESt3mapIS8_mSt4lessIS8_ESaISt4pairIKS8_mEEEEEEEEDcOT0_ = comdat any

$_ZNKRSt8__detail9__variant14_UninitializedIdLb1EE6_M_getEv = comdat any

$_ZSt8__invokeIZStneIJldNSt7__cxx1112basic_stringIcSt11char_traitsIcESaIcEEESt3mapIS6_mSt4lessIS6_ESaISt4pairIKS6_mEEEEEbRKSt7variantIJDpT_EESK_EUlOT_T0_E_JRSB_St17integral_constantImLm2EEEENSt15__invoke_resultISL_JDpT0_EE4typeESM_DpOST_ = comdat any

$_ZNSt8__detail9__variant17__gen_vtable_implINS0_12_Multi_arrayIPFNS0_20__variant_idx_cookieEOZStneIJldNSt7__cxx1112basic_stringIcSt11char_traitsIcESaIcEEESt3mapISA_mSt4lessISA_ESaISt4pairIKSA_mEEEEEbRKSt7variantIJDpT_EESO_EUlOT_T0_E_RKSJ_IJldSA_SI_EEEJEEESt16integer_sequenceImJLm2EEEE28__element_by_index_or_cookieILm2ESW_EEDcOSR_ = comdat any

$_ZSt13__invoke_implIvZStneIJldNSt7__cxx1112basic_stringIcSt11char_traitsIcESaIcEEESt3mapIS6_mSt4lessIS6_ESaISt4pairIKS6_mEEEEEbRKSt7variantIJDpT_EESK_EUlOT_T0_E_JRSB_St17integral_constantImLm2EEEESL_St14__invoke_otherOSN_DpOT1_ = comdat any

$_ZZStneIJldNSt7__cxx1112basic_stringIcSt11char_traitsIcESaIcEEESt3mapIS5_mSt4lessIS5_ESaISt4pairIKS5_mEEEEEbRKSt7variantIJDpT_EESJ_ENUlOT_T0_E_clIRSA_St17integral_constantImLm2EEEEDaSL_SM_ = comdat any

$_ZNKSt17integral_constantImLm2EEcvmEv = comdat any

$_ZSt3getILm2EJldNSt7__cxx1112basic_stringIcSt11char_traitsIcESaIcEEESt3mapIS5_mSt4lessIS5_ESaISt4pairIKS5_mEEEEERKNSt19variant_alternativeIXT_ESt7variantIJDpT0_EEE4typeERKSI_ = comdat any

$_ZStneIcSt11char_traitsIcESaIcEEbRKNSt7__cxx1112basic_stringIT_T0_T1_EESA_ = comdat any

$_ZNSt8__detail9__variant5__getILm2ERKSt7variantIJldNSt7__cxx1112basic_stringIcSt11char_traitsIcESaIcEEESt3mapIS8_mSt4lessIS8_ESaISt4pairIKS8_mEEEEEEEDcOT0_ = comdat any

$_ZNSt8__detail9__variant7__get_nILm2ERKNS0_15_Variadic_unionIJldNSt7__cxx1112basic_stringIcSt11char_traitsIcESaIcEEESt3mapIS8_mSt4lessIS8_ESaISt4pairIKS8_mEEEEEEEEDcOT0_ = comdat any

$_ZNKRSt8__detail9__variant14_UninitializedINSt7__cxx1112basic_stringIcSt11char_traitsIcESaIcEEELb0EE6_M_getEv = comdat any

$_ZNK9__gnu_cxx16__aligned_membufINSt7__cxx1112basic_stringIcSt11char_traitsIcESaIcEEEE6_M_ptrEv = comdat any

$_ZNK9__gnu_cxx16__aligned_membufINSt7__cxx1112basic_stringIcSt11char_traitsIcESaIcEEEE7_M_addrEv = comdat any

$_ZSteqIcEN9__gnu_cxx11__enable_ifIXsr9__is_charIT_EE7__valueEbE6__typeERKNSt7__cxx1112basic_stringIS2_St11char_traitsIS2_ESaIS2_EEESC_ = comdat any

$_ZNSt11char_traitsIcE7compareEPKcS2_m = comdat any

$_ZSt8__invokeIZStneIJldNSt7__cxx1112basic_stringIcSt11char_traitsIcESaIcEEESt3mapIS6_mSt4lessIS6_ESaISt4pairIKS6_mEEEEEbRKSt7variantIJDpT_EESK_EUlOT_T0_E_JRKSE_St17integral_constantImLm3EEEENSt15__invoke_resultISL_JDpT0_EE4typeESM_DpOSU_ = comdat any

$_ZNSt8__detail9__variant17__gen_vtable_implINS0_12_Multi_arrayIPFNS0_20__variant_idx_cookieEOZStneIJldNSt7__cxx1112basic_stringIcSt11char_traitsIcESaIcEEESt3mapISA_mSt4lessISA_ESaISt4pairIKSA_mEEEEEbRKSt7variantIJDpT_EESO_EUlOT_T0_E_RKSJ_IJldSA_SI_EEEJEEESt16integer_sequenceImJLm3EEEE28__element_by_index_or_cookieILm3ESW_EEDcOSR_ = comdat any

$_ZSt13__invoke_implIvZStneIJldNSt7__cxx1112basic_stringIcSt11char_traitsIcESaIcEEESt3mapIS6_mSt4lessIS6_ESaISt4pairIKS6_mEEEEEbRKSt7variantIJDpT_EESK_EUlOT_T0_E_JRKSE_St17integral_constantImLm3EEEESL_St14__invoke_otherOSN_DpOT1_ = comdat any

$_ZZStneIJldNSt7__cxx1112basic_stringIcSt11char_traitsIcESaIcEEESt3mapIS5_mSt4lessIS5_ESaISt4pairIKS5_mEEEEEbRKSt7variantIJDpT_EESJ_ENUlOT_T0_E_clIRKSD_St17integral_constantImLm3EEEEDaSL_SM_ = comdat any

$_ZNKSt17integral_constantImLm3EEcvmEv = comdat any

$_ZSt3getILm3EJldNSt7__cxx1112basic_stringIcSt11char_traitsIcESaIcEEESt3mapIS5_mSt4lessIS5_ESaISt4pairIKS5_mEEEEERKNSt19variant_alternativeIXT_ESt7variantIJDpT0_EEE4typeERKSI_ = comdat any

$_ZStneINSt7__cxx1112basic_stringIcSt11char_traitsIcESaIcEEEmSt4lessIS5_ESaISt4pairIKS5_mEEEbRKSt3mapIT_T0_T1_T2_ESJ_ = comdat any

$_ZNSt8__detail9__variant5__getILm3ERKSt7variantIJldNSt7__cxx1112basic_stringIcSt11char_traitsIcESaIcEEESt3mapIS8_mSt4lessIS8_ESaISt4pairIKS8_mEEEEEEEDcOT0_ = comdat any

$_ZNSt8__detail9__variant7__get_nILm3ERKNS0_15_Variadic_unionIJldNSt7__cxx1112basic_stringIcSt11char_traitsIcESaIcEEESt3mapIS8_mSt4lessIS8_ESaISt4pairIKS8_mEEEEEEEEDcOT0_ = comdat any

$_ZNSt8__detail9__variant7__get_nILm0ERKNS0_15_Variadic_unionIJSt3mapINSt7__cxx1112basic_stringIcSt11char_traitsIcESaIcEEEmSt4lessIS9_ESaISt4pairIKS9_mEEEEEEEEDcOT0_ = comdat any

$_ZNKRSt8__detail9__variant14_UninitializedISt3mapINSt7__cxx1112basic_stringIcSt11char_traitsIcESaIcEEEmSt4lessIS8_ESaISt4pairIKS8_mEEELb0EE6_M_getEv = comdat any

$_ZNK9__gnu_cxx16__aligned_membufISt3mapINSt7__cxx1112basic_stringIcSt11char_traitsIcESaIcEEEmSt4lessIS7_ESaISt4pairIKS7_mEEEE6_M_ptrEv = comdat any

$_ZNK9__gnu_cxx16__aligned_membufISt3mapINSt7__cxx1112basic_stringIcSt11char_traitsIcESaIcEEEmSt4lessIS7_ESaISt4pairIKS7_mEEEE7_M_addrEv = comdat any

$_ZSteqINSt7__cxx1112basic_stringIcSt11char_traitsIcESaIcEEEmSt4lessIS5_ESaISt4pairIKS5_mEEEbRKSt3mapIT_T0_T1_T2_ESJ_ = comdat any

$_ZSteqRKSt8_Rb_treeINSt7__cxx1112basic_stringIcSt11char_traitsIcESaIcEEESt4pairIKS5_mESt10_Select1stIS8_ESt4lessIS5_ESaIS8_EESG_ = comdat any

$_ZNKSt8_Rb_treeINSt7__cxx1112basic_stringIcSt11char_traitsIcESaIcEEESt4pairIKS5_mESt10_Select1stIS8_ESt4lessIS5_ESaIS8_EE4sizeEv = comdat any

$_ZSt5equalISt23_Rb_tree_const_iteratorISt4pairIKNSt7__cxx1112basic_stringIcSt11char_traitsIcESaIcEEEmEESA_EbT_SB_T0_ = comdat any

$_ZNKSt8_Rb_treeINSt7__cxx1112basic_stringIcSt11char_traitsIcESaIcEEESt4pairIKS5_mESt10_Select1stIS8_ESt4lessIS5_ESaIS8_EE5beginEv = comdat any

$_ZNKSt8_Rb_treeINSt7__cxx1112basic_stringIcSt11char_traitsIcESaIcEEESt4pairIKS5_mESt10_Select1stIS8_ESt4lessIS5_ESaIS8_EE3endEv = comdat any

$_ZSt11__equal_auxISt23_Rb_tree_const_iteratorISt4pairIKNSt7__cxx1112basic_stringIcSt11char_traitsIcESaIcEEEmEESA_EbT_SB_T0_ = comdat any

$_ZSt12__equal_aux1ISt23_Rb_tree_const_iteratorISt4pairIKNSt7__cxx1112basic_stringIcSt11char_traitsIcESaIcEEEmEESA_EbT_SB_T0_ = comdat any

$_ZSt12__niter_baseISt23_Rb_tree_const_iteratorISt4pairIKNSt7__cxx1112basic_stringIcSt11char_traitsIcESaIcEEEmEEET_SB_ = comdat any

$_ZNSt7__equalILb0EE5equalISt23_Rb_tree_const_iteratorISt4pairIKNSt7__cxx1112basic_stringIcSt11char_traitsIcESaIcEEEmEESC_EEbT_SD_T0_ = comdat any

$_ZStneRKSt23_Rb_tree_const_iteratorISt4pairIKNSt7__cxx1112basic_stringIcSt11char_traitsIcESaIcEEEmEESB_ = comdat any

$_ZSteqIKNSt7__cxx1112basic_stringIcSt11char_traitsIcESaIcEEEmEbRKSt4pairIT_T0_ESC_ = comdat any

$_ZNKSt23_Rb_tree_const_iteratorISt4pairIKNSt7__cxx1112basic_stringIcSt11char_traitsIcESaIcEEEmEEdeEv = comdat any

$_ZNSt23_Rb_tree_const_iteratorISt4pairIKNSt7__cxx1112basic_stringIcSt11char_traitsIcESaIcEEEmEEppEv = comdat any

$_ZNKSt13_Rb_tree_nodeISt4pairIKNSt7__cxx1112basic_stringIcSt11char_traitsIcESaIcEEEmEE9_M_valptrEv = comdat any

$_ZNK9__gnu_cxx16__aligned_membufISt4pairIKNSt7__cxx1112basic_stringIcSt11char_traitsIcESaIcEEEmEE6_M_ptrEv = comdat any

$_ZNK9__gnu_cxx16__aligned_membufISt4pairIKNSt7__cxx1112basic_stringIcSt11char_traitsIcESaIcEEEmEE7_M_addrEv = comdat any

$_ZNSt23_Rb_tree_const_iteratorISt4pairIKNSt7__cxx1112basic_stringIcSt11char_traitsIcESaIcEEEmEEC2EPKSt18_Rb_tree_node_base = comdat any

$_ZSt8__invokeIZStneIJldNSt7__cxx1112basic_stringIcSt11char_traitsIcESaIcEEESt3mapIS6_mSt4lessIS6_ESaISt4pairIKS6_mEEEEEbRKSt7variantIJDpT_EESK_EUlOT_T0_E_JNSt8__detail9__variant16__variant_cookieESt17integral_constantImLm18446744073709551615EEEENSt15__invoke_resultISL_JDpT0_EE4typeESM_DpOSV_ = comdat any

$_ZNSt8__detail9__variant17__gen_vtable_implINS0_12_Multi_arrayIPFNS0_20__variant_idx_cookieEOZStneIJldNSt7__cxx1112basic_stringIcSt11char_traitsIcESaIcEEESt3mapISA_mSt4lessISA_ESaISt4pairIKSA_mEEEEEbRKSt7variantIJDpT_EESO_EUlOT_T0_E_RKSJ_IJldSA_SI_EEEJEEESt16integer_sequenceImJLm18446744073709551615EEEE28__element_by_index_or_cookieILm18446744073709551615ESW_EEDcOSR_ = comdat any

$_ZSt13__invoke_implIvZStneIJldNSt7__cxx1112basic_stringIcSt11char_traitsIcESaIcEEESt3mapIS6_mSt4lessIS6_ESaISt4pairIKS6_mEEEEEbRKSt7variantIJDpT_EESK_EUlOT_T0_E_JNSt8__detail9__variant16__variant_cookieESt17integral_constantImLm18446744073709551615EEEESL_St14__invoke_otherOSN_DpOT1_ = comdat any

$_ZZStneIJldNSt7__cxx1112basic_stringIcSt11char_traitsIcESaIcEEESt3mapIS5_mSt4lessIS5_ESaISt4pairIKS5_mEEEEEbRKSt7variantIJDpT_EESJ_ENUlOT_T0_E_clINSt8__detail9__variant16__variant_cookieESt17integral_constantImLm18446744073709551615EEEEDaSL_SM_ = comdat any

$_ZNKSt17integral_constantImLm18446744073709551615EEcvmEv = comdat any

$_ZNKSt8_Rb_treeINSt7__cxx1112basic_stringIcSt11char_traitsIcESaIcEEESt4pairIKS5_St10unique_ptrIN4cvc58internal18StatisticBaseValueESt14default_deleteISB_EEESt10_Select1stISF_ESt4lessIS5_ESaISF_EE5beginEv = comdat any

$_ZNSt23_Rb_tree_const_iteratorISt4pairIKNSt7__cxx1112basic_stringIcSt11char_traitsIcESaIcEEESt10unique_ptrIN4cvc58internal18StatisticBaseValueESt14default_deleteISB_EEEEC2EPKSt18_Rb_tree_node_base = comdat any

$_ZNKSt8_Rb_treeINSt7__cxx1112basic_stringIcSt11char_traitsIcESaIcEEESt4pairIKS5_St10unique_ptrIN4cvc58internal18StatisticBaseValueESt14default_deleteISB_EEESt10_Select1stISF_ESt4lessIS5_ESaISF_EE3endEv = comdat any

$_ZNSt10unique_ptrISt3mapINSt7__cxx1112basic_stringIcSt11char_traitsIcESaIcEEESt7variantIJldS6_S0_IS6_mSt4lessIS6_ESaISt4pairIKS6_mEEEEES9_SaISA_ISB_SF_EEESt14default_deleteISI_EE11get_deleterEv = comdat any

$_ZNSt3mapINSt7__cxx1112basic_stringIcSt11char_traitsIcESaIcEEESt10unique_ptrIN4cvc58internal18StatisticBaseValueESt14default_deleteIS9_EESt4lessIS5_ESaISt4pairIKS5_SC_EEE4findERSG_ = comdat any

$_ZSteqRKSt17_Rb_tree_iteratorISt4pairIKNSt7__cxx1112basic_stringIcSt11char_traitsIcESaIcEEESt10unique_ptrIN4cvc58internal18StatisticBaseValueESt14default_deleteISB_EEEESI_ = comdat any

$_ZNSt3mapINSt7__cxx1112basic_stringIcSt11char_traitsIcESaIcEEESt10unique_ptrIN4cvc58internal18StatisticBaseValueESt14default_deleteIS9_EESt4lessIS5_ESaISt4pairIKS5_SC_EEE7emplaceIJRSG_S6_INS8_21StatisticAverageValueESA_ISM_EEEEESF_ISt17_Rb_tree_iteratorISH_EbEDpOT_ = comdat any

$_ZSt11make_uniqueIN4cvc58internal21StatisticAverageValueEJEENSt8__detail9_MakeUniqIT_E15__single_objectEDpOT0_ = comdat any

$_ZNSt10unique_ptrIN4cvc58internal21StatisticAverageValueESt14default_deleteIS2_EED2Ev = comdat any

$_ZNKSt17_Rb_tree_iteratorISt4pairIKNSt7__cxx1112basic_stringIcSt11char_traitsIcESaIcEEESt10unique_ptrIN4cvc58internal18StatisticBaseValueESt14default_deleteISB_EEEEptEv = comdat any

$_ZN4cvc58internal11AverageStatC2EPNS0_21StatisticAverageValueE = comdat any

$_ZNSt8_Rb_treeINSt7__cxx1112basic_stringIcSt11char_traitsIcESaIcEEESt4pairIKS5_St10unique_ptrIN4cvc58internal18StatisticBaseValueESt14default_deleteISB_EEESt10_Select1stISF_ESt4lessIS5_ESaISF_EE4findERS7_ = comdat any

$_ZNSt8_Rb_treeINSt7__cxx1112basic_stringIcSt11char_traitsIcESaIcEEESt4pairIKS5_St10unique_ptrIN4cvc58internal18StatisticBaseValueESt14default_deleteISB_EEESt10_Select1stISF_ESt4lessIS5_ESaISF_EE14_M_lower_boundEPSt13_Rb_tree_nodeISF_EPSt18_Rb_tree_node_baseRS7_ = comdat any

$_ZNSt8_Rb_treeINSt7__cxx1112basic_stringIcSt11char_traitsIcESaIcEEESt4pairIKS5_St10unique_ptrIN4cvc58internal18StatisticBaseValueESt14default_deleteISB_EEESt10_Select1stISF_ESt4lessIS5_ESaISF_EE6_M_endEv = comdat any

$_ZNSt8_Rb_treeINSt7__cxx1112basic_stringIcSt11char_traitsIcESaIcEEESt4pairIKS5_St10unique_ptrIN4cvc58internal18StatisticBaseValueESt14default_deleteISB_EEESt10_Select1stISF_ESt4lessIS5_ESaISF_EE3endEv = comdat any

$_ZNKSt4lessINSt7__cxx1112basic_stringIcSt11char_traitsIcESaIcEEEEclERKS5_S8_ = comdat any

$_ZNSt8_Rb_treeINSt7__cxx1112basic_stringIcSt11char_traitsIcESaIcEEESt4pairIKS5_St10unique_ptrIN4cvc58internal18StatisticBaseValueESt14default_deleteISB_EEESt10_Select1stISF_ESt4lessIS5_ESaISF_EE6_S_keyEPKSt18_Rb_tree_node_base = comdat any

$_ZNSt8_Rb_treeINSt7__cxx1112basic_stringIcSt11char_traitsIcESaIcEEESt4pairIKS5_St10unique_ptrIN4cvc58internal18StatisticBaseValueESt14default_deleteISB_EEESt10_Select1stISF_ESt4lessIS5_ESaISF_EE6_S_keyEPKSt13_Rb_tree_nodeISF_E = comdat any

$_ZNSt17_Rb_tree_iteratorISt4pairIKNSt7__cxx1112basic_stringIcSt11char_traitsIcESaIcEEESt10unique_ptrIN4cvc58internal18StatisticBaseValueESt14default_deleteISB_EEEEC2EPSt18_Rb_tree_node_base = comdat any

$_ZNKSt10_Select1stISt4pairIKNSt7__cxx1112basic_stringIcSt11char_traitsIcESaIcEEESt10unique_ptrIN4cvc58internal18StatisticBaseValueESt14default_deleteISB_EEEEclERKSF_ = comdat any

$_ZNKSt13_Rb_tree_nodeISt4pairIKNSt7__cxx1112basic_stringIcSt11char_traitsIcESaIcEEESt10unique_ptrIN4cvc58internal18StatisticBaseValueESt14default_deleteISB_EEEE9_M_valptrEv = comdat any

$_ZNK9__gnu_cxx16__aligned_membufISt4pairIKNSt7__cxx1112basic_stringIcSt11char_traitsIcESaIcEEESt10unique_ptrIN4cvc58internal18StatisticBaseValueESt14default_deleteISC_EEEE6_M_ptrEv = comdat any

$_ZNK9__gnu_cxx16__aligned_membufISt4pairIKNSt7__cxx1112basic_stringIcSt11char_traitsIcESaIcEEESt10unique_ptrIN4cvc58internal18StatisticBaseValueESt14default_deleteISC_EEEE7_M_addrEv = comdat any

$_ZStltIcSt11char_traitsIcESaIcEEbRKNSt7__cxx1112basic_stringIT_T0_T1_EESA_ = comdat any

$_ZNSt4pairIRKNSt7__cxx1112basic_stringIcSt11char_traitsIcESaIcEEERSt10unique_ptrIN4cvc58internal21StatisticAverageValueESt14default_deleteISB_EEEC2IS7_SF_TnNSt9enable_ifIXaaclsr5_PCCPE18_ConstructiblePairIT_T0_EEclsr5_PCCPE26_ImplicitlyConvertiblePairISJ_SK_EEEbE4typeELb1EEES7_SF_ = comdat any

$_ZSt3getILm0ERKNSt7__cxx1112basic_stringIcSt11char_traitsIcESaIcEEERSt10unique_ptrIN4cvc58internal21StatisticAverageValueESt14default_deleteISB_EEEONSt13tuple_elementIXT_ESt4pairIT0_T1_EE4typeEOSK_ = comdat any

$_ZSt3getILm1ERKNSt7__cxx1112basic_stringIcSt11char_traitsIcESaIcEEERSt10unique_ptrIN4cvc58internal21StatisticAverageValueESt14default_deleteISB_EEEONSt13tuple_elementIXT_ESt4pairIT0_T1_EE4typeEOSK_ = comdat any

$_ZNSt3mapINSt7__cxx1112basic_stringIcSt11char_traitsIcESaIcEEESt10unique_ptrIN4cvc58internal18StatisticBaseValueESt14default_deleteIS9_EESt4lessIS5_ESaISt4pairIKS5_SC_EEE11lower_boundERSG_ = comdat any

$_ZNKSt3mapINSt7__cxx1112basic_stringIcSt11char_traitsIcESaIcEEESt10unique_ptrIN4cvc58internal18StatisticBaseValueESt14default_deleteIS9_EESt4lessIS5_ESaISt4pairIKS5_SC_EEE8key_compEv = comdat any

$_ZNSt3mapINSt7__cxx1112basic_stringIcSt11char_traitsIcESaIcEEESt10unique_ptrIN4cvc58internal18StatisticBaseValueESt14default_deleteIS9_EESt4lessIS5_ESaISt4pairIKS5_SC_EEE12emplace_hintIJRSG_S6_INS8_21StatisticAverageValueESA_ISM_EEEEESt17_Rb_tree_iteratorISH_ESt23_Rb_tree_const_iteratorISH_EDpOT_ = comdat any

$_ZNSt23_Rb_tree_const_iteratorISt4pairIKNSt7__cxx1112basic_stringIcSt11char_traitsIcESaIcEEESt10unique_ptrIN4cvc58internal18StatisticBaseValueESt14default_deleteISB_EEEEC2ERKSt17_Rb_tree_iteratorISF_E = comdat any

$_ZNSt4pairISt17_Rb_tree_iteratorIS_IKNSt7__cxx1112basic_stringIcSt11char_traitsIcESaIcEEESt10unique_ptrIN4cvc58internal18StatisticBaseValueESt14default_deleteISB_EEEEbEC2IRSG_bTnNSt9enable_ifIXaaclsr5_PCCPE22_MoveConstructiblePairIT_T0_EEclsr5_PCCPE30_ImplicitlyMoveConvertiblePairISL_SM_EEEbE4typeELb1EEEOSL_OSM_ = comdat any

$_ZNSt10__pair_getILm0EE10__move_getIRKNSt7__cxx1112basic_stringIcSt11char_traitsIcESaIcEEERSt10unique_ptrIN4cvc58internal21StatisticAverageValueESt14default_deleteISD_EEEEOT_OSt4pairISI_T0_E = comdat any

$_ZNSt10__pair_getILm1EE10__move_getIRKNSt7__cxx1112basic_stringIcSt11char_traitsIcESaIcEEERSt10unique_ptrIN4cvc58internal21StatisticAverageValueESt14default_deleteISD_EEEEOT0_OSt4pairIT_SI_E = comdat any

$_ZNSt8_Rb_treeINSt7__cxx1112basic_stringIcSt11char_traitsIcESaIcEEESt4pairIKS5_St10unique_ptrIN4cvc58internal18StatisticBaseValueESt14default_deleteISB_EEESt10_Select1stISF_ESt4lessIS5_ESaISF_EE11lower_boundERS7_ = comdat any

$_ZNKSt8_Rb_treeINSt7__cxx1112basic_stringIcSt11char_traitsIcESaIcEEESt4pairIKS5_St10unique_ptrIN4cvc58internal18StatisticBaseValueESt14default_deleteISB_EEESt10_Select1stISF_ESt4lessIS5_ESaISF_EE8key_compEv = comdat any

$_ZNSt8_Rb_treeINSt7__cxx1112basic_stringIcSt11char_traitsIcESaIcEEESt4pairIKS5_St10unique_ptrIN4cvc58internal18StatisticBaseValueESt14default_deleteISB_EEESt10_Select1stISF_ESt4lessIS5_ESaISF_EE22_M_emplace_hint_uniqueIJRS7_S8_INSA_21StatisticAverageValueESC_ISO_EEEEESt17_Rb_tree_iteratorISF_ESt23_Rb_tree_const_iteratorISF_EDpOT_ = comdat any

$_ZNSt8_Rb_treeINSt7__cxx1112basic_stringIcSt11char_traitsIcESaIcEEESt4pairIKS5_St10unique_ptrIN4cvc58internal18StatisticBaseValueESt14default_deleteISB_EEESt10_Select1stISF_ESt4lessIS5_ESaISF_EE10_Auto_nodeC2IJRS7_S8_INSA_21StatisticAverageValueESC_ISP_EEEEERSL_DpOT_ = comdat any

$_ZNSt8_Rb_treeINSt7__cxx1112basic_stringIcSt11char_traitsIcESaIcEEESt4pairIKS5_St10unique_ptrIN4cvc58internal18StatisticBaseValueESt14default_deleteISB_EEESt10_Select1stISF_ESt4lessIS5_ESaISF_EE29_M_get_insert_hint_unique_posESt23_Rb_tree_const_iteratorISF_ERS7_ = comdat any

$_ZNKSt8_Rb_treeINSt7__cxx1112basic_stringIcSt11char_traitsIcESaIcEEESt4pairIKS5_St10unique_ptrIN4cvc58internal18StatisticBaseValueESt14default_deleteISB_EEESt10_Select1stISF_ESt4lessIS5_ESaISF_EE10_Auto_node6_M_keyEv = comdat any

$_ZNSt8_Rb_treeINSt7__cxx1112basic_stringIcSt11char_traitsIcESaIcEEESt4pairIKS5_St10unique_ptrIN4cvc58internal18StatisticBaseValueESt14default_deleteISB_EEESt10_Select1stISF_ESt4lessIS5_ESaISF_EE10_Auto_node9_M_insertES6_IPSt18_Rb_tree_node_baseSO_E = comdat any

$_ZNSt8_Rb_treeINSt7__cxx1112basic_stringIcSt11char_traitsIcESaIcEEESt4pairIKS5_St10unique_ptrIN4cvc58internal18StatisticBaseValueESt14default_deleteISB_EEESt10_Select1stISF_ESt4lessIS5_ESaISF_EE10_Auto_nodeD2Ev = comdat any

$_ZNSt8_Rb_treeINSt7__cxx1112basic_stringIcSt11char_traitsIcESaIcEEESt4pairIKS5_St10unique_ptrIN4cvc58internal18StatisticBaseValueESt14default_deleteISB_EEESt10_Select1stISF_ESt4lessIS5_ESaISF_EE14_M_create_nodeIJRS7_S8_INSA_21StatisticAverageValueESC_ISO_EEEEEPSt13_Rb_tree_nodeISF_EDpOT_ = comdat any

$_ZNSt8_Rb_treeINSt7__cxx1112basic_stringIcSt11char_traitsIcESaIcEEESt4pairIKS5_St10unique_ptrIN4cvc58internal18StatisticBaseValueESt14default_deleteISB_EEESt10_Select1stISF_ESt4lessIS5_ESaISF_EE11_M_get_nodeEv = comdat any

$_ZNSt8_Rb_treeINSt7__cxx1112basic_stringIcSt11char_traitsIcESaIcEEESt4pairIKS5_St10unique_ptrIN4cvc58internal18StatisticBaseValueESt14default_deleteISB_EEESt10_Select1stISF_ESt4lessIS5_ESaISF_EE17_M_construct_nodeIJRS7_S8_INSA_21StatisticAverageValueESC_ISO_EEEEEvPSt13_Rb_tree_nodeISF_EDpOT_ = comdat any

$_ZNSt16allocator_traitsISaISt13_Rb_tree_nodeISt4pairIKNSt7__cxx1112basic_stringIcSt11char_traitsIcESaIcEEESt10unique_ptrIN4cvc58internal18StatisticBaseValueESt14default_deleteISC_EEEEEE8allocateERSI_m = comdat any

$_ZNSt15__new_allocatorISt13_Rb_tree_nodeISt4pairIKNSt7__cxx1112basic_stringIcSt11char_traitsIcESaIcEEESt10unique_ptrIN4cvc58internal18StatisticBaseValueESt14default_deleteISC_EEEEE8allocateEmPKv = comdat any

$_ZNKSt15__new_allocatorISt13_Rb_tree_nodeISt4pairIKNSt7__cxx1112basic_stringIcSt11char_traitsIcESaIcEEESt10unique_ptrIN4cvc58internal18StatisticBaseValueESt14default_deleteISC_EEEEE11_M_max_sizeEv = comdat any

$_ZNSt16allocator_traitsISaISt13_Rb_tree_nodeISt4pairIKNSt7__cxx1112basic_stringIcSt11char_traitsIcESaIcEEESt10unique_ptrIN4cvc58internal18StatisticBaseValueESt14default_deleteISC_EEEEEE9constructISG_JRS8_S9_INSB_21StatisticAverageValueESD_ISM_EEEEEvRSI_PT_DpOT0_ = comdat any

$_ZNSt15__new_allocatorISt13_Rb_tree_nodeISt4pairIKNSt7__cxx1112basic_stringIcSt11char_traitsIcESaIcEEESt10unique_ptrIN4cvc58internal18StatisticBaseValueESt14default_deleteISC_EEEEE9constructISG_JRS8_S9_INSB_21StatisticAverageValueESD_ISL_EEEEEvPT_DpOT0_ = comdat any

$_ZNSt4pairIKNSt7__cxx1112basic_stringIcSt11char_traitsIcESaIcEEESt10unique_ptrIN4cvc58internal18StatisticBaseValueESt14default_deleteISA_EEEC2IRS6_S7_INS9_21StatisticAverageValueESB_ISH_EETnNSt9enable_ifIXaaclsr5_PCCPE22_MoveConstructiblePairIT_T0_EEclsr5_PCCPE30_ImplicitlyMoveConvertiblePairISL_SM_EEEbE4typeELb1EEEOSL_OSM_ = comdat any

$_ZNSt10unique_ptrIN4cvc58internal18StatisticBaseValueESt14default_deleteIS2_EEC2INS1_21StatisticAverageValueES3_IS7_EvEEOS_IT_T0_E = comdat any

$_ZNSt10unique_ptrIN4cvc58internal21StatisticAverageValueESt14default_deleteIS2_EE7releaseEv = comdat any

$_ZNSt10unique_ptrIN4cvc58internal21StatisticAverageValueESt14default_deleteIS2_EE11get_deleterEv = comdat any

$_ZNSt15__uniq_ptr_dataIN4cvc58internal18StatisticBaseValueESt14default_deleteIS2_ELb1ELb1EECI2St15__uniq_ptr_implIS2_S4_EIS3_INS1_21StatisticAverageValueEEEEPS2_OT_ = comdat any

$_ZNSt15__uniq_ptr_implIN4cvc58internal21StatisticAverageValueESt14default_deleteIS2_EE7releaseEv = comdat any

$_ZNSt15__uniq_ptr_implIN4cvc58internal21StatisticAverageValueESt14default_deleteIS2_EE6_M_ptrEv = comdat any

$_ZSt3getILm0EJPN4cvc58internal21StatisticAverageValueESt14default_deleteIS2_EEERNSt13tuple_elementIXT_ESt5tupleIJDpT0_EEE4typeERSA_ = comdat any

$_ZSt12__get_helperILm0EPN4cvc58internal21StatisticAverageValueEJSt14default_deleteIS2_EEERT0_RSt11_Tuple_implIXT_EJS6_DpT1_EE = comdat any

$_ZNSt11_Tuple_implILm0EJPN4cvc58internal21StatisticAverageValueESt14default_deleteIS2_EEE7_M_headERS6_ = comdat any

$_ZNSt10_Head_baseILm0EPN4cvc58internal21StatisticAverageValueELb0EE7_M_headERS4_ = comdat any

$_ZNSt15__uniq_ptr_implIN4cvc58internal21StatisticAverageValueESt14default_deleteIS2_EE10_M_deleterEv = comdat any

$_ZSt3getILm1EJPN4cvc58internal21StatisticAverageValueESt14default_deleteIS2_EEERNSt13tuple_elementIXT_ESt5tupleIJDpT0_EEE4typeERSA_ = comdat any

$_ZSt12__get_helperILm1ESt14default_deleteIN4cvc58internal21StatisticAverageValueEEJEERT0_RSt11_Tuple_implIXT_EJS5_DpT1_EE = comdat any

$_ZNSt11_Tuple_implILm1EJSt14default_deleteIN4cvc58internal21StatisticAverageValueEEEE7_M_headERS5_ = comdat any

$_ZNSt10_Head_baseILm1ESt14default_deleteIN4cvc58internal21StatisticAverageValueEELb1EE7_M_headERS5_ = comdat any

$_ZNSt15__uniq_ptr_implIN4cvc58internal18StatisticBaseValueESt14default_deleteIS2_EEC2IS3_INS1_21StatisticAverageValueEEEEPS2_OT_ = comdat any

$_ZNSt5tupleIJPN4cvc58internal18StatisticBaseValueESt14default_deleteIS2_EEEC2IRS3_S4_INS1_21StatisticAverageValueEETnNSt9enable_ifIXclsr4_TCCIXntcl14__is_alloc_argIT_EEEEE29__is_implicitly_constructibleISC_T0_EEEbE4typeELb1EEEOSC_OSD_ = comdat any

$_ZNSt11_Tuple_implILm0EJPN4cvc58internal18StatisticBaseValueESt14default_deleteIS2_EEEC2IRS3_JS4_INS1_21StatisticAverageValueEEEvEEOT_DpOT0_ = comdat any

$_ZNSt11_Tuple_implILm1EJSt14default_deleteIN4cvc58internal18StatisticBaseValueEEEEC2IS0_INS2_21StatisticAverageValueEEEEOT_ = comdat any

$_ZNSt10_Head_baseILm0EPN4cvc58internal18StatisticBaseValueELb0EEC2IRS3_EEOT_ = comdat any

$_ZNSt10_Head_baseILm1ESt14default_deleteIN4cvc58internal18StatisticBaseValueEELb1EEC2IS0_INS2_21StatisticAverageValueEEEEOT_ = comdat any

$_ZNSt14default_deleteIN4cvc58internal18StatisticBaseValueEEC2INS1_21StatisticAverageValueEvEERKS_IT_E = comdat any

$_ZNKSt23_Rb_tree_const_iteratorISt4pairIKNSt7__cxx1112basic_stringIcSt11char_traitsIcESaIcEEESt10unique_ptrIN4cvc58internal18StatisticBaseValueESt14default_deleteISB_EEEE13_M_const_castEv = comdat any

$_ZNKSt8_Rb_treeINSt7__cxx1112basic_stringIcSt11char_traitsIcESaIcEEESt4pairIKS5_St10unique_ptrIN4cvc58internal18StatisticBaseValueESt14default_deleteISB_EEESt10_Select1stISF_ESt4lessIS5_ESaISF_EE4sizeEv = comdat any

$_ZNSt8_Rb_treeINSt7__cxx1112basic_stringIcSt11char_traitsIcESaIcEEESt4pairIKS5_St10unique_ptrIN4cvc58internal18StatisticBaseValueESt14default_deleteISB_EEESt10_Select1stISF_ESt4lessIS5_ESaISF_EE12_M_rightmostEv = comdat any

$_ZNSt4pairIPSt18_Rb_tree_node_baseS1_EC2IS1_S1_TnNSt9enable_ifIXaaclsr5_PCCPE18_ConstructiblePairIT_T0_EEclsr5_PCCPE26_ImplicitlyConvertiblePairIS5_S6_EEEbE4typeELb1EEERKS1_SA_ = comdat any

$_ZNSt8_Rb_treeINSt7__cxx1112basic_stringIcSt11char_traitsIcESaIcEEESt4pairIKS5_St10unique_ptrIN4cvc58internal18StatisticBaseValueESt14default_deleteISB_EEESt10_Select1stISF_ESt4lessIS5_ESaISF_EE24_M_get_insert_unique_posERS7_ = comdat any

$_ZNSt8_Rb_treeINSt7__cxx1112basic_stringIcSt11char_traitsIcESaIcEEESt4pairIKS5_St10unique_ptrIN4cvc58internal18StatisticBaseValueESt14default_deleteISB_EEESt10_Select1stISF_ESt4lessIS5_ESaISF_EE11_M_leftmostEv = comdat any

$_ZNSt4pairIPSt18_Rb_tree_node_baseS1_EC2IRS1_S4_TnNSt9enable_ifIXaaclsr5_PCCPE22_MoveConstructiblePairIT_T0_EEclsr5_PCCPE30_ImplicitlyMoveConvertiblePairIS6_S7_EEEbE4typeELb1EEEOS6_OS7_ = comdat any

$_ZNSt17_Rb_tree_iteratorISt4pairIKNSt7__cxx1112basic_stringIcSt11char_traitsIcESaIcEEESt10unique_ptrIN4cvc58internal18StatisticBaseValueESt14default_deleteISB_EEEEmmEv = comdat any

$_ZNSt8_Rb_treeINSt7__cxx1112basic_stringIcSt11char_traitsIcESaIcEEESt4pairIKS5_St10unique_ptrIN4cvc58internal18StatisticBaseValueESt14default_deleteISB_EEESt10_Select1stISF_ESt4lessIS5_ESaISF_EE5beginEv = comdat any

$_ZNSt4pairIPSt18_Rb_tree_node_baseS1_EC2IRPSt13_Rb_tree_nodeIS_IKNSt7__cxx1112basic_stringIcSt11char_traitsIcESaIcEEESt10unique_ptrIN4cvc58internal18StatisticBaseValueESt14default_deleteISF_EEEERS1_TnNSt9enable_ifIXaaclsr5_PCCPE22_MoveConstructiblePairIT_T0_EEclsr5_PCCPE30_ImplicitlyMoveConvertiblePairISP_SQ_EEEbE4typeELb1EEEOSP_OSQ_ = comdat any

$_ZNSt8_Rb_treeINSt7__cxx1112basic_stringIcSt11char_traitsIcESaIcEEESt4pairIKS5_St10unique_ptrIN4cvc58internal18StatisticBaseValueESt14default_deleteISB_EEESt10_Select1stISF_ESt4lessIS5_ESaISF_EE14_M_insert_nodeEPSt18_Rb_tree_node_baseSN_PSt13_Rb_tree_nodeISF_E = comdat any

$_ZN4cvc58internal21StatisticAverageValueC2Ev = comdat any

$_ZNSt10unique_ptrIN4cvc58internal21StatisticAverageValueESt14default_deleteIS2_EEC2IS4_vEEPS2_ = comdat any

$_ZN4cvc58internal18StatisticBaseValueC2Ev = comdat any

$_ZNSt15__uniq_ptr_dataIN4cvc58internal21StatisticAverageValueESt14default_deleteIS2_ELb1ELb1EECI2St15__uniq_ptr_implIS2_S4_EEPS2_ = comdat any

$_ZNSt15__uniq_ptr_implIN4cvc58internal21StatisticAverageValueESt14default_deleteIS2_EEC2EPS2_ = comdat any

$_ZNSt5tupleIJPN4cvc58internal21StatisticAverageValueESt14default_deleteIS2_EEEC2ILb1ETnNSt9enable_ifIXclsr17_TupleConstraintsIXT_ES3_S5_EE37__is_implicitly_default_constructibleEEbE4typeELb1EEEv = comdat any

$_ZNSt11_Tuple_implILm0EJPN4cvc58internal21StatisticAverageValueESt14default_deleteIS2_EEEC2Ev = comdat any

$_ZNSt11_Tuple_implILm1EJSt14default_deleteIN4cvc58internal21StatisticAverageValueEEEEC2Ev = comdat any

$_ZNSt10_Head_baseILm0EPN4cvc58internal21StatisticAverageValueELb0EEC2Ev = comdat any

$_ZNSt10_Head_baseILm1ESt14default_deleteIN4cvc58internal21StatisticAverageValueEELb1EEC2Ev = comdat any

$_ZNKSt14default_deleteIN4cvc58internal21StatisticAverageValueEEclEPS2_ = comdat any

$_ZNSt3mapINSt7__cxx1112basic_stringIcSt11char_traitsIcESaIcEEESt10unique_ptrIN4cvc58internal18StatisticBaseValueESt14default_deleteIS9_EESt4lessIS5_ESaISt4pairIKS5_SC_EEE7emplaceIJRSG_S6_INS8_20StatisticBackedValueIlEESA_ISN_EEEEESF_ISt17_Rb_tree_iteratorISH_EbEDpOT_ = comdat any

$_ZSt11make_uniqueIN4cvc58internal20StatisticBackedValueIlEEJEENSt8__detail9_MakeUniqIT_E15__single_objectEDpOT0_ = comdat any

$_ZNSt10unique_ptrIN4cvc58internal20StatisticBackedValueIlEESt14default_deleteIS3_EED2Ev = comdat any

$_ZN4cvc58internal7IntStatC2EPNS0_20StatisticBackedValueIlEE = comdat any

$_ZNSt4pairIRKNSt7__cxx1112basic_stringIcSt11char_traitsIcESaIcEEERSt10unique_ptrIN4cvc58internal20StatisticBackedValueIlEESt14default_deleteISC_EEEC2IS7_SG_TnNSt9enable_ifIXaaclsr5_PCCPE18_ConstructiblePairIT_T0_EEclsr5_PCCPE26_ImplicitlyConvertiblePairISK_SL_EEEbE4typeELb1EEES7_SG_ = comdat any

$_ZSt3getILm0ERKNSt7__cxx1112basic_stringIcSt11char_traitsIcESaIcEEERSt10unique_ptrIN4cvc58internal20StatisticBackedValueIlEESt14default_deleteISC_EEEONSt13tuple_elementIXT_ESt4pairIT0_T1_EE4typeEOSL_ = comdat any

$_ZSt3getILm1ERKNSt7__cxx1112basic_stringIcSt11char_traitsIcESaIcEEERSt10unique_ptrIN4cvc58internal20StatisticBackedValueIlEESt14default_deleteISC_EEEONSt13tuple_elementIXT_ESt4pairIT0_T1_EE4typeEOSL_ = comdat any

$_ZNSt3mapINSt7__cxx1112basic_stringIcSt11char_traitsIcESaIcEEESt10unique_ptrIN4cvc58internal18StatisticBaseValueESt14default_deleteIS9_EESt4lessIS5_ESaISt4pairIKS5_SC_EEE12emplace_hintIJRSG_S6_INS8_20StatisticBackedValueIlEESA_ISN_EEEEESt17_Rb_tree_iteratorISH_ESt23_Rb_tree_const_iteratorISH_EDpOT_ = comdat any

$_ZNSt10__pair_getILm0EE10__move_getIRKNSt7__cxx1112basic_stringIcSt11char_traitsIcESaIcEEERSt10unique_ptrIN4cvc58internal20StatisticBackedValueIlEESt14default_deleteISE_EEEEOT_OSt4pairISJ_T0_E = comdat any

$_ZNSt10__pair_getILm1EE10__move_getIRKNSt7__cxx1112basic_stringIcSt11char_traitsIcESaIcEEERSt10unique_ptrIN4cvc58internal20StatisticBackedValueIlEESt14default_deleteISE_EEEEOT0_OSt4pairIT_SJ_E = comdat any

$_ZNSt8_Rb_treeINSt7__cxx1112basic_stringIcSt11char_traitsIcESaIcEEESt4pairIKS5_St10unique_ptrIN4cvc58internal18StatisticBaseValueESt14default_deleteISB_EEESt10_Select1stISF_ESt4lessIS5_ESaISF_EE22_M_emplace_hint_uniqueIJRS7_S8_INSA_20StatisticBackedValueIlEESC_ISP_EEEEESt17_Rb_tree_iteratorISF_ESt23_Rb_tree_const_iteratorISF_EDpOT_ = comdat any

$_ZNSt8_Rb_treeINSt7__cxx1112basic_stringIcSt11char_traitsIcESaIcEEESt4pairIKS5_St10unique_ptrIN4cvc58internal18StatisticBaseValueESt14default_deleteISB_EEESt10_Select1stISF_ESt4lessIS5_ESaISF_EE10_Auto_nodeC2IJRS7_S8_INSA_20StatisticBackedValueIlEESC_ISQ_EEEEERSL_DpOT_ = comdat any

$_ZNSt8_Rb_treeINSt7__cxx1112basic_stringIcSt11char_traitsIcESaIcEEESt4pairIKS5_St10unique_ptrIN4cvc58internal18StatisticBaseValueESt14default_deleteISB_EEESt10_Select1stISF_ESt4lessIS5_ESaISF_EE14_M_create_nodeIJRS7_S8_INSA_20StatisticBackedValueIlEESC_ISP_EEEEEPSt13_Rb_tree_nodeISF_EDpOT_ = comdat any

$_ZNSt8_Rb_treeINSt7__cxx1112basic_stringIcSt11char_traitsIcESaIcEEESt4pairIKS5_St10unique_ptrIN4cvc58internal18StatisticBaseValueESt14default_deleteISB_EEESt10_Select1stISF_ESt4lessIS5_ESaISF_EE17_M_construct_nodeIJRS7_S8_INSA_20StatisticBackedValueIlEESC_ISP_EEEEEvPSt13_Rb_tree_nodeISF_EDpOT_ = comdat any

$_ZNSt16allocator_traitsISaISt13_Rb_tree_nodeISt4pairIKNSt7__cxx1112basic_stringIcSt11char_traitsIcESaIcEEESt10unique_ptrIN4cvc58internal18StatisticBaseValueESt14default_deleteISC_EEEEEE9constructISG_JRS8_S9_INSB_20StatisticBackedValueIlEESD_ISN_EEEEEvRSI_PT_DpOT0_ = comdat any

$_ZNSt15__new_allocatorISt13_Rb_tree_nodeISt4pairIKNSt7__cxx1112basic_stringIcSt11char_traitsIcESaIcEEESt10unique_ptrIN4cvc58internal18StatisticBaseValueESt14default_deleteISC_EEEEE9constructISG_JRS8_S9_INSB_20StatisticBackedValueIlEESD_ISM_EEEEEvPT_DpOT0_ = comdat any

$_ZNSt4pairIKNSt7__cxx1112basic_stringIcSt11char_traitsIcESaIcEEESt10unique_ptrIN4cvc58internal18StatisticBaseValueESt14default_deleteISA_EEEC2IRS6_S7_INS9_20StatisticBackedValueIlEESB_ISI_EETnNSt9enable_ifIXaaclsr5_PCCPE22_MoveConstructiblePairIT_T0_EEclsr5_PCCPE30_ImplicitlyMoveConvertiblePairISM_SN_EEEbE4typeELb1EEEOSM_OSN_ = comdat any

$_ZNSt10unique_ptrIN4cvc58internal18StatisticBaseValueESt14default_deleteIS2_EEC2INS1_20StatisticBackedValueIlEES3_IS8_EvEEOS_IT_T0_E = comdat any

$_ZNSt10unique_ptrIN4cvc58internal20StatisticBackedValueIlEESt14default_deleteIS3_EE7releaseEv = comdat any

$_ZNSt10unique_ptrIN4cvc58internal20StatisticBackedValueIlEESt14default_deleteIS3_EE11get_deleterEv = comdat any

$_ZNSt15__uniq_ptr_dataIN4cvc58internal18StatisticBaseValueESt14default_deleteIS2_ELb1ELb1EECI2St15__uniq_ptr_implIS2_S4_EIS3_INS1_20StatisticBackedValueIlEEEEEPS2_OT_ = comdat any

$_ZNSt15__uniq_ptr_implIN4cvc58internal20StatisticBackedValueIlEESt14default_deleteIS3_EE7releaseEv = comdat any

$_ZNSt15__uniq_ptr_implIN4cvc58internal20StatisticBackedValueIlEESt14default_deleteIS3_EE6_M_ptrEv = comdat any

$_ZSt3getILm0EJPN4cvc58internal20StatisticBackedValueIlEESt14default_deleteIS3_EEERNSt13tuple_elementIXT_ESt5tupleIJDpT0_EEE4typeERSB_ = comdat any

$_ZSt12__get_helperILm0EPN4cvc58internal20StatisticBackedValueIlEEJSt14default_deleteIS3_EEERT0_RSt11_Tuple_implIXT_EJS7_DpT1_EE = comdat any

$_ZNSt11_Tuple_implILm0EJPN4cvc58internal20StatisticBackedValueIlEESt14default_deleteIS3_EEE7_M_headERS7_ = comdat any

$_ZNSt10_Head_baseILm0EPN4cvc58internal20StatisticBackedValueIlEELb0EE7_M_headERS5_ = comdat any

$_ZNSt15__uniq_ptr_implIN4cvc58internal20StatisticBackedValueIlEESt14default_deleteIS3_EE10_M_deleterEv = comdat any

$_ZSt3getILm1EJPN4cvc58internal20StatisticBackedValueIlEESt14default_deleteIS3_EEERNSt13tuple_elementIXT_ESt5tupleIJDpT0_EEE4typeERSB_ = comdat any

$_ZSt12__get_helperILm1ESt14default_deleteIN4cvc58internal20StatisticBackedValueIlEEEJEERT0_RSt11_Tuple_implIXT_EJS6_DpT1_EE = comdat any

$_ZNSt11_Tuple_implILm1EJSt14default_deleteIN4cvc58internal20StatisticBackedValueIlEEEEE7_M_headERS6_ = comdat any

$_ZNSt10_Head_baseILm1ESt14default_deleteIN4cvc58internal20StatisticBackedValueIlEEELb1EE7_M_headERS6_ = comdat any

$_ZNSt15__uniq_ptr_implIN4cvc58internal18StatisticBaseValueESt14default_deleteIS2_EEC2IS3_INS1_20StatisticBackedValueIlEEEEEPS2_OT_ = comdat any

$_ZNSt5tupleIJPN4cvc58internal18StatisticBaseValueESt14default_deleteIS2_EEEC2IRS3_S4_INS1_20StatisticBackedValueIlEEETnNSt9enable_ifIXclsr4_TCCIXntcl14__is_alloc_argIT_EEEEE29__is_implicitly_constructibleISD_T0_EEEbE4typeELb1EEEOSD_OSE_ = comdat any

$_ZNSt11_Tuple_implILm0EJPN4cvc58internal18StatisticBaseValueESt14default_deleteIS2_EEEC2IRS3_JS4_INS1_20StatisticBackedValueIlEEEEvEEOT_DpOT0_ = comdat any

$_ZNSt11_Tuple_implILm1EJSt14default_deleteIN4cvc58internal18StatisticBaseValueEEEEC2IS0_INS2_20StatisticBackedValueIlEEEEEOT_ = comdat any

$_ZNSt10_Head_baseILm1ESt14default_deleteIN4cvc58internal18StatisticBaseValueEELb1EEC2IS0_INS2_20StatisticBackedValueIlEEEEEOT_ = comdat any

$_ZNSt14default_deleteIN4cvc58internal18StatisticBaseValueEEC2INS1_20StatisticBackedValueIlEEvEERKS_IT_E = comdat any

$_ZN4cvc58internal20StatisticBackedValueIlEC2Ev = comdat any

$_ZNSt10unique_ptrIN4cvc58internal20StatisticBackedValueIlEESt14default_deleteIS3_EEC2IS5_vEEPS3_ = comdat any

$_ZN4cvc58internal20StatisticBackedValueIlED2Ev = comdat any

$_ZN4cvc58internal20StatisticBackedValueIlED0Ev = comdat any

$_ZNK4cvc58internal20StatisticBackedValueIlE9isDefaultEv = comdat any

$_ZNK4cvc58internal20StatisticBackedValueIlE9getViewerB5cxx11Ev = comdat any

$_ZNK4cvc58internal20StatisticBackedValueIlE9printSafeEi = comdat any

$_ZNSt7variantIJldNSt7__cxx1112basic_stringIcSt11char_traitsIcESaIcEEESt3mapIS5_mSt4lessIS5_ESaISt4pairIKS5_mEEEEEC2IRKlvvlvEEOT_ = comdat any

$_ZNSt7variantIJldNSt7__cxx1112basic_stringIcSt11char_traitsIcESaIcEEESt3mapIS5_mSt4lessIS5_ESaISt4pairIKS5_mEEEEEC2ILm0EJRKlElvEESt16in_place_index_tIXT_EEDpOT0_ = comdat any

$_ZNSt8__detail9__variant13_Variant_baseIJldNSt7__cxx1112basic_stringIcSt11char_traitsIcESaIcEEESt3mapIS7_mSt4lessIS7_ESaISt4pairIKS7_mEEEEEC2ILm0EJRKlEEESt16in_place_index_tIXT_EEDpOT0_ = comdat any

$_ZNSt27_Enable_default_constructorILb1ESt7variantIJldNSt7__cxx1112basic_stringIcSt11char_traitsIcESaIcEEESt3mapIS6_mSt4lessIS6_ESaISt4pairIKS6_mEEEEEEC2ESt31_Enable_default_constructor_tag = comdat any

$_ZNSt8__detail9__variant17_Move_assign_baseILb0EJldNSt7__cxx1112basic_stringIcSt11char_traitsIcESaIcEEESt3mapIS7_mSt4lessIS7_ESaISt4pairIKS7_mEEEEECI2NS0_16_Variant_storageILb0EJldS7_SF_EEEILm0EJRKlEEESt16in_place_index_tIXT_EEDpOT0_ = comdat any

$_ZNSt8__detail9__variant17_Copy_assign_baseILb0EJldNSt7__cxx1112basic_stringIcSt11char_traitsIcESaIcEEESt3mapIS7_mSt4lessIS7_ESaISt4pairIKS7_mEEEEECI2NS0_16_Variant_storageILb0EJldS7_SF_EEEILm0EJRKlEEESt16in_place_index_tIXT_EEDpOT0_ = comdat any

$_ZNSt8__detail9__variant15_Move_ctor_baseILb0EJldNSt7__cxx1112basic_stringIcSt11char_traitsIcESaIcEEESt3mapIS7_mSt4lessIS7_ESaISt4pairIKS7_mEEEEECI2NS0_16_Variant_storageILb0EJldS7_SF_EEEILm0EJRKlEEESt16in_place_index_tIXT_EEDpOT0_ = comdat any

$_ZNSt8__detail9__variant15_Copy_ctor_baseILb0EJldNSt7__cxx1112basic_stringIcSt11char_traitsIcESaIcEEESt3mapIS7_mSt4lessIS7_ESaISt4pairIKS7_mEEEEECI2NS0_16_Variant_storageILb0EJldS7_SF_EEEILm0EJRKlEEESt16in_place_index_tIXT_EEDpOT0_ = comdat any

$_ZNSt8__detail9__variant16_Variant_storageILb0EJldNSt7__cxx1112basic_stringIcSt11char_traitsIcESaIcEEESt3mapIS7_mSt4lessIS7_ESaISt4pairIKS7_mEEEEEC2ILm0EJRKlEEESt16in_place_index_tIXT_EEDpOT0_ = comdat any

$_ZNSt8__detail9__variant15_Variadic_unionIJldNSt7__cxx1112basic_stringIcSt11char_traitsIcESaIcEEESt3mapIS7_mSt4lessIS7_ESaISt4pairIKS7_mEEEEEC2IJRKlEEESt16in_place_index_tILm0EEDpOT_ = comdat any

$_ZNSt8__detail9__variant14_UninitializedIlLb1EEC2IJRKlEEESt16in_place_index_tILm0EEDpOT_ = comdat any

$_ZNSt15__uniq_ptr_dataIN4cvc58internal20StatisticBackedValueIlEESt14default_deleteIS3_ELb1ELb1EECI2St15__uniq_ptr_implIS3_S5_EEPS3_ = comdat any

$_ZNSt15__uniq_ptr_implIN4cvc58internal20StatisticBackedValueIlEESt14default_deleteIS3_EEC2EPS3_ = comdat any

$_ZNSt5tupleIJPN4cvc58internal20StatisticBackedValueIlEESt14default_deleteIS3_EEEC2ILb1ETnNSt9enable_ifIXclsr17_TupleConstraintsIXT_ES4_S6_EE37__is_implicitly_default_constructibleEEbE4typeELb1EEEv = comdat any

$_ZNSt11_Tuple_implILm0EJPN4cvc58internal20StatisticBackedValueIlEESt14default_deleteIS3_EEEC2Ev = comdat any

$_ZNSt11_Tuple_implILm1EJSt14default_deleteIN4cvc58internal20StatisticBackedValueIlEEEEEC2Ev = comdat any

$_ZNSt10_Head_baseILm0EPN4cvc58internal20StatisticBackedValueIlEELb0EEC2Ev = comdat any

$_ZNSt10_Head_baseILm1ESt14default_deleteIN4cvc58internal20StatisticBackedValueIlEEELb1EEC2Ev = comdat any

$_ZNKSt14default_deleteIN4cvc58internal20StatisticBackedValueIlEEEclEPS3_ = comdat any

$_ZN4cvc58internal9ValueStatIlEC2EPNS0_20StatisticBackedValueIlEE = comdat any

$_ZNSt3mapINSt7__cxx1112basic_stringIcSt11char_traitsIcESaIcEEESt10unique_ptrIN4cvc58internal18StatisticBaseValueESt14default_deleteIS9_EESt4lessIS5_ESaISt4pairIKS5_SC_EEE7emplaceIJRSG_S6_INS8_19StatisticTimerValueESA_ISM_EEEEESF_ISt17_Rb_tree_iteratorISH_EbEDpOT_ = comdat any

$_ZSt11make_uniqueIN4cvc58internal19StatisticTimerValueEJEENSt8__detail9_MakeUniqIT_E15__single_objectEDpOT0_ = comdat any

$_ZNSt10unique_ptrIN4cvc58internal19StatisticTimerValueESt14default_deleteIS2_EED2Ev = comdat any

$_ZN4cvc58internal9TimerStatC2EPNS0_19StatisticTimerValueE = comdat any

$_ZNSt4pairIRKNSt7__cxx1112basic_stringIcSt11char_traitsIcESaIcEEERSt10unique_ptrIN4cvc58internal19StatisticTimerValueESt14default_deleteISB_EEEC2IS7_SF_TnNSt9enable_ifIXaaclsr5_PCCPE18_ConstructiblePairIT_T0_EEclsr5_PCCPE26_ImplicitlyConvertiblePairISJ_SK_EEEbE4typeELb1EEES7_SF_ = comdat any

$_ZSt3getILm0ERKNSt7__cxx1112basic_stringIcSt11char_traitsIcESaIcEEERSt10unique_ptrIN4cvc58internal19StatisticTimerValueESt14default_deleteISB_EEEONSt13tuple_elementIXT_ESt4pairIT0_T1_EE4typeEOSK_ = comdat any

$_ZSt3getILm1ERKNSt7__cxx1112basic_stringIcSt11char_traitsIcESaIcEEERSt10unique_ptrIN4cvc58internal19StatisticTimerValueESt14default_deleteISB_EEEONSt13tuple_elementIXT_ESt4pairIT0_T1_EE4typeEOSK_ = comdat any

$_ZNSt3mapINSt7__cxx1112basic_stringIcSt11char_traitsIcESaIcEEESt10unique_ptrIN4cvc58internal18StatisticBaseValueESt14default_deleteIS9_EESt4lessIS5_ESaISt4pairIKS5_SC_EEE12emplace_hintIJRSG_S6_INS8_19StatisticTimerValueESA_ISM_EEEEESt17_Rb_tree_iteratorISH_ESt23_Rb_tree_const_iteratorISH_EDpOT_ = comdat any

$_ZNSt10__pair_getILm0EE10__move_getIRKNSt7__cxx1112basic_stringIcSt11char_traitsIcESaIcEEERSt10unique_ptrIN4cvc58internal19StatisticTimerValueESt14default_deleteISD_EEEEOT_OSt4pairISI_T0_E = comdat any

$_ZNSt10__pair_getILm1EE10__move_getIRKNSt7__cxx1112basic_stringIcSt11char_traitsIcESaIcEEERSt10unique_ptrIN4cvc58internal19StatisticTimerValueESt14default_deleteISD_EEEEOT0_OSt4pairIT_SI_E = comdat any

$_ZNSt8_Rb_treeINSt7__cxx1112basic_stringIcSt11char_traitsIcESaIcEEESt4pairIKS5_St10unique_ptrIN4cvc58internal18StatisticBaseValueESt14default_deleteISB_EEESt10_Select1stISF_ESt4lessIS5_ESaISF_EE22_M_emplace_hint_uniqueIJRS7_S8_INSA_19StatisticTimerValueESC_ISO_EEEEESt17_Rb_tree_iteratorISF_ESt23_Rb_tree_const_iteratorISF_EDpOT_ = comdat any

$_ZNSt8_Rb_treeINSt7__cxx1112basic_stringIcSt11char_traitsIcESaIcEEESt4pairIKS5_St10unique_ptrIN4cvc58internal18StatisticBaseValueESt14default_deleteISB_EEESt10_Select1stISF_ESt4lessIS5_ESaISF_EE10_Auto_nodeC2IJRS7_S8_INSA_19StatisticTimerValueESC_ISP_EEEEERSL_DpOT_ = comdat any

$_ZNSt8_Rb_treeINSt7__cxx1112basic_stringIcSt11char_traitsIcESaIcEEESt4pairIKS5_St10unique_ptrIN4cvc58internal18StatisticBaseValueESt14default_deleteISB_EEESt10_Select1stISF_ESt4lessIS5_ESaISF_EE14_M_create_nodeIJRS7_S8_INSA_19StatisticTimerValueESC_ISO_EEEEEPSt13_Rb_tree_nodeISF_EDpOT_ = comdat any

$_ZNSt8_Rb_treeINSt7__cxx1112basic_stringIcSt11char_traitsIcESaIcEEESt4pairIKS5_St10unique_ptrIN4cvc58internal18StatisticBaseValueESt14default_deleteISB_EEESt10_Select1stISF_ESt4lessIS5_ESaISF_EE17_M_construct_nodeIJRS7_S8_INSA_19StatisticTimerValueESC_ISO_EEEEEvPSt13_Rb_tree_nodeISF_EDpOT_ = comdat any

$_ZNSt16allocator_traitsISaISt13_Rb_tree_nodeISt4pairIKNSt7__cxx1112basic_stringIcSt11char_traitsIcESaIcEEESt10unique_ptrIN4cvc58internal18StatisticBaseValueESt14default_deleteISC_EEEEEE9constructISG_JRS8_S9_INSB_19StatisticTimerValueESD_ISM_EEEEEvRSI_PT_DpOT0_ = comdat any

$_ZNSt15__new_allocatorISt13_Rb_tree_nodeISt4pairIKNSt7__cxx1112basic_stringIcSt11char_traitsIcESaIcEEESt10unique_ptrIN4cvc58internal18StatisticBaseValueESt14default_deleteISC_EEEEE9constructISG_JRS8_S9_INSB_19StatisticTimerValueESD_ISL_EEEEEvPT_DpOT0_ = comdat any

$_ZNSt4pairIKNSt7__cxx1112basic_stringIcSt11char_traitsIcESaIcEEESt10unique_ptrIN4cvc58internal18StatisticBaseValueESt14default_deleteISA_EEEC2IRS6_S7_INS9_19StatisticTimerValueESB_ISH_EETnNSt9enable_ifIXaaclsr5_PCCPE22_MoveConstructiblePairIT_T0_EEclsr5_PCCPE30_ImplicitlyMoveConvertiblePairISL_SM_EEEbE4typeELb1EEEOSL_OSM_ = comdat any

$_ZNSt10unique_ptrIN4cvc58internal18StatisticBaseValueESt14default_deleteIS2_EEC2INS1_19StatisticTimerValueES3_IS7_EvEEOS_IT_T0_E = comdat any

$_ZNSt10unique_ptrIN4cvc58internal19StatisticTimerValueESt14default_deleteIS2_EE7releaseEv = comdat any

$_ZNSt10unique_ptrIN4cvc58internal19StatisticTimerValueESt14default_deleteIS2_EE11get_deleterEv = comdat any

$_ZNSt15__uniq_ptr_dataIN4cvc58internal18StatisticBaseValueESt14default_deleteIS2_ELb1ELb1EECI2St15__uniq_ptr_implIS2_S4_EIS3_INS1_19StatisticTimerValueEEEEPS2_OT_ = comdat any

$_ZNSt15__uniq_ptr_implIN4cvc58internal19StatisticTimerValueESt14default_deleteIS2_EE7releaseEv = comdat any

$_ZNSt15__uniq_ptr_implIN4cvc58internal19StatisticTimerValueESt14default_deleteIS2_EE6_M_ptrEv = comdat any

$_ZSt3getILm0EJPN4cvc58internal19StatisticTimerValueESt14default_deleteIS2_EEERNSt13tuple_elementIXT_ESt5tupleIJDpT0_EEE4typeERSA_ = comdat any

$_ZSt12__get_helperILm0EPN4cvc58internal19StatisticTimerValueEJSt14default_deleteIS2_EEERT0_RSt11_Tuple_implIXT_EJS6_DpT1_EE = comdat any

$_ZNSt11_Tuple_implILm0EJPN4cvc58internal19StatisticTimerValueESt14default_deleteIS2_EEE7_M_headERS6_ = comdat any

$_ZNSt10_Head_baseILm0EPN4cvc58internal19StatisticTimerValueELb0EE7_M_headERS4_ = comdat any

$_ZNSt15__uniq_ptr_implIN4cvc58internal19StatisticTimerValueESt14default_deleteIS2_EE10_M_deleterEv = comdat any

$_ZSt3getILm1EJPN4cvc58internal19StatisticTimerValueESt14default_deleteIS2_EEERNSt13tuple_elementIXT_ESt5tupleIJDpT0_EEE4typeERSA_ = comdat any

$_ZSt12__get_helperILm1ESt14default_deleteIN4cvc58internal19StatisticTimerValueEEJEERT0_RSt11_Tuple_implIXT_EJS5_DpT1_EE = comdat any

$_ZNSt11_Tuple_implILm1EJSt14default_deleteIN4cvc58internal19StatisticTimerValueEEEE7_M_headERS5_ = comdat any

$_ZNSt10_Head_baseILm1ESt14default_deleteIN4cvc58internal19StatisticTimerValueEELb1EE7_M_headERS5_ = comdat any

$_ZNSt15__uniq_ptr_implIN4cvc58internal18StatisticBaseValueESt14default_deleteIS2_EEC2IS3_INS1_19StatisticTimerValueEEEEPS2_OT_ = comdat any

$_ZNSt5tupleIJPN4cvc58internal18StatisticBaseValueESt14default_deleteIS2_EEEC2IRS3_S4_INS1_19StatisticTimerValueEETnNSt9enable_ifIXclsr4_TCCIXntcl14__is_alloc_argIT_EEEEE29__is_implicitly_constructibleISC_T0_EEEbE4typeELb1EEEOSC_OSD_ = comdat any

$_ZNSt11_Tuple_implILm0EJPN4cvc58internal18StatisticBaseValueESt14default_deleteIS2_EEEC2IRS3_JS4_INS1_19StatisticTimerValueEEEvEEOT_DpOT0_ = comdat any

$_ZNSt11_Tuple_implILm1EJSt14default_deleteIN4cvc58internal18StatisticBaseValueEEEEC2IS0_INS2_19StatisticTimerValueEEEEOT_ = comdat any

$_ZNSt10_Head_baseILm1ESt14default_deleteIN4cvc58internal18StatisticBaseValueEELb1EEC2IS0_INS2_19StatisticTimerValueEEEEOT_ = comdat any

$_ZNSt14default_deleteIN4cvc58internal18StatisticBaseValueEEC2INS1_19StatisticTimerValueEvEERKS_IT_E = comdat any

$_ZN4cvc58internal19StatisticTimerValueC2Ev = comdat any

$_ZNSt10unique_ptrIN4cvc58internal19StatisticTimerValueESt14default_deleteIS2_EEC2IS4_vEEPS2_ = comdat any

$_ZNSt6chrono10time_pointINS_3_V212steady_clockENS_8durationIlSt5ratioILl1ELl1000000000EEEEEC2Ev = comdat any

$_ZNSt6chrono8durationIlSt5ratioILl1ELl1000000000EEE4zeroEv = comdat any

$_ZNSt6chrono15duration_valuesIlE4zeroEv = comdat any

$_ZNSt6chrono8durationIlSt5ratioILl1ELl1000000000EEEC2IlvEERKT_ = comdat any

$_ZNSt15__uniq_ptr_dataIN4cvc58internal19StatisticTimerValueESt14default_deleteIS2_ELb1ELb1EECI2St15__uniq_ptr_implIS2_S4_EEPS2_ = comdat any

$_ZNSt15__uniq_ptr_implIN4cvc58internal19StatisticTimerValueESt14default_deleteIS2_EEC2EPS2_ = comdat any

$_ZNSt5tupleIJPN4cvc58internal19StatisticTimerValueESt14default_deleteIS2_EEEC2ILb1ETnNSt9enable_ifIXclsr17_TupleConstraintsIXT_ES3_S5_EE37__is_implicitly_default_constructibleEEbE4typeELb1EEEv = comdat any

$_ZNSt11_Tuple_implILm0EJPN4cvc58internal19StatisticTimerValueESt14default_deleteIS2_EEEC2Ev = comdat any

$_ZNSt11_Tuple_implILm1EJSt14default_deleteIN4cvc58internal19StatisticTimerValueEEEEC2Ev = comdat any

$_ZNSt10_Head_baseILm0EPN4cvc58internal19StatisticTimerValueELb0EEC2Ev = comdat any

$_ZNSt10_Head_baseILm1ESt14default_deleteIN4cvc58internal19StatisticTimerValueEELb1EEC2Ev = comdat any

$_ZNKSt14default_deleteIN4cvc58internal19StatisticTimerValueEEclEPS2_ = comdat any

$_ZNSt3mapINSt7__cxx1112basic_stringIcSt11char_traitsIcESaIcEEESt7variantIJldS5_S_IS5_mSt4lessIS5_ESaISt4pairIKS5_mEEEEES8_SaIS9_ISA_SE_EEEC2Ev = comdat any

$_ZNSt10unique_ptrISt3mapINSt7__cxx1112basic_stringIcSt11char_traitsIcESaIcEEESt7variantIJldS6_S0_IS6_mSt4lessIS6_ESaISt4pairIKS6_mEEEEES9_SaISA_ISB_SF_EEESt14default_deleteISI_EEC2ISK_vEEPSI_ = comdat any

$_ZNSt8_Rb_treeINSt7__cxx1112basic_stringIcSt11char_traitsIcESaIcEEESt4pairIKS5_St7variantIJldS5_St3mapIS5_mSt4lessIS5_ESaIS6_IS7_mEEEEEESt10_Select1stISG_ESB_SaISG_EEC2Ev = comdat any

$_ZNSt8_Rb_treeINSt7__cxx1112basic_stringIcSt11char_traitsIcESaIcEEESt4pairIKS5_St7variantIJldS5_St3mapIS5_mSt4lessIS5_ESaIS6_IS7_mEEEEEESt10_Select1stISG_ESB_SaISG_EE13_Rb_tree_implISB_Lb1EEC2Ev = comdat any

$_ZNSaISt13_Rb_tree_nodeISt4pairIKNSt7__cxx1112basic_stringIcSt11char_traitsIcESaIcEEESt7variantIJldS6_St3mapIS6_mSt4lessIS6_ESaIS0_IS7_mEEEEEEEEC2Ev = comdat any

$_ZNSt15__new_allocatorISt13_Rb_tree_nodeISt4pairIKNSt7__cxx1112basic_stringIcSt11char_traitsIcESaIcEEESt7variantIJldS7_St3mapIS7_mSt4lessIS7_ESaIS1_IS8_mEEEEEEEEC2Ev = comdat any

$_ZNSt15__uniq_ptr_dataISt3mapINSt7__cxx1112basic_stringIcSt11char_traitsIcESaIcEEESt7variantIJldS6_S0_IS6_mSt4lessIS6_ESaISt4pairIKS6_mEEEEES9_SaISA_ISB_SF_EEESt14default_deleteISI_ELb1ELb1EECI2St15__uniq_ptr_implISI_SK_EEPSI_ = comdat any

$_ZNSt15__uniq_ptr_implISt3mapINSt7__cxx1112basic_stringIcSt11char_traitsIcESaIcEEESt7variantIJldS6_S0_IS6_mSt4lessIS6_ESaISt4pairIKS6_mEEEEES9_SaISA_ISB_SF_EEESt14default_deleteISI_EEC2EPSI_ = comdat any

$_ZNKSt10unique_ptrISt3mapINSt7__cxx1112basic_stringIcSt11char_traitsIcESaIcEEESt7variantIJldS6_S0_IS6_mSt4lessIS6_ESaISt4pairIKS6_mEEEEES9_SaISA_ISB_SF_EEESt14default_deleteISI_EE3getEv = comdat any

$_ZNKSt15__uniq_ptr_implISt3mapINSt7__cxx1112basic_stringIcSt11char_traitsIcESaIcEEESt7variantIJldS6_S0_IS6_mSt4lessIS6_ESaISt4pairIKS6_mEEEEES9_SaISA_ISB_SF_EEESt14default_deleteISI_EE6_M_ptrEv = comdat any

$_ZSt3getILm0EJPSt3mapINSt7__cxx1112basic_stringIcSt11char_traitsIcESaIcEEESt7variantIJldS6_S0_IS6_mSt4lessIS6_ESaISt4pairIKS6_mEEEEES9_SaISA_ISB_SF_EEESt14default_deleteISI_EEERKNSt13tuple_elementIXT_ESt5tupleIJDpT0_EEE4typeERKSQ_ = comdat any

$_ZSt12__get_helperILm0EPSt3mapINSt7__cxx1112basic_stringIcSt11char_traitsIcESaIcEEESt7variantIJldS6_S0_IS6_mSt4lessIS6_ESaISt4pairIKS6_mEEEEES9_SaISA_ISB_SF_EEEJSt14default_deleteISI_EEERKT0_RKSt11_Tuple_implIXT_EJSM_DpT1_EE = comdat any

$_ZNSt11_Tuple_implILm0EJPSt3mapINSt7__cxx1112basic_stringIcSt11char_traitsIcESaIcEEESt7variantIJldS6_S0_IS6_mSt4lessIS6_ESaISt4pairIKS6_mEEEEES9_SaISA_ISB_SF_EEESt14default_deleteISI_EEE7_M_headERKSM_ = comdat any

$_ZNSt10_Head_baseILm0EPSt3mapINSt7__cxx1112basic_stringIcSt11char_traitsIcESaIcEEESt7variantIJldS6_S0_IS6_mSt4lessIS6_ESaISt4pairIKS6_mEEEEES9_SaISA_ISB_SF_EEELb0EE7_M_headERKSK_ = comdat any

$_ZNSt4pairIRKNSt7__cxx1112basic_stringIcSt11char_traitsIcESaIcEEERSt7variantIJldS5_St3mapIS5_mSt4lessIS5_ESaIS_IS6_mEEEEEEC2IS7_SG_TnNSt9enable_ifIXaaclsr5_PCCPE18_ConstructiblePairIT_T0_EEclsr5_PCCPE26_ImplicitlyConvertiblePairISK_SL_EEEbE4typeELb1EEES7_SG_ = comdat any

$_ZSt3getILm0ERKNSt7__cxx1112basic_stringIcSt11char_traitsIcESaIcEEERSt7variantIJldS5_St3mapIS5_mSt4lessIS5_ESaISt4pairIS6_mEEEEEEONSt13tuple_elementIXT_ESC_IT0_T1_EE4typeEOSL_ = comdat any

$_ZSt3getILm1ERKNSt7__cxx1112basic_stringIcSt11char_traitsIcESaIcEEERSt7variantIJldS5_St3mapIS5_mSt4lessIS5_ESaISt4pairIS6_mEEEEEEONSt13tuple_elementIXT_ESC_IT0_T1_EE4typeEOSL_ = comdat any

$_ZNSt3mapINSt7__cxx1112basic_stringIcSt11char_traitsIcESaIcEEESt7variantIJldS5_S_IS5_mSt4lessIS5_ESaISt4pairIKS5_mEEEEES8_SaIS9_ISA_SE_EEE11lower_boundERSA_ = comdat any

$_ZNKSt3mapINSt7__cxx1112basic_stringIcSt11char_traitsIcESaIcEEESt7variantIJldS5_S_IS5_mSt4lessIS5_ESaISt4pairIKS5_mEEEEES8_SaIS9_ISA_SE_EEE8key_compEv = comdat any

$_ZNKSt17_Rb_tree_iteratorISt4pairIKNSt7__cxx1112basic_stringIcSt11char_traitsIcESaIcEEESt7variantIJldS6_St3mapIS6_mSt4lessIS6_ESaIS0_IS7_mEEEEEEEdeEv = comdat any

$_ZNSt3mapINSt7__cxx1112basic_stringIcSt11char_traitsIcESaIcEEESt7variantIJldS5_S_IS5_mSt4lessIS5_ESaISt4pairIKS5_mEEEEES8_SaIS9_ISA_SE_EEE12emplace_hintIJRSA_SE_EEESt17_Rb_tree_iteratorISF_ESt23_Rb_tree_const_iteratorISF_EDpOT_ = comdat any

$_ZNSt23_Rb_tree_const_iteratorISt4pairIKNSt7__cxx1112basic_stringIcSt11char_traitsIcESaIcEEESt7variantIJldS6_St3mapIS6_mSt4lessIS6_ESaIS0_IS7_mEEEEEEEC2ERKSt17_Rb_tree_iteratorISG_E = comdat any

$_ZNSt4pairISt17_Rb_tree_iteratorIS_IKNSt7__cxx1112basic_stringIcSt11char_traitsIcESaIcEEESt7variantIJldS6_St3mapIS6_mSt4lessIS6_ESaIS_IS7_mEEEEEEEbEC2IRSH_bTnNSt9enable_ifIXaaclsr5_PCCPE22_MoveConstructiblePairIT_T0_EEclsr5_PCCPE30_ImplicitlyMoveConvertiblePairISM_SN_EEEbE4typeELb1EEEOSM_OSN_ = comdat any

$_ZNSt10__pair_getILm0EE10__move_getIRKNSt7__cxx1112basic_stringIcSt11char_traitsIcESaIcEEERSt7variantIJldS7_St3mapIS7_mSt4lessIS7_ESaISt4pairIS8_mEEEEEEEOT_OSE_ISK_T0_E = comdat any

$_ZNSt10__pair_getILm1EE10__move_getIRKNSt7__cxx1112basic_stringIcSt11char_traitsIcESaIcEEERSt7variantIJldS7_St3mapIS7_mSt4lessIS7_ESaISt4pairIS8_mEEEEEEEOT0_OSE_IT_SK_E = comdat any

$_ZNSt8_Rb_treeINSt7__cxx1112basic_stringIcSt11char_traitsIcESaIcEEESt4pairIKS5_St7variantIJldS5_St3mapIS5_mSt4lessIS5_ESaIS6_IS7_mEEEEEESt10_Select1stISG_ESB_SaISG_EE11lower_boundERS7_ = comdat any

$_ZNSt8_Rb_treeINSt7__cxx1112basic_stringIcSt11char_traitsIcESaIcEEESt4pairIKS5_St7variantIJldS5_St3mapIS5_mSt4lessIS5_ESaIS6_IS7_mEEEEEESt10_Select1stISG_ESB_SaISG_EE14_M_lower_boundEPSt13_Rb_tree_nodeISG_EPSt18_Rb_tree_node_baseRS7_ = comdat any

$_ZNSt8_Rb_treeINSt7__cxx1112basic_stringIcSt11char_traitsIcESaIcEEESt4pairIKS5_St7variantIJldS5_St3mapIS5_mSt4lessIS5_ESaIS6_IS7_mEEEEEESt10_Select1stISG_ESB_SaISG_EE6_M_endEv = comdat any

$_ZNSt8_Rb_treeINSt7__cxx1112basic_stringIcSt11char_traitsIcESaIcEEESt4pairIKS5_St7variantIJldS5_St3mapIS5_mSt4lessIS5_ESaIS6_IS7_mEEEEEESt10_Select1stISG_ESB_SaISG_EE6_S_keyEPKSt13_Rb_tree_nodeISG_E = comdat any

$_ZNSt17_Rb_tree_iteratorISt4pairIKNSt7__cxx1112basic_stringIcSt11char_traitsIcESaIcEEESt7variantIJldS6_St3mapIS6_mSt4lessIS6_ESaIS0_IS7_mEEEEEEEC2EPSt18_Rb_tree_node_base = comdat any

$_ZNKSt10_Select1stISt4pairIKNSt7__cxx1112basic_stringIcSt11char_traitsIcESaIcEEESt7variantIJldS6_St3mapIS6_mSt4lessIS6_ESaIS0_IS7_mEEEEEEEclERKSG_ = comdat any

$_ZNKSt13_Rb_tree_nodeISt4pairIKNSt7__cxx1112basic_stringIcSt11char_traitsIcESaIcEEESt7variantIJldS6_St3mapIS6_mSt4lessIS6_ESaIS0_IS7_mEEEEEEE9_M_valptrEv = comdat any

$_ZNK9__gnu_cxx16__aligned_membufISt4pairIKNSt7__cxx1112basic_stringIcSt11char_traitsIcESaIcEEESt7variantIJldS7_St3mapIS7_mSt4lessIS7_ESaIS1_IS8_mEEEEEEE6_M_ptrEv = comdat any

$_ZNK9__gnu_cxx16__aligned_membufISt4pairIKNSt7__cxx1112basic_stringIcSt11char_traitsIcESaIcEEESt7variantIJldS7_St3mapIS7_mSt4lessIS7_ESaIS1_IS8_mEEEEEEE7_M_addrEv = comdat any

$_ZNKSt8_Rb_treeINSt7__cxx1112basic_stringIcSt11char_traitsIcESaIcEEESt4pairIKS5_St7variantIJldS5_St3mapIS5_mSt4lessIS5_ESaIS6_IS7_mEEEEEESt10_Select1stISG_ESB_SaISG_EE8key_compEv = comdat any

$_ZNSt8_Rb_treeINSt7__cxx1112basic_stringIcSt11char_traitsIcESaIcEEESt4pairIKS5_St7variantIJldS5_St3mapIS5_mSt4lessIS5_ESaIS6_IS7_mEEEEEESt10_Select1stISG_ESB_SaISG_EE22_M_emplace_hint_uniqueIJRS7_SF_EEESt17_Rb_tree_iteratorISG_ESt23_Rb_tree_const_iteratorISG_EDpOT_ = comdat any

$_ZNSt8_Rb_treeINSt7__cxx1112basic_stringIcSt11char_traitsIcESaIcEEESt4pairIKS5_St7variantIJldS5_St3mapIS5_mSt4lessIS5_ESaIS6_IS7_mEEEEEESt10_Select1stISG_ESB_SaISG_EE10_Auto_nodeC2IJRS7_SF_EEERSK_DpOT_ = comdat any

$_ZNSt8_Rb_treeINSt7__cxx1112basic_stringIcSt11char_traitsIcESaIcEEESt4pairIKS5_St7variantIJldS5_St3mapIS5_mSt4lessIS5_ESaIS6_IS7_mEEEEEESt10_Select1stISG_ESB_SaISG_EE29_M_get_insert_hint_unique_posESt23_Rb_tree_const_iteratorISG_ERS7_ = comdat any

$_ZNKSt8_Rb_treeINSt7__cxx1112basic_stringIcSt11char_traitsIcESaIcEEESt4pairIKS5_St7variantIJldS5_St3mapIS5_mSt4lessIS5_ESaIS6_IS7_mEEEEEESt10_Select1stISG_ESB_SaISG_EE10_Auto_node6_M_keyEv = comdat any

$_ZNSt8_Rb_treeINSt7__cxx1112basic_stringIcSt11char_traitsIcESaIcEEESt4pairIKS5_St7variantIJldS5_St3mapIS5_mSt4lessIS5_ESaIS6_IS7_mEEEEEESt10_Select1stISG_ESB_SaISG_EE10_Auto_node9_M_insertES6_IPSt18_Rb_tree_node_baseSN_E = comdat any

$_ZNSt8_Rb_treeINSt7__cxx1112basic_stringIcSt11char_traitsIcESaIcEEESt4pairIKS5_St7variantIJldS5_St3mapIS5_mSt4lessIS5_ESaIS6_IS7_mEEEEEESt10_Select1stISG_ESB_SaISG_EE10_Auto_nodeD2Ev = comdat any

$_ZNSt8_Rb_treeINSt7__cxx1112basic_stringIcSt11char_traitsIcESaIcEEESt4pairIKS5_St7variantIJldS5_St3mapIS5_mSt4lessIS5_ESaIS6_IS7_mEEEEEESt10_Select1stISG_ESB_SaISG_EE14_M_create_nodeIJRS7_SF_EEEPSt13_Rb_tree_nodeISG_EDpOT_ = comdat any

$_ZNSt8_Rb_treeINSt7__cxx1112basic_stringIcSt11char_traitsIcESaIcEEESt4pairIKS5_St7variantIJldS5_St3mapIS5_mSt4lessIS5_ESaIS6_IS7_mEEEEEESt10_Select1stISG_ESB_SaISG_EE11_M_get_nodeEv = comdat any

$_ZNSt8_Rb_treeINSt7__cxx1112basic_stringIcSt11char_traitsIcESaIcEEESt4pairIKS5_St7variantIJldS5_St3mapIS5_mSt4lessIS5_ESaIS6_IS7_mEEEEEESt10_Select1stISG_ESB_SaISG_EE17_M_construct_nodeIJRS7_SF_EEEvPSt13_Rb_tree_nodeISG_EDpOT_ = comdat any

$_ZNSt16allocator_traitsISaISt13_Rb_tree_nodeISt4pairIKNSt7__cxx1112basic_stringIcSt11char_traitsIcESaIcEEESt7variantIJldS7_St3mapIS7_mSt4lessIS7_ESaIS1_IS8_mEEEEEEEEE8allocateERSJ_m = comdat any

$_ZNSt15__new_allocatorISt13_Rb_tree_nodeISt4pairIKNSt7__cxx1112basic_stringIcSt11char_traitsIcESaIcEEESt7variantIJldS7_St3mapIS7_mSt4lessIS7_ESaIS1_IS8_mEEEEEEEE8allocateEmPKv = comdat any

$_ZNKSt15__new_allocatorISt13_Rb_tree_nodeISt4pairIKNSt7__cxx1112basic_stringIcSt11char_traitsIcESaIcEEESt7variantIJldS7_St3mapIS7_mSt4lessIS7_ESaIS1_IS8_mEEEEEEEE11_M_max_sizeEv = comdat any

$_ZNSt16allocator_traitsISaISt13_Rb_tree_nodeISt4pairIKNSt7__cxx1112basic_stringIcSt11char_traitsIcESaIcEEESt7variantIJldS7_St3mapIS7_mSt4lessIS7_ESaIS1_IS8_mEEEEEEEEE9constructISH_JRS8_SG_EEEvRSJ_PT_DpOT0_ = comdat any

$_ZNSt15__new_allocatorISt13_Rb_tree_nodeISt4pairIKNSt7__cxx1112basic_stringIcSt11char_traitsIcESaIcEEESt7variantIJldS7_St3mapIS7_mSt4lessIS7_ESaIS1_IS8_mEEEEEEEE9constructISH_JRS8_SG_EEEvPT_DpOT0_ = comdat any

$_ZNSt4pairIKNSt7__cxx1112basic_stringIcSt11char_traitsIcESaIcEEESt7variantIJldS5_St3mapIS5_mSt4lessIS5_ESaIS_IS6_mEEEEEEC2IRS6_SE_TnNSt9enable_ifIXaaclsr5_PCCPE22_MoveConstructiblePairIT_T0_EEclsr5_PCCPE30_ImplicitlyMoveConvertiblePairISJ_SK_EEEbE4typeELb1EEEOSJ_OSK_ = comdat any

$_ZNSt7variantIJldNSt7__cxx1112basic_stringIcSt11char_traitsIcESaIcEEESt3mapIS5_mSt4lessIS5_ESaISt4pairIKS5_mEEEEEC2EOSE_ = comdat any

$_ZNSt8__detail9__variant13_Variant_baseIJldNSt7__cxx1112basic_stringIcSt11char_traitsIcESaIcEEESt3mapIS7_mSt4lessIS7_ESaISt4pairIKS7_mEEEEEC2EOSG_ = comdat any

$_ZNSt8__detail9__variant17_Move_assign_baseILb0EJldNSt7__cxx1112basic_stringIcSt11char_traitsIcESaIcEEESt3mapIS7_mSt4lessIS7_ESaISt4pairIKS7_mEEEEEC2EOSG_ = comdat any

$_ZNSt8__detail9__variant17_Copy_assign_baseILb0EJldNSt7__cxx1112basic_stringIcSt11char_traitsIcESaIcEEESt3mapIS7_mSt4lessIS7_ESaISt4pairIKS7_mEEEEEC2EOSG_ = comdat any

$_ZNSt8__detail9__variant15_Move_ctor_baseILb0EJldNSt7__cxx1112basic_stringIcSt11char_traitsIcESaIcEEESt3mapIS7_mSt4lessIS7_ESaISt4pairIKS7_mEEEEEC2EOSG_ = comdat any

$_ZNSt8__detail9__variant15_Copy_ctor_baseILb0EJldNSt7__cxx1112basic_stringIcSt11char_traitsIcESaIcEEESt3mapIS7_mSt4lessIS7_ESaISt4pairIKS7_mEEEEEC2Ev = comdat any

$_ZNSt8__detail9__variant15__raw_idx_visitIZNS0_15_Move_ctor_baseILb0EJldNSt7__cxx1112basic_stringIcSt11char_traitsIcESaIcEEESt3mapIS8_mSt4lessIS8_ESaISt4pairIKS8_mEEEEEC1EOSH_EUlOT_T0_E_JSt7variantIJldS8_SG_EEEEEvSK_DpOT0_ = comdat any

$_ZSt14__variant_castIJldNSt7__cxx1112basic_stringIcSt11char_traitsIcESaIcEEESt3mapIS5_mSt4lessIS5_ESaISt4pairIKS5_mEEEENSt8__detail9__variant15_Move_ctor_baseILb0EJldS5_SD_EEEEDcOT0_ = comdat any

$_ZNSt8__detail9__variant16_Variant_storageILb0EJldNSt7__cxx1112basic_stringIcSt11char_traitsIcESaIcEEESt3mapIS7_mSt4lessIS7_ESaISt4pairIKS7_mEEEEEC2Ev = comdat any

$_ZNSt8__detail9__variant15_Variadic_unionIJldNSt7__cxx1112basic_stringIcSt11char_traitsIcESaIcEEESt3mapIS7_mSt4lessIS7_ESaISt4pairIKS7_mEEEEEC2Ev = comdat any

$_ZNSt8__detail9__variant15_Variadic_unionIJdNSt7__cxx1112basic_stringIcSt11char_traitsIcESaIcEEESt3mapIS7_mSt4lessIS7_ESaISt4pairIKS7_mEEEEEC2Ev = comdat any

$_ZNSt8__detail9__variant15_Variadic_unionIJNSt7__cxx1112basic_stringIcSt11char_traitsIcESaIcEEESt3mapIS7_mSt4lessIS7_ESaISt4pairIKS7_mEEEEEC2Ev = comdat any

$_ZNSt8__detail9__variant15_Variadic_unionIJSt3mapINSt7__cxx1112basic_stringIcSt11char_traitsIcESaIcEEEmSt4lessIS8_ESaISt4pairIKS8_mEEEEEC2Ev = comdat any

$_ZSt10__do_visitINSt8__detail9__variant20__variant_idx_cookieEZNS1_15_Move_ctor_baseILb0EJldNSt7__cxx1112basic_stringIcSt11char_traitsIcESaIcEEESt3mapIS9_mSt4lessIS9_ESaISt4pairIKS9_mEEEEEC1EOSI_EUlOT_T0_E_JSt7variantIJldS9_SH_EEEEDcOSM_DpOT1_ = comdat any

$_ZZSt10__do_visitINSt8__detail9__variant20__variant_idx_cookieEZNS1_15_Move_ctor_baseILb0EJldNSt7__cxx1112basic_stringIcSt11char_traitsIcESaIcEEESt3mapIS9_mSt4lessIS9_ESaISt4pairIKS9_mEEEEEC1EOSI_EUlOT_T0_E_JSt7variantIJldS9_SH_EEEEDcOSM_DpOT1_ENKUlRSP_zE_clB5cxx11ESU_z = comdat any

$_ZNSt8__detail9__variant17__gen_vtable_implINS0_12_Multi_arrayIPFNS0_20__variant_idx_cookieEOZNS0_15_Move_ctor_baseILb0EJldNSt7__cxx1112basic_stringIcSt11char_traitsIcESaIcEEESt3mapISA_mSt4lessISA_ESaISt4pairIKSA_mEEEEEC1EOSJ_EUlOT_T0_E_OSt7variantIJldSA_SI_EEEJEEESt16integer_sequenceImJLm0EEEE14__visit_invokeESP_SS_ = comdat any

$_ZNSt8__detail9__variant17__gen_vtable_implINS0_12_Multi_arrayIPFNS0_20__variant_idx_cookieEOZNS0_15_Move_ctor_baseILb0EJldNSt7__cxx1112basic_stringIcSt11char_traitsIcESaIcEEESt3mapISA_mSt4lessISA_ESaISt4pairIKSA_mEEEEEC1EOSJ_EUlOT_T0_E_OSt7variantIJldSA_SI_EEEJEEESt16integer_sequenceImJLm1EEEE14__visit_invokeESP_SS_ = comdat any

$_ZNSt8__detail9__variant17__gen_vtable_implINS0_12_Multi_arrayIPFNS0_20__variant_idx_cookieEOZNS0_15_Move_ctor_baseILb0EJldNSt7__cxx1112basic_stringIcSt11char_traitsIcESaIcEEESt3mapISA_mSt4lessISA_ESaISt4pairIKSA_mEEEEEC1EOSJ_EUlOT_T0_E_OSt7variantIJldSA_SI_EEEJEEESt16integer_sequenceImJLm2EEEE14__visit_invokeESP_SS_ = comdat any

$_ZNSt8__detail9__variant17__gen_vtable_implINS0_12_Multi_arrayIPFNS0_20__variant_idx_cookieEOZNS0_15_Move_ctor_baseILb0EJldNSt7__cxx1112basic_stringIcSt11char_traitsIcESaIcEEESt3mapISA_mSt4lessISA_ESaISt4pairIKSA_mEEEEEC1EOSJ_EUlOT_T0_E_OSt7variantIJldSA_SI_EEEJEEESt16integer_sequenceImJLm3EEEE14__visit_invokeESP_SS_ = comdat any

$_ZNSt8__detail9__variant17__gen_vtable_implINS0_12_Multi_arrayIPFNS0_20__variant_idx_cookieEOZNS0_15_Move_ctor_baseILb0EJldNSt7__cxx1112basic_stringIcSt11char_traitsIcESaIcEEESt3mapISA_mSt4lessISA_ESaISt4pairIKSA_mEEEEEC1EOSJ_EUlOT_T0_E_OSt7variantIJldSA_SI_EEEJEEESt16integer_sequenceImJLm18446744073709551615EEEE14__visit_invokeESP_SS_ = comdat any

$_ZSt8__invokeIZNSt8__detail9__variant15_Move_ctor_baseILb0EJldNSt7__cxx1112basic_stringIcSt11char_traitsIcESaIcEEESt3mapIS8_mSt4lessIS8_ESaISt4pairIKS8_mEEEEEC1EOSH_EUlOT_T0_E_JlSt17integral_constantImLm0EEEENSt15__invoke_resultISJ_JDpT0_EE4typeESK_DpOSQ_ = comdat any

$_ZNSt8__detail9__variant17__gen_vtable_implINS0_12_Multi_arrayIPFNS0_20__variant_idx_cookieEOZNS0_15_Move_ctor_baseILb0EJldNSt7__cxx1112basic_stringIcSt11char_traitsIcESaIcEEESt3mapISA_mSt4lessISA_ESaISt4pairIKSA_mEEEEEC1EOSJ_EUlOT_T0_E_OSt7variantIJldSA_SI_EEEJEEESt16integer_sequenceImJLm0EEEE28__element_by_index_or_cookieILm0ESR_EEDcOSN_ = comdat any

$_ZSt13__invoke_implIvZNSt8__detail9__variant15_Move_ctor_baseILb0EJldNSt7__cxx1112basic_stringIcSt11char_traitsIcESaIcEEESt3mapIS8_mSt4lessIS8_ESaISt4pairIKS8_mEEEEEC1EOSH_EUlOT_T0_E_JlSt17integral_constantImLm0EEEESJ_St14__invoke_otherOSL_DpOT1_ = comdat any

$_ZZNSt8__detail9__variant15_Move_ctor_baseILb0EJldNSt7__cxx1112basic_stringIcSt11char_traitsIcESaIcEEESt3mapIS7_mSt4lessIS7_ESaISt4pairIKS7_mEEEEEC1EOSG_ENUlOT_T0_E_clIlSt17integral_constantImLm0EEEEDaSJ_SK_ = comdat any

$_ZSt10_ConstructINSt8__detail9__variant15_Variadic_unionIJldNSt7__cxx1112basic_stringIcSt11char_traitsIcESaIcEEESt3mapIS8_mSt4lessIS8_ESaISt4pairIKS8_mEEEEEEJRKSt16in_place_index_tILm0EElEEvPT_DpOT0_ = comdat any

$_ZNSt8__detail9__variant15_Variadic_unionIJldNSt7__cxx1112basic_stringIcSt11char_traitsIcESaIcEEESt3mapIS7_mSt4lessIS7_ESaISt4pairIKS7_mEEEEEC2IJlEEESt16in_place_index_tILm0EEDpOT_ = comdat any

$_ZNSt8__detail9__variant14_UninitializedIlLb1EEC2IJlEEESt16in_place_index_tILm0EEDpOT_ = comdat any

$_ZNSt8__detail9__variant5__getILm0ESt7variantIJldNSt7__cxx1112basic_stringIcSt11char_traitsIcESaIcEEESt3mapIS8_mSt4lessIS8_ESaISt4pairIKS8_mEEEEEEEDcOT0_ = comdat any

$_ZNSt8__detail9__variant7__get_nILm0ENS0_15_Variadic_unionIJldNSt7__cxx1112basic_stringIcSt11char_traitsIcESaIcEEESt3mapIS8_mSt4lessIS8_ESaISt4pairIKS8_mEEEEEEEEDcOT0_ = comdat any

$_ZNOSt8__detail9__variant14_UninitializedIlLb1EE6_M_getEv = comdat any

$_ZSt8__invokeIZNSt8__detail9__variant15_Move_ctor_baseILb0EJldNSt7__cxx1112basic_stringIcSt11char_traitsIcESaIcEEESt3mapIS8_mSt4lessIS8_ESaISt4pairIKS8_mEEEEEC1EOSH_EUlOT_T0_E_JdSt17integral_constantImLm1EEEENSt15__invoke_resultISJ_JDpT0_EE4typeESK_DpOSQ_ = comdat any

$_ZNSt8__detail9__variant17__gen_vtable_implINS0_12_Multi_arrayIPFNS0_20__variant_idx_cookieEOZNS0_15_Move_ctor_baseILb0EJldNSt7__cxx1112basic_stringIcSt11char_traitsIcESaIcEEESt3mapISA_mSt4lessISA_ESaISt4pairIKSA_mEEEEEC1EOSJ_EUlOT_T0_E_OSt7variantIJldSA_SI_EEEJEEESt16integer_sequenceImJLm1EEEE28__element_by_index_or_cookieILm1ESR_EEDcOSN_ = comdat any

$_ZSt13__invoke_implIvZNSt8__detail9__variant15_Move_ctor_baseILb0EJldNSt7__cxx1112basic_stringIcSt11char_traitsIcESaIcEEESt3mapIS8_mSt4lessIS8_ESaISt4pairIKS8_mEEEEEC1EOSH_EUlOT_T0_E_JdSt17integral_constantImLm1EEEESJ_St14__invoke_otherOSL_DpOT1_ = comdat any

$_ZZNSt8__detail9__variant15_Move_ctor_baseILb0EJldNSt7__cxx1112basic_stringIcSt11char_traitsIcESaIcEEESt3mapIS7_mSt4lessIS7_ESaISt4pairIKS7_mEEEEEC1EOSG_ENUlOT_T0_E_clIdSt17integral_constantImLm1EEEEDaSJ_SK_ = comdat any

$_ZSt10_ConstructINSt8__detail9__variant15_Variadic_unionIJldNSt7__cxx1112basic_stringIcSt11char_traitsIcESaIcEEESt3mapIS8_mSt4lessIS8_ESaISt4pairIKS8_mEEEEEEJRKSt16in_place_index_tILm1EEdEEvPT_DpOT0_ = comdat any

$_ZNSt8__detail9__variant15_Variadic_unionIJldNSt7__cxx1112basic_stringIcSt11char_traitsIcESaIcEEESt3mapIS7_mSt4lessIS7_ESaISt4pairIKS7_mEEEEEC2ILm1EJdEEESt16in_place_index_tIXT_EEDpOT0_ = comdat any

$_ZNSt8__detail9__variant15_Variadic_unionIJdNSt7__cxx1112basic_stringIcSt11char_traitsIcESaIcEEESt3mapIS7_mSt4lessIS7_ESaISt4pairIKS7_mEEEEEC2IJdEEESt16in_place_index_tILm0EEDpOT_ = comdat any

$_ZNSt8__detail9__variant14_UninitializedIdLb1EEC2IJdEEESt16in_place_index_tILm0EEDpOT_ = comdat any

$_ZNSt8__detail9__variant5__getILm1ESt7variantIJldNSt7__cxx1112basic_stringIcSt11char_traitsIcESaIcEEESt3mapIS8_mSt4lessIS8_ESaISt4pairIKS8_mEEEEEEEDcOT0_ = comdat any

$_ZNSt8__detail9__variant7__get_nILm1ENS0_15_Variadic_unionIJldNSt7__cxx1112basic_stringIcSt11char_traitsIcESaIcEEESt3mapIS8_mSt4lessIS8_ESaISt4pairIKS8_mEEEEEEEEDcOT0_ = comdat any

$_ZNOSt8__detail9__variant14_UninitializedIdLb1EE6_M_getEv = comdat any

$_ZSt8__invokeIZNSt8__detail9__variant15_Move_ctor_baseILb0EJldNSt7__cxx1112basic_stringIcSt11char_traitsIcESaIcEEESt3mapIS8_mSt4lessIS8_ESaISt4pairIKS8_mEEEEEC1EOSH_EUlOT_T0_E_JS8_St17integral_constantImLm2EEEENSt15__invoke_resultISJ_JDpT0_EE4typeESK_DpOSQ_ = comdat any

$_ZNSt8__detail9__variant17__gen_vtable_implINS0_12_Multi_arrayIPFNS0_20__variant_idx_cookieEOZNS0_15_Move_ctor_baseILb0EJldNSt7__cxx1112basic_stringIcSt11char_traitsIcESaIcEEESt3mapISA_mSt4lessISA_ESaISt4pairIKSA_mEEEEEC1EOSJ_EUlOT_T0_E_OSt7variantIJldSA_SI_EEEJEEESt16integer_sequenceImJLm2EEEE28__element_by_index_or_cookieILm2ESR_EEDcOSN_ = comdat any

$_ZSt13__invoke_implIvZNSt8__detail9__variant15_Move_ctor_baseILb0EJldNSt7__cxx1112basic_stringIcSt11char_traitsIcESaIcEEESt3mapIS8_mSt4lessIS8_ESaISt4pairIKS8_mEEEEEC1EOSH_EUlOT_T0_E_JS8_St17integral_constantImLm2EEEESJ_St14__invoke_otherOSL_DpOT1_ = comdat any

$_ZZNSt8__detail9__variant15_Move_ctor_baseILb0EJldNSt7__cxx1112basic_stringIcSt11char_traitsIcESaIcEEESt3mapIS7_mSt4lessIS7_ESaISt4pairIKS7_mEEEEEC1EOSG_ENUlOT_T0_E_clIS7_St17integral_constantImLm2EEEEDaSJ_SK_ = comdat any

$_ZSt10_ConstructINSt8__detail9__variant15_Variadic_unionIJldNSt7__cxx1112basic_stringIcSt11char_traitsIcESaIcEEESt3mapIS8_mSt4lessIS8_ESaISt4pairIKS8_mEEEEEEJRKSt16in_place_index_tILm2EES8_EEvPT_DpOT0_ = comdat any

$_ZNSt8__detail9__variant15_Variadic_unionIJldNSt7__cxx1112basic_stringIcSt11char_traitsIcESaIcEEESt3mapIS7_mSt4lessIS7_ESaISt4pairIKS7_mEEEEEC2ILm2EJS7_EEESt16in_place_index_tIXT_EEDpOT0_ = comdat any

$_ZNSt8__detail9__variant15_Variadic_unionIJdNSt7__cxx1112basic_stringIcSt11char_traitsIcESaIcEEESt3mapIS7_mSt4lessIS7_ESaISt4pairIKS7_mEEEEEC2ILm1EJS7_EEESt16in_place_index_tIXT_EEDpOT0_ = comdat any

$_ZNSt8__detail9__variant15_Variadic_unionIJNSt7__cxx1112basic_stringIcSt11char_traitsIcESaIcEEESt3mapIS7_mSt4lessIS7_ESaISt4pairIKS7_mEEEEEC2IJS7_EEESt16in_place_index_tILm0EEDpOT_ = comdat any

$_ZNSt8__detail9__variant14_UninitializedINSt7__cxx1112basic_stringIcSt11char_traitsIcESaIcEEELb0EEC2IJS7_EEESt16in_place_index_tILm0EEDpOT_ = comdat any

$_ZNSt8__detail9__variant5__getILm2ESt7variantIJldNSt7__cxx1112basic_stringIcSt11char_traitsIcESaIcEEESt3mapIS8_mSt4lessIS8_ESaISt4pairIKS8_mEEEEEEEDcOT0_ = comdat any

$_ZNSt8__detail9__variant7__get_nILm2ENS0_15_Variadic_unionIJldNSt7__cxx1112basic_stringIcSt11char_traitsIcESaIcEEESt3mapIS8_mSt4lessIS8_ESaISt4pairIKS8_mEEEEEEEEDcOT0_ = comdat any

$_ZNOSt8__detail9__variant14_UninitializedINSt7__cxx1112basic_stringIcSt11char_traitsIcESaIcEEELb0EE6_M_getEv = comdat any

$_ZSt8__invokeIZNSt8__detail9__variant15_Move_ctor_baseILb0EJldNSt7__cxx1112basic_stringIcSt11char_traitsIcESaIcEEESt3mapIS8_mSt4lessIS8_ESaISt4pairIKS8_mEEEEEC1EOSH_EUlOT_T0_E_JSG_St17integral_constantImLm3EEEENSt15__invoke_resultISJ_JDpT0_EE4typeESK_DpOSQ_ = comdat any

$_ZNSt8__detail9__variant17__gen_vtable_implINS0_12_Multi_arrayIPFNS0_20__variant_idx_cookieEOZNS0_15_Move_ctor_baseILb0EJldNSt7__cxx1112basic_stringIcSt11char_traitsIcESaIcEEESt3mapISA_mSt4lessISA_ESaISt4pairIKSA_mEEEEEC1EOSJ_EUlOT_T0_E_OSt7variantIJldSA_SI_EEEJEEESt16integer_sequenceImJLm3EEEE28__element_by_index_or_cookieILm3ESR_EEDcOSN_ = comdat any

$_ZSt13__invoke_implIvZNSt8__detail9__variant15_Move_ctor_baseILb0EJldNSt7__cxx1112basic_stringIcSt11char_traitsIcESaIcEEESt3mapIS8_mSt4lessIS8_ESaISt4pairIKS8_mEEEEEC1EOSH_EUlOT_T0_E_JSG_St17integral_constantImLm3EEEESJ_St14__invoke_otherOSL_DpOT1_ = comdat any

$_ZZNSt8__detail9__variant15_Move_ctor_baseILb0EJldNSt7__cxx1112basic_stringIcSt11char_traitsIcESaIcEEESt3mapIS7_mSt4lessIS7_ESaISt4pairIKS7_mEEEEEC1EOSG_ENUlOT_T0_E_clISF_St17integral_constantImLm3EEEEDaSJ_SK_ = comdat any

$_ZSt10_ConstructINSt8__detail9__variant15_Variadic_unionIJldNSt7__cxx1112basic_stringIcSt11char_traitsIcESaIcEEESt3mapIS8_mSt4lessIS8_ESaISt4pairIKS8_mEEEEEEJRKSt16in_place_index_tILm3EESG_EEvPT_DpOT0_ = comdat any

$_ZNSt8__detail9__variant15_Variadic_unionIJldNSt7__cxx1112basic_stringIcSt11char_traitsIcESaIcEEESt3mapIS7_mSt4lessIS7_ESaISt4pairIKS7_mEEEEEC2ILm3EJSF_EEESt16in_place_index_tIXT_EEDpOT0_ = comdat any

$_ZNSt8__detail9__variant15_Variadic_unionIJdNSt7__cxx1112basic_stringIcSt11char_traitsIcESaIcEEESt3mapIS7_mSt4lessIS7_ESaISt4pairIKS7_mEEEEEC2ILm2EJSF_EEESt16in_place_index_tIXT_EEDpOT0_ = comdat any

$_ZNSt8__detail9__variant15_Variadic_unionIJNSt7__cxx1112basic_stringIcSt11char_traitsIcESaIcEEESt3mapIS7_mSt4lessIS7_ESaISt4pairIKS7_mEEEEEC2ILm1EJSF_EEESt16in_place_index_tIXT_EEDpOT0_ = comdat any

$_ZNSt8__detail9__variant15_Variadic_unionIJSt3mapINSt7__cxx1112basic_stringIcSt11char_traitsIcESaIcEEEmSt4lessIS8_ESaISt4pairIKS8_mEEEEEC2IJSF_EEESt16in_place_index_tILm0EEDpOT_ = comdat any

$_ZNSt8__detail9__variant14_UninitializedISt3mapINSt7__cxx1112basic_stringIcSt11char_traitsIcESaIcEEEmSt4lessIS8_ESaISt4pairIKS8_mEEELb0EEC2IJSF_EEESt16in_place_index_tILm0EEDpOT_ = comdat any

$_ZNSt3mapINSt7__cxx1112basic_stringIcSt11char_traitsIcESaIcEEEmSt4lessIS5_ESaISt4pairIKS5_mEEEC2EOSC_ = comdat any

$_ZNSt8_Rb_treeINSt7__cxx1112basic_stringIcSt11char_traitsIcESaIcEEESt4pairIKS5_mESt10_Select1stIS8_ESt4lessIS5_ESaIS8_EEC2EOSE_ = comdat any

$_ZNSt8_Rb_treeINSt7__cxx1112basic_stringIcSt11char_traitsIcESaIcEEESt4pairIKS5_mESt10_Select1stIS8_ESt4lessIS5_ESaIS8_EE13_Rb_tree_implISC_Lb1EEC2EOSG_ = comdat any

$_ZNSaISt13_Rb_tree_nodeISt4pairIKNSt7__cxx1112basic_stringIcSt11char_traitsIcESaIcEEEmEEEC2ERKSA_ = comdat any

$_ZNSt20_Rb_tree_key_compareISt4lessINSt7__cxx1112basic_stringIcSt11char_traitsIcESaIcEEEEEC2EOS8_ = comdat any

$_ZNSt15_Rb_tree_headerC2EOS_ = comdat any

$_ZNSt15__new_allocatorISt13_Rb_tree_nodeISt4pairIKNSt7__cxx1112basic_stringIcSt11char_traitsIcESaIcEEEmEEEC2ERKSB_ = comdat any

$_ZNSt15_Rb_tree_header12_M_move_dataERS_ = comdat any

$_ZNSt8__detail9__variant5__getILm3ESt7variantIJldNSt7__cxx1112basic_stringIcSt11char_traitsIcESaIcEEESt3mapIS8_mSt4lessIS8_ESaISt4pairIKS8_mEEEEEEEDcOT0_ = comdat any

$_ZNSt8__detail9__variant7__get_nILm3ENS0_15_Variadic_unionIJldNSt7__cxx1112basic_stringIcSt11char_traitsIcESaIcEEESt3mapIS8_mSt4lessIS8_ESaISt4pairIKS8_mEEEEEEEEDcOT0_ = comdat any

$_ZNSt8__detail9__variant7__get_nILm0ENS0_15_Variadic_unionIJSt3mapINSt7__cxx1112basic_stringIcSt11char_traitsIcESaIcEEEmSt4lessIS9_ESaISt4pairIKS9_mEEEEEEEEDcOT0_ = comdat any

$_ZNOSt8__detail9__variant14_UninitializedISt3mapINSt7__cxx1112basic_stringIcSt11char_traitsIcESaIcEEEmSt4lessIS8_ESaISt4pairIKS8_mEEELb0EE6_M_getEv = comdat any

$_ZSt8__invokeIZNSt8__detail9__variant15_Move_ctor_baseILb0EJldNSt7__cxx1112basic_stringIcSt11char_traitsIcESaIcEEESt3mapIS8_mSt4lessIS8_ESaISt4pairIKS8_mEEEEEC1EOSH_EUlOT_T0_E_JNS1_16__variant_cookieESt17integral_constantImLm18446744073709551615EEEENSt15__invoke_resultISJ_JDpT0_EE4typeESK_DpOSR_ = comdat any

$_ZNSt8__detail9__variant17__gen_vtable_implINS0_12_Multi_arrayIPFNS0_20__variant_idx_cookieEOZNS0_15_Move_ctor_baseILb0EJldNSt7__cxx1112basic_stringIcSt11char_traitsIcESaIcEEESt3mapISA_mSt4lessISA_ESaISt4pairIKSA_mEEEEEC1EOSJ_EUlOT_T0_E_OSt7variantIJldSA_SI_EEEJEEESt16integer_sequenceImJLm18446744073709551615EEEE28__element_by_index_or_cookieILm18446744073709551615ESR_EEDcOSN_ = comdat any

$_ZSt13__invoke_implIvZNSt8__detail9__variant15_Move_ctor_baseILb0EJldNSt7__cxx1112basic_stringIcSt11char_traitsIcESaIcEEESt3mapIS8_mSt4lessIS8_ESaISt4pairIKS8_mEEEEEC1EOSH_EUlOT_T0_E_JNS1_16__variant_cookieESt17integral_constantImLm18446744073709551615EEEESJ_St14__invoke_otherOSL_DpOT1_ = comdat any

$_ZZNSt8__detail9__variant15_Move_ctor_baseILb0EJldNSt7__cxx1112basic_stringIcSt11char_traitsIcESaIcEEESt3mapIS7_mSt4lessIS7_ESaISt4pairIKS7_mEEEEEC1EOSG_ENUlOT_T0_E_clINS0_16__variant_cookieESt17integral_constantImLm18446744073709551615EEEEDaSJ_SK_ = comdat any

$_ZNKSt23_Rb_tree_const_iteratorISt4pairIKNSt7__cxx1112basic_stringIcSt11char_traitsIcESaIcEEESt7variantIJldS6_St3mapIS6_mSt4lessIS6_ESaIS0_IS7_mEEEEEEE13_M_const_castEv = comdat any

$_ZNKSt8_Rb_treeINSt7__cxx1112basic_stringIcSt11char_traitsIcESaIcEEESt4pairIKS5_St7variantIJldS5_St3mapIS5_mSt4lessIS5_ESaIS6_IS7_mEEEEEESt10_Select1stISG_ESB_SaISG_EE4sizeEv = comdat any

$_ZNSt8_Rb_treeINSt7__cxx1112basic_stringIcSt11char_traitsIcESaIcEEESt4pairIKS5_St7variantIJldS5_St3mapIS5_mSt4lessIS5_ESaIS6_IS7_mEEEEEESt10_Select1stISG_ESB_SaISG_EE6_S_keyEPKSt18_Rb_tree_node_base = comdat any

$_ZNSt8_Rb_treeINSt7__cxx1112basic_stringIcSt11char_traitsIcESaIcEEESt4pairIKS5_St7variantIJldS5_St3mapIS5_mSt4lessIS5_ESaIS6_IS7_mEEEEEESt10_Select1stISG_ESB_SaISG_EE12_M_rightmostEv = comdat any

$_ZNSt8_Rb_treeINSt7__cxx1112basic_stringIcSt11char_traitsIcESaIcEEESt4pairIKS5_St7variantIJldS5_St3mapIS5_mSt4lessIS5_ESaIS6_IS7_mEEEEEESt10_Select1stISG_ESB_SaISG_EE24_M_get_insert_unique_posERS7_ = comdat any

$_ZNSt8_Rb_treeINSt7__cxx1112basic_stringIcSt11char_traitsIcESaIcEEESt4pairIKS5_St7variantIJldS5_St3mapIS5_mSt4lessIS5_ESaIS6_IS7_mEEEEEESt10_Select1stISG_ESB_SaISG_EE11_M_leftmostEv = comdat any

$_ZNSt17_Rb_tree_iteratorISt4pairIKNSt7__cxx1112basic_stringIcSt11char_traitsIcESaIcEEESt7variantIJldS6_St3mapIS6_mSt4lessIS6_ESaIS0_IS7_mEEEEEEEmmEv = comdat any

$_ZNSt17_Rb_tree_iteratorISt4pairIKNSt7__cxx1112basic_stringIcSt11char_traitsIcESaIcEEESt7variantIJldS6_St3mapIS6_mSt4lessIS6_ESaIS0_IS7_mEEEEEEEppEv = comdat any

$_ZNSt8_Rb_treeINSt7__cxx1112basic_stringIcSt11char_traitsIcESaIcEEESt4pairIKS5_St7variantIJldS5_St3mapIS5_mSt4lessIS5_ESaIS6_IS7_mEEEEEESt10_Select1stISG_ESB_SaISG_EE5beginEv = comdat any

$_ZNSt4pairIPSt18_Rb_tree_node_baseS1_EC2IRPSt13_Rb_tree_nodeIS_IKNSt7__cxx1112basic_stringIcSt11char_traitsIcESaIcEEESt7variantIJldSA_St3mapISA_mSt4lessISA_ESaIS_ISB_mEEEEEEERS1_TnNSt9enable_ifIXaaclsr5_PCCPE22_MoveConstructiblePairIT_T0_EEclsr5_PCCPE30_ImplicitlyMoveConvertiblePairISQ_SR_EEEbE4typeELb1EEEOSQ_OSR_ = comdat any

$_ZNSt8_Rb_treeINSt7__cxx1112basic_stringIcSt11char_traitsIcESaIcEEESt4pairIKS5_St7variantIJldS5_St3mapIS5_mSt4lessIS5_ESaIS6_IS7_mEEEEEESt10_Select1stISG_ESB_SaISG_EE14_M_insert_nodeEPSt18_Rb_tree_node_baseSM_PSt13_Rb_tree_nodeISG_E = comdat any

$_ZNKSt8_Rb_treeINSt7__cxx1112basic_stringIcSt11char_traitsIcESaIcEEESt4pairIKS5_St10unique_ptrIN4cvc58internal18StatisticBaseValueESt14default_deleteISB_EEESt10_Select1stISF_ESt4lessIS5_ESaISF_EE4findERS7_ = comdat any

$_ZNKSt8_Rb_treeINSt7__cxx1112basic_stringIcSt11char_traitsIcESaIcEEESt4pairIKS5_St10unique_ptrIN4cvc58internal18StatisticBaseValueESt14default_deleteISB_EEESt10_Select1stISF_ESt4lessIS5_ESaISF_EE14_M_lower_boundEPKSt13_Rb_tree_nodeISF_EPKSt18_Rb_tree_node_baseRS7_ = comdat any

$_ZNKSt8_Rb_treeINSt7__cxx1112basic_stringIcSt11char_traitsIcESaIcEEESt4pairIKS5_St10unique_ptrIN4cvc58internal18StatisticBaseValueESt14default_deleteISB_EEESt10_Select1stISF_ESt4lessIS5_ESaISF_EE8_M_beginEv = comdat any

$_ZNKSt8_Rb_treeINSt7__cxx1112basic_stringIcSt11char_traitsIcESaIcEEESt4pairIKS5_St10unique_ptrIN4cvc58internal18StatisticBaseValueESt14default_deleteISB_EEESt10_Select1stISF_ESt4lessIS5_ESaISF_EE6_M_endEv = comdat any

$_ZNSt8_Rb_treeINSt7__cxx1112basic_stringIcSt11char_traitsIcESaIcEEESt4pairIKS5_St10unique_ptrIN4cvc58internal18StatisticBaseValueESt14default_deleteISB_EEESt10_Select1stISF_ESt4lessIS5_ESaISF_EE7_S_leftEPKSt18_Rb_tree_node_base = comdat any

$_ZNSt8_Rb_treeINSt7__cxx1112basic_stringIcSt11char_traitsIcESaIcEEESt4pairIKS5_St10unique_ptrIN4cvc58internal18StatisticBaseValueESt14default_deleteISB_EEESt10_Select1stISF_ESt4lessIS5_ESaISF_EE8_S_rightEPKSt18_Rb_tree_node_base = comdat any

$_ZNKSt15__uniq_ptr_implIN4cvc58internal18StatisticBaseValueESt14default_deleteIS2_EE6_M_ptrEv = comdat any

$_ZSt3getILm0EJPN4cvc58internal18StatisticBaseValueESt14default_deleteIS2_EEERKNSt13tuple_elementIXT_ESt5tupleIJDpT0_EEE4typeERKSA_ = comdat any

$_ZSt12__get_helperILm0EPN4cvc58internal18StatisticBaseValueEJSt14default_deleteIS2_EEERKT0_RKSt11_Tuple_implIXT_EJS6_DpT1_EE = comdat any

$_ZNSt11_Tuple_implILm0EJPN4cvc58internal18StatisticBaseValueESt14default_deleteIS2_EEE7_M_headERKS6_ = comdat any

$_ZNSt10_Head_baseILm0EPN4cvc58internal18StatisticBaseValueELb0EE7_M_headERKS4_ = comdat any

$_ZNSt8_Rb_treeINSt7__cxx1112basic_stringIcSt11char_traitsIcESaIcEEESt4pairIKS5_St7variantIJldS5_St3mapIS5_mSt4lessIS5_ESaIS6_IS7_mEEEEEESt10_Select1stISG_ESB_SaISG_EE4findERS7_ = comdat any

$_ZNSt8_Rb_treeINSt7__cxx1112basic_stringIcSt11char_traitsIcESaIcEEESt4pairIKS5_St7variantIJldS5_St3mapIS5_mSt4lessIS5_ESaIS6_IS7_mEEEEEESt10_Select1stISG_ESB_SaISG_EE3endEv = comdat any

$_ZTVN4cvc58internal18StatisticsRegistryE = comdat any

$_ZTSN4cvc58internal18StatisticsRegistryE = comdat any

$_ZTSN4cvc58internal6EnvObjE = comdat any

$_ZTIN4cvc58internal6EnvObjE = comdat any

$_ZTIN4cvc58internal18StatisticsRegistryE = comdat any

$_ZTSSt18bad_variant_access = comdat any

$_ZTISt18bad_variant_access = comdat any

$_ZTVSt18bad_variant_access = comdat any

$_ZTVN4cvc58internal20StatisticBackedValueIlEE = comdat any

$_ZTSN4cvc58internal20StatisticBackedValueIlEE = comdat any

$_ZTIN4cvc58internal20StatisticBackedValueIlEE = comdat any

$_ZSt14in_place_indexILm0EE = comdat any

$_ZSt14in_place_indexILm1EE = comdat any

$_ZSt14in_place_indexILm2EE = comdat any

$_ZSt14in_place_indexILm3EE = comdat any

@_ZStL8__ioinit = internal global %"class.std::ios_base::Init" zeroinitializer, align 1
@__dso_handle = external hidden global i8
@_ZTVN4cvc58internal18StatisticsRegistryE = linkonce_odr hidden unnamed_addr constant { [4 x ptr] } { [4 x ptr] [ptr null, ptr @_ZTIN4cvc58internal18StatisticsRegistryE, ptr @_ZN4cvc58internal18StatisticsRegistryD2Ev, ptr @_ZN4cvc58internal18StatisticsRegistryD0Ev] }, comdat, align 8
@.str = private unnamed_addr constant [4 x i8] c" = \00", align 1
@.str.1 = private unnamed_addr constant [2 x i8] c"\0A\00", align 1
@.str.2 = private unnamed_addr constant [7 x i8] c" (was \00", align 1
@.str.3 = private unnamed_addr constant [2 x i8] c")\00", align 1
@.str.4 = private unnamed_addr constant [17 x i8] c" (was <default>)\00", align 1
@_ZTVN10__cxxabiv121__vmi_class_type_infoE = external global [0 x ptr]
@_ZTSN4cvc58internal18StatisticsRegistryE = linkonce_odr hidden constant [37 x i8] c"N4cvc58internal18StatisticsRegistryE\00", comdat, align 1
@_ZTVN10__cxxabiv117__class_type_infoE = external global [0 x ptr]
@_ZTSN4cvc58internal6EnvObjE = linkonce_odr hidden constant [24 x i8] c"N4cvc58internal6EnvObjE\00", comdat, align 1
@_ZTIN4cvc58internal6EnvObjE = linkonce_odr hidden constant { ptr, ptr } { ptr getelementptr inbounds (ptr, ptr @_ZTVN10__cxxabiv117__class_type_infoE, i64 2), ptr @_ZTSN4cvc58internal6EnvObjE }, comdat, align 8
@_ZTIN4cvc58internal18StatisticsRegistryE = linkonce_odr hidden constant { ptr, ptr, i32, i32, ptr, i64 } { ptr getelementptr inbounds (ptr, ptr @_ZTVN10__cxxabiv121__vmi_class_type_infoE, i64 2), ptr @_ZTSN4cvc58internal18StatisticsRegistryE, i32 0, i32 1, ptr @_ZTIN4cvc58internal6EnvObjE, i64 0 }, comdat, align 8
@.str.5 = private unnamed_addr constant [31 x i8] c"std::get: variant is valueless\00", align 1
@.str.6 = private unnamed_addr constant [34 x i8] c"std::get: wrong index for variant\00", align 1
@_ZTVN10__cxxabiv120__si_class_type_infoE = external global [0 x ptr]
@_ZTSSt18bad_variant_access = linkonce_odr constant [23 x i8] c"St18bad_variant_access\00", comdat, align 1
@_ZTISt9exception = external constant ptr
@_ZTISt18bad_variant_access = linkonce_odr constant { ptr, ptr, ptr } { ptr getelementptr inbounds (ptr, ptr @_ZTVN10__cxxabiv120__si_class_type_infoE, i64 2), ptr @_ZTSSt18bad_variant_access, ptr @_ZTISt9exception }, comdat, align 8
@_ZTVSt18bad_variant_access = linkonce_odr unnamed_addr constant { [5 x ptr] } { [5 x ptr] [ptr null, ptr @_ZTISt18bad_variant_access, ptr @_ZNSt18bad_variant_accessD2Ev, ptr @_ZNSt18bad_variant_accessD0Ev, ptr @_ZNKSt18bad_variant_access4whatEv] }, comdat, align 8
@_ZTVSt9exception = external unnamed_addr constant { [5 x ptr] }, align 8
@_ZTVN4cvc58internal21StatisticAverageValueE = external unnamed_addr constant { [7 x ptr] }, align 8
@_ZTVN4cvc58internal18StatisticBaseValueE = external unnamed_addr constant { [7 x ptr] }, align 8
@_ZTVN4cvc58internal20StatisticBackedValueIlEE = linkonce_odr hidden unnamed_addr constant { [7 x ptr] } { [7 x ptr] [ptr null, ptr @_ZTIN4cvc58internal20StatisticBackedValueIlEE, ptr @_ZN4cvc58internal20StatisticBackedValueIlED2Ev, ptr @_ZN4cvc58internal20StatisticBackedValueIlED0Ev, ptr @_ZNK4cvc58internal20StatisticBackedValueIlE9isDefaultEv, ptr @_ZNK4cvc58internal20StatisticBackedValueIlE9getViewerB5cxx11Ev, ptr @_ZNK4cvc58internal20StatisticBackedValueIlE9printSafeEi] }, comdat, align 8
@_ZTSN4cvc58internal20StatisticBackedValueIlEE = linkonce_odr hidden constant [42 x i8] c"N4cvc58internal20StatisticBackedValueIlEE\00", comdat, align 1
@_ZTIN4cvc58internal18StatisticBaseValueE = external constant ptr
@_ZTIN4cvc58internal20StatisticBackedValueIlEE = linkonce_odr hidden constant { ptr, ptr, ptr } { ptr getelementptr inbounds (ptr, ptr @_ZTVN10__cxxabiv120__si_class_type_infoE, i64 2), ptr @_ZTSN4cvc58internal20StatisticBackedValueIlEE, ptr @_ZTIN4cvc58internal18StatisticBaseValueE }, comdat, align 8
@_ZSt14in_place_indexILm0EE = linkonce_odr constant %"struct.std::in_place_index_t" zeroinitializer, comdat, align 1
@_ZTVN4cvc58internal19StatisticTimerValueE = external unnamed_addr constant { [7 x ptr] }, align 8
@_ZSt14in_place_indexILm1EE = linkonce_odr constant %"struct.std::in_place_index_t.311" zeroinitializer, comdat, align 1
@_ZSt14in_place_indexILm2EE = linkonce_odr constant %"struct.std::in_place_index_t.312" zeroinitializer, comdat, align 1
@_ZSt14in_place_indexILm3EE = linkonce_odr constant %"struct.std::in_place_index_t.313" zeroinitializer, comdat, align 1
@llvm.global_ctors = appending global [1 x { i32, ptr, ptr }] [{ i32, ptr, ptr } { i32 65535, ptr @_GLOBAL__sub_I_statistics_registry.cpp, ptr null }]

@_ZN4cvc58internal18StatisticsRegistryC1ERNS0_3EnvEb = hidden unnamed_addr alias void (ptr, ptr, i1), ptr @_ZN4cvc58internal18StatisticsRegistryC2ERNS0_3EnvEb

; Function Attrs: uwtable
define internal void @__cxx_global_var_init() #0 section ".text.startup" {
entry:
  call void @_ZNSt8ios_base4InitC1Ev(ptr noundef nonnull align 1 dereferenceable(1) @_ZStL8__ioinit)
  %0 = call i32 @__cxa_atexit(ptr @_ZNSt8ios_base4InitD1Ev, ptr @_ZStL8__ioinit, ptr @__dso_handle) #3
  ret void
}

declare void @_ZNSt8ios_base4InitC1Ev(ptr noundef nonnull align 1 dereferenceable(1)) unnamed_addr #1

; Function Attrs: nounwind
declare void @_ZNSt8ios_base4InitD1Ev(ptr noundef nonnull align 1 dereferenceable(1)) unnamed_addr #2

; Function Attrs: nounwind
declare i32 @__cxa_atexit(ptr, ptr, ptr) #3

; Function Attrs: mustprogress uwtable
define hidden void @_ZN4cvc58internal18StatisticsRegistryC2ERNS0_3EnvEb(ptr noundef nonnull align 8 dereferenceable(72) %this, ptr noundef nonnull align 1 %env, i1 noundef zeroext %registerPublic) unnamed_addr #4 align 2 personality ptr @__gxx_personality_v0 {
entry:
  %this.addr = alloca ptr, align 8
  %env.addr = alloca ptr, align 8
  %registerPublic.addr = alloca i8, align 1
  %exn.slot = alloca ptr, align 8
  %ehselector.slot = alloca i32, align 4
  store ptr %this, ptr %this.addr, align 8
  store ptr %env, ptr %env.addr, align 8
  %frombool = zext i1 %registerPublic to i8
  store i8 %frombool, ptr %registerPublic.addr, align 1
  %this1 = load ptr, ptr %this.addr, align 8
  %0 = load ptr, ptr %env.addr, align 8
  call void @_ZN4cvc58internal6EnvObjC2ERNS0_3EnvE(ptr noundef nonnull align 8 dereferenceable(16) %this1, ptr noundef nonnull align 1 %0)
  store ptr getelementptr inbounds ({ [4 x ptr] }, ptr @_ZTVN4cvc58internal18StatisticsRegistryE, i32 0, inrange i32 0, i32 2), ptr %this1, align 8
  %d_stats = getelementptr inbounds %"class.cvc5::internal::StatisticsRegistry", ptr %this1, i32 0, i32 1
  call void @_ZNSt3mapINSt7__cxx1112basic_stringIcSt11char_traitsIcESaIcEEESt10unique_ptrIN4cvc58internal18StatisticBaseValueESt14default_deleteIS9_EESt4lessIS5_ESaISt4pairIKS5_SC_EEEC2Ev(ptr noundef nonnull align 8 dereferenceable(48) %d_stats) #3
  %d_lastSnapshot = getelementptr inbounds %"class.cvc5::internal::StatisticsRegistry", ptr %this1, i32 0, i32 2
  call void @_ZNSt10unique_ptrISt3mapINSt7__cxx1112basic_stringIcSt11char_traitsIcESaIcEEESt7variantIJldS6_S0_IS6_mSt4lessIS6_ESaISt4pairIKS6_mEEEEES9_SaISA_ISB_SF_EEESt14default_deleteISI_EEC2ISK_vEEv(ptr noundef nonnull align 8 dereferenceable(8) %d_lastSnapshot) #3
  %1 = load i8, ptr %registerPublic.addr, align 1
  %tobool = trunc i8 %1 to i1
  br i1 %tobool, label %if.then, label %if.end

if.then:                                          ; preds = %entry
  invoke void @_ZN4cvc58internal24registerPublicStatisticsERNS0_18StatisticsRegistryE(ptr noundef nonnull align 8 dereferenceable(72) %this1)
          to label %invoke.cont unwind label %lpad

invoke.cont:                                      ; preds = %if.then
  br label %if.end

lpad:                                             ; preds = %if.then
  %2 = landingpad { ptr, i32 }
          cleanup
  %3 = extractvalue { ptr, i32 } %2, 0
  store ptr %3, ptr %exn.slot, align 8
  %4 = extractvalue { ptr, i32 } %2, 1
  store i32 %4, ptr %ehselector.slot, align 4
  call void @_ZNSt10unique_ptrISt3mapINSt7__cxx1112basic_stringIcSt11char_traitsIcESaIcEEESt7variantIJldS6_S0_IS6_mSt4lessIS6_ESaISt4pairIKS6_mEEEEES9_SaISA_ISB_SF_EEESt14default_deleteISI_EED2Ev(ptr noundef nonnull align 8 dereferenceable(8) %d_lastSnapshot) #3
  call void @_ZNSt3mapINSt7__cxx1112basic_stringIcSt11char_traitsIcESaIcEEESt10unique_ptrIN4cvc58internal18StatisticBaseValueESt14default_deleteIS9_EESt4lessIS5_ESaISt4pairIKS5_SC_EEED2Ev(ptr noundef nonnull align 8 dereferenceable(48) %d_stats) #3
  call void @_ZN4cvc58internal6EnvObjD2Ev(ptr noundef nonnull align 8 dereferenceable(16) %this1) #3
  br label %eh.resume

if.end:                                           ; preds = %invoke.cont, %entry
  ret void

eh.resume:                                        ; preds = %lpad
  %exn = load ptr, ptr %exn.slot, align 8
  %sel = load i32, ptr %ehselector.slot, align 4
  %lpad.val = insertvalue { ptr, i32 } poison, ptr %exn, 0
  %lpad.val2 = insertvalue { ptr, i32 } %lpad.val, i32 %sel, 1
  resume { ptr, i32 } %lpad.val2
}

declare void @_ZN4cvc58internal6EnvObjC2ERNS0_3EnvE(ptr noundef nonnull align 8 dereferenceable(16), ptr noundef nonnull align 1) unnamed_addr #1

; Function Attrs: mustprogress nounwind uwtable
define linkonce_odr hidden void @_ZNSt3mapINSt7__cxx1112basic_stringIcSt11char_traitsIcESaIcEEESt10unique_ptrIN4cvc58internal18StatisticBaseValueESt14default_deleteIS9_EESt4lessIS5_ESaISt4pairIKS5_SC_EEEC2Ev(ptr noundef nonnull align 8 dereferenceable(48) %this) unnamed_addr #5 comdat align 2 {
entry:
  %this.addr = alloca ptr, align 8
  store ptr %this, ptr %this.addr, align 8
  %this1 = load ptr, ptr %this.addr, align 8
  %_M_t = getelementptr inbounds %"class.std::map", ptr %this1, i32 0, i32 0
  call void @_ZNSt8_Rb_treeINSt7__cxx1112basic_stringIcSt11char_traitsIcESaIcEEESt4pairIKS5_St10unique_ptrIN4cvc58internal18StatisticBaseValueESt14default_deleteISB_EEESt10_Select1stISF_ESt4lessIS5_ESaISF_EEC2Ev(ptr noundef nonnull align 8 dereferenceable(48) %_M_t) #3
  ret void
}

; Function Attrs: mustprogress nounwind uwtable
define linkonce_odr hidden void @_ZNSt10unique_ptrISt3mapINSt7__cxx1112basic_stringIcSt11char_traitsIcESaIcEEESt7variantIJldS6_S0_IS6_mSt4lessIS6_ESaISt4pairIKS6_mEEEEES9_SaISA_ISB_SF_EEESt14default_deleteISI_EEC2ISK_vEEv(ptr noundef nonnull align 8 dereferenceable(8) %this) unnamed_addr #5 comdat align 2 {
entry:
  %this.addr = alloca ptr, align 8
  store ptr %this, ptr %this.addr, align 8
  %this1 = load ptr, ptr %this.addr, align 8
  %_M_t = getelementptr inbounds %"class.std::unique_ptr", ptr %this1, i32 0, i32 0
  call void @llvm.memset.p0.i64(ptr align 8 %_M_t, i8 0, i64 8, i1 false)
  call void @_ZNSt15__uniq_ptr_dataISt3mapINSt7__cxx1112basic_stringIcSt11char_traitsIcESaIcEEESt7variantIJldS6_S0_IS6_mSt4lessIS6_ESaISt4pairIKS6_mEEEEES9_SaISA_ISB_SF_EEESt14default_deleteISI_ELb1ELb1EEC2Ev(ptr noundef nonnull align 8 dereferenceable(8) %_M_t) #3
  ret void
}

declare void @_ZN4cvc58internal24registerPublicStatisticsERNS0_18StatisticsRegistryE(ptr noundef nonnull align 8 dereferenceable(72)) #1

declare i32 @__gxx_personality_v0(...)

; Function Attrs: mustprogress nounwind uwtable
define linkonce_odr hidden void @_ZNSt10unique_ptrISt3mapINSt7__cxx1112basic_stringIcSt11char_traitsIcESaIcEEESt7variantIJldS6_S0_IS6_mSt4lessIS6_ESaISt4pairIKS6_mEEEEES9_SaISA_ISB_SF_EEESt14default_deleteISI_EED2Ev(ptr noundef nonnull align 8 dereferenceable(8) %this) unnamed_addr #5 comdat align 2 {
entry:
  %this.addr = alloca ptr, align 8
  %__ptr = alloca ptr, align 8
  store ptr %this, ptr %this.addr, align 8
  %this1 = load ptr, ptr %this.addr, align 8
  %_M_t = getelementptr inbounds %"class.std::unique_ptr", ptr %this1, i32 0, i32 0
  %call = call noundef nonnull align 8 dereferenceable(8) ptr @_ZNSt15__uniq_ptr_implISt3mapINSt7__cxx1112basic_stringIcSt11char_traitsIcESaIcEEESt7variantIJldS6_S0_IS6_mSt4lessIS6_ESaISt4pairIKS6_mEEEEES9_SaISA_ISB_SF_EEESt14default_deleteISI_EE6_M_ptrEv(ptr noundef nonnull align 8 dereferenceable(8) %_M_t) #3
  store ptr %call, ptr %__ptr, align 8
  %0 = load ptr, ptr %__ptr, align 8
  %1 = load ptr, ptr %0, align 8
  %cmp = icmp ne ptr %1, null
  br i1 %cmp, label %if.then, label %if.end

if.then:                                          ; preds = %entry
  %call2 = call noundef nonnull align 1 dereferenceable(1) ptr @_ZNSt10unique_ptrISt3mapINSt7__cxx1112basic_stringIcSt11char_traitsIcESaIcEEESt7variantIJldS6_S0_IS6_mSt4lessIS6_ESaISt4pairIKS6_mEEEEES9_SaISA_ISB_SF_EEESt14default_deleteISI_EE11get_deleterEv(ptr noundef nonnull align 8 dereferenceable(8) %this1) #3
  %2 = load ptr, ptr %__ptr, align 8
  %3 = load ptr, ptr %2, align 8
  call void @_ZNKSt14default_deleteISt3mapINSt7__cxx1112basic_stringIcSt11char_traitsIcESaIcEEESt7variantIJldS6_S0_IS6_mSt4lessIS6_ESaISt4pairIKS6_mEEEEES9_SaISA_ISB_SF_EEEEclEPSI_(ptr noundef nonnull align 1 dereferenceable(1) %call2, ptr noundef %3)
  br label %if.end

if.end:                                           ; preds = %if.then, %entry
  %4 = load ptr, ptr %__ptr, align 8
  store ptr null, ptr %4, align 8
  ret void
}

; Function Attrs: mustprogress nounwind uwtable
define linkonce_odr hidden void @_ZNSt3mapINSt7__cxx1112basic_stringIcSt11char_traitsIcESaIcEEESt10unique_ptrIN4cvc58internal18StatisticBaseValueESt14default_deleteIS9_EESt4lessIS5_ESaISt4pairIKS5_SC_EEED2Ev(ptr noundef nonnull align 8 dereferenceable(48) %this) unnamed_addr #5 comdat align 2 {
entry:
  %this.addr = alloca ptr, align 8
  store ptr %this, ptr %this.addr, align 8
  %this1 = load ptr, ptr %this.addr, align 8
  %_M_t = getelementptr inbounds %"class.std::map", ptr %this1, i32 0, i32 0
  call void @_ZNSt8_Rb_treeINSt7__cxx1112basic_stringIcSt11char_traitsIcESaIcEEESt4pairIKS5_St10unique_ptrIN4cvc58internal18StatisticBaseValueESt14default_deleteISB_EEESt10_Select1stISF_ESt4lessIS5_ESaISF_EED2Ev(ptr noundef nonnull align 8 dereferenceable(48) %_M_t) #3
  ret void
}

; Function Attrs: mustprogress nounwind uwtable
define linkonce_odr hidden void @_ZN4cvc58internal6EnvObjD2Ev(ptr noundef nonnull align 8 dereferenceable(16) %this) unnamed_addr #5 comdat align 2 {
entry:
  %this.addr = alloca ptr, align 8
  store ptr %this, ptr %this.addr, align 8
  ret void
}

; Function Attrs: mustprogress uwtable
define hidden ptr @_ZN4cvc58internal18StatisticsRegistry15registerAverageERKNSt7__cxx1112basic_stringIcSt11char_traitsIcESaIcEEEb(ptr noundef nonnull align 8 dereferenceable(72) %this, ptr noundef nonnull align 8 dereferenceable(32) %name, i1 noundef zeroext %internal) #4 align 2 {
entry:
  %retval = alloca %"class.cvc5::internal::AverageStat", align 8
  %this.addr = alloca ptr, align 8
  %name.addr = alloca ptr, align 8
  %internal.addr = alloca i8, align 1
  store ptr %this, ptr %this.addr, align 8
  store ptr %name, ptr %name.addr, align 8
  %frombool = zext i1 %internal to i8
  store i8 %frombool, ptr %internal.addr, align 1
  %this1 = load ptr, ptr %this.addr, align 8
  %0 = load ptr, ptr %name.addr, align 8
  %1 = load i8, ptr %internal.addr, align 1
  %tobool = trunc i8 %1 to i1
  %call = call ptr @_ZN4cvc58internal18StatisticsRegistry12registerStatINS0_11AverageStatEEET_RKNSt7__cxx1112basic_stringIcSt11char_traitsIcESaIcEEEb(ptr noundef nonnull align 8 dereferenceable(72) %this1, ptr noundef nonnull align 8 dereferenceable(32) %0, i1 noundef zeroext %tobool)
  %coerce.dive = getelementptr inbounds %"class.cvc5::internal::AverageStat", ptr %retval, i32 0, i32 0
  store ptr %call, ptr %coerce.dive, align 8
  %coerce.dive2 = getelementptr inbounds %"class.cvc5::internal::AverageStat", ptr %retval, i32 0, i32 0
  %2 = load ptr, ptr %coerce.dive2, align 8
  ret ptr %2
}

; Function Attrs: mustprogress uwtable
define linkonce_odr hidden ptr @_ZN4cvc58internal18StatisticsRegistry12registerStatINS0_11AverageStatEEET_RKNSt7__cxx1112basic_stringIcSt11char_traitsIcESaIcEEEb(ptr noundef nonnull align 8 dereferenceable(72) %this, ptr noundef nonnull align 8 dereferenceable(32) %name, i1 noundef zeroext %internal) #4 comdat align 2 personality ptr @__gxx_personality_v0 {
entry:
  %retval = alloca %"class.cvc5::internal::AverageStat", align 8
  %this.addr = alloca ptr, align 8
  %name.addr = alloca ptr, align 8
  %internal.addr = alloca i8, align 1
  %it = alloca %"struct.std::_Rb_tree_iterator", align 8
  %ref.tmp = alloca %"struct.std::_Rb_tree_iterator", align 8
  %ref.tmp6 = alloca %"struct.std::pair.262", align 8
  %ref.tmp8 = alloca %"class.std::unique_ptr.265", align 8
  %exn.slot = alloca ptr, align 8
  %ehselector.slot = alloca i32, align 4
  %ptr = alloca ptr, align 8
  store ptr %this, ptr %this.addr, align 8
  store ptr %name, ptr %name.addr, align 8
  %frombool = zext i1 %internal to i8
  store i8 %frombool, ptr %internal.addr, align 1
  %this1 = load ptr, ptr %this.addr, align 8
  %d_stats = getelementptr inbounds %"class.cvc5::internal::StatisticsRegistry", ptr %this1, i32 0, i32 1
  %0 = load ptr, ptr %name.addr, align 8
  %call = call ptr @_ZNSt3mapINSt7__cxx1112basic_stringIcSt11char_traitsIcESaIcEEESt10unique_ptrIN4cvc58internal18StatisticBaseValueESt14default_deleteIS9_EESt4lessIS5_ESaISt4pairIKS5_SC_EEE4findERSG_(ptr noundef nonnull align 8 dereferenceable(48) %d_stats, ptr noundef nonnull align 8 dereferenceable(32) %0)
  %coerce.dive = getelementptr inbounds %"struct.std::_Rb_tree_iterator", ptr %it, i32 0, i32 0
  store ptr %call, ptr %coerce.dive, align 8
  %d_stats2 = getelementptr inbounds %"class.cvc5::internal::StatisticsRegistry", ptr %this1, i32 0, i32 1
  %call3 = call ptr @_ZNSt3mapINSt7__cxx1112basic_stringIcSt11char_traitsIcESaIcEEESt10unique_ptrIN4cvc58internal18StatisticBaseValueESt14default_deleteIS9_EESt4lessIS5_ESaISt4pairIKS5_SC_EEE3endEv(ptr noundef nonnull align 8 dereferenceable(48) %d_stats2) #3
  %coerce.dive4 = getelementptr inbounds %"struct.std::_Rb_tree_iterator", ptr %ref.tmp, i32 0, i32 0
  store ptr %call3, ptr %coerce.dive4, align 8
  %call5 = call noundef zeroext i1 @_ZSteqRKSt17_Rb_tree_iteratorISt4pairIKNSt7__cxx1112basic_stringIcSt11char_traitsIcESaIcEEESt10unique_ptrIN4cvc58internal18StatisticBaseValueESt14default_deleteISB_EEEESI_(ptr noundef nonnull align 8 dereferenceable(8) %it, ptr noundef nonnull align 8 dereferenceable(8) %ref.tmp) #3
  br i1 %call5, label %if.then, label %if.end

if.then:                                          ; preds = %entry
  %d_stats7 = getelementptr inbounds %"class.cvc5::internal::StatisticsRegistry", ptr %this1, i32 0, i32 1
  %1 = load ptr, ptr %name.addr, align 8
  call void @_ZSt11make_uniqueIN4cvc58internal21StatisticAverageValueEJEENSt8__detail9_MakeUniqIT_E15__single_objectEDpOT0_(ptr sret(%"class.std::unique_ptr.265") align 8 %ref.tmp8)
  %call9 = invoke { ptr, i8 } @_ZNSt3mapINSt7__cxx1112basic_stringIcSt11char_traitsIcESaIcEEESt10unique_ptrIN4cvc58internal18StatisticBaseValueESt14default_deleteIS9_EESt4lessIS5_ESaISt4pairIKS5_SC_EEE7emplaceIJRSG_S6_INS8_21StatisticAverageValueESA_ISM_EEEEESF_ISt17_Rb_tree_iteratorISH_EbEDpOT_(ptr noundef nonnull align 8 dereferenceable(48) %d_stats7, ptr noundef nonnull align 8 dereferenceable(32) %1, ptr noundef nonnull align 8 dereferenceable(8) %ref.tmp8)
          to label %invoke.cont unwind label %lpad

invoke.cont:                                      ; preds = %if.then
  %2 = getelementptr inbounds { ptr, i8 }, ptr %ref.tmp6, i32 0, i32 0
  %3 = extractvalue { ptr, i8 } %call9, 0
  store ptr %3, ptr %2, align 8
  %4 = getelementptr inbounds { ptr, i8 }, ptr %ref.tmp6, i32 0, i32 1
  %5 = extractvalue { ptr, i8 } %call9, 1
  store i8 %5, ptr %4, align 8
  %first = getelementptr inbounds %"struct.std::pair.262", ptr %ref.tmp6, i32 0, i32 0
  call void @llvm.memcpy.p0.p0.i64(ptr align 8 %it, ptr align 8 %first, i64 8, i1 false)
  call void @_ZNSt10unique_ptrIN4cvc58internal21StatisticAverageValueESt14default_deleteIS2_EED2Ev(ptr noundef nonnull align 8 dereferenceable(8) %ref.tmp8) #3
  %6 = load i8, ptr %internal.addr, align 1
  %tobool = trunc i8 %6 to i1
  %call10 = call noundef ptr @_ZNKSt17_Rb_tree_iteratorISt4pairIKNSt7__cxx1112basic_stringIcSt11char_traitsIcESaIcEEESt10unique_ptrIN4cvc58internal18StatisticBaseValueESt14default_deleteISB_EEEEptEv(ptr noundef nonnull align 8 dereferenceable(8) %it) #3
  %second = getelementptr inbounds %"struct.std::pair", ptr %call10, i32 0, i32 1
  %call11 = call noundef ptr @_ZNKSt10unique_ptrIN4cvc58internal18StatisticBaseValueESt14default_deleteIS2_EEptEv(ptr noundef nonnull align 8 dereferenceable(8) %second) #3
  %d_internal = getelementptr inbounds %"struct.cvc5::internal::StatisticBaseValue", ptr %call11, i32 0, i32 1
  %frombool12 = zext i1 %tobool to i8
  store i8 %frombool12, ptr %d_internal, align 8
  br label %if.end

lpad:                                             ; preds = %if.then
  %7 = landingpad { ptr, i32 }
          cleanup
  %8 = extractvalue { ptr, i32 } %7, 0
  store ptr %8, ptr %exn.slot, align 8
  %9 = extractvalue { ptr, i32 } %7, 1
  store i32 %9, ptr %ehselector.slot, align 4
  call void @_ZNSt10unique_ptrIN4cvc58internal21StatisticAverageValueESt14default_deleteIS2_EED2Ev(ptr noundef nonnull align 8 dereferenceable(8) %ref.tmp8) #3
  br label %eh.resume

if.end:                                           ; preds = %invoke.cont, %entry
  %call13 = call noundef ptr @_ZNKSt17_Rb_tree_iteratorISt4pairIKNSt7__cxx1112basic_stringIcSt11char_traitsIcESaIcEEESt10unique_ptrIN4cvc58internal18StatisticBaseValueESt14default_deleteISB_EEEEptEv(ptr noundef nonnull align 8 dereferenceable(8) %it) #3
  %second14 = getelementptr inbounds %"struct.std::pair", ptr %call13, i32 0, i32 1
  %call15 = call noundef ptr @_ZNKSt10unique_ptrIN4cvc58internal18StatisticBaseValueESt14default_deleteIS2_EE3getEv(ptr noundef nonnull align 8 dereferenceable(8) %second14) #3
  store ptr %call15, ptr %ptr, align 8
  %call16 = call noundef ptr @_ZNKSt17_Rb_tree_iteratorISt4pairIKNSt7__cxx1112basic_stringIcSt11char_traitsIcESaIcEEESt10unique_ptrIN4cvc58internal18StatisticBaseValueESt14default_deleteISB_EEEEptEv(ptr noundef nonnull align 8 dereferenceable(8) %it) #3
  %second17 = getelementptr inbounds %"struct.std::pair", ptr %call16, i32 0, i32 1
  %call18 = call noundef ptr @_ZNKSt10unique_ptrIN4cvc58internal18StatisticBaseValueESt14default_deleteIS2_EEptEv(ptr noundef nonnull align 8 dereferenceable(8) %second17) #3
  %d_internal19 = getelementptr inbounds %"struct.cvc5::internal::StatisticBaseValue", ptr %call18, i32 0, i32 1
  %10 = load i8, ptr %d_internal19, align 8
  %tobool20 = trunc i8 %10 to i1
  br i1 %tobool20, label %land.rhs, label %land.end

land.rhs:                                         ; preds = %if.end
  %11 = load i8, ptr %internal.addr, align 1
  %tobool21 = trunc i8 %11 to i1
  br label %land.end

land.end:                                         ; preds = %land.rhs, %if.end
  %12 = phi i1 [ false, %if.end ], [ %tobool21, %land.rhs ]
  %call22 = call noundef ptr @_ZNKSt17_Rb_tree_iteratorISt4pairIKNSt7__cxx1112basic_stringIcSt11char_traitsIcESaIcEEESt10unique_ptrIN4cvc58internal18StatisticBaseValueESt14default_deleteISB_EEEEptEv(ptr noundef nonnull align 8 dereferenceable(8) %it) #3
  %second23 = getelementptr inbounds %"struct.std::pair", ptr %call22, i32 0, i32 1
  %call24 = call noundef ptr @_ZNKSt10unique_ptrIN4cvc58internal18StatisticBaseValueESt14default_deleteIS2_EEptEv(ptr noundef nonnull align 8 dereferenceable(8) %second23) #3
  %d_internal25 = getelementptr inbounds %"struct.cvc5::internal::StatisticBaseValue", ptr %call24, i32 0, i32 1
  %frombool26 = zext i1 %12 to i8
  store i8 %frombool26, ptr %d_internal25, align 8
  %13 = load ptr, ptr %ptr, align 8
  call void @_ZN4cvc58internal11AverageStatC2EPNS0_21StatisticAverageValueE(ptr noundef nonnull align 8 dereferenceable(8) %retval, ptr noundef %13)
  %coerce.dive27 = getelementptr inbounds %"class.cvc5::internal::AverageStat", ptr %retval, i32 0, i32 0
  %14 = load ptr, ptr %coerce.dive27, align 8
  ret ptr %14

eh.resume:                                        ; preds = %lpad
  %exn = load ptr, ptr %exn.slot, align 8
  %sel = load i32, ptr %ehselector.slot, align 4
  %lpad.val = insertvalue { ptr, i32 } poison, ptr %exn, 0
  %lpad.val28 = insertvalue { ptr, i32 } %lpad.val, i32 %sel, 1
  resume { ptr, i32 } %lpad.val28
}

; Function Attrs: mustprogress uwtable
define hidden ptr @_ZN4cvc58internal18StatisticsRegistry11registerIntERKNSt7__cxx1112basic_stringIcSt11char_traitsIcESaIcEEEb(ptr noundef nonnull align 8 dereferenceable(72) %this, ptr noundef nonnull align 8 dereferenceable(32) %name, i1 noundef zeroext %internal) #4 align 2 {
entry:
  %retval = alloca %"class.cvc5::internal::IntStat", align 8
  %this.addr = alloca ptr, align 8
  %name.addr = alloca ptr, align 8
  %internal.addr = alloca i8, align 1
  store ptr %this, ptr %this.addr, align 8
  store ptr %name, ptr %name.addr, align 8
  %frombool = zext i1 %internal to i8
  store i8 %frombool, ptr %internal.addr, align 1
  %this1 = load ptr, ptr %this.addr, align 8
  %0 = load ptr, ptr %name.addr, align 8
  %1 = load i8, ptr %internal.addr, align 1
  %tobool = trunc i8 %1 to i1
  %call = call ptr @_ZN4cvc58internal18StatisticsRegistry12registerStatINS0_7IntStatEEET_RKNSt7__cxx1112basic_stringIcSt11char_traitsIcESaIcEEEb(ptr noundef nonnull align 8 dereferenceable(72) %this1, ptr noundef nonnull align 8 dereferenceable(32) %0, i1 noundef zeroext %tobool)
  %coerce.dive = getelementptr inbounds %"class.cvc5::internal::IntStat", ptr %retval, i32 0, i32 0
  %coerce.dive2 = getelementptr inbounds %"class.cvc5::internal::ValueStat", ptr %coerce.dive, i32 0, i32 0
  store ptr %call, ptr %coerce.dive2, align 8
  %coerce.dive3 = getelementptr inbounds %"class.cvc5::internal::IntStat", ptr %retval, i32 0, i32 0
  %coerce.dive4 = getelementptr inbounds %"class.cvc5::internal::ValueStat", ptr %coerce.dive3, i32 0, i32 0
  %2 = load ptr, ptr %coerce.dive4, align 8
  ret ptr %2
}

; Function Attrs: mustprogress uwtable
define linkonce_odr hidden ptr @_ZN4cvc58internal18StatisticsRegistry12registerStatINS0_7IntStatEEET_RKNSt7__cxx1112basic_stringIcSt11char_traitsIcESaIcEEEb(ptr noundef nonnull align 8 dereferenceable(72) %this, ptr noundef nonnull align 8 dereferenceable(32) %name, i1 noundef zeroext %internal) #4 comdat align 2 personality ptr @__gxx_personality_v0 {
entry:
  %retval = alloca %"class.cvc5::internal::IntStat", align 8
  %this.addr = alloca ptr, align 8
  %name.addr = alloca ptr, align 8
  %internal.addr = alloca i8, align 1
  %it = alloca %"struct.std::_Rb_tree_iterator", align 8
  %ref.tmp = alloca %"struct.std::_Rb_tree_iterator", align 8
  %ref.tmp6 = alloca %"struct.std::pair.262", align 8
  %ref.tmp8 = alloca %"class.std::unique_ptr.279", align 8
  %exn.slot = alloca ptr, align 8
  %ehselector.slot = alloca i32, align 4
  %ptr = alloca ptr, align 8
  store ptr %this, ptr %this.addr, align 8
  store ptr %name, ptr %name.addr, align 8
  %frombool = zext i1 %internal to i8
  store i8 %frombool, ptr %internal.addr, align 1
  %this1 = load ptr, ptr %this.addr, align 8
  %d_stats = getelementptr inbounds %"class.cvc5::internal::StatisticsRegistry", ptr %this1, i32 0, i32 1
  %0 = load ptr, ptr %name.addr, align 8
  %call = call ptr @_ZNSt3mapINSt7__cxx1112basic_stringIcSt11char_traitsIcESaIcEEESt10unique_ptrIN4cvc58internal18StatisticBaseValueESt14default_deleteIS9_EESt4lessIS5_ESaISt4pairIKS5_SC_EEE4findERSG_(ptr noundef nonnull align 8 dereferenceable(48) %d_stats, ptr noundef nonnull align 8 dereferenceable(32) %0)
  %coerce.dive = getelementptr inbounds %"struct.std::_Rb_tree_iterator", ptr %it, i32 0, i32 0
  store ptr %call, ptr %coerce.dive, align 8
  %d_stats2 = getelementptr inbounds %"class.cvc5::internal::StatisticsRegistry", ptr %this1, i32 0, i32 1
  %call3 = call ptr @_ZNSt3mapINSt7__cxx1112basic_stringIcSt11char_traitsIcESaIcEEESt10unique_ptrIN4cvc58internal18StatisticBaseValueESt14default_deleteIS9_EESt4lessIS5_ESaISt4pairIKS5_SC_EEE3endEv(ptr noundef nonnull align 8 dereferenceable(48) %d_stats2) #3
  %coerce.dive4 = getelementptr inbounds %"struct.std::_Rb_tree_iterator", ptr %ref.tmp, i32 0, i32 0
  store ptr %call3, ptr %coerce.dive4, align 8
  %call5 = call noundef zeroext i1 @_ZSteqRKSt17_Rb_tree_iteratorISt4pairIKNSt7__cxx1112basic_stringIcSt11char_traitsIcESaIcEEESt10unique_ptrIN4cvc58internal18StatisticBaseValueESt14default_deleteISB_EEEESI_(ptr noundef nonnull align 8 dereferenceable(8) %it, ptr noundef nonnull align 8 dereferenceable(8) %ref.tmp) #3
  br i1 %call5, label %if.then, label %if.end

if.then:                                          ; preds = %entry
  %d_stats7 = getelementptr inbounds %"class.cvc5::internal::StatisticsRegistry", ptr %this1, i32 0, i32 1
  %1 = load ptr, ptr %name.addr, align 8
  call void @_ZSt11make_uniqueIN4cvc58internal20StatisticBackedValueIlEEJEENSt8__detail9_MakeUniqIT_E15__single_objectEDpOT0_(ptr sret(%"class.std::unique_ptr.279") align 8 %ref.tmp8)
  %call9 = invoke { ptr, i8 } @_ZNSt3mapINSt7__cxx1112basic_stringIcSt11char_traitsIcESaIcEEESt10unique_ptrIN4cvc58internal18StatisticBaseValueESt14default_deleteIS9_EESt4lessIS5_ESaISt4pairIKS5_SC_EEE7emplaceIJRSG_S6_INS8_20StatisticBackedValueIlEESA_ISN_EEEEESF_ISt17_Rb_tree_iteratorISH_EbEDpOT_(ptr noundef nonnull align 8 dereferenceable(48) %d_stats7, ptr noundef nonnull align 8 dereferenceable(32) %1, ptr noundef nonnull align 8 dereferenceable(8) %ref.tmp8)
          to label %invoke.cont unwind label %lpad

invoke.cont:                                      ; preds = %if.then
  %2 = getelementptr inbounds { ptr, i8 }, ptr %ref.tmp6, i32 0, i32 0
  %3 = extractvalue { ptr, i8 } %call9, 0
  store ptr %3, ptr %2, align 8
  %4 = getelementptr inbounds { ptr, i8 }, ptr %ref.tmp6, i32 0, i32 1
  %5 = extractvalue { ptr, i8 } %call9, 1
  store i8 %5, ptr %4, align 8
  %first = getelementptr inbounds %"struct.std::pair.262", ptr %ref.tmp6, i32 0, i32 0
  call void @llvm.memcpy.p0.p0.i64(ptr align 8 %it, ptr align 8 %first, i64 8, i1 false)
  call void @_ZNSt10unique_ptrIN4cvc58internal20StatisticBackedValueIlEESt14default_deleteIS3_EED2Ev(ptr noundef nonnull align 8 dereferenceable(8) %ref.tmp8) #3
  %6 = load i8, ptr %internal.addr, align 1
  %tobool = trunc i8 %6 to i1
  %call10 = call noundef ptr @_ZNKSt17_Rb_tree_iteratorISt4pairIKNSt7__cxx1112basic_stringIcSt11char_traitsIcESaIcEEESt10unique_ptrIN4cvc58internal18StatisticBaseValueESt14default_deleteISB_EEEEptEv(ptr noundef nonnull align 8 dereferenceable(8) %it) #3
  %second = getelementptr inbounds %"struct.std::pair", ptr %call10, i32 0, i32 1
  %call11 = call noundef ptr @_ZNKSt10unique_ptrIN4cvc58internal18StatisticBaseValueESt14default_deleteIS2_EEptEv(ptr noundef nonnull align 8 dereferenceable(8) %second) #3
  %d_internal = getelementptr inbounds %"struct.cvc5::internal::StatisticBaseValue", ptr %call11, i32 0, i32 1
  %frombool12 = zext i1 %tobool to i8
  store i8 %frombool12, ptr %d_internal, align 8
  br label %if.end

lpad:                                             ; preds = %if.then
  %7 = landingpad { ptr, i32 }
          cleanup
  %8 = extractvalue { ptr, i32 } %7, 0
  store ptr %8, ptr %exn.slot, align 8
  %9 = extractvalue { ptr, i32 } %7, 1
  store i32 %9, ptr %ehselector.slot, align 4
  call void @_ZNSt10unique_ptrIN4cvc58internal20StatisticBackedValueIlEESt14default_deleteIS3_EED2Ev(ptr noundef nonnull align 8 dereferenceable(8) %ref.tmp8) #3
  br label %eh.resume

if.end:                                           ; preds = %invoke.cont, %entry
  %call13 = call noundef ptr @_ZNKSt17_Rb_tree_iteratorISt4pairIKNSt7__cxx1112basic_stringIcSt11char_traitsIcESaIcEEESt10unique_ptrIN4cvc58internal18StatisticBaseValueESt14default_deleteISB_EEEEptEv(ptr noundef nonnull align 8 dereferenceable(8) %it) #3
  %second14 = getelementptr inbounds %"struct.std::pair", ptr %call13, i32 0, i32 1
  %call15 = call noundef ptr @_ZNKSt10unique_ptrIN4cvc58internal18StatisticBaseValueESt14default_deleteIS2_EE3getEv(ptr noundef nonnull align 8 dereferenceable(8) %second14) #3
  store ptr %call15, ptr %ptr, align 8
  %call16 = call noundef ptr @_ZNKSt17_Rb_tree_iteratorISt4pairIKNSt7__cxx1112basic_stringIcSt11char_traitsIcESaIcEEESt10unique_ptrIN4cvc58internal18StatisticBaseValueESt14default_deleteISB_EEEEptEv(ptr noundef nonnull align 8 dereferenceable(8) %it) #3
  %second17 = getelementptr inbounds %"struct.std::pair", ptr %call16, i32 0, i32 1
  %call18 = call noundef ptr @_ZNKSt10unique_ptrIN4cvc58internal18StatisticBaseValueESt14default_deleteIS2_EEptEv(ptr noundef nonnull align 8 dereferenceable(8) %second17) #3
  %d_internal19 = getelementptr inbounds %"struct.cvc5::internal::StatisticBaseValue", ptr %call18, i32 0, i32 1
  %10 = load i8, ptr %d_internal19, align 8
  %tobool20 = trunc i8 %10 to i1
  br i1 %tobool20, label %land.rhs, label %land.end

land.rhs:                                         ; preds = %if.end
  %11 = load i8, ptr %internal.addr, align 1
  %tobool21 = trunc i8 %11 to i1
  br label %land.end

land.end:                                         ; preds = %land.rhs, %if.end
  %12 = phi i1 [ false, %if.end ], [ %tobool21, %land.rhs ]
  %call22 = call noundef ptr @_ZNKSt17_Rb_tree_iteratorISt4pairIKNSt7__cxx1112basic_stringIcSt11char_traitsIcESaIcEEESt10unique_ptrIN4cvc58internal18StatisticBaseValueESt14default_deleteISB_EEEEptEv(ptr noundef nonnull align 8 dereferenceable(8) %it) #3
  %second23 = getelementptr inbounds %"struct.std::pair", ptr %call22, i32 0, i32 1
  %call24 = call noundef ptr @_ZNKSt10unique_ptrIN4cvc58internal18StatisticBaseValueESt14default_deleteIS2_EEptEv(ptr noundef nonnull align 8 dereferenceable(8) %second23) #3
  %d_internal25 = getelementptr inbounds %"struct.cvc5::internal::StatisticBaseValue", ptr %call24, i32 0, i32 1
  %frombool26 = zext i1 %12 to i8
  store i8 %frombool26, ptr %d_internal25, align 8
  %13 = load ptr, ptr %ptr, align 8
  call void @_ZN4cvc58internal7IntStatC2EPNS0_20StatisticBackedValueIlEE(ptr noundef nonnull align 8 dereferenceable(8) %retval, ptr noundef %13)
  %coerce.dive27 = getelementptr inbounds %"class.cvc5::internal::IntStat", ptr %retval, i32 0, i32 0
  %coerce.dive28 = getelementptr inbounds %"class.cvc5::internal::ValueStat", ptr %coerce.dive27, i32 0, i32 0
  %14 = load ptr, ptr %coerce.dive28, align 8
  ret ptr %14

eh.resume:                                        ; preds = %lpad
  %exn = load ptr, ptr %exn.slot, align 8
  %sel = load i32, ptr %ehselector.slot, align 4
  %lpad.val = insertvalue { ptr, i32 } poison, ptr %exn, 0
  %lpad.val29 = insertvalue { ptr, i32 } %lpad.val, i32 %sel, 1
  resume { ptr, i32 } %lpad.val29
}

; Function Attrs: mustprogress uwtable
define hidden ptr @_ZN4cvc58internal18StatisticsRegistry13registerTimerERKNSt7__cxx1112basic_stringIcSt11char_traitsIcESaIcEEEb(ptr noundef nonnull align 8 dereferenceable(72) %this, ptr noundef nonnull align 8 dereferenceable(32) %name, i1 noundef zeroext %internal) #4 align 2 {
entry:
  %retval = alloca %"class.cvc5::internal::TimerStat", align 8
  %this.addr = alloca ptr, align 8
  %name.addr = alloca ptr, align 8
  %internal.addr = alloca i8, align 1
  store ptr %this, ptr %this.addr, align 8
  store ptr %name, ptr %name.addr, align 8
  %frombool = zext i1 %internal to i8
  store i8 %frombool, ptr %internal.addr, align 1
  %this1 = load ptr, ptr %this.addr, align 8
  %0 = load ptr, ptr %name.addr, align 8
  %1 = load i8, ptr %internal.addr, align 1
  %tobool = trunc i8 %1 to i1
  %call = call ptr @_ZN4cvc58internal18StatisticsRegistry12registerStatINS0_9TimerStatEEET_RKNSt7__cxx1112basic_stringIcSt11char_traitsIcESaIcEEEb(ptr noundef nonnull align 8 dereferenceable(72) %this1, ptr noundef nonnull align 8 dereferenceable(32) %0, i1 noundef zeroext %tobool)
  %coerce.dive = getelementptr inbounds %"class.cvc5::internal::TimerStat", ptr %retval, i32 0, i32 0
  store ptr %call, ptr %coerce.dive, align 8
  %coerce.dive2 = getelementptr inbounds %"class.cvc5::internal::TimerStat", ptr %retval, i32 0, i32 0
  %2 = load ptr, ptr %coerce.dive2, align 8
  ret ptr %2
}

; Function Attrs: mustprogress uwtable
define linkonce_odr hidden ptr @_ZN4cvc58internal18StatisticsRegistry12registerStatINS0_9TimerStatEEET_RKNSt7__cxx1112basic_stringIcSt11char_traitsIcESaIcEEEb(ptr noundef nonnull align 8 dereferenceable(72) %this, ptr noundef nonnull align 8 dereferenceable(32) %name, i1 noundef zeroext %internal) #4 comdat align 2 personality ptr @__gxx_personality_v0 {
entry:
  %retval = alloca %"class.cvc5::internal::TimerStat", align 8
  %this.addr = alloca ptr, align 8
  %name.addr = alloca ptr, align 8
  %internal.addr = alloca i8, align 1
  %it = alloca %"struct.std::_Rb_tree_iterator", align 8
  %ref.tmp = alloca %"struct.std::_Rb_tree_iterator", align 8
  %ref.tmp6 = alloca %"struct.std::pair.262", align 8
  %ref.tmp8 = alloca %"class.std::unique_ptr.291", align 8
  %exn.slot = alloca ptr, align 8
  %ehselector.slot = alloca i32, align 4
  %ptr = alloca ptr, align 8
  store ptr %this, ptr %this.addr, align 8
  store ptr %name, ptr %name.addr, align 8
  %frombool = zext i1 %internal to i8
  store i8 %frombool, ptr %internal.addr, align 1
  %this1 = load ptr, ptr %this.addr, align 8
  %d_stats = getelementptr inbounds %"class.cvc5::internal::StatisticsRegistry", ptr %this1, i32 0, i32 1
  %0 = load ptr, ptr %name.addr, align 8
  %call = call ptr @_ZNSt3mapINSt7__cxx1112basic_stringIcSt11char_traitsIcESaIcEEESt10unique_ptrIN4cvc58internal18StatisticBaseValueESt14default_deleteIS9_EESt4lessIS5_ESaISt4pairIKS5_SC_EEE4findERSG_(ptr noundef nonnull align 8 dereferenceable(48) %d_stats, ptr noundef nonnull align 8 dereferenceable(32) %0)
  %coerce.dive = getelementptr inbounds %"struct.std::_Rb_tree_iterator", ptr %it, i32 0, i32 0
  store ptr %call, ptr %coerce.dive, align 8
  %d_stats2 = getelementptr inbounds %"class.cvc5::internal::StatisticsRegistry", ptr %this1, i32 0, i32 1
  %call3 = call ptr @_ZNSt3mapINSt7__cxx1112basic_stringIcSt11char_traitsIcESaIcEEESt10unique_ptrIN4cvc58internal18StatisticBaseValueESt14default_deleteIS9_EESt4lessIS5_ESaISt4pairIKS5_SC_EEE3endEv(ptr noundef nonnull align 8 dereferenceable(48) %d_stats2) #3
  %coerce.dive4 = getelementptr inbounds %"struct.std::_Rb_tree_iterator", ptr %ref.tmp, i32 0, i32 0
  store ptr %call3, ptr %coerce.dive4, align 8
  %call5 = call noundef zeroext i1 @_ZSteqRKSt17_Rb_tree_iteratorISt4pairIKNSt7__cxx1112basic_stringIcSt11char_traitsIcESaIcEEESt10unique_ptrIN4cvc58internal18StatisticBaseValueESt14default_deleteISB_EEEESI_(ptr noundef nonnull align 8 dereferenceable(8) %it, ptr noundef nonnull align 8 dereferenceable(8) %ref.tmp) #3
  br i1 %call5, label %if.then, label %if.end

if.then:                                          ; preds = %entry
  %d_stats7 = getelementptr inbounds %"class.cvc5::internal::StatisticsRegistry", ptr %this1, i32 0, i32 1
  %1 = load ptr, ptr %name.addr, align 8
  call void @_ZSt11make_uniqueIN4cvc58internal19StatisticTimerValueEJEENSt8__detail9_MakeUniqIT_E15__single_objectEDpOT0_(ptr sret(%"class.std::unique_ptr.291") align 8 %ref.tmp8)
  %call9 = invoke { ptr, i8 } @_ZNSt3mapINSt7__cxx1112basic_stringIcSt11char_traitsIcESaIcEEESt10unique_ptrIN4cvc58internal18StatisticBaseValueESt14default_deleteIS9_EESt4lessIS5_ESaISt4pairIKS5_SC_EEE7emplaceIJRSG_S6_INS8_19StatisticTimerValueESA_ISM_EEEEESF_ISt17_Rb_tree_iteratorISH_EbEDpOT_(ptr noundef nonnull align 8 dereferenceable(48) %d_stats7, ptr noundef nonnull align 8 dereferenceable(32) %1, ptr noundef nonnull align 8 dereferenceable(8) %ref.tmp8)
          to label %invoke.cont unwind label %lpad

invoke.cont:                                      ; preds = %if.then
  %2 = getelementptr inbounds { ptr, i8 }, ptr %ref.tmp6, i32 0, i32 0
  %3 = extractvalue { ptr, i8 } %call9, 0
  store ptr %3, ptr %2, align 8
  %4 = getelementptr inbounds { ptr, i8 }, ptr %ref.tmp6, i32 0, i32 1
  %5 = extractvalue { ptr, i8 } %call9, 1
  store i8 %5, ptr %4, align 8
  %first = getelementptr inbounds %"struct.std::pair.262", ptr %ref.tmp6, i32 0, i32 0
  call void @llvm.memcpy.p0.p0.i64(ptr align 8 %it, ptr align 8 %first, i64 8, i1 false)
  call void @_ZNSt10unique_ptrIN4cvc58internal19StatisticTimerValueESt14default_deleteIS2_EED2Ev(ptr noundef nonnull align 8 dereferenceable(8) %ref.tmp8) #3
  %6 = load i8, ptr %internal.addr, align 1
  %tobool = trunc i8 %6 to i1
  %call10 = call noundef ptr @_ZNKSt17_Rb_tree_iteratorISt4pairIKNSt7__cxx1112basic_stringIcSt11char_traitsIcESaIcEEESt10unique_ptrIN4cvc58internal18StatisticBaseValueESt14default_deleteISB_EEEEptEv(ptr noundef nonnull align 8 dereferenceable(8) %it) #3
  %second = getelementptr inbounds %"struct.std::pair", ptr %call10, i32 0, i32 1
  %call11 = call noundef ptr @_ZNKSt10unique_ptrIN4cvc58internal18StatisticBaseValueESt14default_deleteIS2_EEptEv(ptr noundef nonnull align 8 dereferenceable(8) %second) #3
  %d_internal = getelementptr inbounds %"struct.cvc5::internal::StatisticBaseValue", ptr %call11, i32 0, i32 1
  %frombool12 = zext i1 %tobool to i8
  store i8 %frombool12, ptr %d_internal, align 8
  br label %if.end

lpad:                                             ; preds = %if.then
  %7 = landingpad { ptr, i32 }
          cleanup
  %8 = extractvalue { ptr, i32 } %7, 0
  store ptr %8, ptr %exn.slot, align 8
  %9 = extractvalue { ptr, i32 } %7, 1
  store i32 %9, ptr %ehselector.slot, align 4
  call void @_ZNSt10unique_ptrIN4cvc58internal19StatisticTimerValueESt14default_deleteIS2_EED2Ev(ptr noundef nonnull align 8 dereferenceable(8) %ref.tmp8) #3
  br label %eh.resume

if.end:                                           ; preds = %invoke.cont, %entry
  %call13 = call noundef ptr @_ZNKSt17_Rb_tree_iteratorISt4pairIKNSt7__cxx1112basic_stringIcSt11char_traitsIcESaIcEEESt10unique_ptrIN4cvc58internal18StatisticBaseValueESt14default_deleteISB_EEEEptEv(ptr noundef nonnull align 8 dereferenceable(8) %it) #3
  %second14 = getelementptr inbounds %"struct.std::pair", ptr %call13, i32 0, i32 1
  %call15 = call noundef ptr @_ZNKSt10unique_ptrIN4cvc58internal18StatisticBaseValueESt14default_deleteIS2_EE3getEv(ptr noundef nonnull align 8 dereferenceable(8) %second14) #3
  store ptr %call15, ptr %ptr, align 8
  %call16 = call noundef ptr @_ZNKSt17_Rb_tree_iteratorISt4pairIKNSt7__cxx1112basic_stringIcSt11char_traitsIcESaIcEEESt10unique_ptrIN4cvc58internal18StatisticBaseValueESt14default_deleteISB_EEEEptEv(ptr noundef nonnull align 8 dereferenceable(8) %it) #3
  %second17 = getelementptr inbounds %"struct.std::pair", ptr %call16, i32 0, i32 1
  %call18 = call noundef ptr @_ZNKSt10unique_ptrIN4cvc58internal18StatisticBaseValueESt14default_deleteIS2_EEptEv(ptr noundef nonnull align 8 dereferenceable(8) %second17) #3
  %d_internal19 = getelementptr inbounds %"struct.cvc5::internal::StatisticBaseValue", ptr %call18, i32 0, i32 1
  %10 = load i8, ptr %d_internal19, align 8
  %tobool20 = trunc i8 %10 to i1
  br i1 %tobool20, label %land.rhs, label %land.end

land.rhs:                                         ; preds = %if.end
  %11 = load i8, ptr %internal.addr, align 1
  %tobool21 = trunc i8 %11 to i1
  br label %land.end

land.end:                                         ; preds = %land.rhs, %if.end
  %12 = phi i1 [ false, %if.end ], [ %tobool21, %land.rhs ]
  %call22 = call noundef ptr @_ZNKSt17_Rb_tree_iteratorISt4pairIKNSt7__cxx1112basic_stringIcSt11char_traitsIcESaIcEEESt10unique_ptrIN4cvc58internal18StatisticBaseValueESt14default_deleteISB_EEEEptEv(ptr noundef nonnull align 8 dereferenceable(8) %it) #3
  %second23 = getelementptr inbounds %"struct.std::pair", ptr %call22, i32 0, i32 1
  %call24 = call noundef ptr @_ZNKSt10unique_ptrIN4cvc58internal18StatisticBaseValueESt14default_deleteIS2_EEptEv(ptr noundef nonnull align 8 dereferenceable(8) %second23) #3
  %d_internal25 = getelementptr inbounds %"struct.cvc5::internal::StatisticBaseValue", ptr %call24, i32 0, i32 1
  %frombool26 = zext i1 %12 to i8
  store i8 %frombool26, ptr %d_internal25, align 8
  %13 = load ptr, ptr %ptr, align 8
  call void @_ZN4cvc58internal9TimerStatC2EPNS0_19StatisticTimerValueE(ptr noundef nonnull align 8 dereferenceable(8) %retval, ptr noundef %13)
  %coerce.dive27 = getelementptr inbounds %"class.cvc5::internal::TimerStat", ptr %retval, i32 0, i32 0
  %14 = load ptr, ptr %coerce.dive27, align 8
  ret ptr %14

eh.resume:                                        ; preds = %lpad
  %exn = load ptr, ptr %exn.slot, align 8
  %sel = load i32, ptr %ehselector.slot, align 4
  %lpad.val = insertvalue { ptr, i32 } poison, ptr %exn, 0
  %lpad.val28 = insertvalue { ptr, i32 } %lpad.val, i32 %sel, 1
  resume { ptr, i32 } %lpad.val28
}

; Function Attrs: mustprogress uwtable
define hidden void @_ZN4cvc58internal18StatisticsRegistry13storeSnapshotEv(ptr noundef nonnull align 8 dereferenceable(72) %this) #4 align 2 personality ptr @__gxx_personality_v0 {
entry:
  %this.addr = alloca ptr, align 8
  %ref.tmp = alloca %"class.std::unique_ptr", align 8
  %__range3 = alloca ptr, align 8
  %__begin3 = alloca %"struct.std::_Rb_tree_iterator", align 8
  %__end3 = alloca %"struct.std::_Rb_tree_iterator", align 8
  %s = alloca ptr, align 8
  %ref.tmp21 = alloca %"class.std::variant", align 8
  %exn.slot = alloca ptr, align 8
  %ehselector.slot = alloca i32, align 4
  %coerce = alloca %"struct.std::pair.225", align 8
  store ptr %this, ptr %this.addr, align 8
  %this1 = load ptr, ptr %this.addr, align 8
  call void @_ZSt11make_uniqueISt3mapINSt7__cxx1112basic_stringIcSt11char_traitsIcESaIcEEESt7variantIJldS6_S0_IS6_mSt4lessIS6_ESaISt4pairIKS6_mEEEEES9_SaISA_ISB_SF_EEEJEENSt8__detail9_MakeUniqIT_E15__single_objectEDpOT0_(ptr sret(%"class.std::unique_ptr") align 8 %ref.tmp)
  %d_lastSnapshot = getelementptr inbounds %"class.cvc5::internal::StatisticsRegistry", ptr %this1, i32 0, i32 2
  %call = call noundef nonnull align 8 dereferenceable(8) ptr @_ZNSt10unique_ptrISt3mapINSt7__cxx1112basic_stringIcSt11char_traitsIcESaIcEEESt7variantIJldS6_S0_IS6_mSt4lessIS6_ESaISt4pairIKS6_mEEEEES9_SaISA_ISB_SF_EEESt14default_deleteISI_EEaSEOSL_(ptr noundef nonnull align 8 dereferenceable(8) %d_lastSnapshot, ptr noundef nonnull align 8 dereferenceable(8) %ref.tmp) #3
  call void @_ZNSt10unique_ptrISt3mapINSt7__cxx1112basic_stringIcSt11char_traitsIcESaIcEEESt7variantIJldS6_S0_IS6_mSt4lessIS6_ESaISt4pairIKS6_mEEEEES9_SaISA_ISB_SF_EEESt14default_deleteISI_EED2Ev(ptr noundef nonnull align 8 dereferenceable(8) %ref.tmp) #3
  %d_stats = getelementptr inbounds %"class.cvc5::internal::StatisticsRegistry", ptr %this1, i32 0, i32 1
  store ptr %d_stats, ptr %__range3, align 8
  %0 = load ptr, ptr %__range3, align 8
  %call2 = call ptr @_ZNSt3mapINSt7__cxx1112basic_stringIcSt11char_traitsIcESaIcEEESt10unique_ptrIN4cvc58internal18StatisticBaseValueESt14default_deleteIS9_EESt4lessIS5_ESaISt4pairIKS5_SC_EEE5beginEv(ptr noundef nonnull align 8 dereferenceable(48) %0) #3
  %coerce.dive = getelementptr inbounds %"struct.std::_Rb_tree_iterator", ptr %__begin3, i32 0, i32 0
  store ptr %call2, ptr %coerce.dive, align 8
  %1 = load ptr, ptr %__range3, align 8
  %call3 = call ptr @_ZNSt3mapINSt7__cxx1112basic_stringIcSt11char_traitsIcESaIcEEESt10unique_ptrIN4cvc58internal18StatisticBaseValueESt14default_deleteIS9_EESt4lessIS5_ESaISt4pairIKS5_SC_EEE3endEv(ptr noundef nonnull align 8 dereferenceable(48) %1) #3
  %coerce.dive4 = getelementptr inbounds %"struct.std::_Rb_tree_iterator", ptr %__end3, i32 0, i32 0
  store ptr %call3, ptr %coerce.dive4, align 8
  br label %for.cond

for.cond:                                         ; preds = %for.inc, %entry
  %call5 = call noundef zeroext i1 @_ZStneRKSt17_Rb_tree_iteratorISt4pairIKNSt7__cxx1112basic_stringIcSt11char_traitsIcESaIcEEESt10unique_ptrIN4cvc58internal18StatisticBaseValueESt14default_deleteISB_EEEESI_(ptr noundef nonnull align 8 dereferenceable(8) %__begin3, ptr noundef nonnull align 8 dereferenceable(8) %__end3) #3
  br i1 %call5, label %for.body, label %for.end

for.body:                                         ; preds = %for.cond
  %call6 = call noundef nonnull align 8 dereferenceable(40) ptr @_ZNKSt17_Rb_tree_iteratorISt4pairIKNSt7__cxx1112basic_stringIcSt11char_traitsIcESaIcEEESt10unique_ptrIN4cvc58internal18StatisticBaseValueESt14default_deleteISB_EEEEdeEv(ptr noundef nonnull align 8 dereferenceable(8) %__begin3) #3
  store ptr %call6, ptr %s, align 8
  %call7 = call noundef nonnull align 8 dereferenceable(392) ptr @_ZNK4cvc58internal6EnvObj7optionsEv(ptr noundef nonnull align 8 dereferenceable(16) %this1)
  %base = getelementptr inbounds %"class.cvc5::internal::Options", ptr %call7, i32 0, i32 26
  %2 = load ptr, ptr %base, align 8
  %statisticsInternal = getelementptr inbounds %"struct.cvc5::internal::options::HolderBASE", ptr %2, i32 0, i32 31
  %3 = load i8, ptr %statisticsInternal, align 1
  %tobool = trunc i8 %3 to i1
  br i1 %tobool, label %if.end, label %land.lhs.true

land.lhs.true:                                    ; preds = %for.body
  %4 = load ptr, ptr %s, align 8
  %second = getelementptr inbounds %"struct.std::pair", ptr %4, i32 0, i32 1
  %call8 = call noundef ptr @_ZNKSt10unique_ptrIN4cvc58internal18StatisticBaseValueESt14default_deleteIS2_EEptEv(ptr noundef nonnull align 8 dereferenceable(8) %second) #3
  %d_internal = getelementptr inbounds %"struct.cvc5::internal::StatisticBaseValue", ptr %call8, i32 0, i32 1
  %5 = load i8, ptr %d_internal, align 8
  %tobool9 = trunc i8 %5 to i1
  br i1 %tobool9, label %if.then, label %if.end

if.then:                                          ; preds = %land.lhs.true
  br label %for.inc

if.end:                                           ; preds = %land.lhs.true, %for.body
  %call10 = call noundef nonnull align 8 dereferenceable(392) ptr @_ZNK4cvc58internal6EnvObj7optionsEv(ptr noundef nonnull align 8 dereferenceable(16) %this1)
  %base11 = getelementptr inbounds %"class.cvc5::internal::Options", ptr %call10, i32 0, i32 26
  %6 = load ptr, ptr %base11, align 8
  %statisticsAll = getelementptr inbounds %"struct.cvc5::internal::options::HolderBASE", ptr %6, i32 0, i32 27
  %7 = load i8, ptr %statisticsAll, align 1
  %tobool12 = trunc i8 %7 to i1
  br i1 %tobool12, label %if.end18, label %land.lhs.true13

land.lhs.true13:                                  ; preds = %if.end
  %8 = load ptr, ptr %s, align 8
  %second14 = getelementptr inbounds %"struct.std::pair", ptr %8, i32 0, i32 1
  %call15 = call noundef ptr @_ZNKSt10unique_ptrIN4cvc58internal18StatisticBaseValueESt14default_deleteIS2_EEptEv(ptr noundef nonnull align 8 dereferenceable(8) %second14) #3
  %vtable = load ptr, ptr %call15, align 8
  %vfn = getelementptr inbounds ptr, ptr %vtable, i64 2
  %9 = load ptr, ptr %vfn, align 8
  %call16 = call noundef zeroext i1 %9(ptr noundef nonnull align 8 dereferenceable(9) %call15)
  br i1 %call16, label %if.then17, label %if.end18

if.then17:                                        ; preds = %land.lhs.true13
  br label %for.inc

if.end18:                                         ; preds = %land.lhs.true13, %if.end
  %d_lastSnapshot19 = getelementptr inbounds %"class.cvc5::internal::StatisticsRegistry", ptr %this1, i32 0, i32 2
  %call20 = call noundef ptr @_ZNKSt10unique_ptrISt3mapINSt7__cxx1112basic_stringIcSt11char_traitsIcESaIcEEESt7variantIJldS6_S0_IS6_mSt4lessIS6_ESaISt4pairIKS6_mEEEEES9_SaISA_ISB_SF_EEESt14default_deleteISI_EEptEv(ptr noundef nonnull align 8 dereferenceable(8) %d_lastSnapshot19) #3
  %10 = load ptr, ptr %s, align 8
  %first = getelementptr inbounds %"struct.std::pair", ptr %10, i32 0, i32 0
  %11 = load ptr, ptr %s, align 8
  %second22 = getelementptr inbounds %"struct.std::pair", ptr %11, i32 0, i32 1
  %call23 = call noundef ptr @_ZNKSt10unique_ptrIN4cvc58internal18StatisticBaseValueESt14default_deleteIS2_EEptEv(ptr noundef nonnull align 8 dereferenceable(8) %second22) #3
  %vtable24 = load ptr, ptr %call23, align 8
  %vfn25 = getelementptr inbounds ptr, ptr %vtable24, i64 3
  %12 = load ptr, ptr %vfn25, align 8
  call void %12(ptr sret(%"class.std::variant") align 8 %ref.tmp21, ptr noundef nonnull align 8 dereferenceable(9) %call23)
  %call26 = invoke { ptr, i8 } @_ZNSt3mapINSt7__cxx1112basic_stringIcSt11char_traitsIcESaIcEEESt7variantIJldS5_S_IS5_mSt4lessIS5_ESaISt4pairIKS5_mEEEEES8_SaIS9_ISA_SE_EEE7emplaceIJRSA_SE_EEES9_ISt17_Rb_tree_iteratorISF_EbEDpOT_(ptr noundef nonnull align 8 dereferenceable(48) %call20, ptr noundef nonnull align 8 dereferenceable(32) %first, ptr noundef nonnull align 8 dereferenceable(49) %ref.tmp21)
          to label %invoke.cont unwind label %lpad

invoke.cont:                                      ; preds = %if.end18
  %13 = getelementptr inbounds { ptr, i8 }, ptr %coerce, i32 0, i32 0
  %14 = extractvalue { ptr, i8 } %call26, 0
  store ptr %14, ptr %13, align 8
  %15 = getelementptr inbounds { ptr, i8 }, ptr %coerce, i32 0, i32 1
  %16 = extractvalue { ptr, i8 } %call26, 1
  store i8 %16, ptr %15, align 8
  call void @_ZNSt7variantIJldNSt7__cxx1112basic_stringIcSt11char_traitsIcESaIcEEESt3mapIS5_mSt4lessIS5_ESaISt4pairIKS5_mEEEEED2Ev(ptr noundef nonnull align 8 dereferenceable(49) %ref.tmp21) #3
  br label %for.inc

for.inc:                                          ; preds = %invoke.cont, %if.then17, %if.then
  %call27 = call noundef nonnull align 8 dereferenceable(8) ptr @_ZNSt17_Rb_tree_iteratorISt4pairIKNSt7__cxx1112basic_stringIcSt11char_traitsIcESaIcEEESt10unique_ptrIN4cvc58internal18StatisticBaseValueESt14default_deleteISB_EEEEppEv(ptr noundef nonnull align 8 dereferenceable(8) %__begin3) #3
  br label %for.cond

lpad:                                             ; preds = %if.end18
  %17 = landingpad { ptr, i32 }
          cleanup
  %18 = extractvalue { ptr, i32 } %17, 0
  store ptr %18, ptr %exn.slot, align 8
  %19 = extractvalue { ptr, i32 } %17, 1
  store i32 %19, ptr %ehselector.slot, align 4
  call void @_ZNSt7variantIJldNSt7__cxx1112basic_stringIcSt11char_traitsIcESaIcEEESt3mapIS5_mSt4lessIS5_ESaISt4pairIKS5_mEEEEED2Ev(ptr noundef nonnull align 8 dereferenceable(49) %ref.tmp21) #3
  br label %eh.resume

for.end:                                          ; preds = %for.cond
  ret void

eh.resume:                                        ; preds = %lpad
  %exn = load ptr, ptr %exn.slot, align 8
  %sel = load i32, ptr %ehselector.slot, align 4
  %lpad.val = insertvalue { ptr, i32 } poison, ptr %exn, 0
  %lpad.val28 = insertvalue { ptr, i32 } %lpad.val, i32 %sel, 1
  resume { ptr, i32 } %lpad.val28
}

; Function Attrs: mustprogress uwtable
define linkonce_odr void @_ZSt11make_uniqueISt3mapINSt7__cxx1112basic_stringIcSt11char_traitsIcESaIcEEESt7variantIJldS6_S0_IS6_mSt4lessIS6_ESaISt4pairIKS6_mEEEEES9_SaISA_ISB_SF_EEEJEENSt8__detail9_MakeUniqIT_E15__single_objectEDpOT0_(ptr noalias sret(%"class.std::unique_ptr") align 8 %agg.result) #4 comdat {
entry:
  %result.ptr = alloca ptr, align 8
  store ptr %agg.result, ptr %result.ptr, align 8
  %call = call noalias noundef nonnull ptr @_Znwm(i64 noundef 48) #14
  call void @llvm.memset.p0.i64(ptr align 16 %call, i8 0, i64 48, i1 false)
  call void @_ZNSt3mapINSt7__cxx1112basic_stringIcSt11char_traitsIcESaIcEEESt7variantIJldS5_S_IS5_mSt4lessIS5_ESaISt4pairIKS5_mEEEEES8_SaIS9_ISA_SE_EEEC2Ev(ptr noundef nonnull align 8 dereferenceable(48) %call) #3
  call void @_ZNSt10unique_ptrISt3mapINSt7__cxx1112basic_stringIcSt11char_traitsIcESaIcEEESt7variantIJldS6_S0_IS6_mSt4lessIS6_ESaISt4pairIKS6_mEEEEES9_SaISA_ISB_SF_EEESt14default_deleteISI_EEC2ISK_vEEPSI_(ptr noundef nonnull align 8 dereferenceable(8) %agg.result, ptr noundef %call) #3
  ret void
}

; Function Attrs: mustprogress nounwind uwtable
define linkonce_odr hidden noundef nonnull align 8 dereferenceable(8) ptr @_ZNSt10unique_ptrISt3mapINSt7__cxx1112basic_stringIcSt11char_traitsIcESaIcEEESt7variantIJldS6_S0_IS6_mSt4lessIS6_ESaISt4pairIKS6_mEEEEES9_SaISA_ISB_SF_EEESt14default_deleteISI_EEaSEOSL_(ptr noundef nonnull align 8 dereferenceable(8) %this, ptr noundef nonnull align 8 dereferenceable(8) %0) #5 comdat align 2 {
entry:
  %this.addr = alloca ptr, align 8
  %.addr = alloca ptr, align 8
  store ptr %this, ptr %this.addr, align 8
  store ptr %0, ptr %.addr, align 8
  %this1 = load ptr, ptr %this.addr, align 8
  %_M_t = getelementptr inbounds %"class.std::unique_ptr", ptr %this1, i32 0, i32 0
  %1 = load ptr, ptr %.addr, align 8
  %_M_t2 = getelementptr inbounds %"class.std::unique_ptr", ptr %1, i32 0, i32 0
  %call = call noundef nonnull align 8 dereferenceable(8) ptr @_ZNSt15__uniq_ptr_dataISt3mapINSt7__cxx1112basic_stringIcSt11char_traitsIcESaIcEEESt7variantIJldS6_S0_IS6_mSt4lessIS6_ESaISt4pairIKS6_mEEEEES9_SaISA_ISB_SF_EEESt14default_deleteISI_ELb1ELb1EEaSEOSL_(ptr noundef nonnull align 8 dereferenceable(8) %_M_t, ptr noundef nonnull align 8 dereferenceable(8) %_M_t2) #3
  ret ptr %this1
}

; Function Attrs: mustprogress nounwind uwtable
define linkonce_odr hidden ptr @_ZNSt3mapINSt7__cxx1112basic_stringIcSt11char_traitsIcESaIcEEESt10unique_ptrIN4cvc58internal18StatisticBaseValueESt14default_deleteIS9_EESt4lessIS5_ESaISt4pairIKS5_SC_EEE5beginEv(ptr noundef nonnull align 8 dereferenceable(48) %this) #5 comdat align 2 {
entry:
  %retval = alloca %"struct.std::_Rb_tree_iterator", align 8
  %this.addr = alloca ptr, align 8
  store ptr %this, ptr %this.addr, align 8
  %this1 = load ptr, ptr %this.addr, align 8
  %_M_t = getelementptr inbounds %"class.std::map", ptr %this1, i32 0, i32 0
  %call = call ptr @_ZNSt8_Rb_treeINSt7__cxx1112basic_stringIcSt11char_traitsIcESaIcEEESt4pairIKS5_St10unique_ptrIN4cvc58internal18StatisticBaseValueESt14default_deleteISB_EEESt10_Select1stISF_ESt4lessIS5_ESaISF_EE5beginEv(ptr noundef nonnull align 8 dereferenceable(48) %_M_t) #3
  %coerce.dive = getelementptr inbounds %"struct.std::_Rb_tree_iterator", ptr %retval, i32 0, i32 0
  store ptr %call, ptr %coerce.dive, align 8
  %coerce.dive2 = getelementptr inbounds %"struct.std::_Rb_tree_iterator", ptr %retval, i32 0, i32 0
  %0 = load ptr, ptr %coerce.dive2, align 8
  ret ptr %0
}

; Function Attrs: mustprogress nounwind uwtable
define linkonce_odr hidden ptr @_ZNSt3mapINSt7__cxx1112basic_stringIcSt11char_traitsIcESaIcEEESt10unique_ptrIN4cvc58internal18StatisticBaseValueESt14default_deleteIS9_EESt4lessIS5_ESaISt4pairIKS5_SC_EEE3endEv(ptr noundef nonnull align 8 dereferenceable(48) %this) #5 comdat align 2 {
entry:
  %retval = alloca %"struct.std::_Rb_tree_iterator", align 8
  %this.addr = alloca ptr, align 8
  store ptr %this, ptr %this.addr, align 8
  %this1 = load ptr, ptr %this.addr, align 8
  %_M_t = getelementptr inbounds %"class.std::map", ptr %this1, i32 0, i32 0
  %call = call ptr @_ZNSt8_Rb_treeINSt7__cxx1112basic_stringIcSt11char_traitsIcESaIcEEESt4pairIKS5_St10unique_ptrIN4cvc58internal18StatisticBaseValueESt14default_deleteISB_EEESt10_Select1stISF_ESt4lessIS5_ESaISF_EE3endEv(ptr noundef nonnull align 8 dereferenceable(48) %_M_t) #3
  %coerce.dive = getelementptr inbounds %"struct.std::_Rb_tree_iterator", ptr %retval, i32 0, i32 0
  store ptr %call, ptr %coerce.dive, align 8
  %coerce.dive2 = getelementptr inbounds %"struct.std::_Rb_tree_iterator", ptr %retval, i32 0, i32 0
  %0 = load ptr, ptr %coerce.dive2, align 8
  ret ptr %0
}

; Function Attrs: mustprogress nounwind uwtable
define linkonce_odr noundef zeroext i1 @_ZStneRKSt17_Rb_tree_iteratorISt4pairIKNSt7__cxx1112basic_stringIcSt11char_traitsIcESaIcEEESt10unique_ptrIN4cvc58internal18StatisticBaseValueESt14default_deleteISB_EEEESI_(ptr noundef nonnull align 8 dereferenceable(8) %__x, ptr noundef nonnull align 8 dereferenceable(8) %__y) #5 comdat {
entry:
  %__x.addr = alloca ptr, align 8
  %__y.addr = alloca ptr, align 8
  store ptr %__x, ptr %__x.addr, align 8
  store ptr %__y, ptr %__y.addr, align 8
  %0 = load ptr, ptr %__x.addr, align 8
  %_M_node = getelementptr inbounds %"struct.std::_Rb_tree_iterator", ptr %0, i32 0, i32 0
  %1 = load ptr, ptr %_M_node, align 8
  %2 = load ptr, ptr %__y.addr, align 8
  %_M_node1 = getelementptr inbounds %"struct.std::_Rb_tree_iterator", ptr %2, i32 0, i32 0
  %3 = load ptr, ptr %_M_node1, align 8
  %cmp = icmp ne ptr %1, %3
  ret i1 %cmp
}

; Function Attrs: mustprogress nounwind uwtable
define linkonce_odr hidden noundef nonnull align 8 dereferenceable(40) ptr @_ZNKSt17_Rb_tree_iteratorISt4pairIKNSt7__cxx1112basic_stringIcSt11char_traitsIcESaIcEEESt10unique_ptrIN4cvc58internal18StatisticBaseValueESt14default_deleteISB_EEEEdeEv(ptr noundef nonnull align 8 dereferenceable(8) %this) #5 comdat align 2 {
entry:
  %this.addr = alloca ptr, align 8
  store ptr %this, ptr %this.addr, align 8
  %this1 = load ptr, ptr %this.addr, align 8
  %_M_node = getelementptr inbounds %"struct.std::_Rb_tree_iterator", ptr %this1, i32 0, i32 0
  %0 = load ptr, ptr %_M_node, align 8
  %call = call noundef ptr @_ZNSt13_Rb_tree_nodeISt4pairIKNSt7__cxx1112basic_stringIcSt11char_traitsIcESaIcEEESt10unique_ptrIN4cvc58internal18StatisticBaseValueESt14default_deleteISB_EEEE9_M_valptrEv(ptr noundef nonnull align 8 dereferenceable(72) %0)
  ret ptr %call
}

declare noundef nonnull align 8 dereferenceable(392) ptr @_ZNK4cvc58internal6EnvObj7optionsEv(ptr noundef nonnull align 8 dereferenceable(16)) #1

; Function Attrs: mustprogress nounwind uwtable
define linkonce_odr hidden noundef ptr @_ZNKSt10unique_ptrIN4cvc58internal18StatisticBaseValueESt14default_deleteIS2_EEptEv(ptr noundef nonnull align 8 dereferenceable(8) %this) #5 comdat align 2 {
entry:
  %this.addr = alloca ptr, align 8
  store ptr %this, ptr %this.addr, align 8
  %this1 = load ptr, ptr %this.addr, align 8
  %call = call noundef ptr @_ZNKSt10unique_ptrIN4cvc58internal18StatisticBaseValueESt14default_deleteIS2_EE3getEv(ptr noundef nonnull align 8 dereferenceable(8) %this1) #3
  ret ptr %call
}

; Function Attrs: mustprogress nounwind uwtable
define linkonce_odr hidden noundef ptr @_ZNKSt10unique_ptrISt3mapINSt7__cxx1112basic_stringIcSt11char_traitsIcESaIcEEESt7variantIJldS6_S0_IS6_mSt4lessIS6_ESaISt4pairIKS6_mEEEEES9_SaISA_ISB_SF_EEESt14default_deleteISI_EEptEv(ptr noundef nonnull align 8 dereferenceable(8) %this) #5 comdat align 2 {
entry:
  %this.addr = alloca ptr, align 8
  store ptr %this, ptr %this.addr, align 8
  %this1 = load ptr, ptr %this.addr, align 8
  %call = call noundef ptr @_ZNKSt10unique_ptrISt3mapINSt7__cxx1112basic_stringIcSt11char_traitsIcESaIcEEESt7variantIJldS6_S0_IS6_mSt4lessIS6_ESaISt4pairIKS6_mEEEEES9_SaISA_ISB_SF_EEESt14default_deleteISI_EE3getEv(ptr noundef nonnull align 8 dereferenceable(8) %this1) #3
  ret ptr %call
}

; Function Attrs: mustprogress uwtable
define linkonce_odr hidden { ptr, i8 } @_ZNSt3mapINSt7__cxx1112basic_stringIcSt11char_traitsIcESaIcEEESt7variantIJldS5_S_IS5_mSt4lessIS5_ESaISt4pairIKS5_mEEEEES8_SaIS9_ISA_SE_EEE7emplaceIJRSA_SE_EEES9_ISt17_Rb_tree_iteratorISF_EbEDpOT_(ptr noundef nonnull align 8 dereferenceable(48) %this, ptr noundef nonnull align 8 dereferenceable(32) %__args, ptr noundef nonnull align 8 dereferenceable(49) %__args1) #4 comdat align 2 {
entry:
  %retval = alloca %"struct.std::pair.225", align 8
  %this.addr = alloca ptr, align 8
  %__args.addr = alloca ptr, align 8
  %__args.addr2 = alloca ptr, align 8
  %0 = alloca ptr, align 8
  %ref.tmp = alloca %"struct.std::pair.303", align 8
  %__a = alloca ptr, align 8
  %__v = alloca ptr, align 8
  %__k = alloca ptr, align 8
  %__i = alloca %"struct.std::_Rb_tree_iterator.227", align 8
  %ref.tmp6 = alloca %"struct.std::_Rb_tree_iterator.227", align 8
  %ref.tmp10 = alloca %"struct.std::less", align 1
  %ref.tmp13 = alloca %"struct.std::_Rb_tree_iterator.227", align 8
  %agg.tmp = alloca %"struct.std::_Rb_tree_const_iterator.305", align 8
  %ref.tmp17 = alloca i8, align 1
  %ref.tmp18 = alloca i8, align 1
  store ptr %this, ptr %this.addr, align 8
  store ptr %__args, ptr %__args.addr, align 8
  store ptr %__args1, ptr %__args.addr2, align 8
  %this3 = load ptr, ptr %this.addr, align 8
  %1 = load ptr, ptr %__args.addr, align 8
  %2 = load ptr, ptr %__args.addr2, align 8
  call void @_ZNSt4pairIRKNSt7__cxx1112basic_stringIcSt11char_traitsIcESaIcEEERSt7variantIJldS5_St3mapIS5_mSt4lessIS5_ESaIS_IS6_mEEEEEEC2IS7_SG_TnNSt9enable_ifIXaaclsr5_PCCPE18_ConstructiblePairIT_T0_EEclsr5_PCCPE26_ImplicitlyConvertiblePairISK_SL_EEEbE4typeELb1EEES7_SG_(ptr noundef nonnull align 8 dereferenceable(16) %ref.tmp, ptr noundef nonnull align 8 dereferenceable(32) %1, ptr noundef nonnull align 8 dereferenceable(49) %2)
  store ptr %ref.tmp, ptr %0, align 8
  %3 = load ptr, ptr %0, align 8
  %call = call noundef nonnull align 8 dereferenceable(32) ptr @_ZSt3getILm0ERKNSt7__cxx1112basic_stringIcSt11char_traitsIcESaIcEEERSt7variantIJldS5_St3mapIS5_mSt4lessIS5_ESaISt4pairIS6_mEEEEEEONSt13tuple_elementIXT_ESC_IT0_T1_EE4typeEOSL_(ptr noundef nonnull align 8 dereferenceable(16) %3) #3
  store ptr %call, ptr %__a, align 8
  %4 = load ptr, ptr %0, align 8
  %call4 = call noundef nonnull align 8 dereferenceable(49) ptr @_ZSt3getILm1ERKNSt7__cxx1112basic_stringIcSt11char_traitsIcESaIcEEERSt7variantIJldS5_St3mapIS5_mSt4lessIS5_ESaISt4pairIS6_mEEEEEEONSt13tuple_elementIXT_ESC_IT0_T1_EE4typeEOSL_(ptr noundef nonnull align 8 dereferenceable(16) %4) #3
  store ptr %call4, ptr %__v, align 8
  %5 = load ptr, ptr %__a, align 8
  store ptr %5, ptr %__k, align 8
  %6 = load ptr, ptr %__k, align 8
  %call5 = call ptr @_ZNSt3mapINSt7__cxx1112basic_stringIcSt11char_traitsIcESaIcEEESt7variantIJldS5_S_IS5_mSt4lessIS5_ESaISt4pairIKS5_mEEEEES8_SaIS9_ISA_SE_EEE11lower_boundERSA_(ptr noundef nonnull align 8 dereferenceable(48) %this3, ptr noundef nonnull align 8 dereferenceable(32) %6)
  %coerce.dive = getelementptr inbounds %"struct.std::_Rb_tree_iterator.227", ptr %__i, i32 0, i32 0
  store ptr %call5, ptr %coerce.dive, align 8
  %call7 = call ptr @_ZNSt3mapINSt7__cxx1112basic_stringIcSt11char_traitsIcESaIcEEESt7variantIJldS5_S_IS5_mSt4lessIS5_ESaISt4pairIKS5_mEEEEES8_SaIS9_ISA_SE_EEE3endEv(ptr noundef nonnull align 8 dereferenceable(48) %this3) #3
  %coerce.dive8 = getelementptr inbounds %"struct.std::_Rb_tree_iterator.227", ptr %ref.tmp6, i32 0, i32 0
  store ptr %call7, ptr %coerce.dive8, align 8
  %call9 = call noundef zeroext i1 @_ZSteqRKSt17_Rb_tree_iteratorISt4pairIKNSt7__cxx1112basic_stringIcSt11char_traitsIcESaIcEEESt7variantIJldS6_St3mapIS6_mSt4lessIS6_ESaIS0_IS7_mEEEEEEESJ_(ptr noundef nonnull align 8 dereferenceable(8) %__i, ptr noundef nonnull align 8 dereferenceable(8) %ref.tmp6) #3
  br i1 %call9, label %lor.end, label %lor.rhs

lor.rhs:                                          ; preds = %entry
  call void @_ZNKSt3mapINSt7__cxx1112basic_stringIcSt11char_traitsIcESaIcEEESt7variantIJldS5_S_IS5_mSt4lessIS5_ESaISt4pairIKS5_mEEEEES8_SaIS9_ISA_SE_EEE8key_compEv(ptr noundef nonnull align 8 dereferenceable(48) %this3)
  %7 = load ptr, ptr %__k, align 8
  %call11 = call noundef nonnull align 8 dereferenceable(88) ptr @_ZNKSt17_Rb_tree_iteratorISt4pairIKNSt7__cxx1112basic_stringIcSt11char_traitsIcESaIcEEESt7variantIJldS6_St3mapIS6_mSt4lessIS6_ESaIS0_IS7_mEEEEEEEdeEv(ptr noundef nonnull align 8 dereferenceable(8) %__i) #3
  %first = getelementptr inbounds %"struct.std::pair.236", ptr %call11, i32 0, i32 0
  %call12 = call noundef zeroext i1 @_ZNKSt4lessINSt7__cxx1112basic_stringIcSt11char_traitsIcESaIcEEEEclERKS5_S8_(ptr noundef nonnull align 1 dereferenceable(1) %ref.tmp10, ptr noundef nonnull align 8 dereferenceable(32) %7, ptr noundef nonnull align 8 dereferenceable(32) %first)
  br label %lor.end

lor.end:                                          ; preds = %lor.rhs, %entry
  %8 = phi i1 [ true, %entry ], [ %call12, %lor.rhs ]
  br i1 %8, label %if.then, label %if.end

if.then:                                          ; preds = %lor.end
  call void @_ZNSt23_Rb_tree_const_iteratorISt4pairIKNSt7__cxx1112basic_stringIcSt11char_traitsIcESaIcEEESt7variantIJldS6_St3mapIS6_mSt4lessIS6_ESaIS0_IS7_mEEEEEEEC2ERKSt17_Rb_tree_iteratorISG_E(ptr noundef nonnull align 8 dereferenceable(8) %agg.tmp, ptr noundef nonnull align 8 dereferenceable(8) %__i) #3
  %9 = load ptr, ptr %__args.addr, align 8
  %10 = load ptr, ptr %__args.addr2, align 8
  %coerce.dive14 = getelementptr inbounds %"struct.std::_Rb_tree_const_iterator.305", ptr %agg.tmp, i32 0, i32 0
  %11 = load ptr, ptr %coerce.dive14, align 8
  %call15 = call ptr @_ZNSt3mapINSt7__cxx1112basic_stringIcSt11char_traitsIcESaIcEEESt7variantIJldS5_S_IS5_mSt4lessIS5_ESaISt4pairIKS5_mEEEEES8_SaIS9_ISA_SE_EEE12emplace_hintIJRSA_SE_EEESt17_Rb_tree_iteratorISF_ESt23_Rb_tree_const_iteratorISF_EDpOT_(ptr noundef nonnull align 8 dereferenceable(48) %this3, ptr %11, ptr noundef nonnull align 8 dereferenceable(32) %9, ptr noundef nonnull align 8 dereferenceable(49) %10)
  %coerce.dive16 = getelementptr inbounds %"struct.std::_Rb_tree_iterator.227", ptr %ref.tmp13, i32 0, i32 0
  store ptr %call15, ptr %coerce.dive16, align 8
  call void @llvm.memcpy.p0.p0.i64(ptr align 8 %__i, ptr align 8 %ref.tmp13, i64 8, i1 false)
  store i8 1, ptr %ref.tmp17, align 1
  call void @_ZNSt4pairISt17_Rb_tree_iteratorIS_IKNSt7__cxx1112basic_stringIcSt11char_traitsIcESaIcEEESt7variantIJldS6_St3mapIS6_mSt4lessIS6_ESaIS_IS7_mEEEEEEEbEC2IRSH_bTnNSt9enable_ifIXaaclsr5_PCCPE22_MoveConstructiblePairIT_T0_EEclsr5_PCCPE30_ImplicitlyMoveConvertiblePairISM_SN_EEEbE4typeELb1EEEOSM_OSN_(ptr noundef nonnull align 8 dereferenceable(9) %retval, ptr noundef nonnull align 8 dereferenceable(8) %__i, ptr noundef nonnull align 1 dereferenceable(1) %ref.tmp17)
  br label %return

if.end:                                           ; preds = %lor.end
  store i8 0, ptr %ref.tmp18, align 1
  call void @_ZNSt4pairISt17_Rb_tree_iteratorIS_IKNSt7__cxx1112basic_stringIcSt11char_traitsIcESaIcEEESt7variantIJldS6_St3mapIS6_mSt4lessIS6_ESaIS_IS7_mEEEEEEEbEC2IRSH_bTnNSt9enable_ifIXaaclsr5_PCCPE22_MoveConstructiblePairIT_T0_EEclsr5_PCCPE30_ImplicitlyMoveConvertiblePairISM_SN_EEEbE4typeELb1EEEOSM_OSN_(ptr noundef nonnull align 8 dereferenceable(9) %retval, ptr noundef nonnull align 8 dereferenceable(8) %__i, ptr noundef nonnull align 1 dereferenceable(1) %ref.tmp18)
  br label %return

return:                                           ; preds = %if.end, %if.then
  %12 = load { ptr, i8 }, ptr %retval, align 8
  ret { ptr, i8 } %12
}

; Function Attrs: mustprogress nounwind uwtable
define linkonce_odr hidden void @_ZNSt7variantIJldNSt7__cxx1112basic_stringIcSt11char_traitsIcESaIcEEESt3mapIS5_mSt4lessIS5_ESaISt4pairIKS5_mEEEEED2Ev(ptr noundef nonnull align 8 dereferenceable(49) %this) unnamed_addr #5 comdat align 2 {
entry:
  %this.addr = alloca ptr, align 8
  store ptr %this, ptr %this.addr, align 8
  %this1 = load ptr, ptr %this.addr, align 8
  call void @_ZNSt8__detail9__variant13_Variant_baseIJldNSt7__cxx1112basic_stringIcSt11char_traitsIcESaIcEEESt3mapIS7_mSt4lessIS7_ESaISt4pairIKS7_mEEEEED2Ev(ptr noundef nonnull align 8 dereferenceable(49) %this1) #3
  ret void
}

; Function Attrs: mustprogress nounwind uwtable
define linkonce_odr hidden noundef nonnull align 8 dereferenceable(8) ptr @_ZNSt17_Rb_tree_iteratorISt4pairIKNSt7__cxx1112basic_stringIcSt11char_traitsIcESaIcEEESt10unique_ptrIN4cvc58internal18StatisticBaseValueESt14default_deleteISB_EEEEppEv(ptr noundef nonnull align 8 dereferenceable(8) %this) #5 comdat align 2 {
entry:
  %this.addr = alloca ptr, align 8
  store ptr %this, ptr %this.addr, align 8
  %this1 = load ptr, ptr %this.addr, align 8
  %_M_node = getelementptr inbounds %"struct.std::_Rb_tree_iterator", ptr %this1, i32 0, i32 0
  %0 = load ptr, ptr %_M_node, align 8
  %call = call noundef ptr @_ZSt18_Rb_tree_incrementPSt18_Rb_tree_node_base(ptr noundef %0) #15
  %_M_node2 = getelementptr inbounds %"struct.std::_Rb_tree_iterator", ptr %this1, i32 0, i32 0
  store ptr %call, ptr %_M_node2, align 8
  ret ptr %this1
}

; Function Attrs: mustprogress uwtable
define hidden noundef ptr @_ZNK4cvc58internal18StatisticsRegistry3getERKNSt7__cxx1112basic_stringIcSt11char_traitsIcESaIcEEE(ptr noundef nonnull align 8 dereferenceable(72) %this, ptr noundef nonnull align 8 dereferenceable(32) %name) #4 align 2 {
entry:
  %retval = alloca ptr, align 8
  %this.addr = alloca ptr, align 8
  %name.addr = alloca ptr, align 8
  %it = alloca %"struct.std::_Rb_tree_const_iterator", align 8
  %ref.tmp = alloca %"struct.std::_Rb_tree_const_iterator", align 8
  store ptr %this, ptr %this.addr, align 8
  store ptr %name, ptr %name.addr, align 8
  %this1 = load ptr, ptr %this.addr, align 8
  %d_stats = getelementptr inbounds %"class.cvc5::internal::StatisticsRegistry", ptr %this1, i32 0, i32 1
  %0 = load ptr, ptr %name.addr, align 8
  %call = call ptr @_ZNKSt3mapINSt7__cxx1112basic_stringIcSt11char_traitsIcESaIcEEESt10unique_ptrIN4cvc58internal18StatisticBaseValueESt14default_deleteIS9_EESt4lessIS5_ESaISt4pairIKS5_SC_EEE4findERSG_(ptr noundef nonnull align 8 dereferenceable(48) %d_stats, ptr noundef nonnull align 8 dereferenceable(32) %0)
  %coerce.dive = getelementptr inbounds %"struct.std::_Rb_tree_const_iterator", ptr %it, i32 0, i32 0
  store ptr %call, ptr %coerce.dive, align 8
  %d_stats2 = getelementptr inbounds %"class.cvc5::internal::StatisticsRegistry", ptr %this1, i32 0, i32 1
  %call3 = call ptr @_ZNKSt3mapINSt7__cxx1112basic_stringIcSt11char_traitsIcESaIcEEESt10unique_ptrIN4cvc58internal18StatisticBaseValueESt14default_deleteIS9_EESt4lessIS5_ESaISt4pairIKS5_SC_EEE3endEv(ptr noundef nonnull align 8 dereferenceable(48) %d_stats2) #3
  %coerce.dive4 = getelementptr inbounds %"struct.std::_Rb_tree_const_iterator", ptr %ref.tmp, i32 0, i32 0
  store ptr %call3, ptr %coerce.dive4, align 8
  %call5 = call noundef zeroext i1 @_ZSteqRKSt23_Rb_tree_const_iteratorISt4pairIKNSt7__cxx1112basic_stringIcSt11char_traitsIcESaIcEEESt10unique_ptrIN4cvc58internal18StatisticBaseValueESt14default_deleteISB_EEEESI_(ptr noundef nonnull align 8 dereferenceable(8) %it, ptr noundef nonnull align 8 dereferenceable(8) %ref.tmp) #3
  br i1 %call5, label %if.then, label %if.end

if.then:                                          ; preds = %entry
  store ptr null, ptr %retval, align 8
  br label %return

if.end:                                           ; preds = %entry
  %call6 = call noundef ptr @_ZNKSt23_Rb_tree_const_iteratorISt4pairIKNSt7__cxx1112basic_stringIcSt11char_traitsIcESaIcEEESt10unique_ptrIN4cvc58internal18StatisticBaseValueESt14default_deleteISB_EEEEptEv(ptr noundef nonnull align 8 dereferenceable(8) %it) #3
  %second = getelementptr inbounds %"struct.std::pair", ptr %call6, i32 0, i32 1
  %call7 = call noundef ptr @_ZNKSt10unique_ptrIN4cvc58internal18StatisticBaseValueESt14default_deleteIS2_EE3getEv(ptr noundef nonnull align 8 dereferenceable(8) %second) #3
  store ptr %call7, ptr %retval, align 8
  br label %return

return:                                           ; preds = %if.end, %if.then
  %1 = load ptr, ptr %retval, align 8
  ret ptr %1
}

; Function Attrs: mustprogress uwtable
define linkonce_odr hidden ptr @_ZNKSt3mapINSt7__cxx1112basic_stringIcSt11char_traitsIcESaIcEEESt10unique_ptrIN4cvc58internal18StatisticBaseValueESt14default_deleteIS9_EESt4lessIS5_ESaISt4pairIKS5_SC_EEE4findERSG_(ptr noundef nonnull align 8 dereferenceable(48) %this, ptr noundef nonnull align 8 dereferenceable(32) %__x) #4 comdat align 2 {
entry:
  %retval = alloca %"struct.std::_Rb_tree_const_iterator", align 8
  %this.addr = alloca ptr, align 8
  %__x.addr = alloca ptr, align 8
  store ptr %this, ptr %this.addr, align 8
  store ptr %__x, ptr %__x.addr, align 8
  %this1 = load ptr, ptr %this.addr, align 8
  %_M_t = getelementptr inbounds %"class.std::map", ptr %this1, i32 0, i32 0
  %0 = load ptr, ptr %__x.addr, align 8
  %call = call ptr @_ZNKSt8_Rb_treeINSt7__cxx1112basic_stringIcSt11char_traitsIcESaIcEEESt4pairIKS5_St10unique_ptrIN4cvc58internal18StatisticBaseValueESt14default_deleteISB_EEESt10_Select1stISF_ESt4lessIS5_ESaISF_EE4findERS7_(ptr noundef nonnull align 8 dereferenceable(48) %_M_t, ptr noundef nonnull align 8 dereferenceable(32) %0)
  %coerce.dive = getelementptr inbounds %"struct.std::_Rb_tree_const_iterator", ptr %retval, i32 0, i32 0
  store ptr %call, ptr %coerce.dive, align 8
  %coerce.dive2 = getelementptr inbounds %"struct.std::_Rb_tree_const_iterator", ptr %retval, i32 0, i32 0
  %1 = load ptr, ptr %coerce.dive2, align 8
  ret ptr %1
}

; Function Attrs: mustprogress nounwind uwtable
define linkonce_odr noundef zeroext i1 @_ZSteqRKSt23_Rb_tree_const_iteratorISt4pairIKNSt7__cxx1112basic_stringIcSt11char_traitsIcESaIcEEESt10unique_ptrIN4cvc58internal18StatisticBaseValueESt14default_deleteISB_EEEESI_(ptr noundef nonnull align 8 dereferenceable(8) %__x, ptr noundef nonnull align 8 dereferenceable(8) %__y) #5 comdat {
entry:
  %__x.addr = alloca ptr, align 8
  %__y.addr = alloca ptr, align 8
  store ptr %__x, ptr %__x.addr, align 8
  store ptr %__y, ptr %__y.addr, align 8
  %0 = load ptr, ptr %__x.addr, align 8
  %_M_node = getelementptr inbounds %"struct.std::_Rb_tree_const_iterator", ptr %0, i32 0, i32 0
  %1 = load ptr, ptr %_M_node, align 8
  %2 = load ptr, ptr %__y.addr, align 8
  %_M_node1 = getelementptr inbounds %"struct.std::_Rb_tree_const_iterator", ptr %2, i32 0, i32 0
  %3 = load ptr, ptr %_M_node1, align 8
  %cmp = icmp eq ptr %1, %3
  ret i1 %cmp
}

; Function Attrs: mustprogress nounwind uwtable
define linkonce_odr hidden ptr @_ZNKSt3mapINSt7__cxx1112basic_stringIcSt11char_traitsIcESaIcEEESt10unique_ptrIN4cvc58internal18StatisticBaseValueESt14default_deleteIS9_EESt4lessIS5_ESaISt4pairIKS5_SC_EEE3endEv(ptr noundef nonnull align 8 dereferenceable(48) %this) #5 comdat align 2 {
entry:
  %retval = alloca %"struct.std::_Rb_tree_const_iterator", align 8
  %this.addr = alloca ptr, align 8
  store ptr %this, ptr %this.addr, align 8
  %this1 = load ptr, ptr %this.addr, align 8
  %_M_t = getelementptr inbounds %"class.std::map", ptr %this1, i32 0, i32 0
  %call = call ptr @_ZNKSt8_Rb_treeINSt7__cxx1112basic_stringIcSt11char_traitsIcESaIcEEESt4pairIKS5_St10unique_ptrIN4cvc58internal18StatisticBaseValueESt14default_deleteISB_EEESt10_Select1stISF_ESt4lessIS5_ESaISF_EE3endEv(ptr noundef nonnull align 8 dereferenceable(48) %_M_t) #3
  %coerce.dive = getelementptr inbounds %"struct.std::_Rb_tree_const_iterator", ptr %retval, i32 0, i32 0
  store ptr %call, ptr %coerce.dive, align 8
  %coerce.dive2 = getelementptr inbounds %"struct.std::_Rb_tree_const_iterator", ptr %retval, i32 0, i32 0
  %0 = load ptr, ptr %coerce.dive2, align 8
  ret ptr %0
}

; Function Attrs: mustprogress nounwind uwtable
define linkonce_odr hidden noundef ptr @_ZNKSt23_Rb_tree_const_iteratorISt4pairIKNSt7__cxx1112basic_stringIcSt11char_traitsIcESaIcEEESt10unique_ptrIN4cvc58internal18StatisticBaseValueESt14default_deleteISB_EEEEptEv(ptr noundef nonnull align 8 dereferenceable(8) %this) #5 comdat align 2 {
entry:
  %this.addr = alloca ptr, align 8
  store ptr %this, ptr %this.addr, align 8
  %this1 = load ptr, ptr %this.addr, align 8
  %_M_node = getelementptr inbounds %"struct.std::_Rb_tree_const_iterator", ptr %this1, i32 0, i32 0
  %0 = load ptr, ptr %_M_node, align 8
  %call = call noundef ptr @_ZNKSt13_Rb_tree_nodeISt4pairIKNSt7__cxx1112basic_stringIcSt11char_traitsIcESaIcEEESt10unique_ptrIN4cvc58internal18StatisticBaseValueESt14default_deleteISB_EEEE9_M_valptrEv(ptr noundef nonnull align 8 dereferenceable(72) %0)
  ret ptr %call
}

; Function Attrs: mustprogress nounwind uwtable
define linkonce_odr hidden noundef ptr @_ZNKSt10unique_ptrIN4cvc58internal18StatisticBaseValueESt14default_deleteIS2_EE3getEv(ptr noundef nonnull align 8 dereferenceable(8) %this) #5 comdat align 2 {
entry:
  %this.addr = alloca ptr, align 8
  store ptr %this, ptr %this.addr, align 8
  %this1 = load ptr, ptr %this.addr, align 8
  %_M_t = getelementptr inbounds %"class.std::unique_ptr.5", ptr %this1, i32 0, i32 0
  %call = call noundef ptr @_ZNKSt15__uniq_ptr_implIN4cvc58internal18StatisticBaseValueESt14default_deleteIS2_EE6_M_ptrEv(ptr noundef nonnull align 8 dereferenceable(8) %_M_t) #3
  ret ptr %call
}

; Function Attrs: mustprogress uwtable
define hidden void @_ZNK4cvc58internal18StatisticsRegistry5printERSo(ptr noundef nonnull align 8 dereferenceable(72) %this, ptr noundef nonnull align 8 dereferenceable(8) %os) #4 align 2 {
entry:
  %this.addr = alloca ptr, align 8
  %os.addr = alloca ptr, align 8
  %__range3 = alloca ptr, align 8
  %__begin3 = alloca %"struct.std::_Rb_tree_const_iterator", align 8
  %__end3 = alloca %"struct.std::_Rb_tree_const_iterator", align 8
  %s = alloca ptr, align 8
  store ptr %this, ptr %this.addr, align 8
  store ptr %os, ptr %os.addr, align 8
  %this1 = load ptr, ptr %this.addr, align 8
  %d_stats = getelementptr inbounds %"class.cvc5::internal::StatisticsRegistry", ptr %this1, i32 0, i32 1
  store ptr %d_stats, ptr %__range3, align 8
  %0 = load ptr, ptr %__range3, align 8
  %call = call ptr @_ZNKSt3mapINSt7__cxx1112basic_stringIcSt11char_traitsIcESaIcEEESt10unique_ptrIN4cvc58internal18StatisticBaseValueESt14default_deleteIS9_EESt4lessIS5_ESaISt4pairIKS5_SC_EEE5beginEv(ptr noundef nonnull align 8 dereferenceable(48) %0) #3
  %coerce.dive = getelementptr inbounds %"struct.std::_Rb_tree_const_iterator", ptr %__begin3, i32 0, i32 0
  store ptr %call, ptr %coerce.dive, align 8
  %1 = load ptr, ptr %__range3, align 8
  %call2 = call ptr @_ZNKSt3mapINSt7__cxx1112basic_stringIcSt11char_traitsIcESaIcEEESt10unique_ptrIN4cvc58internal18StatisticBaseValueESt14default_deleteIS9_EESt4lessIS5_ESaISt4pairIKS5_SC_EEE3endEv(ptr noundef nonnull align 8 dereferenceable(48) %1) #3
  %coerce.dive3 = getelementptr inbounds %"struct.std::_Rb_tree_const_iterator", ptr %__end3, i32 0, i32 0
  store ptr %call2, ptr %coerce.dive3, align 8
  br label %for.cond

for.cond:                                         ; preds = %for.inc, %entry
  %call4 = call noundef zeroext i1 @_ZStneRKSt23_Rb_tree_const_iteratorISt4pairIKNSt7__cxx1112basic_stringIcSt11char_traitsIcESaIcEEESt10unique_ptrIN4cvc58internal18StatisticBaseValueESt14default_deleteISB_EEEESI_(ptr noundef nonnull align 8 dereferenceable(8) %__begin3, ptr noundef nonnull align 8 dereferenceable(8) %__end3) #3
  br i1 %call4, label %for.body, label %for.end

for.body:                                         ; preds = %for.cond
  %call5 = call noundef nonnull align 8 dereferenceable(40) ptr @_ZNKSt23_Rb_tree_const_iteratorISt4pairIKNSt7__cxx1112basic_stringIcSt11char_traitsIcESaIcEEESt10unique_ptrIN4cvc58internal18StatisticBaseValueESt14default_deleteISB_EEEEdeEv(ptr noundef nonnull align 8 dereferenceable(8) %__begin3) #3
  store ptr %call5, ptr %s, align 8
  %call6 = call noundef nonnull align 8 dereferenceable(392) ptr @_ZNK4cvc58internal6EnvObj7optionsEv(ptr noundef nonnull align 8 dereferenceable(16) %this1)
  %base = getelementptr inbounds %"class.cvc5::internal::Options", ptr %call6, i32 0, i32 26
  %2 = load ptr, ptr %base, align 8
  %statisticsInternal = getelementptr inbounds %"struct.cvc5::internal::options::HolderBASE", ptr %2, i32 0, i32 31
  %3 = load i8, ptr %statisticsInternal, align 1
  %tobool = trunc i8 %3 to i1
  br i1 %tobool, label %if.end, label %land.lhs.true

land.lhs.true:                                    ; preds = %for.body
  %4 = load ptr, ptr %s, align 8
  %second = getelementptr inbounds %"struct.std::pair", ptr %4, i32 0, i32 1
  %call7 = call noundef ptr @_ZNKSt10unique_ptrIN4cvc58internal18StatisticBaseValueESt14default_deleteIS2_EEptEv(ptr noundef nonnull align 8 dereferenceable(8) %second) #3
  %d_internal = getelementptr inbounds %"struct.cvc5::internal::StatisticBaseValue", ptr %call7, i32 0, i32 1
  %5 = load i8, ptr %d_internal, align 8
  %tobool8 = trunc i8 %5 to i1
  br i1 %tobool8, label %if.then, label %if.end

if.then:                                          ; preds = %land.lhs.true
  br label %for.inc

if.end:                                           ; preds = %land.lhs.true, %for.body
  %call9 = call noundef nonnull align 8 dereferenceable(392) ptr @_ZNK4cvc58internal6EnvObj7optionsEv(ptr noundef nonnull align 8 dereferenceable(16) %this1)
  %base10 = getelementptr inbounds %"class.cvc5::internal::Options", ptr %call9, i32 0, i32 26
  %6 = load ptr, ptr %base10, align 8
  %statisticsAll = getelementptr inbounds %"struct.cvc5::internal::options::HolderBASE", ptr %6, i32 0, i32 27
  %7 = load i8, ptr %statisticsAll, align 1
  %tobool11 = trunc i8 %7 to i1
  br i1 %tobool11, label %if.end17, label %land.lhs.true12

land.lhs.true12:                                  ; preds = %if.end
  %8 = load ptr, ptr %s, align 8
  %second13 = getelementptr inbounds %"struct.std::pair", ptr %8, i32 0, i32 1
  %call14 = call noundef ptr @_ZNKSt10unique_ptrIN4cvc58internal18StatisticBaseValueESt14default_deleteIS2_EEptEv(ptr noundef nonnull align 8 dereferenceable(8) %second13) #3
  %vtable = load ptr, ptr %call14, align 8
  %vfn = getelementptr inbounds ptr, ptr %vtable, i64 2
  %9 = load ptr, ptr %vfn, align 8
  %call15 = call noundef zeroext i1 %9(ptr noundef nonnull align 8 dereferenceable(9) %call14)
  br i1 %call15, label %if.then16, label %if.end17

if.then16:                                        ; preds = %land.lhs.true12
  br label %for.inc

if.end17:                                         ; preds = %land.lhs.true12, %if.end
  %10 = load ptr, ptr %os.addr, align 8
  %11 = load ptr, ptr %s, align 8
  %first = getelementptr inbounds %"struct.std::pair", ptr %11, i32 0, i32 0
  %call18 = call noundef nonnull align 8 dereferenceable(8) ptr @_ZStlsIcSt11char_traitsIcESaIcEERSt13basic_ostreamIT_T0_ES7_RKNSt7__cxx1112basic_stringIS4_S5_T1_EE(ptr noundef nonnull align 8 dereferenceable(8) %10, ptr noundef nonnull align 8 dereferenceable(32) %first)
  %call19 = call noundef nonnull align 8 dereferenceable(8) ptr @_ZStlsISt11char_traitsIcEERSt13basic_ostreamIcT_ES5_PKc(ptr noundef nonnull align 8 dereferenceable(8) %call18, ptr noundef @.str)
  %12 = load ptr, ptr %s, align 8
  %second20 = getelementptr inbounds %"struct.std::pair", ptr %12, i32 0, i32 1
  %call21 = call noundef nonnull align 8 dereferenceable(9) ptr @_ZNKSt10unique_ptrIN4cvc58internal18StatisticBaseValueESt14default_deleteIS2_EEdeEv(ptr noundef nonnull align 8 dereferenceable(8) %second20) #3
  %call22 = call noundef nonnull align 8 dereferenceable(8) ptr @_ZN4cvc58internallsERSoRKNS0_18StatisticBaseValueE(ptr noundef nonnull align 8 dereferenceable(8) %call19, ptr noundef nonnull align 8 dereferenceable(9) %call21)
  %call23 = call noundef nonnull align 8 dereferenceable(8) ptr @_ZNSolsEPFRSoS_E(ptr noundef nonnull align 8 dereferenceable(8) %call22, ptr noundef @_ZSt4endlIcSt11char_traitsIcEERSt13basic_ostreamIT_T0_ES6_)
  br label %for.inc

for.inc:                                          ; preds = %if.end17, %if.then16, %if.then
  %call24 = call noundef nonnull align 8 dereferenceable(8) ptr @_ZNSt23_Rb_tree_const_iteratorISt4pairIKNSt7__cxx1112basic_stringIcSt11char_traitsIcESaIcEEESt10unique_ptrIN4cvc58internal18StatisticBaseValueESt14default_deleteISB_EEEEppEv(ptr noundef nonnull align 8 dereferenceable(8) %__begin3) #3
  br label %for.cond

for.end:                                          ; preds = %for.cond
  ret void
}

; Function Attrs: mustprogress nounwind uwtable
define linkonce_odr hidden ptr @_ZNKSt3mapINSt7__cxx1112basic_stringIcSt11char_traitsIcESaIcEEESt10unique_ptrIN4cvc58internal18StatisticBaseValueESt14default_deleteIS9_EESt4lessIS5_ESaISt4pairIKS5_SC_EEE5beginEv(ptr noundef nonnull align 8 dereferenceable(48) %this) #5 comdat align 2 {
entry:
  %retval = alloca %"struct.std::_Rb_tree_const_iterator", align 8
  %this.addr = alloca ptr, align 8
  store ptr %this, ptr %this.addr, align 8
  %this1 = load ptr, ptr %this.addr, align 8
  %_M_t = getelementptr inbounds %"class.std::map", ptr %this1, i32 0, i32 0
  %call = call ptr @_ZNKSt8_Rb_treeINSt7__cxx1112basic_stringIcSt11char_traitsIcESaIcEEESt4pairIKS5_St10unique_ptrIN4cvc58internal18StatisticBaseValueESt14default_deleteISB_EEESt10_Select1stISF_ESt4lessIS5_ESaISF_EE5beginEv(ptr noundef nonnull align 8 dereferenceable(48) %_M_t) #3
  %coerce.dive = getelementptr inbounds %"struct.std::_Rb_tree_const_iterator", ptr %retval, i32 0, i32 0
  store ptr %call, ptr %coerce.dive, align 8
  %coerce.dive2 = getelementptr inbounds %"struct.std::_Rb_tree_const_iterator", ptr %retval, i32 0, i32 0
  %0 = load ptr, ptr %coerce.dive2, align 8
  ret ptr %0
}

; Function Attrs: mustprogress nounwind uwtable
define linkonce_odr noundef zeroext i1 @_ZStneRKSt23_Rb_tree_const_iteratorISt4pairIKNSt7__cxx1112basic_stringIcSt11char_traitsIcESaIcEEESt10unique_ptrIN4cvc58internal18StatisticBaseValueESt14default_deleteISB_EEEESI_(ptr noundef nonnull align 8 dereferenceable(8) %__x, ptr noundef nonnull align 8 dereferenceable(8) %__y) #5 comdat {
entry:
  %__x.addr = alloca ptr, align 8
  %__y.addr = alloca ptr, align 8
  store ptr %__x, ptr %__x.addr, align 8
  store ptr %__y, ptr %__y.addr, align 8
  %0 = load ptr, ptr %__x.addr, align 8
  %_M_node = getelementptr inbounds %"struct.std::_Rb_tree_const_iterator", ptr %0, i32 0, i32 0
  %1 = load ptr, ptr %_M_node, align 8
  %2 = load ptr, ptr %__y.addr, align 8
  %_M_node1 = getelementptr inbounds %"struct.std::_Rb_tree_const_iterator", ptr %2, i32 0, i32 0
  %3 = load ptr, ptr %_M_node1, align 8
  %cmp = icmp ne ptr %1, %3
  ret i1 %cmp
}

; Function Attrs: mustprogress nounwind uwtable
define linkonce_odr hidden noundef nonnull align 8 dereferenceable(40) ptr @_ZNKSt23_Rb_tree_const_iteratorISt4pairIKNSt7__cxx1112basic_stringIcSt11char_traitsIcESaIcEEESt10unique_ptrIN4cvc58internal18StatisticBaseValueESt14default_deleteISB_EEEEdeEv(ptr noundef nonnull align 8 dereferenceable(8) %this) #5 comdat align 2 {
entry:
  %this.addr = alloca ptr, align 8
  store ptr %this, ptr %this.addr, align 8
  %this1 = load ptr, ptr %this.addr, align 8
  %_M_node = getelementptr inbounds %"struct.std::_Rb_tree_const_iterator", ptr %this1, i32 0, i32 0
  %0 = load ptr, ptr %_M_node, align 8
  %call = call noundef ptr @_ZNKSt13_Rb_tree_nodeISt4pairIKNSt7__cxx1112basic_stringIcSt11char_traitsIcESaIcEEESt10unique_ptrIN4cvc58internal18StatisticBaseValueESt14default_deleteISB_EEEE9_M_valptrEv(ptr noundef nonnull align 8 dereferenceable(72) %0)
  ret ptr %call
}

declare noundef nonnull align 8 dereferenceable(8) ptr @_ZN4cvc58internallsERSoRKNS0_18StatisticBaseValueE(ptr noundef nonnull align 8 dereferenceable(8), ptr noundef nonnull align 8 dereferenceable(9)) #1

declare noundef nonnull align 8 dereferenceable(8) ptr @_ZStlsISt11char_traitsIcEERSt13basic_ostreamIcT_ES5_PKc(ptr noundef nonnull align 8 dereferenceable(8), ptr noundef) #1

declare noundef nonnull align 8 dereferenceable(8) ptr @_ZStlsIcSt11char_traitsIcESaIcEERSt13basic_ostreamIT_T0_ES7_RKNSt7__cxx1112basic_stringIS4_S5_T1_EE(ptr noundef nonnull align 8 dereferenceable(8), ptr noundef nonnull align 8 dereferenceable(32)) #1

; Function Attrs: mustprogress nounwind uwtable
define linkonce_odr hidden noundef nonnull align 8 dereferenceable(9) ptr @_ZNKSt10unique_ptrIN4cvc58internal18StatisticBaseValueESt14default_deleteIS2_EEdeEv(ptr noundef nonnull align 8 dereferenceable(8) %this) #5 comdat align 2 {
entry:
  %this.addr = alloca ptr, align 8
  store ptr %this, ptr %this.addr, align 8
  %this1 = load ptr, ptr %this.addr, align 8
  br label %do.body

do.body:                                          ; preds = %entry
  br label %do.cond

do.cond:                                          ; preds = %do.body
  br label %do.end

do.end:                                           ; preds = %do.cond
  %call = call noundef ptr @_ZNKSt10unique_ptrIN4cvc58internal18StatisticBaseValueESt14default_deleteIS2_EE3getEv(ptr noundef nonnull align 8 dereferenceable(8) %this1) #3
  ret ptr %call
}

declare noundef nonnull align 8 dereferenceable(8) ptr @_ZNSolsEPFRSoS_E(ptr noundef nonnull align 8 dereferenceable(8), ptr noundef) #1

declare noundef nonnull align 8 dereferenceable(8) ptr @_ZSt4endlIcSt11char_traitsIcEERSt13basic_ostreamIT_T0_ES6_(ptr noundef nonnull align 8 dereferenceable(8)) #1

; Function Attrs: mustprogress nounwind uwtable
define linkonce_odr hidden noundef nonnull align 8 dereferenceable(8) ptr @_ZNSt23_Rb_tree_const_iteratorISt4pairIKNSt7__cxx1112basic_stringIcSt11char_traitsIcESaIcEEESt10unique_ptrIN4cvc58internal18StatisticBaseValueESt14default_deleteISB_EEEEppEv(ptr noundef nonnull align 8 dereferenceable(8) %this) #5 comdat align 2 {
entry:
  %this.addr = alloca ptr, align 8
  store ptr %this, ptr %this.addr, align 8
  %this1 = load ptr, ptr %this.addr, align 8
  %_M_node = getelementptr inbounds %"struct.std::_Rb_tree_const_iterator", ptr %this1, i32 0, i32 0
  %0 = load ptr, ptr %_M_node, align 8
  %call = call noundef ptr @_ZSt18_Rb_tree_incrementPKSt18_Rb_tree_node_base(ptr noundef %0) #15
  %_M_node2 = getelementptr inbounds %"struct.std::_Rb_tree_const_iterator", ptr %this1, i32 0, i32 0
  store ptr %call, ptr %_M_node2, align 8
  ret ptr %this1
}

; Function Attrs: mustprogress uwtable
define hidden void @_ZNK4cvc58internal18StatisticsRegistry9printSafeEi(ptr noundef nonnull align 8 dereferenceable(72) %this, i32 noundef %fd) #4 align 2 {
entry:
  %this.addr = alloca ptr, align 8
  %fd.addr = alloca i32, align 4
  %__range3 = alloca ptr, align 8
  %__begin3 = alloca %"struct.std::_Rb_tree_const_iterator", align 8
  %__end3 = alloca %"struct.std::_Rb_tree_const_iterator", align 8
  %s = alloca ptr, align 8
  store ptr %this, ptr %this.addr, align 8
  store i32 %fd, ptr %fd.addr, align 4
  %this1 = load ptr, ptr %this.addr, align 8
  %d_stats = getelementptr inbounds %"class.cvc5::internal::StatisticsRegistry", ptr %this1, i32 0, i32 1
  store ptr %d_stats, ptr %__range3, align 8
  %0 = load ptr, ptr %__range3, align 8
  %call = call ptr @_ZNKSt3mapINSt7__cxx1112basic_stringIcSt11char_traitsIcESaIcEEESt10unique_ptrIN4cvc58internal18StatisticBaseValueESt14default_deleteIS9_EESt4lessIS5_ESaISt4pairIKS5_SC_EEE5beginEv(ptr noundef nonnull align 8 dereferenceable(48) %0) #3
  %coerce.dive = getelementptr inbounds %"struct.std::_Rb_tree_const_iterator", ptr %__begin3, i32 0, i32 0
  store ptr %call, ptr %coerce.dive, align 8
  %1 = load ptr, ptr %__range3, align 8
  %call2 = call ptr @_ZNKSt3mapINSt7__cxx1112basic_stringIcSt11char_traitsIcESaIcEEESt10unique_ptrIN4cvc58internal18StatisticBaseValueESt14default_deleteIS9_EESt4lessIS5_ESaISt4pairIKS5_SC_EEE3endEv(ptr noundef nonnull align 8 dereferenceable(48) %1) #3
  %coerce.dive3 = getelementptr inbounds %"struct.std::_Rb_tree_const_iterator", ptr %__end3, i32 0, i32 0
  store ptr %call2, ptr %coerce.dive3, align 8
  br label %for.cond

for.cond:                                         ; preds = %for.inc, %entry
  %call4 = call noundef zeroext i1 @_ZStneRKSt23_Rb_tree_const_iteratorISt4pairIKNSt7__cxx1112basic_stringIcSt11char_traitsIcESaIcEEESt10unique_ptrIN4cvc58internal18StatisticBaseValueESt14default_deleteISB_EEEESI_(ptr noundef nonnull align 8 dereferenceable(8) %__begin3, ptr noundef nonnull align 8 dereferenceable(8) %__end3) #3
  br i1 %call4, label %for.body, label %for.end

for.body:                                         ; preds = %for.cond
  %call5 = call noundef nonnull align 8 dereferenceable(40) ptr @_ZNKSt23_Rb_tree_const_iteratorISt4pairIKNSt7__cxx1112basic_stringIcSt11char_traitsIcESaIcEEESt10unique_ptrIN4cvc58internal18StatisticBaseValueESt14default_deleteISB_EEEEdeEv(ptr noundef nonnull align 8 dereferenceable(8) %__begin3) #3
  store ptr %call5, ptr %s, align 8
  %call6 = call noundef nonnull align 8 dereferenceable(392) ptr @_ZNK4cvc58internal6EnvObj7optionsEv(ptr noundef nonnull align 8 dereferenceable(16) %this1)
  %base = getelementptr inbounds %"class.cvc5::internal::Options", ptr %call6, i32 0, i32 26
  %2 = load ptr, ptr %base, align 8
  %statisticsInternal = getelementptr inbounds %"struct.cvc5::internal::options::HolderBASE", ptr %2, i32 0, i32 31
  %3 = load i8, ptr %statisticsInternal, align 1
  %tobool = trunc i8 %3 to i1
  br i1 %tobool, label %if.end, label %land.lhs.true

land.lhs.true:                                    ; preds = %for.body
  %4 = load ptr, ptr %s, align 8
  %second = getelementptr inbounds %"struct.std::pair", ptr %4, i32 0, i32 1
  %call7 = call noundef ptr @_ZNKSt10unique_ptrIN4cvc58internal18StatisticBaseValueESt14default_deleteIS2_EEptEv(ptr noundef nonnull align 8 dereferenceable(8) %second) #3
  %d_internal = getelementptr inbounds %"struct.cvc5::internal::StatisticBaseValue", ptr %call7, i32 0, i32 1
  %5 = load i8, ptr %d_internal, align 8
  %tobool8 = trunc i8 %5 to i1
  br i1 %tobool8, label %if.then, label %if.end

if.then:                                          ; preds = %land.lhs.true
  br label %for.inc

if.end:                                           ; preds = %land.lhs.true, %for.body
  %call9 = call noundef nonnull align 8 dereferenceable(392) ptr @_ZNK4cvc58internal6EnvObj7optionsEv(ptr noundef nonnull align 8 dereferenceable(16) %this1)
  %base10 = getelementptr inbounds %"class.cvc5::internal::Options", ptr %call9, i32 0, i32 26
  %6 = load ptr, ptr %base10, align 8
  %statisticsAll = getelementptr inbounds %"struct.cvc5::internal::options::HolderBASE", ptr %6, i32 0, i32 27
  %7 = load i8, ptr %statisticsAll, align 1
  %tobool11 = trunc i8 %7 to i1
  br i1 %tobool11, label %if.end17, label %land.lhs.true12

land.lhs.true12:                                  ; preds = %if.end
  %8 = load ptr, ptr %s, align 8
  %second13 = getelementptr inbounds %"struct.std::pair", ptr %8, i32 0, i32 1
  %call14 = call noundef ptr @_ZNKSt10unique_ptrIN4cvc58internal18StatisticBaseValueESt14default_deleteIS2_EEptEv(ptr noundef nonnull align 8 dereferenceable(8) %second13) #3
  %vtable = load ptr, ptr %call14, align 8
  %vfn = getelementptr inbounds ptr, ptr %vtable, i64 2
  %9 = load ptr, ptr %vfn, align 8
  %call15 = call noundef zeroext i1 %9(ptr noundef nonnull align 8 dereferenceable(9) %call14)
  br i1 %call15, label %if.then16, label %if.end17

if.then16:                                        ; preds = %land.lhs.true12
  br label %for.inc

if.end17:                                         ; preds = %land.lhs.true12, %if.end
  %10 = load i32, ptr %fd.addr, align 4
  %11 = load ptr, ptr %s, align 8
  %first = getelementptr inbounds %"struct.std::pair", ptr %11, i32 0, i32 0
  call void @_ZN4cvc58internal10safe_printINSt7__cxx1112basic_stringIcSt11char_traitsIcESaIcEEEEEviRKT_(i32 noundef %10, ptr noundef nonnull align 8 dereferenceable(32) %first)
  %12 = load i32, ptr %fd.addr, align 4
  call void @_ZN4cvc58internal10safe_printILm4EEEviRAT__Kc(i32 noundef %12, ptr noundef nonnull align 1 dereferenceable(4) @.str)
  %13 = load ptr, ptr %s, align 8
  %second18 = getelementptr inbounds %"struct.std::pair", ptr %13, i32 0, i32 1
  %call19 = call noundef ptr @_ZNKSt10unique_ptrIN4cvc58internal18StatisticBaseValueESt14default_deleteIS2_EEptEv(ptr noundef nonnull align 8 dereferenceable(8) %second18) #3
  %14 = load i32, ptr %fd.addr, align 4
  %vtable20 = load ptr, ptr %call19, align 8
  %vfn21 = getelementptr inbounds ptr, ptr %vtable20, i64 4
  %15 = load ptr, ptr %vfn21, align 8
  call void %15(ptr noundef nonnull align 8 dereferenceable(9) %call19, i32 noundef %14)
  %16 = load i32, ptr %fd.addr, align 4
  call void @_ZN4cvc58internal10safe_printILm2EEEviRAT__Kc(i32 noundef %16, ptr noundef nonnull align 1 dereferenceable(2) @.str.1)
  br label %for.inc

for.inc:                                          ; preds = %if.end17, %if.then16, %if.then
  %call22 = call noundef nonnull align 8 dereferenceable(8) ptr @_ZNSt23_Rb_tree_const_iteratorISt4pairIKNSt7__cxx1112basic_stringIcSt11char_traitsIcESaIcEEESt10unique_ptrIN4cvc58internal18StatisticBaseValueESt14default_deleteISB_EEEEppEv(ptr noundef nonnull align 8 dereferenceable(8) %__begin3) #3
  br label %for.cond

for.end:                                          ; preds = %for.cond
  ret void
}

declare void @_ZN4cvc58internal10safe_printINSt7__cxx1112basic_stringIcSt11char_traitsIcESaIcEEEEEviRKT_(i32 noundef, ptr noundef nonnull align 8 dereferenceable(32)) #1

; Function Attrs: mustprogress uwtable
define linkonce_odr void @_ZN4cvc58internal10safe_printILm4EEEviRAT__Kc(i32 noundef %fd, ptr noundef nonnull align 1 dereferenceable(4) %msg) #4 comdat {
entry:
  %fd.addr = alloca i32, align 4
  %msg.addr = alloca ptr, align 8
  %nb = alloca i64, align 8
  store i32 %fd, ptr %fd.addr, align 4
  store ptr %msg, ptr %msg.addr, align 8
  store i64 3, ptr %nb, align 8
  %0 = load i32, ptr %fd.addr, align 4
  %1 = load ptr, ptr %msg.addr, align 8
  %arraydecay = getelementptr inbounds [4 x i8], ptr %1, i64 0, i64 0
  %2 = load i64, ptr %nb, align 8
  %call = call i64 @write(i32 noundef %0, ptr noundef %arraydecay, i64 noundef %2)
  %3 = load i64, ptr %nb, align 8
  %cmp = icmp ne i64 %call, %3
  br i1 %cmp, label %if.then, label %if.end

if.then:                                          ; preds = %entry
  call void @abort() #16
  unreachable

if.end:                                           ; preds = %entry
  ret void
}

; Function Attrs: mustprogress uwtable
define linkonce_odr void @_ZN4cvc58internal10safe_printILm2EEEviRAT__Kc(i32 noundef %fd, ptr noundef nonnull align 1 dereferenceable(2) %msg) #4 comdat {
entry:
  %fd.addr = alloca i32, align 4
  %msg.addr = alloca ptr, align 8
  %nb = alloca i64, align 8
  store i32 %fd, ptr %fd.addr, align 4
  store ptr %msg, ptr %msg.addr, align 8
  store i64 1, ptr %nb, align 8
  %0 = load i32, ptr %fd.addr, align 4
  %1 = load ptr, ptr %msg.addr, align 8
  %arraydecay = getelementptr inbounds [2 x i8], ptr %1, i64 0, i64 0
  %2 = load i64, ptr %nb, align 8
  %call = call i64 @write(i32 noundef %0, ptr noundef %arraydecay, i64 noundef %2)
  %3 = load i64, ptr %nb, align 8
  %cmp = icmp ne i64 %call, %3
  br i1 %cmp, label %if.then, label %if.end

if.then:                                          ; preds = %entry
  call void @abort() #16
  unreachable

if.end:                                           ; preds = %entry
  ret void
}

; Function Attrs: mustprogress uwtable
define hidden void @_ZNK4cvc58internal18StatisticsRegistry9printDiffERSo(ptr noundef nonnull align 8 dereferenceable(72) %this, ptr noundef nonnull align 8 dereferenceable(8) %os) #4 align 2 personality ptr @__gxx_personality_v0 {
entry:
  %this.addr = alloca ptr, align 8
  %os.addr = alloca ptr, align 8
  %__range3 = alloca ptr, align 8
  %__begin3 = alloca %"struct.std::_Rb_tree_const_iterator", align 8
  %__end3 = alloca %"struct.std::_Rb_tree_const_iterator", align 8
  %s = alloca ptr, align 8
  %oldit = alloca %"struct.std::_Rb_tree_iterator.227", align 8
  %ref.tmp = alloca %"struct.std::_Rb_tree_iterator.227", align 8
  %ref.tmp31 = alloca %"class.std::variant", align 8
  %cleanup.cond = alloca i1, align 1
  %exn.slot = alloca ptr, align 8
  %ehselector.slot = alloca i32, align 4
  %oldit54 = alloca %"struct.std::_Rb_tree_iterator.227", align 8
  %ref.tmp60 = alloca %"struct.std::_Rb_tree_iterator.227", align 8
  %ref.tmp78 = alloca %"class.std::variant", align 8
  store ptr %this, ptr %this.addr, align 8
  store ptr %os, ptr %os.addr, align 8
  %this1 = load ptr, ptr %this.addr, align 8
  %d_lastSnapshot = getelementptr inbounds %"class.cvc5::internal::StatisticsRegistry", ptr %this1, i32 0, i32 2
  %call = call noundef zeroext i1 @_ZNKSt10unique_ptrISt3mapINSt7__cxx1112basic_stringIcSt11char_traitsIcESaIcEEESt7variantIJldS6_S0_IS6_mSt4lessIS6_ESaISt4pairIKS6_mEEEEES9_SaISA_ISB_SF_EEESt14default_deleteISI_EEcvbEv(ptr noundef nonnull align 8 dereferenceable(8) %d_lastSnapshot) #3
  br i1 %call, label %if.end, label %if.then

if.then:                                          ; preds = %entry
  %0 = load ptr, ptr %os.addr, align 8
  call void @_ZNK4cvc58internal18StatisticsRegistry5printERSo(ptr noundef nonnull align 8 dereferenceable(72) %this1, ptr noundef nonnull align 8 dereferenceable(8) %0)
  br label %for.end

if.end:                                           ; preds = %entry
  %d_stats = getelementptr inbounds %"class.cvc5::internal::StatisticsRegistry", ptr %this1, i32 0, i32 1
  store ptr %d_stats, ptr %__range3, align 8
  %1 = load ptr, ptr %__range3, align 8
  %call2 = call ptr @_ZNKSt3mapINSt7__cxx1112basic_stringIcSt11char_traitsIcESaIcEEESt10unique_ptrIN4cvc58internal18StatisticBaseValueESt14default_deleteIS9_EESt4lessIS5_ESaISt4pairIKS5_SC_EEE5beginEv(ptr noundef nonnull align 8 dereferenceable(48) %1) #3
  %coerce.dive = getelementptr inbounds %"struct.std::_Rb_tree_const_iterator", ptr %__begin3, i32 0, i32 0
  store ptr %call2, ptr %coerce.dive, align 8
  %2 = load ptr, ptr %__range3, align 8
  %call3 = call ptr @_ZNKSt3mapINSt7__cxx1112basic_stringIcSt11char_traitsIcESaIcEEESt10unique_ptrIN4cvc58internal18StatisticBaseValueESt14default_deleteIS9_EESt4lessIS5_ESaISt4pairIKS5_SC_EEE3endEv(ptr noundef nonnull align 8 dereferenceable(48) %2) #3
  %coerce.dive4 = getelementptr inbounds %"struct.std::_Rb_tree_const_iterator", ptr %__end3, i32 0, i32 0
  store ptr %call3, ptr %coerce.dive4, align 8
  br label %for.cond

for.cond:                                         ; preds = %for.inc, %if.end
  %call5 = call noundef zeroext i1 @_ZStneRKSt23_Rb_tree_const_iteratorISt4pairIKNSt7__cxx1112basic_stringIcSt11char_traitsIcESaIcEEESt10unique_ptrIN4cvc58internal18StatisticBaseValueESt14default_deleteISB_EEEESI_(ptr noundef nonnull align 8 dereferenceable(8) %__begin3, ptr noundef nonnull align 8 dereferenceable(8) %__end3) #3
  br i1 %call5, label %for.body, label %for.end

for.body:                                         ; preds = %for.cond
  %call6 = call noundef nonnull align 8 dereferenceable(40) ptr @_ZNKSt23_Rb_tree_const_iteratorISt4pairIKNSt7__cxx1112basic_stringIcSt11char_traitsIcESaIcEEESt10unique_ptrIN4cvc58internal18StatisticBaseValueESt14default_deleteISB_EEEEdeEv(ptr noundef nonnull align 8 dereferenceable(8) %__begin3) #3
  store ptr %call6, ptr %s, align 8
  %call7 = call noundef nonnull align 8 dereferenceable(392) ptr @_ZNK4cvc58internal6EnvObj7optionsEv(ptr noundef nonnull align 8 dereferenceable(16) %this1)
  %base = getelementptr inbounds %"class.cvc5::internal::Options", ptr %call7, i32 0, i32 26
  %3 = load ptr, ptr %base, align 8
  %statisticsInternal = getelementptr inbounds %"struct.cvc5::internal::options::HolderBASE", ptr %3, i32 0, i32 31
  %4 = load i8, ptr %statisticsInternal, align 1
  %tobool = trunc i8 %4 to i1
  br i1 %tobool, label %if.end11, label %land.lhs.true

land.lhs.true:                                    ; preds = %for.body
  %5 = load ptr, ptr %s, align 8
  %second = getelementptr inbounds %"struct.std::pair", ptr %5, i32 0, i32 1
  %call8 = call noundef ptr @_ZNKSt10unique_ptrIN4cvc58internal18StatisticBaseValueESt14default_deleteIS2_EEptEv(ptr noundef nonnull align 8 dereferenceable(8) %second) #3
  %d_internal = getelementptr inbounds %"struct.cvc5::internal::StatisticBaseValue", ptr %call8, i32 0, i32 1
  %6 = load i8, ptr %d_internal, align 8
  %tobool9 = trunc i8 %6 to i1
  br i1 %tobool9, label %if.then10, label %if.end11

if.then10:                                        ; preds = %land.lhs.true
  br label %for.inc

if.end11:                                         ; preds = %land.lhs.true, %for.body
  %call12 = call noundef nonnull align 8 dereferenceable(392) ptr @_ZNK4cvc58internal6EnvObj7optionsEv(ptr noundef nonnull align 8 dereferenceable(16) %this1)
  %base13 = getelementptr inbounds %"class.cvc5::internal::Options", ptr %call12, i32 0, i32 26
  %7 = load ptr, ptr %base13, align 8
  %statisticsAll = getelementptr inbounds %"struct.cvc5::internal::options::HolderBASE", ptr %7, i32 0, i32 27
  %8 = load i8, ptr %statisticsAll, align 1
  %tobool14 = trunc i8 %8 to i1
  br i1 %tobool14, label %if.else, label %land.lhs.true15

land.lhs.true15:                                  ; preds = %if.end11
  %9 = load ptr, ptr %s, align 8
  %second16 = getelementptr inbounds %"struct.std::pair", ptr %9, i32 0, i32 1
  %call17 = call noundef ptr @_ZNKSt10unique_ptrIN4cvc58internal18StatisticBaseValueESt14default_deleteIS2_EEptEv(ptr noundef nonnull align 8 dereferenceable(8) %second16) #3
  %vtable = load ptr, ptr %call17, align 8
  %vfn = getelementptr inbounds ptr, ptr %vtable, i64 2
  %10 = load ptr, ptr %vfn, align 8
  %call18 = call noundef zeroext i1 %10(ptr noundef nonnull align 8 dereferenceable(9) %call17)
  br i1 %call18, label %if.then19, label %if.else

if.then19:                                        ; preds = %land.lhs.true15
  %d_lastSnapshot20 = getelementptr inbounds %"class.cvc5::internal::StatisticsRegistry", ptr %this1, i32 0, i32 2
  %call21 = call noundef ptr @_ZNKSt10unique_ptrISt3mapINSt7__cxx1112basic_stringIcSt11char_traitsIcESaIcEEESt7variantIJldS6_S0_IS6_mSt4lessIS6_ESaISt4pairIKS6_mEEEEES9_SaISA_ISB_SF_EEESt14default_deleteISI_EEptEv(ptr noundef nonnull align 8 dereferenceable(8) %d_lastSnapshot20) #3
  %11 = load ptr, ptr %s, align 8
  %first = getelementptr inbounds %"struct.std::pair", ptr %11, i32 0, i32 0
  %call22 = call ptr @_ZNSt3mapINSt7__cxx1112basic_stringIcSt11char_traitsIcESaIcEEESt7variantIJldS5_S_IS5_mSt4lessIS5_ESaISt4pairIKS5_mEEEEES8_SaIS9_ISA_SE_EEE4findERSA_(ptr noundef nonnull align 8 dereferenceable(48) %call21, ptr noundef nonnull align 8 dereferenceable(32) %first)
  %coerce.dive23 = getelementptr inbounds %"struct.std::_Rb_tree_iterator.227", ptr %oldit, i32 0, i32 0
  store ptr %call22, ptr %coerce.dive23, align 8
  %d_lastSnapshot24 = getelementptr inbounds %"class.cvc5::internal::StatisticsRegistry", ptr %this1, i32 0, i32 2
  %call25 = call noundef ptr @_ZNKSt10unique_ptrISt3mapINSt7__cxx1112basic_stringIcSt11char_traitsIcESaIcEEESt7variantIJldS6_S0_IS6_mSt4lessIS6_ESaISt4pairIKS6_mEEEEES9_SaISA_ISB_SF_EEESt14default_deleteISI_EEptEv(ptr noundef nonnull align 8 dereferenceable(8) %d_lastSnapshot24) #3
  %call26 = call ptr @_ZNSt3mapINSt7__cxx1112basic_stringIcSt11char_traitsIcESaIcEEESt7variantIJldS5_S_IS5_mSt4lessIS5_ESaISt4pairIKS5_mEEEEES8_SaIS9_ISA_SE_EEE3endEv(ptr noundef nonnull align 8 dereferenceable(48) %call25) #3
  %coerce.dive27 = getelementptr inbounds %"struct.std::_Rb_tree_iterator.227", ptr %ref.tmp, i32 0, i32 0
  store ptr %call26, ptr %coerce.dive27, align 8
  %call28 = call noundef zeroext i1 @_ZStneRKSt17_Rb_tree_iteratorISt4pairIKNSt7__cxx1112basic_stringIcSt11char_traitsIcESaIcEEESt7variantIJldS6_St3mapIS6_mSt4lessIS6_ESaIS0_IS7_mEEEEEEESJ_(ptr noundef nonnull align 8 dereferenceable(8) %oldit, ptr noundef nonnull align 8 dereferenceable(8) %ref.tmp) #3
  store i1 false, ptr %cleanup.cond, align 1
  br i1 %call28, label %land.rhs, label %land.end

land.rhs:                                         ; preds = %if.then19
  %call29 = call noundef ptr @_ZNKSt17_Rb_tree_iteratorISt4pairIKNSt7__cxx1112basic_stringIcSt11char_traitsIcESaIcEEESt7variantIJldS6_St3mapIS6_mSt4lessIS6_ESaIS0_IS7_mEEEEEEEptEv(ptr noundef nonnull align 8 dereferenceable(8) %oldit) #3
  %second30 = getelementptr inbounds %"struct.std::pair.236", ptr %call29, i32 0, i32 1
  %12 = load ptr, ptr %s, align 8
  %second32 = getelementptr inbounds %"struct.std::pair", ptr %12, i32 0, i32 1
  %call33 = call noundef ptr @_ZNKSt10unique_ptrIN4cvc58internal18StatisticBaseValueESt14default_deleteIS2_EEptEv(ptr noundef nonnull align 8 dereferenceable(8) %second32) #3
  %vtable34 = load ptr, ptr %call33, align 8
  %vfn35 = getelementptr inbounds ptr, ptr %vtable34, i64 3
  %13 = load ptr, ptr %vfn35, align 8
  call void %13(ptr sret(%"class.std::variant") align 8 %ref.tmp31, ptr noundef nonnull align 8 dereferenceable(9) %call33)
  store i1 true, ptr %cleanup.cond, align 1
  %call36 = invoke noundef zeroext i1 @_ZStneIJldNSt7__cxx1112basic_stringIcSt11char_traitsIcESaIcEEESt3mapIS5_mSt4lessIS5_ESaISt4pairIKS5_mEEEEEbRKSt7variantIJDpT_EESJ_(ptr noundef nonnull align 8 dereferenceable(49) %second30, ptr noundef nonnull align 8 dereferenceable(49) %ref.tmp31)
          to label %invoke.cont unwind label %lpad

invoke.cont:                                      ; preds = %land.rhs
  br label %land.end

land.end:                                         ; preds = %invoke.cont, %if.then19
  %14 = phi i1 [ false, %if.then19 ], [ %call36, %invoke.cont ]
  %cleanup.is_active = load i1, ptr %cleanup.cond, align 1
  br i1 %cleanup.is_active, label %cleanup.action, label %cleanup.done

cleanup.action:                                   ; preds = %land.end
  call void @_ZNSt7variantIJldNSt7__cxx1112basic_stringIcSt11char_traitsIcESaIcEEESt3mapIS5_mSt4lessIS5_ESaISt4pairIKS5_mEEEEED2Ev(ptr noundef nonnull align 8 dereferenceable(49) %ref.tmp31) #3
  br label %cleanup.done

cleanup.done:                                     ; preds = %cleanup.action, %land.end
  br i1 %14, label %if.then40, label %if.end53

if.then40:                                        ; preds = %cleanup.done
  %15 = load ptr, ptr %os.addr, align 8
  %16 = load ptr, ptr %s, align 8
  %first41 = getelementptr inbounds %"struct.std::pair", ptr %16, i32 0, i32 0
  %call42 = call noundef nonnull align 8 dereferenceable(8) ptr @_ZStlsIcSt11char_traitsIcESaIcEERSt13basic_ostreamIT_T0_ES7_RKNSt7__cxx1112basic_stringIS4_S5_T1_EE(ptr noundef nonnull align 8 dereferenceable(8) %15, ptr noundef nonnull align 8 dereferenceable(32) %first41)
  %call43 = call noundef nonnull align 8 dereferenceable(8) ptr @_ZStlsISt11char_traitsIcEERSt13basic_ostreamIcT_ES5_PKc(ptr noundef nonnull align 8 dereferenceable(8) %call42, ptr noundef @.str)
  %17 = load ptr, ptr %s, align 8
  %second44 = getelementptr inbounds %"struct.std::pair", ptr %17, i32 0, i32 1
  %call45 = call noundef nonnull align 8 dereferenceable(9) ptr @_ZNKSt10unique_ptrIN4cvc58internal18StatisticBaseValueESt14default_deleteIS2_EEdeEv(ptr noundef nonnull align 8 dereferenceable(8) %second44) #3
  %call46 = call noundef nonnull align 8 dereferenceable(8) ptr @_ZN4cvc58internallsERSoRKNS0_18StatisticBaseValueE(ptr noundef nonnull align 8 dereferenceable(8) %call43, ptr noundef nonnull align 8 dereferenceable(9) %call45)
  %call47 = call noundef nonnull align 8 dereferenceable(8) ptr @_ZStlsISt11char_traitsIcEERSt13basic_ostreamIcT_ES5_PKc(ptr noundef nonnull align 8 dereferenceable(8) %call46, ptr noundef @.str.2)
  %18 = load ptr, ptr %os.addr, align 8
  %call48 = call noundef ptr @_ZNKSt17_Rb_tree_iteratorISt4pairIKNSt7__cxx1112basic_stringIcSt11char_traitsIcESaIcEEESt7variantIJldS6_St3mapIS6_mSt4lessIS6_ESaIS0_IS7_mEEEEEEEptEv(ptr noundef nonnull align 8 dereferenceable(8) %oldit) #3
  %second49 = getelementptr inbounds %"struct.std::pair.236", ptr %call48, i32 0, i32 1
  %call50 = call noundef nonnull align 8 dereferenceable(8) ptr @_ZN4cvc58internal6detail5printERSoRKSt7variantIJldNSt7__cxx1112basic_stringIcSt11char_traitsIcESaIcEEESt3mapIS9_mSt4lessIS9_ESaISt4pairIKS9_mEEEEE(ptr noundef nonnull align 8 dereferenceable(8) %18, ptr noundef nonnull align 8 dereferenceable(49) %second49)
  %19 = load ptr, ptr %os.addr, align 8
  %call51 = call noundef nonnull align 8 dereferenceable(8) ptr @_ZStlsISt11char_traitsIcEERSt13basic_ostreamIcT_ES5_PKc(ptr noundef nonnull align 8 dereferenceable(8) %19, ptr noundef @.str.3)
  %call52 = call noundef nonnull align 8 dereferenceable(8) ptr @_ZNSolsEPFRSoS_E(ptr noundef nonnull align 8 dereferenceable(8) %call51, ptr noundef @_ZSt4endlIcSt11char_traitsIcEERSt13basic_ostreamIT_T0_ES6_)
  br label %if.end53

lpad:                                             ; preds = %land.rhs
  %20 = landingpad { ptr, i32 }
          cleanup
  %21 = extractvalue { ptr, i32 } %20, 0
  store ptr %21, ptr %exn.slot, align 8
  %22 = extractvalue { ptr, i32 } %20, 1
  store i32 %22, ptr %ehselector.slot, align 4
  %cleanup.is_active37 = load i1, ptr %cleanup.cond, align 1
  br i1 %cleanup.is_active37, label %cleanup.action38, label %cleanup.done39

cleanup.action38:                                 ; preds = %lpad
  call void @_ZNSt7variantIJldNSt7__cxx1112basic_stringIcSt11char_traitsIcESaIcEEESt3mapIS5_mSt4lessIS5_ESaISt4pairIKS5_mEEEEED2Ev(ptr noundef nonnull align 8 dereferenceable(49) %ref.tmp31) #3
  br label %cleanup.done39

cleanup.done39:                                   ; preds = %cleanup.action38, %lpad
  br label %eh.resume

if.end53:                                         ; preds = %if.then40, %cleanup.done
  br label %if.end101

if.else:                                          ; preds = %land.lhs.true15, %if.end11
  %d_lastSnapshot55 = getelementptr inbounds %"class.cvc5::internal::StatisticsRegistry", ptr %this1, i32 0, i32 2
  %call56 = call noundef ptr @_ZNKSt10unique_ptrISt3mapINSt7__cxx1112basic_stringIcSt11char_traitsIcESaIcEEESt7variantIJldS6_S0_IS6_mSt4lessIS6_ESaISt4pairIKS6_mEEEEES9_SaISA_ISB_SF_EEESt14default_deleteISI_EEptEv(ptr noundef nonnull align 8 dereferenceable(8) %d_lastSnapshot55) #3
  %23 = load ptr, ptr %s, align 8
  %first57 = getelementptr inbounds %"struct.std::pair", ptr %23, i32 0, i32 0
  %call58 = call ptr @_ZNSt3mapINSt7__cxx1112basic_stringIcSt11char_traitsIcESaIcEEESt7variantIJldS5_S_IS5_mSt4lessIS5_ESaISt4pairIKS5_mEEEEES8_SaIS9_ISA_SE_EEE4findERSA_(ptr noundef nonnull align 8 dereferenceable(48) %call56, ptr noundef nonnull align 8 dereferenceable(32) %first57)
  %coerce.dive59 = getelementptr inbounds %"struct.std::_Rb_tree_iterator.227", ptr %oldit54, i32 0, i32 0
  store ptr %call58, ptr %coerce.dive59, align 8
  %d_lastSnapshot61 = getelementptr inbounds %"class.cvc5::internal::StatisticsRegistry", ptr %this1, i32 0, i32 2
  %call62 = call noundef ptr @_ZNKSt10unique_ptrISt3mapINSt7__cxx1112basic_stringIcSt11char_traitsIcESaIcEEESt7variantIJldS6_S0_IS6_mSt4lessIS6_ESaISt4pairIKS6_mEEEEES9_SaISA_ISB_SF_EEESt14default_deleteISI_EEptEv(ptr noundef nonnull align 8 dereferenceable(8) %d_lastSnapshot61) #3
  %call63 = call ptr @_ZNSt3mapINSt7__cxx1112basic_stringIcSt11char_traitsIcESaIcEEESt7variantIJldS5_S_IS5_mSt4lessIS5_ESaISt4pairIKS5_mEEEEES8_SaIS9_ISA_SE_EEE3endEv(ptr noundef nonnull align 8 dereferenceable(48) %call62) #3
  %coerce.dive64 = getelementptr inbounds %"struct.std::_Rb_tree_iterator.227", ptr %ref.tmp60, i32 0, i32 0
  store ptr %call63, ptr %coerce.dive64, align 8
  %call65 = call noundef zeroext i1 @_ZSteqRKSt17_Rb_tree_iteratorISt4pairIKNSt7__cxx1112basic_stringIcSt11char_traitsIcESaIcEEESt7variantIJldS6_St3mapIS6_mSt4lessIS6_ESaIS0_IS7_mEEEEEEESJ_(ptr noundef nonnull align 8 dereferenceable(8) %oldit54, ptr noundef nonnull align 8 dereferenceable(8) %ref.tmp60) #3
  br i1 %call65, label %if.then66, label %if.else75

if.then66:                                        ; preds = %if.else
  %24 = load ptr, ptr %os.addr, align 8
  %25 = load ptr, ptr %s, align 8
  %first67 = getelementptr inbounds %"struct.std::pair", ptr %25, i32 0, i32 0
  %call68 = call noundef nonnull align 8 dereferenceable(8) ptr @_ZStlsIcSt11char_traitsIcESaIcEERSt13basic_ostreamIT_T0_ES7_RKNSt7__cxx1112basic_stringIS4_S5_T1_EE(ptr noundef nonnull align 8 dereferenceable(8) %24, ptr noundef nonnull align 8 dereferenceable(32) %first67)
  %call69 = call noundef nonnull align 8 dereferenceable(8) ptr @_ZStlsISt11char_traitsIcEERSt13basic_ostreamIcT_ES5_PKc(ptr noundef nonnull align 8 dereferenceable(8) %call68, ptr noundef @.str)
  %26 = load ptr, ptr %s, align 8
  %second70 = getelementptr inbounds %"struct.std::pair", ptr %26, i32 0, i32 1
  %call71 = call noundef nonnull align 8 dereferenceable(9) ptr @_ZNKSt10unique_ptrIN4cvc58internal18StatisticBaseValueESt14default_deleteIS2_EEdeEv(ptr noundef nonnull align 8 dereferenceable(8) %second70) #3
  %call72 = call noundef nonnull align 8 dereferenceable(8) ptr @_ZN4cvc58internallsERSoRKNS0_18StatisticBaseValueE(ptr noundef nonnull align 8 dereferenceable(8) %call69, ptr noundef nonnull align 8 dereferenceable(9) %call71)
  %call73 = call noundef nonnull align 8 dereferenceable(8) ptr @_ZStlsISt11char_traitsIcEERSt13basic_ostreamIcT_ES5_PKc(ptr noundef nonnull align 8 dereferenceable(8) %call72, ptr noundef @.str.4)
  %call74 = call noundef nonnull align 8 dereferenceable(8) ptr @_ZNSolsEPFRSoS_E(ptr noundef nonnull align 8 dereferenceable(8) %call73, ptr noundef @_ZSt4endlIcSt11char_traitsIcEERSt13basic_ostreamIT_T0_ES6_)
  br label %if.end100

if.else75:                                        ; preds = %if.else
  %call76 = call noundef ptr @_ZNKSt17_Rb_tree_iteratorISt4pairIKNSt7__cxx1112basic_stringIcSt11char_traitsIcESaIcEEESt7variantIJldS6_St3mapIS6_mSt4lessIS6_ESaIS0_IS7_mEEEEEEEptEv(ptr noundef nonnull align 8 dereferenceable(8) %oldit54) #3
  %second77 = getelementptr inbounds %"struct.std::pair.236", ptr %call76, i32 0, i32 1
  %27 = load ptr, ptr %s, align 8
  %second79 = getelementptr inbounds %"struct.std::pair", ptr %27, i32 0, i32 1
  %call80 = call noundef ptr @_ZNKSt10unique_ptrIN4cvc58internal18StatisticBaseValueESt14default_deleteIS2_EEptEv(ptr noundef nonnull align 8 dereferenceable(8) %second79) #3
  %vtable81 = load ptr, ptr %call80, align 8
  %vfn82 = getelementptr inbounds ptr, ptr %vtable81, i64 3
  %28 = load ptr, ptr %vfn82, align 8
  call void %28(ptr sret(%"class.std::variant") align 8 %ref.tmp78, ptr noundef nonnull align 8 dereferenceable(9) %call80)
  %call85 = invoke noundef zeroext i1 @_ZStneIJldNSt7__cxx1112basic_stringIcSt11char_traitsIcESaIcEEESt3mapIS5_mSt4lessIS5_ESaISt4pairIKS5_mEEEEEbRKSt7variantIJDpT_EESJ_(ptr noundef nonnull align 8 dereferenceable(49) %second77, ptr noundef nonnull align 8 dereferenceable(49) %ref.tmp78)
          to label %invoke.cont84 unwind label %lpad83

invoke.cont84:                                    ; preds = %if.else75
  call void @_ZNSt7variantIJldNSt7__cxx1112basic_stringIcSt11char_traitsIcESaIcEEESt3mapIS5_mSt4lessIS5_ESaISt4pairIKS5_mEEEEED2Ev(ptr noundef nonnull align 8 dereferenceable(49) %ref.tmp78) #3
  br i1 %call85, label %if.then86, label %if.end99

if.then86:                                        ; preds = %invoke.cont84
  %29 = load ptr, ptr %os.addr, align 8
  %30 = load ptr, ptr %s, align 8
  %first87 = getelementptr inbounds %"struct.std::pair", ptr %30, i32 0, i32 0
  %call88 = call noundef nonnull align 8 dereferenceable(8) ptr @_ZStlsIcSt11char_traitsIcESaIcEERSt13basic_ostreamIT_T0_ES7_RKNSt7__cxx1112basic_stringIS4_S5_T1_EE(ptr noundef nonnull align 8 dereferenceable(8) %29, ptr noundef nonnull align 8 dereferenceable(32) %first87)
  %call89 = call noundef nonnull align 8 dereferenceable(8) ptr @_ZStlsISt11char_traitsIcEERSt13basic_ostreamIcT_ES5_PKc(ptr noundef nonnull align 8 dereferenceable(8) %call88, ptr noundef @.str)
  %31 = load ptr, ptr %s, align 8
  %second90 = getelementptr inbounds %"struct.std::pair", ptr %31, i32 0, i32 1
  %call91 = call noundef nonnull align 8 dereferenceable(9) ptr @_ZNKSt10unique_ptrIN4cvc58internal18StatisticBaseValueESt14default_deleteIS2_EEdeEv(ptr noundef nonnull align 8 dereferenceable(8) %second90) #3
  %call92 = call noundef nonnull align 8 dereferenceable(8) ptr @_ZN4cvc58internallsERSoRKNS0_18StatisticBaseValueE(ptr noundef nonnull align 8 dereferenceable(8) %call89, ptr noundef nonnull align 8 dereferenceable(9) %call91)
  %call93 = call noundef nonnull align 8 dereferenceable(8) ptr @_ZStlsISt11char_traitsIcEERSt13basic_ostreamIcT_ES5_PKc(ptr noundef nonnull align 8 dereferenceable(8) %call92, ptr noundef @.str.2)
  %32 = load ptr, ptr %os.addr, align 8
  %call94 = call noundef ptr @_ZNKSt17_Rb_tree_iteratorISt4pairIKNSt7__cxx1112basic_stringIcSt11char_traitsIcESaIcEEESt7variantIJldS6_St3mapIS6_mSt4lessIS6_ESaIS0_IS7_mEEEEEEEptEv(ptr noundef nonnull align 8 dereferenceable(8) %oldit54) #3
  %second95 = getelementptr inbounds %"struct.std::pair.236", ptr %call94, i32 0, i32 1
  %call96 = call noundef nonnull align 8 dereferenceable(8) ptr @_ZN4cvc58internal6detail5printERSoRKSt7variantIJldNSt7__cxx1112basic_stringIcSt11char_traitsIcESaIcEEESt3mapIS9_mSt4lessIS9_ESaISt4pairIKS9_mEEEEE(ptr noundef nonnull align 8 dereferenceable(8) %32, ptr noundef nonnull align 8 dereferenceable(49) %second95)
  %33 = load ptr, ptr %os.addr, align 8
  %call97 = call noundef nonnull align 8 dereferenceable(8) ptr @_ZStlsISt11char_traitsIcEERSt13basic_ostreamIcT_ES5_PKc(ptr noundef nonnull align 8 dereferenceable(8) %33, ptr noundef @.str.3)
  %call98 = call noundef nonnull align 8 dereferenceable(8) ptr @_ZNSolsEPFRSoS_E(ptr noundef nonnull align 8 dereferenceable(8) %call97, ptr noundef @_ZSt4endlIcSt11char_traitsIcEERSt13basic_ostreamIT_T0_ES6_)
  br label %if.end99

lpad83:                                           ; preds = %if.else75
  %34 = landingpad { ptr, i32 }
          cleanup
  %35 = extractvalue { ptr, i32 } %34, 0
  store ptr %35, ptr %exn.slot, align 8
  %36 = extractvalue { ptr, i32 } %34, 1
  store i32 %36, ptr %ehselector.slot, align 4
  call void @_ZNSt7variantIJldNSt7__cxx1112basic_stringIcSt11char_traitsIcESaIcEEESt3mapIS5_mSt4lessIS5_ESaISt4pairIKS5_mEEEEED2Ev(ptr noundef nonnull align 8 dereferenceable(49) %ref.tmp78) #3
  br label %eh.resume

if.end99:                                         ; preds = %if.then86, %invoke.cont84
  br label %if.end100

if.end100:                                        ; preds = %if.end99, %if.then66
  br label %if.end101

if.end101:                                        ; preds = %if.end100, %if.end53
  br label %for.inc

for.inc:                                          ; preds = %if.end101, %if.then10
  %call102 = call noundef nonnull align 8 dereferenceable(8) ptr @_ZNSt23_Rb_tree_const_iteratorISt4pairIKNSt7__cxx1112basic_stringIcSt11char_traitsIcESaIcEEESt10unique_ptrIN4cvc58internal18StatisticBaseValueESt14default_deleteISB_EEEEppEv(ptr noundef nonnull align 8 dereferenceable(8) %__begin3) #3
  br label %for.cond

for.end:                                          ; preds = %for.cond, %if.then
  ret void

eh.resume:                                        ; preds = %lpad83, %cleanup.done39
  %exn = load ptr, ptr %exn.slot, align 8
  %sel = load i32, ptr %ehselector.slot, align 4
  %lpad.val = insertvalue { ptr, i32 } poison, ptr %exn, 0
  %lpad.val103 = insertvalue { ptr, i32 } %lpad.val, i32 %sel, 1
  resume { ptr, i32 } %lpad.val103
}

; Function Attrs: mustprogress nounwind uwtable
define linkonce_odr hidden noundef zeroext i1 @_ZNKSt10unique_ptrISt3mapINSt7__cxx1112basic_stringIcSt11char_traitsIcESaIcEEESt7variantIJldS6_S0_IS6_mSt4lessIS6_ESaISt4pairIKS6_mEEEEES9_SaISA_ISB_SF_EEESt14default_deleteISI_EEcvbEv(ptr noundef nonnull align 8 dereferenceable(8) %this) #5 comdat align 2 {
entry:
  %this.addr = alloca ptr, align 8
  store ptr %this, ptr %this.addr, align 8
  %this1 = load ptr, ptr %this.addr, align 8
  %call = call noundef ptr @_ZNKSt10unique_ptrISt3mapINSt7__cxx1112basic_stringIcSt11char_traitsIcESaIcEEESt7variantIJldS6_S0_IS6_mSt4lessIS6_ESaISt4pairIKS6_mEEEEES9_SaISA_ISB_SF_EEESt14default_deleteISI_EE3getEv(ptr noundef nonnull align 8 dereferenceable(8) %this1) #3
  %cmp = icmp eq ptr %call, null
  %cond = select i1 %cmp, i1 false, i1 true
  ret i1 %cond
}

; Function Attrs: mustprogress uwtable
define linkonce_odr hidden ptr @_ZNSt3mapINSt7__cxx1112basic_stringIcSt11char_traitsIcESaIcEEESt7variantIJldS5_S_IS5_mSt4lessIS5_ESaISt4pairIKS5_mEEEEES8_SaIS9_ISA_SE_EEE4findERSA_(ptr noundef nonnull align 8 dereferenceable(48) %this, ptr noundef nonnull align 8 dereferenceable(32) %__x) #4 comdat align 2 {
entry:
  %retval = alloca %"struct.std::_Rb_tree_iterator.227", align 8
  %this.addr = alloca ptr, align 8
  %__x.addr = alloca ptr, align 8
  store ptr %this, ptr %this.addr, align 8
  store ptr %__x, ptr %__x.addr, align 8
  %this1 = load ptr, ptr %this.addr, align 8
  %_M_t = getelementptr inbounds %"class.std::map.220", ptr %this1, i32 0, i32 0
  %0 = load ptr, ptr %__x.addr, align 8
  %call = call ptr @_ZNSt8_Rb_treeINSt7__cxx1112basic_stringIcSt11char_traitsIcESaIcEEESt4pairIKS5_St7variantIJldS5_St3mapIS5_mSt4lessIS5_ESaIS6_IS7_mEEEEEESt10_Select1stISG_ESB_SaISG_EE4findERS7_(ptr noundef nonnull align 8 dereferenceable(48) %_M_t, ptr noundef nonnull align 8 dereferenceable(32) %0)
  %coerce.dive = getelementptr inbounds %"struct.std::_Rb_tree_iterator.227", ptr %retval, i32 0, i32 0
  store ptr %call, ptr %coerce.dive, align 8
  %coerce.dive2 = getelementptr inbounds %"struct.std::_Rb_tree_iterator.227", ptr %retval, i32 0, i32 0
  %1 = load ptr, ptr %coerce.dive2, align 8
  ret ptr %1
}

; Function Attrs: mustprogress nounwind uwtable
define linkonce_odr noundef zeroext i1 @_ZStneRKSt17_Rb_tree_iteratorISt4pairIKNSt7__cxx1112basic_stringIcSt11char_traitsIcESaIcEEESt7variantIJldS6_St3mapIS6_mSt4lessIS6_ESaIS0_IS7_mEEEEEEESJ_(ptr noundef nonnull align 8 dereferenceable(8) %__x, ptr noundef nonnull align 8 dereferenceable(8) %__y) #5 comdat {
entry:
  %__x.addr = alloca ptr, align 8
  %__y.addr = alloca ptr, align 8
  store ptr %__x, ptr %__x.addr, align 8
  store ptr %__y, ptr %__y.addr, align 8
  %0 = load ptr, ptr %__x.addr, align 8
  %_M_node = getelementptr inbounds %"struct.std::_Rb_tree_iterator.227", ptr %0, i32 0, i32 0
  %1 = load ptr, ptr %_M_node, align 8
  %2 = load ptr, ptr %__y.addr, align 8
  %_M_node1 = getelementptr inbounds %"struct.std::_Rb_tree_iterator.227", ptr %2, i32 0, i32 0
  %3 = load ptr, ptr %_M_node1, align 8
  %cmp = icmp ne ptr %1, %3
  ret i1 %cmp
}

; Function Attrs: mustprogress nounwind uwtable
define linkonce_odr hidden ptr @_ZNSt3mapINSt7__cxx1112basic_stringIcSt11char_traitsIcESaIcEEESt7variantIJldS5_S_IS5_mSt4lessIS5_ESaISt4pairIKS5_mEEEEES8_SaIS9_ISA_SE_EEE3endEv(ptr noundef nonnull align 8 dereferenceable(48) %this) #5 comdat align 2 {
entry:
  %retval = alloca %"struct.std::_Rb_tree_iterator.227", align 8
  %this.addr = alloca ptr, align 8
  store ptr %this, ptr %this.addr, align 8
  %this1 = load ptr, ptr %this.addr, align 8
  %_M_t = getelementptr inbounds %"class.std::map.220", ptr %this1, i32 0, i32 0
  %call = call ptr @_ZNSt8_Rb_treeINSt7__cxx1112basic_stringIcSt11char_traitsIcESaIcEEESt4pairIKS5_St7variantIJldS5_St3mapIS5_mSt4lessIS5_ESaIS6_IS7_mEEEEEESt10_Select1stISG_ESB_SaISG_EE3endEv(ptr noundef nonnull align 8 dereferenceable(48) %_M_t) #3
  %coerce.dive = getelementptr inbounds %"struct.std::_Rb_tree_iterator.227", ptr %retval, i32 0, i32 0
  store ptr %call, ptr %coerce.dive, align 8
  %coerce.dive2 = getelementptr inbounds %"struct.std::_Rb_tree_iterator.227", ptr %retval, i32 0, i32 0
  %0 = load ptr, ptr %coerce.dive2, align 8
  ret ptr %0
}

; Function Attrs: mustprogress uwtable
define linkonce_odr noundef zeroext i1 @_ZStneIJldNSt7__cxx1112basic_stringIcSt11char_traitsIcESaIcEEESt3mapIS5_mSt4lessIS5_ESaISt4pairIKS5_mEEEEEbRKSt7variantIJDpT_EESJ_(ptr noundef nonnull align 8 dereferenceable(49) %__lhs, ptr noundef nonnull align 8 dereferenceable(49) %__rhs) #4 comdat {
entry:
  %__lhs.addr = alloca ptr, align 8
  %__rhs.addr = alloca ptr, align 8
  %__ret = alloca i8, align 1
  %ref.tmp = alloca %class.anon.254, align 8
  store ptr %__lhs, ptr %__lhs.addr, align 8
  store ptr %__rhs, ptr %__rhs.addr, align 8
  store i8 1, ptr %__ret, align 1
  %0 = getelementptr inbounds %class.anon.254, ptr %ref.tmp, i32 0, i32 0
  store ptr %__ret, ptr %0, align 8
  %1 = getelementptr inbounds %class.anon.254, ptr %ref.tmp, i32 0, i32 1
  %2 = load ptr, ptr %__lhs.addr, align 8
  store ptr %2, ptr %1, align 8
  %3 = load ptr, ptr %__rhs.addr, align 8
  call void @_ZNSt8__detail9__variant15__raw_idx_visitIZStneIJldNSt7__cxx1112basic_stringIcSt11char_traitsIcESaIcEEESt3mapIS8_mSt4lessIS8_ESaISt4pairIKS8_mEEEEEbRKSt7variantIJDpT_EESM_EUlOT_T0_E_JRKSH_IJldS8_SG_EEEEEvSO_DpOT0_(ptr noundef nonnull align 8 dereferenceable(16) %ref.tmp, ptr noundef nonnull align 8 dereferenceable(49) %3)
  %4 = load i8, ptr %__ret, align 1
  %tobool = trunc i8 %4 to i1
  ret i1 %tobool
}

; Function Attrs: mustprogress nounwind uwtable
define linkonce_odr hidden noundef ptr @_ZNKSt17_Rb_tree_iteratorISt4pairIKNSt7__cxx1112basic_stringIcSt11char_traitsIcESaIcEEESt7variantIJldS6_St3mapIS6_mSt4lessIS6_ESaIS0_IS7_mEEEEEEEptEv(ptr noundef nonnull align 8 dereferenceable(8) %this) #5 comdat align 2 {
entry:
  %this.addr = alloca ptr, align 8
  store ptr %this, ptr %this.addr, align 8
  %this1 = load ptr, ptr %this.addr, align 8
  %_M_node = getelementptr inbounds %"struct.std::_Rb_tree_iterator.227", ptr %this1, i32 0, i32 0
  %0 = load ptr, ptr %_M_node, align 8
  %call = call noundef ptr @_ZNSt13_Rb_tree_nodeISt4pairIKNSt7__cxx1112basic_stringIcSt11char_traitsIcESaIcEEESt7variantIJldS6_St3mapIS6_mSt4lessIS6_ESaIS0_IS7_mEEEEEEE9_M_valptrEv(ptr noundef nonnull align 8 dereferenceable(120) %0)
  ret ptr %call
}

declare noundef nonnull align 8 dereferenceable(8) ptr @_ZN4cvc58internal6detail5printERSoRKSt7variantIJldNSt7__cxx1112basic_stringIcSt11char_traitsIcESaIcEEESt3mapIS9_mSt4lessIS9_ESaISt4pairIKS9_mEEEEE(ptr noundef nonnull align 8 dereferenceable(8), ptr noundef nonnull align 8 dereferenceable(49)) #1

; Function Attrs: mustprogress nounwind uwtable
define linkonce_odr noundef zeroext i1 @_ZSteqRKSt17_Rb_tree_iteratorISt4pairIKNSt7__cxx1112basic_stringIcSt11char_traitsIcESaIcEEESt7variantIJldS6_St3mapIS6_mSt4lessIS6_ESaIS0_IS7_mEEEEEEESJ_(ptr noundef nonnull align 8 dereferenceable(8) %__x, ptr noundef nonnull align 8 dereferenceable(8) %__y) #5 comdat {
entry:
  %__x.addr = alloca ptr, align 8
  %__y.addr = alloca ptr, align 8
  store ptr %__x, ptr %__x.addr, align 8
  store ptr %__y, ptr %__y.addr, align 8
  %0 = load ptr, ptr %__x.addr, align 8
  %_M_node = getelementptr inbounds %"struct.std::_Rb_tree_iterator.227", ptr %0, i32 0, i32 0
  %1 = load ptr, ptr %_M_node, align 8
  %2 = load ptr, ptr %__y.addr, align 8
  %_M_node1 = getelementptr inbounds %"struct.std::_Rb_tree_iterator.227", ptr %2, i32 0, i32 0
  %3 = load ptr, ptr %_M_node1, align 8
  %cmp = icmp eq ptr %1, %3
  ret i1 %cmp
}

; Function Attrs: mustprogress uwtable
define hidden noundef nonnull align 8 dereferenceable(8) ptr @_ZN4cvc58internallsERSoRKNS0_18StatisticsRegistryE(ptr noundef nonnull align 8 dereferenceable(8) %os, ptr noundef nonnull align 8 dereferenceable(72) %sr) #4 {
entry:
  %os.addr = alloca ptr, align 8
  %sr.addr = alloca ptr, align 8
  store ptr %os, ptr %os.addr, align 8
  store ptr %sr, ptr %sr.addr, align 8
  %0 = load ptr, ptr %sr.addr, align 8
  %1 = load ptr, ptr %os.addr, align 8
  call void @_ZNK4cvc58internal18StatisticsRegistry5printERSo(ptr noundef nonnull align 8 dereferenceable(72) %0, ptr noundef nonnull align 8 dereferenceable(8) %1)
  %2 = load ptr, ptr %os.addr, align 8
  ret ptr %2
}

; Function Attrs: mustprogress nounwind uwtable
define linkonce_odr hidden void @_ZN4cvc58internal18StatisticsRegistryD2Ev(ptr noundef nonnull align 8 dereferenceable(72) %this) unnamed_addr #5 comdat align 2 {
entry:
  %this.addr = alloca ptr, align 8
  store ptr %this, ptr %this.addr, align 8
  %this1 = load ptr, ptr %this.addr, align 8
  store ptr getelementptr inbounds ({ [4 x ptr] }, ptr @_ZTVN4cvc58internal18StatisticsRegistryE, i32 0, inrange i32 0, i32 2), ptr %this1, align 8
  %d_lastSnapshot = getelementptr inbounds %"class.cvc5::internal::StatisticsRegistry", ptr %this1, i32 0, i32 2
  call void @_ZNSt10unique_ptrISt3mapINSt7__cxx1112basic_stringIcSt11char_traitsIcESaIcEEESt7variantIJldS6_S0_IS6_mSt4lessIS6_ESaISt4pairIKS6_mEEEEES9_SaISA_ISB_SF_EEESt14default_deleteISI_EED2Ev(ptr noundef nonnull align 8 dereferenceable(8) %d_lastSnapshot) #3
  %d_stats = getelementptr inbounds %"class.cvc5::internal::StatisticsRegistry", ptr %this1, i32 0, i32 1
  call void @_ZNSt3mapINSt7__cxx1112basic_stringIcSt11char_traitsIcESaIcEEESt10unique_ptrIN4cvc58internal18StatisticBaseValueESt14default_deleteIS9_EESt4lessIS5_ESaISt4pairIKS5_SC_EEED2Ev(ptr noundef nonnull align 8 dereferenceable(48) %d_stats) #3
  call void @_ZN4cvc58internal6EnvObjD2Ev(ptr noundef nonnull align 8 dereferenceable(16) %this1) #3
  ret void
}

; Function Attrs: mustprogress nounwind uwtable
define linkonce_odr hidden void @_ZN4cvc58internal18StatisticsRegistryD0Ev(ptr noundef nonnull align 8 dereferenceable(72) %this) unnamed_addr #5 comdat align 2 {
entry:
  %this.addr = alloca ptr, align 8
  store ptr %this, ptr %this.addr, align 8
  %this1 = load ptr, ptr %this.addr, align 8
  call void @_ZN4cvc58internal18StatisticsRegistryD2Ev(ptr noundef nonnull align 8 dereferenceable(72) %this1) #3
  call void @_ZdlPv(ptr noundef %this1) #17
  ret void
}

; Function Attrs: mustprogress nounwind uwtable
define linkonce_odr hidden void @_ZNSt8_Rb_treeINSt7__cxx1112basic_stringIcSt11char_traitsIcESaIcEEESt4pairIKS5_St10unique_ptrIN4cvc58internal18StatisticBaseValueESt14default_deleteISB_EEESt10_Select1stISF_ESt4lessIS5_ESaISF_EEC2Ev(ptr noundef nonnull align 8 dereferenceable(48) %this) unnamed_addr #5 comdat align 2 {
entry:
  %this.addr = alloca ptr, align 8
  store ptr %this, ptr %this.addr, align 8
  %this1 = load ptr, ptr %this.addr, align 8
  %_M_impl = getelementptr inbounds %"class.std::_Rb_tree", ptr %this1, i32 0, i32 0
  call void @_ZNSt8_Rb_treeINSt7__cxx1112basic_stringIcSt11char_traitsIcESaIcEEESt4pairIKS5_St10unique_ptrIN4cvc58internal18StatisticBaseValueESt14default_deleteISB_EEESt10_Select1stISF_ESt4lessIS5_ESaISF_EE13_Rb_tree_implISJ_Lb1EEC2Ev(ptr noundef nonnull align 8 dereferenceable(48) %_M_impl) #3
  ret void
}

; Function Attrs: mustprogress nounwind uwtable
define linkonce_odr hidden void @_ZNSt8_Rb_treeINSt7__cxx1112basic_stringIcSt11char_traitsIcESaIcEEESt4pairIKS5_St10unique_ptrIN4cvc58internal18StatisticBaseValueESt14default_deleteISB_EEESt10_Select1stISF_ESt4lessIS5_ESaISF_EE13_Rb_tree_implISJ_Lb1EEC2Ev(ptr noundef nonnull align 8 dereferenceable(48) %this) unnamed_addr #5 comdat align 2 {
entry:
  %this.addr = alloca ptr, align 8
  store ptr %this, ptr %this.addr, align 8
  %this1 = load ptr, ptr %this.addr, align 8
  call void @_ZNSaISt13_Rb_tree_nodeISt4pairIKNSt7__cxx1112basic_stringIcSt11char_traitsIcESaIcEEESt10unique_ptrIN4cvc58internal18StatisticBaseValueESt14default_deleteISB_EEEEEC2Ev(ptr noundef nonnull align 1 dereferenceable(1) %this1) #3
  call void @_ZNSt20_Rb_tree_key_compareISt4lessINSt7__cxx1112basic_stringIcSt11char_traitsIcESaIcEEEEEC2Ev(ptr noundef nonnull align 1 dereferenceable(1) %this1) #3
  %0 = getelementptr inbounds i8, ptr %this1, i64 8
  call void @_ZNSt15_Rb_tree_headerC2Ev(ptr noundef nonnull align 8 dereferenceable(40) %0) #3
  ret void
}

; Function Attrs: mustprogress nounwind uwtable
define linkonce_odr hidden void @_ZNSaISt13_Rb_tree_nodeISt4pairIKNSt7__cxx1112basic_stringIcSt11char_traitsIcESaIcEEESt10unique_ptrIN4cvc58internal18StatisticBaseValueESt14default_deleteISB_EEEEEC2Ev(ptr noundef nonnull align 1 dereferenceable(1) %this) unnamed_addr #5 comdat align 2 {
entry:
  %this.addr = alloca ptr, align 8
  store ptr %this, ptr %this.addr, align 8
  %this1 = load ptr, ptr %this.addr, align 8
  call void @_ZNSt15__new_allocatorISt13_Rb_tree_nodeISt4pairIKNSt7__cxx1112basic_stringIcSt11char_traitsIcESaIcEEESt10unique_ptrIN4cvc58internal18StatisticBaseValueESt14default_deleteISC_EEEEEC2Ev(ptr noundef nonnull align 1 dereferenceable(1) %this1) #3
  ret void
}

; Function Attrs: mustprogress nounwind uwtable
define linkonce_odr hidden void @_ZNSt20_Rb_tree_key_compareISt4lessINSt7__cxx1112basic_stringIcSt11char_traitsIcESaIcEEEEEC2Ev(ptr noundef nonnull align 1 dereferenceable(1) %this) unnamed_addr #5 comdat align 2 {
entry:
  %this.addr = alloca ptr, align 8
  store ptr %this, ptr %this.addr, align 8
  ret void
}

; Function Attrs: mustprogress nounwind uwtable
define linkonce_odr hidden void @_ZNSt15_Rb_tree_headerC2Ev(ptr noundef nonnull align 8 dereferenceable(40) %this) unnamed_addr #5 comdat align 2 personality ptr @__gxx_personality_v0 {
entry:
  %this.addr = alloca ptr, align 8
  store ptr %this, ptr %this.addr, align 8
  %this1 = load ptr, ptr %this.addr, align 8
  %_M_header2 = getelementptr inbounds %"struct.std::_Rb_tree_header", ptr %this1, i32 0, i32 0
  %_M_color = getelementptr inbounds %"struct.std::_Rb_tree_node_base", ptr %_M_header2, i32 0, i32 0
  store i32 0, ptr %_M_color, align 8
  invoke void @_ZNSt15_Rb_tree_header8_M_resetEv(ptr noundef nonnull align 8 dereferenceable(40) %this1)
          to label %invoke.cont unwind label %terminate.lpad

invoke.cont:                                      ; preds = %entry
  ret void

terminate.lpad:                                   ; preds = %entry
  %0 = landingpad { ptr, i32 }
          catch ptr null
  %1 = extractvalue { ptr, i32 } %0, 0
  call void @__clang_call_terminate(ptr %1) #16
  unreachable
}

; Function Attrs: mustprogress nounwind uwtable
define linkonce_odr hidden void @_ZNSt15__new_allocatorISt13_Rb_tree_nodeISt4pairIKNSt7__cxx1112basic_stringIcSt11char_traitsIcESaIcEEESt10unique_ptrIN4cvc58internal18StatisticBaseValueESt14default_deleteISC_EEEEEC2Ev(ptr noundef nonnull align 1 dereferenceable(1) %this) unnamed_addr #5 comdat align 2 {
entry:
  %this.addr = alloca ptr, align 8
  store ptr %this, ptr %this.addr, align 8
  ret void
}

; Function Attrs: mustprogress nounwind uwtable
define linkonce_odr hidden void @_ZNSt15_Rb_tree_header8_M_resetEv(ptr noundef nonnull align 8 dereferenceable(40) %this) #5 comdat align 2 {
entry:
  %this.addr = alloca ptr, align 8
  store ptr %this, ptr %this.addr, align 8
  %this1 = load ptr, ptr %this.addr, align 8
  %_M_header = getelementptr inbounds %"struct.std::_Rb_tree_header", ptr %this1, i32 0, i32 0
  %_M_parent = getelementptr inbounds %"struct.std::_Rb_tree_node_base", ptr %_M_header, i32 0, i32 1
  store ptr null, ptr %_M_parent, align 8
  %_M_header2 = getelementptr inbounds %"struct.std::_Rb_tree_header", ptr %this1, i32 0, i32 0
  %_M_header3 = getelementptr inbounds %"struct.std::_Rb_tree_header", ptr %this1, i32 0, i32 0
  %_M_left = getelementptr inbounds %"struct.std::_Rb_tree_node_base", ptr %_M_header3, i32 0, i32 2
  store ptr %_M_header2, ptr %_M_left, align 8
  %_M_header4 = getelementptr inbounds %"struct.std::_Rb_tree_header", ptr %this1, i32 0, i32 0
  %_M_header5 = getelementptr inbounds %"struct.std::_Rb_tree_header", ptr %this1, i32 0, i32 0
  %_M_right = getelementptr inbounds %"struct.std::_Rb_tree_node_base", ptr %_M_header5, i32 0, i32 3
  store ptr %_M_header4, ptr %_M_right, align 8
  %_M_node_count = getelementptr inbounds %"struct.std::_Rb_tree_header", ptr %this1, i32 0, i32 1
  store i64 0, ptr %_M_node_count, align 8
  ret void
}

; Function Attrs: noreturn nounwind uwtable
define linkonce_odr hidden void @__clang_call_terminate(ptr noundef %0) #6 comdat {
  %2 = call ptr @__cxa_begin_catch(ptr %0) #3
  call void @_ZSt9terminatev() #16
  unreachable
}

declare ptr @__cxa_begin_catch(ptr)

declare void @_ZSt9terminatev()

; Function Attrs: nocallback nofree nounwind willreturn memory(argmem: write)
declare void @llvm.memset.p0.i64(ptr nocapture writeonly, i8, i64, i1 immarg) #7

; Function Attrs: mustprogress nounwind uwtable
define linkonce_odr hidden void @_ZNSt15__uniq_ptr_dataISt3mapINSt7__cxx1112basic_stringIcSt11char_traitsIcESaIcEEESt7variantIJldS6_S0_IS6_mSt4lessIS6_ESaISt4pairIKS6_mEEEEES9_SaISA_ISB_SF_EEESt14default_deleteISI_ELb1ELb1EEC2Ev(ptr noundef nonnull align 8 dereferenceable(8) %this) unnamed_addr #5 comdat align 2 {
entry:
  %this.addr = alloca ptr, align 8
  store ptr %this, ptr %this.addr, align 8
  %this1 = load ptr, ptr %this.addr, align 8
  call void @_ZNSt15__uniq_ptr_implISt3mapINSt7__cxx1112basic_stringIcSt11char_traitsIcESaIcEEESt7variantIJldS6_S0_IS6_mSt4lessIS6_ESaISt4pairIKS6_mEEEEES9_SaISA_ISB_SF_EEESt14default_deleteISI_EEC2Ev(ptr noundef nonnull align 8 dereferenceable(8) %this1) #3
  ret void
}

; Function Attrs: mustprogress nounwind uwtable
define linkonce_odr hidden void @_ZNSt15__uniq_ptr_implISt3mapINSt7__cxx1112basic_stringIcSt11char_traitsIcESaIcEEESt7variantIJldS6_S0_IS6_mSt4lessIS6_ESaISt4pairIKS6_mEEEEES9_SaISA_ISB_SF_EEESt14default_deleteISI_EEC2Ev(ptr noundef nonnull align 8 dereferenceable(8) %this) unnamed_addr #5 comdat align 2 {
entry:
  %this.addr = alloca ptr, align 8
  store ptr %this, ptr %this.addr, align 8
  %this1 = load ptr, ptr %this.addr, align 8
  %_M_t = getelementptr inbounds %"class.std::__uniq_ptr_impl", ptr %this1, i32 0, i32 0
  call void @_ZNSt5tupleIJPSt3mapINSt7__cxx1112basic_stringIcSt11char_traitsIcESaIcEEESt7variantIJldS6_S0_IS6_mSt4lessIS6_ESaISt4pairIKS6_mEEEEES9_SaISA_ISB_SF_EEESt14default_deleteISI_EEEC2ILb1ETnNSt9enable_ifIXclsr17_TupleConstraintsIXT_ESJ_SL_EE37__is_implicitly_default_constructibleEEbE4typeELb1EEEv(ptr noundef nonnull align 8 dereferenceable(8) %_M_t) #3
  ret void
}

; Function Attrs: mustprogress nounwind uwtable
define linkonce_odr hidden void @_ZNSt5tupleIJPSt3mapINSt7__cxx1112basic_stringIcSt11char_traitsIcESaIcEEESt7variantIJldS6_S0_IS6_mSt4lessIS6_ESaISt4pairIKS6_mEEEEES9_SaISA_ISB_SF_EEESt14default_deleteISI_EEEC2ILb1ETnNSt9enable_ifIXclsr17_TupleConstraintsIXT_ESJ_SL_EE37__is_implicitly_default_constructibleEEbE4typeELb1EEEv(ptr noundef nonnull align 8 dereferenceable(8) %this) unnamed_addr #5 comdat align 2 personality ptr @__gxx_personality_v0 {
entry:
  %this.addr = alloca ptr, align 8
  store ptr %this, ptr %this.addr, align 8
  %this1 = load ptr, ptr %this.addr, align 8
  invoke void @_ZNSt11_Tuple_implILm0EJPSt3mapINSt7__cxx1112basic_stringIcSt11char_traitsIcESaIcEEESt7variantIJldS6_S0_IS6_mSt4lessIS6_ESaISt4pairIKS6_mEEEEES9_SaISA_ISB_SF_EEESt14default_deleteISI_EEEC2Ev(ptr noundef nonnull align 8 dereferenceable(8) %this1)
          to label %invoke.cont unwind label %terminate.lpad

invoke.cont:                                      ; preds = %entry
  ret void

terminate.lpad:                                   ; preds = %entry
  %0 = landingpad { ptr, i32 }
          catch ptr null
  %1 = extractvalue { ptr, i32 } %0, 0
  call void @__clang_call_terminate(ptr %1) #16
  unreachable
}

; Function Attrs: mustprogress uwtable
define linkonce_odr hidden void @_ZNSt11_Tuple_implILm0EJPSt3mapINSt7__cxx1112basic_stringIcSt11char_traitsIcESaIcEEESt7variantIJldS6_S0_IS6_mSt4lessIS6_ESaISt4pairIKS6_mEEEEES9_SaISA_ISB_SF_EEESt14default_deleteISI_EEEC2Ev(ptr noundef nonnull align 8 dereferenceable(8) %this) unnamed_addr #4 comdat align 2 {
entry:
  %this.addr = alloca ptr, align 8
  store ptr %this, ptr %this.addr, align 8
  %this1 = load ptr, ptr %this.addr, align 8
  call void @_ZNSt11_Tuple_implILm1EJSt14default_deleteISt3mapINSt7__cxx1112basic_stringIcSt11char_traitsIcESaIcEEESt7variantIJldS7_S1_IS7_mSt4lessIS7_ESaISt4pairIKS7_mEEEEESA_SaISB_ISC_SG_EEEEEEC2Ev(ptr noundef nonnull align 1 dereferenceable(1) %this1)
  call void @_ZNSt10_Head_baseILm0EPSt3mapINSt7__cxx1112basic_stringIcSt11char_traitsIcESaIcEEESt7variantIJldS6_S0_IS6_mSt4lessIS6_ESaISt4pairIKS6_mEEEEES9_SaISA_ISB_SF_EEELb0EEC2Ev(ptr noundef nonnull align 8 dereferenceable(8) %this1)
  ret void
}

; Function Attrs: mustprogress uwtable
define linkonce_odr hidden void @_ZNSt11_Tuple_implILm1EJSt14default_deleteISt3mapINSt7__cxx1112basic_stringIcSt11char_traitsIcESaIcEEESt7variantIJldS7_S1_IS7_mSt4lessIS7_ESaISt4pairIKS7_mEEEEESA_SaISB_ISC_SG_EEEEEEC2Ev(ptr noundef nonnull align 1 dereferenceable(1) %this) unnamed_addr #4 comdat align 2 {
entry:
  %this.addr = alloca ptr, align 8
  store ptr %this, ptr %this.addr, align 8
  %this1 = load ptr, ptr %this.addr, align 8
  call void @_ZNSt10_Head_baseILm1ESt14default_deleteISt3mapINSt7__cxx1112basic_stringIcSt11char_traitsIcESaIcEEESt7variantIJldS7_S1_IS7_mSt4lessIS7_ESaISt4pairIKS7_mEEEEESA_SaISB_ISC_SG_EEEELb1EEC2Ev(ptr noundef nonnull align 1 dereferenceable(1) %this1)
  ret void
}

; Function Attrs: mustprogress nounwind uwtable
define linkonce_odr hidden void @_ZNSt10_Head_baseILm0EPSt3mapINSt7__cxx1112basic_stringIcSt11char_traitsIcESaIcEEESt7variantIJldS6_S0_IS6_mSt4lessIS6_ESaISt4pairIKS6_mEEEEES9_SaISA_ISB_SF_EEELb0EEC2Ev(ptr noundef nonnull align 8 dereferenceable(8) %this) unnamed_addr #5 comdat align 2 {
entry:
  %this.addr = alloca ptr, align 8
  store ptr %this, ptr %this.addr, align 8
  %this1 = load ptr, ptr %this.addr, align 8
  %_M_head_impl = getelementptr inbounds %"struct.std::_Head_base.1", ptr %this1, i32 0, i32 0
  store ptr null, ptr %_M_head_impl, align 8
  ret void
}

; Function Attrs: mustprogress nounwind uwtable
define linkonce_odr hidden void @_ZNSt10_Head_baseILm1ESt14default_deleteISt3mapINSt7__cxx1112basic_stringIcSt11char_traitsIcESaIcEEESt7variantIJldS7_S1_IS7_mSt4lessIS7_ESaISt4pairIKS7_mEEEEESA_SaISB_ISC_SG_EEEELb1EEC2Ev(ptr noundef nonnull align 1 dereferenceable(1) %this) unnamed_addr #5 comdat align 2 {
entry:
  %this.addr = alloca ptr, align 8
  store ptr %this, ptr %this.addr, align 8
  ret void
}

; Function Attrs: mustprogress nounwind uwtable
define linkonce_odr hidden void @_ZNSt8_Rb_treeINSt7__cxx1112basic_stringIcSt11char_traitsIcESaIcEEESt4pairIKS5_St10unique_ptrIN4cvc58internal18StatisticBaseValueESt14default_deleteISB_EEESt10_Select1stISF_ESt4lessIS5_ESaISF_EED2Ev(ptr noundef nonnull align 8 dereferenceable(48) %this) unnamed_addr #5 comdat align 2 personality ptr @__gxx_personality_v0 {
entry:
  %this.addr = alloca ptr, align 8
  store ptr %this, ptr %this.addr, align 8
  %this1 = load ptr, ptr %this.addr, align 8
  %call = call noundef ptr @_ZNSt8_Rb_treeINSt7__cxx1112basic_stringIcSt11char_traitsIcESaIcEEESt4pairIKS5_St10unique_ptrIN4cvc58internal18StatisticBaseValueESt14default_deleteISB_EEESt10_Select1stISF_ESt4lessIS5_ESaISF_EE8_M_beginEv(ptr noundef nonnull align 8 dereferenceable(48) %this1) #3
  invoke void @_ZNSt8_Rb_treeINSt7__cxx1112basic_stringIcSt11char_traitsIcESaIcEEESt4pairIKS5_St10unique_ptrIN4cvc58internal18StatisticBaseValueESt14default_deleteISB_EEESt10_Select1stISF_ESt4lessIS5_ESaISF_EE8_M_eraseEPSt13_Rb_tree_nodeISF_E(ptr noundef nonnull align 8 dereferenceable(48) %this1, ptr noundef %call)
          to label %invoke.cont unwind label %terminate.lpad

invoke.cont:                                      ; preds = %entry
  %_M_impl = getelementptr inbounds %"class.std::_Rb_tree", ptr %this1, i32 0, i32 0
  call void @_ZNSt8_Rb_treeINSt7__cxx1112basic_stringIcSt11char_traitsIcESaIcEEESt4pairIKS5_St10unique_ptrIN4cvc58internal18StatisticBaseValueESt14default_deleteISB_EEESt10_Select1stISF_ESt4lessIS5_ESaISF_EE13_Rb_tree_implISJ_Lb1EED2Ev(ptr noundef nonnull align 8 dereferenceable(48) %_M_impl) #3
  ret void

terminate.lpad:                                   ; preds = %entry
  %0 = landingpad { ptr, i32 }
          catch ptr null
  %1 = extractvalue { ptr, i32 } %0, 0
  call void @__clang_call_terminate(ptr %1) #16
  unreachable
}

; Function Attrs: mustprogress uwtable
define linkonce_odr hidden void @_ZNSt8_Rb_treeINSt7__cxx1112basic_stringIcSt11char_traitsIcESaIcEEESt4pairIKS5_St10unique_ptrIN4cvc58internal18StatisticBaseValueESt14default_deleteISB_EEESt10_Select1stISF_ESt4lessIS5_ESaISF_EE8_M_eraseEPSt13_Rb_tree_nodeISF_E(ptr noundef nonnull align 8 dereferenceable(48) %this, ptr noundef %__x) #4 comdat align 2 {
entry:
  %this.addr = alloca ptr, align 8
  %__x.addr = alloca ptr, align 8
  %__y = alloca ptr, align 8
  store ptr %this, ptr %this.addr, align 8
  store ptr %__x, ptr %__x.addr, align 8
  %this1 = load ptr, ptr %this.addr, align 8
  br label %while.cond

while.cond:                                       ; preds = %while.body, %entry
  %0 = load ptr, ptr %__x.addr, align 8
  %cmp = icmp ne ptr %0, null
  br i1 %cmp, label %while.body, label %while.end

while.body:                                       ; preds = %while.cond
  %1 = load ptr, ptr %__x.addr, align 8
  %call = call noundef ptr @_ZNSt8_Rb_treeINSt7__cxx1112basic_stringIcSt11char_traitsIcESaIcEEESt4pairIKS5_St10unique_ptrIN4cvc58internal18StatisticBaseValueESt14default_deleteISB_EEESt10_Select1stISF_ESt4lessIS5_ESaISF_EE8_S_rightEPSt18_Rb_tree_node_base(ptr noundef %1) #3
  call void @_ZNSt8_Rb_treeINSt7__cxx1112basic_stringIcSt11char_traitsIcESaIcEEESt4pairIKS5_St10unique_ptrIN4cvc58internal18StatisticBaseValueESt14default_deleteISB_EEESt10_Select1stISF_ESt4lessIS5_ESaISF_EE8_M_eraseEPSt13_Rb_tree_nodeISF_E(ptr noundef nonnull align 8 dereferenceable(48) %this1, ptr noundef %call)
  %2 = load ptr, ptr %__x.addr, align 8
  %call2 = call noundef ptr @_ZNSt8_Rb_treeINSt7__cxx1112basic_stringIcSt11char_traitsIcESaIcEEESt4pairIKS5_St10unique_ptrIN4cvc58internal18StatisticBaseValueESt14default_deleteISB_EEESt10_Select1stISF_ESt4lessIS5_ESaISF_EE7_S_leftEPSt18_Rb_tree_node_base(ptr noundef %2) #3
  store ptr %call2, ptr %__y, align 8
  %3 = load ptr, ptr %__x.addr, align 8
  call void @_ZNSt8_Rb_treeINSt7__cxx1112basic_stringIcSt11char_traitsIcESaIcEEESt4pairIKS5_St10unique_ptrIN4cvc58internal18StatisticBaseValueESt14default_deleteISB_EEESt10_Select1stISF_ESt4lessIS5_ESaISF_EE12_M_drop_nodeEPSt13_Rb_tree_nodeISF_E(ptr noundef nonnull align 8 dereferenceable(48) %this1, ptr noundef %3) #3
  %4 = load ptr, ptr %__y, align 8
  store ptr %4, ptr %__x.addr, align 8
  br label %while.cond, !llvm.loop !4

while.end:                                        ; preds = %while.cond
  ret void
}

; Function Attrs: mustprogress nounwind uwtable
define linkonce_odr hidden noundef ptr @_ZNSt8_Rb_treeINSt7__cxx1112basic_stringIcSt11char_traitsIcESaIcEEESt4pairIKS5_St10unique_ptrIN4cvc58internal18StatisticBaseValueESt14default_deleteISB_EEESt10_Select1stISF_ESt4lessIS5_ESaISF_EE8_M_beginEv(ptr noundef nonnull align 8 dereferenceable(48) %this) #5 comdat align 2 {
entry:
  %this.addr = alloca ptr, align 8
  store ptr %this, ptr %this.addr, align 8
  %this1 = load ptr, ptr %this.addr, align 8
  %call = call noundef ptr @_ZNKSt8_Rb_treeINSt7__cxx1112basic_stringIcSt11char_traitsIcESaIcEEESt4pairIKS5_St10unique_ptrIN4cvc58internal18StatisticBaseValueESt14default_deleteISB_EEESt10_Select1stISF_ESt4lessIS5_ESaISF_EE9_M_mbeginEv(ptr noundef nonnull align 8 dereferenceable(48) %this1) #3
  ret ptr %call
}

; Function Attrs: mustprogress nounwind uwtable
define linkonce_odr hidden void @_ZNSt8_Rb_treeINSt7__cxx1112basic_stringIcSt11char_traitsIcESaIcEEESt4pairIKS5_St10unique_ptrIN4cvc58internal18StatisticBaseValueESt14default_deleteISB_EEESt10_Select1stISF_ESt4lessIS5_ESaISF_EE13_Rb_tree_implISJ_Lb1EED2Ev(ptr noundef nonnull align 8 dereferenceable(48) %this) unnamed_addr #5 comdat align 2 {
entry:
  %this.addr = alloca ptr, align 8
  store ptr %this, ptr %this.addr, align 8
  %this1 = load ptr, ptr %this.addr, align 8
  call void @_ZNSaISt13_Rb_tree_nodeISt4pairIKNSt7__cxx1112basic_stringIcSt11char_traitsIcESaIcEEESt10unique_ptrIN4cvc58internal18StatisticBaseValueESt14default_deleteISB_EEEEED2Ev(ptr noundef nonnull align 1 dereferenceable(1) %this1) #3
  ret void
}

; Function Attrs: mustprogress nounwind uwtable
define linkonce_odr hidden noundef ptr @_ZNSt8_Rb_treeINSt7__cxx1112basic_stringIcSt11char_traitsIcESaIcEEESt4pairIKS5_St10unique_ptrIN4cvc58internal18StatisticBaseValueESt14default_deleteISB_EEESt10_Select1stISF_ESt4lessIS5_ESaISF_EE8_S_rightEPSt18_Rb_tree_node_base(ptr noundef %__x) #5 comdat align 2 {
entry:
  %__x.addr = alloca ptr, align 8
  store ptr %__x, ptr %__x.addr, align 8
  %0 = load ptr, ptr %__x.addr, align 8
  %_M_right = getelementptr inbounds %"struct.std::_Rb_tree_node_base", ptr %0, i32 0, i32 3
  %1 = load ptr, ptr %_M_right, align 8
  ret ptr %1
}

; Function Attrs: mustprogress nounwind uwtable
define linkonce_odr hidden noundef ptr @_ZNSt8_Rb_treeINSt7__cxx1112basic_stringIcSt11char_traitsIcESaIcEEESt4pairIKS5_St10unique_ptrIN4cvc58internal18StatisticBaseValueESt14default_deleteISB_EEESt10_Select1stISF_ESt4lessIS5_ESaISF_EE7_S_leftEPSt18_Rb_tree_node_base(ptr noundef %__x) #5 comdat align 2 {
entry:
  %__x.addr = alloca ptr, align 8
  store ptr %__x, ptr %__x.addr, align 8
  %0 = load ptr, ptr %__x.addr, align 8
  %_M_left = getelementptr inbounds %"struct.std::_Rb_tree_node_base", ptr %0, i32 0, i32 2
  %1 = load ptr, ptr %_M_left, align 8
  ret ptr %1
}

; Function Attrs: mustprogress nounwind uwtable
define linkonce_odr hidden void @_ZNSt8_Rb_treeINSt7__cxx1112basic_stringIcSt11char_traitsIcESaIcEEESt4pairIKS5_St10unique_ptrIN4cvc58internal18StatisticBaseValueESt14default_deleteISB_EEESt10_Select1stISF_ESt4lessIS5_ESaISF_EE12_M_drop_nodeEPSt13_Rb_tree_nodeISF_E(ptr noundef nonnull align 8 dereferenceable(48) %this, ptr noundef %__p) #5 comdat align 2 {
entry:
  %this.addr = alloca ptr, align 8
  %__p.addr = alloca ptr, align 8
  store ptr %this, ptr %this.addr, align 8
  store ptr %__p, ptr %__p.addr, align 8
  %this1 = load ptr, ptr %this.addr, align 8
  %0 = load ptr, ptr %__p.addr, align 8
  call void @_ZNSt8_Rb_treeINSt7__cxx1112basic_stringIcSt11char_traitsIcESaIcEEESt4pairIKS5_St10unique_ptrIN4cvc58internal18StatisticBaseValueESt14default_deleteISB_EEESt10_Select1stISF_ESt4lessIS5_ESaISF_EE15_M_destroy_nodeEPSt13_Rb_tree_nodeISF_E(ptr noundef nonnull align 8 dereferenceable(48) %this1, ptr noundef %0) #3
  %1 = load ptr, ptr %__p.addr, align 8
  call void @_ZNSt8_Rb_treeINSt7__cxx1112basic_stringIcSt11char_traitsIcESaIcEEESt4pairIKS5_St10unique_ptrIN4cvc58internal18StatisticBaseValueESt14default_deleteISB_EEESt10_Select1stISF_ESt4lessIS5_ESaISF_EE11_M_put_nodeEPSt13_Rb_tree_nodeISF_E(ptr noundef nonnull align 8 dereferenceable(48) %this1, ptr noundef %1) #3
  ret void
}

; Function Attrs: mustprogress nounwind uwtable
define linkonce_odr hidden void @_ZNSt8_Rb_treeINSt7__cxx1112basic_stringIcSt11char_traitsIcESaIcEEESt4pairIKS5_St10unique_ptrIN4cvc58internal18StatisticBaseValueESt14default_deleteISB_EEESt10_Select1stISF_ESt4lessIS5_ESaISF_EE15_M_destroy_nodeEPSt13_Rb_tree_nodeISF_E(ptr noundef nonnull align 8 dereferenceable(48) %this, ptr noundef %__p) #5 comdat align 2 personality ptr @__gxx_personality_v0 {
entry:
  %this.addr = alloca ptr, align 8
  %__p.addr = alloca ptr, align 8
  store ptr %this, ptr %this.addr, align 8
  store ptr %__p, ptr %__p.addr, align 8
  %this1 = load ptr, ptr %this.addr, align 8
  %call = call noundef nonnull align 1 dereferenceable(1) ptr @_ZNSt8_Rb_treeINSt7__cxx1112basic_stringIcSt11char_traitsIcESaIcEEESt4pairIKS5_St10unique_ptrIN4cvc58internal18StatisticBaseValueESt14default_deleteISB_EEESt10_Select1stISF_ESt4lessIS5_ESaISF_EE21_M_get_Node_allocatorEv(ptr noundef nonnull align 8 dereferenceable(48) %this1) #3
  %0 = load ptr, ptr %__p.addr, align 8
  %call2 = invoke noundef ptr @_ZNSt13_Rb_tree_nodeISt4pairIKNSt7__cxx1112basic_stringIcSt11char_traitsIcESaIcEEESt10unique_ptrIN4cvc58internal18StatisticBaseValueESt14default_deleteISB_EEEE9_M_valptrEv(ptr noundef nonnull align 8 dereferenceable(72) %0)
          to label %invoke.cont unwind label %terminate.lpad

invoke.cont:                                      ; preds = %entry
  call void @_ZNSt16allocator_traitsISaISt13_Rb_tree_nodeISt4pairIKNSt7__cxx1112basic_stringIcSt11char_traitsIcESaIcEEESt10unique_ptrIN4cvc58internal18StatisticBaseValueESt14default_deleteISC_EEEEEE7destroyISG_EEvRSI_PT_(ptr noundef nonnull align 1 dereferenceable(1) %call, ptr noundef %call2) #3
  ret void

terminate.lpad:                                   ; preds = %entry
  %1 = landingpad { ptr, i32 }
          catch ptr null
  %2 = extractvalue { ptr, i32 } %1, 0
  call void @__clang_call_terminate(ptr %2) #16
  unreachable
}

; Function Attrs: mustprogress nounwind uwtable
define linkonce_odr hidden void @_ZNSt8_Rb_treeINSt7__cxx1112basic_stringIcSt11char_traitsIcESaIcEEESt4pairIKS5_St10unique_ptrIN4cvc58internal18StatisticBaseValueESt14default_deleteISB_EEESt10_Select1stISF_ESt4lessIS5_ESaISF_EE11_M_put_nodeEPSt13_Rb_tree_nodeISF_E(ptr noundef nonnull align 8 dereferenceable(48) %this, ptr noundef %__p) #5 comdat align 2 personality ptr @__gxx_personality_v0 {
entry:
  %this.addr = alloca ptr, align 8
  %__p.addr = alloca ptr, align 8
  store ptr %this, ptr %this.addr, align 8
  store ptr %__p, ptr %__p.addr, align 8
  %this1 = load ptr, ptr %this.addr, align 8
  %call = call noundef nonnull align 1 dereferenceable(1) ptr @_ZNSt8_Rb_treeINSt7__cxx1112basic_stringIcSt11char_traitsIcESaIcEEESt4pairIKS5_St10unique_ptrIN4cvc58internal18StatisticBaseValueESt14default_deleteISB_EEESt10_Select1stISF_ESt4lessIS5_ESaISF_EE21_M_get_Node_allocatorEv(ptr noundef nonnull align 8 dereferenceable(48) %this1) #3
  %0 = load ptr, ptr %__p.addr, align 8
  invoke void @_ZNSt16allocator_traitsISaISt13_Rb_tree_nodeISt4pairIKNSt7__cxx1112basic_stringIcSt11char_traitsIcESaIcEEESt10unique_ptrIN4cvc58internal18StatisticBaseValueESt14default_deleteISC_EEEEEE10deallocateERSI_PSH_m(ptr noundef nonnull align 1 dereferenceable(1) %call, ptr noundef %0, i64 noundef 1)
          to label %invoke.cont unwind label %terminate.lpad

invoke.cont:                                      ; preds = %entry
  ret void

terminate.lpad:                                   ; preds = %entry
  %1 = landingpad { ptr, i32 }
          catch ptr null
  %2 = extractvalue { ptr, i32 } %1, 0
  call void @__clang_call_terminate(ptr %2) #16
  unreachable
}

; Function Attrs: mustprogress nounwind uwtable
define linkonce_odr hidden void @_ZNSt16allocator_traitsISaISt13_Rb_tree_nodeISt4pairIKNSt7__cxx1112basic_stringIcSt11char_traitsIcESaIcEEESt10unique_ptrIN4cvc58internal18StatisticBaseValueESt14default_deleteISC_EEEEEE7destroyISG_EEvRSI_PT_(ptr noundef nonnull align 1 dereferenceable(1) %__a, ptr noundef %__p) #5 comdat align 2 {
entry:
  %__a.addr = alloca ptr, align 8
  %__p.addr = alloca ptr, align 8
  store ptr %__a, ptr %__a.addr, align 8
  store ptr %__p, ptr %__p.addr, align 8
  %0 = load ptr, ptr %__a.addr, align 8
  %1 = load ptr, ptr %__p.addr, align 8
  call void @_ZNSt15__new_allocatorISt13_Rb_tree_nodeISt4pairIKNSt7__cxx1112basic_stringIcSt11char_traitsIcESaIcEEESt10unique_ptrIN4cvc58internal18StatisticBaseValueESt14default_deleteISC_EEEEE7destroyISG_EEvPT_(ptr noundef nonnull align 1 dereferenceable(1) %0, ptr noundef %1) #3
  ret void
}

; Function Attrs: mustprogress nounwind uwtable
define linkonce_odr hidden noundef nonnull align 1 dereferenceable(1) ptr @_ZNSt8_Rb_treeINSt7__cxx1112basic_stringIcSt11char_traitsIcESaIcEEESt4pairIKS5_St10unique_ptrIN4cvc58internal18StatisticBaseValueESt14default_deleteISB_EEESt10_Select1stISF_ESt4lessIS5_ESaISF_EE21_M_get_Node_allocatorEv(ptr noundef nonnull align 8 dereferenceable(48) %this) #5 comdat align 2 {
entry:
  %this.addr = alloca ptr, align 8
  store ptr %this, ptr %this.addr, align 8
  %this1 = load ptr, ptr %this.addr, align 8
  %_M_impl = getelementptr inbounds %"class.std::_Rb_tree", ptr %this1, i32 0, i32 0
  ret ptr %_M_impl
}

; Function Attrs: mustprogress nounwind uwtable
define linkonce_odr hidden noundef ptr @_ZNSt13_Rb_tree_nodeISt4pairIKNSt7__cxx1112basic_stringIcSt11char_traitsIcESaIcEEESt10unique_ptrIN4cvc58internal18StatisticBaseValueESt14default_deleteISB_EEEE9_M_valptrEv(ptr noundef nonnull align 8 dereferenceable(72) %this) #5 comdat align 2 {
entry:
  %this.addr = alloca ptr, align 8
  store ptr %this, ptr %this.addr, align 8
  %this1 = load ptr, ptr %this.addr, align 8
  %_M_storage = getelementptr inbounds %"struct.std::_Rb_tree_node", ptr %this1, i32 0, i32 1
  %call = call noundef ptr @_ZN9__gnu_cxx16__aligned_membufISt4pairIKNSt7__cxx1112basic_stringIcSt11char_traitsIcESaIcEEESt10unique_ptrIN4cvc58internal18StatisticBaseValueESt14default_deleteISC_EEEE6_M_ptrEv(ptr noundef nonnull align 8 dereferenceable(40) %_M_storage) #3
  ret ptr %call
}

; Function Attrs: mustprogress nounwind uwtable
define linkonce_odr hidden void @_ZNSt15__new_allocatorISt13_Rb_tree_nodeISt4pairIKNSt7__cxx1112basic_stringIcSt11char_traitsIcESaIcEEESt10unique_ptrIN4cvc58internal18StatisticBaseValueESt14default_deleteISC_EEEEE7destroyISG_EEvPT_(ptr noundef nonnull align 1 dereferenceable(1) %this, ptr noundef %__p) #5 comdat align 2 {
entry:
  %this.addr = alloca ptr, align 8
  %__p.addr = alloca ptr, align 8
  store ptr %this, ptr %this.addr, align 8
  store ptr %__p, ptr %__p.addr, align 8
  %0 = load ptr, ptr %__p.addr, align 8
  call void @_ZNSt4pairIKNSt7__cxx1112basic_stringIcSt11char_traitsIcESaIcEEESt10unique_ptrIN4cvc58internal18StatisticBaseValueESt14default_deleteISA_EEED2Ev(ptr noundef nonnull align 8 dereferenceable(40) %0) #3
  ret void
}

; Function Attrs: mustprogress nounwind uwtable
define linkonce_odr hidden void @_ZNSt4pairIKNSt7__cxx1112basic_stringIcSt11char_traitsIcESaIcEEESt10unique_ptrIN4cvc58internal18StatisticBaseValueESt14default_deleteISA_EEED2Ev(ptr noundef nonnull align 8 dereferenceable(40) %this) unnamed_addr #5 comdat align 2 {
entry:
  %this.addr = alloca ptr, align 8
  store ptr %this, ptr %this.addr, align 8
  %this1 = load ptr, ptr %this.addr, align 8
  %second = getelementptr inbounds %"struct.std::pair", ptr %this1, i32 0, i32 1
  call void @_ZNSt10unique_ptrIN4cvc58internal18StatisticBaseValueESt14default_deleteIS2_EED2Ev(ptr noundef nonnull align 8 dereferenceable(8) %second) #3
  %first = getelementptr inbounds %"struct.std::pair", ptr %this1, i32 0, i32 0
  call void @_ZNSt7__cxx1112basic_stringIcSt11char_traitsIcESaIcEED1Ev(ptr noundef nonnull align 8 dereferenceable(32) %first) #3
  ret void
}

; Function Attrs: mustprogress nounwind uwtable
define linkonce_odr hidden void @_ZNSt10unique_ptrIN4cvc58internal18StatisticBaseValueESt14default_deleteIS2_EED2Ev(ptr noundef nonnull align 8 dereferenceable(8) %this) unnamed_addr #5 comdat align 2 personality ptr @__gxx_personality_v0 {
entry:
  %this.addr = alloca ptr, align 8
  %__ptr = alloca ptr, align 8
  store ptr %this, ptr %this.addr, align 8
  %this1 = load ptr, ptr %this.addr, align 8
  %_M_t = getelementptr inbounds %"class.std::unique_ptr.5", ptr %this1, i32 0, i32 0
  %call = call noundef nonnull align 8 dereferenceable(8) ptr @_ZNSt15__uniq_ptr_implIN4cvc58internal18StatisticBaseValueESt14default_deleteIS2_EE6_M_ptrEv(ptr noundef nonnull align 8 dereferenceable(8) %_M_t) #3
  store ptr %call, ptr %__ptr, align 8
  %0 = load ptr, ptr %__ptr, align 8
  %1 = load ptr, ptr %0, align 8
  %cmp = icmp ne ptr %1, null
  br i1 %cmp, label %if.then, label %if.end

if.then:                                          ; preds = %entry
  %call2 = call noundef nonnull align 1 dereferenceable(1) ptr @_ZNSt10unique_ptrIN4cvc58internal18StatisticBaseValueESt14default_deleteIS2_EE11get_deleterEv(ptr noundef nonnull align 8 dereferenceable(8) %this1) #3
  %2 = load ptr, ptr %__ptr, align 8
  %3 = load ptr, ptr %2, align 8
  invoke void @_ZNKSt14default_deleteIN4cvc58internal18StatisticBaseValueEEclEPS2_(ptr noundef nonnull align 1 dereferenceable(1) %call2, ptr noundef %3)
          to label %invoke.cont unwind label %terminate.lpad

invoke.cont:                                      ; preds = %if.then
  br label %if.end

if.end:                                           ; preds = %invoke.cont, %entry
  %4 = load ptr, ptr %__ptr, align 8
  store ptr null, ptr %4, align 8
  ret void

terminate.lpad:                                   ; preds = %if.then
  %5 = landingpad { ptr, i32 }
          catch ptr null
  %6 = extractvalue { ptr, i32 } %5, 0
  call void @__clang_call_terminate(ptr %6) #16
  unreachable
}

; Function Attrs: nounwind
declare void @_ZNSt7__cxx1112basic_stringIcSt11char_traitsIcESaIcEED1Ev(ptr noundef nonnull align 8 dereferenceable(32)) unnamed_addr #2

; Function Attrs: mustprogress nounwind uwtable
define linkonce_odr hidden noundef nonnull align 8 dereferenceable(8) ptr @_ZNSt15__uniq_ptr_implIN4cvc58internal18StatisticBaseValueESt14default_deleteIS2_EE6_M_ptrEv(ptr noundef nonnull align 8 dereferenceable(8) %this) #5 comdat align 2 {
entry:
  %this.addr = alloca ptr, align 8
  store ptr %this, ptr %this.addr, align 8
  %this1 = load ptr, ptr %this.addr, align 8
  %_M_t = getelementptr inbounds %"class.std::__uniq_ptr_impl.7", ptr %this1, i32 0, i32 0
  %call = call noundef nonnull align 8 dereferenceable(8) ptr @_ZSt3getILm0EJPN4cvc58internal18StatisticBaseValueESt14default_deleteIS2_EEERNSt13tuple_elementIXT_ESt5tupleIJDpT0_EEE4typeERSA_(ptr noundef nonnull align 8 dereferenceable(8) %_M_t) #3
  ret ptr %call
}

; Function Attrs: mustprogress nounwind uwtable
define linkonce_odr hidden noundef nonnull align 1 dereferenceable(1) ptr @_ZNSt10unique_ptrIN4cvc58internal18StatisticBaseValueESt14default_deleteIS2_EE11get_deleterEv(ptr noundef nonnull align 8 dereferenceable(8) %this) #5 comdat align 2 {
entry:
  %this.addr = alloca ptr, align 8
  store ptr %this, ptr %this.addr, align 8
  %this1 = load ptr, ptr %this.addr, align 8
  %_M_t = getelementptr inbounds %"class.std::unique_ptr.5", ptr %this1, i32 0, i32 0
  %call = call noundef nonnull align 1 dereferenceable(1) ptr @_ZNSt15__uniq_ptr_implIN4cvc58internal18StatisticBaseValueESt14default_deleteIS2_EE10_M_deleterEv(ptr noundef nonnull align 8 dereferenceable(8) %_M_t) #3
  ret ptr %call
}

; Function Attrs: mustprogress nounwind uwtable
define linkonce_odr hidden void @_ZNKSt14default_deleteIN4cvc58internal18StatisticBaseValueEEclEPS2_(ptr noundef nonnull align 1 dereferenceable(1) %this, ptr noundef %__ptr) #5 comdat align 2 {
entry:
  %this.addr = alloca ptr, align 8
  %__ptr.addr = alloca ptr, align 8
  store ptr %this, ptr %this.addr, align 8
  store ptr %__ptr, ptr %__ptr.addr, align 8
  %0 = load ptr, ptr %__ptr.addr, align 8
  %isnull = icmp eq ptr %0, null
  br i1 %isnull, label %delete.end, label %delete.notnull

delete.notnull:                                   ; preds = %entry
  %vtable = load ptr, ptr %0, align 8
  %vfn = getelementptr inbounds ptr, ptr %vtable, i64 1
  %1 = load ptr, ptr %vfn, align 8
  call void %1(ptr noundef nonnull align 8 dereferenceable(9) %0) #3
  br label %delete.end

delete.end:                                       ; preds = %delete.notnull, %entry
  ret void
}

; Function Attrs: mustprogress nounwind uwtable
define linkonce_odr hidden noundef nonnull align 8 dereferenceable(8) ptr @_ZSt3getILm0EJPN4cvc58internal18StatisticBaseValueESt14default_deleteIS2_EEERNSt13tuple_elementIXT_ESt5tupleIJDpT0_EEE4typeERSA_(ptr noundef nonnull align 8 dereferenceable(8) %__t) #5 comdat {
entry:
  %__t.addr = alloca ptr, align 8
  store ptr %__t, ptr %__t.addr, align 8
  %0 = load ptr, ptr %__t.addr, align 8
  %call = call noundef nonnull align 8 dereferenceable(8) ptr @_ZSt12__get_helperILm0EPN4cvc58internal18StatisticBaseValueEJSt14default_deleteIS2_EEERT0_RSt11_Tuple_implIXT_EJS6_DpT1_EE(ptr noundef nonnull align 8 dereferenceable(8) %0) #3
  ret ptr %call
}

; Function Attrs: mustprogress nounwind uwtable
define linkonce_odr hidden noundef nonnull align 8 dereferenceable(8) ptr @_ZSt12__get_helperILm0EPN4cvc58internal18StatisticBaseValueEJSt14default_deleteIS2_EEERT0_RSt11_Tuple_implIXT_EJS6_DpT1_EE(ptr noundef nonnull align 8 dereferenceable(8) %__t) #5 comdat {
entry:
  %__t.addr = alloca ptr, align 8
  store ptr %__t, ptr %__t.addr, align 8
  %0 = load ptr, ptr %__t.addr, align 8
  %call = call noundef nonnull align 8 dereferenceable(8) ptr @_ZNSt11_Tuple_implILm0EJPN4cvc58internal18StatisticBaseValueESt14default_deleteIS2_EEE7_M_headERS6_(ptr noundef nonnull align 8 dereferenceable(8) %0) #3
  ret ptr %call
}

; Function Attrs: mustprogress nounwind uwtable
define linkonce_odr hidden noundef nonnull align 8 dereferenceable(8) ptr @_ZNSt11_Tuple_implILm0EJPN4cvc58internal18StatisticBaseValueESt14default_deleteIS2_EEE7_M_headERS6_(ptr noundef nonnull align 8 dereferenceable(8) %__t) #5 comdat align 2 {
entry:
  %__t.addr = alloca ptr, align 8
  store ptr %__t, ptr %__t.addr, align 8
  %0 = load ptr, ptr %__t.addr, align 8
  %call = call noundef nonnull align 8 dereferenceable(8) ptr @_ZNSt10_Head_baseILm0EPN4cvc58internal18StatisticBaseValueELb0EE7_M_headERS4_(ptr noundef nonnull align 8 dereferenceable(8) %0) #3
  ret ptr %call
}

; Function Attrs: mustprogress nounwind uwtable
define linkonce_odr hidden noundef nonnull align 8 dereferenceable(8) ptr @_ZNSt10_Head_baseILm0EPN4cvc58internal18StatisticBaseValueELb0EE7_M_headERS4_(ptr noundef nonnull align 8 dereferenceable(8) %__b) #5 comdat align 2 {
entry:
  %__b.addr = alloca ptr, align 8
  store ptr %__b, ptr %__b.addr, align 8
  %0 = load ptr, ptr %__b.addr, align 8
  %_M_head_impl = getelementptr inbounds %"struct.std::_Head_base.12", ptr %0, i32 0, i32 0
  ret ptr %_M_head_impl
}

; Function Attrs: mustprogress nounwind uwtable
define linkonce_odr hidden noundef nonnull align 1 dereferenceable(1) ptr @_ZNSt15__uniq_ptr_implIN4cvc58internal18StatisticBaseValueESt14default_deleteIS2_EE10_M_deleterEv(ptr noundef nonnull align 8 dereferenceable(8) %this) #5 comdat align 2 {
entry:
  %this.addr = alloca ptr, align 8
  store ptr %this, ptr %this.addr, align 8
  %this1 = load ptr, ptr %this.addr, align 8
  %_M_t = getelementptr inbounds %"class.std::__uniq_ptr_impl.7", ptr %this1, i32 0, i32 0
  %call = call noundef nonnull align 1 dereferenceable(1) ptr @_ZSt3getILm1EJPN4cvc58internal18StatisticBaseValueESt14default_deleteIS2_EEERNSt13tuple_elementIXT_ESt5tupleIJDpT0_EEE4typeERSA_(ptr noundef nonnull align 8 dereferenceable(8) %_M_t) #3
  ret ptr %call
}

; Function Attrs: mustprogress nounwind uwtable
define linkonce_odr hidden noundef nonnull align 1 dereferenceable(1) ptr @_ZSt3getILm1EJPN4cvc58internal18StatisticBaseValueESt14default_deleteIS2_EEERNSt13tuple_elementIXT_ESt5tupleIJDpT0_EEE4typeERSA_(ptr noundef nonnull align 8 dereferenceable(8) %__t) #5 comdat {
entry:
  %__t.addr = alloca ptr, align 8
  store ptr %__t, ptr %__t.addr, align 8
  %0 = load ptr, ptr %__t.addr, align 8
  %call = call noundef nonnull align 1 dereferenceable(1) ptr @_ZSt12__get_helperILm1ESt14default_deleteIN4cvc58internal18StatisticBaseValueEEJEERT0_RSt11_Tuple_implIXT_EJS5_DpT1_EE(ptr noundef nonnull align 1 dereferenceable(1) %0) #3
  ret ptr %call
}

; Function Attrs: mustprogress nounwind uwtable
define linkonce_odr hidden noundef nonnull align 1 dereferenceable(1) ptr @_ZSt12__get_helperILm1ESt14default_deleteIN4cvc58internal18StatisticBaseValueEEJEERT0_RSt11_Tuple_implIXT_EJS5_DpT1_EE(ptr noundef nonnull align 1 dereferenceable(1) %__t) #5 comdat {
entry:
  %__t.addr = alloca ptr, align 8
  store ptr %__t, ptr %__t.addr, align 8
  %0 = load ptr, ptr %__t.addr, align 8
  %call = call noundef nonnull align 1 dereferenceable(1) ptr @_ZNSt11_Tuple_implILm1EJSt14default_deleteIN4cvc58internal18StatisticBaseValueEEEE7_M_headERS5_(ptr noundef nonnull align 1 dereferenceable(1) %0) #3
  ret ptr %call
}

; Function Attrs: mustprogress nounwind uwtable
define linkonce_odr hidden noundef nonnull align 1 dereferenceable(1) ptr @_ZNSt11_Tuple_implILm1EJSt14default_deleteIN4cvc58internal18StatisticBaseValueEEEE7_M_headERS5_(ptr noundef nonnull align 1 dereferenceable(1) %__t) #5 comdat align 2 {
entry:
  %__t.addr = alloca ptr, align 8
  store ptr %__t, ptr %__t.addr, align 8
  %0 = load ptr, ptr %__t.addr, align 8
  %call = call noundef nonnull align 1 dereferenceable(1) ptr @_ZNSt10_Head_baseILm1ESt14default_deleteIN4cvc58internal18StatisticBaseValueEELb1EE7_M_headERS5_(ptr noundef nonnull align 1 dereferenceable(1) %0) #3
  ret ptr %call
}

; Function Attrs: mustprogress nounwind uwtable
define linkonce_odr hidden noundef nonnull align 1 dereferenceable(1) ptr @_ZNSt10_Head_baseILm1ESt14default_deleteIN4cvc58internal18StatisticBaseValueEELb1EE7_M_headERS5_(ptr noundef nonnull align 1 dereferenceable(1) %__b) #5 comdat align 2 {
entry:
  %__b.addr = alloca ptr, align 8
  store ptr %__b, ptr %__b.addr, align 8
  %0 = load ptr, ptr %__b.addr, align 8
  ret ptr %0
}

; Function Attrs: mustprogress nounwind uwtable
define linkonce_odr hidden noundef ptr @_ZN9__gnu_cxx16__aligned_membufISt4pairIKNSt7__cxx1112basic_stringIcSt11char_traitsIcESaIcEEESt10unique_ptrIN4cvc58internal18StatisticBaseValueESt14default_deleteISC_EEEE6_M_ptrEv(ptr noundef nonnull align 8 dereferenceable(40) %this) #5 comdat align 2 {
entry:
  %this.addr = alloca ptr, align 8
  store ptr %this, ptr %this.addr, align 8
  %this1 = load ptr, ptr %this.addr, align 8
  %call = call noundef ptr @_ZN9__gnu_cxx16__aligned_membufISt4pairIKNSt7__cxx1112basic_stringIcSt11char_traitsIcESaIcEEESt10unique_ptrIN4cvc58internal18StatisticBaseValueESt14default_deleteISC_EEEE7_M_addrEv(ptr noundef nonnull align 8 dereferenceable(40) %this1) #3
  ret ptr %call
}

; Function Attrs: mustprogress nounwind uwtable
define linkonce_odr hidden noundef ptr @_ZN9__gnu_cxx16__aligned_membufISt4pairIKNSt7__cxx1112basic_stringIcSt11char_traitsIcESaIcEEESt10unique_ptrIN4cvc58internal18StatisticBaseValueESt14default_deleteISC_EEEE7_M_addrEv(ptr noundef nonnull align 8 dereferenceable(40) %this) #5 comdat align 2 {
entry:
  %this.addr = alloca ptr, align 8
  store ptr %this, ptr %this.addr, align 8
  %this1 = load ptr, ptr %this.addr, align 8
  %_M_storage = getelementptr inbounds %"struct.__gnu_cxx::__aligned_membuf.238", ptr %this1, i32 0, i32 0
  ret ptr %_M_storage
}

; Function Attrs: mustprogress uwtable
define linkonce_odr hidden void @_ZNSt16allocator_traitsISaISt13_Rb_tree_nodeISt4pairIKNSt7__cxx1112basic_stringIcSt11char_traitsIcESaIcEEESt10unique_ptrIN4cvc58internal18StatisticBaseValueESt14default_deleteISC_EEEEEE10deallocateERSI_PSH_m(ptr noundef nonnull align 1 dereferenceable(1) %__a, ptr noundef %__p, i64 noundef %__n) #4 comdat align 2 {
entry:
  %__a.addr = alloca ptr, align 8
  %__p.addr = alloca ptr, align 8
  %__n.addr = alloca i64, align 8
  store ptr %__a, ptr %__a.addr, align 8
  store ptr %__p, ptr %__p.addr, align 8
  store i64 %__n, ptr %__n.addr, align 8
  %0 = load ptr, ptr %__a.addr, align 8
  %1 = load ptr, ptr %__p.addr, align 8
  %2 = load i64, ptr %__n.addr, align 8
  call void @_ZNSt15__new_allocatorISt13_Rb_tree_nodeISt4pairIKNSt7__cxx1112basic_stringIcSt11char_traitsIcESaIcEEESt10unique_ptrIN4cvc58internal18StatisticBaseValueESt14default_deleteISC_EEEEE10deallocateEPSH_m(ptr noundef nonnull align 1 dereferenceable(1) %0, ptr noundef %1, i64 noundef %2)
  ret void
}

; Function Attrs: mustprogress nounwind uwtable
define linkonce_odr hidden void @_ZNSt15__new_allocatorISt13_Rb_tree_nodeISt4pairIKNSt7__cxx1112basic_stringIcSt11char_traitsIcESaIcEEESt10unique_ptrIN4cvc58internal18StatisticBaseValueESt14default_deleteISC_EEEEE10deallocateEPSH_m(ptr noundef nonnull align 1 dereferenceable(1) %this, ptr noundef %__p, i64 noundef %__n) #5 comdat align 2 {
entry:
  %this.addr = alloca ptr, align 8
  %__p.addr = alloca ptr, align 8
  %__n.addr = alloca i64, align 8
  store ptr %this, ptr %this.addr, align 8
  store ptr %__p, ptr %__p.addr, align 8
  store i64 %__n, ptr %__n.addr, align 8
  %0 = load ptr, ptr %__p.addr, align 8
  call void @_ZdlPv(ptr noundef %0) #17
  ret void
}

; Function Attrs: nobuiltin nounwind
declare void @_ZdlPv(ptr noundef) #8

; Function Attrs: mustprogress nounwind uwtable
define linkonce_odr hidden noundef ptr @_ZNKSt8_Rb_treeINSt7__cxx1112basic_stringIcSt11char_traitsIcESaIcEEESt4pairIKS5_St10unique_ptrIN4cvc58internal18StatisticBaseValueESt14default_deleteISB_EEESt10_Select1stISF_ESt4lessIS5_ESaISF_EE9_M_mbeginEv(ptr noundef nonnull align 8 dereferenceable(48) %this) #5 comdat align 2 {
entry:
  %this.addr = alloca ptr, align 8
  store ptr %this, ptr %this.addr, align 8
  %this1 = load ptr, ptr %this.addr, align 8
  %_M_impl = getelementptr inbounds %"class.std::_Rb_tree", ptr %this1, i32 0, i32 0
  %add.ptr = getelementptr inbounds i8, ptr %_M_impl, i64 8
  %_M_header = getelementptr inbounds %"struct.std::_Rb_tree_header", ptr %add.ptr, i32 0, i32 0
  %_M_parent = getelementptr inbounds %"struct.std::_Rb_tree_node_base", ptr %_M_header, i32 0, i32 1
  %0 = load ptr, ptr %_M_parent, align 8
  ret ptr %0
}

; Function Attrs: mustprogress nounwind uwtable
define linkonce_odr hidden void @_ZNSaISt13_Rb_tree_nodeISt4pairIKNSt7__cxx1112basic_stringIcSt11char_traitsIcESaIcEEESt10unique_ptrIN4cvc58internal18StatisticBaseValueESt14default_deleteISB_EEEEED2Ev(ptr noundef nonnull align 1 dereferenceable(1) %this) unnamed_addr #5 comdat align 2 {
entry:
  %this.addr = alloca ptr, align 8
  store ptr %this, ptr %this.addr, align 8
  %this1 = load ptr, ptr %this.addr, align 8
  call void @_ZNSt15__new_allocatorISt13_Rb_tree_nodeISt4pairIKNSt7__cxx1112basic_stringIcSt11char_traitsIcESaIcEEESt10unique_ptrIN4cvc58internal18StatisticBaseValueESt14default_deleteISC_EEEEED2Ev(ptr noundef nonnull align 1 dereferenceable(1) %this1) #3
  ret void
}

; Function Attrs: mustprogress nounwind uwtable
define linkonce_odr hidden void @_ZNSt15__new_allocatorISt13_Rb_tree_nodeISt4pairIKNSt7__cxx1112basic_stringIcSt11char_traitsIcESaIcEEESt10unique_ptrIN4cvc58internal18StatisticBaseValueESt14default_deleteISC_EEEEED2Ev(ptr noundef nonnull align 1 dereferenceable(1) %this) unnamed_addr #5 comdat align 2 {
entry:
  %this.addr = alloca ptr, align 8
  store ptr %this, ptr %this.addr, align 8
  ret void
}

; Function Attrs: mustprogress nounwind uwtable
define linkonce_odr hidden noundef nonnull align 8 dereferenceable(8) ptr @_ZNSt15__uniq_ptr_dataISt3mapINSt7__cxx1112basic_stringIcSt11char_traitsIcESaIcEEESt7variantIJldS6_S0_IS6_mSt4lessIS6_ESaISt4pairIKS6_mEEEEES9_SaISA_ISB_SF_EEESt14default_deleteISI_ELb1ELb1EEaSEOSL_(ptr noundef nonnull align 8 dereferenceable(8) %this, ptr noundef nonnull align 8 dereferenceable(8) %0) #5 comdat align 2 {
entry:
  %this.addr = alloca ptr, align 8
  %.addr = alloca ptr, align 8
  store ptr %this, ptr %this.addr, align 8
  store ptr %0, ptr %.addr, align 8
  %this1 = load ptr, ptr %this.addr, align 8
  %1 = load ptr, ptr %.addr, align 8
  %call = call noundef nonnull align 8 dereferenceable(8) ptr @_ZNSt15__uniq_ptr_implISt3mapINSt7__cxx1112basic_stringIcSt11char_traitsIcESaIcEEESt7variantIJldS6_S0_IS6_mSt4lessIS6_ESaISt4pairIKS6_mEEEEES9_SaISA_ISB_SF_EEESt14default_deleteISI_EEaSEOSL_(ptr noundef nonnull align 8 dereferenceable(8) %this1, ptr noundef nonnull align 8 dereferenceable(8) %1) #3
  ret ptr %this1
}

; Function Attrs: mustprogress nounwind uwtable
define linkonce_odr hidden noundef nonnull align 8 dereferenceable(8) ptr @_ZNSt15__uniq_ptr_implISt3mapINSt7__cxx1112basic_stringIcSt11char_traitsIcESaIcEEESt7variantIJldS6_S0_IS6_mSt4lessIS6_ESaISt4pairIKS6_mEEEEES9_SaISA_ISB_SF_EEESt14default_deleteISI_EEaSEOSL_(ptr noundef nonnull align 8 dereferenceable(8) %this, ptr noundef nonnull align 8 dereferenceable(8) %__u) #5 comdat align 2 {
entry:
  %this.addr = alloca ptr, align 8
  %__u.addr = alloca ptr, align 8
  store ptr %this, ptr %this.addr, align 8
  store ptr %__u, ptr %__u.addr, align 8
  %this1 = load ptr, ptr %this.addr, align 8
  %0 = load ptr, ptr %__u.addr, align 8
  %call = call noundef ptr @_ZNSt15__uniq_ptr_implISt3mapINSt7__cxx1112basic_stringIcSt11char_traitsIcESaIcEEESt7variantIJldS6_S0_IS6_mSt4lessIS6_ESaISt4pairIKS6_mEEEEES9_SaISA_ISB_SF_EEESt14default_deleteISI_EE7releaseEv(ptr noundef nonnull align 8 dereferenceable(8) %0) #3
  call void @_ZNSt15__uniq_ptr_implISt3mapINSt7__cxx1112basic_stringIcSt11char_traitsIcESaIcEEESt7variantIJldS6_S0_IS6_mSt4lessIS6_ESaISt4pairIKS6_mEEEEES9_SaISA_ISB_SF_EEESt14default_deleteISI_EE5resetEPSI_(ptr noundef nonnull align 8 dereferenceable(8) %this1, ptr noundef %call) #3
  %1 = load ptr, ptr %__u.addr, align 8
  %call2 = call noundef nonnull align 1 dereferenceable(1) ptr @_ZNSt15__uniq_ptr_implISt3mapINSt7__cxx1112basic_stringIcSt11char_traitsIcESaIcEEESt7variantIJldS6_S0_IS6_mSt4lessIS6_ESaISt4pairIKS6_mEEEEES9_SaISA_ISB_SF_EEESt14default_deleteISI_EE10_M_deleterEv(ptr noundef nonnull align 8 dereferenceable(8) %1) #3
  %call3 = call noundef nonnull align 1 dereferenceable(1) ptr @_ZNSt15__uniq_ptr_implISt3mapINSt7__cxx1112basic_stringIcSt11char_traitsIcESaIcEEESt7variantIJldS6_S0_IS6_mSt4lessIS6_ESaISt4pairIKS6_mEEEEES9_SaISA_ISB_SF_EEESt14default_deleteISI_EE10_M_deleterEv(ptr noundef nonnull align 8 dereferenceable(8) %this1) #3
  ret ptr %this1
}

; Function Attrs: mustprogress nounwind uwtable
define linkonce_odr hidden void @_ZNSt15__uniq_ptr_implISt3mapINSt7__cxx1112basic_stringIcSt11char_traitsIcESaIcEEESt7variantIJldS6_S0_IS6_mSt4lessIS6_ESaISt4pairIKS6_mEEEEES9_SaISA_ISB_SF_EEESt14default_deleteISI_EE5resetEPSI_(ptr noundef nonnull align 8 dereferenceable(8) %this, ptr noundef %__p) #5 comdat align 2 personality ptr @__gxx_personality_v0 {
entry:
  %this.addr = alloca ptr, align 8
  %__p.addr = alloca ptr, align 8
  %__old_p = alloca ptr, align 8
  store ptr %this, ptr %this.addr, align 8
  store ptr %__p, ptr %__p.addr, align 8
  %this1 = load ptr, ptr %this.addr, align 8
  %call = call noundef nonnull align 8 dereferenceable(8) ptr @_ZNSt15__uniq_ptr_implISt3mapINSt7__cxx1112basic_stringIcSt11char_traitsIcESaIcEEESt7variantIJldS6_S0_IS6_mSt4lessIS6_ESaISt4pairIKS6_mEEEEES9_SaISA_ISB_SF_EEESt14default_deleteISI_EE6_M_ptrEv(ptr noundef nonnull align 8 dereferenceable(8) %this1) #3
  %0 = load ptr, ptr %call, align 8
  store ptr %0, ptr %__old_p, align 8
  %1 = load ptr, ptr %__p.addr, align 8
  %call2 = call noundef nonnull align 8 dereferenceable(8) ptr @_ZNSt15__uniq_ptr_implISt3mapINSt7__cxx1112basic_stringIcSt11char_traitsIcESaIcEEESt7variantIJldS6_S0_IS6_mSt4lessIS6_ESaISt4pairIKS6_mEEEEES9_SaISA_ISB_SF_EEESt14default_deleteISI_EE6_M_ptrEv(ptr noundef nonnull align 8 dereferenceable(8) %this1) #3
  store ptr %1, ptr %call2, align 8
  %2 = load ptr, ptr %__old_p, align 8
  %tobool = icmp ne ptr %2, null
  br i1 %tobool, label %if.then, label %if.end

if.then:                                          ; preds = %entry
  %call3 = call noundef nonnull align 1 dereferenceable(1) ptr @_ZNSt15__uniq_ptr_implISt3mapINSt7__cxx1112basic_stringIcSt11char_traitsIcESaIcEEESt7variantIJldS6_S0_IS6_mSt4lessIS6_ESaISt4pairIKS6_mEEEEES9_SaISA_ISB_SF_EEESt14default_deleteISI_EE10_M_deleterEv(ptr noundef nonnull align 8 dereferenceable(8) %this1) #3
  %3 = load ptr, ptr %__old_p, align 8
  invoke void @_ZNKSt14default_deleteISt3mapINSt7__cxx1112basic_stringIcSt11char_traitsIcESaIcEEESt7variantIJldS6_S0_IS6_mSt4lessIS6_ESaISt4pairIKS6_mEEEEES9_SaISA_ISB_SF_EEEEclEPSI_(ptr noundef nonnull align 1 dereferenceable(1) %call3, ptr noundef %3)
          to label %invoke.cont unwind label %terminate.lpad

invoke.cont:                                      ; preds = %if.then
  br label %if.end

if.end:                                           ; preds = %invoke.cont, %entry
  ret void

terminate.lpad:                                   ; preds = %if.then
  %4 = landingpad { ptr, i32 }
          catch ptr null
  %5 = extractvalue { ptr, i32 } %4, 0
  call void @__clang_call_terminate(ptr %5) #16
  unreachable
}

; Function Attrs: mustprogress nounwind uwtable
define linkonce_odr hidden noundef ptr @_ZNSt15__uniq_ptr_implISt3mapINSt7__cxx1112basic_stringIcSt11char_traitsIcESaIcEEESt7variantIJldS6_S0_IS6_mSt4lessIS6_ESaISt4pairIKS6_mEEEEES9_SaISA_ISB_SF_EEESt14default_deleteISI_EE7releaseEv(ptr noundef nonnull align 8 dereferenceable(8) %this) #5 comdat align 2 {
entry:
  %this.addr = alloca ptr, align 8
  %__p = alloca ptr, align 8
  store ptr %this, ptr %this.addr, align 8
  %this1 = load ptr, ptr %this.addr, align 8
  %call = call noundef nonnull align 8 dereferenceable(8) ptr @_ZNSt15__uniq_ptr_implISt3mapINSt7__cxx1112basic_stringIcSt11char_traitsIcESaIcEEESt7variantIJldS6_S0_IS6_mSt4lessIS6_ESaISt4pairIKS6_mEEEEES9_SaISA_ISB_SF_EEESt14default_deleteISI_EE6_M_ptrEv(ptr noundef nonnull align 8 dereferenceable(8) %this1) #3
  %0 = load ptr, ptr %call, align 8
  store ptr %0, ptr %__p, align 8
  %call2 = call noundef nonnull align 8 dereferenceable(8) ptr @_ZNSt15__uniq_ptr_implISt3mapINSt7__cxx1112basic_stringIcSt11char_traitsIcESaIcEEESt7variantIJldS6_S0_IS6_mSt4lessIS6_ESaISt4pairIKS6_mEEEEES9_SaISA_ISB_SF_EEESt14default_deleteISI_EE6_M_ptrEv(ptr noundef nonnull align 8 dereferenceable(8) %this1) #3
  store ptr null, ptr %call2, align 8
  %1 = load ptr, ptr %__p, align 8
  ret ptr %1
}

; Function Attrs: mustprogress nounwind uwtable
define linkonce_odr hidden noundef nonnull align 1 dereferenceable(1) ptr @_ZNSt15__uniq_ptr_implISt3mapINSt7__cxx1112basic_stringIcSt11char_traitsIcESaIcEEESt7variantIJldS6_S0_IS6_mSt4lessIS6_ESaISt4pairIKS6_mEEEEES9_SaISA_ISB_SF_EEESt14default_deleteISI_EE10_M_deleterEv(ptr noundef nonnull align 8 dereferenceable(8) %this) #5 comdat align 2 {
entry:
  %this.addr = alloca ptr, align 8
  store ptr %this, ptr %this.addr, align 8
  %this1 = load ptr, ptr %this.addr, align 8
  %_M_t = getelementptr inbounds %"class.std::__uniq_ptr_impl", ptr %this1, i32 0, i32 0
  %call = call noundef nonnull align 1 dereferenceable(1) ptr @_ZSt3getILm1EJPSt3mapINSt7__cxx1112basic_stringIcSt11char_traitsIcESaIcEEESt7variantIJldS6_S0_IS6_mSt4lessIS6_ESaISt4pairIKS6_mEEEEES9_SaISA_ISB_SF_EEESt14default_deleteISI_EEERNSt13tuple_elementIXT_ESt5tupleIJDpT0_EEE4typeERSQ_(ptr noundef nonnull align 8 dereferenceable(8) %_M_t) #3
  ret ptr %call
}

; Function Attrs: mustprogress nounwind uwtable
define linkonce_odr hidden noundef nonnull align 8 dereferenceable(8) ptr @_ZNSt15__uniq_ptr_implISt3mapINSt7__cxx1112basic_stringIcSt11char_traitsIcESaIcEEESt7variantIJldS6_S0_IS6_mSt4lessIS6_ESaISt4pairIKS6_mEEEEES9_SaISA_ISB_SF_EEESt14default_deleteISI_EE6_M_ptrEv(ptr noundef nonnull align 8 dereferenceable(8) %this) #5 comdat align 2 {
entry:
  %this.addr = alloca ptr, align 8
  store ptr %this, ptr %this.addr, align 8
  %this1 = load ptr, ptr %this.addr, align 8
  %_M_t = getelementptr inbounds %"class.std::__uniq_ptr_impl", ptr %this1, i32 0, i32 0
  %call = call noundef nonnull align 8 dereferenceable(8) ptr @_ZSt3getILm0EJPSt3mapINSt7__cxx1112basic_stringIcSt11char_traitsIcESaIcEEESt7variantIJldS6_S0_IS6_mSt4lessIS6_ESaISt4pairIKS6_mEEEEES9_SaISA_ISB_SF_EEESt14default_deleteISI_EEERNSt13tuple_elementIXT_ESt5tupleIJDpT0_EEE4typeERSQ_(ptr noundef nonnull align 8 dereferenceable(8) %_M_t) #3
  ret ptr %call
}

; Function Attrs: mustprogress nounwind uwtable
define linkonce_odr hidden void @_ZNKSt14default_deleteISt3mapINSt7__cxx1112basic_stringIcSt11char_traitsIcESaIcEEESt7variantIJldS6_S0_IS6_mSt4lessIS6_ESaISt4pairIKS6_mEEEEES9_SaISA_ISB_SF_EEEEclEPSI_(ptr noundef nonnull align 1 dereferenceable(1) %this, ptr noundef %__ptr) #5 comdat align 2 {
entry:
  %this.addr = alloca ptr, align 8
  %__ptr.addr = alloca ptr, align 8
  store ptr %this, ptr %this.addr, align 8
  store ptr %__ptr, ptr %__ptr.addr, align 8
  %0 = load ptr, ptr %__ptr.addr, align 8
  %isnull = icmp eq ptr %0, null
  br i1 %isnull, label %delete.end, label %delete.notnull

delete.notnull:                                   ; preds = %entry
  call void @_ZNSt3mapINSt7__cxx1112basic_stringIcSt11char_traitsIcESaIcEEESt7variantIJldS5_S_IS5_mSt4lessIS5_ESaISt4pairIKS5_mEEEEES8_SaIS9_ISA_SE_EEED2Ev(ptr noundef nonnull align 8 dereferenceable(48) %0) #3
  call void @_ZdlPv(ptr noundef %0) #17
  br label %delete.end

delete.end:                                       ; preds = %delete.notnull, %entry
  ret void
}

; Function Attrs: mustprogress nounwind uwtable
define linkonce_odr noundef nonnull align 8 dereferenceable(8) ptr @_ZSt3getILm0EJPSt3mapINSt7__cxx1112basic_stringIcSt11char_traitsIcESaIcEEESt7variantIJldS6_S0_IS6_mSt4lessIS6_ESaISt4pairIKS6_mEEEEES9_SaISA_ISB_SF_EEESt14default_deleteISI_EEERNSt13tuple_elementIXT_ESt5tupleIJDpT0_EEE4typeERSQ_(ptr noundef nonnull align 8 dereferenceable(8) %__t) #5 comdat {
entry:
  %__t.addr = alloca ptr, align 8
  store ptr %__t, ptr %__t.addr, align 8
  %0 = load ptr, ptr %__t.addr, align 8
  %call = call noundef nonnull align 8 dereferenceable(8) ptr @_ZSt12__get_helperILm0EPSt3mapINSt7__cxx1112basic_stringIcSt11char_traitsIcESaIcEEESt7variantIJldS6_S0_IS6_mSt4lessIS6_ESaISt4pairIKS6_mEEEEES9_SaISA_ISB_SF_EEEJSt14default_deleteISI_EEERT0_RSt11_Tuple_implIXT_EJSM_DpT1_EE(ptr noundef nonnull align 8 dereferenceable(8) %0) #3
  ret ptr %call
}

; Function Attrs: mustprogress nounwind uwtable
define linkonce_odr noundef nonnull align 8 dereferenceable(8) ptr @_ZSt12__get_helperILm0EPSt3mapINSt7__cxx1112basic_stringIcSt11char_traitsIcESaIcEEESt7variantIJldS6_S0_IS6_mSt4lessIS6_ESaISt4pairIKS6_mEEEEES9_SaISA_ISB_SF_EEEJSt14default_deleteISI_EEERT0_RSt11_Tuple_implIXT_EJSM_DpT1_EE(ptr noundef nonnull align 8 dereferenceable(8) %__t) #5 comdat {
entry:
  %__t.addr = alloca ptr, align 8
  store ptr %__t, ptr %__t.addr, align 8
  %0 = load ptr, ptr %__t.addr, align 8
  %call = call noundef nonnull align 8 dereferenceable(8) ptr @_ZNSt11_Tuple_implILm0EJPSt3mapINSt7__cxx1112basic_stringIcSt11char_traitsIcESaIcEEESt7variantIJldS6_S0_IS6_mSt4lessIS6_ESaISt4pairIKS6_mEEEEES9_SaISA_ISB_SF_EEESt14default_deleteISI_EEE7_M_headERSM_(ptr noundef nonnull align 8 dereferenceable(8) %0) #3
  ret ptr %call
}

; Function Attrs: mustprogress nounwind uwtable
define linkonce_odr hidden noundef nonnull align 8 dereferenceable(8) ptr @_ZNSt11_Tuple_implILm0EJPSt3mapINSt7__cxx1112basic_stringIcSt11char_traitsIcESaIcEEESt7variantIJldS6_S0_IS6_mSt4lessIS6_ESaISt4pairIKS6_mEEEEES9_SaISA_ISB_SF_EEESt14default_deleteISI_EEE7_M_headERSM_(ptr noundef nonnull align 8 dereferenceable(8) %__t) #5 comdat align 2 {
entry:
  %__t.addr = alloca ptr, align 8
  store ptr %__t, ptr %__t.addr, align 8
  %0 = load ptr, ptr %__t.addr, align 8
  %call = call noundef nonnull align 8 dereferenceable(8) ptr @_ZNSt10_Head_baseILm0EPSt3mapINSt7__cxx1112basic_stringIcSt11char_traitsIcESaIcEEESt7variantIJldS6_S0_IS6_mSt4lessIS6_ESaISt4pairIKS6_mEEEEES9_SaISA_ISB_SF_EEELb0EE7_M_headERSK_(ptr noundef nonnull align 8 dereferenceable(8) %0) #3
  ret ptr %call
}

; Function Attrs: mustprogress nounwind uwtable
define linkonce_odr hidden noundef nonnull align 8 dereferenceable(8) ptr @_ZNSt10_Head_baseILm0EPSt3mapINSt7__cxx1112basic_stringIcSt11char_traitsIcESaIcEEESt7variantIJldS6_S0_IS6_mSt4lessIS6_ESaISt4pairIKS6_mEEEEES9_SaISA_ISB_SF_EEELb0EE7_M_headERSK_(ptr noundef nonnull align 8 dereferenceable(8) %__b) #5 comdat align 2 {
entry:
  %__b.addr = alloca ptr, align 8
  store ptr %__b, ptr %__b.addr, align 8
  %0 = load ptr, ptr %__b.addr, align 8
  %_M_head_impl = getelementptr inbounds %"struct.std::_Head_base.1", ptr %0, i32 0, i32 0
  ret ptr %_M_head_impl
}

; Function Attrs: mustprogress nounwind uwtable
define linkonce_odr hidden void @_ZNSt3mapINSt7__cxx1112basic_stringIcSt11char_traitsIcESaIcEEESt7variantIJldS5_S_IS5_mSt4lessIS5_ESaISt4pairIKS5_mEEEEES8_SaIS9_ISA_SE_EEED2Ev(ptr noundef nonnull align 8 dereferenceable(48) %this) unnamed_addr #5 comdat align 2 {
entry:
  %this.addr = alloca ptr, align 8
  store ptr %this, ptr %this.addr, align 8
  %this1 = load ptr, ptr %this.addr, align 8
  %_M_t = getelementptr inbounds %"class.std::map.220", ptr %this1, i32 0, i32 0
  call void @_ZNSt8_Rb_treeINSt7__cxx1112basic_stringIcSt11char_traitsIcESaIcEEESt4pairIKS5_St7variantIJldS5_St3mapIS5_mSt4lessIS5_ESaIS6_IS7_mEEEEEESt10_Select1stISG_ESB_SaISG_EED2Ev(ptr noundef nonnull align 8 dereferenceable(48) %_M_t) #3
  ret void
}

; Function Attrs: mustprogress nounwind uwtable
define linkonce_odr hidden void @_ZNSt8_Rb_treeINSt7__cxx1112basic_stringIcSt11char_traitsIcESaIcEEESt4pairIKS5_St7variantIJldS5_St3mapIS5_mSt4lessIS5_ESaIS6_IS7_mEEEEEESt10_Select1stISG_ESB_SaISG_EED2Ev(ptr noundef nonnull align 8 dereferenceable(48) %this) unnamed_addr #5 comdat align 2 personality ptr @__gxx_personality_v0 {
entry:
  %this.addr = alloca ptr, align 8
  store ptr %this, ptr %this.addr, align 8
  %this1 = load ptr, ptr %this.addr, align 8
  %call = call noundef ptr @_ZNSt8_Rb_treeINSt7__cxx1112basic_stringIcSt11char_traitsIcESaIcEEESt4pairIKS5_St7variantIJldS5_St3mapIS5_mSt4lessIS5_ESaIS6_IS7_mEEEEEESt10_Select1stISG_ESB_SaISG_EE8_M_beginEv(ptr noundef nonnull align 8 dereferenceable(48) %this1) #3
  invoke void @_ZNSt8_Rb_treeINSt7__cxx1112basic_stringIcSt11char_traitsIcESaIcEEESt4pairIKS5_St7variantIJldS5_St3mapIS5_mSt4lessIS5_ESaIS6_IS7_mEEEEEESt10_Select1stISG_ESB_SaISG_EE8_M_eraseEPSt13_Rb_tree_nodeISG_E(ptr noundef nonnull align 8 dereferenceable(48) %this1, ptr noundef %call)
          to label %invoke.cont unwind label %terminate.lpad

invoke.cont:                                      ; preds = %entry
  %_M_impl = getelementptr inbounds %"class.std::_Rb_tree.221", ptr %this1, i32 0, i32 0
  call void @_ZNSt8_Rb_treeINSt7__cxx1112basic_stringIcSt11char_traitsIcESaIcEEESt4pairIKS5_St7variantIJldS5_St3mapIS5_mSt4lessIS5_ESaIS6_IS7_mEEEEEESt10_Select1stISG_ESB_SaISG_EE13_Rb_tree_implISB_Lb1EED2Ev(ptr noundef nonnull align 8 dereferenceable(48) %_M_impl) #3
  ret void

terminate.lpad:                                   ; preds = %entry
  %0 = landingpad { ptr, i32 }
          catch ptr null
  %1 = extractvalue { ptr, i32 } %0, 0
  call void @__clang_call_terminate(ptr %1) #16
  unreachable
}

; Function Attrs: mustprogress uwtable
define linkonce_odr void @_ZNSt8_Rb_treeINSt7__cxx1112basic_stringIcSt11char_traitsIcESaIcEEESt4pairIKS5_St7variantIJldS5_St3mapIS5_mSt4lessIS5_ESaIS6_IS7_mEEEEEESt10_Select1stISG_ESB_SaISG_EE8_M_eraseEPSt13_Rb_tree_nodeISG_E(ptr noundef nonnull align 8 dereferenceable(48) %this, ptr noundef %__x) #4 comdat align 2 {
entry:
  %this.addr = alloca ptr, align 8
  %__x.addr = alloca ptr, align 8
  %__y = alloca ptr, align 8
  store ptr %this, ptr %this.addr, align 8
  store ptr %__x, ptr %__x.addr, align 8
  %this1 = load ptr, ptr %this.addr, align 8
  br label %while.cond

while.cond:                                       ; preds = %while.body, %entry
  %0 = load ptr, ptr %__x.addr, align 8
  %cmp = icmp ne ptr %0, null
  br i1 %cmp, label %while.body, label %while.end

while.body:                                       ; preds = %while.cond
  %1 = load ptr, ptr %__x.addr, align 8
  %call = call noundef ptr @_ZNSt8_Rb_treeINSt7__cxx1112basic_stringIcSt11char_traitsIcESaIcEEESt4pairIKS5_St7variantIJldS5_St3mapIS5_mSt4lessIS5_ESaIS6_IS7_mEEEEEESt10_Select1stISG_ESB_SaISG_EE8_S_rightEPSt18_Rb_tree_node_base(ptr noundef %1) #3
  call void @_ZNSt8_Rb_treeINSt7__cxx1112basic_stringIcSt11char_traitsIcESaIcEEESt4pairIKS5_St7variantIJldS5_St3mapIS5_mSt4lessIS5_ESaIS6_IS7_mEEEEEESt10_Select1stISG_ESB_SaISG_EE8_M_eraseEPSt13_Rb_tree_nodeISG_E(ptr noundef nonnull align 8 dereferenceable(48) %this1, ptr noundef %call)
  %2 = load ptr, ptr %__x.addr, align 8
  %call2 = call noundef ptr @_ZNSt8_Rb_treeINSt7__cxx1112basic_stringIcSt11char_traitsIcESaIcEEESt4pairIKS5_St7variantIJldS5_St3mapIS5_mSt4lessIS5_ESaIS6_IS7_mEEEEEESt10_Select1stISG_ESB_SaISG_EE7_S_leftEPSt18_Rb_tree_node_base(ptr noundef %2) #3
  store ptr %call2, ptr %__y, align 8
  %3 = load ptr, ptr %__x.addr, align 8
  call void @_ZNSt8_Rb_treeINSt7__cxx1112basic_stringIcSt11char_traitsIcESaIcEEESt4pairIKS5_St7variantIJldS5_St3mapIS5_mSt4lessIS5_ESaIS6_IS7_mEEEEEESt10_Select1stISG_ESB_SaISG_EE12_M_drop_nodeEPSt13_Rb_tree_nodeISG_E(ptr noundef nonnull align 8 dereferenceable(48) %this1, ptr noundef %3) #3
  %4 = load ptr, ptr %__y, align 8
  store ptr %4, ptr %__x.addr, align 8
  br label %while.cond, !llvm.loop !6

while.end:                                        ; preds = %while.cond
  ret void
}

; Function Attrs: mustprogress nounwind uwtable
define linkonce_odr hidden noundef ptr @_ZNSt8_Rb_treeINSt7__cxx1112basic_stringIcSt11char_traitsIcESaIcEEESt4pairIKS5_St7variantIJldS5_St3mapIS5_mSt4lessIS5_ESaIS6_IS7_mEEEEEESt10_Select1stISG_ESB_SaISG_EE8_M_beginEv(ptr noundef nonnull align 8 dereferenceable(48) %this) #5 comdat align 2 {
entry:
  %this.addr = alloca ptr, align 8
  store ptr %this, ptr %this.addr, align 8
  %this1 = load ptr, ptr %this.addr, align 8
  %call = call noundef ptr @_ZNKSt8_Rb_treeINSt7__cxx1112basic_stringIcSt11char_traitsIcESaIcEEESt4pairIKS5_St7variantIJldS5_St3mapIS5_mSt4lessIS5_ESaIS6_IS7_mEEEEEESt10_Select1stISG_ESB_SaISG_EE9_M_mbeginEv(ptr noundef nonnull align 8 dereferenceable(48) %this1) #3
  ret ptr %call
}

; Function Attrs: mustprogress nounwind uwtable
define linkonce_odr hidden void @_ZNSt8_Rb_treeINSt7__cxx1112basic_stringIcSt11char_traitsIcESaIcEEESt4pairIKS5_St7variantIJldS5_St3mapIS5_mSt4lessIS5_ESaIS6_IS7_mEEEEEESt10_Select1stISG_ESB_SaISG_EE13_Rb_tree_implISB_Lb1EED2Ev(ptr noundef nonnull align 8 dereferenceable(48) %this) unnamed_addr #5 comdat align 2 {
entry:
  %this.addr = alloca ptr, align 8
  store ptr %this, ptr %this.addr, align 8
  %this1 = load ptr, ptr %this.addr, align 8
  call void @_ZNSaISt13_Rb_tree_nodeISt4pairIKNSt7__cxx1112basic_stringIcSt11char_traitsIcESaIcEEESt7variantIJldS6_St3mapIS6_mSt4lessIS6_ESaIS0_IS7_mEEEEEEEED2Ev(ptr noundef nonnull align 1 dereferenceable(1) %this1) #3
  ret void
}

; Function Attrs: mustprogress nounwind uwtable
define linkonce_odr hidden noundef ptr @_ZNSt8_Rb_treeINSt7__cxx1112basic_stringIcSt11char_traitsIcESaIcEEESt4pairIKS5_St7variantIJldS5_St3mapIS5_mSt4lessIS5_ESaIS6_IS7_mEEEEEESt10_Select1stISG_ESB_SaISG_EE8_S_rightEPSt18_Rb_tree_node_base(ptr noundef %__x) #5 comdat align 2 {
entry:
  %__x.addr = alloca ptr, align 8
  store ptr %__x, ptr %__x.addr, align 8
  %0 = load ptr, ptr %__x.addr, align 8
  %_M_right = getelementptr inbounds %"struct.std::_Rb_tree_node_base", ptr %0, i32 0, i32 3
  %1 = load ptr, ptr %_M_right, align 8
  ret ptr %1
}

; Function Attrs: mustprogress nounwind uwtable
define linkonce_odr hidden noundef ptr @_ZNSt8_Rb_treeINSt7__cxx1112basic_stringIcSt11char_traitsIcESaIcEEESt4pairIKS5_St7variantIJldS5_St3mapIS5_mSt4lessIS5_ESaIS6_IS7_mEEEEEESt10_Select1stISG_ESB_SaISG_EE7_S_leftEPSt18_Rb_tree_node_base(ptr noundef %__x) #5 comdat align 2 {
entry:
  %__x.addr = alloca ptr, align 8
  store ptr %__x, ptr %__x.addr, align 8
  %0 = load ptr, ptr %__x.addr, align 8
  %_M_left = getelementptr inbounds %"struct.std::_Rb_tree_node_base", ptr %0, i32 0, i32 2
  %1 = load ptr, ptr %_M_left, align 8
  ret ptr %1
}

; Function Attrs: mustprogress nounwind uwtable
define linkonce_odr hidden void @_ZNSt8_Rb_treeINSt7__cxx1112basic_stringIcSt11char_traitsIcESaIcEEESt4pairIKS5_St7variantIJldS5_St3mapIS5_mSt4lessIS5_ESaIS6_IS7_mEEEEEESt10_Select1stISG_ESB_SaISG_EE12_M_drop_nodeEPSt13_Rb_tree_nodeISG_E(ptr noundef nonnull align 8 dereferenceable(48) %this, ptr noundef %__p) #5 comdat align 2 {
entry:
  %this.addr = alloca ptr, align 8
  %__p.addr = alloca ptr, align 8
  store ptr %this, ptr %this.addr, align 8
  store ptr %__p, ptr %__p.addr, align 8
  %this1 = load ptr, ptr %this.addr, align 8
  %0 = load ptr, ptr %__p.addr, align 8
  call void @_ZNSt8_Rb_treeINSt7__cxx1112basic_stringIcSt11char_traitsIcESaIcEEESt4pairIKS5_St7variantIJldS5_St3mapIS5_mSt4lessIS5_ESaIS6_IS7_mEEEEEESt10_Select1stISG_ESB_SaISG_EE15_M_destroy_nodeEPSt13_Rb_tree_nodeISG_E(ptr noundef nonnull align 8 dereferenceable(48) %this1, ptr noundef %0) #3
  %1 = load ptr, ptr %__p.addr, align 8
  call void @_ZNSt8_Rb_treeINSt7__cxx1112basic_stringIcSt11char_traitsIcESaIcEEESt4pairIKS5_St7variantIJldS5_St3mapIS5_mSt4lessIS5_ESaIS6_IS7_mEEEEEESt10_Select1stISG_ESB_SaISG_EE11_M_put_nodeEPSt13_Rb_tree_nodeISG_E(ptr noundef nonnull align 8 dereferenceable(48) %this1, ptr noundef %1) #3
  ret void
}

; Function Attrs: mustprogress nounwind uwtable
define linkonce_odr hidden void @_ZNSt8_Rb_treeINSt7__cxx1112basic_stringIcSt11char_traitsIcESaIcEEESt4pairIKS5_St7variantIJldS5_St3mapIS5_mSt4lessIS5_ESaIS6_IS7_mEEEEEESt10_Select1stISG_ESB_SaISG_EE15_M_destroy_nodeEPSt13_Rb_tree_nodeISG_E(ptr noundef nonnull align 8 dereferenceable(48) %this, ptr noundef %__p) #5 comdat align 2 personality ptr @__gxx_personality_v0 {
entry:
  %this.addr = alloca ptr, align 8
  %__p.addr = alloca ptr, align 8
  store ptr %this, ptr %this.addr, align 8
  store ptr %__p, ptr %__p.addr, align 8
  %this1 = load ptr, ptr %this.addr, align 8
  %call = call noundef nonnull align 1 dereferenceable(1) ptr @_ZNSt8_Rb_treeINSt7__cxx1112basic_stringIcSt11char_traitsIcESaIcEEESt4pairIKS5_St7variantIJldS5_St3mapIS5_mSt4lessIS5_ESaIS6_IS7_mEEEEEESt10_Select1stISG_ESB_SaISG_EE21_M_get_Node_allocatorEv(ptr noundef nonnull align 8 dereferenceable(48) %this1) #3
  %0 = load ptr, ptr %__p.addr, align 8
  %call2 = invoke noundef ptr @_ZNSt13_Rb_tree_nodeISt4pairIKNSt7__cxx1112basic_stringIcSt11char_traitsIcESaIcEEESt7variantIJldS6_St3mapIS6_mSt4lessIS6_ESaIS0_IS7_mEEEEEEE9_M_valptrEv(ptr noundef nonnull align 8 dereferenceable(120) %0)
          to label %invoke.cont unwind label %terminate.lpad

invoke.cont:                                      ; preds = %entry
  call void @_ZNSt16allocator_traitsISaISt13_Rb_tree_nodeISt4pairIKNSt7__cxx1112basic_stringIcSt11char_traitsIcESaIcEEESt7variantIJldS7_St3mapIS7_mSt4lessIS7_ESaIS1_IS8_mEEEEEEEEE7destroyISH_EEvRSJ_PT_(ptr noundef nonnull align 1 dereferenceable(1) %call, ptr noundef %call2) #3
  ret void

terminate.lpad:                                   ; preds = %entry
  %1 = landingpad { ptr, i32 }
          catch ptr null
  %2 = extractvalue { ptr, i32 } %1, 0
  call void @__clang_call_terminate(ptr %2) #16
  unreachable
}

; Function Attrs: mustprogress nounwind uwtable
define linkonce_odr hidden void @_ZNSt8_Rb_treeINSt7__cxx1112basic_stringIcSt11char_traitsIcESaIcEEESt4pairIKS5_St7variantIJldS5_St3mapIS5_mSt4lessIS5_ESaIS6_IS7_mEEEEEESt10_Select1stISG_ESB_SaISG_EE11_M_put_nodeEPSt13_Rb_tree_nodeISG_E(ptr noundef nonnull align 8 dereferenceable(48) %this, ptr noundef %__p) #5 comdat align 2 personality ptr @__gxx_personality_v0 {
entry:
  %this.addr = alloca ptr, align 8
  %__p.addr = alloca ptr, align 8
  store ptr %this, ptr %this.addr, align 8
  store ptr %__p, ptr %__p.addr, align 8
  %this1 = load ptr, ptr %this.addr, align 8
  %call = call noundef nonnull align 1 dereferenceable(1) ptr @_ZNSt8_Rb_treeINSt7__cxx1112basic_stringIcSt11char_traitsIcESaIcEEESt4pairIKS5_St7variantIJldS5_St3mapIS5_mSt4lessIS5_ESaIS6_IS7_mEEEEEESt10_Select1stISG_ESB_SaISG_EE21_M_get_Node_allocatorEv(ptr noundef nonnull align 8 dereferenceable(48) %this1) #3
  %0 = load ptr, ptr %__p.addr, align 8
  invoke void @_ZNSt16allocator_traitsISaISt13_Rb_tree_nodeISt4pairIKNSt7__cxx1112basic_stringIcSt11char_traitsIcESaIcEEESt7variantIJldS7_St3mapIS7_mSt4lessIS7_ESaIS1_IS8_mEEEEEEEEE10deallocateERSJ_PSI_m(ptr noundef nonnull align 1 dereferenceable(1) %call, ptr noundef %0, i64 noundef 1)
          to label %invoke.cont unwind label %terminate.lpad

invoke.cont:                                      ; preds = %entry
  ret void

terminate.lpad:                                   ; preds = %entry
  %1 = landingpad { ptr, i32 }
          catch ptr null
  %2 = extractvalue { ptr, i32 } %1, 0
  call void @__clang_call_terminate(ptr %2) #16
  unreachable
}

; Function Attrs: mustprogress nounwind uwtable
define linkonce_odr hidden void @_ZNSt16allocator_traitsISaISt13_Rb_tree_nodeISt4pairIKNSt7__cxx1112basic_stringIcSt11char_traitsIcESaIcEEESt7variantIJldS7_St3mapIS7_mSt4lessIS7_ESaIS1_IS8_mEEEEEEEEE7destroyISH_EEvRSJ_PT_(ptr noundef nonnull align 1 dereferenceable(1) %__a, ptr noundef %__p) #5 comdat align 2 {
entry:
  %__a.addr = alloca ptr, align 8
  %__p.addr = alloca ptr, align 8
  store ptr %__a, ptr %__a.addr, align 8
  store ptr %__p, ptr %__p.addr, align 8
  %0 = load ptr, ptr %__a.addr, align 8
  %1 = load ptr, ptr %__p.addr, align 8
  call void @_ZNSt15__new_allocatorISt13_Rb_tree_nodeISt4pairIKNSt7__cxx1112basic_stringIcSt11char_traitsIcESaIcEEESt7variantIJldS7_St3mapIS7_mSt4lessIS7_ESaIS1_IS8_mEEEEEEEE7destroyISH_EEvPT_(ptr noundef nonnull align 1 dereferenceable(1) %0, ptr noundef %1) #3
  ret void
}

; Function Attrs: mustprogress nounwind uwtable
define linkonce_odr hidden noundef nonnull align 1 dereferenceable(1) ptr @_ZNSt8_Rb_treeINSt7__cxx1112basic_stringIcSt11char_traitsIcESaIcEEESt4pairIKS5_St7variantIJldS5_St3mapIS5_mSt4lessIS5_ESaIS6_IS7_mEEEEEESt10_Select1stISG_ESB_SaISG_EE21_M_get_Node_allocatorEv(ptr noundef nonnull align 8 dereferenceable(48) %this) #5 comdat align 2 {
entry:
  %this.addr = alloca ptr, align 8
  store ptr %this, ptr %this.addr, align 8
  %this1 = load ptr, ptr %this.addr, align 8
  %_M_impl = getelementptr inbounds %"class.std::_Rb_tree.221", ptr %this1, i32 0, i32 0
  ret ptr %_M_impl
}

; Function Attrs: mustprogress nounwind uwtable
define linkonce_odr hidden noundef ptr @_ZNSt13_Rb_tree_nodeISt4pairIKNSt7__cxx1112basic_stringIcSt11char_traitsIcESaIcEEESt7variantIJldS6_St3mapIS6_mSt4lessIS6_ESaIS0_IS7_mEEEEEEE9_M_valptrEv(ptr noundef nonnull align 8 dereferenceable(120) %this) #5 comdat align 2 {
entry:
  %this.addr = alloca ptr, align 8
  store ptr %this, ptr %this.addr, align 8
  %this1 = load ptr, ptr %this.addr, align 8
  %_M_storage = getelementptr inbounds %"struct.std::_Rb_tree_node.241", ptr %this1, i32 0, i32 1
  %call = call noundef ptr @_ZN9__gnu_cxx16__aligned_membufISt4pairIKNSt7__cxx1112basic_stringIcSt11char_traitsIcESaIcEEESt7variantIJldS7_St3mapIS7_mSt4lessIS7_ESaIS1_IS8_mEEEEEEE6_M_ptrEv(ptr noundef nonnull align 8 dereferenceable(88) %_M_storage) #3
  ret ptr %call
}

; Function Attrs: mustprogress nounwind uwtable
define linkonce_odr hidden void @_ZNSt15__new_allocatorISt13_Rb_tree_nodeISt4pairIKNSt7__cxx1112basic_stringIcSt11char_traitsIcESaIcEEESt7variantIJldS7_St3mapIS7_mSt4lessIS7_ESaIS1_IS8_mEEEEEEEE7destroyISH_EEvPT_(ptr noundef nonnull align 1 dereferenceable(1) %this, ptr noundef %__p) #5 comdat align 2 {
entry:
  %this.addr = alloca ptr, align 8
  %__p.addr = alloca ptr, align 8
  store ptr %this, ptr %this.addr, align 8
  store ptr %__p, ptr %__p.addr, align 8
  %0 = load ptr, ptr %__p.addr, align 8
  call void @_ZNSt4pairIKNSt7__cxx1112basic_stringIcSt11char_traitsIcESaIcEEESt7variantIJldS5_St3mapIS5_mSt4lessIS5_ESaIS_IS6_mEEEEEED2Ev(ptr noundef nonnull align 8 dereferenceable(88) %0) #3
  ret void
}

; Function Attrs: mustprogress nounwind uwtable
define linkonce_odr hidden void @_ZNSt4pairIKNSt7__cxx1112basic_stringIcSt11char_traitsIcESaIcEEESt7variantIJldS5_St3mapIS5_mSt4lessIS5_ESaIS_IS6_mEEEEEED2Ev(ptr noundef nonnull align 8 dereferenceable(88) %this) unnamed_addr #5 comdat align 2 {
entry:
  %this.addr = alloca ptr, align 8
  store ptr %this, ptr %this.addr, align 8
  %this1 = load ptr, ptr %this.addr, align 8
  %second = getelementptr inbounds %"struct.std::pair.236", ptr %this1, i32 0, i32 1
  call void @_ZNSt7variantIJldNSt7__cxx1112basic_stringIcSt11char_traitsIcESaIcEEESt3mapIS5_mSt4lessIS5_ESaISt4pairIKS5_mEEEEED2Ev(ptr noundef nonnull align 8 dereferenceable(49) %second) #3
  %first = getelementptr inbounds %"struct.std::pair.236", ptr %this1, i32 0, i32 0
  call void @_ZNSt7__cxx1112basic_stringIcSt11char_traitsIcESaIcEED1Ev(ptr noundef nonnull align 8 dereferenceable(32) %first) #3
  ret void
}

; Function Attrs: mustprogress nounwind uwtable
define linkonce_odr hidden noundef ptr @_ZN9__gnu_cxx16__aligned_membufISt4pairIKNSt7__cxx1112basic_stringIcSt11char_traitsIcESaIcEEESt7variantIJldS7_St3mapIS7_mSt4lessIS7_ESaIS1_IS8_mEEEEEEE6_M_ptrEv(ptr noundef nonnull align 8 dereferenceable(88) %this) #5 comdat align 2 {
entry:
  %this.addr = alloca ptr, align 8
  store ptr %this, ptr %this.addr, align 8
  %this1 = load ptr, ptr %this.addr, align 8
  %call = call noundef ptr @_ZN9__gnu_cxx16__aligned_membufISt4pairIKNSt7__cxx1112basic_stringIcSt11char_traitsIcESaIcEEESt7variantIJldS7_St3mapIS7_mSt4lessIS7_ESaIS1_IS8_mEEEEEEE7_M_addrEv(ptr noundef nonnull align 8 dereferenceable(88) %this1) #3
  ret ptr %call
}

; Function Attrs: mustprogress nounwind uwtable
define linkonce_odr hidden noundef ptr @_ZN9__gnu_cxx16__aligned_membufISt4pairIKNSt7__cxx1112basic_stringIcSt11char_traitsIcESaIcEEESt7variantIJldS7_St3mapIS7_mSt4lessIS7_ESaIS1_IS8_mEEEEEEE7_M_addrEv(ptr noundef nonnull align 8 dereferenceable(88) %this) #5 comdat align 2 {
entry:
  %this.addr = alloca ptr, align 8
  store ptr %this, ptr %this.addr, align 8
  %this1 = load ptr, ptr %this.addr, align 8
  %_M_storage = getelementptr inbounds %"struct.__gnu_cxx::__aligned_membuf.242", ptr %this1, i32 0, i32 0
  ret ptr %_M_storage
}

; Function Attrs: mustprogress uwtable
define linkonce_odr hidden void @_ZNSt16allocator_traitsISaISt13_Rb_tree_nodeISt4pairIKNSt7__cxx1112basic_stringIcSt11char_traitsIcESaIcEEESt7variantIJldS7_St3mapIS7_mSt4lessIS7_ESaIS1_IS8_mEEEEEEEEE10deallocateERSJ_PSI_m(ptr noundef nonnull align 1 dereferenceable(1) %__a, ptr noundef %__p, i64 noundef %__n) #4 comdat align 2 {
entry:
  %__a.addr = alloca ptr, align 8
  %__p.addr = alloca ptr, align 8
  %__n.addr = alloca i64, align 8
  store ptr %__a, ptr %__a.addr, align 8
  store ptr %__p, ptr %__p.addr, align 8
  store i64 %__n, ptr %__n.addr, align 8
  %0 = load ptr, ptr %__a.addr, align 8
  %1 = load ptr, ptr %__p.addr, align 8
  %2 = load i64, ptr %__n.addr, align 8
  call void @_ZNSt15__new_allocatorISt13_Rb_tree_nodeISt4pairIKNSt7__cxx1112basic_stringIcSt11char_traitsIcESaIcEEESt7variantIJldS7_St3mapIS7_mSt4lessIS7_ESaIS1_IS8_mEEEEEEEE10deallocateEPSI_m(ptr noundef nonnull align 1 dereferenceable(1) %0, ptr noundef %1, i64 noundef %2)
  ret void
}

; Function Attrs: mustprogress nounwind uwtable
define linkonce_odr hidden void @_ZNSt15__new_allocatorISt13_Rb_tree_nodeISt4pairIKNSt7__cxx1112basic_stringIcSt11char_traitsIcESaIcEEESt7variantIJldS7_St3mapIS7_mSt4lessIS7_ESaIS1_IS8_mEEEEEEEE10deallocateEPSI_m(ptr noundef nonnull align 1 dereferenceable(1) %this, ptr noundef %__p, i64 noundef %__n) #5 comdat align 2 {
entry:
  %this.addr = alloca ptr, align 8
  %__p.addr = alloca ptr, align 8
  %__n.addr = alloca i64, align 8
  store ptr %this, ptr %this.addr, align 8
  store ptr %__p, ptr %__p.addr, align 8
  store i64 %__n, ptr %__n.addr, align 8
  %0 = load ptr, ptr %__p.addr, align 8
  call void @_ZdlPv(ptr noundef %0) #17
  ret void
}

; Function Attrs: mustprogress nounwind uwtable
define linkonce_odr hidden noundef ptr @_ZNKSt8_Rb_treeINSt7__cxx1112basic_stringIcSt11char_traitsIcESaIcEEESt4pairIKS5_St7variantIJldS5_St3mapIS5_mSt4lessIS5_ESaIS6_IS7_mEEEEEESt10_Select1stISG_ESB_SaISG_EE9_M_mbeginEv(ptr noundef nonnull align 8 dereferenceable(48) %this) #5 comdat align 2 {
entry:
  %this.addr = alloca ptr, align 8
  store ptr %this, ptr %this.addr, align 8
  %this1 = load ptr, ptr %this.addr, align 8
  %_M_impl = getelementptr inbounds %"class.std::_Rb_tree.221", ptr %this1, i32 0, i32 0
  %add.ptr = getelementptr inbounds i8, ptr %_M_impl, i64 8
  %_M_header = getelementptr inbounds %"struct.std::_Rb_tree_header", ptr %add.ptr, i32 0, i32 0
  %_M_parent = getelementptr inbounds %"struct.std::_Rb_tree_node_base", ptr %_M_header, i32 0, i32 1
  %0 = load ptr, ptr %_M_parent, align 8
  ret ptr %0
}

; Function Attrs: mustprogress nounwind uwtable
define linkonce_odr hidden void @_ZNSaISt13_Rb_tree_nodeISt4pairIKNSt7__cxx1112basic_stringIcSt11char_traitsIcESaIcEEESt7variantIJldS6_St3mapIS6_mSt4lessIS6_ESaIS0_IS7_mEEEEEEEED2Ev(ptr noundef nonnull align 1 dereferenceable(1) %this) unnamed_addr #5 comdat align 2 {
entry:
  %this.addr = alloca ptr, align 8
  store ptr %this, ptr %this.addr, align 8
  %this1 = load ptr, ptr %this.addr, align 8
  call void @_ZNSt15__new_allocatorISt13_Rb_tree_nodeISt4pairIKNSt7__cxx1112basic_stringIcSt11char_traitsIcESaIcEEESt7variantIJldS7_St3mapIS7_mSt4lessIS7_ESaIS1_IS8_mEEEEEEEED2Ev(ptr noundef nonnull align 1 dereferenceable(1) %this1) #3
  ret void
}

; Function Attrs: mustprogress nounwind uwtable
define linkonce_odr hidden void @_ZNSt15__new_allocatorISt13_Rb_tree_nodeISt4pairIKNSt7__cxx1112basic_stringIcSt11char_traitsIcESaIcEEESt7variantIJldS7_St3mapIS7_mSt4lessIS7_ESaIS1_IS8_mEEEEEEEED2Ev(ptr noundef nonnull align 1 dereferenceable(1) %this) unnamed_addr #5 comdat align 2 {
entry:
  %this.addr = alloca ptr, align 8
  store ptr %this, ptr %this.addr, align 8
  ret void
}

; Function Attrs: mustprogress nounwind uwtable
define linkonce_odr noundef nonnull align 1 dereferenceable(1) ptr @_ZSt3getILm1EJPSt3mapINSt7__cxx1112basic_stringIcSt11char_traitsIcESaIcEEESt7variantIJldS6_S0_IS6_mSt4lessIS6_ESaISt4pairIKS6_mEEEEES9_SaISA_ISB_SF_EEESt14default_deleteISI_EEERNSt13tuple_elementIXT_ESt5tupleIJDpT0_EEE4typeERSQ_(ptr noundef nonnull align 8 dereferenceable(8) %__t) #5 comdat {
entry:
  %__t.addr = alloca ptr, align 8
  store ptr %__t, ptr %__t.addr, align 8
  %0 = load ptr, ptr %__t.addr, align 8
  %call = call noundef nonnull align 1 dereferenceable(1) ptr @_ZSt12__get_helperILm1ESt14default_deleteISt3mapINSt7__cxx1112basic_stringIcSt11char_traitsIcESaIcEEESt7variantIJldS7_S1_IS7_mSt4lessIS7_ESaISt4pairIKS7_mEEEEESA_SaISB_ISC_SG_EEEEJEERT0_RSt11_Tuple_implIXT_EJSL_DpT1_EE(ptr noundef nonnull align 1 dereferenceable(1) %0) #3
  ret ptr %call
}

; Function Attrs: mustprogress nounwind uwtable
define linkonce_odr noundef nonnull align 1 dereferenceable(1) ptr @_ZSt12__get_helperILm1ESt14default_deleteISt3mapINSt7__cxx1112basic_stringIcSt11char_traitsIcESaIcEEESt7variantIJldS7_S1_IS7_mSt4lessIS7_ESaISt4pairIKS7_mEEEEESA_SaISB_ISC_SG_EEEEJEERT0_RSt11_Tuple_implIXT_EJSL_DpT1_EE(ptr noundef nonnull align 1 dereferenceable(1) %__t) #5 comdat {
entry:
  %__t.addr = alloca ptr, align 8
  store ptr %__t, ptr %__t.addr, align 8
  %0 = load ptr, ptr %__t.addr, align 8
  %call = call noundef nonnull align 1 dereferenceable(1) ptr @_ZNSt11_Tuple_implILm1EJSt14default_deleteISt3mapINSt7__cxx1112basic_stringIcSt11char_traitsIcESaIcEEESt7variantIJldS7_S1_IS7_mSt4lessIS7_ESaISt4pairIKS7_mEEEEESA_SaISB_ISC_SG_EEEEEE7_M_headERSL_(ptr noundef nonnull align 1 dereferenceable(1) %0) #3
  ret ptr %call
}

; Function Attrs: mustprogress nounwind uwtable
define linkonce_odr hidden noundef nonnull align 1 dereferenceable(1) ptr @_ZNSt11_Tuple_implILm1EJSt14default_deleteISt3mapINSt7__cxx1112basic_stringIcSt11char_traitsIcESaIcEEESt7variantIJldS7_S1_IS7_mSt4lessIS7_ESaISt4pairIKS7_mEEEEESA_SaISB_ISC_SG_EEEEEE7_M_headERSL_(ptr noundef nonnull align 1 dereferenceable(1) %__t) #5 comdat align 2 {
entry:
  %__t.addr = alloca ptr, align 8
  store ptr %__t, ptr %__t.addr, align 8
  %0 = load ptr, ptr %__t.addr, align 8
  %call = call noundef nonnull align 1 dereferenceable(1) ptr @_ZNSt10_Head_baseILm1ESt14default_deleteISt3mapINSt7__cxx1112basic_stringIcSt11char_traitsIcESaIcEEESt7variantIJldS7_S1_IS7_mSt4lessIS7_ESaISt4pairIKS7_mEEEEESA_SaISB_ISC_SG_EEEELb1EE7_M_headERSL_(ptr noundef nonnull align 1 dereferenceable(1) %0) #3
  ret ptr %call
}

; Function Attrs: mustprogress nounwind uwtable
define linkonce_odr hidden noundef nonnull align 1 dereferenceable(1) ptr @_ZNSt10_Head_baseILm1ESt14default_deleteISt3mapINSt7__cxx1112basic_stringIcSt11char_traitsIcESaIcEEESt7variantIJldS7_S1_IS7_mSt4lessIS7_ESaISt4pairIKS7_mEEEEESA_SaISB_ISC_SG_EEEELb1EE7_M_headERSL_(ptr noundef nonnull align 1 dereferenceable(1) %__b) #5 comdat align 2 {
entry:
  %__b.addr = alloca ptr, align 8
  store ptr %__b, ptr %__b.addr, align 8
  %0 = load ptr, ptr %__b.addr, align 8
  ret ptr %0
}

; Function Attrs: mustprogress nounwind uwtable
define linkonce_odr hidden void @_ZNSt8__detail9__variant13_Variant_baseIJldNSt7__cxx1112basic_stringIcSt11char_traitsIcESaIcEEESt3mapIS7_mSt4lessIS7_ESaISt4pairIKS7_mEEEEED2Ev(ptr noundef nonnull align 8 dereferenceable(49) %this) unnamed_addr #5 comdat align 2 {
entry:
  %this.addr = alloca ptr, align 8
  store ptr %this, ptr %this.addr, align 8
  %this1 = load ptr, ptr %this.addr, align 8
  call void @_ZNSt8__detail9__variant17_Move_assign_baseILb0EJldNSt7__cxx1112basic_stringIcSt11char_traitsIcESaIcEEESt3mapIS7_mSt4lessIS7_ESaISt4pairIKS7_mEEEEED2Ev(ptr noundef nonnull align 8 dereferenceable(49) %this1) #3
  ret void
}

; Function Attrs: mustprogress nounwind uwtable
define linkonce_odr hidden void @_ZNSt8__detail9__variant17_Move_assign_baseILb0EJldNSt7__cxx1112basic_stringIcSt11char_traitsIcESaIcEEESt3mapIS7_mSt4lessIS7_ESaISt4pairIKS7_mEEEEED2Ev(ptr noundef nonnull align 8 dereferenceable(49) %this) unnamed_addr #5 comdat align 2 {
entry:
  %this.addr = alloca ptr, align 8
  store ptr %this, ptr %this.addr, align 8
  %this1 = load ptr, ptr %this.addr, align 8
  call void @_ZNSt8__detail9__variant17_Copy_assign_baseILb0EJldNSt7__cxx1112basic_stringIcSt11char_traitsIcESaIcEEESt3mapIS7_mSt4lessIS7_ESaISt4pairIKS7_mEEEEED2Ev(ptr noundef nonnull align 8 dereferenceable(49) %this1) #3
  ret void
}

; Function Attrs: mustprogress nounwind uwtable
define linkonce_odr hidden void @_ZNSt8__detail9__variant17_Copy_assign_baseILb0EJldNSt7__cxx1112basic_stringIcSt11char_traitsIcESaIcEEESt3mapIS7_mSt4lessIS7_ESaISt4pairIKS7_mEEEEED2Ev(ptr noundef nonnull align 8 dereferenceable(49) %this) unnamed_addr #5 comdat align 2 {
entry:
  %this.addr = alloca ptr, align 8
  store ptr %this, ptr %this.addr, align 8
  %this1 = load ptr, ptr %this.addr, align 8
  call void @_ZNSt8__detail9__variant15_Move_ctor_baseILb0EJldNSt7__cxx1112basic_stringIcSt11char_traitsIcESaIcEEESt3mapIS7_mSt4lessIS7_ESaISt4pairIKS7_mEEEEED2Ev(ptr noundef nonnull align 8 dereferenceable(49) %this1) #3
  ret void
}

; Function Attrs: mustprogress nounwind uwtable
define linkonce_odr hidden void @_ZNSt8__detail9__variant15_Move_ctor_baseILb0EJldNSt7__cxx1112basic_stringIcSt11char_traitsIcESaIcEEESt3mapIS7_mSt4lessIS7_ESaISt4pairIKS7_mEEEEED2Ev(ptr noundef nonnull align 8 dereferenceable(49) %this) unnamed_addr #5 comdat align 2 {
entry:
  %this.addr = alloca ptr, align 8
  store ptr %this, ptr %this.addr, align 8
  %this1 = load ptr, ptr %this.addr, align 8
  call void @_ZNSt8__detail9__variant15_Copy_ctor_baseILb0EJldNSt7__cxx1112basic_stringIcSt11char_traitsIcESaIcEEESt3mapIS7_mSt4lessIS7_ESaISt4pairIKS7_mEEEEED2Ev(ptr noundef nonnull align 8 dereferenceable(49) %this1) #3
  ret void
}

; Function Attrs: mustprogress nounwind uwtable
define linkonce_odr hidden void @_ZNSt8__detail9__variant15_Copy_ctor_baseILb0EJldNSt7__cxx1112basic_stringIcSt11char_traitsIcESaIcEEESt3mapIS7_mSt4lessIS7_ESaISt4pairIKS7_mEEEEED2Ev(ptr noundef nonnull align 8 dereferenceable(49) %this) unnamed_addr #5 comdat align 2 {
entry:
  %this.addr = alloca ptr, align 8
  store ptr %this, ptr %this.addr, align 8
  %this1 = load ptr, ptr %this.addr, align 8
  call void @_ZNSt8__detail9__variant16_Variant_storageILb0EJldNSt7__cxx1112basic_stringIcSt11char_traitsIcESaIcEEESt3mapIS7_mSt4lessIS7_ESaISt4pairIKS7_mEEEEED2Ev(ptr noundef nonnull align 8 dereferenceable(49) %this1) #3
  ret void
}

; Function Attrs: mustprogress nounwind uwtable
define linkonce_odr hidden void @_ZNSt8__detail9__variant16_Variant_storageILb0EJldNSt7__cxx1112basic_stringIcSt11char_traitsIcESaIcEEESt3mapIS7_mSt4lessIS7_ESaISt4pairIKS7_mEEEEED2Ev(ptr noundef nonnull align 8 dereferenceable(49) %this) unnamed_addr #5 comdat align 2 personality ptr @__gxx_personality_v0 {
entry:
  %this.addr = alloca ptr, align 8
  store ptr %this, ptr %this.addr, align 8
  %this1 = load ptr, ptr %this.addr, align 8
  invoke void @_ZNSt8__detail9__variant16_Variant_storageILb0EJldNSt7__cxx1112basic_stringIcSt11char_traitsIcESaIcEEESt3mapIS7_mSt4lessIS7_ESaISt4pairIKS7_mEEEEE8_M_resetEv(ptr noundef nonnull align 8 dereferenceable(49) %this1)
          to label %invoke.cont unwind label %terminate.lpad

invoke.cont:                                      ; preds = %entry
  ret void

terminate.lpad:                                   ; preds = %entry
  %0 = landingpad { ptr, i32 }
          catch ptr null
  %1 = extractvalue { ptr, i32 } %0, 0
  call void @__clang_call_terminate(ptr %1) #16
  unreachable
}

; Function Attrs: mustprogress uwtable
define linkonce_odr hidden void @_ZNSt8__detail9__variant16_Variant_storageILb0EJldNSt7__cxx1112basic_stringIcSt11char_traitsIcESaIcEEESt3mapIS7_mSt4lessIS7_ESaISt4pairIKS7_mEEEEE8_M_resetEv(ptr noundef nonnull align 8 dereferenceable(49) %this) #4 comdat align 2 {
entry:
  %this.addr = alloca ptr, align 8
  %ref.tmp = alloca %class.anon, align 1
  store ptr %this, ptr %this.addr, align 8
  %this1 = load ptr, ptr %this.addr, align 8
  %call = call noundef zeroext i1 @_ZNKSt8__detail9__variant16_Variant_storageILb0EJldNSt7__cxx1112basic_stringIcSt11char_traitsIcESaIcEEESt3mapIS7_mSt4lessIS7_ESaISt4pairIKS7_mEEEEE8_M_validEv(ptr noundef nonnull align 8 dereferenceable(49) %this1) #3
  br i1 %call, label %if.end, label %if.then

if.then:                                          ; preds = %entry
  br label %return

if.end:                                           ; preds = %entry
  %call2 = call noundef nonnull align 8 dereferenceable(49) ptr @_ZSt14__variant_castIJldNSt7__cxx1112basic_stringIcSt11char_traitsIcESaIcEEESt3mapIS5_mSt4lessIS5_ESaISt4pairIKS5_mEEEERNSt8__detail9__variant16_Variant_storageILb0EJldS5_SD_EEEEDcOT0_(ptr noundef nonnull align 8 dereferenceable(49) %this1)
  call void @_ZSt10__do_visitIvZNSt8__detail9__variant16_Variant_storageILb0EJldNSt7__cxx1112basic_stringIcSt11char_traitsIcESaIcEEESt3mapIS8_mSt4lessIS8_ESaISt4pairIKS8_mEEEEE8_M_resetEvEUlOT_E_JRSt7variantIJldS8_SG_EEEEDcOT0_DpOT1_(ptr noundef nonnull align 1 dereferenceable(1) %ref.tmp, ptr noundef nonnull align 8 dereferenceable(49) %call2)
  %_M_index = getelementptr inbounds %"struct.std::__detail::__variant::_Variant_storage", ptr %this1, i32 0, i32 1
  store i8 -1, ptr %_M_index, align 8
  br label %return

return:                                           ; preds = %if.end, %if.then
  ret void
}

; Function Attrs: mustprogress nounwind uwtable
define linkonce_odr hidden noundef zeroext i1 @_ZNKSt8__detail9__variant16_Variant_storageILb0EJldNSt7__cxx1112basic_stringIcSt11char_traitsIcESaIcEEESt3mapIS7_mSt4lessIS7_ESaISt4pairIKS7_mEEEEE8_M_validEv(ptr noundef nonnull align 8 dereferenceable(49) %this) #5 comdat align 2 {
entry:
  %this.addr = alloca ptr, align 8
  store ptr %this, ptr %this.addr, align 8
  %this1 = load ptr, ptr %this.addr, align 8
  %_M_index = getelementptr inbounds %"struct.std::__detail::__variant::_Variant_storage", ptr %this1, i32 0, i32 1
  %0 = load i8, ptr %_M_index, align 8
  %conv = zext i8 %0 to i32
  %cmp = icmp ne i32 %conv, 255
  ret i1 %cmp
}

; Function Attrs: mustprogress uwtable
define linkonce_odr hidden void @_ZSt10__do_visitIvZNSt8__detail9__variant16_Variant_storageILb0EJldNSt7__cxx1112basic_stringIcSt11char_traitsIcESaIcEEESt3mapIS8_mSt4lessIS8_ESaISt4pairIKS8_mEEEEE8_M_resetEvEUlOT_E_JRSt7variantIJldS8_SG_EEEEDcOT0_DpOT1_(ptr noundef nonnull align 1 dereferenceable(1) %__visitor, ptr noundef nonnull align 8 dereferenceable(49) %__variants) #4 comdat {
entry:
  %__visitor.addr = alloca ptr, align 8
  %__variants.addr = alloca ptr, align 8
  %__max = alloca i64, align 8
  %__n = alloca i64, align 8
  %__v0 = alloca ptr, align 8
  %ref.tmp = alloca %class.anon.243, align 1
  store ptr %__visitor, ptr %__visitor.addr, align 8
  store ptr %__variants, ptr %__variants.addr, align 8
  store i64 11, ptr %__max, align 8
  store i64 4, ptr %__n, align 8
  %0 = load ptr, ptr %__variants.addr, align 8
  %call = call noundef nonnull align 8 dereferenceable(49) ptr (ptr, ptr, ...) @_ZZSt10__do_visitIvZNSt8__detail9__variant16_Variant_storageILb0EJldNSt7__cxx1112basic_stringIcSt11char_traitsIcESaIcEEESt3mapIS8_mSt4lessIS8_ESaISt4pairIKS8_mEEEEE8_M_resetEvEUlOT_E_JRSt7variantIJldS8_SG_EEEEDcOT0_DpOT1_ENKUlSN_zE_clB5cxx11ESN_z(ptr noundef nonnull align 1 dereferenceable(1) %ref.tmp, ptr noundef nonnull align 8 dereferenceable(49) %0)
  store ptr %call, ptr %__v0, align 8
  %1 = load ptr, ptr %__v0, align 8
  %call1 = call noundef i64 @_ZNKSt7variantIJldNSt7__cxx1112basic_stringIcSt11char_traitsIcESaIcEEESt3mapIS5_mSt4lessIS5_ESaISt4pairIKS5_mEEEEE5indexEv(ptr noundef nonnull align 8 dereferenceable(49) %1) #3
  switch i64 %call1, label %sw.default [
    i64 0, label %sw.bb
    i64 1, label %sw.bb2
    i64 2, label %sw.bb3
    i64 3, label %sw.bb4
    i64 4, label %sw.bb5
    i64 5, label %sw.bb6
    i64 6, label %sw.bb7
    i64 7, label %sw.bb8
    i64 8, label %sw.bb9
    i64 9, label %sw.bb10
    i64 10, label %sw.bb11
    i64 -1, label %sw.bb12
  ]

sw.bb:                                            ; preds = %entry
  %2 = load ptr, ptr %__visitor.addr, align 8
  %3 = load ptr, ptr %__v0, align 8
  call void @_ZNSt8__detail9__variant17__gen_vtable_implINS0_12_Multi_arrayIPFvOZNS0_16_Variant_storageILb0EJldNSt7__cxx1112basic_stringIcSt11char_traitsIcESaIcEEESt3mapIS9_mSt4lessIS9_ESaISt4pairIKS9_mEEEEE8_M_resetEvEUlOT_E_RSt7variantIJldS9_SH_EEEJEEESt16integer_sequenceImJLm0EEEE14__visit_invokeESM_SP_(ptr noundef nonnull align 1 dereferenceable(1) %2, ptr noundef nonnull align 8 dereferenceable(49) %3)
  br label %return

sw.bb2:                                           ; preds = %entry
  %4 = load ptr, ptr %__visitor.addr, align 8
  %5 = load ptr, ptr %__v0, align 8
  call void @_ZNSt8__detail9__variant17__gen_vtable_implINS0_12_Multi_arrayIPFvOZNS0_16_Variant_storageILb0EJldNSt7__cxx1112basic_stringIcSt11char_traitsIcESaIcEEESt3mapIS9_mSt4lessIS9_ESaISt4pairIKS9_mEEEEE8_M_resetEvEUlOT_E_RSt7variantIJldS9_SH_EEEJEEESt16integer_sequenceImJLm1EEEE14__visit_invokeESM_SP_(ptr noundef nonnull align 1 dereferenceable(1) %4, ptr noundef nonnull align 8 dereferenceable(49) %5)
  br label %return

sw.bb3:                                           ; preds = %entry
  %6 = load ptr, ptr %__visitor.addr, align 8
  %7 = load ptr, ptr %__v0, align 8
  call void @_ZNSt8__detail9__variant17__gen_vtable_implINS0_12_Multi_arrayIPFvOZNS0_16_Variant_storageILb0EJldNSt7__cxx1112basic_stringIcSt11char_traitsIcESaIcEEESt3mapIS9_mSt4lessIS9_ESaISt4pairIKS9_mEEEEE8_M_resetEvEUlOT_E_RSt7variantIJldS9_SH_EEEJEEESt16integer_sequenceImJLm2EEEE14__visit_invokeESM_SP_(ptr noundef nonnull align 1 dereferenceable(1) %6, ptr noundef nonnull align 8 dereferenceable(49) %7)
  br label %return

sw.bb4:                                           ; preds = %entry
  %8 = load ptr, ptr %__visitor.addr, align 8
  %9 = load ptr, ptr %__v0, align 8
  call void @_ZNSt8__detail9__variant17__gen_vtable_implINS0_12_Multi_arrayIPFvOZNS0_16_Variant_storageILb0EJldNSt7__cxx1112basic_stringIcSt11char_traitsIcESaIcEEESt3mapIS9_mSt4lessIS9_ESaISt4pairIKS9_mEEEEE8_M_resetEvEUlOT_E_RSt7variantIJldS9_SH_EEEJEEESt16integer_sequenceImJLm3EEEE14__visit_invokeESM_SP_(ptr noundef nonnull align 1 dereferenceable(1) %8, ptr noundef nonnull align 8 dereferenceable(49) %9)
  br label %return

sw.bb5:                                           ; preds = %entry
  unreachable

sw.bb6:                                           ; preds = %entry
  unreachable

sw.bb7:                                           ; preds = %entry
  unreachable

sw.bb8:                                           ; preds = %entry
  unreachable

sw.bb9:                                           ; preds = %entry
  unreachable

sw.bb10:                                          ; preds = %entry
  unreachable

sw.bb11:                                          ; preds = %entry
  unreachable

sw.bb12:                                          ; preds = %entry
  unreachable

sw.default:                                       ; preds = %entry
  unreachable

return:                                           ; preds = %sw.bb4, %sw.bb3, %sw.bb2, %sw.bb
  ret void
}

; Function Attrs: mustprogress nounwind uwtable
define linkonce_odr noundef nonnull align 8 dereferenceable(49) ptr @_ZSt14__variant_castIJldNSt7__cxx1112basic_stringIcSt11char_traitsIcESaIcEEESt3mapIS5_mSt4lessIS5_ESaISt4pairIKS5_mEEEERNSt8__detail9__variant16_Variant_storageILb0EJldS5_SD_EEEEDcOT0_(ptr noundef nonnull align 8 dereferenceable(49) %__rhs) #5 comdat {
entry:
  %__rhs.addr = alloca ptr, align 8
  store ptr %__rhs, ptr %__rhs.addr, align 8
  %0 = load ptr, ptr %__rhs.addr, align 8
  ret ptr %0
}

; Function Attrs: mustprogress nounwind uwtable
define linkonce_odr hidden noundef nonnull align 8 dereferenceable(49) ptr @_ZZSt10__do_visitIvZNSt8__detail9__variant16_Variant_storageILb0EJldNSt7__cxx1112basic_stringIcSt11char_traitsIcESaIcEEESt3mapIS8_mSt4lessIS8_ESaISt4pairIKS8_mEEEEE8_M_resetEvEUlOT_E_JRSt7variantIJldS8_SG_EEEEDcOT0_DpOT1_ENKUlSN_zE_clB5cxx11ESN_z(ptr noundef nonnull align 1 dereferenceable(1) %this, ptr noundef nonnull align 8 dereferenceable(49) %__v, ...) #5 comdat align 2 {
entry:
  %this.addr = alloca ptr, align 8
  %__v.addr = alloca ptr, align 8
  store ptr %this, ptr %this.addr, align 8
  store ptr %__v, ptr %__v.addr, align 8
  %0 = load ptr, ptr %__v.addr, align 8
  ret ptr %0
}

; Function Attrs: mustprogress nounwind uwtable
define linkonce_odr hidden noundef i64 @_ZNKSt7variantIJldNSt7__cxx1112basic_stringIcSt11char_traitsIcESaIcEEESt3mapIS5_mSt4lessIS5_ESaISt4pairIKS5_mEEEEE5indexEv(ptr noundef nonnull align 8 dereferenceable(49) %this) #5 comdat align 2 {
entry:
  %this.addr = alloca ptr, align 8
  store ptr %this, ptr %this.addr, align 8
  %this1 = load ptr, ptr %this.addr, align 8
  %_M_index = getelementptr inbounds %"struct.std::__detail::__variant::_Variant_storage", ptr %this1, i32 0, i32 1
  %0 = load i8, ptr %_M_index, align 8
  %conv = sext i8 %0 to i64
  ret i64 %conv
}

; Function Attrs: mustprogress uwtable
define linkonce_odr hidden void @_ZNSt8__detail9__variant17__gen_vtable_implINS0_12_Multi_arrayIPFvOZNS0_16_Variant_storageILb0EJldNSt7__cxx1112basic_stringIcSt11char_traitsIcESaIcEEESt3mapIS9_mSt4lessIS9_ESaISt4pairIKS9_mEEEEE8_M_resetEvEUlOT_E_RSt7variantIJldS9_SH_EEEJEEESt16integer_sequenceImJLm0EEEE14__visit_invokeESM_SP_(ptr noundef nonnull align 1 dereferenceable(1) %__visitor, ptr noundef nonnull align 8 dereferenceable(49) %__vars) #4 comdat align 2 {
entry:
  %__visitor.addr = alloca ptr, align 8
  %__vars.addr = alloca ptr, align 8
  store ptr %__visitor, ptr %__visitor.addr, align 8
  store ptr %__vars, ptr %__vars.addr, align 8
  %0 = load ptr, ptr %__visitor.addr, align 8
  %1 = load ptr, ptr %__vars.addr, align 8
  %call = call noundef nonnull align 8 dereferenceable(8) ptr @_ZNSt8__detail9__variant5__getILm0ERSt7variantIJldNSt7__cxx1112basic_stringIcSt11char_traitsIcESaIcEEESt3mapIS8_mSt4lessIS8_ESaISt4pairIKS8_mEEEEEEEDcOT0_(ptr noundef nonnull align 8 dereferenceable(49) %1) #3
  call void @_ZSt10__invoke_rIvZNSt8__detail9__variant16_Variant_storageILb0EJldNSt7__cxx1112basic_stringIcSt11char_traitsIcESaIcEEESt3mapIS8_mSt4lessIS8_ESaISt4pairIKS8_mEEEEE8_M_resetEvEUlOT_E_JRlEENSt9enable_ifIX16is_invocable_r_vISI_T0_DpT1_EESI_E4typeEOSN_DpOSO_(ptr noundef nonnull align 1 dereferenceable(1) %0, ptr noundef nonnull align 8 dereferenceable(8) %call)
  ret void
}

; Function Attrs: mustprogress uwtable
define linkonce_odr hidden void @_ZNSt8__detail9__variant17__gen_vtable_implINS0_12_Multi_arrayIPFvOZNS0_16_Variant_storageILb0EJldNSt7__cxx1112basic_stringIcSt11char_traitsIcESaIcEEESt3mapIS9_mSt4lessIS9_ESaISt4pairIKS9_mEEEEE8_M_resetEvEUlOT_E_RSt7variantIJldS9_SH_EEEJEEESt16integer_sequenceImJLm1EEEE14__visit_invokeESM_SP_(ptr noundef nonnull align 1 dereferenceable(1) %__visitor, ptr noundef nonnull align 8 dereferenceable(49) %__vars) #4 comdat align 2 {
entry:
  %__visitor.addr = alloca ptr, align 8
  %__vars.addr = alloca ptr, align 8
  store ptr %__visitor, ptr %__visitor.addr, align 8
  store ptr %__vars, ptr %__vars.addr, align 8
  %0 = load ptr, ptr %__visitor.addr, align 8
  %1 = load ptr, ptr %__vars.addr, align 8
  %call = call noundef nonnull align 8 dereferenceable(8) ptr @_ZNSt8__detail9__variant5__getILm1ERSt7variantIJldNSt7__cxx1112basic_stringIcSt11char_traitsIcESaIcEEESt3mapIS8_mSt4lessIS8_ESaISt4pairIKS8_mEEEEEEEDcOT0_(ptr noundef nonnull align 8 dereferenceable(49) %1) #3
  call void @_ZSt10__invoke_rIvZNSt8__detail9__variant16_Variant_storageILb0EJldNSt7__cxx1112basic_stringIcSt11char_traitsIcESaIcEEESt3mapIS8_mSt4lessIS8_ESaISt4pairIKS8_mEEEEE8_M_resetEvEUlOT_E_JRdEENSt9enable_ifIX16is_invocable_r_vISI_T0_DpT1_EESI_E4typeEOSN_DpOSO_(ptr noundef nonnull align 1 dereferenceable(1) %0, ptr noundef nonnull align 8 dereferenceable(8) %call)
  ret void
}

; Function Attrs: mustprogress uwtable
define linkonce_odr hidden void @_ZNSt8__detail9__variant17__gen_vtable_implINS0_12_Multi_arrayIPFvOZNS0_16_Variant_storageILb0EJldNSt7__cxx1112basic_stringIcSt11char_traitsIcESaIcEEESt3mapIS9_mSt4lessIS9_ESaISt4pairIKS9_mEEEEE8_M_resetEvEUlOT_E_RSt7variantIJldS9_SH_EEEJEEESt16integer_sequenceImJLm2EEEE14__visit_invokeESM_SP_(ptr noundef nonnull align 1 dereferenceable(1) %__visitor, ptr noundef nonnull align 8 dereferenceable(49) %__vars) #4 comdat align 2 {
entry:
  %__visitor.addr = alloca ptr, align 8
  %__vars.addr = alloca ptr, align 8
  store ptr %__visitor, ptr %__visitor.addr, align 8
  store ptr %__vars, ptr %__vars.addr, align 8
  %0 = load ptr, ptr %__visitor.addr, align 8
  %1 = load ptr, ptr %__vars.addr, align 8
  %call = call noundef nonnull align 8 dereferenceable(32) ptr @_ZNSt8__detail9__variant5__getILm2ERSt7variantIJldNSt7__cxx1112basic_stringIcSt11char_traitsIcESaIcEEESt3mapIS8_mSt4lessIS8_ESaISt4pairIKS8_mEEEEEEEDcOT0_(ptr noundef nonnull align 8 dereferenceable(49) %1) #3
  call void @_ZSt10__invoke_rIvZNSt8__detail9__variant16_Variant_storageILb0EJldNSt7__cxx1112basic_stringIcSt11char_traitsIcESaIcEEESt3mapIS8_mSt4lessIS8_ESaISt4pairIKS8_mEEEEE8_M_resetEvEUlOT_E_JRS8_EENSt9enable_ifIX16is_invocable_r_vISI_T0_DpT1_EESI_E4typeEOSN_DpOSO_(ptr noundef nonnull align 1 dereferenceable(1) %0, ptr noundef nonnull align 8 dereferenceable(32) %call)
  ret void
}

; Function Attrs: mustprogress uwtable
define linkonce_odr hidden void @_ZNSt8__detail9__variant17__gen_vtable_implINS0_12_Multi_arrayIPFvOZNS0_16_Variant_storageILb0EJldNSt7__cxx1112basic_stringIcSt11char_traitsIcESaIcEEESt3mapIS9_mSt4lessIS9_ESaISt4pairIKS9_mEEEEE8_M_resetEvEUlOT_E_RSt7variantIJldS9_SH_EEEJEEESt16integer_sequenceImJLm3EEEE14__visit_invokeESM_SP_(ptr noundef nonnull align 1 dereferenceable(1) %__visitor, ptr noundef nonnull align 8 dereferenceable(49) %__vars) #4 comdat align 2 {
entry:
  %__visitor.addr = alloca ptr, align 8
  %__vars.addr = alloca ptr, align 8
  store ptr %__visitor, ptr %__visitor.addr, align 8
  store ptr %__vars, ptr %__vars.addr, align 8
  %0 = load ptr, ptr %__visitor.addr, align 8
  %1 = load ptr, ptr %__vars.addr, align 8
  %call = call noundef nonnull align 8 dereferenceable(48) ptr @_ZNSt8__detail9__variant5__getILm3ERSt7variantIJldNSt7__cxx1112basic_stringIcSt11char_traitsIcESaIcEEESt3mapIS8_mSt4lessIS8_ESaISt4pairIKS8_mEEEEEEEDcOT0_(ptr noundef nonnull align 8 dereferenceable(49) %1) #3
  call void @_ZSt10__invoke_rIvZNSt8__detail9__variant16_Variant_storageILb0EJldNSt7__cxx1112basic_stringIcSt11char_traitsIcESaIcEEESt3mapIS8_mSt4lessIS8_ESaISt4pairIKS8_mEEEEE8_M_resetEvEUlOT_E_JRSG_EENSt9enable_ifIX16is_invocable_r_vISI_T0_DpT1_EESI_E4typeEOSN_DpOSO_(ptr noundef nonnull align 1 dereferenceable(1) %0, ptr noundef nonnull align 8 dereferenceable(48) %call)
  ret void
}

; Function Attrs: mustprogress uwtable
define linkonce_odr hidden void @_ZSt10__invoke_rIvZNSt8__detail9__variant16_Variant_storageILb0EJldNSt7__cxx1112basic_stringIcSt11char_traitsIcESaIcEEESt3mapIS8_mSt4lessIS8_ESaISt4pairIKS8_mEEEEE8_M_resetEvEUlOT_E_JRlEENSt9enable_ifIX16is_invocable_r_vISI_T0_DpT1_EESI_E4typeEOSN_DpOSO_(ptr noundef nonnull align 1 dereferenceable(1) %__fn, ptr noundef nonnull align 8 dereferenceable(8) %__args) #4 comdat {
entry:
  %__fn.addr = alloca ptr, align 8
  %__args.addr = alloca ptr, align 8
  store ptr %__fn, ptr %__fn.addr, align 8
  store ptr %__args, ptr %__args.addr, align 8
  %0 = load ptr, ptr %__fn.addr, align 8
  %1 = load ptr, ptr %__args.addr, align 8
  call void @_ZSt13__invoke_implIvZNSt8__detail9__variant16_Variant_storageILb0EJldNSt7__cxx1112basic_stringIcSt11char_traitsIcESaIcEEESt3mapIS8_mSt4lessIS8_ESaISt4pairIKS8_mEEEEE8_M_resetEvEUlOT_E_JRlEESI_St14__invoke_otherOT0_DpOT1_(ptr noundef nonnull align 1 dereferenceable(1) %0, ptr noundef nonnull align 8 dereferenceable(8) %1)
  ret void
}

; Function Attrs: mustprogress nounwind uwtable
define linkonce_odr noundef nonnull align 8 dereferenceable(8) ptr @_ZNSt8__detail9__variant5__getILm0ERSt7variantIJldNSt7__cxx1112basic_stringIcSt11char_traitsIcESaIcEEESt3mapIS8_mSt4lessIS8_ESaISt4pairIKS8_mEEEEEEEDcOT0_(ptr noundef nonnull align 8 dereferenceable(49) %__v) #5 comdat {
entry:
  %__v.addr = alloca ptr, align 8
  store ptr %__v, ptr %__v.addr, align 8
  %0 = load ptr, ptr %__v.addr, align 8
  %_M_u = getelementptr inbounds %"struct.std::__detail::__variant::_Variant_storage", ptr %0, i32 0, i32 0
  %call = call noundef nonnull align 8 dereferenceable(8) ptr @_ZNSt8__detail9__variant7__get_nILm0ERNS0_15_Variadic_unionIJldNSt7__cxx1112basic_stringIcSt11char_traitsIcESaIcEEESt3mapIS8_mSt4lessIS8_ESaISt4pairIKS8_mEEEEEEEEDcOT0_(ptr noundef nonnull align 8 dereferenceable(48) %_M_u) #3
  ret ptr %call
}

; Function Attrs: mustprogress uwtable
define linkonce_odr hidden void @_ZSt13__invoke_implIvZNSt8__detail9__variant16_Variant_storageILb0EJldNSt7__cxx1112basic_stringIcSt11char_traitsIcESaIcEEESt3mapIS8_mSt4lessIS8_ESaISt4pairIKS8_mEEEEE8_M_resetEvEUlOT_E_JRlEESI_St14__invoke_otherOT0_DpOT1_(ptr noundef nonnull align 1 dereferenceable(1) %__f, ptr noundef nonnull align 8 dereferenceable(8) %__args) #4 comdat {
entry:
  %__f.addr = alloca ptr, align 8
  %__args.addr = alloca ptr, align 8
  store ptr %__f, ptr %__f.addr, align 8
  store ptr %__args, ptr %__args.addr, align 8
  %0 = load ptr, ptr %__f.addr, align 8
  %1 = load ptr, ptr %__args.addr, align 8
  call void @_ZZNSt8__detail9__variant16_Variant_storageILb0EJldNSt7__cxx1112basic_stringIcSt11char_traitsIcESaIcEEESt3mapIS7_mSt4lessIS7_ESaISt4pairIKS7_mEEEEE8_M_resetEvENUlOT_E_clIRlEEDaSI_(ptr noundef nonnull align 1 dereferenceable(1) %0, ptr noundef nonnull align 8 dereferenceable(8) %1)
  ret void
}

; Function Attrs: mustprogress uwtable
define linkonce_odr hidden void @_ZZNSt8__detail9__variant16_Variant_storageILb0EJldNSt7__cxx1112basic_stringIcSt11char_traitsIcESaIcEEESt3mapIS7_mSt4lessIS7_ESaISt4pairIKS7_mEEEEE8_M_resetEvENUlOT_E_clIRlEEDaSI_(ptr noundef nonnull align 1 dereferenceable(1) %this, ptr noundef nonnull align 8 dereferenceable(8) %__this_mem) #4 comdat align 2 {
entry:
  %this.addr = alloca ptr, align 8
  %__this_mem.addr = alloca ptr, align 8
  store ptr %this, ptr %this.addr, align 8
  store ptr %__this_mem, ptr %__this_mem.addr, align 8
  %0 = load ptr, ptr %__this_mem.addr, align 8
  call void @_ZSt8_DestroyIlEvPT_(ptr noundef %0)
  ret void
}

; Function Attrs: mustprogress nounwind uwtable
define linkonce_odr void @_ZSt8_DestroyIlEvPT_(ptr noundef %__pointer) #5 comdat {
entry:
  %__pointer.addr = alloca ptr, align 8
  store ptr %__pointer, ptr %__pointer.addr, align 8
  ret void
}

; Function Attrs: mustprogress nounwind uwtable
define linkonce_odr noundef nonnull align 8 dereferenceable(8) ptr @_ZNSt8__detail9__variant7__get_nILm0ERNS0_15_Variadic_unionIJldNSt7__cxx1112basic_stringIcSt11char_traitsIcESaIcEEESt3mapIS8_mSt4lessIS8_ESaISt4pairIKS8_mEEEEEEEEDcOT0_(ptr noundef nonnull align 8 dereferenceable(48) %__u) #5 comdat {
entry:
  %__u.addr = alloca ptr, align 8
  store ptr %__u, ptr %__u.addr, align 8
  %0 = load ptr, ptr %__u.addr, align 8
  %call = call noundef nonnull align 8 dereferenceable(8) ptr @_ZNRSt8__detail9__variant14_UninitializedIlLb1EE6_M_getEv(ptr noundef nonnull align 8 dereferenceable(8) %0) #3
  ret ptr %call
}

; Function Attrs: mustprogress nounwind uwtable
define linkonce_odr hidden noundef nonnull align 8 dereferenceable(8) ptr @_ZNRSt8__detail9__variant14_UninitializedIlLb1EE6_M_getEv(ptr noundef nonnull align 8 dereferenceable(8) %this) #5 comdat align 2 {
entry:
  %this.addr = alloca ptr, align 8
  store ptr %this, ptr %this.addr, align 8
  %this1 = load ptr, ptr %this.addr, align 8
  %_M_storage = getelementptr inbounds %"struct.std::__detail::__variant::_Uninitialized", ptr %this1, i32 0, i32 0
  ret ptr %_M_storage
}

; Function Attrs: mustprogress uwtable
define linkonce_odr hidden void @_ZSt10__invoke_rIvZNSt8__detail9__variant16_Variant_storageILb0EJldNSt7__cxx1112basic_stringIcSt11char_traitsIcESaIcEEESt3mapIS8_mSt4lessIS8_ESaISt4pairIKS8_mEEEEE8_M_resetEvEUlOT_E_JRdEENSt9enable_ifIX16is_invocable_r_vISI_T0_DpT1_EESI_E4typeEOSN_DpOSO_(ptr noundef nonnull align 1 dereferenceable(1) %__fn, ptr noundef nonnull align 8 dereferenceable(8) %__args) #4 comdat {
entry:
  %__fn.addr = alloca ptr, align 8
  %__args.addr = alloca ptr, align 8
  store ptr %__fn, ptr %__fn.addr, align 8
  store ptr %__args, ptr %__args.addr, align 8
  %0 = load ptr, ptr %__fn.addr, align 8
  %1 = load ptr, ptr %__args.addr, align 8
  call void @_ZSt13__invoke_implIvZNSt8__detail9__variant16_Variant_storageILb0EJldNSt7__cxx1112basic_stringIcSt11char_traitsIcESaIcEEESt3mapIS8_mSt4lessIS8_ESaISt4pairIKS8_mEEEEE8_M_resetEvEUlOT_E_JRdEESI_St14__invoke_otherOT0_DpOT1_(ptr noundef nonnull align 1 dereferenceable(1) %0, ptr noundef nonnull align 8 dereferenceable(8) %1)
  ret void
}

; Function Attrs: mustprogress nounwind uwtable
define linkonce_odr noundef nonnull align 8 dereferenceable(8) ptr @_ZNSt8__detail9__variant5__getILm1ERSt7variantIJldNSt7__cxx1112basic_stringIcSt11char_traitsIcESaIcEEESt3mapIS8_mSt4lessIS8_ESaISt4pairIKS8_mEEEEEEEDcOT0_(ptr noundef nonnull align 8 dereferenceable(49) %__v) #5 comdat {
entry:
  %__v.addr = alloca ptr, align 8
  store ptr %__v, ptr %__v.addr, align 8
  %0 = load ptr, ptr %__v.addr, align 8
  %_M_u = getelementptr inbounds %"struct.std::__detail::__variant::_Variant_storage", ptr %0, i32 0, i32 0
  %call = call noundef nonnull align 8 dereferenceable(8) ptr @_ZNSt8__detail9__variant7__get_nILm1ERNS0_15_Variadic_unionIJldNSt7__cxx1112basic_stringIcSt11char_traitsIcESaIcEEESt3mapIS8_mSt4lessIS8_ESaISt4pairIKS8_mEEEEEEEEDcOT0_(ptr noundef nonnull align 8 dereferenceable(48) %_M_u) #3
  ret ptr %call
}

; Function Attrs: mustprogress uwtable
define linkonce_odr hidden void @_ZSt13__invoke_implIvZNSt8__detail9__variant16_Variant_storageILb0EJldNSt7__cxx1112basic_stringIcSt11char_traitsIcESaIcEEESt3mapIS8_mSt4lessIS8_ESaISt4pairIKS8_mEEEEE8_M_resetEvEUlOT_E_JRdEESI_St14__invoke_otherOT0_DpOT1_(ptr noundef nonnull align 1 dereferenceable(1) %__f, ptr noundef nonnull align 8 dereferenceable(8) %__args) #4 comdat {
entry:
  %__f.addr = alloca ptr, align 8
  %__args.addr = alloca ptr, align 8
  store ptr %__f, ptr %__f.addr, align 8
  store ptr %__args, ptr %__args.addr, align 8
  %0 = load ptr, ptr %__f.addr, align 8
  %1 = load ptr, ptr %__args.addr, align 8
  call void @_ZZNSt8__detail9__variant16_Variant_storageILb0EJldNSt7__cxx1112basic_stringIcSt11char_traitsIcESaIcEEESt3mapIS7_mSt4lessIS7_ESaISt4pairIKS7_mEEEEE8_M_resetEvENUlOT_E_clIRdEEDaSI_(ptr noundef nonnull align 1 dereferenceable(1) %0, ptr noundef nonnull align 8 dereferenceable(8) %1)
  ret void
}

; Function Attrs: mustprogress uwtable
define linkonce_odr hidden void @_ZZNSt8__detail9__variant16_Variant_storageILb0EJldNSt7__cxx1112basic_stringIcSt11char_traitsIcESaIcEEESt3mapIS7_mSt4lessIS7_ESaISt4pairIKS7_mEEEEE8_M_resetEvENUlOT_E_clIRdEEDaSI_(ptr noundef nonnull align 1 dereferenceable(1) %this, ptr noundef nonnull align 8 dereferenceable(8) %__this_mem) #4 comdat align 2 {
entry:
  %this.addr = alloca ptr, align 8
  %__this_mem.addr = alloca ptr, align 8
  store ptr %this, ptr %this.addr, align 8
  store ptr %__this_mem, ptr %__this_mem.addr, align 8
  %0 = load ptr, ptr %__this_mem.addr, align 8
  call void @_ZSt8_DestroyIdEvPT_(ptr noundef %0)
  ret void
}

; Function Attrs: mustprogress nounwind uwtable
define linkonce_odr void @_ZSt8_DestroyIdEvPT_(ptr noundef %__pointer) #5 comdat {
entry:
  %__pointer.addr = alloca ptr, align 8
  store ptr %__pointer, ptr %__pointer.addr, align 8
  ret void
}

; Function Attrs: mustprogress nounwind uwtable
define linkonce_odr noundef nonnull align 8 dereferenceable(8) ptr @_ZNSt8__detail9__variant7__get_nILm1ERNS0_15_Variadic_unionIJldNSt7__cxx1112basic_stringIcSt11char_traitsIcESaIcEEESt3mapIS8_mSt4lessIS8_ESaISt4pairIKS8_mEEEEEEEEDcOT0_(ptr noundef nonnull align 8 dereferenceable(48) %__u) #5 comdat {
entry:
  %__u.addr = alloca ptr, align 8
  store ptr %__u, ptr %__u.addr, align 8
  %0 = load ptr, ptr %__u.addr, align 8
  %call = call noundef nonnull align 8 dereferenceable(8) ptr @_ZNRSt8__detail9__variant14_UninitializedIdLb1EE6_M_getEv(ptr noundef nonnull align 8 dereferenceable(8) %0) #3
  ret ptr %call
}

; Function Attrs: mustprogress nounwind uwtable
define linkonce_odr hidden noundef nonnull align 8 dereferenceable(8) ptr @_ZNRSt8__detail9__variant14_UninitializedIdLb1EE6_M_getEv(ptr noundef nonnull align 8 dereferenceable(8) %this) #5 comdat align 2 {
entry:
  %this.addr = alloca ptr, align 8
  store ptr %this, ptr %this.addr, align 8
  %this1 = load ptr, ptr %this.addr, align 8
  %_M_storage = getelementptr inbounds %"struct.std::__detail::__variant::_Uninitialized.229", ptr %this1, i32 0, i32 0
  ret ptr %_M_storage
}

; Function Attrs: mustprogress uwtable
define linkonce_odr hidden void @_ZSt10__invoke_rIvZNSt8__detail9__variant16_Variant_storageILb0EJldNSt7__cxx1112basic_stringIcSt11char_traitsIcESaIcEEESt3mapIS8_mSt4lessIS8_ESaISt4pairIKS8_mEEEEE8_M_resetEvEUlOT_E_JRS8_EENSt9enable_ifIX16is_invocable_r_vISI_T0_DpT1_EESI_E4typeEOSN_DpOSO_(ptr noundef nonnull align 1 dereferenceable(1) %__fn, ptr noundef nonnull align 8 dereferenceable(32) %__args) #4 comdat {
entry:
  %__fn.addr = alloca ptr, align 8
  %__args.addr = alloca ptr, align 8
  store ptr %__fn, ptr %__fn.addr, align 8
  store ptr %__args, ptr %__args.addr, align 8
  %0 = load ptr, ptr %__fn.addr, align 8
  %1 = load ptr, ptr %__args.addr, align 8
  call void @_ZSt13__invoke_implIvZNSt8__detail9__variant16_Variant_storageILb0EJldNSt7__cxx1112basic_stringIcSt11char_traitsIcESaIcEEESt3mapIS8_mSt4lessIS8_ESaISt4pairIKS8_mEEEEE8_M_resetEvEUlOT_E_JRS8_EESI_St14__invoke_otherOT0_DpOT1_(ptr noundef nonnull align 1 dereferenceable(1) %0, ptr noundef nonnull align 8 dereferenceable(32) %1)
  ret void
}

; Function Attrs: mustprogress nounwind uwtable
define linkonce_odr noundef nonnull align 8 dereferenceable(32) ptr @_ZNSt8__detail9__variant5__getILm2ERSt7variantIJldNSt7__cxx1112basic_stringIcSt11char_traitsIcESaIcEEESt3mapIS8_mSt4lessIS8_ESaISt4pairIKS8_mEEEEEEEDcOT0_(ptr noundef nonnull align 8 dereferenceable(49) %__v) #5 comdat {
entry:
  %__v.addr = alloca ptr, align 8
  store ptr %__v, ptr %__v.addr, align 8
  %0 = load ptr, ptr %__v.addr, align 8
  %_M_u = getelementptr inbounds %"struct.std::__detail::__variant::_Variant_storage", ptr %0, i32 0, i32 0
  %call = call noundef nonnull align 8 dereferenceable(32) ptr @_ZNSt8__detail9__variant7__get_nILm2ERNS0_15_Variadic_unionIJldNSt7__cxx1112basic_stringIcSt11char_traitsIcESaIcEEESt3mapIS8_mSt4lessIS8_ESaISt4pairIKS8_mEEEEEEEEDcOT0_(ptr noundef nonnull align 8 dereferenceable(48) %_M_u) #3
  ret ptr %call
}

; Function Attrs: mustprogress uwtable
define linkonce_odr hidden void @_ZSt13__invoke_implIvZNSt8__detail9__variant16_Variant_storageILb0EJldNSt7__cxx1112basic_stringIcSt11char_traitsIcESaIcEEESt3mapIS8_mSt4lessIS8_ESaISt4pairIKS8_mEEEEE8_M_resetEvEUlOT_E_JRS8_EESI_St14__invoke_otherOT0_DpOT1_(ptr noundef nonnull align 1 dereferenceable(1) %__f, ptr noundef nonnull align 8 dereferenceable(32) %__args) #4 comdat {
entry:
  %__f.addr = alloca ptr, align 8
  %__args.addr = alloca ptr, align 8
  store ptr %__f, ptr %__f.addr, align 8
  store ptr %__args, ptr %__args.addr, align 8
  %0 = load ptr, ptr %__f.addr, align 8
  %1 = load ptr, ptr %__args.addr, align 8
  call void @_ZZNSt8__detail9__variant16_Variant_storageILb0EJldNSt7__cxx1112basic_stringIcSt11char_traitsIcESaIcEEESt3mapIS7_mSt4lessIS7_ESaISt4pairIKS7_mEEEEE8_M_resetEvENUlOT_E_clIRS7_EEDaSI_(ptr noundef nonnull align 1 dereferenceable(1) %0, ptr noundef nonnull align 8 dereferenceable(32) %1)
  ret void
}

; Function Attrs: mustprogress uwtable
define linkonce_odr hidden void @_ZZNSt8__detail9__variant16_Variant_storageILb0EJldNSt7__cxx1112basic_stringIcSt11char_traitsIcESaIcEEESt3mapIS7_mSt4lessIS7_ESaISt4pairIKS7_mEEEEE8_M_resetEvENUlOT_E_clIRS7_EEDaSI_(ptr noundef nonnull align 1 dereferenceable(1) %this, ptr noundef nonnull align 8 dereferenceable(32) %__this_mem) #4 comdat align 2 {
entry:
  %this.addr = alloca ptr, align 8
  %__this_mem.addr = alloca ptr, align 8
  store ptr %this, ptr %this.addr, align 8
  store ptr %__this_mem, ptr %__this_mem.addr, align 8
  %0 = load ptr, ptr %__this_mem.addr, align 8
  call void @_ZSt8_DestroyINSt7__cxx1112basic_stringIcSt11char_traitsIcESaIcEEEEvPT_(ptr noundef %0)
  ret void
}

; Function Attrs: mustprogress nounwind uwtable
define linkonce_odr void @_ZSt8_DestroyINSt7__cxx1112basic_stringIcSt11char_traitsIcESaIcEEEEvPT_(ptr noundef %__pointer) #5 comdat {
entry:
  %__pointer.addr = alloca ptr, align 8
  store ptr %__pointer, ptr %__pointer.addr, align 8
  %0 = load ptr, ptr %__pointer.addr, align 8
  call void @_ZNSt7__cxx1112basic_stringIcSt11char_traitsIcESaIcEED1Ev(ptr noundef nonnull align 8 dereferenceable(32) %0) #3
  ret void
}

; Function Attrs: mustprogress nounwind uwtable
define linkonce_odr noundef nonnull align 8 dereferenceable(32) ptr @_ZNSt8__detail9__variant7__get_nILm2ERNS0_15_Variadic_unionIJldNSt7__cxx1112basic_stringIcSt11char_traitsIcESaIcEEESt3mapIS8_mSt4lessIS8_ESaISt4pairIKS8_mEEEEEEEEDcOT0_(ptr noundef nonnull align 8 dereferenceable(48) %__u) #5 comdat {
entry:
  %__u.addr = alloca ptr, align 8
  store ptr %__u, ptr %__u.addr, align 8
  %0 = load ptr, ptr %__u.addr, align 8
  %call = call noundef nonnull align 8 dereferenceable(32) ptr @_ZNRSt8__detail9__variant14_UninitializedINSt7__cxx1112basic_stringIcSt11char_traitsIcESaIcEEELb0EE6_M_getEv(ptr noundef nonnull align 8 dereferenceable(32) %0) #3
  ret ptr %call
}

; Function Attrs: mustprogress nounwind uwtable
define linkonce_odr hidden noundef nonnull align 8 dereferenceable(32) ptr @_ZNRSt8__detail9__variant14_UninitializedINSt7__cxx1112basic_stringIcSt11char_traitsIcESaIcEEELb0EE6_M_getEv(ptr noundef nonnull align 8 dereferenceable(32) %this) #5 comdat align 2 {
entry:
  %this.addr = alloca ptr, align 8
  store ptr %this, ptr %this.addr, align 8
  %this1 = load ptr, ptr %this.addr, align 8
  %_M_storage = getelementptr inbounds %"struct.std::__detail::__variant::_Uninitialized.231", ptr %this1, i32 0, i32 0
  %call = call noundef ptr @_ZN9__gnu_cxx16__aligned_membufINSt7__cxx1112basic_stringIcSt11char_traitsIcESaIcEEEE6_M_ptrEv(ptr noundef nonnull align 8 dereferenceable(32) %_M_storage) #3
  ret ptr %call
}

; Function Attrs: mustprogress nounwind uwtable
define linkonce_odr hidden noundef ptr @_ZN9__gnu_cxx16__aligned_membufINSt7__cxx1112basic_stringIcSt11char_traitsIcESaIcEEEE6_M_ptrEv(ptr noundef nonnull align 8 dereferenceable(32) %this) #5 comdat align 2 {
entry:
  %this.addr = alloca ptr, align 8
  store ptr %this, ptr %this.addr, align 8
  %this1 = load ptr, ptr %this.addr, align 8
  %call = call noundef ptr @_ZN9__gnu_cxx16__aligned_membufINSt7__cxx1112basic_stringIcSt11char_traitsIcESaIcEEEE7_M_addrEv(ptr noundef nonnull align 8 dereferenceable(32) %this1) #3
  ret ptr %call
}

; Function Attrs: mustprogress nounwind uwtable
define linkonce_odr hidden noundef ptr @_ZN9__gnu_cxx16__aligned_membufINSt7__cxx1112basic_stringIcSt11char_traitsIcESaIcEEEE7_M_addrEv(ptr noundef nonnull align 8 dereferenceable(32) %this) #5 comdat align 2 {
entry:
  %this.addr = alloca ptr, align 8
  store ptr %this, ptr %this.addr, align 8
  %this1 = load ptr, ptr %this.addr, align 8
  %_M_storage = getelementptr inbounds %"struct.__gnu_cxx::__aligned_membuf", ptr %this1, i32 0, i32 0
  ret ptr %_M_storage
}

; Function Attrs: mustprogress uwtable
define linkonce_odr hidden void @_ZSt10__invoke_rIvZNSt8__detail9__variant16_Variant_storageILb0EJldNSt7__cxx1112basic_stringIcSt11char_traitsIcESaIcEEESt3mapIS8_mSt4lessIS8_ESaISt4pairIKS8_mEEEEE8_M_resetEvEUlOT_E_JRSG_EENSt9enable_ifIX16is_invocable_r_vISI_T0_DpT1_EESI_E4typeEOSN_DpOSO_(ptr noundef nonnull align 1 dereferenceable(1) %__fn, ptr noundef nonnull align 8 dereferenceable(48) %__args) #4 comdat {
entry:
  %__fn.addr = alloca ptr, align 8
  %__args.addr = alloca ptr, align 8
  store ptr %__fn, ptr %__fn.addr, align 8
  store ptr %__args, ptr %__args.addr, align 8
  %0 = load ptr, ptr %__fn.addr, align 8
  %1 = load ptr, ptr %__args.addr, align 8
  call void @_ZSt13__invoke_implIvZNSt8__detail9__variant16_Variant_storageILb0EJldNSt7__cxx1112basic_stringIcSt11char_traitsIcESaIcEEESt3mapIS8_mSt4lessIS8_ESaISt4pairIKS8_mEEEEE8_M_resetEvEUlOT_E_JRSG_EESI_St14__invoke_otherOT0_DpOT1_(ptr noundef nonnull align 1 dereferenceable(1) %0, ptr noundef nonnull align 8 dereferenceable(48) %1)
  ret void
}

; Function Attrs: mustprogress nounwind uwtable
define linkonce_odr noundef nonnull align 8 dereferenceable(48) ptr @_ZNSt8__detail9__variant5__getILm3ERSt7variantIJldNSt7__cxx1112basic_stringIcSt11char_traitsIcESaIcEEESt3mapIS8_mSt4lessIS8_ESaISt4pairIKS8_mEEEEEEEDcOT0_(ptr noundef nonnull align 8 dereferenceable(49) %__v) #5 comdat {
entry:
  %__v.addr = alloca ptr, align 8
  store ptr %__v, ptr %__v.addr, align 8
  %0 = load ptr, ptr %__v.addr, align 8
  %_M_u = getelementptr inbounds %"struct.std::__detail::__variant::_Variant_storage", ptr %0, i32 0, i32 0
  %call = call noundef nonnull align 8 dereferenceable(48) ptr @_ZNSt8__detail9__variant7__get_nILm3ERNS0_15_Variadic_unionIJldNSt7__cxx1112basic_stringIcSt11char_traitsIcESaIcEEESt3mapIS8_mSt4lessIS8_ESaISt4pairIKS8_mEEEEEEEEDcOT0_(ptr noundef nonnull align 8 dereferenceable(48) %_M_u) #3
  ret ptr %call
}

; Function Attrs: mustprogress uwtable
define linkonce_odr hidden void @_ZSt13__invoke_implIvZNSt8__detail9__variant16_Variant_storageILb0EJldNSt7__cxx1112basic_stringIcSt11char_traitsIcESaIcEEESt3mapIS8_mSt4lessIS8_ESaISt4pairIKS8_mEEEEE8_M_resetEvEUlOT_E_JRSG_EESI_St14__invoke_otherOT0_DpOT1_(ptr noundef nonnull align 1 dereferenceable(1) %__f, ptr noundef nonnull align 8 dereferenceable(48) %__args) #4 comdat {
entry:
  %__f.addr = alloca ptr, align 8
  %__args.addr = alloca ptr, align 8
  store ptr %__f, ptr %__f.addr, align 8
  store ptr %__args, ptr %__args.addr, align 8
  %0 = load ptr, ptr %__f.addr, align 8
  %1 = load ptr, ptr %__args.addr, align 8
  call void @_ZZNSt8__detail9__variant16_Variant_storageILb0EJldNSt7__cxx1112basic_stringIcSt11char_traitsIcESaIcEEESt3mapIS7_mSt4lessIS7_ESaISt4pairIKS7_mEEEEE8_M_resetEvENUlOT_E_clIRSF_EEDaSI_(ptr noundef nonnull align 1 dereferenceable(1) %0, ptr noundef nonnull align 8 dereferenceable(48) %1)
  ret void
}

; Function Attrs: mustprogress uwtable
define linkonce_odr hidden void @_ZZNSt8__detail9__variant16_Variant_storageILb0EJldNSt7__cxx1112basic_stringIcSt11char_traitsIcESaIcEEESt3mapIS7_mSt4lessIS7_ESaISt4pairIKS7_mEEEEE8_M_resetEvENUlOT_E_clIRSF_EEDaSI_(ptr noundef nonnull align 1 dereferenceable(1) %this, ptr noundef nonnull align 8 dereferenceable(48) %__this_mem) #4 comdat align 2 {
entry:
  %this.addr = alloca ptr, align 8
  %__this_mem.addr = alloca ptr, align 8
  store ptr %this, ptr %this.addr, align 8
  store ptr %__this_mem, ptr %__this_mem.addr, align 8
  %0 = load ptr, ptr %__this_mem.addr, align 8
  call void @_ZSt8_DestroyISt3mapINSt7__cxx1112basic_stringIcSt11char_traitsIcESaIcEEEmSt4lessIS6_ESaISt4pairIKS6_mEEEEvPT_(ptr noundef %0)
  ret void
}

; Function Attrs: mustprogress nounwind uwtable
define linkonce_odr void @_ZSt8_DestroyISt3mapINSt7__cxx1112basic_stringIcSt11char_traitsIcESaIcEEEmSt4lessIS6_ESaISt4pairIKS6_mEEEEvPT_(ptr noundef %__pointer) #5 comdat {
entry:
  %__pointer.addr = alloca ptr, align 8
  store ptr %__pointer, ptr %__pointer.addr, align 8
  %0 = load ptr, ptr %__pointer.addr, align 8
  call void @_ZNSt3mapINSt7__cxx1112basic_stringIcSt11char_traitsIcESaIcEEEmSt4lessIS5_ESaISt4pairIKS5_mEEED2Ev(ptr noundef nonnull align 8 dereferenceable(48) %0) #3
  ret void
}

; Function Attrs: mustprogress nounwind uwtable
define linkonce_odr hidden void @_ZNSt3mapINSt7__cxx1112basic_stringIcSt11char_traitsIcESaIcEEEmSt4lessIS5_ESaISt4pairIKS5_mEEED2Ev(ptr noundef nonnull align 8 dereferenceable(48) %this) unnamed_addr #5 comdat align 2 {
entry:
  %this.addr = alloca ptr, align 8
  store ptr %this, ptr %this.addr, align 8
  %this1 = load ptr, ptr %this.addr, align 8
  %_M_t = getelementptr inbounds %"class.std::map.245", ptr %this1, i32 0, i32 0
  call void @_ZNSt8_Rb_treeINSt7__cxx1112basic_stringIcSt11char_traitsIcESaIcEEESt4pairIKS5_mESt10_Select1stIS8_ESt4lessIS5_ESaIS8_EED2Ev(ptr noundef nonnull align 8 dereferenceable(48) %_M_t) #3
  ret void
}

; Function Attrs: mustprogress nounwind uwtable
define linkonce_odr hidden void @_ZNSt8_Rb_treeINSt7__cxx1112basic_stringIcSt11char_traitsIcESaIcEEESt4pairIKS5_mESt10_Select1stIS8_ESt4lessIS5_ESaIS8_EED2Ev(ptr noundef nonnull align 8 dereferenceable(48) %this) unnamed_addr #5 comdat align 2 personality ptr @__gxx_personality_v0 {
entry:
  %this.addr = alloca ptr, align 8
  store ptr %this, ptr %this.addr, align 8
  %this1 = load ptr, ptr %this.addr, align 8
  %call = call noundef ptr @_ZNSt8_Rb_treeINSt7__cxx1112basic_stringIcSt11char_traitsIcESaIcEEESt4pairIKS5_mESt10_Select1stIS8_ESt4lessIS5_ESaIS8_EE8_M_beginEv(ptr noundef nonnull align 8 dereferenceable(48) %this1) #3
  invoke void @_ZNSt8_Rb_treeINSt7__cxx1112basic_stringIcSt11char_traitsIcESaIcEEESt4pairIKS5_mESt10_Select1stIS8_ESt4lessIS5_ESaIS8_EE8_M_eraseEPSt13_Rb_tree_nodeIS8_E(ptr noundef nonnull align 8 dereferenceable(48) %this1, ptr noundef %call)
          to label %invoke.cont unwind label %terminate.lpad

invoke.cont:                                      ; preds = %entry
  %_M_impl = getelementptr inbounds %"class.std::_Rb_tree.246", ptr %this1, i32 0, i32 0
  call void @_ZNSt8_Rb_treeINSt7__cxx1112basic_stringIcSt11char_traitsIcESaIcEEESt4pairIKS5_mESt10_Select1stIS8_ESt4lessIS5_ESaIS8_EE13_Rb_tree_implISC_Lb1EED2Ev(ptr noundef nonnull align 8 dereferenceable(48) %_M_impl) #3
  ret void

terminate.lpad:                                   ; preds = %entry
  %0 = landingpad { ptr, i32 }
          catch ptr null
  %1 = extractvalue { ptr, i32 } %0, 0
  call void @__clang_call_terminate(ptr %1) #16
  unreachable
}

; Function Attrs: mustprogress uwtable
define linkonce_odr void @_ZNSt8_Rb_treeINSt7__cxx1112basic_stringIcSt11char_traitsIcESaIcEEESt4pairIKS5_mESt10_Select1stIS8_ESt4lessIS5_ESaIS8_EE8_M_eraseEPSt13_Rb_tree_nodeIS8_E(ptr noundef nonnull align 8 dereferenceable(48) %this, ptr noundef %__x) #4 comdat align 2 {
entry:
  %this.addr = alloca ptr, align 8
  %__x.addr = alloca ptr, align 8
  %__y = alloca ptr, align 8
  store ptr %this, ptr %this.addr, align 8
  store ptr %__x, ptr %__x.addr, align 8
  %this1 = load ptr, ptr %this.addr, align 8
  br label %while.cond

while.cond:                                       ; preds = %while.body, %entry
  %0 = load ptr, ptr %__x.addr, align 8
  %cmp = icmp ne ptr %0, null
  br i1 %cmp, label %while.body, label %while.end

while.body:                                       ; preds = %while.cond
  %1 = load ptr, ptr %__x.addr, align 8
  %call = call noundef ptr @_ZNSt8_Rb_treeINSt7__cxx1112basic_stringIcSt11char_traitsIcESaIcEEESt4pairIKS5_mESt10_Select1stIS8_ESt4lessIS5_ESaIS8_EE8_S_rightEPSt18_Rb_tree_node_base(ptr noundef %1) #3
  call void @_ZNSt8_Rb_treeINSt7__cxx1112basic_stringIcSt11char_traitsIcESaIcEEESt4pairIKS5_mESt10_Select1stIS8_ESt4lessIS5_ESaIS8_EE8_M_eraseEPSt13_Rb_tree_nodeIS8_E(ptr noundef nonnull align 8 dereferenceable(48) %this1, ptr noundef %call)
  %2 = load ptr, ptr %__x.addr, align 8
  %call2 = call noundef ptr @_ZNSt8_Rb_treeINSt7__cxx1112basic_stringIcSt11char_traitsIcESaIcEEESt4pairIKS5_mESt10_Select1stIS8_ESt4lessIS5_ESaIS8_EE7_S_leftEPSt18_Rb_tree_node_base(ptr noundef %2) #3
  store ptr %call2, ptr %__y, align 8
  %3 = load ptr, ptr %__x.addr, align 8
  call void @_ZNSt8_Rb_treeINSt7__cxx1112basic_stringIcSt11char_traitsIcESaIcEEESt4pairIKS5_mESt10_Select1stIS8_ESt4lessIS5_ESaIS8_EE12_M_drop_nodeEPSt13_Rb_tree_nodeIS8_E(ptr noundef nonnull align 8 dereferenceable(48) %this1, ptr noundef %3) #3
  %4 = load ptr, ptr %__y, align 8
  store ptr %4, ptr %__x.addr, align 8
  br label %while.cond, !llvm.loop !7

while.end:                                        ; preds = %while.cond
  ret void
}

; Function Attrs: mustprogress nounwind uwtable
define linkonce_odr hidden noundef ptr @_ZNSt8_Rb_treeINSt7__cxx1112basic_stringIcSt11char_traitsIcESaIcEEESt4pairIKS5_mESt10_Select1stIS8_ESt4lessIS5_ESaIS8_EE8_M_beginEv(ptr noundef nonnull align 8 dereferenceable(48) %this) #5 comdat align 2 {
entry:
  %this.addr = alloca ptr, align 8
  store ptr %this, ptr %this.addr, align 8
  %this1 = load ptr, ptr %this.addr, align 8
  %call = call noundef ptr @_ZNKSt8_Rb_treeINSt7__cxx1112basic_stringIcSt11char_traitsIcESaIcEEESt4pairIKS5_mESt10_Select1stIS8_ESt4lessIS5_ESaIS8_EE9_M_mbeginEv(ptr noundef nonnull align 8 dereferenceable(48) %this1) #3
  ret ptr %call
}

; Function Attrs: mustprogress nounwind uwtable
define linkonce_odr hidden void @_ZNSt8_Rb_treeINSt7__cxx1112basic_stringIcSt11char_traitsIcESaIcEEESt4pairIKS5_mESt10_Select1stIS8_ESt4lessIS5_ESaIS8_EE13_Rb_tree_implISC_Lb1EED2Ev(ptr noundef nonnull align 8 dereferenceable(48) %this) unnamed_addr #5 comdat align 2 {
entry:
  %this.addr = alloca ptr, align 8
  store ptr %this, ptr %this.addr, align 8
  %this1 = load ptr, ptr %this.addr, align 8
  call void @_ZNSaISt13_Rb_tree_nodeISt4pairIKNSt7__cxx1112basic_stringIcSt11char_traitsIcESaIcEEEmEEED2Ev(ptr noundef nonnull align 1 dereferenceable(1) %this1) #3
  ret void
}

; Function Attrs: mustprogress nounwind uwtable
define linkonce_odr hidden noundef ptr @_ZNSt8_Rb_treeINSt7__cxx1112basic_stringIcSt11char_traitsIcESaIcEEESt4pairIKS5_mESt10_Select1stIS8_ESt4lessIS5_ESaIS8_EE8_S_rightEPSt18_Rb_tree_node_base(ptr noundef %__x) #5 comdat align 2 {
entry:
  %__x.addr = alloca ptr, align 8
  store ptr %__x, ptr %__x.addr, align 8
  %0 = load ptr, ptr %__x.addr, align 8
  %_M_right = getelementptr inbounds %"struct.std::_Rb_tree_node_base", ptr %0, i32 0, i32 3
  %1 = load ptr, ptr %_M_right, align 8
  ret ptr %1
}

; Function Attrs: mustprogress nounwind uwtable
define linkonce_odr hidden noundef ptr @_ZNSt8_Rb_treeINSt7__cxx1112basic_stringIcSt11char_traitsIcESaIcEEESt4pairIKS5_mESt10_Select1stIS8_ESt4lessIS5_ESaIS8_EE7_S_leftEPSt18_Rb_tree_node_base(ptr noundef %__x) #5 comdat align 2 {
entry:
  %__x.addr = alloca ptr, align 8
  store ptr %__x, ptr %__x.addr, align 8
  %0 = load ptr, ptr %__x.addr, align 8
  %_M_left = getelementptr inbounds %"struct.std::_Rb_tree_node_base", ptr %0, i32 0, i32 2
  %1 = load ptr, ptr %_M_left, align 8
  ret ptr %1
}

; Function Attrs: mustprogress nounwind uwtable
define linkonce_odr hidden void @_ZNSt8_Rb_treeINSt7__cxx1112basic_stringIcSt11char_traitsIcESaIcEEESt4pairIKS5_mESt10_Select1stIS8_ESt4lessIS5_ESaIS8_EE12_M_drop_nodeEPSt13_Rb_tree_nodeIS8_E(ptr noundef nonnull align 8 dereferenceable(48) %this, ptr noundef %__p) #5 comdat align 2 {
entry:
  %this.addr = alloca ptr, align 8
  %__p.addr = alloca ptr, align 8
  store ptr %this, ptr %this.addr, align 8
  store ptr %__p, ptr %__p.addr, align 8
  %this1 = load ptr, ptr %this.addr, align 8
  %0 = load ptr, ptr %__p.addr, align 8
  call void @_ZNSt8_Rb_treeINSt7__cxx1112basic_stringIcSt11char_traitsIcESaIcEEESt4pairIKS5_mESt10_Select1stIS8_ESt4lessIS5_ESaIS8_EE15_M_destroy_nodeEPSt13_Rb_tree_nodeIS8_E(ptr noundef nonnull align 8 dereferenceable(48) %this1, ptr noundef %0) #3
  %1 = load ptr, ptr %__p.addr, align 8
  call void @_ZNSt8_Rb_treeINSt7__cxx1112basic_stringIcSt11char_traitsIcESaIcEEESt4pairIKS5_mESt10_Select1stIS8_ESt4lessIS5_ESaIS8_EE11_M_put_nodeEPSt13_Rb_tree_nodeIS8_E(ptr noundef nonnull align 8 dereferenceable(48) %this1, ptr noundef %1) #3
  ret void
}

; Function Attrs: mustprogress nounwind uwtable
define linkonce_odr hidden void @_ZNSt8_Rb_treeINSt7__cxx1112basic_stringIcSt11char_traitsIcESaIcEEESt4pairIKS5_mESt10_Select1stIS8_ESt4lessIS5_ESaIS8_EE15_M_destroy_nodeEPSt13_Rb_tree_nodeIS8_E(ptr noundef nonnull align 8 dereferenceable(48) %this, ptr noundef %__p) #5 comdat align 2 personality ptr @__gxx_personality_v0 {
entry:
  %this.addr = alloca ptr, align 8
  %__p.addr = alloca ptr, align 8
  store ptr %this, ptr %this.addr, align 8
  store ptr %__p, ptr %__p.addr, align 8
  %this1 = load ptr, ptr %this.addr, align 8
  %call = call noundef nonnull align 1 dereferenceable(1) ptr @_ZNSt8_Rb_treeINSt7__cxx1112basic_stringIcSt11char_traitsIcESaIcEEESt4pairIKS5_mESt10_Select1stIS8_ESt4lessIS5_ESaIS8_EE21_M_get_Node_allocatorEv(ptr noundef nonnull align 8 dereferenceable(48) %this1) #3
  %0 = load ptr, ptr %__p.addr, align 8
  %call2 = invoke noundef ptr @_ZNSt13_Rb_tree_nodeISt4pairIKNSt7__cxx1112basic_stringIcSt11char_traitsIcESaIcEEEmEE9_M_valptrEv(ptr noundef nonnull align 8 dereferenceable(72) %0)
          to label %invoke.cont unwind label %terminate.lpad

invoke.cont:                                      ; preds = %entry
  call void @_ZNSt16allocator_traitsISaISt13_Rb_tree_nodeISt4pairIKNSt7__cxx1112basic_stringIcSt11char_traitsIcESaIcEEEmEEEE7destroyIS9_EEvRSB_PT_(ptr noundef nonnull align 1 dereferenceable(1) %call, ptr noundef %call2) #3
  ret void

terminate.lpad:                                   ; preds = %entry
  %1 = landingpad { ptr, i32 }
          catch ptr null
  %2 = extractvalue { ptr, i32 } %1, 0
  call void @__clang_call_terminate(ptr %2) #16
  unreachable
}

; Function Attrs: mustprogress nounwind uwtable
define linkonce_odr hidden void @_ZNSt8_Rb_treeINSt7__cxx1112basic_stringIcSt11char_traitsIcESaIcEEESt4pairIKS5_mESt10_Select1stIS8_ESt4lessIS5_ESaIS8_EE11_M_put_nodeEPSt13_Rb_tree_nodeIS8_E(ptr noundef nonnull align 8 dereferenceable(48) %this, ptr noundef %__p) #5 comdat align 2 personality ptr @__gxx_personality_v0 {
entry:
  %this.addr = alloca ptr, align 8
  %__p.addr = alloca ptr, align 8
  store ptr %this, ptr %this.addr, align 8
  store ptr %__p, ptr %__p.addr, align 8
  %this1 = load ptr, ptr %this.addr, align 8
  %call = call noundef nonnull align 1 dereferenceable(1) ptr @_ZNSt8_Rb_treeINSt7__cxx1112basic_stringIcSt11char_traitsIcESaIcEEESt4pairIKS5_mESt10_Select1stIS8_ESt4lessIS5_ESaIS8_EE21_M_get_Node_allocatorEv(ptr noundef nonnull align 8 dereferenceable(48) %this1) #3
  %0 = load ptr, ptr %__p.addr, align 8
  invoke void @_ZNSt16allocator_traitsISaISt13_Rb_tree_nodeISt4pairIKNSt7__cxx1112basic_stringIcSt11char_traitsIcESaIcEEEmEEEE10deallocateERSB_PSA_m(ptr noundef nonnull align 1 dereferenceable(1) %call, ptr noundef %0, i64 noundef 1)
          to label %invoke.cont unwind label %terminate.lpad

invoke.cont:                                      ; preds = %entry
  ret void

terminate.lpad:                                   ; preds = %entry
  %1 = landingpad { ptr, i32 }
          catch ptr null
  %2 = extractvalue { ptr, i32 } %1, 0
  call void @__clang_call_terminate(ptr %2) #16
  unreachable
}

; Function Attrs: mustprogress nounwind uwtable
define linkonce_odr hidden void @_ZNSt16allocator_traitsISaISt13_Rb_tree_nodeISt4pairIKNSt7__cxx1112basic_stringIcSt11char_traitsIcESaIcEEEmEEEE7destroyIS9_EEvRSB_PT_(ptr noundef nonnull align 1 dereferenceable(1) %__a, ptr noundef %__p) #5 comdat align 2 {
entry:
  %__a.addr = alloca ptr, align 8
  %__p.addr = alloca ptr, align 8
  store ptr %__a, ptr %__a.addr, align 8
  store ptr %__p, ptr %__p.addr, align 8
  %0 = load ptr, ptr %__a.addr, align 8
  %1 = load ptr, ptr %__p.addr, align 8
  call void @_ZNSt15__new_allocatorISt13_Rb_tree_nodeISt4pairIKNSt7__cxx1112basic_stringIcSt11char_traitsIcESaIcEEEmEEE7destroyIS9_EEvPT_(ptr noundef nonnull align 1 dereferenceable(1) %0, ptr noundef %1) #3
  ret void
}

; Function Attrs: mustprogress nounwind uwtable
define linkonce_odr hidden noundef nonnull align 1 dereferenceable(1) ptr @_ZNSt8_Rb_treeINSt7__cxx1112basic_stringIcSt11char_traitsIcESaIcEEESt4pairIKS5_mESt10_Select1stIS8_ESt4lessIS5_ESaIS8_EE21_M_get_Node_allocatorEv(ptr noundef nonnull align 8 dereferenceable(48) %this) #5 comdat align 2 {
entry:
  %this.addr = alloca ptr, align 8
  store ptr %this, ptr %this.addr, align 8
  %this1 = load ptr, ptr %this.addr, align 8
  %_M_impl = getelementptr inbounds %"class.std::_Rb_tree.246", ptr %this1, i32 0, i32 0
  ret ptr %_M_impl
}

; Function Attrs: mustprogress nounwind uwtable
define linkonce_odr hidden noundef ptr @_ZNSt13_Rb_tree_nodeISt4pairIKNSt7__cxx1112basic_stringIcSt11char_traitsIcESaIcEEEmEE9_M_valptrEv(ptr noundef nonnull align 8 dereferenceable(72) %this) #5 comdat align 2 {
entry:
  %this.addr = alloca ptr, align 8
  store ptr %this, ptr %this.addr, align 8
  %this1 = load ptr, ptr %this.addr, align 8
  %_M_storage = getelementptr inbounds %"struct.std::_Rb_tree_node.250", ptr %this1, i32 0, i32 1
  %call = call noundef ptr @_ZN9__gnu_cxx16__aligned_membufISt4pairIKNSt7__cxx1112basic_stringIcSt11char_traitsIcESaIcEEEmEE6_M_ptrEv(ptr noundef nonnull align 8 dereferenceable(40) %_M_storage) #3
  ret ptr %call
}

; Function Attrs: mustprogress nounwind uwtable
define linkonce_odr hidden void @_ZNSt15__new_allocatorISt13_Rb_tree_nodeISt4pairIKNSt7__cxx1112basic_stringIcSt11char_traitsIcESaIcEEEmEEE7destroyIS9_EEvPT_(ptr noundef nonnull align 1 dereferenceable(1) %this, ptr noundef %__p) #5 comdat align 2 {
entry:
  %this.addr = alloca ptr, align 8
  %__p.addr = alloca ptr, align 8
  store ptr %this, ptr %this.addr, align 8
  store ptr %__p, ptr %__p.addr, align 8
  %0 = load ptr, ptr %__p.addr, align 8
  call void @_ZNSt4pairIKNSt7__cxx1112basic_stringIcSt11char_traitsIcESaIcEEEmED2Ev(ptr noundef nonnull align 8 dereferenceable(40) %0) #3
  ret void
}

; Function Attrs: mustprogress nounwind uwtable
define linkonce_odr hidden void @_ZNSt4pairIKNSt7__cxx1112basic_stringIcSt11char_traitsIcESaIcEEEmED2Ev(ptr noundef nonnull align 8 dereferenceable(40) %this) unnamed_addr #5 comdat align 2 {
entry:
  %this.addr = alloca ptr, align 8
  store ptr %this, ptr %this.addr, align 8
  %this1 = load ptr, ptr %this.addr, align 8
  %first = getelementptr inbounds %"struct.std::pair.252", ptr %this1, i32 0, i32 0
  call void @_ZNSt7__cxx1112basic_stringIcSt11char_traitsIcESaIcEED1Ev(ptr noundef nonnull align 8 dereferenceable(32) %first) #3
  ret void
}

; Function Attrs: mustprogress nounwind uwtable
define linkonce_odr hidden noundef ptr @_ZN9__gnu_cxx16__aligned_membufISt4pairIKNSt7__cxx1112basic_stringIcSt11char_traitsIcESaIcEEEmEE6_M_ptrEv(ptr noundef nonnull align 8 dereferenceable(40) %this) #5 comdat align 2 {
entry:
  %this.addr = alloca ptr, align 8
  store ptr %this, ptr %this.addr, align 8
  %this1 = load ptr, ptr %this.addr, align 8
  %call = call noundef ptr @_ZN9__gnu_cxx16__aligned_membufISt4pairIKNSt7__cxx1112basic_stringIcSt11char_traitsIcESaIcEEEmEE7_M_addrEv(ptr noundef nonnull align 8 dereferenceable(40) %this1) #3
  ret ptr %call
}

; Function Attrs: mustprogress nounwind uwtable
define linkonce_odr hidden noundef ptr @_ZN9__gnu_cxx16__aligned_membufISt4pairIKNSt7__cxx1112basic_stringIcSt11char_traitsIcESaIcEEEmEE7_M_addrEv(ptr noundef nonnull align 8 dereferenceable(40) %this) #5 comdat align 2 {
entry:
  %this.addr = alloca ptr, align 8
  store ptr %this, ptr %this.addr, align 8
  %this1 = load ptr, ptr %this.addr, align 8
  %_M_storage = getelementptr inbounds %"struct.__gnu_cxx::__aligned_membuf.251", ptr %this1, i32 0, i32 0
  ret ptr %_M_storage
}

; Function Attrs: mustprogress uwtable
define linkonce_odr hidden void @_ZNSt16allocator_traitsISaISt13_Rb_tree_nodeISt4pairIKNSt7__cxx1112basic_stringIcSt11char_traitsIcESaIcEEEmEEEE10deallocateERSB_PSA_m(ptr noundef nonnull align 1 dereferenceable(1) %__a, ptr noundef %__p, i64 noundef %__n) #4 comdat align 2 {
entry:
  %__a.addr = alloca ptr, align 8
  %__p.addr = alloca ptr, align 8
  %__n.addr = alloca i64, align 8
  store ptr %__a, ptr %__a.addr, align 8
  store ptr %__p, ptr %__p.addr, align 8
  store i64 %__n, ptr %__n.addr, align 8
  %0 = load ptr, ptr %__a.addr, align 8
  %1 = load ptr, ptr %__p.addr, align 8
  %2 = load i64, ptr %__n.addr, align 8
  call void @_ZNSt15__new_allocatorISt13_Rb_tree_nodeISt4pairIKNSt7__cxx1112basic_stringIcSt11char_traitsIcESaIcEEEmEEE10deallocateEPSA_m(ptr noundef nonnull align 1 dereferenceable(1) %0, ptr noundef %1, i64 noundef %2)
  ret void
}

; Function Attrs: mustprogress nounwind uwtable
define linkonce_odr hidden void @_ZNSt15__new_allocatorISt13_Rb_tree_nodeISt4pairIKNSt7__cxx1112basic_stringIcSt11char_traitsIcESaIcEEEmEEE10deallocateEPSA_m(ptr noundef nonnull align 1 dereferenceable(1) %this, ptr noundef %__p, i64 noundef %__n) #5 comdat align 2 {
entry:
  %this.addr = alloca ptr, align 8
  %__p.addr = alloca ptr, align 8
  %__n.addr = alloca i64, align 8
  store ptr %this, ptr %this.addr, align 8
  store ptr %__p, ptr %__p.addr, align 8
  store i64 %__n, ptr %__n.addr, align 8
  %0 = load ptr, ptr %__p.addr, align 8
  call void @_ZdlPv(ptr noundef %0) #17
  ret void
}

; Function Attrs: mustprogress nounwind uwtable
define linkonce_odr hidden noundef ptr @_ZNKSt8_Rb_treeINSt7__cxx1112basic_stringIcSt11char_traitsIcESaIcEEESt4pairIKS5_mESt10_Select1stIS8_ESt4lessIS5_ESaIS8_EE9_M_mbeginEv(ptr noundef nonnull align 8 dereferenceable(48) %this) #5 comdat align 2 {
entry:
  %this.addr = alloca ptr, align 8
  store ptr %this, ptr %this.addr, align 8
  %this1 = load ptr, ptr %this.addr, align 8
  %_M_impl = getelementptr inbounds %"class.std::_Rb_tree.246", ptr %this1, i32 0, i32 0
  %add.ptr = getelementptr inbounds i8, ptr %_M_impl, i64 8
  %_M_header = getelementptr inbounds %"struct.std::_Rb_tree_header", ptr %add.ptr, i32 0, i32 0
  %_M_parent = getelementptr inbounds %"struct.std::_Rb_tree_node_base", ptr %_M_header, i32 0, i32 1
  %0 = load ptr, ptr %_M_parent, align 8
  ret ptr %0
}

; Function Attrs: mustprogress nounwind uwtable
define linkonce_odr hidden void @_ZNSaISt13_Rb_tree_nodeISt4pairIKNSt7__cxx1112basic_stringIcSt11char_traitsIcESaIcEEEmEEED2Ev(ptr noundef nonnull align 1 dereferenceable(1) %this) unnamed_addr #5 comdat align 2 {
entry:
  %this.addr = alloca ptr, align 8
  store ptr %this, ptr %this.addr, align 8
  %this1 = load ptr, ptr %this.addr, align 8
  call void @_ZNSt15__new_allocatorISt13_Rb_tree_nodeISt4pairIKNSt7__cxx1112basic_stringIcSt11char_traitsIcESaIcEEEmEEED2Ev(ptr noundef nonnull align 1 dereferenceable(1) %this1) #3
  ret void
}

; Function Attrs: mustprogress nounwind uwtable
define linkonce_odr hidden void @_ZNSt15__new_allocatorISt13_Rb_tree_nodeISt4pairIKNSt7__cxx1112basic_stringIcSt11char_traitsIcESaIcEEEmEEED2Ev(ptr noundef nonnull align 1 dereferenceable(1) %this) unnamed_addr #5 comdat align 2 {
entry:
  %this.addr = alloca ptr, align 8
  store ptr %this, ptr %this.addr, align 8
  ret void
}

; Function Attrs: mustprogress nounwind uwtable
define linkonce_odr noundef nonnull align 8 dereferenceable(48) ptr @_ZNSt8__detail9__variant7__get_nILm3ERNS0_15_Variadic_unionIJldNSt7__cxx1112basic_stringIcSt11char_traitsIcESaIcEEESt3mapIS8_mSt4lessIS8_ESaISt4pairIKS8_mEEEEEEEEDcOT0_(ptr noundef nonnull align 8 dereferenceable(48) %__u) #5 comdat {
entry:
  %__u.addr = alloca ptr, align 8
  store ptr %__u, ptr %__u.addr, align 8
  %0 = load ptr, ptr %__u.addr, align 8
  %call = call noundef nonnull align 8 dereferenceable(48) ptr @_ZNSt8__detail9__variant7__get_nILm0ERNS0_15_Variadic_unionIJSt3mapINSt7__cxx1112basic_stringIcSt11char_traitsIcESaIcEEEmSt4lessIS9_ESaISt4pairIKS9_mEEEEEEEEDcOT0_(ptr noundef nonnull align 8 dereferenceable(48) %0) #3
  ret ptr %call
}

; Function Attrs: mustprogress nounwind uwtable
define linkonce_odr noundef nonnull align 8 dereferenceable(48) ptr @_ZNSt8__detail9__variant7__get_nILm0ERNS0_15_Variadic_unionIJSt3mapINSt7__cxx1112basic_stringIcSt11char_traitsIcESaIcEEEmSt4lessIS9_ESaISt4pairIKS9_mEEEEEEEEDcOT0_(ptr noundef nonnull align 8 dereferenceable(48) %__u) #5 comdat {
entry:
  %__u.addr = alloca ptr, align 8
  store ptr %__u, ptr %__u.addr, align 8
  %0 = load ptr, ptr %__u.addr, align 8
  %call = call noundef nonnull align 8 dereferenceable(48) ptr @_ZNRSt8__detail9__variant14_UninitializedISt3mapINSt7__cxx1112basic_stringIcSt11char_traitsIcESaIcEEEmSt4lessIS8_ESaISt4pairIKS8_mEEELb0EE6_M_getEv(ptr noundef nonnull align 8 dereferenceable(48) %0) #3
  ret ptr %call
}

; Function Attrs: mustprogress nounwind uwtable
define linkonce_odr hidden noundef nonnull align 8 dereferenceable(48) ptr @_ZNRSt8__detail9__variant14_UninitializedISt3mapINSt7__cxx1112basic_stringIcSt11char_traitsIcESaIcEEEmSt4lessIS8_ESaISt4pairIKS8_mEEELb0EE6_M_getEv(ptr noundef nonnull align 8 dereferenceable(48) %this) #5 comdat align 2 {
entry:
  %this.addr = alloca ptr, align 8
  store ptr %this, ptr %this.addr, align 8
  %this1 = load ptr, ptr %this.addr, align 8
  %_M_storage = getelementptr inbounds %"struct.std::__detail::__variant::_Uninitialized.233", ptr %this1, i32 0, i32 0
  %call = call noundef ptr @_ZN9__gnu_cxx16__aligned_membufISt3mapINSt7__cxx1112basic_stringIcSt11char_traitsIcESaIcEEEmSt4lessIS7_ESaISt4pairIKS7_mEEEE6_M_ptrEv(ptr noundef nonnull align 8 dereferenceable(48) %_M_storage) #3
  ret ptr %call
}

; Function Attrs: mustprogress nounwind uwtable
define linkonce_odr hidden noundef ptr @_ZN9__gnu_cxx16__aligned_membufISt3mapINSt7__cxx1112basic_stringIcSt11char_traitsIcESaIcEEEmSt4lessIS7_ESaISt4pairIKS7_mEEEE6_M_ptrEv(ptr noundef nonnull align 8 dereferenceable(48) %this) #5 comdat align 2 {
entry:
  %this.addr = alloca ptr, align 8
  store ptr %this, ptr %this.addr, align 8
  %this1 = load ptr, ptr %this.addr, align 8
  %call = call noundef ptr @_ZN9__gnu_cxx16__aligned_membufISt3mapINSt7__cxx1112basic_stringIcSt11char_traitsIcESaIcEEEmSt4lessIS7_ESaISt4pairIKS7_mEEEE7_M_addrEv(ptr noundef nonnull align 8 dereferenceable(48) %this1) #3
  ret ptr %call
}

; Function Attrs: mustprogress nounwind uwtable
define linkonce_odr hidden noundef ptr @_ZN9__gnu_cxx16__aligned_membufISt3mapINSt7__cxx1112basic_stringIcSt11char_traitsIcESaIcEEEmSt4lessIS7_ESaISt4pairIKS7_mEEEE7_M_addrEv(ptr noundef nonnull align 8 dereferenceable(48) %this) #5 comdat align 2 {
entry:
  %this.addr = alloca ptr, align 8
  store ptr %this, ptr %this.addr, align 8
  %this1 = load ptr, ptr %this.addr, align 8
  %_M_storage = getelementptr inbounds %"struct.__gnu_cxx::__aligned_membuf.234", ptr %this1, i32 0, i32 0
  ret ptr %_M_storage
}

; Function Attrs: mustprogress uwtable
define linkonce_odr void @_ZNSt8__detail9__variant15__raw_idx_visitIZStneIJldNSt7__cxx1112basic_stringIcSt11char_traitsIcESaIcEEESt3mapIS8_mSt4lessIS8_ESaISt4pairIKS8_mEEEEEbRKSt7variantIJDpT_EESM_EUlOT_T0_E_JRKSH_IJldS8_SG_EEEEEvSO_DpOT0_(ptr noundef nonnull align 8 dereferenceable(16) %__visitor, ptr noundef nonnull align 8 dereferenceable(49) %__variants) #4 comdat {
entry:
  %__visitor.addr = alloca ptr, align 8
  %__variants.addr = alloca ptr, align 8
  store ptr %__visitor, ptr %__visitor.addr, align 8
  store ptr %__variants, ptr %__variants.addr, align 8
  %0 = load ptr, ptr %__visitor.addr, align 8
  %1 = load ptr, ptr %__variants.addr, align 8
  call void @_ZSt10__do_visitINSt8__detail9__variant20__variant_idx_cookieEZStneIJldNSt7__cxx1112basic_stringIcSt11char_traitsIcESaIcEEESt3mapIS9_mSt4lessIS9_ESaISt4pairIKS9_mEEEEEbRKSt7variantIJDpT_EESN_EUlOT_T0_E_JRKSI_IJldS9_SH_EEEEDcOSQ_DpOT1_(ptr noundef nonnull align 8 dereferenceable(16) %0, ptr noundef nonnull align 8 dereferenceable(49) %1)
  ret void
}

; Function Attrs: mustprogress uwtable
define linkonce_odr void @_ZSt10__do_visitINSt8__detail9__variant20__variant_idx_cookieEZStneIJldNSt7__cxx1112basic_stringIcSt11char_traitsIcESaIcEEESt3mapIS9_mSt4lessIS9_ESaISt4pairIKS9_mEEEEEbRKSt7variantIJDpT_EESN_EUlOT_T0_E_JRKSI_IJldS9_SH_EEEEDcOSQ_DpOT1_(ptr noundef nonnull align 8 dereferenceable(16) %__visitor, ptr noundef nonnull align 8 dereferenceable(49) %__variants) #4 comdat {
entry:
  %__visitor.addr = alloca ptr, align 8
  %__variants.addr = alloca ptr, align 8
  %__max = alloca i64, align 8
  %__n = alloca i64, align 8
  %__v0 = alloca ptr, align 8
  %ref.tmp = alloca %class.anon.255, align 1
  store ptr %__visitor, ptr %__visitor.addr, align 8
  store ptr %__variants, ptr %__variants.addr, align 8
  store i64 11, ptr %__max, align 8
  store i64 4, ptr %__n, align 8
  %0 = load ptr, ptr %__variants.addr, align 8
  %call = call noundef nonnull align 8 dereferenceable(49) ptr (ptr, ptr, ...) @_ZZSt10__do_visitINSt8__detail9__variant20__variant_idx_cookieEZStneIJldNSt7__cxx1112basic_stringIcSt11char_traitsIcESaIcEEESt3mapIS9_mSt4lessIS9_ESaISt4pairIKS9_mEEEEEbRKSt7variantIJDpT_EESN_EUlOT_T0_E_JRKSI_IJldS9_SH_EEEEDcOSQ_DpOT1_ENKUlSU_zE_clB5cxx11ESU_z(ptr noundef nonnull align 1 dereferenceable(1) %ref.tmp, ptr noundef nonnull align 8 dereferenceable(49) %0)
  store ptr %call, ptr %__v0, align 8
  %1 = load ptr, ptr %__v0, align 8
  %call1 = call noundef i64 @_ZNKSt7variantIJldNSt7__cxx1112basic_stringIcSt11char_traitsIcESaIcEEESt3mapIS5_mSt4lessIS5_ESaISt4pairIKS5_mEEEEE5indexEv(ptr noundef nonnull align 8 dereferenceable(49) %1) #3
  switch i64 %call1, label %sw.default [
    i64 0, label %sw.bb
    i64 1, label %sw.bb2
    i64 2, label %sw.bb3
    i64 3, label %sw.bb4
    i64 4, label %sw.bb5
    i64 5, label %sw.bb6
    i64 6, label %sw.bb7
    i64 7, label %sw.bb8
    i64 8, label %sw.bb9
    i64 9, label %sw.bb10
    i64 10, label %sw.bb11
    i64 -1, label %sw.bb12
  ]

sw.bb:                                            ; preds = %entry
  %2 = load ptr, ptr %__visitor.addr, align 8
  %3 = load ptr, ptr %__v0, align 8
  call void @_ZNSt8__detail9__variant17__gen_vtable_implINS0_12_Multi_arrayIPFNS0_20__variant_idx_cookieEOZStneIJldNSt7__cxx1112basic_stringIcSt11char_traitsIcESaIcEEESt3mapISA_mSt4lessISA_ESaISt4pairIKSA_mEEEEEbRKSt7variantIJDpT_EESO_EUlOT_T0_E_RKSJ_IJldSA_SI_EEEJEEESt16integer_sequenceImJLm0EEEE14__visit_invokeEST_SW_(ptr noundef nonnull align 8 dereferenceable(16) %2, ptr noundef nonnull align 8 dereferenceable(49) %3)
  br label %return

sw.bb2:                                           ; preds = %entry
  %4 = load ptr, ptr %__visitor.addr, align 8
  %5 = load ptr, ptr %__v0, align 8
  call void @_ZNSt8__detail9__variant17__gen_vtable_implINS0_12_Multi_arrayIPFNS0_20__variant_idx_cookieEOZStneIJldNSt7__cxx1112basic_stringIcSt11char_traitsIcESaIcEEESt3mapISA_mSt4lessISA_ESaISt4pairIKSA_mEEEEEbRKSt7variantIJDpT_EESO_EUlOT_T0_E_RKSJ_IJldSA_SI_EEEJEEESt16integer_sequenceImJLm1EEEE14__visit_invokeEST_SW_(ptr noundef nonnull align 8 dereferenceable(16) %4, ptr noundef nonnull align 8 dereferenceable(49) %5)
  br label %return

sw.bb3:                                           ; preds = %entry
  %6 = load ptr, ptr %__visitor.addr, align 8
  %7 = load ptr, ptr %__v0, align 8
  call void @_ZNSt8__detail9__variant17__gen_vtable_implINS0_12_Multi_arrayIPFNS0_20__variant_idx_cookieEOZStneIJldNSt7__cxx1112basic_stringIcSt11char_traitsIcESaIcEEESt3mapISA_mSt4lessISA_ESaISt4pairIKSA_mEEEEEbRKSt7variantIJDpT_EESO_EUlOT_T0_E_RKSJ_IJldSA_SI_EEEJEEESt16integer_sequenceImJLm2EEEE14__visit_invokeEST_SW_(ptr noundef nonnull align 8 dereferenceable(16) %6, ptr noundef nonnull align 8 dereferenceable(49) %7)
  br label %return

sw.bb4:                                           ; preds = %entry
  %8 = load ptr, ptr %__visitor.addr, align 8
  %9 = load ptr, ptr %__v0, align 8
  call void @_ZNSt8__detail9__variant17__gen_vtable_implINS0_12_Multi_arrayIPFNS0_20__variant_idx_cookieEOZStneIJldNSt7__cxx1112basic_stringIcSt11char_traitsIcESaIcEEESt3mapISA_mSt4lessISA_ESaISt4pairIKSA_mEEEEEbRKSt7variantIJDpT_EESO_EUlOT_T0_E_RKSJ_IJldSA_SI_EEEJEEESt16integer_sequenceImJLm3EEEE14__visit_invokeEST_SW_(ptr noundef nonnull align 8 dereferenceable(16) %8, ptr noundef nonnull align 8 dereferenceable(49) %9)
  br label %return

sw.bb5:                                           ; preds = %entry
  unreachable

sw.bb6:                                           ; preds = %entry
  unreachable

sw.bb7:                                           ; preds = %entry
  unreachable

sw.bb8:                                           ; preds = %entry
  unreachable

sw.bb9:                                           ; preds = %entry
  unreachable

sw.bb10:                                          ; preds = %entry
  unreachable

sw.bb11:                                          ; preds = %entry
  unreachable

sw.bb12:                                          ; preds = %entry
  %10 = load ptr, ptr %__visitor.addr, align 8
  %11 = load ptr, ptr %__v0, align 8
  call void @_ZNSt8__detail9__variant17__gen_vtable_implINS0_12_Multi_arrayIPFNS0_20__variant_idx_cookieEOZStneIJldNSt7__cxx1112basic_stringIcSt11char_traitsIcESaIcEEESt3mapISA_mSt4lessISA_ESaISt4pairIKSA_mEEEEEbRKSt7variantIJDpT_EESO_EUlOT_T0_E_RKSJ_IJldSA_SI_EEEJEEESt16integer_sequenceImJLm18446744073709551615EEEE14__visit_invokeEST_SW_(ptr noundef nonnull align 8 dereferenceable(16) %10, ptr noundef nonnull align 8 dereferenceable(49) %11)
  br label %return

sw.default:                                       ; preds = %entry
  unreachable

return:                                           ; preds = %sw.bb12, %sw.bb4, %sw.bb3, %sw.bb2, %sw.bb
  ret void
}

; Function Attrs: mustprogress nounwind uwtable
define linkonce_odr hidden noundef nonnull align 8 dereferenceable(49) ptr @_ZZSt10__do_visitINSt8__detail9__variant20__variant_idx_cookieEZStneIJldNSt7__cxx1112basic_stringIcSt11char_traitsIcESaIcEEESt3mapIS9_mSt4lessIS9_ESaISt4pairIKS9_mEEEEEbRKSt7variantIJDpT_EESN_EUlOT_T0_E_JRKSI_IJldS9_SH_EEEEDcOSQ_DpOT1_ENKUlSU_zE_clB5cxx11ESU_z(ptr noundef nonnull align 1 dereferenceable(1) %this, ptr noundef nonnull align 8 dereferenceable(49) %__v, ...) #5 comdat align 2 {
entry:
  %this.addr = alloca ptr, align 8
  %__v.addr = alloca ptr, align 8
  store ptr %this, ptr %this.addr, align 8
  store ptr %__v, ptr %__v.addr, align 8
  %0 = load ptr, ptr %__v.addr, align 8
  ret ptr %0
}

; Function Attrs: mustprogress uwtable
define linkonce_odr hidden void @_ZNSt8__detail9__variant17__gen_vtable_implINS0_12_Multi_arrayIPFNS0_20__variant_idx_cookieEOZStneIJldNSt7__cxx1112basic_stringIcSt11char_traitsIcESaIcEEESt3mapISA_mSt4lessISA_ESaISt4pairIKSA_mEEEEEbRKSt7variantIJDpT_EESO_EUlOT_T0_E_RKSJ_IJldSA_SI_EEEJEEESt16integer_sequenceImJLm0EEEE14__visit_invokeEST_SW_(ptr noundef nonnull align 8 dereferenceable(16) %__visitor, ptr noundef nonnull align 8 dereferenceable(49) %__vars) #4 comdat align 2 {
entry:
  %__visitor.addr = alloca ptr, align 8
  %__vars.addr = alloca ptr, align 8
  %ref.tmp = alloca %"struct.std::integral_constant", align 1
  store ptr %__visitor, ptr %__visitor.addr, align 8
  store ptr %__vars, ptr %__vars.addr, align 8
  %0 = load ptr, ptr %__visitor.addr, align 8
  %1 = load ptr, ptr %__vars.addr, align 8
  %call = call noundef nonnull align 8 dereferenceable(8) ptr @_ZNSt8__detail9__variant17__gen_vtable_implINS0_12_Multi_arrayIPFNS0_20__variant_idx_cookieEOZStneIJldNSt7__cxx1112basic_stringIcSt11char_traitsIcESaIcEEESt3mapISA_mSt4lessISA_ESaISt4pairIKSA_mEEEEEbRKSt7variantIJDpT_EESO_EUlOT_T0_E_RKSJ_IJldSA_SI_EEEJEEESt16integer_sequenceImJLm0EEEE28__element_by_index_or_cookieILm0ESW_EEDcOSR_(ptr noundef nonnull align 8 dereferenceable(49) %1) #3
  call void @_ZSt8__invokeIZStneIJldNSt7__cxx1112basic_stringIcSt11char_traitsIcESaIcEEESt3mapIS6_mSt4lessIS6_ESaISt4pairIKS6_mEEEEEbRKSt7variantIJDpT_EESK_EUlOT_T0_E_JRKlSt17integral_constantImLm0EEEENSt15__invoke_resultISL_JDpT0_EE4typeESM_DpOSU_(ptr noundef nonnull align 8 dereferenceable(16) %0, ptr noundef nonnull align 8 dereferenceable(8) %call, ptr noundef nonnull align 1 dereferenceable(1) %ref.tmp)
  ret void
}

; Function Attrs: mustprogress uwtable
define linkonce_odr hidden void @_ZNSt8__detail9__variant17__gen_vtable_implINS0_12_Multi_arrayIPFNS0_20__variant_idx_cookieEOZStneIJldNSt7__cxx1112basic_stringIcSt11char_traitsIcESaIcEEESt3mapISA_mSt4lessISA_ESaISt4pairIKSA_mEEEEEbRKSt7variantIJDpT_EESO_EUlOT_T0_E_RKSJ_IJldSA_SI_EEEJEEESt16integer_sequenceImJLm1EEEE14__visit_invokeEST_SW_(ptr noundef nonnull align 8 dereferenceable(16) %__visitor, ptr noundef nonnull align 8 dereferenceable(49) %__vars) #4 comdat align 2 {
entry:
  %__visitor.addr = alloca ptr, align 8
  %__vars.addr = alloca ptr, align 8
  %ref.tmp = alloca %"struct.std::integral_constant.257", align 1
  store ptr %__visitor, ptr %__visitor.addr, align 8
  store ptr %__vars, ptr %__vars.addr, align 8
  %0 = load ptr, ptr %__visitor.addr, align 8
  %1 = load ptr, ptr %__vars.addr, align 8
  %call = call noundef nonnull align 8 dereferenceable(8) ptr @_ZNSt8__detail9__variant17__gen_vtable_implINS0_12_Multi_arrayIPFNS0_20__variant_idx_cookieEOZStneIJldNSt7__cxx1112basic_stringIcSt11char_traitsIcESaIcEEESt3mapISA_mSt4lessISA_ESaISt4pairIKSA_mEEEEEbRKSt7variantIJDpT_EESO_EUlOT_T0_E_RKSJ_IJldSA_SI_EEEJEEESt16integer_sequenceImJLm1EEEE28__element_by_index_or_cookieILm1ESW_EEDcOSR_(ptr noundef nonnull align 8 dereferenceable(49) %1) #3
  call void @_ZSt8__invokeIZStneIJldNSt7__cxx1112basic_stringIcSt11char_traitsIcESaIcEEESt3mapIS6_mSt4lessIS6_ESaISt4pairIKS6_mEEEEEbRKSt7variantIJDpT_EESK_EUlOT_T0_E_JRKdSt17integral_constantImLm1EEEENSt15__invoke_resultISL_JDpT0_EE4typeESM_DpOSU_(ptr noundef nonnull align 8 dereferenceable(16) %0, ptr noundef nonnull align 8 dereferenceable(8) %call, ptr noundef nonnull align 1 dereferenceable(1) %ref.tmp)
  ret void
}

; Function Attrs: mustprogress uwtable
define linkonce_odr hidden void @_ZNSt8__detail9__variant17__gen_vtable_implINS0_12_Multi_arrayIPFNS0_20__variant_idx_cookieEOZStneIJldNSt7__cxx1112basic_stringIcSt11char_traitsIcESaIcEEESt3mapISA_mSt4lessISA_ESaISt4pairIKSA_mEEEEEbRKSt7variantIJDpT_EESO_EUlOT_T0_E_RKSJ_IJldSA_SI_EEEJEEESt16integer_sequenceImJLm2EEEE14__visit_invokeEST_SW_(ptr noundef nonnull align 8 dereferenceable(16) %__visitor, ptr noundef nonnull align 8 dereferenceable(49) %__vars) #4 comdat align 2 {
entry:
  %__visitor.addr = alloca ptr, align 8
  %__vars.addr = alloca ptr, align 8
  %ref.tmp = alloca %"struct.std::integral_constant.258", align 1
  store ptr %__visitor, ptr %__visitor.addr, align 8
  store ptr %__vars, ptr %__vars.addr, align 8
  %0 = load ptr, ptr %__visitor.addr, align 8
  %1 = load ptr, ptr %__vars.addr, align 8
  %call = call noundef nonnull align 8 dereferenceable(32) ptr @_ZNSt8__detail9__variant17__gen_vtable_implINS0_12_Multi_arrayIPFNS0_20__variant_idx_cookieEOZStneIJldNSt7__cxx1112basic_stringIcSt11char_traitsIcESaIcEEESt3mapISA_mSt4lessISA_ESaISt4pairIKSA_mEEEEEbRKSt7variantIJDpT_EESO_EUlOT_T0_E_RKSJ_IJldSA_SI_EEEJEEESt16integer_sequenceImJLm2EEEE28__element_by_index_or_cookieILm2ESW_EEDcOSR_(ptr noundef nonnull align 8 dereferenceable(49) %1) #3
  call void @_ZSt8__invokeIZStneIJldNSt7__cxx1112basic_stringIcSt11char_traitsIcESaIcEEESt3mapIS6_mSt4lessIS6_ESaISt4pairIKS6_mEEEEEbRKSt7variantIJDpT_EESK_EUlOT_T0_E_JRSB_St17integral_constantImLm2EEEENSt15__invoke_resultISL_JDpT0_EE4typeESM_DpOST_(ptr noundef nonnull align 8 dereferenceable(16) %0, ptr noundef nonnull align 8 dereferenceable(32) %call, ptr noundef nonnull align 1 dereferenceable(1) %ref.tmp)
  ret void
}

; Function Attrs: mustprogress uwtable
define linkonce_odr hidden void @_ZNSt8__detail9__variant17__gen_vtable_implINS0_12_Multi_arrayIPFNS0_20__variant_idx_cookieEOZStneIJldNSt7__cxx1112basic_stringIcSt11char_traitsIcESaIcEEESt3mapISA_mSt4lessISA_ESaISt4pairIKSA_mEEEEEbRKSt7variantIJDpT_EESO_EUlOT_T0_E_RKSJ_IJldSA_SI_EEEJEEESt16integer_sequenceImJLm3EEEE14__visit_invokeEST_SW_(ptr noundef nonnull align 8 dereferenceable(16) %__visitor, ptr noundef nonnull align 8 dereferenceable(49) %__vars) #4 comdat align 2 {
entry:
  %__visitor.addr = alloca ptr, align 8
  %__vars.addr = alloca ptr, align 8
  %ref.tmp = alloca %"struct.std::integral_constant.259", align 1
  store ptr %__visitor, ptr %__visitor.addr, align 8
  store ptr %__vars, ptr %__vars.addr, align 8
  %0 = load ptr, ptr %__visitor.addr, align 8
  %1 = load ptr, ptr %__vars.addr, align 8
  %call = call noundef nonnull align 8 dereferenceable(48) ptr @_ZNSt8__detail9__variant17__gen_vtable_implINS0_12_Multi_arrayIPFNS0_20__variant_idx_cookieEOZStneIJldNSt7__cxx1112basic_stringIcSt11char_traitsIcESaIcEEESt3mapISA_mSt4lessISA_ESaISt4pairIKSA_mEEEEEbRKSt7variantIJDpT_EESO_EUlOT_T0_E_RKSJ_IJldSA_SI_EEEJEEESt16integer_sequenceImJLm3EEEE28__element_by_index_or_cookieILm3ESW_EEDcOSR_(ptr noundef nonnull align 8 dereferenceable(49) %1) #3
  call void @_ZSt8__invokeIZStneIJldNSt7__cxx1112basic_stringIcSt11char_traitsIcESaIcEEESt3mapIS6_mSt4lessIS6_ESaISt4pairIKS6_mEEEEEbRKSt7variantIJDpT_EESK_EUlOT_T0_E_JRKSE_St17integral_constantImLm3EEEENSt15__invoke_resultISL_JDpT0_EE4typeESM_DpOSU_(ptr noundef nonnull align 8 dereferenceable(16) %0, ptr noundef nonnull align 8 dereferenceable(48) %call, ptr noundef nonnull align 1 dereferenceable(1) %ref.tmp)
  ret void
}

; Function Attrs: mustprogress uwtable
define linkonce_odr hidden void @_ZNSt8__detail9__variant17__gen_vtable_implINS0_12_Multi_arrayIPFNS0_20__variant_idx_cookieEOZStneIJldNSt7__cxx1112basic_stringIcSt11char_traitsIcESaIcEEESt3mapISA_mSt4lessISA_ESaISt4pairIKSA_mEEEEEbRKSt7variantIJDpT_EESO_EUlOT_T0_E_RKSJ_IJldSA_SI_EEEJEEESt16integer_sequenceImJLm18446744073709551615EEEE14__visit_invokeEST_SW_(ptr noundef nonnull align 8 dereferenceable(16) %__visitor, ptr noundef nonnull align 8 dereferenceable(49) %__vars) #4 comdat align 2 {
entry:
  %__visitor.addr = alloca ptr, align 8
  %__vars.addr = alloca ptr, align 8
  %ref.tmp = alloca %"struct.std::__detail::__variant::__variant_cookie", align 1
  %ref.tmp1 = alloca %"struct.std::integral_constant.261", align 1
  store ptr %__visitor, ptr %__visitor.addr, align 8
  store ptr %__vars, ptr %__vars.addr, align 8
  %0 = load ptr, ptr %__visitor.addr, align 8
  %1 = load ptr, ptr %__vars.addr, align 8
  call void @_ZNSt8__detail9__variant17__gen_vtable_implINS0_12_Multi_arrayIPFNS0_20__variant_idx_cookieEOZStneIJldNSt7__cxx1112basic_stringIcSt11char_traitsIcESaIcEEESt3mapISA_mSt4lessISA_ESaISt4pairIKSA_mEEEEEbRKSt7variantIJDpT_EESO_EUlOT_T0_E_RKSJ_IJldSA_SI_EEEJEEESt16integer_sequenceImJLm18446744073709551615EEEE28__element_by_index_or_cookieILm18446744073709551615ESW_EEDcOSR_(ptr noundef nonnull align 8 dereferenceable(49) %1) #3
  call void @_ZSt8__invokeIZStneIJldNSt7__cxx1112basic_stringIcSt11char_traitsIcESaIcEEESt3mapIS6_mSt4lessIS6_ESaISt4pairIKS6_mEEEEEbRKSt7variantIJDpT_EESK_EUlOT_T0_E_JNSt8__detail9__variant16__variant_cookieESt17integral_constantImLm18446744073709551615EEEENSt15__invoke_resultISL_JDpT0_EE4typeESM_DpOSV_(ptr noundef nonnull align 8 dereferenceable(16) %0, ptr noundef nonnull align 1 dereferenceable(1) %ref.tmp, ptr noundef nonnull align 1 dereferenceable(1) %ref.tmp1)
  ret void
}

; Function Attrs: mustprogress uwtable
define linkonce_odr void @_ZSt8__invokeIZStneIJldNSt7__cxx1112basic_stringIcSt11char_traitsIcESaIcEEESt3mapIS6_mSt4lessIS6_ESaISt4pairIKS6_mEEEEEbRKSt7variantIJDpT_EESK_EUlOT_T0_E_JRKlSt17integral_constantImLm0EEEENSt15__invoke_resultISL_JDpT0_EE4typeESM_DpOSU_(ptr noundef nonnull align 8 dereferenceable(16) %__fn, ptr noundef nonnull align 8 dereferenceable(8) %__args, ptr noundef nonnull align 1 dereferenceable(1) %__args1) #4 comdat {
entry:
  %__fn.addr = alloca ptr, align 8
  %__args.addr = alloca ptr, align 8
  %__args.addr2 = alloca ptr, align 8
  store ptr %__fn, ptr %__fn.addr, align 8
  store ptr %__args, ptr %__args.addr, align 8
  store ptr %__args1, ptr %__args.addr2, align 8
  %0 = load ptr, ptr %__fn.addr, align 8
  %1 = load ptr, ptr %__args.addr, align 8
  %2 = load ptr, ptr %__args.addr2, align 8
  call void @_ZSt13__invoke_implIvZStneIJldNSt7__cxx1112basic_stringIcSt11char_traitsIcESaIcEEESt3mapIS6_mSt4lessIS6_ESaISt4pairIKS6_mEEEEEbRKSt7variantIJDpT_EESK_EUlOT_T0_E_JRKlSt17integral_constantImLm0EEEESL_St14__invoke_otherOSN_DpOT1_(ptr noundef nonnull align 8 dereferenceable(16) %0, ptr noundef nonnull align 8 dereferenceable(8) %1, ptr noundef nonnull align 1 dereferenceable(1) %2)
  ret void
}

; Function Attrs: mustprogress nounwind uwtable
define linkonce_odr hidden noundef nonnull align 8 dereferenceable(8) ptr @_ZNSt8__detail9__variant17__gen_vtable_implINS0_12_Multi_arrayIPFNS0_20__variant_idx_cookieEOZStneIJldNSt7__cxx1112basic_stringIcSt11char_traitsIcESaIcEEESt3mapISA_mSt4lessISA_ESaISt4pairIKSA_mEEEEEbRKSt7variantIJDpT_EESO_EUlOT_T0_E_RKSJ_IJldSA_SI_EEEJEEESt16integer_sequenceImJLm0EEEE28__element_by_index_or_cookieILm0ESW_EEDcOSR_(ptr noundef nonnull align 8 dereferenceable(49) %__var) #5 comdat align 2 {
entry:
  %__var.addr = alloca ptr, align 8
  store ptr %__var, ptr %__var.addr, align 8
  %0 = load ptr, ptr %__var.addr, align 8
  %call = call noundef nonnull align 8 dereferenceable(8) ptr @_ZNSt8__detail9__variant5__getILm0ERKSt7variantIJldNSt7__cxx1112basic_stringIcSt11char_traitsIcESaIcEEESt3mapIS8_mSt4lessIS8_ESaISt4pairIKS8_mEEEEEEEDcOT0_(ptr noundef nonnull align 8 dereferenceable(49) %0) #3
  ret ptr %call
}

; Function Attrs: mustprogress uwtable
define linkonce_odr void @_ZSt13__invoke_implIvZStneIJldNSt7__cxx1112basic_stringIcSt11char_traitsIcESaIcEEESt3mapIS6_mSt4lessIS6_ESaISt4pairIKS6_mEEEEEbRKSt7variantIJDpT_EESK_EUlOT_T0_E_JRKlSt17integral_constantImLm0EEEESL_St14__invoke_otherOSN_DpOT1_(ptr noundef nonnull align 8 dereferenceable(16) %__f, ptr noundef nonnull align 8 dereferenceable(8) %__args, ptr noundef nonnull align 1 dereferenceable(1) %__args1) #4 comdat {
entry:
  %__f.addr = alloca ptr, align 8
  %__args.addr = alloca ptr, align 8
  %__args.addr2 = alloca ptr, align 8
  store ptr %__f, ptr %__f.addr, align 8
  store ptr %__args, ptr %__args.addr, align 8
  store ptr %__args1, ptr %__args.addr2, align 8
  %0 = load ptr, ptr %__f.addr, align 8
  %1 = load ptr, ptr %__args.addr, align 8
  call void @_ZZStneIJldNSt7__cxx1112basic_stringIcSt11char_traitsIcESaIcEEESt3mapIS5_mSt4lessIS5_ESaISt4pairIKS5_mEEEEEbRKSt7variantIJDpT_EESJ_ENUlOT_T0_E_clIRKlSt17integral_constantImLm0EEEEDaSL_SM_(ptr noundef nonnull align 8 dereferenceable(16) %0, ptr noundef nonnull align 8 dereferenceable(8) %1)
  ret void
}

; Function Attrs: mustprogress uwtable
define linkonce_odr hidden void @_ZZStneIJldNSt7__cxx1112basic_stringIcSt11char_traitsIcESaIcEEESt3mapIS5_mSt4lessIS5_ESaISt4pairIKS5_mEEEEEbRKSt7variantIJDpT_EESJ_ENUlOT_T0_E_clIRKlSt17integral_constantImLm0EEEEDaSL_SM_(ptr noundef nonnull align 8 dereferenceable(16) %this, ptr noundef nonnull align 8 dereferenceable(8) %__rhs_mem) #4 comdat align 2 {
entry:
  %__rhs_index = alloca %"struct.std::integral_constant", align 1
  %this.addr = alloca ptr, align 8
  %__rhs_mem.addr = alloca ptr, align 8
  %__this_mem = alloca ptr, align 8
  store ptr %this, ptr %this.addr, align 8
  store ptr %__rhs_mem, ptr %__rhs_mem.addr, align 8
  %this1 = load ptr, ptr %this.addr, align 8
  %0 = getelementptr inbounds %class.anon.254, ptr %this1, i32 0, i32 1
  %1 = load ptr, ptr %0, align 8
  %call = call noundef i64 @_ZNKSt7variantIJldNSt7__cxx1112basic_stringIcSt11char_traitsIcESaIcEEESt3mapIS5_mSt4lessIS5_ESaISt4pairIKS5_mEEEEE5indexEv(ptr noundef nonnull align 8 dereferenceable(49) %1) #3
  %call2 = call noundef i64 @_ZNKSt17integral_constantImLm0EEcvmEv(ptr noundef nonnull align 1 dereferenceable(1) %__rhs_index) #3
  %cmp = icmp eq i64 %call, %call2
  br i1 %cmp, label %if.then, label %if.else

if.then:                                          ; preds = %entry
  %2 = getelementptr inbounds %class.anon.254, ptr %this1, i32 0, i32 1
  %3 = load ptr, ptr %2, align 8
  %call3 = call noundef nonnull align 8 dereferenceable(8) ptr @_ZSt3getILm0EJldNSt7__cxx1112basic_stringIcSt11char_traitsIcESaIcEEESt3mapIS5_mSt4lessIS5_ESaISt4pairIKS5_mEEEEERKNSt19variant_alternativeIXT_ESt7variantIJDpT0_EEE4typeERKSI_(ptr noundef nonnull align 8 dereferenceable(49) %3)
  store ptr %call3, ptr %__this_mem, align 8
  %4 = load ptr, ptr %__this_mem, align 8
  %5 = load i64, ptr %4, align 8
  %6 = load ptr, ptr %__rhs_mem.addr, align 8
  %7 = load i64, ptr %6, align 8
  %cmp4 = icmp ne i64 %5, %7
  %8 = getelementptr inbounds %class.anon.254, ptr %this1, i32 0, i32 0
  %9 = load ptr, ptr %8, align 8
  %frombool = zext i1 %cmp4 to i8
  store i8 %frombool, ptr %9, align 1
  br label %if.end

if.else:                                          ; preds = %entry
  %10 = getelementptr inbounds %class.anon.254, ptr %this1, i32 0, i32 1
  %11 = load ptr, ptr %10, align 8
  %call5 = call noundef i64 @_ZNKSt7variantIJldNSt7__cxx1112basic_stringIcSt11char_traitsIcESaIcEEESt3mapIS5_mSt4lessIS5_ESaISt4pairIKS5_mEEEEE5indexEv(ptr noundef nonnull align 8 dereferenceable(49) %11) #3
  %add = add i64 %call5, 1
  %call6 = call noundef i64 @_ZNKSt17integral_constantImLm0EEcvmEv(ptr noundef nonnull align 1 dereferenceable(1) %__rhs_index) #3
  %add7 = add i64 %call6, 1
  %cmp8 = icmp ne i64 %add, %add7
  %12 = getelementptr inbounds %class.anon.254, ptr %this1, i32 0, i32 0
  %13 = load ptr, ptr %12, align 8
  %frombool9 = zext i1 %cmp8 to i8
  store i8 %frombool9, ptr %13, align 1
  br label %if.end

if.end:                                           ; preds = %if.else, %if.then
  ret void
}

; Function Attrs: mustprogress nounwind uwtable
define linkonce_odr hidden noundef i64 @_ZNKSt17integral_constantImLm0EEcvmEv(ptr noundef nonnull align 1 dereferenceable(1) %this) #5 comdat align 2 {
entry:
  %this.addr = alloca ptr, align 8
  store ptr %this, ptr %this.addr, align 8
  ret i64 0
}

; Function Attrs: mustprogress uwtable
define linkonce_odr noundef nonnull align 8 dereferenceable(8) ptr @_ZSt3getILm0EJldNSt7__cxx1112basic_stringIcSt11char_traitsIcESaIcEEESt3mapIS5_mSt4lessIS5_ESaISt4pairIKS5_mEEEEERKNSt19variant_alternativeIXT_ESt7variantIJDpT0_EEE4typeERKSI_(ptr noundef nonnull align 8 dereferenceable(49) %__v) #4 comdat {
entry:
  %__v.addr = alloca ptr, align 8
  store ptr %__v, ptr %__v.addr, align 8
  %0 = load ptr, ptr %__v.addr, align 8
  %call = call noundef i64 @_ZNKSt7variantIJldNSt7__cxx1112basic_stringIcSt11char_traitsIcESaIcEEESt3mapIS5_mSt4lessIS5_ESaISt4pairIKS5_mEEEEE5indexEv(ptr noundef nonnull align 8 dereferenceable(49) %0) #3
  %cmp = icmp ne i64 %call, 0
  br i1 %cmp, label %if.then, label %if.end

if.then:                                          ; preds = %entry
  %1 = load ptr, ptr %__v.addr, align 8
  %call1 = call noundef zeroext i1 @_ZNKSt7variantIJldNSt7__cxx1112basic_stringIcSt11char_traitsIcESaIcEEESt3mapIS5_mSt4lessIS5_ESaISt4pairIKS5_mEEEEE22valueless_by_exceptionEv(ptr noundef nonnull align 8 dereferenceable(49) %1) #3
  call void @_ZSt26__throw_bad_variant_accessb(i1 noundef zeroext %call1)
  br label %if.end

if.end:                                           ; preds = %if.then, %entry
  %2 = load ptr, ptr %__v.addr, align 8
  %call2 = call noundef nonnull align 8 dereferenceable(8) ptr @_ZNSt8__detail9__variant5__getILm0ERKSt7variantIJldNSt7__cxx1112basic_stringIcSt11char_traitsIcESaIcEEESt3mapIS8_mSt4lessIS8_ESaISt4pairIKS8_mEEEEEEEDcOT0_(ptr noundef nonnull align 8 dereferenceable(49) %2) #3
  ret ptr %call2
}

; Function Attrs: mustprogress uwtable
define linkonce_odr void @_ZSt26__throw_bad_variant_accessb(i1 noundef zeroext %__valueless) #4 comdat {
entry:
  %__valueless.addr = alloca i8, align 1
  %frombool = zext i1 %__valueless to i8
  store i8 %frombool, ptr %__valueless.addr, align 1
  %0 = load i8, ptr %__valueless.addr, align 1
  %tobool = trunc i8 %0 to i1
  br i1 %tobool, label %if.then, label %if.else

if.then:                                          ; preds = %entry
  call void @_ZSt26__throw_bad_variant_accessPKc(ptr noundef @.str.5)
  br label %if.end

if.else:                                          ; preds = %entry
  call void @_ZSt26__throw_bad_variant_accessPKc(ptr noundef @.str.6)
  br label %if.end

if.end:                                           ; preds = %if.else, %if.then
  ret void
}

; Function Attrs: mustprogress nounwind uwtable
define linkonce_odr hidden noundef zeroext i1 @_ZNKSt7variantIJldNSt7__cxx1112basic_stringIcSt11char_traitsIcESaIcEEESt3mapIS5_mSt4lessIS5_ESaISt4pairIKS5_mEEEEE22valueless_by_exceptionEv(ptr noundef nonnull align 8 dereferenceable(49) %this) #5 comdat align 2 {
entry:
  %this.addr = alloca ptr, align 8
  store ptr %this, ptr %this.addr, align 8
  %this1 = load ptr, ptr %this.addr, align 8
  %call = call noundef zeroext i1 @_ZNKSt8__detail9__variant16_Variant_storageILb0EJldNSt7__cxx1112basic_stringIcSt11char_traitsIcESaIcEEESt3mapIS7_mSt4lessIS7_ESaISt4pairIKS7_mEEEEE8_M_validEv(ptr noundef nonnull align 8 dereferenceable(49) %this1) #3
  %lnot = xor i1 %call, true
  ret i1 %lnot
}

; Function Attrs: mustprogress nounwind uwtable
define linkonce_odr noundef nonnull align 8 dereferenceable(8) ptr @_ZNSt8__detail9__variant5__getILm0ERKSt7variantIJldNSt7__cxx1112basic_stringIcSt11char_traitsIcESaIcEEESt3mapIS8_mSt4lessIS8_ESaISt4pairIKS8_mEEEEEEEDcOT0_(ptr noundef nonnull align 8 dereferenceable(49) %__v) #5 comdat {
entry:
  %__v.addr = alloca ptr, align 8
  store ptr %__v, ptr %__v.addr, align 8
  %0 = load ptr, ptr %__v.addr, align 8
  %_M_u = getelementptr inbounds %"struct.std::__detail::__variant::_Variant_storage", ptr %0, i32 0, i32 0
  %call = call noundef nonnull align 8 dereferenceable(8) ptr @_ZNSt8__detail9__variant7__get_nILm0ERKNS0_15_Variadic_unionIJldNSt7__cxx1112basic_stringIcSt11char_traitsIcESaIcEEESt3mapIS8_mSt4lessIS8_ESaISt4pairIKS8_mEEEEEEEEDcOT0_(ptr noundef nonnull align 8 dereferenceable(48) %_M_u) #3
  ret ptr %call
}

; Function Attrs: mustprogress uwtable
define linkonce_odr void @_ZSt26__throw_bad_variant_accessPKc(ptr noundef %__what) #4 comdat {
entry:
  %__what.addr = alloca ptr, align 8
  store ptr %__what, ptr %__what.addr, align 8
  %exception = call ptr @__cxa_allocate_exception(i64 16) #3
  %0 = load ptr, ptr %__what.addr, align 8
  call void @_ZNSt18bad_variant_accessC2EPKc(ptr noundef nonnull align 8 dereferenceable(16) %exception, ptr noundef %0) #3
  call void @__cxa_throw(ptr %exception, ptr @_ZTISt18bad_variant_access, ptr @_ZNSt18bad_variant_accessD2Ev) #18
  unreachable
}

declare ptr @__cxa_allocate_exception(i64)

; Function Attrs: mustprogress nounwind uwtable
define linkonce_odr hidden void @_ZNSt18bad_variant_accessC2EPKc(ptr noundef nonnull align 8 dereferenceable(16) %this, ptr noundef %__reason) unnamed_addr #5 comdat align 2 {
entry:
  %this.addr = alloca ptr, align 8
  %__reason.addr = alloca ptr, align 8
  store ptr %this, ptr %this.addr, align 8
  store ptr %__reason, ptr %__reason.addr, align 8
  %this1 = load ptr, ptr %this.addr, align 8
  call void @_ZNSt9exceptionC2Ev(ptr noundef nonnull align 8 dereferenceable(8) %this1) #3
  store ptr getelementptr inbounds ({ [5 x ptr] }, ptr @_ZTVSt18bad_variant_access, i32 0, inrange i32 0, i32 2), ptr %this1, align 8
  %_M_reason = getelementptr inbounds %"class.std::bad_variant_access", ptr %this1, i32 0, i32 1
  %0 = load ptr, ptr %__reason.addr, align 8
  store ptr %0, ptr %_M_reason, align 8
  ret void
}

; Function Attrs: mustprogress nounwind uwtable
define linkonce_odr hidden void @_ZNSt18bad_variant_accessD2Ev(ptr noundef nonnull align 8 dereferenceable(16) %this) unnamed_addr #5 comdat align 2 {
entry:
  %this.addr = alloca ptr, align 8
  store ptr %this, ptr %this.addr, align 8
  %this1 = load ptr, ptr %this.addr, align 8
  call void @_ZNSt9exceptionD2Ev(ptr noundef nonnull align 8 dereferenceable(8) %this1) #3
  ret void
}

declare void @__cxa_throw(ptr, ptr, ptr)

; Function Attrs: mustprogress nounwind uwtable
define linkonce_odr hidden void @_ZNSt9exceptionC2Ev(ptr noundef nonnull align 8 dereferenceable(8) %this) unnamed_addr #5 comdat align 2 {
entry:
  %this.addr = alloca ptr, align 8
  store ptr %this, ptr %this.addr, align 8
  %this1 = load ptr, ptr %this.addr, align 8
  store ptr getelementptr inbounds ({ [5 x ptr] }, ptr @_ZTVSt9exception, i32 0, inrange i32 0, i32 2), ptr %this1, align 8
  ret void
}

; Function Attrs: mustprogress nounwind uwtable
define linkonce_odr hidden void @_ZNSt18bad_variant_accessD0Ev(ptr noundef nonnull align 8 dereferenceable(16) %this) unnamed_addr #5 comdat align 2 {
entry:
  %this.addr = alloca ptr, align 8
  store ptr %this, ptr %this.addr, align 8
  %this1 = load ptr, ptr %this.addr, align 8
  call void @_ZNSt18bad_variant_accessD2Ev(ptr noundef nonnull align 8 dereferenceable(16) %this1) #3
  call void @_ZdlPv(ptr noundef %this1) #17
  ret void
}

; Function Attrs: mustprogress nounwind uwtable
define linkonce_odr hidden noundef ptr @_ZNKSt18bad_variant_access4whatEv(ptr noundef nonnull align 8 dereferenceable(16) %this) unnamed_addr #5 comdat align 2 {
entry:
  %this.addr = alloca ptr, align 8
  store ptr %this, ptr %this.addr, align 8
  %this1 = load ptr, ptr %this.addr, align 8
  %_M_reason = getelementptr inbounds %"class.std::bad_variant_access", ptr %this1, i32 0, i32 1
  %0 = load ptr, ptr %_M_reason, align 8
  ret ptr %0
}

; Function Attrs: nounwind
declare void @_ZNSt9exceptionD2Ev(ptr noundef nonnull align 8 dereferenceable(8)) unnamed_addr #2

; Function Attrs: mustprogress nounwind uwtable
define linkonce_odr noundef nonnull align 8 dereferenceable(8) ptr @_ZNSt8__detail9__variant7__get_nILm0ERKNS0_15_Variadic_unionIJldNSt7__cxx1112basic_stringIcSt11char_traitsIcESaIcEEESt3mapIS8_mSt4lessIS8_ESaISt4pairIKS8_mEEEEEEEEDcOT0_(ptr noundef nonnull align 8 dereferenceable(48) %__u) #5 comdat {
entry:
  %__u.addr = alloca ptr, align 8
  store ptr %__u, ptr %__u.addr, align 8
  %0 = load ptr, ptr %__u.addr, align 8
  %call = call noundef nonnull align 8 dereferenceable(8) ptr @_ZNKRSt8__detail9__variant14_UninitializedIlLb1EE6_M_getEv(ptr noundef nonnull align 8 dereferenceable(8) %0) #3
  ret ptr %call
}

; Function Attrs: mustprogress nounwind uwtable
define linkonce_odr hidden noundef nonnull align 8 dereferenceable(8) ptr @_ZNKRSt8__detail9__variant14_UninitializedIlLb1EE6_M_getEv(ptr noundef nonnull align 8 dereferenceable(8) %this) #5 comdat align 2 {
entry:
  %this.addr = alloca ptr, align 8
  store ptr %this, ptr %this.addr, align 8
  %this1 = load ptr, ptr %this.addr, align 8
  %_M_storage = getelementptr inbounds %"struct.std::__detail::__variant::_Uninitialized", ptr %this1, i32 0, i32 0
  ret ptr %_M_storage
}

; Function Attrs: mustprogress uwtable
define linkonce_odr void @_ZSt8__invokeIZStneIJldNSt7__cxx1112basic_stringIcSt11char_traitsIcESaIcEEESt3mapIS6_mSt4lessIS6_ESaISt4pairIKS6_mEEEEEbRKSt7variantIJDpT_EESK_EUlOT_T0_E_JRKdSt17integral_constantImLm1EEEENSt15__invoke_resultISL_JDpT0_EE4typeESM_DpOSU_(ptr noundef nonnull align 8 dereferenceable(16) %__fn, ptr noundef nonnull align 8 dereferenceable(8) %__args, ptr noundef nonnull align 1 dereferenceable(1) %__args1) #4 comdat {
entry:
  %__fn.addr = alloca ptr, align 8
  %__args.addr = alloca ptr, align 8
  %__args.addr2 = alloca ptr, align 8
  store ptr %__fn, ptr %__fn.addr, align 8
  store ptr %__args, ptr %__args.addr, align 8
  store ptr %__args1, ptr %__args.addr2, align 8
  %0 = load ptr, ptr %__fn.addr, align 8
  %1 = load ptr, ptr %__args.addr, align 8
  %2 = load ptr, ptr %__args.addr2, align 8
  call void @_ZSt13__invoke_implIvZStneIJldNSt7__cxx1112basic_stringIcSt11char_traitsIcESaIcEEESt3mapIS6_mSt4lessIS6_ESaISt4pairIKS6_mEEEEEbRKSt7variantIJDpT_EESK_EUlOT_T0_E_JRKdSt17integral_constantImLm1EEEESL_St14__invoke_otherOSN_DpOT1_(ptr noundef nonnull align 8 dereferenceable(16) %0, ptr noundef nonnull align 8 dereferenceable(8) %1, ptr noundef nonnull align 1 dereferenceable(1) %2)
  ret void
}

; Function Attrs: mustprogress nounwind uwtable
define linkonce_odr hidden noundef nonnull align 8 dereferenceable(8) ptr @_ZNSt8__detail9__variant17__gen_vtable_implINS0_12_Multi_arrayIPFNS0_20__variant_idx_cookieEOZStneIJldNSt7__cxx1112basic_stringIcSt11char_traitsIcESaIcEEESt3mapISA_mSt4lessISA_ESaISt4pairIKSA_mEEEEEbRKSt7variantIJDpT_EESO_EUlOT_T0_E_RKSJ_IJldSA_SI_EEEJEEESt16integer_sequenceImJLm1EEEE28__element_by_index_or_cookieILm1ESW_EEDcOSR_(ptr noundef nonnull align 8 dereferenceable(49) %__var) #5 comdat align 2 {
entry:
  %__var.addr = alloca ptr, align 8
  store ptr %__var, ptr %__var.addr, align 8
  %0 = load ptr, ptr %__var.addr, align 8
  %call = call noundef nonnull align 8 dereferenceable(8) ptr @_ZNSt8__detail9__variant5__getILm1ERKSt7variantIJldNSt7__cxx1112basic_stringIcSt11char_traitsIcESaIcEEESt3mapIS8_mSt4lessIS8_ESaISt4pairIKS8_mEEEEEEEDcOT0_(ptr noundef nonnull align 8 dereferenceable(49) %0) #3
  ret ptr %call
}

; Function Attrs: mustprogress uwtable
define linkonce_odr void @_ZSt13__invoke_implIvZStneIJldNSt7__cxx1112basic_stringIcSt11char_traitsIcESaIcEEESt3mapIS6_mSt4lessIS6_ESaISt4pairIKS6_mEEEEEbRKSt7variantIJDpT_EESK_EUlOT_T0_E_JRKdSt17integral_constantImLm1EEEESL_St14__invoke_otherOSN_DpOT1_(ptr noundef nonnull align 8 dereferenceable(16) %__f, ptr noundef nonnull align 8 dereferenceable(8) %__args, ptr noundef nonnull align 1 dereferenceable(1) %__args1) #4 comdat {
entry:
  %__f.addr = alloca ptr, align 8
  %__args.addr = alloca ptr, align 8
  %__args.addr2 = alloca ptr, align 8
  store ptr %__f, ptr %__f.addr, align 8
  store ptr %__args, ptr %__args.addr, align 8
  store ptr %__args1, ptr %__args.addr2, align 8
  %0 = load ptr, ptr %__f.addr, align 8
  %1 = load ptr, ptr %__args.addr, align 8
  call void @_ZZStneIJldNSt7__cxx1112basic_stringIcSt11char_traitsIcESaIcEEESt3mapIS5_mSt4lessIS5_ESaISt4pairIKS5_mEEEEEbRKSt7variantIJDpT_EESJ_ENUlOT_T0_E_clIRKdSt17integral_constantImLm1EEEEDaSL_SM_(ptr noundef nonnull align 8 dereferenceable(16) %0, ptr noundef nonnull align 8 dereferenceable(8) %1)
  ret void
}

; Function Attrs: mustprogress uwtable
define linkonce_odr hidden void @_ZZStneIJldNSt7__cxx1112basic_stringIcSt11char_traitsIcESaIcEEESt3mapIS5_mSt4lessIS5_ESaISt4pairIKS5_mEEEEEbRKSt7variantIJDpT_EESJ_ENUlOT_T0_E_clIRKdSt17integral_constantImLm1EEEEDaSL_SM_(ptr noundef nonnull align 8 dereferenceable(16) %this, ptr noundef nonnull align 8 dereferenceable(8) %__rhs_mem) #4 comdat align 2 {
entry:
  %__rhs_index = alloca %"struct.std::integral_constant.257", align 1
  %this.addr = alloca ptr, align 8
  %__rhs_mem.addr = alloca ptr, align 8
  %__this_mem = alloca ptr, align 8
  store ptr %this, ptr %this.addr, align 8
  store ptr %__rhs_mem, ptr %__rhs_mem.addr, align 8
  %this1 = load ptr, ptr %this.addr, align 8
  %0 = getelementptr inbounds %class.anon.254, ptr %this1, i32 0, i32 1
  %1 = load ptr, ptr %0, align 8
  %call = call noundef i64 @_ZNKSt7variantIJldNSt7__cxx1112basic_stringIcSt11char_traitsIcESaIcEEESt3mapIS5_mSt4lessIS5_ESaISt4pairIKS5_mEEEEE5indexEv(ptr noundef nonnull align 8 dereferenceable(49) %1) #3
  %call2 = call noundef i64 @_ZNKSt17integral_constantImLm1EEcvmEv(ptr noundef nonnull align 1 dereferenceable(1) %__rhs_index) #3
  %cmp = icmp eq i64 %call, %call2
  br i1 %cmp, label %if.then, label %if.else

if.then:                                          ; preds = %entry
  %2 = getelementptr inbounds %class.anon.254, ptr %this1, i32 0, i32 1
  %3 = load ptr, ptr %2, align 8
  %call3 = call noundef nonnull align 8 dereferenceable(8) ptr @_ZSt3getILm1EJldNSt7__cxx1112basic_stringIcSt11char_traitsIcESaIcEEESt3mapIS5_mSt4lessIS5_ESaISt4pairIKS5_mEEEEERKNSt19variant_alternativeIXT_ESt7variantIJDpT0_EEE4typeERKSI_(ptr noundef nonnull align 8 dereferenceable(49) %3)
  store ptr %call3, ptr %__this_mem, align 8
  %4 = load ptr, ptr %__this_mem, align 8
  %5 = load double, ptr %4, align 8
  %6 = load ptr, ptr %__rhs_mem.addr, align 8
  %7 = load double, ptr %6, align 8
  %cmp4 = fcmp une double %5, %7
  %8 = getelementptr inbounds %class.anon.254, ptr %this1, i32 0, i32 0
  %9 = load ptr, ptr %8, align 8
  %frombool = zext i1 %cmp4 to i8
  store i8 %frombool, ptr %9, align 1
  br label %if.end

if.else:                                          ; preds = %entry
  %10 = getelementptr inbounds %class.anon.254, ptr %this1, i32 0, i32 1
  %11 = load ptr, ptr %10, align 8
  %call5 = call noundef i64 @_ZNKSt7variantIJldNSt7__cxx1112basic_stringIcSt11char_traitsIcESaIcEEESt3mapIS5_mSt4lessIS5_ESaISt4pairIKS5_mEEEEE5indexEv(ptr noundef nonnull align 8 dereferenceable(49) %11) #3
  %add = add i64 %call5, 1
  %call6 = call noundef i64 @_ZNKSt17integral_constantImLm1EEcvmEv(ptr noundef nonnull align 1 dereferenceable(1) %__rhs_index) #3
  %add7 = add i64 %call6, 1
  %cmp8 = icmp ne i64 %add, %add7
  %12 = getelementptr inbounds %class.anon.254, ptr %this1, i32 0, i32 0
  %13 = load ptr, ptr %12, align 8
  %frombool9 = zext i1 %cmp8 to i8
  store i8 %frombool9, ptr %13, align 1
  br label %if.end

if.end:                                           ; preds = %if.else, %if.then
  ret void
}

; Function Attrs: mustprogress nounwind uwtable
define linkonce_odr hidden noundef i64 @_ZNKSt17integral_constantImLm1EEcvmEv(ptr noundef nonnull align 1 dereferenceable(1) %this) #5 comdat align 2 {
entry:
  %this.addr = alloca ptr, align 8
  store ptr %this, ptr %this.addr, align 8
  ret i64 1
}

; Function Attrs: mustprogress uwtable
define linkonce_odr noundef nonnull align 8 dereferenceable(8) ptr @_ZSt3getILm1EJldNSt7__cxx1112basic_stringIcSt11char_traitsIcESaIcEEESt3mapIS5_mSt4lessIS5_ESaISt4pairIKS5_mEEEEERKNSt19variant_alternativeIXT_ESt7variantIJDpT0_EEE4typeERKSI_(ptr noundef nonnull align 8 dereferenceable(49) %__v) #4 comdat {
entry:
  %__v.addr = alloca ptr, align 8
  store ptr %__v, ptr %__v.addr, align 8
  %0 = load ptr, ptr %__v.addr, align 8
  %call = call noundef i64 @_ZNKSt7variantIJldNSt7__cxx1112basic_stringIcSt11char_traitsIcESaIcEEESt3mapIS5_mSt4lessIS5_ESaISt4pairIKS5_mEEEEE5indexEv(ptr noundef nonnull align 8 dereferenceable(49) %0) #3
  %cmp = icmp ne i64 %call, 1
  br i1 %cmp, label %if.then, label %if.end

if.then:                                          ; preds = %entry
  %1 = load ptr, ptr %__v.addr, align 8
  %call1 = call noundef zeroext i1 @_ZNKSt7variantIJldNSt7__cxx1112basic_stringIcSt11char_traitsIcESaIcEEESt3mapIS5_mSt4lessIS5_ESaISt4pairIKS5_mEEEEE22valueless_by_exceptionEv(ptr noundef nonnull align 8 dereferenceable(49) %1) #3
  call void @_ZSt26__throw_bad_variant_accessb(i1 noundef zeroext %call1)
  br label %if.end

if.end:                                           ; preds = %if.then, %entry
  %2 = load ptr, ptr %__v.addr, align 8
  %call2 = call noundef nonnull align 8 dereferenceable(8) ptr @_ZNSt8__detail9__variant5__getILm1ERKSt7variantIJldNSt7__cxx1112basic_stringIcSt11char_traitsIcESaIcEEESt3mapIS8_mSt4lessIS8_ESaISt4pairIKS8_mEEEEEEEDcOT0_(ptr noundef nonnull align 8 dereferenceable(49) %2) #3
  ret ptr %call2
}

; Function Attrs: mustprogress nounwind uwtable
define linkonce_odr noundef nonnull align 8 dereferenceable(8) ptr @_ZNSt8__detail9__variant5__getILm1ERKSt7variantIJldNSt7__cxx1112basic_stringIcSt11char_traitsIcESaIcEEESt3mapIS8_mSt4lessIS8_ESaISt4pairIKS8_mEEEEEEEDcOT0_(ptr noundef nonnull align 8 dereferenceable(49) %__v) #5 comdat {
entry:
  %__v.addr = alloca ptr, align 8
  store ptr %__v, ptr %__v.addr, align 8
  %0 = load ptr, ptr %__v.addr, align 8
  %_M_u = getelementptr inbounds %"struct.std::__detail::__variant::_Variant_storage", ptr %0, i32 0, i32 0
  %call = call noundef nonnull align 8 dereferenceable(8) ptr @_ZNSt8__detail9__variant7__get_nILm1ERKNS0_15_Variadic_unionIJldNSt7__cxx1112basic_stringIcSt11char_traitsIcESaIcEEESt3mapIS8_mSt4lessIS8_ESaISt4pairIKS8_mEEEEEEEEDcOT0_(ptr noundef nonnull align 8 dereferenceable(48) %_M_u) #3
  ret ptr %call
}

; Function Attrs: mustprogress nounwind uwtable
define linkonce_odr noundef nonnull align 8 dereferenceable(8) ptr @_ZNSt8__detail9__variant7__get_nILm1ERKNS0_15_Variadic_unionIJldNSt7__cxx1112basic_stringIcSt11char_traitsIcESaIcEEESt3mapIS8_mSt4lessIS8_ESaISt4pairIKS8_mEEEEEEEEDcOT0_(ptr noundef nonnull align 8 dereferenceable(48) %__u) #5 comdat {
entry:
  %__u.addr = alloca ptr, align 8
  store ptr %__u, ptr %__u.addr, align 8
  %0 = load ptr, ptr %__u.addr, align 8
  %call = call noundef nonnull align 8 dereferenceable(8) ptr @_ZNKRSt8__detail9__variant14_UninitializedIdLb1EE6_M_getEv(ptr noundef nonnull align 8 dereferenceable(8) %0) #3
  ret ptr %call
}

; Function Attrs: mustprogress nounwind uwtable
define linkonce_odr hidden noundef nonnull align 8 dereferenceable(8) ptr @_ZNKRSt8__detail9__variant14_UninitializedIdLb1EE6_M_getEv(ptr noundef nonnull align 8 dereferenceable(8) %this) #5 comdat align 2 {
entry:
  %this.addr = alloca ptr, align 8
  store ptr %this, ptr %this.addr, align 8
  %this1 = load ptr, ptr %this.addr, align 8
  %_M_storage = getelementptr inbounds %"struct.std::__detail::__variant::_Uninitialized.229", ptr %this1, i32 0, i32 0
  ret ptr %_M_storage
}

; Function Attrs: mustprogress uwtable
define linkonce_odr void @_ZSt8__invokeIZStneIJldNSt7__cxx1112basic_stringIcSt11char_traitsIcESaIcEEESt3mapIS6_mSt4lessIS6_ESaISt4pairIKS6_mEEEEEbRKSt7variantIJDpT_EESK_EUlOT_T0_E_JRSB_St17integral_constantImLm2EEEENSt15__invoke_resultISL_JDpT0_EE4typeESM_DpOST_(ptr noundef nonnull align 8 dereferenceable(16) %__fn, ptr noundef nonnull align 8 dereferenceable(32) %__args, ptr noundef nonnull align 1 dereferenceable(1) %__args1) #4 comdat {
entry:
  %__fn.addr = alloca ptr, align 8
  %__args.addr = alloca ptr, align 8
  %__args.addr2 = alloca ptr, align 8
  store ptr %__fn, ptr %__fn.addr, align 8
  store ptr %__args, ptr %__args.addr, align 8
  store ptr %__args1, ptr %__args.addr2, align 8
  %0 = load ptr, ptr %__fn.addr, align 8
  %1 = load ptr, ptr %__args.addr, align 8
  %2 = load ptr, ptr %__args.addr2, align 8
  call void @_ZSt13__invoke_implIvZStneIJldNSt7__cxx1112basic_stringIcSt11char_traitsIcESaIcEEESt3mapIS6_mSt4lessIS6_ESaISt4pairIKS6_mEEEEEbRKSt7variantIJDpT_EESK_EUlOT_T0_E_JRSB_St17integral_constantImLm2EEEESL_St14__invoke_otherOSN_DpOT1_(ptr noundef nonnull align 8 dereferenceable(16) %0, ptr noundef nonnull align 8 dereferenceable(32) %1, ptr noundef nonnull align 1 dereferenceable(1) %2)
  ret void
}

; Function Attrs: mustprogress nounwind uwtable
define linkonce_odr hidden noundef nonnull align 8 dereferenceable(32) ptr @_ZNSt8__detail9__variant17__gen_vtable_implINS0_12_Multi_arrayIPFNS0_20__variant_idx_cookieEOZStneIJldNSt7__cxx1112basic_stringIcSt11char_traitsIcESaIcEEESt3mapISA_mSt4lessISA_ESaISt4pairIKSA_mEEEEEbRKSt7variantIJDpT_EESO_EUlOT_T0_E_RKSJ_IJldSA_SI_EEEJEEESt16integer_sequenceImJLm2EEEE28__element_by_index_or_cookieILm2ESW_EEDcOSR_(ptr noundef nonnull align 8 dereferenceable(49) %__var) #5 comdat align 2 {
entry:
  %__var.addr = alloca ptr, align 8
  store ptr %__var, ptr %__var.addr, align 8
  %0 = load ptr, ptr %__var.addr, align 8
  %call = call noundef nonnull align 8 dereferenceable(32) ptr @_ZNSt8__detail9__variant5__getILm2ERKSt7variantIJldNSt7__cxx1112basic_stringIcSt11char_traitsIcESaIcEEESt3mapIS8_mSt4lessIS8_ESaISt4pairIKS8_mEEEEEEEDcOT0_(ptr noundef nonnull align 8 dereferenceable(49) %0) #3
  ret ptr %call
}

; Function Attrs: mustprogress uwtable
define linkonce_odr void @_ZSt13__invoke_implIvZStneIJldNSt7__cxx1112basic_stringIcSt11char_traitsIcESaIcEEESt3mapIS6_mSt4lessIS6_ESaISt4pairIKS6_mEEEEEbRKSt7variantIJDpT_EESK_EUlOT_T0_E_JRSB_St17integral_constantImLm2EEEESL_St14__invoke_otherOSN_DpOT1_(ptr noundef nonnull align 8 dereferenceable(16) %__f, ptr noundef nonnull align 8 dereferenceable(32) %__args, ptr noundef nonnull align 1 dereferenceable(1) %__args1) #4 comdat {
entry:
  %__f.addr = alloca ptr, align 8
  %__args.addr = alloca ptr, align 8
  %__args.addr2 = alloca ptr, align 8
  store ptr %__f, ptr %__f.addr, align 8
  store ptr %__args, ptr %__args.addr, align 8
  store ptr %__args1, ptr %__args.addr2, align 8
  %0 = load ptr, ptr %__f.addr, align 8
  %1 = load ptr, ptr %__args.addr, align 8
  call void @_ZZStneIJldNSt7__cxx1112basic_stringIcSt11char_traitsIcESaIcEEESt3mapIS5_mSt4lessIS5_ESaISt4pairIKS5_mEEEEEbRKSt7variantIJDpT_EESJ_ENUlOT_T0_E_clIRSA_St17integral_constantImLm2EEEEDaSL_SM_(ptr noundef nonnull align 8 dereferenceable(16) %0, ptr noundef nonnull align 8 dereferenceable(32) %1)
  ret void
}

; Function Attrs: mustprogress uwtable
define linkonce_odr hidden void @_ZZStneIJldNSt7__cxx1112basic_stringIcSt11char_traitsIcESaIcEEESt3mapIS5_mSt4lessIS5_ESaISt4pairIKS5_mEEEEEbRKSt7variantIJDpT_EESJ_ENUlOT_T0_E_clIRSA_St17integral_constantImLm2EEEEDaSL_SM_(ptr noundef nonnull align 8 dereferenceable(16) %this, ptr noundef nonnull align 8 dereferenceable(32) %__rhs_mem) #4 comdat align 2 {
entry:
  %__rhs_index = alloca %"struct.std::integral_constant.258", align 1
  %this.addr = alloca ptr, align 8
  %__rhs_mem.addr = alloca ptr, align 8
  %__this_mem = alloca ptr, align 8
  store ptr %this, ptr %this.addr, align 8
  store ptr %__rhs_mem, ptr %__rhs_mem.addr, align 8
  %this1 = load ptr, ptr %this.addr, align 8
  %0 = getelementptr inbounds %class.anon.254, ptr %this1, i32 0, i32 1
  %1 = load ptr, ptr %0, align 8
  %call = call noundef i64 @_ZNKSt7variantIJldNSt7__cxx1112basic_stringIcSt11char_traitsIcESaIcEEESt3mapIS5_mSt4lessIS5_ESaISt4pairIKS5_mEEEEE5indexEv(ptr noundef nonnull align 8 dereferenceable(49) %1) #3
  %call2 = call noundef i64 @_ZNKSt17integral_constantImLm2EEcvmEv(ptr noundef nonnull align 1 dereferenceable(1) %__rhs_index) #3
  %cmp = icmp eq i64 %call, %call2
  br i1 %cmp, label %if.then, label %if.else

if.then:                                          ; preds = %entry
  %2 = getelementptr inbounds %class.anon.254, ptr %this1, i32 0, i32 1
  %3 = load ptr, ptr %2, align 8
  %call3 = call noundef nonnull align 8 dereferenceable(32) ptr @_ZSt3getILm2EJldNSt7__cxx1112basic_stringIcSt11char_traitsIcESaIcEEESt3mapIS5_mSt4lessIS5_ESaISt4pairIKS5_mEEEEERKNSt19variant_alternativeIXT_ESt7variantIJDpT0_EEE4typeERKSI_(ptr noundef nonnull align 8 dereferenceable(49) %3)
  store ptr %call3, ptr %__this_mem, align 8
  %4 = load ptr, ptr %__this_mem, align 8
  %5 = load ptr, ptr %__rhs_mem.addr, align 8
  %call4 = call noundef zeroext i1 @_ZStneIcSt11char_traitsIcESaIcEEbRKNSt7__cxx1112basic_stringIT_T0_T1_EESA_(ptr noundef nonnull align 8 dereferenceable(32) %4, ptr noundef nonnull align 8 dereferenceable(32) %5) #3
  %6 = getelementptr inbounds %class.anon.254, ptr %this1, i32 0, i32 0
  %7 = load ptr, ptr %6, align 8
  %frombool = zext i1 %call4 to i8
  store i8 %frombool, ptr %7, align 1
  br label %if.end

if.else:                                          ; preds = %entry
  %8 = getelementptr inbounds %class.anon.254, ptr %this1, i32 0, i32 1
  %9 = load ptr, ptr %8, align 8
  %call5 = call noundef i64 @_ZNKSt7variantIJldNSt7__cxx1112basic_stringIcSt11char_traitsIcESaIcEEESt3mapIS5_mSt4lessIS5_ESaISt4pairIKS5_mEEEEE5indexEv(ptr noundef nonnull align 8 dereferenceable(49) %9) #3
  %add = add i64 %call5, 1
  %call6 = call noundef i64 @_ZNKSt17integral_constantImLm2EEcvmEv(ptr noundef nonnull align 1 dereferenceable(1) %__rhs_index) #3
  %add7 = add i64 %call6, 1
  %cmp8 = icmp ne i64 %add, %add7
  %10 = getelementptr inbounds %class.anon.254, ptr %this1, i32 0, i32 0
  %11 = load ptr, ptr %10, align 8
  %frombool9 = zext i1 %cmp8 to i8
  store i8 %frombool9, ptr %11, align 1
  br label %if.end

if.end:                                           ; preds = %if.else, %if.then
  ret void
}

; Function Attrs: mustprogress nounwind uwtable
define linkonce_odr hidden noundef i64 @_ZNKSt17integral_constantImLm2EEcvmEv(ptr noundef nonnull align 1 dereferenceable(1) %this) #5 comdat align 2 {
entry:
  %this.addr = alloca ptr, align 8
  store ptr %this, ptr %this.addr, align 8
  ret i64 2
}

; Function Attrs: mustprogress uwtable
define linkonce_odr noundef nonnull align 8 dereferenceable(32) ptr @_ZSt3getILm2EJldNSt7__cxx1112basic_stringIcSt11char_traitsIcESaIcEEESt3mapIS5_mSt4lessIS5_ESaISt4pairIKS5_mEEEEERKNSt19variant_alternativeIXT_ESt7variantIJDpT0_EEE4typeERKSI_(ptr noundef nonnull align 8 dereferenceable(49) %__v) #4 comdat {
entry:
  %__v.addr = alloca ptr, align 8
  store ptr %__v, ptr %__v.addr, align 8
  %0 = load ptr, ptr %__v.addr, align 8
  %call = call noundef i64 @_ZNKSt7variantIJldNSt7__cxx1112basic_stringIcSt11char_traitsIcESaIcEEESt3mapIS5_mSt4lessIS5_ESaISt4pairIKS5_mEEEEE5indexEv(ptr noundef nonnull align 8 dereferenceable(49) %0) #3
  %cmp = icmp ne i64 %call, 2
  br i1 %cmp, label %if.then, label %if.end

if.then:                                          ; preds = %entry
  %1 = load ptr, ptr %__v.addr, align 8
  %call1 = call noundef zeroext i1 @_ZNKSt7variantIJldNSt7__cxx1112basic_stringIcSt11char_traitsIcESaIcEEESt3mapIS5_mSt4lessIS5_ESaISt4pairIKS5_mEEEEE22valueless_by_exceptionEv(ptr noundef nonnull align 8 dereferenceable(49) %1) #3
  call void @_ZSt26__throw_bad_variant_accessb(i1 noundef zeroext %call1)
  br label %if.end

if.end:                                           ; preds = %if.then, %entry
  %2 = load ptr, ptr %__v.addr, align 8
  %call2 = call noundef nonnull align 8 dereferenceable(32) ptr @_ZNSt8__detail9__variant5__getILm2ERKSt7variantIJldNSt7__cxx1112basic_stringIcSt11char_traitsIcESaIcEEESt3mapIS8_mSt4lessIS8_ESaISt4pairIKS8_mEEEEEEEDcOT0_(ptr noundef nonnull align 8 dereferenceable(49) %2) #3
  ret ptr %call2
}

; Function Attrs: mustprogress nounwind uwtable
define linkonce_odr noundef zeroext i1 @_ZStneIcSt11char_traitsIcESaIcEEbRKNSt7__cxx1112basic_stringIT_T0_T1_EESA_(ptr noundef nonnull align 8 dereferenceable(32) %__lhs, ptr noundef nonnull align 8 dereferenceable(32) %__rhs) #5 comdat {
entry:
  %__lhs.addr = alloca ptr, align 8
  %__rhs.addr = alloca ptr, align 8
  store ptr %__lhs, ptr %__lhs.addr, align 8
  store ptr %__rhs, ptr %__rhs.addr, align 8
  %0 = load ptr, ptr %__lhs.addr, align 8
  %1 = load ptr, ptr %__rhs.addr, align 8
  %call = call noundef zeroext i1 @_ZSteqIcEN9__gnu_cxx11__enable_ifIXsr9__is_charIT_EE7__valueEbE6__typeERKNSt7__cxx1112basic_stringIS2_St11char_traitsIS2_ESaIS2_EEESC_(ptr noundef nonnull align 8 dereferenceable(32) %0, ptr noundef nonnull align 8 dereferenceable(32) %1) #3
  %lnot = xor i1 %call, true
  ret i1 %lnot
}

; Function Attrs: mustprogress nounwind uwtable
define linkonce_odr noundef nonnull align 8 dereferenceable(32) ptr @_ZNSt8__detail9__variant5__getILm2ERKSt7variantIJldNSt7__cxx1112basic_stringIcSt11char_traitsIcESaIcEEESt3mapIS8_mSt4lessIS8_ESaISt4pairIKS8_mEEEEEEEDcOT0_(ptr noundef nonnull align 8 dereferenceable(49) %__v) #5 comdat {
entry:
  %__v.addr = alloca ptr, align 8
  store ptr %__v, ptr %__v.addr, align 8
  %0 = load ptr, ptr %__v.addr, align 8
  %_M_u = getelementptr inbounds %"struct.std::__detail::__variant::_Variant_storage", ptr %0, i32 0, i32 0
  %call = call noundef nonnull align 8 dereferenceable(32) ptr @_ZNSt8__detail9__variant7__get_nILm2ERKNS0_15_Variadic_unionIJldNSt7__cxx1112basic_stringIcSt11char_traitsIcESaIcEEESt3mapIS8_mSt4lessIS8_ESaISt4pairIKS8_mEEEEEEEEDcOT0_(ptr noundef nonnull align 8 dereferenceable(48) %_M_u) #3
  ret ptr %call
}

; Function Attrs: mustprogress nounwind uwtable
define linkonce_odr noundef nonnull align 8 dereferenceable(32) ptr @_ZNSt8__detail9__variant7__get_nILm2ERKNS0_15_Variadic_unionIJldNSt7__cxx1112basic_stringIcSt11char_traitsIcESaIcEEESt3mapIS8_mSt4lessIS8_ESaISt4pairIKS8_mEEEEEEEEDcOT0_(ptr noundef nonnull align 8 dereferenceable(48) %__u) #5 comdat {
entry:
  %__u.addr = alloca ptr, align 8
  store ptr %__u, ptr %__u.addr, align 8
  %0 = load ptr, ptr %__u.addr, align 8
  %call = call noundef nonnull align 8 dereferenceable(32) ptr @_ZNKRSt8__detail9__variant14_UninitializedINSt7__cxx1112basic_stringIcSt11char_traitsIcESaIcEEELb0EE6_M_getEv(ptr noundef nonnull align 8 dereferenceable(32) %0) #3
  ret ptr %call
}

; Function Attrs: mustprogress nounwind uwtable
define linkonce_odr hidden noundef nonnull align 8 dereferenceable(32) ptr @_ZNKRSt8__detail9__variant14_UninitializedINSt7__cxx1112basic_stringIcSt11char_traitsIcESaIcEEELb0EE6_M_getEv(ptr noundef nonnull align 8 dereferenceable(32) %this) #5 comdat align 2 {
entry:
  %this.addr = alloca ptr, align 8
  store ptr %this, ptr %this.addr, align 8
  %this1 = load ptr, ptr %this.addr, align 8
  %_M_storage = getelementptr inbounds %"struct.std::__detail::__variant::_Uninitialized.231", ptr %this1, i32 0, i32 0
  %call = call noundef ptr @_ZNK9__gnu_cxx16__aligned_membufINSt7__cxx1112basic_stringIcSt11char_traitsIcESaIcEEEE6_M_ptrEv(ptr noundef nonnull align 8 dereferenceable(32) %_M_storage) #3
  ret ptr %call
}

; Function Attrs: mustprogress nounwind uwtable
define linkonce_odr hidden noundef ptr @_ZNK9__gnu_cxx16__aligned_membufINSt7__cxx1112basic_stringIcSt11char_traitsIcESaIcEEEE6_M_ptrEv(ptr noundef nonnull align 8 dereferenceable(32) %this) #5 comdat align 2 {
entry:
  %this.addr = alloca ptr, align 8
  store ptr %this, ptr %this.addr, align 8
  %this1 = load ptr, ptr %this.addr, align 8
  %call = call noundef ptr @_ZNK9__gnu_cxx16__aligned_membufINSt7__cxx1112basic_stringIcSt11char_traitsIcESaIcEEEE7_M_addrEv(ptr noundef nonnull align 8 dereferenceable(32) %this1) #3
  ret ptr %call
}

; Function Attrs: mustprogress nounwind uwtable
define linkonce_odr hidden noundef ptr @_ZNK9__gnu_cxx16__aligned_membufINSt7__cxx1112basic_stringIcSt11char_traitsIcESaIcEEEE7_M_addrEv(ptr noundef nonnull align 8 dereferenceable(32) %this) #5 comdat align 2 {
entry:
  %this.addr = alloca ptr, align 8
  store ptr %this, ptr %this.addr, align 8
  %this1 = load ptr, ptr %this.addr, align 8
  %_M_storage = getelementptr inbounds %"struct.__gnu_cxx::__aligned_membuf", ptr %this1, i32 0, i32 0
  ret ptr %_M_storage
}

; Function Attrs: mustprogress nounwind uwtable
define linkonce_odr noundef zeroext i1 @_ZSteqIcEN9__gnu_cxx11__enable_ifIXsr9__is_charIT_EE7__valueEbE6__typeERKNSt7__cxx1112basic_stringIS2_St11char_traitsIS2_ESaIS2_EEESC_(ptr noundef nonnull align 8 dereferenceable(32) %__lhs, ptr noundef nonnull align 8 dereferenceable(32) %__rhs) #5 comdat personality ptr @__gxx_personality_v0 {
entry:
  %__lhs.addr = alloca ptr, align 8
  %__rhs.addr = alloca ptr, align 8
  store ptr %__lhs, ptr %__lhs.addr, align 8
  store ptr %__rhs, ptr %__rhs.addr, align 8
  %0 = load ptr, ptr %__lhs.addr, align 8
  %call = call noundef i64 @_ZNKSt7__cxx1112basic_stringIcSt11char_traitsIcESaIcEE4sizeEv(ptr noundef nonnull align 8 dereferenceable(32) %0) #3
  %1 = load ptr, ptr %__rhs.addr, align 8
  %call1 = call noundef i64 @_ZNKSt7__cxx1112basic_stringIcSt11char_traitsIcESaIcEE4sizeEv(ptr noundef nonnull align 8 dereferenceable(32) %1) #3
  %cmp = icmp eq i64 %call, %call1
  br i1 %cmp, label %land.rhs, label %land.end

land.rhs:                                         ; preds = %entry
  %2 = load ptr, ptr %__lhs.addr, align 8
  %call2 = call noundef ptr @_ZNKSt7__cxx1112basic_stringIcSt11char_traitsIcESaIcEE4dataEv(ptr noundef nonnull align 8 dereferenceable(32) %2) #3
  %3 = load ptr, ptr %__rhs.addr, align 8
  %call3 = call noundef ptr @_ZNKSt7__cxx1112basic_stringIcSt11char_traitsIcESaIcEE4dataEv(ptr noundef nonnull align 8 dereferenceable(32) %3) #3
  %4 = load ptr, ptr %__lhs.addr, align 8
  %call4 = call noundef i64 @_ZNKSt7__cxx1112basic_stringIcSt11char_traitsIcESaIcEE4sizeEv(ptr noundef nonnull align 8 dereferenceable(32) %4) #3
  %call5 = invoke noundef i32 @_ZNSt11char_traitsIcE7compareEPKcS2_m(ptr noundef %call2, ptr noundef %call3, i64 noundef %call4)
          to label %invoke.cont unwind label %terminate.lpad

invoke.cont:                                      ; preds = %land.rhs
  %tobool = icmp ne i32 %call5, 0
  %lnot = xor i1 %tobool, true
  br label %land.end

land.end:                                         ; preds = %invoke.cont, %entry
  %5 = phi i1 [ false, %entry ], [ %lnot, %invoke.cont ]
  ret i1 %5

terminate.lpad:                                   ; preds = %land.rhs
  %6 = landingpad { ptr, i32 }
          catch ptr null
  %7 = extractvalue { ptr, i32 } %6, 0
  call void @__clang_call_terminate(ptr %7) #16
  unreachable
}

; Function Attrs: nounwind
declare noundef i64 @_ZNKSt7__cxx1112basic_stringIcSt11char_traitsIcESaIcEE4sizeEv(ptr noundef nonnull align 8 dereferenceable(32)) #2

; Function Attrs: mustprogress nounwind uwtable
define linkonce_odr hidden noundef i32 @_ZNSt11char_traitsIcE7compareEPKcS2_m(ptr noundef %__s1, ptr noundef %__s2, i64 noundef %__n) #5 comdat align 2 {
entry:
  %retval = alloca i32, align 4
  %__s1.addr = alloca ptr, align 8
  %__s2.addr = alloca ptr, align 8
  %__n.addr = alloca i64, align 8
  store ptr %__s1, ptr %__s1.addr, align 8
  store ptr %__s2, ptr %__s2.addr, align 8
  store i64 %__n, ptr %__n.addr, align 8
  %0 = load i64, ptr %__n.addr, align 8
  %cmp = icmp eq i64 %0, 0
  br i1 %cmp, label %if.then, label %if.end

if.then:                                          ; preds = %entry
  store i32 0, ptr %retval, align 4
  br label %return

if.end:                                           ; preds = %entry
  %1 = load ptr, ptr %__s1.addr, align 8
  %2 = load ptr, ptr %__s2.addr, align 8
  %3 = load i64, ptr %__n.addr, align 8
  %call = call i32 @memcmp(ptr noundef %1, ptr noundef %2, i64 noundef %3) #3
  store i32 %call, ptr %retval, align 4
  br label %return

return:                                           ; preds = %if.end, %if.then
  %4 = load i32, ptr %retval, align 4
  ret i32 %4
}

; Function Attrs: nounwind
declare noundef ptr @_ZNKSt7__cxx1112basic_stringIcSt11char_traitsIcESaIcEE4dataEv(ptr noundef nonnull align 8 dereferenceable(32)) #2

; Function Attrs: nounwind
declare i32 @memcmp(ptr noundef, ptr noundef, i64 noundef) #2

; Function Attrs: mustprogress uwtable
define linkonce_odr void @_ZSt8__invokeIZStneIJldNSt7__cxx1112basic_stringIcSt11char_traitsIcESaIcEEESt3mapIS6_mSt4lessIS6_ESaISt4pairIKS6_mEEEEEbRKSt7variantIJDpT_EESK_EUlOT_T0_E_JRKSE_St17integral_constantImLm3EEEENSt15__invoke_resultISL_JDpT0_EE4typeESM_DpOSU_(ptr noundef nonnull align 8 dereferenceable(16) %__fn, ptr noundef nonnull align 8 dereferenceable(48) %__args, ptr noundef nonnull align 1 dereferenceable(1) %__args1) #4 comdat {
entry:
  %__fn.addr = alloca ptr, align 8
  %__args.addr = alloca ptr, align 8
  %__args.addr2 = alloca ptr, align 8
  store ptr %__fn, ptr %__fn.addr, align 8
  store ptr %__args, ptr %__args.addr, align 8
  store ptr %__args1, ptr %__args.addr2, align 8
  %0 = load ptr, ptr %__fn.addr, align 8
  %1 = load ptr, ptr %__args.addr, align 8
  %2 = load ptr, ptr %__args.addr2, align 8
  call void @_ZSt13__invoke_implIvZStneIJldNSt7__cxx1112basic_stringIcSt11char_traitsIcESaIcEEESt3mapIS6_mSt4lessIS6_ESaISt4pairIKS6_mEEEEEbRKSt7variantIJDpT_EESK_EUlOT_T0_E_JRKSE_St17integral_constantImLm3EEEESL_St14__invoke_otherOSN_DpOT1_(ptr noundef nonnull align 8 dereferenceable(16) %0, ptr noundef nonnull align 8 dereferenceable(48) %1, ptr noundef nonnull align 1 dereferenceable(1) %2)
  ret void
}

; Function Attrs: mustprogress nounwind uwtable
define linkonce_odr hidden noundef nonnull align 8 dereferenceable(48) ptr @_ZNSt8__detail9__variant17__gen_vtable_implINS0_12_Multi_arrayIPFNS0_20__variant_idx_cookieEOZStneIJldNSt7__cxx1112basic_stringIcSt11char_traitsIcESaIcEEESt3mapISA_mSt4lessISA_ESaISt4pairIKSA_mEEEEEbRKSt7variantIJDpT_EESO_EUlOT_T0_E_RKSJ_IJldSA_SI_EEEJEEESt16integer_sequenceImJLm3EEEE28__element_by_index_or_cookieILm3ESW_EEDcOSR_(ptr noundef nonnull align 8 dereferenceable(49) %__var) #5 comdat align 2 {
entry:
  %__var.addr = alloca ptr, align 8
  store ptr %__var, ptr %__var.addr, align 8
  %0 = load ptr, ptr %__var.addr, align 8
  %call = call noundef nonnull align 8 dereferenceable(48) ptr @_ZNSt8__detail9__variant5__getILm3ERKSt7variantIJldNSt7__cxx1112basic_stringIcSt11char_traitsIcESaIcEEESt3mapIS8_mSt4lessIS8_ESaISt4pairIKS8_mEEEEEEEDcOT0_(ptr noundef nonnull align 8 dereferenceable(49) %0) #3
  ret ptr %call
}

; Function Attrs: mustprogress uwtable
define linkonce_odr void @_ZSt13__invoke_implIvZStneIJldNSt7__cxx1112basic_stringIcSt11char_traitsIcESaIcEEESt3mapIS6_mSt4lessIS6_ESaISt4pairIKS6_mEEEEEbRKSt7variantIJDpT_EESK_EUlOT_T0_E_JRKSE_St17integral_constantImLm3EEEESL_St14__invoke_otherOSN_DpOT1_(ptr noundef nonnull align 8 dereferenceable(16) %__f, ptr noundef nonnull align 8 dereferenceable(48) %__args, ptr noundef nonnull align 1 dereferenceable(1) %__args1) #4 comdat {
entry:
  %__f.addr = alloca ptr, align 8
  %__args.addr = alloca ptr, align 8
  %__args.addr2 = alloca ptr, align 8
  store ptr %__f, ptr %__f.addr, align 8
  store ptr %__args, ptr %__args.addr, align 8
  store ptr %__args1, ptr %__args.addr2, align 8
  %0 = load ptr, ptr %__f.addr, align 8
  %1 = load ptr, ptr %__args.addr, align 8
  call void @_ZZStneIJldNSt7__cxx1112basic_stringIcSt11char_traitsIcESaIcEEESt3mapIS5_mSt4lessIS5_ESaISt4pairIKS5_mEEEEEbRKSt7variantIJDpT_EESJ_ENUlOT_T0_E_clIRKSD_St17integral_constantImLm3EEEEDaSL_SM_(ptr noundef nonnull align 8 dereferenceable(16) %0, ptr noundef nonnull align 8 dereferenceable(48) %1)
  ret void
}

; Function Attrs: mustprogress uwtable
define linkonce_odr hidden void @_ZZStneIJldNSt7__cxx1112basic_stringIcSt11char_traitsIcESaIcEEESt3mapIS5_mSt4lessIS5_ESaISt4pairIKS5_mEEEEEbRKSt7variantIJDpT_EESJ_ENUlOT_T0_E_clIRKSD_St17integral_constantImLm3EEEEDaSL_SM_(ptr noundef nonnull align 8 dereferenceable(16) %this, ptr noundef nonnull align 8 dereferenceable(48) %__rhs_mem) #4 comdat align 2 {
entry:
  %__rhs_index = alloca %"struct.std::integral_constant.259", align 1
  %this.addr = alloca ptr, align 8
  %__rhs_mem.addr = alloca ptr, align 8
  %__this_mem = alloca ptr, align 8
  store ptr %this, ptr %this.addr, align 8
  store ptr %__rhs_mem, ptr %__rhs_mem.addr, align 8
  %this1 = load ptr, ptr %this.addr, align 8
  %0 = getelementptr inbounds %class.anon.254, ptr %this1, i32 0, i32 1
  %1 = load ptr, ptr %0, align 8
  %call = call noundef i64 @_ZNKSt7variantIJldNSt7__cxx1112basic_stringIcSt11char_traitsIcESaIcEEESt3mapIS5_mSt4lessIS5_ESaISt4pairIKS5_mEEEEE5indexEv(ptr noundef nonnull align 8 dereferenceable(49) %1) #3
  %call2 = call noundef i64 @_ZNKSt17integral_constantImLm3EEcvmEv(ptr noundef nonnull align 1 dereferenceable(1) %__rhs_index) #3
  %cmp = icmp eq i64 %call, %call2
  br i1 %cmp, label %if.then, label %if.else

if.then:                                          ; preds = %entry
  %2 = getelementptr inbounds %class.anon.254, ptr %this1, i32 0, i32 1
  %3 = load ptr, ptr %2, align 8
  %call3 = call noundef nonnull align 8 dereferenceable(48) ptr @_ZSt3getILm3EJldNSt7__cxx1112basic_stringIcSt11char_traitsIcESaIcEEESt3mapIS5_mSt4lessIS5_ESaISt4pairIKS5_mEEEEERKNSt19variant_alternativeIXT_ESt7variantIJDpT0_EEE4typeERKSI_(ptr noundef nonnull align 8 dereferenceable(49) %3)
  store ptr %call3, ptr %__this_mem, align 8
  %4 = load ptr, ptr %__this_mem, align 8
  %5 = load ptr, ptr %__rhs_mem.addr, align 8
  %call4 = call noundef zeroext i1 @_ZStneINSt7__cxx1112basic_stringIcSt11char_traitsIcESaIcEEEmSt4lessIS5_ESaISt4pairIKS5_mEEEbRKSt3mapIT_T0_T1_T2_ESJ_(ptr noundef nonnull align 8 dereferenceable(48) %4, ptr noundef nonnull align 8 dereferenceable(48) %5)
  %6 = getelementptr inbounds %class.anon.254, ptr %this1, i32 0, i32 0
  %7 = load ptr, ptr %6, align 8
  %frombool = zext i1 %call4 to i8
  store i8 %frombool, ptr %7, align 1
  br label %if.end

if.else:                                          ; preds = %entry
  %8 = getelementptr inbounds %class.anon.254, ptr %this1, i32 0, i32 1
  %9 = load ptr, ptr %8, align 8
  %call5 = call noundef i64 @_ZNKSt7variantIJldNSt7__cxx1112basic_stringIcSt11char_traitsIcESaIcEEESt3mapIS5_mSt4lessIS5_ESaISt4pairIKS5_mEEEEE5indexEv(ptr noundef nonnull align 8 dereferenceable(49) %9) #3
  %add = add i64 %call5, 1
  %call6 = call noundef i64 @_ZNKSt17integral_constantImLm3EEcvmEv(ptr noundef nonnull align 1 dereferenceable(1) %__rhs_index) #3
  %add7 = add i64 %call6, 1
  %cmp8 = icmp ne i64 %add, %add7
  %10 = getelementptr inbounds %class.anon.254, ptr %this1, i32 0, i32 0
  %11 = load ptr, ptr %10, align 8
  %frombool9 = zext i1 %cmp8 to i8
  store i8 %frombool9, ptr %11, align 1
  br label %if.end

if.end:                                           ; preds = %if.else, %if.then
  ret void
}

; Function Attrs: mustprogress nounwind uwtable
define linkonce_odr hidden noundef i64 @_ZNKSt17integral_constantImLm3EEcvmEv(ptr noundef nonnull align 1 dereferenceable(1) %this) #5 comdat align 2 {
entry:
  %this.addr = alloca ptr, align 8
  store ptr %this, ptr %this.addr, align 8
  ret i64 3
}

; Function Attrs: mustprogress uwtable
define linkonce_odr noundef nonnull align 8 dereferenceable(48) ptr @_ZSt3getILm3EJldNSt7__cxx1112basic_stringIcSt11char_traitsIcESaIcEEESt3mapIS5_mSt4lessIS5_ESaISt4pairIKS5_mEEEEERKNSt19variant_alternativeIXT_ESt7variantIJDpT0_EEE4typeERKSI_(ptr noundef nonnull align 8 dereferenceable(49) %__v) #4 comdat {
entry:
  %__v.addr = alloca ptr, align 8
  store ptr %__v, ptr %__v.addr, align 8
  %0 = load ptr, ptr %__v.addr, align 8
  %call = call noundef i64 @_ZNKSt7variantIJldNSt7__cxx1112basic_stringIcSt11char_traitsIcESaIcEEESt3mapIS5_mSt4lessIS5_ESaISt4pairIKS5_mEEEEE5indexEv(ptr noundef nonnull align 8 dereferenceable(49) %0) #3
  %cmp = icmp ne i64 %call, 3
  br i1 %cmp, label %if.then, label %if.end

if.then:                                          ; preds = %entry
  %1 = load ptr, ptr %__v.addr, align 8
  %call1 = call noundef zeroext i1 @_ZNKSt7variantIJldNSt7__cxx1112basic_stringIcSt11char_traitsIcESaIcEEESt3mapIS5_mSt4lessIS5_ESaISt4pairIKS5_mEEEEE22valueless_by_exceptionEv(ptr noundef nonnull align 8 dereferenceable(49) %1) #3
  call void @_ZSt26__throw_bad_variant_accessb(i1 noundef zeroext %call1)
  br label %if.end

if.end:                                           ; preds = %if.then, %entry
  %2 = load ptr, ptr %__v.addr, align 8
  %call2 = call noundef nonnull align 8 dereferenceable(48) ptr @_ZNSt8__detail9__variant5__getILm3ERKSt7variantIJldNSt7__cxx1112basic_stringIcSt11char_traitsIcESaIcEEESt3mapIS8_mSt4lessIS8_ESaISt4pairIKS8_mEEEEEEEDcOT0_(ptr noundef nonnull align 8 dereferenceable(49) %2) #3
  ret ptr %call2
}

; Function Attrs: mustprogress uwtable
define linkonce_odr noundef zeroext i1 @_ZStneINSt7__cxx1112basic_stringIcSt11char_traitsIcESaIcEEEmSt4lessIS5_ESaISt4pairIKS5_mEEEbRKSt3mapIT_T0_T1_T2_ESJ_(ptr noundef nonnull align 8 dereferenceable(48) %__x, ptr noundef nonnull align 8 dereferenceable(48) %__y) #4 comdat {
entry:
  %__x.addr = alloca ptr, align 8
  %__y.addr = alloca ptr, align 8
  store ptr %__x, ptr %__x.addr, align 8
  store ptr %__y, ptr %__y.addr, align 8
  %0 = load ptr, ptr %__x.addr, align 8
  %1 = load ptr, ptr %__y.addr, align 8
  %call = call noundef zeroext i1 @_ZSteqINSt7__cxx1112basic_stringIcSt11char_traitsIcESaIcEEEmSt4lessIS5_ESaISt4pairIKS5_mEEEbRKSt3mapIT_T0_T1_T2_ESJ_(ptr noundef nonnull align 8 dereferenceable(48) %0, ptr noundef nonnull align 8 dereferenceable(48) %1)
  %lnot = xor i1 %call, true
  ret i1 %lnot
}

; Function Attrs: mustprogress nounwind uwtable
define linkonce_odr noundef nonnull align 8 dereferenceable(48) ptr @_ZNSt8__detail9__variant5__getILm3ERKSt7variantIJldNSt7__cxx1112basic_stringIcSt11char_traitsIcESaIcEEESt3mapIS8_mSt4lessIS8_ESaISt4pairIKS8_mEEEEEEEDcOT0_(ptr noundef nonnull align 8 dereferenceable(49) %__v) #5 comdat {
entry:
  %__v.addr = alloca ptr, align 8
  store ptr %__v, ptr %__v.addr, align 8
  %0 = load ptr, ptr %__v.addr, align 8
  %_M_u = getelementptr inbounds %"struct.std::__detail::__variant::_Variant_storage", ptr %0, i32 0, i32 0
  %call = call noundef nonnull align 8 dereferenceable(48) ptr @_ZNSt8__detail9__variant7__get_nILm3ERKNS0_15_Variadic_unionIJldNSt7__cxx1112basic_stringIcSt11char_traitsIcESaIcEEESt3mapIS8_mSt4lessIS8_ESaISt4pairIKS8_mEEEEEEEEDcOT0_(ptr noundef nonnull align 8 dereferenceable(48) %_M_u) #3
  ret ptr %call
}

; Function Attrs: mustprogress nounwind uwtable
define linkonce_odr noundef nonnull align 8 dereferenceable(48) ptr @_ZNSt8__detail9__variant7__get_nILm3ERKNS0_15_Variadic_unionIJldNSt7__cxx1112basic_stringIcSt11char_traitsIcESaIcEEESt3mapIS8_mSt4lessIS8_ESaISt4pairIKS8_mEEEEEEEEDcOT0_(ptr noundef nonnull align 8 dereferenceable(48) %__u) #5 comdat {
entry:
  %__u.addr = alloca ptr, align 8
  store ptr %__u, ptr %__u.addr, align 8
  %0 = load ptr, ptr %__u.addr, align 8
  %call = call noundef nonnull align 8 dereferenceable(48) ptr @_ZNSt8__detail9__variant7__get_nILm0ERKNS0_15_Variadic_unionIJSt3mapINSt7__cxx1112basic_stringIcSt11char_traitsIcESaIcEEEmSt4lessIS9_ESaISt4pairIKS9_mEEEEEEEEDcOT0_(ptr noundef nonnull align 8 dereferenceable(48) %0) #3
  ret ptr %call
}

; Function Attrs: mustprogress nounwind uwtable
define linkonce_odr noundef nonnull align 8 dereferenceable(48) ptr @_ZNSt8__detail9__variant7__get_nILm0ERKNS0_15_Variadic_unionIJSt3mapINSt7__cxx1112basic_stringIcSt11char_traitsIcESaIcEEEmSt4lessIS9_ESaISt4pairIKS9_mEEEEEEEEDcOT0_(ptr noundef nonnull align 8 dereferenceable(48) %__u) #5 comdat {
entry:
  %__u.addr = alloca ptr, align 8
  store ptr %__u, ptr %__u.addr, align 8
  %0 = load ptr, ptr %__u.addr, align 8
  %call = call noundef nonnull align 8 dereferenceable(48) ptr @_ZNKRSt8__detail9__variant14_UninitializedISt3mapINSt7__cxx1112basic_stringIcSt11char_traitsIcESaIcEEEmSt4lessIS8_ESaISt4pairIKS8_mEEELb0EE6_M_getEv(ptr noundef nonnull align 8 dereferenceable(48) %0) #3
  ret ptr %call
}

; Function Attrs: mustprogress nounwind uwtable
define linkonce_odr hidden noundef nonnull align 8 dereferenceable(48) ptr @_ZNKRSt8__detail9__variant14_UninitializedISt3mapINSt7__cxx1112basic_stringIcSt11char_traitsIcESaIcEEEmSt4lessIS8_ESaISt4pairIKS8_mEEELb0EE6_M_getEv(ptr noundef nonnull align 8 dereferenceable(48) %this) #5 comdat align 2 {
entry:
  %this.addr = alloca ptr, align 8
  store ptr %this, ptr %this.addr, align 8
  %this1 = load ptr, ptr %this.addr, align 8
  %_M_storage = getelementptr inbounds %"struct.std::__detail::__variant::_Uninitialized.233", ptr %this1, i32 0, i32 0
  %call = call noundef ptr @_ZNK9__gnu_cxx16__aligned_membufISt3mapINSt7__cxx1112basic_stringIcSt11char_traitsIcESaIcEEEmSt4lessIS7_ESaISt4pairIKS7_mEEEE6_M_ptrEv(ptr noundef nonnull align 8 dereferenceable(48) %_M_storage) #3
  ret ptr %call
}

; Function Attrs: mustprogress nounwind uwtable
define linkonce_odr hidden noundef ptr @_ZNK9__gnu_cxx16__aligned_membufISt3mapINSt7__cxx1112basic_stringIcSt11char_traitsIcESaIcEEEmSt4lessIS7_ESaISt4pairIKS7_mEEEE6_M_ptrEv(ptr noundef nonnull align 8 dereferenceable(48) %this) #5 comdat align 2 {
entry:
  %this.addr = alloca ptr, align 8
  store ptr %this, ptr %this.addr, align 8
  %this1 = load ptr, ptr %this.addr, align 8
  %call = call noundef ptr @_ZNK9__gnu_cxx16__aligned_membufISt3mapINSt7__cxx1112basic_stringIcSt11char_traitsIcESaIcEEEmSt4lessIS7_ESaISt4pairIKS7_mEEEE7_M_addrEv(ptr noundef nonnull align 8 dereferenceable(48) %this1) #3
  ret ptr %call
}

; Function Attrs: mustprogress nounwind uwtable
define linkonce_odr hidden noundef ptr @_ZNK9__gnu_cxx16__aligned_membufISt3mapINSt7__cxx1112basic_stringIcSt11char_traitsIcESaIcEEEmSt4lessIS7_ESaISt4pairIKS7_mEEEE7_M_addrEv(ptr noundef nonnull align 8 dereferenceable(48) %this) #5 comdat align 2 {
entry:
  %this.addr = alloca ptr, align 8
  store ptr %this, ptr %this.addr, align 8
  %this1 = load ptr, ptr %this.addr, align 8
  %_M_storage = getelementptr inbounds %"struct.__gnu_cxx::__aligned_membuf.234", ptr %this1, i32 0, i32 0
  ret ptr %_M_storage
}

; Function Attrs: mustprogress uwtable
define linkonce_odr noundef zeroext i1 @_ZSteqINSt7__cxx1112basic_stringIcSt11char_traitsIcESaIcEEEmSt4lessIS5_ESaISt4pairIKS5_mEEEbRKSt3mapIT_T0_T1_T2_ESJ_(ptr noundef nonnull align 8 dereferenceable(48) %__x, ptr noundef nonnull align 8 dereferenceable(48) %__y) #4 comdat {
entry:
  %__x.addr = alloca ptr, align 8
  %__y.addr = alloca ptr, align 8
  store ptr %__x, ptr %__x.addr, align 8
  store ptr %__y, ptr %__y.addr, align 8
  %0 = load ptr, ptr %__x.addr, align 8
  %_M_t = getelementptr inbounds %"class.std::map.245", ptr %0, i32 0, i32 0
  %1 = load ptr, ptr %__y.addr, align 8
  %_M_t1 = getelementptr inbounds %"class.std::map.245", ptr %1, i32 0, i32 0
  %call = call noundef zeroext i1 @_ZSteqRKSt8_Rb_treeINSt7__cxx1112basic_stringIcSt11char_traitsIcESaIcEEESt4pairIKS5_mESt10_Select1stIS8_ESt4lessIS5_ESaIS8_EESG_(ptr noundef nonnull align 8 dereferenceable(48) %_M_t, ptr noundef nonnull align 8 dereferenceable(48) %_M_t1)
  ret i1 %call
}

; Function Attrs: mustprogress uwtable
define linkonce_odr noundef zeroext i1 @_ZSteqRKSt8_Rb_treeINSt7__cxx1112basic_stringIcSt11char_traitsIcESaIcEEESt4pairIKS5_mESt10_Select1stIS8_ESt4lessIS5_ESaIS8_EESG_(ptr noundef nonnull align 8 dereferenceable(48) %__x, ptr noundef nonnull align 8 dereferenceable(48) %__y) #4 comdat {
entry:
  %__x.addr = alloca ptr, align 8
  %__y.addr = alloca ptr, align 8
  %agg.tmp = alloca %"struct.std::_Rb_tree_const_iterator.260", align 8
  %agg.tmp3 = alloca %"struct.std::_Rb_tree_const_iterator.260", align 8
  %agg.tmp6 = alloca %"struct.std::_Rb_tree_const_iterator.260", align 8
  store ptr %__x, ptr %__x.addr, align 8
  store ptr %__y, ptr %__y.addr, align 8
  %0 = load ptr, ptr %__x.addr, align 8
  %call = call noundef i64 @_ZNKSt8_Rb_treeINSt7__cxx1112basic_stringIcSt11char_traitsIcESaIcEEESt4pairIKS5_mESt10_Select1stIS8_ESt4lessIS5_ESaIS8_EE4sizeEv(ptr noundef nonnull align 8 dereferenceable(48) %0) #3
  %1 = load ptr, ptr %__y.addr, align 8
  %call1 = call noundef i64 @_ZNKSt8_Rb_treeINSt7__cxx1112basic_stringIcSt11char_traitsIcESaIcEEESt4pairIKS5_mESt10_Select1stIS8_ESt4lessIS5_ESaIS8_EE4sizeEv(ptr noundef nonnull align 8 dereferenceable(48) %1) #3
  %cmp = icmp eq i64 %call, %call1
  br i1 %cmp, label %land.rhs, label %land.end

land.rhs:                                         ; preds = %entry
  %2 = load ptr, ptr %__x.addr, align 8
  %call2 = call ptr @_ZNKSt8_Rb_treeINSt7__cxx1112basic_stringIcSt11char_traitsIcESaIcEEESt4pairIKS5_mESt10_Select1stIS8_ESt4lessIS5_ESaIS8_EE5beginEv(ptr noundef nonnull align 8 dereferenceable(48) %2) #3
  %coerce.dive = getelementptr inbounds %"struct.std::_Rb_tree_const_iterator.260", ptr %agg.tmp, i32 0, i32 0
  store ptr %call2, ptr %coerce.dive, align 8
  %3 = load ptr, ptr %__x.addr, align 8
