target datalayout = "e-m:e-p270:32:32-p271:32:32-p272:64:64-i64:64-i128:128-f80:128-n8:16:32:64-S128"
target triple = "x86_64-unknown-linux-gnu"

%"class.std::ios_base::Init" = type { i8 }
%"class.cvc5::internal::NullC" = type { i8 }
%"class.cvc5::internal::TraceC" = type { ptr, %"class.std::vector.32" }
%"class.std::vector.32" = type { %"struct.std::_Vector_base.33" }
%"struct.std::_Vector_base.33" = type { %"struct.std::_Vector_base<std::__cxx11::basic_string<char>, std::allocator<std::__cxx11::basic_string<char>>>::_Vector_impl" }
%"struct.std::_Vector_base<std::__cxx11::basic_string<char>, std::allocator<std::__cxx11::basic_string<char>>>::_Vector_impl" = type { %"struct.std::_Vector_base<std::__cxx11::basic_string<char>, std::allocator<std::__cxx11::basic_string<char>>>::_Vector_impl_data" }
%"struct.std::_Vector_base<std::__cxx11::basic_string<char>, std::allocator<std::__cxx11::basic_string<char>>>::_Vector_impl_data" = type { ptr, ptr, ptr }
%"class.cvc5::internal::NodeTemplate.37" = type { ptr }
%"class.std::__cxx11::basic_string" = type { %"struct.std::__cxx11::basic_string<char>::_Alloc_hider", i64, %union.anon }
%"struct.std::__cxx11::basic_string<char>::_Alloc_hider" = type { ptr }
%union.anon = type { i64, [8 x i8] }
%"struct.std::piecewise_construct_t" = type { i8 }
%"class.std::allocator" = type { i8 }
%"class.std::vector" = type { %"struct.std::_Vector_base" }
%"struct.std::_Vector_base" = type { %"struct.std::_Vector_base<cvc5::internal::TypeNode, std::allocator<cvc5::internal::TypeNode>>::_Vector_impl" }
%"struct.std::_Vector_base<cvc5::internal::TypeNode, std::allocator<cvc5::internal::TypeNode>>::_Vector_impl" = type { %"struct.std::_Vector_base<cvc5::internal::TypeNode, std::allocator<cvc5::internal::TypeNode>>::_Vector_impl_data" }
%"struct.std::_Vector_base<cvc5::internal::TypeNode, std::allocator<cvc5::internal::TypeNode>>::_Vector_impl_data" = type { ptr, ptr, ptr }
%"class.std::map" = type { %"class.std::_Rb_tree" }
%"class.std::_Rb_tree" = type { %"struct.std::_Rb_tree<cvc5::internal::TypeNode, std::pair<const cvc5::internal::TypeNode, cvc5::internal::TypeNode>, std::_Select1st<std::pair<const cvc5::internal::TypeNode, cvc5::internal::TypeNode>>, std::less<cvc5::internal::TypeNode>>::_Rb_tree_impl" }
%"struct.std::_Rb_tree<cvc5::internal::TypeNode, std::pair<const cvc5::internal::TypeNode, cvc5::internal::TypeNode>, std::_Select1st<std::pair<const cvc5::internal::TypeNode, cvc5::internal::TypeNode>>, std::less<cvc5::internal::TypeNode>>::_Rb_tree_impl" = type { %"struct.std::_Rb_tree_key_compare", %"struct.std::_Rb_tree_header" }
%"struct.std::_Rb_tree_key_compare" = type { %"struct.std::less" }
%"struct.std::less" = type { i8 }
%"struct.std::_Rb_tree_header" = type { %"struct.std::_Rb_tree_node_base", i64 }
%"struct.std::_Rb_tree_node_base" = type { i32, ptr, ptr, ptr }
%"struct.std::_Rb_tree_iterator" = type { ptr }
%"struct.std::pair" = type { %"class.cvc5::internal::TypeNode", %"class.cvc5::internal::TypeNode" }
%"class.cvc5::internal::TypeNode" = type { ptr }
%"class.std::unordered_map" = type { %"class.std::_Hashtable" }
%"class.std::_Hashtable" = type { ptr, i64, %"struct.std::__detail::_Hash_node_base", i64, %"struct.std::__detail::_Prime_rehash_policy", ptr }
%"struct.std::__detail::_Hash_node_base" = type { ptr }
%"struct.std::__detail::_Prime_rehash_policy" = type { float, i64 }
%"struct.std::__detail::_Node_iterator" = type { %"struct.std::__detail::_Node_iterator_base" }
%"struct.std::__detail::_Node_iterator_base" = type { ptr }
%"class.std::vector.17" = type { %"struct.std::_Vector_base.18" }
%"struct.std::_Vector_base.18" = type { %"struct.std::_Vector_base<cvc5::internal::NodeTemplate<false>, std::allocator<cvc5::internal::NodeTemplate<false>>>::_Vector_impl" }
%"struct.std::_Vector_base<cvc5::internal::NodeTemplate<false>, std::allocator<cvc5::internal::NodeTemplate<false>>>::_Vector_impl" = type { %"struct.std::_Vector_base<cvc5::internal::NodeTemplate<false>, std::allocator<cvc5::internal::NodeTemplate<false>>>::_Vector_impl_data" }
%"struct.std::_Vector_base<cvc5::internal::NodeTemplate<false>, std::allocator<cvc5::internal::NodeTemplate<false>>>::_Vector_impl_data" = type { ptr, ptr, ptr }
%"class.std::vector.6" = type { %"struct.std::_Vector_base.7" }
%"struct.std::_Vector_base.7" = type { %"struct.std::_Vector_base<cvc5::internal::NodeTemplate<true>, std::allocator<cvc5::internal::NodeTemplate<true>>>::_Vector_impl" }
%"struct.std::_Vector_base<cvc5::internal::NodeTemplate<true>, std::allocator<cvc5::internal::NodeTemplate<true>>>::_Vector_impl" = type { %"struct.std::_Vector_base<cvc5::internal::NodeTemplate<true>, std::allocator<cvc5::internal::NodeTemplate<true>>>::_Vector_impl_data" }
%"struct.std::_Vector_base<cvc5::internal::NodeTemplate<true>, std::allocator<cvc5::internal::NodeTemplate<true>>>::_Vector_impl_data" = type { ptr, ptr, ptr }
%"class.std::map.22" = type { %"class.std::_Rb_tree.23" }
%"class.std::_Rb_tree.23" = type { %"struct.std::_Rb_tree<cvc5::internal::TypeNode, std::pair<const cvc5::internal::TypeNode, bool>, std::_Select1st<std::pair<const cvc5::internal::TypeNode, bool>>, std::less<cvc5::internal::TypeNode>>::_Rb_tree_impl" }
%"struct.std::_Rb_tree<cvc5::internal::TypeNode, std::pair<const cvc5::internal::TypeNode, bool>, std::_Select1st<std::pair<const cvc5::internal::TypeNode, bool>>, std::less<cvc5::internal::TypeNode>>::_Rb_tree_impl" = type { %"struct.std::_Rb_tree_key_compare", %"struct.std::_Rb_tree_header" }
%"class.std::map.27" = type { %"class.std::_Rb_tree.28" }
%"class.std::_Rb_tree.28" = type { %"struct.std::_Rb_tree<cvc5::internal::TypeNode, std::pair<const cvc5::internal::TypeNode, std::vector<cvc5::internal::NodeTemplate<true>>>, std::_Select1st<std::pair<const cvc5::internal::TypeNode, std::vector<cvc5::internal::NodeTemplate<true>>>>, std::less<cvc5::internal::TypeNode>>::_Rb_tree_impl" }
%"struct.std::_Rb_tree<cvc5::internal::TypeNode, std::pair<const cvc5::internal::TypeNode, std::vector<cvc5::internal::NodeTemplate<true>>>, std::_Select1st<std::pair<const cvc5::internal::TypeNode, std::vector<cvc5::internal::NodeTemplate<true>>>>, std::less<cvc5::internal::TypeNode>>::_Rb_tree_impl" = type { %"struct.std::_Rb_tree_key_compare", %"struct.std::_Rb_tree_header" }
%"class.cvc5::internal::NodeTemplate" = type { ptr }
%"class.cvc5::internal::__cvc5_true" = type { i8 }
%"class.cvc5::internal::Cvc5ostream" = type { ptr, i8, ptr }
%"class.__gnu_cxx::__normal_iterator" = type { ptr }
%"class.cvc5::internal::expr::NodeValue::iterator" = type { ptr }
%"struct.std::_Rb_tree_iterator.40" = type { ptr }
%"class.__gnu_cxx::__normal_iterator.41" = type { ptr }
%"struct.std::pair.42" = type <{ %"class.cvc5::internal::TypeNode", i8, [7 x i8] }>
%"class.std::__cxx11::basic_stringstream" = type { %"class.std::basic_iostream.base", %"class.std::__cxx11::basic_stringbuf", %"class.std::basic_ios" }
%"class.std::basic_iostream.base" = type { %"class.std::basic_istream.base", %"class.std::basic_ostream.base" }
%"class.std::basic_istream.base" = type { ptr, i64 }
%"class.std::basic_ostream.base" = type { ptr }
%"class.std::__cxx11::basic_stringbuf" = type { %"class.std::basic_streambuf", i32, %"class.std::__cxx11::basic_string" }
%"class.std::basic_streambuf" = type { ptr, ptr, ptr, ptr, ptr, ptr, ptr, %"class.std::locale" }
%"class.std::locale" = type { ptr }
%"class.std::basic_ios" = type { %"class.std::ios_base", ptr, i8, i8, ptr, ptr, ptr, ptr }
%"class.std::ios_base" = type { ptr, i64, i64, i32, i32, i32, ptr, %"struct.std::ios_base::_Words", [8 x %"struct.std::ios_base::_Words"], i32, ptr, %"class.std::locale" }
%"struct.std::ios_base::_Words" = type { ptr, i64 }
%"class.std::map.122" = type { %"class.std::_Rb_tree.123" }
%"class.std::_Rb_tree.123" = type { %"struct.std::_Rb_tree<cvc5::internal::NodeTemplate<true>, std::pair<const cvc5::internal::NodeTemplate<true>, cvc5::internal::NodeTemplate<true>>, std::_Select1st<std::pair<const cvc5::internal::NodeTemplate<true>, cvc5::internal::NodeTemplate<true>>>, std::less<cvc5::internal::NodeTemplate<true>>>::_Rb_tree_impl" }
%"struct.std::_Rb_tree<cvc5::internal::NodeTemplate<true>, std::pair<const cvc5::internal::NodeTemplate<true>, cvc5::internal::NodeTemplate<true>>, std::_Select1st<std::pair<const cvc5::internal::NodeTemplate<true>, cvc5::internal::NodeTemplate<true>>>, std::less<cvc5::internal::NodeTemplate<true>>>::_Rb_tree_impl" = type { %"struct.std::_Rb_tree_key_compare.127", %"struct.std::_Rb_tree_header" }
%"struct.std::_Rb_tree_key_compare.127" = type { %"struct.std::less.128" }
%"struct.std::less.128" = type { i8 }
%"class.cvc5::internal::expr::TermCanonize" = type { ptr, i32, %"class.std::map.130", i32, %"class.std::map.135", %"class.std::map.140", %"class.std::map.148" }
%"class.std::map.130" = type { %"class.std::_Rb_tree.131" }
%"class.std::_Rb_tree.131" = type { %"struct.std::_Rb_tree<cvc5::internal::NodeTemplate<true>, std::pair<const cvc5::internal::NodeTemplate<true>, int>, std::_Select1st<std::pair<const cvc5::internal::NodeTemplate<true>, int>>, std::less<cvc5::internal::NodeTemplate<true>>>::_Rb_tree_impl" }
%"struct.std::_Rb_tree<cvc5::internal::NodeTemplate<true>, std::pair<const cvc5::internal::NodeTemplate<true>, int>, std::_Select1st<std::pair<const cvc5::internal::NodeTemplate<true>, int>>, std::less<cvc5::internal::NodeTemplate<true>>>::_Rb_tree_impl" = type { %"struct.std::_Rb_tree_key_compare.127", %"struct.std::_Rb_tree_header" }
%"class.std::map.135" = type { %"class.std::_Rb_tree.136" }
%"class.std::_Rb_tree.136" = type { %"struct.std::_Rb_tree<cvc5::internal::TypeNode, std::pair<const cvc5::internal::TypeNode, int>, std::_Select1st<std::pair<const cvc5::internal::TypeNode, int>>, std::less<cvc5::internal::TypeNode>>::_Rb_tree_impl" }
%"struct.std::_Rb_tree<cvc5::internal::TypeNode, std::pair<const cvc5::internal::TypeNode, int>, std::_Select1st<std::pair<const cvc5::internal::TypeNode, int>>, std::less<cvc5::internal::TypeNode>>::_Rb_tree_impl" = type { %"struct.std::_Rb_tree_key_compare", %"struct.std::_Rb_tree_header" }
%"class.std::map.140" = type { %"class.std::_Rb_tree.141" }
%"class.std::_Rb_tree.141" = type { %"struct.std::_Rb_tree<std::pair<cvc5::internal::TypeNode, unsigned int>, std::pair<const std::pair<cvc5::internal::TypeNode, unsigned int>, std::vector<cvc5::internal::NodeTemplate<true>>>, std::_Select1st<std::pair<const std::pair<cvc5::internal::TypeNode, unsigned int>, std::vector<cvc5::internal::NodeTemplate<true>>>>, std::less<std::pair<cvc5::internal::TypeNode, unsigned int>>>::_Rb_tree_impl" }
%"struct.std::_Rb_tree<std::pair<cvc5::internal::TypeNode, unsigned int>, std::pair<const std::pair<cvc5::internal::TypeNode, unsigned int>, std::vector<cvc5::internal::NodeTemplate<true>>>, std::_Select1st<std::pair<const std::pair<cvc5::internal::TypeNode, unsigned int>, std::vector<cvc5::internal::NodeTemplate<true>>>>, std::less<std::pair<cvc5::internal::TypeNode, unsigned int>>>::_Rb_tree_impl" = type { %"struct.std::_Rb_tree_key_compare.145", %"struct.std::_Rb_tree_header" }
%"struct.std::_Rb_tree_key_compare.145" = type { %"struct.std::less.146" }
%"struct.std::less.146" = type { i8 }
%"class.std::map.148" = type { %"class.std::_Rb_tree.149" }
%"class.std::_Rb_tree.149" = type { %"struct.std::_Rb_tree<cvc5::internal::NodeTemplate<true>, std::pair<const cvc5::internal::NodeTemplate<true>, unsigned long>, std::_Select1st<std::pair<const cvc5::internal::NodeTemplate<true>, unsigned long>>, std::less<cvc5::internal::NodeTemplate<true>>>::_Rb_tree_impl" }
%"struct.std::_Rb_tree<cvc5::internal::NodeTemplate<true>, std::pair<const cvc5::internal::NodeTemplate<true>, unsigned long>, std::_Select1st<std::pair<const cvc5::internal::NodeTemplate<true>, unsigned long>>, std::less<cvc5::internal::NodeTemplate<true>>>::_Rb_tree_impl" = type { %"struct.std::_Rb_tree_key_compare.127", %"struct.std::_Rb_tree_header" }
%"struct.std::_Rb_tree_iterator.153" = type { ptr }
%"class.std::vector.154" = type { %"struct.std::_Vector_base.155" }
%"struct.std::_Vector_base.155" = type { %"struct.std::_Vector_base<cvc5::internal::SygusDatatype, std::allocator<cvc5::internal::SygusDatatype>>::_Vector_impl" }
%"struct.std::_Vector_base<cvc5::internal::SygusDatatype, std::allocator<cvc5::internal::SygusDatatype>>::_Vector_impl" = type { %"struct.std::_Vector_base<cvc5::internal::SygusDatatype, std::allocator<cvc5::internal::SygusDatatype>>::_Vector_impl_data" }
%"struct.std::_Vector_base<cvc5::internal::SygusDatatype, std::allocator<cvc5::internal::SygusDatatype>>::_Vector_impl_data" = type { ptr, ptr, ptr }
%"class.std::map.159" = type { %"class.std::_Rb_tree.160" }
%"class.std::_Rb_tree.160" = type { %"struct.std::_Rb_tree<cvc5::internal::NodeTemplate<true>, std::pair<const cvc5::internal::NodeTemplate<true>, cvc5::internal::TypeNode>, std::_Select1st<std::pair<const cvc5::internal::NodeTemplate<true>, cvc5::internal::TypeNode>>, std::less<cvc5::internal::NodeTemplate<true>>>::_Rb_tree_impl" }
%"struct.std::_Rb_tree<cvc5::internal::NodeTemplate<true>, std::pair<const cvc5::internal::NodeTemplate<true>, cvc5::internal::TypeNode>, std::_Select1st<std::pair<const cvc5::internal::NodeTemplate<true>, cvc5::internal::TypeNode>>, std::less<cvc5::internal::NodeTemplate<true>>>::_Rb_tree_impl" = type { %"struct.std::_Rb_tree_key_compare.127", %"struct.std::_Rb_tree_header" }
%"class.cvc5::internal::SygusDatatype" = type { %"class.std::vector.164", %"class.cvc5::internal::DType" }
%"class.std::vector.164" = type { %"struct.std::_Vector_base.165" }
%"struct.std::_Vector_base.165" = type { %"struct.std::_Vector_base<cvc5::internal::SygusDatatypeConstructor, std::allocator<cvc5::internal::SygusDatatypeConstructor>>::_Vector_impl" }
%"struct.std::_Vector_base<cvc5::internal::SygusDatatypeConstructor, std::allocator<cvc5::internal::SygusDatatypeConstructor>>::_Vector_impl" = type { %"struct.std::_Vector_base<cvc5::internal::SygusDatatypeConstructor, std::allocator<cvc5::internal::SygusDatatypeConstructor>>::_Vector_impl_data" }
%"struct.std::_Vector_base<cvc5::internal::SygusDatatypeConstructor, std::allocator<cvc5::internal::SygusDatatypeConstructor>>::_Vector_impl_data" = type { ptr, ptr, ptr }
%"class.cvc5::internal::DType" = type { %"class.std::__cxx11::basic_string", %"class.std::vector", i8, i8, i8, %"class.std::vector.169", i8, %"class.cvc5::internal::TypeNode", i8, i8, %"class.cvc5::internal::TypeNode", %"class.cvc5::internal::NodeTemplate.37", i8, i8, %"class.cvc5::internal::Cardinality", %"class.std::map.135", %"class.std::map.174", i32, i32, %"class.std::map.179", %"class.std::map.179", %"class.std::map.184", %"class.std::map.189" }
%"class.std::vector.169" = type { %"struct.std::_Vector_base.170" }
%"struct.std::_Vector_base.170" = type { %"struct.std::_Vector_base<std::shared_ptr<cvc5::internal::DTypeConstructor>, std::allocator<std::shared_ptr<cvc5::internal::DTypeConstructor>>>::_Vector_impl" }
%"struct.std::_Vector_base<std::shared_ptr<cvc5::internal::DTypeConstructor>, std::allocator<std::shared_ptr<cvc5::internal::DTypeConstructor>>>::_Vector_impl" = type { %"struct.std::_Vector_base<std::shared_ptr<cvc5::internal::DTypeConstructor>, std::allocator<std::shared_ptr<cvc5::internal::DTypeConstructor>>>::_Vector_impl_data" }
%"struct.std::_Vector_base<std::shared_ptr<cvc5::internal::DTypeConstructor>, std::allocator<std::shared_ptr<cvc5::internal::DTypeConstructor>>>::_Vector_impl_data" = type { ptr, ptr, ptr }
%"class.cvc5::internal::Cardinality" = type { %"class.cvc5::internal::Integer" }
%"class.cvc5::internal::Integer" = type { %class.__gmp_expr }
%class.__gmp_expr = type { [1 x %struct.__mpz_struct] }
%struct.__mpz_struct = type { i32, i32, ptr }
%"class.std::map.174" = type { %"class.std::_Rb_tree.175" }
%"class.std::_Rb_tree.175" = type { %"struct.std::_Rb_tree<cvc5::internal::TypeNode, std::pair<const cvc5::internal::TypeNode, std::vector<cvc5::internal::TypeNode>>, std::_Select1st<std::pair<const cvc5::internal::TypeNode, std::vector<cvc5::internal::TypeNode>>>, std::less<cvc5::internal::TypeNode>>::_Rb_tree_impl" }
%"struct.std::_Rb_tree<cvc5::internal::TypeNode, std::pair<const cvc5::internal::TypeNode, std::vector<cvc5::internal::TypeNode>>, std::_Select1st<std::pair<const cvc5::internal::TypeNode, std::vector<cvc5::internal::TypeNode>>>, std::less<cvc5::internal::TypeNode>>::_Rb_tree_impl" = type { %"struct.std::_Rb_tree_key_compare", %"struct.std::_Rb_tree_header" }
%"class.std::map.179" = type { %"class.std::_Rb_tree.180" }
%"class.std::_Rb_tree.180" = type { %"struct.std::_Rb_tree<cvc5::internal::TypeNode, std::pair<const cvc5::internal::TypeNode, cvc5::internal::NodeTemplate<true>>, std::_Select1st<std::pair<const cvc5::internal::TypeNode, cvc5::internal::NodeTemplate<true>>>, std::less<cvc5::internal::TypeNode>>::_Rb_tree_impl" }
%"struct.std::_Rb_tree<cvc5::internal::TypeNode, std::pair<const cvc5::internal::TypeNode, cvc5::internal::NodeTemplate<true>>, std::_Select1st<std::pair<const cvc5::internal::TypeNode, cvc5::internal::NodeTemplate<true>>>, std::less<cvc5::internal::TypeNode>>::_Rb_tree_impl" = type { %"struct.std::_Rb_tree_key_compare", %"struct.std::_Rb_tree_header" }
%"class.std::map.184" = type { %"class.std::_Rb_tree.185" }
%"class.std::_Rb_tree.185" = type { %"struct.std::_Rb_tree<cvc5::internal::TypeNode, std::pair<const cvc5::internal::TypeNode, std::map<cvc5::internal::TypeNode, std::map<unsigned int, cvc5::internal::NodeTemplate<true>>>>, std::_Select1st<std::pair<const cvc5::internal::TypeNode, std::map<cvc5::internal::TypeNode, std::map<unsigned int, cvc5::internal::NodeTemplate<true>>>>>, std::less<cvc5::internal::TypeNode>>::_Rb_tree_impl" }
%"struct.std::_Rb_tree<cvc5::internal::TypeNode, std::pair<const cvc5::internal::TypeNode, std::map<cvc5::internal::TypeNode, std::map<unsigned int, cvc5::internal::NodeTemplate<true>>>>, std::_Select1st<std::pair<const cvc5::internal::TypeNode, std::map<cvc5::internal::TypeNode, std::map<unsigned int, cvc5::internal::NodeTemplate<true>>>>>, std::less<cvc5::internal::TypeNode>>::_Rb_tree_impl" = type { %"struct.std::_Rb_tree_key_compare", %"struct.std::_Rb_tree_header" }
%"class.std::map.189" = type { %"class.std::_Rb_tree.190" }
%"class.std::_Rb_tree.190" = type { %"struct.std::_Rb_tree<cvc5::internal::TypeNode, std::pair<const cvc5::internal::TypeNode, cvc5::internal::CardinalityClass>, std::_Select1st<std::pair<const cvc5::internal::TypeNode, cvc5::internal::CardinalityClass>>, std::less<cvc5::internal::TypeNode>>::_Rb_tree_impl" }
%"struct.std::_Rb_tree<cvc5::internal::TypeNode, std::pair<const cvc5::internal::TypeNode, cvc5::internal::CardinalityClass>, std::_Select1st<std::pair<const cvc5::internal::TypeNode, cvc5::internal::CardinalityClass>>, std::less<cvc5::internal::TypeNode>>::_Rb_tree_impl" = type { %"struct.std::_Rb_tree_key_compare", %"struct.std::_Rb_tree_header" }
%"struct.std::_Rb_tree_iterator.194" = type { ptr }
%"class.cvc5::internal::expr::NodeValue::iterator.195" = type { ptr }
%"class.std::set" = type { %"class.std::_Rb_tree.196" }
%"class.std::_Rb_tree.196" = type { %"struct.std::_Rb_tree<cvc5::internal::TypeNode, cvc5::internal::TypeNode, std::_Identity<cvc5::internal::TypeNode>, std::less<cvc5::internal::TypeNode>>::_Rb_tree_impl" }
%"struct.std::_Rb_tree<cvc5::internal::TypeNode, cvc5::internal::TypeNode, std::_Identity<cvc5::internal::TypeNode>, std::less<cvc5::internal::TypeNode>>::_Rb_tree_impl" = type { %"struct.std::_Rb_tree_key_compare", %"struct.std::_Rb_tree_header" }
%"class.__gnu_cxx::__normal_iterator.200" = type { ptr }
%"struct.std::_Rb_tree_const_iterator" = type { ptr }
%"class.std::vector.201" = type { %"struct.std::_Vector_base.202" }
%"struct.std::_Vector_base.202" = type { %"struct.std::_Vector_base<cvc5::internal::DType, std::allocator<cvc5::internal::DType>>::_Vector_impl" }
%"struct.std::_Vector_base<cvc5::internal::DType, std::allocator<cvc5::internal::DType>>::_Vector_impl" = type { %"struct.std::_Vector_base<cvc5::internal::DType, std::allocator<cvc5::internal::DType>>::_Vector_impl_data" }
%"struct.std::_Vector_base<cvc5::internal::DType, std::allocator<cvc5::internal::DType>>::_Vector_impl_data" = type { ptr, ptr, ptr }
%"struct.std::pair.38" = type <{ %"class.cvc5::internal::NodeTemplate", i8, [7 x i8] }>
%"struct.std::pair.206" = type { %"class.cvc5::internal::TypeNode", %"class.std::vector.6" }
%"class.__gnu_cxx::__normal_iterator.285" = type { ptr }
%"struct.std::_Rb_tree_const_iterator.296" = type { ptr }
%"class.std::tuple.297" = type { %"struct.std::_Tuple_impl.298" }
%"struct.std::_Tuple_impl.298" = type { %"struct.std::_Head_base.299" }
%"struct.std::_Head_base.299" = type { ptr }
%"class.std::tuple.289" = type { i8 }
%"struct.std::_Rb_tree_const_iterator.302" = type { ptr }
%"class.__gnu_cxx::__normal_iterator.305" = type { ptr }
%"class.std::unordered_map.306" = type { %"class.std::_Hashtable.307" }
%"class.std::_Hashtable.307" = type { ptr, i64, %"struct.std::__detail::_Hash_node_base", i64, %"struct.std::__detail::_Prime_rehash_policy", ptr }
%"struct.std::_Rb_tree_const_iterator.328" = type { ptr }
%"class.std::tuple.329" = type { %"struct.std::_Tuple_impl.330" }
%"struct.std::_Tuple_impl.330" = type { %"struct.std::_Head_base.331" }
%"struct.std::_Head_base.331" = type { ptr }
%"struct.std::pair.278" = type { %"class.cvc5::internal::NodeTemplate.37", %"class.cvc5::internal::NodeTemplate.37" }
%"class.std::tuple.334" = type { %"struct.std::_Tuple_impl.335" }
%"struct.std::_Tuple_impl.335" = type { %"struct.std::_Head_base.336" }
%"struct.std::_Head_base.336" = type { ptr }
%"class.cvc5::internal::NodeBuilder" = type <{ %"class.cvc5::internal::expr::NodeValue", [10 x ptr], ptr, ptr, i32, [4 x i8] }>
%"class.cvc5::internal::expr::NodeValue" = type { i64, i16, i32, [0 x ptr] }
%"struct.std::_Rb_tree_iterator.337" = type { ptr }
%"struct.std::_Rb_tree_const_iterator.338" = type { ptr }
%"struct.std::pair.256" = type { %"class.cvc5::internal::NodeTemplate.37", %"class.cvc5::internal::TypeNode" }
%"class.__gnu_cxx::__normal_iterator.345" = type { ptr }
%"struct.std::_Rb_tree_const_iterator.346" = type { ptr }
%"struct.std::_Rb_tree_node" = type { %"struct.std::_Rb_tree_node_base", %"struct.__gnu_cxx::__aligned_membuf" }
%"struct.__gnu_cxx::__aligned_membuf" = type { [16 x i8] }
%"class.cvc5::internal::SygusDatatypeConstructor" = type <{ %"class.cvc5::internal::NodeTemplate.37", %"class.std::__cxx11::basic_string", %"class.std::vector", i32, [4 x i8] }>
%"struct.std::_Rb_tree_node.208" = type { %"struct.std::_Rb_tree_node_base", %"struct.__gnu_cxx::__aligned_membuf.209" }
%"struct.__gnu_cxx::__aligned_membuf.209" = type { [8 x i8] }
%"class.cvc5::internal::options::ioutils::Scope" = type <{ ptr, i8, [7 x i8], i64, i64, i8, [3 x i8], i32, i32, [4 x i8] }>
%"class.std::allocator.0" = type { i8 }
%"class.__gnu_cxx::__normal_iterator.210" = type { ptr }
%"class.std::allocator.171" = type { i8 }
%"class.__gnu_cxx::__normal_iterator.211" = type { ptr }
%"class.std::shared_ptr" = type { %"class.std::__shared_ptr" }
%"class.std::__shared_ptr" = type { ptr, %"class.std::__shared_count" }
%"class.std::__shared_count" = type { ptr }
%"class.std::_Sp_counted_base" = type { ptr, i32, i32 }
%"class.std::allocator.137" = type { i8 }
%"struct.std::_Rb_tree<cvc5::internal::TypeNode, std::pair<const cvc5::internal::TypeNode, int>, std::_Select1st<std::pair<const cvc5::internal::TypeNode, int>>, std::less<cvc5::internal::TypeNode>>::_Alloc_node" = type { ptr }
%"struct.std::_Rb_tree_node.212" = type { %"struct.std::_Rb_tree_node_base", %"struct.__gnu_cxx::__aligned_membuf.213" }
%"struct.__gnu_cxx::__aligned_membuf.213" = type { [16 x i8] }
%"struct.std::pair.214" = type <{ %"class.cvc5::internal::TypeNode", i32, [4 x i8] }>
%"class.std::allocator.176" = type { i8 }
%"struct.std::_Rb_tree<cvc5::internal::TypeNode, std::pair<const cvc5::internal::TypeNode, std::vector<cvc5::internal::TypeNode>>, std::_Select1st<std::pair<const cvc5::internal::TypeNode, std::vector<cvc5::internal::TypeNode>>>, std::less<cvc5::internal::TypeNode>>::_Alloc_node" = type { ptr }
%"struct.std::_Rb_tree_node.217" = type { %"struct.std::_Rb_tree_node_base", %"struct.__gnu_cxx::__aligned_membuf.218" }
%"struct.__gnu_cxx::__aligned_membuf.218" = type { [32 x i8] }
%"struct.std::pair.219" = type { %"class.cvc5::internal::TypeNode", %"class.std::vector" }
%"class.std::allocator.181" = type { i8 }
%"struct.std::_Rb_tree<cvc5::internal::TypeNode, std::pair<const cvc5::internal::TypeNode, cvc5::internal::NodeTemplate<true>>, std::_Select1st<std::pair<const cvc5::internal::TypeNode, cvc5::internal::NodeTemplate<true>>>, std::less<cvc5::internal::TypeNode>>::_Alloc_node" = type { ptr }
%"struct.std::_Rb_tree_node.221" = type { %"struct.std::_Rb_tree_node_base", %"struct.__gnu_cxx::__aligned_membuf.222" }
%"struct.__gnu_cxx::__aligned_membuf.222" = type { [16 x i8] }
%"struct.std::pair.223" = type { %"class.cvc5::internal::TypeNode", %"class.cvc5::internal::NodeTemplate.37" }
%"class.std::allocator.186" = type { i8 }
%"struct.std::_Rb_tree<cvc5::internal::TypeNode, std::pair<const cvc5::internal::TypeNode, std::map<cvc5::internal::TypeNode, std::map<unsigned int, cvc5::internal::NodeTemplate<true>>>>, std::_Select1st<std::pair<const cvc5::internal::TypeNode, std::map<cvc5::internal::TypeNode, std::map<unsigned int, cvc5::internal::NodeTemplate<true>>>>>, std::less<cvc5::internal::TypeNode>>::_Alloc_node" = type { ptr }
%"struct.std::_Rb_tree_node.225" = type { %"struct.std::_Rb_tree_node_base", %"struct.__gnu_cxx::__aligned_membuf.226" }
%"struct.__gnu_cxx::__aligned_membuf.226" = type { [56 x i8] }
%"struct.std::pair.227" = type { %"class.cvc5::internal::TypeNode", %"class.std::map.229" }
%"class.std::map.229" = type { %"class.std::_Rb_tree.230" }
%"class.std::_Rb_tree.230" = type { %"struct.std::_Rb_tree<cvc5::internal::TypeNode, std::pair<const cvc5::internal::TypeNode, std::map<unsigned int, cvc5::internal::NodeTemplate<true>>>, std::_Select1st<std::pair<const cvc5::internal::TypeNode, std::map<unsigned int, cvc5::internal::NodeTemplate<true>>>>, std::less<cvc5::internal::TypeNode>>::_Rb_tree_impl" }
%"struct.std::_Rb_tree<cvc5::internal::TypeNode, std::pair<const cvc5::internal::TypeNode, std::map<unsigned int, cvc5::internal::NodeTemplate<true>>>, std::_Select1st<std::pair<const cvc5::internal::TypeNode, std::map<unsigned int, cvc5::internal::NodeTemplate<true>>>>, std::less<cvc5::internal::TypeNode>>::_Rb_tree_impl" = type { %"struct.std::_Rb_tree_key_compare", %"struct.std::_Rb_tree_header" }
%"class.std::allocator.231" = type { i8 }
%"struct.std::_Rb_tree<cvc5::internal::TypeNode, std::pair<const cvc5::internal::TypeNode, std::map<unsigned int, cvc5::internal::NodeTemplate<true>>>, std::_Select1st<std::pair<const cvc5::internal::TypeNode, std::map<unsigned int, cvc5::internal::NodeTemplate<true>>>>, std::less<cvc5::internal::TypeNode>>::_Alloc_node" = type { ptr }
%"struct.std::_Rb_tree_node.234" = type { %"struct.std::_Rb_tree_node_base", %"struct.__gnu_cxx::__aligned_membuf.235" }
%"struct.__gnu_cxx::__aligned_membuf.235" = type { [56 x i8] }
%"struct.std::pair.236" = type { %"class.cvc5::internal::TypeNode", %"class.std::map.238" }
%"class.std::map.238" = type { %"class.std::_Rb_tree.239" }
%"class.std::_Rb_tree.239" = type { %"struct.std::_Rb_tree<unsigned int, std::pair<const unsigned int, cvc5::internal::NodeTemplate<true>>, std::_Select1st<std::pair<const unsigned int, cvc5::internal::NodeTemplate<true>>>, std::less<unsigned int>>::_Rb_tree_impl" }
%"struct.std::_Rb_tree<unsigned int, std::pair<const unsigned int, cvc5::internal::NodeTemplate<true>>, std::_Select1st<std::pair<const unsigned int, cvc5::internal::NodeTemplate<true>>>, std::less<unsigned int>>::_Rb_tree_impl" = type { %"struct.std::_Rb_tree_key_compare.243", %"struct.std::_Rb_tree_header" }
%"struct.std::_Rb_tree_key_compare.243" = type { %"struct.std::less.244" }
%"struct.std::less.244" = type { i8 }
%"class.std::allocator.240" = type { i8 }
%"struct.std::_Rb_tree<unsigned int, std::pair<const unsigned int, cvc5::internal::NodeTemplate<true>>, std::_Select1st<std::pair<const unsigned int, cvc5::internal::NodeTemplate<true>>>, std::less<unsigned int>>::_Alloc_node" = type { ptr }
%"struct.std::_Rb_tree_node.246" = type { %"struct.std::_Rb_tree_node_base", %"struct.__gnu_cxx::__aligned_membuf.247" }
%"struct.__gnu_cxx::__aligned_membuf.247" = type { [16 x i8] }
%"struct.std::pair.248" = type { i32, %"class.cvc5::internal::NodeTemplate.37" }
%"class.std::allocator.191" = type { i8 }
%"struct.std::_Rb_tree<cvc5::internal::TypeNode, std::pair<const cvc5::internal::TypeNode, cvc5::internal::CardinalityClass>, std::_Select1st<std::pair<const cvc5::internal::TypeNode, cvc5::internal::CardinalityClass>>, std::less<cvc5::internal::TypeNode>>::_Alloc_node" = type { ptr }
%"struct.std::_Rb_tree_node.250" = type { %"struct.std::_Rb_tree_node_base", %"struct.__gnu_cxx::__aligned_membuf.251" }
%"struct.__gnu_cxx::__aligned_membuf.251" = type { [16 x i8] }
%"struct.std::pair.252" = type { %"class.cvc5::internal::TypeNode", i64 }
%"struct.std::_Rb_tree_node.254" = type { %"struct.std::_Rb_tree_node_base", %"struct.__gnu_cxx::__aligned_membuf.255" }
%"struct.__gnu_cxx::__aligned_membuf.255" = type { [16 x i8] }
%"struct.std::_Rb_tree_node.258" = type { %"struct.std::_Rb_tree_node_base", %"struct.__gnu_cxx::__aligned_membuf.259" }
%"struct.__gnu_cxx::__aligned_membuf.259" = type { [16 x i8] }
%"struct.std::pair.260" = type { %"class.cvc5::internal::NodeTemplate.37", i64 }
%"struct.std::_Rb_tree_node.262" = type { %"struct.std::_Rb_tree_node_base", %"struct.__gnu_cxx::__aligned_membuf.263" }
%"struct.__gnu_cxx::__aligned_membuf.263" = type { [40 x i8] }
%"struct.std::pair.264" = type { %"struct.std::pair.266", %"class.std::vector.6" }
%"struct.std::pair.266" = type <{ %"class.cvc5::internal::TypeNode", i32, [4 x i8] }>
%"struct.std::_Rb_tree_node.269" = type { %"struct.std::_Rb_tree_node_base", %"struct.__gnu_cxx::__aligned_membuf.270" }
%"struct.__gnu_cxx::__aligned_membuf.270" = type { [16 x i8] }
%"struct.std::pair.271" = type <{ %"class.cvc5::internal::NodeTemplate.37", i32, [4 x i8] }>
%"struct.std::_Rb_tree_node.274" = type { %"struct.std::_Rb_tree_node_base", %"struct.__gnu_cxx::__aligned_membuf.275" }
%"struct.__gnu_cxx::__aligned_membuf.275" = type { [32 x i8] }
%"struct.std::_Rb_tree_node.276" = type { %"struct.std::_Rb_tree_node_base", %"struct.__gnu_cxx::__aligned_membuf.277" }
%"struct.__gnu_cxx::__aligned_membuf.277" = type { [16 x i8] }
%"struct.std::_Rb_tree_node.280" = type { %"struct.std::_Rb_tree_node_base", %"struct.__gnu_cxx::__aligned_membuf.281" }
%"struct.__gnu_cxx::__aligned_membuf.281" = type { [16 x i8] }
%"struct.std::__detail::_Hash_node_value_base" = type { %"struct.__gnu_cxx::__aligned_buffer" }
%"struct.__gnu_cxx::__aligned_buffer" = type { %"union.std::aligned_storage<16, 8>::type" }
%"union.std::aligned_storage<16, 8>::type" = type { [16 x i8] }
%"class.std::allocator.282" = type { i8 }
%struct._Guard = type { ptr }
%"struct.std::_Hashtable<cvc5::internal::NodeTemplate<false>, std::pair<const cvc5::internal::NodeTemplate<false>, bool>, std::allocator<std::pair<const cvc5::internal::NodeTemplate<false>, bool>>, std::__detail::_Select1st, std::equal_to<cvc5::internal::NodeTemplate<false>>, std::hash<cvc5::internal::TNode>, std::__detail::_Mod_range_hashing, std::__detail::_Default_ranged_hash, std::__detail::_Prime_rehash_policy, std::__detail::_Hashtable_traits<true, false, true>>::_Scoped_node" = type { ptr, ptr }
%"class.std::tuple.286" = type { %"struct.std::_Tuple_impl.287" }
%"struct.std::_Tuple_impl.287" = type { %"struct.std::_Head_base.288" }
%"struct.std::_Head_base.288" = type { ptr }
%"struct.std::pair.291" = type { i8, i64 }
%"struct.std::__detail::_Mod_range_hashing" = type { i8 }
%"struct.std::__detail::_Hash_node_code_cache" = type { i64 }
%"struct.std::__detail::_Select1st" = type { i8 }
%"class.std::tuple.293" = type { %"struct.std::_Tuple_impl.294" }
%"struct.std::_Tuple_impl.294" = type { %"struct.std::_Head_base.295" }
%"struct.std::_Head_base.295" = type { ptr }
%"struct.std::_Select1st" = type { i8 }
%"struct.std::_Rb_tree<cvc5::internal::TypeNode, std::pair<const cvc5::internal::TypeNode, bool>, std::_Select1st<std::pair<const cvc5::internal::TypeNode, bool>>, std::less<cvc5::internal::TypeNode>>::_Auto_node" = type { ptr, ptr }
%"struct.std::pair.300" = type { ptr, ptr }
%"struct.std::_Rb_tree<cvc5::internal::TypeNode, std::pair<const cvc5::internal::TypeNode, std::vector<cvc5::internal::NodeTemplate<true>>>, std::_Select1st<std::pair<const cvc5::internal::TypeNode, std::vector<cvc5::internal::NodeTemplate<true>>>>, std::less<cvc5::internal::TypeNode>>::_Auto_node" = type { ptr, ptr }
%"struct.std::_Select1st.303" = type { i8 }
%"class.std::move_iterator" = type { ptr }
%"struct.std::__detail::_Node_const_iterator" = type { %"struct.std::__detail::_Node_iterator_base.320" }
%"struct.std::__detail::_Node_iterator_base.320" = type { ptr }
%"struct.std::__detail::_Node_iterator.321" = type { %"struct.std::__detail::_Node_iterator_base.320" }
%"struct.std::pair.322" = type { %"class.cvc5::internal::NodeTemplate", %"class.cvc5::internal::NodeTemplate" }
%"struct.__gnu_cxx::__ops::_Iter_equals_val" = type { ptr }
%"struct.std::__detail::_Hash_node_value_base.326" = type { %"struct.__gnu_cxx::__aligned_buffer.327" }
%"struct.__gnu_cxx::__aligned_buffer.327" = type { %"union.std::aligned_storage<16, 8>::type" }
%"struct.std::_Hashtable<cvc5::internal::NodeTemplate<false>, std::pair<const cvc5::internal::NodeTemplate<false>, cvc5::internal::NodeTemplate<false>>, std::allocator<std::pair<const cvc5::internal::NodeTemplate<false>, cvc5::internal::NodeTemplate<false>>>, std::__detail::_Select1st, std::equal_to<cvc5::internal::NodeTemplate<false>>, std::hash<cvc5::internal::TNode>, std::__detail::_Mod_range_hashing, std::__detail::_Default_ranged_hash, std::__detail::_Prime_rehash_policy, std::__detail::_Hashtable_traits<true, false, true>>::_Scoped_node" = type { ptr, ptr }
%"struct.std::_Rb_tree<cvc5::internal::NodeTemplate<true>, std::pair<const cvc5::internal::NodeTemplate<true>, cvc5::internal::NodeTemplate<true>>, std::_Select1st<std::pair<const cvc5::internal::NodeTemplate<true>, cvc5::internal::NodeTemplate<true>>>, std::less<cvc5::internal::NodeTemplate<true>>>::_Auto_node" = type { ptr, ptr }
%"struct.std::_Select1st.332" = type { i8 }
%"struct.std::_Rb_tree<cvc5::internal::NodeTemplate<true>, std::pair<const cvc5::internal::NodeTemplate<true>, cvc5::internal::TypeNode>, std::_Select1st<std::pair<const cvc5::internal::NodeTemplate<true>, cvc5::internal::TypeNode>>, std::less<cvc5::internal::NodeTemplate<true>>>::_Auto_node" = type { ptr, ptr }
%"struct.std::_Select1st.339" = type { i8 }
%"class.__gnu_cxx::__normal_iterator.341" = type { ptr }
%"class.std::allocator.166" = type { i8 }
%"class.__gnu_cxx::__normal_iterator.342" = type { ptr }
%"struct.std::_Rb_tree<cvc5::internal::TypeNode, cvc5::internal::TypeNode, std::_Identity<cvc5::internal::TypeNode>, std::less<cvc5::internal::TypeNode>>::_Alloc_node" = type { ptr }
%"struct.std::_Rb_tree_iterator.343" = type { ptr }
%"struct.std::_Identity" = type { i8 }
%"struct.std::_Rb_tree<cvc5::internal::TypeNode, std::pair<const cvc5::internal::TypeNode, cvc5::internal::TypeNode>, std::_Select1st<std::pair<const cvc5::internal::TypeNode, cvc5::internal::TypeNode>>, std::less<cvc5::internal::TypeNode>>::_Auto_node" = type { ptr, ptr }
%"struct.std::_Select1st.347" = type { i8 }

$_ZNSt7__cxx1112basic_stringIcSt11char_traitsIcESaIcEEC2IS3_EEPKcRKS3_ = comdat any

$_ZNSt6vectorIN4cvc58internal8TypeNodeESaIS2_EEC2Ev = comdat any

$_ZNSt3mapIN4cvc58internal8TypeNodeES2_St4lessIS2_ESaISt4pairIKS2_S2_EEE5beginEv = comdat any

$_ZNSt3mapIN4cvc58internal8TypeNodeES2_St4lessIS2_ESaISt4pairIKS2_S2_EEE3endEv = comdat any

$_ZStneRKSt17_Rb_tree_iteratorISt4pairIKN4cvc58internal8TypeNodeES3_EES8_ = comdat any

$_ZNKSt17_Rb_tree_iteratorISt4pairIKN4cvc58internal8TypeNodeES3_EEdeEv = comdat any

$_ZNSt4pairIKN4cvc58internal8TypeNodeES2_EC2ERKS4_ = comdat any

$_ZNSt6vectorIN4cvc58internal8TypeNodeESaIS2_EE9push_backERKS2_ = comdat any

$_ZNSt4pairIKN4cvc58internal8TypeNodeES2_ED2Ev = comdat any

$_ZNSt17_Rb_tree_iteratorISt4pairIKN4cvc58internal8TypeNodeES3_EEppEv = comdat any

$_ZNSt3mapIN4cvc58internal8TypeNodeES2_St4lessIS2_ESaISt4pairIKS2_S2_EEED2Ev = comdat any

$_ZNSt6vectorIN4cvc58internal8TypeNodeESaIS2_EED2Ev = comdat any

$_ZNSt3mapIN4cvc58internal8TypeNodeES2_St4lessIS2_ESaISt4pairIKS2_S2_EEEC2Ev = comdat any

$_ZNKSt6vectorIN4cvc58internal12NodeTemplateILb1EEESaIS3_EE5emptyEv = comdat any

$_ZNSt13unordered_mapIN4cvc58internal12NodeTemplateILb0EEEbSt4hashIS3_ESt8equal_toIS3_ESaISt4pairIKS3_bEEEC2Ev = comdat any

$_ZNSt8__detail14_Node_iteratorISt4pairIKN4cvc58internal12NodeTemplateILb0EEEbELb0ELb1EEC2Ev = comdat any

$_ZNSt6vectorIN4cvc58internal12NodeTemplateILb0EEESaIS3_EEC2Ev = comdat any

$_ZNSt6vectorIN4cvc58internal12NodeTemplateILb1EEESaIS3_EEC2Ev = comdat any

$_ZNSt3mapIN4cvc58internal8TypeNodeEbSt4lessIS2_ESaISt4pairIKS2_bEEEC2Ev = comdat any

$_ZNSt3mapIN4cvc58internal8TypeNodeESt6vectorINS1_12NodeTemplateILb1EEESaIS5_EESt4lessIS2_ESaISt4pairIKS2_S7_EEEC2Ev = comdat any

$_ZN4cvc58internal12NodeTemplateILb0EEC2Ev = comdat any

$_ZN4cvc58internal11__cvc5_truecvbEv = comdat any

$_ZNK4cvc58internal5NullCcvNS0_11Cvc5ostreamEEv = comdat any

$_ZNK4cvc58internal6TraceCclEv = comdat any

$_ZN4cvc58internal11Cvc5ostreamlsIA31_cEERS1_RKT_ = comdat any

$_ZN4cvc58internal11Cvc5ostreamlsEPFRSoS2_E = comdat any

$_ZNKSt6vectorIN4cvc58internal12NodeTemplateILb1EEESaIS3_EE5beginEv = comdat any

$_ZNKSt6vectorIN4cvc58internal12NodeTemplateILb1EEESaIS3_EE3endEv = comdat any

$_ZN9__gnu_cxxneIPKN4cvc58internal12NodeTemplateILb1EEESt6vectorIS4_SaIS4_EEEEbRKNS_17__normal_iteratorIT_T0_EESF_ = comdat any

$_ZNK9__gnu_cxx17__normal_iteratorIPKN4cvc58internal12NodeTemplateILb1EEESt6vectorIS4_SaIS4_EEEdeEv = comdat any

$_ZN4cvc58internal11Cvc5ostreamlsIA13_cEERS1_RKT_ = comdat any

$_ZN4cvc58internal11Cvc5ostreamlsINS0_12NodeTemplateILb1EEEEERS1_RKT_ = comdat any

$_ZNSt6vectorIN4cvc58internal12NodeTemplateILb0EEESaIS3_EE9push_backEOS3_ = comdat any

$_ZN4cvc58internal12NodeTemplateILb0EEC2ERKNS1_ILb1EEE = comdat any

$_ZN4cvc58internal12NodeTemplateILb0EED2Ev = comdat any

$_ZNSt6vectorIN4cvc58internal12NodeTemplateILb0EEESaIS3_EE4backEv = comdat any

$_ZN4cvc58internal12NodeTemplateILb0EEaSERKS2_ = comdat any

$_ZNSt6vectorIN4cvc58internal12NodeTemplateILb0EEESaIS3_EE8pop_backEv = comdat any

$_ZNK4cvc58internal12NodeTemplateILb0EE9isClosureEv = comdat any

$_ZNSt13unordered_mapIN4cvc58internal12NodeTemplateILb0EEEbSt4hashIS3_ESt8equal_toIS3_ESaISt4pairIKS3_bEEEixERS9_ = comdat any

$_ZNSt13unordered_mapIN4cvc58internal12NodeTemplateILb0EEEbSt4hashIS3_ESt8equal_toIS3_ESaISt4pairIKS3_bEEE4findERS9_ = comdat any

$_ZNSt8__detaileqERKNS_19_Node_iterator_baseISt4pairIKN4cvc58internal12NodeTemplateILb0EEEbELb1EEESA_ = comdat any

$_ZNSt13unordered_mapIN4cvc58internal12NodeTemplateILb0EEEbSt4hashIS3_ESt8equal_toIS3_ESaISt4pairIKS3_bEEE3endEv = comdat any

$_ZN4cvc58internal11Cvc5ostreamlsIA15_cEERS1_RKT_ = comdat any

$_ZN4cvc58internal11Cvc5ostreamlsINS0_12NodeTemplateILb0EEEEERS1_RKT_ = comdat any

$_ZNSt6vectorIN4cvc58internal12NodeTemplateILb0EEESaIS3_EE9push_backERKS3_ = comdat any

$_ZN4cvc58internal12NodeTemplateILb0EE5beginEv = comdat any

$_ZN4cvc58internal12NodeTemplateILb0EE3endEv = comdat any

$_ZNK4cvc58internal4expr9NodeValue8iteratorINS0_12NodeTemplateILb0EEEEneERKS6_ = comdat any

$_ZNK4cvc58internal4expr9NodeValue8iteratorINS0_12NodeTemplateILb0EEEEdeEv = comdat any

$_ZN4cvc58internal12NodeTemplateILb1EEC2ERKNS1_ILb0EEE = comdat any

$_ZN4cvc58internal12NodeTemplateILb1EED2Ev = comdat any

$_ZN4cvc58internal4expr9NodeValue8iteratorINS0_12NodeTemplateILb0EEEEppEv = comdat any

$_ZNKSt8__detail14_Node_iteratorISt4pairIKN4cvc58internal12NodeTemplateILb0EEEbELb0ELb1EEptEv = comdat any

$_ZN4cvc58internal11Cvc5ostreamlsIA16_cEERS1_RKT_ = comdat any

$_ZNSt13unordered_mapIN4cvc58internal12NodeTemplateILb0EEEbSt4hashIS3_ESt8equal_toIS3_ESaISt4pairIKS3_bEEEixEOS3_ = comdat any

$_ZN4cvc58internal11Cvc5ostreamlsIA22_cEERS1_RKT_ = comdat any

$_ZN4cvc58internal11Cvc5ostreamlsIA10_cEERS1_RKT_ = comdat any

$_ZNK4cvc58internal12NodeTemplateILb0EE7getTypeEb = comdat any

$_ZNK4cvc58internal12NodeTemplateILb0EE5isVarEv = comdat any

$_ZNSt6vectorIN4cvc58internal12NodeTemplateILb1EEESaIS3_EE9push_backEOS3_ = comdat any

$_ZNK4cvc58internal8TypeNode9isBooleanEv = comdat any

$_ZSteqRKSt17_Rb_tree_iteratorISt4pairIKN4cvc58internal8TypeNodeEbEES8_ = comdat any

$_ZNSt3mapIN4cvc58internal8TypeNodeEbSt4lessIS2_ESaISt4pairIKS2_bEEE4findERS6_ = comdat any

$_ZNSt3mapIN4cvc58internal8TypeNodeEbSt4lessIS2_ESaISt4pairIKS2_bEEE3endEv = comdat any

$_ZNSt3mapIN4cvc58internal8TypeNodeEbSt4lessIS2_ESaISt4pairIKS2_bEEEixERS6_ = comdat any

$_ZNSt3mapIN4cvc58internal8TypeNodeESt6vectorINS1_12NodeTemplateILb1EEESaIS5_EESt4lessIS2_ESaISt4pairIKS2_S7_EEEixERSB_ = comdat any

$_ZNSt6vectorIN4cvc58internal12NodeTemplateILb1EEESaIS3_EE6insertIN9__gnu_cxx17__normal_iteratorIPS3_S5_EEvEESA_NS8_IPKS3_S5_EET_SE_ = comdat any

$_ZNSt6vectorIN4cvc58internal12NodeTemplateILb1EEESaIS3_EE5beginEv = comdat any

$_ZN9__gnu_cxx17__normal_iteratorIPKN4cvc58internal12NodeTemplateILb1EEESt6vectorIS4_SaIS4_EEEC2IPS4_vEERKNS0_IT_S9_EE = comdat any

$_ZNSt6vectorIN4cvc58internal12NodeTemplateILb1EEESaIS3_EE3endEv = comdat any

$_ZN4cvc58internal8TypeNodeD2Ev = comdat any

$_ZNKSt6vectorIN4cvc58internal12NodeTemplateILb0EEESaIS3_EE5emptyEv = comdat any

$_ZN9__gnu_cxx17__normal_iteratorIPKN4cvc58internal12NodeTemplateILb1EEESt6vectorIS4_SaIS4_EEEppEv = comdat any

$_ZN4cvc58internal11Cvc5ostreamlsIA34_cEERS1_RKT_ = comdat any

$_ZNSt3mapIN4cvc58internal8TypeNodeEbSt4lessIS2_ESaISt4pairIKS2_bEEE5beginEv = comdat any

$_ZStneRKSt17_Rb_tree_iteratorISt4pairIKN4cvc58internal8TypeNodeEbEES8_ = comdat any

$_ZNKSt17_Rb_tree_iteratorISt4pairIKN4cvc58internal8TypeNodeEbEEdeEv = comdat any

$_ZNSt4pairIKN4cvc58internal8TypeNodeEbEC2ERKS4_ = comdat any

$_ZN4cvc58internal8TypeNodeC2ERKS1_ = comdat any

$_ZN4cvc58internal11Cvc5ostreamlsINS0_8TypeNodeEEERS1_RKT_ = comdat any

$_ZNSt6vectorIN4cvc58internal12NodeTemplateILb1EEESaIS3_EE9push_backERKS3_ = comdat any

$_ZNSt4pairIKN4cvc58internal8TypeNodeEbED2Ev = comdat any

$_ZNSt17_Rb_tree_iteratorISt4pairIKN4cvc58internal8TypeNodeEbEEppEv = comdat any

$_ZN4cvc58internal11Cvc5ostreamlsIA42_cEERS1_RKT_ = comdat any

$_ZN9__gnu_cxxneIPN4cvc58internal12NodeTemplateILb1EEESt6vectorIS4_SaIS4_EEEEbRKNS_17__normal_iteratorIT_T0_EESE_ = comdat any

$_ZNK9__gnu_cxx17__normal_iteratorIPN4cvc58internal12NodeTemplateILb1EEESt6vectorIS4_SaIS4_EEEdeEv = comdat any

$_ZNK4cvc58internal12NodeTemplateILb1EE7getTypeEb = comdat any

$_ZN9__gnu_cxx17__normal_iteratorIPN4cvc58internal12NodeTemplateILb1EEESt6vectorIS4_SaIS4_EEEppEv = comdat any

$_ZNKSt6vectorIN4cvc58internal12NodeTemplateILb1EEESaIS3_EE4sizeEv = comdat any

$_ZNSt6vectorIN4cvc58internal12NodeTemplateILb1EEESaIS3_EEixEm = comdat any

$_ZNK4cvc58internal12NodeTemplateILb1EE10substituteIN9__gnu_cxx17__normal_iteratorIPS2_St6vectorIS2_SaIS2_EEEESA_EES2_T_SB_T0_SC_ = comdat any

$_ZN4cvc58internal12NodeTemplateILb1EEaSERKS2_ = comdat any

$_ZN4cvc58internal11Cvc5ostreamlsIA9_cEERS1_RKT_ = comdat any

$_ZN4cvc58internal11Cvc5ostreamlsImEERS1_RKT_ = comdat any

$_ZNSt3mapIN4cvc58internal12NodeTemplateILb1EEES3_St4lessIS3_ESaISt4pairIKS3_S3_EEEC2Ev = comdat any

$_ZN4cvc58internal12NodeTemplateILb1EEC2ERKS2_ = comdat any

$_ZNSt3mapIN4cvc58internal12NodeTemplateILb1EEES3_St4lessIS3_ESaISt4pairIKS3_S3_EEEixERS7_ = comdat any

$_ZN4cvc58internal11Cvc5ostreamlsIA5_cEERS1_RKT_ = comdat any

$_ZNSt3mapIN4cvc58internal12NodeTemplateILb1EEES3_St4lessIS3_ESaISt4pairIKS3_S3_EEE4findERS7_ = comdat any

$_ZSteqRKSt17_Rb_tree_iteratorISt4pairIKN4cvc58internal12NodeTemplateILb1EEES4_EES9_ = comdat any

$_ZNSt3mapIN4cvc58internal12NodeTemplateILb1EEES3_St4lessIS3_ESaISt4pairIKS3_S3_EEE3endEv = comdat any

$_ZNSt3mapIN4cvc58internal8TypeNodeESt6vectorINS1_12NodeTemplateILb1EEESaIS5_EESt4lessIS2_ESaISt4pairIKS2_S7_EEEixEOS2_ = comdat any

$_ZN4cvc58internal11NodeManager6mkNodeILb1EEENS0_12NodeTemplateILb1EEENS0_4kind6Kind_tERKSt6vectorINS3_IXT_EEESaIS8_EE = comdat any

$_ZN4cvc58internal11Cvc5ostreamlsIA6_cEERS1_RKT_ = comdat any

$_ZN4cvc58internal11Cvc5ostreamlsIA21_cEERS1_RKT_ = comdat any

$_ZN4cvc58internal11Cvc5ostreamlsIA30_cEERS1_RKT_ = comdat any

$_ZNSt6vectorIN4cvc58internal13SygusDatatypeESaIS2_EEC2Ev = comdat any

$_ZNSt3mapIN4cvc58internal12NodeTemplateILb1EEENS1_8TypeNodeESt4lessIS3_ESaISt4pairIKS3_S4_EEEC2Ev = comdat any

$_ZNSt3mapIN4cvc58internal12NodeTemplateILb1EEENS1_8TypeNodeESt4lessIS3_ESaISt4pairIKS3_S4_EEEixERS8_ = comdat any

$_ZN4cvc58internal8TypeNodeaSERKS1_ = comdat any

$_ZNSt6vectorIN4cvc58internal13SygusDatatypeESaIS2_EE9push_backEOS2_ = comdat any

$_ZN4cvc58internal13SygusDatatypeD2Ev = comdat any

$_ZN4cvc58internal11Cvc5ostreamlsIA29_cEERS1_RKT_ = comdat any

$_ZNK4cvc58internal12NodeTemplateILb1EE7getKindEv = comdat any

$_ZStneRKSt17_Rb_tree_iteratorISt4pairIKN4cvc58internal8TypeNodeESt6vectorINS2_12NodeTemplateILb1EEESaIS7_EEEESD_ = comdat any

$_ZNSt3mapIN4cvc58internal8TypeNodeESt6vectorINS1_12NodeTemplateILb1EEESaIS5_EESt4lessIS2_ESaISt4pairIKS2_S7_EEE4findERSB_ = comdat any

$_ZNSt3mapIN4cvc58internal8TypeNodeESt6vectorINS1_12NodeTemplateILb1EEESaIS5_EESt4lessIS2_ESaISt4pairIKS2_S7_EEE3endEv = comdat any

$_ZN4cvc58internallsERSoNS0_12NodeTemplateILb0EEE = comdat any

$_ZNSt6vectorIN4cvc58internal13SygusDatatypeESaIS2_EEixEm = comdat any

$_ZNK4cvc58internal12NodeTemplateILb1EE5isVarEv = comdat any

$_ZNK4cvc58internal12NodeTemplateILb1EE14getNumChildrenEv = comdat any

$_ZNK4cvc58internal12NodeTemplateILb1EE11hasOperatorEv = comdat any

$_ZNK4cvc58internal12NodeTemplateILb1EE11getOperatorEv = comdat any

$_ZN4cvc58internal12NodeTemplateILb1EE5beginEv = comdat any

$_ZN4cvc58internal12NodeTemplateILb1EE3endEv = comdat any

$_ZNK4cvc58internal4expr9NodeValue8iteratorINS0_12NodeTemplateILb1EEEEneERKS6_ = comdat any

$_ZNK4cvc58internal4expr9NodeValue8iteratorINS0_12NodeTemplateILb1EEEEdeEv = comdat any

$_ZN4cvc58internal4expr9NodeValue8iteratorINS0_12NodeTemplateILb1EEEEppEv = comdat any

$_ZN4cvc58internal11NodeManager14operatorToKindENS0_12NodeTemplateILb0EEE = comdat any

$_ZNKSt6vectorIN4cvc58internal8TypeNodeESaIS2_EE4sizeEv = comdat any

$_ZNSt6vectorIN4cvc58internal8TypeNodeESaIS2_EE5beginEv = comdat any

$_ZNSt6vectorIN4cvc58internal8TypeNodeESaIS2_EE3endEv = comdat any

$_ZNSt3setIN4cvc58internal8TypeNodeESt4lessIS2_ESaIS2_EEC2IN9__gnu_cxx17__normal_iteratorIPS2_St6vectorIS2_S5_EEEEET_SE_ = comdat any

$_ZN4cvc58internal11NodeManager6mkNodeENS0_4kind6Kind_tENS0_12NodeTemplateILb0EEES5_ = comdat any

$_ZN4cvc58internal11NodeManager6mkNodeENS0_4kind6Kind_tENS0_12NodeTemplateILb0EEE = comdat any

$_ZNKSt3setIN4cvc58internal8TypeNodeESt4lessIS2_ESaIS2_EE5beginEv = comdat any

$_ZNKSt3setIN4cvc58internal8TypeNodeESt4lessIS2_ESaIS2_EE3endEv = comdat any

$_ZStneRKSt23_Rb_tree_const_iteratorIN4cvc58internal8TypeNodeEES5_ = comdat any

$_ZNKSt23_Rb_tree_const_iteratorIN4cvc58internal8TypeNodeEEdeEv = comdat any

$_ZNSt6vectorIN4cvc58internal8TypeNodeESaIS2_EE5clearEv = comdat any

$_ZN4cvc58internal11Cvc5ostreamlsIA20_cEERS1_RKT_ = comdat any

$_ZN4cvc58internal11Cvc5ostreamlsIA2_cEERS1_RKT_ = comdat any

$_ZNSt23_Rb_tree_const_iteratorIN4cvc58internal8TypeNodeEEppEv = comdat any

$_ZNSt3setIN4cvc58internal8TypeNodeESt4lessIS2_ESaIS2_EED2Ev = comdat any

$_ZN4cvc58internal11Cvc5ostreamlsIA43_cEERS1_RKT_ = comdat any

$_ZNSt6vectorIN4cvc58internal5DTypeESaIS2_EEC2Ev = comdat any

$_ZNKSt6vectorIN4cvc58internal13SygusDatatypeESaIS2_EE4sizeEv = comdat any

$_ZNSt6vectorIN4cvc58internal5DTypeESaIS2_EE9push_backERKS2_ = comdat any

$_ZNSt6vectorIN4cvc58internal8TypeNodeESaIS2_EEixEm = comdat any

$_ZN4cvc58internal11Cvc5ostreamlsIA33_cEERS1_RKT_ = comdat any

$_ZNSt3mapIN4cvc58internal8TypeNodeESt6vectorINS1_12NodeTemplateILb1EEESaIS5_EESt4lessIS2_ESaISt4pairIKS2_S7_EEE5beginEv = comdat any

$_ZNKSt17_Rb_tree_iteratorISt4pairIKN4cvc58internal8TypeNodeESt6vectorINS2_12NodeTemplateILb1EEESaIS7_EEEEdeEv = comdat any

$_ZN4cvc58internallsERSoRKNS0_8TypeNodeE = comdat any

$_ZN4cvc58internal11Cvc5ostreamlsIA11_cEERS1_RKT_ = comdat any

$_ZN4cvc58internal11Cvc5ostreamlsIA19_cEERS1_RKT_ = comdat any

$_ZN4cvc58internal11Cvc5ostreamlsINS0_5DTypeEEERS1_RKT_ = comdat any

$_ZN4cvc58internal5DTypeC2ERKS1_ = comdat any

$_ZNSt3mapIN4cvc58internal8TypeNodeES2_St4lessIS2_ESaISt4pairIKS2_S2_EEEixERS6_ = comdat any

$_ZN4cvc58internal11Cvc5ostreamlsINSt7__cxx1112basic_stringIcSt11char_traitsIcESaIcEEEEERS1_RKT_ = comdat any

$_ZNSt17_Rb_tree_iteratorISt4pairIKN4cvc58internal8TypeNodeESt6vectorINS2_12NodeTemplateILb1EEESaIS7_EEEEppEv = comdat any

$_ZNSt3mapIN4cvc58internal12NodeTemplateILb1EEENS1_8TypeNodeESt4lessIS3_ESaISt4pairIKS3_S4_EEED2Ev = comdat any

$_ZNSt6vectorIN4cvc58internal5DTypeESaIS2_EED2Ev = comdat any

$_ZNSt6vectorIN4cvc58internal13SygusDatatypeESaIS2_EED2Ev = comdat any

$_ZN4cvc58internal4expr12TermCanonizeD2Ev = comdat any

$_ZNSt3mapIN4cvc58internal8TypeNodeESt6vectorINS1_12NodeTemplateILb1EEESaIS5_EESt4lessIS2_ESaISt4pairIKS2_S7_EEED2Ev = comdat any

$_ZNSt6vectorIN4cvc58internal12NodeTemplateILb1EEESaIS3_EED2Ev = comdat any

$_ZNSt3mapIN4cvc58internal12NodeTemplateILb1EEES3_St4lessIS3_ESaISt4pairIKS3_S3_EEED2Ev = comdat any

$_ZNSt3mapIN4cvc58internal8TypeNodeEbSt4lessIS2_ESaISt4pairIKS2_bEEED2Ev = comdat any

$_ZNSt6vectorIN4cvc58internal12NodeTemplateILb0EEESaIS3_EED2Ev = comdat any

$_ZNSt13unordered_mapIN4cvc58internal12NodeTemplateILb0EEEbSt4hashIS3_ESt8equal_toIS3_ESaISt4pairIKS3_bEEED2Ev = comdat any

$_ZN4cvc58internal13preprocessing6passes17SynthRewRulesPassD2Ev = comdat any

$_ZN4cvc58internal13preprocessing6passes17SynthRewRulesPassD0Ev = comdat any

$_ZN4cvc58internal12NodeTemplateILb1EE6s_nullE = comdat any

$_ZN4cvc58internal4expr9NodeValue4nullEv = comdat any

$_ZN4cvc58internal12NodeTemplateILb1EEC2EPKNS0_4expr9NodeValueE = comdat any

$_ZNSt12_Vector_baseIN4cvc58internal8TypeNodeESaIS2_EEC2Ev = comdat any

$_ZNSt12_Vector_baseIN4cvc58internal8TypeNodeESaIS2_EE12_Vector_implC2Ev = comdat any

$_ZNSaIN4cvc58internal8TypeNodeEEC2Ev = comdat any

$_ZNSt12_Vector_baseIN4cvc58internal8TypeNodeESaIS2_EE17_Vector_impl_dataC2Ev = comdat any

$_ZNSt15__new_allocatorIN4cvc58internal8TypeNodeEEC2Ev = comdat any

$_ZNSt8_Rb_treeIN4cvc58internal8TypeNodeESt4pairIKS2_S2_ESt10_Select1stIS5_ESt4lessIS2_ESaIS5_EED2Ev = comdat any

$_ZNSt8_Rb_treeIN4cvc58internal8TypeNodeESt4pairIKS2_S2_ESt10_Select1stIS5_ESt4lessIS2_ESaIS5_EE8_M_eraseEPSt13_Rb_tree_nodeIS5_E = comdat any

$_ZNSt8_Rb_treeIN4cvc58internal8TypeNodeESt4pairIKS2_S2_ESt10_Select1stIS5_ESt4lessIS2_ESaIS5_EE8_M_beginEv = comdat any

$__clang_call_terminate = comdat any

$_ZNSt8_Rb_treeIN4cvc58internal8TypeNodeESt4pairIKS2_S2_ESt10_Select1stIS5_ESt4lessIS2_ESaIS5_EE13_Rb_tree_implIS9_Lb1EED2Ev = comdat any

$_ZNSt8_Rb_treeIN4cvc58internal8TypeNodeESt4pairIKS2_S2_ESt10_Select1stIS5_ESt4lessIS2_ESaIS5_EE8_S_rightEPSt18_Rb_tree_node_base = comdat any

$_ZNSt8_Rb_treeIN4cvc58internal8TypeNodeESt4pairIKS2_S2_ESt10_Select1stIS5_ESt4lessIS2_ESaIS5_EE7_S_leftEPSt18_Rb_tree_node_base = comdat any

$_ZNSt8_Rb_treeIN4cvc58internal8TypeNodeESt4pairIKS2_S2_ESt10_Select1stIS5_ESt4lessIS2_ESaIS5_EE12_M_drop_nodeEPSt13_Rb_tree_nodeIS5_E = comdat any

$_ZNSt8_Rb_treeIN4cvc58internal8TypeNodeESt4pairIKS2_S2_ESt10_Select1stIS5_ESt4lessIS2_ESaIS5_EE15_M_destroy_nodeEPSt13_Rb_tree_nodeIS5_E = comdat any

$_ZNSt8_Rb_treeIN4cvc58internal8TypeNodeESt4pairIKS2_S2_ESt10_Select1stIS5_ESt4lessIS2_ESaIS5_EE11_M_put_nodeEPSt13_Rb_tree_nodeIS5_E = comdat any

$_ZNSt16allocator_traitsISaISt13_Rb_tree_nodeISt4pairIKN4cvc58internal8TypeNodeES4_EEEE7destroyIS6_EEvRS8_PT_ = comdat any

$_ZNSt8_Rb_treeIN4cvc58internal8TypeNodeESt4pairIKS2_S2_ESt10_Select1stIS5_ESt4lessIS2_ESaIS5_EE21_M_get_Node_allocatorEv = comdat any

$_ZNSt13_Rb_tree_nodeISt4pairIKN4cvc58internal8TypeNodeES3_EE9_M_valptrEv = comdat any

$_ZNSt15__new_allocatorISt13_Rb_tree_nodeISt4pairIKN4cvc58internal8TypeNodeES4_EEE7destroyIS6_EEvPT_ = comdat any

$_ZN9__gnu_cxx16__aligned_membufISt4pairIKN4cvc58internal8TypeNodeES4_EE6_M_ptrEv = comdat any

$_ZN9__gnu_cxx16__aligned_membufISt4pairIKN4cvc58internal8TypeNodeES4_EE7_M_addrEv = comdat any

$_ZNSt16allocator_traitsISaISt13_Rb_tree_nodeISt4pairIKN4cvc58internal8TypeNodeES4_EEEE10deallocateERS8_PS7_m = comdat any

$_ZNSt15__new_allocatorISt13_Rb_tree_nodeISt4pairIKN4cvc58internal8TypeNodeES4_EEE10deallocateEPS7_m = comdat any

$_ZNKSt8_Rb_treeIN4cvc58internal8TypeNodeESt4pairIKS2_S2_ESt10_Select1stIS5_ESt4lessIS2_ESaIS5_EE9_M_mbeginEv = comdat any

$_ZNSaISt13_Rb_tree_nodeISt4pairIKN4cvc58internal8TypeNodeES3_EEED2Ev = comdat any

$_ZNSt15__new_allocatorISt13_Rb_tree_nodeISt4pairIKN4cvc58internal8TypeNodeES4_EEED2Ev = comdat any

$_ZNSt8_Rb_treeIN4cvc58internal8TypeNodeESt4pairIKS2_S2_ESt10_Select1stIS5_ESt4lessIS2_ESaIS5_EEC2Ev = comdat any

$_ZNSt8_Rb_treeIN4cvc58internal8TypeNodeESt4pairIKS2_S2_ESt10_Select1stIS5_ESt4lessIS2_ESaIS5_EE13_Rb_tree_implIS9_Lb1EEC2Ev = comdat any

$_ZNSaISt13_Rb_tree_nodeISt4pairIKN4cvc58internal8TypeNodeES3_EEEC2Ev = comdat any

$_ZNSt20_Rb_tree_key_compareISt4lessIN4cvc58internal8TypeNodeEEEC2Ev = comdat any

$_ZNSt15_Rb_tree_headerC2Ev = comdat any

$_ZNSt15__new_allocatorISt13_Rb_tree_nodeISt4pairIKN4cvc58internal8TypeNodeES4_EEEC2Ev = comdat any

$_ZNSt15_Rb_tree_header8_M_resetEv = comdat any

$_ZNSt10_HashtableIN4cvc58internal12NodeTemplateILb0EEESt4pairIKS3_bESaIS6_ENSt8__detail10_Select1stESt8equal_toIS3_ESt4hashIS3_ENS8_18_Mod_range_hashingENS8_20_Default_ranged_hashENS8_20_Prime_rehash_policyENS8_17_Hashtable_traitsILb1ELb0ELb1EEEEC2Ev = comdat any

$_ZNSt8__detail15_Hashtable_baseIN4cvc58internal12NodeTemplateILb0EEESt4pairIKS4_bENS_10_Select1stESt8equal_toIS4_ESt4hashIS4_ENS_18_Mod_range_hashingENS_20_Default_ranged_hashENS_17_Hashtable_traitsILb1ELb0ELb1EEEEC2Ev = comdat any

$_ZNSt8__detail16_Hashtable_allocISaINS_10_Hash_nodeISt4pairIKN4cvc58internal12NodeTemplateILb0EEEbELb1EEEEEC2Ev = comdat any

$_ZNSt8__detail15_Hash_node_baseC2Ev = comdat any

$_ZNSt8__detail20_Prime_rehash_policyC2Ef = comdat any

$_ZNSt8__detail15_Hash_code_baseIN4cvc58internal12NodeTemplateILb0EEESt4pairIKS4_bENS_10_Select1stESt4hashIS4_ENS_18_Mod_range_hashingENS_20_Default_ranged_hashELb1EEC2Ev = comdat any

$_ZNSt8__detail21_Hashtable_ebo_helperILi0ESt8equal_toIN4cvc58internal12NodeTemplateILb0EEEELb1EEC2Ev = comdat any

$_ZNSt8__detail21_Hashtable_ebo_helperILi1ESt4hashIN4cvc58internal12NodeTemplateILb0EEEELb1EEC2Ev = comdat any

$_ZNSt8__detail21_Hashtable_ebo_helperILi0ESaINS_10_Hash_nodeISt4pairIKN4cvc58internal12NodeTemplateILb0EEEbELb1EEEELb1EEC2Ev = comdat any

$_ZNSaINSt8__detail10_Hash_nodeISt4pairIKN4cvc58internal12NodeTemplateILb0EEEbELb1EEEEC2Ev = comdat any

$_ZNSt15__new_allocatorINSt8__detail10_Hash_nodeISt4pairIKN4cvc58internal12NodeTemplateILb0EEEbELb1EEEEC2Ev = comdat any

$_ZNSt8__detail19_Node_iterator_baseISt4pairIKN4cvc58internal12NodeTemplateILb0EEEbELb1EEC2Ev = comdat any

$_ZNSt12_Vector_baseIN4cvc58internal12NodeTemplateILb0EEESaIS3_EEC2Ev = comdat any

$_ZNSt12_Vector_baseIN4cvc58internal12NodeTemplateILb0EEESaIS3_EE12_Vector_implC2Ev = comdat any

$_ZNSaIN4cvc58internal12NodeTemplateILb0EEEEC2Ev = comdat any

$_ZNSt12_Vector_baseIN4cvc58internal12NodeTemplateILb0EEESaIS3_EE17_Vector_impl_dataC2Ev = comdat any

$_ZNSt15__new_allocatorIN4cvc58internal12NodeTemplateILb0EEEEC2Ev = comdat any

$_ZNSt12_Vector_baseIN4cvc58internal12NodeTemplateILb1EEESaIS3_EEC2Ev = comdat any

$_ZNSt12_Vector_baseIN4cvc58internal12NodeTemplateILb1EEESaIS3_EE12_Vector_implC2Ev = comdat any

$_ZNSaIN4cvc58internal12NodeTemplateILb1EEEEC2Ev = comdat any

$_ZNSt12_Vector_baseIN4cvc58internal12NodeTemplateILb1EEESaIS3_EE17_Vector_impl_dataC2Ev = comdat any

$_ZNSt15__new_allocatorIN4cvc58internal12NodeTemplateILb1EEEEC2Ev = comdat any

$_ZNSt8_Rb_treeIN4cvc58internal8TypeNodeESt4pairIKS2_bESt10_Select1stIS5_ESt4lessIS2_ESaIS5_EEC2Ev = comdat any

$_ZNSt8_Rb_treeIN4cvc58internal8TypeNodeESt4pairIKS2_bESt10_Select1stIS5_ESt4lessIS2_ESaIS5_EE13_Rb_tree_implIS9_Lb1EEC2Ev = comdat any

$_ZNSaISt13_Rb_tree_nodeISt4pairIKN4cvc58internal8TypeNodeEbEEEC2Ev = comdat any

$_ZNSt15__new_allocatorISt13_Rb_tree_nodeISt4pairIKN4cvc58internal8TypeNodeEbEEEC2Ev = comdat any

$_ZNSt8_Rb_treeIN4cvc58internal8TypeNodeESt4pairIKS2_St6vectorINS1_12NodeTemplateILb1EEESaIS7_EEESt10_Select1stISA_ESt4lessIS2_ESaISA_EEC2Ev = comdat any

$_ZNSt8_Rb_treeIN4cvc58internal8TypeNodeESt4pairIKS2_St6vectorINS1_12NodeTemplateILb1EEESaIS7_EEESt10_Select1stISA_ESt4lessIS2_ESaISA_EE13_Rb_tree_implISE_Lb1EEC2Ev = comdat any

$_ZNSaISt13_Rb_tree_nodeISt4pairIKN4cvc58internal8TypeNodeESt6vectorINS2_12NodeTemplateILb1EEESaIS7_EEEEEC2Ev = comdat any

$_ZNSt15__new_allocatorISt13_Rb_tree_nodeISt4pairIKN4cvc58internal8TypeNodeESt6vectorINS3_12NodeTemplateILb1EEESaIS8_EEEEEC2Ev = comdat any

$_ZN4cvc58internal11Cvc5ostreamC2Ev = comdat any

$_ZN4cvc58internal11Cvc5ostreamC2EPSo = comdat any

$_ZNK4cvc58internal8TypeNode7getKindEv = comdat any

$_ZNK4cvc58internal8TypeNode8getConstINS0_12TypeConstantEEERKT_v = comdat any

$_ZN4cvc58internal4expr9NodeValue3decEv = comdat any

$_ZN4cvc58internal4expr9NodeValue3incEv = comdat any

$_ZNSt8_Rb_treeIN4cvc58internal12NodeTemplateILb1EEESt4pairIKS3_S3_ESt10_Select1stIS6_ESt4lessIS3_ESaIS6_EEC2Ev = comdat any

$_ZNSt8_Rb_treeIN4cvc58internal12NodeTemplateILb1EEESt4pairIKS3_S3_ESt10_Select1stIS6_ESt4lessIS3_ESaIS6_EE13_Rb_tree_implISA_Lb1EEC2Ev = comdat any

$_ZNSaISt13_Rb_tree_nodeISt4pairIKN4cvc58internal12NodeTemplateILb1EEES4_EEEC2Ev = comdat any

$_ZNSt20_Rb_tree_key_compareISt4lessIN4cvc58internal12NodeTemplateILb1EEEEEC2Ev = comdat any

$_ZNSt15__new_allocatorISt13_Rb_tree_nodeISt4pairIKN4cvc58internal12NodeTemplateILb1EEES5_EEEC2Ev = comdat any

$_ZNSt12_Vector_baseIN4cvc58internal13SygusDatatypeESaIS2_EEC2Ev = comdat any

$_ZNSt12_Vector_baseIN4cvc58internal13SygusDatatypeESaIS2_EE12_Vector_implC2Ev = comdat any

$_ZNSaIN4cvc58internal13SygusDatatypeEEC2Ev = comdat any

$_ZNSt12_Vector_baseIN4cvc58internal13SygusDatatypeESaIS2_EE17_Vector_impl_dataC2Ev = comdat any

$_ZNSt15__new_allocatorIN4cvc58internal13SygusDatatypeEEC2Ev = comdat any

$_ZNSt8_Rb_treeIN4cvc58internal12NodeTemplateILb1EEESt4pairIKS3_NS1_8TypeNodeEESt10_Select1stIS7_ESt4lessIS3_ESaIS7_EEC2Ev = comdat any

$_ZNSt8_Rb_treeIN4cvc58internal12NodeTemplateILb1EEESt4pairIKS3_NS1_8TypeNodeEESt10_Select1stIS7_ESt4lessIS3_ESaIS7_EE13_Rb_tree_implISB_Lb1EEC2Ev = comdat any

$_ZNSaISt13_Rb_tree_nodeISt4pairIKN4cvc58internal12NodeTemplateILb1EEENS2_8TypeNodeEEEEC2Ev = comdat any

$_ZNSt15__new_allocatorISt13_Rb_tree_nodeISt4pairIKN4cvc58internal12NodeTemplateILb1EEENS3_8TypeNodeEEEEC2Ev = comdat any

$_ZNSt6vectorIN4cvc58internal24SygusDatatypeConstructorESaIS2_EED2Ev = comdat any

$_ZSt8_DestroyIPN4cvc58internal24SygusDatatypeConstructorES2_EvT_S4_RSaIT0_E = comdat any

$_ZNSt12_Vector_baseIN4cvc58internal24SygusDatatypeConstructorESaIS2_EE19_M_get_Tp_allocatorEv = comdat any

$_ZNSt12_Vector_baseIN4cvc58internal24SygusDatatypeConstructorESaIS2_EED2Ev = comdat any

$_ZSt8_DestroyIPN4cvc58internal24SygusDatatypeConstructorEEvT_S4_ = comdat any

$_ZNSt12_Destroy_auxILb0EE9__destroyIPN4cvc58internal24SygusDatatypeConstructorEEEvT_S6_ = comdat any

$_ZSt8_DestroyIN4cvc58internal24SygusDatatypeConstructorEEvPT_ = comdat any

$_ZN4cvc58internal24SygusDatatypeConstructorD2Ev = comdat any

$_ZNSt12_Vector_baseIN4cvc58internal24SygusDatatypeConstructorESaIS2_EE13_M_deallocateEPS2_m = comdat any

$_ZNSt12_Vector_baseIN4cvc58internal24SygusDatatypeConstructorESaIS2_EE12_Vector_implD2Ev = comdat any

$_ZNSt16allocator_traitsISaIN4cvc58internal24SygusDatatypeConstructorEEE10deallocateERS3_PS2_m = comdat any

$_ZNSt15__new_allocatorIN4cvc58internal24SygusDatatypeConstructorEE10deallocateEPS2_m = comdat any

$_ZNSt15__new_allocatorIN4cvc58internal24SygusDatatypeConstructorEED2Ev = comdat any

$_ZNK4cvc58internal12NodeTemplateILb0EE8toStreamERSo = comdat any

$_ZNK4cvc58internal12NodeTemplateILb0EE21assertTNodeNotExpiredEv = comdat any

$_ZN4cvc58internal12NodeTemplateILb0EEC2ERKS2_ = comdat any

$_ZNSt8_Rb_treeIN4cvc58internal8TypeNodeES2_St9_IdentityIS2_ESt4lessIS2_ESaIS2_EED2Ev = comdat any

$_ZNSt8_Rb_treeIN4cvc58internal8TypeNodeES2_St9_IdentityIS2_ESt4lessIS2_ESaIS2_EE8_M_eraseEPSt13_Rb_tree_nodeIS2_E = comdat any

$_ZNSt8_Rb_treeIN4cvc58internal8TypeNodeES2_St9_IdentityIS2_ESt4lessIS2_ESaIS2_EE8_M_beginEv = comdat any

$_ZNSt8_Rb_treeIN4cvc58internal8TypeNodeES2_St9_IdentityIS2_ESt4lessIS2_ESaIS2_EE13_Rb_tree_implIS6_Lb1EED2Ev = comdat any

$_ZNSt8_Rb_treeIN4cvc58internal8TypeNodeES2_St9_IdentityIS2_ESt4lessIS2_ESaIS2_EE8_S_rightEPSt18_Rb_tree_node_base = comdat any

$_ZNSt8_Rb_treeIN4cvc58internal8TypeNodeES2_St9_IdentityIS2_ESt4lessIS2_ESaIS2_EE7_S_leftEPSt18_Rb_tree_node_base = comdat any

$_ZNSt8_Rb_treeIN4cvc58internal8TypeNodeES2_St9_IdentityIS2_ESt4lessIS2_ESaIS2_EE12_M_drop_nodeEPSt13_Rb_tree_nodeIS2_E = comdat any

$_ZNSt8_Rb_treeIN4cvc58internal8TypeNodeES2_St9_IdentityIS2_ESt4lessIS2_ESaIS2_EE15_M_destroy_nodeEPSt13_Rb_tree_nodeIS2_E = comdat any

$_ZNSt8_Rb_treeIN4cvc58internal8TypeNodeES2_St9_IdentityIS2_ESt4lessIS2_ESaIS2_EE11_M_put_nodeEPSt13_Rb_tree_nodeIS2_E = comdat any

$_ZNSt16allocator_traitsISaISt13_Rb_tree_nodeIN4cvc58internal8TypeNodeEEEE7destroyIS3_EEvRS5_PT_ = comdat any

$_ZNSt8_Rb_treeIN4cvc58internal8TypeNodeES2_St9_IdentityIS2_ESt4lessIS2_ESaIS2_EE21_M_get_Node_allocatorEv = comdat any

$_ZNSt13_Rb_tree_nodeIN4cvc58internal8TypeNodeEE9_M_valptrEv = comdat any

$_ZNSt15__new_allocatorISt13_Rb_tree_nodeIN4cvc58internal8TypeNodeEEE7destroyIS3_EEvPT_ = comdat any

$_ZN9__gnu_cxx16__aligned_membufIN4cvc58internal8TypeNodeEE6_M_ptrEv = comdat any

$_ZN9__gnu_cxx16__aligned_membufIN4cvc58internal8TypeNodeEE7_M_addrEv = comdat any

$_ZNSt16allocator_traitsISaISt13_Rb_tree_nodeIN4cvc58internal8TypeNodeEEEE10deallocateERS5_PS4_m = comdat any

$_ZNSt15__new_allocatorISt13_Rb_tree_nodeIN4cvc58internal8TypeNodeEEE10deallocateEPS4_m = comdat any

$_ZNKSt8_Rb_treeIN4cvc58internal8TypeNodeES2_St9_IdentityIS2_ESt4lessIS2_ESaIS2_EE9_M_mbeginEv = comdat any

$_ZNSaISt13_Rb_tree_nodeIN4cvc58internal8TypeNodeEEED2Ev = comdat any

$_ZNSt15__new_allocatorISt13_Rb_tree_nodeIN4cvc58internal8TypeNodeEEED2Ev = comdat any

$_ZNSt12_Vector_baseIN4cvc58internal5DTypeESaIS2_EEC2Ev = comdat any

$_ZNSt12_Vector_baseIN4cvc58internal5DTypeESaIS2_EE12_Vector_implC2Ev = comdat any

$_ZNSaIN4cvc58internal5DTypeEEC2Ev = comdat any

$_ZNSt12_Vector_baseIN4cvc58internal5DTypeESaIS2_EE17_Vector_impl_dataC2Ev = comdat any

$_ZNSt15__new_allocatorIN4cvc58internal5DTypeEEC2Ev = comdat any

$_ZNK4cvc58internal8TypeNode8toStreamERSo = comdat any

$_ZNSt6vectorIN4cvc58internal8TypeNodeESaIS2_EEC2ERKS4_ = comdat any

$_ZNSt6vectorISt10shared_ptrIN4cvc58internal16DTypeConstructorEESaIS4_EEC2ERKS6_ = comdat any

$_ZN4cvc58internal11CardinalityC2ERKS1_ = comdat any

$_ZNSt3mapIN4cvc58internal8TypeNodeEiSt4lessIS2_ESaISt4pairIKS2_iEEEC2ERKS9_ = comdat any

$_ZNSt3mapIN4cvc58internal8TypeNodeESt6vectorIS2_SaIS2_EESt4lessIS2_ESaISt4pairIKS2_S5_EEEC2ERKSC_ = comdat any

$_ZNSt3mapIN4cvc58internal8TypeNodeENS1_12NodeTemplateILb1EEESt4lessIS2_ESaISt4pairIKS2_S4_EEEC2ERKSB_ = comdat any

$_ZNSt3mapIN4cvc58internal8TypeNodeES_IS2_S_IjNS1_12NodeTemplateILb1EEESt4lessIjESaISt4pairIKjS4_EEES5_IS2_ESaIS7_IKS2_SB_EEESC_SaIS7_ISD_SG_EEEC2ERKSJ_ = comdat any

$_ZNSt3mapIN4cvc58internal8TypeNodeENS1_16CardinalityClassESt4lessIS2_ESaISt4pairIKS2_S3_EEEC2ERKSA_ = comdat any

$_ZNSt3mapIN4cvc58internal8TypeNodeES_IS2_S_IjNS1_12NodeTemplateILb1EEESt4lessIjESaISt4pairIKjS4_EEES5_IS2_ESaIS7_IKS2_SB_EEESC_SaIS7_ISD_SG_EEED2Ev = comdat any

$_ZNSt3mapIN4cvc58internal8TypeNodeENS1_12NodeTemplateILb1EEESt4lessIS2_ESaISt4pairIKS2_S4_EEED2Ev = comdat any

$_ZNSt3mapIN4cvc58internal8TypeNodeESt6vectorIS2_SaIS2_EESt4lessIS2_ESaISt4pairIKS2_S5_EEED2Ev = comdat any

$_ZNSt3mapIN4cvc58internal8TypeNodeEiSt4lessIS2_ESaISt4pairIKS2_iEEED2Ev = comdat any

$_ZN4cvc58internal11CardinalityD2Ev = comdat any

$_ZNSt6vectorISt10shared_ptrIN4cvc58internal16DTypeConstructorEESaIS4_EED2Ev = comdat any

$_ZN9__gnu_cxx14__alloc_traitsISaIN4cvc58internal8TypeNodeEES3_E17_S_select_on_copyERKS4_ = comdat any

$_ZNKSt12_Vector_baseIN4cvc58internal8TypeNodeESaIS2_EE19_M_get_Tp_allocatorEv = comdat any

$_ZNSt12_Vector_baseIN4cvc58internal8TypeNodeESaIS2_EEC2EmRKS3_ = comdat any

$_ZNSaIN4cvc58internal8TypeNodeEED2Ev = comdat any

$_ZSt22__uninitialized_copy_aIN9__gnu_cxx17__normal_iteratorIPKN4cvc58internal8TypeNodeESt6vectorIS4_SaIS4_EEEEPS4_S4_ET0_T_SD_SC_RSaIT1_E = comdat any

$_ZNKSt6vectorIN4cvc58internal8TypeNodeESaIS2_EE5beginEv = comdat any

$_ZNKSt6vectorIN4cvc58internal8TypeNodeESaIS2_EE3endEv = comdat any

$_ZNSt12_Vector_baseIN4cvc58internal8TypeNodeESaIS2_EE19_M_get_Tp_allocatorEv = comdat any

$_ZNSt12_Vector_baseIN4cvc58internal8TypeNodeESaIS2_EED2Ev = comdat any

$_ZNSt16allocator_traitsISaIN4cvc58internal8TypeNodeEEE37select_on_container_copy_constructionERKS3_ = comdat any

$_ZNSaIN4cvc58internal8TypeNodeEEC2ERKS2_ = comdat any

$_ZNSt15__new_allocatorIN4cvc58internal8TypeNodeEEC2ERKS3_ = comdat any

$_ZNSt12_Vector_baseIN4cvc58internal8TypeNodeESaIS2_EE12_Vector_implC2ERKS3_ = comdat any

$_ZNSt12_Vector_baseIN4cvc58internal8TypeNodeESaIS2_EE17_M_create_storageEm = comdat any

$_ZNSt12_Vector_baseIN4cvc58internal8TypeNodeESaIS2_EE12_Vector_implD2Ev = comdat any

$_ZNSt12_Vector_baseIN4cvc58internal8TypeNodeESaIS2_EE11_M_allocateEm = comdat any

$_ZNSt16allocator_traitsISaIN4cvc58internal8TypeNodeEEE8allocateERS3_m = comdat any

$_ZNSt15__new_allocatorIN4cvc58internal8TypeNodeEE8allocateEmPKv = comdat any

$_ZNKSt15__new_allocatorIN4cvc58internal8TypeNodeEE11_M_max_sizeEv = comdat any

$_ZNSt15__new_allocatorIN4cvc58internal8TypeNodeEED2Ev = comdat any

$_ZSt18uninitialized_copyIN9__gnu_cxx17__normal_iteratorIPKN4cvc58internal8TypeNodeESt6vectorIS4_SaIS4_EEEEPS4_ET0_T_SD_SC_ = comdat any

$_ZNSt20__uninitialized_copyILb0EE13__uninit_copyIN9__gnu_cxx17__normal_iteratorIPKN4cvc58internal8TypeNodeESt6vectorIS6_SaIS6_EEEEPS6_EET0_T_SF_SE_ = comdat any

$_ZSt16__do_uninit_copyIN9__gnu_cxx17__normal_iteratorIPKN4cvc58internal8TypeNodeESt6vectorIS4_SaIS4_EEEEPS4_ET0_T_SD_SC_ = comdat any

$_ZN9__gnu_cxxneIPKN4cvc58internal8TypeNodeESt6vectorIS3_SaIS3_EEEEbRKNS_17__normal_iteratorIT_T0_EESE_ = comdat any

$_ZSt10_ConstructIN4cvc58internal8TypeNodeEJRKS2_EEvPT_DpOT0_ = comdat any

$_ZNK9__gnu_cxx17__normal_iteratorIPKN4cvc58internal8TypeNodeESt6vectorIS3_SaIS3_EEEdeEv = comdat any

$_ZN9__gnu_cxx17__normal_iteratorIPKN4cvc58internal8TypeNodeESt6vectorIS3_SaIS3_EEEppEv = comdat any

$_ZSt8_DestroyIPN4cvc58internal8TypeNodeEEvT_S4_ = comdat any

$_ZNK9__gnu_cxx17__normal_iteratorIPKN4cvc58internal8TypeNodeESt6vectorIS3_SaIS3_EEE4baseEv = comdat any

$_ZNSt12_Destroy_auxILb0EE9__destroyIPN4cvc58internal8TypeNodeEEEvT_S6_ = comdat any

$_ZSt8_DestroyIN4cvc58internal8TypeNodeEEvPT_ = comdat any

$_ZN9__gnu_cxx17__normal_iteratorIPKN4cvc58internal8TypeNodeESt6vectorIS3_SaIS3_EEEC2ERKS5_ = comdat any

$_ZNSt12_Vector_baseIN4cvc58internal8TypeNodeESaIS2_EE13_M_deallocateEPS2_m = comdat any

$_ZNSt16allocator_traitsISaIN4cvc58internal8TypeNodeEEE10deallocateERS3_PS2_m = comdat any

$_ZNSt15__new_allocatorIN4cvc58internal8TypeNodeEE10deallocateEPS2_m = comdat any

$_ZNKSt6vectorISt10shared_ptrIN4cvc58internal16DTypeConstructorEESaIS4_EE4sizeEv = comdat any

$_ZN9__gnu_cxx14__alloc_traitsISaISt10shared_ptrIN4cvc58internal16DTypeConstructorEEES5_E17_S_select_on_copyERKS6_ = comdat any

$_ZNKSt12_Vector_baseISt10shared_ptrIN4cvc58internal16DTypeConstructorEESaIS4_EE19_M_get_Tp_allocatorEv = comdat any

$_ZNSt12_Vector_baseISt10shared_ptrIN4cvc58internal16DTypeConstructorEESaIS4_EEC2EmRKS5_ = comdat any

$_ZNSaISt10shared_ptrIN4cvc58internal16DTypeConstructorEEED2Ev = comdat any

$_ZSt22__uninitialized_copy_aIN9__gnu_cxx17__normal_iteratorIPKSt10shared_ptrIN4cvc58internal16DTypeConstructorEESt6vectorIS6_SaIS6_EEEEPS6_S6_ET0_T_SF_SE_RSaIT1_E = comdat any

$_ZNKSt6vectorISt10shared_ptrIN4cvc58internal16DTypeConstructorEESaIS4_EE5beginEv = comdat any

$_ZNKSt6vectorISt10shared_ptrIN4cvc58internal16DTypeConstructorEESaIS4_EE3endEv = comdat any

$_ZNSt12_Vector_baseISt10shared_ptrIN4cvc58internal16DTypeConstructorEESaIS4_EE19_M_get_Tp_allocatorEv = comdat any

$_ZNSt12_Vector_baseISt10shared_ptrIN4cvc58internal16DTypeConstructorEESaIS4_EED2Ev = comdat any

$_ZNSt16allocator_traitsISaISt10shared_ptrIN4cvc58internal16DTypeConstructorEEEE37select_on_container_copy_constructionERKS5_ = comdat any

$_ZNSaISt10shared_ptrIN4cvc58internal16DTypeConstructorEEEC2ERKS4_ = comdat any

$_ZNSt15__new_allocatorISt10shared_ptrIN4cvc58internal16DTypeConstructorEEEC2ERKS5_ = comdat any

$_ZNSt12_Vector_baseISt10shared_ptrIN4cvc58internal16DTypeConstructorEESaIS4_EE12_Vector_implC2ERKS5_ = comdat any

$_ZNSt12_Vector_baseISt10shared_ptrIN4cvc58internal16DTypeConstructorEESaIS4_EE17_M_create_storageEm = comdat any

$_ZNSt12_Vector_baseISt10shared_ptrIN4cvc58internal16DTypeConstructorEESaIS4_EE12_Vector_implD2Ev = comdat any

$_ZNSt12_Vector_baseISt10shared_ptrIN4cvc58internal16DTypeConstructorEESaIS4_EE17_Vector_impl_dataC2Ev = comdat any

$_ZNSt12_Vector_baseISt10shared_ptrIN4cvc58internal16DTypeConstructorEESaIS4_EE11_M_allocateEm = comdat any

$_ZNSt16allocator_traitsISaISt10shared_ptrIN4cvc58internal16DTypeConstructorEEEE8allocateERS5_m = comdat any

$_ZNSt15__new_allocatorISt10shared_ptrIN4cvc58internal16DTypeConstructorEEE8allocateEmPKv = comdat any

$_ZNKSt15__new_allocatorISt10shared_ptrIN4cvc58internal16DTypeConstructorEEE11_M_max_sizeEv = comdat any

$_ZNSt15__new_allocatorISt10shared_ptrIN4cvc58internal16DTypeConstructorEEED2Ev = comdat any

$_ZSt18uninitialized_copyIN9__gnu_cxx17__normal_iteratorIPKSt10shared_ptrIN4cvc58internal16DTypeConstructorEESt6vectorIS6_SaIS6_EEEEPS6_ET0_T_SF_SE_ = comdat any

$_ZNSt20__uninitialized_copyILb0EE13__uninit_copyIN9__gnu_cxx17__normal_iteratorIPKSt10shared_ptrIN4cvc58internal16DTypeConstructorEESt6vectorIS8_SaIS8_EEEEPS8_EET0_T_SH_SG_ = comdat any

$_ZSt16__do_uninit_copyIN9__gnu_cxx17__normal_iteratorIPKSt10shared_ptrIN4cvc58internal16DTypeConstructorEESt6vectorIS6_SaIS6_EEEEPS6_ET0_T_SF_SE_ = comdat any

$_ZN9__gnu_cxxneIPKSt10shared_ptrIN4cvc58internal16DTypeConstructorEESt6vectorIS5_SaIS5_EEEEbRKNS_17__normal_iteratorIT_T0_EESG_ = comdat any

$_ZSt10_ConstructISt10shared_ptrIN4cvc58internal16DTypeConstructorEEJRKS4_EEvPT_DpOT0_ = comdat any

$_ZNK9__gnu_cxx17__normal_iteratorIPKSt10shared_ptrIN4cvc58internal16DTypeConstructorEESt6vectorIS5_SaIS5_EEEdeEv = comdat any

$_ZN9__gnu_cxx17__normal_iteratorIPKSt10shared_ptrIN4cvc58internal16DTypeConstructorEESt6vectorIS5_SaIS5_EEEppEv = comdat any

$_ZSt8_DestroyIPSt10shared_ptrIN4cvc58internal16DTypeConstructorEEEvT_S6_ = comdat any

$_ZNK9__gnu_cxx17__normal_iteratorIPKSt10shared_ptrIN4cvc58internal16DTypeConstructorEESt6vectorIS5_SaIS5_EEE4baseEv = comdat any

$_ZNSt10shared_ptrIN4cvc58internal16DTypeConstructorEEC2ERKS3_ = comdat any

$_ZNSt12__shared_ptrIN4cvc58internal16DTypeConstructorELN9__gnu_cxx12_Lock_policyE2EEC2ERKS5_ = comdat any

$_ZNSt14__shared_countILN9__gnu_cxx12_Lock_policyE2EEC2ERKS2_ = comdat any

$_ZNSt16_Sp_counted_baseILN9__gnu_cxx12_Lock_policyE2EE15_M_add_ref_copyEv = comdat any

$_ZNSt12_Destroy_auxILb0EE9__destroyIPSt10shared_ptrIN4cvc58internal16DTypeConstructorEEEEvT_S8_ = comdat any

$_ZSt8_DestroyISt10shared_ptrIN4cvc58internal16DTypeConstructorEEEvPT_ = comdat any

$_ZNSt10shared_ptrIN4cvc58internal16DTypeConstructorEED2Ev = comdat any

$_ZNSt12__shared_ptrIN4cvc58internal16DTypeConstructorELN9__gnu_cxx12_Lock_policyE2EED2Ev = comdat any

$_ZNSt14__shared_countILN9__gnu_cxx12_Lock_policyE2EED2Ev = comdat any

$_ZNSt16_Sp_counted_baseILN9__gnu_cxx12_Lock_policyE2EE10_M_releaseEv = comdat any

$_ZNSt16_Sp_counted_baseILN9__gnu_cxx12_Lock_policyE2EE24_M_release_last_use_coldEv = comdat any

$_ZNSt16_Sp_counted_baseILN9__gnu_cxx12_Lock_policyE2EE19_M_release_last_useEv = comdat any

$_ZN9__gnu_cxx17__normal_iteratorIPKSt10shared_ptrIN4cvc58internal16DTypeConstructorEESt6vectorIS5_SaIS5_EEEC2ERKS7_ = comdat any

$_ZNSt12_Vector_baseISt10shared_ptrIN4cvc58internal16DTypeConstructorEESaIS4_EE13_M_deallocateEPS4_m = comdat any

$_ZNSt16allocator_traitsISaISt10shared_ptrIN4cvc58internal16DTypeConstructorEEEE10deallocateERS5_PS4_m = comdat any

$_ZNSt15__new_allocatorISt10shared_ptrIN4cvc58internal16DTypeConstructorEEE10deallocateEPS4_m = comdat any

$_ZN4cvc58internal7IntegerC2ERKS1_ = comdat any

$_ZN10__gmp_exprIA1_12__mpz_structS1_EC2ERKS2_ = comdat any

$_ZNSt8_Rb_treeIN4cvc58internal8TypeNodeESt4pairIKS2_iESt10_Select1stIS5_ESt4lessIS2_ESaIS5_EEC2ERKSB_ = comdat any

$_ZNSt8_Rb_treeIN4cvc58internal8TypeNodeESt4pairIKS2_iESt10_Select1stIS5_ESt4lessIS2_ESaIS5_EE13_Rb_tree_implIS9_Lb1EEC2ERKSD_ = comdat any

$_ZNKSt8_Rb_treeIN4cvc58internal8TypeNodeESt4pairIKS2_iESt10_Select1stIS5_ESt4lessIS2_ESaIS5_EE7_M_rootEv = comdat any

$_ZNSt8_Rb_treeIN4cvc58internal8TypeNodeESt4pairIKS2_iESt10_Select1stIS5_ESt4lessIS2_ESaIS5_EE7_M_copyERKSB_ = comdat any

$_ZNSt8_Rb_treeIN4cvc58internal8TypeNodeESt4pairIKS2_iESt10_Select1stIS5_ESt4lessIS2_ESaIS5_EE7_M_rootEv = comdat any

$_ZNSt8_Rb_treeIN4cvc58internal8TypeNodeESt4pairIKS2_iESt10_Select1stIS5_ESt4lessIS2_ESaIS5_EE13_Rb_tree_implIS9_Lb1EED2Ev = comdat any

$_ZN9__gnu_cxx14__alloc_traitsISaISt13_Rb_tree_nodeISt4pairIKN4cvc58internal8TypeNodeEiEEES8_E17_S_select_on_copyERKS9_ = comdat any

$_ZNSaISt13_Rb_tree_nodeISt4pairIKN4cvc58internal8TypeNodeEiEEED2Ev = comdat any

$_ZNSt20_Rb_tree_key_compareISt4lessIN4cvc58internal8TypeNodeEEEC2ERKS4_ = comdat any

$_ZNSt16allocator_traitsISaISt13_Rb_tree_nodeISt4pairIKN4cvc58internal8TypeNodeEiEEEE37select_on_container_copy_constructionERKS8_ = comdat any

$_ZNSaISt13_Rb_tree_nodeISt4pairIKN4cvc58internal8TypeNodeEiEEEC2ERKS7_ = comdat any

$_ZNSt15__new_allocatorISt13_Rb_tree_nodeISt4pairIKN4cvc58internal8TypeNodeEiEEEC2ERKS8_ = comdat any

$_ZNSt15__new_allocatorISt13_Rb_tree_nodeISt4pairIKN4cvc58internal8TypeNodeEiEEED2Ev = comdat any

$_ZNSt8_Rb_treeIN4cvc58internal8TypeNodeESt4pairIKS2_iESt10_Select1stIS5_ESt4lessIS2_ESaIS5_EE11_Alloc_nodeC2ERSB_ = comdat any

$_ZNSt8_Rb_treeIN4cvc58internal8TypeNodeESt4pairIKS2_iESt10_Select1stIS5_ESt4lessIS2_ESaIS5_EE7_M_copyILb0ENSB_11_Alloc_nodeEEEPSt13_Rb_tree_nodeIS5_ERKSB_RT0_ = comdat any

$_ZNSt8_Rb_treeIN4cvc58internal8TypeNodeESt4pairIKS2_iESt10_Select1stIS5_ESt4lessIS2_ESaIS5_EE7_M_copyILb0ENSB_11_Alloc_nodeEEEPSt13_Rb_tree_nodeIS5_ESG_PSt18_Rb_tree_node_baseRT0_ = comdat any

$_ZNKSt8_Rb_treeIN4cvc58internal8TypeNodeESt4pairIKS2_iESt10_Select1stIS5_ESt4lessIS2_ESaIS5_EE9_M_mbeginEv = comdat any

$_ZNSt8_Rb_treeIN4cvc58internal8TypeNodeESt4pairIKS2_iESt10_Select1stIS5_ESt4lessIS2_ESaIS5_EE6_M_endEv = comdat any

$_ZNSt8_Rb_treeIN4cvc58internal8TypeNodeESt4pairIKS2_iESt10_Select1stIS5_ESt4lessIS2_ESaIS5_EE10_S_minimumEPSt18_Rb_tree_node_base = comdat any

$_ZNSt8_Rb_treeIN4cvc58internal8TypeNodeESt4pairIKS2_iESt10_Select1stIS5_ESt4lessIS2_ESaIS5_EE11_M_leftmostEv = comdat any

$_ZNSt8_Rb_treeIN4cvc58internal8TypeNodeESt4pairIKS2_iESt10_Select1stIS5_ESt4lessIS2_ESaIS5_EE10_S_maximumEPSt18_Rb_tree_node_base = comdat any

$_ZNSt8_Rb_treeIN4cvc58internal8TypeNodeESt4pairIKS2_iESt10_Select1stIS5_ESt4lessIS2_ESaIS5_EE12_M_rightmostEv = comdat any

$_ZNSt8_Rb_treeIN4cvc58internal8TypeNodeESt4pairIKS2_iESt10_Select1stIS5_ESt4lessIS2_ESaIS5_EE13_M_clone_nodeILb0ENSB_11_Alloc_nodeEEEPSt13_Rb_tree_nodeIS5_ESG_RT0_ = comdat any

$_ZNSt8_Rb_treeIN4cvc58internal8TypeNodeESt4pairIKS2_iESt10_Select1stIS5_ESt4lessIS2_ESaIS5_EE8_S_rightEPSt18_Rb_tree_node_base = comdat any

$_ZNSt8_Rb_treeIN4cvc58internal8TypeNodeESt4pairIKS2_iESt10_Select1stIS5_ESt4lessIS2_ESaIS5_EE7_S_leftEPSt18_Rb_tree_node_base = comdat any

$_ZNSt8_Rb_treeIN4cvc58internal8TypeNodeESt4pairIKS2_iESt10_Select1stIS5_ESt4lessIS2_ESaIS5_EE8_M_eraseEPSt13_Rb_tree_nodeIS5_E = comdat any

$_ZNKSt8_Rb_treeIN4cvc58internal8TypeNodeESt4pairIKS2_iESt10_Select1stIS5_ESt4lessIS2_ESaIS5_EE11_Alloc_nodeclIRKS5_EEPSt13_Rb_tree_nodeIS5_EOT_ = comdat any

$_ZNSt13_Rb_tree_nodeISt4pairIKN4cvc58internal8TypeNodeEiEE9_M_valptrEv = comdat any

$_ZNSt8_Rb_treeIN4cvc58internal8TypeNodeESt4pairIKS2_iESt10_Select1stIS5_ESt4lessIS2_ESaIS5_EE14_M_create_nodeIJRKS5_EEEPSt13_Rb_tree_nodeIS5_EDpOT_ = comdat any

$_ZNSt8_Rb_treeIN4cvc58internal8TypeNodeESt4pairIKS2_iESt10_Select1stIS5_ESt4lessIS2_ESaIS5_EE11_M_get_nodeEv = comdat any

$_ZNSt8_Rb_treeIN4cvc58internal8TypeNodeESt4pairIKS2_iESt10_Select1stIS5_ESt4lessIS2_ESaIS5_EE17_M_construct_nodeIJRKS5_EEEvPSt13_Rb_tree_nodeIS5_EDpOT_ = comdat any

$_ZNSt16allocator_traitsISaISt13_Rb_tree_nodeISt4pairIKN4cvc58internal8TypeNodeEiEEEE8allocateERS8_m = comdat any

$_ZNSt8_Rb_treeIN4cvc58internal8TypeNodeESt4pairIKS2_iESt10_Select1stIS5_ESt4lessIS2_ESaIS5_EE21_M_get_Node_allocatorEv = comdat any

$_ZNSt15__new_allocatorISt13_Rb_tree_nodeISt4pairIKN4cvc58internal8TypeNodeEiEEE8allocateEmPKv = comdat any

$_ZNKSt15__new_allocatorISt13_Rb_tree_nodeISt4pairIKN4cvc58internal8TypeNodeEiEEE11_M_max_sizeEv = comdat any

$_ZNSt16allocator_traitsISaISt13_Rb_tree_nodeISt4pairIKN4cvc58internal8TypeNodeEiEEEE9constructIS6_JRKS6_EEEvRS8_PT_DpOT0_ = comdat any

$_ZNSt8_Rb_treeIN4cvc58internal8TypeNodeESt4pairIKS2_iESt10_Select1stIS5_ESt4lessIS2_ESaIS5_EE11_M_put_nodeEPSt13_Rb_tree_nodeIS5_E = comdat any

$_ZNSt15__new_allocatorISt13_Rb_tree_nodeISt4pairIKN4cvc58internal8TypeNodeEiEEE9constructIS6_JRKS6_EEEvPT_DpOT0_ = comdat any

$_ZNSt4pairIKN4cvc58internal8TypeNodeEiEC2ERKS4_ = comdat any

$_ZNSt16allocator_traitsISaISt13_Rb_tree_nodeISt4pairIKN4cvc58internal8TypeNodeEiEEEE10deallocateERS8_PS7_m = comdat any

$_ZNSt15__new_allocatorISt13_Rb_tree_nodeISt4pairIKN4cvc58internal8TypeNodeEiEEE10deallocateEPS7_m = comdat any

$_ZN9__gnu_cxx16__aligned_membufISt4pairIKN4cvc58internal8TypeNodeEiEE6_M_ptrEv = comdat any

$_ZN9__gnu_cxx16__aligned_membufISt4pairIKN4cvc58internal8TypeNodeEiEE7_M_addrEv = comdat any

$_ZNSt8_Rb_treeIN4cvc58internal8TypeNodeESt4pairIKS2_iESt10_Select1stIS5_ESt4lessIS2_ESaIS5_EE12_M_drop_nodeEPSt13_Rb_tree_nodeIS5_E = comdat any

$_ZNSt8_Rb_treeIN4cvc58internal8TypeNodeESt4pairIKS2_iESt10_Select1stIS5_ESt4lessIS2_ESaIS5_EE15_M_destroy_nodeEPSt13_Rb_tree_nodeIS5_E = comdat any

$_ZNSt16allocator_traitsISaISt13_Rb_tree_nodeISt4pairIKN4cvc58internal8TypeNodeEiEEEE7destroyIS6_EEvRS8_PT_ = comdat any

$_ZNSt15__new_allocatorISt13_Rb_tree_nodeISt4pairIKN4cvc58internal8TypeNodeEiEEE7destroyIS6_EEvPT_ = comdat any

$_ZNSt4pairIKN4cvc58internal8TypeNodeEiED2Ev = comdat any

$_ZNSt18_Rb_tree_node_base10_S_minimumEPS_ = comdat any

$_ZNSt18_Rb_tree_node_base10_S_maximumEPS_ = comdat any

$_ZNSt8_Rb_treeIN4cvc58internal8TypeNodeESt4pairIKS2_St6vectorIS2_SaIS2_EEESt10_Select1stIS8_ESt4lessIS2_ESaIS8_EEC2ERKSE_ = comdat any

$_ZNSt8_Rb_treeIN4cvc58internal8TypeNodeESt4pairIKS2_St6vectorIS2_SaIS2_EEESt10_Select1stIS8_ESt4lessIS2_ESaIS8_EE13_Rb_tree_implISC_Lb1EEC2ERKSG_ = comdat any

$_ZNKSt8_Rb_treeIN4cvc58internal8TypeNodeESt4pairIKS2_St6vectorIS2_SaIS2_EEESt10_Select1stIS8_ESt4lessIS2_ESaIS8_EE7_M_rootEv = comdat any

$_ZNSt8_Rb_treeIN4cvc58internal8TypeNodeESt4pairIKS2_St6vectorIS2_SaIS2_EEESt10_Select1stIS8_ESt4lessIS2_ESaIS8_EE7_M_copyERKSE_ = comdat any

$_ZNSt8_Rb_treeIN4cvc58internal8TypeNodeESt4pairIKS2_St6vectorIS2_SaIS2_EEESt10_Select1stIS8_ESt4lessIS2_ESaIS8_EE7_M_rootEv = comdat any

$_ZNSt8_Rb_treeIN4cvc58internal8TypeNodeESt4pairIKS2_St6vectorIS2_SaIS2_EEESt10_Select1stIS8_ESt4lessIS2_ESaIS8_EE13_Rb_tree_implISC_Lb1EED2Ev = comdat any

$_ZN9__gnu_cxx14__alloc_traitsISaISt13_Rb_tree_nodeISt4pairIKN4cvc58internal8TypeNodeESt6vectorIS5_SaIS5_EEEEESB_E17_S_select_on_copyERKSC_ = comdat any

$_ZNSaISt13_Rb_tree_nodeISt4pairIKN4cvc58internal8TypeNodeESt6vectorIS3_SaIS3_EEEEED2Ev = comdat any

$_ZNSt16allocator_traitsISaISt13_Rb_tree_nodeISt4pairIKN4cvc58internal8TypeNodeESt6vectorIS4_SaIS4_EEEEEE37select_on_container_copy_constructionERKSB_ = comdat any

$_ZNSaISt13_Rb_tree_nodeISt4pairIKN4cvc58internal8TypeNodeESt6vectorIS3_SaIS3_EEEEEC2ERKSA_ = comdat any

$_ZNSt15__new_allocatorISt13_Rb_tree_nodeISt4pairIKN4cvc58internal8TypeNodeESt6vectorIS4_SaIS4_EEEEEC2ERKSB_ = comdat any

$_ZNSt15__new_allocatorISt13_Rb_tree_nodeISt4pairIKN4cvc58internal8TypeNodeESt6vectorIS4_SaIS4_EEEEED2Ev = comdat any

$_ZNSt8_Rb_treeIN4cvc58internal8TypeNodeESt4pairIKS2_St6vectorIS2_SaIS2_EEESt10_Select1stIS8_ESt4lessIS2_ESaIS8_EE11_Alloc_nodeC2ERSE_ = comdat any

$_ZNSt8_Rb_treeIN4cvc58internal8TypeNodeESt4pairIKS2_St6vectorIS2_SaIS2_EEESt10_Select1stIS8_ESt4lessIS2_ESaIS8_EE7_M_copyILb0ENSE_11_Alloc_nodeEEEPSt13_Rb_tree_nodeIS8_ERKSE_RT0_ = comdat any

$_ZNSt8_Rb_treeIN4cvc58internal8TypeNodeESt4pairIKS2_St6vectorIS2_SaIS2_EEESt10_Select1stIS8_ESt4lessIS2_ESaIS8_EE7_M_copyILb0ENSE_11_Alloc_nodeEEEPSt13_Rb_tree_nodeIS8_ESJ_PSt18_Rb_tree_node_baseRT0_ = comdat any

$_ZNKSt8_Rb_treeIN4cvc58internal8TypeNodeESt4pairIKS2_St6vectorIS2_SaIS2_EEESt10_Select1stIS8_ESt4lessIS2_ESaIS8_EE9_M_mbeginEv = comdat any

$_ZNSt8_Rb_treeIN4cvc58internal8TypeNodeESt4pairIKS2_St6vectorIS2_SaIS2_EEESt10_Select1stIS8_ESt4lessIS2_ESaIS8_EE6_M_endEv = comdat any

$_ZNSt8_Rb_treeIN4cvc58internal8TypeNodeESt4pairIKS2_St6vectorIS2_SaIS2_EEESt10_Select1stIS8_ESt4lessIS2_ESaIS8_EE10_S_minimumEPSt18_Rb_tree_node_base = comdat any

$_ZNSt8_Rb_treeIN4cvc58internal8TypeNodeESt4pairIKS2_St6vectorIS2_SaIS2_EEESt10_Select1stIS8_ESt4lessIS2_ESaIS8_EE11_M_leftmostEv = comdat any

$_ZNSt8_Rb_treeIN4cvc58internal8TypeNodeESt4pairIKS2_St6vectorIS2_SaIS2_EEESt10_Select1stIS8_ESt4lessIS2_ESaIS8_EE10_S_maximumEPSt18_Rb_tree_node_base = comdat any

$_ZNSt8_Rb_treeIN4cvc58internal8TypeNodeESt4pairIKS2_St6vectorIS2_SaIS2_EEESt10_Select1stIS8_ESt4lessIS2_ESaIS8_EE12_M_rightmostEv = comdat any

$_ZNSt8_Rb_treeIN4cvc58internal8TypeNodeESt4pairIKS2_St6vectorIS2_SaIS2_EEESt10_Select1stIS8_ESt4lessIS2_ESaIS8_EE13_M_clone_nodeILb0ENSE_11_Alloc_nodeEEEPSt13_Rb_tree_nodeIS8_ESJ_RT0_ = comdat any

$_ZNSt8_Rb_treeIN4cvc58internal8TypeNodeESt4pairIKS2_St6vectorIS2_SaIS2_EEESt10_Select1stIS8_ESt4lessIS2_ESaIS8_EE8_S_rightEPSt18_Rb_tree_node_base = comdat any

$_ZNSt8_Rb_treeIN4cvc58internal8TypeNodeESt4pairIKS2_St6vectorIS2_SaIS2_EEESt10_Select1stIS8_ESt4lessIS2_ESaIS8_EE7_S_leftEPSt18_Rb_tree_node_base = comdat any

$_ZNSt8_Rb_treeIN4cvc58internal8TypeNodeESt4pairIKS2_St6vectorIS2_SaIS2_EEESt10_Select1stIS8_ESt4lessIS2_ESaIS8_EE8_M_eraseEPSt13_Rb_tree_nodeIS8_E = comdat any

$_ZNKSt8_Rb_treeIN4cvc58internal8TypeNodeESt4pairIKS2_St6vectorIS2_SaIS2_EEESt10_Select1stIS8_ESt4lessIS2_ESaIS8_EE11_Alloc_nodeclIRKS8_EEPSt13_Rb_tree_nodeIS8_EOT_ = comdat any

$_ZNSt13_Rb_tree_nodeISt4pairIKN4cvc58internal8TypeNodeESt6vectorIS3_SaIS3_EEEE9_M_valptrEv = comdat any

$_ZNSt8_Rb_treeIN4cvc58internal8TypeNodeESt4pairIKS2_St6vectorIS2_SaIS2_EEESt10_Select1stIS8_ESt4lessIS2_ESaIS8_EE14_M_create_nodeIJRKS8_EEEPSt13_Rb_tree_nodeIS8_EDpOT_ = comdat any

$_ZNSt8_Rb_treeIN4cvc58internal8TypeNodeESt4pairIKS2_St6vectorIS2_SaIS2_EEESt10_Select1stIS8_ESt4lessIS2_ESaIS8_EE11_M_get_nodeEv = comdat any

$_ZNSt8_Rb_treeIN4cvc58internal8TypeNodeESt4pairIKS2_St6vectorIS2_SaIS2_EEESt10_Select1stIS8_ESt4lessIS2_ESaIS8_EE17_M_construct_nodeIJRKS8_EEEvPSt13_Rb_tree_nodeIS8_EDpOT_ = comdat any

$_ZNSt16allocator_traitsISaISt13_Rb_tree_nodeISt4pairIKN4cvc58internal8TypeNodeESt6vectorIS4_SaIS4_EEEEEE8allocateERSB_m = comdat any

$_ZNSt8_Rb_treeIN4cvc58internal8TypeNodeESt4pairIKS2_St6vectorIS2_SaIS2_EEESt10_Select1stIS8_ESt4lessIS2_ESaIS8_EE21_M_get_Node_allocatorEv = comdat any

$_ZNSt15__new_allocatorISt13_Rb_tree_nodeISt4pairIKN4cvc58internal8TypeNodeESt6vectorIS4_SaIS4_EEEEE8allocateEmPKv = comdat any

$_ZNKSt15__new_allocatorISt13_Rb_tree_nodeISt4pairIKN4cvc58internal8TypeNodeESt6vectorIS4_SaIS4_EEEEE11_M_max_sizeEv = comdat any

$_ZNSt16allocator_traitsISaISt13_Rb_tree_nodeISt4pairIKN4cvc58internal8TypeNodeESt6vectorIS4_SaIS4_EEEEEE9constructIS9_JRKS9_EEEvRSB_PT_DpOT0_ = comdat any

$_ZNSt8_Rb_treeIN4cvc58internal8TypeNodeESt4pairIKS2_St6vectorIS2_SaIS2_EEESt10_Select1stIS8_ESt4lessIS2_ESaIS8_EE11_M_put_nodeEPSt13_Rb_tree_nodeIS8_E = comdat any

$_ZNSt15__new_allocatorISt13_Rb_tree_nodeISt4pairIKN4cvc58internal8TypeNodeESt6vectorIS4_SaIS4_EEEEE9constructIS9_JRKS9_EEEvPT_DpOT0_ = comdat any

$_ZNSt4pairIKN4cvc58internal8TypeNodeESt6vectorIS2_SaIS2_EEEC2ERKS7_ = comdat any

$_ZNSt16allocator_traitsISaISt13_Rb_tree_nodeISt4pairIKN4cvc58internal8TypeNodeESt6vectorIS4_SaIS4_EEEEEE10deallocateERSB_PSA_m = comdat any

$_ZNSt15__new_allocatorISt13_Rb_tree_nodeISt4pairIKN4cvc58internal8TypeNodeESt6vectorIS4_SaIS4_EEEEE10deallocateEPSA_m = comdat any

$_ZN9__gnu_cxx16__aligned_membufISt4pairIKN4cvc58internal8TypeNodeESt6vectorIS4_SaIS4_EEEE6_M_ptrEv = comdat any

$_ZN9__gnu_cxx16__aligned_membufISt4pairIKN4cvc58internal8TypeNodeESt6vectorIS4_SaIS4_EEEE7_M_addrEv = comdat any

$_ZNSt8_Rb_treeIN4cvc58internal8TypeNodeESt4pairIKS2_St6vectorIS2_SaIS2_EEESt10_Select1stIS8_ESt4lessIS2_ESaIS8_EE12_M_drop_nodeEPSt13_Rb_tree_nodeIS8_E = comdat any

$_ZNSt8_Rb_treeIN4cvc58internal8TypeNodeESt4pairIKS2_St6vectorIS2_SaIS2_EEESt10_Select1stIS8_ESt4lessIS2_ESaIS8_EE15_M_destroy_nodeEPSt13_Rb_tree_nodeIS8_E = comdat any

$_ZNSt16allocator_traitsISaISt13_Rb_tree_nodeISt4pairIKN4cvc58internal8TypeNodeESt6vectorIS4_SaIS4_EEEEEE7destroyIS9_EEvRSB_PT_ = comdat any

$_ZNSt15__new_allocatorISt13_Rb_tree_nodeISt4pairIKN4cvc58internal8TypeNodeESt6vectorIS4_SaIS4_EEEEE7destroyIS9_EEvPT_ = comdat any

$_ZNSt4pairIKN4cvc58internal8TypeNodeESt6vectorIS2_SaIS2_EEED2Ev = comdat any

$_ZNSt8_Rb_treeIN4cvc58internal8TypeNodeESt4pairIKS2_NS1_12NodeTemplateILb1EEEESt10_Select1stIS7_ESt4lessIS2_ESaIS7_EEC2ERKSD_ = comdat any

$_ZNSt8_Rb_treeIN4cvc58internal8TypeNodeESt4pairIKS2_NS1_12NodeTemplateILb1EEEESt10_Select1stIS7_ESt4lessIS2_ESaIS7_EE13_Rb_tree_implISB_Lb1EEC2ERKSF_ = comdat any

$_ZNKSt8_Rb_treeIN4cvc58internal8TypeNodeESt4pairIKS2_NS1_12NodeTemplateILb1EEEESt10_Select1stIS7_ESt4lessIS2_ESaIS7_EE7_M_rootEv = comdat any

$_ZNSt8_Rb_treeIN4cvc58internal8TypeNodeESt4pairIKS2_NS1_12NodeTemplateILb1EEEESt10_Select1stIS7_ESt4lessIS2_ESaIS7_EE7_M_copyERKSD_ = comdat any

$_ZNSt8_Rb_treeIN4cvc58internal8TypeNodeESt4pairIKS2_NS1_12NodeTemplateILb1EEEESt10_Select1stIS7_ESt4lessIS2_ESaIS7_EE7_M_rootEv = comdat any

$_ZNSt8_Rb_treeIN4cvc58internal8TypeNodeESt4pairIKS2_NS1_12NodeTemplateILb1EEEESt10_Select1stIS7_ESt4lessIS2_ESaIS7_EE13_Rb_tree_implISB_Lb1EED2Ev = comdat any

$_ZN9__gnu_cxx14__alloc_traitsISaISt13_Rb_tree_nodeISt4pairIKN4cvc58internal8TypeNodeENS4_12NodeTemplateILb1EEEEEESA_E17_S_select_on_copyERKSB_ = comdat any

$_ZNSaISt13_Rb_tree_nodeISt4pairIKN4cvc58internal8TypeNodeENS2_12NodeTemplateILb1EEEEEED2Ev = comdat any

$_ZNSt16allocator_traitsISaISt13_Rb_tree_nodeISt4pairIKN4cvc58internal8TypeNodeENS3_12NodeTemplateILb1EEEEEEE37select_on_container_copy_constructionERKSA_ = comdat any

$_ZNSaISt13_Rb_tree_nodeISt4pairIKN4cvc58internal8TypeNodeENS2_12NodeTemplateILb1EEEEEEC2ERKS9_ = comdat any

$_ZNSt15__new_allocatorISt13_Rb_tree_nodeISt4pairIKN4cvc58internal8TypeNodeENS3_12NodeTemplateILb1EEEEEEC2ERKSA_ = comdat any

$_ZNSt15__new_allocatorISt13_Rb_tree_nodeISt4pairIKN4cvc58internal8TypeNodeENS3_12NodeTemplateILb1EEEEEED2Ev = comdat any

$_ZNSt8_Rb_treeIN4cvc58internal8TypeNodeESt4pairIKS2_NS1_12NodeTemplateILb1EEEESt10_Select1stIS7_ESt4lessIS2_ESaIS7_EE11_Alloc_nodeC2ERSD_ = comdat any

$_ZNSt8_Rb_treeIN4cvc58internal8TypeNodeESt4pairIKS2_NS1_12NodeTemplateILb1EEEESt10_Select1stIS7_ESt4lessIS2_ESaIS7_EE7_M_copyILb0ENSD_11_Alloc_nodeEEEPSt13_Rb_tree_nodeIS7_ERKSD_RT0_ = comdat any

$_ZNSt8_Rb_treeIN4cvc58internal8TypeNodeESt4pairIKS2_NS1_12NodeTemplateILb1EEEESt10_Select1stIS7_ESt4lessIS2_ESaIS7_EE7_M_copyILb0ENSD_11_Alloc_nodeEEEPSt13_Rb_tree_nodeIS7_ESI_PSt18_Rb_tree_node_baseRT0_ = comdat any

$_ZNKSt8_Rb_treeIN4cvc58internal8TypeNodeESt4pairIKS2_NS1_12NodeTemplateILb1EEEESt10_Select1stIS7_ESt4lessIS2_ESaIS7_EE9_M_mbeginEv = comdat any

$_ZNSt8_Rb_treeIN4cvc58internal8TypeNodeESt4pairIKS2_NS1_12NodeTemplateILb1EEEESt10_Select1stIS7_ESt4lessIS2_ESaIS7_EE6_M_endEv = comdat any

$_ZNSt8_Rb_treeIN4cvc58internal8TypeNodeESt4pairIKS2_NS1_12NodeTemplateILb1EEEESt10_Select1stIS7_ESt4lessIS2_ESaIS7_EE10_S_minimumEPSt18_Rb_tree_node_base = comdat any

$_ZNSt8_Rb_treeIN4cvc58internal8TypeNodeESt4pairIKS2_NS1_12NodeTemplateILb1EEEESt10_Select1stIS7_ESt4lessIS2_ESaIS7_EE11_M_leftmostEv = comdat any

$_ZNSt8_Rb_treeIN4cvc58internal8TypeNodeESt4pairIKS2_NS1_12NodeTemplateILb1EEEESt10_Select1stIS7_ESt4lessIS2_ESaIS7_EE10_S_maximumEPSt18_Rb_tree_node_base = comdat any

$_ZNSt8_Rb_treeIN4cvc58internal8TypeNodeESt4pairIKS2_NS1_12NodeTemplateILb1EEEESt10_Select1stIS7_ESt4lessIS2_ESaIS7_EE12_M_rightmostEv = comdat any

$_ZNSt8_Rb_treeIN4cvc58internal8TypeNodeESt4pairIKS2_NS1_12NodeTemplateILb1EEEESt10_Select1stIS7_ESt4lessIS2_ESaIS7_EE13_M_clone_nodeILb0ENSD_11_Alloc_nodeEEEPSt13_Rb_tree_nodeIS7_ESI_RT0_ = comdat any

$_ZNSt8_Rb_treeIN4cvc58internal8TypeNodeESt4pairIKS2_NS1_12NodeTemplateILb1EEEESt10_Select1stIS7_ESt4lessIS2_ESaIS7_EE8_S_rightEPSt18_Rb_tree_node_base = comdat any

$_ZNSt8_Rb_treeIN4cvc58internal8TypeNodeESt4pairIKS2_NS1_12NodeTemplateILb1EEEESt10_Select1stIS7_ESt4lessIS2_ESaIS7_EE7_S_leftEPSt18_Rb_tree_node_base = comdat any

$_ZNSt8_Rb_treeIN4cvc58internal8TypeNodeESt4pairIKS2_NS1_12NodeTemplateILb1EEEESt10_Select1stIS7_ESt4lessIS2_ESaIS7_EE8_M_eraseEPSt13_Rb_tree_nodeIS7_E = comdat any

$_ZNKSt8_Rb_treeIN4cvc58internal8TypeNodeESt4pairIKS2_NS1_12NodeTemplateILb1EEEESt10_Select1stIS7_ESt4lessIS2_ESaIS7_EE11_Alloc_nodeclIRKS7_EEPSt13_Rb_tree_nodeIS7_EOT_ = comdat any

$_ZNSt13_Rb_tree_nodeISt4pairIKN4cvc58internal8TypeNodeENS2_12NodeTemplateILb1EEEEE9_M_valptrEv = comdat any

$_ZNSt8_Rb_treeIN4cvc58internal8TypeNodeESt4pairIKS2_NS1_12NodeTemplateILb1EEEESt10_Select1stIS7_ESt4lessIS2_ESaIS7_EE14_M_create_nodeIJRKS7_EEEPSt13_Rb_tree_nodeIS7_EDpOT_ = comdat any

$_ZNSt8_Rb_treeIN4cvc58internal8TypeNodeESt4pairIKS2_NS1_12NodeTemplateILb1EEEESt10_Select1stIS7_ESt4lessIS2_ESaIS7_EE11_M_get_nodeEv = comdat any

$_ZNSt8_Rb_treeIN4cvc58internal8TypeNodeESt4pairIKS2_NS1_12NodeTemplateILb1EEEESt10_Select1stIS7_ESt4lessIS2_ESaIS7_EE17_M_construct_nodeIJRKS7_EEEvPSt13_Rb_tree_nodeIS7_EDpOT_ = comdat any

$_ZNSt16allocator_traitsISaISt13_Rb_tree_nodeISt4pairIKN4cvc58internal8TypeNodeENS3_12NodeTemplateILb1EEEEEEE8allocateERSA_m = comdat any

$_ZNSt8_Rb_treeIN4cvc58internal8TypeNodeESt4pairIKS2_NS1_12NodeTemplateILb1EEEESt10_Select1stIS7_ESt4lessIS2_ESaIS7_EE21_M_get_Node_allocatorEv = comdat any

$_ZNSt15__new_allocatorISt13_Rb_tree_nodeISt4pairIKN4cvc58internal8TypeNodeENS3_12NodeTemplateILb1EEEEEE8allocateEmPKv = comdat any

$_ZNKSt15__new_allocatorISt13_Rb_tree_nodeISt4pairIKN4cvc58internal8TypeNodeENS3_12NodeTemplateILb1EEEEEE11_M_max_sizeEv = comdat any

$_ZNSt16allocator_traitsISaISt13_Rb_tree_nodeISt4pairIKN4cvc58internal8TypeNodeENS3_12NodeTemplateILb1EEEEEEE9constructIS8_JRKS8_EEEvRSA_PT_DpOT0_ = comdat any

$_ZNSt8_Rb_treeIN4cvc58internal8TypeNodeESt4pairIKS2_NS1_12NodeTemplateILb1EEEESt10_Select1stIS7_ESt4lessIS2_ESaIS7_EE11_M_put_nodeEPSt13_Rb_tree_nodeIS7_E = comdat any

$_ZNSt15__new_allocatorISt13_Rb_tree_nodeISt4pairIKN4cvc58internal8TypeNodeENS3_12NodeTemplateILb1EEEEEE9constructIS8_JRKS8_EEEvPT_DpOT0_ = comdat any

$_ZNSt4pairIKN4cvc58internal8TypeNodeENS1_12NodeTemplateILb1EEEEC2ERKS6_ = comdat any

$_ZNSt16allocator_traitsISaISt13_Rb_tree_nodeISt4pairIKN4cvc58internal8TypeNodeENS3_12NodeTemplateILb1EEEEEEE10deallocateERSA_PS9_m = comdat any

$_ZNSt15__new_allocatorISt13_Rb_tree_nodeISt4pairIKN4cvc58internal8TypeNodeENS3_12NodeTemplateILb1EEEEEE10deallocateEPS9_m = comdat any

$_ZN9__gnu_cxx16__aligned_membufISt4pairIKN4cvc58internal8TypeNodeENS3_12NodeTemplateILb1EEEEE6_M_ptrEv = comdat any

$_ZN9__gnu_cxx16__aligned_membufISt4pairIKN4cvc58internal8TypeNodeENS3_12NodeTemplateILb1EEEEE7_M_addrEv = comdat any

$_ZNSt8_Rb_treeIN4cvc58internal8TypeNodeESt4pairIKS2_NS1_12NodeTemplateILb1EEEESt10_Select1stIS7_ESt4lessIS2_ESaIS7_EE12_M_drop_nodeEPSt13_Rb_tree_nodeIS7_E = comdat any

$_ZNSt8_Rb_treeIN4cvc58internal8TypeNodeESt4pairIKS2_NS1_12NodeTemplateILb1EEEESt10_Select1stIS7_ESt4lessIS2_ESaIS7_EE15_M_destroy_nodeEPSt13_Rb_tree_nodeIS7_E = comdat any

$_ZNSt16allocator_traitsISaISt13_Rb_tree_nodeISt4pairIKN4cvc58internal8TypeNodeENS3_12NodeTemplateILb1EEEEEEE7destroyIS8_EEvRSA_PT_ = comdat any

$_ZNSt15__new_allocatorISt13_Rb_tree_nodeISt4pairIKN4cvc58internal8TypeNodeENS3_12NodeTemplateILb1EEEEEE7destroyIS8_EEvPT_ = comdat any

$_ZNSt4pairIKN4cvc58internal8TypeNodeENS1_12NodeTemplateILb1EEEED2Ev = comdat any

$_ZNSt8_Rb_treeIN4cvc58internal8TypeNodeESt4pairIKS2_St3mapIS2_S5_IjNS1_12NodeTemplateILb1EEESt4lessIjESaIS3_IKjS7_EEES8_IS2_ESaIS3_IS4_SD_EEEESt10_Select1stISI_ESE_SaISI_EEC2ERKSM_ = comdat any

$_ZNSt8_Rb_treeIN4cvc58internal8TypeNodeESt4pairIKS2_St3mapIS2_S5_IjNS1_12NodeTemplateILb1EEESt4lessIjESaIS3_IKjS7_EEES8_IS2_ESaIS3_IS4_SD_EEEESt10_Select1stISI_ESE_SaISI_EE13_Rb_tree_implISE_Lb1EEC2ERKSO_ = comdat any

$_ZNKSt8_Rb_treeIN4cvc58internal8TypeNodeESt4pairIKS2_St3mapIS2_S5_IjNS1_12NodeTemplateILb1EEESt4lessIjESaIS3_IKjS7_EEES8_IS2_ESaIS3_IS4_SD_EEEESt10_Select1stISI_ESE_SaISI_EE7_M_rootEv = comdat any

$_ZNSt8_Rb_treeIN4cvc58internal8TypeNodeESt4pairIKS2_St3mapIS2_S5_IjNS1_12NodeTemplateILb1EEESt4lessIjESaIS3_IKjS7_EEES8_IS2_ESaIS3_IS4_SD_EEEESt10_Select1stISI_ESE_SaISI_EE7_M_copyERKSM_ = comdat any

$_ZNSt8_Rb_treeIN4cvc58internal8TypeNodeESt4pairIKS2_St3mapIS2_S5_IjNS1_12NodeTemplateILb1EEESt4lessIjESaIS3_IKjS7_EEES8_IS2_ESaIS3_IS4_SD_EEEESt10_Select1stISI_ESE_SaISI_EE7_M_rootEv = comdat any

$_ZNSt8_Rb_treeIN4cvc58internal8TypeNodeESt4pairIKS2_St3mapIS2_S5_IjNS1_12NodeTemplateILb1EEESt4lessIjESaIS3_IKjS7_EEES8_IS2_ESaIS3_IS4_SD_EEEESt10_Select1stISI_ESE_SaISI_EE13_Rb_tree_implISE_Lb1EED2Ev = comdat any

$_ZN9__gnu_cxx14__alloc_traitsISaISt13_Rb_tree_nodeISt4pairIKN4cvc58internal8TypeNodeESt3mapIS5_S7_IjNS4_12NodeTemplateILb1EEESt4lessIjESaIS2_IKjS9_EEESA_IS5_ESaIS2_IS6_SF_EEEEEESL_E17_S_select_on_copyERKSM_ = comdat any

$_ZNSaISt13_Rb_tree_nodeISt4pairIKN4cvc58internal8TypeNodeESt3mapIS3_S5_IjNS2_12NodeTemplateILb1EEESt4lessIjESaIS0_IKjS7_EEES8_IS3_ESaIS0_IS4_SD_EEEEEED2Ev = comdat any

$_ZNSt16allocator_traitsISaISt13_Rb_tree_nodeISt4pairIKN4cvc58internal8TypeNodeESt3mapIS4_S6_IjNS3_12NodeTemplateILb1EEESt4lessIjESaIS1_IKjS8_EEES9_IS4_ESaIS1_IS5_SE_EEEEEEE37select_on_container_copy_constructionERKSL_ = comdat any

$_ZNSaISt13_Rb_tree_nodeISt4pairIKN4cvc58internal8TypeNodeESt3mapIS3_S5_IjNS2_12NodeTemplateILb1EEESt4lessIjESaIS0_IKjS7_EEES8_IS3_ESaIS0_IS4_SD_EEEEEEC2ERKSK_ = comdat any

$_ZNSt15__new_allocatorISt13_Rb_tree_nodeISt4pairIKN4cvc58internal8TypeNodeESt3mapIS4_S6_IjNS3_12NodeTemplateILb1EEESt4lessIjESaIS1_IKjS8_EEES9_IS4_ESaIS1_IS5_SE_EEEEEEC2ERKSL_ = comdat any

$_ZNSt15__new_allocatorISt13_Rb_tree_nodeISt4pairIKN4cvc58internal8TypeNodeESt3mapIS4_S6_IjNS3_12NodeTemplateILb1EEESt4lessIjESaIS1_IKjS8_EEES9_IS4_ESaIS1_IS5_SE_EEEEEED2Ev = comdat any

$_ZNSt8_Rb_treeIN4cvc58internal8TypeNodeESt4pairIKS2_St3mapIS2_S5_IjNS1_12NodeTemplateILb1EEESt4lessIjESaIS3_IKjS7_EEES8_IS2_ESaIS3_IS4_SD_EEEESt10_Select1stISI_ESE_SaISI_EE11_Alloc_nodeC2ERSM_ = comdat any

$_ZNSt8_Rb_treeIN4cvc58internal8TypeNodeESt4pairIKS2_St3mapIS2_S5_IjNS1_12NodeTemplateILb1EEESt4lessIjESaIS3_IKjS7_EEES8_IS2_ESaIS3_IS4_SD_EEEESt10_Select1stISI_ESE_SaISI_EE7_M_copyILb0ENSM_11_Alloc_nodeEEEPSt13_Rb_tree_nodeISI_ERKSM_RT0_ = comdat any

$_ZNSt8_Rb_treeIN4cvc58internal8TypeNodeESt4pairIKS2_St3mapIS2_S5_IjNS1_12NodeTemplateILb1EEESt4lessIjESaIS3_IKjS7_EEES8_IS2_ESaIS3_IS4_SD_EEEESt10_Select1stISI_ESE_SaISI_EE7_M_copyILb0ENSM_11_Alloc_nodeEEEPSt13_Rb_tree_nodeISI_ESR_PSt18_Rb_tree_node_baseRT0_ = comdat any

$_ZNKSt8_Rb_treeIN4cvc58internal8TypeNodeESt4pairIKS2_St3mapIS2_S5_IjNS1_12NodeTemplateILb1EEESt4lessIjESaIS3_IKjS7_EEES8_IS2_ESaIS3_IS4_SD_EEEESt10_Select1stISI_ESE_SaISI_EE9_M_mbeginEv = comdat any

$_ZNSt8_Rb_treeIN4cvc58internal8TypeNodeESt4pairIKS2_St3mapIS2_S5_IjNS1_12NodeTemplateILb1EEESt4lessIjESaIS3_IKjS7_EEES8_IS2_ESaIS3_IS4_SD_EEEESt10_Select1stISI_ESE_SaISI_EE6_M_endEv = comdat any

$_ZNSt8_Rb_treeIN4cvc58internal8TypeNodeESt4pairIKS2_St3mapIS2_S5_IjNS1_12NodeTemplateILb1EEESt4lessIjESaIS3_IKjS7_EEES8_IS2_ESaIS3_IS4_SD_EEEESt10_Select1stISI_ESE_SaISI_EE10_S_minimumEPSt18_Rb_tree_node_base = comdat any

$_ZNSt8_Rb_treeIN4cvc58internal8TypeNodeESt4pairIKS2_St3mapIS2_S5_IjNS1_12NodeTemplateILb1EEESt4lessIjESaIS3_IKjS7_EEES8_IS2_ESaIS3_IS4_SD_EEEESt10_Select1stISI_ESE_SaISI_EE11_M_leftmostEv = comdat any

$_ZNSt8_Rb_treeIN4cvc58internal8TypeNodeESt4pairIKS2_St3mapIS2_S5_IjNS1_12NodeTemplateILb1EEESt4lessIjESaIS3_IKjS7_EEES8_IS2_ESaIS3_IS4_SD_EEEESt10_Select1stISI_ESE_SaISI_EE10_S_maximumEPSt18_Rb_tree_node_base = comdat any

$_ZNSt8_Rb_treeIN4cvc58internal8TypeNodeESt4pairIKS2_St3mapIS2_S5_IjNS1_12NodeTemplateILb1EEESt4lessIjESaIS3_IKjS7_EEES8_IS2_ESaIS3_IS4_SD_EEEESt10_Select1stISI_ESE_SaISI_EE12_M_rightmostEv = comdat any

$_ZNSt8_Rb_treeIN4cvc58internal8TypeNodeESt4pairIKS2_St3mapIS2_S5_IjNS1_12NodeTemplateILb1EEESt4lessIjESaIS3_IKjS7_EEES8_IS2_ESaIS3_IS4_SD_EEEESt10_Select1stISI_ESE_SaISI_EE13_M_clone_nodeILb0ENSM_11_Alloc_nodeEEEPSt13_Rb_tree_nodeISI_ESR_RT0_ = comdat any

$_ZNSt8_Rb_treeIN4cvc58internal8TypeNodeESt4pairIKS2_St3mapIS2_S5_IjNS1_12NodeTemplateILb1EEESt4lessIjESaIS3_IKjS7_EEES8_IS2_ESaIS3_IS4_SD_EEEESt10_Select1stISI_ESE_SaISI_EE8_S_rightEPSt18_Rb_tree_node_base = comdat any

$_ZNSt8_Rb_treeIN4cvc58internal8TypeNodeESt4pairIKS2_St3mapIS2_S5_IjNS1_12NodeTemplateILb1EEESt4lessIjESaIS3_IKjS7_EEES8_IS2_ESaIS3_IS4_SD_EEEESt10_Select1stISI_ESE_SaISI_EE7_S_leftEPSt18_Rb_tree_node_base = comdat any

$_ZNSt8_Rb_treeIN4cvc58internal8TypeNodeESt4pairIKS2_St3mapIS2_S5_IjNS1_12NodeTemplateILb1EEESt4lessIjESaIS3_IKjS7_EEES8_IS2_ESaIS3_IS4_SD_EEEESt10_Select1stISI_ESE_SaISI_EE8_M_eraseEPSt13_Rb_tree_nodeISI_E = comdat any

$_ZNKSt8_Rb_treeIN4cvc58internal8TypeNodeESt4pairIKS2_St3mapIS2_S5_IjNS1_12NodeTemplateILb1EEESt4lessIjESaIS3_IKjS7_EEES8_IS2_ESaIS3_IS4_SD_EEEESt10_Select1stISI_ESE_SaISI_EE11_Alloc_nodeclIRKSI_EEPSt13_Rb_tree_nodeISI_EOT_ = comdat any

$_ZNSt13_Rb_tree_nodeISt4pairIKN4cvc58internal8TypeNodeESt3mapIS3_S5_IjNS2_12NodeTemplateILb1EEESt4lessIjESaIS0_IKjS7_EEES8_IS3_ESaIS0_IS4_SD_EEEEE9_M_valptrEv = comdat any

$_ZNSt8_Rb_treeIN4cvc58internal8TypeNodeESt4pairIKS2_St3mapIS2_S5_IjNS1_12NodeTemplateILb1EEESt4lessIjESaIS3_IKjS7_EEES8_IS2_ESaIS3_IS4_SD_EEEESt10_Select1stISI_ESE_SaISI_EE14_M_create_nodeIJRKSI_EEEPSt13_Rb_tree_nodeISI_EDpOT_ = comdat any

$_ZNSt8_Rb_treeIN4cvc58internal8TypeNodeESt4pairIKS2_St3mapIS2_S5_IjNS1_12NodeTemplateILb1EEESt4lessIjESaIS3_IKjS7_EEES8_IS2_ESaIS3_IS4_SD_EEEESt10_Select1stISI_ESE_SaISI_EE11_M_get_nodeEv = comdat any

$_ZNSt8_Rb_treeIN4cvc58internal8TypeNodeESt4pairIKS2_St3mapIS2_S5_IjNS1_12NodeTemplateILb1EEESt4lessIjESaIS3_IKjS7_EEES8_IS2_ESaIS3_IS4_SD_EEEESt10_Select1stISI_ESE_SaISI_EE17_M_construct_nodeIJRKSI_EEEvPSt13_Rb_tree_nodeISI_EDpOT_ = comdat any

$_ZNSt16allocator_traitsISaISt13_Rb_tree_nodeISt4pairIKN4cvc58internal8TypeNodeESt3mapIS4_S6_IjNS3_12NodeTemplateILb1EEESt4lessIjESaIS1_IKjS8_EEES9_IS4_ESaIS1_IS5_SE_EEEEEEE8allocateERSL_m = comdat any

$_ZNSt8_Rb_treeIN4cvc58internal8TypeNodeESt4pairIKS2_St3mapIS2_S5_IjNS1_12NodeTemplateILb1EEESt4lessIjESaIS3_IKjS7_EEES8_IS2_ESaIS3_IS4_SD_EEEESt10_Select1stISI_ESE_SaISI_EE21_M_get_Node_allocatorEv = comdat any

$_ZNSt15__new_allocatorISt13_Rb_tree_nodeISt4pairIKN4cvc58internal8TypeNodeESt3mapIS4_S6_IjNS3_12NodeTemplateILb1EEESt4lessIjESaIS1_IKjS8_EEES9_IS4_ESaIS1_IS5_SE_EEEEEE8allocateEmPKv = comdat any

$_ZNKSt15__new_allocatorISt13_Rb_tree_nodeISt4pairIKN4cvc58internal8TypeNodeESt3mapIS4_S6_IjNS3_12NodeTemplateILb1EEESt4lessIjESaIS1_IKjS8_EEES9_IS4_ESaIS1_IS5_SE_EEEEEE11_M_max_sizeEv = comdat any

$_ZNSt16allocator_traitsISaISt13_Rb_tree_nodeISt4pairIKN4cvc58internal8TypeNodeESt3mapIS4_S6_IjNS3_12NodeTemplateILb1EEESt4lessIjESaIS1_IKjS8_EEES9_IS4_ESaIS1_IS5_SE_EEEEEEE9constructISJ_JRKSJ_EEEvRSL_PT_DpOT0_ = comdat any

$_ZNSt8_Rb_treeIN4cvc58internal8TypeNodeESt4pairIKS2_St3mapIS2_S5_IjNS1_12NodeTemplateILb1EEESt4lessIjESaIS3_IKjS7_EEES8_IS2_ESaIS3_IS4_SD_EEEESt10_Select1stISI_ESE_SaISI_EE11_M_put_nodeEPSt13_Rb_tree_nodeISI_E = comdat any

$_ZNSt15__new_allocatorISt13_Rb_tree_nodeISt4pairIKN4cvc58internal8TypeNodeESt3mapIS4_S6_IjNS3_12NodeTemplateILb1EEESt4lessIjESaIS1_IKjS8_EEES9_IS4_ESaIS1_IS5_SE_EEEEEE9constructISJ_JRKSJ_EEEvPT_DpOT0_ = comdat any

$_ZNSt4pairIKN4cvc58internal8TypeNodeESt3mapIS2_S4_IjNS1_12NodeTemplateILb1EEESt4lessIjESaIS_IKjS6_EEES7_IS2_ESaIS_IS3_SC_EEEEC2ERKSH_ = comdat any

$_ZNSt3mapIN4cvc58internal8TypeNodeES_IjNS1_12NodeTemplateILb1EEESt4lessIjESaISt4pairIKjS4_EEES5_IS2_ESaIS7_IKS2_SB_EEEC2ERKSG_ = comdat any

$_ZNSt8_Rb_treeIN4cvc58internal8TypeNodeESt4pairIKS2_St3mapIjNS1_12NodeTemplateILb1EEESt4lessIjESaIS3_IKjS7_EEEESt10_Select1stISE_ES8_IS2_ESaISE_EEC2ERKSJ_ = comdat any

$_ZNSt8_Rb_treeIN4cvc58internal8TypeNodeESt4pairIKS2_St3mapIjNS1_12NodeTemplateILb1EEESt4lessIjESaIS3_IKjS7_EEEESt10_Select1stISE_ES8_IS2_ESaISE_EE13_Rb_tree_implISH_Lb1EEC2ERKSL_ = comdat any

$_ZNKSt8_Rb_treeIN4cvc58internal8TypeNodeESt4pairIKS2_St3mapIjNS1_12NodeTemplateILb1EEESt4lessIjESaIS3_IKjS7_EEEESt10_Select1stISE_ES8_IS2_ESaISE_EE7_M_rootEv = comdat any

$_ZNSt8_Rb_treeIN4cvc58internal8TypeNodeESt4pairIKS2_St3mapIjNS1_12NodeTemplateILb1EEESt4lessIjESaIS3_IKjS7_EEEESt10_Select1stISE_ES8_IS2_ESaISE_EE7_M_copyERKSJ_ = comdat any

$_ZNSt8_Rb_treeIN4cvc58internal8TypeNodeESt4pairIKS2_St3mapIjNS1_12NodeTemplateILb1EEESt4lessIjESaIS3_IKjS7_EEEESt10_Select1stISE_ES8_IS2_ESaISE_EE7_M_rootEv = comdat any

$_ZNSt8_Rb_treeIN4cvc58internal8TypeNodeESt4pairIKS2_St3mapIjNS1_12NodeTemplateILb1EEESt4lessIjESaIS3_IKjS7_EEEESt10_Select1stISE_ES8_IS2_ESaISE_EE13_Rb_tree_implISH_Lb1EED2Ev = comdat any

$_ZN9__gnu_cxx14__alloc_traitsISaISt13_Rb_tree_nodeISt4pairIKN4cvc58internal8TypeNodeESt3mapIjNS4_12NodeTemplateILb1EEESt4lessIjESaIS2_IKjS9_EEEEEESH_E17_S_select_on_copyERKSI_ = comdat any

$_ZNSaISt13_Rb_tree_nodeISt4pairIKN4cvc58internal8TypeNodeESt3mapIjNS2_12NodeTemplateILb1EEESt4lessIjESaIS0_IKjS7_EEEEEED2Ev = comdat any

$_ZNSt16allocator_traitsISaISt13_Rb_tree_nodeISt4pairIKN4cvc58internal8TypeNodeESt3mapIjNS3_12NodeTemplateILb1EEESt4lessIjESaIS1_IKjS8_EEEEEEE37select_on_container_copy_constructionERKSH_ = comdat any

$_ZNSaISt13_Rb_tree_nodeISt4pairIKN4cvc58internal8TypeNodeESt3mapIjNS2_12NodeTemplateILb1EEESt4lessIjESaIS0_IKjS7_EEEEEEC2ERKSG_ = comdat any

$_ZNSt15__new_allocatorISt13_Rb_tree_nodeISt4pairIKN4cvc58internal8TypeNodeESt3mapIjNS3_12NodeTemplateILb1EEESt4lessIjESaIS1_IKjS8_EEEEEEC2ERKSH_ = comdat any

$_ZNSt15__new_allocatorISt13_Rb_tree_nodeISt4pairIKN4cvc58internal8TypeNodeESt3mapIjNS3_12NodeTemplateILb1EEESt4lessIjESaIS1_IKjS8_EEEEEED2Ev = comdat any

$_ZNSt8_Rb_treeIN4cvc58internal8TypeNodeESt4pairIKS2_St3mapIjNS1_12NodeTemplateILb1EEESt4lessIjESaIS3_IKjS7_EEEESt10_Select1stISE_ES8_IS2_ESaISE_EE11_Alloc_nodeC2ERSJ_ = comdat any

$_ZNSt8_Rb_treeIN4cvc58internal8TypeNodeESt4pairIKS2_St3mapIjNS1_12NodeTemplateILb1EEESt4lessIjESaIS3_IKjS7_EEEESt10_Select1stISE_ES8_IS2_ESaISE_EE7_M_copyILb0ENSJ_11_Alloc_nodeEEEPSt13_Rb_tree_nodeISE_ERKSJ_RT0_ = comdat any

$_ZNSt8_Rb_treeIN4cvc58internal8TypeNodeESt4pairIKS2_St3mapIjNS1_12NodeTemplateILb1EEESt4lessIjESaIS3_IKjS7_EEEESt10_Select1stISE_ES8_IS2_ESaISE_EE7_M_copyILb0ENSJ_11_Alloc_nodeEEEPSt13_Rb_tree_nodeISE_ESO_PSt18_Rb_tree_node_baseRT0_ = comdat any

$_ZNKSt8_Rb_treeIN4cvc58internal8TypeNodeESt4pairIKS2_St3mapIjNS1_12NodeTemplateILb1EEESt4lessIjESaIS3_IKjS7_EEEESt10_Select1stISE_ES8_IS2_ESaISE_EE9_M_mbeginEv = comdat any

$_ZNSt8_Rb_treeIN4cvc58internal8TypeNodeESt4pairIKS2_St3mapIjNS1_12NodeTemplateILb1EEESt4lessIjESaIS3_IKjS7_EEEESt10_Select1stISE_ES8_IS2_ESaISE_EE6_M_endEv = comdat any

$_ZNSt8_Rb_treeIN4cvc58internal8TypeNodeESt4pairIKS2_St3mapIjNS1_12NodeTemplateILb1EEESt4lessIjESaIS3_IKjS7_EEEESt10_Select1stISE_ES8_IS2_ESaISE_EE10_S_minimumEPSt18_Rb_tree_node_base = comdat any

$_ZNSt8_Rb_treeIN4cvc58internal8TypeNodeESt4pairIKS2_St3mapIjNS1_12NodeTemplateILb1EEESt4lessIjESaIS3_IKjS7_EEEESt10_Select1stISE_ES8_IS2_ESaISE_EE11_M_leftmostEv = comdat any

$_ZNSt8_Rb_treeIN4cvc58internal8TypeNodeESt4pairIKS2_St3mapIjNS1_12NodeTemplateILb1EEESt4lessIjESaIS3_IKjS7_EEEESt10_Select1stISE_ES8_IS2_ESaISE_EE10_S_maximumEPSt18_Rb_tree_node_base = comdat any

$_ZNSt8_Rb_treeIN4cvc58internal8TypeNodeESt4pairIKS2_St3mapIjNS1_12NodeTemplateILb1EEESt4lessIjESaIS3_IKjS7_EEEESt10_Select1stISE_ES8_IS2_ESaISE_EE12_M_rightmostEv = comdat any

$_ZNSt8_Rb_treeIN4cvc58internal8TypeNodeESt4pairIKS2_St3mapIjNS1_12NodeTemplateILb1EEESt4lessIjESaIS3_IKjS7_EEEESt10_Select1stISE_ES8_IS2_ESaISE_EE13_M_clone_nodeILb0ENSJ_11_Alloc_nodeEEEPSt13_Rb_tree_nodeISE_ESO_RT0_ = comdat any

$_ZNSt8_Rb_treeIN4cvc58internal8TypeNodeESt4pairIKS2_St3mapIjNS1_12NodeTemplateILb1EEESt4lessIjESaIS3_IKjS7_EEEESt10_Select1stISE_ES8_IS2_ESaISE_EE8_S_rightEPSt18_Rb_tree_node_base = comdat any

$_ZNSt8_Rb_treeIN4cvc58internal8TypeNodeESt4pairIKS2_St3mapIjNS1_12NodeTemplateILb1EEESt4lessIjESaIS3_IKjS7_EEEESt10_Select1stISE_ES8_IS2_ESaISE_EE7_S_leftEPSt18_Rb_tree_node_base = comdat any

$_ZNSt8_Rb_treeIN4cvc58internal8TypeNodeESt4pairIKS2_St3mapIjNS1_12NodeTemplateILb1EEESt4lessIjESaIS3_IKjS7_EEEESt10_Select1stISE_ES8_IS2_ESaISE_EE8_M_eraseEPSt13_Rb_tree_nodeISE_E = comdat any

$_ZNKSt8_Rb_treeIN4cvc58internal8TypeNodeESt4pairIKS2_St3mapIjNS1_12NodeTemplateILb1EEESt4lessIjESaIS3_IKjS7_EEEESt10_Select1stISE_ES8_IS2_ESaISE_EE11_Alloc_nodeclIRKSE_EEPSt13_Rb_tree_nodeISE_EOT_ = comdat any

$_ZNSt13_Rb_tree_nodeISt4pairIKN4cvc58internal8TypeNodeESt3mapIjNS2_12NodeTemplateILb1EEESt4lessIjESaIS0_IKjS7_EEEEE9_M_valptrEv = comdat any

$_ZNSt8_Rb_treeIN4cvc58internal8TypeNodeESt4pairIKS2_St3mapIjNS1_12NodeTemplateILb1EEESt4lessIjESaIS3_IKjS7_EEEESt10_Select1stISE_ES8_IS2_ESaISE_EE14_M_create_nodeIJRKSE_EEEPSt13_Rb_tree_nodeISE_EDpOT_ = comdat any

$_ZNSt8_Rb_treeIN4cvc58internal8TypeNodeESt4pairIKS2_St3mapIjNS1_12NodeTemplateILb1EEESt4lessIjESaIS3_IKjS7_EEEESt10_Select1stISE_ES8_IS2_ESaISE_EE11_M_get_nodeEv = comdat any

$_ZNSt8_Rb_treeIN4cvc58internal8TypeNodeESt4pairIKS2_St3mapIjNS1_12NodeTemplateILb1EEESt4lessIjESaIS3_IKjS7_EEEESt10_Select1stISE_ES8_IS2_ESaISE_EE17_M_construct_nodeIJRKSE_EEEvPSt13_Rb_tree_nodeISE_EDpOT_ = comdat any

$_ZNSt16allocator_traitsISaISt13_Rb_tree_nodeISt4pairIKN4cvc58internal8TypeNodeESt3mapIjNS3_12NodeTemplateILb1EEESt4lessIjESaIS1_IKjS8_EEEEEEE8allocateERSH_m = comdat any

$_ZNSt8_Rb_treeIN4cvc58internal8TypeNodeESt4pairIKS2_St3mapIjNS1_12NodeTemplateILb1EEESt4lessIjESaIS3_IKjS7_EEEESt10_Select1stISE_ES8_IS2_ESaISE_EE21_M_get_Node_allocatorEv = comdat any

$_ZNSt15__new_allocatorISt13_Rb_tree_nodeISt4pairIKN4cvc58internal8TypeNodeESt3mapIjNS3_12NodeTemplateILb1EEESt4lessIjESaIS1_IKjS8_EEEEEE8allocateEmPKv = comdat any

$_ZNKSt15__new_allocatorISt13_Rb_tree_nodeISt4pairIKN4cvc58internal8TypeNodeESt3mapIjNS3_12NodeTemplateILb1EEESt4lessIjESaIS1_IKjS8_EEEEEE11_M_max_sizeEv = comdat any

$_ZNSt16allocator_traitsISaISt13_Rb_tree_nodeISt4pairIKN4cvc58internal8TypeNodeESt3mapIjNS3_12NodeTemplateILb1EEESt4lessIjESaIS1_IKjS8_EEEEEEE9constructISF_JRKSF_EEEvRSH_PT_DpOT0_ = comdat any

$_ZNSt8_Rb_treeIN4cvc58internal8TypeNodeESt4pairIKS2_St3mapIjNS1_12NodeTemplateILb1EEESt4lessIjESaIS3_IKjS7_EEEESt10_Select1stISE_ES8_IS2_ESaISE_EE11_M_put_nodeEPSt13_Rb_tree_nodeISE_E = comdat any

$_ZNSt15__new_allocatorISt13_Rb_tree_nodeISt4pairIKN4cvc58internal8TypeNodeESt3mapIjNS3_12NodeTemplateILb1EEESt4lessIjESaIS1_IKjS8_EEEEEE9constructISF_JRKSF_EEEvPT_DpOT0_ = comdat any

$_ZNSt4pairIKN4cvc58internal8TypeNodeESt3mapIjNS1_12NodeTemplateILb1EEESt4lessIjESaIS_IKjS6_EEEEC2ERKSD_ = comdat any

$_ZNSt3mapIjN4cvc58internal12NodeTemplateILb1EEESt4lessIjESaISt4pairIKjS3_EEEC2ERKSA_ = comdat any

$_ZNSt8_Rb_treeIjSt4pairIKjN4cvc58internal12NodeTemplateILb1EEEESt10_Select1stIS6_ESt4lessIjESaIS6_EEC2ERKSC_ = comdat any

$_ZNSt8_Rb_treeIjSt4pairIKjN4cvc58internal12NodeTemplateILb1EEEESt10_Select1stIS6_ESt4lessIjESaIS6_EE13_Rb_tree_implISA_Lb1EEC2ERKSE_ = comdat any

$_ZNKSt8_Rb_treeIjSt4pairIKjN4cvc58internal12NodeTemplateILb1EEEESt10_Select1stIS6_ESt4lessIjESaIS6_EE7_M_rootEv = comdat any

$_ZNSt8_Rb_treeIjSt4pairIKjN4cvc58internal12NodeTemplateILb1EEEESt10_Select1stIS6_ESt4lessIjESaIS6_EE7_M_copyERKSC_ = comdat any

$_ZNSt8_Rb_treeIjSt4pairIKjN4cvc58internal12NodeTemplateILb1EEEESt10_Select1stIS6_ESt4lessIjESaIS6_EE7_M_rootEv = comdat any

$_ZNSt8_Rb_treeIjSt4pairIKjN4cvc58internal12NodeTemplateILb1EEEESt10_Select1stIS6_ESt4lessIjESaIS6_EE13_Rb_tree_implISA_Lb1EED2Ev = comdat any

$_ZN9__gnu_cxx14__alloc_traitsISaISt13_Rb_tree_nodeISt4pairIKjN4cvc58internal12NodeTemplateILb1EEEEEES9_E17_S_select_on_copyERKSA_ = comdat any

$_ZNSaISt13_Rb_tree_nodeISt4pairIKjN4cvc58internal12NodeTemplateILb1EEEEEED2Ev = comdat any

$_ZNSt20_Rb_tree_key_compareISt4lessIjEEC2ERKS1_ = comdat any

$_ZNSt16allocator_traitsISaISt13_Rb_tree_nodeISt4pairIKjN4cvc58internal12NodeTemplateILb1EEEEEEE37select_on_container_copy_constructionERKS9_ = comdat any

$_ZNSaISt13_Rb_tree_nodeISt4pairIKjN4cvc58internal12NodeTemplateILb1EEEEEEC2ERKS8_ = comdat any

$_ZNSt15__new_allocatorISt13_Rb_tree_nodeISt4pairIKjN4cvc58internal12NodeTemplateILb1EEEEEEC2ERKS9_ = comdat any

$_ZNSt15__new_allocatorISt13_Rb_tree_nodeISt4pairIKjN4cvc58internal12NodeTemplateILb1EEEEEED2Ev = comdat any

$_ZNSt8_Rb_treeIjSt4pairIKjN4cvc58internal12NodeTemplateILb1EEEESt10_Select1stIS6_ESt4lessIjESaIS6_EE11_Alloc_nodeC2ERSC_ = comdat any

$_ZNSt8_Rb_treeIjSt4pairIKjN4cvc58internal12NodeTemplateILb1EEEESt10_Select1stIS6_ESt4lessIjESaIS6_EE7_M_copyILb0ENSC_11_Alloc_nodeEEEPSt13_Rb_tree_nodeIS6_ERKSC_RT0_ = comdat any

$_ZNSt8_Rb_treeIjSt4pairIKjN4cvc58internal12NodeTemplateILb1EEEESt10_Select1stIS6_ESt4lessIjESaIS6_EE7_M_copyILb0ENSC_11_Alloc_nodeEEEPSt13_Rb_tree_nodeIS6_ESH_PSt18_Rb_tree_node_baseRT0_ = comdat any

$_ZNKSt8_Rb_treeIjSt4pairIKjN4cvc58internal12NodeTemplateILb1EEEESt10_Select1stIS6_ESt4lessIjESaIS6_EE9_M_mbeginEv = comdat any

$_ZNSt8_Rb_treeIjSt4pairIKjN4cvc58internal12NodeTemplateILb1EEEESt10_Select1stIS6_ESt4lessIjESaIS6_EE6_M_endEv = comdat any

$_ZNSt8_Rb_treeIjSt4pairIKjN4cvc58internal12NodeTemplateILb1EEEESt10_Select1stIS6_ESt4lessIjESaIS6_EE10_S_minimumEPSt18_Rb_tree_node_base = comdat any

$_ZNSt8_Rb_treeIjSt4pairIKjN4cvc58internal12NodeTemplateILb1EEEESt10_Select1stIS6_ESt4lessIjESaIS6_EE11_M_leftmostEv = comdat any

$_ZNSt8_Rb_treeIjSt4pairIKjN4cvc58internal12NodeTemplateILb1EEEESt10_Select1stIS6_ESt4lessIjESaIS6_EE10_S_maximumEPSt18_Rb_tree_node_base = comdat any

$_ZNSt8_Rb_treeIjSt4pairIKjN4cvc58internal12NodeTemplateILb1EEEESt10_Select1stIS6_ESt4lessIjESaIS6_EE12_M_rightmostEv = comdat any

$_ZNSt8_Rb_treeIjSt4pairIKjN4cvc58internal12NodeTemplateILb1EEEESt10_Select1stIS6_ESt4lessIjESaIS6_EE13_M_clone_nodeILb0ENSC_11_Alloc_nodeEEEPSt13_Rb_tree_nodeIS6_ESH_RT0_ = comdat any

$_ZNSt8_Rb_treeIjSt4pairIKjN4cvc58internal12NodeTemplateILb1EEEESt10_Select1stIS6_ESt4lessIjESaIS6_EE8_S_rightEPSt18_Rb_tree_node_base = comdat any

$_ZNSt8_Rb_treeIjSt4pairIKjN4cvc58internal12NodeTemplateILb1EEEESt10_Select1stIS6_ESt4lessIjESaIS6_EE7_S_leftEPSt18_Rb_tree_node_base = comdat any

$_ZNSt8_Rb_treeIjSt4pairIKjN4cvc58internal12NodeTemplateILb1EEEESt10_Select1stIS6_ESt4lessIjESaIS6_EE8_M_eraseEPSt13_Rb_tree_nodeIS6_E = comdat any

$_ZNKSt8_Rb_treeIjSt4pairIKjN4cvc58internal12NodeTemplateILb1EEEESt10_Select1stIS6_ESt4lessIjESaIS6_EE11_Alloc_nodeclIRKS6_EEPSt13_Rb_tree_nodeIS6_EOT_ = comdat any

$_ZNSt13_Rb_tree_nodeISt4pairIKjN4cvc58internal12NodeTemplateILb1EEEEE9_M_valptrEv = comdat any

$_ZNSt8_Rb_treeIjSt4pairIKjN4cvc58internal12NodeTemplateILb1EEEESt10_Select1stIS6_ESt4lessIjESaIS6_EE14_M_create_nodeIJRKS6_EEEPSt13_Rb_tree_nodeIS6_EDpOT_ = comdat any

$_ZNSt8_Rb_treeIjSt4pairIKjN4cvc58internal12NodeTemplateILb1EEEESt10_Select1stIS6_ESt4lessIjESaIS6_EE11_M_get_nodeEv = comdat any

$_ZNSt8_Rb_treeIjSt4pairIKjN4cvc58internal12NodeTemplateILb1EEEESt10_Select1stIS6_ESt4lessIjESaIS6_EE17_M_construct_nodeIJRKS6_EEEvPSt13_Rb_tree_nodeIS6_EDpOT_ = comdat any

$_ZNSt16allocator_traitsISaISt13_Rb_tree_nodeISt4pairIKjN4cvc58internal12NodeTemplateILb1EEEEEEE8allocateERS9_m = comdat any

$_ZNSt8_Rb_treeIjSt4pairIKjN4cvc58internal12NodeTemplateILb1EEEESt10_Select1stIS6_ESt4lessIjESaIS6_EE21_M_get_Node_allocatorEv = comdat any

$_ZNSt15__new_allocatorISt13_Rb_tree_nodeISt4pairIKjN4cvc58internal12NodeTemplateILb1EEEEEE8allocateEmPKv = comdat any

$_ZNKSt15__new_allocatorISt13_Rb_tree_nodeISt4pairIKjN4cvc58internal12NodeTemplateILb1EEEEEE11_M_max_sizeEv = comdat any

$_ZNSt16allocator_traitsISaISt13_Rb_tree_nodeISt4pairIKjN4cvc58internal12NodeTemplateILb1EEEEEEE9constructIS7_JRKS7_EEEvRS9_PT_DpOT0_ = comdat any

$_ZNSt8_Rb_treeIjSt4pairIKjN4cvc58internal12NodeTemplateILb1EEEESt10_Select1stIS6_ESt4lessIjESaIS6_EE11_M_put_nodeEPSt13_Rb_tree_nodeIS6_E = comdat any

$_ZNSt15__new_allocatorISt13_Rb_tree_nodeISt4pairIKjN4cvc58internal12NodeTemplateILb1EEEEEE9constructIS7_JRKS7_EEEvPT_DpOT0_ = comdat any

$_ZNSt4pairIKjN4cvc58internal12NodeTemplateILb1EEEEC2ERKS5_ = comdat any

$_ZNSt16allocator_traitsISaISt13_Rb_tree_nodeISt4pairIKjN4cvc58internal12NodeTemplateILb1EEEEEEE10deallocateERS9_PS8_m = comdat any

$_ZNSt15__new_allocatorISt13_Rb_tree_nodeISt4pairIKjN4cvc58internal12NodeTemplateILb1EEEEEE10deallocateEPS8_m = comdat any

$_ZN9__gnu_cxx16__aligned_membufISt4pairIKjN4cvc58internal12NodeTemplateILb1EEEEE6_M_ptrEv = comdat any

$_ZN9__gnu_cxx16__aligned_membufISt4pairIKjN4cvc58internal12NodeTemplateILb1EEEEE7_M_addrEv = comdat any

$_ZNSt8_Rb_treeIjSt4pairIKjN4cvc58internal12NodeTemplateILb1EEEESt10_Select1stIS6_ESt4lessIjESaIS6_EE12_M_drop_nodeEPSt13_Rb_tree_nodeIS6_E = comdat any

$_ZNSt8_Rb_treeIjSt4pairIKjN4cvc58internal12NodeTemplateILb1EEEESt10_Select1stIS6_ESt4lessIjESaIS6_EE15_M_destroy_nodeEPSt13_Rb_tree_nodeIS6_E = comdat any

$_ZNSt16allocator_traitsISaISt13_Rb_tree_nodeISt4pairIKjN4cvc58internal12NodeTemplateILb1EEEEEEE7destroyIS7_EEvRS9_PT_ = comdat any

$_ZNSt15__new_allocatorISt13_Rb_tree_nodeISt4pairIKjN4cvc58internal12NodeTemplateILb1EEEEEE7destroyIS7_EEvPT_ = comdat any

$_ZNSt4pairIKjN4cvc58internal12NodeTemplateILb1EEEED2Ev = comdat any

$_ZNSt16allocator_traitsISaISt13_Rb_tree_nodeISt4pairIKN4cvc58internal8TypeNodeESt3mapIjNS3_12NodeTemplateILb1EEESt4lessIjESaIS1_IKjS8_EEEEEEE10deallocateERSH_PSG_m = comdat any

$_ZNSt15__new_allocatorISt13_Rb_tree_nodeISt4pairIKN4cvc58internal8TypeNodeESt3mapIjNS3_12NodeTemplateILb1EEESt4lessIjESaIS1_IKjS8_EEEEEE10deallocateEPSG_m = comdat any

$_ZN9__gnu_cxx16__aligned_membufISt4pairIKN4cvc58internal8TypeNodeESt3mapIjNS3_12NodeTemplateILb1EEESt4lessIjESaIS1_IKjS8_EEEEE6_M_ptrEv = comdat any

$_ZN9__gnu_cxx16__aligned_membufISt4pairIKN4cvc58internal8TypeNodeESt3mapIjNS3_12NodeTemplateILb1EEESt4lessIjESaIS1_IKjS8_EEEEE7_M_addrEv = comdat any

$_ZNSt8_Rb_treeIN4cvc58internal8TypeNodeESt4pairIKS2_St3mapIjNS1_12NodeTemplateILb1EEESt4lessIjESaIS3_IKjS7_EEEESt10_Select1stISE_ES8_IS2_ESaISE_EE12_M_drop_nodeEPSt13_Rb_tree_nodeISE_E = comdat any

$_ZNSt8_Rb_treeIN4cvc58internal8TypeNodeESt4pairIKS2_St3mapIjNS1_12NodeTemplateILb1EEESt4lessIjESaIS3_IKjS7_EEEESt10_Select1stISE_ES8_IS2_ESaISE_EE15_M_destroy_nodeEPSt13_Rb_tree_nodeISE_E = comdat any

$_ZNSt16allocator_traitsISaISt13_Rb_tree_nodeISt4pairIKN4cvc58internal8TypeNodeESt3mapIjNS3_12NodeTemplateILb1EEESt4lessIjESaIS1_IKjS8_EEEEEEE7destroyISF_EEvRSH_PT_ = comdat any

$_ZNSt15__new_allocatorISt13_Rb_tree_nodeISt4pairIKN4cvc58internal8TypeNodeESt3mapIjNS3_12NodeTemplateILb1EEESt4lessIjESaIS1_IKjS8_EEEEEE7destroyISF_EEvPT_ = comdat any

$_ZNSt4pairIKN4cvc58internal8TypeNodeESt3mapIjNS1_12NodeTemplateILb1EEESt4lessIjESaIS_IKjS6_EEEED2Ev = comdat any

$_ZNSt3mapIjN4cvc58internal12NodeTemplateILb1EEESt4lessIjESaISt4pairIKjS3_EEED2Ev = comdat any

$_ZNSt8_Rb_treeIjSt4pairIKjN4cvc58internal12NodeTemplateILb1EEEESt10_Select1stIS6_ESt4lessIjESaIS6_EED2Ev = comdat any

$_ZNSt8_Rb_treeIjSt4pairIKjN4cvc58internal12NodeTemplateILb1EEEESt10_Select1stIS6_ESt4lessIjESaIS6_EE8_M_beginEv = comdat any

$_ZNSt16allocator_traitsISaISt13_Rb_tree_nodeISt4pairIKN4cvc58internal8TypeNodeESt3mapIS4_S6_IjNS3_12NodeTemplateILb1EEESt4lessIjESaIS1_IKjS8_EEES9_IS4_ESaIS1_IS5_SE_EEEEEEE10deallocateERSL_PSK_m = comdat any

$_ZNSt15__new_allocatorISt13_Rb_tree_nodeISt4pairIKN4cvc58internal8TypeNodeESt3mapIS4_S6_IjNS3_12NodeTemplateILb1EEESt4lessIjESaIS1_IKjS8_EEES9_IS4_ESaIS1_IS5_SE_EEEEEE10deallocateEPSK_m = comdat any

$_ZN9__gnu_cxx16__aligned_membufISt4pairIKN4cvc58internal8TypeNodeESt3mapIS4_S6_IjNS3_12NodeTemplateILb1EEESt4lessIjESaIS1_IKjS8_EEES9_IS4_ESaIS1_IS5_SE_EEEEE6_M_ptrEv = comdat any

$_ZN9__gnu_cxx16__aligned_membufISt4pairIKN4cvc58internal8TypeNodeESt3mapIS4_S6_IjNS3_12NodeTemplateILb1EEESt4lessIjESaIS1_IKjS8_EEES9_IS4_ESaIS1_IS5_SE_EEEEE7_M_addrEv = comdat any

$_ZNSt8_Rb_treeIN4cvc58internal8TypeNodeESt4pairIKS2_St3mapIS2_S5_IjNS1_12NodeTemplateILb1EEESt4lessIjESaIS3_IKjS7_EEES8_IS2_ESaIS3_IS4_SD_EEEESt10_Select1stISI_ESE_SaISI_EE12_M_drop_nodeEPSt13_Rb_tree_nodeISI_E = comdat any

$_ZNSt8_Rb_treeIN4cvc58internal8TypeNodeESt4pairIKS2_St3mapIS2_S5_IjNS1_12NodeTemplateILb1EEESt4lessIjESaIS3_IKjS7_EEES8_IS2_ESaIS3_IS4_SD_EEEESt10_Select1stISI_ESE_SaISI_EE15_M_destroy_nodeEPSt13_Rb_tree_nodeISI_E = comdat any

$_ZNSt16allocator_traitsISaISt13_Rb_tree_nodeISt4pairIKN4cvc58internal8TypeNodeESt3mapIS4_S6_IjNS3_12NodeTemplateILb1EEESt4lessIjESaIS1_IKjS8_EEES9_IS4_ESaIS1_IS5_SE_EEEEEEE7destroyISJ_EEvRSL_PT_ = comdat any

$_ZNSt15__new_allocatorISt13_Rb_tree_nodeISt4pairIKN4cvc58internal8TypeNodeESt3mapIS4_S6_IjNS3_12NodeTemplateILb1EEESt4lessIjESaIS1_IKjS8_EEES9_IS4_ESaIS1_IS5_SE_EEEEEE7destroyISJ_EEvPT_ = comdat any

$_ZNSt4pairIKN4cvc58internal8TypeNodeESt3mapIS2_S4_IjNS1_12NodeTemplateILb1EEESt4lessIjESaIS_IKjS6_EEES7_IS2_ESaIS_IS3_SC_EEEED2Ev = comdat any

$_ZNSt3mapIN4cvc58internal8TypeNodeES_IjNS1_12NodeTemplateILb1EEESt4lessIjESaISt4pairIKjS4_EEES5_IS2_ESaIS7_IKS2_SB_EEED2Ev = comdat any

$_ZNSt8_Rb_treeIN4cvc58internal8TypeNodeESt4pairIKS2_St3mapIjNS1_12NodeTemplateILb1EEESt4lessIjESaIS3_IKjS7_EEEESt10_Select1stISE_ES8_IS2_ESaISE_EED2Ev = comdat any

$_ZNSt8_Rb_treeIN4cvc58internal8TypeNodeESt4pairIKS2_St3mapIjNS1_12NodeTemplateILb1EEESt4lessIjESaIS3_IKjS7_EEEESt10_Select1stISE_ES8_IS2_ESaISE_EE8_M_beginEv = comdat any

$_ZNSt8_Rb_treeIN4cvc58internal8TypeNodeESt4pairIKS2_NS1_16CardinalityClassEESt10_Select1stIS6_ESt4lessIS2_ESaIS6_EEC2ERKSC_ = comdat any

$_ZNSt8_Rb_treeIN4cvc58internal8TypeNodeESt4pairIKS2_NS1_16CardinalityClassEESt10_Select1stIS6_ESt4lessIS2_ESaIS6_EE13_Rb_tree_implISA_Lb1EEC2ERKSE_ = comdat any

$_ZNKSt8_Rb_treeIN4cvc58internal8TypeNodeESt4pairIKS2_NS1_16CardinalityClassEESt10_Select1stIS6_ESt4lessIS2_ESaIS6_EE7_M_rootEv = comdat any

$_ZNSt8_Rb_treeIN4cvc58internal8TypeNodeESt4pairIKS2_NS1_16CardinalityClassEESt10_Select1stIS6_ESt4lessIS2_ESaIS6_EE7_M_copyERKSC_ = comdat any

$_ZNSt8_Rb_treeIN4cvc58internal8TypeNodeESt4pairIKS2_NS1_16CardinalityClassEESt10_Select1stIS6_ESt4lessIS2_ESaIS6_EE7_M_rootEv = comdat any

$_ZNSt8_Rb_treeIN4cvc58internal8TypeNodeESt4pairIKS2_NS1_16CardinalityClassEESt10_Select1stIS6_ESt4lessIS2_ESaIS6_EE13_Rb_tree_implISA_Lb1EED2Ev = comdat any

$_ZN9__gnu_cxx14__alloc_traitsISaISt13_Rb_tree_nodeISt4pairIKN4cvc58internal8TypeNodeENS4_16CardinalityClassEEEES9_E17_S_select_on_copyERKSA_ = comdat any

$_ZNSaISt13_Rb_tree_nodeISt4pairIKN4cvc58internal8TypeNodeENS2_16CardinalityClassEEEED2Ev = comdat any

$_ZNSt16allocator_traitsISaISt13_Rb_tree_nodeISt4pairIKN4cvc58internal8TypeNodeENS3_16CardinalityClassEEEEE37select_on_container_copy_constructionERKS9_ = comdat any

$_ZNSaISt13_Rb_tree_nodeISt4pairIKN4cvc58internal8TypeNodeENS2_16CardinalityClassEEEEC2ERKS8_ = comdat any

$_ZNSt15__new_allocatorISt13_Rb_tree_nodeISt4pairIKN4cvc58internal8TypeNodeENS3_16CardinalityClassEEEEC2ERKS9_ = comdat any

$_ZNSt15__new_allocatorISt13_Rb_tree_nodeISt4pairIKN4cvc58internal8TypeNodeENS3_16CardinalityClassEEEED2Ev = comdat any

$_ZNSt8_Rb_treeIN4cvc58internal8TypeNodeESt4pairIKS2_NS1_16CardinalityClassEESt10_Select1stIS6_ESt4lessIS2_ESaIS6_EE11_Alloc_nodeC2ERSC_ = comdat any

$_ZNSt8_Rb_treeIN4cvc58internal8TypeNodeESt4pairIKS2_NS1_16CardinalityClassEESt10_Select1stIS6_ESt4lessIS2_ESaIS6_EE7_M_copyILb0ENSC_11_Alloc_nodeEEEPSt13_Rb_tree_nodeIS6_ERKSC_RT0_ = comdat any

$_ZNSt8_Rb_treeIN4cvc58internal8TypeNodeESt4pairIKS2_NS1_16CardinalityClassEESt10_Select1stIS6_ESt4lessIS2_ESaIS6_EE7_M_copyILb0ENSC_11_Alloc_nodeEEEPSt13_Rb_tree_nodeIS6_ESH_PSt18_Rb_tree_node_baseRT0_ = comdat any

$_ZNKSt8_Rb_treeIN4cvc58internal8TypeNodeESt4pairIKS2_NS1_16CardinalityClassEESt10_Select1stIS6_ESt4lessIS2_ESaIS6_EE9_M_mbeginEv = comdat any

$_ZNSt8_Rb_treeIN4cvc58internal8TypeNodeESt4pairIKS2_NS1_16CardinalityClassEESt10_Select1stIS6_ESt4lessIS2_ESaIS6_EE6_M_endEv = comdat any

$_ZNSt8_Rb_treeIN4cvc58internal8TypeNodeESt4pairIKS2_NS1_16CardinalityClassEESt10_Select1stIS6_ESt4lessIS2_ESaIS6_EE10_S_minimumEPSt18_Rb_tree_node_base = comdat any

$_ZNSt8_Rb_treeIN4cvc58internal8TypeNodeESt4pairIKS2_NS1_16CardinalityClassEESt10_Select1stIS6_ESt4lessIS2_ESaIS6_EE11_M_leftmostEv = comdat any

$_ZNSt8_Rb_treeIN4cvc58internal8TypeNodeESt4pairIKS2_NS1_16CardinalityClassEESt10_Select1stIS6_ESt4lessIS2_ESaIS6_EE10_S_maximumEPSt18_Rb_tree_node_base = comdat any

$_ZNSt8_Rb_treeIN4cvc58internal8TypeNodeESt4pairIKS2_NS1_16CardinalityClassEESt10_Select1stIS6_ESt4lessIS2_ESaIS6_EE12_M_rightmostEv = comdat any

$_ZNSt8_Rb_treeIN4cvc58internal8TypeNodeESt4pairIKS2_NS1_16CardinalityClassEESt10_Select1stIS6_ESt4lessIS2_ESaIS6_EE13_M_clone_nodeILb0ENSC_11_Alloc_nodeEEEPSt13_Rb_tree_nodeIS6_ESH_RT0_ = comdat any

$_ZNSt8_Rb_treeIN4cvc58internal8TypeNodeESt4pairIKS2_NS1_16CardinalityClassEESt10_Select1stIS6_ESt4lessIS2_ESaIS6_EE8_S_rightEPSt18_Rb_tree_node_base = comdat any

$_ZNSt8_Rb_treeIN4cvc58internal8TypeNodeESt4pairIKS2_NS1_16CardinalityClassEESt10_Select1stIS6_ESt4lessIS2_ESaIS6_EE7_S_leftEPSt18_Rb_tree_node_base = comdat any

$_ZNSt8_Rb_treeIN4cvc58internal8TypeNodeESt4pairIKS2_NS1_16CardinalityClassEESt10_Select1stIS6_ESt4lessIS2_ESaIS6_EE8_M_eraseEPSt13_Rb_tree_nodeIS6_E = comdat any

$_ZNKSt8_Rb_treeIN4cvc58internal8TypeNodeESt4pairIKS2_NS1_16CardinalityClassEESt10_Select1stIS6_ESt4lessIS2_ESaIS6_EE11_Alloc_nodeclIRKS6_EEPSt13_Rb_tree_nodeIS6_EOT_ = comdat any

$_ZNSt13_Rb_tree_nodeISt4pairIKN4cvc58internal8TypeNodeENS2_16CardinalityClassEEE9_M_valptrEv = comdat any

$_ZNSt8_Rb_treeIN4cvc58internal8TypeNodeESt4pairIKS2_NS1_16CardinalityClassEESt10_Select1stIS6_ESt4lessIS2_ESaIS6_EE14_M_create_nodeIJRKS6_EEEPSt13_Rb_tree_nodeIS6_EDpOT_ = comdat any

$_ZNSt8_Rb_treeIN4cvc58internal8TypeNodeESt4pairIKS2_NS1_16CardinalityClassEESt10_Select1stIS6_ESt4lessIS2_ESaIS6_EE11_M_get_nodeEv = comdat any

$_ZNSt8_Rb_treeIN4cvc58internal8TypeNodeESt4pairIKS2_NS1_16CardinalityClassEESt10_Select1stIS6_ESt4lessIS2_ESaIS6_EE17_M_construct_nodeIJRKS6_EEEvPSt13_Rb_tree_nodeIS6_EDpOT_ = comdat any

$_ZNSt16allocator_traitsISaISt13_Rb_tree_nodeISt4pairIKN4cvc58internal8TypeNodeENS3_16CardinalityClassEEEEE8allocateERS9_m = comdat any

$_ZNSt8_Rb_treeIN4cvc58internal8TypeNodeESt4pairIKS2_NS1_16CardinalityClassEESt10_Select1stIS6_ESt4lessIS2_ESaIS6_EE21_M_get_Node_allocatorEv = comdat any

$_ZNSt15__new_allocatorISt13_Rb_tree_nodeISt4pairIKN4cvc58internal8TypeNodeENS3_16CardinalityClassEEEE8allocateEmPKv = comdat any

$_ZNKSt15__new_allocatorISt13_Rb_tree_nodeISt4pairIKN4cvc58internal8TypeNodeENS3_16CardinalityClassEEEE11_M_max_sizeEv = comdat any

$_ZNSt16allocator_traitsISaISt13_Rb_tree_nodeISt4pairIKN4cvc58internal8TypeNodeENS3_16CardinalityClassEEEEE9constructIS7_JRKS7_EEEvRS9_PT_DpOT0_ = comdat any

$_ZNSt8_Rb_treeIN4cvc58internal8TypeNodeESt4pairIKS2_NS1_16CardinalityClassEESt10_Select1stIS6_ESt4lessIS2_ESaIS6_EE11_M_put_nodeEPSt13_Rb_tree_nodeIS6_E = comdat any

$_ZNSt15__new_allocatorISt13_Rb_tree_nodeISt4pairIKN4cvc58internal8TypeNodeENS3_16CardinalityClassEEEE9constructIS7_JRKS7_EEEvPT_DpOT0_ = comdat any

$_ZNSt4pairIKN4cvc58internal8TypeNodeENS1_16CardinalityClassEEC2ERKS5_ = comdat any

$_ZNSt16allocator_traitsISaISt13_Rb_tree_nodeISt4pairIKN4cvc58internal8TypeNodeENS3_16CardinalityClassEEEEE10deallocateERS9_PS8_m = comdat any

$_ZNSt15__new_allocatorISt13_Rb_tree_nodeISt4pairIKN4cvc58internal8TypeNodeENS3_16CardinalityClassEEEE10deallocateEPS8_m = comdat any

$_ZN9__gnu_cxx16__aligned_membufISt4pairIKN4cvc58internal8TypeNodeENS3_16CardinalityClassEEE6_M_ptrEv = comdat any

$_ZN9__gnu_cxx16__aligned_membufISt4pairIKN4cvc58internal8TypeNodeENS3_16CardinalityClassEEE7_M_addrEv = comdat any

$_ZNSt8_Rb_treeIN4cvc58internal8TypeNodeESt4pairIKS2_NS1_16CardinalityClassEESt10_Select1stIS6_ESt4lessIS2_ESaIS6_EE12_M_drop_nodeEPSt13_Rb_tree_nodeIS6_E = comdat any

$_ZNSt8_Rb_treeIN4cvc58internal8TypeNodeESt4pairIKS2_NS1_16CardinalityClassEESt10_Select1stIS6_ESt4lessIS2_ESaIS6_EE15_M_destroy_nodeEPSt13_Rb_tree_nodeIS6_E = comdat any

$_ZNSt16allocator_traitsISaISt13_Rb_tree_nodeISt4pairIKN4cvc58internal8TypeNodeENS3_16CardinalityClassEEEEE7destroyIS7_EEvRS9_PT_ = comdat any

$_ZNSt15__new_allocatorISt13_Rb_tree_nodeISt4pairIKN4cvc58internal8TypeNodeENS3_16CardinalityClassEEEE7destroyIS7_EEvPT_ = comdat any

$_ZNSt4pairIKN4cvc58internal8TypeNodeENS1_16CardinalityClassEED2Ev = comdat any

$_ZNSt8_Rb_treeIN4cvc58internal8TypeNodeESt4pairIKS2_St3mapIS2_S5_IjNS1_12NodeTemplateILb1EEESt4lessIjESaIS3_IKjS7_EEES8_IS2_ESaIS3_IS4_SD_EEEESt10_Select1stISI_ESE_SaISI_EED2Ev = comdat any

$_ZNSt8_Rb_treeIN4cvc58internal8TypeNodeESt4pairIKS2_St3mapIS2_S5_IjNS1_12NodeTemplateILb1EEESt4lessIjESaIS3_IKjS7_EEES8_IS2_ESaIS3_IS4_SD_EEEESt10_Select1stISI_ESE_SaISI_EE8_M_beginEv = comdat any

$_ZNSt8_Rb_treeIN4cvc58internal8TypeNodeESt4pairIKS2_NS1_12NodeTemplateILb1EEEESt10_Select1stIS7_ESt4lessIS2_ESaIS7_EED2Ev = comdat any

$_ZNSt8_Rb_treeIN4cvc58internal8TypeNodeESt4pairIKS2_NS1_12NodeTemplateILb1EEEESt10_Select1stIS7_ESt4lessIS2_ESaIS7_EE8_M_beginEv = comdat any

$_ZNSt8_Rb_treeIN4cvc58internal8TypeNodeESt4pairIKS2_St6vectorIS2_SaIS2_EEESt10_Select1stIS8_ESt4lessIS2_ESaIS8_EED2Ev = comdat any

$_ZNSt8_Rb_treeIN4cvc58internal8TypeNodeESt4pairIKS2_St6vectorIS2_SaIS2_EEESt10_Select1stIS8_ESt4lessIS2_ESaIS8_EE8_M_beginEv = comdat any

$_ZNSt8_Rb_treeIN4cvc58internal8TypeNodeESt4pairIKS2_iESt10_Select1stIS5_ESt4lessIS2_ESaIS5_EED2Ev = comdat any

$_ZNSt8_Rb_treeIN4cvc58internal8TypeNodeESt4pairIKS2_iESt10_Select1stIS5_ESt4lessIS2_ESaIS5_EE8_M_beginEv = comdat any

$_ZN4cvc58internal7IntegerD2Ev = comdat any

$_ZN10__gmp_exprIA1_12__mpz_structS1_ED2Ev = comdat any

$_ZSt8_DestroyIPSt10shared_ptrIN4cvc58internal16DTypeConstructorEES4_EvT_S6_RSaIT0_E = comdat any

$_ZNSt8_Rb_treeIN4cvc58internal12NodeTemplateILb1EEESt4pairIKS3_NS1_8TypeNodeEESt10_Select1stIS7_ESt4lessIS3_ESaIS7_EED2Ev = comdat any

$_ZNSt8_Rb_treeIN4cvc58internal12NodeTemplateILb1EEESt4pairIKS3_NS1_8TypeNodeEESt10_Select1stIS7_ESt4lessIS3_ESaIS7_EE8_M_eraseEPSt13_Rb_tree_nodeIS7_E = comdat any

$_ZNSt8_Rb_treeIN4cvc58internal12NodeTemplateILb1EEESt4pairIKS3_NS1_8TypeNodeEESt10_Select1stIS7_ESt4lessIS3_ESaIS7_EE8_M_beginEv = comdat any

$_ZNSt8_Rb_treeIN4cvc58internal12NodeTemplateILb1EEESt4pairIKS3_NS1_8TypeNodeEESt10_Select1stIS7_ESt4lessIS3_ESaIS7_EE13_Rb_tree_implISB_Lb1EED2Ev = comdat any

$_ZNSt8_Rb_treeIN4cvc58internal12NodeTemplateILb1EEESt4pairIKS3_NS1_8TypeNodeEESt10_Select1stIS7_ESt4lessIS3_ESaIS7_EE8_S_rightEPSt18_Rb_tree_node_base = comdat any

$_ZNSt8_Rb_treeIN4cvc58internal12NodeTemplateILb1EEESt4pairIKS3_NS1_8TypeNodeEESt10_Select1stIS7_ESt4lessIS3_ESaIS7_EE7_S_leftEPSt18_Rb_tree_node_base = comdat any

$_ZNSt8_Rb_treeIN4cvc58internal12NodeTemplateILb1EEESt4pairIKS3_NS1_8TypeNodeEESt10_Select1stIS7_ESt4lessIS3_ESaIS7_EE12_M_drop_nodeEPSt13_Rb_tree_nodeIS7_E = comdat any

$_ZNSt8_Rb_treeIN4cvc58internal12NodeTemplateILb1EEESt4pairIKS3_NS1_8TypeNodeEESt10_Select1stIS7_ESt4lessIS3_ESaIS7_EE15_M_destroy_nodeEPSt13_Rb_tree_nodeIS7_E = comdat any

$_ZNSt8_Rb_treeIN4cvc58internal12NodeTemplateILb1EEESt4pairIKS3_NS1_8TypeNodeEESt10_Select1stIS7_ESt4lessIS3_ESaIS7_EE11_M_put_nodeEPSt13_Rb_tree_nodeIS7_E = comdat any

$_ZNSt16allocator_traitsISaISt13_Rb_tree_nodeISt4pairIKN4cvc58internal12NodeTemplateILb1EEENS3_8TypeNodeEEEEE7destroyIS8_EEvRSA_PT_ = comdat any

$_ZNSt8_Rb_treeIN4cvc58internal12NodeTemplateILb1EEESt4pairIKS3_NS1_8TypeNodeEESt10_Select1stIS7_ESt4lessIS3_ESaIS7_EE21_M_get_Node_allocatorEv = comdat any

$_ZNSt13_Rb_tree_nodeISt4pairIKN4cvc58internal12NodeTemplateILb1EEENS2_8TypeNodeEEE9_M_valptrEv = comdat any

$_ZNSt15__new_allocatorISt13_Rb_tree_nodeISt4pairIKN4cvc58internal12NodeTemplateILb1EEENS3_8TypeNodeEEEE7destroyIS8_EEvPT_ = comdat any

$_ZNSt4pairIKN4cvc58internal12NodeTemplateILb1EEENS1_8TypeNodeEED2Ev = comdat any

$_ZN9__gnu_cxx16__aligned_membufISt4pairIKN4cvc58internal12NodeTemplateILb1EEENS3_8TypeNodeEEE6_M_ptrEv = comdat any

$_ZN9__gnu_cxx16__aligned_membufISt4pairIKN4cvc58internal12NodeTemplateILb1EEENS3_8TypeNodeEEE7_M_addrEv = comdat any

$_ZNSt16allocator_traitsISaISt13_Rb_tree_nodeISt4pairIKN4cvc58internal12NodeTemplateILb1EEENS3_8TypeNodeEEEEE10deallocateERSA_PS9_m = comdat any

$_ZNSt15__new_allocatorISt13_Rb_tree_nodeISt4pairIKN4cvc58internal12NodeTemplateILb1EEENS3_8TypeNodeEEEE10deallocateEPS9_m = comdat any

$_ZNKSt8_Rb_treeIN4cvc58internal12NodeTemplateILb1EEESt4pairIKS3_NS1_8TypeNodeEESt10_Select1stIS7_ESt4lessIS3_ESaIS7_EE9_M_mbeginEv = comdat any

$_ZNSaISt13_Rb_tree_nodeISt4pairIKN4cvc58internal12NodeTemplateILb1EEENS2_8TypeNodeEEEED2Ev = comdat any

$_ZNSt15__new_allocatorISt13_Rb_tree_nodeISt4pairIKN4cvc58internal12NodeTemplateILb1EEENS3_8TypeNodeEEEED2Ev = comdat any

$_ZNSt3mapIN4cvc58internal12NodeTemplateILb1EEEmSt4lessIS3_ESaISt4pairIKS3_mEEED2Ev = comdat any

$_ZNSt3mapISt4pairIN4cvc58internal8TypeNodeEjESt6vectorINS2_12NodeTemplateILb1EEESaIS7_EESt4lessIS4_ESaIS0_IKS4_S9_EEED2Ev = comdat any

$_ZNSt3mapIN4cvc58internal12NodeTemplateILb1EEEiSt4lessIS3_ESaISt4pairIKS3_iEEED2Ev = comdat any

$_ZNSt8_Rb_treeIN4cvc58internal12NodeTemplateILb1EEESt4pairIKS3_mESt10_Select1stIS6_ESt4lessIS3_ESaIS6_EED2Ev = comdat any

$_ZNSt8_Rb_treeIN4cvc58internal12NodeTemplateILb1EEESt4pairIKS3_mESt10_Select1stIS6_ESt4lessIS3_ESaIS6_EE8_M_eraseEPSt13_Rb_tree_nodeIS6_E = comdat any

$_ZNSt8_Rb_treeIN4cvc58internal12NodeTemplateILb1EEESt4pairIKS3_mESt10_Select1stIS6_ESt4lessIS3_ESaIS6_EE8_M_beginEv = comdat any

$_ZNSt8_Rb_treeIN4cvc58internal12NodeTemplateILb1EEESt4pairIKS3_mESt10_Select1stIS6_ESt4lessIS3_ESaIS6_EE13_Rb_tree_implISA_Lb1EED2Ev = comdat any

$_ZNSt8_Rb_treeIN4cvc58internal12NodeTemplateILb1EEESt4pairIKS3_mESt10_Select1stIS6_ESt4lessIS3_ESaIS6_EE8_S_rightEPSt18_Rb_tree_node_base = comdat any

$_ZNSt8_Rb_treeIN4cvc58internal12NodeTemplateILb1EEESt4pairIKS3_mESt10_Select1stIS6_ESt4lessIS3_ESaIS6_EE7_S_leftEPSt18_Rb_tree_node_base = comdat any

$_ZNSt8_Rb_treeIN4cvc58internal12NodeTemplateILb1EEESt4pairIKS3_mESt10_Select1stIS6_ESt4lessIS3_ESaIS6_EE12_M_drop_nodeEPSt13_Rb_tree_nodeIS6_E = comdat any

$_ZNSt8_Rb_treeIN4cvc58internal12NodeTemplateILb1EEESt4pairIKS3_mESt10_Select1stIS6_ESt4lessIS3_ESaIS6_EE15_M_destroy_nodeEPSt13_Rb_tree_nodeIS6_E = comdat any

$_ZNSt8_Rb_treeIN4cvc58internal12NodeTemplateILb1EEESt4pairIKS3_mESt10_Select1stIS6_ESt4lessIS3_ESaIS6_EE11_M_put_nodeEPSt13_Rb_tree_nodeIS6_E = comdat any

$_ZNSt16allocator_traitsISaISt13_Rb_tree_nodeISt4pairIKN4cvc58internal12NodeTemplateILb1EEEmEEEE7destroyIS7_EEvRS9_PT_ = comdat any

$_ZNSt8_Rb_treeIN4cvc58internal12NodeTemplateILb1EEESt4pairIKS3_mESt10_Select1stIS6_ESt4lessIS3_ESaIS6_EE21_M_get_Node_allocatorEv = comdat any

$_ZNSt13_Rb_tree_nodeISt4pairIKN4cvc58internal12NodeTemplateILb1EEEmEE9_M_valptrEv = comdat any

$_ZNSt15__new_allocatorISt13_Rb_tree_nodeISt4pairIKN4cvc58internal12NodeTemplateILb1EEEmEEE7destroyIS7_EEvPT_ = comdat any

$_ZNSt4pairIKN4cvc58internal12NodeTemplateILb1EEEmED2Ev = comdat any

$_ZN9__gnu_cxx16__aligned_membufISt4pairIKN4cvc58internal12NodeTemplateILb1EEEmEE6_M_ptrEv = comdat any

$_ZN9__gnu_cxx16__aligned_membufISt4pairIKN4cvc58internal12NodeTemplateILb1EEEmEE7_M_addrEv = comdat any

$_ZNSt16allocator_traitsISaISt13_Rb_tree_nodeISt4pairIKN4cvc58internal12NodeTemplateILb1EEEmEEEE10deallocateERS9_PS8_m = comdat any

$_ZNSt15__new_allocatorISt13_Rb_tree_nodeISt4pairIKN4cvc58internal12NodeTemplateILb1EEEmEEE10deallocateEPS8_m = comdat any

$_ZNKSt8_Rb_treeIN4cvc58internal12NodeTemplateILb1EEESt4pairIKS3_mESt10_Select1stIS6_ESt4lessIS3_ESaIS6_EE9_M_mbeginEv = comdat any

$_ZNSaISt13_Rb_tree_nodeISt4pairIKN4cvc58internal12NodeTemplateILb1EEEmEEED2Ev = comdat any

$_ZNSt15__new_allocatorISt13_Rb_tree_nodeISt4pairIKN4cvc58internal12NodeTemplateILb1EEEmEEED2Ev = comdat any

$_ZNSt8_Rb_treeISt4pairIN4cvc58internal8TypeNodeEjES0_IKS4_St6vectorINS2_12NodeTemplateILb1EEESaIS8_EEESt10_Select1stISB_ESt4lessIS4_ESaISB_EED2Ev = comdat any

$_ZNSt8_Rb_treeISt4pairIN4cvc58internal8TypeNodeEjES0_IKS4_St6vectorINS2_12NodeTemplateILb1EEESaIS8_EEESt10_Select1stISB_ESt4lessIS4_ESaISB_EE8_M_eraseEPSt13_Rb_tree_nodeISB_E = comdat any

$_ZNSt8_Rb_treeISt4pairIN4cvc58internal8TypeNodeEjES0_IKS4_St6vectorINS2_12NodeTemplateILb1EEESaIS8_EEESt10_Select1stISB_ESt4lessIS4_ESaISB_EE8_M_beginEv = comdat any

$_ZNSt8_Rb_treeISt4pairIN4cvc58internal8TypeNodeEjES0_IKS4_St6vectorINS2_12NodeTemplateILb1EEESaIS8_EEESt10_Select1stISB_ESt4lessIS4_ESaISB_EE13_Rb_tree_implISF_Lb1EED2Ev = comdat any

$_ZNSt8_Rb_treeISt4pairIN4cvc58internal8TypeNodeEjES0_IKS4_St6vectorINS2_12NodeTemplateILb1EEESaIS8_EEESt10_Select1stISB_ESt4lessIS4_ESaISB_EE8_S_rightEPSt18_Rb_tree_node_base = comdat any

$_ZNSt8_Rb_treeISt4pairIN4cvc58internal8TypeNodeEjES0_IKS4_St6vectorINS2_12NodeTemplateILb1EEESaIS8_EEESt10_Select1stISB_ESt4lessIS4_ESaISB_EE7_S_leftEPSt18_Rb_tree_node_base = comdat any

$_ZNSt8_Rb_treeISt4pairIN4cvc58internal8TypeNodeEjES0_IKS4_St6vectorINS2_12NodeTemplateILb1EEESaIS8_EEESt10_Select1stISB_ESt4lessIS4_ESaISB_EE12_M_drop_nodeEPSt13_Rb_tree_nodeISB_E = comdat any

$_ZNSt8_Rb_treeISt4pairIN4cvc58internal8TypeNodeEjES0_IKS4_St6vectorINS2_12NodeTemplateILb1EEESaIS8_EEESt10_Select1stISB_ESt4lessIS4_ESaISB_EE15_M_destroy_nodeEPSt13_Rb_tree_nodeISB_E = comdat any

$_ZNSt8_Rb_treeISt4pairIN4cvc58internal8TypeNodeEjES0_IKS4_St6vectorINS2_12NodeTemplateILb1EEESaIS8_EEESt10_Select1stISB_ESt4lessIS4_ESaISB_EE11_M_put_nodeEPSt13_Rb_tree_nodeISB_E = comdat any

$_ZNSt16allocator_traitsISaISt13_Rb_tree_nodeISt4pairIKS1_IN4cvc58internal8TypeNodeEjESt6vectorINS3_12NodeTemplateILb1EEESaIS9_EEEEEE7destroyISC_EEvRSE_PT_ = comdat any

$_ZNSt8_Rb_treeISt4pairIN4cvc58internal8TypeNodeEjES0_IKS4_St6vectorINS2_12NodeTemplateILb1EEESaIS8_EEESt10_Select1stISB_ESt4lessIS4_ESaISB_EE21_M_get_Node_allocatorEv = comdat any

$_ZNSt13_Rb_tree_nodeISt4pairIKS0_IN4cvc58internal8TypeNodeEjESt6vectorINS2_12NodeTemplateILb1EEESaIS8_EEEE9_M_valptrEv = comdat any

$_ZNSt15__new_allocatorISt13_Rb_tree_nodeISt4pairIKS1_IN4cvc58internal8TypeNodeEjESt6vectorINS3_12NodeTemplateILb1EEESaIS9_EEEEE7destroyISC_EEvPT_ = comdat any

$_ZNSt4pairIKS_IN4cvc58internal8TypeNodeEjESt6vectorINS1_12NodeTemplateILb1EEESaIS7_EEED2Ev = comdat any

$_ZNSt4pairIN4cvc58internal8TypeNodeEjED2Ev = comdat any

$_ZN9__gnu_cxx16__aligned_membufISt4pairIKS1_IN4cvc58internal8TypeNodeEjESt6vectorINS3_12NodeTemplateILb1EEESaIS9_EEEE6_M_ptrEv = comdat any

$_ZN9__gnu_cxx16__aligned_membufISt4pairIKS1_IN4cvc58internal8TypeNodeEjESt6vectorINS3_12NodeTemplateILb1EEESaIS9_EEEE7_M_addrEv = comdat any

$_ZNSt16allocator_traitsISaISt13_Rb_tree_nodeISt4pairIKS1_IN4cvc58internal8TypeNodeEjESt6vectorINS3_12NodeTemplateILb1EEESaIS9_EEEEEE10deallocateERSE_PSD_m = comdat any

$_ZNSt15__new_allocatorISt13_Rb_tree_nodeISt4pairIKS1_IN4cvc58internal8TypeNodeEjESt6vectorINS3_12NodeTemplateILb1EEESaIS9_EEEEE10deallocateEPSD_m = comdat any

$_ZNKSt8_Rb_treeISt4pairIN4cvc58internal8TypeNodeEjES0_IKS4_St6vectorINS2_12NodeTemplateILb1EEESaIS8_EEESt10_Select1stISB_ESt4lessIS4_ESaISB_EE9_M_mbeginEv = comdat any

$_ZNSaISt13_Rb_tree_nodeISt4pairIKS0_IN4cvc58internal8TypeNodeEjESt6vectorINS2_12NodeTemplateILb1EEESaIS8_EEEEED2Ev = comdat any

$_ZNSt15__new_allocatorISt13_Rb_tree_nodeISt4pairIKS1_IN4cvc58internal8TypeNodeEjESt6vectorINS3_12NodeTemplateILb1EEESaIS9_EEEEED2Ev = comdat any

$_ZNSt8_Rb_treeIN4cvc58internal12NodeTemplateILb1EEESt4pairIKS3_iESt10_Select1stIS6_ESt4lessIS3_ESaIS6_EED2Ev = comdat any

$_ZNSt8_Rb_treeIN4cvc58internal12NodeTemplateILb1EEESt4pairIKS3_iESt10_Select1stIS6_ESt4lessIS3_ESaIS6_EE8_M_eraseEPSt13_Rb_tree_nodeIS6_E = comdat any

$_ZNSt8_Rb_treeIN4cvc58internal12NodeTemplateILb1EEESt4pairIKS3_iESt10_Select1stIS6_ESt4lessIS3_ESaIS6_EE8_M_beginEv = comdat any

$_ZNSt8_Rb_treeIN4cvc58internal12NodeTemplateILb1EEESt4pairIKS3_iESt10_Select1stIS6_ESt4lessIS3_ESaIS6_EE13_Rb_tree_implISA_Lb1EED2Ev = comdat any

$_ZNSt8_Rb_treeIN4cvc58internal12NodeTemplateILb1EEESt4pairIKS3_iESt10_Select1stIS6_ESt4lessIS3_ESaIS6_EE8_S_rightEPSt18_Rb_tree_node_base = comdat any

$_ZNSt8_Rb_treeIN4cvc58internal12NodeTemplateILb1EEESt4pairIKS3_iESt10_Select1stIS6_ESt4lessIS3_ESaIS6_EE7_S_leftEPSt18_Rb_tree_node_base = comdat any

$_ZNSt8_Rb_treeIN4cvc58internal12NodeTemplateILb1EEESt4pairIKS3_iESt10_Select1stIS6_ESt4lessIS3_ESaIS6_EE12_M_drop_nodeEPSt13_Rb_tree_nodeIS6_E = comdat any

$_ZNSt8_Rb_treeIN4cvc58internal12NodeTemplateILb1EEESt4pairIKS3_iESt10_Select1stIS6_ESt4lessIS3_ESaIS6_EE15_M_destroy_nodeEPSt13_Rb_tree_nodeIS6_E = comdat any

$_ZNSt8_Rb_treeIN4cvc58internal12NodeTemplateILb1EEESt4pairIKS3_iESt10_Select1stIS6_ESt4lessIS3_ESaIS6_EE11_M_put_nodeEPSt13_Rb_tree_nodeIS6_E = comdat any

$_ZNSt16allocator_traitsISaISt13_Rb_tree_nodeISt4pairIKN4cvc58internal12NodeTemplateILb1EEEiEEEE7destroyIS7_EEvRS9_PT_ = comdat any

$_ZNSt8_Rb_treeIN4cvc58internal12NodeTemplateILb1EEESt4pairIKS3_iESt10_Select1stIS6_ESt4lessIS3_ESaIS6_EE21_M_get_Node_allocatorEv = comdat any

$_ZNSt13_Rb_tree_nodeISt4pairIKN4cvc58internal12NodeTemplateILb1EEEiEE9_M_valptrEv = comdat any

$_ZNSt15__new_allocatorISt13_Rb_tree_nodeISt4pairIKN4cvc58internal12NodeTemplateILb1EEEiEEE7destroyIS7_EEvPT_ = comdat any

$_ZNSt4pairIKN4cvc58internal12NodeTemplateILb1EEEiED2Ev = comdat any

$_ZN9__gnu_cxx16__aligned_membufISt4pairIKN4cvc58internal12NodeTemplateILb1EEEiEE6_M_ptrEv = comdat any

$_ZN9__gnu_cxx16__aligned_membufISt4pairIKN4cvc58internal12NodeTemplateILb1EEEiEE7_M_addrEv = comdat any

$_ZNSt16allocator_traitsISaISt13_Rb_tree_nodeISt4pairIKN4cvc58internal12NodeTemplateILb1EEEiEEEE10deallocateERS9_PS8_m = comdat any

$_ZNSt15__new_allocatorISt13_Rb_tree_nodeISt4pairIKN4cvc58internal12NodeTemplateILb1EEEiEEE10deallocateEPS8_m = comdat any

$_ZNKSt8_Rb_treeIN4cvc58internal12NodeTemplateILb1EEESt4pairIKS3_iESt10_Select1stIS6_ESt4lessIS3_ESaIS6_EE9_M_mbeginEv = comdat any

$_ZNSaISt13_Rb_tree_nodeISt4pairIKN4cvc58internal12NodeTemplateILb1EEEiEEED2Ev = comdat any

$_ZNSt15__new_allocatorISt13_Rb_tree_nodeISt4pairIKN4cvc58internal12NodeTemplateILb1EEEiEEED2Ev = comdat any

$_ZNSt8_Rb_treeIN4cvc58internal8TypeNodeESt4pairIKS2_St6vectorINS1_12NodeTemplateILb1EEESaIS7_EEESt10_Select1stISA_ESt4lessIS2_ESaISA_EED2Ev = comdat any

$_ZNSt8_Rb_treeIN4cvc58internal8TypeNodeESt4pairIKS2_St6vectorINS1_12NodeTemplateILb1EEESaIS7_EEESt10_Select1stISA_ESt4lessIS2_ESaISA_EE8_M_eraseEPSt13_Rb_tree_nodeISA_E = comdat any

$_ZNSt8_Rb_treeIN4cvc58internal8TypeNodeESt4pairIKS2_St6vectorINS1_12NodeTemplateILb1EEESaIS7_EEESt10_Select1stISA_ESt4lessIS2_ESaISA_EE8_M_beginEv = comdat any

$_ZNSt8_Rb_treeIN4cvc58internal8TypeNodeESt4pairIKS2_St6vectorINS1_12NodeTemplateILb1EEESaIS7_EEESt10_Select1stISA_ESt4lessIS2_ESaISA_EE13_Rb_tree_implISE_Lb1EED2Ev = comdat any

$_ZNSt8_Rb_treeIN4cvc58internal8TypeNodeESt4pairIKS2_St6vectorINS1_12NodeTemplateILb1EEESaIS7_EEESt10_Select1stISA_ESt4lessIS2_ESaISA_EE8_S_rightEPSt18_Rb_tree_node_base = comdat any

$_ZNSt8_Rb_treeIN4cvc58internal8TypeNodeESt4pairIKS2_St6vectorINS1_12NodeTemplateILb1EEESaIS7_EEESt10_Select1stISA_ESt4lessIS2_ESaISA_EE7_S_leftEPSt18_Rb_tree_node_base = comdat any

$_ZNSt8_Rb_treeIN4cvc58internal8TypeNodeESt4pairIKS2_St6vectorINS1_12NodeTemplateILb1EEESaIS7_EEESt10_Select1stISA_ESt4lessIS2_ESaISA_EE12_M_drop_nodeEPSt13_Rb_tree_nodeISA_E = comdat any

$_ZNSt8_Rb_treeIN4cvc58internal8TypeNodeESt4pairIKS2_St6vectorINS1_12NodeTemplateILb1EEESaIS7_EEESt10_Select1stISA_ESt4lessIS2_ESaISA_EE15_M_destroy_nodeEPSt13_Rb_tree_nodeISA_E = comdat any

$_ZNSt8_Rb_treeIN4cvc58internal8TypeNodeESt4pairIKS2_St6vectorINS1_12NodeTemplateILb1EEESaIS7_EEESt10_Select1stISA_ESt4lessIS2_ESaISA_EE11_M_put_nodeEPSt13_Rb_tree_nodeISA_E = comdat any

$_ZNSt16allocator_traitsISaISt13_Rb_tree_nodeISt4pairIKN4cvc58internal8TypeNodeESt6vectorINS3_12NodeTemplateILb1EEESaIS8_EEEEEE7destroyISB_EEvRSD_PT_ = comdat any

$_ZNSt8_Rb_treeIN4cvc58internal8TypeNodeESt4pairIKS2_St6vectorINS1_12NodeTemplateILb1EEESaIS7_EEESt10_Select1stISA_ESt4lessIS2_ESaISA_EE21_M_get_Node_allocatorEv = comdat any

$_ZNSt13_Rb_tree_nodeISt4pairIKN4cvc58internal8TypeNodeESt6vectorINS2_12NodeTemplateILb1EEESaIS7_EEEE9_M_valptrEv = comdat any

$_ZNSt15__new_allocatorISt13_Rb_tree_nodeISt4pairIKN4cvc58internal8TypeNodeESt6vectorINS3_12NodeTemplateILb1EEESaIS8_EEEEE7destroyISB_EEvPT_ = comdat any

$_ZNSt4pairIKN4cvc58internal8TypeNodeESt6vectorINS1_12NodeTemplateILb1EEESaIS6_EEED2Ev = comdat any

$_ZN9__gnu_cxx16__aligned_membufISt4pairIKN4cvc58internal8TypeNodeESt6vectorINS3_12NodeTemplateILb1EEESaIS8_EEEE6_M_ptrEv = comdat any

$_ZN9__gnu_cxx16__aligned_membufISt4pairIKN4cvc58internal8TypeNodeESt6vectorINS3_12NodeTemplateILb1EEESaIS8_EEEE7_M_addrEv = comdat any

$_ZNSt16allocator_traitsISaISt13_Rb_tree_nodeISt4pairIKN4cvc58internal8TypeNodeESt6vectorINS3_12NodeTemplateILb1EEESaIS8_EEEEEE10deallocateERSD_PSC_m = comdat any

$_ZNSt15__new_allocatorISt13_Rb_tree_nodeISt4pairIKN4cvc58internal8TypeNodeESt6vectorINS3_12NodeTemplateILb1EEESaIS8_EEEEE10deallocateEPSC_m = comdat any

$_ZNKSt8_Rb_treeIN4cvc58internal8TypeNodeESt4pairIKS2_St6vectorINS1_12NodeTemplateILb1EEESaIS7_EEESt10_Select1stISA_ESt4lessIS2_ESaISA_EE9_M_mbeginEv = comdat any

$_ZNSaISt13_Rb_tree_nodeISt4pairIKN4cvc58internal8TypeNodeESt6vectorINS2_12NodeTemplateILb1EEESaIS7_EEEEED2Ev = comdat any

$_ZNSt15__new_allocatorISt13_Rb_tree_nodeISt4pairIKN4cvc58internal8TypeNodeESt6vectorINS3_12NodeTemplateILb1EEESaIS8_EEEEED2Ev = comdat any

$_ZNSt8_Rb_treeIN4cvc58internal12NodeTemplateILb1EEESt4pairIKS3_S3_ESt10_Select1stIS6_ESt4lessIS3_ESaIS6_EED2Ev = comdat any

$_ZNSt8_Rb_treeIN4cvc58internal12NodeTemplateILb1EEESt4pairIKS3_S3_ESt10_Select1stIS6_ESt4lessIS3_ESaIS6_EE8_M_eraseEPSt13_Rb_tree_nodeIS6_E = comdat any

$_ZNSt8_Rb_treeIN4cvc58internal12NodeTemplateILb1EEESt4pairIKS3_S3_ESt10_Select1stIS6_ESt4lessIS3_ESaIS6_EE8_M_beginEv = comdat any

$_ZNSt8_Rb_treeIN4cvc58internal12NodeTemplateILb1EEESt4pairIKS3_S3_ESt10_Select1stIS6_ESt4lessIS3_ESaIS6_EE13_Rb_tree_implISA_Lb1EED2Ev = comdat any

$_ZNSt8_Rb_treeIN4cvc58internal12NodeTemplateILb1EEESt4pairIKS3_S3_ESt10_Select1stIS6_ESt4lessIS3_ESaIS6_EE8_S_rightEPSt18_Rb_tree_node_base = comdat any

$_ZNSt8_Rb_treeIN4cvc58internal12NodeTemplateILb1EEESt4pairIKS3_S3_ESt10_Select1stIS6_ESt4lessIS3_ESaIS6_EE7_S_leftEPSt18_Rb_tree_node_base = comdat any

$_ZNSt8_Rb_treeIN4cvc58internal12NodeTemplateILb1EEESt4pairIKS3_S3_ESt10_Select1stIS6_ESt4lessIS3_ESaIS6_EE12_M_drop_nodeEPSt13_Rb_tree_nodeIS6_E = comdat any

$_ZNSt8_Rb_treeIN4cvc58internal12NodeTemplateILb1EEESt4pairIKS3_S3_ESt10_Select1stIS6_ESt4lessIS3_ESaIS6_EE15_M_destroy_nodeEPSt13_Rb_tree_nodeIS6_E = comdat any

$_ZNSt8_Rb_treeIN4cvc58internal12NodeTemplateILb1EEESt4pairIKS3_S3_ESt10_Select1stIS6_ESt4lessIS3_ESaIS6_EE11_M_put_nodeEPSt13_Rb_tree_nodeIS6_E = comdat any

$_ZNSt16allocator_traitsISaISt13_Rb_tree_nodeISt4pairIKN4cvc58internal12NodeTemplateILb1EEES5_EEEE7destroyIS7_EEvRS9_PT_ = comdat any

$_ZNSt8_Rb_treeIN4cvc58internal12NodeTemplateILb1EEESt4pairIKS3_S3_ESt10_Select1stIS6_ESt4lessIS3_ESaIS6_EE21_M_get_Node_allocatorEv = comdat any

$_ZNSt13_Rb_tree_nodeISt4pairIKN4cvc58internal12NodeTemplateILb1EEES4_EE9_M_valptrEv = comdat any

$_ZNSt15__new_allocatorISt13_Rb_tree_nodeISt4pairIKN4cvc58internal12NodeTemplateILb1EEES5_EEE7destroyIS7_EEvPT_ = comdat any

$_ZNSt4pairIKN4cvc58internal12NodeTemplateILb1EEES3_ED2Ev = comdat any

$_ZN9__gnu_cxx16__aligned_membufISt4pairIKN4cvc58internal12NodeTemplateILb1EEES5_EE6_M_ptrEv = comdat any

$_ZN9__gnu_cxx16__aligned_membufISt4pairIKN4cvc58internal12NodeTemplateILb1EEES5_EE7_M_addrEv = comdat any

$_ZNSt16allocator_traitsISaISt13_Rb_tree_nodeISt4pairIKN4cvc58internal12NodeTemplateILb1EEES5_EEEE10deallocateERS9_PS8_m = comdat any

$_ZNSt15__new_allocatorISt13_Rb_tree_nodeISt4pairIKN4cvc58internal12NodeTemplateILb1EEES5_EEE10deallocateEPS8_m = comdat any

$_ZNKSt8_Rb_treeIN4cvc58internal12NodeTemplateILb1EEESt4pairIKS3_S3_ESt10_Select1stIS6_ESt4lessIS3_ESaIS6_EE9_M_mbeginEv = comdat any

$_ZNSaISt13_Rb_tree_nodeISt4pairIKN4cvc58internal12NodeTemplateILb1EEES4_EEED2Ev = comdat any

$_ZNSt15__new_allocatorISt13_Rb_tree_nodeISt4pairIKN4cvc58internal12NodeTemplateILb1EEES5_EEED2Ev = comdat any

$_ZNSt8_Rb_treeIN4cvc58internal8TypeNodeESt4pairIKS2_bESt10_Select1stIS5_ESt4lessIS2_ESaIS5_EED2Ev = comdat any

$_ZNSt8_Rb_treeIN4cvc58internal8TypeNodeESt4pairIKS2_bESt10_Select1stIS5_ESt4lessIS2_ESaIS5_EE8_M_eraseEPSt13_Rb_tree_nodeIS5_E = comdat any

$_ZNSt8_Rb_treeIN4cvc58internal8TypeNodeESt4pairIKS2_bESt10_Select1stIS5_ESt4lessIS2_ESaIS5_EE8_M_beginEv = comdat any

$_ZNSt8_Rb_treeIN4cvc58internal8TypeNodeESt4pairIKS2_bESt10_Select1stIS5_ESt4lessIS2_ESaIS5_EE13_Rb_tree_implIS9_Lb1EED2Ev = comdat any

$_ZNSt8_Rb_treeIN4cvc58internal8TypeNodeESt4pairIKS2_bESt10_Select1stIS5_ESt4lessIS2_ESaIS5_EE8_S_rightEPSt18_Rb_tree_node_base = comdat any

$_ZNSt8_Rb_treeIN4cvc58internal8TypeNodeESt4pairIKS2_bESt10_Select1stIS5_ESt4lessIS2_ESaIS5_EE7_S_leftEPSt18_Rb_tree_node_base = comdat any

$_ZNSt8_Rb_treeIN4cvc58internal8TypeNodeESt4pairIKS2_bESt10_Select1stIS5_ESt4lessIS2_ESaIS5_EE12_M_drop_nodeEPSt13_Rb_tree_nodeIS5_E = comdat any

$_ZNSt8_Rb_treeIN4cvc58internal8TypeNodeESt4pairIKS2_bESt10_Select1stIS5_ESt4lessIS2_ESaIS5_EE15_M_destroy_nodeEPSt13_Rb_tree_nodeIS5_E = comdat any

$_ZNSt8_Rb_treeIN4cvc58internal8TypeNodeESt4pairIKS2_bESt10_Select1stIS5_ESt4lessIS2_ESaIS5_EE11_M_put_nodeEPSt13_Rb_tree_nodeIS5_E = comdat any

$_ZNSt16allocator_traitsISaISt13_Rb_tree_nodeISt4pairIKN4cvc58internal8TypeNodeEbEEEE7destroyIS6_EEvRS8_PT_ = comdat any

$_ZNSt8_Rb_treeIN4cvc58internal8TypeNodeESt4pairIKS2_bESt10_Select1stIS5_ESt4lessIS2_ESaIS5_EE21_M_get_Node_allocatorEv = comdat any

$_ZNSt13_Rb_tree_nodeISt4pairIKN4cvc58internal8TypeNodeEbEE9_M_valptrEv = comdat any

$_ZNSt15__new_allocatorISt13_Rb_tree_nodeISt4pairIKN4cvc58internal8TypeNodeEbEEE7destroyIS6_EEvPT_ = comdat any

$_ZN9__gnu_cxx16__aligned_membufISt4pairIKN4cvc58internal8TypeNodeEbEE6_M_ptrEv = comdat any

$_ZN9__gnu_cxx16__aligned_membufISt4pairIKN4cvc58internal8TypeNodeEbEE7_M_addrEv = comdat any

$_ZNSt16allocator_traitsISaISt13_Rb_tree_nodeISt4pairIKN4cvc58internal8TypeNodeEbEEEE10deallocateERS8_PS7_m = comdat any

$_ZNSt15__new_allocatorISt13_Rb_tree_nodeISt4pairIKN4cvc58internal8TypeNodeEbEEE10deallocateEPS7_m = comdat any

$_ZNKSt8_Rb_treeIN4cvc58internal8TypeNodeESt4pairIKS2_bESt10_Select1stIS5_ESt4lessIS2_ESaIS5_EE9_M_mbeginEv = comdat any

$_ZNSaISt13_Rb_tree_nodeISt4pairIKN4cvc58internal8TypeNodeEbEEED2Ev = comdat any

$_ZNSt15__new_allocatorISt13_Rb_tree_nodeISt4pairIKN4cvc58internal8TypeNodeEbEEED2Ev = comdat any

$_ZNSt10_HashtableIN4cvc58internal12NodeTemplateILb0EEESt4pairIKS3_bESaIS6_ENSt8__detail10_Select1stESt8equal_toIS3_ESt4hashIS3_ENS8_18_Mod_range_hashingENS8_20_Default_ranged_hashENS8_20_Prime_rehash_policyENS8_17_Hashtable_traitsILb1ELb0ELb1EEEED2Ev = comdat any

$_ZNSt10_HashtableIN4cvc58internal12NodeTemplateILb0EEESt4pairIKS3_bESaIS6_ENSt8__detail10_Select1stESt8equal_toIS3_ESt4hashIS3_ENS8_18_Mod_range_hashingENS8_20_Default_ranged_hashENS8_20_Prime_rehash_policyENS8_17_Hashtable_traitsILb1ELb0ELb1EEEE5clearEv = comdat any

$_ZNSt10_HashtableIN4cvc58internal12NodeTemplateILb0EEESt4pairIKS3_bESaIS6_ENSt8__detail10_Select1stESt8equal_toIS3_ESt4hashIS3_ENS8_18_Mod_range_hashingENS8_20_Default_ranged_hashENS8_20_Prime_rehash_policyENS8_17_Hashtable_traitsILb1ELb0ELb1EEEE21_M_deallocate_bucketsEv = comdat any

$_ZNSt8__detail16_Hashtable_allocISaINS_10_Hash_nodeISt4pairIKN4cvc58internal12NodeTemplateILb0EEEbELb1EEEEED2Ev = comdat any

$_ZNSt8__detail16_Hashtable_allocISaINS_10_Hash_nodeISt4pairIKN4cvc58internal12NodeTemplateILb0EEEbELb1EEEEE19_M_deallocate_nodesEPS9_ = comdat any

$_ZNKSt10_HashtableIN4cvc58internal12NodeTemplateILb0EEESt4pairIKS3_bESaIS6_ENSt8__detail10_Select1stESt8equal_toIS3_ESt4hashIS3_ENS8_18_Mod_range_hashingENS8_20_Default_ranged_hashENS8_20_Prime_rehash_policyENS8_17_Hashtable_traitsILb1ELb0ELb1EEEE8_M_beginEv = comdat any

$_ZNKSt8__detail10_Hash_nodeISt4pairIKN4cvc58internal12NodeTemplateILb0EEEbELb1EE7_M_nextEv = comdat any

$_ZNSt8__detail16_Hashtable_allocISaINS_10_Hash_nodeISt4pairIKN4cvc58internal12NodeTemplateILb0EEEbELb1EEEEE18_M_deallocate_nodeEPS9_ = comdat any

$_ZNSt16allocator_traitsISaINSt8__detail10_Hash_nodeISt4pairIKN4cvc58internal12NodeTemplateILb0EEEbELb1EEEEE7destroyIS8_EEvRSA_PT_ = comdat any

$_ZNSt8__detail16_Hashtable_allocISaINS_10_Hash_nodeISt4pairIKN4cvc58internal12NodeTemplateILb0EEEbELb1EEEEE17_M_node_allocatorEv = comdat any

$_ZNSt8__detail21_Hash_node_value_baseISt4pairIKN4cvc58internal12NodeTemplateILb0EEEbEE9_M_valptrEv = comdat any

$_ZNSt8__detail16_Hashtable_allocISaINS_10_Hash_nodeISt4pairIKN4cvc58internal12NodeTemplateILb0EEEbELb1EEEEE22_M_deallocate_node_ptrEPS9_ = comdat any

$_ZNSt15__new_allocatorINSt8__detail10_Hash_nodeISt4pairIKN4cvc58internal12NodeTemplateILb0EEEbELb1EEEE7destroyIS8_EEvPT_ = comdat any

$_ZNSt4pairIKN4cvc58internal12NodeTemplateILb0EEEbED2Ev = comdat any

$_ZNSt8__detail21_Hashtable_ebo_helperILi0ESaINS_10_Hash_nodeISt4pairIKN4cvc58internal12NodeTemplateILb0EEEbELb1EEEELb1EE6_M_getEv = comdat any

$_ZN9__gnu_cxx16__aligned_bufferISt4pairIKN4cvc58internal12NodeTemplateILb0EEEbEE6_M_ptrEv = comdat any

$_ZN9__gnu_cxx16__aligned_bufferISt4pairIKN4cvc58internal12NodeTemplateILb0EEEbEE7_M_addrEv = comdat any

$_ZNSt19__ptr_traits_ptr_toIPNSt8__detail10_Hash_nodeISt4pairIKN4cvc58internal12NodeTemplateILb0EEEbELb1EEES9_Lb0EE10pointer_toERS9_ = comdat any

$_ZNSt16allocator_traitsISaINSt8__detail10_Hash_nodeISt4pairIKN4cvc58internal12NodeTemplateILb0EEEbELb1EEEEE10deallocateERSA_PS9_m = comdat any

$_ZNSt15__new_allocatorINSt8__detail10_Hash_nodeISt4pairIKN4cvc58internal12NodeTemplateILb0EEEbELb1EEEE10deallocateEPS9_m = comdat any

$_ZNSt10_HashtableIN4cvc58internal12NodeTemplateILb0EEESt4pairIKS3_bESaIS6_ENSt8__detail10_Select1stESt8equal_toIS3_ESt4hashIS3_ENS8_18_Mod_range_hashingENS8_20_Default_ranged_hashENS8_20_Prime_rehash_policyENS8_17_Hashtable_traitsILb1ELb0ELb1EEEE21_M_deallocate_bucketsEPPNS8_15_Hash_node_baseEm = comdat any

$_ZNKSt10_HashtableIN4cvc58internal12NodeTemplateILb0EEESt4pairIKS3_bESaIS6_ENSt8__detail10_Select1stESt8equal_toIS3_ESt4hashIS3_ENS8_18_Mod_range_hashingENS8_20_Default_ranged_hashENS8_20_Prime_rehash_policyENS8_17_Hashtable_traitsILb1ELb0ELb1EEEE21_M_uses_single_bucketEPPNS8_15_Hash_node_baseE = comdat any

$_ZNSt8__detail16_Hashtable_allocISaINS_10_Hash_nodeISt4pairIKN4cvc58internal12NodeTemplateILb0EEEbELb1EEEEE21_M_deallocate_bucketsEPPNS_15_Hash_node_baseEm = comdat any

$_ZNSt19__ptr_traits_ptr_toIPPNSt8__detail15_Hash_node_baseES2_Lb0EE10pointer_toERS2_ = comdat any

$_ZNSaIPNSt8__detail15_Hash_node_baseEEC2INS_10_Hash_nodeISt4pairIKN4cvc58internal12NodeTemplateILb0EEEbELb1EEEEERKSaIT_E = comdat any

$_ZNSt16allocator_traitsISaIPNSt8__detail15_Hash_node_baseEEE10deallocateERS3_PS2_m = comdat any

$_ZNSaIPNSt8__detail15_Hash_node_baseEED2Ev = comdat any

$_ZNSt15__new_allocatorIPNSt8__detail15_Hash_node_baseEEC2Ev = comdat any

$_ZNSt15__new_allocatorIPNSt8__detail15_Hash_node_baseEE10deallocateEPS2_m = comdat any

$_ZNSt15__new_allocatorIPNSt8__detail15_Hash_node_baseEED2Ev = comdat any

$_ZNSt8__detail21_Hashtable_ebo_helperILi0ESaINS_10_Hash_nodeISt4pairIKN4cvc58internal12NodeTemplateILb0EEEbELb1EEEELb1EED2Ev = comdat any

$_ZNSaINSt8__detail10_Hash_nodeISt4pairIKN4cvc58internal12NodeTemplateILb0EEEbELb1EEEED2Ev = comdat any

$_ZNSt15__new_allocatorINSt8__detail10_Hash_nodeISt4pairIKN4cvc58internal12NodeTemplateILb0EEEbELb1EEEED2Ev = comdat any

$_ZNSt11char_traitsIcE6lengthEPKc = comdat any

$_ZNSt7__cxx1112basic_stringIcSt11char_traitsIcESaIcEE12_M_constructIPKcEEvT_S8_St20forward_iterator_tag = comdat any

$_ZNSt7__cxx1112basic_stringIcSt11char_traitsIcESaIcEE12_Alloc_hiderD2Ev = comdat any

$_ZSt8distanceIPKcENSt15iterator_traitsIT_E15difference_typeES3_S3_ = comdat any

$_ZZNSt7__cxx1112basic_stringIcSt11char_traitsIcESaIcEE12_M_constructIPKcEEvT_S8_St20forward_iterator_tagEN6_GuardC2EPS4_ = comdat any

$_ZZNSt7__cxx1112basic_stringIcSt11char_traitsIcESaIcEE12_M_constructIPKcEEvT_S8_St20forward_iterator_tagEN6_GuardD2Ev = comdat any

$_ZSt10__distanceIPKcENSt15iterator_traitsIT_E15difference_typeES3_S3_St26random_access_iterator_tag = comdat any

$_ZSt19__iterator_categoryIPKcENSt15iterator_traitsIT_E17iterator_categoryERKS3_ = comdat any

$_ZNSt8ios_base5iwordEi = comdat any

$_ZSt8_DestroyIPN4cvc58internal12NodeTemplateILb1EEES3_EvT_S5_RSaIT0_E = comdat any

$_ZNSt12_Vector_baseIN4cvc58internal12NodeTemplateILb1EEESaIS3_EE19_M_get_Tp_allocatorEv = comdat any

$_ZNSt12_Vector_baseIN4cvc58internal12NodeTemplateILb1EEESaIS3_EED2Ev = comdat any

$_ZSt8_DestroyIPN4cvc58internal12NodeTemplateILb1EEEEvT_S5_ = comdat any

$_ZNSt12_Destroy_auxILb0EE9__destroyIPN4cvc58internal12NodeTemplateILb1EEEEEvT_S7_ = comdat any

$_ZSt8_DestroyIN4cvc58internal12NodeTemplateILb1EEEEvPT_ = comdat any

$_ZNSt12_Vector_baseIN4cvc58internal12NodeTemplateILb1EEESaIS3_EE13_M_deallocateEPS3_m = comdat any

$_ZNSt12_Vector_baseIN4cvc58internal12NodeTemplateILb1EEESaIS3_EE12_Vector_implD2Ev = comdat any

$_ZNSt16allocator_traitsISaIN4cvc58internal12NodeTemplateILb1EEEEE10deallocateERS4_PS3_m = comdat any

$_ZNSt15__new_allocatorIN4cvc58internal12NodeTemplateILb1EEEE10deallocateEPS3_m = comdat any

$_ZNSaIN4cvc58internal12NodeTemplateILb1EEEED2Ev = comdat any

$_ZNSt15__new_allocatorIN4cvc58internal12NodeTemplateILb1EEEED2Ev = comdat any

$_ZN4cvc58internal4expr9NodeValueC2Ei = comdat any

$_ZNK4cvc58internal12NodeTemplateILb1EE21assertTNodeNotExpiredEv = comdat any

$_ZNK4cvc58internal8TypeNode6isNullEv = comdat any

$_ZSt8_DestroyIPN4cvc58internal8TypeNodeES2_EvT_S4_RSaIT0_E = comdat any

$_ZNSt8_Rb_treeIN4cvc58internal8TypeNodeESt4pairIKS2_S2_ESt10_Select1stIS5_ESt4lessIS2_ESaIS5_EE5beginEv = comdat any

$_ZNSt17_Rb_tree_iteratorISt4pairIKN4cvc58internal8TypeNodeES3_EEC2EPSt18_Rb_tree_node_base = comdat any

$_ZNSt8_Rb_treeIN4cvc58internal8TypeNodeESt4pairIKS2_S2_ESt10_Select1stIS5_ESt4lessIS2_ESaIS5_EE3endEv = comdat any

$_ZNSt16allocator_traitsISaIN4cvc58internal8TypeNodeEEE9constructIS2_JRKS2_EEEvRS3_PT_DpOT0_ = comdat any

$_ZNSt6vectorIN4cvc58internal8TypeNodeESaIS2_EE17_M_realloc_insertIJRKS2_EEEvN9__gnu_cxx17__normal_iteratorIPS2_S4_EEDpOT_ = comdat any

$_ZNSt15__new_allocatorIN4cvc58internal8TypeNodeEE9constructIS2_JRKS2_EEEvPT_DpOT0_ = comdat any

$_ZNKSt6vectorIN4cvc58internal8TypeNodeESaIS2_EE12_M_check_lenEmPKc = comdat any

$_ZN9__gnu_cxxmiIPN4cvc58internal8TypeNodeESt6vectorIS3_SaIS3_EEEENS_17__normal_iteratorIT_T0_E15difference_typeERKSB_SE_ = comdat any

$_ZSt34__uninitialized_move_if_noexcept_aIPN4cvc58internal8TypeNodeES3_SaIS2_EET0_T_S6_S5_RT1_ = comdat any

$_ZNK9__gnu_cxx17__normal_iteratorIPN4cvc58internal8TypeNodeESt6vectorIS3_SaIS3_EEE4baseEv = comdat any

$_ZNSt16allocator_traitsISaIN4cvc58internal8TypeNodeEEE7destroyIS2_EEvRS3_PT_ = comdat any

$_ZNKSt6vectorIN4cvc58internal8TypeNodeESaIS2_EE8max_sizeEv = comdat any

$_ZSt3maxImERKT_S2_S2_ = comdat any

$_ZNSt6vectorIN4cvc58internal8TypeNodeESaIS2_EE11_S_max_sizeERKS3_ = comdat any

$_ZNSt16allocator_traitsISaIN4cvc58internal8TypeNodeEEE8max_sizeERKS3_ = comdat any

$_ZSt3minImERKT_S2_S2_ = comdat any

$_ZNKSt15__new_allocatorIN4cvc58internal8TypeNodeEE8max_sizeEv = comdat any

$_ZSt22__uninitialized_copy_aIPKN4cvc58internal8TypeNodeEPS2_S2_ET0_T_S7_S6_RSaIT1_E = comdat any

$_ZSt32__make_move_if_noexcept_iteratorIN4cvc58internal8TypeNodeEPKS2_ET0_PT_ = comdat any

$_ZSt18uninitialized_copyIPKN4cvc58internal8TypeNodeEPS2_ET0_T_S7_S6_ = comdat any

$_ZNSt20__uninitialized_copyILb0EE13__uninit_copyIPKN4cvc58internal8TypeNodeEPS4_EET0_T_S9_S8_ = comdat any

$_ZSt16__do_uninit_copyIPKN4cvc58internal8TypeNodeEPS2_ET0_T_S7_S6_ = comdat any

$_ZNSt15__new_allocatorIN4cvc58internal8TypeNodeEE7destroyIS2_EEvPT_ = comdat any

$_ZN9__gnu_cxxeqIPKN4cvc58internal12NodeTemplateILb1EEESt6vectorIS4_SaIS4_EEEEbRKNS_17__normal_iteratorIT_T0_EESF_ = comdat any

$_ZNK9__gnu_cxx17__normal_iteratorIPKN4cvc58internal12NodeTemplateILb1EEESt6vectorIS4_SaIS4_EEE4baseEv = comdat any

$_ZSt8_DestroyIPN4cvc58internal12NodeTemplateILb0EEES3_EvT_S5_RSaIT0_E = comdat any

$_ZNSt12_Vector_baseIN4cvc58internal12NodeTemplateILb0EEESaIS3_EE19_M_get_Tp_allocatorEv = comdat any

$_ZNSt12_Vector_baseIN4cvc58internal12NodeTemplateILb0EEESaIS3_EED2Ev = comdat any

$_ZSt8_DestroyIPN4cvc58internal12NodeTemplateILb0EEEEvT_S5_ = comdat any

$_ZNSt12_Destroy_auxILb0EE9__destroyIPN4cvc58internal12NodeTemplateILb0EEEEEvT_S7_ = comdat any

$_ZSt8_DestroyIN4cvc58internal12NodeTemplateILb0EEEEvPT_ = comdat any

$_ZNSt12_Vector_baseIN4cvc58internal12NodeTemplateILb0EEESaIS3_EE13_M_deallocateEPS3_m = comdat any

$_ZNSt12_Vector_baseIN4cvc58internal12NodeTemplateILb0EEESaIS3_EE12_Vector_implD2Ev = comdat any

$_ZNSt16allocator_traitsISaIN4cvc58internal12NodeTemplateILb0EEEEE10deallocateERS4_PS3_m = comdat any

$_ZNSt15__new_allocatorIN4cvc58internal12NodeTemplateILb0EEEE10deallocateEPS3_m = comdat any

$_ZNSaIN4cvc58internal12NodeTemplateILb0EEEED2Ev = comdat any

$_ZNSt15__new_allocatorIN4cvc58internal12NodeTemplateILb0EEEED2Ev = comdat any

$_ZN9__gnu_cxx17__normal_iteratorIPKN4cvc58internal12NodeTemplateILb1EEESt6vectorIS4_SaIS4_EEEC2ERKS6_ = comdat any

$_ZNSt6vectorIN4cvc58internal12NodeTemplateILb0EEESaIS3_EE12emplace_backIJS3_EEERS3_DpOT_ = comdat any

$_ZNSt16allocator_traitsISaIN4cvc58internal12NodeTemplateILb0EEEEE9constructIS3_JS3_EEEvRS4_PT_DpOT0_ = comdat any

$_ZNSt6vectorIN4cvc58internal12NodeTemplateILb0EEESaIS3_EE17_M_realloc_insertIJS3_EEEvN9__gnu_cxx17__normal_iteratorIPS3_S5_EEDpOT_ = comdat any

$_ZNSt6vectorIN4cvc58internal12NodeTemplateILb0EEESaIS3_EE3endEv = comdat any

$_ZNSt15__new_allocatorIN4cvc58internal12NodeTemplateILb0EEEE9constructIS3_JS3_EEEvPT_DpOT0_ = comdat any

$_ZNKSt6vectorIN4cvc58internal12NodeTemplateILb0EEESaIS3_EE12_M_check_lenEmPKc = comdat any

$_ZN9__gnu_cxxmiIPN4cvc58internal12NodeTemplateILb0EEESt6vectorIS4_SaIS4_EEEENS_17__normal_iteratorIT_T0_E15difference_typeERKSC_SF_ = comdat any

$_ZNSt6vectorIN4cvc58internal12NodeTemplateILb0EEESaIS3_EE5beginEv = comdat any

$_ZNSt12_Vector_baseIN4cvc58internal12NodeTemplateILb0EEESaIS3_EE11_M_allocateEm = comdat any

$_ZSt34__uninitialized_move_if_noexcept_aIPN4cvc58internal12NodeTemplateILb0EEES4_SaIS3_EET0_T_S7_S6_RT1_ = comdat any

$_ZNK9__gnu_cxx17__normal_iteratorIPN4cvc58internal12NodeTemplateILb0EEESt6vectorIS4_SaIS4_EEE4baseEv = comdat any

$_ZNSt16allocator_traitsISaIN4cvc58internal12NodeTemplateILb0EEEEE7destroyIS3_EEvRS4_PT_ = comdat any

$_ZNKSt6vectorIN4cvc58internal12NodeTemplateILb0EEESaIS3_EE8max_sizeEv = comdat any

$_ZNKSt6vectorIN4cvc58internal12NodeTemplateILb0EEESaIS3_EE4sizeEv = comdat any

$_ZNSt6vectorIN4cvc58internal12NodeTemplateILb0EEESaIS3_EE11_S_max_sizeERKS4_ = comdat any

$_ZNKSt12_Vector_baseIN4cvc58internal12NodeTemplateILb0EEESaIS3_EE19_M_get_Tp_allocatorEv = comdat any

$_ZNSt16allocator_traitsISaIN4cvc58internal12NodeTemplateILb0EEEEE8max_sizeERKS4_ = comdat any

$_ZNKSt15__new_allocatorIN4cvc58internal12NodeTemplateILb0EEEE8max_sizeEv = comdat any

$_ZNKSt15__new_allocatorIN4cvc58internal12NodeTemplateILb0EEEE11_M_max_sizeEv = comdat any

$_ZN9__gnu_cxx17__normal_iteratorIPN4cvc58internal12NodeTemplateILb0EEESt6vectorIS4_SaIS4_EEEC2ERKS5_ = comdat any

$_ZNSt16allocator_traitsISaIN4cvc58internal12NodeTemplateILb0EEEEE8allocateERS4_m = comdat any

$_ZNSt15__new_allocatorIN4cvc58internal12NodeTemplateILb0EEEE8allocateEmPKv = comdat any

$_ZSt22__uninitialized_copy_aIPKN4cvc58internal12NodeTemplateILb0EEEPS3_S3_ET0_T_S8_S7_RSaIT1_E = comdat any

$_ZSt32__make_move_if_noexcept_iteratorIN4cvc58internal12NodeTemplateILb0EEEPKS3_ET0_PT_ = comdat any

$_ZSt18uninitialized_copyIPKN4cvc58internal12NodeTemplateILb0EEEPS3_ET0_T_S8_S7_ = comdat any

$_ZNSt20__uninitialized_copyILb0EE13__uninit_copyIPKN4cvc58internal12NodeTemplateILb0EEEPS5_EET0_T_SA_S9_ = comdat any

$_ZSt16__do_uninit_copyIPKN4cvc58internal12NodeTemplateILb0EEEPS3_ET0_T_S8_S7_ = comdat any

$_ZSt10_ConstructIN4cvc58internal12NodeTemplateILb0EEEJRKS3_EEvPT_DpOT0_ = comdat any

$_ZNSt15__new_allocatorIN4cvc58internal12NodeTemplateILb0EEEE7destroyIS3_EEvPT_ = comdat any

$_ZNK9__gnu_cxx17__normal_iteratorIPN4cvc58internal12NodeTemplateILb0EEESt6vectorIS4_SaIS4_EEEmiEl = comdat any

$_ZNK9__gnu_cxx17__normal_iteratorIPN4cvc58internal12NodeTemplateILb0EEESt6vectorIS4_SaIS4_EEEdeEv = comdat any

$_ZNK4cvc58internal12NodeTemplateILb0EE7getKindEv = comdat any

$_ZNSt8__detail9_Map_baseIN4cvc58internal12NodeTemplateILb0EEESt4pairIKS4_bESaIS7_ENS_10_Select1stESt8equal_toIS4_ESt4hashIS4_ENS_18_Mod_range_hashingENS_20_Default_ranged_hashENS_20_Prime_rehash_policyENS_17_Hashtable_traitsILb1ELb0ELb1EEELb1EEixERS6_ = comdat any

$_ZNKSt8__detail15_Hash_code_baseIN4cvc58internal12NodeTemplateILb0EEESt4pairIKS4_bENS_10_Select1stESt4hashIS4_ENS_18_Mod_range_hashingENS_20_Default_ranged_hashELb1EE12_M_hash_codeERS6_ = comdat any

$_ZNKSt10_HashtableIN4cvc58internal12NodeTemplateILb0EEESt4pairIKS3_bESaIS6_ENSt8__detail10_Select1stESt8equal_toIS3_ESt4hashIS3_ENS8_18_Mod_range_hashingENS8_20_Default_ranged_hashENS8_20_Prime_rehash_policyENS8_17_Hashtable_traitsILb1ELb0ELb1EEEE15_M_bucket_indexEm = comdat any

$_ZNKSt10_HashtableIN4cvc58internal12NodeTemplateILb0EEESt4pairIKS3_bESaIS6_ENSt8__detail10_Select1stESt8equal_toIS3_ESt4hashIS3_ENS8_18_Mod_range_hashingENS8_20_Default_ranged_hashENS8_20_Prime_rehash_policyENS8_17_Hashtable_traitsILb1ELb0ELb1EEEE12_M_find_nodeEmRS5_m = comdat any

$_ZNSt8__detail21_Hash_node_value_baseISt4pairIKN4cvc58internal12NodeTemplateILb0EEEbEE4_M_vEv = comdat any

$_ZNSt5tupleIJRKN4cvc58internal12NodeTemplateILb0EEEEEC2ILb1ETnNSt9enable_ifIXclsr4_TCCIXT_EEE29__is_implicitly_constructibleIS5_EEEbE4typeELb1EEES5_ = comdat any

$_ZNSt10_HashtableIN4cvc58internal12NodeTemplateILb0EEESt4pairIKS3_bESaIS6_ENSt8__detail10_Select1stESt8equal_toIS3_ESt4hashIS3_ENS8_18_Mod_range_hashingENS8_20_Default_ranged_hashENS8_20_Prime_rehash_policyENS8_17_Hashtable_traitsILb1ELb0ELb1EEEE12_Scoped_nodeC2IJRKSt21piecewise_construct_tSt5tupleIJRS5_EESP_IJEEEEEPNS8_16_Hashtable_allocISaINS8_10_Hash_nodeIS6_Lb1EEEEEEDpOT_ = comdat any

$_ZNSt10_HashtableIN4cvc58internal12NodeTemplateILb0EEESt4pairIKS3_bESaIS6_ENSt8__detail10_Select1stESt8equal_toIS3_ESt4hashIS3_ENS8_18_Mod_range_hashingENS8_20_Default_ranged_hashENS8_20_Prime_rehash_policyENS8_17_Hashtable_traitsILb1ELb0ELb1EEEE21_M_insert_unique_nodeEmmPNS8_10_Hash_nodeIS6_Lb1EEEm = comdat any

$_ZNSt10_HashtableIN4cvc58internal12NodeTemplateILb0EEESt4pairIKS3_bESaIS6_ENSt8__detail10_Select1stESt8equal_toIS3_ESt4hashIS3_ENS8_18_Mod_range_hashingENS8_20_Default_ranged_hashENS8_20_Prime_rehash_policyENS8_17_Hashtable_traitsILb1ELb0ELb1EEEE12_Scoped_nodeD2Ev = comdat any

$_ZNKSt8__detail15_Hash_code_baseIN4cvc58internal12NodeTemplateILb0EEESt4pairIKS4_bENS_10_Select1stESt4hashIS4_ENS_18_Mod_range_hashingENS_20_Default_ranged_hashELb1EE7_M_hashEv = comdat any

$_ZNKSt8__detail21_Hashtable_ebo_helperILi1ESt4hashIN4cvc58internal12NodeTemplateILb0EEEELb1EE7_M_cgetEv = comdat any

$_ZNKSt8__detail15_Hash_code_baseIN4cvc58internal12NodeTemplateILb0EEESt4pairIKS4_bENS_10_Select1stESt4hashIS4_ENS_18_Mod_range_hashingENS_20_Default_ranged_hashELb1EE15_M_bucket_indexEmm = comdat any

$_ZNKSt8__detail18_Mod_range_hashingclEmm = comdat any

$_ZNKSt10_HashtableIN4cvc58internal12NodeTemplateILb0EEESt4pairIKS3_bESaIS6_ENSt8__detail10_Select1stESt8equal_toIS3_ESt4hashIS3_ENS8_18_Mod_range_hashingENS8_20_Default_ranged_hashENS8_20_Prime_rehash_policyENS8_17_Hashtable_traitsILb1ELb0ELb1EEEE19_M_find_before_nodeEmRS5_m = comdat any

$_ZNKSt8__detail15_Hashtable_baseIN4cvc58internal12NodeTemplateILb0EEESt4pairIKS4_bENS_10_Select1stESt8equal_toIS4_ESt4hashIS4_ENS_18_Mod_range_hashingENS_20_Default_ranged_hashENS_17_Hashtable_traitsILb1ELb0ELb1EEEE9_M_equalsERS6_mRKNS_16_Hash_node_valueIS7_Lb1EEE = comdat any

$_ZNKSt10_HashtableIN4cvc58internal12NodeTemplateILb0EEESt4pairIKS3_bESaIS6_ENSt8__detail10_Select1stESt8equal_toIS3_ESt4hashIS3_ENS8_18_Mod_range_hashingENS8_20_Default_ranged_hashENS8_20_Prime_rehash_policyENS8_17_Hashtable_traitsILb1ELb0ELb1EEEE15_M_bucket_indexERKNS8_16_Hash_node_valueIS6_Lb1EEE = comdat any

$_ZNSt8__detail15_Hashtable_baseIN4cvc58internal12NodeTemplateILb0EEESt4pairIKS4_bENS_10_Select1stESt8equal_toIS4_ESt4hashIS4_ENS_18_Mod_range_hashingENS_20_Default_ranged_hashENS_17_Hashtable_traitsILb1ELb0ELb1EEEE9_S_equalsEmRKNS_21_Hash_node_code_cacheILb1EEE = comdat any

$_ZNKSt8__detail15_Hashtable_baseIN4cvc58internal12NodeTemplateILb0EEESt4pairIKS4_bENS_10_Select1stESt8equal_toIS4_ESt4hashIS4_ENS_18_Mod_range_hashingENS_20_Default_ranged_hashENS_17_Hashtable_traitsILb1ELb0ELb1EEEE13_M_key_equalsERS6_RKNS_16_Hash_node_valueIS7_Lb1EEE = comdat any

$_ZNKSt8__detail15_Hashtable_baseIN4cvc58internal12NodeTemplateILb0EEESt4pairIKS4_bENS_10_Select1stESt8equal_toIS4_ESt4hashIS4_ENS_18_Mod_range_hashingENS_20_Default_ranged_hashENS_17_Hashtable_traitsILb1ELb0ELb1EEEE5_M_eqEv = comdat any

$_ZNKSt8equal_toIN4cvc58internal12NodeTemplateILb0EEEEclERKS3_S6_ = comdat any

$_ZNKSt8__detail10_Select1stclIRKSt4pairIKN4cvc58internal12NodeTemplateILb0EEEbEEEONS0_10__1st_typeIT_E4typeEOSC_ = comdat any

$_ZNKSt8__detail21_Hash_node_value_baseISt4pairIKN4cvc58internal12NodeTemplateILb0EEEbEE4_M_vEv = comdat any

$_ZNKSt8__detail21_Hashtable_ebo_helperILi0ESt8equal_toIN4cvc58internal12NodeTemplateILb0EEEELb1EE7_M_cgetEv = comdat any

$_ZNK4cvc58internal12NodeTemplateILb0EEeqILb0EEEbRKNS1_IXT_EEE = comdat any

$_ZNKSt8__detail21_Hash_node_value_baseISt4pairIKN4cvc58internal12NodeTemplateILb0EEEbEE9_M_valptrEv = comdat any

$_ZNK9__gnu_cxx16__aligned_bufferISt4pairIKN4cvc58internal12NodeTemplateILb0EEEbEE6_M_ptrEv = comdat any

$_ZNK9__gnu_cxx16__aligned_bufferISt4pairIKN4cvc58internal12NodeTemplateILb0EEEbEE7_M_addrEv = comdat any

$_ZNKSt8__detail15_Hash_code_baseIN4cvc58internal12NodeTemplateILb0EEESt4pairIKS4_bENS_10_Select1stESt4hashIS4_ENS_18_Mod_range_hashingENS_20_Default_ranged_hashELb1EE15_M_bucket_indexERKNS_16_Hash_node_valueIS7_Lb1EEEm = comdat any

$_ZNSt11_Tuple_implILm0EJRKN4cvc58internal12NodeTemplateILb0EEEEEC2ES5_ = comdat any

$_ZNSt10_Head_baseILm0ERKN4cvc58internal12NodeTemplateILb0EEELb0EEC2ES5_ = comdat any

$_ZNSt8__detail16_Hashtable_allocISaINS_10_Hash_nodeISt4pairIKN4cvc58internal12NodeTemplateILb0EEEbELb1EEEEE16_M_allocate_nodeIJRKSt21piecewise_construct_tSt5tupleIJRS7_EESG_IJEEEEEPS9_DpOT_ = comdat any

$_ZNSt16allocator_traitsISaINSt8__detail10_Hash_nodeISt4pairIKN4cvc58internal12NodeTemplateILb0EEEbELb1EEEEE8allocateERSA_m = comdat any

$_ZSt12__to_addressINSt8__detail10_Hash_nodeISt4pairIKN4cvc58internal12NodeTemplateILb0EEEbELb1EEEEPT_SB_ = comdat any

$_ZNSt8__detail10_Hash_nodeISt4pairIKN4cvc58internal12NodeTemplateILb0EEEbELb1EEC2Ev = comdat any

$_ZNSt16allocator_traitsISaINSt8__detail10_Hash_nodeISt4pairIKN4cvc58internal12NodeTemplateILb0EEEbELb1EEEEE9constructIS8_JRKSt21piecewise_construct_tSt5tupleIJRS7_EESG_IJEEEEEvRSA_PT_DpOT0_ = comdat any

$_ZNSt15__new_allocatorINSt8__detail10_Hash_nodeISt4pairIKN4cvc58internal12NodeTemplateILb0EEEbELb1EEEE8allocateEmPKv = comdat any

$_ZNKSt15__new_allocatorINSt8__detail10_Hash_nodeISt4pairIKN4cvc58internal12NodeTemplateILb0EEEbELb1EEEE11_M_max_sizeEv = comdat any

$_ZNSt15__new_allocatorINSt8__detail10_Hash_nodeISt4pairIKN4cvc58internal12NodeTemplateILb0EEEbELb1EEEE9constructIS8_JRKSt21piecewise_construct_tSt5tupleIJRS7_EESF_IJEEEEEvPT_DpOT0_ = comdat any

$_ZNSt5tupleIJRKN4cvc58internal12NodeTemplateILb0EEEEEC2EOS6_ = comdat any

$_ZNSt4pairIKN4cvc58internal12NodeTemplateILb0EEEbEC2IJRS4_EJEEESt21piecewise_construct_tSt5tupleIJDpT_EES9_IJDpT0_EE = comdat any

$_ZNSt11_Tuple_implILm0EJRKN4cvc58internal12NodeTemplateILb0EEEEEC2EOS6_ = comdat any

$_ZNSt4pairIKN4cvc58internal12NodeTemplateILb0EEEbEC2IJRS4_EJLm0EEJETpTnmJEEERSt5tupleIJDpT_EERS8_IJDpT1_EESt12_Index_tupleIJXspT0_EEESH_IJXspT2_EEE = comdat any

$_ZSt3getILm0EJRKN4cvc58internal12NodeTemplateILb0EEEEERNSt13tuple_elementIXT_ESt5tupleIJDpT0_EEE4typeERSA_ = comdat any

$_ZSt12__get_helperILm0ERKN4cvc58internal12NodeTemplateILb0EEEJEERT0_RSt11_Tuple_implIXT_EJS6_DpT1_EE = comdat any

$_ZNSt11_Tuple_implILm0EJRKN4cvc58internal12NodeTemplateILb0EEEEE7_M_headERS6_ = comdat any

$_ZNSt10_Head_baseILm0ERKN4cvc58internal12NodeTemplateILb0EEELb0EE7_M_headERS6_ = comdat any

$_ZNKSt8__detail20_Prime_rehash_policy8_M_stateEv = comdat any

$_ZNSt10_HashtableIN4cvc58internal12NodeTemplateILb0EEESt4pairIKS3_bESaIS6_ENSt8__detail10_Select1stESt8equal_toIS3_ESt4hashIS3_ENS8_18_Mod_range_hashingENS8_20_Default_ranged_hashENS8_20_Prime_rehash_policyENS8_17_Hashtable_traitsILb1ELb0ELb1EEEE9_M_rehashEmRKm = comdat any

$_ZNKSt8__detail15_Hash_code_baseIN4cvc58internal12NodeTemplateILb0EEESt4pairIKS4_bENS_10_Select1stESt4hashIS4_ENS_18_Mod_range_hashingENS_20_Default_ranged_hashELb1EE13_M_store_codeERNS_21_Hash_node_code_cacheILb1EEEm = comdat any

$_ZNSt10_HashtableIN4cvc58internal12NodeTemplateILb0EEESt4pairIKS3_bESaIS6_ENSt8__detail10_Select1stESt8equal_toIS3_ESt4hashIS3_ENS8_18_Mod_range_hashingENS8_20_Default_ranged_hashENS8_20_Prime_rehash_policyENS8_17_Hashtable_traitsILb1ELb0ELb1EEEE22_M_insert_bucket_beginEmPNS8_10_Hash_nodeIS6_Lb1EEE = comdat any

$_ZNSt8__detail14_Node_iteratorISt4pairIKN4cvc58internal12NodeTemplateILb0EEEbELb0ELb1EEC2EPNS_10_Hash_nodeIS7_Lb1EEE = comdat any

$_ZNSt10_HashtableIN4cvc58internal12NodeTemplateILb0EEESt4pairIKS3_bESaIS6_ENSt8__detail10_Select1stESt8equal_toIS3_ESt4hashIS3_ENS8_18_Mod_range_hashingENS8_20_Default_ranged_hashENS8_20_Prime_rehash_policyENS8_17_Hashtable_traitsILb1ELb0ELb1EEEE13_M_rehash_auxEmSt17integral_constantIbLb1EE = comdat any

$_ZNSt8__detail20_Prime_rehash_policy8_M_resetEm = comdat any

$_ZNSt10_HashtableIN4cvc58internal12NodeTemplateILb0EEESt4pairIKS3_bESaIS6_ENSt8__detail10_Select1stESt8equal_toIS3_ESt4hashIS3_ENS8_18_Mod_range_hashingENS8_20_Default_ranged_hashENS8_20_Prime_rehash_policyENS8_17_Hashtable_traitsILb1ELb0ELb1EEEE19_M_allocate_bucketsEm = comdat any

$_ZNSt8__detail16_Hashtable_allocISaINS_10_Hash_nodeISt4pairIKN4cvc58internal12NodeTemplateILb0EEEbELb1EEEEE19_M_allocate_bucketsEm = comdat any

$_ZNSt16allocator_traitsISaIPNSt8__detail15_Hash_node_baseEEE8allocateERS3_m = comdat any

$_ZSt12__to_addressIPNSt8__detail15_Hash_node_baseEEPT_S4_ = comdat any

$_ZNSt15__new_allocatorIPNSt8__detail15_Hash_node_baseEE8allocateEmPKv = comdat any

$_ZNKSt15__new_allocatorIPNSt8__detail15_Hash_node_baseEE11_M_max_sizeEv = comdat any

$_ZNSt8__detail19_Node_iterator_baseISt4pairIKN4cvc58internal12NodeTemplateILb0EEEbELb1EEC2EPNS_10_Hash_nodeIS7_Lb1EEE = comdat any

$_ZNSt10_HashtableIN4cvc58internal12NodeTemplateILb0EEESt4pairIKS3_bESaIS6_ENSt8__detail10_Select1stESt8equal_toIS3_ESt4hashIS3_ENS8_18_Mod_range_hashingENS8_20_Default_ranged_hashENS8_20_Prime_rehash_policyENS8_17_Hashtable_traitsILb1ELb0ELb1EEEE4findERS5_ = comdat any

$_ZNKSt10_HashtableIN4cvc58internal12NodeTemplateILb0EEESt4pairIKS3_bESaIS6_ENSt8__detail10_Select1stESt8equal_toIS3_ESt4hashIS3_ENS8_18_Mod_range_hashingENS8_20_Default_ranged_hashENS8_20_Prime_rehash_policyENS8_17_Hashtable_traitsILb1ELb0ELb1EEEE4sizeEv = comdat any

$_ZNSt10_HashtableIN4cvc58internal12NodeTemplateILb0EEESt4pairIKS3_bESaIS6_ENSt8__detail10_Select1stESt8equal_toIS3_ESt4hashIS3_ENS8_18_Mod_range_hashingENS8_20_Default_ranged_hashENS8_20_Prime_rehash_policyENS8_17_Hashtable_traitsILb1ELb0ELb1EEEE22__small_size_thresholdEv = comdat any

$_ZNSt10_HashtableIN4cvc58internal12NodeTemplateILb0EEESt4pairIKS3_bESaIS6_ENSt8__detail10_Select1stESt8equal_toIS3_ESt4hashIS3_ENS8_18_Mod_range_hashingENS8_20_Default_ranged_hashENS8_20_Prime_rehash_policyENS8_17_Hashtable_traitsILb1ELb0ELb1EEEE5beginEv = comdat any

$_ZNSt8__detailneERKNS_19_Node_iterator_baseISt4pairIKN4cvc58internal12NodeTemplateILb0EEEbELb1EEESA_ = comdat any

$_ZNSt10_HashtableIN4cvc58internal12NodeTemplateILb0EEESt4pairIKS3_bESaIS6_ENSt8__detail10_Select1stESt8equal_toIS3_ESt4hashIS3_ENS8_18_Mod_range_hashingENS8_20_Default_ranged_hashENS8_20_Prime_rehash_policyENS8_17_Hashtable_traitsILb1ELb0ELb1EEEE3endEv = comdat any

$_ZNSt8__detail14_Node_iteratorISt4pairIKN4cvc58internal12NodeTemplateILb0EEEbELb0ELb1EEppEv = comdat any

$_ZNSt8__detail22_Hashtable_hash_traitsISt4hashIN4cvc58internal12NodeTemplateILb0EEEEE22__small_size_thresholdEv = comdat any

$_ZNSt8__detail19_Node_iterator_baseISt4pairIKN4cvc58internal12NodeTemplateILb0EEEbELb1EE7_M_incrEv = comdat any

$_ZNSt16allocator_traitsISaIN4cvc58internal12NodeTemplateILb0EEEEE9constructIS3_JRKS3_EEEvRS4_PT_DpOT0_ = comdat any

$_ZNSt6vectorIN4cvc58internal12NodeTemplateILb0EEESaIS3_EE17_M_realloc_insertIJRKS3_EEEvN9__gnu_cxx17__normal_iteratorIPS3_S5_EEDpOT_ = comdat any

$_ZNSt15__new_allocatorIN4cvc58internal12NodeTemplateILb0EEEE9constructIS3_JRKS3_EEEvPT_DpOT0_ = comdat any

$_ZNK4cvc58internal4expr9NodeValue5beginINS0_12NodeTemplateILb0EEEEENS2_8iteratorIT_EEv = comdat any

$_ZNK4cvc58internal4expr9NodeValue11getMetaKindEv = comdat any

$_ZN4cvc58internal4expr9NodeValue8iteratorINS0_12NodeTemplateILb0EEEEC2EPKPKS2_ = comdat any

$_ZNK4cvc58internal4expr9NodeValue7getKindEv = comdat any

$_ZN4cvc58internal4expr9NodeValue11dKindToKindEj = comdat any

$_ZNK4cvc58internal4expr9NodeValue3endINS0_12NodeTemplateILb0EEEEENS2_8iteratorIT_EEv = comdat any

$_ZN4cvc58internal12NodeTemplateILb0EEC2EPKNS0_4expr9NodeValueE = comdat any

$_ZNSt8__detail9_Map_baseIN4cvc58internal12NodeTemplateILb0EEESt4pairIKS4_bESaIS7_ENS_10_Select1stESt8equal_toIS4_ESt4hashIS4_ENS_18_Mod_range_hashingENS_20_Default_ranged_hashENS_20_Prime_rehash_policyENS_17_Hashtable_traitsILb1ELb0ELb1EEELb1EEixEOS4_ = comdat any

$_ZSt16forward_as_tupleIJN4cvc58internal12NodeTemplateILb0EEEEESt5tupleIJDpOT_EES7_ = comdat any

$_ZNSt10_HashtableIN4cvc58internal12NodeTemplateILb0EEESt4pairIKS3_bESaIS6_ENSt8__detail10_Select1stESt8equal_toIS3_ESt4hashIS3_ENS8_18_Mod_range_hashingENS8_20_Default_ranged_hashENS8_20_Prime_rehash_policyENS8_17_Hashtable_traitsILb1ELb0ELb1EEEE12_Scoped_nodeC2IJRKSt21piecewise_construct_tSt5tupleIJOS3_EESP_IJEEEEEPNS8_16_Hashtable_allocISaINS8_10_Hash_nodeIS6_Lb1EEEEEEDpOT_ = comdat any

$_ZNSt5tupleIJON4cvc58internal12NodeTemplateILb0EEEEEC2IJS3_ELb1ETnNSt9enable_ifIXclsr4_TCCIXT0_EEE29__is_implicitly_constructibleIDpT_EEEbE4typeELb1EEEDpOS8_ = comdat any

$_ZNSt11_Tuple_implILm0EJON4cvc58internal12NodeTemplateILb0EEEEEC2IS3_EEOT_ = comdat any

$_ZNSt10_Head_baseILm0EON4cvc58internal12NodeTemplateILb0EEELb0EEC2IS3_EEOT_ = comdat any

$_ZNSt8__detail16_Hashtable_allocISaINS_10_Hash_nodeISt4pairIKN4cvc58internal12NodeTemplateILb0EEEbELb1EEEEE16_M_allocate_nodeIJRKSt21piecewise_construct_tSt5tupleIJOS6_EESG_IJEEEEEPS9_DpOT_ = comdat any

$_ZNSt16allocator_traitsISaINSt8__detail10_Hash_nodeISt4pairIKN4cvc58internal12NodeTemplateILb0EEEbELb1EEEEE9constructIS8_JRKSt21piecewise_construct_tSt5tupleIJOS6_EESG_IJEEEEEvRSA_PT_DpOT0_ = comdat any

$_ZNSt15__new_allocatorINSt8__detail10_Hash_nodeISt4pairIKN4cvc58internal12NodeTemplateILb0EEEbELb1EEEE9constructIS8_JRKSt21piecewise_construct_tSt5tupleIJOS6_EESF_IJEEEEEvPT_DpOT0_ = comdat any

$_ZNSt5tupleIJON4cvc58internal12NodeTemplateILb0EEEEEC2EOS5_ = comdat any

$_ZNSt4pairIKN4cvc58internal12NodeTemplateILb0EEEbEC2IJOS3_EJEEESt21piecewise_construct_tSt5tupleIJDpT_EES9_IJDpT0_EE = comdat any

$_ZNSt11_Tuple_implILm0EJON4cvc58internal12NodeTemplateILb0EEEEEC2EOS5_ = comdat any

$_ZNSt4pairIKN4cvc58internal12NodeTemplateILb0EEEbEC2IJOS3_EJLm0EEJETpTnmJEEERSt5tupleIJDpT_EERS8_IJDpT1_EESt12_Index_tupleIJXspT0_EEESH_IJXspT2_EEE = comdat any

$_ZSt3getILm0EJON4cvc58internal12NodeTemplateILb0EEEEERNSt13tuple_elementIXT_ESt5tupleIJDpT0_EEE4typeERS9_ = comdat any

$_ZSt12__get_helperILm0EON4cvc58internal12NodeTemplateILb0EEEJEERT0_RSt11_Tuple_implIXT_EJS5_DpT1_EE = comdat any

$_ZNSt11_Tuple_implILm0EJON4cvc58internal12NodeTemplateILb0EEEEE7_M_headERS5_ = comdat any

$_ZNSt10_Head_baseILm0EON4cvc58internal12NodeTemplateILb0EEELb0EE7_M_headERS5_ = comdat any

$_ZNK4cvc58internal12NodeTemplateILb0EE11getMetaKindEv = comdat any

$_ZNSt6vectorIN4cvc58internal12NodeTemplateILb1EEESaIS3_EE12emplace_backIJS3_EEERS3_DpOT_ = comdat any

$_ZNSt16allocator_traitsISaIN4cvc58internal12NodeTemplateILb1EEEEE9constructIS3_JS3_EEEvRS4_PT_DpOT0_ = comdat any

$_ZNSt6vectorIN4cvc58internal12NodeTemplateILb1EEESaIS3_EE17_M_realloc_insertIJS3_EEEvN9__gnu_cxx17__normal_iteratorIPS3_S5_EEDpOT_ = comdat any

$_ZNSt6vectorIN4cvc58internal12NodeTemplateILb1EEESaIS3_EE4backEv = comdat any

$_ZNSt15__new_allocatorIN4cvc58internal12NodeTemplateILb1EEEE9constructIS3_JS3_EEEvPT_DpOT0_ = comdat any

$_ZNKSt6vectorIN4cvc58internal12NodeTemplateILb1EEESaIS3_EE12_M_check_lenEmPKc = comdat any

$_ZN9__gnu_cxxmiIPN4cvc58internal12NodeTemplateILb1EEESt6vectorIS4_SaIS4_EEEENS_17__normal_iteratorIT_T0_E15difference_typeERKSC_SF_ = comdat any

$_ZNSt12_Vector_baseIN4cvc58internal12NodeTemplateILb1EEESaIS3_EE11_M_allocateEm = comdat any

$_ZSt34__uninitialized_move_if_noexcept_aIPN4cvc58internal12NodeTemplateILb1EEES4_SaIS3_EET0_T_S7_S6_RT1_ = comdat any

$_ZNK9__gnu_cxx17__normal_iteratorIPN4cvc58internal12NodeTemplateILb1EEESt6vectorIS4_SaIS4_EEE4baseEv = comdat any

$_ZNSt16allocator_traitsISaIN4cvc58internal12NodeTemplateILb1EEEEE7destroyIS3_EEvRS4_PT_ = comdat any

$_ZNKSt6vectorIN4cvc58internal12NodeTemplateILb1EEESaIS3_EE8max_sizeEv = comdat any

$_ZNSt6vectorIN4cvc58internal12NodeTemplateILb1EEESaIS3_EE11_S_max_sizeERKS4_ = comdat any

$_ZNKSt12_Vector_baseIN4cvc58internal12NodeTemplateILb1EEESaIS3_EE19_M_get_Tp_allocatorEv = comdat any

$_ZNSt16allocator_traitsISaIN4cvc58internal12NodeTemplateILb1EEEEE8max_sizeERKS4_ = comdat any

$_ZNKSt15__new_allocatorIN4cvc58internal12NodeTemplateILb1EEEE8max_sizeEv = comdat any

$_ZNKSt15__new_allocatorIN4cvc58internal12NodeTemplateILb1EEEE11_M_max_sizeEv = comdat any

$_ZNSt16allocator_traitsISaIN4cvc58internal12NodeTemplateILb1EEEEE8allocateERS4_m = comdat any

$_ZNSt15__new_allocatorIN4cvc58internal12NodeTemplateILb1EEEE8allocateEmPKv = comdat any

$_ZSt22__uninitialized_copy_aIPKN4cvc58internal12NodeTemplateILb1EEEPS3_S3_ET0_T_S8_S7_RSaIT1_E = comdat any

$_ZSt32__make_move_if_noexcept_iteratorIN4cvc58internal12NodeTemplateILb1EEEPKS3_ET0_PT_ = comdat any

$_ZSt18uninitialized_copyIPKN4cvc58internal12NodeTemplateILb1EEEPS3_ET0_T_S8_S7_ = comdat any

$_ZNSt20__uninitialized_copyILb0EE13__uninit_copyIPKN4cvc58internal12NodeTemplateILb1EEEPS5_EET0_T_SA_S9_ = comdat any

$_ZSt16__do_uninit_copyIPKN4cvc58internal12NodeTemplateILb1EEEPS3_ET0_T_S8_S7_ = comdat any

$_ZSt10_ConstructIN4cvc58internal12NodeTemplateILb1EEEJRKS3_EEvPT_DpOT0_ = comdat any

$_ZNSt15__new_allocatorIN4cvc58internal12NodeTemplateILb1EEEE7destroyIS3_EEvPT_ = comdat any

$_ZNK9__gnu_cxx17__normal_iteratorIPN4cvc58internal12NodeTemplateILb1EEESt6vectorIS4_SaIS4_EEEmiEl = comdat any

$_ZN9__gnu_cxx17__normal_iteratorIPN4cvc58internal12NodeTemplateILb1EEESt6vectorIS4_SaIS4_EEEC2ERKS5_ = comdat any

$_ZNSt8_Rb_treeIN4cvc58internal8TypeNodeESt4pairIKS2_bESt10_Select1stIS5_ESt4lessIS2_ESaIS5_EE4findERS4_ = comdat any

$_ZNSt8_Rb_treeIN4cvc58internal8TypeNodeESt4pairIKS2_bESt10_Select1stIS5_ESt4lessIS2_ESaIS5_EE14_M_lower_boundEPSt13_Rb_tree_nodeIS5_EPSt18_Rb_tree_node_baseRS4_ = comdat any

$_ZNSt8_Rb_treeIN4cvc58internal8TypeNodeESt4pairIKS2_bESt10_Select1stIS5_ESt4lessIS2_ESaIS5_EE6_M_endEv = comdat any

$_ZNSt8_Rb_treeIN4cvc58internal8TypeNodeESt4pairIKS2_bESt10_Select1stIS5_ESt4lessIS2_ESaIS5_EE3endEv = comdat any

$_ZNKSt4lessIN4cvc58internal8TypeNodeEEclERKS2_S5_ = comdat any

$_ZNSt8_Rb_treeIN4cvc58internal8TypeNodeESt4pairIKS2_bESt10_Select1stIS5_ESt4lessIS2_ESaIS5_EE6_S_keyEPKSt18_Rb_tree_node_base = comdat any

$_ZNSt8_Rb_treeIN4cvc58internal8TypeNodeESt4pairIKS2_bESt10_Select1stIS5_ESt4lessIS2_ESaIS5_EE6_S_keyEPKSt13_Rb_tree_nodeIS5_E = comdat any

$_ZNSt17_Rb_tree_iteratorISt4pairIKN4cvc58internal8TypeNodeEbEEC2EPSt18_Rb_tree_node_base = comdat any

$_ZNKSt10_Select1stISt4pairIKN4cvc58internal8TypeNodeEbEEclERKS5_ = comdat any

$_ZNKSt13_Rb_tree_nodeISt4pairIKN4cvc58internal8TypeNodeEbEE9_M_valptrEv = comdat any

$_ZNK9__gnu_cxx16__aligned_membufISt4pairIKN4cvc58internal8TypeNodeEbEE6_M_ptrEv = comdat any

$_ZNK9__gnu_cxx16__aligned_membufISt4pairIKN4cvc58internal8TypeNodeEbEE7_M_addrEv = comdat any

$_ZNK4cvc58internal8TypeNodeltERKS1_ = comdat any

$_ZNSt3mapIN4cvc58internal8TypeNodeEbSt4lessIS2_ESaISt4pairIKS2_bEEE11lower_boundERS6_ = comdat any

$_ZNKSt3mapIN4cvc58internal8TypeNodeEbSt4lessIS2_ESaISt4pairIKS2_bEEE8key_compEv = comdat any

$_ZNSt8_Rb_treeIN4cvc58internal8TypeNodeESt4pairIKS2_bESt10_Select1stIS5_ESt4lessIS2_ESaIS5_EE22_M_emplace_hint_uniqueIJRKSt21piecewise_construct_tSt5tupleIJRS4_EESG_IJEEEEESt17_Rb_tree_iteratorIS5_ESt23_Rb_tree_const_iteratorIS5_EDpOT_ = comdat any

$_ZNSt23_Rb_tree_const_iteratorISt4pairIKN4cvc58internal8TypeNodeEbEEC2ERKSt17_Rb_tree_iteratorIS5_E = comdat any

$_ZNSt5tupleIJRKN4cvc58internal8TypeNodeEEEC2ILb1ETnNSt9enable_ifIXclsr4_TCCIXT_EEE29__is_implicitly_constructibleIS4_EEEbE4typeELb1EEES4_ = comdat any

$_ZNSt8_Rb_treeIN4cvc58internal8TypeNodeESt4pairIKS2_bESt10_Select1stIS5_ESt4lessIS2_ESaIS5_EE11lower_boundERS4_ = comdat any

$_ZNKSt8_Rb_treeIN4cvc58internal8TypeNodeESt4pairIKS2_bESt10_Select1stIS5_ESt4lessIS2_ESaIS5_EE8key_compEv = comdat any

$_ZNSt8_Rb_treeIN4cvc58internal8TypeNodeESt4pairIKS2_bESt10_Select1stIS5_ESt4lessIS2_ESaIS5_EE10_Auto_nodeC2IJRKSt21piecewise_construct_tSt5tupleIJRS4_EESH_IJEEEEERSB_DpOT_ = comdat any

$_ZNSt8_Rb_treeIN4cvc58internal8TypeNodeESt4pairIKS2_bESt10_Select1stIS5_ESt4lessIS2_ESaIS5_EE29_M_get_insert_hint_unique_posESt23_Rb_tree_const_iteratorIS5_ERS4_ = comdat any

$_ZNKSt8_Rb_treeIN4cvc58internal8TypeNodeESt4pairIKS2_bESt10_Select1stIS5_ESt4lessIS2_ESaIS5_EE10_Auto_node6_M_keyEv = comdat any

$_ZNSt8_Rb_treeIN4cvc58internal8TypeNodeESt4pairIKS2_bESt10_Select1stIS5_ESt4lessIS2_ESaIS5_EE10_Auto_node9_M_insertES3_IPSt18_Rb_tree_node_baseSE_E = comdat any

$_ZNSt8_Rb_treeIN4cvc58internal8TypeNodeESt4pairIKS2_bESt10_Select1stIS5_ESt4lessIS2_ESaIS5_EE10_Auto_nodeD2Ev = comdat any

$_ZNSt8_Rb_treeIN4cvc58internal8TypeNodeESt4pairIKS2_bESt10_Select1stIS5_ESt4lessIS2_ESaIS5_EE14_M_create_nodeIJRKSt21piecewise_construct_tSt5tupleIJRS4_EESG_IJEEEEEPSt13_Rb_tree_nodeIS5_EDpOT_ = comdat any

$_ZNSt8_Rb_treeIN4cvc58internal8TypeNodeESt4pairIKS2_bESt10_Select1stIS5_ESt4lessIS2_ESaIS5_EE11_M_get_nodeEv = comdat any

$_ZNSt8_Rb_treeIN4cvc58internal8TypeNodeESt4pairIKS2_bESt10_Select1stIS5_ESt4lessIS2_ESaIS5_EE17_M_construct_nodeIJRKSt21piecewise_construct_tSt5tupleIJRS4_EESG_IJEEEEEvPSt13_Rb_tree_nodeIS5_EDpOT_ = comdat any

$_ZNSt16allocator_traitsISaISt13_Rb_tree_nodeISt4pairIKN4cvc58internal8TypeNodeEbEEEE8allocateERS8_m = comdat any

$_ZNSt15__new_allocatorISt13_Rb_tree_nodeISt4pairIKN4cvc58internal8TypeNodeEbEEE8allocateEmPKv = comdat any

$_ZNKSt15__new_allocatorISt13_Rb_tree_nodeISt4pairIKN4cvc58internal8TypeNodeEbEEE11_M_max_sizeEv = comdat any

$_ZNSt16allocator_traitsISaISt13_Rb_tree_nodeISt4pairIKN4cvc58internal8TypeNodeEbEEEE9constructIS6_JRKSt21piecewise_construct_tSt5tupleIJRS5_EESE_IJEEEEEvRS8_PT_DpOT0_ = comdat any

$_ZNSt15__new_allocatorISt13_Rb_tree_nodeISt4pairIKN4cvc58internal8TypeNodeEbEEE9constructIS6_JRKSt21piecewise_construct_tSt5tupleIJRS5_EESD_IJEEEEEvPT_DpOT0_ = comdat any

$_ZNSt5tupleIJRKN4cvc58internal8TypeNodeEEEC2EOS5_ = comdat any

$_ZNSt4pairIKN4cvc58internal8TypeNodeEbEC2IJRS3_EJEEESt21piecewise_construct_tSt5tupleIJDpT_EES8_IJDpT0_EE = comdat any

$_ZNSt11_Tuple_implILm0EJRKN4cvc58internal8TypeNodeEEEC2EOS5_ = comdat any

$_ZNSt4pairIKN4cvc58internal8TypeNodeEbEC2IJRS3_EJLm0EEJETpTnmJEEERSt5tupleIJDpT_EERS7_IJDpT1_EESt12_Index_tupleIJXspT0_EEESG_IJXspT2_EEE = comdat any

$_ZSt3getILm0EJRKN4cvc58internal8TypeNodeEEERNSt13tuple_elementIXT_ESt5tupleIJDpT0_EEE4typeERS9_ = comdat any

$_ZSt12__get_helperILm0ERKN4cvc58internal8TypeNodeEJEERT0_RSt11_Tuple_implIXT_EJS5_DpT1_EE = comdat any

$_ZNSt11_Tuple_implILm0EJRKN4cvc58internal8TypeNodeEEE7_M_headERS5_ = comdat any

$_ZNSt10_Head_baseILm0ERKN4cvc58internal8TypeNodeELb0EE7_M_headERS5_ = comdat any

$_ZNKSt23_Rb_tree_const_iteratorISt4pairIKN4cvc58internal8TypeNodeEbEE13_M_const_castEv = comdat any

$_ZNKSt8_Rb_treeIN4cvc58internal8TypeNodeESt4pairIKS2_bESt10_Select1stIS5_ESt4lessIS2_ESaIS5_EE4sizeEv = comdat any

$_ZNSt8_Rb_treeIN4cvc58internal8TypeNodeESt4pairIKS2_bESt10_Select1stIS5_ESt4lessIS2_ESaIS5_EE12_M_rightmostEv = comdat any

$_ZNSt4pairIPSt18_Rb_tree_node_baseS1_EC2IS1_S1_TnNSt9enable_ifIXaaclsr5_PCCPE18_ConstructiblePairIT_T0_EEclsr5_PCCPE26_ImplicitlyConvertiblePairIS5_S6_EEEbE4typeELb1EEERKS1_SA_ = comdat any

$_ZNSt8_Rb_treeIN4cvc58internal8TypeNodeESt4pairIKS2_bESt10_Select1stIS5_ESt4lessIS2_ESaIS5_EE24_M_get_insert_unique_posERS4_ = comdat any

$_ZNSt8_Rb_treeIN4cvc58internal8TypeNodeESt4pairIKS2_bESt10_Select1stIS5_ESt4lessIS2_ESaIS5_EE11_M_leftmostEv = comdat any

$_ZNSt4pairIPSt18_Rb_tree_node_baseS1_EC2IRS1_S4_TnNSt9enable_ifIXaaclsr5_PCCPE22_MoveConstructiblePairIT_T0_EEclsr5_PCCPE30_ImplicitlyMoveConvertiblePairIS6_S7_EEEbE4typeELb1EEEOS6_OS7_ = comdat any

$_ZNSt17_Rb_tree_iteratorISt4pairIKN4cvc58internal8TypeNodeEbEEmmEv = comdat any

$_ZNSt8_Rb_treeIN4cvc58internal8TypeNodeESt4pairIKS2_bESt10_Select1stIS5_ESt4lessIS2_ESaIS5_EE5beginEv = comdat any

$_ZNSt4pairIPSt18_Rb_tree_node_baseS1_EC2IRPSt13_Rb_tree_nodeIS_IKN4cvc58internal8TypeNodeEbEERS1_TnNSt9enable_ifIXaaclsr5_PCCPE22_MoveConstructiblePairIT_T0_EEclsr5_PCCPE30_ImplicitlyMoveConvertiblePairISF_SG_EEEbE4typeELb1EEEOSF_OSG_ = comdat any

$_ZNSt8_Rb_treeIN4cvc58internal8TypeNodeESt4pairIKS2_bESt10_Select1stIS5_ESt4lessIS2_ESaIS5_EE14_M_insert_nodeEPSt18_Rb_tree_node_baseSD_PSt13_Rb_tree_nodeIS5_E = comdat any

$_ZNSt11_Tuple_implILm0EJRKN4cvc58internal8TypeNodeEEEC2ES4_ = comdat any

$_ZNSt10_Head_baseILm0ERKN4cvc58internal8TypeNodeELb0EEC2ES4_ = comdat any

$_ZNSt3mapIN4cvc58internal8TypeNodeESt6vectorINS1_12NodeTemplateILb1EEESaIS5_EESt4lessIS2_ESaISt4pairIKS2_S7_EEE11lower_boundERSB_ = comdat any

$_ZSteqRKSt17_Rb_tree_iteratorISt4pairIKN4cvc58internal8TypeNodeESt6vectorINS2_12NodeTemplateILb1EEESaIS7_EEEESD_ = comdat any

$_ZNKSt3mapIN4cvc58internal8TypeNodeESt6vectorINS1_12NodeTemplateILb1EEESaIS5_EESt4lessIS2_ESaISt4pairIKS2_S7_EEE8key_compEv = comdat any

$_ZNSt8_Rb_treeIN4cvc58internal8TypeNodeESt4pairIKS2_St6vectorINS1_12NodeTemplateILb1EEESaIS7_EEESt10_Select1stISA_ESt4lessIS2_ESaISA_EE22_M_emplace_hint_uniqueIJRKSt21piecewise_construct_tSt5tupleIJRS4_EESL_IJEEEEESt17_Rb_tree_iteratorISA_ESt23_Rb_tree_const_iteratorISA_EDpOT_ = comdat any

$_ZNSt23_Rb_tree_const_iteratorISt4pairIKN4cvc58internal8TypeNodeESt6vectorINS2_12NodeTemplateILb1EEESaIS7_EEEEC2ERKSt17_Rb_tree_iteratorISA_E = comdat any

$_ZNSt8_Rb_treeIN4cvc58internal8TypeNodeESt4pairIKS2_St6vectorINS1_12NodeTemplateILb1EEESaIS7_EEESt10_Select1stISA_ESt4lessIS2_ESaISA_EE11lower_boundERS4_ = comdat any

$_ZNSt8_Rb_treeIN4cvc58internal8TypeNodeESt4pairIKS2_St6vectorINS1_12NodeTemplateILb1EEESaIS7_EEESt10_Select1stISA_ESt4lessIS2_ESaISA_EE14_M_lower_boundEPSt13_Rb_tree_nodeISA_EPSt18_Rb_tree_node_baseRS4_ = comdat any

$_ZNSt8_Rb_treeIN4cvc58internal8TypeNodeESt4pairIKS2_St6vectorINS1_12NodeTemplateILb1EEESaIS7_EEESt10_Select1stISA_ESt4lessIS2_ESaISA_EE6_M_endEv = comdat any

$_ZNSt8_Rb_treeIN4cvc58internal8TypeNodeESt4pairIKS2_St6vectorINS1_12NodeTemplateILb1EEESaIS7_EEESt10_Select1stISA_ESt4lessIS2_ESaISA_EE6_S_keyEPKSt13_Rb_tree_nodeISA_E = comdat any

$_ZNSt17_Rb_tree_iteratorISt4pairIKN4cvc58internal8TypeNodeESt6vectorINS2_12NodeTemplateILb1EEESaIS7_EEEEC2EPSt18_Rb_tree_node_base = comdat any

$_ZNKSt10_Select1stISt4pairIKN4cvc58internal8TypeNodeESt6vectorINS2_12NodeTemplateILb1EEESaIS7_EEEEclERKSA_ = comdat any

$_ZNKSt13_Rb_tree_nodeISt4pairIKN4cvc58internal8TypeNodeESt6vectorINS2_12NodeTemplateILb1EEESaIS7_EEEE9_M_valptrEv = comdat any

$_ZNK9__gnu_cxx16__aligned_membufISt4pairIKN4cvc58internal8TypeNodeESt6vectorINS3_12NodeTemplateILb1EEESaIS8_EEEE6_M_ptrEv = comdat any

$_ZNK9__gnu_cxx16__aligned_membufISt4pairIKN4cvc58internal8TypeNodeESt6vectorINS3_12NodeTemplateILb1EEESaIS8_EEEE7_M_addrEv = comdat any

$_ZNKSt8_Rb_treeIN4cvc58internal8TypeNodeESt4pairIKS2_St6vectorINS1_12NodeTemplateILb1EEESaIS7_EEESt10_Select1stISA_ESt4lessIS2_ESaISA_EE8key_compEv = comdat any

$_ZNSt8_Rb_treeIN4cvc58internal8TypeNodeESt4pairIKS2_St6vectorINS1_12NodeTemplateILb1EEESaIS7_EEESt10_Select1stISA_ESt4lessIS2_ESaISA_EE10_Auto_nodeC2IJRKSt21piecewise_construct_tSt5tupleIJRS4_EESM_IJEEEEERSG_DpOT_ = comdat any

$_ZNSt8_Rb_treeIN4cvc58internal8TypeNodeESt4pairIKS2_St6vectorINS1_12NodeTemplateILb1EEESaIS7_EEESt10_Select1stISA_ESt4lessIS2_ESaISA_EE29_M_get_insert_hint_unique_posESt23_Rb_tree_const_iteratorISA_ERS4_ = comdat any

$_ZNKSt8_Rb_treeIN4cvc58internal8TypeNodeESt4pairIKS2_St6vectorINS1_12NodeTemplateILb1EEESaIS7_EEESt10_Select1stISA_ESt4lessIS2_ESaISA_EE10_Auto_node6_M_keyEv = comdat any

$_ZNSt8_Rb_treeIN4cvc58internal8TypeNodeESt4pairIKS2_St6vectorINS1_12NodeTemplateILb1EEESaIS7_EEESt10_Select1stISA_ESt4lessIS2_ESaISA_EE10_Auto_node9_M_insertES3_IPSt18_Rb_tree_node_baseSJ_E = comdat any

$_ZNSt8_Rb_treeIN4cvc58internal8TypeNodeESt4pairIKS2_St6vectorINS1_12NodeTemplateILb1EEESaIS7_EEESt10_Select1stISA_ESt4lessIS2_ESaISA_EE10_Auto_nodeD2Ev = comdat any

$_ZNSt8_Rb_treeIN4cvc58internal8TypeNodeESt4pairIKS2_St6vectorINS1_12NodeTemplateILb1EEESaIS7_EEESt10_Select1stISA_ESt4lessIS2_ESaISA_EE14_M_create_nodeIJRKSt21piecewise_construct_tSt5tupleIJRS4_EESL_IJEEEEEPSt13_Rb_tree_nodeISA_EDpOT_ = comdat any

$_ZNSt8_Rb_treeIN4cvc58internal8TypeNodeESt4pairIKS2_St6vectorINS1_12NodeTemplateILb1EEESaIS7_EEESt10_Select1stISA_ESt4lessIS2_ESaISA_EE11_M_get_nodeEv = comdat any

$_ZNSt8_Rb_treeIN4cvc58internal8TypeNodeESt4pairIKS2_St6vectorINS1_12NodeTemplateILb1EEESaIS7_EEESt10_Select1stISA_ESt4lessIS2_ESaISA_EE17_M_construct_nodeIJRKSt21piecewise_construct_tSt5tupleIJRS4_EESL_IJEEEEEvPSt13_Rb_tree_nodeISA_EDpOT_ = comdat any

$_ZNSt16allocator_traitsISaISt13_Rb_tree_nodeISt4pairIKN4cvc58internal8TypeNodeESt6vectorINS3_12NodeTemplateILb1EEESaIS8_EEEEEE8allocateERSD_m = comdat any

$_ZNSt15__new_allocatorISt13_Rb_tree_nodeISt4pairIKN4cvc58internal8TypeNodeESt6vectorINS3_12NodeTemplateILb1EEESaIS8_EEEEE8allocateEmPKv = comdat any

$_ZNKSt15__new_allocatorISt13_Rb_tree_nodeISt4pairIKN4cvc58internal8TypeNodeESt6vectorINS3_12NodeTemplateILb1EEESaIS8_EEEEE11_M_max_sizeEv = comdat any

$_ZNSt16allocator_traitsISaISt13_Rb_tree_nodeISt4pairIKN4cvc58internal8TypeNodeESt6vectorINS3_12NodeTemplateILb1EEESaIS8_EEEEEE9constructISB_JRKSt21piecewise_construct_tSt5tupleIJRS5_EESJ_IJEEEEEvRSD_PT_DpOT0_ = comdat any

$_ZNSt15__new_allocatorISt13_Rb_tree_nodeISt4pairIKN4cvc58internal8TypeNodeESt6vectorINS3_12NodeTemplateILb1EEESaIS8_EEEEE9constructISB_JRKSt21piecewise_construct_tSt5tupleIJRS5_EESI_IJEEEEEvPT_DpOT0_ = comdat any

$_ZNSt4pairIKN4cvc58internal8TypeNodeESt6vectorINS1_12NodeTemplateILb1EEESaIS6_EEEC2IJRS3_EJEEESt21piecewise_construct_tSt5tupleIJDpT_EESD_IJDpT0_EE = comdat any

$_ZNSt4pairIKN4cvc58internal8TypeNodeESt6vectorINS1_12NodeTemplateILb1EEESaIS6_EEEC2IJRS3_EJLm0EEJETpTnmJEEERSt5tupleIJDpT_EERSC_IJDpT1_EESt12_Index_tupleIJXspT0_EEESL_IJXspT2_EEE = comdat any

$_ZNKSt23_Rb_tree_const_iteratorISt4pairIKN4cvc58internal8TypeNodeESt6vectorINS2_12NodeTemplateILb1EEESaIS7_EEEE13_M_const_castEv = comdat any

$_ZNKSt8_Rb_treeIN4cvc58internal8TypeNodeESt4pairIKS2_St6vectorINS1_12NodeTemplateILb1EEESaIS7_EEESt10_Select1stISA_ESt4lessIS2_ESaISA_EE4sizeEv = comdat any

$_ZNSt8_Rb_treeIN4cvc58internal8TypeNodeESt4pairIKS2_St6vectorINS1_12NodeTemplateILb1EEESaIS7_EEESt10_Select1stISA_ESt4lessIS2_ESaISA_EE6_S_keyEPKSt18_Rb_tree_node_base = comdat any

$_ZNSt8_Rb_treeIN4cvc58internal8TypeNodeESt4pairIKS2_St6vectorINS1_12NodeTemplateILb1EEESaIS7_EEESt10_Select1stISA_ESt4lessIS2_ESaISA_EE12_M_rightmostEv = comdat any

$_ZNSt8_Rb_treeIN4cvc58internal8TypeNodeESt4pairIKS2_St6vectorINS1_12NodeTemplateILb1EEESaIS7_EEESt10_Select1stISA_ESt4lessIS2_ESaISA_EE24_M_get_insert_unique_posERS4_ = comdat any

$_ZNSt8_Rb_treeIN4cvc58internal8TypeNodeESt4pairIKS2_St6vectorINS1_12NodeTemplateILb1EEESaIS7_EEESt10_Select1stISA_ESt4lessIS2_ESaISA_EE11_M_leftmostEv = comdat any

$_ZNSt17_Rb_tree_iteratorISt4pairIKN4cvc58internal8TypeNodeESt6vectorINS2_12NodeTemplateILb1EEESaIS7_EEEEmmEv = comdat any

$_ZNSt8_Rb_treeIN4cvc58internal8TypeNodeESt4pairIKS2_St6vectorINS1_12NodeTemplateILb1EEESaIS7_EEESt10_Select1stISA_ESt4lessIS2_ESaISA_EE5beginEv = comdat any

$_ZNSt4pairIPSt18_Rb_tree_node_baseS1_EC2IRPSt13_Rb_tree_nodeIS_IKN4cvc58internal8TypeNodeESt6vectorINS6_12NodeTemplateILb1EEESaISB_EEEERS1_TnNSt9enable_ifIXaaclsr5_PCCPE22_MoveConstructiblePairIT_T0_EEclsr5_PCCPE30_ImplicitlyMoveConvertiblePairISK_SL_EEEbE4typeELb1EEEOSK_OSL_ = comdat any

$_ZNSt8_Rb_treeIN4cvc58internal8TypeNodeESt4pairIKS2_St6vectorINS1_12NodeTemplateILb1EEESaIS7_EEESt10_Select1stISA_ESt4lessIS2_ESaISA_EE14_M_insert_nodeEPSt18_Rb_tree_node_baseSI_PSt13_Rb_tree_nodeISA_E = comdat any

$_ZN9__gnu_cxxmiIPKN4cvc58internal12NodeTemplateILb1EEESt6vectorIS4_SaIS4_EEEENS_17__normal_iteratorIT_T0_E15difference_typeERKSD_SG_ = comdat any

$_ZNKSt6vectorIN4cvc58internal12NodeTemplateILb1EEESaIS3_EE6cbeginEv = comdat any

$_ZNSt6vectorIN4cvc58internal12NodeTemplateILb1EEESaIS3_EE18_M_insert_dispatchIN9__gnu_cxx17__normal_iteratorIPS3_S5_EEEEvSA_T_SB_St12__false_type = comdat any

$_ZNK9__gnu_cxx17__normal_iteratorIPN4cvc58internal12NodeTemplateILb1EEESt6vectorIS4_SaIS4_EEEplEl = comdat any

$_ZNSt6vectorIN4cvc58internal12NodeTemplateILb1EEESaIS3_EE15_M_range_insertIN9__gnu_cxx17__normal_iteratorIPS3_S5_EEEEvSA_T_SB_St20forward_iterator_tag = comdat any

$_ZSt19__iterator_categoryIN9__gnu_cxx17__normal_iteratorIPN4cvc58internal12NodeTemplateILb1EEESt6vectorIS5_SaIS5_EEEEENSt15iterator_traitsIT_E17iterator_categoryERKSC_ = comdat any

$_ZSt8distanceIN9__gnu_cxx17__normal_iteratorIPN4cvc58internal12NodeTemplateILb1EEESt6vectorIS5_SaIS5_EEEEENSt15iterator_traitsIT_E15difference_typeESC_SC_ = comdat any

$_ZSt22__uninitialized_move_aIPN4cvc58internal12NodeTemplateILb1EEES4_SaIS3_EET0_T_S7_S6_RT1_ = comdat any

$_ZSt13move_backwardIPN4cvc58internal12NodeTemplateILb1EEES4_ET0_T_S6_S5_ = comdat any

$_ZSt4copyIN9__gnu_cxx17__normal_iteratorIPN4cvc58internal12NodeTemplateILb1EEESt6vectorIS5_SaIS5_EEEESA_ET0_T_SC_SB_ = comdat any

$_ZSt7advanceIN9__gnu_cxx17__normal_iteratorIPN4cvc58internal12NodeTemplateILb1EEESt6vectorIS5_SaIS5_EEEEmEvRT_T0_ = comdat any

$_ZSt22__uninitialized_copy_aIN9__gnu_cxx17__normal_iteratorIPN4cvc58internal12NodeTemplateILb1EEESt6vectorIS5_SaIS5_EEEES6_S5_ET0_T_SC_SB_RSaIT1_E = comdat any

$_ZSt10__distanceIN9__gnu_cxx17__normal_iteratorIPN4cvc58internal12NodeTemplateILb1EEESt6vectorIS5_SaIS5_EEEEENSt15iterator_traitsIT_E15difference_typeESC_SC_St26random_access_iterator_tag = comdat any

$_ZSt22__uninitialized_copy_aISt13move_iteratorIPN4cvc58internal12NodeTemplateILb1EEEES5_S4_ET0_T_S8_S7_RSaIT1_E = comdat any

$_ZSt18make_move_iteratorIPN4cvc58internal12NodeTemplateILb1EEEESt13move_iteratorIT_ES6_ = comdat any

$_ZSt18uninitialized_copyISt13move_iteratorIPN4cvc58internal12NodeTemplateILb1EEEES5_ET0_T_S8_S7_ = comdat any

$_ZNSt20__uninitialized_copyILb0EE13__uninit_copyISt13move_iteratorIPN4cvc58internal12NodeTemplateILb1EEEES7_EET0_T_SA_S9_ = comdat any

$_ZSt16__do_uninit_copyISt13move_iteratorIPN4cvc58internal12NodeTemplateILb1EEEES5_ET0_T_S8_S7_ = comdat any

$_ZStneIPN4cvc58internal12NodeTemplateILb1EEEEbRKSt13move_iteratorIT_ES9_ = comdat any

$_ZSt10_ConstructIN4cvc58internal12NodeTemplateILb1EEEJS3_EEvPT_DpOT0_ = comdat any

$_ZNKSt13move_iteratorIPN4cvc58internal12NodeTemplateILb1EEEEdeEv = comdat any

$_ZNSt13move_iteratorIPN4cvc58internal12NodeTemplateILb1EEEEppEv = comdat any

$_ZSteqIPN4cvc58internal12NodeTemplateILb1EEEEbRKSt13move_iteratorIT_ES9_ = comdat any

$_ZNKSt13move_iteratorIPN4cvc58internal12NodeTemplateILb1EEEE4baseEv = comdat any

$_ZNSt13move_iteratorIPN4cvc58internal12NodeTemplateILb1EEEEC2ES4_ = comdat any

$_ZSt22__copy_move_backward_aILb1EPN4cvc58internal12NodeTemplateILb1EEES4_ET1_T0_S6_S5_ = comdat any

$_ZSt12__miter_baseIPN4cvc58internal12NodeTemplateILb1EEEET_S5_ = comdat any

$_ZSt12__niter_wrapIPN4cvc58internal12NodeTemplateILb1EEEET_RKS5_S5_ = comdat any

$_ZSt23__copy_move_backward_a1ILb1EPN4cvc58internal12NodeTemplateILb1EEES4_ET1_T0_S6_S5_ = comdat any

$_ZSt12__niter_baseIPN4cvc58internal12NodeTemplateILb1EEEET_S5_ = comdat any

$_ZSt23__copy_move_backward_a2ILb1EPN4cvc58internal12NodeTemplateILb1EEES4_ET1_T0_S6_S5_ = comdat any

$_ZNSt20__copy_move_backwardILb1ELb0ESt26random_access_iterator_tagE13__copy_move_bIPN4cvc58internal12NodeTemplateILb1EEES7_EET0_T_S9_S8_ = comdat any

$_ZSt13__copy_move_aILb0EN9__gnu_cxx17__normal_iteratorIPN4cvc58internal12NodeTemplateILb1EEESt6vectorIS5_SaIS5_EEEESA_ET1_T0_SC_SB_ = comdat any

$_ZSt12__miter_baseIN9__gnu_cxx17__normal_iteratorIPN4cvc58internal12NodeTemplateILb1EEESt6vectorIS5_SaIS5_EEEEET_SB_ = comdat any

$_ZSt12__niter_wrapIN9__gnu_cxx17__normal_iteratorIPN4cvc58internal12NodeTemplateILb1EEESt6vectorIS5_SaIS5_EEEES6_ET_SB_T0_ = comdat any

$_ZSt14__copy_move_a1ILb0EPN4cvc58internal12NodeTemplateILb1EEES4_ET1_T0_S6_S5_ = comdat any

$_ZSt12__niter_baseIPN4cvc58internal12NodeTemplateILb1EEESt6vectorIS3_SaIS3_EEET_N9__gnu_cxx17__normal_iteratorIS8_T0_EE = comdat any

$_ZSt14__copy_move_a2ILb0EPN4cvc58internal12NodeTemplateILb1EEES4_ET1_T0_S6_S5_ = comdat any

$_ZNSt11__copy_moveILb0ELb0ESt26random_access_iterator_tagE8__copy_mIPN4cvc58internal12NodeTemplateILb1EEES7_EET0_T_S9_S8_ = comdat any

$_ZSt9__advanceIN9__gnu_cxx17__normal_iteratorIPN4cvc58internal12NodeTemplateILb1EEESt6vectorIS5_SaIS5_EEEElEvRT_T0_St26random_access_iterator_tag = comdat any

$_ZN9__gnu_cxx17__normal_iteratorIPN4cvc58internal12NodeTemplateILb1EEESt6vectorIS4_SaIS4_EEEmmEv = comdat any

$_ZN9__gnu_cxx17__normal_iteratorIPN4cvc58internal12NodeTemplateILb1EEESt6vectorIS4_SaIS4_EEEpLEl = comdat any

$_ZSt18uninitialized_copyIN9__gnu_cxx17__normal_iteratorIPN4cvc58internal12NodeTemplateILb1EEESt6vectorIS5_SaIS5_EEEES6_ET0_T_SC_SB_ = comdat any

$_ZNSt20__uninitialized_copyILb0EE13__uninit_copyIN9__gnu_cxx17__normal_iteratorIPN4cvc58internal12NodeTemplateILb1EEESt6vectorIS7_SaIS7_EEEES8_EET0_T_SE_SD_ = comdat any

$_ZSt16__do_uninit_copyIN9__gnu_cxx17__normal_iteratorIPN4cvc58internal12NodeTemplateILb1EEESt6vectorIS5_SaIS5_EEEES6_ET0_T_SC_SB_ = comdat any

$_ZSt10_ConstructIN4cvc58internal12NodeTemplateILb1EEEJRS3_EEvPT_DpOT0_ = comdat any

$_ZN9__gnu_cxxeqIPKN4cvc58internal12NodeTemplateILb0EEESt6vectorIS4_SaIS4_EEEEbRKNS_17__normal_iteratorIT_T0_EESF_ = comdat any

$_ZNKSt6vectorIN4cvc58internal12NodeTemplateILb0EEESaIS3_EE5beginEv = comdat any

$_ZNKSt6vectorIN4cvc58internal12NodeTemplateILb0EEESaIS3_EE3endEv = comdat any

$_ZNK9__gnu_cxx17__normal_iteratorIPKN4cvc58internal12NodeTemplateILb0EEESt6vectorIS4_SaIS4_EEE4baseEv = comdat any

$_ZN9__gnu_cxx17__normal_iteratorIPKN4cvc58internal12NodeTemplateILb0EEESt6vectorIS4_SaIS4_EEEC2ERKS6_ = comdat any

$_ZNSt16allocator_traitsISaIN4cvc58internal12NodeTemplateILb1EEEEE9constructIS3_JRKS3_EEEvRS4_PT_DpOT0_ = comdat any

$_ZNSt6vectorIN4cvc58internal12NodeTemplateILb1EEESaIS3_EE17_M_realloc_insertIJRKS3_EEEvN9__gnu_cxx17__normal_iteratorIPS3_S5_EEDpOT_ = comdat any

$_ZNSt15__new_allocatorIN4cvc58internal12NodeTemplateILb1EEEE9constructIS3_JRKS3_EEEvPT_DpOT0_ = comdat any

$_ZNSt13unordered_mapIN4cvc58internal12NodeTemplateILb0EEES3_St4hashIS3_ESt8equal_toIS3_ESaISt4pairIKS3_S3_EEEC2Ev = comdat any

$_ZNK4cvc58internal12NodeTemplateILb1EE10substituteIN9__gnu_cxx17__normal_iteratorIPS2_St6vectorIS2_SaIS2_EEEESA_EES2_T_SB_T0_SC_RSt13unordered_mapINS1_ILb0EEESE_St4hashISE_ESt8equal_toISE_ESaISt4pairIKSE_SE_EEE = comdat any

$_ZNSt13unordered_mapIN4cvc58internal12NodeTemplateILb0EEES3_St4hashIS3_ESt8equal_toIS3_ESaISt4pairIKS3_S3_EEED2Ev = comdat any

$_ZNSt10_HashtableIN4cvc58internal12NodeTemplateILb0EEESt4pairIKS3_S3_ESaIS6_ENSt8__detail10_Select1stESt8equal_toIS3_ESt4hashIS3_ENS8_18_Mod_range_hashingENS8_20_Default_ranged_hashENS8_20_Prime_rehash_policyENS8_17_Hashtable_traitsILb1ELb0ELb1EEEEC2Ev = comdat any

$_ZNSt8__detail15_Hashtable_baseIN4cvc58internal12NodeTemplateILb0EEESt4pairIKS4_S4_ENS_10_Select1stESt8equal_toIS4_ESt4hashIS4_ENS_18_Mod_range_hashingENS_20_Default_ranged_hashENS_17_Hashtable_traitsILb1ELb0ELb1EEEEC2Ev = comdat any

$_ZNSt8__detail16_Hashtable_allocISaINS_10_Hash_nodeISt4pairIKN4cvc58internal12NodeTemplateILb0EEES6_ELb1EEEEEC2Ev = comdat any

$_ZNSt8__detail15_Hash_code_baseIN4cvc58internal12NodeTemplateILb0EEESt4pairIKS4_S4_ENS_10_Select1stESt4hashIS4_ENS_18_Mod_range_hashingENS_20_Default_ranged_hashELb1EEC2Ev = comdat any

$_ZNSt8__detail21_Hashtable_ebo_helperILi0ESaINS_10_Hash_nodeISt4pairIKN4cvc58internal12NodeTemplateILb0EEES6_ELb1EEEELb1EEC2Ev = comdat any

$_ZNSaINSt8__detail10_Hash_nodeISt4pairIKN4cvc58internal12NodeTemplateILb0EEES5_ELb1EEEEC2Ev = comdat any

$_ZNSt15__new_allocatorINSt8__detail10_Hash_nodeISt4pairIKN4cvc58internal12NodeTemplateILb0EEES6_ELb1EEEEC2Ev = comdat any

$_ZNSt13unordered_mapIN4cvc58internal12NodeTemplateILb0EEES3_St4hashIS3_ESt8equal_toIS3_ESaISt4pairIKS3_S3_EEE4findERS9_ = comdat any

$_ZNSt8__detail20_Node_const_iteratorISt4pairIKN4cvc58internal12NodeTemplateILb0EEES5_ELb0ELb1EEC2ERKNS_14_Node_iteratorIS7_Lb0ELb1EEE = comdat any

$_ZNSt8__detailneERKNS_19_Node_iterator_baseISt4pairIKN4cvc58internal12NodeTemplateILb0EEES5_ELb1EEESA_ = comdat any

$_ZNSt13unordered_mapIN4cvc58internal12NodeTemplateILb0EEES3_St4hashIS3_ESt8equal_toIS3_ESaISt4pairIKS3_S3_EEE3endEv = comdat any

$_ZNKSt8__detail20_Node_const_iteratorISt4pairIKN4cvc58internal12NodeTemplateILb0EEES5_ELb0ELb1EEdeEv = comdat any

$_ZSt4findIN9__gnu_cxx17__normal_iteratorIPN4cvc58internal12NodeTemplateILb1EEESt6vectorIS5_SaIS5_EEEENS4_ILb0EEEET_SC_SC_RKT0_ = comdat any

$_ZSt7advanceIN9__gnu_cxx17__normal_iteratorIPN4cvc58internal12NodeTemplateILb1EEESt6vectorIS5_SaIS5_EEEElEvRT_T0_ = comdat any

$_ZNSt13unordered_mapIN4cvc58internal12NodeTemplateILb0EEES3_St4hashIS3_ESt8equal_toIS3_ESaISt4pairIKS3_S3_EEEixEOS3_ = comdat any

$_ZN4cvc58internal12NodeTemplateILb0EEaSERKNS1_ILb1EEE = comdat any

$_ZNK4cvc58internal12NodeTemplateILb1EE11getMetaKindEv = comdat any

$_ZNK4cvc58internal12NodeTemplateILb1EE5beginEv = comdat any

$_ZNK4cvc58internal12NodeTemplateILb1EE3endEv = comdat any

$_ZNSt10_HashtableIN4cvc58internal12NodeTemplateILb0EEESt4pairIKS3_S3_ESaIS6_ENSt8__detail10_Select1stESt8equal_toIS3_ESt4hashIS3_ENS8_18_Mod_range_hashingENS8_20_Default_ranged_hashENS8_20_Prime_rehash_policyENS8_17_Hashtable_traitsILb1ELb0ELb1EEEE4findERS5_ = comdat any

$_ZNKSt10_HashtableIN4cvc58internal12NodeTemplateILb0EEESt4pairIKS3_S3_ESaIS6_ENSt8__detail10_Select1stESt8equal_toIS3_ESt4hashIS3_ENS8_18_Mod_range_hashingENS8_20_Default_ranged_hashENS8_20_Prime_rehash_policyENS8_17_Hashtable_traitsILb1ELb0ELb1EEEE4sizeEv = comdat any

$_ZNSt10_HashtableIN4cvc58internal12NodeTemplateILb0EEESt4pairIKS3_S3_ESaIS6_ENSt8__detail10_Select1stESt8equal_toIS3_ESt4hashIS3_ENS8_18_Mod_range_hashingENS8_20_Default_ranged_hashENS8_20_Prime_rehash_policyENS8_17_Hashtable_traitsILb1ELb0ELb1EEEE22__small_size_thresholdEv = comdat any

$_ZNSt10_HashtableIN4cvc58internal12NodeTemplateILb0EEESt4pairIKS3_S3_ESaIS6_ENSt8__detail10_Select1stESt8equal_toIS3_ESt4hashIS3_ENS8_18_Mod_range_hashingENS8_20_Default_ranged_hashENS8_20_Prime_rehash_policyENS8_17_Hashtable_traitsILb1ELb0ELb1EEEE5beginEv = comdat any

$_ZNSt10_HashtableIN4cvc58internal12NodeTemplateILb0EEESt4pairIKS3_S3_ESaIS6_ENSt8__detail10_Select1stESt8equal_toIS3_ESt4hashIS3_ENS8_18_Mod_range_hashingENS8_20_Default_ranged_hashENS8_20_Prime_rehash_policyENS8_17_Hashtable_traitsILb1ELb0ELb1EEEE3endEv = comdat any

$_ZNKSt8__detail15_Hashtable_baseIN4cvc58internal12NodeTemplateILb0EEESt4pairIKS4_S4_ENS_10_Select1stESt8equal_toIS4_ESt4hashIS4_ENS_18_Mod_range_hashingENS_20_Default_ranged_hashENS_17_Hashtable_traitsILb1ELb0ELb1EEEE13_M_key_equalsERS6_RKNS_16_Hash_node_valueIS7_Lb1EEE = comdat any

$_ZNSt8__detail14_Node_iteratorISt4pairIKN4cvc58internal12NodeTemplateILb0EEES5_ELb0ELb1EEppEv = comdat any

$_ZNKSt8__detail15_Hash_code_baseIN4cvc58internal12NodeTemplateILb0EEESt4pairIKS4_S4_ENS_10_Select1stESt4hashIS4_ENS_18_Mod_range_hashingENS_20_Default_ranged_hashELb1EE12_M_hash_codeERS6_ = comdat any

$_ZNKSt10_HashtableIN4cvc58internal12NodeTemplateILb0EEESt4pairIKS3_S3_ESaIS6_ENSt8__detail10_Select1stESt8equal_toIS3_ESt4hashIS3_ENS8_18_Mod_range_hashingENS8_20_Default_ranged_hashENS8_20_Prime_rehash_policyENS8_17_Hashtable_traitsILb1ELb0ELb1EEEE15_M_bucket_indexEm = comdat any

$_ZNKSt10_HashtableIN4cvc58internal12NodeTemplateILb0EEESt4pairIKS3_S3_ESaIS6_ENSt8__detail10_Select1stESt8equal_toIS3_ESt4hashIS3_ENS8_18_Mod_range_hashingENS8_20_Default_ranged_hashENS8_20_Prime_rehash_policyENS8_17_Hashtable_traitsILb1ELb0ELb1EEEE12_M_find_nodeEmRS5_m = comdat any

$_ZNSt8__detail14_Node_iteratorISt4pairIKN4cvc58internal12NodeTemplateILb0EEES5_ELb0ELb1EEC2EPNS_10_Hash_nodeIS7_Lb1EEE = comdat any

$_ZNKSt10_HashtableIN4cvc58internal12NodeTemplateILb0EEESt4pairIKS3_S3_ESaIS6_ENSt8__detail10_Select1stESt8equal_toIS3_ESt4hashIS3_ENS8_18_Mod_range_hashingENS8_20_Default_ranged_hashENS8_20_Prime_rehash_policyENS8_17_Hashtable_traitsILb1ELb0ELb1EEEE8_M_beginEv = comdat any

$_ZNKSt8__detail15_Hashtable_baseIN4cvc58internal12NodeTemplateILb0EEESt4pairIKS4_S4_ENS_10_Select1stESt8equal_toIS4_ESt4hashIS4_ENS_18_Mod_range_hashingENS_20_Default_ranged_hashENS_17_Hashtable_traitsILb1ELb0ELb1EEEE5_M_eqEv = comdat any

$_ZNKSt8__detail10_Select1stclIRKSt4pairIKN4cvc58internal12NodeTemplateILb0EEES6_EEEONS0_10__1st_typeIT_E4typeEOSC_ = comdat any

$_ZNKSt8__detail21_Hash_node_value_baseISt4pairIKN4cvc58internal12NodeTemplateILb0EEES5_EE4_M_vEv = comdat any

$_ZNKSt8__detail21_Hash_node_value_baseISt4pairIKN4cvc58internal12NodeTemplateILb0EEES5_EE9_M_valptrEv = comdat any

$_ZNK9__gnu_cxx16__aligned_bufferISt4pairIKN4cvc58internal12NodeTemplateILb0EEES5_EE6_M_ptrEv = comdat any

$_ZNK9__gnu_cxx16__aligned_bufferISt4pairIKN4cvc58internal12NodeTemplateILb0EEES5_EE7_M_addrEv = comdat any

$_ZNSt8__detail19_Node_iterator_baseISt4pairIKN4cvc58internal12NodeTemplateILb0EEES5_ELb1EE7_M_incrEv = comdat any

$_ZNKSt8__detail10_Hash_nodeISt4pairIKN4cvc58internal12NodeTemplateILb0EEES5_ELb1EE7_M_nextEv = comdat any

$_ZNKSt8__detail15_Hash_code_baseIN4cvc58internal12NodeTemplateILb0EEESt4pairIKS4_S4_ENS_10_Select1stESt4hashIS4_ENS_18_Mod_range_hashingENS_20_Default_ranged_hashELb1EE7_M_hashEv = comdat any

$_ZNKSt8__detail15_Hash_code_baseIN4cvc58internal12NodeTemplateILb0EEESt4pairIKS4_S4_ENS_10_Select1stESt4hashIS4_ENS_18_Mod_range_hashingENS_20_Default_ranged_hashELb1EE15_M_bucket_indexEmm = comdat any

$_ZNKSt10_HashtableIN4cvc58internal12NodeTemplateILb0EEESt4pairIKS3_S3_ESaIS6_ENSt8__detail10_Select1stESt8equal_toIS3_ESt4hashIS3_ENS8_18_Mod_range_hashingENS8_20_Default_ranged_hashENS8_20_Prime_rehash_policyENS8_17_Hashtable_traitsILb1ELb0ELb1EEEE19_M_find_before_nodeEmRS5_m = comdat any

$_ZNKSt8__detail15_Hashtable_baseIN4cvc58internal12NodeTemplateILb0EEESt4pairIKS4_S4_ENS_10_Select1stESt8equal_toIS4_ESt4hashIS4_ENS_18_Mod_range_hashingENS_20_Default_ranged_hashENS_17_Hashtable_traitsILb1ELb0ELb1EEEE9_M_equalsERS6_mRKNS_16_Hash_node_valueIS7_Lb1EEE = comdat any

$_ZNKSt10_HashtableIN4cvc58internal12NodeTemplateILb0EEESt4pairIKS3_S3_ESaIS6_ENSt8__detail10_Select1stESt8equal_toIS3_ESt4hashIS3_ENS8_18_Mod_range_hashingENS8_20_Default_ranged_hashENS8_20_Prime_rehash_policyENS8_17_Hashtable_traitsILb1ELb0ELb1EEEE15_M_bucket_indexERKNS8_16_Hash_node_valueIS6_Lb1EEE = comdat any

$_ZNSt8__detail15_Hashtable_baseIN4cvc58internal12NodeTemplateILb0EEESt4pairIKS4_S4_ENS_10_Select1stESt8equal_toIS4_ESt4hashIS4_ENS_18_Mod_range_hashingENS_20_Default_ranged_hashENS_17_Hashtable_traitsILb1ELb0ELb1EEEE9_S_equalsEmRKNS_21_Hash_node_code_cacheILb1EEE = comdat any

$_ZNKSt8__detail15_Hash_code_baseIN4cvc58internal12NodeTemplateILb0EEESt4pairIKS4_S4_ENS_10_Select1stESt4hashIS4_ENS_18_Mod_range_hashingENS_20_Default_ranged_hashELb1EE15_M_bucket_indexERKNS_16_Hash_node_valueIS7_Lb1EEEm = comdat any

$_ZNSt8__detail19_Node_iterator_baseISt4pairIKN4cvc58internal12NodeTemplateILb0EEES5_ELb1EEC2EPNS_10_Hash_nodeIS7_Lb1EEE = comdat any

$_ZNSt8__detail21_Hash_node_value_baseISt4pairIKN4cvc58internal12NodeTemplateILb0EEES5_EE4_M_vEv = comdat any

$_ZNSt8__detail21_Hash_node_value_baseISt4pairIKN4cvc58internal12NodeTemplateILb0EEES5_EE9_M_valptrEv = comdat any

$_ZN9__gnu_cxx16__aligned_bufferISt4pairIKN4cvc58internal12NodeTemplateILb0EEES5_EE6_M_ptrEv = comdat any

$_ZN9__gnu_cxx16__aligned_bufferISt4pairIKN4cvc58internal12NodeTemplateILb0EEES5_EE7_M_addrEv = comdat any

$_ZSt9__find_ifIN9__gnu_cxx17__normal_iteratorIPN4cvc58internal12NodeTemplateILb1EEESt6vectorIS5_SaIS5_EEEENS0_5__ops16_Iter_equals_valIKNS4_ILb0EEEEEET_SG_SG_T0_ = comdat any

$_ZN9__gnu_cxx5__ops17__iter_equals_valIKN4cvc58internal12NodeTemplateILb0EEEEENS0_16_Iter_equals_valIT_EERS8_ = comdat any

$_ZSt9__find_ifIN9__gnu_cxx17__normal_iteratorIPN4cvc58internal12NodeTemplateILb1EEESt6vectorIS5_SaIS5_EEEENS0_5__ops16_Iter_equals_valIKNS4_ILb0EEEEEET_SG_SG_T0_St26random_access_iterator_tag = comdat any

$_ZN9__gnu_cxx5__ops16_Iter_equals_valIKN4cvc58internal12NodeTemplateILb0EEEEclINS_17__normal_iteratorIPNS4_ILb1EEESt6vectorISA_SaISA_EEEEEEbT_ = comdat any

$_ZNK4cvc58internal12NodeTemplateILb1EEeqILb0EEEbRKNS1_IXT_EEE = comdat any

$_ZN9__gnu_cxx5__ops16_Iter_equals_valIKN4cvc58internal12NodeTemplateILb0EEEEC2ERS6_ = comdat any

$_ZNSt8__detail9_Map_baseIN4cvc58internal12NodeTemplateILb0EEESt4pairIKS4_S4_ESaIS7_ENS_10_Select1stESt8equal_toIS4_ESt4hashIS4_ENS_18_Mod_range_hashingENS_20_Default_ranged_hashENS_20_Prime_rehash_policyENS_17_Hashtable_traitsILb1ELb0ELb1EEELb1EEixEOS4_ = comdat any

$_ZNSt10_HashtableIN4cvc58internal12NodeTemplateILb0EEESt4pairIKS3_S3_ESaIS6_ENSt8__detail10_Select1stESt8equal_toIS3_ESt4hashIS3_ENS8_18_Mod_range_hashingENS8_20_Default_ranged_hashENS8_20_Prime_rehash_policyENS8_17_Hashtable_traitsILb1ELb0ELb1EEEE12_Scoped_nodeC2IJRKSt21piecewise_construct_tSt5tupleIJOS3_EESP_IJEEEEEPNS8_16_Hashtable_allocISaINS8_10_Hash_nodeIS6_Lb1EEEEEEDpOT_ = comdat any

$_ZNSt10_HashtableIN4cvc58internal12NodeTemplateILb0EEESt4pairIKS3_S3_ESaIS6_ENSt8__detail10_Select1stESt8equal_toIS3_ESt4hashIS3_ENS8_18_Mod_range_hashingENS8_20_Default_ranged_hashENS8_20_Prime_rehash_policyENS8_17_Hashtable_traitsILb1ELb0ELb1EEEE21_M_insert_unique_nodeEmmPNS8_10_Hash_nodeIS6_Lb1EEEm = comdat any

$_ZNKSt8__detail14_Node_iteratorISt4pairIKN4cvc58internal12NodeTemplateILb0EEES5_ELb0ELb1EEptEv = comdat any

$_ZNSt10_HashtableIN4cvc58internal12NodeTemplateILb0EEESt4pairIKS3_S3_ESaIS6_ENSt8__detail10_Select1stESt8equal_toIS3_ESt4hashIS3_ENS8_18_Mod_range_hashingENS8_20_Default_ranged_hashENS8_20_Prime_rehash_policyENS8_17_Hashtable_traitsILb1ELb0ELb1EEEE12_Scoped_nodeD2Ev = comdat any

$_ZNSt8__detail16_Hashtable_allocISaINS_10_Hash_nodeISt4pairIKN4cvc58internal12NodeTemplateILb0EEES6_ELb1EEEEE16_M_allocate_nodeIJRKSt21piecewise_construct_tSt5tupleIJOS6_EESG_IJEEEEEPS9_DpOT_ = comdat any

$_ZNSt16allocator_traitsISaINSt8__detail10_Hash_nodeISt4pairIKN4cvc58internal12NodeTemplateILb0EEES6_ELb1EEEEE8allocateERSA_m = comdat any

$_ZNSt8__detail16_Hashtable_allocISaINS_10_Hash_nodeISt4pairIKN4cvc58internal12NodeTemplateILb0EEES6_ELb1EEEEE17_M_node_allocatorEv = comdat any

$_ZSt12__to_addressINSt8__detail10_Hash_nodeISt4pairIKN4cvc58internal12NodeTemplateILb0EEES6_ELb1EEEEPT_SB_ = comdat any

$_ZNSt8__detail10_Hash_nodeISt4pairIKN4cvc58internal12NodeTemplateILb0EEES5_ELb1EEC2Ev = comdat any

$_ZNSt16allocator_traitsISaINSt8__detail10_Hash_nodeISt4pairIKN4cvc58internal12NodeTemplateILb0EEES6_ELb1EEEEE9constructIS8_JRKSt21piecewise_construct_tSt5tupleIJOS6_EESG_IJEEEEEvRSA_PT_DpOT0_ = comdat any

$_ZNSt16allocator_traitsISaINSt8__detail10_Hash_nodeISt4pairIKN4cvc58internal12NodeTemplateILb0EEES6_ELb1EEEEE10deallocateERSA_PS9_m = comdat any

$_ZNSt15__new_allocatorINSt8__detail10_Hash_nodeISt4pairIKN4cvc58internal12NodeTemplateILb0EEES6_ELb1EEEE8allocateEmPKv = comdat any

$_ZNKSt15__new_allocatorINSt8__detail10_Hash_nodeISt4pairIKN4cvc58internal12NodeTemplateILb0EEES6_ELb1EEEE11_M_max_sizeEv = comdat any

$_ZNSt8__detail21_Hashtable_ebo_helperILi0ESaINS_10_Hash_nodeISt4pairIKN4cvc58internal12NodeTemplateILb0EEES6_ELb1EEEELb1EE6_M_getEv = comdat any

$_ZNSt15__new_allocatorINSt8__detail10_Hash_nodeISt4pairIKN4cvc58internal12NodeTemplateILb0EEES6_ELb1EEEE9constructIS8_JRKSt21piecewise_construct_tSt5tupleIJOS6_EESF_IJEEEEEvPT_DpOT0_ = comdat any

$_ZNSt4pairIKN4cvc58internal12NodeTemplateILb0EEES3_EC2IJOS3_EJEEESt21piecewise_construct_tSt5tupleIJDpT_EES9_IJDpT0_EE = comdat any

$_ZNSt4pairIKN4cvc58internal12NodeTemplateILb0EEES3_EC2IJOS3_EJLm0EEJETpTnmJEEERSt5tupleIJDpT_EERS8_IJDpT1_EESt12_Index_tupleIJXspT0_EEESH_IJXspT2_EEE = comdat any

$_ZNSt15__new_allocatorINSt8__detail10_Hash_nodeISt4pairIKN4cvc58internal12NodeTemplateILb0EEES6_ELb1EEEE10deallocateEPS9_m = comdat any

$_ZNSt10_HashtableIN4cvc58internal12NodeTemplateILb0EEESt4pairIKS3_S3_ESaIS6_ENSt8__detail10_Select1stESt8equal_toIS3_ESt4hashIS3_ENS8_18_Mod_range_hashingENS8_20_Default_ranged_hashENS8_20_Prime_rehash_policyENS8_17_Hashtable_traitsILb1ELb0ELb1EEEE9_M_rehashEmRKm = comdat any

$_ZNKSt8__detail15_Hash_code_baseIN4cvc58internal12NodeTemplateILb0EEESt4pairIKS4_S4_ENS_10_Select1stESt4hashIS4_ENS_18_Mod_range_hashingENS_20_Default_ranged_hashELb1EE13_M_store_codeERNS_21_Hash_node_code_cacheILb1EEEm = comdat any

$_ZNSt10_HashtableIN4cvc58internal12NodeTemplateILb0EEESt4pairIKS3_S3_ESaIS6_ENSt8__detail10_Select1stESt8equal_toIS3_ESt4hashIS3_ENS8_18_Mod_range_hashingENS8_20_Default_ranged_hashENS8_20_Prime_rehash_policyENS8_17_Hashtable_traitsILb1ELb0ELb1EEEE22_M_insert_bucket_beginEmPNS8_10_Hash_nodeIS6_Lb1EEE = comdat any

$_ZNSt10_HashtableIN4cvc58internal12NodeTemplateILb0EEESt4pairIKS3_S3_ESaIS6_ENSt8__detail10_Select1stESt8equal_toIS3_ESt4hashIS3_ENS8_18_Mod_range_hashingENS8_20_Default_ranged_hashENS8_20_Prime_rehash_policyENS8_17_Hashtable_traitsILb1ELb0ELb1EEEE13_M_rehash_auxEmSt17integral_constantIbLb1EE = comdat any

$_ZNSt10_HashtableIN4cvc58internal12NodeTemplateILb0EEESt4pairIKS3_S3_ESaIS6_ENSt8__detail10_Select1stESt8equal_toIS3_ESt4hashIS3_ENS8_18_Mod_range_hashingENS8_20_Default_ranged_hashENS8_20_Prime_rehash_policyENS8_17_Hashtable_traitsILb1ELb0ELb1EEEE19_M_allocate_bucketsEm = comdat any

$_ZNSt10_HashtableIN4cvc58internal12NodeTemplateILb0EEESt4pairIKS3_S3_ESaIS6_ENSt8__detail10_Select1stESt8equal_toIS3_ESt4hashIS3_ENS8_18_Mod_range_hashingENS8_20_Default_ranged_hashENS8_20_Prime_rehash_policyENS8_17_Hashtable_traitsILb1ELb0ELb1EEEE21_M_deallocate_bucketsEv = comdat any

$_ZNSt8__detail16_Hashtable_allocISaINS_10_Hash_nodeISt4pairIKN4cvc58internal12NodeTemplateILb0EEES6_ELb1EEEEE19_M_allocate_bucketsEm = comdat any

$_ZNSaIPNSt8__detail15_Hash_node_baseEEC2INS_10_Hash_nodeISt4pairIKN4cvc58internal12NodeTemplateILb0EEES9_ELb1EEEEERKSaIT_E = comdat any

$_ZNSt10_HashtableIN4cvc58internal12NodeTemplateILb0EEESt4pairIKS3_S3_ESaIS6_ENSt8__detail10_Select1stESt8equal_toIS3_ESt4hashIS3_ENS8_18_Mod_range_hashingENS8_20_Default_ranged_hashENS8_20_Prime_rehash_policyENS8_17_Hashtable_traitsILb1ELb0ELb1EEEE21_M_deallocate_bucketsEPPNS8_15_Hash_node_baseEm = comdat any

$_ZNKSt10_HashtableIN4cvc58internal12NodeTemplateILb0EEESt4pairIKS3_S3_ESaIS6_ENSt8__detail10_Select1stESt8equal_toIS3_ESt4hashIS3_ENS8_18_Mod_range_hashingENS8_20_Default_ranged_hashENS8_20_Prime_rehash_policyENS8_17_Hashtable_traitsILb1ELb0ELb1EEEE21_M_uses_single_bucketEPPNS8_15_Hash_node_baseE = comdat any

$_ZNSt8__detail16_Hashtable_allocISaINS_10_Hash_nodeISt4pairIKN4cvc58internal12NodeTemplateILb0EEES6_ELb1EEEEE21_M_deallocate_bucketsEPPNS_15_Hash_node_baseEm = comdat any

$_ZNSt8__detail16_Hashtable_allocISaINS_10_Hash_nodeISt4pairIKN4cvc58internal12NodeTemplateILb0EEES6_ELb1EEEEE18_M_deallocate_nodeEPS9_ = comdat any

$_ZNSt16allocator_traitsISaINSt8__detail10_Hash_nodeISt4pairIKN4cvc58internal12NodeTemplateILb0EEES6_ELb1EEEEE7destroyIS8_EEvRSA_PT_ = comdat any

$_ZNSt8__detail16_Hashtable_allocISaINS_10_Hash_nodeISt4pairIKN4cvc58internal12NodeTemplateILb0EEES6_ELb1EEEEE22_M_deallocate_node_ptrEPS9_ = comdat any

$_ZNSt15__new_allocatorINSt8__detail10_Hash_nodeISt4pairIKN4cvc58internal12NodeTemplateILb0EEES6_ELb1EEEE7destroyIS8_EEvPT_ = comdat any

$_ZNSt4pairIKN4cvc58internal12NodeTemplateILb0EEES3_ED2Ev = comdat any

$_ZNSt19__ptr_traits_ptr_toIPNSt8__detail10_Hash_nodeISt4pairIKN4cvc58internal12NodeTemplateILb0EEES6_ELb1EEES9_Lb0EE10pointer_toERS9_ = comdat any

$_ZNK4cvc58internal4expr9NodeValue5beginINS0_12NodeTemplateILb1EEEEENS2_8iteratorIT_EEv = comdat any

$_ZN4cvc58internal4expr9NodeValue8iteratorINS0_12NodeTemplateILb1EEEEC2EPKPKS2_ = comdat any

$_ZNK4cvc58internal4expr9NodeValue3endINS0_12NodeTemplateILb1EEEEENS2_8iteratorIT_EEv = comdat any

$_ZNSt10_HashtableIN4cvc58internal12NodeTemplateILb0EEESt4pairIKS3_S3_ESaIS6_ENSt8__detail10_Select1stESt8equal_toIS3_ESt4hashIS3_ENS8_18_Mod_range_hashingENS8_20_Default_ranged_hashENS8_20_Prime_rehash_policyENS8_17_Hashtable_traitsILb1ELb0ELb1EEEED2Ev = comdat any

$_ZNSt10_HashtableIN4cvc58internal12NodeTemplateILb0EEESt4pairIKS3_S3_ESaIS6_ENSt8__detail10_Select1stESt8equal_toIS3_ESt4hashIS3_ENS8_18_Mod_range_hashingENS8_20_Default_ranged_hashENS8_20_Prime_rehash_policyENS8_17_Hashtable_traitsILb1ELb0ELb1EEEE5clearEv = comdat any

$_ZNSt8__detail16_Hashtable_allocISaINS_10_Hash_nodeISt4pairIKN4cvc58internal12NodeTemplateILb0EEES6_ELb1EEEEED2Ev = comdat any

$_ZNSt8__detail16_Hashtable_allocISaINS_10_Hash_nodeISt4pairIKN4cvc58internal12NodeTemplateILb0EEES6_ELb1EEEEE19_M_deallocate_nodesEPS9_ = comdat any

$_ZNSt8__detail21_Hashtable_ebo_helperILi0ESaINS_10_Hash_nodeISt4pairIKN4cvc58internal12NodeTemplateILb0EEES6_ELb1EEEELb1EED2Ev = comdat any

$_ZNSaINSt8__detail10_Hash_nodeISt4pairIKN4cvc58internal12NodeTemplateILb0EEES5_ELb1EEEED2Ev = comdat any

$_ZNSt15__new_allocatorINSt8__detail10_Hash_nodeISt4pairIKN4cvc58internal12NodeTemplateILb0EEES6_ELb1EEEED2Ev = comdat any

$_ZNSt3mapIN4cvc58internal12NodeTemplateILb1EEES3_St4lessIS3_ESaISt4pairIKS3_S3_EEE11lower_boundERS7_ = comdat any

$_ZNKSt3mapIN4cvc58internal12NodeTemplateILb1EEES3_St4lessIS3_ESaISt4pairIKS3_S3_EEE8key_compEv = comdat any

$_ZNKSt4lessIN4cvc58internal12NodeTemplateILb1EEEEclERKS3_S6_ = comdat any

$_ZNKSt17_Rb_tree_iteratorISt4pairIKN4cvc58internal12NodeTemplateILb1EEES4_EEdeEv = comdat any

$_ZNSt8_Rb_treeIN4cvc58internal12NodeTemplateILb1EEESt4pairIKS3_S3_ESt10_Select1stIS6_ESt4lessIS3_ESaIS6_EE22_M_emplace_hint_uniqueIJRKSt21piecewise_construct_tSt5tupleIJRS5_EESH_IJEEEEESt17_Rb_tree_iteratorIS6_ESt23_Rb_tree_const_iteratorIS6_EDpOT_ = comdat any

$_ZNSt23_Rb_tree_const_iteratorISt4pairIKN4cvc58internal12NodeTemplateILb1EEES4_EEC2ERKSt17_Rb_tree_iteratorIS6_E = comdat any

$_ZNSt5tupleIJRKN4cvc58internal12NodeTemplateILb1EEEEEC2ILb1ETnNSt9enable_ifIXclsr4_TCCIXT_EEE29__is_implicitly_constructibleIS5_EEEbE4typeELb1EEES5_ = comdat any

$_ZNSt8_Rb_treeIN4cvc58internal12NodeTemplateILb1EEESt4pairIKS3_S3_ESt10_Select1stIS6_ESt4lessIS3_ESaIS6_EE11lower_boundERS5_ = comdat any

$_ZNSt8_Rb_treeIN4cvc58internal12NodeTemplateILb1EEESt4pairIKS3_S3_ESt10_Select1stIS6_ESt4lessIS3_ESaIS6_EE14_M_lower_boundEPSt13_Rb_tree_nodeIS6_EPSt18_Rb_tree_node_baseRS5_ = comdat any

$_ZNSt8_Rb_treeIN4cvc58internal12NodeTemplateILb1EEESt4pairIKS3_S3_ESt10_Select1stIS6_ESt4lessIS3_ESaIS6_EE6_M_endEv = comdat any

$_ZNSt8_Rb_treeIN4cvc58internal12NodeTemplateILb1EEESt4pairIKS3_S3_ESt10_Select1stIS6_ESt4lessIS3_ESaIS6_EE6_S_keyEPKSt13_Rb_tree_nodeIS6_E = comdat any

$_ZNSt17_Rb_tree_iteratorISt4pairIKN4cvc58internal12NodeTemplateILb1EEES4_EEC2EPSt18_Rb_tree_node_base = comdat any

$_ZNKSt10_Select1stISt4pairIKN4cvc58internal12NodeTemplateILb1EEES4_EEclERKS6_ = comdat any

$_ZNKSt13_Rb_tree_nodeISt4pairIKN4cvc58internal12NodeTemplateILb1EEES4_EE9_M_valptrEv = comdat any

$_ZNK9__gnu_cxx16__aligned_membufISt4pairIKN4cvc58internal12NodeTemplateILb1EEES5_EE6_M_ptrEv = comdat any

$_ZNK9__gnu_cxx16__aligned_membufISt4pairIKN4cvc58internal12NodeTemplateILb1EEES5_EE7_M_addrEv = comdat any

$_ZNKSt8_Rb_treeIN4cvc58internal12NodeTemplateILb1EEESt4pairIKS3_S3_ESt10_Select1stIS6_ESt4lessIS3_ESaIS6_EE8key_compEv = comdat any

$_ZNK4cvc58internal12NodeTemplateILb1EEltILb1EEEbRKNS1_IXT_EEE = comdat any

$_ZNSt8_Rb_treeIN4cvc58internal12NodeTemplateILb1EEESt4pairIKS3_S3_ESt10_Select1stIS6_ESt4lessIS3_ESaIS6_EE10_Auto_nodeC2IJRKSt21piecewise_construct_tSt5tupleIJRS5_EESI_IJEEEEERSC_DpOT_ = comdat any

$_ZNSt8_Rb_treeIN4cvc58internal12NodeTemplateILb1EEESt4pairIKS3_S3_ESt10_Select1stIS6_ESt4lessIS3_ESaIS6_EE29_M_get_insert_hint_unique_posESt23_Rb_tree_const_iteratorIS6_ERS5_ = comdat any

$_ZNKSt8_Rb_treeIN4cvc58internal12NodeTemplateILb1EEESt4pairIKS3_S3_ESt10_Select1stIS6_ESt4lessIS3_ESaIS6_EE10_Auto_node6_M_keyEv = comdat any

$_ZNSt8_Rb_treeIN4cvc58internal12NodeTemplateILb1EEESt4pairIKS3_S3_ESt10_Select1stIS6_ESt4lessIS3_ESaIS6_EE10_Auto_node9_M_insertES4_IPSt18_Rb_tree_node_baseSF_E = comdat any

$_ZNSt8_Rb_treeIN4cvc58internal12NodeTemplateILb1EEESt4pairIKS3_S3_ESt10_Select1stIS6_ESt4lessIS3_ESaIS6_EE10_Auto_nodeD2Ev = comdat any

$_ZNSt8_Rb_treeIN4cvc58internal12NodeTemplateILb1EEESt4pairIKS3_S3_ESt10_Select1stIS6_ESt4lessIS3_ESaIS6_EE14_M_create_nodeIJRKSt21piecewise_construct_tSt5tupleIJRS5_EESH_IJEEEEEPSt13_Rb_tree_nodeIS6_EDpOT_ = comdat any

$_ZNSt8_Rb_treeIN4cvc58internal12NodeTemplateILb1EEESt4pairIKS3_S3_ESt10_Select1stIS6_ESt4lessIS3_ESaIS6_EE11_M_get_nodeEv = comdat any

$_ZNSt8_Rb_treeIN4cvc58internal12NodeTemplateILb1EEESt4pairIKS3_S3_ESt10_Select1stIS6_ESt4lessIS3_ESaIS6_EE17_M_construct_nodeIJRKSt21piecewise_construct_tSt5tupleIJRS5_EESH_IJEEEEEvPSt13_Rb_tree_nodeIS6_EDpOT_ = comdat any

$_ZNSt16allocator_traitsISaISt13_Rb_tree_nodeISt4pairIKN4cvc58internal12NodeTemplateILb1EEES5_EEEE8allocateERS9_m = comdat any

$_ZNSt15__new_allocatorISt13_Rb_tree_nodeISt4pairIKN4cvc58internal12NodeTemplateILb1EEES5_EEE8allocateEmPKv = comdat any

$_ZNKSt15__new_allocatorISt13_Rb_tree_nodeISt4pairIKN4cvc58internal12NodeTemplateILb1EEES5_EEE11_M_max_sizeEv = comdat any

$_ZNSt16allocator_traitsISaISt13_Rb_tree_nodeISt4pairIKN4cvc58internal12NodeTemplateILb1EEES5_EEEE9constructIS7_JRKSt21piecewise_construct_tSt5tupleIJRS6_EESF_IJEEEEEvRS9_PT_DpOT0_ = comdat any

$_ZNSt15__new_allocatorISt13_Rb_tree_nodeISt4pairIKN4cvc58internal12NodeTemplateILb1EEES5_EEE9constructIS7_JRKSt21piecewise_construct_tSt5tupleIJRS6_EESE_IJEEEEEvPT_DpOT0_ = comdat any

$_ZNSt5tupleIJRKN4cvc58internal12NodeTemplateILb1EEEEEC2EOS6_ = comdat any

$_ZNSt4pairIKN4cvc58internal12NodeTemplateILb1EEES3_EC2IJRS4_EJEEESt21piecewise_construct_tSt5tupleIJDpT_EES9_IJDpT0_EE = comdat any

$_ZNSt11_Tuple_implILm0EJRKN4cvc58internal12NodeTemplateILb1EEEEEC2EOS6_ = comdat any

$_ZNSt4pairIKN4cvc58internal12NodeTemplateILb1EEES3_EC2IJRS4_EJLm0EEJETpTnmJEEERSt5tupleIJDpT_EERS8_IJDpT1_EESt12_Index_tupleIJXspT0_EEESH_IJXspT2_EEE = comdat any

$_ZSt3getILm0EJRKN4cvc58internal12NodeTemplateILb1EEEEERNSt13tuple_elementIXT_ESt5tupleIJDpT0_EEE4typeERSA_ = comdat any

$_ZN4cvc58internal12NodeTemplateILb1EEC2Ev = comdat any

$_ZSt12__get_helperILm0ERKN4cvc58internal12NodeTemplateILb1EEEJEERT0_RSt11_Tuple_implIXT_EJS6_DpT1_EE = comdat any

$_ZNSt11_Tuple_implILm0EJRKN4cvc58internal12NodeTemplateILb1EEEEE7_M_headERS6_ = comdat any

$_ZNSt10_Head_baseILm0ERKN4cvc58internal12NodeTemplateILb1EEELb0EE7_M_headERS6_ = comdat any

$_ZNKSt23_Rb_tree_const_iteratorISt4pairIKN4cvc58internal12NodeTemplateILb1EEES4_EE13_M_const_castEv = comdat any

$_ZNKSt8_Rb_treeIN4cvc58internal12NodeTemplateILb1EEESt4pairIKS3_S3_ESt10_Select1stIS6_ESt4lessIS3_ESaIS6_EE4sizeEv = comdat any

$_ZNSt8_Rb_treeIN4cvc58internal12NodeTemplateILb1EEESt4pairIKS3_S3_ESt10_Select1stIS6_ESt4lessIS3_ESaIS6_EE6_S_keyEPKSt18_Rb_tree_node_base = comdat any

$_ZNSt8_Rb_treeIN4cvc58internal12NodeTemplateILb1EEESt4pairIKS3_S3_ESt10_Select1stIS6_ESt4lessIS3_ESaIS6_EE12_M_rightmostEv = comdat any

$_ZNSt8_Rb_treeIN4cvc58internal12NodeTemplateILb1EEESt4pairIKS3_S3_ESt10_Select1stIS6_ESt4lessIS3_ESaIS6_EE24_M_get_insert_unique_posERS5_ = comdat any

$_ZNSt8_Rb_treeIN4cvc58internal12NodeTemplateILb1EEESt4pairIKS3_S3_ESt10_Select1stIS6_ESt4lessIS3_ESaIS6_EE11_M_leftmostEv = comdat any

$_ZNSt17_Rb_tree_iteratorISt4pairIKN4cvc58internal12NodeTemplateILb1EEES4_EEmmEv = comdat any

$_ZNSt17_Rb_tree_iteratorISt4pairIKN4cvc58internal12NodeTemplateILb1EEES4_EEppEv = comdat any

$_ZNSt8_Rb_treeIN4cvc58internal12NodeTemplateILb1EEESt4pairIKS3_S3_ESt10_Select1stIS6_ESt4lessIS3_ESaIS6_EE5beginEv = comdat any

$_ZNSt4pairIPSt18_Rb_tree_node_baseS1_EC2IRPSt13_Rb_tree_nodeIS_IKN4cvc58internal12NodeTemplateILb1EEES8_EERS1_TnNSt9enable_ifIXaaclsr5_PCCPE22_MoveConstructiblePairIT_T0_EEclsr5_PCCPE30_ImplicitlyMoveConvertiblePairISG_SH_EEEbE4typeELb1EEEOSG_OSH_ = comdat any

$_ZNSt8_Rb_treeIN4cvc58internal12NodeTemplateILb1EEESt4pairIKS3_S3_ESt10_Select1stIS6_ESt4lessIS3_ESaIS6_EE14_M_insert_nodeEPSt18_Rb_tree_node_baseSE_PSt13_Rb_tree_nodeIS6_E = comdat any

$_ZNSt11_Tuple_implILm0EJRKN4cvc58internal12NodeTemplateILb1EEEEEC2ES5_ = comdat any

$_ZNSt10_Head_baseILm0ERKN4cvc58internal12NodeTemplateILb1EEELb0EEC2ES5_ = comdat any

$_ZNSt8_Rb_treeIN4cvc58internal12NodeTemplateILb1EEESt4pairIKS3_S3_ESt10_Select1stIS6_ESt4lessIS3_ESaIS6_EE4findERS5_ = comdat any

$_ZNSt8_Rb_treeIN4cvc58internal12NodeTemplateILb1EEESt4pairIKS3_S3_ESt10_Select1stIS6_ESt4lessIS3_ESaIS6_EE3endEv = comdat any

$_ZNSt8_Rb_treeIN4cvc58internal8TypeNodeESt4pairIKS2_St6vectorINS1_12NodeTemplateILb1EEESaIS7_EEESt10_Select1stISA_ESt4lessIS2_ESaISA_EE22_M_emplace_hint_uniqueIJRKSt21piecewise_construct_tSt5tupleIJOS2_EESL_IJEEEEESt17_Rb_tree_iteratorISA_ESt23_Rb_tree_const_iteratorISA_EDpOT_ = comdat any

$_ZSt16forward_as_tupleIJN4cvc58internal8TypeNodeEEESt5tupleIJDpOT_EES6_ = comdat any

$_ZNSt8_Rb_treeIN4cvc58internal8TypeNodeESt4pairIKS2_St6vectorINS1_12NodeTemplateILb1EEESaIS7_EEESt10_Select1stISA_ESt4lessIS2_ESaISA_EE10_Auto_nodeC2IJRKSt21piecewise_construct_tSt5tupleIJOS2_EESM_IJEEEEERSG_DpOT_ = comdat any

$_ZNSt8_Rb_treeIN4cvc58internal8TypeNodeESt4pairIKS2_St6vectorINS1_12NodeTemplateILb1EEESaIS7_EEESt10_Select1stISA_ESt4lessIS2_ESaISA_EE14_M_create_nodeIJRKSt21piecewise_construct_tSt5tupleIJOS2_EESL_IJEEEEEPSt13_Rb_tree_nodeISA_EDpOT_ = comdat any

$_ZNSt8_Rb_treeIN4cvc58internal8TypeNodeESt4pairIKS2_St6vectorINS1_12NodeTemplateILb1EEESaIS7_EEESt10_Select1stISA_ESt4lessIS2_ESaISA_EE17_M_construct_nodeIJRKSt21piecewise_construct_tSt5tupleIJOS2_EESL_IJEEEEEvPSt13_Rb_tree_nodeISA_EDpOT_ = comdat any

$_ZNSt16allocator_traitsISaISt13_Rb_tree_nodeISt4pairIKN4cvc58internal8TypeNodeESt6vectorINS3_12NodeTemplateILb1EEESaIS8_EEEEEE9constructISB_JRKSt21piecewise_construct_tSt5tupleIJOS4_EESJ_IJEEEEEvRSD_PT_DpOT0_ = comdat any

$_ZNSt15__new_allocatorISt13_Rb_tree_nodeISt4pairIKN4cvc58internal8TypeNodeESt6vectorINS3_12NodeTemplateILb1EEESaIS8_EEEEE9constructISB_JRKSt21piecewise_construct_tSt5tupleIJOS4_EESI_IJEEEEEvPT_DpOT0_ = comdat any

$_ZNSt5tupleIJON4cvc58internal8TypeNodeEEEC2EOS4_ = comdat any

$_ZNSt4pairIKN4cvc58internal8TypeNodeESt6vectorINS1_12NodeTemplateILb1EEESaIS6_EEEC2IJOS2_EJEEESt21piecewise_construct_tSt5tupleIJDpT_EESD_IJDpT0_EE = comdat any

$_ZNSt11_Tuple_implILm0EJON4cvc58internal8TypeNodeEEEC2EOS4_ = comdat any

$_ZNSt4pairIKN4cvc58internal8TypeNodeESt6vectorINS1_12NodeTemplateILb1EEESaIS6_EEEC2IJOS2_EJLm0EEJETpTnmJEEERSt5tupleIJDpT_EERSC_IJDpT1_EESt12_Index_tupleIJXspT0_EEESL_IJXspT2_EEE = comdat any

$_ZSt3getILm0EJON4cvc58internal8TypeNodeEEERNSt13tuple_elementIXT_ESt5tupleIJDpT0_EEE4typeERS8_ = comdat any

$_ZSt12__get_helperILm0EON4cvc58internal8TypeNodeEJEERT0_RSt11_Tuple_implIXT_EJS4_DpT1_EE = comdat any

$_ZNSt11_Tuple_implILm0EJON4cvc58internal8TypeNodeEEE7_M_headERS4_ = comdat any

$_ZNSt10_Head_baseILm0EON4cvc58internal8TypeNodeELb0EE7_M_headERS4_ = comdat any

$_ZNSt5tupleIJON4cvc58internal8TypeNodeEEEC2IJS2_ELb1ETnNSt9enable_ifIXclsr4_TCCIXT0_EEE29__is_implicitly_constructibleIDpT_EEEbE4typeELb1EEEDpOS7_ = comdat any

$_ZNSt11_Tuple_implILm0EJON4cvc58internal8TypeNodeEEEC2IS2_EEOT_ = comdat any

$_ZNSt10_Head_baseILm0EON4cvc58internal8TypeNodeELb0EEC2IS2_EEOT_ = comdat any

$_ZN4cvc58internal11NodeBuilder6appendILb1EEERS1_RKSt6vectorINS0_12NodeTemplateIXT_EEESaIS6_EE = comdat any

$_ZN4cvc58internal11NodeBuilder6appendIN9__gnu_cxx17__normal_iteratorIPKNS0_12NodeTemplateILb1EEESt6vectorIS6_SaIS6_EEEEEERS1_RKT_SG_ = comdat any

$_ZSt8_DestroyIPN4cvc58internal13SygusDatatypeES2_EvT_S4_RSaIT0_E = comdat any

$_ZNSt12_Vector_baseIN4cvc58internal13SygusDatatypeESaIS2_EE19_M_get_Tp_allocatorEv = comdat any

$_ZNSt12_Vector_baseIN4cvc58internal13SygusDatatypeESaIS2_EED2Ev = comdat any

$_ZSt8_DestroyIPN4cvc58internal13SygusDatatypeEEvT_S4_ = comdat any

$_ZNSt12_Destroy_auxILb0EE9__destroyIPN4cvc58internal13SygusDatatypeEEEvT_S6_ = comdat any

$_ZSt8_DestroyIN4cvc58internal13SygusDatatypeEEvPT_ = comdat any

$_ZNSt12_Vector_baseIN4cvc58internal13SygusDatatypeESaIS2_EE13_M_deallocateEPS2_m = comdat any

$_ZNSt12_Vector_baseIN4cvc58internal13SygusDatatypeESaIS2_EE12_Vector_implD2Ev = comdat any

$_ZNSt16allocator_traitsISaIN4cvc58internal13SygusDatatypeEEE10deallocateERS3_PS2_m = comdat any

$_ZNSt15__new_allocatorIN4cvc58internal13SygusDatatypeEE10deallocateEPS2_m = comdat any

$_ZNSaIN4cvc58internal13SygusDatatypeEED2Ev = comdat any

$_ZNSt15__new_allocatorIN4cvc58internal13SygusDatatypeEED2Ev = comdat any

$_ZNSt3mapIN4cvc58internal12NodeTemplateILb1EEENS1_8TypeNodeESt4lessIS3_ESaISt4pairIKS3_S4_EEE11lower_boundERS8_ = comdat any

$_ZSteqRKSt17_Rb_tree_iteratorISt4pairIKN4cvc58internal12NodeTemplateILb1EEENS2_8TypeNodeEEESA_ = comdat any

$_ZNSt3mapIN4cvc58internal12NodeTemplateILb1EEENS1_8TypeNodeESt4lessIS3_ESaISt4pairIKS3_S4_EEE3endEv = comdat any

$_ZNKSt3mapIN4cvc58internal12NodeTemplateILb1EEENS1_8TypeNodeESt4lessIS3_ESaISt4pairIKS3_S4_EEE8key_compEv = comdat any

$_ZNKSt17_Rb_tree_iteratorISt4pairIKN4cvc58internal12NodeTemplateILb1EEENS2_8TypeNodeEEEdeEv = comdat any

$_ZNSt8_Rb_treeIN4cvc58internal12NodeTemplateILb1EEESt4pairIKS3_NS1_8TypeNodeEESt10_Select1stIS7_ESt4lessIS3_ESaIS7_EE22_M_emplace_hint_uniqueIJRKSt21piecewise_construct_tSt5tupleIJRS5_EESI_IJEEEEESt17_Rb_tree_iteratorIS7_ESt23_Rb_tree_const_iteratorIS7_EDpOT_ = comdat any

$_ZNSt23_Rb_tree_const_iteratorISt4pairIKN4cvc58internal12NodeTemplateILb1EEENS2_8TypeNodeEEEC2ERKSt17_Rb_tree_iteratorIS7_E = comdat any

$_ZNSt8_Rb_treeIN4cvc58internal12NodeTemplateILb1EEESt4pairIKS3_NS1_8TypeNodeEESt10_Select1stIS7_ESt4lessIS3_ESaIS7_EE11lower_boundERS5_ = comdat any

$_ZNSt8_Rb_treeIN4cvc58internal12NodeTemplateILb1EEESt4pairIKS3_NS1_8TypeNodeEESt10_Select1stIS7_ESt4lessIS3_ESaIS7_EE14_M_lower_boundEPSt13_Rb_tree_nodeIS7_EPSt18_Rb_tree_node_baseRS5_ = comdat any

$_ZNSt8_Rb_treeIN4cvc58internal12NodeTemplateILb1EEESt4pairIKS3_NS1_8TypeNodeEESt10_Select1stIS7_ESt4lessIS3_ESaIS7_EE6_M_endEv = comdat any

$_ZNSt8_Rb_treeIN4cvc58internal12NodeTemplateILb1EEESt4pairIKS3_NS1_8TypeNodeEESt10_Select1stIS7_ESt4lessIS3_ESaIS7_EE6_S_keyEPKSt13_Rb_tree_nodeIS7_E = comdat any

$_ZNSt17_Rb_tree_iteratorISt4pairIKN4cvc58internal12NodeTemplateILb1EEENS2_8TypeNodeEEEC2EPSt18_Rb_tree_node_base = comdat any

$_ZNKSt10_Select1stISt4pairIKN4cvc58internal12NodeTemplateILb1EEENS2_8TypeNodeEEEclERKS7_ = comdat any

$_ZNKSt13_Rb_tree_nodeISt4pairIKN4cvc58internal12NodeTemplateILb1EEENS2_8TypeNodeEEE9_M_valptrEv = comdat any

$_ZNK9__gnu_cxx16__aligned_membufISt4pairIKN4cvc58internal12NodeTemplateILb1EEENS3_8TypeNodeEEE6_M_ptrEv = comdat any

$_ZNK9__gnu_cxx16__aligned_membufISt4pairIKN4cvc58internal12NodeTemplateILb1EEENS3_8TypeNodeEEE7_M_addrEv = comdat any

$_ZNSt8_Rb_treeIN4cvc58internal12NodeTemplateILb1EEESt4pairIKS3_NS1_8TypeNodeEESt10_Select1stIS7_ESt4lessIS3_ESaIS7_EE3endEv = comdat any

$_ZNKSt8_Rb_treeIN4cvc58internal12NodeTemplateILb1EEESt4pairIKS3_NS1_8TypeNodeEESt10_Select1stIS7_ESt4lessIS3_ESaIS7_EE8key_compEv = comdat any

$_ZNSt8_Rb_treeIN4cvc58internal12NodeTemplateILb1EEESt4pairIKS3_NS1_8TypeNodeEESt10_Select1stIS7_ESt4lessIS3_ESaIS7_EE10_Auto_nodeC2IJRKSt21piecewise_construct_tSt5tupleIJRS5_EESJ_IJEEEEERSD_DpOT_ = comdat any

$_ZNSt8_Rb_treeIN4cvc58internal12NodeTemplateILb1EEESt4pairIKS3_NS1_8TypeNodeEESt10_Select1stIS7_ESt4lessIS3_ESaIS7_EE29_M_get_insert_hint_unique_posESt23_Rb_tree_const_iteratorIS7_ERS5_ = comdat any

$_ZNKSt8_Rb_treeIN4cvc58internal12NodeTemplateILb1EEESt4pairIKS3_NS1_8TypeNodeEESt10_Select1stIS7_ESt4lessIS3_ESaIS7_EE10_Auto_node6_M_keyEv = comdat any

$_ZNSt8_Rb_treeIN4cvc58internal12NodeTemplateILb1EEESt4pairIKS3_NS1_8TypeNodeEESt10_Select1stIS7_ESt4lessIS3_ESaIS7_EE10_Auto_node9_M_insertES4_IPSt18_Rb_tree_node_baseSG_E = comdat any

$_ZNSt8_Rb_treeIN4cvc58internal12NodeTemplateILb1EEESt4pairIKS3_NS1_8TypeNodeEESt10_Select1stIS7_ESt4lessIS3_ESaIS7_EE10_Auto_nodeD2Ev = comdat any

$_ZNSt8_Rb_treeIN4cvc58internal12NodeTemplateILb1EEESt4pairIKS3_NS1_8TypeNodeEESt10_Select1stIS7_ESt4lessIS3_ESaIS7_EE14_M_create_nodeIJRKSt21piecewise_construct_tSt5tupleIJRS5_EESI_IJEEEEEPSt13_Rb_tree_nodeIS7_EDpOT_ = comdat any

$_ZNSt8_Rb_treeIN4cvc58internal12NodeTemplateILb1EEESt4pairIKS3_NS1_8TypeNodeEESt10_Select1stIS7_ESt4lessIS3_ESaIS7_EE11_M_get_nodeEv = comdat any

$_ZNSt8_Rb_treeIN4cvc58internal12NodeTemplateILb1EEESt4pairIKS3_NS1_8TypeNodeEESt10_Select1stIS7_ESt4lessIS3_ESaIS7_EE17_M_construct_nodeIJRKSt21piecewise_construct_tSt5tupleIJRS5_EESI_IJEEEEEvPSt13_Rb_tree_nodeIS7_EDpOT_ = comdat any

$_ZNSt16allocator_traitsISaISt13_Rb_tree_nodeISt4pairIKN4cvc58internal12NodeTemplateILb1EEENS3_8TypeNodeEEEEE8allocateERSA_m = comdat any

$_ZNSt15__new_allocatorISt13_Rb_tree_nodeISt4pairIKN4cvc58internal12NodeTemplateILb1EEENS3_8TypeNodeEEEE8allocateEmPKv = comdat any

$_ZNKSt15__new_allocatorISt13_Rb_tree_nodeISt4pairIKN4cvc58internal12NodeTemplateILb1EEENS3_8TypeNodeEEEE11_M_max_sizeEv = comdat any

$_ZNSt16allocator_traitsISaISt13_Rb_tree_nodeISt4pairIKN4cvc58internal12NodeTemplateILb1EEENS3_8TypeNodeEEEEE9constructIS8_JRKSt21piecewise_construct_tSt5tupleIJRS6_EESG_IJEEEEEvRSA_PT_DpOT0_ = comdat any

$_ZNSt15__new_allocatorISt13_Rb_tree_nodeISt4pairIKN4cvc58internal12NodeTemplateILb1EEENS3_8TypeNodeEEEE9constructIS8_JRKSt21piecewise_construct_tSt5tupleIJRS6_EESF_IJEEEEEvPT_DpOT0_ = comdat any

$_ZNSt4pairIKN4cvc58internal12NodeTemplateILb1EEENS1_8TypeNodeEEC2IJRS4_EJEEESt21piecewise_construct_tSt5tupleIJDpT_EESA_IJDpT0_EE = comdat any

$_ZNSt4pairIKN4cvc58internal12NodeTemplateILb1EEENS1_8TypeNodeEEC2IJRS4_EJLm0EEJETpTnmJEEERSt5tupleIJDpT_EERS9_IJDpT1_EESt12_Index_tupleIJXspT0_EEESI_IJXspT2_EEE = comdat any

$_ZN4cvc58internal8TypeNodeC2Ev = comdat any

$_ZNKSt23_Rb_tree_const_iteratorISt4pairIKN4cvc58internal12NodeTemplateILb1EEENS2_8TypeNodeEEE13_M_const_castEv = comdat any

$_ZNKSt8_Rb_treeIN4cvc58internal12NodeTemplateILb1EEESt4pairIKS3_NS1_8TypeNodeEESt10_Select1stIS7_ESt4lessIS3_ESaIS7_EE4sizeEv = comdat any

$_ZNSt8_Rb_treeIN4cvc58internal12NodeTemplateILb1EEESt4pairIKS3_NS1_8TypeNodeEESt10_Select1stIS7_ESt4lessIS3_ESaIS7_EE6_S_keyEPKSt18_Rb_tree_node_base = comdat any

$_ZNSt8_Rb_treeIN4cvc58internal12NodeTemplateILb1EEESt4pairIKS3_NS1_8TypeNodeEESt10_Select1stIS7_ESt4lessIS3_ESaIS7_EE12_M_rightmostEv = comdat any

$_ZNSt8_Rb_treeIN4cvc58internal12NodeTemplateILb1EEESt4pairIKS3_NS1_8TypeNodeEESt10_Select1stIS7_ESt4lessIS3_ESaIS7_EE24_M_get_insert_unique_posERS5_ = comdat any

$_ZNSt8_Rb_treeIN4cvc58internal12NodeTemplateILb1EEESt4pairIKS3_NS1_8TypeNodeEESt10_Select1stIS7_ESt4lessIS3_ESaIS7_EE11_M_leftmostEv = comdat any

$_ZNSt17_Rb_tree_iteratorISt4pairIKN4cvc58internal12NodeTemplateILb1EEENS2_8TypeNodeEEEmmEv = comdat any

$_ZNSt17_Rb_tree_iteratorISt4pairIKN4cvc58internal12NodeTemplateILb1EEENS2_8TypeNodeEEEppEv = comdat any

$_ZNSt8_Rb_treeIN4cvc58internal12NodeTemplateILb1EEESt4pairIKS3_NS1_8TypeNodeEESt10_Select1stIS7_ESt4lessIS3_ESaIS7_EE5beginEv = comdat any

$_ZNSt4pairIPSt18_Rb_tree_node_baseS1_EC2IRPSt13_Rb_tree_nodeIS_IKN4cvc58internal12NodeTemplateILb1EEENS6_8TypeNodeEEERS1_TnNSt9enable_ifIXaaclsr5_PCCPE22_MoveConstructiblePairIT_T0_EEclsr5_PCCPE30_ImplicitlyMoveConvertiblePairISH_SI_EEEbE4typeELb1EEEOSH_OSI_ = comdat any

$_ZNSt8_Rb_treeIN4cvc58internal12NodeTemplateILb1EEESt4pairIKS3_NS1_8TypeNodeEESt10_Select1stIS7_ESt4lessIS3_ESaIS7_EE14_M_insert_nodeEPSt18_Rb_tree_node_baseSF_PSt13_Rb_tree_nodeIS7_E = comdat any

$_ZNSt6vectorIN4cvc58internal13SygusDatatypeESaIS2_EE12emplace_backIJS2_EEERS2_DpOT_ = comdat any

$_ZNSt16allocator_traitsISaIN4cvc58internal13SygusDatatypeEEE9constructIS2_JS2_EEEvRS3_PT_DpOT0_ = comdat any

$_ZNSt6vectorIN4cvc58internal13SygusDatatypeESaIS2_EE17_M_realloc_insertIJS2_EEEvN9__gnu_cxx17__normal_iteratorIPS2_S4_EEDpOT_ = comdat any

$_ZNSt6vectorIN4cvc58internal13SygusDatatypeESaIS2_EE3endEv = comdat any

$_ZNSt6vectorIN4cvc58internal13SygusDatatypeESaIS2_EE4backEv = comdat any

$_ZNSt15__new_allocatorIN4cvc58internal13SygusDatatypeEE9constructIS2_JS2_EEEvPT_DpOT0_ = comdat any

$_ZN4cvc58internal13SygusDatatypeC2ERKS1_ = comdat any

$_ZNSt6vectorIN4cvc58internal24SygusDatatypeConstructorESaIS2_EEC2ERKS4_ = comdat any

$_ZNKSt6vectorIN4cvc58internal24SygusDatatypeConstructorESaIS2_EE4sizeEv = comdat any

$_ZN9__gnu_cxx14__alloc_traitsISaIN4cvc58internal24SygusDatatypeConstructorEES3_E17_S_select_on_copyERKS4_ = comdat any

$_ZNKSt12_Vector_baseIN4cvc58internal24SygusDatatypeConstructorESaIS2_EE19_M_get_Tp_allocatorEv = comdat any

$_ZNSt12_Vector_baseIN4cvc58internal24SygusDatatypeConstructorESaIS2_EEC2EmRKS3_ = comdat any

$_ZNSaIN4cvc58internal24SygusDatatypeConstructorEED2Ev = comdat any

$_ZSt22__uninitialized_copy_aIN9__gnu_cxx17__normal_iteratorIPKN4cvc58internal24SygusDatatypeConstructorESt6vectorIS4_SaIS4_EEEEPS4_S4_ET0_T_SD_SC_RSaIT1_E = comdat any

$_ZNKSt6vectorIN4cvc58internal24SygusDatatypeConstructorESaIS2_EE5beginEv = comdat any

$_ZNKSt6vectorIN4cvc58internal24SygusDatatypeConstructorESaIS2_EE3endEv = comdat any

$_ZNSt16allocator_traitsISaIN4cvc58internal24SygusDatatypeConstructorEEE37select_on_container_copy_constructionERKS3_ = comdat any

$_ZNSaIN4cvc58internal24SygusDatatypeConstructorEEC2ERKS2_ = comdat any

$_ZNSt15__new_allocatorIN4cvc58internal24SygusDatatypeConstructorEEC2ERKS3_ = comdat any

$_ZNSt12_Vector_baseIN4cvc58internal24SygusDatatypeConstructorESaIS2_EE12_Vector_implC2ERKS3_ = comdat any

$_ZNSt12_Vector_baseIN4cvc58internal24SygusDatatypeConstructorESaIS2_EE17_M_create_storageEm = comdat any

$_ZNSt12_Vector_baseIN4cvc58internal24SygusDatatypeConstructorESaIS2_EE17_Vector_impl_dataC2Ev = comdat any

$_ZNSt12_Vector_baseIN4cvc58internal24SygusDatatypeConstructorESaIS2_EE11_M_allocateEm = comdat any

$_ZNSt16allocator_traitsISaIN4cvc58internal24SygusDatatypeConstructorEEE8allocateERS3_m = comdat any

$_ZNSt15__new_allocatorIN4cvc58internal24SygusDatatypeConstructorEE8allocateEmPKv = comdat any

$_ZNKSt15__new_allocatorIN4cvc58internal24SygusDatatypeConstructorEE11_M_max_sizeEv = comdat any

$_ZSt18uninitialized_copyIN9__gnu_cxx17__normal_iteratorIPKN4cvc58internal24SygusDatatypeConstructorESt6vectorIS4_SaIS4_EEEEPS4_ET0_T_SD_SC_ = comdat any

$_ZNSt20__uninitialized_copyILb0EE13__uninit_copyIN9__gnu_cxx17__normal_iteratorIPKN4cvc58internal24SygusDatatypeConstructorESt6vectorIS6_SaIS6_EEEEPS6_EET0_T_SF_SE_ = comdat any

$_ZSt16__do_uninit_copyIN9__gnu_cxx17__normal_iteratorIPKN4cvc58internal24SygusDatatypeConstructorESt6vectorIS4_SaIS4_EEEEPS4_ET0_T_SD_SC_ = comdat any

$_ZN9__gnu_cxxneIPKN4cvc58internal24SygusDatatypeConstructorESt6vectorIS3_SaIS3_EEEEbRKNS_17__normal_iteratorIT_T0_EESE_ = comdat any

$_ZSt10_ConstructIN4cvc58internal24SygusDatatypeConstructorEJRKS2_EEvPT_DpOT0_ = comdat any

$_ZNK9__gnu_cxx17__normal_iteratorIPKN4cvc58internal24SygusDatatypeConstructorESt6vectorIS3_SaIS3_EEEdeEv = comdat any

$_ZN9__gnu_cxx17__normal_iteratorIPKN4cvc58internal24SygusDatatypeConstructorESt6vectorIS3_SaIS3_EEEppEv = comdat any

$_ZNK9__gnu_cxx17__normal_iteratorIPKN4cvc58internal24SygusDatatypeConstructorESt6vectorIS3_SaIS3_EEE4baseEv = comdat any

$_ZN4cvc58internal24SygusDatatypeConstructorC2ERKS1_ = comdat any

$_ZN9__gnu_cxx17__normal_iteratorIPKN4cvc58internal24SygusDatatypeConstructorESt6vectorIS3_SaIS3_EEEC2ERKS5_ = comdat any

$_ZNKSt6vectorIN4cvc58internal13SygusDatatypeESaIS2_EE12_M_check_lenEmPKc = comdat any

$_ZN9__gnu_cxxmiIPN4cvc58internal13SygusDatatypeESt6vectorIS3_SaIS3_EEEENS_17__normal_iteratorIT_T0_E15difference_typeERKSB_SE_ = comdat any

$_ZNSt6vectorIN4cvc58internal13SygusDatatypeESaIS2_EE5beginEv = comdat any

$_ZNSt12_Vector_baseIN4cvc58internal13SygusDatatypeESaIS2_EE11_M_allocateEm = comdat any

$_ZSt34__uninitialized_move_if_noexcept_aIPN4cvc58internal13SygusDatatypeES3_SaIS2_EET0_T_S6_S5_RT1_ = comdat any

$_ZNK9__gnu_cxx17__normal_iteratorIPN4cvc58internal13SygusDatatypeESt6vectorIS3_SaIS3_EEE4baseEv = comdat any

$_ZNSt16allocator_traitsISaIN4cvc58internal13SygusDatatypeEEE7destroyIS2_EEvRS3_PT_ = comdat any

$_ZNKSt6vectorIN4cvc58internal13SygusDatatypeESaIS2_EE8max_sizeEv = comdat any

$_ZNSt6vectorIN4cvc58internal13SygusDatatypeESaIS2_EE11_S_max_sizeERKS3_ = comdat any

$_ZNKSt12_Vector_baseIN4cvc58internal13SygusDatatypeESaIS2_EE19_M_get_Tp_allocatorEv = comdat any

$_ZNSt16allocator_traitsISaIN4cvc58internal13SygusDatatypeEEE8max_sizeERKS3_ = comdat any

$_ZNKSt15__new_allocatorIN4cvc58internal13SygusDatatypeEE8max_sizeEv = comdat any

$_ZNKSt15__new_allocatorIN4cvc58internal13SygusDatatypeEE11_M_max_sizeEv = comdat any

$_ZN9__gnu_cxx17__normal_iteratorIPN4cvc58internal13SygusDatatypeESt6vectorIS3_SaIS3_EEEC2ERKS4_ = comdat any

$_ZNSt16allocator_traitsISaIN4cvc58internal13SygusDatatypeEEE8allocateERS3_m = comdat any

$_ZNSt15__new_allocatorIN4cvc58internal13SygusDatatypeEE8allocateEmPKv = comdat any

$_ZSt22__uninitialized_copy_aIPKN4cvc58internal13SygusDatatypeEPS2_S2_ET0_T_S7_S6_RSaIT1_E = comdat any

$_ZSt32__make_move_if_noexcept_iteratorIN4cvc58internal13SygusDatatypeEPKS2_ET0_PT_ = comdat any

$_ZSt18uninitialized_copyIPKN4cvc58internal13SygusDatatypeEPS2_ET0_T_S7_S6_ = comdat any

$_ZNSt20__uninitialized_copyILb0EE13__uninit_copyIPKN4cvc58internal13SygusDatatypeEPS4_EET0_T_S9_S8_ = comdat any

$_ZSt16__do_uninit_copyIPKN4cvc58internal13SygusDatatypeEPS2_ET0_T_S7_S6_ = comdat any

$_ZSt10_ConstructIN4cvc58internal13SygusDatatypeEJRKS2_EEvPT_DpOT0_ = comdat any

$_ZNSt15__new_allocatorIN4cvc58internal13SygusDatatypeEE7destroyIS2_EEvPT_ = comdat any

$_ZNK9__gnu_cxx17__normal_iteratorIPN4cvc58internal13SygusDatatypeESt6vectorIS3_SaIS3_EEEmiEl = comdat any

$_ZNK9__gnu_cxx17__normal_iteratorIPN4cvc58internal13SygusDatatypeESt6vectorIS3_SaIS3_EEEdeEv = comdat any

$_ZNSt8_Rb_treeIN4cvc58internal8TypeNodeESt4pairIKS2_St6vectorINS1_12NodeTemplateILb1EEESaIS7_EEESt10_Select1stISA_ESt4lessIS2_ESaISA_EE4findERS4_ = comdat any

$_ZNSt8_Rb_treeIN4cvc58internal8TypeNodeESt4pairIKS2_St6vectorINS1_12NodeTemplateILb1EEESaIS7_EEESt10_Select1stISA_ESt4lessIS2_ESaISA_EE3endEv = comdat any

$_ZNK4cvc58internal4expr9NodeValue14getNumChildrenEv = comdat any

$_ZN9__gnu_cxx17__normal_iteratorIPN4cvc58internal8TypeNodeESt6vectorIS3_SaIS3_EEEC2ERKS4_ = comdat any

$_ZNSt8_Rb_treeIN4cvc58internal8TypeNodeES2_St9_IdentityIS2_ESt4lessIS2_ESaIS2_EEC2Ev = comdat any

$_ZNSt8_Rb_treeIN4cvc58internal8TypeNodeES2_St9_IdentityIS2_ESt4lessIS2_ESaIS2_EE22_M_insert_range_uniqueIN9__gnu_cxx17__normal_iteratorIPS2_St6vectorIS2_S7_EEEEENSt9enable_ifIXsr17__same_value_typeIT_EE5valueEvE4typeESH_SH_ = comdat any

$_ZNSt8_Rb_treeIN4cvc58internal8TypeNodeES2_St9_IdentityIS2_ESt4lessIS2_ESaIS2_EE13_Rb_tree_implIS6_Lb1EEC2Ev = comdat any

$_ZNSaISt13_Rb_tree_nodeIN4cvc58internal8TypeNodeEEEC2Ev = comdat any

$_ZNSt15__new_allocatorISt13_Rb_tree_nodeIN4cvc58internal8TypeNodeEEEC2Ev = comdat any

$_ZNSt8_Rb_treeIN4cvc58internal8TypeNodeES2_St9_IdentityIS2_ESt4lessIS2_ESaIS2_EE11_Alloc_nodeC2ERS8_ = comdat any

$_ZN9__gnu_cxxneIPN4cvc58internal8TypeNodeESt6vectorIS3_SaIS3_EEEEbRKNS_17__normal_iteratorIT_T0_EESD_ = comdat any

$_ZNSt8_Rb_treeIN4cvc58internal8TypeNodeES2_St9_IdentityIS2_ESt4lessIS2_ESaIS2_EE17_M_insert_unique_IRS2_NS8_11_Alloc_nodeEEESt17_Rb_tree_iteratorIS2_ESt23_Rb_tree_const_iteratorIS2_EOT_RT0_ = comdat any

$_ZNSt8_Rb_treeIN4cvc58internal8TypeNodeES2_St9_IdentityIS2_ESt4lessIS2_ESaIS2_EE3endEv = comdat any

$_ZNSt23_Rb_tree_const_iteratorIN4cvc58internal8TypeNodeEEC2ERKSt17_Rb_tree_iteratorIS2_E = comdat any

$_ZNK9__gnu_cxx17__normal_iteratorIPN4cvc58internal8TypeNodeESt6vectorIS3_SaIS3_EEEdeEv = comdat any

$_ZN9__gnu_cxx17__normal_iteratorIPN4cvc58internal8TypeNodeESt6vectorIS3_SaIS3_EEEppEv = comdat any

$_ZNSt8_Rb_treeIN4cvc58internal8TypeNodeES2_St9_IdentityIS2_ESt4lessIS2_ESaIS2_EE29_M_get_insert_hint_unique_posESt23_Rb_tree_const_iteratorIS2_ERKS2_ = comdat any

$_ZNKSt9_IdentityIN4cvc58internal8TypeNodeEEclERS2_ = comdat any

$_ZNSt8_Rb_treeIN4cvc58internal8TypeNodeES2_St9_IdentityIS2_ESt4lessIS2_ESaIS2_EE10_M_insert_IRS2_NS8_11_Alloc_nodeEEESt17_Rb_tree_iteratorIS2_EPSt18_Rb_tree_node_baseSF_OT_RT0_ = comdat any

$_ZNSt17_Rb_tree_iteratorIN4cvc58internal8TypeNodeEEC2EPSt18_Rb_tree_node_base = comdat any

$_ZNKSt23_Rb_tree_const_iteratorIN4cvc58internal8TypeNodeEE13_M_const_castEv = comdat any

$_ZNSt8_Rb_treeIN4cvc58internal8TypeNodeES2_St9_IdentityIS2_ESt4lessIS2_ESaIS2_EE6_M_endEv = comdat any

$_ZNKSt8_Rb_treeIN4cvc58internal8TypeNodeES2_St9_IdentityIS2_ESt4lessIS2_ESaIS2_EE4sizeEv = comdat any

$_ZNSt8_Rb_treeIN4cvc58internal8TypeNodeES2_St9_IdentityIS2_ESt4lessIS2_ESaIS2_EE6_S_keyEPKSt18_Rb_tree_node_base = comdat any

$_ZNSt8_Rb_treeIN4cvc58internal8TypeNodeES2_St9_IdentityIS2_ESt4lessIS2_ESaIS2_EE12_M_rightmostEv = comdat any

$_ZNSt8_Rb_treeIN4cvc58internal8TypeNodeES2_St9_IdentityIS2_ESt4lessIS2_ESaIS2_EE24_M_get_insert_unique_posERKS2_ = comdat any

$_ZNSt8_Rb_treeIN4cvc58internal8TypeNodeES2_St9_IdentityIS2_ESt4lessIS2_ESaIS2_EE11_M_leftmostEv = comdat any

$_ZNSt17_Rb_tree_iteratorIN4cvc58internal8TypeNodeEEmmEv = comdat any

$_ZNSt17_Rb_tree_iteratorIN4cvc58internal8TypeNodeEEppEv = comdat any

$_ZNSt8_Rb_treeIN4cvc58internal8TypeNodeES2_St9_IdentityIS2_ESt4lessIS2_ESaIS2_EE6_S_keyEPKSt13_Rb_tree_nodeIS2_E = comdat any

$_ZNKSt9_IdentityIN4cvc58internal8TypeNodeEEclERKS2_ = comdat any

$_ZNKSt13_Rb_tree_nodeIN4cvc58internal8TypeNodeEE9_M_valptrEv = comdat any

$_ZNK9__gnu_cxx16__aligned_membufIN4cvc58internal8TypeNodeEE6_M_ptrEv = comdat any

$_ZNK9__gnu_cxx16__aligned_membufIN4cvc58internal8TypeNodeEE7_M_addrEv = comdat any

$_ZSteqRKSt17_Rb_tree_iteratorIN4cvc58internal8TypeNodeEES5_ = comdat any

$_ZNSt8_Rb_treeIN4cvc58internal8TypeNodeES2_St9_IdentityIS2_ESt4lessIS2_ESaIS2_EE5beginEv = comdat any

$_ZNSt4pairIPSt18_Rb_tree_node_baseS1_EC2IRPSt13_Rb_tree_nodeIN4cvc58internal8TypeNodeEERS1_TnNSt9enable_ifIXaaclsr5_PCCPE22_MoveConstructiblePairIT_T0_EEclsr5_PCCPE30_ImplicitlyMoveConvertiblePairISD_SE_EEEbE4typeELb1EEEOSD_OSE_ = comdat any

$_ZNKSt8_Rb_treeIN4cvc58internal8TypeNodeES2_St9_IdentityIS2_ESt4lessIS2_ESaIS2_EE11_Alloc_nodeclIRS2_EEPSt13_Rb_tree_nodeIS2_EOT_ = comdat any

$_ZNSt8_Rb_treeIN4cvc58internal8TypeNodeES2_St9_IdentityIS2_ESt4lessIS2_ESaIS2_EE14_M_create_nodeIJRS2_EEEPSt13_Rb_tree_nodeIS2_EDpOT_ = comdat any

$_ZNSt8_Rb_treeIN4cvc58internal8TypeNodeES2_St9_IdentityIS2_ESt4lessIS2_ESaIS2_EE11_M_get_nodeEv = comdat any

$_ZNSt8_Rb_treeIN4cvc58internal8TypeNodeES2_St9_IdentityIS2_ESt4lessIS2_ESaIS2_EE17_M_construct_nodeIJRS2_EEEvPSt13_Rb_tree_nodeIS2_EDpOT_ = comdat any

$_ZNSt16allocator_traitsISaISt13_Rb_tree_nodeIN4cvc58internal8TypeNodeEEEE8allocateERS5_m = comdat any

$_ZNSt15__new_allocatorISt13_Rb_tree_nodeIN4cvc58internal8TypeNodeEEE8allocateEmPKv = comdat any

$_ZNKSt15__new_allocatorISt13_Rb_tree_nodeIN4cvc58internal8TypeNodeEEE11_M_max_sizeEv = comdat any

$_ZNSt16allocator_traitsISaISt13_Rb_tree_nodeIN4cvc58internal8TypeNodeEEEE9constructIS3_JRS3_EEEvRS5_PT_DpOT0_ = comdat any

$_ZNSt15__new_allocatorISt13_Rb_tree_nodeIN4cvc58internal8TypeNodeEEE9constructIS3_JRS3_EEEvPT_DpOT0_ = comdat any

$_ZNKSt8_Rb_treeIN4cvc58internal8TypeNodeES2_St9_IdentityIS2_ESt4lessIS2_ESaIS2_EE5beginEv = comdat any

$_ZNSt23_Rb_tree_const_iteratorIN4cvc58internal8TypeNodeEEC2EPKSt18_Rb_tree_node_base = comdat any

$_ZNKSt8_Rb_treeIN4cvc58internal8TypeNodeES2_St9_IdentityIS2_ESt4lessIS2_ESaIS2_EE3endEv = comdat any

$_ZNSt6vectorIN4cvc58internal8TypeNodeESaIS2_EE15_M_erase_at_endEPS2_ = comdat any

$_ZSt8_DestroyIPN4cvc58internal5DTypeES2_EvT_S4_RSaIT0_E = comdat any

$_ZNSt12_Vector_baseIN4cvc58internal5DTypeESaIS2_EE19_M_get_Tp_allocatorEv = comdat any

$_ZNSt12_Vector_baseIN4cvc58internal5DTypeESaIS2_EED2Ev = comdat any

$_ZSt8_DestroyIPN4cvc58internal5DTypeEEvT_S4_ = comdat any

$_ZNSt12_Destroy_auxILb0EE9__destroyIPN4cvc58internal5DTypeEEEvT_S6_ = comdat any

$_ZSt8_DestroyIN4cvc58internal5DTypeEEvPT_ = comdat any

$_ZNSt12_Vector_baseIN4cvc58internal5DTypeESaIS2_EE13_M_deallocateEPS2_m = comdat any

$_ZNSt12_Vector_baseIN4cvc58internal5DTypeESaIS2_EE12_Vector_implD2Ev = comdat any

$_ZNSt16allocator_traitsISaIN4cvc58internal5DTypeEEE10deallocateERS3_PS2_m = comdat any

$_ZNSt15__new_allocatorIN4cvc58internal5DTypeEE10deallocateEPS2_m = comdat any

$_ZNSaIN4cvc58internal5DTypeEED2Ev = comdat any

$_ZNSt15__new_allocatorIN4cvc58internal5DTypeEED2Ev = comdat any

$_ZNSt16allocator_traitsISaIN4cvc58internal5DTypeEEE9constructIS2_JRKS2_EEEvRS3_PT_DpOT0_ = comdat any

$_ZNSt6vectorIN4cvc58internal5DTypeESaIS2_EE17_M_realloc_insertIJRKS2_EEEvN9__gnu_cxx17__normal_iteratorIPS2_S4_EEDpOT_ = comdat any

$_ZNSt6vectorIN4cvc58internal5DTypeESaIS2_EE3endEv = comdat any

$_ZNSt15__new_allocatorIN4cvc58internal5DTypeEE9constructIS2_JRKS2_EEEvPT_DpOT0_ = comdat any

$_ZNKSt6vectorIN4cvc58internal5DTypeESaIS2_EE12_M_check_lenEmPKc = comdat any

$_ZN9__gnu_cxxmiIPN4cvc58internal5DTypeESt6vectorIS3_SaIS3_EEEENS_17__normal_iteratorIT_T0_E15difference_typeERKSB_SE_ = comdat any

$_ZNSt6vectorIN4cvc58internal5DTypeESaIS2_EE5beginEv = comdat any

$_ZNSt12_Vector_baseIN4cvc58internal5DTypeESaIS2_EE11_M_allocateEm = comdat any

$_ZSt34__uninitialized_move_if_noexcept_aIPN4cvc58internal5DTypeES3_SaIS2_EET0_T_S6_S5_RT1_ = comdat any

$_ZNK9__gnu_cxx17__normal_iteratorIPN4cvc58internal5DTypeESt6vectorIS3_SaIS3_EEE4baseEv = comdat any

$_ZNSt16allocator_traitsISaIN4cvc58internal5DTypeEEE7destroyIS2_EEvRS3_PT_ = comdat any

$_ZNKSt6vectorIN4cvc58internal5DTypeESaIS2_EE8max_sizeEv = comdat any

$_ZNKSt6vectorIN4cvc58internal5DTypeESaIS2_EE4sizeEv = comdat any

$_ZNSt6vectorIN4cvc58internal5DTypeESaIS2_EE11_S_max_sizeERKS3_ = comdat any

$_ZNKSt12_Vector_baseIN4cvc58internal5DTypeESaIS2_EE19_M_get_Tp_allocatorEv = comdat any

$_ZNSt16allocator_traitsISaIN4cvc58internal5DTypeEEE8max_sizeERKS3_ = comdat any

$_ZNKSt15__new_allocatorIN4cvc58internal5DTypeEE8max_sizeEv = comdat any

$_ZNKSt15__new_allocatorIN4cvc58internal5DTypeEE11_M_max_sizeEv = comdat any

$_ZN9__gnu_cxx17__normal_iteratorIPN4cvc58internal5DTypeESt6vectorIS3_SaIS3_EEEC2ERKS4_ = comdat any

$_ZNSt16allocator_traitsISaIN4cvc58internal5DTypeEEE8allocateERS3_m = comdat any

$_ZNSt15__new_allocatorIN4cvc58internal5DTypeEE8allocateEmPKv = comdat any

$_ZSt22__uninitialized_copy_aIPKN4cvc58internal5DTypeEPS2_S2_ET0_T_S7_S6_RSaIT1_E = comdat any

$_ZSt32__make_move_if_noexcept_iteratorIN4cvc58internal5DTypeEPKS2_ET0_PT_ = comdat any

$_ZSt18uninitialized_copyIPKN4cvc58internal5DTypeEPS2_ET0_T_S7_S6_ = comdat any

$_ZNSt20__uninitialized_copyILb0EE13__uninit_copyIPKN4cvc58internal5DTypeEPS4_EET0_T_S9_S8_ = comdat any

$_ZSt16__do_uninit_copyIPKN4cvc58internal5DTypeEPS2_ET0_T_S7_S6_ = comdat any

$_ZSt10_ConstructIN4cvc58internal5DTypeEJRKS2_EEvPT_DpOT0_ = comdat any

$_ZNSt15__new_allocatorIN4cvc58internal5DTypeEE7destroyIS2_EEvPT_ = comdat any

$_ZNSt3mapIN4cvc58internal8TypeNodeES2_St4lessIS2_ESaISt4pairIKS2_S2_EEE11lower_boundERS6_ = comdat any

$_ZSteqRKSt17_Rb_tree_iteratorISt4pairIKN4cvc58internal8TypeNodeES3_EES8_ = comdat any

$_ZNKSt3mapIN4cvc58internal8TypeNodeES2_St4lessIS2_ESaISt4pairIKS2_S2_EEE8key_compEv = comdat any

$_ZNSt8_Rb_treeIN4cvc58internal8TypeNodeESt4pairIKS2_S2_ESt10_Select1stIS5_ESt4lessIS2_ESaIS5_EE22_M_emplace_hint_uniqueIJRKSt21piecewise_construct_tSt5tupleIJRS4_EESG_IJEEEEESt17_Rb_tree_iteratorIS5_ESt23_Rb_tree_const_iteratorIS5_EDpOT_ = comdat any

$_ZNSt23_Rb_tree_const_iteratorISt4pairIKN4cvc58internal8TypeNodeES3_EEC2ERKSt17_Rb_tree_iteratorIS5_E = comdat any

$_ZNSt8_Rb_treeIN4cvc58internal8TypeNodeESt4pairIKS2_S2_ESt10_Select1stIS5_ESt4lessIS2_ESaIS5_EE11lower_boundERS4_ = comdat any

$_ZNSt8_Rb_treeIN4cvc58internal8TypeNodeESt4pairIKS2_S2_ESt10_Select1stIS5_ESt4lessIS2_ESaIS5_EE14_M_lower_boundEPSt13_Rb_tree_nodeIS5_EPSt18_Rb_tree_node_baseRS4_ = comdat any

$_ZNSt8_Rb_treeIN4cvc58internal8TypeNodeESt4pairIKS2_S2_ESt10_Select1stIS5_ESt4lessIS2_ESaIS5_EE6_M_endEv = comdat any

$_ZNSt8_Rb_treeIN4cvc58internal8TypeNodeESt4pairIKS2_S2_ESt10_Select1stIS5_ESt4lessIS2_ESaIS5_EE6_S_keyEPKSt13_Rb_tree_nodeIS5_E = comdat any

$_ZNKSt10_Select1stISt4pairIKN4cvc58internal8TypeNodeES3_EEclERKS5_ = comdat any

$_ZNKSt13_Rb_tree_nodeISt4pairIKN4cvc58internal8TypeNodeES3_EE9_M_valptrEv = comdat any

$_ZNK9__gnu_cxx16__aligned_membufISt4pairIKN4cvc58internal8TypeNodeES4_EE6_M_ptrEv = comdat any

$_ZNK9__gnu_cxx16__aligned_membufISt4pairIKN4cvc58internal8TypeNodeES4_EE7_M_addrEv = comdat any

$_ZNKSt8_Rb_treeIN4cvc58internal8TypeNodeESt4pairIKS2_S2_ESt10_Select1stIS5_ESt4lessIS2_ESaIS5_EE8key_compEv = comdat any

$_ZNSt8_Rb_treeIN4cvc58internal8TypeNodeESt4pairIKS2_S2_ESt10_Select1stIS5_ESt4lessIS2_ESaIS5_EE10_Auto_nodeC2IJRKSt21piecewise_construct_tSt5tupleIJRS4_EESH_IJEEEEERSB_DpOT_ = comdat any

$_ZNSt8_Rb_treeIN4cvc58internal8TypeNodeESt4pairIKS2_S2_ESt10_Select1stIS5_ESt4lessIS2_ESaIS5_EE29_M_get_insert_hint_unique_posESt23_Rb_tree_const_iteratorIS5_ERS4_ = comdat any

$_ZNKSt8_Rb_treeIN4cvc58internal8TypeNodeESt4pairIKS2_S2_ESt10_Select1stIS5_ESt4lessIS2_ESaIS5_EE10_Auto_node6_M_keyEv = comdat any

$_ZNSt8_Rb_treeIN4cvc58internal8TypeNodeESt4pairIKS2_S2_ESt10_Select1stIS5_ESt4lessIS2_ESaIS5_EE10_Auto_node9_M_insertES3_IPSt18_Rb_tree_node_baseSE_E = comdat any

$_ZNSt8_Rb_treeIN4cvc58internal8TypeNodeESt4pairIKS2_S2_ESt10_Select1stIS5_ESt4lessIS2_ESaIS5_EE10_Auto_nodeD2Ev = comdat any

$_ZNSt8_Rb_treeIN4cvc58internal8TypeNodeESt4pairIKS2_S2_ESt10_Select1stIS5_ESt4lessIS2_ESaIS5_EE14_M_create_nodeIJRKSt21piecewise_construct_tSt5tupleIJRS4_EESG_IJEEEEEPSt13_Rb_tree_nodeIS5_EDpOT_ = comdat any

$_ZNSt8_Rb_treeIN4cvc58internal8TypeNodeESt4pairIKS2_S2_ESt10_Select1stIS5_ESt4lessIS2_ESaIS5_EE11_M_get_nodeEv = comdat any

$_ZNSt8_Rb_treeIN4cvc58internal8TypeNodeESt4pairIKS2_S2_ESt10_Select1stIS5_ESt4lessIS2_ESaIS5_EE17_M_construct_nodeIJRKSt21piecewise_construct_tSt5tupleIJRS4_EESG_IJEEEEEvPSt13_Rb_tree_nodeIS5_EDpOT_ = comdat any

$_ZNSt16allocator_traitsISaISt13_Rb_tree_nodeISt4pairIKN4cvc58internal8TypeNodeES4_EEEE8allocateERS8_m = comdat any

$_ZNSt15__new_allocatorISt13_Rb_tree_nodeISt4pairIKN4cvc58internal8TypeNodeES4_EEE8allocateEmPKv = comdat any

$_ZNKSt15__new_allocatorISt13_Rb_tree_nodeISt4pairIKN4cvc58internal8TypeNodeES4_EEE11_M_max_sizeEv = comdat any

$_ZNSt16allocator_traitsISaISt13_Rb_tree_nodeISt4pairIKN4cvc58internal8TypeNodeES4_EEEE9constructIS6_JRKSt21piecewise_construct_tSt5tupleIJRS5_EESE_IJEEEEEvRS8_PT_DpOT0_ = comdat any

$_ZNSt15__new_allocatorISt13_Rb_tree_nodeISt4pairIKN4cvc58internal8TypeNodeES4_EEE9constructIS6_JRKSt21piecewise_construct_tSt5tupleIJRS5_EESD_IJEEEEEvPT_DpOT0_ = comdat any

$_ZNSt4pairIKN4cvc58internal8TypeNodeES2_EC2IJRS3_EJEEESt21piecewise_construct_tSt5tupleIJDpT_EES8_IJDpT0_EE = comdat any

$_ZNSt4pairIKN4cvc58internal8TypeNodeES2_EC2IJRS3_EJLm0EEJETpTnmJEEERSt5tupleIJDpT_EERS7_IJDpT1_EESt12_Index_tupleIJXspT0_EEESG_IJXspT2_EEE = comdat any

$_ZNKSt23_Rb_tree_const_iteratorISt4pairIKN4cvc58internal8TypeNodeES3_EE13_M_const_castEv = comdat any

$_ZNKSt8_Rb_treeIN4cvc58internal8TypeNodeESt4pairIKS2_S2_ESt10_Select1stIS5_ESt4lessIS2_ESaIS5_EE4sizeEv = comdat any

$_ZNSt8_Rb_treeIN4cvc58internal8TypeNodeESt4pairIKS2_S2_ESt10_Select1stIS5_ESt4lessIS2_ESaIS5_EE6_S_keyEPKSt18_Rb_tree_node_base = comdat any

$_ZNSt8_Rb_treeIN4cvc58internal8TypeNodeESt4pairIKS2_S2_ESt10_Select1stIS5_ESt4lessIS2_ESaIS5_EE12_M_rightmostEv = comdat any

$_ZNSt8_Rb_treeIN4cvc58internal8TypeNodeESt4pairIKS2_S2_ESt10_Select1stIS5_ESt4lessIS2_ESaIS5_EE24_M_get_insert_unique_posERS4_ = comdat any

$_ZNSt8_Rb_treeIN4cvc58internal8TypeNodeESt4pairIKS2_S2_ESt10_Select1stIS5_ESt4lessIS2_ESaIS5_EE11_M_leftmostEv = comdat any

$_ZNSt17_Rb_tree_iteratorISt4pairIKN4cvc58internal8TypeNodeES3_EEmmEv = comdat any

$_ZNSt4pairIPSt18_Rb_tree_node_baseS1_EC2IRPSt13_Rb_tree_nodeIS_IKN4cvc58internal8TypeNodeES7_EERS1_TnNSt9enable_ifIXaaclsr5_PCCPE22_MoveConstructiblePairIT_T0_EEclsr5_PCCPE30_ImplicitlyMoveConvertiblePairISF_SG_EEEbE4typeELb1EEEOSF_OSG_ = comdat any

$_ZNSt8_Rb_treeIN4cvc58internal8TypeNodeESt4pairIKS2_S2_ESt10_Select1stIS5_ESt4lessIS2_ESaIS5_EE14_M_insert_nodeEPSt18_Rb_tree_node_baseSD_PSt13_Rb_tree_nodeIS5_E = comdat any

$_ZZN4cvc58internal4expr9NodeValue4nullEvE6s_null = comdat any

$_ZGVZN4cvc58internal4expr9NodeValue4nullEvE6s_null = comdat any

$_ZSt19piecewise_construct = comdat any

@_ZStL8__ioinit = internal global %"class.std::ios_base::Init" zeroinitializer, align 1
@__dso_handle = external hidden global i8
@.str = private unnamed_addr constant [9 x i8] c"synth-rr\00", align 1
@_ZTVN4cvc58internal13preprocessing6passes17SynthRewRulesPassE = hidden unnamed_addr constant { [5 x ptr] } { [5 x ptr] [ptr null, ptr @_ZTIN4cvc58internal13preprocessing6passes17SynthRewRulesPassE, ptr @_ZN4cvc58internal13preprocessing6passes17SynthRewRulesPassD2Ev, ptr @_ZN4cvc58internal13preprocessing6passes17SynthRewRulesPassD0Ev, ptr @_ZN4cvc58internal13preprocessing6passes17SynthRewRulesPass13applyInternalEPNS1_17AssertionPipelineE] }, align 8
@_ZN4cvc58internal10nullStreamE = external global %"class.cvc5::internal::NullC", align 1
@_ZN4cvc58internal12TraceChannelE = external global %"class.cvc5::internal::TraceC", align 8
@.str.1 = private unnamed_addr constant [31 x i8] c"Collect terms in assertions...\00", align 1
@.str.2 = private unnamed_addr constant [13 x i8] c"Assertion : \00", align 1
@.str.3 = private unnamed_addr constant [15 x i8] c"...preprocess \00", align 1
@.str.4 = private unnamed_addr constant [16 x i8] c"...postprocess \00", align 1
@.str.5 = private unnamed_addr constant [22 x i8] c"...children are valid\00", align 1
@.str.6 = private unnamed_addr constant [10 x i8] c"Add term \00", align 1
@.str.7 = private unnamed_addr constant [13 x i8] c"...finished.\00", align 1
@.str.8 = private unnamed_addr constant [34 x i8] c"Make synth variables for types...\00", align 1
@.str.9 = private unnamed_addr constant [2 x i8] c"x\00", align 1
@.str.10 = private unnamed_addr constant [15 x i8] c"Make variable \00", align 1
@.str.11 = private unnamed_addr constant [10 x i8] c" of type \00", align 1
@.str.12 = private unnamed_addr constant [42 x i8] c"Convert subterms to free variable form...\00", align 1
@.str.13 = private unnamed_addr constant [9 x i8] c"Process \00", align 1
@.str.14 = private unnamed_addr constant [13 x i8] c" subterms...\00", align 1
@.str.15 = private unnamed_addr constant [9 x i8] c"Canon : \00", align 1
@.str.16 = private unnamed_addr constant [5 x i8] c" -> \00", align 1
@.str.17 = private unnamed_addr constant [6 x i8] c"Have \00", align 1
@.str.18 = private unnamed_addr constant [21 x i8] c" canonical subterms.\00", align 1
@.str.19 = private unnamed_addr constant [30 x i8] c"Construct unresolved types...\00", align 1
@.str.20 = private unnamed_addr constant [2 x i8] c"T\00", align 1
@.str.21 = private unnamed_addr constant [29 x i8] c"Construct sygus datatypes...\00", align 1
@.str.22 = private unnamed_addr constant [3 x i8] c"C_\00", align 1
@.str.23 = private unnamed_addr constant [2 x i8] c"_\00", align 1
@.str.24 = private unnamed_addr constant [10 x i8] c"C_factor_\00", align 1
@.str.25 = private unnamed_addr constant [20 x i8] c"Add (nested chain) \00", align 1
@.str.26 = private unnamed_addr constant [2 x i8] c" \00", align 1
@.str.27 = private unnamed_addr constant [6 x i8] c"_rec_\00", align 1
@.str.28 = private unnamed_addr constant [13 x i8] c"Add (chain) \00", align 1
@.str.29 = private unnamed_addr constant [5 x i8] c"Add \00", align 1
@.str.30 = private unnamed_addr constant [43 x i8] c"Make mutual datatype types for subterms...\00", align 1
@.str.31 = private unnamed_addr constant [33 x i8] c"Construct the top-level types...\00", align 1
@.str.32 = private unnamed_addr constant [3 x i8] c"T_\00", align 1
@.str.33 = private unnamed_addr constant [11 x i8] c"  We have \00", align 1
@.str.34 = private unnamed_addr constant [19 x i8] c" subterms of type \00", align 1
@.str.35 = private unnamed_addr constant [5 x i8] c"Ctl_\00", align 1
@.str.36 = private unnamed_addr constant [21 x i8] c"Grammar for subterm \00", align 1
@.str.37 = private unnamed_addr constant [6 x i8] c" is: \00", align 1
@.str.38 = private unnamed_addr constant [13 x i8] c"Grammar is: \00", align 1
@_ZTVN10__cxxabiv120__si_class_type_infoE = external global [0 x ptr]
@_ZTSN4cvc58internal13preprocessing6passes17SynthRewRulesPassE = hidden constant [58 x i8] c"N4cvc58internal13preprocessing6passes17SynthRewRulesPassE\00", align 1
@_ZTIN4cvc58internal13preprocessing17PreprocessingPassE = external constant ptr
@_ZTIN4cvc58internal13preprocessing6passes17SynthRewRulesPassE = hidden constant { ptr, ptr, ptr } { ptr getelementptr inbounds (ptr, ptr @_ZTVN10__cxxabiv120__si_class_type_infoE, i64 2), ptr @_ZTSN4cvc58internal13preprocessing6passes17SynthRewRulesPassE, ptr @_ZTIN4cvc58internal13preprocessing17PreprocessingPassE }, align 8
@_ZN4cvc58internal12NodeTemplateILb1EE6s_nullE = linkonce_odr hidden global %"class.cvc5::internal::NodeTemplate.37" zeroinitializer, comdat, align 8
@_ZGVN4cvc58internal12NodeTemplateILb1EE6s_nullE = linkonce_odr hidden global i64 0, comdat($_ZN4cvc58internal12NodeTemplateILb1EE6s_nullE), align 8
@__libc_single_threaded = external global i8, align 1
@.str.40 = private unnamed_addr constant [50 x i8] c"basic_string: construction from null is not valid\00", align 1
@_ZN4cvc58internal11Cvc5ostream16s_indentIosIndexE = external constant i32, align 4
@_ZN4cvc58internal11Cvc5ostream5s_tabB5cxx11E = external global %"class.std::__cxx11::basic_string", align 8
@_ZZN4cvc58internal4expr9NodeValue4nullEvE6s_null = linkonce_odr global ptr null, comdat, align 8
@_ZGVZN4cvc58internal4expr9NodeValue4nullEvE6s_null = linkonce_odr global i64 0, comdat, align 8
@_ZTIN4cvc58internal28TypeCheckingExceptionPrivateE = external constant ptr
@.str.41 = private unnamed_addr constant [26 x i8] c"vector::_M_realloc_insert\00", align 1
@_ZSt19piecewise_construct = linkonce_odr constant %"struct.std::piecewise_construct_t" zeroinitializer, comdat, align 1
@.str.42 = private unnamed_addr constant [24 x i8] c"vector::_M_range_insert\00", align 1
@llvm.global_ctors = appending global [2 x { i32, ptr, ptr }] [{ i32, ptr, ptr } { i32 65535, ptr @__cxx_global_var_init.39, ptr @_ZN4cvc58internal12NodeTemplateILb1EE6s_nullE }, { i32, ptr, ptr } { i32 65535, ptr @_GLOBAL__sub_I_synth_rew_rules.cpp, ptr null }]
@llvm.used = appending global [1 x ptr] [ptr @_ZN4cvc58internal12NodeTemplateILb1EE6s_nullE], section "llvm.metadata"

@_ZN4cvc58internal13preprocessing6passes17SynthRewRulesPassC1EPNS1_24PreprocessingPassContextE = hidden unnamed_addr alias void (ptr, ptr), ptr @_ZN4cvc58internal13preprocessing6passes17SynthRewRulesPassC2EPNS1_24PreprocessingPassContextE

; Function Attrs: uwtable
define internal void @__cxx_global_var_init() #0 section ".text.startup" {
entry:
  call void @_ZNSt8ios_base4InitC1Ev(ptr noundef nonnull align 1 dereferenceable(1) @_ZStL8__ioinit)
  %0 = call i32 @__cxa_atexit(ptr @_ZNSt8ios_base4InitD1Ev, ptr @_ZStL8__ioinit, ptr @__dso_handle) #3
  ret void
}

declare void @_ZNSt8ios_base4InitC1Ev(ptr noundef nonnull align 1 dereferenceable(1)) unnamed_addr #1

; Function Attrs: nounwind
declare void @_ZNSt8ios_base4InitD1Ev(ptr noundef nonnull align 1 dereferenceable(1)) unnamed_addr #2

; Function Attrs: nounwind
declare i32 @__cxa_atexit(ptr, ptr, ptr) #3

; Function Attrs: mustprogress uwtable
define hidden void @_ZN4cvc58internal13preprocessing6passes17SynthRewRulesPassC2EPNS1_24PreprocessingPassContextE(ptr noundef nonnull align 8 dereferenceable(64) %this, ptr noundef %preprocContext) unnamed_addr #4 align 2 personality ptr @__gxx_personality_v0 {
entry:
  %this.addr = alloca ptr, align 8
  %preprocContext.addr = alloca ptr, align 8
  %ref.tmp = alloca %"class.std::__cxx11::basic_string", align 8
  %ref.tmp2 = alloca %"class.std::allocator", align 1
  %exn.slot = alloca ptr, align 8
  %ehselector.slot = alloca i32, align 4
  store ptr %this, ptr %this.addr, align 8
  store ptr %preprocContext, ptr %preprocContext.addr, align 8
  %this1 = load ptr, ptr %this.addr, align 8
  %0 = load ptr, ptr %preprocContext.addr, align 8
  call void @_ZNSaIcEC1Ev(ptr noundef nonnull align 1 dereferenceable(1) %ref.tmp2) #3
  invoke void @_ZNSt7__cxx1112basic_stringIcSt11char_traitsIcESaIcEEC2IS3_EEPKcRKS3_(ptr noundef nonnull align 8 dereferenceable(32) %ref.tmp, ptr noundef @.str, ptr noundef nonnull align 1 dereferenceable(1) %ref.tmp2)
          to label %invoke.cont unwind label %lpad

invoke.cont:                                      ; preds = %entry
  invoke void @_ZN4cvc58internal13preprocessing17PreprocessingPassC2EPNS1_24PreprocessingPassContextERKNSt7__cxx1112basic_stringIcSt11char_traitsIcESaIcEEE(ptr noundef nonnull align 8 dereferenceable(64) %this1, ptr noundef %0, ptr noundef nonnull align 8 dereferenceable(32) %ref.tmp)
          to label %invoke.cont4 unwind label %lpad3

invoke.cont4:                                     ; preds = %invoke.cont
  call void @_ZNSt7__cxx1112basic_stringIcSt11char_traitsIcESaIcEED1Ev(ptr noundef nonnull align 8 dereferenceable(32) %ref.tmp) #3
  call void @_ZNSaIcED1Ev(ptr noundef nonnull align 1 dereferenceable(1) %ref.tmp2) #3
  store ptr getelementptr inbounds ({ [5 x ptr] }, ptr @_ZTVN4cvc58internal13preprocessing6passes17SynthRewRulesPassE, i32 0, inrange i32 0, i32 2), ptr %this1, align 8
  ret void

lpad:                                             ; preds = %entry
  %1 = landingpad { ptr, i32 }
          cleanup
  %2 = extractvalue { ptr, i32 } %1, 0
  store ptr %2, ptr %exn.slot, align 8
  %3 = extractvalue { ptr, i32 } %1, 1
  store i32 %3, ptr %ehselector.slot, align 4
  br label %ehcleanup

lpad3:                                            ; preds = %invoke.cont
  %4 = landingpad { ptr, i32 }
          cleanup
  %5 = extractvalue { ptr, i32 } %4, 0
  store ptr %5, ptr %exn.slot, align 8
  %6 = extractvalue { ptr, i32 } %4, 1
  store i32 %6, ptr %ehselector.slot, align 4
  call void @_ZNSt7__cxx1112basic_stringIcSt11char_traitsIcESaIcEED1Ev(ptr noundef nonnull align 8 dereferenceable(32) %ref.tmp) #3
  br label %ehcleanup

ehcleanup:                                        ; preds = %lpad3, %lpad
  call void @_ZNSaIcED1Ev(ptr noundef nonnull align 1 dereferenceable(1) %ref.tmp2) #3
  br label %eh.resume

eh.resume:                                        ; preds = %ehcleanup
  %exn = load ptr, ptr %exn.slot, align 8
  %sel = load i32, ptr %ehselector.slot, align 4
  %lpad.val = insertvalue { ptr, i32 } poison, ptr %exn, 0
  %lpad.val5 = insertvalue { ptr, i32 } %lpad.val, i32 %sel, 1
  resume { ptr, i32 } %lpad.val5
}

; Function Attrs: nounwind
declare void @_ZNSaIcEC1Ev(ptr noundef nonnull align 1 dereferenceable(1)) unnamed_addr #2

; Function Attrs: mustprogress uwtable
define linkonce_odr hidden void @_ZNSt7__cxx1112basic_stringIcSt11char_traitsIcESaIcEEC2IS3_EEPKcRKS3_(ptr noundef nonnull align 8 dereferenceable(32) %this, ptr noundef %__s, ptr noundef nonnull align 1 dereferenceable(1) %__a) unnamed_addr #4 comdat align 2 personality ptr @__gxx_personality_v0 {
entry:
  %this.addr = alloca ptr, align 8
  %__s.addr = alloca ptr, align 8
  %__a.addr = alloca ptr, align 8
  %exn.slot = alloca ptr, align 8
  %ehselector.slot = alloca i32, align 4
  %__end = alloca ptr, align 8
  store ptr %this, ptr %this.addr, align 8
  store ptr %__s, ptr %__s.addr, align 8
  store ptr %__a, ptr %__a.addr, align 8
  %this1 = load ptr, ptr %this.addr, align 8
  %_M_dataplus = getelementptr inbounds %"class.std::__cxx11::basic_string", ptr %this1, i32 0, i32 0
  %call = call noundef ptr @_ZNSt7__cxx1112basic_stringIcSt11char_traitsIcESaIcEE13_M_local_dataEv(ptr noundef nonnull align 8 dereferenceable(32) %this1)
  %0 = load ptr, ptr %__a.addr, align 8
  call void @_ZNSt7__cxx1112basic_stringIcSt11char_traitsIcESaIcEE12_Alloc_hiderC1EPcRKS3_(ptr noundef nonnull align 8 dereferenceable(8) %_M_dataplus, ptr noundef %call, ptr noundef nonnull align 1 dereferenceable(1) %0)
  %1 = load ptr, ptr %__s.addr, align 8
  %cmp = icmp eq ptr %1, null
  br i1 %cmp, label %if.then, label %if.end

if.then:                                          ; preds = %entry
  invoke void @_ZSt19__throw_logic_errorPKc(ptr noundef @.str.40) #15
          to label %invoke.cont unwind label %lpad

invoke.cont:                                      ; preds = %if.then
  unreachable

lpad:                                             ; preds = %invoke.cont2, %if.end, %if.then
  %2 = landingpad { ptr, i32 }
          cleanup
  %3 = extractvalue { ptr, i32 } %2, 0
  store ptr %3, ptr %exn.slot, align 8
  %4 = extractvalue { ptr, i32 } %2, 1
  store i32 %4, ptr %ehselector.slot, align 4
  call void @_ZNSt7__cxx1112basic_stringIcSt11char_traitsIcESaIcEE12_Alloc_hiderD2Ev(ptr noundef nonnull align 8 dereferenceable(8) %_M_dataplus) #3
  br label %eh.resume

if.end:                                           ; preds = %entry
  %5 = load ptr, ptr %__s.addr, align 8
  %6 = load ptr, ptr %__s.addr, align 8
  %call3 = invoke noundef i64 @_ZNSt11char_traitsIcE6lengthEPKc(ptr noundef %6)
          to label %invoke.cont2 unwind label %lpad

invoke.cont2:                                     ; preds = %if.end
  %add.ptr = getelementptr inbounds i8, ptr %5, i64 %call3
  store ptr %add.ptr, ptr %__end, align 8
  %7 = load ptr, ptr %__s.addr, align 8
  %8 = load ptr, ptr %__end, align 8
  invoke void @_ZNSt7__cxx1112basic_stringIcSt11char_traitsIcESaIcEE12_M_constructIPKcEEvT_S8_St20forward_iterator_tag(ptr noundef nonnull align 8 dereferenceable(32) %this1, ptr noundef %7, ptr noundef %8)
          to label %invoke.cont4 unwind label %lpad

invoke.cont4:                                     ; preds = %invoke.cont2
  ret void

eh.resume:                                        ; preds = %lpad
  %exn = load ptr, ptr %exn.slot, align 8
  %sel = load i32, ptr %ehselector.slot, align 4
  %lpad.val = insertvalue { ptr, i32 } poison, ptr %exn, 0
  %lpad.val5 = insertvalue { ptr, i32 } %lpad.val, i32 %sel, 1
  resume { ptr, i32 } %lpad.val5
}

declare i32 @__gxx_personality_v0(...)

declare void @_ZN4cvc58internal13preprocessing17PreprocessingPassC2EPNS1_24PreprocessingPassContextERKNSt7__cxx1112basic_stringIcSt11char_traitsIcESaIcEEE(ptr noundef nonnull align 8 dereferenceable(64), ptr noundef, ptr noundef nonnull align 8 dereferenceable(32)) unnamed_addr #1

; Function Attrs: nounwind
declare void @_ZNSt7__cxx1112basic_stringIcSt11char_traitsIcESaIcEED1Ev(ptr noundef nonnull align 8 dereferenceable(32)) unnamed_addr #2

; Function Attrs: nounwind
declare void @_ZNSaIcED1Ev(ptr noundef nonnull align 1 dereferenceable(1)) unnamed_addr #2

; Function Attrs: mustprogress nounwind uwtable
define hidden noundef i32 @_ZN4cvc58internal13preprocessing6passes17SynthRewRulesPass13applyInternalEPNS1_17AssertionPipelineE(ptr noundef nonnull align 8 dereferenceable(64) %this, ptr noundef %assertionsToPreprocess) unnamed_addr #5 align 2 {
entry:
  %this.addr = alloca ptr, align 8
  %assertionsToPreprocess.addr = alloca ptr, align 8
  store ptr %this, ptr %this.addr, align 8
  store ptr %assertionsToPreprocess, ptr %assertionsToPreprocess.addr, align 8
  ret i32 1
}

; Function Attrs: mustprogress uwtable
define hidden void @_ZN4cvc58internal13preprocessing6passes17SynthRewRulesPass15getGrammarsFromERKSt6vectorINS0_12NodeTemplateILb1EEESaIS6_EEm(ptr noalias sret(%"class.std::vector") align 8 %agg.result, ptr noundef nonnull align 8 dereferenceable(24) %assertions, i64 noundef %nvars) #4 align 2 personality ptr @__gxx_personality_v0 {
entry:
  %result.ptr = alloca ptr, align 8
  %assertions.addr = alloca ptr, align 8
  %nvars.addr = alloca i64, align 8
  %nrvo = alloca i1, align 1
  %tlGrammarTypes = alloca %"class.std::map", align 8
  %exn.slot = alloca ptr, align 8
  %ehselector.slot = alloca i32, align 4
  %__range3 = alloca ptr, align 8
  %__begin3 = alloca %"struct.std::_Rb_tree_iterator", align 8
  %__end3 = alloca %"struct.std::_Rb_tree_iterator", align 8
  %ttp = alloca %"struct.std::pair", align 8
  store ptr %agg.result, ptr %result.ptr, align 8
  store ptr %assertions, ptr %assertions.addr, align 8
  store i64 %nvars, ptr %nvars.addr, align 8
  store i1 false, ptr %nrvo, align 1
  call void @_ZNSt6vectorIN4cvc58internal8TypeNodeESaIS2_EEC2Ev(ptr noundef nonnull align 8 dereferenceable(24) %agg.result) #3
  %0 = load ptr, ptr %assertions.addr, align 8
  %1 = load i64, ptr %nvars.addr, align 8
  invoke void @_ZN4cvc58internal13preprocessing6passes17SynthRewRulesPass24constructTopLevelGrammarERKSt6vectorINS0_12NodeTemplateILb1EEESaIS6_EEm(ptr sret(%"class.std::map") align 8 %tlGrammarTypes, ptr noundef nonnull align 8 dereferenceable(24) %0, i64 noundef %1)
          to label %invoke.cont unwind label %lpad

invoke.cont:                                      ; preds = %entry
  store ptr %tlGrammarTypes, ptr %__range3, align 8
  %2 = load ptr, ptr %__range3, align 8
  %call = call ptr @_ZNSt3mapIN4cvc58internal8TypeNodeES2_St4lessIS2_ESaISt4pairIKS2_S2_EEE5beginEv(ptr noundef nonnull align 8 dereferenceable(48) %2) #3
  %coerce.dive = getelementptr inbounds %"struct.std::_Rb_tree_iterator", ptr %__begin3, i32 0, i32 0
  store ptr %call, ptr %coerce.dive, align 8
  %3 = load ptr, ptr %__range3, align 8
  %call1 = call ptr @_ZNSt3mapIN4cvc58internal8TypeNodeES2_St4lessIS2_ESaISt4pairIKS2_S2_EEE3endEv(ptr noundef nonnull align 8 dereferenceable(48) %3) #3
  %coerce.dive2 = getelementptr inbounds %"struct.std::_Rb_tree_iterator", ptr %__end3, i32 0, i32 0
  store ptr %call1, ptr %coerce.dive2, align 8
  br label %for.cond

for.cond:                                         ; preds = %for.inc, %invoke.cont
  %call3 = call noundef zeroext i1 @_ZStneRKSt17_Rb_tree_iteratorISt4pairIKN4cvc58internal8TypeNodeES3_EES8_(ptr noundef nonnull align 8 dereferenceable(8) %__begin3, ptr noundef nonnull align 8 dereferenceable(8) %__end3) #3
  br i1 %call3, label %for.body, label %for.end

for.body:                                         ; preds = %for.cond
  %call4 = call noundef nonnull align 8 dereferenceable(16) ptr @_ZNKSt17_Rb_tree_iteratorISt4pairIKN4cvc58internal8TypeNodeES3_EEdeEv(ptr noundef nonnull align 8 dereferenceable(8) %__begin3) #3
  invoke void @_ZNSt4pairIKN4cvc58internal8TypeNodeES2_EC2ERKS4_(ptr noundef nonnull align 8 dereferenceable(16) %ttp, ptr noundef nonnull align 8 dereferenceable(16) %call4)
          to label %invoke.cont6 unwind label %lpad5

invoke.cont6:                                     ; preds = %for.body
  %second = getelementptr inbounds %"struct.std::pair", ptr %ttp, i32 0, i32 1
  invoke void @_ZNSt6vectorIN4cvc58internal8TypeNodeESaIS2_EE9push_backERKS2_(ptr noundef nonnull align 8 dereferenceable(24) %agg.result, ptr noundef nonnull align 8 dereferenceable(8) %second)
          to label %invoke.cont8 unwind label %lpad7

invoke.cont8:                                     ; preds = %invoke.cont6
  call void @_ZNSt4pairIKN4cvc58internal8TypeNodeES2_ED2Ev(ptr noundef nonnull align 8 dereferenceable(16) %ttp) #3
  br label %for.inc

for.inc:                                          ; preds = %invoke.cont8
  %call9 = call noundef nonnull align 8 dereferenceable(8) ptr @_ZNSt17_Rb_tree_iteratorISt4pairIKN4cvc58internal8TypeNodeES3_EEppEv(ptr noundef nonnull align 8 dereferenceable(8) %__begin3) #3
  br label %for.cond

lpad:                                             ; preds = %entry
  %4 = landingpad { ptr, i32 }
          cleanup
  %5 = extractvalue { ptr, i32 } %4, 0
  store ptr %5, ptr %exn.slot, align 8
  %6 = extractvalue { ptr, i32 } %4, 1
  store i32 %6, ptr %ehselector.slot, align 4
  br label %ehcleanup10

lpad5:                                            ; preds = %for.body
  %7 = landingpad { ptr, i32 }
          cleanup
  %8 = extractvalue { ptr, i32 } %7, 0
  store ptr %8, ptr %exn.slot, align 8
  %9 = extractvalue { ptr, i32 } %7, 1
  store i32 %9, ptr %ehselector.slot, align 4
  br label %ehcleanup

lpad7:                                            ; preds = %invoke.cont6
  %10 = landingpad { ptr, i32 }
          cleanup
  %11 = extractvalue { ptr, i32 } %10, 0
  store ptr %11, ptr %exn.slot, align 8
  %12 = extractvalue { ptr, i32 } %10, 1
  store i32 %12, ptr %ehselector.slot, align 4
  call void @_ZNSt4pairIKN4cvc58internal8TypeNodeES2_ED2Ev(ptr noundef nonnull align 8 dereferenceable(16) %ttp) #3
  br label %ehcleanup

for.end:                                          ; preds = %for.cond
  store i1 true, ptr %nrvo, align 1
  call void @_ZNSt3mapIN4cvc58internal8TypeNodeES2_St4lessIS2_ESaISt4pairIKS2_S2_EEED2Ev(ptr noundef nonnull align 8 dereferenceable(48) %tlGrammarTypes) #3
  %nrvo.val = load i1, ptr %nrvo, align 1
  br i1 %nrvo.val, label %nrvo.skipdtor, label %nrvo.unused

ehcleanup:                                        ; preds = %lpad7, %lpad5
  call void @_ZNSt3mapIN4cvc58internal8TypeNodeES2_St4lessIS2_ESaISt4pairIKS2_S2_EEED2Ev(ptr noundef nonnull align 8 dereferenceable(48) %tlGrammarTypes) #3
  br label %ehcleanup10

nrvo.unused:                                      ; preds = %for.end
  call void @_ZNSt6vectorIN4cvc58internal8TypeNodeESaIS2_EED2Ev(ptr noundef nonnull align 8 dereferenceable(24) %agg.result) #3
  br label %nrvo.skipdtor

nrvo.skipdtor:                                    ; preds = %nrvo.unused, %for.end
  ret void

ehcleanup10:                                      ; preds = %ehcleanup, %lpad
  call void @_ZNSt6vectorIN4cvc58internal8TypeNodeESaIS2_EED2Ev(ptr noundef nonnull align 8 dereferenceable(24) %agg.result) #3
  br label %eh.resume

eh.resume:                                        ; preds = %ehcleanup10
  %exn = load ptr, ptr %exn.slot, align 8
  %sel = load i32, ptr %ehselector.slot, align 4
  %lpad.val = insertvalue { ptr, i32 } poison, ptr %exn, 0
  %lpad.val11 = insertvalue { ptr, i32 } %lpad.val, i32 %sel, 1
  resume { ptr, i32 } %lpad.val11
}

; Function Attrs: mustprogress nounwind uwtable
define linkonce_odr hidden void @_ZNSt6vectorIN4cvc58internal8TypeNodeESaIS2_EEC2Ev(ptr noundef nonnull align 8 dereferenceable(24) %this) unnamed_addr #5 comdat align 2 {
entry:
  %this.addr = alloca ptr, align 8
  store ptr %this, ptr %this.addr, align 8
  %this1 = load ptr, ptr %this.addr, align 8
  call void @_ZNSt12_Vector_baseIN4cvc58internal8TypeNodeESaIS2_EEC2Ev(ptr noundef nonnull align 8 dereferenceable(24) %this1) #3
  ret void
}

; Function Attrs: mustprogress uwtable
define hidden void @_ZN4cvc58internal13preprocessing6passes17SynthRewRulesPass24constructTopLevelGrammarERKSt6vectorINS0_12NodeTemplateILb1EEESaIS6_EEm(ptr noalias sret(%"class.std::map") align 8 %agg.result, ptr noundef nonnull align 8 dereferenceable(24) %assertions, i64 noundef %nvars) #4 align 2 personality ptr @__gxx_personality_v0 {
entry:
  %result.ptr = alloca ptr, align 8
  %assertions.addr = alloca ptr, align 8
  %nvars.addr = alloca i64, align 8
  %nrvo = alloca i1, align 1
  %cleanup.dest.slot = alloca i32, align 4
  %nm = alloca ptr, align 8
  %exn.slot = alloca ptr, align 8
  %ehselector.slot = alloca i32, align 4
  %visited = alloca %"class.std::unordered_map", align 8
  %it = alloca %"struct.std::__detail::_Node_iterator", align 8
  %visit = alloca %"class.std::vector.17", align 8
  %terms = alloca %"class.std::vector.6", align 8
  %vars = alloca %"class.std::vector.6", align 8
  %hasBoolVar = alloca i8, align 1
  %typesFound = alloca %"class.std::map.22", align 8
  %consts = alloca %"class.std::map.27", align 8
  %cur = alloca %"class.cvc5::internal::NodeTemplate", align 8
  %ref.tmp = alloca %"class.cvc5::internal::__cvc5_true", align 1
  %tmp = alloca %"class.cvc5::internal::Cvc5ostream", align 8
  %agg.tmp.ensured = alloca %"class.cvc5::internal::Cvc5ostream", align 8
  %ref.tmp10 = alloca %"class.cvc5::internal::Cvc5ostream", align 8
  %__range3 = alloca ptr, align 8
  %__begin3 = alloca %"class.__gnu_cxx::__normal_iterator", align 8
  %__end3 = alloca %"class.__gnu_cxx::__normal_iterator", align 8
  %a = alloca ptr, align 8
  %ref.tmp21 = alloca %"class.cvc5::internal::__cvc5_true", align 1
  %tmp25 = alloca %"class.cvc5::internal::Cvc5ostream", align 8
  %agg.tmp.ensured28 = alloca %"class.cvc5::internal::Cvc5ostream", align 8
  %ref.tmp29 = alloca %"class.cvc5::internal::Cvc5ostream", align 8
  %ref.tmp38 = alloca %"class.cvc5::internal::NodeTemplate", align 8
  %ref.tmp51 = alloca %"struct.std::__detail::_Node_iterator", align 8
  %ref.tmp56 = alloca %"struct.std::__detail::_Node_iterator", align 8
  %ref.tmp62 = alloca %"class.cvc5::internal::__cvc5_true", align 1
  %tmp66 = alloca %"class.cvc5::internal::Cvc5ostream", align 8
  %agg.tmp.ensured69 = alloca %"class.cvc5::internal::Cvc5ostream", align 8
  %ref.tmp70 = alloca %"class.cvc5::internal::Cvc5ostream", align 8
  %__range6 = alloca ptr, align 8
  %__begin6 = alloca %"class.cvc5::internal::expr::NodeValue::iterator", align 8
  %__end6 = alloca %"class.cvc5::internal::expr::NodeValue::iterator", align 8
  %cc = alloca ptr, align 8
  %ref.tmp92 = alloca %"class.cvc5::internal::NodeTemplate.37", align 8
  %ref.tmp93 = alloca %"class.cvc5::internal::NodeTemplate", align 8
  %ref.tmp97 = alloca %"class.cvc5::internal::NodeTemplate", align 8
  %ref.tmp106 = alloca %"class.cvc5::internal::__cvc5_true", align 1
  %tmp110 = alloca %"class.cvc5::internal::Cvc5ostream", align 8
  %agg.tmp.ensured113 = alloca %"class.cvc5::internal::Cvc5ostream", align 8
  %ref.tmp114 = alloca %"class.cvc5::internal::Cvc5ostream", align 8
  %childrenValid = alloca i8, align 1
  %__range7 = alloca ptr, align 8
  %__begin7 = alloca %"class.cvc5::internal::expr::NodeValue::iterator", align 8
  %__end7 = alloca %"class.cvc5::internal::expr::NodeValue::iterator", align 8
  %cc133 = alloca ptr, align 8
  %ref.tmp134 = alloca %"class.cvc5::internal::NodeTemplate.37", align 8
  %ref.tmp135 = alloca %"class.cvc5::internal::NodeTemplate", align 8
  %ref.tmp140 = alloca %"class.cvc5::internal::NodeTemplate", align 8
  %ref.tmp157 = alloca %"class.cvc5::internal::__cvc5_true", align 1
  %tmp161 = alloca %"class.cvc5::internal::Cvc5ostream", align 8
  %agg.tmp.ensured164 = alloca %"class.cvc5::internal::Cvc5ostream", align 8
  %ref.tmp165 = alloca %"class.cvc5::internal::Cvc5ostream", align 8
  %ref.tmp172 = alloca %"class.cvc5::internal::__cvc5_true", align 1
  %tmp176 = alloca %"class.cvc5::internal::Cvc5ostream", align 8
  %agg.tmp.ensured179 = alloca %"class.cvc5::internal::Cvc5ostream", align 8
  %ref.tmp180 = alloca %"class.cvc5::internal::Cvc5ostream", align 8
  %tn = alloca %"class.cvc5::internal::TypeNode", align 8
  %ref.tmp194 = alloca %"class.cvc5::internal::NodeTemplate.37", align 8
  %ref.tmp204 = alloca %"struct.std::_Rb_tree_iterator.40", align 8
  %ref.tmp208 = alloca %"struct.std::_Rb_tree_iterator.40", align 8
  %agg.tmp = alloca %"class.__gnu_cxx::__normal_iterator", align 8
  %ref.tmp218 = alloca %"class.__gnu_cxx::__normal_iterator.41", align 8
  %agg.tmp221 = alloca %"class.__gnu_cxx::__normal_iterator.41", align 8
  %agg.tmp226 = alloca %"class.__gnu_cxx::__normal_iterator.41", align 8
  %coerce = alloca %"class.__gnu_cxx::__normal_iterator.41", align 8
  %ref.tmp238 = alloca %"class.cvc5::internal::NodeTemplate.37", align 8
  %ref.tmp255 = alloca %"class.cvc5::internal::__cvc5_true", align 1
  %tmp259 = alloca %"class.cvc5::internal::Cvc5ostream", align 8
  %agg.tmp.ensured262 = alloca %"class.cvc5::internal::Cvc5ostream", align 8
  %ref.tmp263 = alloca %"class.cvc5::internal::Cvc5ostream", align 8
  %ref.tmp270 = alloca %"class.cvc5::internal::__cvc5_true", align 1
  %tmp274 = alloca %"class.cvc5::internal::Cvc5ostream", align 8
  %agg.tmp.ensured277 = alloca %"class.cvc5::internal::Cvc5ostream", align 8
  %ref.tmp278 = alloca %"class.cvc5::internal::Cvc5ostream", align 8
  %tvars = alloca %"class.std::map.27", align 8
  %allVars = alloca %"class.std::vector.6", align 8
  %varCounter = alloca i64, align 8
  %__range3288 = alloca ptr, align 8
  %__begin3289 = alloca %"struct.std::_Rb_tree_iterator.40", align 8
  %__end3292 = alloca %"struct.std::_Rb_tree_iterator.40", align 8
  %tfp = alloca %"struct.std::pair.42", align 8
  %tn301 = alloca %"class.cvc5::internal::TypeNode", align 8
  %useNVars = alloca i64, align 8
  %i = alloca i64, align 8
  %ssv = alloca %"class.std::__cxx11::basic_stringstream", align 8
  %v = alloca %"class.cvc5::internal::NodeTemplate.37", align 8
  %ref.tmp334 = alloca %"class.std::__cxx11::basic_string", align 8
  %ref.tmp339 = alloca %"class.cvc5::internal::__cvc5_true", align 1
  %tmp344 = alloca %"class.cvc5::internal::Cvc5ostream", align 8
  %agg.tmp.ensured347 = alloca %"class.cvc5::internal::Cvc5ostream", align 8
  %ref.tmp348 = alloca %"class.cvc5::internal::Cvc5ostream", align 8
  %ref.tmp378 = alloca %"class.cvc5::internal::__cvc5_true", align 1
  %tmp382 = alloca %"class.cvc5::internal::Cvc5ostream", align 8
  %agg.tmp.ensured385 = alloca %"class.cvc5::internal::Cvc5ostream", align 8
  %ref.tmp386 = alloca %"class.cvc5::internal::Cvc5ostream", align 8
  %ref.tmp396 = alloca %"class.cvc5::internal::__cvc5_true", align 1
  %tmp400 = alloca %"class.cvc5::internal::Cvc5ostream", align 8
  %agg.tmp.ensured403 = alloca %"class.cvc5::internal::Cvc5ostream", align 8
  %ref.tmp404 = alloca %"class.cvc5::internal::Cvc5ostream", align 8
  %vsubs = alloca %"class.std::vector.6", align 8
  %__range3411 = alloca ptr, align 8
  %__begin3412 = alloca %"class.__gnu_cxx::__normal_iterator.41", align 8
  %__end3415 = alloca %"class.__gnu_cxx::__normal_iterator.41", align 8
  %v421 = alloca ptr, align 8
  %tnv = alloca %"class.cvc5::internal::TypeNode", align 8
  %vs = alloca %"class.cvc5::internal::NodeTemplate.37", align 8
  %i436 = alloca i32, align 4
  %nterms = alloca i32, align 4
  %ref.tmp442 = alloca %"class.cvc5::internal::NodeTemplate.37", align 8
  %agg.tmp445 = alloca %"class.__gnu_cxx::__normal_iterator.41", align 8
  %agg.tmp448 = alloca %"class.__gnu_cxx::__normal_iterator.41", align 8
  %agg.tmp451 = alloca %"class.__gnu_cxx::__normal_iterator.41", align 8
  %agg.tmp454 = alloca %"class.__gnu_cxx::__normal_iterator.41", align 8
  %ref.tmp472 = alloca %"class.cvc5::internal::__cvc5_true", align 1
  %tmp476 = alloca %"class.cvc5::internal::Cvc5ostream", align 8
  %agg.tmp.ensured479 = alloca %"class.cvc5::internal::Cvc5ostream", align 8
  %ref.tmp480 = alloca %"class.cvc5::internal::Cvc5ostream", align 8
  %ref.tmp487 = alloca %"class.cvc5::internal::__cvc5_true", align 1
  %tmp491 = alloca %"class.cvc5::internal::Cvc5ostream", align 8
  %agg.tmp.ensured494 = alloca %"class.cvc5::internal::Cvc5ostream", align 8
  %ref.tmp495 = alloca %"class.cvc5::internal::Cvc5ostream", align 8
  %ref.tmp499 = alloca i64, align 8
  %term_to_cterm = alloca %"class.std::map.122", align 8
  %cterm_to_term = alloca %"class.std::map.122", align 8
  %cterms = alloca %"class.std::vector.6", align 8
  %t_cterms = alloca %"class.std::map.27", align 8
  %tcanon = alloca %"class.cvc5::internal::expr::TermCanonize", align 8
  %i510 = alloca i32, align 4
  %nterms511 = alloca i32, align 4
  %n = alloca %"class.cvc5::internal::NodeTemplate.37", align 8
  %cn = alloca %"class.cvc5::internal::NodeTemplate.37", align 8
  %agg.tmp521 = alloca %"class.cvc5::internal::NodeTemplate", align 8
  %ref.tmp532 = alloca %"class.cvc5::internal::__cvc5_true", align 1
  %tmp536 = alloca %"class.cvc5::internal::Cvc5ostream", align 8
  %agg.tmp.ensured539 = alloca %"class.cvc5::internal::Cvc5ostream", align 8
  %ref.tmp540 = alloca %"class.cvc5::internal::Cvc5ostream", align 8
  %itc = alloca %"struct.std::_Rb_tree_iterator.153", align 8
  %ref.tmp556 = alloca %"struct.std::_Rb_tree_iterator.153", align 8
  %ref.tmp566 = alloca %"class.cvc5::internal::TypeNode", align 8
  %ref.tmp579 = alloca %"class.cvc5::internal::__cvc5_true", align 1
  %tmp583 = alloca %"class.cvc5::internal::Cvc5ostream", align 8
  %agg.tmp.ensured586 = alloca %"class.cvc5::internal::Cvc5ostream", align 8
  %ref.tmp587 = alloca %"class.cvc5::internal::Cvc5ostream", align 8
  %sygusVarList = alloca %"class.cvc5::internal::NodeTemplate.37", align 8
  %ref.tmp595 = alloca %"class.cvc5::internal::__cvc5_true", align 1
  %tmp600 = alloca %"class.cvc5::internal::Cvc5ostream", align 8
  %agg.tmp.ensured603 = alloca %"class.cvc5::internal::Cvc5ostream", align 8
  %ref.tmp604 = alloca %"class.cvc5::internal::Cvc5ostream", align 8
  %ref.tmp608 = alloca i64, align 8
  %ref.tmp617 = alloca %"class.cvc5::internal::__cvc5_true", align 1
  %tmp621 = alloca %"class.cvc5::internal::Cvc5ostream", align 8
  %agg.tmp.ensured624 = alloca %"class.cvc5::internal::Cvc5ostream", align 8
  %ref.tmp625 = alloca %"class.cvc5::internal::Cvc5ostream", align 8
  %sdts = alloca %"class.std::vector.154", align 8
  %cterm_to_utype = alloca %"class.std::map.159", align 8
  %i632 = alloca i32, align 4
  %ncterms = alloca i32, align 4
  %ct = alloca %"class.cvc5::internal::NodeTemplate.37", align 8
  %ss = alloca %"class.std::__cxx11::basic_stringstream", align 8
  %tname = alloca %"class.std::__cxx11::basic_string", align 8
  %tnu = alloca %"class.cvc5::internal::TypeNode", align 8
  %ref.tmp658 = alloca %"class.cvc5::internal::SygusDatatype", align 8
  %ref.tmp670 = alloca %"class.cvc5::internal::__cvc5_true", align 1
  %tmp674 = alloca %"class.cvc5::internal::Cvc5ostream", align 8
  %agg.tmp.ensured677 = alloca %"class.cvc5::internal::Cvc5ostream", align 8
  %ref.tmp678 = alloca %"class.cvc5::internal::Cvc5ostream", align 8
  %ref.tmp685 = alloca %"class.cvc5::internal::__cvc5_true", align 1
  %tmp689 = alloca %"class.cvc5::internal::Cvc5ostream", align 8
  %agg.tmp.ensured692 = alloca %"class.cvc5::internal::Cvc5ostream", align 8
  %ref.tmp693 = alloca %"class.cvc5::internal::Cvc5ostream", align 8
  %i700 = alloca i32, align 4
  %ncterms701 = alloca i32, align 4
  %ct707 = alloca %"class.cvc5::internal::NodeTemplate.37", align 8
  %t = alloca %"class.cvc5::internal::NodeTemplate.37", align 8
  %ctt = alloca %"class.cvc5::internal::TypeNode", align 8
  %argList = alloca %"class.std::vector", align 8
  %ref.tmp724 = alloca %"struct.std::_Rb_tree_iterator.194", align 8
  %ref.tmp728 = alloca %"struct.std::_Rb_tree_iterator.194", align 8
  %__range6733 = alloca ptr, align 8
  %__begin6736 = alloca %"class.__gnu_cxx::__normal_iterator.41", align 8
  %__end6739 = alloca %"class.__gnu_cxx::__normal_iterator.41", align 8
  %v745 = alloca ptr, align 8
  %ssc = alloca %"class.std::__cxx11::basic_stringstream", align 8
  %agg.tmp756 = alloca %"class.cvc5::internal::NodeTemplate", align 8
  %agg.tmp764 = alloca %"class.cvc5::internal::NodeTemplate.37", align 8
  %ref.tmp766 = alloca %"class.std::__cxx11::basic_string", align 8
  %op = alloca %"class.cvc5::internal::NodeTemplate.37", align 8
  %__range5 = alloca ptr, align 8
  %__begin5 = alloca %"class.cvc5::internal::expr::NodeValue::iterator.195", align 8
  %__end5 = alloca %"class.cvc5::internal::expr::NodeValue::iterator.195", align 8
  %tc = alloca ptr, align 8
  %ref.tmp803 = alloca %"class.cvc5::internal::NodeTemplate.37", align 8
  %ctc = alloca %"class.cvc5::internal::NodeTemplate.37", align 8
  %k = alloca i32, align 4
  %agg.tmp819 = alloca %"class.cvc5::internal::NodeTemplate", align 8
  %do_chain = alloca i8, align 1
  %argSet = alloca %"class.std::set", align 8
  %agg.tmp835 = alloca %"class.__gnu_cxx::__normal_iterator.200", align 8
  %agg.tmp838 = alloca %"class.__gnu_cxx::__normal_iterator.200", align 8
  %tbv = alloca %"class.cvc5::internal::NodeTemplate.37", align 8
  %lambdaOp = alloca %"class.cvc5::internal::NodeTemplate.37", align 8
  %agg.tmp846 = alloca %"class.cvc5::internal::NodeTemplate", align 8
  %ref.tmp847 = alloca %"class.cvc5::internal::NodeTemplate.37", align 8
  %agg.tmp848 = alloca %"class.cvc5::internal::NodeTemplate", align 8
  %agg.tmp855 = alloca %"class.cvc5::internal::NodeTemplate", align 8
  %argListc = alloca %"class.std::vector", align 8
  %j = alloca i64, align 8
  %__range6864 = alloca ptr, align 8
  %__begin6865 = alloca %"struct.std::_Rb_tree_const_iterator", align 8
  %__end6868 = alloca %"struct.std::_Rb_tree_const_iterator", align 8
  %arg = alloca ptr, align 8
  %sscs = alloca %"class.std::__cxx11::basic_stringstream", align 8
  %ref.tmp888 = alloca %"class.cvc5::internal::__cvc5_true", align 1
  %tmp892 = alloca %"class.cvc5::internal::Cvc5ostream", align 8
  %agg.tmp.ensured895 = alloca %"class.cvc5::internal::Cvc5ostream", align 8
  %ref.tmp896 = alloca %"class.cvc5::internal::Cvc5ostream", align 8
  %ref.tmp904 = alloca %"class.cvc5::internal::TypeNode", align 8
  %cleanup.cond = alloca i1, align 1
  %agg.tmp918 = alloca %"class.cvc5::internal::NodeTemplate.37", align 8
  %ref.tmp920 = alloca %"class.std::__cxx11::basic_string", align 8
  %recType = alloca %"class.cvc5::internal::TypeNode", align 8
  %ssc938 = alloca %"class.std::__cxx11::basic_stringstream", align 8
  %agg.tmp948 = alloca %"class.cvc5::internal::NodeTemplate", align 8
  %ref.tmp954 = alloca %"class.cvc5::internal::__cvc5_true", align 1
  %tmp958 = alloca %"class.cvc5::internal::Cvc5ostream", align 8
  %agg.tmp.ensured961 = alloca %"class.cvc5::internal::Cvc5ostream", align 8
  %ref.tmp962 = alloca %"class.cvc5::internal::Cvc5ostream", align 8
  %ref.tmp970 = alloca %"class.cvc5::internal::TypeNode", align 8
  %cleanup.cond972 = alloca i1, align 1
  %agg.tmp988 = alloca %"class.cvc5::internal::NodeTemplate.37", align 8
  %ref.tmp990 = alloca %"class.std::__cxx11::basic_string", align 8
  %ssc1004 = alloca %"class.std::__cxx11::basic_stringstream", align 8
  %agg.tmp1014 = alloca %"class.cvc5::internal::NodeTemplate", align 8
  %ref.tmp1020 = alloca %"class.cvc5::internal::__cvc5_true", align 1
  %tmp1024 = alloca %"class.cvc5::internal::Cvc5ostream", align 8
  %agg.tmp.ensured1027 = alloca %"class.cvc5::internal::Cvc5ostream", align 8
  %ref.tmp1028 = alloca %"class.cvc5::internal::Cvc5ostream", align 8
  %ref.tmp1036 = alloca %"class.cvc5::internal::TypeNode", align 8
  %cleanup.cond1038 = alloca i1, align 1
  %agg.tmp1054 = alloca %"class.cvc5::internal::NodeTemplate.37", align 8
  %ref.tmp1056 = alloca %"class.std::__cxx11::basic_string", align 8
  %agg.tmp1069 = alloca %"class.cvc5::internal::TypeNode", align 8
  %agg.tmp1071 = alloca %"class.cvc5::internal::NodeTemplate.37", align 8
  %ref.tmp1085 = alloca %"class.cvc5::internal::__cvc5_true", align 1
  %tmp1089 = alloca %"class.cvc5::internal::Cvc5ostream", align 8
  %agg.tmp.ensured1092 = alloca %"class.cvc5::internal::Cvc5ostream", align 8
  %ref.tmp1093 = alloca %"class.cvc5::internal::Cvc5ostream", align 8
  %ref.tmp1100 = alloca %"class.cvc5::internal::__cvc5_true", align 1
  %tmp1104 = alloca %"class.cvc5::internal::Cvc5ostream", align 8
  %agg.tmp.ensured1107 = alloca %"class.cvc5::internal::Cvc5ostream", align 8
  %ref.tmp1108 = alloca %"class.cvc5::internal::Cvc5ostream", align 8
  %datatypes = alloca %"class.std::vector.201", align 8
  %i1115 = alloca i32, align 4
  %ndts = alloca i32, align 4
  %types = alloca %"class.std::vector", align 8
  %ref.tmp1131 = alloca %"class.cvc5::internal::__cvc5_true", align 1
  %tmp1136 = alloca %"class.cvc5::internal::Cvc5ostream", align 8
  %agg.tmp.ensured1139 = alloca %"class.cvc5::internal::Cvc5ostream", align 8
  %ref.tmp1140 = alloca %"class.cvc5::internal::Cvc5ostream", align 8
  %subtermTypes = alloca %"class.std::map.159", align 8
  %i1147 = alloca i32, align 4
  %ncterms1148 = alloca i32, align 4
  %ref.tmp1166 = alloca %"class.cvc5::internal::__cvc5_true", align 1
  %tmp1170 = alloca %"class.cvc5::internal::Cvc5ostream", align 8
  %agg.tmp.ensured1173 = alloca %"class.cvc5::internal::Cvc5ostream", align 8
  %ref.tmp1174 = alloca %"class.cvc5::internal::Cvc5ostream", align 8
  %__range31181 = alloca ptr, align 8
  %__begin31182 = alloca %"struct.std::_Rb_tree_iterator.194", align 8
  %__end31185 = alloca %"struct.std::_Rb_tree_iterator.194", align 8
  %tcp = alloca ptr, align 8
  %t1192 = alloca %"class.cvc5::internal::TypeNode", align 8
  %ss1195 = alloca %"class.std::__cxx11::basic_stringstream", align 8
  %sdttl = alloca %"class.cvc5::internal::SygusDatatype", align 8
  %ref.tmp1204 = alloca %"class.std::__cxx11::basic_string", align 8
  %tbv1209 = alloca %"class.cvc5::internal::NodeTemplate.37", align 8
  %lambdaOp1212 = alloca %"class.cvc5::internal::NodeTemplate.37", align 8
  %agg.tmp1213 = alloca %"class.cvc5::internal::NodeTemplate", align 8
  %ref.tmp1214 = alloca %"class.cvc5::internal::NodeTemplate.37", align 8
  %agg.tmp1215 = alloca %"class.cvc5::internal::NodeTemplate", align 8
  %agg.tmp1222 = alloca %"class.cvc5::internal::NodeTemplate", align 8
  %ref.tmp1231 = alloca %"class.cvc5::internal::__cvc5_true", align 1
  %tmp1236 = alloca %"class.cvc5::internal::Cvc5ostream", align 8
  %agg.tmp.ensured1239 = alloca %"class.cvc5::internal::Cvc5ostream", align 8
  %ref.tmp1240 = alloca %"class.cvc5::internal::Cvc5ostream", align 8
  %ref.tmp1244 = alloca i64, align 8
  %i1256 = alloca i32, align 4
  %size = alloca i32, align 4
  %n1263 = alloca %"class.cvc5::internal::NodeTemplate.37", align 8
  %argList1268 = alloca %"class.std::vector", align 8
  %ssc1273 = alloca %"class.std::__cxx11::basic_stringstream", align 8
  %agg.tmp1281 = alloca %"class.cvc5::internal::NodeTemplate.37", align 8
  %ref.tmp1283 = alloca %"class.std::__cxx11::basic_string", align 8
  %ref.tmp1290 = alloca %"class.cvc5::internal::__cvc5_true", align 1
  %tmp1294 = alloca %"class.cvc5::internal::Cvc5ostream", align 8
  %agg.tmp.ensured1297 = alloca %"class.cvc5::internal::Cvc5ostream", align 8
  %ref.tmp1298 = alloca %"class.cvc5::internal::Cvc5ostream", align 8
  %ref.tmp1309 = alloca %"class.cvc5::internal::__cvc5_true", align 1
  %tmp1313 = alloca %"class.cvc5::internal::Cvc5ostream", align 8
  %agg.tmp.ensured1316 = alloca %"class.cvc5::internal::Cvc5ostream", align 8
  %ref.tmp1317 = alloca %"class.cvc5::internal::Cvc5ostream", align 8
  %agg.tmp1334 = alloca %"class.cvc5::internal::TypeNode", align 8
  %agg.tmp1336 = alloca %"class.cvc5::internal::NodeTemplate.37", align 8
  %dttl = alloca %"class.cvc5::internal::DType", align 8
  %tlt = alloca %"class.cvc5::internal::TypeNode", align 8
  %ref.tmp1353 = alloca %"class.cvc5::internal::__cvc5_true", align 1
  %tmp1357 = alloca %"class.cvc5::internal::Cvc5ostream", align 8
  %agg.tmp.ensured1360 = alloca %"class.cvc5::internal::Cvc5ostream", align 8
  %ref.tmp1361 = alloca %"class.cvc5::internal::Cvc5ostream", align 8
  %ref.tmp1368 = alloca %"class.cvc5::internal::__cvc5_true", align 1
  %tmp1372 = alloca %"class.cvc5::internal::Cvc5ostream", align 8
  %agg.tmp.ensured1375 = alloca %"class.cvc5::internal::Cvc5ostream", align 8
  %ref.tmp1376 = alloca %"class.cvc5::internal::Cvc5ostream", align 8
  %ref.tmp1378 = alloca %"class.std::__cxx11::basic_string", align 8
  %cleanup.cond1380 = alloca i1, align 1
  %ref.tmp1404 = alloca %"class.cvc5::internal::__cvc5_true", align 1
  %tmp1408 = alloca %"class.cvc5::internal::Cvc5ostream", align 8
  %agg.tmp.ensured1411 = alloca %"class.cvc5::internal::Cvc5ostream", align 8
  %ref.tmp1412 = alloca %"class.cvc5::internal::Cvc5ostream", align 8
  store ptr %agg.result, ptr %result.ptr, align 8
  store ptr %assertions, ptr %assertions.addr, align 8
  store i64 %nvars, ptr %nvars.addr, align 8
  store i1 false, ptr %nrvo, align 1
  call void @_ZNSt3mapIN4cvc58internal8TypeNodeES2_St4lessIS2_ESaISt4pairIKS2_S2_EEEC2Ev(ptr noundef nonnull align 8 dereferenceable(48) %agg.result) #3
  %0 = load ptr, ptr %assertions.addr, align 8
  %call = call noundef zeroext i1 @_ZNKSt6vectorIN4cvc58internal12NodeTemplateILb1EEESaIS3_EE5emptyEv(ptr noundef nonnull align 8 dereferenceable(24) %0) #3
  br i1 %call, label %if.then, label %if.end

if.then:                                          ; preds = %entry
  store i1 true, ptr %nrvo, align 1
  store i32 1, ptr %cleanup.dest.slot, align 4
  br label %cleanup1461

if.end:                                           ; preds = %entry
  %call1 = invoke noundef ptr @_ZN4cvc58internal11NodeManager9currentNMEv()
          to label %invoke.cont unwind label %lpad

invoke.cont:                                      ; preds = %if.end
  store ptr %call1, ptr %nm, align 8
  call void @_ZNSt13unordered_mapIN4cvc58internal12NodeTemplateILb0EEEbSt4hashIS3_ESt8equal_toIS3_ESaISt4pairIKS3_bEEEC2Ev(ptr noundef nonnull align 8 dereferenceable(56) %visited) #3
  invoke void @_ZNSt8__detail14_Node_iteratorISt4pairIKN4cvc58internal12NodeTemplateILb0EEEbELb0ELb1EEC2Ev(ptr noundef nonnull align 8 dereferenceable(8) %it)
          to label %invoke.cont3 unwind label %lpad2

invoke.cont3:                                     ; preds = %invoke.cont
  call void @_ZNSt6vectorIN4cvc58internal12NodeTemplateILb0EEESaIS3_EEC2Ev(ptr noundef nonnull align 8 dereferenceable(24) %visit) #3
  call void @_ZNSt6vectorIN4cvc58internal12NodeTemplateILb1EEESaIS3_EEC2Ev(ptr noundef nonnull align 8 dereferenceable(24) %terms) #3
  call void @_ZNSt6vectorIN4cvc58internal12NodeTemplateILb1EEESaIS3_EEC2Ev(ptr noundef nonnull align 8 dereferenceable(24) %vars) #3
  store i8 0, ptr %hasBoolVar, align 1
  call void @_ZNSt3mapIN4cvc58internal8TypeNodeEbSt4lessIS2_ESaISt4pairIKS2_bEEEC2Ev(ptr noundef nonnull align 8 dereferenceable(48) %typesFound) #3
  call void @_ZNSt3mapIN4cvc58internal8TypeNodeESt6vectorINS1_12NodeTemplateILb1EEESaIS5_EESt4lessIS2_ESaISt4pairIKS2_S7_EEEC2Ev(ptr noundef nonnull align 8 dereferenceable(48) %consts) #3
  invoke void @_ZN4cvc58internal12NodeTemplateILb0EEC2Ev(ptr noundef nonnull align 8 dereferenceable(8) %cur)
          to label %invoke.cont5 unwind label %lpad4

invoke.cont5:                                     ; preds = %invoke.cont3
  %call8 = invoke noundef zeroext i1 @_ZN4cvc58internal11__cvc5_truecvbEv(ptr noundef nonnull align 1 dereferenceable(1) %ref.tmp)
          to label %invoke.cont7 unwind label %lpad6

invoke.cont7:                                     ; preds = %invoke.cont5
  br i1 %call8, label %cond.true, label %cond.false

cond.true:                                        ; preds = %invoke.cont7
  invoke void @_ZNK4cvc58internal5NullCcvNS0_11Cvc5ostreamEEv(ptr sret(%"class.cvc5::internal::Cvc5ostream") align 8 %tmp, ptr noundef nonnull align 1 dereferenceable(1) @_ZN4cvc58internal10nullStreamE)
          to label %invoke.cont9 unwind label %lpad6

invoke.cont9:                                     ; preds = %cond.true
  br label %cond.end

cond.false:                                       ; preds = %invoke.cont7
  invoke void @_ZNK4cvc58internal6TraceCclEv(ptr sret(%"class.cvc5::internal::Cvc5ostream") align 8 %ref.tmp10, ptr noundef nonnull align 8 dereferenceable(32) @_ZN4cvc58internal12TraceChannelE)
          to label %invoke.cont11 unwind label %lpad6

invoke.cont11:                                    ; preds = %cond.false
  %call13 = invoke noundef nonnull align 8 dereferenceable(24) ptr @_ZN4cvc58internal11Cvc5ostreamlsIA31_cEERS1_RKT_(ptr noundef nonnull align 8 dereferenceable(24) %ref.tmp10, ptr noundef nonnull align 1 dereferenceable(31) @.str.1)
          to label %invoke.cont12 unwind label %lpad6

invoke.cont12:                                    ; preds = %invoke.cont11
  %call15 = invoke noundef nonnull align 8 dereferenceable(24) ptr @_ZN4cvc58internal11Cvc5ostreamlsEPFRSoS2_E(ptr noundef nonnull align 8 dereferenceable(24) %call13, ptr noundef @_ZSt4endlIcSt11char_traitsIcEERSt13basic_ostreamIT_T0_ES6_)
          to label %invoke.cont14 unwind label %lpad6

invoke.cont14:                                    ; preds = %invoke.cont12
  call void @llvm.memcpy.p0.p0.i64(ptr align 8 %agg.tmp.ensured, ptr align 8 %call15, i64 24, i1 false)
  br label %cond.end

cond.end:                                         ; preds = %invoke.cont14, %invoke.cont9
  %1 = load ptr, ptr %assertions.addr, align 8
  store ptr %1, ptr %__range3, align 8
  %2 = load ptr, ptr %__range3, align 8
  %call16 = call ptr @_ZNKSt6vectorIN4cvc58internal12NodeTemplateILb1EEESaIS3_EE5beginEv(ptr noundef nonnull align 8 dereferenceable(24) %2) #3
  %coerce.dive = getelementptr inbounds %"class.__gnu_cxx::__normal_iterator", ptr %__begin3, i32 0, i32 0
  store ptr %call16, ptr %coerce.dive, align 8
  %3 = load ptr, ptr %__range3, align 8
  %call17 = call ptr @_ZNKSt6vectorIN4cvc58internal12NodeTemplateILb1EEESaIS3_EE3endEv(ptr noundef nonnull align 8 dereferenceable(24) %3) #3
  %coerce.dive18 = getelementptr inbounds %"class.__gnu_cxx::__normal_iterator", ptr %__end3, i32 0, i32 0
  store ptr %call17, ptr %coerce.dive18, align 8
  br label %for.cond

for.cond:                                         ; preds = %for.inc252, %cond.end
  %call19 = call noundef zeroext i1 @_ZN9__gnu_cxxneIPKN4cvc58internal12NodeTemplateILb1EEESt6vectorIS4_SaIS4_EEEEbRKNS_17__normal_iteratorIT_T0_EESF_(ptr noundef nonnull align 8 dereferenceable(8) %__begin3, ptr noundef nonnull align 8 dereferenceable(8) %__end3) #3
  br i1 %call19, label %for.body, label %for.end254

for.body:                                         ; preds = %for.cond
  %call20 = call noundef nonnull align 8 dereferenceable(8) ptr @_ZNK9__gnu_cxx17__normal_iteratorIPKN4cvc58internal12NodeTemplateILb1EEESt6vectorIS4_SaIS4_EEEdeEv(ptr noundef nonnull align 8 dereferenceable(8) %__begin3) #3
  store ptr %call20, ptr %a, align 8
  %call23 = invoke noundef zeroext i1 @_ZN4cvc58internal11__cvc5_truecvbEv(ptr noundef nonnull align 1 dereferenceable(1) %ref.tmp21)
          to label %invoke.cont22 unwind label %lpad6

invoke.cont22:                                    ; preds = %for.body
  br i1 %call23, label %cond.true24, label %cond.false27

cond.true24:                                      ; preds = %invoke.cont22
  invoke void @_ZNK4cvc58internal5NullCcvNS0_11Cvc5ostreamEEv(ptr sret(%"class.cvc5::internal::Cvc5ostream") align 8 %tmp25, ptr noundef nonnull align 1 dereferenceable(1) @_ZN4cvc58internal10nullStreamE)
          to label %invoke.cont26 unwind label %lpad6

invoke.cont26:                                    ; preds = %cond.true24
  br label %cond.end37

cond.false27:                                     ; preds = %invoke.cont22
  invoke void @_ZNK4cvc58internal6TraceCclEv(ptr sret(%"class.cvc5::internal::Cvc5ostream") align 8 %ref.tmp29, ptr noundef nonnull align 8 dereferenceable(32) @_ZN4cvc58internal12TraceChannelE)
          to label %invoke.cont30 unwind label %lpad6

invoke.cont30:                                    ; preds = %cond.false27
  %call32 = invoke noundef nonnull align 8 dereferenceable(24) ptr @_ZN4cvc58internal11Cvc5ostreamlsIA13_cEERS1_RKT_(ptr noundef nonnull align 8 dereferenceable(24) %ref.tmp29, ptr noundef nonnull align 1 dereferenceable(13) @.str.2)
          to label %invoke.cont31 unwind label %lpad6

invoke.cont31:                                    ; preds = %invoke.cont30
  %4 = load ptr, ptr %a, align 8
  %call34 = invoke noundef nonnull align 8 dereferenceable(24) ptr @_ZN4cvc58internal11Cvc5ostreamlsINS0_12NodeTemplateILb1EEEEERS1_RKT_(ptr noundef nonnull align 8 dereferenceable(24) %call32, ptr noundef nonnull align 8 dereferenceable(8) %4)
          to label %invoke.cont33 unwind label %lpad6

invoke.cont33:                                    ; preds = %invoke.cont31
  %call36 = invoke noundef nonnull align 8 dereferenceable(24) ptr @_ZN4cvc58internal11Cvc5ostreamlsEPFRSoS2_E(ptr noundef nonnull align 8 dereferenceable(24) %call34, ptr noundef @_ZSt4endlIcSt11char_traitsIcEERSt13basic_ostreamIT_T0_ES6_)
          to label %invoke.cont35 unwind label %lpad6

invoke.cont35:                                    ; preds = %invoke.cont33
  call void @llvm.memcpy.p0.p0.i64(ptr align 8 %agg.tmp.ensured28, ptr align 8 %call36, i64 24, i1 false)
  br label %cond.end37

cond.end37:                                       ; preds = %invoke.cont35, %invoke.cont26
  %5 = load ptr, ptr %a, align 8
  invoke void @_ZN4cvc58internal12NodeTemplateILb0EEC2ERKNS1_ILb1EEE(ptr noundef nonnull align 8 dereferenceable(8) %ref.tmp38, ptr noundef nonnull align 8 dereferenceable(8) %5)
          to label %invoke.cont39 unwind label %lpad6

invoke.cont39:                                    ; preds = %cond.end37
  invoke void @_ZNSt6vectorIN4cvc58internal12NodeTemplateILb0EEESaIS3_EE9push_backEOS3_(ptr noundef nonnull align 8 dereferenceable(24) %visit, ptr noundef nonnull align 8 dereferenceable(8) %ref.tmp38)
          to label %invoke.cont41 unwind label %lpad40

invoke.cont41:                                    ; preds = %invoke.cont39
  call void @_ZN4cvc58internal12NodeTemplateILb0EED2Ev(ptr noundef nonnull align 8 dereferenceable(8) %ref.tmp38) #3
  br label %do.body

do.body:                                          ; preds = %do.cond, %invoke.cont41
  %call42 = call noundef nonnull align 8 dereferenceable(8) ptr @_ZNSt6vectorIN4cvc58internal12NodeTemplateILb0EEESaIS3_EE4backEv(ptr noundef nonnull align 8 dereferenceable(24) %visit) #3
  %call44 = invoke noundef nonnull align 8 dereferenceable(8) ptr @_ZN4cvc58internal12NodeTemplateILb0EEaSERKS2_(ptr noundef nonnull align 8 dereferenceable(8) %cur, ptr noundef nonnull align 8 dereferenceable(8) %call42)
          to label %invoke.cont43 unwind label %lpad6

invoke.cont43:                                    ; preds = %do.body
  call void @_ZNSt6vectorIN4cvc58internal12NodeTemplateILb0EEESaIS3_EE8pop_backEv(ptr noundef nonnull align 8 dereferenceable(24) %visit) #3
  %call46 = invoke noundef zeroext i1 @_ZNK4cvc58internal12NodeTemplateILb0EE9isClosureEv(ptr noundef nonnull align 8 dereferenceable(8) %cur)
          to label %invoke.cont45 unwind label %lpad6

invoke.cont45:                                    ; preds = %invoke.cont43
  br i1 %call46, label %if.then47, label %if.end50

if.then47:                                        ; preds = %invoke.cont45
  %call49 = invoke noundef nonnull align 1 dereferenceable(1) ptr @_ZNSt13unordered_mapIN4cvc58internal12NodeTemplateILb0EEEbSt4hashIS3_ESt8equal_toIS3_ESaISt4pairIKS3_bEEEixERS9_(ptr noundef nonnull align 8 dereferenceable(56) %visited, ptr noundef nonnull align 8 dereferenceable(8) %cur)
          to label %invoke.cont48 unwind label %lpad6

invoke.cont48:                                    ; preds = %if.then47
  store i8 0, ptr %call49, align 1
  br label %do.cond

lpad:                                             ; preds = %if.end
  %6 = landingpad { ptr, i32 }
          cleanup
  %7 = extractvalue { ptr, i32 } %6, 0
  store ptr %7, ptr %exn.slot, align 8
  %8 = extractvalue { ptr, i32 } %6, 1
  store i32 %8, ptr %ehselector.slot, align 4
  br label %ehcleanup1462

lpad2:                                            ; preds = %invoke.cont
  %9 = landingpad { ptr, i32 }
          cleanup
  %10 = extractvalue { ptr, i32 } %9, 0
  store ptr %10, ptr %exn.slot, align 8
  %11 = extractvalue { ptr, i32 } %9, 1
  store i32 %11, ptr %ehselector.slot, align 4
  br label %ehcleanup1460

lpad4:                                            ; preds = %invoke.cont3
  %12 = landingpad { ptr, i32 }
          cleanup
  %13 = extractvalue { ptr, i32 } %12, 0
  store ptr %13, ptr %exn.slot, align 8
  %14 = extractvalue { ptr, i32 } %12, 1
  store i32 %14, ptr %ehselector.slot, align 4
  br label %ehcleanup1450

lpad6:                                            ; preds = %invoke.cont280, %invoke.cont279, %cond.false276, %cond.true273, %cond.end269, %invoke.cont265, %invoke.cont264, %cond.false261, %cond.true258, %for.end254, %if.end244, %cond.end188, %invoke.cont184, %invoke.cont182, %invoke.cont181, %cond.false178, %cond.true175, %cond.end171, %invoke.cont167, %invoke.cont166, %cond.false163, %cond.true160, %if.then156, %for.inc151, %for.body132, %for.cond129, %invoke.cont123, %cond.end122, %invoke.cont118, %invoke.cont116, %invoke.cont115, %cond.false112, %cond.true109, %if.then105, %for.inc, %for.body91, %for.cond88, %invoke.cont82, %invoke.cont81, %invoke.cont79, %cond.end78, %invoke.cont74, %invoke.cont72, %invoke.cont71, %cond.false68, %cond.true65, %if.then61, %if.end50, %if.then47, %invoke.cont43, %do.body, %cond.end37, %invoke.cont33, %invoke.cont31, %invoke.cont30, %cond.false27, %cond.true24, %for.body, %invoke.cont12, %invoke.cont11, %cond.false, %cond.true, %invoke.cont5
  %15 = landingpad { ptr, i32 }
          cleanup
  %16 = extractvalue { ptr, i32 } %15, 0
  store ptr %16, ptr %exn.slot, align 8
  %17 = extractvalue { ptr, i32 } %15, 1
  store i32 %17, ptr %ehselector.slot, align 4
  br label %ehcleanup1448

lpad40:                                           ; preds = %invoke.cont39
  %18 = landingpad { ptr, i32 }
          cleanup
  %19 = extractvalue { ptr, i32 } %18, 0
  store ptr %19, ptr %exn.slot, align 8
  %20 = extractvalue { ptr, i32 } %18, 1
  store i32 %20, ptr %ehselector.slot, align 4
  call void @_ZN4cvc58internal12NodeTemplateILb0EED2Ev(ptr noundef nonnull align 8 dereferenceable(8) %ref.tmp38) #3
  br label %ehcleanup1448

if.end50:                                         ; preds = %invoke.cont45
  %call53 = invoke ptr @_ZNSt13unordered_mapIN4cvc58internal12NodeTemplateILb0EEEbSt4hashIS3_ESt8equal_toIS3_ESaISt4pairIKS3_bEEE4findERS9_(ptr noundef nonnull align 8 dereferenceable(56) %visited, ptr noundef nonnull align 8 dereferenceable(8) %cur)
          to label %invoke.cont52 unwind label %lpad6

invoke.cont52:                                    ; preds = %if.end50
  %coerce.dive54 = getelementptr inbounds %"struct.std::__detail::_Node_iterator", ptr %ref.tmp51, i32 0, i32 0
  %coerce.dive55 = getelementptr inbounds %"struct.std::__detail::_Node_iterator_base", ptr %coerce.dive54, i32 0, i32 0
  store ptr %call53, ptr %coerce.dive55, align 8
  call void @llvm.memcpy.p0.p0.i64(ptr align 8 %it, ptr align 8 %ref.tmp51, i64 8, i1 false)
  %call57 = call ptr @_ZNSt13unordered_mapIN4cvc58internal12NodeTemplateILb0EEEbSt4hashIS3_ESt8equal_toIS3_ESaISt4pairIKS3_bEEE3endEv(ptr noundef nonnull align 8 dereferenceable(56) %visited) #3
  %coerce.dive58 = getelementptr inbounds %"struct.std::__detail::_Node_iterator", ptr %ref.tmp56, i32 0, i32 0
  %coerce.dive59 = getelementptr inbounds %"struct.std::__detail::_Node_iterator_base", ptr %coerce.dive58, i32 0, i32 0
  store ptr %call57, ptr %coerce.dive59, align 8
  %call60 = call noundef zeroext i1 @_ZNSt8__detaileqERKNS_19_Node_iterator_baseISt4pairIKN4cvc58internal12NodeTemplateILb0EEEbELb1EEESA_(ptr noundef nonnull align 8 dereferenceable(8) %it, ptr noundef nonnull align 8 dereferenceable(8) %ref.tmp56) #3
  br i1 %call60, label %if.then61, label %if.else

if.then61:                                        ; preds = %invoke.cont52
  %call64 = invoke noundef zeroext i1 @_ZN4cvc58internal11__cvc5_truecvbEv(ptr noundef nonnull align 1 dereferenceable(1) %ref.tmp62)
          to label %invoke.cont63 unwind label %lpad6

invoke.cont63:                                    ; preds = %if.then61
  br i1 %call64, label %cond.true65, label %cond.false68

cond.true65:                                      ; preds = %invoke.cont63
  invoke void @_ZNK4cvc58internal5NullCcvNS0_11Cvc5ostreamEEv(ptr sret(%"class.cvc5::internal::Cvc5ostream") align 8 %tmp66, ptr noundef nonnull align 1 dereferenceable(1) @_ZN4cvc58internal10nullStreamE)
          to label %invoke.cont67 unwind label %lpad6

invoke.cont67:                                    ; preds = %cond.true65
  br label %cond.end78

cond.false68:                                     ; preds = %invoke.cont63
  invoke void @_ZNK4cvc58internal6TraceCclEv(ptr sret(%"class.cvc5::internal::Cvc5ostream") align 8 %ref.tmp70, ptr noundef nonnull align 8 dereferenceable(32) @_ZN4cvc58internal12TraceChannelE)
          to label %invoke.cont71 unwind label %lpad6

invoke.cont71:                                    ; preds = %cond.false68
  %call73 = invoke noundef nonnull align 8 dereferenceable(24) ptr @_ZN4cvc58internal11Cvc5ostreamlsIA15_cEERS1_RKT_(ptr noundef nonnull align 8 dereferenceable(24) %ref.tmp70, ptr noundef nonnull align 1 dereferenceable(15) @.str.3)
          to label %invoke.cont72 unwind label %lpad6

invoke.cont72:                                    ; preds = %invoke.cont71
  %call75 = invoke noundef nonnull align 8 dereferenceable(24) ptr @_ZN4cvc58internal11Cvc5ostreamlsINS0_12NodeTemplateILb0EEEEERS1_RKT_(ptr noundef nonnull align 8 dereferenceable(24) %call73, ptr noundef nonnull align 8 dereferenceable(8) %cur)
          to label %invoke.cont74 unwind label %lpad6

invoke.cont74:                                    ; preds = %invoke.cont72
  %call77 = invoke noundef nonnull align 8 dereferenceable(24) ptr @_ZN4cvc58internal11Cvc5ostreamlsEPFRSoS2_E(ptr noundef nonnull align 8 dereferenceable(24) %call75, ptr noundef @_ZSt4endlIcSt11char_traitsIcEERSt13basic_ostreamIT_T0_ES6_)
          to label %invoke.cont76 unwind label %lpad6

invoke.cont76:                                    ; preds = %invoke.cont74
  call void @llvm.memcpy.p0.p0.i64(ptr align 8 %agg.tmp.ensured69, ptr align 8 %call77, i64 24, i1 false)
  br label %cond.end78

cond.end78:                                       ; preds = %invoke.cont76, %invoke.cont67
  %call80 = invoke noundef nonnull align 1 dereferenceable(1) ptr @_ZNSt13unordered_mapIN4cvc58internal12NodeTemplateILb0EEEbSt4hashIS3_ESt8equal_toIS3_ESaISt4pairIKS3_bEEEixERS9_(ptr noundef nonnull align 8 dereferenceable(56) %visited, ptr noundef nonnull align 8 dereferenceable(8) %cur)
          to label %invoke.cont79 unwind label %lpad6

invoke.cont79:                                    ; preds = %cond.end78
  store i8 0, ptr %call80, align 1
  invoke void @_ZNSt6vectorIN4cvc58internal12NodeTemplateILb0EEESaIS3_EE9push_backERKS3_(ptr noundef nonnull align 8 dereferenceable(24) %visit, ptr noundef nonnull align 8 dereferenceable(8) %cur)
          to label %invoke.cont81 unwind label %lpad6

invoke.cont81:                                    ; preds = %invoke.cont79
  store ptr %cur, ptr %__range6, align 8
  %21 = load ptr, ptr %__range6, align 8
  %call83 = invoke ptr @_ZN4cvc58internal12NodeTemplateILb0EE5beginEv(ptr noundef nonnull align 8 dereferenceable(8) %21)
          to label %invoke.cont82 unwind label %lpad6

invoke.cont82:                                    ; preds = %invoke.cont81
  %coerce.dive84 = getelementptr inbounds %"class.cvc5::internal::expr::NodeValue::iterator", ptr %__begin6, i32 0, i32 0
  store ptr %call83, ptr %coerce.dive84, align 8
  %22 = load ptr, ptr %__range6, align 8
  %call86 = invoke ptr @_ZN4cvc58internal12NodeTemplateILb0EE3endEv(ptr noundef nonnull align 8 dereferenceable(8) %22)
          to label %invoke.cont85 unwind label %lpad6

invoke.cont85:                                    ; preds = %invoke.cont82
  %coerce.dive87 = getelementptr inbounds %"class.cvc5::internal::expr::NodeValue::iterator", ptr %__end6, i32 0, i32 0
  store ptr %call86, ptr %coerce.dive87, align 8
  br label %for.cond88

for.cond88:                                       ; preds = %invoke.cont102, %invoke.cont85
  %call90 = invoke noundef zeroext i1 @_ZNK4cvc58internal4expr9NodeValue8iteratorINS0_12NodeTemplateILb0EEEEneERKS6_(ptr noundef nonnull align 8 dereferenceable(8) %__begin6, ptr noundef nonnull align 8 dereferenceable(8) %__end6)
          to label %invoke.cont89 unwind label %lpad6

invoke.cont89:                                    ; preds = %for.cond88
  br i1 %call90, label %for.body91, label %for.end

for.body91:                                       ; preds = %invoke.cont89
  invoke void @_ZNK4cvc58internal4expr9NodeValue8iteratorINS0_12NodeTemplateILb0EEEEdeEv(ptr sret(%"class.cvc5::internal::NodeTemplate") align 8 %ref.tmp93, ptr noundef nonnull align 8 dereferenceable(8) %__begin6)
          to label %invoke.cont94 unwind label %lpad6

invoke.cont94:                                    ; preds = %for.body91
  invoke void @_ZN4cvc58internal12NodeTemplateILb1EEC2ERKNS1_ILb0EEE(ptr noundef nonnull align 8 dereferenceable(8) %ref.tmp92, ptr noundef nonnull align 8 dereferenceable(8) %ref.tmp93)
          to label %invoke.cont96 unwind label %lpad95

invoke.cont96:                                    ; preds = %invoke.cont94
  call void @_ZN4cvc58internal12NodeTemplateILb0EED2Ev(ptr noundef nonnull align 8 dereferenceable(8) %ref.tmp93) #3
  store ptr %ref.tmp92, ptr %cc, align 8
  %23 = load ptr, ptr %cc, align 8
  invoke void @_ZN4cvc58internal12NodeTemplateILb0EEC2ERKNS1_ILb1EEE(ptr noundef nonnull align 8 dereferenceable(8) %ref.tmp97, ptr noundef nonnull align 8 dereferenceable(8) %23)
          to label %invoke.cont99 unwind label %lpad98

invoke.cont99:                                    ; preds = %invoke.cont96
  invoke void @_ZNSt6vectorIN4cvc58internal12NodeTemplateILb0EEESaIS3_EE9push_backEOS3_(ptr noundef nonnull align 8 dereferenceable(24) %visit, ptr noundef nonnull align 8 dereferenceable(8) %ref.tmp97)
          to label %invoke.cont101 unwind label %lpad100

invoke.cont101:                                   ; preds = %invoke.cont99
  call void @_ZN4cvc58internal12NodeTemplateILb0EED2Ev(ptr noundef nonnull align 8 dereferenceable(8) %ref.tmp97) #3
  call void @_ZN4cvc58internal12NodeTemplateILb1EED2Ev(ptr noundef nonnull align 8 dereferenceable(8) %ref.tmp92) #3
  br label %for.inc

for.inc:                                          ; preds = %invoke.cont101
  %call103 = invoke noundef nonnull align 8 dereferenceable(8) ptr @_ZN4cvc58internal4expr9NodeValue8iteratorINS0_12NodeTemplateILb0EEEEppEv(ptr noundef nonnull align 8 dereferenceable(8) %__begin6)
          to label %invoke.cont102 unwind label %lpad6

invoke.cont102:                                   ; preds = %for.inc
  br label %for.cond88

lpad95:                                           ; preds = %invoke.cont94
  %24 = landingpad { ptr, i32 }
          cleanup
  %25 = extractvalue { ptr, i32 } %24, 0
  store ptr %25, ptr %exn.slot, align 8
  %26 = extractvalue { ptr, i32 } %24, 1
  store i32 %26, ptr %ehselector.slot, align 4
  call void @_ZN4cvc58internal12NodeTemplateILb0EED2Ev(ptr noundef nonnull align 8 dereferenceable(8) %ref.tmp93) #3
  br label %ehcleanup1448

lpad98:                                           ; preds = %invoke.cont96
  %27 = landingpad { ptr, i32 }
          cleanup
  %28 = extractvalue { ptr, i32 } %27, 0
  store ptr %28, ptr %exn.slot, align 8
  %29 = extractvalue { ptr, i32 } %27, 1
  store i32 %29, ptr %ehselector.slot, align 4
  br label %ehcleanup

lpad100:                                          ; preds = %invoke.cont99
  %30 = landingpad { ptr, i32 }
          cleanup
  %31 = extractvalue { ptr, i32 } %30, 0
  store ptr %31, ptr %exn.slot, align 8
  %32 = extractvalue { ptr, i32 } %30, 1
  store i32 %32, ptr %ehselector.slot, align 4
  call void @_ZN4cvc58internal12NodeTemplateILb0EED2Ev(ptr noundef nonnull align 8 dereferenceable(8) %ref.tmp97) #3
  br label %ehcleanup

ehcleanup:                                        ; preds = %lpad100, %lpad98
  call void @_ZN4cvc58internal12NodeTemplateILb1EED2Ev(ptr noundef nonnull align 8 dereferenceable(8) %ref.tmp92) #3
  br label %ehcleanup1448

for.end:                                          ; preds = %invoke.cont89
  br label %if.end249

if.else:                                          ; preds = %invoke.cont52
  %call104 = call noundef ptr @_ZNKSt8__detail14_Node_iteratorISt4pairIKN4cvc58internal12NodeTemplateILb0EEEbELb0ELb1EEptEv(ptr noundef nonnull align 8 dereferenceable(8) %it) #3
  %second = getelementptr inbounds %"struct.std::pair.38", ptr %call104, i32 0, i32 1
  %33 = load i8, ptr %second, align 8
  %tobool = trunc i8 %33 to i1
  br i1 %tobool, label %if.end248, label %if.then105

if.then105:                                       ; preds = %if.else
  %call108 = invoke noundef zeroext i1 @_ZN4cvc58internal11__cvc5_truecvbEv(ptr noundef nonnull align 1 dereferenceable(1) %ref.tmp106)
          to label %invoke.cont107 unwind label %lpad6

invoke.cont107:                                   ; preds = %if.then105
  br i1 %call108, label %cond.true109, label %cond.false112

cond.true109:                                     ; preds = %invoke.cont107
  invoke void @_ZNK4cvc58internal5NullCcvNS0_11Cvc5ostreamEEv(ptr sret(%"class.cvc5::internal::Cvc5ostream") align 8 %tmp110, ptr noundef nonnull align 1 dereferenceable(1) @_ZN4cvc58internal10nullStreamE)
          to label %invoke.cont111 unwind label %lpad6

invoke.cont111:                                   ; preds = %cond.true109
  br label %cond.end122

cond.false112:                                    ; preds = %invoke.cont107
  invoke void @_ZNK4cvc58internal6TraceCclEv(ptr sret(%"class.cvc5::internal::Cvc5ostream") align 8 %ref.tmp114, ptr noundef nonnull align 8 dereferenceable(32) @_ZN4cvc58internal12TraceChannelE)
          to label %invoke.cont115 unwind label %lpad6

invoke.cont115:                                   ; preds = %cond.false112
  %call117 = invoke noundef nonnull align 8 dereferenceable(24) ptr @_ZN4cvc58internal11Cvc5ostreamlsIA16_cEERS1_RKT_(ptr noundef nonnull align 8 dereferenceable(24) %ref.tmp114, ptr noundef nonnull align 1 dereferenceable(16) @.str.4)
          to label %invoke.cont116 unwind label %lpad6

invoke.cont116:                                   ; preds = %invoke.cont115
  %call119 = invoke noundef nonnull align 8 dereferenceable(24) ptr @_ZN4cvc58internal11Cvc5ostreamlsINS0_12NodeTemplateILb0EEEEERS1_RKT_(ptr noundef nonnull align 8 dereferenceable(24) %call117, ptr noundef nonnull align 8 dereferenceable(8) %cur)
          to label %invoke.cont118 unwind label %lpad6

invoke.cont118:                                   ; preds = %invoke.cont116
  %call121 = invoke noundef nonnull align 8 dereferenceable(24) ptr @_ZN4cvc58internal11Cvc5ostreamlsEPFRSoS2_E(ptr noundef nonnull align 8 dereferenceable(24) %call119, ptr noundef @_ZSt4endlIcSt11char_traitsIcEERSt13basic_ostreamIT_T0_ES6_)
          to label %invoke.cont120 unwind label %lpad6

invoke.cont120:                                   ; preds = %invoke.cont118
  call void @llvm.memcpy.p0.p0.i64(ptr align 8 %agg.tmp.ensured113, ptr align 8 %call121, i64 24, i1 false)
  br label %cond.end122

cond.end122:                                      ; preds = %invoke.cont120, %invoke.cont111
  store i8 1, ptr %childrenValid, align 1
  store ptr %cur, ptr %__range7, align 8
  %34 = load ptr, ptr %__range7, align 8
  %call124 = invoke ptr @_ZN4cvc58internal12NodeTemplateILb0EE5beginEv(ptr noundef nonnull align 8 dereferenceable(8) %34)
          to label %invoke.cont123 unwind label %lpad6

invoke.cont123:                                   ; preds = %cond.end122
  %coerce.dive125 = getelementptr inbounds %"class.cvc5::internal::expr::NodeValue::iterator", ptr %__begin7, i32 0, i32 0
  store ptr %call124, ptr %coerce.dive125, align 8
  %35 = load ptr, ptr %__range7, align 8
  %call127 = invoke ptr @_ZN4cvc58internal12NodeTemplateILb0EE3endEv(ptr noundef nonnull align 8 dereferenceable(8) %35)
          to label %invoke.cont126 unwind label %lpad6

invoke.cont126:                                   ; preds = %invoke.cont123
  %coerce.dive128 = getelementptr inbounds %"class.cvc5::internal::expr::NodeValue::iterator", ptr %__end7, i32 0, i32 0
  store ptr %call127, ptr %coerce.dive128, align 8
  br label %for.cond129

for.cond129:                                      ; preds = %invoke.cont152, %invoke.cont126
  %call131 = invoke noundef zeroext i1 @_ZNK4cvc58internal4expr9NodeValue8iteratorINS0_12NodeTemplateILb0EEEEneERKS6_(ptr noundef nonnull align 8 dereferenceable(8) %__begin7, ptr noundef nonnull align 8 dereferenceable(8) %__end7)
          to label %invoke.cont130 unwind label %lpad6

invoke.cont130:                                   ; preds = %for.cond129
  br i1 %call131, label %for.body132, label %for.end154

for.body132:                                      ; preds = %invoke.cont130
  invoke void @_ZNK4cvc58internal4expr9NodeValue8iteratorINS0_12NodeTemplateILb0EEEEdeEv(ptr sret(%"class.cvc5::internal::NodeTemplate") align 8 %ref.tmp135, ptr noundef nonnull align 8 dereferenceable(8) %__begin7)
          to label %invoke.cont136 unwind label %lpad6

invoke.cont136:                                   ; preds = %for.body132
  invoke void @_ZN4cvc58internal12NodeTemplateILb1EEC2ERKNS1_ILb0EEE(ptr noundef nonnull align 8 dereferenceable(8) %ref.tmp134, ptr noundef nonnull align 8 dereferenceable(8) %ref.tmp135)
          to label %invoke.cont138 unwind label %lpad137

invoke.cont138:                                   ; preds = %invoke.cont136
  call void @_ZN4cvc58internal12NodeTemplateILb0EED2Ev(ptr noundef nonnull align 8 dereferenceable(8) %ref.tmp135) #3
  store ptr %ref.tmp134, ptr %cc133, align 8
  %36 = load ptr, ptr %cc133, align 8
  invoke void @_ZN4cvc58internal12NodeTemplateILb0EEC2ERKNS1_ILb1EEE(ptr noundef nonnull align 8 dereferenceable(8) %ref.tmp140, ptr noundef nonnull align 8 dereferenceable(8) %36)
          to label %invoke.cont142 unwind label %lpad141

invoke.cont142:                                   ; preds = %invoke.cont138
  %call145 = invoke noundef nonnull align 1 dereferenceable(1) ptr @_ZNSt13unordered_mapIN4cvc58internal12NodeTemplateILb0EEEbSt4hashIS3_ESt8equal_toIS3_ESaISt4pairIKS3_bEEEixEOS3_(ptr noundef nonnull align 8 dereferenceable(56) %visited, ptr noundef nonnull align 8 dereferenceable(8) %ref.tmp140)
          to label %invoke.cont144 unwind label %lpad143

invoke.cont144:                                   ; preds = %invoke.cont142
  %37 = load i8, ptr %call145, align 1
  %tobool146 = trunc i8 %37 to i1
  %lnot = xor i1 %tobool146, true
  call void @_ZN4cvc58internal12NodeTemplateILb0EED2Ev(ptr noundef nonnull align 8 dereferenceable(8) %ref.tmp140) #3
  br i1 %lnot, label %if.then148, label %if.end149

if.then148:                                       ; preds = %invoke.cont144
  store i8 0, ptr %childrenValid, align 1
  br label %if.end149

lpad137:                                          ; preds = %invoke.cont136
  %38 = landingpad { ptr, i32 }
          cleanup
  %39 = extractvalue { ptr, i32 } %38, 0
  store ptr %39, ptr %exn.slot, align 8
  %40 = extractvalue { ptr, i32 } %38, 1
  store i32 %40, ptr %ehselector.slot, align 4
  call void @_ZN4cvc58internal12NodeTemplateILb0EED2Ev(ptr noundef nonnull align 8 dereferenceable(8) %ref.tmp135) #3
  br label %ehcleanup1448

lpad141:                                          ; preds = %invoke.cont138
  %41 = landingpad { ptr, i32 }
          cleanup
  %42 = extractvalue { ptr, i32 } %41, 0
  store ptr %42, ptr %exn.slot, align 8
  %43 = extractvalue { ptr, i32 } %41, 1
  store i32 %43, ptr %ehselector.slot, align 4
  br label %ehcleanup150

lpad143:                                          ; preds = %invoke.cont142
  %44 = landingpad { ptr, i32 }
          cleanup
  %45 = extractvalue { ptr, i32 } %44, 0
  store ptr %45, ptr %exn.slot, align 8
  %46 = extractvalue { ptr, i32 } %44, 1
  store i32 %46, ptr %ehselector.slot, align 4
  call void @_ZN4cvc58internal12NodeTemplateILb0EED2Ev(ptr noundef nonnull align 8 dereferenceable(8) %ref.tmp140) #3
  br label %ehcleanup150

if.end149:                                        ; preds = %if.then148, %invoke.cont144
  call void @_ZN4cvc58internal12NodeTemplateILb1EED2Ev(ptr noundef nonnull align 8 dereferenceable(8) %ref.tmp134) #3
  br label %for.inc151

for.inc151:                                       ; preds = %if.end149
  %call153 = invoke noundef nonnull align 8 dereferenceable(8) ptr @_ZN4cvc58internal4expr9NodeValue8iteratorINS0_12NodeTemplateILb0EEEEppEv(ptr noundef nonnull align 8 dereferenceable(8) %__begin7)
          to label %invoke.cont152 unwind label %lpad6

invoke.cont152:                                   ; preds = %for.inc151
  br label %for.cond129

ehcleanup150:                                     ; preds = %lpad143, %lpad141
  call void @_ZN4cvc58internal12NodeTemplateILb1EED2Ev(ptr noundef nonnull align 8 dereferenceable(8) %ref.tmp134) #3
  br label %ehcleanup1448

for.end154:                                       ; preds = %invoke.cont130
  %47 = load i8, ptr %childrenValid, align 1
  %tobool155 = trunc i8 %47 to i1
  br i1 %tobool155, label %if.then156, label %if.end244

if.then156:                                       ; preds = %for.end154
  %call159 = invoke noundef zeroext i1 @_ZN4cvc58internal11__cvc5_truecvbEv(ptr noundef nonnull align 1 dereferenceable(1) %ref.tmp157)
          to label %invoke.cont158 unwind label %lpad6

invoke.cont158:                                   ; preds = %if.then156
  br i1 %call159, label %cond.true160, label %cond.false163

cond.true160:                                     ; preds = %invoke.cont158
  invoke void @_ZNK4cvc58internal5NullCcvNS0_11Cvc5ostreamEEv(ptr sret(%"class.cvc5::internal::Cvc5ostream") align 8 %tmp161, ptr noundef nonnull align 1 dereferenceable(1) @_ZN4cvc58internal10nullStreamE)
          to label %invoke.cont162 unwind label %lpad6

invoke.cont162:                                   ; preds = %cond.true160
  br label %cond.end171

cond.false163:                                    ; preds = %invoke.cont158
  invoke void @_ZNK4cvc58internal6TraceCclEv(ptr sret(%"class.cvc5::internal::Cvc5ostream") align 8 %ref.tmp165, ptr noundef nonnull align 8 dereferenceable(32) @_ZN4cvc58internal12TraceChannelE)
          to label %invoke.cont166 unwind label %lpad6

invoke.cont166:                                   ; preds = %cond.false163
  %call168 = invoke noundef nonnull align 8 dereferenceable(24) ptr @_ZN4cvc58internal11Cvc5ostreamlsIA22_cEERS1_RKT_(ptr noundef nonnull align 8 dereferenceable(24) %ref.tmp165, ptr noundef nonnull align 1 dereferenceable(22) @.str.5)
          to label %invoke.cont167 unwind label %lpad6

invoke.cont167:                                   ; preds = %invoke.cont166
  %call170 = invoke noundef nonnull align 8 dereferenceable(24) ptr @_ZN4cvc58internal11Cvc5ostreamlsEPFRSoS2_E(ptr noundef nonnull align 8 dereferenceable(24) %call168, ptr noundef @_ZSt4endlIcSt11char_traitsIcEERSt13basic_ostreamIT_T0_ES6_)
          to label %invoke.cont169 unwind label %lpad6

invoke.cont169:                                   ; preds = %invoke.cont167
  call void @llvm.memcpy.p0.p0.i64(ptr align 8 %agg.tmp.ensured164, ptr align 8 %call170, i64 24, i1 false)
  br label %cond.end171

cond.end171:                                      ; preds = %invoke.cont169, %invoke.cont162
  %call174 = invoke noundef zeroext i1 @_ZN4cvc58internal11__cvc5_truecvbEv(ptr noundef nonnull align 1 dereferenceable(1) %ref.tmp172)
          to label %invoke.cont173 unwind label %lpad6

invoke.cont173:                                   ; preds = %cond.end171
  br i1 %call174, label %cond.true175, label %cond.false178

cond.true175:                                     ; preds = %invoke.cont173
  invoke void @_ZNK4cvc58internal5NullCcvNS0_11Cvc5ostreamEEv(ptr sret(%"class.cvc5::internal::Cvc5ostream") align 8 %tmp176, ptr noundef nonnull align 1 dereferenceable(1) @_ZN4cvc58internal10nullStreamE)
          to label %invoke.cont177 unwind label %lpad6

invoke.cont177:                                   ; preds = %cond.true175
  br label %cond.end188

cond.false178:                                    ; preds = %invoke.cont173
  invoke void @_ZNK4cvc58internal6TraceCclEv(ptr sret(%"class.cvc5::internal::Cvc5ostream") align 8 %ref.tmp180, ptr noundef nonnull align 8 dereferenceable(32) @_ZN4cvc58internal12TraceChannelE)
          to label %invoke.cont181 unwind label %lpad6

invoke.cont181:                                   ; preds = %cond.false178
  %call183 = invoke noundef nonnull align 8 dereferenceable(24) ptr @_ZN4cvc58internal11Cvc5ostreamlsIA10_cEERS1_RKT_(ptr noundef nonnull align 8 dereferenceable(24) %ref.tmp180, ptr noundef nonnull align 1 dereferenceable(10) @.str.6)
          to label %invoke.cont182 unwind label %lpad6

invoke.cont182:                                   ; preds = %invoke.cont181
  %call185 = invoke noundef nonnull align 8 dereferenceable(24) ptr @_ZN4cvc58internal11Cvc5ostreamlsINS0_12NodeTemplateILb0EEEEERS1_RKT_(ptr noundef nonnull align 8 dereferenceable(24) %call183, ptr noundef nonnull align 8 dereferenceable(8) %cur)
          to label %invoke.cont184 unwind label %lpad6

invoke.cont184:                                   ; preds = %invoke.cont182
  %call187 = invoke noundef nonnull align 8 dereferenceable(24) ptr @_ZN4cvc58internal11Cvc5ostreamlsEPFRSoS2_E(ptr noundef nonnull align 8 dereferenceable(24) %call185, ptr noundef @_ZSt4endlIcSt11char_traitsIcEERSt13basic_ostreamIT_T0_ES6_)
          to label %invoke.cont186 unwind label %lpad6

invoke.cont186:                                   ; preds = %invoke.cont184
  call void @llvm.memcpy.p0.p0.i64(ptr align 8 %agg.tmp.ensured179, ptr align 8 %call187, i64 24, i1 false)
  br label %cond.end188

cond.end188:                                      ; preds = %invoke.cont186, %invoke.cont177
  invoke void @_ZNK4cvc58internal12NodeTemplateILb0EE7getTypeEb(ptr sret(%"class.cvc5::internal::TypeNode") align 8 %tn, ptr noundef nonnull align 8 dereferenceable(8) %cur, i1 noundef zeroext false)
          to label %invoke.cont189 unwind label %lpad6

invoke.cont189:                                   ; preds = %cond.end188
  %call192 = invoke noundef zeroext i1 @_ZNK4cvc58internal12NodeTemplateILb0EE5isVarEv(ptr noundef nonnull align 8 dereferenceable(8) %cur)
          to label %invoke.cont191 unwind label %lpad190

invoke.cont191:                                   ; preds = %invoke.cont189
  br i1 %call192, label %if.then193, label %if.end203

if.then193:                                       ; preds = %invoke.cont191
  invoke void @_ZN4cvc58internal12NodeTemplateILb1EEC2ERKNS1_ILb0EEE(ptr noundef nonnull align 8 dereferenceable(8) %ref.tmp194, ptr noundef nonnull align 8 dereferenceable(8) %cur)
          to label %invoke.cont195 unwind label %lpad190

invoke.cont195:                                   ; preds = %if.then193
  invoke void @_ZNSt6vectorIN4cvc58internal12NodeTemplateILb1EEESaIS3_EE9push_backEOS3_(ptr noundef nonnull align 8 dereferenceable(24) %vars, ptr noundef nonnull align 8 dereferenceable(8) %ref.tmp194)
          to label %invoke.cont197 unwind label %lpad196

invoke.cont197:                                   ; preds = %invoke.cont195
  call void @_ZN4cvc58internal12NodeTemplateILb1EED2Ev(ptr noundef nonnull align 8 dereferenceable(8) %ref.tmp194) #3
  %call200 = invoke noundef zeroext i1 @_ZNK4cvc58internal8TypeNode9isBooleanEv(ptr noundef nonnull align 8 dereferenceable(8) %tn)
          to label %invoke.cont199 unwind label %lpad190

invoke.cont199:                                   ; preds = %invoke.cont197
  br i1 %call200, label %if.then201, label %if.end202

if.then201:                                       ; preds = %invoke.cont199
  store i8 1, ptr %hasBoolVar, align 1
  br label %if.end202

lpad190:                                          ; preds = %if.end237, %invoke.cont227, %invoke.cont222, %invoke.cont217, %invoke.cont215, %invoke.cont213, %if.then212, %if.end203, %invoke.cont197, %if.then193, %invoke.cont189
  %48 = landingpad { ptr, i32 }
          cleanup
  %49 = extractvalue { ptr, i32 } %48, 0
  store ptr %49, ptr %exn.slot, align 8
  %50 = extractvalue { ptr, i32 } %48, 1
  store i32 %50, ptr %ehselector.slot, align 4
  br label %ehcleanup243

lpad196:                                          ; preds = %invoke.cont195
  %51 = landingpad { ptr, i32 }
          cleanup
  %52 = extractvalue { ptr, i32 } %51, 0
  store ptr %52, ptr %exn.slot, align 8
  %53 = extractvalue { ptr, i32 } %51, 1
  store i32 %53, ptr %ehselector.slot, align 4
  call void @_ZN4cvc58internal12NodeTemplateILb1EED2Ev(ptr noundef nonnull align 8 dereferenceable(8) %ref.tmp194) #3
  br label %ehcleanup243

if.end202:                                        ; preds = %if.then201, %invoke.cont199
  br label %if.end203

if.end203:                                        ; preds = %if.end202, %invoke.cont191
  %call206 = invoke ptr @_ZNSt3mapIN4cvc58internal8TypeNodeEbSt4lessIS2_ESaISt4pairIKS2_bEEE4findERS6_(ptr noundef nonnull align 8 dereferenceable(48) %typesFound, ptr noundef nonnull align 8 dereferenceable(8) %tn)
          to label %invoke.cont205 unwind label %lpad190

invoke.cont205:                                   ; preds = %if.end203
  %coerce.dive207 = getelementptr inbounds %"struct.std::_Rb_tree_iterator.40", ptr %ref.tmp204, i32 0, i32 0
  store ptr %call206, ptr %coerce.dive207, align 8
  %call209 = call ptr @_ZNSt3mapIN4cvc58internal8TypeNodeEbSt4lessIS2_ESaISt4pairIKS2_bEEE3endEv(ptr noundef nonnull align 8 dereferenceable(48) %typesFound) #3
  %coerce.dive210 = getelementptr inbounds %"struct.std::_Rb_tree_iterator.40", ptr %ref.tmp208, i32 0, i32 0
  store ptr %call209, ptr %coerce.dive210, align 8
  %call211 = call noundef zeroext i1 @_ZSteqRKSt17_Rb_tree_iteratorISt4pairIKN4cvc58internal8TypeNodeEbEES8_(ptr noundef nonnull align 8 dereferenceable(8) %ref.tmp204, ptr noundef nonnull align 8 dereferenceable(8) %ref.tmp208) #3
  br i1 %call211, label %if.then212, label %if.end237

if.then212:                                       ; preds = %invoke.cont205
  %call214 = invoke noundef nonnull align 1 dereferenceable(1) ptr @_ZNSt3mapIN4cvc58internal8TypeNodeEbSt4lessIS2_ESaISt4pairIKS2_bEEEixERS6_(ptr noundef nonnull align 8 dereferenceable(48) %typesFound, ptr noundef nonnull align 8 dereferenceable(8) %tn)
          to label %invoke.cont213 unwind label %lpad190

invoke.cont213:                                   ; preds = %if.then212
  store i8 1, ptr %call214, align 1
  %call216 = invoke noundef nonnull align 8 dereferenceable(24) ptr @_ZNSt3mapIN4cvc58internal8TypeNodeESt6vectorINS1_12NodeTemplateILb1EEESaIS5_EESt4lessIS2_ESaISt4pairIKS2_S7_EEEixERSB_(ptr noundef nonnull align 8 dereferenceable(48) %consts, ptr noundef nonnull align 8 dereferenceable(8) %tn)
          to label %invoke.cont215 unwind label %lpad190

invoke.cont215:                                   ; preds = %invoke.cont213
  invoke void @_ZN4cvc58internal6theory11quantifiers16SygusGrammarCons23mkSygusConstantsForTypeERKNS0_8TypeNodeERSt6vectorINS0_12NodeTemplateILb1EEESaIS9_EE(ptr noundef nonnull align 8 dereferenceable(8) %tn, ptr noundef nonnull align 8 dereferenceable(24) %call216)
          to label %invoke.cont217 unwind label %lpad190

invoke.cont217:                                   ; preds = %invoke.cont215
  %call219 = call ptr @_ZNSt6vectorIN4cvc58internal12NodeTemplateILb1EEESaIS3_EE5beginEv(ptr noundef nonnull align 8 dereferenceable(24) %terms) #3
  %coerce.dive220 = getelementptr inbounds %"class.__gnu_cxx::__normal_iterator.41", ptr %ref.tmp218, i32 0, i32 0
  store ptr %call219, ptr %coerce.dive220, align 8
  call void @_ZN9__gnu_cxx17__normal_iteratorIPKN4cvc58internal12NodeTemplateILb1EEESt6vectorIS4_SaIS4_EEEC2IPS4_vEERKNS0_IT_S9_EE(ptr noundef nonnull align 8 dereferenceable(8) %agg.tmp, ptr noundef nonnull align 8 dereferenceable(8) %ref.tmp218) #3
  %call223 = invoke noundef nonnull align 8 dereferenceable(24) ptr @_ZNSt3mapIN4cvc58internal8TypeNodeESt6vectorINS1_12NodeTemplateILb1EEESaIS5_EESt4lessIS2_ESaISt4pairIKS2_S7_EEEixERSB_(ptr noundef nonnull align 8 dereferenceable(48) %consts, ptr noundef nonnull align 8 dereferenceable(8) %tn)
          to label %invoke.cont222 unwind label %lpad190

invoke.cont222:                                   ; preds = %invoke.cont217
  %call224 = call ptr @_ZNSt6vectorIN4cvc58internal12NodeTemplateILb1EEESaIS3_EE5beginEv(ptr noundef nonnull align 8 dereferenceable(24) %call223) #3
  %coerce.dive225 = getelementptr inbounds %"class.__gnu_cxx::__normal_iterator.41", ptr %agg.tmp221, i32 0, i32 0
  store ptr %call224, ptr %coerce.dive225, align 8
  %call228 = invoke noundef nonnull align 8 dereferenceable(24) ptr @_ZNSt3mapIN4cvc58internal8TypeNodeESt6vectorINS1_12NodeTemplateILb1EEESaIS5_EESt4lessIS2_ESaISt4pairIKS2_S7_EEEixERSB_(ptr noundef nonnull align 8 dereferenceable(48) %consts, ptr noundef nonnull align 8 dereferenceable(8) %tn)
          to label %invoke.cont227 unwind label %lpad190

invoke.cont227:                                   ; preds = %invoke.cont222
  %call229 = call ptr @_ZNSt6vectorIN4cvc58internal12NodeTemplateILb1EEESaIS3_EE3endEv(ptr noundef nonnull align 8 dereferenceable(24) %call228) #3
  %coerce.dive230 = getelementptr inbounds %"class.__gnu_cxx::__normal_iterator.41", ptr %agg.tmp226, i32 0, i32 0
  store ptr %call229, ptr %coerce.dive230, align 8
  %coerce.dive231 = getelementptr inbounds %"class.__gnu_cxx::__normal_iterator", ptr %agg.tmp, i32 0, i32 0
  %54 = load ptr, ptr %coerce.dive231, align 8
  %coerce.dive232 = getelementptr inbounds %"class.__gnu_cxx::__normal_iterator.41", ptr %agg.tmp221, i32 0, i32 0
  %55 = load ptr, ptr %coerce.dive232, align 8
  %coerce.dive233 = getelementptr inbounds %"class.__gnu_cxx::__normal_iterator.41", ptr %agg.tmp226, i32 0, i32 0
  %56 = load ptr, ptr %coerce.dive233, align 8
  %call235 = invoke ptr @_ZNSt6vectorIN4cvc58internal12NodeTemplateILb1EEESaIS3_EE6insertIN9__gnu_cxx17__normal_iteratorIPS3_S5_EEvEESA_NS8_IPKS3_S5_EET_SE_(ptr noundef nonnull align 8 dereferenceable(24) %terms, ptr %54, ptr %55, ptr %56)
          to label %invoke.cont234 unwind label %lpad190

invoke.cont234:                                   ; preds = %invoke.cont227
  %coerce.dive236 = getelementptr inbounds %"class.__gnu_cxx::__normal_iterator.41", ptr %coerce, i32 0, i32 0
  store ptr %call235, ptr %coerce.dive236, align 8
  br label %if.end237

if.end237:                                        ; preds = %invoke.cont234, %invoke.cont205
  invoke void @_ZN4cvc58internal12NodeTemplateILb1EEC2ERKNS1_ILb0EEE(ptr noundef nonnull align 8 dereferenceable(8) %ref.tmp238, ptr noundef nonnull align 8 dereferenceable(8) %cur)
          to label %invoke.cont239 unwind label %lpad190

invoke.cont239:                                   ; preds = %if.end237
  invoke void @_ZNSt6vectorIN4cvc58internal12NodeTemplateILb1EEESaIS3_EE9push_backEOS3_(ptr noundef nonnull align 8 dereferenceable(24) %terms, ptr noundef nonnull align 8 dereferenceable(8) %ref.tmp238)
          to label %invoke.cont241 unwind label %lpad240

invoke.cont241:                                   ; preds = %invoke.cont239
  call void @_ZN4cvc58internal12NodeTemplateILb1EED2Ev(ptr noundef nonnull align 8 dereferenceable(8) %ref.tmp238) #3
  call void @_ZN4cvc58internal8TypeNodeD2Ev(ptr noundef nonnull align 8 dereferenceable(8) %tn) #3
  br label %if.end244

lpad240:                                          ; preds = %invoke.cont239
  %57 = landingpad { ptr, i32 }
          cleanup
  %58 = extractvalue { ptr, i32 } %57, 0
  store ptr %58, ptr %exn.slot, align 8
  %59 = extractvalue { ptr, i32 } %57, 1
  store i32 %59, ptr %ehselector.slot, align 4
  call void @_ZN4cvc58internal12NodeTemplateILb1EED2Ev(ptr noundef nonnull align 8 dereferenceable(8) %ref.tmp238) #3
  br label %ehcleanup243

ehcleanup243:                                     ; preds = %lpad240, %lpad196, %lpad190
  call void @_ZN4cvc58internal8TypeNodeD2Ev(ptr noundef nonnull align 8 dereferenceable(8) %tn) #3
  br label %ehcleanup1448

if.end244:                                        ; preds = %invoke.cont241, %for.end154
  %60 = load i8, ptr %childrenValid, align 1
  %tobool245 = trunc i8 %60 to i1
  %call247 = invoke noundef nonnull align 1 dereferenceable(1) ptr @_ZNSt13unordered_mapIN4cvc58internal12NodeTemplateILb0EEEbSt4hashIS3_ESt8equal_toIS3_ESaISt4pairIKS3_bEEEixERS9_(ptr noundef nonnull align 8 dereferenceable(56) %visited, ptr noundef nonnull align 8 dereferenceable(8) %cur)
          to label %invoke.cont246 unwind label %lpad6

invoke.cont246:                                   ; preds = %if.end244
  %frombool = zext i1 %tobool245 to i8
  store i8 %frombool, ptr %call247, align 1
  br label %if.end248

if.end248:                                        ; preds = %invoke.cont246, %if.else
  br label %if.end249

if.end249:                                        ; preds = %if.end248, %for.end
  br label %do.cond

do.cond:                                          ; preds = %if.end249, %invoke.cont48
  %call250 = call noundef zeroext i1 @_ZNKSt6vectorIN4cvc58internal12NodeTemplateILb0EEESaIS3_EE5emptyEv(ptr noundef nonnull align 8 dereferenceable(24) %visit) #3
  %lnot251 = xor i1 %call250, true
  br i1 %lnot251, label %do.body, label %do.end, !llvm.loop !4

do.end:                                           ; preds = %do.cond
  br label %for.inc252

for.inc252:                                       ; preds = %do.end
  %call253 = call noundef nonnull align 8 dereferenceable(8) ptr @_ZN9__gnu_cxx17__normal_iteratorIPKN4cvc58internal12NodeTemplateILb1EEESt6vectorIS4_SaIS4_EEEppEv(ptr noundef nonnull align 8 dereferenceable(8) %__begin3) #3
  br label %for.cond

for.end254:                                       ; preds = %for.cond
  %call257 = invoke noundef zeroext i1 @_ZN4cvc58internal11__cvc5_truecvbEv(ptr noundef nonnull align 1 dereferenceable(1) %ref.tmp255)
          to label %invoke.cont256 unwind label %lpad6

invoke.cont256:                                   ; preds = %for.end254
  br i1 %call257, label %cond.true258, label %cond.false261

cond.true258:                                     ; preds = %invoke.cont256
  invoke void @_ZNK4cvc58internal5NullCcvNS0_11Cvc5ostreamEEv(ptr sret(%"class.cvc5::internal::Cvc5ostream") align 8 %tmp259, ptr noundef nonnull align 1 dereferenceable(1) @_ZN4cvc58internal10nullStreamE)
          to label %invoke.cont260 unwind label %lpad6

invoke.cont260:                                   ; preds = %cond.true258
  br label %cond.end269

cond.false261:                                    ; preds = %invoke.cont256
  invoke void @_ZNK4cvc58internal6TraceCclEv(ptr sret(%"class.cvc5::internal::Cvc5ostream") align 8 %ref.tmp263, ptr noundef nonnull align 8 dereferenceable(32) @_ZN4cvc58internal12TraceChannelE)
          to label %invoke.cont264 unwind label %lpad6

invoke.cont264:                                   ; preds = %cond.false261
  %call266 = invoke noundef nonnull align 8 dereferenceable(24) ptr @_ZN4cvc58internal11Cvc5ostreamlsIA13_cEERS1_RKT_(ptr noundef nonnull align 8 dereferenceable(24) %ref.tmp263, ptr noundef nonnull align 1 dereferenceable(13) @.str.7)
          to label %invoke.cont265 unwind label %lpad6

invoke.cont265:                                   ; preds = %invoke.cont264
  %call268 = invoke noundef nonnull align 8 dereferenceable(24) ptr @_ZN4cvc58internal11Cvc5ostreamlsEPFRSoS2_E(ptr noundef nonnull align 8 dereferenceable(24) %call266, ptr noundef @_ZSt4endlIcSt11char_traitsIcEERSt13basic_ostreamIT_T0_ES6_)
          to label %invoke.cont267 unwind label %lpad6

invoke.cont267:                                   ; preds = %invoke.cont265
  call void @llvm.memcpy.p0.p0.i64(ptr align 8 %agg.tmp.ensured262, ptr align 8 %call268, i64 24, i1 false)
  br label %cond.end269

cond.end269:                                      ; preds = %invoke.cont267, %invoke.cont260
  %call272 = invoke noundef zeroext i1 @_ZN4cvc58internal11__cvc5_truecvbEv(ptr noundef nonnull align 1 dereferenceable(1) %ref.tmp270)
          to label %invoke.cont271 unwind label %lpad6

invoke.cont271:                                   ; preds = %cond.end269
  br i1 %call272, label %cond.true273, label %cond.false276

cond.true273:                                     ; preds = %invoke.cont271
  invoke void @_ZNK4cvc58internal5NullCcvNS0_11Cvc5ostreamEEv(ptr sret(%"class.cvc5::internal::Cvc5ostream") align 8 %tmp274, ptr noundef nonnull align 1 dereferenceable(1) @_ZN4cvc58internal10nullStreamE)
          to label %invoke.cont275 unwind label %lpad6

invoke.cont275:                                   ; preds = %cond.true273
  br label %cond.end284

cond.false276:                                    ; preds = %invoke.cont271
  invoke void @_ZNK4cvc58internal6TraceCclEv(ptr sret(%"class.cvc5::internal::Cvc5ostream") align 8 %ref.tmp278, ptr noundef nonnull align 8 dereferenceable(32) @_ZN4cvc58internal12TraceChannelE)
          to label %invoke.cont279 unwind label %lpad6

invoke.cont279:                                   ; preds = %cond.false276
  %call281 = invoke noundef nonnull align 8 dereferenceable(24) ptr @_ZN4cvc58internal11Cvc5ostreamlsIA34_cEERS1_RKT_(ptr noundef nonnull align 8 dereferenceable(24) %ref.tmp278, ptr noundef nonnull align 1 dereferenceable(34) @.str.8)
          to label %invoke.cont280 unwind label %lpad6

invoke.cont280:                                   ; preds = %invoke.cont279
  %call283 = invoke noundef nonnull align 8 dereferenceable(24) ptr @_ZN4cvc58internal11Cvc5ostreamlsEPFRSoS2_E(ptr noundef nonnull align 8 dereferenceable(24) %call281, ptr noundef @_ZSt4endlIcSt11char_traitsIcEERSt13basic_ostreamIT_T0_ES6_)
          to label %invoke.cont282 unwind label %lpad6

invoke.cont282:                                   ; preds = %invoke.cont280
  call void @llvm.memcpy.p0.p0.i64(ptr align 8 %agg.tmp.ensured277, ptr align 8 %call283, i64 24, i1 false)
  br label %cond.end284

cond.end284:                                      ; preds = %invoke.cont282, %invoke.cont275
  %61 = load i64, ptr %nvars.addr, align 8
  %cmp = icmp ult i64 %61, 1
  br i1 %cmp, label %cond.true285, label %cond.false286

cond.true285:                                     ; preds = %cond.end284
  br label %cond.end287

cond.false286:                                    ; preds = %cond.end284
  %62 = load i64, ptr %nvars.addr, align 8
  br label %cond.end287

cond.end287:                                      ; preds = %cond.false286, %cond.true285
  %cond = phi i64 [ 1, %cond.true285 ], [ %62, %cond.false286 ]
  store i64 %cond, ptr %nvars.addr, align 8
  call void @_ZNSt3mapIN4cvc58internal8TypeNodeESt6vectorINS1_12NodeTemplateILb1EEESaIS5_EESt4lessIS2_ESaISt4pairIKS2_S7_EEEC2Ev(ptr noundef nonnull align 8 dereferenceable(48) %tvars) #3
  call void @_ZNSt6vectorIN4cvc58internal12NodeTemplateILb1EEESaIS3_EEC2Ev(ptr noundef nonnull align 8 dereferenceable(24) %allVars) #3
  store i64 0, ptr %varCounter, align 8
  store ptr %typesFound, ptr %__range3288, align 8
  %63 = load ptr, ptr %__range3288, align 8
  %call290 = call ptr @_ZNSt3mapIN4cvc58internal8TypeNodeEbSt4lessIS2_ESaISt4pairIKS2_bEEE5beginEv(ptr noundef nonnull align 8 dereferenceable(48) %63) #3
  %coerce.dive291 = getelementptr inbounds %"struct.std::_Rb_tree_iterator.40", ptr %__begin3289, i32 0, i32 0
  store ptr %call290, ptr %coerce.dive291, align 8
  %64 = load ptr, ptr %__range3288, align 8
  %call293 = call ptr @_ZNSt3mapIN4cvc58internal8TypeNodeEbSt4lessIS2_ESaISt4pairIKS2_bEEE3endEv(ptr noundef nonnull align 8 dereferenceable(48) %64) #3
  %coerce.dive294 = getelementptr inbounds %"struct.std::_Rb_tree_iterator.40", ptr %__end3292, i32 0, i32 0
  store ptr %call293, ptr %coerce.dive294, align 8
  br label %for.cond295

for.cond295:                                      ; preds = %for.inc375, %cond.end287
  %call296 = call noundef zeroext i1 @_ZStneRKSt17_Rb_tree_iteratorISt4pairIKN4cvc58internal8TypeNodeEbEES8_(ptr noundef nonnull align 8 dereferenceable(8) %__begin3289, ptr noundef nonnull align 8 dereferenceable(8) %__end3292) #3
  br i1 %call296, label %for.body297, label %for.end377

for.body297:                                      ; preds = %for.cond295
  %call298 = call noundef nonnull align 8 dereferenceable(9) ptr @_ZNKSt17_Rb_tree_iteratorISt4pairIKN4cvc58internal8TypeNodeEbEEdeEv(ptr noundef nonnull align 8 dereferenceable(8) %__begin3289) #3
  invoke void @_ZNSt4pairIKN4cvc58internal8TypeNodeEbEC2ERKS4_(ptr noundef nonnull align 8 dereferenceable(9) %tfp, ptr noundef nonnull align 8 dereferenceable(9) %call298)
          to label %invoke.cont300 unwind label %lpad299

invoke.cont300:                                   ; preds = %for.body297
  %first = getelementptr inbounds %"struct.std::pair.42", ptr %tfp, i32 0, i32 0
  invoke void @_ZN4cvc58internal8TypeNodeC2ERKS1_(ptr noundef nonnull align 8 dereferenceable(8) %tn301, ptr noundef nonnull align 8 dereferenceable(8) %first)
          to label %invoke.cont303 unwind label %lpad302

invoke.cont303:                                   ; preds = %invoke.cont300
  %call306 = invoke noundef zeroext i1 @_ZNK4cvc58internal8TypeNode12isFirstClassEv(ptr noundef nonnull align 8 dereferenceable(8) %tn301)
          to label %invoke.cont305 unwind label %lpad304

invoke.cont305:                                   ; preds = %invoke.cont303
  br i1 %call306, label %if.end308, label %if.then307

if.then307:                                       ; preds = %invoke.cont305
  store i32 11, ptr %cleanup.dest.slot, align 4
  br label %cleanup

lpad299:                                          ; preds = %invoke.cont406, %invoke.cont405, %cond.false402, %cond.true399, %if.end395, %invoke.cont388, %invoke.cont387, %cond.false384, %cond.true381, %for.end377, %for.body297
  %65 = landingpad { ptr, i32 }
          cleanup
  %66 = extractvalue { ptr, i32 } %65, 0
  store ptr %66, ptr %exn.slot, align 8
  %67 = extractvalue { ptr, i32 } %65, 1
  store i32 %67, ptr %ehselector.slot, align 4
  br label %ehcleanup1444

lpad302:                                          ; preds = %invoke.cont300
  %68 = landingpad { ptr, i32 }
          cleanup
  %69 = extractvalue { ptr, i32 } %68, 0
  store ptr %69, ptr %exn.slot, align 8
  %70 = extractvalue { ptr, i32 } %68, 1
  store i32 %70, ptr %ehselector.slot, align 4
  br label %ehcleanup374

lpad304:                                          ; preds = %for.body319, %if.end308, %invoke.cont303
  %71 = landingpad { ptr, i32 }
          cleanup
  %72 = extractvalue { ptr, i32 } %71, 0
  store ptr %72, ptr %exn.slot, align 8
  %73 = extractvalue { ptr, i32 } %71, 1
  store i32 %73, ptr %ehselector.slot, align 4
  br label %ehcleanup370

if.end308:                                        ; preds = %invoke.cont305
  %call310 = invoke noundef zeroext i1 @_ZNK4cvc58internal8TypeNode9isBooleanEv(ptr noundef nonnull align 8 dereferenceable(8) %tn301)
          to label %invoke.cont309 unwind label %lpad304

invoke.cont309:                                   ; preds = %if.end308
  br i1 %call310, label %cond.false312, label %cond.true311

cond.true311:                                     ; preds = %invoke.cont309
  %74 = load i64, ptr %nvars.addr, align 8
  br label %cond.end315

cond.false312:                                    ; preds = %invoke.cont309
  %75 = load i8, ptr %hasBoolVar, align 1
  %tobool313 = trunc i8 %75 to i1
  %cond314 = select i1 %tobool313, i32 1, i32 0
  %conv = sext i32 %cond314 to i64
  br label %cond.end315

cond.end315:                                      ; preds = %cond.false312, %cond.true311
  %cond316 = phi i64 [ %74, %cond.true311 ], [ %conv, %cond.false312 ]
  store i64 %cond316, ptr %useNVars, align 8
  store i64 0, ptr %i, align 8
  br label %for.cond317

for.cond317:                                      ; preds = %for.inc367, %cond.end315
  %76 = load i64, ptr %i, align 8
  %77 = load i64, ptr %useNVars, align 8
  %cmp318 = icmp ult i64 %76, %77
  br i1 %cmp318, label %for.body319, label %for.end369

for.body319:                                      ; preds = %for.cond317
  invoke void @_ZNSt7__cxx1118basic_stringstreamIcSt11char_traitsIcESaIcEEC1Ev(ptr noundef nonnull align 8 dereferenceable(128) %ssv)
          to label %invoke.cont320 unwind label %lpad304

invoke.cont320:                                   ; preds = %for.body319
  %78 = load i64, ptr %varCounter, align 8
  %cmp321 = icmp ult i64 %78, 26
  br i1 %cmp321, label %if.then322, label %if.else327

if.then322:                                       ; preds = %invoke.cont320
  %add.ptr = getelementptr inbounds i8, ptr %ssv, i64 16
  %79 = load i64, ptr %varCounter, align 8
  %add = add i64 %79, 65
  %conv323 = trunc i64 %add to i8
  %call326 = invoke noundef nonnull align 8 dereferenceable(8) ptr @_ZStlsISt11char_traitsIcEERSt13basic_ostreamIcT_ES5_c(ptr noundef nonnull align 8 dereferenceable(8) %add.ptr, i8 noundef signext %conv323)
          to label %invoke.cont325 unwind label %lpad324

invoke.cont325:                                   ; preds = %if.then322
  br label %if.end333

lpad324:                                          ; preds = %if.end333, %invoke.cont329, %if.else327, %if.then322
  %80 = landingpad { ptr, i32 }
          cleanup
  %81 = extractvalue { ptr, i32 } %80, 0
  store ptr %81, ptr %exn.slot, align 8
  %82 = extractvalue { ptr, i32 } %80, 1
  store i32 %82, ptr %ehselector.slot, align 4
  br label %ehcleanup366

if.else327:                                       ; preds = %invoke.cont320
  %add.ptr328 = getelementptr inbounds i8, ptr %ssv, i64 16
  %call330 = invoke noundef nonnull align 8 dereferenceable(8) ptr @_ZStlsISt11char_traitsIcEERSt13basic_ostreamIcT_ES5_PKc(ptr noundef nonnull align 8 dereferenceable(8) %add.ptr328, ptr noundef @.str.9)
          to label %invoke.cont329 unwind label %lpad324

invoke.cont329:                                   ; preds = %if.else327
  %83 = load i64, ptr %varCounter, align 8
  %sub = sub i64 %83, 26
  %call332 = invoke noundef nonnull align 8 dereferenceable(8) ptr @_ZNSolsEm(ptr noundef nonnull align 8 dereferenceable(8) %call330, i64 noundef %sub)
          to label %invoke.cont331 unwind label %lpad324

invoke.cont331:                                   ; preds = %invoke.cont329
  br label %if.end333

if.end333:                                        ; preds = %invoke.cont331, %invoke.cont325
  %84 = load i64, ptr %varCounter, align 8
  %inc = add i64 %84, 1
  store i64 %inc, ptr %varCounter, align 8
  %85 = load ptr, ptr %nm, align 8
  invoke void @_ZNKSt7__cxx1118basic_stringstreamIcSt11char_traitsIcESaIcEE3strEv(ptr sret(%"class.std::__cxx11::basic_string") align 8 %ref.tmp334, ptr noundef nonnull align 8 dereferenceable(128) %ssv)
          to label %invoke.cont335 unwind label %lpad324

invoke.cont335:                                   ; preds = %if.end333
  invoke void @_ZN4cvc58internal11NodeManager10mkBoundVarERKNSt7__cxx1112basic_stringIcSt11char_traitsIcESaIcEEERKNS0_8TypeNodeE(ptr sret(%"class.cvc5::internal::NodeTemplate.37") align 8 %v, ptr noundef nonnull align 8 dereferenceable(3360) %85, ptr noundef nonnull align 8 dereferenceable(32) %ref.tmp334, ptr noundef nonnull align 8 dereferenceable(8) %tn301)
          to label %invoke.cont337 unwind label %lpad336

invoke.cont337:                                   ; preds = %invoke.cont335
  call void @_ZNSt7__cxx1112basic_stringIcSt11char_traitsIcESaIcEED1Ev(ptr noundef nonnull align 8 dereferenceable(32) %ref.tmp334) #3
  %call342 = invoke noundef zeroext i1 @_ZN4cvc58internal11__cvc5_truecvbEv(ptr noundef nonnull align 1 dereferenceable(1) %ref.tmp339)
          to label %invoke.cont341 unwind label %lpad340

invoke.cont341:                                   ; preds = %invoke.cont337
  br i1 %call342, label %cond.true343, label %cond.false346

cond.true343:                                     ; preds = %invoke.cont341
  invoke void @_ZNK4cvc58internal5NullCcvNS0_11Cvc5ostreamEEv(ptr sret(%"class.cvc5::internal::Cvc5ostream") align 8 %tmp344, ptr noundef nonnull align 1 dereferenceable(1) @_ZN4cvc58internal10nullStreamE)
          to label %invoke.cont345 unwind label %lpad340

invoke.cont345:                                   ; preds = %cond.true343
  br label %cond.end360

cond.false346:                                    ; preds = %invoke.cont341
  invoke void @_ZNK4cvc58internal6TraceCclEv(ptr sret(%"class.cvc5::internal::Cvc5ostream") align 8 %ref.tmp348, ptr noundef nonnull align 8 dereferenceable(32) @_ZN4cvc58internal12TraceChannelE)
          to label %invoke.cont349 unwind label %lpad340

invoke.cont349:                                   ; preds = %cond.false346
  %call351 = invoke noundef nonnull align 8 dereferenceable(24) ptr @_ZN4cvc58internal11Cvc5ostreamlsIA15_cEERS1_RKT_(ptr noundef nonnull align 8 dereferenceable(24) %ref.tmp348, ptr noundef nonnull align 1 dereferenceable(15) @.str.10)
          to label %invoke.cont350 unwind label %lpad340

invoke.cont350:                                   ; preds = %invoke.cont349
  %call353 = invoke noundef nonnull align 8 dereferenceable(24) ptr @_ZN4cvc58internal11Cvc5ostreamlsINS0_12NodeTemplateILb1EEEEERS1_RKT_(ptr noundef nonnull align 8 dereferenceable(24) %call351, ptr noundef nonnull align 8 dereferenceable(8) %v)
          to label %invoke.cont352 unwind label %lpad340

invoke.cont352:                                   ; preds = %invoke.cont350
  %call355 = invoke noundef nonnull align 8 dereferenceable(24) ptr @_ZN4cvc58internal11Cvc5ostreamlsIA10_cEERS1_RKT_(ptr noundef nonnull align 8 dereferenceable(24) %call353, ptr noundef nonnull align 1 dereferenceable(10) @.str.11)
          to label %invoke.cont354 unwind label %lpad340

invoke.cont354:                                   ; preds = %invoke.cont352
  %call357 = invoke noundef nonnull align 8 dereferenceable(24) ptr @_ZN4cvc58internal11Cvc5ostreamlsINS0_8TypeNodeEEERS1_RKT_(ptr noundef nonnull align 8 dereferenceable(24) %call355, ptr noundef nonnull align 8 dereferenceable(8) %tn301)
          to label %invoke.cont356 unwind label %lpad340

invoke.cont356:                                   ; preds = %invoke.cont354
  %call359 = invoke noundef nonnull align 8 dereferenceable(24) ptr @_ZN4cvc58internal11Cvc5ostreamlsEPFRSoS2_E(ptr noundef nonnull align 8 dereferenceable(24) %call357, ptr noundef @_ZSt4endlIcSt11char_traitsIcEERSt13basic_ostreamIT_T0_ES6_)
          to label %invoke.cont358 unwind label %lpad340

invoke.cont358:                                   ; preds = %invoke.cont356
  call void @llvm.memcpy.p0.p0.i64(ptr align 8 %agg.tmp.ensured347, ptr align 8 %call359, i64 24, i1 false)
  br label %cond.end360

cond.end360:                                      ; preds = %invoke.cont358, %invoke.cont345
  %call362 = invoke noundef nonnull align 8 dereferenceable(24) ptr @_ZNSt3mapIN4cvc58internal8TypeNodeESt6vectorINS1_12NodeTemplateILb1EEESaIS5_EESt4lessIS2_ESaISt4pairIKS2_S7_EEEixERSB_(ptr noundef nonnull align 8 dereferenceable(48) %tvars, ptr noundef nonnull align 8 dereferenceable(8) %tn301)
          to label %invoke.cont361 unwind label %lpad340

invoke.cont361:                                   ; preds = %cond.end360
  invoke void @_ZNSt6vectorIN4cvc58internal12NodeTemplateILb1EEESaIS3_EE9push_backERKS3_(ptr noundef nonnull align 8 dereferenceable(24) %call362, ptr noundef nonnull align 8 dereferenceable(8) %v)
          to label %invoke.cont363 unwind label %lpad340

invoke.cont363:                                   ; preds = %invoke.cont361
  invoke void @_ZNSt6vectorIN4cvc58internal12NodeTemplateILb1EEESaIS3_EE9push_backERKS3_(ptr noundef nonnull align 8 dereferenceable(24) %allVars, ptr noundef nonnull align 8 dereferenceable(8) %v)
          to label %invoke.cont364 unwind label %lpad340

invoke.cont364:                                   ; preds = %invoke.cont363
  call void @_ZN4cvc58internal12NodeTemplateILb1EED2Ev(ptr noundef nonnull align 8 dereferenceable(8) %v) #3
  call void @_ZNSt7__cxx1118basic_stringstreamIcSt11char_traitsIcESaIcEED1Ev(ptr noundef nonnull align 8 dereferenceable(128) %ssv) #3
  br label %for.inc367

for.inc367:                                       ; preds = %invoke.cont364
  %86 = load i64, ptr %i, align 8
  %inc368 = add i64 %86, 1
  store i64 %inc368, ptr %i, align 8
  br label %for.cond317, !llvm.loop !6

lpad336:                                          ; preds = %invoke.cont335
  %87 = landingpad { ptr, i32 }
          cleanup
  %88 = extractvalue { ptr, i32 } %87, 0
  store ptr %88, ptr %exn.slot, align 8
  %89 = extractvalue { ptr, i32 } %87, 1
  store i32 %89, ptr %ehselector.slot, align 4
  call void @_ZNSt7__cxx1112basic_stringIcSt11char_traitsIcESaIcEED1Ev(ptr noundef nonnull align 8 dereferenceable(32) %ref.tmp334) #3
  br label %ehcleanup366

lpad340:                                          ; preds = %invoke.cont363, %invoke.cont361, %cond.end360, %invoke.cont356, %invoke.cont354, %invoke.cont352, %invoke.cont350, %invoke.cont349, %cond.false346, %cond.true343, %invoke.cont337
  %90 = landingpad { ptr, i32 }
          cleanup
  %91 = extractvalue { ptr, i32 } %90, 0
  store ptr %91, ptr %exn.slot, align 8
  %92 = extractvalue { ptr, i32 } %90, 1
  store i32 %92, ptr %ehselector.slot, align 4
  call void @_ZN4cvc58internal12NodeTemplateILb1EED2Ev(ptr noundef nonnull align 8 dereferenceable(8) %v) #3
  br label %ehcleanup366

ehcleanup366:                                     ; preds = %lpad340, %lpad336, %lpad324
  call void @_ZNSt7__cxx1118basic_stringstreamIcSt11char_traitsIcESaIcEED1Ev(ptr noundef nonnull align 8 dereferenceable(128) %ssv) #3
  br label %ehcleanup370

for.end369:                                       ; preds = %for.cond317
  store i32 0, ptr %cleanup.dest.slot, align 4
  br label %cleanup

cleanup:                                          ; preds = %for.end369, %if.then307
  call void @_ZN4cvc58internal8TypeNodeD2Ev(ptr noundef nonnull align 8 dereferenceable(8) %tn301) #3
  %cleanup.dest = load i32, ptr %cleanup.dest.slot, align 4
  switch i32 %cleanup.dest, label %cleanup371 [
    i32 0, label %cleanup.cont
  ]

cleanup.cont:                                     ; preds = %cleanup
  store i32 0, ptr %cleanup.dest.slot, align 4
  br label %cleanup371

cleanup371:                                       ; preds = %cleanup.cont, %cleanup
  call void @_ZNSt4pairIKN4cvc58internal8TypeNodeEbED2Ev(ptr noundef nonnull align 8 dereferenceable(9) %tfp) #3
  %cleanup.dest372 = load i32, ptr %cleanup.dest.slot, align 4
  switch i32 %cleanup.dest372, label %unreachable [
    i32 0, label %cleanup.cont373
    i32 11, label %for.inc375
  ]

cleanup.cont373:                                  ; preds = %cleanup371
  br label %for.inc375

for.inc375:                                       ; preds = %cleanup.cont373, %cleanup371
  %call376 = call noundef nonnull align 8 dereferenceable(8) ptr @_ZNSt17_Rb_tree_iteratorISt4pairIKN4cvc58internal8TypeNodeEbEEppEv(ptr noundef nonnull align 8 dereferenceable(8) %__begin3289) #3
  br label %for.cond295

ehcleanup370:                                     ; preds = %ehcleanup366, %lpad304
  call void @_ZN4cvc58internal8TypeNodeD2Ev(ptr noundef nonnull align 8 dereferenceable(8) %tn301) #3
  br label %ehcleanup374

ehcleanup374:                                     ; preds = %ehcleanup370, %lpad302
  call void @_ZNSt4pairIKN4cvc58internal8TypeNodeEbED2Ev(ptr noundef nonnull align 8 dereferenceable(9) %tfp) #3
  br label %ehcleanup1444

for.end377:                                       ; preds = %for.cond295
  %call380 = invoke noundef zeroext i1 @_ZN4cvc58internal11__cvc5_truecvbEv(ptr noundef nonnull align 1 dereferenceable(1) %ref.tmp378)
          to label %invoke.cont379 unwind label %lpad299

invoke.cont379:                                   ; preds = %for.end377
  br i1 %call380, label %cond.true381, label %cond.false384

cond.true381:                                     ; preds = %invoke.cont379
  invoke void @_ZNK4cvc58internal5NullCcvNS0_11Cvc5ostreamEEv(ptr sret(%"class.cvc5::internal::Cvc5ostream") align 8 %tmp382, ptr noundef nonnull align 1 dereferenceable(1) @_ZN4cvc58internal10nullStreamE)
          to label %invoke.cont383 unwind label %lpad299

invoke.cont383:                                   ; preds = %cond.true381
  br label %cond.end392

cond.false384:                                    ; preds = %invoke.cont379
  invoke void @_ZNK4cvc58internal6TraceCclEv(ptr sret(%"class.cvc5::internal::Cvc5ostream") align 8 %ref.tmp386, ptr noundef nonnull align 8 dereferenceable(32) @_ZN4cvc58internal12TraceChannelE)
          to label %invoke.cont387 unwind label %lpad299

invoke.cont387:                                   ; preds = %cond.false384
  %call389 = invoke noundef nonnull align 8 dereferenceable(24) ptr @_ZN4cvc58internal11Cvc5ostreamlsIA13_cEERS1_RKT_(ptr noundef nonnull align 8 dereferenceable(24) %ref.tmp386, ptr noundef nonnull align 1 dereferenceable(13) @.str.7)
          to label %invoke.cont388 unwind label %lpad299

invoke.cont388:                                   ; preds = %invoke.cont387
  %call391 = invoke noundef nonnull align 8 dereferenceable(24) ptr @_ZN4cvc58internal11Cvc5ostreamlsEPFRSoS2_E(ptr noundef nonnull align 8 dereferenceable(24) %call389, ptr noundef @_ZSt4endlIcSt11char_traitsIcEERSt13basic_ostreamIT_T0_ES6_)
          to label %invoke.cont390 unwind label %lpad299

invoke.cont390:                                   ; preds = %invoke.cont388
  call void @llvm.memcpy.p0.p0.i64(ptr align 8 %agg.tmp.ensured385, ptr align 8 %call391, i64 24, i1 false)
  br label %cond.end392

cond.end392:                                      ; preds = %invoke.cont390, %invoke.cont383
  %call393 = call noundef zeroext i1 @_ZNKSt6vectorIN4cvc58internal12NodeTemplateILb1EEESaIS3_EE5emptyEv(ptr noundef nonnull align 8 dereferenceable(24) %allVars) #3
  br i1 %call393, label %if.then394, label %if.end395

if.then394:                                       ; preds = %cond.end392
  store i1 true, ptr %nrvo, align 1
  store i32 1, ptr %cleanup.dest.slot, align 4
  br label %cleanup1443

if.end395:                                        ; preds = %cond.end392
  %call398 = invoke noundef zeroext i1 @_ZN4cvc58internal11__cvc5_truecvbEv(ptr noundef nonnull align 1 dereferenceable(1) %ref.tmp396)
          to label %invoke.cont397 unwind label %lpad299

invoke.cont397:                                   ; preds = %if.end395
  br i1 %call398, label %cond.true399, label %cond.false402

cond.true399:                                     ; preds = %invoke.cont397
  invoke void @_ZNK4cvc58internal5NullCcvNS0_11Cvc5ostreamEEv(ptr sret(%"class.cvc5::internal::Cvc5ostream") align 8 %tmp400, ptr noundef nonnull align 1 dereferenceable(1) @_ZN4cvc58internal10nullStreamE)
          to label %invoke.cont401 unwind label %lpad299

invoke.cont401:                                   ; preds = %cond.true399
  br label %cond.end410

cond.false402:                                    ; preds = %invoke.cont397
  invoke void @_ZNK4cvc58internal6TraceCclEv(ptr sret(%"class.cvc5::internal::Cvc5ostream") align 8 %ref.tmp404, ptr noundef nonnull align 8 dereferenceable(32) @_ZN4cvc58internal12TraceChannelE)
          to label %invoke.cont405 unwind label %lpad299

invoke.cont405:                                   ; preds = %cond.false402
  %call407 = invoke noundef nonnull align 8 dereferenceable(24) ptr @_ZN4cvc58internal11Cvc5ostreamlsIA42_cEERS1_RKT_(ptr noundef nonnull align 8 dereferenceable(24) %ref.tmp404, ptr noundef nonnull align 1 dereferenceable(42) @.str.12)
          to label %invoke.cont406 unwind label %lpad299

invoke.cont406:                                   ; preds = %invoke.cont405
  %call409 = invoke noundef nonnull align 8 dereferenceable(24) ptr @_ZN4cvc58internal11Cvc5ostreamlsEPFRSoS2_E(ptr noundef nonnull align 8 dereferenceable(24) %call407, ptr noundef @_ZSt4endlIcSt11char_traitsIcEERSt13basic_ostreamIT_T0_ES6_)
          to label %invoke.cont408 unwind label %lpad299

invoke.cont408:                                   ; preds = %invoke.cont406
  call void @llvm.memcpy.p0.p0.i64(ptr align 8 %agg.tmp.ensured403, ptr align 8 %call409, i64 24, i1 false)
  br label %cond.end410

cond.end410:                                      ; preds = %invoke.cont408, %invoke.cont401
  call void @_ZNSt6vectorIN4cvc58internal12NodeTemplateILb1EEESaIS3_EEC2Ev(ptr noundef nonnull align 8 dereferenceable(24) %vsubs) #3
  store ptr %vars, ptr %__range3411, align 8
  %93 = load ptr, ptr %__range3411, align 8
  %call413 = call ptr @_ZNSt6vectorIN4cvc58internal12NodeTemplateILb1EEESaIS3_EE5beginEv(ptr noundef nonnull align 8 dereferenceable(24) %93) #3
  %coerce.dive414 = getelementptr inbounds %"class.__gnu_cxx::__normal_iterator.41", ptr %__begin3412, i32 0, i32 0
  store ptr %call413, ptr %coerce.dive414, align 8
  %94 = load ptr, ptr %__range3411, align 8
  %call416 = call ptr @_ZNSt6vectorIN4cvc58internal12NodeTemplateILb1EEESaIS3_EE3endEv(ptr noundef nonnull align 8 dereferenceable(24) %94) #3
  %coerce.dive417 = getelementptr inbounds %"class.__gnu_cxx::__normal_iterator.41", ptr %__end3415, i32 0, i32 0
  store ptr %call416, ptr %coerce.dive417, align 8
  br label %for.cond418

for.cond418:                                      ; preds = %for.inc431, %cond.end410
  %call419 = call noundef zeroext i1 @_ZN9__gnu_cxxneIPN4cvc58internal12NodeTemplateILb1EEESt6vectorIS4_SaIS4_EEEEbRKNS_17__normal_iteratorIT_T0_EESE_(ptr noundef nonnull align 8 dereferenceable(8) %__begin3412, ptr noundef nonnull align 8 dereferenceable(8) %__end3415) #3
  br i1 %call419, label %for.body420, label %for.end433

for.body420:                                      ; preds = %for.cond418
  %call422 = call noundef nonnull align 8 dereferenceable(8) ptr @_ZNK9__gnu_cxx17__normal_iteratorIPN4cvc58internal12NodeTemplateILb1EEESt6vectorIS4_SaIS4_EEEdeEv(ptr noundef nonnull align 8 dereferenceable(8) %__begin3412) #3
  store ptr %call422, ptr %v421, align 8
  %95 = load ptr, ptr %v421, align 8
  invoke void @_ZNK4cvc58internal12NodeTemplateILb1EE7getTypeEb(ptr sret(%"class.cvc5::internal::TypeNode") align 8 %tnv, ptr noundef nonnull align 8 dereferenceable(8) %95, i1 noundef zeroext false)
          to label %invoke.cont424 unwind label %lpad423

invoke.cont424:                                   ; preds = %for.body420
  %96 = load ptr, ptr %nm, align 8
  invoke void @_ZN4cvc58internal11NodeManager10mkBoundVarERKNS0_8TypeNodeE(ptr sret(%"class.cvc5::internal::NodeTemplate.37") align 8 %vs, ptr noundef nonnull align 8 dereferenceable(3360) %96, ptr noundef nonnull align 8 dereferenceable(8) %tnv)
          to label %invoke.cont426 unwind label %lpad425

invoke.cont426:                                   ; preds = %invoke.cont424
  invoke void @_ZNSt6vectorIN4cvc58internal12NodeTemplateILb1EEESaIS3_EE9push_backERKS3_(ptr noundef nonnull align 8 dereferenceable(24) %vsubs, ptr noundef nonnull align 8 dereferenceable(8) %vs)
          to label %invoke.cont428 unwind label %lpad427

invoke.cont428:                                   ; preds = %invoke.cont426
  call void @_ZN4cvc58internal12NodeTemplateILb1EED2Ev(ptr noundef nonnull align 8 dereferenceable(8) %vs) #3
  call void @_ZN4cvc58internal8TypeNodeD2Ev(ptr noundef nonnull align 8 dereferenceable(8) %tnv) #3
  br label %for.inc431

for.inc431:                                       ; preds = %invoke.cont428
  %call432 = call noundef nonnull align 8 dereferenceable(8) ptr @_ZN9__gnu_cxx17__normal_iteratorIPN4cvc58internal12NodeTemplateILb1EEESt6vectorIS4_SaIS4_EEEppEv(ptr noundef nonnull align 8 dereferenceable(8) %__begin3412) #3
  br label %for.cond418

lpad423:                                          ; preds = %invoke.cont503, %invoke.cont501, %invoke.cont497, %invoke.cont496, %cond.false493, %cond.true490, %cond.end486, %invoke.cont482, %invoke.cont481, %cond.false478, %cond.true475, %if.end471, %for.body441, %for.body420
  %97 = landingpad { ptr, i32 }
          cleanup
  %98 = extractvalue { ptr, i32 } %97, 0
  store ptr %98, ptr %exn.slot, align 8
  %99 = extractvalue { ptr, i32 } %97, 1
  store i32 %99, ptr %ehselector.slot, align 4
  br label %ehcleanup1442

lpad425:                                          ; preds = %invoke.cont424
  %100 = landingpad { ptr, i32 }
          cleanup
  %101 = extractvalue { ptr, i32 } %100, 0
  store ptr %101, ptr %exn.slot, align 8
  %102 = extractvalue { ptr, i32 } %100, 1
  store i32 %102, ptr %ehselector.slot, align 4
  br label %ehcleanup430

lpad427:                                          ; preds = %invoke.cont426
  %103 = landingpad { ptr, i32 }
          cleanup
  %104 = extractvalue { ptr, i32 } %103, 0
  store ptr %104, ptr %exn.slot, align 8
  %105 = extractvalue { ptr, i32 } %103, 1
  store i32 %105, ptr %ehselector.slot, align 4
  call void @_ZN4cvc58internal12NodeTemplateILb1EED2Ev(ptr noundef nonnull align 8 dereferenceable(8) %vs) #3
  br label %ehcleanup430

ehcleanup430:                                     ; preds = %lpad427, %lpad425
  call void @_ZN4cvc58internal8TypeNodeD2Ev(ptr noundef nonnull align 8 dereferenceable(8) %tnv) #3
  br label %ehcleanup1442

for.end433:                                       ; preds = %for.cond418
  %call434 = call noundef zeroext i1 @_ZNKSt6vectorIN4cvc58internal12NodeTemplateILb1EEESaIS3_EE5emptyEv(ptr noundef nonnull align 8 dereferenceable(24) %vars) #3
  br i1 %call434, label %if.end471, label %if.then435

if.then435:                                       ; preds = %for.end433
  store i32 0, ptr %i436, align 4
  %call437 = call noundef i64 @_ZNKSt6vectorIN4cvc58internal12NodeTemplateILb1EEESaIS3_EE4sizeEv(ptr noundef nonnull align 8 dereferenceable(24) %terms) #3
  %conv438 = trunc i64 %call437 to i32
  store i32 %conv438, ptr %nterms, align 4
  br label %for.cond439

for.cond439:                                      ; preds = %for.inc468, %if.then435
  %106 = load i32, ptr %i436, align 4
  %107 = load i32, ptr %nterms, align 4
  %cmp440 = icmp ult i32 %106, %107
  br i1 %cmp440, label %for.body441, label %for.end470

for.body441:                                      ; preds = %for.cond439
  %108 = load i32, ptr %i436, align 4
  %conv443 = zext i32 %108 to i64
  %call444 = call noundef nonnull align 8 dereferenceable(8) ptr @_ZNSt6vectorIN4cvc58internal12NodeTemplateILb1EEESaIS3_EEixEm(ptr noundef nonnull align 8 dereferenceable(24) %terms, i64 noundef %conv443) #3
  %call446 = call ptr @_ZNSt6vectorIN4cvc58internal12NodeTemplateILb1EEESaIS3_EE5beginEv(ptr noundef nonnull align 8 dereferenceable(24) %vars) #3
  %coerce.dive447 = getelementptr inbounds %"class.__gnu_cxx::__normal_iterator.41", ptr %agg.tmp445, i32 0, i32 0
  store ptr %call446, ptr %coerce.dive447, align 8
  %call449 = call ptr @_ZNSt6vectorIN4cvc58internal12NodeTemplateILb1EEESaIS3_EE3endEv(ptr noundef nonnull align 8 dereferenceable(24) %vars) #3
  %coerce.dive450 = getelementptr inbounds %"class.__gnu_cxx::__normal_iterator.41", ptr %agg.tmp448, i32 0, i32 0
  store ptr %call449, ptr %coerce.dive450, align 8
  %call452 = call ptr @_ZNSt6vectorIN4cvc58internal12NodeTemplateILb1EEESaIS3_EE5beginEv(ptr noundef nonnull align 8 dereferenceable(24) %vsubs) #3
  %coerce.dive453 = getelementptr inbounds %"class.__gnu_cxx::__normal_iterator.41", ptr %agg.tmp451, i32 0, i32 0
  store ptr %call452, ptr %coerce.dive453, align 8
  %call455 = call ptr @_ZNSt6vectorIN4cvc58internal12NodeTemplateILb1EEESaIS3_EE3endEv(ptr noundef nonnull align 8 dereferenceable(24) %vsubs) #3
  %coerce.dive456 = getelementptr inbounds %"class.__gnu_cxx::__normal_iterator.41", ptr %agg.tmp454, i32 0, i32 0
  store ptr %call455, ptr %coerce.dive456, align 8
  %coerce.dive457 = getelementptr inbounds %"class.__gnu_cxx::__normal_iterator.41", ptr %agg.tmp445, i32 0, i32 0
  %109 = load ptr, ptr %coerce.dive457, align 8
  %coerce.dive458 = getelementptr inbounds %"class.__gnu_cxx::__normal_iterator.41", ptr %agg.tmp448, i32 0, i32 0
  %110 = load ptr, ptr %coerce.dive458, align 8
  %coerce.dive459 = getelementptr inbounds %"class.__gnu_cxx::__normal_iterator.41", ptr %agg.tmp451, i32 0, i32 0
  %111 = load ptr, ptr %coerce.dive459, align 8
  %coerce.dive460 = getelementptr inbounds %"class.__gnu_cxx::__normal_iterator.41", ptr %agg.tmp454, i32 0, i32 0
  %112 = load ptr, ptr %coerce.dive460, align 8
  invoke void @_ZNK4cvc58internal12NodeTemplateILb1EE10substituteIN9__gnu_cxx17__normal_iteratorIPS2_St6vectorIS2_SaIS2_EEEESA_EES2_T_SB_T0_SC_(ptr sret(%"class.cvc5::internal::NodeTemplate.37") align 8 %ref.tmp442, ptr noundef nonnull align 8 dereferenceable(8) %call444, ptr %109, ptr %110, ptr %111, ptr %112)
          to label %invoke.cont461 unwind label %lpad423

invoke.cont461:                                   ; preds = %for.body441
  %113 = load i32, ptr %i436, align 4
  %conv462 = zext i32 %113 to i64
  %call463 = call noundef nonnull align 8 dereferenceable(8) ptr @_ZNSt6vectorIN4cvc58internal12NodeTemplateILb1EEESaIS3_EEixEm(ptr noundef nonnull align 8 dereferenceable(24) %terms, i64 noundef %conv462) #3
  %call466 = invoke noundef nonnull align 8 dereferenceable(8) ptr @_ZN4cvc58internal12NodeTemplateILb1EEaSERKS2_(ptr noundef nonnull align 8 dereferenceable(8) %call463, ptr noundef nonnull align 8 dereferenceable(8) %ref.tmp442)
          to label %invoke.cont465 unwind label %lpad464

invoke.cont465:                                   ; preds = %invoke.cont461
  call void @_ZN4cvc58internal12NodeTemplateILb1EED2Ev(ptr noundef nonnull align 8 dereferenceable(8) %ref.tmp442) #3
  br label %for.inc468

for.inc468:                                       ; preds = %invoke.cont465
  %114 = load i32, ptr %i436, align 4
  %inc469 = add i32 %114, 1
  store i32 %inc469, ptr %i436, align 4
  br label %for.cond439, !llvm.loop !7

lpad464:                                          ; preds = %invoke.cont461
  %115 = landingpad { ptr, i32 }
          cleanup
  %116 = extractvalue { ptr, i32 } %115, 0
  store ptr %116, ptr %exn.slot, align 8
  %117 = extractvalue { ptr, i32 } %115, 1
  store i32 %117, ptr %ehselector.slot, align 4
  call void @_ZN4cvc58internal12NodeTemplateILb1EED2Ev(ptr noundef nonnull align 8 dereferenceable(8) %ref.tmp442) #3
  br label %ehcleanup1442

for.end470:                                       ; preds = %for.cond439
  br label %if.end471

if.end471:                                        ; preds = %for.end470, %for.end433
  %call474 = invoke noundef zeroext i1 @_ZN4cvc58internal11__cvc5_truecvbEv(ptr noundef nonnull align 1 dereferenceable(1) %ref.tmp472)
          to label %invoke.cont473 unwind label %lpad423

invoke.cont473:                                   ; preds = %if.end471
  br i1 %call474, label %cond.true475, label %cond.false478

cond.true475:                                     ; preds = %invoke.cont473
  invoke void @_ZNK4cvc58internal5NullCcvNS0_11Cvc5ostreamEEv(ptr sret(%"class.cvc5::internal::Cvc5ostream") align 8 %tmp476, ptr noundef nonnull align 1 dereferenceable(1) @_ZN4cvc58internal10nullStreamE)
          to label %invoke.cont477 unwind label %lpad423

invoke.cont477:                                   ; preds = %cond.true475
  br label %cond.end486

cond.false478:                                    ; preds = %invoke.cont473
  invoke void @_ZNK4cvc58internal6TraceCclEv(ptr sret(%"class.cvc5::internal::Cvc5ostream") align 8 %ref.tmp480, ptr noundef nonnull align 8 dereferenceable(32) @_ZN4cvc58internal12TraceChannelE)
          to label %invoke.cont481 unwind label %lpad423

invoke.cont481:                                   ; preds = %cond.false478
  %call483 = invoke noundef nonnull align 8 dereferenceable(24) ptr @_ZN4cvc58internal11Cvc5ostreamlsIA13_cEERS1_RKT_(ptr noundef nonnull align 8 dereferenceable(24) %ref.tmp480, ptr noundef nonnull align 1 dereferenceable(13) @.str.7)
          to label %invoke.cont482 unwind label %lpad423

invoke.cont482:                                   ; preds = %invoke.cont481
  %call485 = invoke noundef nonnull align 8 dereferenceable(24) ptr @_ZN4cvc58internal11Cvc5ostreamlsEPFRSoS2_E(ptr noundef nonnull align 8 dereferenceable(24) %call483, ptr noundef @_ZSt4endlIcSt11char_traitsIcEERSt13basic_ostreamIT_T0_ES6_)
          to label %invoke.cont484 unwind label %lpad423

invoke.cont484:                                   ; preds = %invoke.cont482
  call void @llvm.memcpy.p0.p0.i64(ptr align 8 %agg.tmp.ensured479, ptr align 8 %call485, i64 24, i1 false)
  br label %cond.end486

cond.end486:                                      ; preds = %invoke.cont484, %invoke.cont477
  %call489 = invoke noundef zeroext i1 @_ZN4cvc58internal11__cvc5_truecvbEv(ptr noundef nonnull align 1 dereferenceable(1) %ref.tmp487)
          to label %invoke.cont488 unwind label %lpad423

invoke.cont488:                                   ; preds = %cond.end486
  br i1 %call489, label %cond.true490, label %cond.false493

cond.true490:                                     ; preds = %invoke.cont488
  invoke void @_ZNK4cvc58internal5NullCcvNS0_11Cvc5ostreamEEv(ptr sret(%"class.cvc5::internal::Cvc5ostream") align 8 %tmp491, ptr noundef nonnull align 1 dereferenceable(1) @_ZN4cvc58internal10nullStreamE)
          to label %invoke.cont492 unwind label %lpad423

invoke.cont492:                                   ; preds = %cond.true490
  br label %cond.end507

cond.false493:                                    ; preds = %invoke.cont488
  invoke void @_ZNK4cvc58internal6TraceCclEv(ptr sret(%"class.cvc5::internal::Cvc5ostream") align 8 %ref.tmp495, ptr noundef nonnull align 8 dereferenceable(32) @_ZN4cvc58internal12TraceChannelE)
          to label %invoke.cont496 unwind label %lpad423

invoke.cont496:                                   ; preds = %cond.false493
  %call498 = invoke noundef nonnull align 8 dereferenceable(24) ptr @_ZN4cvc58internal11Cvc5ostreamlsIA9_cEERS1_RKT_(ptr noundef nonnull align 8 dereferenceable(24) %ref.tmp495, ptr noundef nonnull align 1 dereferenceable(9) @.str.13)
          to label %invoke.cont497 unwind label %lpad423

invoke.cont497:                                   ; preds = %invoke.cont496
  %call500 = call noundef i64 @_ZNKSt6vectorIN4cvc58internal12NodeTemplateILb1EEESaIS3_EE4sizeEv(ptr noundef nonnull align 8 dereferenceable(24) %terms) #3
  store i64 %call500, ptr %ref.tmp499, align 8
  %call502 = invoke noundef nonnull align 8 dereferenceable(24) ptr @_ZN4cvc58internal11Cvc5ostreamlsImEERS1_RKT_(ptr noundef nonnull align 8 dereferenceable(24) %call498, ptr noundef nonnull align 8 dereferenceable(8) %ref.tmp499)
          to label %invoke.cont501 unwind label %lpad423

invoke.cont501:                                   ; preds = %invoke.cont497
  %call504 = invoke noundef nonnull align 8 dereferenceable(24) ptr @_ZN4cvc58internal11Cvc5ostreamlsIA13_cEERS1_RKT_(ptr noundef nonnull align 8 dereferenceable(24) %call502, ptr noundef nonnull align 1 dereferenceable(13) @.str.14)
          to label %invoke.cont503 unwind label %lpad423

invoke.cont503:                                   ; preds = %invoke.cont501
  %call506 = invoke noundef nonnull align 8 dereferenceable(24) ptr @_ZN4cvc58internal11Cvc5ostreamlsEPFRSoS2_E(ptr noundef nonnull align 8 dereferenceable(24) %call504, ptr noundef @_ZSt4endlIcSt11char_traitsIcEERSt13basic_ostreamIT_T0_ES6_)
          to label %invoke.cont505 unwind label %lpad423

invoke.cont505:                                   ; preds = %invoke.cont503
  call void @llvm.memcpy.p0.p0.i64(ptr align 8 %agg.tmp.ensured494, ptr align 8 %call506, i64 24, i1 false)
  br label %cond.end507

cond.end507:                                      ; preds = %invoke.cont505, %invoke.cont492
  call void @_ZNSt3mapIN4cvc58internal12NodeTemplateILb1EEES3_St4lessIS3_ESaISt4pairIKS3_S3_EEEC2Ev(ptr noundef nonnull align 8 dereferenceable(48) %term_to_cterm) #3
  call void @_ZNSt3mapIN4cvc58internal12NodeTemplateILb1EEES3_St4lessIS3_ESaISt4pairIKS3_S3_EEEC2Ev(ptr noundef nonnull align 8 dereferenceable(48) %cterm_to_term) #3
  call void @_ZNSt6vectorIN4cvc58internal12NodeTemplateILb1EEESaIS3_EEC2Ev(ptr noundef nonnull align 8 dereferenceable(24) %cterms) #3
  call void @_ZNSt3mapIN4cvc58internal8TypeNodeESt6vectorINS1_12NodeTemplateILb1EEESaIS5_EESt4lessIS2_ESaISt4pairIKS2_S7_EEEC2Ev(ptr noundef nonnull align 8 dereferenceable(48) %t_cterms) #3
  invoke void @_ZN4cvc58internal4expr12TermCanonizeC1EPNS1_17TypeClassCallbackE(ptr noundef nonnull align 8 dereferenceable(216) %tcanon, ptr noundef null)
          to label %invoke.cont509 unwind label %lpad508

invoke.cont509:                                   ; preds = %cond.end507
  store i32 0, ptr %i510, align 4
  %call512 = call noundef i64 @_ZNKSt6vectorIN4cvc58internal12NodeTemplateILb1EEESaIS3_EE4sizeEv(ptr noundef nonnull align 8 dereferenceable(24) %terms) #3
  %conv513 = trunc i64 %call512 to i32
  store i32 %conv513, ptr %nterms511, align 4
  br label %for.cond514

for.cond514:                                      ; preds = %for.inc576, %invoke.cont509
  %118 = load i32, ptr %i510, align 4
  %119 = load i32, ptr %nterms511, align 4
  %cmp515 = icmp ult i32 %118, %119
  br i1 %cmp515, label %for.body516, label %for.end578

for.body516:                                      ; preds = %for.cond514
  %120 = load i32, ptr %i510, align 4
  %conv517 = zext i32 %120 to i64
  %call518 = call noundef nonnull align 8 dereferenceable(8) ptr @_ZNSt6vectorIN4cvc58internal12NodeTemplateILb1EEESaIS3_EEixEm(ptr noundef nonnull align 8 dereferenceable(24) %terms, i64 noundef %conv517) #3
  invoke void @_ZN4cvc58internal12NodeTemplateILb1EEC2ERKS2_(ptr noundef nonnull align 8 dereferenceable(8) %n, ptr noundef nonnull align 8 dereferenceable(8) %call518)
          to label %invoke.cont520 unwind label %lpad519

invoke.cont520:                                   ; preds = %for.body516
  invoke void @_ZN4cvc58internal12NodeTemplateILb0EEC2ERKNS1_ILb1EEE(ptr noundef nonnull align 8 dereferenceable(8) %agg.tmp521, ptr noundef nonnull align 8 dereferenceable(8) %n)
          to label %invoke.cont523 unwind label %lpad522

invoke.cont523:                                   ; preds = %invoke.cont520
  invoke void @_ZN4cvc58internal4expr12TermCanonize16getCanonicalTermENS0_12NodeTemplateILb0EEEbb(ptr sret(%"class.cvc5::internal::NodeTemplate.37") align 8 %cn, ptr noundef nonnull align 8 dereferenceable(216) %tcanon, ptr noundef %agg.tmp521, i1 noundef zeroext false, i1 noundef zeroext true)
          to label %invoke.cont525 unwind label %lpad524

invoke.cont525:                                   ; preds = %invoke.cont523
  call void @_ZN4cvc58internal12NodeTemplateILb0EED2Ev(ptr noundef nonnull align 8 dereferenceable(8) %agg.tmp521) #3
  %call529 = invoke noundef nonnull align 8 dereferenceable(8) ptr @_ZNSt3mapIN4cvc58internal12NodeTemplateILb1EEES3_St4lessIS3_ESaISt4pairIKS3_S3_EEEixERS7_(ptr noundef nonnull align 8 dereferenceable(48) %term_to_cterm, ptr noundef nonnull align 8 dereferenceable(8) %n)
          to label %invoke.cont528 unwind label %lpad527

invoke.cont528:                                   ; preds = %invoke.cont525
  %call531 = invoke noundef nonnull align 8 dereferenceable(8) ptr @_ZN4cvc58internal12NodeTemplateILb1EEaSERKS2_(ptr noundef nonnull align 8 dereferenceable(8) %call529, ptr noundef nonnull align 8 dereferenceable(8) %cn)
          to label %invoke.cont530 unwind label %lpad527

invoke.cont530:                                   ; preds = %invoke.cont528
  %call534 = invoke noundef zeroext i1 @_ZN4cvc58internal11__cvc5_truecvbEv(ptr noundef nonnull align 1 dereferenceable(1) %ref.tmp532)
          to label %invoke.cont533 unwind label %lpad527

invoke.cont533:                                   ; preds = %invoke.cont530
  br i1 %call534, label %cond.true535, label %cond.false538

cond.true535:                                     ; preds = %invoke.cont533
  invoke void @_ZNK4cvc58internal5NullCcvNS0_11Cvc5ostreamEEv(ptr sret(%"class.cvc5::internal::Cvc5ostream") align 8 %tmp536, ptr noundef nonnull align 1 dereferenceable(1) @_ZN4cvc58internal10nullStreamE)
          to label %invoke.cont537 unwind label %lpad527

invoke.cont537:                                   ; preds = %cond.true535
  br label %cond.end552

cond.false538:                                    ; preds = %invoke.cont533
  invoke void @_ZNK4cvc58internal6TraceCclEv(ptr sret(%"class.cvc5::internal::Cvc5ostream") align 8 %ref.tmp540, ptr noundef nonnull align 8 dereferenceable(32) @_ZN4cvc58internal12TraceChannelE)
          to label %invoke.cont541 unwind label %lpad527

invoke.cont541:                                   ; preds = %cond.false538
  %call543 = invoke noundef nonnull align 8 dereferenceable(24) ptr @_ZN4cvc58internal11Cvc5ostreamlsIA9_cEERS1_RKT_(ptr noundef nonnull align 8 dereferenceable(24) %ref.tmp540, ptr noundef nonnull align 1 dereferenceable(9) @.str.15)
          to label %invoke.cont542 unwind label %lpad527

invoke.cont542:                                   ; preds = %invoke.cont541
  %call545 = invoke noundef nonnull align 8 dereferenceable(24) ptr @_ZN4cvc58internal11Cvc5ostreamlsINS0_12NodeTemplateILb1EEEEERS1_RKT_(ptr noundef nonnull align 8 dereferenceable(24) %call543, ptr noundef nonnull align 8 dereferenceable(8) %n)
          to label %invoke.cont544 unwind label %lpad527

invoke.cont544:                                   ; preds = %invoke.cont542
  %call547 = invoke noundef nonnull align 8 dereferenceable(24) ptr @_ZN4cvc58internal11Cvc5ostreamlsIA5_cEERS1_RKT_(ptr noundef nonnull align 8 dereferenceable(24) %call545, ptr noundef nonnull align 1 dereferenceable(5) @.str.16)
          to label %invoke.cont546 unwind label %lpad527

invoke.cont546:                                   ; preds = %invoke.cont544
  %call549 = invoke noundef nonnull align 8 dereferenceable(24) ptr @_ZN4cvc58internal11Cvc5ostreamlsINS0_12NodeTemplateILb1EEEEERS1_RKT_(ptr noundef nonnull align 8 dereferenceable(24) %call547, ptr noundef nonnull align 8 dereferenceable(8) %cn)
          to label %invoke.cont548 unwind label %lpad527

invoke.cont548:                                   ; preds = %invoke.cont546
  %call551 = invoke noundef nonnull align 8 dereferenceable(24) ptr @_ZN4cvc58internal11Cvc5ostreamlsEPFRSoS2_E(ptr noundef nonnull align 8 dereferenceable(24) %call549, ptr noundef @_ZSt4endlIcSt11char_traitsIcEERSt13basic_ostreamIT_T0_ES6_)
          to label %invoke.cont550 unwind label %lpad527

invoke.cont550:                                   ; preds = %invoke.cont548
  call void @llvm.memcpy.p0.p0.i64(ptr align 8 %agg.tmp.ensured539, ptr align 8 %call551, i64 24, i1 false)
  br label %cond.end552

cond.end552:                                      ; preds = %invoke.cont550, %invoke.cont537
  %call554 = invoke ptr @_ZNSt3mapIN4cvc58internal12NodeTemplateILb1EEES3_St4lessIS3_ESaISt4pairIKS3_S3_EEE4findERS7_(ptr noundef nonnull align 8 dereferenceable(48) %cterm_to_term, ptr noundef nonnull align 8 dereferenceable(8) %cn)
          to label %invoke.cont553 unwind label %lpad527

invoke.cont553:                                   ; preds = %cond.end552
  %coerce.dive555 = getelementptr inbounds %"struct.std::_Rb_tree_iterator.153", ptr %itc, i32 0, i32 0
  store ptr %call554, ptr %coerce.dive555, align 8
  %call557 = call ptr @_ZNSt3mapIN4cvc58internal12NodeTemplateILb1EEES3_St4lessIS3_ESaISt4pairIKS3_S3_EEE3endEv(ptr noundef nonnull align 8 dereferenceable(48) %cterm_to_term) #3
  %coerce.dive558 = getelementptr inbounds %"struct.std::_Rb_tree_iterator.153", ptr %ref.tmp556, i32 0, i32 0
  store ptr %call557, ptr %coerce.dive558, align 8
  %call559 = call noundef zeroext i1 @_ZSteqRKSt17_Rb_tree_iteratorISt4pairIKN4cvc58internal12NodeTemplateILb1EEES4_EES9_(ptr noundef nonnull align 8 dereferenceable(8) %itc, ptr noundef nonnull align 8 dereferenceable(8) %ref.tmp556) #3
  br i1 %call559, label %if.then560, label %if.end573

if.then560:                                       ; preds = %invoke.cont553
  %call562 = invoke noundef nonnull align 8 dereferenceable(8) ptr @_ZNSt3mapIN4cvc58internal12NodeTemplateILb1EEES3_St4lessIS3_ESaISt4pairIKS3_S3_EEEixERS7_(ptr noundef nonnull align 8 dereferenceable(48) %cterm_to_term, ptr noundef nonnull align 8 dereferenceable(8) %cn)
          to label %invoke.cont561 unwind label %lpad527

invoke.cont561:                                   ; preds = %if.then560
  %call564 = invoke noundef nonnull align 8 dereferenceable(8) ptr @_ZN4cvc58internal12NodeTemplateILb1EEaSERKS2_(ptr noundef nonnull align 8 dereferenceable(8) %call562, ptr noundef nonnull align 8 dereferenceable(8) %n)
          to label %invoke.cont563 unwind label %lpad527

invoke.cont563:                                   ; preds = %invoke.cont561
  invoke void @_ZNSt6vectorIN4cvc58internal12NodeTemplateILb1EEESaIS3_EE9push_backERKS3_(ptr noundef nonnull align 8 dereferenceable(24) %cterms, ptr noundef nonnull align 8 dereferenceable(8) %cn)
          to label %invoke.cont565 unwind label %lpad527

invoke.cont565:                                   ; preds = %invoke.cont563
  invoke void @_ZNK4cvc58internal12NodeTemplateILb1EE7getTypeEb(ptr sret(%"class.cvc5::internal::TypeNode") align 8 %ref.tmp566, ptr noundef nonnull align 8 dereferenceable(8) %cn, i1 noundef zeroext false)
          to label %invoke.cont567 unwind label %lpad527

invoke.cont567:                                   ; preds = %invoke.cont565
  %call570 = invoke noundef nonnull align 8 dereferenceable(24) ptr @_ZNSt3mapIN4cvc58internal8TypeNodeESt6vectorINS1_12NodeTemplateILb1EEESaIS5_EESt4lessIS2_ESaISt4pairIKS2_S7_EEEixEOS2_(ptr noundef nonnull align 8 dereferenceable(48) %t_cterms, ptr noundef nonnull align 8 dereferenceable(8) %ref.tmp566)
          to label %invoke.cont569 unwind label %lpad568

invoke.cont569:                                   ; preds = %invoke.cont567
  invoke void @_ZNSt6vectorIN4cvc58internal12NodeTemplateILb1EEESaIS3_EE9push_backERKS3_(ptr noundef nonnull align 8 dereferenceable(24) %call570, ptr noundef nonnull align 8 dereferenceable(8) %cn)
          to label %invoke.cont571 unwind label %lpad568

invoke.cont571:                                   ; preds = %invoke.cont569
  call void @_ZN4cvc58internal8TypeNodeD2Ev(ptr noundef nonnull align 8 dereferenceable(8) %ref.tmp566) #3
  br label %if.end573

lpad508:                                          ; preds = %cond.end507
  %121 = landingpad { ptr, i32 }
          cleanup
  %122 = extractvalue { ptr, i32 } %121, 0
  store ptr %122, ptr %exn.slot, align 8
  %123 = extractvalue { ptr, i32 } %121, 1
  store i32 %123, ptr %ehselector.slot, align 4
  br label %ehcleanup1434

lpad519:                                          ; preds = %cond.end593, %invoke.cont589, %invoke.cont588, %cond.false585, %cond.true582, %for.end578, %for.body516
  %124 = landingpad { ptr, i32 }
          cleanup
  %125 = extractvalue { ptr, i32 } %124, 0
  store ptr %125, ptr %exn.slot, align 8
  %126 = extractvalue { ptr, i32 } %124, 1
  store i32 %126, ptr %ehselector.slot, align 4
  br label %ehcleanup1432

lpad522:                                          ; preds = %invoke.cont520
  %127 = landingpad { ptr, i32 }
          cleanup
  %128 = extractvalue { ptr, i32 } %127, 0
  store ptr %128, ptr %exn.slot, align 8
  %129 = extractvalue { ptr, i32 } %127, 1
  store i32 %129, ptr %ehselector.slot, align 4
  br label %ehcleanup575

lpad524:                                          ; preds = %invoke.cont523
  %130 = landingpad { ptr, i32 }
          cleanup
  %131 = extractvalue { ptr, i32 } %130, 0
  store ptr %131, ptr %exn.slot, align 8
  %132 = extractvalue { ptr, i32 } %130, 1
  store i32 %132, ptr %ehselector.slot, align 4
  call void @_ZN4cvc58internal12NodeTemplateILb0EED2Ev(ptr noundef nonnull align 8 dereferenceable(8) %agg.tmp521) #3
  br label %ehcleanup575

lpad527:                                          ; preds = %invoke.cont565, %invoke.cont563, %invoke.cont561, %if.then560, %cond.end552, %invoke.cont548, %invoke.cont546, %invoke.cont544, %invoke.cont542, %invoke.cont541, %cond.false538, %cond.true535, %invoke.cont530, %invoke.cont528, %invoke.cont525
  %133 = landingpad { ptr, i32 }
          cleanup
  %134 = extractvalue { ptr, i32 } %133, 0
  store ptr %134, ptr %exn.slot, align 8
  %135 = extractvalue { ptr, i32 } %133, 1
  store i32 %135, ptr %ehselector.slot, align 4
  br label %ehcleanup574

lpad568:                                          ; preds = %invoke.cont569, %invoke.cont567
  %136 = landingpad { ptr, i32 }
          cleanup
  %137 = extractvalue { ptr, i32 } %136, 0
  store ptr %137, ptr %exn.slot, align 8
  %138 = extractvalue { ptr, i32 } %136, 1
  store i32 %138, ptr %ehselector.slot, align 4
  call void @_ZN4cvc58internal8TypeNodeD2Ev(ptr noundef nonnull align 8 dereferenceable(8) %ref.tmp566) #3
  br label %ehcleanup574

if.end573:                                        ; preds = %invoke.cont571, %invoke.cont553
  call void @_ZN4cvc58internal12NodeTemplateILb1EED2Ev(ptr noundef nonnull align 8 dereferenceable(8) %cn) #3
  call void @_ZN4cvc58internal12NodeTemplateILb1EED2Ev(ptr noundef nonnull align 8 dereferenceable(8) %n) #3
  br label %for.inc576

for.inc576:                                       ; preds = %if.end573
  %139 = load i32, ptr %i510, align 4
  %inc577 = add i32 %139, 1
  store i32 %inc577, ptr %i510, align 4
  br label %for.cond514, !llvm.loop !8

ehcleanup574:                                     ; preds = %lpad568, %lpad527
  call void @_ZN4cvc58internal12NodeTemplateILb1EED2Ev(ptr noundef nonnull align 8 dereferenceable(8) %cn) #3
  br label %ehcleanup575

ehcleanup575:                                     ; preds = %ehcleanup574, %lpad524, %lpad522
  call void @_ZN4cvc58internal12NodeTemplateILb1EED2Ev(ptr noundef nonnull align 8 dereferenceable(8) %n) #3
  br label %ehcleanup1432

for.end578:                                       ; preds = %for.cond514
  %call581 = invoke noundef zeroext i1 @_ZN4cvc58internal11__cvc5_truecvbEv(ptr noundef nonnull align 1 dereferenceable(1) %ref.tmp579)
          to label %invoke.cont580 unwind label %lpad519

invoke.cont580:                                   ; preds = %for.end578
  br i1 %call581, label %cond.true582, label %cond.false585

cond.true582:                                     ; preds = %invoke.cont580
  invoke void @_ZNK4cvc58internal5NullCcvNS0_11Cvc5ostreamEEv(ptr sret(%"class.cvc5::internal::Cvc5ostream") align 8 %tmp583, ptr noundef nonnull align 1 dereferenceable(1) @_ZN4cvc58internal10nullStreamE)
          to label %invoke.cont584 unwind label %lpad519

invoke.cont584:                                   ; preds = %cond.true582
  br label %cond.end593

cond.false585:                                    ; preds = %invoke.cont580
  invoke void @_ZNK4cvc58internal6TraceCclEv(ptr sret(%"class.cvc5::internal::Cvc5ostream") align 8 %ref.tmp587, ptr noundef nonnull align 8 dereferenceable(32) @_ZN4cvc58internal12TraceChannelE)
          to label %invoke.cont588 unwind label %lpad519

invoke.cont588:                                   ; preds = %cond.false585
  %call590 = invoke noundef nonnull align 8 dereferenceable(24) ptr @_ZN4cvc58internal11Cvc5ostreamlsIA13_cEERS1_RKT_(ptr noundef nonnull align 8 dereferenceable(24) %ref.tmp587, ptr noundef nonnull align 1 dereferenceable(13) @.str.7)
          to label %invoke.cont589 unwind label %lpad519

invoke.cont589:                                   ; preds = %invoke.cont588
  %call592 = invoke noundef nonnull align 8 dereferenceable(24) ptr @_ZN4cvc58internal11Cvc5ostreamlsEPFRSoS2_E(ptr noundef nonnull align 8 dereferenceable(24) %call590, ptr noundef @_ZSt4endlIcSt11char_traitsIcEERSt13basic_ostreamIT_T0_ES6_)
          to label %invoke.cont591 unwind label %lpad519

invoke.cont591:                                   ; preds = %invoke.cont589
  call void @llvm.memcpy.p0.p0.i64(ptr align 8 %agg.tmp.ensured586, ptr align 8 %call592, i64 24, i1 false)
  br label %cond.end593

cond.end593:                                      ; preds = %invoke.cont591, %invoke.cont584
  %140 = load ptr, ptr %nm, align 8
  invoke void @_ZN4cvc58internal11NodeManager6mkNodeILb1EEENS0_12NodeTemplateILb1EEENS0_4kind6Kind_tERKSt6vectorINS3_IXT_EEESaIS8_EE(ptr sret(%"class.cvc5::internal::NodeTemplate.37") align 8 %sygusVarList, ptr noundef nonnull align 8 dereferenceable(3360) %140, i32 noundef 356, ptr noundef nonnull align 8 dereferenceable(24) %allVars)
          to label %invoke.cont594 unwind label %lpad519

invoke.cont594:                                   ; preds = %cond.end593
  %call598 = invoke noundef zeroext i1 @_ZN4cvc58internal11__cvc5_truecvbEv(ptr noundef nonnull align 1 dereferenceable(1) %ref.tmp595)
          to label %invoke.cont597 unwind label %lpad596

invoke.cont597:                                   ; preds = %invoke.cont594
  br i1 %call598, label %cond.true599, label %cond.false602

cond.true599:                                     ; preds = %invoke.cont597
  invoke void @_ZNK4cvc58internal5NullCcvNS0_11Cvc5ostreamEEv(ptr sret(%"class.cvc5::internal::Cvc5ostream") align 8 %tmp600, ptr noundef nonnull align 1 dereferenceable(1) @_ZN4cvc58internal10nullStreamE)
          to label %invoke.cont601 unwind label %lpad596

invoke.cont601:                                   ; preds = %cond.true599
  br label %cond.end616

cond.false602:                                    ; preds = %invoke.cont597
  invoke void @_ZNK4cvc58internal6TraceCclEv(ptr sret(%"class.cvc5::internal::Cvc5ostream") align 8 %ref.tmp604, ptr noundef nonnull align 8 dereferenceable(32) @_ZN4cvc58internal12TraceChannelE)
          to label %invoke.cont605 unwind label %lpad596

invoke.cont605:                                   ; preds = %cond.false602
  %call607 = invoke noundef nonnull align 8 dereferenceable(24) ptr @_ZN4cvc58internal11Cvc5ostreamlsIA6_cEERS1_RKT_(ptr noundef nonnull align 8 dereferenceable(24) %ref.tmp604, ptr noundef nonnull align 1 dereferenceable(6) @.str.17)
          to label %invoke.cont606 unwind label %lpad596

invoke.cont606:                                   ; preds = %invoke.cont605
  %call609 = call noundef i64 @_ZNKSt6vectorIN4cvc58internal12NodeTemplateILb1EEESaIS3_EE4sizeEv(ptr noundef nonnull align 8 dereferenceable(24) %cterms) #3
  store i64 %call609, ptr %ref.tmp608, align 8
  %call611 = invoke noundef nonnull align 8 dereferenceable(24) ptr @_ZN4cvc58internal11Cvc5ostreamlsImEERS1_RKT_(ptr noundef nonnull align 8 dereferenceable(24) %call607, ptr noundef nonnull align 8 dereferenceable(8) %ref.tmp608)
          to label %invoke.cont610 unwind label %lpad596

invoke.cont610:                                   ; preds = %invoke.cont606
  %call613 = invoke noundef nonnull align 8 dereferenceable(24) ptr @_ZN4cvc58internal11Cvc5ostreamlsIA21_cEERS1_RKT_(ptr noundef nonnull align 8 dereferenceable(24) %call611, ptr noundef nonnull align 1 dereferenceable(21) @.str.18)
          to label %invoke.cont612 unwind label %lpad596

invoke.cont612:                                   ; preds = %invoke.cont610
  %call615 = invoke noundef nonnull align 8 dereferenceable(24) ptr @_ZN4cvc58internal11Cvc5ostreamlsEPFRSoS2_E(ptr noundef nonnull align 8 dereferenceable(24) %call613, ptr noundef @_ZSt4endlIcSt11char_traitsIcEERSt13basic_ostreamIT_T0_ES6_)
          to label %invoke.cont614 unwind label %lpad596

invoke.cont614:                                   ; preds = %invoke.cont612
  call void @llvm.memcpy.p0.p0.i64(ptr align 8 %agg.tmp.ensured603, ptr align 8 %call615, i64 24, i1 false)
  br label %cond.end616

cond.end616:                                      ; preds = %invoke.cont614, %invoke.cont601
  %call619 = invoke noundef zeroext i1 @_ZN4cvc58internal11__cvc5_truecvbEv(ptr noundef nonnull align 1 dereferenceable(1) %ref.tmp617)
          to label %invoke.cont618 unwind label %lpad596

invoke.cont618:                                   ; preds = %cond.end616
  br i1 %call619, label %cond.true620, label %cond.false623

cond.true620:                                     ; preds = %invoke.cont618
  invoke void @_ZNK4cvc58internal5NullCcvNS0_11Cvc5ostreamEEv(ptr sret(%"class.cvc5::internal::Cvc5ostream") align 8 %tmp621, ptr noundef nonnull align 1 dereferenceable(1) @_ZN4cvc58internal10nullStreamE)
          to label %invoke.cont622 unwind label %lpad596

invoke.cont622:                                   ; preds = %cond.true620
  br label %cond.end631

cond.false623:                                    ; preds = %invoke.cont618
  invoke void @_ZNK4cvc58internal6TraceCclEv(ptr sret(%"class.cvc5::internal::Cvc5ostream") align 8 %ref.tmp625, ptr noundef nonnull align 8 dereferenceable(32) @_ZN4cvc58internal12TraceChannelE)
          to label %invoke.cont626 unwind label %lpad596

invoke.cont626:                                   ; preds = %cond.false623
  %call628 = invoke noundef nonnull align 8 dereferenceable(24) ptr @_ZN4cvc58internal11Cvc5ostreamlsIA30_cEERS1_RKT_(ptr noundef nonnull align 8 dereferenceable(24) %ref.tmp625, ptr noundef nonnull align 1 dereferenceable(30) @.str.19)
          to label %invoke.cont627 unwind label %lpad596

invoke.cont627:                                   ; preds = %invoke.cont626
  %call630 = invoke noundef nonnull align 8 dereferenceable(24) ptr @_ZN4cvc58internal11Cvc5ostreamlsEPFRSoS2_E(ptr noundef nonnull align 8 dereferenceable(24) %call628, ptr noundef @_ZSt4endlIcSt11char_traitsIcEERSt13basic_ostreamIT_T0_ES6_)
          to label %invoke.cont629 unwind label %lpad596

invoke.cont629:                                   ; preds = %invoke.cont627
  call void @llvm.memcpy.p0.p0.i64(ptr align 8 %agg.tmp.ensured624, ptr align 8 %call630, i64 24, i1 false)
  br label %cond.end631

cond.end631:                                      ; preds = %invoke.cont629, %invoke.cont622
  call void @_ZNSt6vectorIN4cvc58internal13SygusDatatypeESaIS2_EEC2Ev(ptr noundef nonnull align 8 dereferenceable(24) %sdts) #3
  call void @_ZNSt3mapIN4cvc58internal12NodeTemplateILb1EEENS1_8TypeNodeESt4lessIS3_ESaISt4pairIKS3_S4_EEEC2Ev(ptr noundef nonnull align 8 dereferenceable(48) %cterm_to_utype) #3
  store i32 0, ptr %i632, align 4
  %call633 = call noundef i64 @_ZNKSt6vectorIN4cvc58internal12NodeTemplateILb1EEESaIS3_EE4sizeEv(ptr noundef nonnull align 8 dereferenceable(24) %cterms) #3
  %conv634 = trunc i64 %call633 to i32
  store i32 %conv634, ptr %ncterms, align 4
  br label %for.cond635

for.cond635:                                      ; preds = %for.inc667, %cond.end631
  %141 = load i32, ptr %i632, align 4
  %142 = load i32, ptr %ncterms, align 4
  %cmp636 = icmp ult i32 %141, %142
  br i1 %cmp636, label %for.body637, label %for.end669

for.body637:                                      ; preds = %for.cond635
  %143 = load i32, ptr %i632, align 4
  %conv638 = zext i32 %143 to i64
  %call639 = call noundef nonnull align 8 dereferenceable(8) ptr @_ZNSt6vectorIN4cvc58internal12NodeTemplateILb1EEESaIS3_EEixEm(ptr noundef nonnull align 8 dereferenceable(24) %cterms, i64 noundef %conv638) #3
  invoke void @_ZN4cvc58internal12NodeTemplateILb1EEC2ERKS2_(ptr noundef nonnull align 8 dereferenceable(8) %ct, ptr noundef nonnull align 8 dereferenceable(8) %call639)
          to label %invoke.cont641 unwind label %lpad640

invoke.cont641:                                   ; preds = %for.body637
  invoke void @_ZNSt7__cxx1118basic_stringstreamIcSt11char_traitsIcESaIcEEC1Ev(ptr noundef nonnull align 8 dereferenceable(128) %ss)
          to label %invoke.cont643 unwind label %lpad642

invoke.cont643:                                   ; preds = %invoke.cont641
  %add.ptr644 = getelementptr inbounds i8, ptr %ss, i64 16
  %call647 = invoke noundef nonnull align 8 dereferenceable(8) ptr @_ZStlsISt11char_traitsIcEERSt13basic_ostreamIcT_ES5_PKc(ptr noundef nonnull align 8 dereferenceable(8) %add.ptr644, ptr noundef @.str.20)
          to label %invoke.cont646 unwind label %lpad645

invoke.cont646:                                   ; preds = %invoke.cont643
  %144 = load i32, ptr %i632, align 4
  %call649 = invoke noundef nonnull align 8 dereferenceable(8) ptr @_ZNSolsEj(ptr noundef nonnull align 8 dereferenceable(8) %call647, i32 noundef %144)
          to label %invoke.cont648 unwind label %lpad645

invoke.cont648:                                   ; preds = %invoke.cont646
  invoke void @_ZNKSt7__cxx1118basic_stringstreamIcSt11char_traitsIcESaIcEE3strEv(ptr sret(%"class.std::__cxx11::basic_string") align 8 %tname, ptr noundef nonnull align 8 dereferenceable(128) %ss)
          to label %invoke.cont650 unwind label %lpad645

invoke.cont650:                                   ; preds = %invoke.cont648
  %145 = load ptr, ptr %nm, align 8
  invoke void @_ZN4cvc58internal11NodeManager24mkUnresolvedDatatypeSortERKNSt7__cxx1112basic_stringIcSt11char_traitsIcESaIcEEEm(ptr sret(%"class.cvc5::internal::TypeNode") align 8 %tnu, ptr noundef nonnull align 8 dereferenceable(3360) %145, ptr noundef nonnull align 8 dereferenceable(32) %tname, i64 noundef 0)
          to label %invoke.cont652 unwind label %lpad651

invoke.cont652:                                   ; preds = %invoke.cont650
  %call655 = invoke noundef nonnull align 8 dereferenceable(8) ptr @_ZNSt3mapIN4cvc58internal12NodeTemplateILb1EEENS1_8TypeNodeESt4lessIS3_ESaISt4pairIKS3_S4_EEEixERS8_(ptr noundef nonnull align 8 dereferenceable(48) %cterm_to_utype, ptr noundef nonnull align 8 dereferenceable(8) %ct)
          to label %invoke.cont654 unwind label %lpad653

invoke.cont654:                                   ; preds = %invoke.cont652
  %call657 = invoke noundef nonnull align 8 dereferenceable(8) ptr @_ZN4cvc58internal8TypeNodeaSERKS1_(ptr noundef nonnull align 8 dereferenceable(8) %call655, ptr noundef nonnull align 8 dereferenceable(8) %tnu)
          to label %invoke.cont656 unwind label %lpad653

invoke.cont656:                                   ; preds = %invoke.cont654
  invoke void @_ZN4cvc58internal13SygusDatatypeC1ERKNSt7__cxx1112basic_stringIcSt11char_traitsIcESaIcEEE(ptr noundef nonnull align 8 dereferenceable(472) %ref.tmp658, ptr noundef nonnull align 8 dereferenceable(32) %tname)
          to label %invoke.cont659 unwind label %lpad653

invoke.cont659:                                   ; preds = %invoke.cont656
  invoke void @_ZNSt6vectorIN4cvc58internal13SygusDatatypeESaIS2_EE9push_backEOS2_(ptr noundef nonnull align 8 dereferenceable(24) %sdts, ptr noundef nonnull align 8 dereferenceable(472) %ref.tmp658)
          to label %invoke.cont661 unwind label %lpad660

invoke.cont661:                                   ; preds = %invoke.cont659
  call void @_ZN4cvc58internal13SygusDatatypeD2Ev(ptr noundef nonnull align 8 dereferenceable(472) %ref.tmp658) #3
  call void @_ZN4cvc58internal8TypeNodeD2Ev(ptr noundef nonnull align 8 dereferenceable(8) %tnu) #3
  call void @_ZNSt7__cxx1112basic_stringIcSt11char_traitsIcESaIcEED1Ev(ptr noundef nonnull align 8 dereferenceable(32) %tname) #3
  call void @_ZNSt7__cxx1118basic_stringstreamIcSt11char_traitsIcESaIcEED1Ev(ptr noundef nonnull align 8 dereferenceable(128) %ss) #3
  call void @_ZN4cvc58internal12NodeTemplateILb1EED2Ev(ptr noundef nonnull align 8 dereferenceable(8) %ct) #3
  br label %for.inc667

for.inc667:                                       ; preds = %invoke.cont661
  %146 = load i32, ptr %i632, align 4
  %inc668 = add i32 %146, 1
  store i32 %inc668, ptr %i632, align 4
  br label %for.cond635, !llvm.loop !9

lpad596:                                          ; preds = %invoke.cont627, %invoke.cont626, %cond.false623, %cond.true620, %cond.end616, %invoke.cont612, %invoke.cont610, %invoke.cont606, %invoke.cont605, %cond.false602, %cond.true599, %invoke.cont594
  %147 = landingpad { ptr, i32 }
          cleanup
  %148 = extractvalue { ptr, i32 } %147, 0
  store ptr %148, ptr %exn.slot, align 8
  %149 = extractvalue { ptr, i32 } %147, 1
  store i32 %149, ptr %ehselector.slot, align 4
  br label %ehcleanup1430

lpad640:                                          ; preds = %invoke.cont1110, %invoke.cont1109, %cond.false1106, %cond.true1103, %cond.end1099, %invoke.cont1095, %invoke.cont1094, %cond.false1091, %cond.true1088, %for.end1084, %for.body706, %invoke.cont695, %invoke.cont694, %cond.false691, %cond.true688, %cond.end684, %invoke.cont680, %invoke.cont679, %cond.false676, %cond.true673, %for.end669, %for.body637
  %150 = landingpad { ptr, i32 }
          cleanup
  %151 = extractvalue { ptr, i32 } %150, 0
  store ptr %151, ptr %exn.slot, align 8
  %152 = extractvalue { ptr, i32 } %150, 1
  store i32 %152, ptr %ehselector.slot, align 4
  br label %ehcleanup1426

lpad642:                                          ; preds = %invoke.cont641
  %153 = landingpad { ptr, i32 }
          cleanup
  %154 = extractvalue { ptr, i32 } %153, 0
  store ptr %154, ptr %exn.slot, align 8
  %155 = extractvalue { ptr, i32 } %153, 1
  store i32 %155, ptr %ehselector.slot, align 4
  br label %ehcleanup666

lpad645:                                          ; preds = %invoke.cont648, %invoke.cont646, %invoke.cont643
  %156 = landingpad { ptr, i32 }
          cleanup
  %157 = extractvalue { ptr, i32 } %156, 0
  store ptr %157, ptr %exn.slot, align 8
  %158 = extractvalue { ptr, i32 } %156, 1
  store i32 %158, ptr %ehselector.slot, align 4
  br label %ehcleanup665

lpad651:                                          ; preds = %invoke.cont650
  %159 = landingpad { ptr, i32 }
          cleanup
  %160 = extractvalue { ptr, i32 } %159, 0
  store ptr %160, ptr %exn.slot, align 8
  %161 = extractvalue { ptr, i32 } %159, 1
  store i32 %161, ptr %ehselector.slot, align 4
  br label %ehcleanup664

lpad653:                                          ; preds = %invoke.cont656, %invoke.cont654, %invoke.cont652
  %162 = landingpad { ptr, i32 }
          cleanup
  %163 = extractvalue { ptr, i32 } %162, 0
  store ptr %163, ptr %exn.slot, align 8
  %164 = extractvalue { ptr, i32 } %162, 1
  store i32 %164, ptr %ehselector.slot, align 4
  br label %ehcleanup663

lpad660:                                          ; preds = %invoke.cont659
  %165 = landingpad { ptr, i32 }
          cleanup
  %166 = extractvalue { ptr, i32 } %165, 0
  store ptr %166, ptr %exn.slot, align 8
  %167 = extractvalue { ptr, i32 } %165, 1
  store i32 %167, ptr %ehselector.slot, align 4
  call void @_ZN4cvc58internal13SygusDatatypeD2Ev(ptr noundef nonnull align 8 dereferenceable(472) %ref.tmp658) #3
  br label %ehcleanup663

ehcleanup663:                                     ; preds = %lpad660, %lpad653
  call void @_ZN4cvc58internal8TypeNodeD2Ev(ptr noundef nonnull align 8 dereferenceable(8) %tnu) #3
  br label %ehcleanup664

ehcleanup664:                                     ; preds = %ehcleanup663, %lpad651
  call void @_ZNSt7__cxx1112basic_stringIcSt11char_traitsIcESaIcEED1Ev(ptr noundef nonnull align 8 dereferenceable(32) %tname) #3
  br label %ehcleanup665

ehcleanup665:                                     ; preds = %ehcleanup664, %lpad645
  call void @_ZNSt7__cxx1118basic_stringstreamIcSt11char_traitsIcESaIcEED1Ev(ptr noundef nonnull align 8 dereferenceable(128) %ss) #3
  br label %ehcleanup666

ehcleanup666:                                     ; preds = %ehcleanup665, %lpad642
  call void @_ZN4cvc58internal12NodeTemplateILb1EED2Ev(ptr noundef nonnull align 8 dereferenceable(8) %ct) #3
  br label %ehcleanup1426

for.end669:                                       ; preds = %for.cond635
  %call672 = invoke noundef zeroext i1 @_ZN4cvc58internal11__cvc5_truecvbEv(ptr noundef nonnull align 1 dereferenceable(1) %ref.tmp670)
          to label %invoke.cont671 unwind label %lpad640

invoke.cont671:                                   ; preds = %for.end669
  br i1 %call672, label %cond.true673, label %cond.false676

cond.true673:                                     ; preds = %invoke.cont671
  invoke void @_ZNK4cvc58internal5NullCcvNS0_11Cvc5ostreamEEv(ptr sret(%"class.cvc5::internal::Cvc5ostream") align 8 %tmp674, ptr noundef nonnull align 1 dereferenceable(1) @_ZN4cvc58internal10nullStreamE)
          to label %invoke.cont675 unwind label %lpad640

invoke.cont675:                                   ; preds = %cond.true673
  br label %cond.end684

cond.false676:                                    ; preds = %invoke.cont671
  invoke void @_ZNK4cvc58internal6TraceCclEv(ptr sret(%"class.cvc5::internal::Cvc5ostream") align 8 %ref.tmp678, ptr noundef nonnull align 8 dereferenceable(32) @_ZN4cvc58internal12TraceChannelE)
          to label %invoke.cont679 unwind label %lpad640

invoke.cont679:                                   ; preds = %cond.false676
  %call681 = invoke noundef nonnull align 8 dereferenceable(24) ptr @_ZN4cvc58internal11Cvc5ostreamlsIA13_cEERS1_RKT_(ptr noundef nonnull align 8 dereferenceable(24) %ref.tmp678, ptr noundef nonnull align 1 dereferenceable(13) @.str.7)
          to label %invoke.cont680 unwind label %lpad640

invoke.cont680:                                   ; preds = %invoke.cont679
  %call683 = invoke noundef nonnull align 8 dereferenceable(24) ptr @_ZN4cvc58internal11Cvc5ostreamlsEPFRSoS2_E(ptr noundef nonnull align 8 dereferenceable(24) %call681, ptr noundef @_ZSt4endlIcSt11char_traitsIcEERSt13basic_ostreamIT_T0_ES6_)
          to label %invoke.cont682 unwind label %lpad640

invoke.cont682:                                   ; preds = %invoke.cont680
  call void @llvm.memcpy.p0.p0.i64(ptr align 8 %agg.tmp.ensured677, ptr align 8 %call683, i64 24, i1 false)
  br label %cond.end684

cond.end684:                                      ; preds = %invoke.cont682, %invoke.cont675
  %call687 = invoke noundef zeroext i1 @_ZN4cvc58internal11__cvc5_truecvbEv(ptr noundef nonnull align 1 dereferenceable(1) %ref.tmp685)
          to label %invoke.cont686 unwind label %lpad640

invoke.cont686:                                   ; preds = %cond.end684
  br i1 %call687, label %cond.true688, label %cond.false691

cond.true688:                                     ; preds = %invoke.cont686
  invoke void @_ZNK4cvc58internal5NullCcvNS0_11Cvc5ostreamEEv(ptr sret(%"class.cvc5::internal::Cvc5ostream") align 8 %tmp689, ptr noundef nonnull align 1 dereferenceable(1) @_ZN4cvc58internal10nullStreamE)
          to label %invoke.cont690 unwind label %lpad640

invoke.cont690:                                   ; preds = %cond.true688
  br label %cond.end699

cond.false691:                                    ; preds = %invoke.cont686
  invoke void @_ZNK4cvc58internal6TraceCclEv(ptr sret(%"class.cvc5::internal::Cvc5ostream") align 8 %ref.tmp693, ptr noundef nonnull align 8 dereferenceable(32) @_ZN4cvc58internal12TraceChannelE)
          to label %invoke.cont694 unwind label %lpad640

invoke.cont694:                                   ; preds = %cond.false691
  %call696 = invoke noundef nonnull align 8 dereferenceable(24) ptr @_ZN4cvc58internal11Cvc5ostreamlsIA29_cEERS1_RKT_(ptr noundef nonnull align 8 dereferenceable(24) %ref.tmp693, ptr noundef nonnull align 1 dereferenceable(29) @.str.21)
          to label %invoke.cont695 unwind label %lpad640

invoke.cont695:                                   ; preds = %invoke.cont694
  %call698 = invoke noundef nonnull align 8 dereferenceable(24) ptr @_ZN4cvc58internal11Cvc5ostreamlsEPFRSoS2_E(ptr noundef nonnull align 8 dereferenceable(24) %call696, ptr noundef @_ZSt4endlIcSt11char_traitsIcEERSt13basic_ostreamIT_T0_ES6_)
          to label %invoke.cont697 unwind label %lpad640

invoke.cont697:                                   ; preds = %invoke.cont695
  call void @llvm.memcpy.p0.p0.i64(ptr align 8 %agg.tmp.ensured692, ptr align 8 %call698, i64 24, i1 false)
  br label %cond.end699

cond.end699:                                      ; preds = %invoke.cont697, %invoke.cont690
  store i32 0, ptr %i700, align 4
  %call702 = call noundef i64 @_ZNKSt6vectorIN4cvc58internal12NodeTemplateILb1EEESaIS3_EE4sizeEv(ptr noundef nonnull align 8 dereferenceable(24) %cterms) #3
  %conv703 = trunc i64 %call702 to i32
  store i32 %conv703, ptr %ncterms701, align 4
  br label %for.cond704

for.cond704:                                      ; preds = %for.inc1082, %cond.end699
  %168 = load i32, ptr %i700, align 4
  %169 = load i32, ptr %ncterms701, align 4
  %cmp705 = icmp ult i32 %168, %169
  br i1 %cmp705, label %for.body706, label %for.end1084

for.body706:                                      ; preds = %for.cond704
  %170 = load i32, ptr %i700, align 4
  %conv708 = zext i32 %170 to i64
  %call709 = call noundef nonnull align 8 dereferenceable(8) ptr @_ZNSt6vectorIN4cvc58internal12NodeTemplateILb1EEESaIS3_EEixEm(ptr noundef nonnull align 8 dereferenceable(24) %cterms, i64 noundef %conv708) #3
  invoke void @_ZN4cvc58internal12NodeTemplateILb1EEC2ERKS2_(ptr noundef nonnull align 8 dereferenceable(8) %ct707, ptr noundef nonnull align 8 dereferenceable(8) %call709)
          to label %invoke.cont710 unwind label %lpad640

invoke.cont710:                                   ; preds = %for.body706
  %call713 = invoke noundef nonnull align 8 dereferenceable(8) ptr @_ZNSt3mapIN4cvc58internal12NodeTemplateILb1EEES3_St4lessIS3_ESaISt4pairIKS3_S3_EEEixERS7_(ptr noundef nonnull align 8 dereferenceable(48) %cterm_to_term, ptr noundef nonnull align 8 dereferenceable(8) %ct707)
          to label %invoke.cont712 unwind label %lpad711

invoke.cont712:                                   ; preds = %invoke.cont710
  invoke void @_ZN4cvc58internal12NodeTemplateILb1EEC2ERKS2_(ptr noundef nonnull align 8 dereferenceable(8) %t, ptr noundef nonnull align 8 dereferenceable(8) %call713)
          to label %invoke.cont714 unwind label %lpad711

invoke.cont714:                                   ; preds = %invoke.cont712
  invoke void @_ZNK4cvc58internal12NodeTemplateILb1EE7getTypeEb(ptr sret(%"class.cvc5::internal::TypeNode") align 8 %ctt, ptr noundef nonnull align 8 dereferenceable(8) %ct707, i1 noundef zeroext false)
          to label %invoke.cont716 unwind label %lpad715

invoke.cont716:                                   ; preds = %invoke.cont714
  call void @_ZNSt6vectorIN4cvc58internal8TypeNodeESaIS2_EEC2Ev(ptr noundef nonnull align 8 dereferenceable(24) %argList) #3
  %call719 = invoke noundef zeroext i1 @_ZNK4cvc58internal8TypeNode9isBooleanEv(ptr noundef nonnull align 8 dereferenceable(8) %ctt)
          to label %invoke.cont718 unwind label %lpad717

invoke.cont718:                                   ; preds = %invoke.cont716
  br i1 %call719, label %lor.lhs.false, label %if.then723

lor.lhs.false:                                    ; preds = %invoke.cont718
  %call721 = invoke noundef i32 @_ZNK4cvc58internal12NodeTemplateILb1EE7getKindEv(ptr noundef nonnull align 8 dereferenceable(8) %ct707)
          to label %invoke.cont720 unwind label %lpad717

invoke.cont720:                                   ; preds = %lor.lhs.false
  %cmp722 = icmp eq i32 %call721, 8
  br i1 %cmp722, label %if.then723, label %if.end778

if.then723:                                       ; preds = %invoke.cont720, %invoke.cont718
  %call726 = invoke ptr @_ZNSt3mapIN4cvc58internal8TypeNodeESt6vectorINS1_12NodeTemplateILb1EEESaIS5_EESt4lessIS2_ESaISt4pairIKS2_S7_EEE4findERSB_(ptr noundef nonnull align 8 dereferenceable(48) %tvars, ptr noundef nonnull align 8 dereferenceable(8) %ctt)
          to label %invoke.cont725 unwind label %lpad717

invoke.cont725:                                   ; preds = %if.then723
  %coerce.dive727 = getelementptr inbounds %"struct.std::_Rb_tree_iterator.194", ptr %ref.tmp724, i32 0, i32 0
  store ptr %call726, ptr %coerce.dive727, align 8
  %call729 = call ptr @_ZNSt3mapIN4cvc58internal8TypeNodeESt6vectorINS1_12NodeTemplateILb1EEESaIS5_EESt4lessIS2_ESaISt4pairIKS2_S7_EEE3endEv(ptr noundef nonnull align 8 dereferenceable(48) %tvars) #3
  %coerce.dive730 = getelementptr inbounds %"struct.std::_Rb_tree_iterator.194", ptr %ref.tmp728, i32 0, i32 0
  store ptr %call729, ptr %coerce.dive730, align 8
  %call731 = call noundef zeroext i1 @_ZStneRKSt17_Rb_tree_iteratorISt4pairIKN4cvc58internal8TypeNodeESt6vectorINS2_12NodeTemplateILb1EEESaIS7_EEEESD_(ptr noundef nonnull align 8 dereferenceable(8) %ref.tmp724, ptr noundef nonnull align 8 dereferenceable(8) %ref.tmp728) #3
  br i1 %call731, label %if.then732, label %if.end777

if.then732:                                       ; preds = %invoke.cont725
  %call735 = invoke noundef nonnull align 8 dereferenceable(24) ptr @_ZNSt3mapIN4cvc58internal8TypeNodeESt6vectorINS1_12NodeTemplateILb1EEESaIS5_EESt4lessIS2_ESaISt4pairIKS2_S7_EEEixERSB_(ptr noundef nonnull align 8 dereferenceable(48) %tvars, ptr noundef nonnull align 8 dereferenceable(8) %ctt)
          to label %invoke.cont734 unwind label %lpad717

invoke.cont734:                                   ; preds = %if.then732
  store ptr %call735, ptr %__range6733, align 8
  %171 = load ptr, ptr %__range6733, align 8
  %call737 = call ptr @_ZNSt6vectorIN4cvc58internal12NodeTemplateILb1EEESaIS3_EE5beginEv(ptr noundef nonnull align 8 dereferenceable(24) %171) #3
  %coerce.dive738 = getelementptr inbounds %"class.__gnu_cxx::__normal_iterator.41", ptr %__begin6736, i32 0, i32 0
  store ptr %call737, ptr %coerce.dive738, align 8
  %172 = load ptr, ptr %__range6733, align 8
  %call740 = call ptr @_ZNSt6vectorIN4cvc58internal12NodeTemplateILb1EEESaIS3_EE3endEv(ptr noundef nonnull align 8 dereferenceable(24) %172) #3
  %coerce.dive741 = getelementptr inbounds %"class.__gnu_cxx::__normal_iterator.41", ptr %__end6739, i32 0, i32 0
  store ptr %call740, ptr %coerce.dive741, align 8
  br label %for.cond742

for.cond742:                                      ; preds = %for.inc774, %invoke.cont734
  %call743 = call noundef zeroext i1 @_ZN9__gnu_cxxneIPN4cvc58internal12NodeTemplateILb1EEESt6vectorIS4_SaIS4_EEEEbRKNS_17__normal_iteratorIT_T0_EESE_(ptr noundef nonnull align 8 dereferenceable(8) %__begin6736, ptr noundef nonnull align 8 dereferenceable(8) %__end6739) #3
  br i1 %call743, label %for.body744, label %for.end776

for.body744:                                      ; preds = %for.cond742
  %call746 = call noundef nonnull align 8 dereferenceable(8) ptr @_ZNK9__gnu_cxx17__normal_iteratorIPN4cvc58internal12NodeTemplateILb1EEESt6vectorIS4_SaIS4_EEEdeEv(ptr noundef nonnull align 8 dereferenceable(8) %__begin6736) #3
  store ptr %call746, ptr %v745, align 8
  invoke void @_ZNSt7__cxx1118basic_stringstreamIcSt11char_traitsIcESaIcEEC1Ev(ptr noundef nonnull align 8 dereferenceable(128) %ssc)
          to label %invoke.cont747 unwind label %lpad717

invoke.cont747:                                   ; preds = %for.body744
  %add.ptr748 = getelementptr inbounds i8, ptr %ssc, i64 16
  %call751 = invoke noundef nonnull align 8 dereferenceable(8) ptr @_ZStlsISt11char_traitsIcEERSt13basic_ostreamIcT_ES5_PKc(ptr noundef nonnull align 8 dereferenceable(8) %add.ptr748, ptr noundef @.str.22)
          to label %invoke.cont750 unwind label %lpad749

invoke.cont750:                                   ; preds = %invoke.cont747
  %173 = load i32, ptr %i700, align 4
  %call753 = invoke noundef nonnull align 8 dereferenceable(8) ptr @_ZNSolsEj(ptr noundef nonnull align 8 dereferenceable(8) %call751, i32 noundef %173)
          to label %invoke.cont752 unwind label %lpad749

invoke.cont752:                                   ; preds = %invoke.cont750
  %call755 = invoke noundef nonnull align 8 dereferenceable(8) ptr @_ZStlsISt11char_traitsIcEERSt13basic_ostreamIcT_ES5_PKc(ptr noundef nonnull align 8 dereferenceable(8) %call753, ptr noundef @.str.23)
          to label %invoke.cont754 unwind label %lpad749

invoke.cont754:                                   ; preds = %invoke.cont752
  %174 = load ptr, ptr %v745, align 8
  invoke void @_ZN4cvc58internal12NodeTemplateILb0EEC2ERKNS1_ILb1EEE(ptr noundef nonnull align 8 dereferenceable(8) %agg.tmp756, ptr noundef nonnull align 8 dereferenceable(8) %174)
          to label %invoke.cont757 unwind label %lpad749

invoke.cont757:                                   ; preds = %invoke.cont754
  %call760 = invoke noundef nonnull align 8 dereferenceable(8) ptr @_ZN4cvc58internallsERSoNS0_12NodeTemplateILb0EEE(ptr noundef nonnull align 8 dereferenceable(8) %call755, ptr noundef %agg.tmp756)
          to label %invoke.cont759 unwind label %lpad758

invoke.cont759:                                   ; preds = %invoke.cont757
  call void @_ZN4cvc58internal12NodeTemplateILb0EED2Ev(ptr noundef nonnull align 8 dereferenceable(8) %agg.tmp756) #3
  %175 = load i32, ptr %i700, align 4
  %conv762 = zext i32 %175 to i64
  %call763 = call noundef nonnull align 8 dereferenceable(472) ptr @_ZNSt6vectorIN4cvc58internal13SygusDatatypeESaIS2_EEixEm(ptr noundef nonnull align 8 dereferenceable(24) %sdts, i64 noundef %conv762) #3
  %176 = load ptr, ptr %v745, align 8
  invoke void @_ZN4cvc58internal12NodeTemplateILb1EEC2ERKS2_(ptr noundef nonnull align 8 dereferenceable(8) %agg.tmp764, ptr noundef nonnull align 8 dereferenceable(8) %176)
          to label %invoke.cont765 unwind label %lpad749

invoke.cont765:                                   ; preds = %invoke.cont759
  invoke void @_ZNKSt7__cxx1118basic_stringstreamIcSt11char_traitsIcESaIcEE3strEv(ptr sret(%"class.std::__cxx11::basic_string") align 8 %ref.tmp766, ptr noundef nonnull align 8 dereferenceable(128) %ssc)
          to label %invoke.cont768 unwind label %lpad767

invoke.cont768:                                   ; preds = %invoke.cont765
  invoke void @_ZN4cvc58internal13SygusDatatype14addConstructorENS0_12NodeTemplateILb1EEERKNSt7__cxx1112basic_stringIcSt11char_traitsIcESaIcEEERKSt6vectorINS0_8TypeNodeESaISD_EEi(ptr noundef nonnull align 8 dereferenceable(472) %call763, ptr noundef %agg.tmp764, ptr noundef nonnull align 8 dereferenceable(32) %ref.tmp766, ptr noundef nonnull align 8 dereferenceable(24) %argList, i32 noundef -1)
          to label %invoke.cont770 unwind label %lpad769

invoke.cont770:                                   ; preds = %invoke.cont768
  call void @_ZNSt7__cxx1112basic_stringIcSt11char_traitsIcESaIcEED1Ev(ptr noundef nonnull align 8 dereferenceable(32) %ref.tmp766) #3
  call void @_ZN4cvc58internal12NodeTemplateILb1EED2Ev(ptr noundef nonnull align 8 dereferenceable(8) %agg.tmp764) #3
  call void @_ZNSt7__cxx1118basic_stringstreamIcSt11char_traitsIcESaIcEED1Ev(ptr noundef nonnull align 8 dereferenceable(128) %ssc) #3
  br label %for.inc774

for.inc774:                                       ; preds = %invoke.cont770
  %call775 = call noundef nonnull align 8 dereferenceable(8) ptr @_ZN9__gnu_cxx17__normal_iteratorIPN4cvc58internal12NodeTemplateILb1EEESt6vectorIS4_SaIS4_EEEppEv(ptr noundef nonnull align 8 dereferenceable(8) %__begin6736) #3
  br label %for.cond742

lpad711:                                          ; preds = %invoke.cont712, %invoke.cont710
  %177 = landingpad { ptr, i32 }
          cleanup
  %178 = extractvalue { ptr, i32 } %177, 0
  store ptr %178, ptr %exn.slot, align 8
  %179 = extractvalue { ptr, i32 } %177, 1
  store i32 %179, ptr %ehselector.slot, align 4
  br label %ehcleanup1081

lpad715:                                          ; preds = %invoke.cont714
  %180 = landingpad { ptr, i32 }
          cleanup
  %181 = extractvalue { ptr, i32 } %180, 0
  store ptr %181, ptr %exn.slot, align 8
  %182 = extractvalue { ptr, i32 } %180, 1
  store i32 %182, ptr %ehselector.slot, align 4
  br label %ehcleanup1080

lpad717:                                          ; preds = %if.end1066, %cond.false789, %cond.true787, %land.lhs.true, %if.then781, %if.end778, %for.body744, %if.then732, %if.then723, %lor.lhs.false, %invoke.cont716
  %183 = landingpad { ptr, i32 }
          cleanup
  %184 = extractvalue { ptr, i32 } %183, 0
  store ptr %184, ptr %exn.slot, align 8
  %185 = extractvalue { ptr, i32 } %183, 1
  store i32 %185, ptr %ehselector.slot, align 4
  br label %ehcleanup1078

lpad749:                                          ; preds = %invoke.cont759, %invoke.cont754, %invoke.cont752, %invoke.cont750, %invoke.cont747
  %186 = landingpad { ptr, i32 }
          cleanup
  %187 = extractvalue { ptr, i32 } %186, 0
  store ptr %187, ptr %exn.slot, align 8
  %188 = extractvalue { ptr, i32 } %186, 1
  store i32 %188, ptr %ehselector.slot, align 4
  br label %ehcleanup773

lpad758:                                          ; preds = %invoke.cont757
  %189 = landingpad { ptr, i32 }
          cleanup
  %190 = extractvalue { ptr, i32 } %189, 0
  store ptr %190, ptr %exn.slot, align 8
  %191 = extractvalue { ptr, i32 } %189, 1
  store i32 %191, ptr %ehselector.slot, align 4
  call void @_ZN4cvc58internal12NodeTemplateILb0EED2Ev(ptr noundef nonnull align 8 dereferenceable(8) %agg.tmp756) #3
  br label %ehcleanup773

lpad767:                                          ; preds = %invoke.cont765
  %192 = landingpad { ptr, i32 }
          cleanup
  %193 = extractvalue { ptr, i32 } %192, 0
  store ptr %193, ptr %exn.slot, align 8
  %194 = extractvalue { ptr, i32 } %192, 1
  store i32 %194, ptr %ehselector.slot, align 4
  br label %ehcleanup772

lpad769:                                          ; preds = %invoke.cont768
  %195 = landingpad { ptr, i32 }
          cleanup
  %196 = extractvalue { ptr, i32 } %195, 0
  store ptr %196, ptr %exn.slot, align 8
  %197 = extractvalue { ptr, i32 } %195, 1
  store i32 %197, ptr %ehselector.slot, align 4
  call void @_ZNSt7__cxx1112basic_stringIcSt11char_traitsIcESaIcEED1Ev(ptr noundef nonnull align 8 dereferenceable(32) %ref.tmp766) #3
  br label %ehcleanup772

ehcleanup772:                                     ; preds = %lpad769, %lpad767
  call void @_ZN4cvc58internal12NodeTemplateILb1EED2Ev(ptr noundef nonnull align 8 dereferenceable(8) %agg.tmp764) #3
  br label %ehcleanup773

ehcleanup773:                                     ; preds = %ehcleanup772, %lpad758, %lpad749
  call void @_ZNSt7__cxx1118basic_stringstreamIcSt11char_traitsIcESaIcEED1Ev(ptr noundef nonnull align 8 dereferenceable(128) %ssc) #3
  br label %ehcleanup1078

for.end776:                                       ; preds = %for.cond742
  br label %if.end777

if.end777:                                        ; preds = %for.end776, %invoke.cont725
  br label %if.end778

if.end778:                                        ; preds = %if.end777, %invoke.cont720
  %call780 = invoke noundef zeroext i1 @_ZNK4cvc58internal12NodeTemplateILb1EE5isVarEv(ptr noundef nonnull align 8 dereferenceable(8) %ct707)
          to label %invoke.cont779 unwind label %lpad717

invoke.cont779:                                   ; preds = %if.end778
  br i1 %call780, label %if.end1066, label %if.then781

if.then781:                                       ; preds = %invoke.cont779
  %call783 = invoke noundef i64 @_ZNK4cvc58internal12NodeTemplateILb1EE14getNumChildrenEv(ptr noundef nonnull align 8 dereferenceable(8) %ct707)
          to label %invoke.cont782 unwind label %lpad717

invoke.cont782:                                   ; preds = %if.then781
  %cmp784 = icmp ugt i64 %call783, 0
  br i1 %cmp784, label %land.lhs.true, label %cond.false789

land.lhs.true:                                    ; preds = %invoke.cont782
  %call786 = invoke noundef zeroext i1 @_ZNK4cvc58internal12NodeTemplateILb1EE11hasOperatorEv(ptr noundef nonnull align 8 dereferenceable(8) %ct707)
          to label %invoke.cont785 unwind label %lpad717

invoke.cont785:                                   ; preds = %land.lhs.true
  br i1 %call786, label %cond.true787, label %cond.false789

cond.true787:                                     ; preds = %invoke.cont785
  invoke void @_ZNK4cvc58internal12NodeTemplateILb1EE11getOperatorEv(ptr sret(%"class.cvc5::internal::NodeTemplate.37") align 8 %op, ptr noundef nonnull align 8 dereferenceable(8) %ct707)
          to label %invoke.cont788 unwind label %lpad717

invoke.cont788:                                   ; preds = %cond.true787
  br label %cond.end791

cond.false789:                                    ; preds = %invoke.cont785, %invoke.cont782
  invoke void @_ZN4cvc58internal12NodeTemplateILb1EEC2ERKS2_(ptr noundef nonnull align 8 dereferenceable(8) %op, ptr noundef nonnull align 8 dereferenceable(8) %ct707)
          to label %invoke.cont790 unwind label %lpad717

invoke.cont790:                                   ; preds = %cond.false789
  br label %cond.end791

cond.end791:                                      ; preds = %invoke.cont790, %invoke.cont788
  store ptr %t, ptr %__range5, align 8
  %198 = load ptr, ptr %__range5, align 8
  %call794 = invoke ptr @_ZN4cvc58internal12NodeTemplateILb1EE5beginEv(ptr noundef nonnull align 8 dereferenceable(8) %198)
          to label %invoke.cont793 unwind label %lpad792

invoke.cont793:                                   ; preds = %cond.end791
  %coerce.dive795 = getelementptr inbounds %"class.cvc5::internal::expr::NodeValue::iterator.195", ptr %__begin5, i32 0, i32 0
  store ptr %call794, ptr %coerce.dive795, align 8
  %199 = load ptr, ptr %__range5, align 8
  %call797 = invoke ptr @_ZN4cvc58internal12NodeTemplateILb1EE3endEv(ptr noundef nonnull align 8 dereferenceable(8) %199)
          to label %invoke.cont796 unwind label %lpad792

invoke.cont796:                                   ; preds = %invoke.cont793
  %coerce.dive798 = getelementptr inbounds %"class.cvc5::internal::expr::NodeValue::iterator.195", ptr %__end5, i32 0, i32 0
  store ptr %call797, ptr %coerce.dive798, align 8
  br label %for.cond799

for.cond799:                                      ; preds = %invoke.cont816, %invoke.cont796
  %call801 = invoke noundef zeroext i1 @_ZNK4cvc58internal4expr9NodeValue8iteratorINS0_12NodeTemplateILb1EEEEneERKS6_(ptr noundef nonnull align 8 dereferenceable(8) %__begin5, ptr noundef nonnull align 8 dereferenceable(8) %__end5)
          to label %invoke.cont800 unwind label %lpad792

invoke.cont800:                                   ; preds = %for.cond799
  br i1 %call801, label %for.body802, label %for.end818

for.body802:                                      ; preds = %invoke.cont800
  invoke void @_ZNK4cvc58internal4expr9NodeValue8iteratorINS0_12NodeTemplateILb1EEEEdeEv(ptr sret(%"class.cvc5::internal::NodeTemplate.37") align 8 %ref.tmp803, ptr noundef nonnull align 8 dereferenceable(8) %__begin5)
          to label %invoke.cont804 unwind label %lpad792

invoke.cont804:                                   ; preds = %for.body802
  store ptr %ref.tmp803, ptr %tc, align 8
  %200 = load ptr, ptr %tc, align 8
  %call807 = invoke noundef nonnull align 8 dereferenceable(8) ptr @_ZNSt3mapIN4cvc58internal12NodeTemplateILb1EEES3_St4lessIS3_ESaISt4pairIKS3_S3_EEEixERS7_(ptr noundef nonnull align 8 dereferenceable(48) %term_to_cterm, ptr noundef nonnull align 8 dereferenceable(8) %200)
          to label %invoke.cont806 unwind label %lpad805

invoke.cont806:                                   ; preds = %invoke.cont804
  invoke void @_ZN4cvc58internal12NodeTemplateILb1EEC2ERKS2_(ptr noundef nonnull align 8 dereferenceable(8) %ctc, ptr noundef nonnull align 8 dereferenceable(8) %call807)
          to label %invoke.cont808 unwind label %lpad805

invoke.cont808:                                   ; preds = %invoke.cont806
  %call811 = invoke noundef nonnull align 8 dereferenceable(8) ptr @_ZNSt3mapIN4cvc58internal12NodeTemplateILb1EEENS1_8TypeNodeESt4lessIS3_ESaISt4pairIKS3_S4_EEEixERS8_(ptr noundef nonnull align 8 dereferenceable(48) %cterm_to_utype, ptr noundef nonnull align 8 dereferenceable(8) %ctc)
          to label %invoke.cont810 unwind label %lpad809

invoke.cont810:                                   ; preds = %invoke.cont808
  invoke void @_ZNSt6vectorIN4cvc58internal8TypeNodeESaIS2_EE9push_backERKS2_(ptr noundef nonnull align 8 dereferenceable(24) %argList, ptr noundef nonnull align 8 dereferenceable(8) %call811)
          to label %invoke.cont812 unwind label %lpad809

invoke.cont812:                                   ; preds = %invoke.cont810
  call void @_ZN4cvc58internal12NodeTemplateILb1EED2Ev(ptr noundef nonnull align 8 dereferenceable(8) %ctc) #3
  call void @_ZN4cvc58internal12NodeTemplateILb1EED2Ev(ptr noundef nonnull align 8 dereferenceable(8) %ref.tmp803) #3
  br label %for.inc815

for.inc815:                                       ; preds = %invoke.cont812
  %call817 = invoke noundef nonnull align 8 dereferenceable(8) ptr @_ZN4cvc58internal4expr9NodeValue8iteratorINS0_12NodeTemplateILb1EEEEppEv(ptr noundef nonnull align 8 dereferenceable(8) %__begin5)
          to label %invoke.cont816 unwind label %lpad792

invoke.cont816:                                   ; preds = %for.inc815
  br label %for.cond799

lpad792:                                          ; preds = %if.else1003, %if.then834, %land.rhs, %land.lhs.true827, %for.end818, %for.inc815, %for.body802, %for.cond799, %invoke.cont793, %cond.end791
  %201 = landingpad { ptr, i32 }
          cleanup
  %202 = extractvalue { ptr, i32 } %201, 0
  store ptr %202, ptr %exn.slot, align 8
  %203 = extractvalue { ptr, i32 } %201, 1
  store i32 %203, ptr %ehselector.slot, align 4
  br label %ehcleanup1065

lpad805:                                          ; preds = %invoke.cont806, %invoke.cont804
  %204 = landingpad { ptr, i32 }
          cleanup
  %205 = extractvalue { ptr, i32 } %204, 0
  store ptr %205, ptr %exn.slot, align 8
  %206 = extractvalue { ptr, i32 } %204, 1
  store i32 %206, ptr %ehselector.slot, align 4
  br label %ehcleanup814

lpad809:                                          ; preds = %invoke.cont810, %invoke.cont808
  %207 = landingpad { ptr, i32 }
          cleanup
  %208 = extractvalue { ptr, i32 } %207, 0
  store ptr %208, ptr %exn.slot, align 8
  %209 = extractvalue { ptr, i32 } %207, 1
  store i32 %209, ptr %ehselector.slot, align 4
  call void @_ZN4cvc58internal12NodeTemplateILb1EED2Ev(ptr noundef nonnull align 8 dereferenceable(8) %ctc) #3
  br label %ehcleanup814

ehcleanup814:                                     ; preds = %lpad809, %lpad805
  call void @_ZN4cvc58internal12NodeTemplateILb1EED2Ev(ptr noundef nonnull align 8 dereferenceable(8) %ref.tmp803) #3
  br label %ehcleanup1065

for.end818:                                       ; preds = %invoke.cont800
  invoke void @_ZN4cvc58internal12NodeTemplateILb0EEC2ERKNS1_ILb1EEE(ptr noundef nonnull align 8 dereferenceable(8) %agg.tmp819, ptr noundef nonnull align 8 dereferenceable(8) %op)
          to label %invoke.cont820 unwind label %lpad792

invoke.cont820:                                   ; preds = %for.end818
  %call823 = invoke noundef i32 @_ZN4cvc58internal11NodeManager14operatorToKindENS0_12NodeTemplateILb0EEE(ptr noundef %agg.tmp819)
          to label %invoke.cont822 unwind label %lpad821

invoke.cont822:                                   ; preds = %invoke.cont820
  call void @_ZN4cvc58internal12NodeTemplateILb0EED2Ev(ptr noundef nonnull align 8 dereferenceable(8) %agg.tmp819) #3
  store i32 %call823, ptr %k, align 4
  %call825 = call noundef i64 @_ZNKSt6vectorIN4cvc58internal8TypeNodeESaIS2_EE4sizeEv(ptr noundef nonnull align 8 dereferenceable(24) %argList) #3
  %cmp826 = icmp ugt i64 %call825, 2
  br i1 %cmp826, label %land.lhs.true827, label %land.end

land.lhs.true827:                                 ; preds = %invoke.cont822
  %210 = load i32, ptr %k, align 4
  %call829 = invoke noundef zeroext i1 @_ZN4cvc58internal6theory11quantifiers8TermUtil7isAssocENS0_4kind6Kind_tEb(i32 noundef %210, i1 noundef zeroext false)
          to label %invoke.cont828 unwind label %lpad792

invoke.cont828:                                   ; preds = %land.lhs.true827
  br i1 %call829, label %land.rhs, label %land.end

land.rhs:                                         ; preds = %invoke.cont828
  %211 = load i32, ptr %k, align 4
  %call831 = invoke noundef zeroext i1 @_ZN4cvc58internal6theory11quantifiers8TermUtil6isCommENS0_4kind6Kind_tEb(i32 noundef %211, i1 noundef zeroext false)
          to label %invoke.cont830 unwind label %lpad792

invoke.cont830:                                   ; preds = %land.rhs
  br label %land.end

land.end:                                         ; preds = %invoke.cont830, %invoke.cont828, %invoke.cont822
  %212 = phi i1 [ false, %invoke.cont828 ], [ false, %invoke.cont822 ], [ %call831, %invoke.cont830 ]
  %frombool832 = zext i1 %212 to i8
  store i8 %frombool832, ptr %do_chain, align 1
  %213 = load i8, ptr %do_chain, align 1
  %tobool833 = trunc i8 %213 to i1
  br i1 %tobool833, label %if.then834, label %if.else1003

if.then834:                                       ; preds = %land.end
  %call836 = call ptr @_ZNSt6vectorIN4cvc58internal8TypeNodeESaIS2_EE5beginEv(ptr noundef nonnull align 8 dereferenceable(24) %argList) #3
  %coerce.dive837 = getelementptr inbounds %"class.__gnu_cxx::__normal_iterator.200", ptr %agg.tmp835, i32 0, i32 0
  store ptr %call836, ptr %coerce.dive837, align 8
  %call839 = call ptr @_ZNSt6vectorIN4cvc58internal8TypeNodeESaIS2_EE3endEv(ptr noundef nonnull align 8 dereferenceable(24) %argList) #3
  %coerce.dive840 = getelementptr inbounds %"class.__gnu_cxx::__normal_iterator.200", ptr %agg.tmp838, i32 0, i32 0
  store ptr %call839, ptr %coerce.dive840, align 8
  %coerce.dive841 = getelementptr inbounds %"class.__gnu_cxx::__normal_iterator.200", ptr %agg.tmp835, i32 0, i32 0
  %214 = load ptr, ptr %coerce.dive841, align 8
  %coerce.dive842 = getelementptr inbounds %"class.__gnu_cxx::__normal_iterator.200", ptr %agg.tmp838, i32 0, i32 0
  %215 = load ptr, ptr %coerce.dive842, align 8
  invoke void @_ZNSt3setIN4cvc58internal8TypeNodeESt4lessIS2_ESaIS2_EEC2IN9__gnu_cxx17__normal_iteratorIPS2_St6vectorIS2_S5_EEEEET_SE_(ptr noundef nonnull align 8 dereferenceable(48) %argSet, ptr %214, ptr %215)
          to label %invoke.cont843 unwind label %lpad792

invoke.cont843:                                   ; preds = %if.then834
  %216 = load ptr, ptr %nm, align 8
  invoke void @_ZN4cvc58internal11NodeManager10mkBoundVarERKNS0_8TypeNodeE(ptr sret(%"class.cvc5::internal::NodeTemplate.37") align 8 %tbv, ptr noundef nonnull align 8 dereferenceable(3360) %216, ptr noundef nonnull align 8 dereferenceable(8) %ctt)
          to label %invoke.cont845 unwind label %lpad844

invoke.cont845:                                   ; preds = %invoke.cont843
  %217 = load ptr, ptr %nm, align 8
  %218 = load ptr, ptr %nm, align 8
  invoke void @_ZN4cvc58internal12NodeTemplateILb0EEC2ERKNS1_ILb1EEE(ptr noundef nonnull align 8 dereferenceable(8) %agg.tmp848, ptr noundef nonnull align 8 dereferenceable(8) %tbv)
          to label %invoke.cont850 unwind label %lpad849

invoke.cont850:                                   ; preds = %invoke.cont845
  invoke void @_ZN4cvc58internal11NodeManager6mkNodeENS0_4kind6Kind_tENS0_12NodeTemplateILb0EEE(ptr sret(%"class.cvc5::internal::NodeTemplate.37") align 8 %ref.tmp847, ptr noundef nonnull align 8 dereferenceable(3360) %218, i32 noundef 356, ptr noundef %agg.tmp848)
          to label %invoke.cont852 unwind label %lpad851

invoke.cont852:                                   ; preds = %invoke.cont850
  invoke void @_ZN4cvc58internal12NodeTemplateILb0EEC2ERKNS1_ILb1EEE(ptr noundef nonnull align 8 dereferenceable(8) %agg.tmp846, ptr noundef nonnull align 8 dereferenceable(8) %ref.tmp847)
          to label %invoke.cont854 unwind label %lpad853

invoke.cont854:                                   ; preds = %invoke.cont852
  invoke void @_ZN4cvc58internal12NodeTemplateILb0EEC2ERKNS1_ILb1EEE(ptr noundef nonnull align 8 dereferenceable(8) %agg.tmp855, ptr noundef nonnull align 8 dereferenceable(8) %tbv)
          to label %invoke.cont857 unwind label %lpad856

invoke.cont857:                                   ; preds = %invoke.cont854
  invoke void @_ZN4cvc58internal11NodeManager6mkNodeENS0_4kind6Kind_tENS0_12NodeTemplateILb0EEES5_(ptr sret(%"class.cvc5::internal::NodeTemplate.37") align 8 %lambdaOp, ptr noundef nonnull align 8 dereferenceable(3360) %217, i32 noundef 26, ptr noundef %agg.tmp846, ptr noundef %agg.tmp855)
          to label %invoke.cont859 unwind label %lpad858

invoke.cont859:                                   ; preds = %invoke.cont857
  call void @_ZN4cvc58internal12NodeTemplateILb0EED2Ev(ptr noundef nonnull align 8 dereferenceable(8) %agg.tmp855) #3
  call void @_ZN4cvc58internal12NodeTemplateILb0EED2Ev(ptr noundef nonnull align 8 dereferenceable(8) %agg.tmp846) #3
  call void @_ZN4cvc58internal12NodeTemplateILb1EED2Ev(ptr noundef nonnull align 8 dereferenceable(8) %ref.tmp847) #3
  call void @_ZN4cvc58internal12NodeTemplateILb0EED2Ev(ptr noundef nonnull align 8 dereferenceable(8) %agg.tmp848) #3
  call void @_ZNSt6vectorIN4cvc58internal8TypeNodeESaIS2_EEC2Ev(ptr noundef nonnull align 8 dereferenceable(24) %argListc) #3
  store i64 0, ptr %j, align 8
  store ptr %argSet, ptr %__range6864, align 8
  %219 = load ptr, ptr %__range6864, align 8
  %call866 = call ptr @_ZNKSt3setIN4cvc58internal8TypeNodeESt4lessIS2_ESaIS2_EE5beginEv(ptr noundef nonnull align 8 dereferenceable(48) %219) #3
  %coerce.dive867 = getelementptr inbounds %"struct.std::_Rb_tree_const_iterator", ptr %__begin6865, i32 0, i32 0
  store ptr %call866, ptr %coerce.dive867, align 8
  %220 = load ptr, ptr %__range6864, align 8
  %call869 = call ptr @_ZNKSt3setIN4cvc58internal8TypeNodeESt4lessIS2_ESaIS2_EE3endEv(ptr noundef nonnull align 8 dereferenceable(48) %220) #3
  %coerce.dive870 = getelementptr inbounds %"struct.std::_Rb_tree_const_iterator", ptr %__end6868, i32 0, i32 0
  store ptr %call869, ptr %coerce.dive870, align 8
  br label %for.cond871

for.cond871:                                      ; preds = %for.inc929, %invoke.cont859
  %call872 = call noundef zeroext i1 @_ZStneRKSt23_Rb_tree_const_iteratorIN4cvc58internal8TypeNodeEES5_(ptr noundef nonnull align 8 dereferenceable(8) %__begin6865, ptr noundef nonnull align 8 dereferenceable(8) %__end6868) #3
  br i1 %call872, label %for.body873, label %for.end931

for.body873:                                      ; preds = %for.cond871
  %call874 = call noundef nonnull align 8 dereferenceable(8) ptr @_ZNKSt23_Rb_tree_const_iteratorIN4cvc58internal8TypeNodeEEdeEv(ptr noundef nonnull align 8 dereferenceable(8) %__begin6865) #3
  store ptr %call874, ptr %arg, align 8
  call void @_ZNSt6vectorIN4cvc58internal8TypeNodeESaIS2_EE5clearEv(ptr noundef nonnull align 8 dereferenceable(24) %argListc) #3
  %221 = load ptr, ptr %arg, align 8
  invoke void @_ZNSt6vectorIN4cvc58internal8TypeNodeESaIS2_EE9push_backERKS2_(ptr noundef nonnull align 8 dereferenceable(24) %argListc, ptr noundef nonnull align 8 dereferenceable(8) %221)
          to label %invoke.cont876 unwind label %lpad875

invoke.cont876:                                   ; preds = %for.body873
  invoke void @_ZNSt7__cxx1118basic_stringstreamIcSt11char_traitsIcESaIcEEC1Ev(ptr noundef nonnull align 8 dereferenceable(128) %sscs)
          to label %invoke.cont877 unwind label %lpad875

invoke.cont877:                                   ; preds = %invoke.cont876
  %add.ptr878 = getelementptr inbounds i8, ptr %sscs, i64 16
  %call881 = invoke noundef nonnull align 8 dereferenceable(8) ptr @_ZStlsISt11char_traitsIcEERSt13basic_ostreamIcT_ES5_PKc(ptr noundef nonnull align 8 dereferenceable(8) %add.ptr878, ptr noundef @.str.24)
          to label %invoke.cont880 unwind label %lpad879

invoke.cont880:                                   ; preds = %invoke.cont877
  %222 = load i32, ptr %i700, align 4
  %call883 = invoke noundef nonnull align 8 dereferenceable(8) ptr @_ZNSolsEj(ptr noundef nonnull align 8 dereferenceable(8) %call881, i32 noundef %222)
          to label %invoke.cont882 unwind label %lpad879

invoke.cont882:                                   ; preds = %invoke.cont880
  %call885 = invoke noundef nonnull align 8 dereferenceable(8) ptr @_ZStlsISt11char_traitsIcEERSt13basic_ostreamIcT_ES5_PKc(ptr noundef nonnull align 8 dereferenceable(8) %call883, ptr noundef @.str.23)
          to label %invoke.cont884 unwind label %lpad879

invoke.cont884:                                   ; preds = %invoke.cont882
  %223 = load i64, ptr %j, align 8
  %call887 = invoke noundef nonnull align 8 dereferenceable(8) ptr @_ZNSolsEm(ptr noundef nonnull align 8 dereferenceable(8) %call885, i64 noundef %223)
          to label %invoke.cont886 unwind label %lpad879

invoke.cont886:                                   ; preds = %invoke.cont884
  store i1 false, ptr %cleanup.cond, align 1
  %call890 = invoke noundef zeroext i1 @_ZN4cvc58internal11__cvc5_truecvbEv(ptr noundef nonnull align 1 dereferenceable(1) %ref.tmp888)
          to label %invoke.cont889 unwind label %lpad879

invoke.cont889:                                   ; preds = %invoke.cont886
  br i1 %call890, label %cond.true891, label %cond.false894

cond.true891:                                     ; preds = %invoke.cont889
  invoke void @_ZNK4cvc58internal5NullCcvNS0_11Cvc5ostreamEEv(ptr sret(%"class.cvc5::internal::Cvc5ostream") align 8 %tmp892, ptr noundef nonnull align 1 dereferenceable(1) @_ZN4cvc58internal10nullStreamE)
          to label %invoke.cont893 unwind label %lpad879

invoke.cont893:                                   ; preds = %cond.true891
  br label %cond.end911

cond.false894:                                    ; preds = %invoke.cont889
  invoke void @_ZNK4cvc58internal6TraceCclEv(ptr sret(%"class.cvc5::internal::Cvc5ostream") align 8 %ref.tmp896, ptr noundef nonnull align 8 dereferenceable(32) @_ZN4cvc58internal12TraceChannelE)
          to label %invoke.cont897 unwind label %lpad879

invoke.cont897:                                   ; preds = %cond.false894
  %call899 = invoke noundef nonnull align 8 dereferenceable(24) ptr @_ZN4cvc58internal11Cvc5ostreamlsIA20_cEERS1_RKT_(ptr noundef nonnull align 8 dereferenceable(24) %ref.tmp896, ptr noundef nonnull align 1 dereferenceable(20) @.str.25)
          to label %invoke.cont898 unwind label %lpad879

invoke.cont898:                                   ; preds = %invoke.cont897
  %call901 = invoke noundef nonnull align 8 dereferenceable(24) ptr @_ZN4cvc58internal11Cvc5ostreamlsINS0_12NodeTemplateILb1EEEEERS1_RKT_(ptr noundef nonnull align 8 dereferenceable(24) %call899, ptr noundef nonnull align 8 dereferenceable(8) %lambdaOp)
          to label %invoke.cont900 unwind label %lpad879

invoke.cont900:                                   ; preds = %invoke.cont898
  %call903 = invoke noundef nonnull align 8 dereferenceable(24) ptr @_ZN4cvc58internal11Cvc5ostreamlsIA2_cEERS1_RKT_(ptr noundef nonnull align 8 dereferenceable(24) %call901, ptr noundef nonnull align 1 dereferenceable(2) @.str.26)
          to label %invoke.cont902 unwind label %lpad879

invoke.cont902:                                   ; preds = %invoke.cont900
  invoke void @_ZNK4cvc58internal12NodeTemplateILb1EE7getTypeEb(ptr sret(%"class.cvc5::internal::TypeNode") align 8 %ref.tmp904, ptr noundef nonnull align 8 dereferenceable(8) %lambdaOp, i1 noundef zeroext false)
          to label %invoke.cont905 unwind label %lpad879

invoke.cont905:                                   ; preds = %invoke.cont902
  store i1 true, ptr %cleanup.cond, align 1
  %call908 = invoke noundef nonnull align 8 dereferenceable(24) ptr @_ZN4cvc58internal11Cvc5ostreamlsINS0_8TypeNodeEEERS1_RKT_(ptr noundef nonnull align 8 dereferenceable(24) %call903, ptr noundef nonnull align 8 dereferenceable(8) %ref.tmp904)
          to label %invoke.cont907 unwind label %lpad906

invoke.cont907:                                   ; preds = %invoke.cont905
  %call910 = invoke noundef nonnull align 8 dereferenceable(24) ptr @_ZN4cvc58internal11Cvc5ostreamlsEPFRSoS2_E(ptr noundef nonnull align 8 dereferenceable(24) %call908, ptr noundef @_ZSt4endlIcSt11char_traitsIcEERSt13basic_ostreamIT_T0_ES6_)
          to label %invoke.cont909 unwind label %lpad906

invoke.cont909:                                   ; preds = %invoke.cont907
  call void @llvm.memcpy.p0.p0.i64(ptr align 8 %agg.tmp.ensured895, ptr align 8 %call910, i64 24, i1 false)
  br label %cond.end911

cond.end911:                                      ; preds = %invoke.cont909, %invoke.cont893
  %cleanup.is_active = load i1, ptr %cleanup.cond, align 1
  br i1 %cleanup.is_active, label %cleanup.action, label %cleanup.done

cleanup.action:                                   ; preds = %cond.end911
  call void @_ZN4cvc58internal8TypeNodeD2Ev(ptr noundef nonnull align 8 dereferenceable(8) %ref.tmp904) #3
  br label %cleanup.done

cleanup.done:                                     ; preds = %cleanup.action, %cond.end911
  %224 = load i32, ptr %i700, align 4
  %conv916 = zext i32 %224 to i64
  %call917 = call noundef nonnull align 8 dereferenceable(472) ptr @_ZNSt6vectorIN4cvc58internal13SygusDatatypeESaIS2_EEixEm(ptr noundef nonnull align 8 dereferenceable(24) %sdts, i64 noundef %conv916) #3
  invoke void @_ZN4cvc58internal12NodeTemplateILb1EEC2ERKS2_(ptr noundef nonnull align 8 dereferenceable(8) %agg.tmp918, ptr noundef nonnull align 8 dereferenceable(8) %lambdaOp)
          to label %invoke.cont919 unwind label %lpad879

invoke.cont919:                                   ; preds = %cleanup.done
  invoke void @_ZNKSt7__cxx1118basic_stringstreamIcSt11char_traitsIcESaIcEE3strEv(ptr sret(%"class.std::__cxx11::basic_string") align 8 %ref.tmp920, ptr noundef nonnull align 8 dereferenceable(128) %sscs)
          to label %invoke.cont922 unwind label %lpad921

invoke.cont922:                                   ; preds = %invoke.cont919
  invoke void @_ZN4cvc58internal13SygusDatatype14addConstructorENS0_12NodeTemplateILb1EEERKNSt7__cxx1112basic_stringIcSt11char_traitsIcESaIcEEERKSt6vectorINS0_8TypeNodeESaISD_EEi(ptr noundef nonnull align 8 dereferenceable(472) %call917, ptr noundef %agg.tmp918, ptr noundef nonnull align 8 dereferenceable(32) %ref.tmp920, ptr noundef nonnull align 8 dereferenceable(24) %argListc, i32 noundef 0)
          to label %invoke.cont924 unwind label %lpad923

invoke.cont924:                                   ; preds = %invoke.cont922
  call void @_ZNSt7__cxx1112basic_stringIcSt11char_traitsIcESaIcEED1Ev(ptr noundef nonnull align 8 dereferenceable(32) %ref.tmp920) #3
  call void @_ZN4cvc58internal12NodeTemplateILb1EED2Ev(ptr noundef nonnull align 8 dereferenceable(8) %agg.tmp918) #3
  %225 = load i64, ptr %j, align 8
  %inc927 = add i64 %225, 1
  store i64 %inc927, ptr %j, align 8
  call void @_ZNSt7__cxx1118basic_stringstreamIcSt11char_traitsIcESaIcEED1Ev(ptr noundef nonnull align 8 dereferenceable(128) %sscs) #3
  br label %for.inc929

for.inc929:                                       ; preds = %invoke.cont924
  %call930 = call noundef nonnull align 8 dereferenceable(8) ptr @_ZNSt23_Rb_tree_const_iteratorIN4cvc58internal8TypeNodeEEppEv(ptr noundef nonnull align 8 dereferenceable(8) %__begin6865) #3
  br label %for.cond871

lpad821:                                          ; preds = %invoke.cont820
  %226 = landingpad { ptr, i32 }
          cleanup
  %227 = extractvalue { ptr, i32 } %226, 0
  store ptr %227, ptr %exn.slot, align 8
  %228 = extractvalue { ptr, i32 } %226, 1
  store i32 %228, ptr %ehselector.slot, align 4
  call void @_ZN4cvc58internal12NodeTemplateILb0EED2Ev(ptr noundef nonnull align 8 dereferenceable(8) %agg.tmp819) #3
  br label %ehcleanup1065

lpad844:                                          ; preds = %invoke.cont843
  %229 = landingpad { ptr, i32 }
          cleanup
  %230 = extractvalue { ptr, i32 } %229, 0
  store ptr %230, ptr %exn.slot, align 8
  %231 = extractvalue { ptr, i32 } %229, 1
  store i32 %231, ptr %ehselector.slot, align 4
  br label %ehcleanup1002

lpad849:                                          ; preds = %invoke.cont845
  %232 = landingpad { ptr, i32 }
          cleanup
  %233 = extractvalue { ptr, i32 } %232, 0
  store ptr %233, ptr %exn.slot, align 8
  %234 = extractvalue { ptr, i32 } %232, 1
  store i32 %234, ptr %ehselector.slot, align 4
  br label %ehcleanup1001

lpad851:                                          ; preds = %invoke.cont850
  %235 = landingpad { ptr, i32 }
          cleanup
  %236 = extractvalue { ptr, i32 } %235, 0
  store ptr %236, ptr %exn.slot, align 8
  %237 = extractvalue { ptr, i32 } %235, 1
  store i32 %237, ptr %ehselector.slot, align 4
  br label %ehcleanup863

lpad853:                                          ; preds = %invoke.cont852
  %238 = landingpad { ptr, i32 }
          cleanup
  %239 = extractvalue { ptr, i32 } %238, 0
  store ptr %239, ptr %exn.slot, align 8
  %240 = extractvalue { ptr, i32 } %238, 1
  store i32 %240, ptr %ehselector.slot, align 4
  br label %ehcleanup862

lpad856:                                          ; preds = %invoke.cont854
  %241 = landingpad { ptr, i32 }
          cleanup
  %242 = extractvalue { ptr, i32 } %241, 0
  store ptr %242, ptr %exn.slot, align 8
  %243 = extractvalue { ptr, i32 } %241, 1
  store i32 %243, ptr %ehselector.slot, align 4
  br label %ehcleanup861

lpad858:                                          ; preds = %invoke.cont857
  %244 = landingpad { ptr, i32 }
          cleanup
  %245 = extractvalue { ptr, i32 } %244, 0
  store ptr %245, ptr %exn.slot, align 8
  %246 = extractvalue { ptr, i32 } %244, 1
  store i32 %246, ptr %ehselector.slot, align 4
  call void @_ZN4cvc58internal12NodeTemplateILb0EED2Ev(ptr noundef nonnull align 8 dereferenceable(8) %agg.tmp855) #3
  br label %ehcleanup861

ehcleanup861:                                     ; preds = %lpad858, %lpad856
  call void @_ZN4cvc58internal12NodeTemplateILb0EED2Ev(ptr noundef nonnull align 8 dereferenceable(8) %agg.tmp846) #3
  br label %ehcleanup862

ehcleanup862:                                     ; preds = %ehcleanup861, %lpad853
  call void @_ZN4cvc58internal12NodeTemplateILb1EED2Ev(ptr noundef nonnull align 8 dereferenceable(8) %ref.tmp847) #3
  br label %ehcleanup863

ehcleanup863:                                     ; preds = %ehcleanup862, %lpad851
  call void @_ZN4cvc58internal12NodeTemplateILb0EED2Ev(ptr noundef nonnull align 8 dereferenceable(8) %agg.tmp848) #3
  br label %ehcleanup1001

lpad875:                                          ; preds = %invoke.cont932, %for.end931, %invoke.cont876, %for.body873
  %247 = landingpad { ptr, i32 }
          cleanup
  %248 = extractvalue { ptr, i32 } %247, 0
  store ptr %248, ptr %exn.slot, align 8
  %249 = extractvalue { ptr, i32 } %247, 1
  store i32 %249, ptr %ehselector.slot, align 4
  br label %ehcleanup999

lpad879:                                          ; preds = %cleanup.done, %invoke.cont902, %invoke.cont900, %invoke.cont898, %invoke.cont897, %cond.false894, %cond.true891, %invoke.cont886, %invoke.cont884, %invoke.cont882, %invoke.cont880, %invoke.cont877
  %250 = landingpad { ptr, i32 }
          cleanup
  %251 = extractvalue { ptr, i32 } %250, 0
  store ptr %251, ptr %exn.slot, align 8
  %252 = extractvalue { ptr, i32 } %250, 1
  store i32 %252, ptr %ehselector.slot, align 4
  br label %ehcleanup928

lpad906:                                          ; preds = %invoke.cont907, %invoke.cont905
  %253 = landingpad { ptr, i32 }
          cleanup
  %254 = extractvalue { ptr, i32 } %253, 0
  store ptr %254, ptr %exn.slot, align 8
  %255 = extractvalue { ptr, i32 } %253, 1
  store i32 %255, ptr %ehselector.slot, align 4
  %cleanup.is_active913 = load i1, ptr %cleanup.cond, align 1
  br i1 %cleanup.is_active913, label %cleanup.action914, label %cleanup.done915

cleanup.action914:                                ; preds = %lpad906
  call void @_ZN4cvc58internal8TypeNodeD2Ev(ptr noundef nonnull align 8 dereferenceable(8) %ref.tmp904) #3
  br label %cleanup.done915

cleanup.done915:                                  ; preds = %cleanup.action914, %lpad906
  br label %ehcleanup928

lpad921:                                          ; preds = %invoke.cont919
  %256 = landingpad { ptr, i32 }
          cleanup
  %257 = extractvalue { ptr, i32 } %256, 0
  store ptr %257, ptr %exn.slot, align 8
  %258 = extractvalue { ptr, i32 } %256, 1
  store i32 %258, ptr %ehselector.slot, align 4
  br label %ehcleanup926

lpad923:                                          ; preds = %invoke.cont922
  %259 = landingpad { ptr, i32 }
          cleanup
  %260 = extractvalue { ptr, i32 } %259, 0
  store ptr %260, ptr %exn.slot, align 8
  %261 = extractvalue { ptr, i32 } %259, 1
  store i32 %261, ptr %ehselector.slot, align 4
  call void @_ZNSt7__cxx1112basic_stringIcSt11char_traitsIcESaIcEED1Ev(ptr noundef nonnull align 8 dereferenceable(32) %ref.tmp920) #3
  br label %ehcleanup926

ehcleanup926:                                     ; preds = %lpad923, %lpad921
  call void @_ZN4cvc58internal12NodeTemplateILb1EED2Ev(ptr noundef nonnull align 8 dereferenceable(8) %agg.tmp918) #3
  br label %ehcleanup928

ehcleanup928:                                     ; preds = %ehcleanup926, %cleanup.done915, %lpad879
  call void @_ZNSt7__cxx1118basic_stringstreamIcSt11char_traitsIcESaIcEED1Ev(ptr noundef nonnull align 8 dereferenceable(128) %sscs) #3
  br label %ehcleanup999

for.end931:                                       ; preds = %for.cond871
  %call933 = invoke noundef nonnull align 8 dereferenceable(8) ptr @_ZNSt3mapIN4cvc58internal12NodeTemplateILb1EEENS1_8TypeNodeESt4lessIS3_ESaISt4pairIKS3_S4_EEEixERS8_(ptr noundef nonnull align 8 dereferenceable(48) %cterm_to_utype, ptr noundef nonnull align 8 dereferenceable(8) %ct707)
          to label %invoke.cont932 unwind label %lpad875

invoke.cont932:                                   ; preds = %for.end931
  invoke void @_ZN4cvc58internal8TypeNodeC2ERKS1_(ptr noundef nonnull align 8 dereferenceable(8) %recType, ptr noundef nonnull align 8 dereferenceable(8) %call933)
          to label %invoke.cont934 unwind label %lpad875

invoke.cont934:                                   ; preds = %invoke.cont932
  call void @_ZNSt6vectorIN4cvc58internal8TypeNodeESaIS2_EE5clearEv(ptr noundef nonnull align 8 dereferenceable(24) %argListc) #3
  invoke void @_ZNSt6vectorIN4cvc58internal8TypeNodeESaIS2_EE9push_backERKS2_(ptr noundef nonnull align 8 dereferenceable(24) %argListc, ptr noundef nonnull align 8 dereferenceable(8) %recType)
          to label %invoke.cont936 unwind label %lpad935

invoke.cont936:                                   ; preds = %invoke.cont934
  invoke void @_ZNSt6vectorIN4cvc58internal8TypeNodeESaIS2_EE9push_backERKS2_(ptr noundef nonnull align 8 dereferenceable(24) %argListc, ptr noundef nonnull align 8 dereferenceable(8) %recType)
          to label %invoke.cont937 unwind label %lpad935

invoke.cont937:                                   ; preds = %invoke.cont936
  invoke void @_ZNSt7__cxx1118basic_stringstreamIcSt11char_traitsIcESaIcEEC1Ev(ptr noundef nonnull align 8 dereferenceable(128) %ssc938)
          to label %invoke.cont939 unwind label %lpad935

invoke.cont939:                                   ; preds = %invoke.cont937
  %add.ptr940 = getelementptr inbounds i8, ptr %ssc938, i64 16
  %call943 = invoke noundef nonnull align 8 dereferenceable(8) ptr @_ZStlsISt11char_traitsIcEERSt13basic_ostreamIcT_ES5_PKc(ptr noundef nonnull align 8 dereferenceable(8) %add.ptr940, ptr noundef @.str.22)
          to label %invoke.cont942 unwind label %lpad941

invoke.cont942:                                   ; preds = %invoke.cont939
  %262 = load i32, ptr %i700, align 4
  %call945 = invoke noundef nonnull align 8 dereferenceable(8) ptr @_ZNSolsEj(ptr noundef nonnull align 8 dereferenceable(8) %call943, i32 noundef %262)
          to label %invoke.cont944 unwind label %lpad941

invoke.cont944:                                   ; preds = %invoke.cont942
  %call947 = invoke noundef nonnull align 8 dereferenceable(8) ptr @_ZStlsISt11char_traitsIcEERSt13basic_ostreamIcT_ES5_PKc(ptr noundef nonnull align 8 dereferenceable(8) %call945, ptr noundef @.str.27)
          to label %invoke.cont946 unwind label %lpad941

invoke.cont946:                                   ; preds = %invoke.cont944
  invoke void @_ZN4cvc58internal12NodeTemplateILb0EEC2ERKNS1_ILb1EEE(ptr noundef nonnull align 8 dereferenceable(8) %agg.tmp948, ptr noundef nonnull align 8 dereferenceable(8) %op)
          to label %invoke.cont949 unwind label %lpad941

invoke.cont949:                                   ; preds = %invoke.cont946
  %call952 = invoke noundef nonnull align 8 dereferenceable(8) ptr @_ZN4cvc58internallsERSoNS0_12NodeTemplateILb0EEE(ptr noundef nonnull align 8 dereferenceable(8) %call947, ptr noundef %agg.tmp948)
          to label %invoke.cont951 unwind label %lpad950

invoke.cont951:                                   ; preds = %invoke.cont949
  call void @_ZN4cvc58internal12NodeTemplateILb0EED2Ev(ptr noundef nonnull align 8 dereferenceable(8) %agg.tmp948) #3
  store i1 false, ptr %cleanup.cond972, align 1
  %call956 = invoke noundef zeroext i1 @_ZN4cvc58internal11__cvc5_truecvbEv(ptr noundef nonnull align 1 dereferenceable(1) %ref.tmp954)
          to label %invoke.cont955 unwind label %lpad941

invoke.cont955:                                   ; preds = %invoke.cont951
  br i1 %call956, label %cond.true957, label %cond.false960

cond.true957:                                     ; preds = %invoke.cont955
  invoke void @_ZNK4cvc58internal5NullCcvNS0_11Cvc5ostreamEEv(ptr sret(%"class.cvc5::internal::Cvc5ostream") align 8 %tmp958, ptr noundef nonnull align 1 dereferenceable(1) @_ZN4cvc58internal10nullStreamE)
          to label %invoke.cont959 unwind label %lpad941

invoke.cont959:                                   ; preds = %cond.true957
  br label %cond.end978

cond.false960:                                    ; preds = %invoke.cont955
  invoke void @_ZNK4cvc58internal6TraceCclEv(ptr sret(%"class.cvc5::internal::Cvc5ostream") align 8 %ref.tmp962, ptr noundef nonnull align 8 dereferenceable(32) @_ZN4cvc58internal12TraceChannelE)
          to label %invoke.cont963 unwind label %lpad941

invoke.cont963:                                   ; preds = %cond.false960
  %call965 = invoke noundef nonnull align 8 dereferenceable(24) ptr @_ZN4cvc58internal11Cvc5ostreamlsIA13_cEERS1_RKT_(ptr noundef nonnull align 8 dereferenceable(24) %ref.tmp962, ptr noundef nonnull align 1 dereferenceable(13) @.str.28)
          to label %invoke.cont964 unwind label %lpad941

invoke.cont964:                                   ; preds = %invoke.cont963
  %call967 = invoke noundef nonnull align 8 dereferenceable(24) ptr @_ZN4cvc58internal11Cvc5ostreamlsINS0_12NodeTemplateILb1EEEEERS1_RKT_(ptr noundef nonnull align 8 dereferenceable(24) %call965, ptr noundef nonnull align 8 dereferenceable(8) %op)
          to label %invoke.cont966 unwind label %lpad941

invoke.cont966:                                   ; preds = %invoke.cont964
  %call969 = invoke noundef nonnull align 8 dereferenceable(24) ptr @_ZN4cvc58internal11Cvc5ostreamlsIA2_cEERS1_RKT_(ptr noundef nonnull align 8 dereferenceable(24) %call967, ptr noundef nonnull align 1 dereferenceable(2) @.str.26)
          to label %invoke.cont968 unwind label %lpad941

invoke.cont968:                                   ; preds = %invoke.cont966
  invoke void @_ZNK4cvc58internal12NodeTemplateILb1EE7getTypeEb(ptr sret(%"class.cvc5::internal::TypeNode") align 8 %ref.tmp970, ptr noundef nonnull align 8 dereferenceable(8) %op, i1 noundef zeroext false)
          to label %invoke.cont971 unwind label %lpad941

invoke.cont971:                                   ; preds = %invoke.cont968
  store i1 true, ptr %cleanup.cond972, align 1
  %call975 = invoke noundef nonnull align 8 dereferenceable(24) ptr @_ZN4cvc58internal11Cvc5ostreamlsINS0_8TypeNodeEEERS1_RKT_(ptr noundef nonnull align 8 dereferenceable(24) %call969, ptr noundef nonnull align 8 dereferenceable(8) %ref.tmp970)
          to label %invoke.cont974 unwind label %lpad973

invoke.cont974:                                   ; preds = %invoke.cont971
  %call977 = invoke noundef nonnull align 8 dereferenceable(24) ptr @_ZN4cvc58internal11Cvc5ostreamlsEPFRSoS2_E(ptr noundef nonnull align 8 dereferenceable(24) %call975, ptr noundef @_ZSt4endlIcSt11char_traitsIcEERSt13basic_ostreamIT_T0_ES6_)
          to label %invoke.cont976 unwind label %lpad973

invoke.cont976:                                   ; preds = %invoke.cont974
  call void @llvm.memcpy.p0.p0.i64(ptr align 8 %agg.tmp.ensured961, ptr align 8 %call977, i64 24, i1 false)
  br label %cond.end978

cond.end978:                                      ; preds = %invoke.cont976, %invoke.cont959
  %cleanup.is_active979 = load i1, ptr %cleanup.cond972, align 1
  br i1 %cleanup.is_active979, label %cleanup.action980, label %cleanup.done981

cleanup.action980:                                ; preds = %cond.end978
  call void @_ZN4cvc58internal8TypeNodeD2Ev(ptr noundef nonnull align 8 dereferenceable(8) %ref.tmp970) #3
  br label %cleanup.done981

cleanup.done981:                                  ; preds = %cleanup.action980, %cond.end978
  %263 = load i32, ptr %i700, align 4
  %conv986 = zext i32 %263 to i64
  %call987 = call noundef nonnull align 8 dereferenceable(472) ptr @_ZNSt6vectorIN4cvc58internal13SygusDatatypeESaIS2_EEixEm(ptr noundef nonnull align 8 dereferenceable(24) %sdts, i64 noundef %conv986) #3
  invoke void @_ZN4cvc58internal12NodeTemplateILb1EEC2ERKS2_(ptr noundef nonnull align 8 dereferenceable(8) %agg.tmp988, ptr noundef nonnull align 8 dereferenceable(8) %op)
          to label %invoke.cont989 unwind label %lpad941

invoke.cont989:                                   ; preds = %cleanup.done981
  invoke void @_ZNKSt7__cxx1118basic_stringstreamIcSt11char_traitsIcESaIcEE3strEv(ptr sret(%"class.std::__cxx11::basic_string") align 8 %ref.tmp990, ptr noundef nonnull align 8 dereferenceable(128) %ssc938)
          to label %invoke.cont992 unwind label %lpad991

invoke.cont992:                                   ; preds = %invoke.cont989
  invoke void @_ZN4cvc58internal13SygusDatatype14addConstructorENS0_12NodeTemplateILb1EEERKNSt7__cxx1112basic_stringIcSt11char_traitsIcESaIcEEERKSt6vectorINS0_8TypeNodeESaISD_EEi(ptr noundef nonnull align 8 dereferenceable(472) %call987, ptr noundef %agg.tmp988, ptr noundef nonnull align 8 dereferenceable(32) %ref.tmp990, ptr noundef nonnull align 8 dereferenceable(24) %argListc, i32 noundef -1)
          to label %invoke.cont994 unwind label %lpad993

invoke.cont994:                                   ; preds = %invoke.cont992
  call void @_ZNSt7__cxx1112basic_stringIcSt11char_traitsIcESaIcEED1Ev(ptr noundef nonnull align 8 dereferenceable(32) %ref.tmp990) #3
  call void @_ZN4cvc58internal12NodeTemplateILb1EED2Ev(ptr noundef nonnull align 8 dereferenceable(8) %agg.tmp988) #3
  call void @_ZNSt7__cxx1118basic_stringstreamIcSt11char_traitsIcESaIcEED1Ev(ptr noundef nonnull align 8 dereferenceable(128) %ssc938) #3
  call void @_ZN4cvc58internal8TypeNodeD2Ev(ptr noundef nonnull align 8 dereferenceable(8) %recType) #3
  call void @_ZNSt6vectorIN4cvc58internal8TypeNodeESaIS2_EED2Ev(ptr noundef nonnull align 8 dereferenceable(24) %argListc) #3
  call void @_ZN4cvc58internal12NodeTemplateILb1EED2Ev(ptr noundef nonnull align 8 dereferenceable(8) %lambdaOp) #3
  call void @_ZN4cvc58internal12NodeTemplateILb1EED2Ev(ptr noundef nonnull align 8 dereferenceable(8) %tbv) #3
  call void @_ZNSt3setIN4cvc58internal8TypeNodeESt4lessIS2_ESaIS2_EED2Ev(ptr noundef nonnull align 8 dereferenceable(48) %argSet) #3
  br label %if.end1064

lpad935:                                          ; preds = %invoke.cont937, %invoke.cont936, %invoke.cont934
  %264 = landingpad { ptr, i32 }
          cleanup
  %265 = extractvalue { ptr, i32 } %264, 0
  store ptr %265, ptr %exn.slot, align 8
  %266 = extractvalue { ptr, i32 } %264, 1
  store i32 %266, ptr %ehselector.slot, align 4
  br label %ehcleanup998

lpad941:                                          ; preds = %cleanup.done981, %invoke.cont968, %invoke.cont966, %invoke.cont964, %invoke.cont963, %cond.false960, %cond.true957, %invoke.cont951, %invoke.cont946, %invoke.cont944, %invoke.cont942, %invoke.cont939
  %267 = landingpad { ptr, i32 }
          cleanup
  %268 = extractvalue { ptr, i32 } %267, 0
  store ptr %268, ptr %exn.slot, align 8
  %269 = extractvalue { ptr, i32 } %267, 1
  store i32 %269, ptr %ehselector.slot, align 4
  br label %ehcleanup997

lpad950:                                          ; preds = %invoke.cont949
  %270 = landingpad { ptr, i32 }
          cleanup
  %271 = extractvalue { ptr, i32 } %270, 0
  store ptr %271, ptr %exn.slot, align 8
  %272 = extractvalue { ptr, i32 } %270, 1
  store i32 %272, ptr %ehselector.slot, align 4
  call void @_ZN4cvc58internal12NodeTemplateILb0EED2Ev(ptr noundef nonnull align 8 dereferenceable(8) %agg.tmp948) #3
  br label %ehcleanup997

lpad973:                                          ; preds = %invoke.cont974, %invoke.cont971
  %273 = landingpad { ptr, i32 }
          cleanup
  %274 = extractvalue { ptr, i32 } %273, 0
  store ptr %274, ptr %exn.slot, align 8
  %275 = extractvalue { ptr, i32 } %273, 1
  store i32 %275, ptr %ehselector.slot, align 4
  %cleanup.is_active983 = load i1, ptr %cleanup.cond972, align 1
  br i1 %cleanup.is_active983, label %cleanup.action984, label %cleanup.done985

cleanup.action984:                                ; preds = %lpad973
  call void @_ZN4cvc58internal8TypeNodeD2Ev(ptr noundef nonnull align 8 dereferenceable(8) %ref.tmp970) #3
  br label %cleanup.done985

cleanup.done985:                                  ; preds = %cleanup.action984, %lpad973
  br label %ehcleanup997

lpad991:                                          ; preds = %invoke.cont989
  %276 = landingpad { ptr, i32 }
          cleanup
  %277 = extractvalue { ptr, i32 } %276, 0
  store ptr %277, ptr %exn.slot, align 8
  %278 = extractvalue { ptr, i32 } %276, 1
  store i32 %278, ptr %ehselector.slot, align 4
  br label %ehcleanup996

lpad993:                                          ; preds = %invoke.cont992
  %279 = landingpad { ptr, i32 }
          cleanup
  %280 = extractvalue { ptr, i32 } %279, 0
  store ptr %280, ptr %exn.slot, align 8
  %281 = extractvalue { ptr, i32 } %279, 1
  store i32 %281, ptr %ehselector.slot, align 4
  call void @_ZNSt7__cxx1112basic_stringIcSt11char_traitsIcESaIcEED1Ev(ptr noundef nonnull align 8 dereferenceable(32) %ref.tmp990) #3
  br label %ehcleanup996

ehcleanup996:                                     ; preds = %lpad993, %lpad991
  call void @_ZN4cvc58internal12NodeTemplateILb1EED2Ev(ptr noundef nonnull align 8 dereferenceable(8) %agg.tmp988) #3
  br label %ehcleanup997

ehcleanup997:                                     ; preds = %ehcleanup996, %cleanup.done985, %lpad950, %lpad941
  call void @_ZNSt7__cxx1118basic_stringstreamIcSt11char_traitsIcESaIcEED1Ev(ptr noundef nonnull align 8 dereferenceable(128) %ssc938) #3
  br label %ehcleanup998

ehcleanup998:                                     ; preds = %ehcleanup997, %lpad935
  call void @_ZN4cvc58internal8TypeNodeD2Ev(ptr noundef nonnull align 8 dereferenceable(8) %recType) #3
  br label %ehcleanup999

ehcleanup999:                                     ; preds = %ehcleanup998, %ehcleanup928, %lpad875
  call void @_ZNSt6vectorIN4cvc58internal8TypeNodeESaIS2_EED2Ev(ptr noundef nonnull align 8 dereferenceable(24) %argListc) #3
  call void @_ZN4cvc58internal12NodeTemplateILb1EED2Ev(ptr noundef nonnull align 8 dereferenceable(8) %lambdaOp) #3
  br label %ehcleanup1001

ehcleanup1001:                                    ; preds = %ehcleanup999, %ehcleanup863, %lpad849
  call void @_ZN4cvc58internal12NodeTemplateILb1EED2Ev(ptr noundef nonnull align 8 dereferenceable(8) %tbv) #3
  br label %ehcleanup1002

ehcleanup1002:                                    ; preds = %ehcleanup1001, %lpad844
  call void @_ZNSt3setIN4cvc58internal8TypeNodeESt4lessIS2_ESaIS2_EED2Ev(ptr noundef nonnull align 8 dereferenceable(48) %argSet) #3
  br label %ehcleanup1065

if.else1003:                                      ; preds = %land.end
  invoke void @_ZNSt7__cxx1118basic_stringstreamIcSt11char_traitsIcESaIcEEC1Ev(ptr noundef nonnull align 8 dereferenceable(128) %ssc1004)
          to label %invoke.cont1005 unwind label %lpad792

invoke.cont1005:                                  ; preds = %if.else1003
  %add.ptr1006 = getelementptr inbounds i8, ptr %ssc1004, i64 16
  %call1009 = invoke noundef nonnull align 8 dereferenceable(8) ptr @_ZStlsISt11char_traitsIcEERSt13basic_ostreamIcT_ES5_PKc(ptr noundef nonnull align 8 dereferenceable(8) %add.ptr1006, ptr noundef @.str.22)
          to label %invoke.cont1008 unwind label %lpad1007

invoke.cont1008:                                  ; preds = %invoke.cont1005
  %282 = load i32, ptr %i700, align 4
  %call1011 = invoke noundef nonnull align 8 dereferenceable(8) ptr @_ZNSolsEj(ptr noundef nonnull align 8 dereferenceable(8) %call1009, i32 noundef %282)
          to label %invoke.cont1010 unwind label %lpad1007

invoke.cont1010:                                  ; preds = %invoke.cont1008
  %call1013 = invoke noundef nonnull align 8 dereferenceable(8) ptr @_ZStlsISt11char_traitsIcEERSt13basic_ostreamIcT_ES5_PKc(ptr noundef nonnull align 8 dereferenceable(8) %call1011, ptr noundef @.str.23)
          to label %invoke.cont1012 unwind label %lpad1007

invoke.cont1012:                                  ; preds = %invoke.cont1010
  invoke void @_ZN4cvc58internal12NodeTemplateILb0EEC2ERKNS1_ILb1EEE(ptr noundef nonnull align 8 dereferenceable(8) %agg.tmp1014, ptr noundef nonnull align 8 dereferenceable(8) %op)
          to label %invoke.cont1015 unwind label %lpad1007

invoke.cont1015:                                  ; preds = %invoke.cont1012
  %call1018 = invoke noundef nonnull align 8 dereferenceable(8) ptr @_ZN4cvc58internallsERSoNS0_12NodeTemplateILb0EEE(ptr noundef nonnull align 8 dereferenceable(8) %call1013, ptr noundef %agg.tmp1014)
          to label %invoke.cont1017 unwind label %lpad1016

invoke.cont1017:                                  ; preds = %invoke.cont1015
  call void @_ZN4cvc58internal12NodeTemplateILb0EED2Ev(ptr noundef nonnull align 8 dereferenceable(8) %agg.tmp1014) #3
  store i1 false, ptr %cleanup.cond1038, align 1
  %call1022 = invoke noundef zeroext i1 @_ZN4cvc58internal11__cvc5_truecvbEv(ptr noundef nonnull align 1 dereferenceable(1) %ref.tmp1020)
          to label %invoke.cont1021 unwind label %lpad1007

invoke.cont1021:                                  ; preds = %invoke.cont1017
  br i1 %call1022, label %cond.true1023, label %cond.false1026

cond.true1023:                                    ; preds = %invoke.cont1021
  invoke void @_ZNK4cvc58internal5NullCcvNS0_11Cvc5ostreamEEv(ptr sret(%"class.cvc5::internal::Cvc5ostream") align 8 %tmp1024, ptr noundef nonnull align 1 dereferenceable(1) @_ZN4cvc58internal10nullStreamE)
          to label %invoke.cont1025 unwind label %lpad1007

invoke.cont1025:                                  ; preds = %cond.true1023
  br label %cond.end1044

cond.false1026:                                   ; preds = %invoke.cont1021
  invoke void @_ZNK4cvc58internal6TraceCclEv(ptr sret(%"class.cvc5::internal::Cvc5ostream") align 8 %ref.tmp1028, ptr noundef nonnull align 8 dereferenceable(32) @_ZN4cvc58internal12TraceChannelE)
          to label %invoke.cont1029 unwind label %lpad1007

invoke.cont1029:                                  ; preds = %cond.false1026
  %call1031 = invoke noundef nonnull align 8 dereferenceable(24) ptr @_ZN4cvc58internal11Cvc5ostreamlsIA5_cEERS1_RKT_(ptr noundef nonnull align 8 dereferenceable(24) %ref.tmp1028, ptr noundef nonnull align 1 dereferenceable(5) @.str.29)
          to label %invoke.cont1030 unwind label %lpad1007

invoke.cont1030:                                  ; preds = %invoke.cont1029
  %call1033 = invoke noundef nonnull align 8 dereferenceable(24) ptr @_ZN4cvc58internal11Cvc5ostreamlsINS0_12NodeTemplateILb1EEEEERS1_RKT_(ptr noundef nonnull align 8 dereferenceable(24) %call1031, ptr noundef nonnull align 8 dereferenceable(8) %op)
          to label %invoke.cont1032 unwind label %lpad1007

invoke.cont1032:                                  ; preds = %invoke.cont1030
  %call1035 = invoke noundef nonnull align 8 dereferenceable(24) ptr @_ZN4cvc58internal11Cvc5ostreamlsIA2_cEERS1_RKT_(ptr noundef nonnull align 8 dereferenceable(24) %call1033, ptr noundef nonnull align 1 dereferenceable(2) @.str.26)
          to label %invoke.cont1034 unwind label %lpad1007

invoke.cont1034:                                  ; preds = %invoke.cont1032
  invoke void @_ZNK4cvc58internal12NodeTemplateILb1EE7getTypeEb(ptr sret(%"class.cvc5::internal::TypeNode") align 8 %ref.tmp1036, ptr noundef nonnull align 8 dereferenceable(8) %op, i1 noundef zeroext false)
          to label %invoke.cont1037 unwind label %lpad1007

invoke.cont1037:                                  ; preds = %invoke.cont1034
  store i1 true, ptr %cleanup.cond1038, align 1
  %call1041 = invoke noundef nonnull align 8 dereferenceable(24) ptr @_ZN4cvc58internal11Cvc5ostreamlsINS0_8TypeNodeEEERS1_RKT_(ptr noundef nonnull align 8 dereferenceable(24) %call1035, ptr noundef nonnull align 8 dereferenceable(8) %ref.tmp1036)
          to label %invoke.cont1040 unwind label %lpad1039

invoke.cont1040:                                  ; preds = %invoke.cont1037
  %call1043 = invoke noundef nonnull align 8 dereferenceable(24) ptr @_ZN4cvc58internal11Cvc5ostreamlsEPFRSoS2_E(ptr noundef nonnull align 8 dereferenceable(24) %call1041, ptr noundef @_ZSt4endlIcSt11char_traitsIcEERSt13basic_ostreamIT_T0_ES6_)
          to label %invoke.cont1042 unwind label %lpad1039

invoke.cont1042:                                  ; preds = %invoke.cont1040
  call void @llvm.memcpy.p0.p0.i64(ptr align 8 %agg.tmp.ensured1027, ptr align 8 %call1043, i64 24, i1 false)
  br label %cond.end1044

cond.end1044:                                     ; preds = %invoke.cont1042, %invoke.cont1025
  %cleanup.is_active1045 = load i1, ptr %cleanup.cond1038, align 1
  br i1 %cleanup.is_active1045, label %cleanup.action1046, label %cleanup.done1047

cleanup.action1046:                               ; preds = %cond.end1044
  call void @_ZN4cvc58internal8TypeNodeD2Ev(ptr noundef nonnull align 8 dereferenceable(8) %ref.tmp1036) #3
  br label %cleanup.done1047

cleanup.done1047:                                 ; preds = %cleanup.action1046, %cond.end1044
  %283 = load i32, ptr %i700, align 4
  %conv1052 = zext i32 %283 to i64
  %call1053 = call noundef nonnull align 8 dereferenceable(472) ptr @_ZNSt6vectorIN4cvc58internal13SygusDatatypeESaIS2_EEixEm(ptr noundef nonnull align 8 dereferenceable(24) %sdts, i64 noundef %conv1052) #3
  invoke void @_ZN4cvc58internal12NodeTemplateILb1EEC2ERKS2_(ptr noundef nonnull align 8 dereferenceable(8) %agg.tmp1054, ptr noundef nonnull align 8 dereferenceable(8) %op)
          to label %invoke.cont1055 unwind label %lpad1007

invoke.cont1055:                                  ; preds = %cleanup.done1047
  invoke void @_ZNKSt7__cxx1118basic_stringstreamIcSt11char_traitsIcESaIcEE3strEv(ptr sret(%"class.std::__cxx11::basic_string") align 8 %ref.tmp1056, ptr noundef nonnull align 8 dereferenceable(128) %ssc1004)
          to label %invoke.cont1058 unwind label %lpad1057

invoke.cont1058:                                  ; preds = %invoke.cont1055
  invoke void @_ZN4cvc58internal13SygusDatatype14addConstructorENS0_12NodeTemplateILb1EEERKNSt7__cxx1112basic_stringIcSt11char_traitsIcESaIcEEERKSt6vectorINS0_8TypeNodeESaISD_EEi(ptr noundef nonnull align 8 dereferenceable(472) %call1053, ptr noundef %agg.tmp1054, ptr noundef nonnull align 8 dereferenceable(32) %ref.tmp1056, ptr noundef nonnull align 8 dereferenceable(24) %argList, i32 noundef -1)
          to label %invoke.cont1060 unwind label %lpad1059

invoke.cont1060:                                  ; preds = %invoke.cont1058
  call void @_ZNSt7__cxx1112basic_stringIcSt11char_traitsIcESaIcEED1Ev(ptr noundef nonnull align 8 dereferenceable(32) %ref.tmp1056) #3
  call void @_ZN4cvc58internal12NodeTemplateILb1EED2Ev(ptr noundef nonnull align 8 dereferenceable(8) %agg.tmp1054) #3
  call void @_ZNSt7__cxx1118basic_stringstreamIcSt11char_traitsIcESaIcEED1Ev(ptr noundef nonnull align 8 dereferenceable(128) %ssc1004) #3
  br label %if.end1064

lpad1007:                                         ; preds = %cleanup.done1047, %invoke.cont1034, %invoke.cont1032, %invoke.cont1030, %invoke.cont1029, %cond.false1026, %cond.true1023, %invoke.cont1017, %invoke.cont1012, %invoke.cont1010, %invoke.cont1008, %invoke.cont1005
  %284 = landingpad { ptr, i32 }
          cleanup
  %285 = extractvalue { ptr, i32 } %284, 0
  store ptr %285, ptr %exn.slot, align 8
  %286 = extractvalue { ptr, i32 } %284, 1
  store i32 %286, ptr %ehselector.slot, align 4
  br label %ehcleanup1063

lpad1016:                                         ; preds = %invoke.cont1015
  %287 = landingpad { ptr, i32 }
          cleanup
  %288 = extractvalue { ptr, i32 } %287, 0
  store ptr %288, ptr %exn.slot, align 8
  %289 = extractvalue { ptr, i32 } %287, 1
  store i32 %289, ptr %ehselector.slot, align 4
  call void @_ZN4cvc58internal12NodeTemplateILb0EED2Ev(ptr noundef nonnull align 8 dereferenceable(8) %agg.tmp1014) #3
  br label %ehcleanup1063

lpad1039:                                         ; preds = %invoke.cont1040, %invoke.cont1037
  %290 = landingpad { ptr, i32 }
          cleanup
  %291 = extractvalue { ptr, i32 } %290, 0
  store ptr %291, ptr %exn.slot, align 8
  %292 = extractvalue { ptr, i32 } %290, 1
  store i32 %292, ptr %ehselector.slot, align 4
  %cleanup.is_active1049 = load i1, ptr %cleanup.cond1038, align 1
  br i1 %cleanup.is_active1049, label %cleanup.action1050, label %cleanup.done1051

cleanup.action1050:                               ; preds = %lpad1039
  call void @_ZN4cvc58internal8TypeNodeD2Ev(ptr noundef nonnull align 8 dereferenceable(8) %ref.tmp1036) #3
  br label %cleanup.done1051

cleanup.done1051:                                 ; preds = %cleanup.action1050, %lpad1039
  br label %ehcleanup1063

lpad1057:                                         ; preds = %invoke.cont1055
  %293 = landingpad { ptr, i32 }
          cleanup
  %294 = extractvalue { ptr, i32 } %293, 0
  store ptr %294, ptr %exn.slot, align 8
  %295 = extractvalue { ptr, i32 } %293, 1
  store i32 %295, ptr %ehselector.slot, align 4
  br label %ehcleanup1062

lpad1059:                                         ; preds = %invoke.cont1058
  %296 = landingpad { ptr, i32 }
          cleanup
  %297 = extractvalue { ptr, i32 } %296, 0
  store ptr %297, ptr %exn.slot, align 8
  %298 = extractvalue { ptr, i32 } %296, 1
  store i32 %298, ptr %ehselector.slot, align 4
