target datalayout = "e-m:e-p270:32:32-p271:32:32-p272:64:64-i64:64-i128:128-f80:128-n8:16:32:64-S128"
target triple = "x86_64-unknown-linux-gnu"

%"class.std::ios_base::Init" = type { i8 }
%"class.cvc5::internal::NullC" = type { i8 }
%"class.cvc5::internal::TraceC" = type { ptr, %"class.std::vector" }
%"class.std::vector" = type { %"struct.std::_Vector_base" }
%"struct.std::_Vector_base" = type { %"struct.std::_Vector_base<std::__cxx11::basic_string<char>, std::allocator<std::__cxx11::basic_string<char>>>::_Vector_impl" }
%"struct.std::_Vector_base<std::__cxx11::basic_string<char>, std::allocator<std::__cxx11::basic_string<char>>>::_Vector_impl" = type { %"struct.std::_Vector_base<std::__cxx11::basic_string<char>, std::allocator<std::__cxx11::basic_string<char>>>::_Vector_impl_data" }
%"struct.std::_Vector_base<std::__cxx11::basic_string<char>, std::allocator<std::__cxx11::basic_string<char>>>::_Vector_impl_data" = type { ptr, ptr, ptr }
%"class.std::__cxx11::basic_string" = type { %"struct.std::__cxx11::basic_string<char>::_Alloc_hider", i64, %union.anon }
%"struct.std::__cxx11::basic_string<char>::_Alloc_hider" = type { ptr }
%union.anon = type { i64, [8 x i8] }
%"struct.std::piecewise_construct_t" = type { i8 }
%"class.cvc5::internal::expr::TermCanonize" = type { ptr, i32, %"class.std::map", i32, %"class.std::map.0", %"class.std::map.8", %"class.std::map.16" }
%"class.std::map" = type { %"class.std::_Rb_tree" }
%"class.std::_Rb_tree" = type { %"struct.std::_Rb_tree<cvc5::internal::NodeTemplate<true>, std::pair<const cvc5::internal::NodeTemplate<true>, int>, std::_Select1st<std::pair<const cvc5::internal::NodeTemplate<true>, int>>, std::less<cvc5::internal::NodeTemplate<true>>>::_Rb_tree_impl" }
%"struct.std::_Rb_tree<cvc5::internal::NodeTemplate<true>, std::pair<const cvc5::internal::NodeTemplate<true>, int>, std::_Select1st<std::pair<const cvc5::internal::NodeTemplate<true>, int>>, std::less<cvc5::internal::NodeTemplate<true>>>::_Rb_tree_impl" = type { %"struct.std::_Rb_tree_key_compare", %"struct.std::_Rb_tree_header" }
%"struct.std::_Rb_tree_key_compare" = type { %"struct.std::less" }
%"struct.std::less" = type { i8 }
%"struct.std::_Rb_tree_header" = type { %"struct.std::_Rb_tree_node_base", i64 }
%"struct.std::_Rb_tree_node_base" = type { i32, ptr, ptr, ptr }
%"class.std::map.0" = type { %"class.std::_Rb_tree.1" }
%"class.std::_Rb_tree.1" = type { %"struct.std::_Rb_tree<cvc5::internal::TypeNode, std::pair<const cvc5::internal::TypeNode, int>, std::_Select1st<std::pair<const cvc5::internal::TypeNode, int>>, std::less<cvc5::internal::TypeNode>>::_Rb_tree_impl" }
%"struct.std::_Rb_tree<cvc5::internal::TypeNode, std::pair<const cvc5::internal::TypeNode, int>, std::_Select1st<std::pair<const cvc5::internal::TypeNode, int>>, std::less<cvc5::internal::TypeNode>>::_Rb_tree_impl" = type { %"struct.std::_Rb_tree_key_compare.5", %"struct.std::_Rb_tree_header" }
%"struct.std::_Rb_tree_key_compare.5" = type { %"struct.std::less.6" }
%"struct.std::less.6" = type { i8 }
%"class.std::map.8" = type { %"class.std::_Rb_tree.9" }
%"class.std::_Rb_tree.9" = type { %"struct.std::_Rb_tree<std::pair<cvc5::internal::TypeNode, unsigned int>, std::pair<const std::pair<cvc5::internal::TypeNode, unsigned int>, std::vector<cvc5::internal::NodeTemplate<true>>>, std::_Select1st<std::pair<const std::pair<cvc5::internal::TypeNode, unsigned int>, std::vector<cvc5::internal::NodeTemplate<true>>>>, std::less<std::pair<cvc5::internal::TypeNode, unsigned int>>>::_Rb_tree_impl" }
%"struct.std::_Rb_tree<std::pair<cvc5::internal::TypeNode, unsigned int>, std::pair<const std::pair<cvc5::internal::TypeNode, unsigned int>, std::vector<cvc5::internal::NodeTemplate<true>>>, std::_Select1st<std::pair<const std::pair<cvc5::internal::TypeNode, unsigned int>, std::vector<cvc5::internal::NodeTemplate<true>>>>, std::less<std::pair<cvc5::internal::TypeNode, unsigned int>>>::_Rb_tree_impl" = type { %"struct.std::_Rb_tree_key_compare.13", %"struct.std::_Rb_tree_header" }
%"struct.std::_Rb_tree_key_compare.13" = type { %"struct.std::less.14" }
%"struct.std::less.14" = type { i8 }
%"class.std::map.16" = type { %"class.std::_Rb_tree.17" }
%"class.std::_Rb_tree.17" = type { %"struct.std::_Rb_tree<cvc5::internal::NodeTemplate<true>, std::pair<const cvc5::internal::NodeTemplate<true>, unsigned long>, std::_Select1st<std::pair<const cvc5::internal::NodeTemplate<true>, unsigned long>>, std::less<cvc5::internal::NodeTemplate<true>>>::_Rb_tree_impl" }
%"struct.std::_Rb_tree<cvc5::internal::NodeTemplate<true>, std::pair<const cvc5::internal::NodeTemplate<true>, unsigned long>, std::_Select1st<std::pair<const cvc5::internal::NodeTemplate<true>, unsigned long>>, std::less<cvc5::internal::NodeTemplate<true>>>::_Rb_tree_impl" = type { %"struct.std::_Rb_tree_key_compare", %"struct.std::_Rb_tree_header" }
%"struct.std::_Rb_tree_iterator" = type { ptr }
%"struct.std::pair" = type <{ %"class.cvc5::internal::NodeTemplate", i32, [4 x i8] }>
%"class.cvc5::internal::NodeTemplate" = type { ptr }
%"struct.std::_Rb_tree_const_iterator.135" = type { ptr }
%"class.std::tuple.136" = type { %"struct.std::_Tuple_impl.137" }
%"struct.std::_Tuple_impl.137" = type { %"struct.std::_Head_base.138" }
%"struct.std::_Head_base.138" = type { ptr }
%"class.std::tuple.139" = type { i8 }
%"struct.std::_Rb_tree_iterator.21" = type { ptr }
%"struct.std::pair.22" = type <{ %"class.cvc5::internal::TypeNode", i32, [4 x i8] }>
%"class.cvc5::internal::TypeNode" = type { ptr }
%"struct.std::_Rb_tree_const_iterator.147" = type { ptr }
%"class.std::tuple.148" = type { %"struct.std::_Tuple_impl.149" }
%"struct.std::_Tuple_impl.149" = type { %"struct.std::_Head_base.150" }
%"struct.std::_Head_base.150" = type { ptr }
%"class.cvc5::internal::__cvc5_true" = type { i8 }
%"class.cvc5::internal::Cvc5ostream" = type { ptr, i8, ptr }
%"class.cvc5::internal::expr::NodeValue" = type { i64, i16, i32, [0 x ptr] }
%"class.cvc5::internal::NodeTemplate.107" = type { ptr }
%"struct.std::pair.28" = type <{ %"class.cvc5::internal::TypeNode", i32, [4 x i8] }>
%"class.std::__cxx11::basic_stringstream" = type { %"class.std::basic_iostream.base", %"class.std::__cxx11::basic_stringbuf", %"class.std::basic_ios" }
%"class.std::basic_iostream.base" = type { %"class.std::basic_istream.base", %"class.std::basic_ostream.base" }
%"class.std::basic_istream.base" = type { ptr, i64 }
%"class.std::basic_ostream.base" = type { ptr }
%"class.std::__cxx11::basic_stringbuf" = type { %"class.std::basic_streambuf", i32, %"class.std::__cxx11::basic_string" }
%"class.std::basic_streambuf" = type { ptr, ptr, ptr, ptr, ptr, ptr, ptr, %"class.std::locale" }
%"class.std::locale" = type { ptr }
%"class.std::basic_ios" = type { %"class.std::ios_base", ptr, i8, i8, ptr, ptr, ptr, ptr }
%"class.std::ios_base" = type { ptr, i64, i64, i32, i32, i32, ptr, %"struct.std::ios_base::_Words", [8 x %"struct.std::ios_base::_Words"], i32, ptr, %"class.std::locale" }
%"struct.std::ios_base::_Words" = type { ptr, i64 }
%"class.__gnu_cxx::__normal_iterator.39" = type { ptr }
%"class.__gnu_cxx::__normal_iterator" = type { ptr }
%"class.std::allocator.36" = type { i8 }
%"struct.std::_Rb_tree_iterator.151" = type { ptr }
%"struct.std::_Rb_tree_const_iterator.154" = type { ptr }
%"class.std::tuple.155" = type { %"struct.std::_Tuple_impl.156" }
%"struct.std::_Tuple_impl.156" = type { %"struct.std::_Head_base.157" }
%"struct.std::_Head_base.157" = type { ptr }
%"struct.std::pair.152" = type { %"struct.std::pair.28", %"class.std::vector.31" }
%"class.std::vector.31" = type { %"struct.std::_Vector_base.32" }
%"struct.std::_Vector_base.32" = type { %"struct.std::_Vector_base<cvc5::internal::NodeTemplate<true>, std::allocator<cvc5::internal::NodeTemplate<true>>>::_Vector_impl" }
%"struct.std::_Vector_base<cvc5::internal::NodeTemplate<true>, std::allocator<cvc5::internal::NodeTemplate<true>>>::_Vector_impl" = type { %"struct.std::_Vector_base<cvc5::internal::NodeTemplate<true>, std::allocator<cvc5::internal::NodeTemplate<true>>>::_Vector_impl_data" }
%"struct.std::_Vector_base<cvc5::internal::NodeTemplate<true>, std::allocator<cvc5::internal::NodeTemplate<true>>>::_Vector_impl_data" = type { ptr, ptr, ptr }
%"struct.std::_Rb_tree_iterator.162" = type { ptr }
%"struct.std::_Rb_tree_const_iterator" = type { ptr }
%"struct.std::pair.108" = type { %"class.cvc5::internal::NodeTemplate", i64 }
%"class.__gnu_cxx::__normal_iterator.126" = type { ptr }
%"struct.std::_Rb_tree_iterator.110" = type { ptr }
%"class.cvc5::internal::expr::NodeValue::iterator" = type { ptr }
%"struct.cvc5::internal::expr::sortTermOrder" = type { ptr }
%"class.__gnu_cxx::__normal_iterator.127" = type { ptr }
%"struct.std::pair.119" = type { %"class.cvc5::internal::NodeTemplate.107", %"class.cvc5::internal::NodeTemplate" }
%"class.std::map.111" = type { %"class.std::_Rb_tree.112" }
%"class.std::_Rb_tree.112" = type { %"struct.std::_Rb_tree<cvc5::internal::NodeTemplate<false>, std::pair<const cvc5::internal::NodeTemplate<false>, cvc5::internal::NodeTemplate<true>>, std::_Select1st<std::pair<const cvc5::internal::NodeTemplate<false>, cvc5::internal::NodeTemplate<true>>>, std::less<cvc5::internal::NodeTemplate<false>>>::_Rb_tree_impl" }
%"struct.std::_Rb_tree<cvc5::internal::NodeTemplate<false>, std::pair<const cvc5::internal::NodeTemplate<false>, cvc5::internal::NodeTemplate<true>>, std::_Select1st<std::pair<const cvc5::internal::NodeTemplate<false>, cvc5::internal::NodeTemplate<true>>>, std::less<cvc5::internal::NodeTemplate<false>>>::_Rb_tree_impl" = type { %"struct.std::_Rb_tree_key_compare.116", %"struct.std::_Rb_tree_header" }
%"struct.std::_Rb_tree_key_compare.116" = type { %"struct.std::less.117" }
%"struct.std::less.117" = type { i8 }
%"struct.std::_Rb_tree_iterator.169" = type { ptr }
%"struct.std::_Rb_tree_const_iterator.170" = type { ptr }
%"struct.std::pair.130" = type { %"struct.std::pair.28", i32, [4 x i8] }
%"class.std::map.121" = type { %"class.std::_Rb_tree.122" }
%"class.std::_Rb_tree.122" = type { %"struct.std::_Rb_tree<std::pair<cvc5::internal::TypeNode, unsigned int>, std::pair<const std::pair<cvc5::internal::TypeNode, unsigned int>, unsigned int>, std::_Select1st<std::pair<const std::pair<cvc5::internal::TypeNode, unsigned int>, unsigned int>>, std::less<std::pair<cvc5::internal::TypeNode, unsigned int>>>::_Rb_tree_impl" }
%"struct.std::_Rb_tree<std::pair<cvc5::internal::TypeNode, unsigned int>, std::pair<const std::pair<cvc5::internal::TypeNode, unsigned int>, unsigned int>, std::_Select1st<std::pair<const std::pair<cvc5::internal::TypeNode, unsigned int>, unsigned int>>, std::less<std::pair<cvc5::internal::TypeNode, unsigned int>>>::_Rb_tree_impl" = type { %"struct.std::_Rb_tree_key_compare.13", %"struct.std::_Rb_tree_header" }
%"struct.std::_Rb_tree_const_iterator.173" = type { ptr }
%"class.std::tuple.174" = type { %"struct.std::_Tuple_impl.175" }
%"struct.std::_Tuple_impl.175" = type { %"struct.std::_Head_base.176" }
%"struct.std::_Head_base.176" = type { ptr }
%"struct.__gnu_cxx::__ops::_Iter_comp_iter" = type { %"struct.cvc5::internal::expr::sortTermOrder" }
%"struct.std::vector<cvc5::internal::NodeTemplate<true>>::_Temporary_value" = type { ptr, %"union.std::vector<cvc5::internal::NodeTemplate<true>>::_Temporary_value::_Storage" }
%"union.std::vector<cvc5::internal::NodeTemplate<true>>::_Temporary_value::_Storage" = type { %"class.cvc5::internal::NodeTemplate" }
%"class.cvc5::internal::NodeBuilder" = type <{ %"class.cvc5::internal::expr::NodeValue", [10 x ptr], ptr, ptr, i32, [4 x i8] }>
%"class.cvc5::internal::options::ioutils::Scope" = type <{ ptr, i8, [7 x i8], i64, i64, i8, [3 x i8], i32, i32, [4 x i8] }>
%"struct.std::_Rb_tree_node" = type { %"struct.std::_Rb_tree_node_base", %"struct.__gnu_cxx::__aligned_membuf" }
%"struct.__gnu_cxx::__aligned_membuf" = type { [16 x i8] }
%"struct.std::_Rb_tree_node.128" = type { %"struct.std::_Rb_tree_node_base", %"struct.__gnu_cxx::__aligned_membuf.129" }
%"struct.__gnu_cxx::__aligned_membuf.129" = type { [24 x i8] }
%struct._Guard = type { ptr }
%"struct.std::_Select1st" = type { i8 }
%"struct.std::_Rb_tree_node.133" = type { %"struct.std::_Rb_tree_node_base", %"struct.__gnu_cxx::__aligned_membuf.134" }
%"struct.__gnu_cxx::__aligned_membuf.134" = type { [16 x i8] }
%"struct.std::_Rb_tree<cvc5::internal::NodeTemplate<true>, std::pair<const cvc5::internal::NodeTemplate<true>, int>, std::_Select1st<std::pair<const cvc5::internal::NodeTemplate<true>, int>>, std::less<cvc5::internal::NodeTemplate<true>>>::_Auto_node" = type { ptr, ptr }
%"struct.std::pair.140" = type { ptr, ptr }
%"struct.std::_Select1st.145" = type { i8 }
%"struct.std::_Rb_tree_node.143" = type { %"struct.std::_Rb_tree_node_base", %"struct.__gnu_cxx::__aligned_membuf.144" }
%"struct.__gnu_cxx::__aligned_membuf.144" = type { [16 x i8] }
%"struct.std::_Rb_tree<cvc5::internal::TypeNode, std::pair<const cvc5::internal::TypeNode, int>, std::_Select1st<std::pair<const cvc5::internal::TypeNode, int>>, std::less<cvc5::internal::TypeNode>>::_Auto_node" = type { ptr, ptr }
%"struct.std::_Rb_tree<std::pair<cvc5::internal::TypeNode, unsigned int>, std::pair<const std::pair<cvc5::internal::TypeNode, unsigned int>, std::vector<cvc5::internal::NodeTemplate<true>>>, std::_Select1st<std::pair<const std::pair<cvc5::internal::TypeNode, unsigned int>, std::vector<cvc5::internal::NodeTemplate<true>>>>, std::less<std::pair<cvc5::internal::TypeNode, unsigned int>>>::_Auto_node" = type { ptr, ptr }
%"struct.std::_Select1st.160" = type { i8 }
%"struct.std::_Rb_tree_node.158" = type { %"struct.std::_Rb_tree_node_base", %"struct.__gnu_cxx::__aligned_membuf.159" }
%"struct.__gnu_cxx::__aligned_membuf.159" = type { [40 x i8] }
%"struct.std::_Rb_tree<cvc5::internal::NodeTemplate<true>, std::pair<const cvc5::internal::NodeTemplate<true>, unsigned long>, std::_Select1st<std::pair<const cvc5::internal::NodeTemplate<true>, unsigned long>>, std::less<cvc5::internal::NodeTemplate<true>>>::_Auto_node" = type { ptr, ptr }
%"struct.std::_Select1st.165" = type { i8 }
%"struct.std::_Rb_tree_node.163" = type { %"struct.std::_Rb_tree_node_base", %"struct.__gnu_cxx::__aligned_membuf.164" }
%"struct.__gnu_cxx::__aligned_membuf.164" = type { [16 x i8] }
%"struct.std::_Select1st.167" = type { i8 }
%"struct.std::_Rb_tree<std::pair<cvc5::internal::TypeNode, unsigned int>, std::pair<const std::pair<cvc5::internal::TypeNode, unsigned int>, unsigned int>, std::_Select1st<std::pair<const std::pair<cvc5::internal::TypeNode, unsigned int>, unsigned int>>, std::less<std::pair<cvc5::internal::TypeNode, unsigned int>>>::_Auto_node" = type { ptr, ptr }
%"struct.std::_Select1st.171" = type { i8 }
%"struct.std::_Rb_tree<cvc5::internal::NodeTemplate<false>, std::pair<const cvc5::internal::NodeTemplate<false>, cvc5::internal::NodeTemplate<true>>, std::_Select1st<std::pair<const cvc5::internal::NodeTemplate<false>, cvc5::internal::NodeTemplate<true>>>, std::less<cvc5::internal::NodeTemplate<false>>>::_Auto_node" = type { ptr, ptr }
%"struct.__gnu_cxx::__ops::_Iter_comp_val" = type { %"struct.cvc5::internal::expr::sortTermOrder" }
%"struct.__gnu_cxx::__ops::_Val_comp_iter" = type { %"struct.cvc5::internal::expr::sortTermOrder" }

$_ZNSt3mapIN4cvc58internal12NodeTemplateILb1EEEiSt4lessIS3_ESaISt4pairIKS3_iEEEC2Ev = comdat any

$_ZNSt3mapIN4cvc58internal8TypeNodeEiSt4lessIS2_ESaISt4pairIKS2_iEEEC2Ev = comdat any

$_ZNSt3mapISt4pairIN4cvc58internal8TypeNodeEjESt6vectorINS2_12NodeTemplateILb1EEESaIS7_EESt4lessIS4_ESaIS0_IKS4_S9_EEEC2Ev = comdat any

$_ZNSt3mapIN4cvc58internal12NodeTemplateILb1EEEmSt4lessIS3_ESaISt4pairIKS3_mEEEC2Ev = comdat any

$_ZNSt3mapIN4cvc58internal12NodeTemplateILb1EEEiSt4lessIS3_ESaISt4pairIKS3_iEEE4findERS7_ = comdat any

$_ZSteqRKSt17_Rb_tree_iteratorISt4pairIKN4cvc58internal12NodeTemplateILb1EEEiEES9_ = comdat any

$_ZNSt3mapIN4cvc58internal12NodeTemplateILb1EEEiSt4lessIS3_ESaISt4pairIKS3_iEEE3endEv = comdat any

$_ZNSt3mapIN4cvc58internal12NodeTemplateILb1EEEiSt4lessIS3_ESaISt4pairIKS3_iEEEixERS7_ = comdat any

$_ZNKSt17_Rb_tree_iteratorISt4pairIKN4cvc58internal12NodeTemplateILb1EEEiEEptEv = comdat any

$_ZNSt3mapIN4cvc58internal8TypeNodeEiSt4lessIS2_ESaISt4pairIKS2_iEEE4findERS6_ = comdat any

$_ZSteqRKSt17_Rb_tree_iteratorISt4pairIKN4cvc58internal8TypeNodeEiEES8_ = comdat any

$_ZNSt3mapIN4cvc58internal8TypeNodeEiSt4lessIS2_ESaISt4pairIKS2_iEEE3endEv = comdat any

$_ZNSt3mapIN4cvc58internal8TypeNodeEiSt4lessIS2_ESaISt4pairIKS2_iEEEixERS6_ = comdat any

$_ZNKSt17_Rb_tree_iteratorISt4pairIKN4cvc58internal8TypeNodeEiEEptEv = comdat any

$_ZNK4cvc58internal12NodeTemplateILb1EE7getKindEv = comdat any

$_ZNK4cvc58internal12NodeTemplateILb1EEltILb1EEEbRKNS1_IXT_EEE = comdat any

$_ZNK4cvc58internal12NodeTemplateILb1EE11hasOperatorEv = comdat any

$_ZNK4cvc58internal12NodeTemplateILb1EE11getOperatorEv = comdat any

$_ZN4cvc58internal12NodeTemplateILb1EEC2ERKS2_ = comdat any

$_ZN4cvc58internal11__cvc5_truecvbEv = comdat any

$_ZNK4cvc58internal5NullCcvNS0_11Cvc5ostreamEEv = comdat any

$_ZNK4cvc58internal6TraceCclEv = comdat any

$_ZN4cvc58internal11Cvc5ostreamlsINS0_12NodeTemplateILb1EEEEERS1_RKT_ = comdat any

$_ZN4cvc58internal11Cvc5ostreamlsIA9_cEERS1_RKT_ = comdat any

$_ZN4cvc58internal11Cvc5ostreamlsEPFRSoS2_E = comdat any

$_ZNK4cvc58internal12NodeTemplateILb1EEeqILb1EEEbRKNS1_IXT_EEE = comdat any

$_ZNK4cvc58internal12NodeTemplateILb1EE14getNumChildrenEv = comdat any

$_ZNK4cvc58internal12NodeTemplateILb1EEixEi = comdat any

$_ZNK4cvc58internal12NodeTemplateILb1EEneILb1EEEbRKNS1_IXT_EEE = comdat any

$_ZN4cvc58internal12NodeTemplateILb1EED2Ev = comdat any

$_ZNSt4pairIN4cvc58internal8TypeNodeEjEC2IRS2_RjTnNSt9enable_ifIXaaclsr5_PCCPE22_MoveConstructiblePairIT_T0_EEclsr5_PCCPE30_ImplicitlyMoveConvertiblePairIS8_S9_EEEbE4typeELb1EEEOS8_OS9_ = comdat any

$_ZNSt3mapISt4pairIN4cvc58internal8TypeNodeEjESt6vectorINS2_12NodeTemplateILb1EEESaIS7_EESt4lessIS4_ESaIS0_IKS4_S9_EEEixERSC_ = comdat any

$_ZNKSt6vectorIN4cvc58internal12NodeTemplateILb1EEESaIS3_EE4sizeEv = comdat any

$_ZNK4cvc58internal8TypeNode10isFunctionEv = comdat any

$_ZN4cvc58internallsERSoRKNS0_8TypeNodeE = comdat any

$_ZN9__gnu_cxx17__normal_iteratorIPKcNSt7__cxx1112basic_stringIcSt11char_traitsIcESaIcEEEEC2IPcvEERKNS0_IT_S8_EE = comdat any

$_ZNSt7__cxx1112basic_stringIcSt11char_traitsIcESaIcEEC2IS3_EEPKcRKS3_ = comdat any

$_ZNSt3mapIN4cvc58internal12NodeTemplateILb1EEEmSt4lessIS3_ESaISt4pairIKS3_mEEEixERS7_ = comdat any

$_ZNSt6vectorIN4cvc58internal12NodeTemplateILb1EEESaIS3_EE9push_backERKS3_ = comdat any

$_ZNSt6vectorIN4cvc58internal12NodeTemplateILb1EEESaIS3_EEixEm = comdat any

$_ZNSt4pairIN4cvc58internal8TypeNodeEjED2Ev = comdat any

$_ZN4cvc58internal12NodeTemplateILb0EEC2ERKS2_ = comdat any

$_ZN4cvc58internal12NodeTemplateILb0EED2Ev = comdat any

$_ZNKSt3mapIN4cvc58internal12NodeTemplateILb1EEEmSt4lessIS3_ESaISt4pairIKS3_mEEE4findERS7_ = comdat any

$_ZSteqRKSt23_Rb_tree_const_iteratorISt4pairIKN4cvc58internal12NodeTemplateILb1EEEmEES9_ = comdat any

$_ZNKSt3mapIN4cvc58internal12NodeTemplateILb1EEEmSt4lessIS3_ESaISt4pairIKS3_mEEE3endEv = comdat any

$_ZNKSt23_Rb_tree_const_iteratorISt4pairIKN4cvc58internal12NodeTemplateILb1EEEmEEptEv = comdat any

$_ZNSt3mapIN4cvc58internal12NodeTemplateILb0EEENS2_ILb1EEESt4lessIS3_ESaISt4pairIKS3_S4_EEE4findERS8_ = comdat any

$_ZStneRKSt17_Rb_tree_iteratorISt4pairIKN4cvc58internal12NodeTemplateILb0EEENS3_ILb1EEEEESA_ = comdat any

$_ZNSt3mapIN4cvc58internal12NodeTemplateILb0EEENS2_ILb1EEESt4lessIS3_ESaISt4pairIKS3_S4_EEE3endEv = comdat any

$_ZNKSt17_Rb_tree_iteratorISt4pairIKN4cvc58internal12NodeTemplateILb0EEENS3_ILb1EEEEEptEv = comdat any

$_ZN4cvc58internal11Cvc5ostreamlsIA24_cEERS1_RKT_ = comdat any

$_ZN4cvc58internal11Cvc5ostreamlsINS0_12NodeTemplateILb0EEEEERS1_RKT_ = comdat any

$_ZNK4cvc58internal12NodeTemplateILb0EE7getKindEv = comdat any

$_ZNK4cvc58internal12NodeTemplateILb0EE7getTypeEb = comdat any

$_ZNSt3mapISt4pairIN4cvc58internal8TypeNodeEjEjSt4lessIS4_ESaIS0_IKS4_jEEEixERS7_ = comdat any

$_ZN4cvc58internal8TypeNodeC2ERKS1_ = comdat any

$_ZN4cvc58internal8TypeNodeD2Ev = comdat any

$_ZNSt3mapIN4cvc58internal12NodeTemplateILb0EEENS2_ILb1EEESt4lessIS3_ESaISt4pairIKS3_S4_EEEixERS8_ = comdat any

$_ZN4cvc58internal12NodeTemplateILb1EEaSERKS2_ = comdat any

$_ZN4cvc58internal11Cvc5ostreamlsIA22_cEERS1_RKT_ = comdat any

$_ZNK4cvc58internal12NodeTemplateILb0EE14getNumChildrenEv = comdat any

$_ZN4cvc58internal11Cvc5ostreamlsIA17_cEERS1_RKT_ = comdat any

$_ZNSt6vectorIN4cvc58internal12NodeTemplateILb1EEESaIS3_EEC2Ev = comdat any

$_ZN4cvc58internal12NodeTemplateILb0EE5beginEv = comdat any

$_ZN4cvc58internal12NodeTemplateILb0EE3endEv = comdat any

$_ZNK4cvc58internal4expr9NodeValue8iteratorINS0_12NodeTemplateILb0EEEEneERKS6_ = comdat any

$_ZNK4cvc58internal4expr9NodeValue8iteratorINS0_12NodeTemplateILb0EEEEdeEv = comdat any

$_ZN4cvc58internal12NodeTemplateILb1EEC2ERKNS1_ILb0EEE = comdat any

$_ZN4cvc58internal4expr9NodeValue8iteratorINS0_12NodeTemplateILb0EEEEppEv = comdat any

$_ZN4cvc58internal11Cvc5ostreamlsIA36_cEERS1_RKT_ = comdat any

$_ZN4cvc58internal11Cvc5ostreamlsINS0_4kind6Kind_tEEERS1_RKT_ = comdat any

$_ZSt4sortIN9__gnu_cxx17__normal_iteratorIPN4cvc58internal12NodeTemplateILb1EEESt6vectorIS5_SaIS5_EEEENS3_4expr13sortTermOrderEEvT_SD_T0_ = comdat any

$_ZNSt6vectorIN4cvc58internal12NodeTemplateILb1EEESaIS3_EE5beginEv = comdat any

$_ZNSt6vectorIN4cvc58internal12NodeTemplateILb1EEESaIS3_EE3endEv = comdat any

$_ZN4cvc58internal12NodeTemplateILb0EEC2ERKNS1_ILb1EEE = comdat any

$_ZNK4cvc58internal12NodeTemplateILb0EE11getMetaKindEv = comdat any

$_ZNK4cvc58internal12NodeTemplateILb0EE11getOperatorEv = comdat any

$_ZNSt6vectorIN4cvc58internal12NodeTemplateILb1EEESaIS3_EE6insertEN9__gnu_cxx17__normal_iteratorIPKS3_S5_EERS8_ = comdat any

$_ZN9__gnu_cxx17__normal_iteratorIPKN4cvc58internal12NodeTemplateILb1EEESt6vectorIS4_SaIS4_EEEC2IPS4_vEERKNS0_IT_S9_EE = comdat any

$_ZN4cvc58internal11Cvc5ostreamlsIA21_cEERS1_RKT_ = comdat any

$_ZN4cvc58internal11Cvc5ostreamlsIA2_cEERS1_RKT_ = comdat any

$_ZN4cvc58internal11NodeManager6mkNodeILb1EEENS0_12NodeTemplateILb1EEENS0_4kind6Kind_tERKSt6vectorINS3_IXT_EEESaIS8_EE = comdat any

$_ZN4cvc58internal11Cvc5ostreamlsIA16_cEERS1_RKT_ = comdat any

$_ZN4cvc58internal11Cvc5ostreamlsIA6_cEERS1_RKT_ = comdat any

$_ZNSt6vectorIN4cvc58internal12NodeTemplateILb1EEESaIS3_EED2Ev = comdat any

$_ZNSt3mapISt4pairIN4cvc58internal8TypeNodeEjEjSt4lessIS4_ESaIS0_IKS4_jEEEC2Ev = comdat any

$_ZNSt3mapIN4cvc58internal12NodeTemplateILb0EEENS2_ILb1EEESt4lessIS3_ESaISt4pairIKS3_S4_EEEC2Ev = comdat any

$_ZNSt3mapIN4cvc58internal12NodeTemplateILb0EEENS2_ILb1EEESt4lessIS3_ESaISt4pairIKS3_S4_EEED2Ev = comdat any

$_ZNSt3mapISt4pairIN4cvc58internal8TypeNodeEjEjSt4lessIS4_ESaIS0_IKS4_jEEED2Ev = comdat any

$_ZNSt8_Rb_treeIN4cvc58internal12NodeTemplateILb1EEESt4pairIKS3_iESt10_Select1stIS6_ESt4lessIS3_ESaIS6_EEC2Ev = comdat any

$_ZNSt8_Rb_treeIN4cvc58internal12NodeTemplateILb1EEESt4pairIKS3_iESt10_Select1stIS6_ESt4lessIS3_ESaIS6_EE13_Rb_tree_implISA_Lb1EEC2Ev = comdat any

$_ZNSaISt13_Rb_tree_nodeISt4pairIKN4cvc58internal12NodeTemplateILb1EEEiEEEC2Ev = comdat any

$_ZNSt20_Rb_tree_key_compareISt4lessIN4cvc58internal12NodeTemplateILb1EEEEEC2Ev = comdat any

$_ZNSt15_Rb_tree_headerC2Ev = comdat any

$_ZNSt15__new_allocatorISt13_Rb_tree_nodeISt4pairIKN4cvc58internal12NodeTemplateILb1EEEiEEEC2Ev = comdat any

$_ZNSt15_Rb_tree_header8_M_resetEv = comdat any

$__clang_call_terminate = comdat any

$_ZNSt8_Rb_treeIN4cvc58internal8TypeNodeESt4pairIKS2_iESt10_Select1stIS5_ESt4lessIS2_ESaIS5_EEC2Ev = comdat any

$_ZNSt8_Rb_treeIN4cvc58internal8TypeNodeESt4pairIKS2_iESt10_Select1stIS5_ESt4lessIS2_ESaIS5_EE13_Rb_tree_implIS9_Lb1EEC2Ev = comdat any

$_ZNSaISt13_Rb_tree_nodeISt4pairIKN4cvc58internal8TypeNodeEiEEEC2Ev = comdat any

$_ZNSt20_Rb_tree_key_compareISt4lessIN4cvc58internal8TypeNodeEEEC2Ev = comdat any

$_ZNSt15__new_allocatorISt13_Rb_tree_nodeISt4pairIKN4cvc58internal8TypeNodeEiEEEC2Ev = comdat any

$_ZNSt8_Rb_treeISt4pairIN4cvc58internal8TypeNodeEjES0_IKS4_St6vectorINS2_12NodeTemplateILb1EEESaIS8_EEESt10_Select1stISB_ESt4lessIS4_ESaISB_EEC2Ev = comdat any

$_ZNSt8_Rb_treeISt4pairIN4cvc58internal8TypeNodeEjES0_IKS4_St6vectorINS2_12NodeTemplateILb1EEESaIS8_EEESt10_Select1stISB_ESt4lessIS4_ESaISB_EE13_Rb_tree_implISF_Lb1EEC2Ev = comdat any

$_ZNSaISt13_Rb_tree_nodeISt4pairIKS0_IN4cvc58internal8TypeNodeEjESt6vectorINS2_12NodeTemplateILb1EEESaIS8_EEEEEC2Ev = comdat any

$_ZNSt20_Rb_tree_key_compareISt4lessISt4pairIN4cvc58internal8TypeNodeEjEEEC2Ev = comdat any

$_ZNSt15__new_allocatorISt13_Rb_tree_nodeISt4pairIKS1_IN4cvc58internal8TypeNodeEjESt6vectorINS3_12NodeTemplateILb1EEESaIS9_EEEEEC2Ev = comdat any

$_ZNSt8_Rb_treeIN4cvc58internal12NodeTemplateILb1EEESt4pairIKS3_mESt10_Select1stIS6_ESt4lessIS3_ESaIS6_EEC2Ev = comdat any

$_ZNSt8_Rb_treeIN4cvc58internal12NodeTemplateILb1EEESt4pairIKS3_mESt10_Select1stIS6_ESt4lessIS3_ESaIS6_EE13_Rb_tree_implISA_Lb1EEC2Ev = comdat any

$_ZNSaISt13_Rb_tree_nodeISt4pairIKN4cvc58internal12NodeTemplateILb1EEEmEEEC2Ev = comdat any

$_ZNSt15__new_allocatorISt13_Rb_tree_nodeISt4pairIKN4cvc58internal12NodeTemplateILb1EEEmEEEC2Ev = comdat any

$_ZN4cvc58internal11Cvc5ostreamC2Ev = comdat any

$_ZN4cvc58internal11Cvc5ostreamC2EPSo = comdat any

$_ZNK4cvc58internal8TypeNode7getKindEv = comdat any

$_ZNK4cvc58internal8TypeNode8toStreamERSo = comdat any

$_ZN4cvc58internal4expr9NodeValue3incEv = comdat any

$_ZN4cvc58internal4expr9NodeValue3decEv = comdat any

$_ZNSt12_Vector_baseIN4cvc58internal12NodeTemplateILb1EEESaIS3_EEC2Ev = comdat any

$_ZNSt12_Vector_baseIN4cvc58internal12NodeTemplateILb1EEESaIS3_EE12_Vector_implC2Ev = comdat any

$_ZNSaIN4cvc58internal12NodeTemplateILb1EEEEC2Ev = comdat any

$_ZNSt12_Vector_baseIN4cvc58internal12NodeTemplateILb1EEESaIS3_EE17_Vector_impl_dataC2Ev = comdat any

$_ZNSt15__new_allocatorIN4cvc58internal12NodeTemplateILb1EEEEC2Ev = comdat any

$_ZNSt8_Rb_treeISt4pairIN4cvc58internal8TypeNodeEjES0_IKS4_jESt10_Select1stIS6_ESt4lessIS4_ESaIS6_EEC2Ev = comdat any

$_ZNSt8_Rb_treeISt4pairIN4cvc58internal8TypeNodeEjES0_IKS4_jESt10_Select1stIS6_ESt4lessIS4_ESaIS6_EE13_Rb_tree_implISA_Lb1EEC2Ev = comdat any

$_ZNSaISt13_Rb_tree_nodeISt4pairIKS0_IN4cvc58internal8TypeNodeEjEjEEEC2Ev = comdat any

$_ZNSt15__new_allocatorISt13_Rb_tree_nodeISt4pairIKS1_IN4cvc58internal8TypeNodeEjEjEEEC2Ev = comdat any

$_ZNSt8_Rb_treeIN4cvc58internal12NodeTemplateILb0EEESt4pairIKS3_NS2_ILb1EEEESt10_Select1stIS7_ESt4lessIS3_ESaIS7_EEC2Ev = comdat any

$_ZNSt8_Rb_treeIN4cvc58internal12NodeTemplateILb0EEESt4pairIKS3_NS2_ILb1EEEESt10_Select1stIS7_ESt4lessIS3_ESaIS7_EE13_Rb_tree_implISB_Lb1EEC2Ev = comdat any

$_ZNSaISt13_Rb_tree_nodeISt4pairIKN4cvc58internal12NodeTemplateILb0EEENS3_ILb1EEEEEEC2Ev = comdat any

$_ZNSt20_Rb_tree_key_compareISt4lessIN4cvc58internal12NodeTemplateILb0EEEEEC2Ev = comdat any

$_ZNSt15__new_allocatorISt13_Rb_tree_nodeISt4pairIKN4cvc58internal12NodeTemplateILb0EEENS4_ILb1EEEEEEC2Ev = comdat any

$_ZNSt8_Rb_treeIN4cvc58internal12NodeTemplateILb0EEESt4pairIKS3_NS2_ILb1EEEESt10_Select1stIS7_ESt4lessIS3_ESaIS7_EED2Ev = comdat any

$_ZNSt8_Rb_treeIN4cvc58internal12NodeTemplateILb0EEESt4pairIKS3_NS2_ILb1EEEESt10_Select1stIS7_ESt4lessIS3_ESaIS7_EE8_M_eraseEPSt13_Rb_tree_nodeIS7_E = comdat any

$_ZNSt8_Rb_treeIN4cvc58internal12NodeTemplateILb0EEESt4pairIKS3_NS2_ILb1EEEESt10_Select1stIS7_ESt4lessIS3_ESaIS7_EE8_M_beginEv = comdat any

$_ZNSt8_Rb_treeIN4cvc58internal12NodeTemplateILb0EEESt4pairIKS3_NS2_ILb1EEEESt10_Select1stIS7_ESt4lessIS3_ESaIS7_EE13_Rb_tree_implISB_Lb1EED2Ev = comdat any

$_ZNSt8_Rb_treeIN4cvc58internal12NodeTemplateILb0EEESt4pairIKS3_NS2_ILb1EEEESt10_Select1stIS7_ESt4lessIS3_ESaIS7_EE8_S_rightEPSt18_Rb_tree_node_base = comdat any

$_ZNSt8_Rb_treeIN4cvc58internal12NodeTemplateILb0EEESt4pairIKS3_NS2_ILb1EEEESt10_Select1stIS7_ESt4lessIS3_ESaIS7_EE7_S_leftEPSt18_Rb_tree_node_base = comdat any

$_ZNSt8_Rb_treeIN4cvc58internal12NodeTemplateILb0EEESt4pairIKS3_NS2_ILb1EEEESt10_Select1stIS7_ESt4lessIS3_ESaIS7_EE12_M_drop_nodeEPSt13_Rb_tree_nodeIS7_E = comdat any

$_ZNSt8_Rb_treeIN4cvc58internal12NodeTemplateILb0EEESt4pairIKS3_NS2_ILb1EEEESt10_Select1stIS7_ESt4lessIS3_ESaIS7_EE15_M_destroy_nodeEPSt13_Rb_tree_nodeIS7_E = comdat any

$_ZNSt8_Rb_treeIN4cvc58internal12NodeTemplateILb0EEESt4pairIKS3_NS2_ILb1EEEESt10_Select1stIS7_ESt4lessIS3_ESaIS7_EE11_M_put_nodeEPSt13_Rb_tree_nodeIS7_E = comdat any

$_ZNSt16allocator_traitsISaISt13_Rb_tree_nodeISt4pairIKN4cvc58internal12NodeTemplateILb0EEENS4_ILb1EEEEEEE7destroyIS8_EEvRSA_PT_ = comdat any

$_ZNSt8_Rb_treeIN4cvc58internal12NodeTemplateILb0EEESt4pairIKS3_NS2_ILb1EEEESt10_Select1stIS7_ESt4lessIS3_ESaIS7_EE21_M_get_Node_allocatorEv = comdat any

$_ZNSt13_Rb_tree_nodeISt4pairIKN4cvc58internal12NodeTemplateILb0EEENS3_ILb1EEEEE9_M_valptrEv = comdat any

$_ZNSt15__new_allocatorISt13_Rb_tree_nodeISt4pairIKN4cvc58internal12NodeTemplateILb0EEENS4_ILb1EEEEEE7destroyIS8_EEvPT_ = comdat any

$_ZNSt4pairIKN4cvc58internal12NodeTemplateILb0EEENS2_ILb1EEEED2Ev = comdat any

$_ZN9__gnu_cxx16__aligned_membufISt4pairIKN4cvc58internal12NodeTemplateILb0EEENS4_ILb1EEEEE6_M_ptrEv = comdat any

$_ZN9__gnu_cxx16__aligned_membufISt4pairIKN4cvc58internal12NodeTemplateILb0EEENS4_ILb1EEEEE7_M_addrEv = comdat any

$_ZNSt16allocator_traitsISaISt13_Rb_tree_nodeISt4pairIKN4cvc58internal12NodeTemplateILb0EEENS4_ILb1EEEEEEE10deallocateERSA_PS9_m = comdat any

$_ZNSt15__new_allocatorISt13_Rb_tree_nodeISt4pairIKN4cvc58internal12NodeTemplateILb0EEENS4_ILb1EEEEEE10deallocateEPS9_m = comdat any

$_ZNKSt8_Rb_treeIN4cvc58internal12NodeTemplateILb0EEESt4pairIKS3_NS2_ILb1EEEESt10_Select1stIS7_ESt4lessIS3_ESaIS7_EE9_M_mbeginEv = comdat any

$_ZNSaISt13_Rb_tree_nodeISt4pairIKN4cvc58internal12NodeTemplateILb0EEENS3_ILb1EEEEEED2Ev = comdat any

$_ZNSt15__new_allocatorISt13_Rb_tree_nodeISt4pairIKN4cvc58internal12NodeTemplateILb0EEENS4_ILb1EEEEEED2Ev = comdat any

$_ZNSt8_Rb_treeISt4pairIN4cvc58internal8TypeNodeEjES0_IKS4_jESt10_Select1stIS6_ESt4lessIS4_ESaIS6_EED2Ev = comdat any

$_ZNSt8_Rb_treeISt4pairIN4cvc58internal8TypeNodeEjES0_IKS4_jESt10_Select1stIS6_ESt4lessIS4_ESaIS6_EE8_M_eraseEPSt13_Rb_tree_nodeIS6_E = comdat any

$_ZNSt8_Rb_treeISt4pairIN4cvc58internal8TypeNodeEjES0_IKS4_jESt10_Select1stIS6_ESt4lessIS4_ESaIS6_EE8_M_beginEv = comdat any

$_ZNSt8_Rb_treeISt4pairIN4cvc58internal8TypeNodeEjES0_IKS4_jESt10_Select1stIS6_ESt4lessIS4_ESaIS6_EE13_Rb_tree_implISA_Lb1EED2Ev = comdat any

$_ZNSt8_Rb_treeISt4pairIN4cvc58internal8TypeNodeEjES0_IKS4_jESt10_Select1stIS6_ESt4lessIS4_ESaIS6_EE8_S_rightEPSt18_Rb_tree_node_base = comdat any

$_ZNSt8_Rb_treeISt4pairIN4cvc58internal8TypeNodeEjES0_IKS4_jESt10_Select1stIS6_ESt4lessIS4_ESaIS6_EE7_S_leftEPSt18_Rb_tree_node_base = comdat any

$_ZNSt8_Rb_treeISt4pairIN4cvc58internal8TypeNodeEjES0_IKS4_jESt10_Select1stIS6_ESt4lessIS4_ESaIS6_EE12_M_drop_nodeEPSt13_Rb_tree_nodeIS6_E = comdat any

$_ZNSt8_Rb_treeISt4pairIN4cvc58internal8TypeNodeEjES0_IKS4_jESt10_Select1stIS6_ESt4lessIS4_ESaIS6_EE15_M_destroy_nodeEPSt13_Rb_tree_nodeIS6_E = comdat any

$_ZNSt8_Rb_treeISt4pairIN4cvc58internal8TypeNodeEjES0_IKS4_jESt10_Select1stIS6_ESt4lessIS4_ESaIS6_EE11_M_put_nodeEPSt13_Rb_tree_nodeIS6_E = comdat any

$_ZNSt16allocator_traitsISaISt13_Rb_tree_nodeISt4pairIKS1_IN4cvc58internal8TypeNodeEjEjEEEE7destroyIS7_EEvRS9_PT_ = comdat any

$_ZNSt8_Rb_treeISt4pairIN4cvc58internal8TypeNodeEjES0_IKS4_jESt10_Select1stIS6_ESt4lessIS4_ESaIS6_EE21_M_get_Node_allocatorEv = comdat any

$_ZNSt13_Rb_tree_nodeISt4pairIKS0_IN4cvc58internal8TypeNodeEjEjEE9_M_valptrEv = comdat any

$_ZNSt15__new_allocatorISt13_Rb_tree_nodeISt4pairIKS1_IN4cvc58internal8TypeNodeEjEjEEE7destroyIS7_EEvPT_ = comdat any

$_ZNSt4pairIKS_IN4cvc58internal8TypeNodeEjEjED2Ev = comdat any

$_ZN9__gnu_cxx16__aligned_membufISt4pairIKS1_IN4cvc58internal8TypeNodeEjEjEE6_M_ptrEv = comdat any

$_ZN9__gnu_cxx16__aligned_membufISt4pairIKS1_IN4cvc58internal8TypeNodeEjEjEE7_M_addrEv = comdat any

$_ZNSt16allocator_traitsISaISt13_Rb_tree_nodeISt4pairIKS1_IN4cvc58internal8TypeNodeEjEjEEEE10deallocateERS9_PS8_m = comdat any

$_ZNSt15__new_allocatorISt13_Rb_tree_nodeISt4pairIKS1_IN4cvc58internal8TypeNodeEjEjEEE10deallocateEPS8_m = comdat any

$_ZNKSt8_Rb_treeISt4pairIN4cvc58internal8TypeNodeEjES0_IKS4_jESt10_Select1stIS6_ESt4lessIS4_ESaIS6_EE9_M_mbeginEv = comdat any

$_ZNSaISt13_Rb_tree_nodeISt4pairIKS0_IN4cvc58internal8TypeNodeEjEjEEED2Ev = comdat any

$_ZNSt15__new_allocatorISt13_Rb_tree_nodeISt4pairIKS1_IN4cvc58internal8TypeNodeEjEjEEED2Ev = comdat any

$_ZNSt11char_traitsIcE6lengthEPKc = comdat any

$_ZNSt7__cxx1112basic_stringIcSt11char_traitsIcESaIcEE12_M_constructIPKcEEvT_S8_St20forward_iterator_tag = comdat any

$_ZNSt7__cxx1112basic_stringIcSt11char_traitsIcESaIcEE12_Alloc_hiderD2Ev = comdat any

$_ZSt8distanceIPKcENSt15iterator_traitsIT_E15difference_typeES3_S3_ = comdat any

$_ZZNSt7__cxx1112basic_stringIcSt11char_traitsIcESaIcEE12_M_constructIPKcEEvT_S8_St20forward_iterator_tagEN6_GuardC2EPS4_ = comdat any

$_ZZNSt7__cxx1112basic_stringIcSt11char_traitsIcESaIcEE12_M_constructIPKcEEvT_S8_St20forward_iterator_tagEN6_GuardD2Ev = comdat any

$_ZSt10__distanceIPKcENSt15iterator_traitsIT_E15difference_typeES3_S3_St26random_access_iterator_tag = comdat any

$_ZSt19__iterator_categoryIPKcENSt15iterator_traitsIT_E17iterator_categoryERKS3_ = comdat any

$_ZNSt8ios_base5iwordEi = comdat any

$_ZNK4cvc58internal12NodeTemplateILb0EE21assertTNodeNotExpiredEv = comdat any

$_ZNSt8_Rb_treeIN4cvc58internal12NodeTemplateILb1EEESt4pairIKS3_iESt10_Select1stIS6_ESt4lessIS3_ESaIS6_EE4findERS5_ = comdat any

$_ZNSt8_Rb_treeIN4cvc58internal12NodeTemplateILb1EEESt4pairIKS3_iESt10_Select1stIS6_ESt4lessIS3_ESaIS6_EE14_M_lower_boundEPSt13_Rb_tree_nodeIS6_EPSt18_Rb_tree_node_baseRS5_ = comdat any

$_ZNSt8_Rb_treeIN4cvc58internal12NodeTemplateILb1EEESt4pairIKS3_iESt10_Select1stIS6_ESt4lessIS3_ESaIS6_EE8_M_beginEv = comdat any

$_ZNSt8_Rb_treeIN4cvc58internal12NodeTemplateILb1EEESt4pairIKS3_iESt10_Select1stIS6_ESt4lessIS3_ESaIS6_EE6_M_endEv = comdat any

$_ZNSt8_Rb_treeIN4cvc58internal12NodeTemplateILb1EEESt4pairIKS3_iESt10_Select1stIS6_ESt4lessIS3_ESaIS6_EE3endEv = comdat any

$_ZNKSt4lessIN4cvc58internal12NodeTemplateILb1EEEEclERKS3_S6_ = comdat any

$_ZNSt8_Rb_treeIN4cvc58internal12NodeTemplateILb1EEESt4pairIKS3_iESt10_Select1stIS6_ESt4lessIS3_ESaIS6_EE6_S_keyEPKSt18_Rb_tree_node_base = comdat any

$_ZNSt8_Rb_treeIN4cvc58internal12NodeTemplateILb1EEESt4pairIKS3_iESt10_Select1stIS6_ESt4lessIS3_ESaIS6_EE6_S_keyEPKSt13_Rb_tree_nodeIS6_E = comdat any

$_ZNSt8_Rb_treeIN4cvc58internal12NodeTemplateILb1EEESt4pairIKS3_iESt10_Select1stIS6_ESt4lessIS3_ESaIS6_EE7_S_leftEPSt18_Rb_tree_node_base = comdat any

$_ZNSt8_Rb_treeIN4cvc58internal12NodeTemplateILb1EEESt4pairIKS3_iESt10_Select1stIS6_ESt4lessIS3_ESaIS6_EE8_S_rightEPSt18_Rb_tree_node_base = comdat any

$_ZNSt17_Rb_tree_iteratorISt4pairIKN4cvc58internal12NodeTemplateILb1EEEiEEC2EPSt18_Rb_tree_node_base = comdat any

$_ZNKSt10_Select1stISt4pairIKN4cvc58internal12NodeTemplateILb1EEEiEEclERKS6_ = comdat any

$_ZNKSt13_Rb_tree_nodeISt4pairIKN4cvc58internal12NodeTemplateILb1EEEiEE9_M_valptrEv = comdat any

$_ZNK9__gnu_cxx16__aligned_membufISt4pairIKN4cvc58internal12NodeTemplateILb1EEEiEE6_M_ptrEv = comdat any

$_ZNK9__gnu_cxx16__aligned_membufISt4pairIKN4cvc58internal12NodeTemplateILb1EEEiEE7_M_addrEv = comdat any

$_ZNKSt8_Rb_treeIN4cvc58internal12NodeTemplateILb1EEESt4pairIKS3_iESt10_Select1stIS6_ESt4lessIS3_ESaIS6_EE9_M_mbeginEv = comdat any

$_ZNSt3mapIN4cvc58internal12NodeTemplateILb1EEEiSt4lessIS3_ESaISt4pairIKS3_iEEE11lower_boundERS7_ = comdat any

$_ZNKSt3mapIN4cvc58internal12NodeTemplateILb1EEEiSt4lessIS3_ESaISt4pairIKS3_iEEE8key_compEv = comdat any

$_ZNKSt17_Rb_tree_iteratorISt4pairIKN4cvc58internal12NodeTemplateILb1EEEiEEdeEv = comdat any

$_ZNSt8_Rb_treeIN4cvc58internal12NodeTemplateILb1EEESt4pairIKS3_iESt10_Select1stIS6_ESt4lessIS3_ESaIS6_EE22_M_emplace_hint_uniqueIJRKSt21piecewise_construct_tSt5tupleIJRS5_EESH_IJEEEEESt17_Rb_tree_iteratorIS6_ESt23_Rb_tree_const_iteratorIS6_EDpOT_ = comdat any

$_ZNSt23_Rb_tree_const_iteratorISt4pairIKN4cvc58internal12NodeTemplateILb1EEEiEEC2ERKSt17_Rb_tree_iteratorIS6_E = comdat any

$_ZNSt5tupleIJRKN4cvc58internal12NodeTemplateILb1EEEEEC2ILb1ETnNSt9enable_ifIXclsr4_TCCIXT_EEE29__is_implicitly_constructibleIS5_EEEbE4typeELb1EEES5_ = comdat any

$_ZNSt8_Rb_treeIN4cvc58internal12NodeTemplateILb1EEESt4pairIKS3_iESt10_Select1stIS6_ESt4lessIS3_ESaIS6_EE11lower_boundERS5_ = comdat any

$_ZNKSt8_Rb_treeIN4cvc58internal12NodeTemplateILb1EEESt4pairIKS3_iESt10_Select1stIS6_ESt4lessIS3_ESaIS6_EE8key_compEv = comdat any

$_ZNSt13_Rb_tree_nodeISt4pairIKN4cvc58internal12NodeTemplateILb1EEEiEE9_M_valptrEv = comdat any

$_ZN9__gnu_cxx16__aligned_membufISt4pairIKN4cvc58internal12NodeTemplateILb1EEEiEE6_M_ptrEv = comdat any

$_ZN9__gnu_cxx16__aligned_membufISt4pairIKN4cvc58internal12NodeTemplateILb1EEEiEE7_M_addrEv = comdat any

$_ZNSt8_Rb_treeIN4cvc58internal12NodeTemplateILb1EEESt4pairIKS3_iESt10_Select1stIS6_ESt4lessIS3_ESaIS6_EE10_Auto_nodeC2IJRKSt21piecewise_construct_tSt5tupleIJRS5_EESI_IJEEEEERSC_DpOT_ = comdat any

$_ZNSt8_Rb_treeIN4cvc58internal12NodeTemplateILb1EEESt4pairIKS3_iESt10_Select1stIS6_ESt4lessIS3_ESaIS6_EE29_M_get_insert_hint_unique_posESt23_Rb_tree_const_iteratorIS6_ERS5_ = comdat any

$_ZNKSt8_Rb_treeIN4cvc58internal12NodeTemplateILb1EEESt4pairIKS3_iESt10_Select1stIS6_ESt4lessIS3_ESaIS6_EE10_Auto_node6_M_keyEv = comdat any

$_ZNSt8_Rb_treeIN4cvc58internal12NodeTemplateILb1EEESt4pairIKS3_iESt10_Select1stIS6_ESt4lessIS3_ESaIS6_EE10_Auto_node9_M_insertES4_IPSt18_Rb_tree_node_baseSF_E = comdat any

$_ZNSt8_Rb_treeIN4cvc58internal12NodeTemplateILb1EEESt4pairIKS3_iESt10_Select1stIS6_ESt4lessIS3_ESaIS6_EE10_Auto_nodeD2Ev = comdat any

$_ZNSt8_Rb_treeIN4cvc58internal12NodeTemplateILb1EEESt4pairIKS3_iESt10_Select1stIS6_ESt4lessIS3_ESaIS6_EE14_M_create_nodeIJRKSt21piecewise_construct_tSt5tupleIJRS5_EESH_IJEEEEEPSt13_Rb_tree_nodeIS6_EDpOT_ = comdat any

$_ZNSt8_Rb_treeIN4cvc58internal12NodeTemplateILb1EEESt4pairIKS3_iESt10_Select1stIS6_ESt4lessIS3_ESaIS6_EE11_M_get_nodeEv = comdat any

$_ZNSt8_Rb_treeIN4cvc58internal12NodeTemplateILb1EEESt4pairIKS3_iESt10_Select1stIS6_ESt4lessIS3_ESaIS6_EE17_M_construct_nodeIJRKSt21piecewise_construct_tSt5tupleIJRS5_EESH_IJEEEEEvPSt13_Rb_tree_nodeIS6_EDpOT_ = comdat any

$_ZNSt16allocator_traitsISaISt13_Rb_tree_nodeISt4pairIKN4cvc58internal12NodeTemplateILb1EEEiEEEE8allocateERS9_m = comdat any

$_ZNSt8_Rb_treeIN4cvc58internal12NodeTemplateILb1EEESt4pairIKS3_iESt10_Select1stIS6_ESt4lessIS3_ESaIS6_EE21_M_get_Node_allocatorEv = comdat any

$_ZNSt15__new_allocatorISt13_Rb_tree_nodeISt4pairIKN4cvc58internal12NodeTemplateILb1EEEiEEE8allocateEmPKv = comdat any

$_ZNKSt15__new_allocatorISt13_Rb_tree_nodeISt4pairIKN4cvc58internal12NodeTemplateILb1EEEiEEE11_M_max_sizeEv = comdat any

$_ZNSt16allocator_traitsISaISt13_Rb_tree_nodeISt4pairIKN4cvc58internal12NodeTemplateILb1EEEiEEEE9constructIS7_JRKSt21piecewise_construct_tSt5tupleIJRS6_EESF_IJEEEEEvRS9_PT_DpOT0_ = comdat any

$_ZNSt8_Rb_treeIN4cvc58internal12NodeTemplateILb1EEESt4pairIKS3_iESt10_Select1stIS6_ESt4lessIS3_ESaIS6_EE11_M_put_nodeEPSt13_Rb_tree_nodeIS6_E = comdat any

$_ZNSt15__new_allocatorISt13_Rb_tree_nodeISt4pairIKN4cvc58internal12NodeTemplateILb1EEEiEEE9constructIS7_JRKSt21piecewise_construct_tSt5tupleIJRS6_EESE_IJEEEEEvPT_DpOT0_ = comdat any

$_ZNSt5tupleIJRKN4cvc58internal12NodeTemplateILb1EEEEEC2EOS6_ = comdat any

$_ZNSt4pairIKN4cvc58internal12NodeTemplateILb1EEEiEC2IJRS4_EJEEESt21piecewise_construct_tSt5tupleIJDpT_EES9_IJDpT0_EE = comdat any

$_ZNSt11_Tuple_implILm0EJRKN4cvc58internal12NodeTemplateILb1EEEEEC2EOS6_ = comdat any

$_ZNSt4pairIKN4cvc58internal12NodeTemplateILb1EEEiEC2IJRS4_EJLm0EEJETpTnmJEEERSt5tupleIJDpT_EERS8_IJDpT1_EESt12_Index_tupleIJXspT0_EEESH_IJXspT2_EEE = comdat any

$_ZSt3getILm0EJRKN4cvc58internal12NodeTemplateILb1EEEEERNSt13tuple_elementIXT_ESt5tupleIJDpT0_EEE4typeERSA_ = comdat any

$_ZSt12__get_helperILm0ERKN4cvc58internal12NodeTemplateILb1EEEJEERT0_RSt11_Tuple_implIXT_EJS6_DpT1_EE = comdat any

$_ZNSt11_Tuple_implILm0EJRKN4cvc58internal12NodeTemplateILb1EEEEE7_M_headERS6_ = comdat any

$_ZNSt10_Head_baseILm0ERKN4cvc58internal12NodeTemplateILb1EEELb0EE7_M_headERS6_ = comdat any

$_ZNSt16allocator_traitsISaISt13_Rb_tree_nodeISt4pairIKN4cvc58internal12NodeTemplateILb1EEEiEEEE10deallocateERS9_PS8_m = comdat any

$_ZNSt15__new_allocatorISt13_Rb_tree_nodeISt4pairIKN4cvc58internal12NodeTemplateILb1EEEiEEE10deallocateEPS8_m = comdat any

$_ZNKSt23_Rb_tree_const_iteratorISt4pairIKN4cvc58internal12NodeTemplateILb1EEEiEE13_M_const_castEv = comdat any

$_ZNKSt8_Rb_treeIN4cvc58internal12NodeTemplateILb1EEESt4pairIKS3_iESt10_Select1stIS6_ESt4lessIS3_ESaIS6_EE4sizeEv = comdat any

$_ZNSt8_Rb_treeIN4cvc58internal12NodeTemplateILb1EEESt4pairIKS3_iESt10_Select1stIS6_ESt4lessIS3_ESaIS6_EE12_M_rightmostEv = comdat any

$_ZNSt4pairIPSt18_Rb_tree_node_baseS1_EC2IS1_S1_TnNSt9enable_ifIXaaclsr5_PCCPE18_ConstructiblePairIT_T0_EEclsr5_PCCPE26_ImplicitlyConvertiblePairIS5_S6_EEEbE4typeELb1EEERKS1_SA_ = comdat any

$_ZNSt8_Rb_treeIN4cvc58internal12NodeTemplateILb1EEESt4pairIKS3_iESt10_Select1stIS6_ESt4lessIS3_ESaIS6_EE24_M_get_insert_unique_posERS5_ = comdat any

$_ZNSt8_Rb_treeIN4cvc58internal12NodeTemplateILb1EEESt4pairIKS3_iESt10_Select1stIS6_ESt4lessIS3_ESaIS6_EE11_M_leftmostEv = comdat any

$_ZNSt4pairIPSt18_Rb_tree_node_baseS1_EC2IRS1_S4_TnNSt9enable_ifIXaaclsr5_PCCPE22_MoveConstructiblePairIT_T0_EEclsr5_PCCPE30_ImplicitlyMoveConvertiblePairIS6_S7_EEEbE4typeELb1EEEOS6_OS7_ = comdat any

$_ZNSt17_Rb_tree_iteratorISt4pairIKN4cvc58internal12NodeTemplateILb1EEEiEEmmEv = comdat any

$_ZNSt17_Rb_tree_iteratorISt4pairIKN4cvc58internal12NodeTemplateILb1EEEiEEppEv = comdat any

$_ZNSt8_Rb_treeIN4cvc58internal12NodeTemplateILb1EEESt4pairIKS3_iESt10_Select1stIS6_ESt4lessIS3_ESaIS6_EE5beginEv = comdat any

$_ZNSt4pairIPSt18_Rb_tree_node_baseS1_EC2IRPSt13_Rb_tree_nodeIS_IKN4cvc58internal12NodeTemplateILb1EEEiEERS1_TnNSt9enable_ifIXaaclsr5_PCCPE22_MoveConstructiblePairIT_T0_EEclsr5_PCCPE30_ImplicitlyMoveConvertiblePairISG_SH_EEEbE4typeELb1EEEOSG_OSH_ = comdat any

$_ZNSt8_Rb_treeIN4cvc58internal12NodeTemplateILb1EEESt4pairIKS3_iESt10_Select1stIS6_ESt4lessIS3_ESaIS6_EE14_M_insert_nodeEPSt18_Rb_tree_node_baseSE_PSt13_Rb_tree_nodeIS6_E = comdat any

$_ZNSt8_Rb_treeIN4cvc58internal12NodeTemplateILb1EEESt4pairIKS3_iESt10_Select1stIS6_ESt4lessIS3_ESaIS6_EE12_M_drop_nodeEPSt13_Rb_tree_nodeIS6_E = comdat any

$_ZNSt8_Rb_treeIN4cvc58internal12NodeTemplateILb1EEESt4pairIKS3_iESt10_Select1stIS6_ESt4lessIS3_ESaIS6_EE15_M_destroy_nodeEPSt13_Rb_tree_nodeIS6_E = comdat any

$_ZNSt16allocator_traitsISaISt13_Rb_tree_nodeISt4pairIKN4cvc58internal12NodeTemplateILb1EEEiEEEE7destroyIS7_EEvRS9_PT_ = comdat any

$_ZNSt15__new_allocatorISt13_Rb_tree_nodeISt4pairIKN4cvc58internal12NodeTemplateILb1EEEiEEE7destroyIS7_EEvPT_ = comdat any

$_ZNSt4pairIKN4cvc58internal12NodeTemplateILb1EEEiED2Ev = comdat any

$_ZNSt11_Tuple_implILm0EJRKN4cvc58internal12NodeTemplateILb1EEEEEC2ES5_ = comdat any

$_ZNSt10_Head_baseILm0ERKN4cvc58internal12NodeTemplateILb1EEELb0EEC2ES5_ = comdat any

$_ZNSt8_Rb_treeIN4cvc58internal8TypeNodeESt4pairIKS2_iESt10_Select1stIS5_ESt4lessIS2_ESaIS5_EE4findERS4_ = comdat any

$_ZNSt8_Rb_treeIN4cvc58internal8TypeNodeESt4pairIKS2_iESt10_Select1stIS5_ESt4lessIS2_ESaIS5_EE14_M_lower_boundEPSt13_Rb_tree_nodeIS5_EPSt18_Rb_tree_node_baseRS4_ = comdat any

$_ZNSt8_Rb_treeIN4cvc58internal8TypeNodeESt4pairIKS2_iESt10_Select1stIS5_ESt4lessIS2_ESaIS5_EE8_M_beginEv = comdat any

$_ZNSt8_Rb_treeIN4cvc58internal8TypeNodeESt4pairIKS2_iESt10_Select1stIS5_ESt4lessIS2_ESaIS5_EE6_M_endEv = comdat any

$_ZNSt8_Rb_treeIN4cvc58internal8TypeNodeESt4pairIKS2_iESt10_Select1stIS5_ESt4lessIS2_ESaIS5_EE3endEv = comdat any

$_ZNKSt4lessIN4cvc58internal8TypeNodeEEclERKS2_S5_ = comdat any

$_ZNSt8_Rb_treeIN4cvc58internal8TypeNodeESt4pairIKS2_iESt10_Select1stIS5_ESt4lessIS2_ESaIS5_EE6_S_keyEPKSt18_Rb_tree_node_base = comdat any

$_ZNSt8_Rb_treeIN4cvc58internal8TypeNodeESt4pairIKS2_iESt10_Select1stIS5_ESt4lessIS2_ESaIS5_EE6_S_keyEPKSt13_Rb_tree_nodeIS5_E = comdat any

$_ZNSt8_Rb_treeIN4cvc58internal8TypeNodeESt4pairIKS2_iESt10_Select1stIS5_ESt4lessIS2_ESaIS5_EE7_S_leftEPSt18_Rb_tree_node_base = comdat any

$_ZNSt8_Rb_treeIN4cvc58internal8TypeNodeESt4pairIKS2_iESt10_Select1stIS5_ESt4lessIS2_ESaIS5_EE8_S_rightEPSt18_Rb_tree_node_base = comdat any

$_ZNSt17_Rb_tree_iteratorISt4pairIKN4cvc58internal8TypeNodeEiEEC2EPSt18_Rb_tree_node_base = comdat any

$_ZNKSt10_Select1stISt4pairIKN4cvc58internal8TypeNodeEiEEclERKS5_ = comdat any

$_ZNKSt13_Rb_tree_nodeISt4pairIKN4cvc58internal8TypeNodeEiEE9_M_valptrEv = comdat any

$_ZNK9__gnu_cxx16__aligned_membufISt4pairIKN4cvc58internal8TypeNodeEiEE6_M_ptrEv = comdat any

$_ZNK9__gnu_cxx16__aligned_membufISt4pairIKN4cvc58internal8TypeNodeEiEE7_M_addrEv = comdat any

$_ZNKSt8_Rb_treeIN4cvc58internal8TypeNodeESt4pairIKS2_iESt10_Select1stIS5_ESt4lessIS2_ESaIS5_EE9_M_mbeginEv = comdat any

$_ZNK4cvc58internal8TypeNodeltERKS1_ = comdat any

$_ZNSt3mapIN4cvc58internal8TypeNodeEiSt4lessIS2_ESaISt4pairIKS2_iEEE11lower_boundERS6_ = comdat any

$_ZNKSt3mapIN4cvc58internal8TypeNodeEiSt4lessIS2_ESaISt4pairIKS2_iEEE8key_compEv = comdat any

$_ZNKSt17_Rb_tree_iteratorISt4pairIKN4cvc58internal8TypeNodeEiEEdeEv = comdat any

$_ZNSt8_Rb_treeIN4cvc58internal8TypeNodeESt4pairIKS2_iESt10_Select1stIS5_ESt4lessIS2_ESaIS5_EE22_M_emplace_hint_uniqueIJRKSt21piecewise_construct_tSt5tupleIJRS4_EESG_IJEEEEESt17_Rb_tree_iteratorIS5_ESt23_Rb_tree_const_iteratorIS5_EDpOT_ = comdat any

$_ZNSt23_Rb_tree_const_iteratorISt4pairIKN4cvc58internal8TypeNodeEiEEC2ERKSt17_Rb_tree_iteratorIS5_E = comdat any

$_ZNSt5tupleIJRKN4cvc58internal8TypeNodeEEEC2ILb1ETnNSt9enable_ifIXclsr4_TCCIXT_EEE29__is_implicitly_constructibleIS4_EEEbE4typeELb1EEES4_ = comdat any

$_ZNSt8_Rb_treeIN4cvc58internal8TypeNodeESt4pairIKS2_iESt10_Select1stIS5_ESt4lessIS2_ESaIS5_EE11lower_boundERS4_ = comdat any

$_ZNKSt8_Rb_treeIN4cvc58internal8TypeNodeESt4pairIKS2_iESt10_Select1stIS5_ESt4lessIS2_ESaIS5_EE8key_compEv = comdat any

$_ZNSt13_Rb_tree_nodeISt4pairIKN4cvc58internal8TypeNodeEiEE9_M_valptrEv = comdat any

$_ZN9__gnu_cxx16__aligned_membufISt4pairIKN4cvc58internal8TypeNodeEiEE6_M_ptrEv = comdat any

$_ZN9__gnu_cxx16__aligned_membufISt4pairIKN4cvc58internal8TypeNodeEiEE7_M_addrEv = comdat any

$_ZNSt8_Rb_treeIN4cvc58internal8TypeNodeESt4pairIKS2_iESt10_Select1stIS5_ESt4lessIS2_ESaIS5_EE10_Auto_nodeC2IJRKSt21piecewise_construct_tSt5tupleIJRS4_EESH_IJEEEEERSB_DpOT_ = comdat any

$_ZNSt8_Rb_treeIN4cvc58internal8TypeNodeESt4pairIKS2_iESt10_Select1stIS5_ESt4lessIS2_ESaIS5_EE29_M_get_insert_hint_unique_posESt23_Rb_tree_const_iteratorIS5_ERS4_ = comdat any

$_ZNKSt8_Rb_treeIN4cvc58internal8TypeNodeESt4pairIKS2_iESt10_Select1stIS5_ESt4lessIS2_ESaIS5_EE10_Auto_node6_M_keyEv = comdat any

$_ZNSt8_Rb_treeIN4cvc58internal8TypeNodeESt4pairIKS2_iESt10_Select1stIS5_ESt4lessIS2_ESaIS5_EE10_Auto_node9_M_insertES3_IPSt18_Rb_tree_node_baseSE_E = comdat any

$_ZNSt8_Rb_treeIN4cvc58internal8TypeNodeESt4pairIKS2_iESt10_Select1stIS5_ESt4lessIS2_ESaIS5_EE10_Auto_nodeD2Ev = comdat any

$_ZNSt8_Rb_treeIN4cvc58internal8TypeNodeESt4pairIKS2_iESt10_Select1stIS5_ESt4lessIS2_ESaIS5_EE14_M_create_nodeIJRKSt21piecewise_construct_tSt5tupleIJRS4_EESG_IJEEEEEPSt13_Rb_tree_nodeIS5_EDpOT_ = comdat any

$_ZNSt8_Rb_treeIN4cvc58internal8TypeNodeESt4pairIKS2_iESt10_Select1stIS5_ESt4lessIS2_ESaIS5_EE11_M_get_nodeEv = comdat any

$_ZNSt8_Rb_treeIN4cvc58internal8TypeNodeESt4pairIKS2_iESt10_Select1stIS5_ESt4lessIS2_ESaIS5_EE17_M_construct_nodeIJRKSt21piecewise_construct_tSt5tupleIJRS4_EESG_IJEEEEEvPSt13_Rb_tree_nodeIS5_EDpOT_ = comdat any

$_ZNSt16allocator_traitsISaISt13_Rb_tree_nodeISt4pairIKN4cvc58internal8TypeNodeEiEEEE8allocateERS8_m = comdat any

$_ZNSt8_Rb_treeIN4cvc58internal8TypeNodeESt4pairIKS2_iESt10_Select1stIS5_ESt4lessIS2_ESaIS5_EE21_M_get_Node_allocatorEv = comdat any

$_ZNSt15__new_allocatorISt13_Rb_tree_nodeISt4pairIKN4cvc58internal8TypeNodeEiEEE8allocateEmPKv = comdat any

$_ZNKSt15__new_allocatorISt13_Rb_tree_nodeISt4pairIKN4cvc58internal8TypeNodeEiEEE11_M_max_sizeEv = comdat any

$_ZNSt16allocator_traitsISaISt13_Rb_tree_nodeISt4pairIKN4cvc58internal8TypeNodeEiEEEE9constructIS6_JRKSt21piecewise_construct_tSt5tupleIJRS5_EESE_IJEEEEEvRS8_PT_DpOT0_ = comdat any

$_ZNSt8_Rb_treeIN4cvc58internal8TypeNodeESt4pairIKS2_iESt10_Select1stIS5_ESt4lessIS2_ESaIS5_EE11_M_put_nodeEPSt13_Rb_tree_nodeIS5_E = comdat any

$_ZNSt15__new_allocatorISt13_Rb_tree_nodeISt4pairIKN4cvc58internal8TypeNodeEiEEE9constructIS6_JRKSt21piecewise_construct_tSt5tupleIJRS5_EESD_IJEEEEEvPT_DpOT0_ = comdat any

$_ZNSt5tupleIJRKN4cvc58internal8TypeNodeEEEC2EOS5_ = comdat any

$_ZNSt4pairIKN4cvc58internal8TypeNodeEiEC2IJRS3_EJEEESt21piecewise_construct_tSt5tupleIJDpT_EES8_IJDpT0_EE = comdat any

$_ZNSt11_Tuple_implILm0EJRKN4cvc58internal8TypeNodeEEEC2EOS5_ = comdat any

$_ZNSt4pairIKN4cvc58internal8TypeNodeEiEC2IJRS3_EJLm0EEJETpTnmJEEERSt5tupleIJDpT_EERS7_IJDpT1_EESt12_Index_tupleIJXspT0_EEESG_IJXspT2_EEE = comdat any

$_ZSt3getILm0EJRKN4cvc58internal8TypeNodeEEERNSt13tuple_elementIXT_ESt5tupleIJDpT0_EEE4typeERS9_ = comdat any

$_ZSt12__get_helperILm0ERKN4cvc58internal8TypeNodeEJEERT0_RSt11_Tuple_implIXT_EJS5_DpT1_EE = comdat any

$_ZNSt11_Tuple_implILm0EJRKN4cvc58internal8TypeNodeEEE7_M_headERS5_ = comdat any

$_ZNSt10_Head_baseILm0ERKN4cvc58internal8TypeNodeELb0EE7_M_headERS5_ = comdat any

$_ZNSt16allocator_traitsISaISt13_Rb_tree_nodeISt4pairIKN4cvc58internal8TypeNodeEiEEEE10deallocateERS8_PS7_m = comdat any

$_ZNSt15__new_allocatorISt13_Rb_tree_nodeISt4pairIKN4cvc58internal8TypeNodeEiEEE10deallocateEPS7_m = comdat any

$_ZNKSt23_Rb_tree_const_iteratorISt4pairIKN4cvc58internal8TypeNodeEiEE13_M_const_castEv = comdat any

$_ZNKSt8_Rb_treeIN4cvc58internal8TypeNodeESt4pairIKS2_iESt10_Select1stIS5_ESt4lessIS2_ESaIS5_EE4sizeEv = comdat any

$_ZNSt8_Rb_treeIN4cvc58internal8TypeNodeESt4pairIKS2_iESt10_Select1stIS5_ESt4lessIS2_ESaIS5_EE12_M_rightmostEv = comdat any

$_ZNSt8_Rb_treeIN4cvc58internal8TypeNodeESt4pairIKS2_iESt10_Select1stIS5_ESt4lessIS2_ESaIS5_EE24_M_get_insert_unique_posERS4_ = comdat any

$_ZNSt8_Rb_treeIN4cvc58internal8TypeNodeESt4pairIKS2_iESt10_Select1stIS5_ESt4lessIS2_ESaIS5_EE11_M_leftmostEv = comdat any

$_ZNSt17_Rb_tree_iteratorISt4pairIKN4cvc58internal8TypeNodeEiEEmmEv = comdat any

$_ZNSt17_Rb_tree_iteratorISt4pairIKN4cvc58internal8TypeNodeEiEEppEv = comdat any

$_ZNSt8_Rb_treeIN4cvc58internal8TypeNodeESt4pairIKS2_iESt10_Select1stIS5_ESt4lessIS2_ESaIS5_EE5beginEv = comdat any

$_ZNSt4pairIPSt18_Rb_tree_node_baseS1_EC2IRPSt13_Rb_tree_nodeIS_IKN4cvc58internal8TypeNodeEiEERS1_TnNSt9enable_ifIXaaclsr5_PCCPE22_MoveConstructiblePairIT_T0_EEclsr5_PCCPE30_ImplicitlyMoveConvertiblePairISF_SG_EEEbE4typeELb1EEEOSF_OSG_ = comdat any

$_ZNSt8_Rb_treeIN4cvc58internal8TypeNodeESt4pairIKS2_iESt10_Select1stIS5_ESt4lessIS2_ESaIS5_EE14_M_insert_nodeEPSt18_Rb_tree_node_baseSD_PSt13_Rb_tree_nodeIS5_E = comdat any

$_ZNSt8_Rb_treeIN4cvc58internal8TypeNodeESt4pairIKS2_iESt10_Select1stIS5_ESt4lessIS2_ESaIS5_EE12_M_drop_nodeEPSt13_Rb_tree_nodeIS5_E = comdat any

$_ZNSt8_Rb_treeIN4cvc58internal8TypeNodeESt4pairIKS2_iESt10_Select1stIS5_ESt4lessIS2_ESaIS5_EE15_M_destroy_nodeEPSt13_Rb_tree_nodeIS5_E = comdat any

$_ZNSt16allocator_traitsISaISt13_Rb_tree_nodeISt4pairIKN4cvc58internal8TypeNodeEiEEEE7destroyIS6_EEvRS8_PT_ = comdat any

$_ZNSt15__new_allocatorISt13_Rb_tree_nodeISt4pairIKN4cvc58internal8TypeNodeEiEEE7destroyIS6_EEvPT_ = comdat any

$_ZNSt4pairIKN4cvc58internal8TypeNodeEiED2Ev = comdat any

$_ZNSt11_Tuple_implILm0EJRKN4cvc58internal8TypeNodeEEEC2ES4_ = comdat any

$_ZNSt10_Head_baseILm0ERKN4cvc58internal8TypeNodeELb0EEC2ES4_ = comdat any

$_ZNK4cvc58internal12NodeTemplateILb1EE21assertTNodeNotExpiredEv = comdat any

$_ZNK4cvc58internal12NodeTemplateILb1EE11getMetaKindEv = comdat any

$_ZN4cvc58internal12NodeTemplateILb1EEC2EPKNS0_4expr9NodeValueE = comdat any

$_ZN4cvc58internallsERSoNS0_12NodeTemplateILb0EEE = comdat any

$_ZNK4cvc58internal12NodeTemplateILb0EE8toStreamERSo = comdat any

$_ZNK4cvc58internal4expr9NodeValue14getNumChildrenEv = comdat any

$_ZNK4cvc58internal4expr9NodeValue11getMetaKindEv = comdat any

$_ZNK4cvc58internal4expr9NodeValue7getKindEv = comdat any

$_ZN4cvc58internal4expr9NodeValue11dKindToKindEj = comdat any

$_ZNK4cvc58internal4expr9NodeValue8getChildEi = comdat any

$_ZNSt3mapISt4pairIN4cvc58internal8TypeNodeEjESt6vectorINS2_12NodeTemplateILb1EEESaIS7_EESt4lessIS4_ESaIS0_IKS4_S9_EEE11lower_boundERSC_ = comdat any

$_ZSteqRKSt17_Rb_tree_iteratorISt4pairIKS0_IN4cvc58internal8TypeNodeEjESt6vectorINS2_12NodeTemplateILb1EEESaIS8_EEEESE_ = comdat any

$_ZNSt3mapISt4pairIN4cvc58internal8TypeNodeEjESt6vectorINS2_12NodeTemplateILb1EEESaIS7_EESt4lessIS4_ESaIS0_IKS4_S9_EEE3endEv = comdat any

$_ZNKSt3mapISt4pairIN4cvc58internal8TypeNodeEjESt6vectorINS2_12NodeTemplateILb1EEESaIS7_EESt4lessIS4_ESaIS0_IKS4_S9_EEE8key_compEv = comdat any

$_ZNKSt4lessISt4pairIN4cvc58internal8TypeNodeEjEEclERKS4_S7_ = comdat any

$_ZNKSt17_Rb_tree_iteratorISt4pairIKS0_IN4cvc58internal8TypeNodeEjESt6vectorINS2_12NodeTemplateILb1EEESaIS8_EEEEdeEv = comdat any

$_ZNSt8_Rb_treeISt4pairIN4cvc58internal8TypeNodeEjES0_IKS4_St6vectorINS2_12NodeTemplateILb1EEESaIS8_EEESt10_Select1stISB_ESt4lessIS4_ESaISB_EE22_M_emplace_hint_uniqueIJRKSt21piecewise_construct_tSt5tupleIJRS5_EESM_IJEEEEESt17_Rb_tree_iteratorISB_ESt23_Rb_tree_const_iteratorISB_EDpOT_ = comdat any

$_ZNSt23_Rb_tree_const_iteratorISt4pairIKS0_IN4cvc58internal8TypeNodeEjESt6vectorINS2_12NodeTemplateILb1EEESaIS8_EEEEC2ERKSt17_Rb_tree_iteratorISB_E = comdat any

$_ZNSt5tupleIJRKSt4pairIN4cvc58internal8TypeNodeEjEEEC2ILb1ETnNSt9enable_ifIXclsr4_TCCIXT_EEE29__is_implicitly_constructibleIS6_EEEbE4typeELb1EEES6_ = comdat any

$_ZNSt8_Rb_treeISt4pairIN4cvc58internal8TypeNodeEjES0_IKS4_St6vectorINS2_12NodeTemplateILb1EEESaIS8_EEESt10_Select1stISB_ESt4lessIS4_ESaISB_EE11lower_boundERS5_ = comdat any

$_ZNSt8_Rb_treeISt4pairIN4cvc58internal8TypeNodeEjES0_IKS4_St6vectorINS2_12NodeTemplateILb1EEESaIS8_EEESt10_Select1stISB_ESt4lessIS4_ESaISB_EE14_M_lower_boundEPSt13_Rb_tree_nodeISB_EPSt18_Rb_tree_node_baseRS5_ = comdat any

$_ZNSt8_Rb_treeISt4pairIN4cvc58internal8TypeNodeEjES0_IKS4_St6vectorINS2_12NodeTemplateILb1EEESaIS8_EEESt10_Select1stISB_ESt4lessIS4_ESaISB_EE8_M_beginEv = comdat any

$_ZNSt8_Rb_treeISt4pairIN4cvc58internal8TypeNodeEjES0_IKS4_St6vectorINS2_12NodeTemplateILb1EEESaIS8_EEESt10_Select1stISB_ESt4lessIS4_ESaISB_EE6_M_endEv = comdat any

$_ZNSt8_Rb_treeISt4pairIN4cvc58internal8TypeNodeEjES0_IKS4_St6vectorINS2_12NodeTemplateILb1EEESaIS8_EEESt10_Select1stISB_ESt4lessIS4_ESaISB_EE6_S_keyEPKSt13_Rb_tree_nodeISB_E = comdat any

$_ZNSt8_Rb_treeISt4pairIN4cvc58internal8TypeNodeEjES0_IKS4_St6vectorINS2_12NodeTemplateILb1EEESaIS8_EEESt10_Select1stISB_ESt4lessIS4_ESaISB_EE7_S_leftEPSt18_Rb_tree_node_base = comdat any

$_ZNSt8_Rb_treeISt4pairIN4cvc58internal8TypeNodeEjES0_IKS4_St6vectorINS2_12NodeTemplateILb1EEESaIS8_EEESt10_Select1stISB_ESt4lessIS4_ESaISB_EE8_S_rightEPSt18_Rb_tree_node_base = comdat any

$_ZNSt17_Rb_tree_iteratorISt4pairIKS0_IN4cvc58internal8TypeNodeEjESt6vectorINS2_12NodeTemplateILb1EEESaIS8_EEEEC2EPSt18_Rb_tree_node_base = comdat any

$_ZNKSt10_Select1stISt4pairIKS0_IN4cvc58internal8TypeNodeEjESt6vectorINS2_12NodeTemplateILb1EEESaIS8_EEEEclERKSB_ = comdat any

$_ZNKSt13_Rb_tree_nodeISt4pairIKS0_IN4cvc58internal8TypeNodeEjESt6vectorINS2_12NodeTemplateILb1EEESaIS8_EEEE9_M_valptrEv = comdat any

$_ZNK9__gnu_cxx16__aligned_membufISt4pairIKS1_IN4cvc58internal8TypeNodeEjESt6vectorINS3_12NodeTemplateILb1EEESaIS9_EEEE6_M_ptrEv = comdat any

$_ZNK9__gnu_cxx16__aligned_membufISt4pairIKS1_IN4cvc58internal8TypeNodeEjESt6vectorINS3_12NodeTemplateILb1EEESaIS9_EEEE7_M_addrEv = comdat any

$_ZNKSt8_Rb_treeISt4pairIN4cvc58internal8TypeNodeEjES0_IKS4_St6vectorINS2_12NodeTemplateILb1EEESaIS8_EEESt10_Select1stISB_ESt4lessIS4_ESaISB_EE9_M_mbeginEv = comdat any

$_ZNSt8_Rb_treeISt4pairIN4cvc58internal8TypeNodeEjES0_IKS4_St6vectorINS2_12NodeTemplateILb1EEESaIS8_EEESt10_Select1stISB_ESt4lessIS4_ESaISB_EE3endEv = comdat any

$_ZNKSt8_Rb_treeISt4pairIN4cvc58internal8TypeNodeEjES0_IKS4_St6vectorINS2_12NodeTemplateILb1EEESaIS8_EEESt10_Select1stISB_ESt4lessIS4_ESaISB_EE8key_compEv = comdat any

$_ZStltIN4cvc58internal8TypeNodeEjEbRKSt4pairIT_T0_ES8_ = comdat any

$_ZNSt13_Rb_tree_nodeISt4pairIKS0_IN4cvc58internal8TypeNodeEjESt6vectorINS2_12NodeTemplateILb1EEESaIS8_EEEE9_M_valptrEv = comdat any

$_ZN9__gnu_cxx16__aligned_membufISt4pairIKS1_IN4cvc58internal8TypeNodeEjESt6vectorINS3_12NodeTemplateILb1EEESaIS9_EEEE6_M_ptrEv = comdat any

$_ZN9__gnu_cxx16__aligned_membufISt4pairIKS1_IN4cvc58internal8TypeNodeEjESt6vectorINS3_12NodeTemplateILb1EEESaIS9_EEEE7_M_addrEv = comdat any

$_ZNSt8_Rb_treeISt4pairIN4cvc58internal8TypeNodeEjES0_IKS4_St6vectorINS2_12NodeTemplateILb1EEESaIS8_EEESt10_Select1stISB_ESt4lessIS4_ESaISB_EE10_Auto_nodeC2IJRKSt21piecewise_construct_tSt5tupleIJRS5_EESN_IJEEEEERSH_DpOT_ = comdat any

$_ZNSt8_Rb_treeISt4pairIN4cvc58internal8TypeNodeEjES0_IKS4_St6vectorINS2_12NodeTemplateILb1EEESaIS8_EEESt10_Select1stISB_ESt4lessIS4_ESaISB_EE29_M_get_insert_hint_unique_posESt23_Rb_tree_const_iteratorISB_ERS5_ = comdat any

$_ZNKSt8_Rb_treeISt4pairIN4cvc58internal8TypeNodeEjES0_IKS4_St6vectorINS2_12NodeTemplateILb1EEESaIS8_EEESt10_Select1stISB_ESt4lessIS4_ESaISB_EE10_Auto_node6_M_keyEv = comdat any

$_ZNSt8_Rb_treeISt4pairIN4cvc58internal8TypeNodeEjES0_IKS4_St6vectorINS2_12NodeTemplateILb1EEESaIS8_EEESt10_Select1stISB_ESt4lessIS4_ESaISB_EE10_Auto_node9_M_insertES0_IPSt18_Rb_tree_node_baseSK_E = comdat any

$_ZNSt8_Rb_treeISt4pairIN4cvc58internal8TypeNodeEjES0_IKS4_St6vectorINS2_12NodeTemplateILb1EEESaIS8_EEESt10_Select1stISB_ESt4lessIS4_ESaISB_EE10_Auto_nodeD2Ev = comdat any

$_ZNSt8_Rb_treeISt4pairIN4cvc58internal8TypeNodeEjES0_IKS4_St6vectorINS2_12NodeTemplateILb1EEESaIS8_EEESt10_Select1stISB_ESt4lessIS4_ESaISB_EE14_M_create_nodeIJRKSt21piecewise_construct_tSt5tupleIJRS5_EESM_IJEEEEEPSt13_Rb_tree_nodeISB_EDpOT_ = comdat any

$_ZNSt8_Rb_treeISt4pairIN4cvc58internal8TypeNodeEjES0_IKS4_St6vectorINS2_12NodeTemplateILb1EEESaIS8_EEESt10_Select1stISB_ESt4lessIS4_ESaISB_EE11_M_get_nodeEv = comdat any

$_ZNSt8_Rb_treeISt4pairIN4cvc58internal8TypeNodeEjES0_IKS4_St6vectorINS2_12NodeTemplateILb1EEESaIS8_EEESt10_Select1stISB_ESt4lessIS4_ESaISB_EE17_M_construct_nodeIJRKSt21piecewise_construct_tSt5tupleIJRS5_EESM_IJEEEEEvPSt13_Rb_tree_nodeISB_EDpOT_ = comdat any

$_ZNSt16allocator_traitsISaISt13_Rb_tree_nodeISt4pairIKS1_IN4cvc58internal8TypeNodeEjESt6vectorINS3_12NodeTemplateILb1EEESaIS9_EEEEEE8allocateERSE_m = comdat any

$_ZNSt8_Rb_treeISt4pairIN4cvc58internal8TypeNodeEjES0_IKS4_St6vectorINS2_12NodeTemplateILb1EEESaIS8_EEESt10_Select1stISB_ESt4lessIS4_ESaISB_EE21_M_get_Node_allocatorEv = comdat any

$_ZNSt15__new_allocatorISt13_Rb_tree_nodeISt4pairIKS1_IN4cvc58internal8TypeNodeEjESt6vectorINS3_12NodeTemplateILb1EEESaIS9_EEEEE8allocateEmPKv = comdat any

$_ZNKSt15__new_allocatorISt13_Rb_tree_nodeISt4pairIKS1_IN4cvc58internal8TypeNodeEjESt6vectorINS3_12NodeTemplateILb1EEESaIS9_EEEEE11_M_max_sizeEv = comdat any

$_ZNSt16allocator_traitsISaISt13_Rb_tree_nodeISt4pairIKS1_IN4cvc58internal8TypeNodeEjESt6vectorINS3_12NodeTemplateILb1EEESaIS9_EEEEEE9constructISC_JRKSt21piecewise_construct_tSt5tupleIJRS6_EESK_IJEEEEEvRSE_PT_DpOT0_ = comdat any

$_ZNSt8_Rb_treeISt4pairIN4cvc58internal8TypeNodeEjES0_IKS4_St6vectorINS2_12NodeTemplateILb1EEESaIS8_EEESt10_Select1stISB_ESt4lessIS4_ESaISB_EE11_M_put_nodeEPSt13_Rb_tree_nodeISB_E = comdat any

$_ZNSt15__new_allocatorISt13_Rb_tree_nodeISt4pairIKS1_IN4cvc58internal8TypeNodeEjESt6vectorINS3_12NodeTemplateILb1EEESaIS9_EEEEE9constructISC_JRKSt21piecewise_construct_tSt5tupleIJRS6_EESJ_IJEEEEEvPT_DpOT0_ = comdat any

$_ZNSt5tupleIJRKSt4pairIN4cvc58internal8TypeNodeEjEEEC2EOS7_ = comdat any

$_ZNSt4pairIKS_IN4cvc58internal8TypeNodeEjESt6vectorINS1_12NodeTemplateILb1EEESaIS7_EEEC2IJRS4_EJEEESt21piecewise_construct_tSt5tupleIJDpT_EESE_IJDpT0_EE = comdat any

$_ZNSt11_Tuple_implILm0EJRKSt4pairIN4cvc58internal8TypeNodeEjEEEC2EOS7_ = comdat any

$_ZNSt4pairIKS_IN4cvc58internal8TypeNodeEjESt6vectorINS1_12NodeTemplateILb1EEESaIS7_EEEC2IJRS4_EJLm0EEJETpTnmJEEERSt5tupleIJDpT_EERSD_IJDpT1_EESt12_Index_tupleIJXspT0_EEESM_IJXspT2_EEE = comdat any

$_ZSt3getILm0EJRKSt4pairIN4cvc58internal8TypeNodeEjEEERNSt13tuple_elementIXT_ESt5tupleIJDpT0_EEE4typeERSB_ = comdat any

$_ZNSt4pairIN4cvc58internal8TypeNodeEjEC2ERKS3_ = comdat any

$_ZSt12__get_helperILm0ERKSt4pairIN4cvc58internal8TypeNodeEjEJEERT0_RSt11_Tuple_implIXT_EJS7_DpT1_EE = comdat any

$_ZNSt11_Tuple_implILm0EJRKSt4pairIN4cvc58internal8TypeNodeEjEEE7_M_headERS7_ = comdat any

$_ZNSt10_Head_baseILm0ERKSt4pairIN4cvc58internal8TypeNodeEjELb0EE7_M_headERS7_ = comdat any

$_ZNSt16allocator_traitsISaISt13_Rb_tree_nodeISt4pairIKS1_IN4cvc58internal8TypeNodeEjESt6vectorINS3_12NodeTemplateILb1EEESaIS9_EEEEEE10deallocateERSE_PSD_m = comdat any

$_ZNSt15__new_allocatorISt13_Rb_tree_nodeISt4pairIKS1_IN4cvc58internal8TypeNodeEjESt6vectorINS3_12NodeTemplateILb1EEESaIS9_EEEEE10deallocateEPSD_m = comdat any

$_ZNKSt23_Rb_tree_const_iteratorISt4pairIKS0_IN4cvc58internal8TypeNodeEjESt6vectorINS2_12NodeTemplateILb1EEESaIS8_EEEE13_M_const_castEv = comdat any

$_ZNKSt8_Rb_treeISt4pairIN4cvc58internal8TypeNodeEjES0_IKS4_St6vectorINS2_12NodeTemplateILb1EEESaIS8_EEESt10_Select1stISB_ESt4lessIS4_ESaISB_EE4sizeEv = comdat any

$_ZNSt8_Rb_treeISt4pairIN4cvc58internal8TypeNodeEjES0_IKS4_St6vectorINS2_12NodeTemplateILb1EEESaIS8_EEESt10_Select1stISB_ESt4lessIS4_ESaISB_EE6_S_keyEPKSt18_Rb_tree_node_base = comdat any

$_ZNSt8_Rb_treeISt4pairIN4cvc58internal8TypeNodeEjES0_IKS4_St6vectorINS2_12NodeTemplateILb1EEESaIS8_EEESt10_Select1stISB_ESt4lessIS4_ESaISB_EE12_M_rightmostEv = comdat any

$_ZNSt8_Rb_treeISt4pairIN4cvc58internal8TypeNodeEjES0_IKS4_St6vectorINS2_12NodeTemplateILb1EEESaIS8_EEESt10_Select1stISB_ESt4lessIS4_ESaISB_EE24_M_get_insert_unique_posERS5_ = comdat any

$_ZNSt8_Rb_treeISt4pairIN4cvc58internal8TypeNodeEjES0_IKS4_St6vectorINS2_12NodeTemplateILb1EEESaIS8_EEESt10_Select1stISB_ESt4lessIS4_ESaISB_EE11_M_leftmostEv = comdat any

$_ZNSt17_Rb_tree_iteratorISt4pairIKS0_IN4cvc58internal8TypeNodeEjESt6vectorINS2_12NodeTemplateILb1EEESaIS8_EEEEmmEv = comdat any

$_ZNSt17_Rb_tree_iteratorISt4pairIKS0_IN4cvc58internal8TypeNodeEjESt6vectorINS2_12NodeTemplateILb1EEESaIS8_EEEEppEv = comdat any

$_ZNSt8_Rb_treeISt4pairIN4cvc58internal8TypeNodeEjES0_IKS4_St6vectorINS2_12NodeTemplateILb1EEESaIS8_EEESt10_Select1stISB_ESt4lessIS4_ESaISB_EE5beginEv = comdat any

$_ZNSt4pairIPSt18_Rb_tree_node_baseS1_EC2IRPSt13_Rb_tree_nodeIS_IKS_IN4cvc58internal8TypeNodeEjESt6vectorINS6_12NodeTemplateILb1EEESaISC_EEEERS1_TnNSt9enable_ifIXaaclsr5_PCCPE22_MoveConstructiblePairIT_T0_EEclsr5_PCCPE30_ImplicitlyMoveConvertiblePairISL_SM_EEEbE4typeELb1EEEOSL_OSM_ = comdat any

$_ZNSt8_Rb_treeISt4pairIN4cvc58internal8TypeNodeEjES0_IKS4_St6vectorINS2_12NodeTemplateILb1EEESaIS8_EEESt10_Select1stISB_ESt4lessIS4_ESaISB_EE14_M_insert_nodeEPSt18_Rb_tree_node_baseSJ_PSt13_Rb_tree_nodeISB_E = comdat any

$_ZNSt8_Rb_treeISt4pairIN4cvc58internal8TypeNodeEjES0_IKS4_St6vectorINS2_12NodeTemplateILb1EEESaIS8_EEESt10_Select1stISB_ESt4lessIS4_ESaISB_EE12_M_drop_nodeEPSt13_Rb_tree_nodeISB_E = comdat any

$_ZNSt8_Rb_treeISt4pairIN4cvc58internal8TypeNodeEjES0_IKS4_St6vectorINS2_12NodeTemplateILb1EEESaIS8_EEESt10_Select1stISB_ESt4lessIS4_ESaISB_EE15_M_destroy_nodeEPSt13_Rb_tree_nodeISB_E = comdat any

$_ZNSt16allocator_traitsISaISt13_Rb_tree_nodeISt4pairIKS1_IN4cvc58internal8TypeNodeEjESt6vectorINS3_12NodeTemplateILb1EEESaIS9_EEEEEE7destroyISC_EEvRSE_PT_ = comdat any

$_ZNSt15__new_allocatorISt13_Rb_tree_nodeISt4pairIKS1_IN4cvc58internal8TypeNodeEjESt6vectorINS3_12NodeTemplateILb1EEESaIS9_EEEEE7destroyISC_EEvPT_ = comdat any

$_ZNSt4pairIKS_IN4cvc58internal8TypeNodeEjESt6vectorINS1_12NodeTemplateILb1EEESaIS7_EEED2Ev = comdat any

$_ZNSt11_Tuple_implILm0EJRKSt4pairIN4cvc58internal8TypeNodeEjEEEC2ES6_ = comdat any

$_ZNSt10_Head_baseILm0ERKSt4pairIN4cvc58internal8TypeNodeEjELb0EEC2ES6_ = comdat any

$_ZNK9__gnu_cxx17__normal_iteratorIPcNSt7__cxx1112basic_stringIcSt11char_traitsIcESaIcEEEE4baseEv = comdat any

$_ZNSt3mapIN4cvc58internal12NodeTemplateILb1EEEmSt4lessIS3_ESaISt4pairIKS3_mEEE11lower_boundERS7_ = comdat any

$_ZSteqRKSt17_Rb_tree_iteratorISt4pairIKN4cvc58internal12NodeTemplateILb1EEEmEES9_ = comdat any

$_ZNSt3mapIN4cvc58internal12NodeTemplateILb1EEEmSt4lessIS3_ESaISt4pairIKS3_mEEE3endEv = comdat any

$_ZNKSt3mapIN4cvc58internal12NodeTemplateILb1EEEmSt4lessIS3_ESaISt4pairIKS3_mEEE8key_compEv = comdat any

$_ZNKSt17_Rb_tree_iteratorISt4pairIKN4cvc58internal12NodeTemplateILb1EEEmEEdeEv = comdat any

$_ZNSt8_Rb_treeIN4cvc58internal12NodeTemplateILb1EEESt4pairIKS3_mESt10_Select1stIS6_ESt4lessIS3_ESaIS6_EE22_M_emplace_hint_uniqueIJRKSt21piecewise_construct_tSt5tupleIJRS5_EESH_IJEEEEESt17_Rb_tree_iteratorIS6_ESt23_Rb_tree_const_iteratorIS6_EDpOT_ = comdat any

$_ZNSt23_Rb_tree_const_iteratorISt4pairIKN4cvc58internal12NodeTemplateILb1EEEmEEC2ERKSt17_Rb_tree_iteratorIS6_E = comdat any

$_ZNSt8_Rb_treeIN4cvc58internal12NodeTemplateILb1EEESt4pairIKS3_mESt10_Select1stIS6_ESt4lessIS3_ESaIS6_EE11lower_boundERS5_ = comdat any

$_ZNSt8_Rb_treeIN4cvc58internal12NodeTemplateILb1EEESt4pairIKS3_mESt10_Select1stIS6_ESt4lessIS3_ESaIS6_EE14_M_lower_boundEPSt13_Rb_tree_nodeIS6_EPSt18_Rb_tree_node_baseRS5_ = comdat any

$_ZNSt8_Rb_treeIN4cvc58internal12NodeTemplateILb1EEESt4pairIKS3_mESt10_Select1stIS6_ESt4lessIS3_ESaIS6_EE8_M_beginEv = comdat any

$_ZNSt8_Rb_treeIN4cvc58internal12NodeTemplateILb1EEESt4pairIKS3_mESt10_Select1stIS6_ESt4lessIS3_ESaIS6_EE6_M_endEv = comdat any

$_ZNSt8_Rb_treeIN4cvc58internal12NodeTemplateILb1EEESt4pairIKS3_mESt10_Select1stIS6_ESt4lessIS3_ESaIS6_EE6_S_keyEPKSt13_Rb_tree_nodeIS6_E = comdat any

$_ZNSt8_Rb_treeIN4cvc58internal12NodeTemplateILb1EEESt4pairIKS3_mESt10_Select1stIS6_ESt4lessIS3_ESaIS6_EE7_S_leftEPSt18_Rb_tree_node_base = comdat any

$_ZNSt8_Rb_treeIN4cvc58internal12NodeTemplateILb1EEESt4pairIKS3_mESt10_Select1stIS6_ESt4lessIS3_ESaIS6_EE8_S_rightEPSt18_Rb_tree_node_base = comdat any

$_ZNSt17_Rb_tree_iteratorISt4pairIKN4cvc58internal12NodeTemplateILb1EEEmEEC2EPSt18_Rb_tree_node_base = comdat any

$_ZNKSt10_Select1stISt4pairIKN4cvc58internal12NodeTemplateILb1EEEmEEclERKS6_ = comdat any

$_ZNKSt13_Rb_tree_nodeISt4pairIKN4cvc58internal12NodeTemplateILb1EEEmEE9_M_valptrEv = comdat any

$_ZNK9__gnu_cxx16__aligned_membufISt4pairIKN4cvc58internal12NodeTemplateILb1EEEmEE6_M_ptrEv = comdat any

$_ZNK9__gnu_cxx16__aligned_membufISt4pairIKN4cvc58internal12NodeTemplateILb1EEEmEE7_M_addrEv = comdat any

$_ZNKSt8_Rb_treeIN4cvc58internal12NodeTemplateILb1EEESt4pairIKS3_mESt10_Select1stIS6_ESt4lessIS3_ESaIS6_EE9_M_mbeginEv = comdat any

$_ZNSt8_Rb_treeIN4cvc58internal12NodeTemplateILb1EEESt4pairIKS3_mESt10_Select1stIS6_ESt4lessIS3_ESaIS6_EE3endEv = comdat any

$_ZNKSt8_Rb_treeIN4cvc58internal12NodeTemplateILb1EEESt4pairIKS3_mESt10_Select1stIS6_ESt4lessIS3_ESaIS6_EE8key_compEv = comdat any

$_ZNSt13_Rb_tree_nodeISt4pairIKN4cvc58internal12NodeTemplateILb1EEEmEE9_M_valptrEv = comdat any

$_ZN9__gnu_cxx16__aligned_membufISt4pairIKN4cvc58internal12NodeTemplateILb1EEEmEE6_M_ptrEv = comdat any

$_ZN9__gnu_cxx16__aligned_membufISt4pairIKN4cvc58internal12NodeTemplateILb1EEEmEE7_M_addrEv = comdat any

$_ZNSt8_Rb_treeIN4cvc58internal12NodeTemplateILb1EEESt4pairIKS3_mESt10_Select1stIS6_ESt4lessIS3_ESaIS6_EE10_Auto_nodeC2IJRKSt21piecewise_construct_tSt5tupleIJRS5_EESI_IJEEEEERSC_DpOT_ = comdat any

$_ZNSt8_Rb_treeIN4cvc58internal12NodeTemplateILb1EEESt4pairIKS3_mESt10_Select1stIS6_ESt4lessIS3_ESaIS6_EE29_M_get_insert_hint_unique_posESt23_Rb_tree_const_iteratorIS6_ERS5_ = comdat any

$_ZNKSt8_Rb_treeIN4cvc58internal12NodeTemplateILb1EEESt4pairIKS3_mESt10_Select1stIS6_ESt4lessIS3_ESaIS6_EE10_Auto_node6_M_keyEv = comdat any

$_ZNSt8_Rb_treeIN4cvc58internal12NodeTemplateILb1EEESt4pairIKS3_mESt10_Select1stIS6_ESt4lessIS3_ESaIS6_EE10_Auto_node9_M_insertES4_IPSt18_Rb_tree_node_baseSF_E = comdat any

$_ZNSt8_Rb_treeIN4cvc58internal12NodeTemplateILb1EEESt4pairIKS3_mESt10_Select1stIS6_ESt4lessIS3_ESaIS6_EE10_Auto_nodeD2Ev = comdat any

$_ZNSt8_Rb_treeIN4cvc58internal12NodeTemplateILb1EEESt4pairIKS3_mESt10_Select1stIS6_ESt4lessIS3_ESaIS6_EE14_M_create_nodeIJRKSt21piecewise_construct_tSt5tupleIJRS5_EESH_IJEEEEEPSt13_Rb_tree_nodeIS6_EDpOT_ = comdat any

$_ZNSt8_Rb_treeIN4cvc58internal12NodeTemplateILb1EEESt4pairIKS3_mESt10_Select1stIS6_ESt4lessIS3_ESaIS6_EE11_M_get_nodeEv = comdat any

$_ZNSt8_Rb_treeIN4cvc58internal12NodeTemplateILb1EEESt4pairIKS3_mESt10_Select1stIS6_ESt4lessIS3_ESaIS6_EE17_M_construct_nodeIJRKSt21piecewise_construct_tSt5tupleIJRS5_EESH_IJEEEEEvPSt13_Rb_tree_nodeIS6_EDpOT_ = comdat any

$_ZNSt16allocator_traitsISaISt13_Rb_tree_nodeISt4pairIKN4cvc58internal12NodeTemplateILb1EEEmEEEE8allocateERS9_m = comdat any

$_ZNSt8_Rb_treeIN4cvc58internal12NodeTemplateILb1EEESt4pairIKS3_mESt10_Select1stIS6_ESt4lessIS3_ESaIS6_EE21_M_get_Node_allocatorEv = comdat any

$_ZNSt15__new_allocatorISt13_Rb_tree_nodeISt4pairIKN4cvc58internal12NodeTemplateILb1EEEmEEE8allocateEmPKv = comdat any

$_ZNKSt15__new_allocatorISt13_Rb_tree_nodeISt4pairIKN4cvc58internal12NodeTemplateILb1EEEmEEE11_M_max_sizeEv = comdat any

$_ZNSt16allocator_traitsISaISt13_Rb_tree_nodeISt4pairIKN4cvc58internal12NodeTemplateILb1EEEmEEEE9constructIS7_JRKSt21piecewise_construct_tSt5tupleIJRS6_EESF_IJEEEEEvRS9_PT_DpOT0_ = comdat any

$_ZNSt8_Rb_treeIN4cvc58internal12NodeTemplateILb1EEESt4pairIKS3_mESt10_Select1stIS6_ESt4lessIS3_ESaIS6_EE11_M_put_nodeEPSt13_Rb_tree_nodeIS6_E = comdat any

$_ZNSt15__new_allocatorISt13_Rb_tree_nodeISt4pairIKN4cvc58internal12NodeTemplateILb1EEEmEEE9constructIS7_JRKSt21piecewise_construct_tSt5tupleIJRS6_EESE_IJEEEEEvPT_DpOT0_ = comdat any

$_ZNSt4pairIKN4cvc58internal12NodeTemplateILb1EEEmEC2IJRS4_EJEEESt21piecewise_construct_tSt5tupleIJDpT_EES9_IJDpT0_EE = comdat any

$_ZNSt4pairIKN4cvc58internal12NodeTemplateILb1EEEmEC2IJRS4_EJLm0EEJETpTnmJEEERSt5tupleIJDpT_EERS8_IJDpT1_EESt12_Index_tupleIJXspT0_EEESH_IJXspT2_EEE = comdat any

$_ZNSt16allocator_traitsISaISt13_Rb_tree_nodeISt4pairIKN4cvc58internal12NodeTemplateILb1EEEmEEEE10deallocateERS9_PS8_m = comdat any

$_ZNSt15__new_allocatorISt13_Rb_tree_nodeISt4pairIKN4cvc58internal12NodeTemplateILb1EEEmEEE10deallocateEPS8_m = comdat any

$_ZNKSt23_Rb_tree_const_iteratorISt4pairIKN4cvc58internal12NodeTemplateILb1EEEmEE13_M_const_castEv = comdat any

$_ZNKSt8_Rb_treeIN4cvc58internal12NodeTemplateILb1EEESt4pairIKS3_mESt10_Select1stIS6_ESt4lessIS3_ESaIS6_EE4sizeEv = comdat any

$_ZNSt8_Rb_treeIN4cvc58internal12NodeTemplateILb1EEESt4pairIKS3_mESt10_Select1stIS6_ESt4lessIS3_ESaIS6_EE6_S_keyEPKSt18_Rb_tree_node_base = comdat any

$_ZNSt8_Rb_treeIN4cvc58internal12NodeTemplateILb1EEESt4pairIKS3_mESt10_Select1stIS6_ESt4lessIS3_ESaIS6_EE12_M_rightmostEv = comdat any

$_ZNSt8_Rb_treeIN4cvc58internal12NodeTemplateILb1EEESt4pairIKS3_mESt10_Select1stIS6_ESt4lessIS3_ESaIS6_EE24_M_get_insert_unique_posERS5_ = comdat any

$_ZNSt8_Rb_treeIN4cvc58internal12NodeTemplateILb1EEESt4pairIKS3_mESt10_Select1stIS6_ESt4lessIS3_ESaIS6_EE11_M_leftmostEv = comdat any

$_ZNSt17_Rb_tree_iteratorISt4pairIKN4cvc58internal12NodeTemplateILb1EEEmEEmmEv = comdat any

$_ZNSt17_Rb_tree_iteratorISt4pairIKN4cvc58internal12NodeTemplateILb1EEEmEEppEv = comdat any

$_ZNSt8_Rb_treeIN4cvc58internal12NodeTemplateILb1EEESt4pairIKS3_mESt10_Select1stIS6_ESt4lessIS3_ESaIS6_EE5beginEv = comdat any

$_ZNSt4pairIPSt18_Rb_tree_node_baseS1_EC2IRPSt13_Rb_tree_nodeIS_IKN4cvc58internal12NodeTemplateILb1EEEmEERS1_TnNSt9enable_ifIXaaclsr5_PCCPE22_MoveConstructiblePairIT_T0_EEclsr5_PCCPE30_ImplicitlyMoveConvertiblePairISG_SH_EEEbE4typeELb1EEEOSG_OSH_ = comdat any

$_ZNSt8_Rb_treeIN4cvc58internal12NodeTemplateILb1EEESt4pairIKS3_mESt10_Select1stIS6_ESt4lessIS3_ESaIS6_EE14_M_insert_nodeEPSt18_Rb_tree_node_baseSE_PSt13_Rb_tree_nodeIS6_E = comdat any

$_ZNSt8_Rb_treeIN4cvc58internal12NodeTemplateILb1EEESt4pairIKS3_mESt10_Select1stIS6_ESt4lessIS3_ESaIS6_EE12_M_drop_nodeEPSt13_Rb_tree_nodeIS6_E = comdat any

$_ZNSt8_Rb_treeIN4cvc58internal12NodeTemplateILb1EEESt4pairIKS3_mESt10_Select1stIS6_ESt4lessIS3_ESaIS6_EE15_M_destroy_nodeEPSt13_Rb_tree_nodeIS6_E = comdat any

$_ZNSt16allocator_traitsISaISt13_Rb_tree_nodeISt4pairIKN4cvc58internal12NodeTemplateILb1EEEmEEEE7destroyIS7_EEvRS9_PT_ = comdat any

$_ZNSt15__new_allocatorISt13_Rb_tree_nodeISt4pairIKN4cvc58internal12NodeTemplateILb1EEEmEEE7destroyIS7_EEvPT_ = comdat any

$_ZNSt4pairIKN4cvc58internal12NodeTemplateILb1EEEmED2Ev = comdat any

$_ZNSt16allocator_traitsISaIN4cvc58internal12NodeTemplateILb1EEEEE9constructIS3_JRKS3_EEEvRS4_PT_DpOT0_ = comdat any

$_ZNSt6vectorIN4cvc58internal12NodeTemplateILb1EEESaIS3_EE17_M_realloc_insertIJRKS3_EEEvN9__gnu_cxx17__normal_iteratorIPS3_S5_EEDpOT_ = comdat any

$_ZNSt15__new_allocatorIN4cvc58internal12NodeTemplateILb1EEEE9constructIS3_JRKS3_EEEvPT_DpOT0_ = comdat any

$_ZNKSt6vectorIN4cvc58internal12NodeTemplateILb1EEESaIS3_EE12_M_check_lenEmPKc = comdat any

$_ZN9__gnu_cxxmiIPN4cvc58internal12NodeTemplateILb1EEESt6vectorIS4_SaIS4_EEEENS_17__normal_iteratorIT_T0_E15difference_typeERKSC_SF_ = comdat any

$_ZNSt12_Vector_baseIN4cvc58internal12NodeTemplateILb1EEESaIS3_EE11_M_allocateEm = comdat any

$_ZSt34__uninitialized_move_if_noexcept_aIPN4cvc58internal12NodeTemplateILb1EEES4_SaIS3_EET0_T_S7_S6_RT1_ = comdat any

$_ZNK9__gnu_cxx17__normal_iteratorIPN4cvc58internal12NodeTemplateILb1EEESt6vectorIS4_SaIS4_EEE4baseEv = comdat any

$_ZNSt12_Vector_baseIN4cvc58internal12NodeTemplateILb1EEESaIS3_EE19_M_get_Tp_allocatorEv = comdat any

$_ZNSt16allocator_traitsISaIN4cvc58internal12NodeTemplateILb1EEEEE7destroyIS3_EEvRS4_PT_ = comdat any

$_ZSt8_DestroyIPN4cvc58internal12NodeTemplateILb1EEES3_EvT_S5_RSaIT0_E = comdat any

$_ZNSt12_Vector_baseIN4cvc58internal12NodeTemplateILb1EEESaIS3_EE13_M_deallocateEPS3_m = comdat any

$_ZNKSt6vectorIN4cvc58internal12NodeTemplateILb1EEESaIS3_EE8max_sizeEv = comdat any

$_ZSt3maxImERKT_S2_S2_ = comdat any

$_ZNSt6vectorIN4cvc58internal12NodeTemplateILb1EEESaIS3_EE11_S_max_sizeERKS4_ = comdat any

$_ZNKSt12_Vector_baseIN4cvc58internal12NodeTemplateILb1EEESaIS3_EE19_M_get_Tp_allocatorEv = comdat any

$_ZNSt16allocator_traitsISaIN4cvc58internal12NodeTemplateILb1EEEEE8max_sizeERKS4_ = comdat any

$_ZSt3minImERKT_S2_S2_ = comdat any

$_ZNKSt15__new_allocatorIN4cvc58internal12NodeTemplateILb1EEEE8max_sizeEv = comdat any

$_ZNKSt15__new_allocatorIN4cvc58internal12NodeTemplateILb1EEEE11_M_max_sizeEv = comdat any

$_ZNSt16allocator_traitsISaIN4cvc58internal12NodeTemplateILb1EEEEE8allocateERS4_m = comdat any

$_ZNSt15__new_allocatorIN4cvc58internal12NodeTemplateILb1EEEE8allocateEmPKv = comdat any

$_ZSt22__uninitialized_copy_aIPKN4cvc58internal12NodeTemplateILb1EEEPS3_S3_ET0_T_S8_S7_RSaIT1_E = comdat any

$_ZSt32__make_move_if_noexcept_iteratorIN4cvc58internal12NodeTemplateILb1EEEPKS3_ET0_PT_ = comdat any

$_ZSt18uninitialized_copyIPKN4cvc58internal12NodeTemplateILb1EEEPS3_ET0_T_S8_S7_ = comdat any

$_ZNSt20__uninitialized_copyILb0EE13__uninit_copyIPKN4cvc58internal12NodeTemplateILb1EEEPS5_EET0_T_SA_S9_ = comdat any

$_ZSt16__do_uninit_copyIPKN4cvc58internal12NodeTemplateILb1EEEPS3_ET0_T_S8_S7_ = comdat any

$_ZSt10_ConstructIN4cvc58internal12NodeTemplateILb1EEEJRKS3_EEvPT_DpOT0_ = comdat any

$_ZSt8_DestroyIPN4cvc58internal12NodeTemplateILb1EEEEvT_S5_ = comdat any

$_ZNSt12_Destroy_auxILb0EE9__destroyIPN4cvc58internal12NodeTemplateILb1EEEEEvT_S7_ = comdat any

$_ZSt8_DestroyIN4cvc58internal12NodeTemplateILb1EEEEvPT_ = comdat any

$_ZNSt15__new_allocatorIN4cvc58internal12NodeTemplateILb1EEEE7destroyIS3_EEvPT_ = comdat any

$_ZNSt16allocator_traitsISaIN4cvc58internal12NodeTemplateILb1EEEEE10deallocateERS4_PS3_m = comdat any

$_ZNSt15__new_allocatorIN4cvc58internal12NodeTemplateILb1EEEE10deallocateEPS3_m = comdat any

$_ZNKSt8_Rb_treeIN4cvc58internal12NodeTemplateILb1EEESt4pairIKS3_mESt10_Select1stIS6_ESt4lessIS3_ESaIS6_EE4findERS5_ = comdat any

$_ZNKSt8_Rb_treeIN4cvc58internal12NodeTemplateILb1EEESt4pairIKS3_mESt10_Select1stIS6_ESt4lessIS3_ESaIS6_EE14_M_lower_boundEPKSt13_Rb_tree_nodeIS6_EPKSt18_Rb_tree_node_baseRS5_ = comdat any

$_ZNKSt8_Rb_treeIN4cvc58internal12NodeTemplateILb1EEESt4pairIKS3_mESt10_Select1stIS6_ESt4lessIS3_ESaIS6_EE8_M_beginEv = comdat any

$_ZNKSt8_Rb_treeIN4cvc58internal12NodeTemplateILb1EEESt4pairIKS3_mESt10_Select1stIS6_ESt4lessIS3_ESaIS6_EE6_M_endEv = comdat any

$_ZNKSt8_Rb_treeIN4cvc58internal12NodeTemplateILb1EEESt4pairIKS3_mESt10_Select1stIS6_ESt4lessIS3_ESaIS6_EE3endEv = comdat any

$_ZNSt8_Rb_treeIN4cvc58internal12NodeTemplateILb1EEESt4pairIKS3_mESt10_Select1stIS6_ESt4lessIS3_ESaIS6_EE7_S_leftEPKSt18_Rb_tree_node_base = comdat any

$_ZNSt8_Rb_treeIN4cvc58internal12NodeTemplateILb1EEESt4pairIKS3_mESt10_Select1stIS6_ESt4lessIS3_ESaIS6_EE8_S_rightEPKSt18_Rb_tree_node_base = comdat any

$_ZNSt23_Rb_tree_const_iteratorISt4pairIKN4cvc58internal12NodeTemplateILb1EEEmEEC2EPKSt18_Rb_tree_node_base = comdat any

$_ZNSt8_Rb_treeIN4cvc58internal12NodeTemplateILb0EEESt4pairIKS3_NS2_ILb1EEEESt10_Select1stIS7_ESt4lessIS3_ESaIS7_EE4findERS5_ = comdat any

$_ZNSt8_Rb_treeIN4cvc58internal12NodeTemplateILb0EEESt4pairIKS3_NS2_ILb1EEEESt10_Select1stIS7_ESt4lessIS3_ESaIS7_EE14_M_lower_boundEPSt13_Rb_tree_nodeIS7_EPSt18_Rb_tree_node_baseRS5_ = comdat any

$_ZNSt8_Rb_treeIN4cvc58internal12NodeTemplateILb0EEESt4pairIKS3_NS2_ILb1EEEESt10_Select1stIS7_ESt4lessIS3_ESaIS7_EE6_M_endEv = comdat any

$_ZSteqRKSt17_Rb_tree_iteratorISt4pairIKN4cvc58internal12NodeTemplateILb0EEENS3_ILb1EEEEESA_ = comdat any

$_ZNSt8_Rb_treeIN4cvc58internal12NodeTemplateILb0EEESt4pairIKS3_NS2_ILb1EEEESt10_Select1stIS7_ESt4lessIS3_ESaIS7_EE3endEv = comdat any

$_ZNKSt4lessIN4cvc58internal12NodeTemplateILb0EEEEclERKS3_S6_ = comdat any

$_ZNSt8_Rb_treeIN4cvc58internal12NodeTemplateILb0EEESt4pairIKS3_NS2_ILb1EEEESt10_Select1stIS7_ESt4lessIS3_ESaIS7_EE6_S_keyEPKSt18_Rb_tree_node_base = comdat any

$_ZNSt8_Rb_treeIN4cvc58internal12NodeTemplateILb0EEESt4pairIKS3_NS2_ILb1EEEESt10_Select1stIS7_ESt4lessIS3_ESaIS7_EE6_S_keyEPKSt13_Rb_tree_nodeIS7_E = comdat any

$_ZNSt17_Rb_tree_iteratorISt4pairIKN4cvc58internal12NodeTemplateILb0EEENS3_ILb1EEEEEC2EPSt18_Rb_tree_node_base = comdat any

$_ZNKSt10_Select1stISt4pairIKN4cvc58internal12NodeTemplateILb0EEENS3_ILb1EEEEEclERKS7_ = comdat any

$_ZNKSt13_Rb_tree_nodeISt4pairIKN4cvc58internal12NodeTemplateILb0EEENS3_ILb1EEEEE9_M_valptrEv = comdat any

$_ZNK9__gnu_cxx16__aligned_membufISt4pairIKN4cvc58internal12NodeTemplateILb0EEENS4_ILb1EEEEE6_M_ptrEv = comdat any

$_ZNK9__gnu_cxx16__aligned_membufISt4pairIKN4cvc58internal12NodeTemplateILb0EEENS4_ILb1EEEEE7_M_addrEv = comdat any

$_ZNK4cvc58internal12NodeTemplateILb0EEltILb0EEEbRKNS1_IXT_EEE = comdat any

$_ZNK4cvc58internal8TypeNode6isNullEv = comdat any

$_ZN4cvc58internal8TypeNodeaSERKS1_ = comdat any

$_ZN4cvc58internal4expr9NodeValue4nullEv = comdat any

$_ZN4cvc58internal4expr9NodeValueC2Ei = comdat any

$_ZNSt3mapISt4pairIN4cvc58internal8TypeNodeEjEjSt4lessIS4_ESaIS0_IKS4_jEEE11lower_boundERS7_ = comdat any

$_ZSteqRKSt17_Rb_tree_iteratorISt4pairIKS0_IN4cvc58internal8TypeNodeEjEjEES9_ = comdat any

$_ZNSt3mapISt4pairIN4cvc58internal8TypeNodeEjEjSt4lessIS4_ESaIS0_IKS4_jEEE3endEv = comdat any

$_ZNKSt3mapISt4pairIN4cvc58internal8TypeNodeEjEjSt4lessIS4_ESaIS0_IKS4_jEEE8key_compEv = comdat any

$_ZNKSt17_Rb_tree_iteratorISt4pairIKS0_IN4cvc58internal8TypeNodeEjEjEEdeEv = comdat any

$_ZNSt8_Rb_treeISt4pairIN4cvc58internal8TypeNodeEjES0_IKS4_jESt10_Select1stIS6_ESt4lessIS4_ESaIS6_EE22_M_emplace_hint_uniqueIJRKSt21piecewise_construct_tSt5tupleIJRS5_EESH_IJEEEEESt17_Rb_tree_iteratorIS6_ESt23_Rb_tree_const_iteratorIS6_EDpOT_ = comdat any

$_ZNSt23_Rb_tree_const_iteratorISt4pairIKS0_IN4cvc58internal8TypeNodeEjEjEEC2ERKSt17_Rb_tree_iteratorIS6_E = comdat any

$_ZNSt8_Rb_treeISt4pairIN4cvc58internal8TypeNodeEjES0_IKS4_jESt10_Select1stIS6_ESt4lessIS4_ESaIS6_EE11lower_boundERS5_ = comdat any

$_ZNSt8_Rb_treeISt4pairIN4cvc58internal8TypeNodeEjES0_IKS4_jESt10_Select1stIS6_ESt4lessIS4_ESaIS6_EE14_M_lower_boundEPSt13_Rb_tree_nodeIS6_EPSt18_Rb_tree_node_baseRS5_ = comdat any

$_ZNSt8_Rb_treeISt4pairIN4cvc58internal8TypeNodeEjES0_IKS4_jESt10_Select1stIS6_ESt4lessIS4_ESaIS6_EE6_M_endEv = comdat any

$_ZNSt8_Rb_treeISt4pairIN4cvc58internal8TypeNodeEjES0_IKS4_jESt10_Select1stIS6_ESt4lessIS4_ESaIS6_EE6_S_keyEPKSt13_Rb_tree_nodeIS6_E = comdat any

$_ZNSt17_Rb_tree_iteratorISt4pairIKS0_IN4cvc58internal8TypeNodeEjEjEEC2EPSt18_Rb_tree_node_base = comdat any

$_ZNKSt10_Select1stISt4pairIKS0_IN4cvc58internal8TypeNodeEjEjEEclERKS6_ = comdat any

$_ZNKSt13_Rb_tree_nodeISt4pairIKS0_IN4cvc58internal8TypeNodeEjEjEE9_M_valptrEv = comdat any

$_ZNK9__gnu_cxx16__aligned_membufISt4pairIKS1_IN4cvc58internal8TypeNodeEjEjEE6_M_ptrEv = comdat any

$_ZNK9__gnu_cxx16__aligned_membufISt4pairIKS1_IN4cvc58internal8TypeNodeEjEjEE7_M_addrEv = comdat any

$_ZNSt8_Rb_treeISt4pairIN4cvc58internal8TypeNodeEjES0_IKS4_jESt10_Select1stIS6_ESt4lessIS4_ESaIS6_EE3endEv = comdat any

$_ZNKSt8_Rb_treeISt4pairIN4cvc58internal8TypeNodeEjES0_IKS4_jESt10_Select1stIS6_ESt4lessIS4_ESaIS6_EE8key_compEv = comdat any

$_ZNSt8_Rb_treeISt4pairIN4cvc58internal8TypeNodeEjES0_IKS4_jESt10_Select1stIS6_ESt4lessIS4_ESaIS6_EE10_Auto_nodeC2IJRKSt21piecewise_construct_tSt5tupleIJRS5_EESI_IJEEEEERSC_DpOT_ = comdat any

$_ZNSt8_Rb_treeISt4pairIN4cvc58internal8TypeNodeEjES0_IKS4_jESt10_Select1stIS6_ESt4lessIS4_ESaIS6_EE29_M_get_insert_hint_unique_posESt23_Rb_tree_const_iteratorIS6_ERS5_ = comdat any

$_ZNKSt8_Rb_treeISt4pairIN4cvc58internal8TypeNodeEjES0_IKS4_jESt10_Select1stIS6_ESt4lessIS4_ESaIS6_EE10_Auto_node6_M_keyEv = comdat any

$_ZNSt8_Rb_treeISt4pairIN4cvc58internal8TypeNodeEjES0_IKS4_jESt10_Select1stIS6_ESt4lessIS4_ESaIS6_EE10_Auto_node9_M_insertES0_IPSt18_Rb_tree_node_baseSF_E = comdat any

$_ZNSt8_Rb_treeISt4pairIN4cvc58internal8TypeNodeEjES0_IKS4_jESt10_Select1stIS6_ESt4lessIS4_ESaIS6_EE10_Auto_nodeD2Ev = comdat any

$_ZNSt8_Rb_treeISt4pairIN4cvc58internal8TypeNodeEjES0_IKS4_jESt10_Select1stIS6_ESt4lessIS4_ESaIS6_EE14_M_create_nodeIJRKSt21piecewise_construct_tSt5tupleIJRS5_EESH_IJEEEEEPSt13_Rb_tree_nodeIS6_EDpOT_ = comdat any

$_ZNSt8_Rb_treeISt4pairIN4cvc58internal8TypeNodeEjES0_IKS4_jESt10_Select1stIS6_ESt4lessIS4_ESaIS6_EE11_M_get_nodeEv = comdat any

$_ZNSt8_Rb_treeISt4pairIN4cvc58internal8TypeNodeEjES0_IKS4_jESt10_Select1stIS6_ESt4lessIS4_ESaIS6_EE17_M_construct_nodeIJRKSt21piecewise_construct_tSt5tupleIJRS5_EESH_IJEEEEEvPSt13_Rb_tree_nodeIS6_EDpOT_ = comdat any

$_ZNSt16allocator_traitsISaISt13_Rb_tree_nodeISt4pairIKS1_IN4cvc58internal8TypeNodeEjEjEEEE8allocateERS9_m = comdat any

$_ZNSt15__new_allocatorISt13_Rb_tree_nodeISt4pairIKS1_IN4cvc58internal8TypeNodeEjEjEEE8allocateEmPKv = comdat any

$_ZNKSt15__new_allocatorISt13_Rb_tree_nodeISt4pairIKS1_IN4cvc58internal8TypeNodeEjEjEEE11_M_max_sizeEv = comdat any

$_ZNSt16allocator_traitsISaISt13_Rb_tree_nodeISt4pairIKS1_IN4cvc58internal8TypeNodeEjEjEEEE9constructIS7_JRKSt21piecewise_construct_tSt5tupleIJRS6_EESF_IJEEEEEvRS9_PT_DpOT0_ = comdat any

$_ZNSt15__new_allocatorISt13_Rb_tree_nodeISt4pairIKS1_IN4cvc58internal8TypeNodeEjEjEEE9constructIS7_JRKSt21piecewise_construct_tSt5tupleIJRS6_EESE_IJEEEEEvPT_DpOT0_ = comdat any

$_ZNSt4pairIKS_IN4cvc58internal8TypeNodeEjEjEC2IJRS4_EJEEESt21piecewise_construct_tSt5tupleIJDpT_EES9_IJDpT0_EE = comdat any

$_ZNSt4pairIKS_IN4cvc58internal8TypeNodeEjEjEC2IJRS4_EJLm0EEJETpTnmJEEERSt5tupleIJDpT_EERS8_IJDpT1_EESt12_Index_tupleIJXspT0_EEESH_IJXspT2_EEE = comdat any

$_ZNKSt23_Rb_tree_const_iteratorISt4pairIKS0_IN4cvc58internal8TypeNodeEjEjEE13_M_const_castEv = comdat any

$_ZNKSt8_Rb_treeISt4pairIN4cvc58internal8TypeNodeEjES0_IKS4_jESt10_Select1stIS6_ESt4lessIS4_ESaIS6_EE4sizeEv = comdat any

$_ZNSt8_Rb_treeISt4pairIN4cvc58internal8TypeNodeEjES0_IKS4_jESt10_Select1stIS6_ESt4lessIS4_ESaIS6_EE6_S_keyEPKSt18_Rb_tree_node_base = comdat any

$_ZNSt8_Rb_treeISt4pairIN4cvc58internal8TypeNodeEjES0_IKS4_jESt10_Select1stIS6_ESt4lessIS4_ESaIS6_EE12_M_rightmostEv = comdat any

$_ZNSt8_Rb_treeISt4pairIN4cvc58internal8TypeNodeEjES0_IKS4_jESt10_Select1stIS6_ESt4lessIS4_ESaIS6_EE24_M_get_insert_unique_posERS5_ = comdat any

$_ZNSt8_Rb_treeISt4pairIN4cvc58internal8TypeNodeEjES0_IKS4_jESt10_Select1stIS6_ESt4lessIS4_ESaIS6_EE11_M_leftmostEv = comdat any

$_ZNSt17_Rb_tree_iteratorISt4pairIKS0_IN4cvc58internal8TypeNodeEjEjEEmmEv = comdat any

$_ZNSt17_Rb_tree_iteratorISt4pairIKS0_IN4cvc58internal8TypeNodeEjEjEEppEv = comdat any

$_ZNSt8_Rb_treeISt4pairIN4cvc58internal8TypeNodeEjES0_IKS4_jESt10_Select1stIS6_ESt4lessIS4_ESaIS6_EE5beginEv = comdat any

$_ZNSt4pairIPSt18_Rb_tree_node_baseS1_EC2IRPSt13_Rb_tree_nodeIS_IKS_IN4cvc58internal8TypeNodeEjEjEERS1_TnNSt9enable_ifIXaaclsr5_PCCPE22_MoveConstructiblePairIT_T0_EEclsr5_PCCPE30_ImplicitlyMoveConvertiblePairISG_SH_EEEbE4typeELb1EEEOSG_OSH_ = comdat any

$_ZNSt8_Rb_treeISt4pairIN4cvc58internal8TypeNodeEjES0_IKS4_jESt10_Select1stIS6_ESt4lessIS4_ESaIS6_EE14_M_insert_nodeEPSt18_Rb_tree_node_baseSE_PSt13_Rb_tree_nodeIS6_E = comdat any

$_ZNSt3mapIN4cvc58internal12NodeTemplateILb0EEENS2_ILb1EEESt4lessIS3_ESaISt4pairIKS3_S4_EEE11lower_boundERS8_ = comdat any

$_ZNKSt3mapIN4cvc58internal12NodeTemplateILb0EEENS2_ILb1EEESt4lessIS3_ESaISt4pairIKS3_S4_EEE8key_compEv = comdat any

$_ZNKSt17_Rb_tree_iteratorISt4pairIKN4cvc58internal12NodeTemplateILb0EEENS3_ILb1EEEEEdeEv = comdat any

$_ZNSt8_Rb_treeIN4cvc58internal12NodeTemplateILb0EEESt4pairIKS3_NS2_ILb1EEEESt10_Select1stIS7_ESt4lessIS3_ESaIS7_EE22_M_emplace_hint_uniqueIJRKSt21piecewise_construct_tSt5tupleIJRS5_EESI_IJEEEEESt17_Rb_tree_iteratorIS7_ESt23_Rb_tree_const_iteratorIS7_EDpOT_ = comdat any

$_ZNSt23_Rb_tree_const_iteratorISt4pairIKN4cvc58internal12NodeTemplateILb0EEENS3_ILb1EEEEEC2ERKSt17_Rb_tree_iteratorIS7_E = comdat any

$_ZNSt5tupleIJRKN4cvc58internal12NodeTemplateILb0EEEEEC2ILb1ETnNSt9enable_ifIXclsr4_TCCIXT_EEE29__is_implicitly_constructibleIS5_EEEbE4typeELb1EEES5_ = comdat any

$_ZNSt8_Rb_treeIN4cvc58internal12NodeTemplateILb0EEESt4pairIKS3_NS2_ILb1EEEESt10_Select1stIS7_ESt4lessIS3_ESaIS7_EE11lower_boundERS5_ = comdat any

$_ZNKSt8_Rb_treeIN4cvc58internal12NodeTemplateILb0EEESt4pairIKS3_NS2_ILb1EEEESt10_Select1stIS7_ESt4lessIS3_ESaIS7_EE8key_compEv = comdat any

$_ZNSt8_Rb_treeIN4cvc58internal12NodeTemplateILb0EEESt4pairIKS3_NS2_ILb1EEEESt10_Select1stIS7_ESt4lessIS3_ESaIS7_EE10_Auto_nodeC2IJRKSt21piecewise_construct_tSt5tupleIJRS5_EESJ_IJEEEEERSD_DpOT_ = comdat any

$_ZNSt8_Rb_treeIN4cvc58internal12NodeTemplateILb0EEESt4pairIKS3_NS2_ILb1EEEESt10_Select1stIS7_ESt4lessIS3_ESaIS7_EE29_M_get_insert_hint_unique_posESt23_Rb_tree_const_iteratorIS7_ERS5_ = comdat any

$_ZNKSt8_Rb_treeIN4cvc58internal12NodeTemplateILb0EEESt4pairIKS3_NS2_ILb1EEEESt10_Select1stIS7_ESt4lessIS3_ESaIS7_EE10_Auto_node6_M_keyEv = comdat any

$_ZNSt8_Rb_treeIN4cvc58internal12NodeTemplateILb0EEESt4pairIKS3_NS2_ILb1EEEESt10_Select1stIS7_ESt4lessIS3_ESaIS7_EE10_Auto_node9_M_insertES4_IPSt18_Rb_tree_node_baseSG_E = comdat any

$_ZNSt8_Rb_treeIN4cvc58internal12NodeTemplateILb0EEESt4pairIKS3_NS2_ILb1EEEESt10_Select1stIS7_ESt4lessIS3_ESaIS7_EE10_Auto_nodeD2Ev = comdat any

$_ZNSt8_Rb_treeIN4cvc58internal12NodeTemplateILb0EEESt4pairIKS3_NS2_ILb1EEEESt10_Select1stIS7_ESt4lessIS3_ESaIS7_EE14_M_create_nodeIJRKSt21piecewise_construct_tSt5tupleIJRS5_EESI_IJEEEEEPSt13_Rb_tree_nodeIS7_EDpOT_ = comdat any

$_ZNSt8_Rb_treeIN4cvc58internal12NodeTemplateILb0EEESt4pairIKS3_NS2_ILb1EEEESt10_Select1stIS7_ESt4lessIS3_ESaIS7_EE11_M_get_nodeEv = comdat any

$_ZNSt8_Rb_treeIN4cvc58internal12NodeTemplateILb0EEESt4pairIKS3_NS2_ILb1EEEESt10_Select1stIS7_ESt4lessIS3_ESaIS7_EE17_M_construct_nodeIJRKSt21piecewise_construct_tSt5tupleIJRS5_EESI_IJEEEEEvPSt13_Rb_tree_nodeIS7_EDpOT_ = comdat any

$_ZNSt16allocator_traitsISaISt13_Rb_tree_nodeISt4pairIKN4cvc58internal12NodeTemplateILb0EEENS4_ILb1EEEEEEE8allocateERSA_m = comdat any

$_ZNSt15__new_allocatorISt13_Rb_tree_nodeISt4pairIKN4cvc58internal12NodeTemplateILb0EEENS4_ILb1EEEEEE8allocateEmPKv = comdat any

$_ZNKSt15__new_allocatorISt13_Rb_tree_nodeISt4pairIKN4cvc58internal12NodeTemplateILb0EEENS4_ILb1EEEEEE11_M_max_sizeEv = comdat any

$_ZNSt16allocator_traitsISaISt13_Rb_tree_nodeISt4pairIKN4cvc58internal12NodeTemplateILb0EEENS4_ILb1EEEEEEE9constructIS8_JRKSt21piecewise_construct_tSt5tupleIJRS6_EESG_IJEEEEEvRSA_PT_DpOT0_ = comdat any

$_ZNSt15__new_allocatorISt13_Rb_tree_nodeISt4pairIKN4cvc58internal12NodeTemplateILb0EEENS4_ILb1EEEEEE9constructIS8_JRKSt21piecewise_construct_tSt5tupleIJRS6_EESF_IJEEEEEvPT_DpOT0_ = comdat any

$_ZNSt5tupleIJRKN4cvc58internal12NodeTemplateILb0EEEEEC2EOS6_ = comdat any

$_ZNSt4pairIKN4cvc58internal12NodeTemplateILb0EEENS2_ILb1EEEEC2IJRS4_EJEEESt21piecewise_construct_tSt5tupleIJDpT_EESA_IJDpT0_EE = comdat any

$_ZNSt11_Tuple_implILm0EJRKN4cvc58internal12NodeTemplateILb0EEEEEC2EOS6_ = comdat any

$_ZNSt4pairIKN4cvc58internal12NodeTemplateILb0EEENS2_ILb1EEEEC2IJRS4_EJLm0EEJETpTnmJEEERSt5tupleIJDpT_EERS9_IJDpT1_EESt12_Index_tupleIJXspT0_EEESI_IJXspT2_EEE = comdat any

$_ZSt3getILm0EJRKN4cvc58internal12NodeTemplateILb0EEEEERNSt13tuple_elementIXT_ESt5tupleIJDpT0_EEE4typeERSA_ = comdat any

$_ZN4cvc58internal12NodeTemplateILb1EEC2Ev = comdat any

$_ZSt12__get_helperILm0ERKN4cvc58internal12NodeTemplateILb0EEEJEERT0_RSt11_Tuple_implIXT_EJS6_DpT1_EE = comdat any

$_ZNSt11_Tuple_implILm0EJRKN4cvc58internal12NodeTemplateILb0EEEEE7_M_headERS6_ = comdat any

$_ZNSt10_Head_baseILm0ERKN4cvc58internal12NodeTemplateILb0EEELb0EE7_M_headERS6_ = comdat any

$_ZNKSt23_Rb_tree_const_iteratorISt4pairIKN4cvc58internal12NodeTemplateILb0EEENS3_ILb1EEEEE13_M_const_castEv = comdat any

$_ZNKSt8_Rb_treeIN4cvc58internal12NodeTemplateILb0EEESt4pairIKS3_NS2_ILb1EEEESt10_Select1stIS7_ESt4lessIS3_ESaIS7_EE4sizeEv = comdat any

$_ZNSt8_Rb_treeIN4cvc58internal12NodeTemplateILb0EEESt4pairIKS3_NS2_ILb1EEEESt10_Select1stIS7_ESt4lessIS3_ESaIS7_EE12_M_rightmostEv = comdat any

$_ZNSt8_Rb_treeIN4cvc58internal12NodeTemplateILb0EEESt4pairIKS3_NS2_ILb1EEEESt10_Select1stIS7_ESt4lessIS3_ESaIS7_EE24_M_get_insert_unique_posERS5_ = comdat any

$_ZNSt8_Rb_treeIN4cvc58internal12NodeTemplateILb0EEESt4pairIKS3_NS2_ILb1EEEESt10_Select1stIS7_ESt4lessIS3_ESaIS7_EE11_M_leftmostEv = comdat any

$_ZNSt17_Rb_tree_iteratorISt4pairIKN4cvc58internal12NodeTemplateILb0EEENS3_ILb1EEEEEmmEv = comdat any

$_ZNSt17_Rb_tree_iteratorISt4pairIKN4cvc58internal12NodeTemplateILb0EEENS3_ILb1EEEEEppEv = comdat any

$_ZNSt8_Rb_treeIN4cvc58internal12NodeTemplateILb0EEESt4pairIKS3_NS2_ILb1EEEESt10_Select1stIS7_ESt4lessIS3_ESaIS7_EE5beginEv = comdat any

$_ZNSt4pairIPSt18_Rb_tree_node_baseS1_EC2IRPSt13_Rb_tree_nodeIS_IKN4cvc58internal12NodeTemplateILb0EEENS7_ILb1EEEEERS1_TnNSt9enable_ifIXaaclsr5_PCCPE22_MoveConstructiblePairIT_T0_EEclsr5_PCCPE30_ImplicitlyMoveConvertiblePairISH_SI_EEEbE4typeELb1EEEOSH_OSI_ = comdat any

$_ZNSt8_Rb_treeIN4cvc58internal12NodeTemplateILb0EEESt4pairIKS3_NS2_ILb1EEEESt10_Select1stIS7_ESt4lessIS3_ESaIS7_EE14_M_insert_nodeEPSt18_Rb_tree_node_baseSF_PSt13_Rb_tree_nodeIS7_E = comdat any

$_ZNSt11_Tuple_implILm0EJRKN4cvc58internal12NodeTemplateILb0EEEEEC2ES5_ = comdat any

$_ZNSt10_Head_baseILm0ERKN4cvc58internal12NodeTemplateILb0EEELb0EEC2ES5_ = comdat any

$_ZNSt12_Vector_baseIN4cvc58internal12NodeTemplateILb1EEESaIS3_EED2Ev = comdat any

$_ZNSt12_Vector_baseIN4cvc58internal12NodeTemplateILb1EEESaIS3_EE12_Vector_implD2Ev = comdat any

$_ZNSaIN4cvc58internal12NodeTemplateILb1EEEED2Ev = comdat any

$_ZNSt15__new_allocatorIN4cvc58internal12NodeTemplateILb1EEEED2Ev = comdat any

$_ZNK4cvc58internal4expr9NodeValue5beginINS0_12NodeTemplateILb0EEEEENS2_8iteratorIT_EEv = comdat any

$_ZN4cvc58internal4expr9NodeValue8iteratorINS0_12NodeTemplateILb0EEEEC2EPKPKS2_ = comdat any

$_ZNK4cvc58internal4expr9NodeValue3endINS0_12NodeTemplateILb0EEEEENS2_8iteratorIT_EEv = comdat any

$_ZN4cvc58internal12NodeTemplateILb0EEC2EPKNS0_4expr9NodeValueE = comdat any

$_ZN9__gnu_cxx17__normal_iteratorIPN4cvc58internal12NodeTemplateILb1EEESt6vectorIS4_SaIS4_EEEC2ERKS5_ = comdat any

$_ZSt6__sortIN9__gnu_cxx17__normal_iteratorIPN4cvc58internal12NodeTemplateILb1EEESt6vectorIS5_SaIS5_EEEENS0_5__ops15_Iter_comp_iterINS3_4expr13sortTermOrderEEEEvT_SG_T0_ = comdat any

$_ZN9__gnu_cxx5__ops16__iter_comp_iterIN4cvc58internal4expr13sortTermOrderEEENS0_15_Iter_comp_iterIT_EES7_ = comdat any

$_ZN9__gnu_cxxneIPN4cvc58internal12NodeTemplateILb1EEESt6vectorIS4_SaIS4_EEEEbRKNS_17__normal_iteratorIT_T0_EESE_ = comdat any

$_ZSt16__introsort_loopIN9__gnu_cxx17__normal_iteratorIPN4cvc58internal12NodeTemplateILb1EEESt6vectorIS5_SaIS5_EEEElNS0_5__ops15_Iter_comp_iterINS3_4expr13sortTermOrderEEEEvT_SG_T0_T1_ = comdat any

$_ZSt4__lgl = comdat any

$_ZSt22__final_insertion_sortIN9__gnu_cxx17__normal_iteratorIPN4cvc58internal12NodeTemplateILb1EEESt6vectorIS5_SaIS5_EEEENS0_5__ops15_Iter_comp_iterINS3_4expr13sortTermOrderEEEEvT_SG_T0_ = comdat any

$_ZSt14__partial_sortIN9__gnu_cxx17__normal_iteratorIPN4cvc58internal12NodeTemplateILb1EEESt6vectorIS5_SaIS5_EEEENS0_5__ops15_Iter_comp_iterINS3_4expr13sortTermOrderEEEEvT_SG_SG_T0_ = comdat any

$_ZSt27__unguarded_partition_pivotIN9__gnu_cxx17__normal_iteratorIPN4cvc58internal12NodeTemplateILb1EEESt6vectorIS5_SaIS5_EEEENS0_5__ops15_Iter_comp_iterINS3_4expr13sortTermOrderEEEET_SG_SG_T0_ = comdat any

$_ZSt13__heap_selectIN9__gnu_cxx17__normal_iteratorIPN4cvc58internal12NodeTemplateILb1EEESt6vectorIS5_SaIS5_EEEENS0_5__ops15_Iter_comp_iterINS3_4expr13sortTermOrderEEEEvT_SG_SG_T0_ = comdat any

$_ZSt11__sort_heapIN9__gnu_cxx17__normal_iteratorIPN4cvc58internal12NodeTemplateILb1EEESt6vectorIS5_SaIS5_EEEENS0_5__ops15_Iter_comp_iterINS3_4expr13sortTermOrderEEEEvT_SG_RT0_ = comdat any

$_ZSt11__make_heapIN9__gnu_cxx17__normal_iteratorIPN4cvc58internal12NodeTemplateILb1EEESt6vectorIS5_SaIS5_EEEENS0_5__ops15_Iter_comp_iterINS3_4expr13sortTermOrderEEEEvT_SG_RT0_ = comdat any

$_ZN9__gnu_cxxltIPN4cvc58internal12NodeTemplateILb1EEESt6vectorIS4_SaIS4_EEEEbRKNS_17__normal_iteratorIT_T0_EESE_ = comdat any

$_ZN9__gnu_cxx5__ops15_Iter_comp_iterIN4cvc58internal4expr13sortTermOrderEEclINS_17__normal_iteratorIPNS3_12NodeTemplateILb1EEESt6vectorISA_SaISA_EEEESF_EEbT_T0_ = comdat any

$_ZSt10__pop_heapIN9__gnu_cxx17__normal_iteratorIPN4cvc58internal12NodeTemplateILb1EEESt6vectorIS5_SaIS5_EEEENS0_5__ops15_Iter_comp_iterINS3_4expr13sortTermOrderEEEEvT_SG_SG_RT0_ = comdat any

$_ZN9__gnu_cxx17__normal_iteratorIPN4cvc58internal12NodeTemplateILb1EEESt6vectorIS4_SaIS4_EEEppEv = comdat any

$_ZNK9__gnu_cxx17__normal_iteratorIPN4cvc58internal12NodeTemplateILb1EEESt6vectorIS4_SaIS4_EEEplEl = comdat any

$_ZNK9__gnu_cxx17__normal_iteratorIPN4cvc58internal12NodeTemplateILb1EEESt6vectorIS4_SaIS4_EEEdeEv = comdat any

$_ZSt13__adjust_heapIN9__gnu_cxx17__normal_iteratorIPN4cvc58internal12NodeTemplateILb1EEESt6vectorIS5_SaIS5_EEEElS5_NS0_5__ops15_Iter_comp_iterINS3_4expr13sortTermOrderEEEEvT_T0_SH_T1_T2_ = comdat any

$_ZN9__gnu_cxx5__ops14_Iter_comp_valIN4cvc58internal4expr13sortTermOrderEEC2EONS0_15_Iter_comp_iterIS5_EE = comdat any

$_ZSt11__push_heapIN9__gnu_cxx17__normal_iteratorIPN4cvc58internal12NodeTemplateILb1EEESt6vectorIS5_SaIS5_EEEElS5_NS0_5__ops14_Iter_comp_valINS3_4expr13sortTermOrderEEEEvT_T0_SH_T1_RT2_ = comdat any

$_ZN9__gnu_cxx5__ops14_Iter_comp_valIN4cvc58internal4expr13sortTermOrderEEclINS_17__normal_iteratorIPNS3_12NodeTemplateILb1EEESt6vectorISA_SaISA_EEEESA_EEbT_RT0_ = comdat any

$_ZN4cvc58internal4expr13sortTermOrderclENS0_12NodeTemplateILb1EEES4_ = comdat any

$_ZN9__gnu_cxx17__normal_iteratorIPN4cvc58internal12NodeTemplateILb1EEESt6vectorIS4_SaIS4_EEEmmEv = comdat any

$_ZSt22__move_median_to_firstIN9__gnu_cxx17__normal_iteratorIPN4cvc58internal12NodeTemplateILb1EEESt6vectorIS5_SaIS5_EEEENS0_5__ops15_Iter_comp_iterINS3_4expr13sortTermOrderEEEEvT_SG_SG_SG_T0_ = comdat any

$_ZNK9__gnu_cxx17__normal_iteratorIPN4cvc58internal12NodeTemplateILb1EEESt6vectorIS4_SaIS4_EEEmiEl = comdat any

$_ZSt21__unguarded_partitionIN9__gnu_cxx17__normal_iteratorIPN4cvc58internal12NodeTemplateILb1EEESt6vectorIS5_SaIS5_EEEENS0_5__ops15_Iter_comp_iterINS3_4expr13sortTermOrderEEEET_SG_SG_SG_T0_ = comdat any

$_ZSt9iter_swapIN9__gnu_cxx17__normal_iteratorIPN4cvc58internal12NodeTemplateILb1EEESt6vectorIS5_SaIS5_EEEESA_EvT_T0_ = comdat any

$_ZSt4swapIN4cvc58internal12NodeTemplateILb1EEEENSt9enable_ifIXsr6__and_ISt6__not_ISt15__is_tuple_likeIT_EESt21is_move_constructibleIS7_ESt18is_move_assignableIS7_EEE5valueEvE4typeERS7_SG_ = comdat any

$_ZSt16__insertion_sortIN9__gnu_cxx17__normal_iteratorIPN4cvc58internal12NodeTemplateILb1EEESt6vectorIS5_SaIS5_EEEENS0_5__ops15_Iter_comp_iterINS3_4expr13sortTermOrderEEEEvT_SG_T0_ = comdat any

$_ZSt26__unguarded_insertion_sortIN9__gnu_cxx17__normal_iteratorIPN4cvc58internal12NodeTemplateILb1EEESt6vectorIS5_SaIS5_EEEENS0_5__ops15_Iter_comp_iterINS3_4expr13sortTermOrderEEEEvT_SG_T0_ = comdat any

$_ZN9__gnu_cxxeqIPN4cvc58internal12NodeTemplateILb1EEESt6vectorIS4_SaIS4_EEEEbRKNS_17__normal_iteratorIT_T0_EESE_ = comdat any

$_ZSt13move_backwardIN9__gnu_cxx17__normal_iteratorIPN4cvc58internal12NodeTemplateILb1EEESt6vectorIS5_SaIS5_EEEESA_ET0_T_SC_SB_ = comdat any

$_ZSt25__unguarded_linear_insertIN9__gnu_cxx17__normal_iteratorIPN4cvc58internal12NodeTemplateILb1EEESt6vectorIS5_SaIS5_EEEENS0_5__ops14_Val_comp_iterINS3_4expr13sortTermOrderEEEEvT_T0_ = comdat any

$_ZN9__gnu_cxx5__ops15__val_comp_iterIN4cvc58internal4expr13sortTermOrderEEENS0_14_Val_comp_iterIT_EENS0_15_Iter_comp_iterIS7_EE = comdat any

$_ZSt22__copy_move_backward_aILb1EN9__gnu_cxx17__normal_iteratorIPN4cvc58internal12NodeTemplateILb1EEESt6vectorIS5_SaIS5_EEEESA_ET1_T0_SC_SB_ = comdat any

$_ZSt12__miter_baseIN9__gnu_cxx17__normal_iteratorIPN4cvc58internal12NodeTemplateILb1EEESt6vectorIS5_SaIS5_EEEEET_SB_ = comdat any

$_ZSt12__niter_wrapIN9__gnu_cxx17__normal_iteratorIPN4cvc58internal12NodeTemplateILb1EEESt6vectorIS5_SaIS5_EEEES6_ET_SB_T0_ = comdat any

$_ZSt23__copy_move_backward_a1ILb1EPN4cvc58internal12NodeTemplateILb1EEES4_ET1_T0_S6_S5_ = comdat any

$_ZSt12__niter_baseIPN4cvc58internal12NodeTemplateILb1EEESt6vectorIS3_SaIS3_EEET_N9__gnu_cxx17__normal_iteratorIS8_T0_EE = comdat any

$_ZSt23__copy_move_backward_a2ILb1EPN4cvc58internal12NodeTemplateILb1EEES4_ET1_T0_S6_S5_ = comdat any

$_ZNSt20__copy_move_backwardILb1ELb0ESt26random_access_iterator_tagE13__copy_move_bIPN4cvc58internal12NodeTemplateILb1EEES7_EET0_T_S9_S8_ = comdat any

$_ZN9__gnu_cxx5__ops14_Val_comp_iterIN4cvc58internal4expr13sortTermOrderEEclINS3_12NodeTemplateILb1EEENS_17__normal_iteratorIPS9_St6vectorIS9_SaIS9_EEEEEEbRT_T0_ = comdat any

$_ZN9__gnu_cxx5__ops14_Val_comp_iterIN4cvc58internal4expr13sortTermOrderEEC2EONS0_15_Iter_comp_iterIS5_EE = comdat any

$_ZN9__gnu_cxx5__ops15_Iter_comp_iterIN4cvc58internal4expr13sortTermOrderEEC2ES5_ = comdat any

$_ZN9__gnu_cxxmiIPKN4cvc58internal12NodeTemplateILb1EEEPS4_St6vectorIS4_SaIS4_EEEEDTmicldtfp_4baseEcldtfp0_4baseEERKNS_17__normal_iteratorIT_T1_EERKNSC_IT0_SE_EE = comdat any

$_ZN9__gnu_cxxeqIPKN4cvc58internal12NodeTemplateILb1EEEPS4_St6vectorIS4_SaIS4_EEEEbRKNS_17__normal_iteratorIT_T1_EERKNSB_IT0_SD_EE = comdat any

$_ZN9__gnu_cxxmiIPKN4cvc58internal12NodeTemplateILb1EEESt6vectorIS4_SaIS4_EEEENS_17__normal_iteratorIT_T0_E15difference_typeERKSD_SG_ = comdat any

$_ZNKSt6vectorIN4cvc58internal12NodeTemplateILb1EEESaIS3_EE6cbeginEv = comdat any

$_ZNSt6vectorIN4cvc58internal12NodeTemplateILb1EEESaIS3_EE16_Temporary_valueC2IJRKS3_EEEPS5_DpOT_ = comdat any

$_ZNSt6vectorIN4cvc58internal12NodeTemplateILb1EEESaIS3_EE13_M_insert_auxIS3_EEvN9__gnu_cxx17__normal_iteratorIPS3_S5_EEOT_ = comdat any

$_ZNSt6vectorIN4cvc58internal12NodeTemplateILb1EEESaIS3_EE16_Temporary_value6_M_valEv = comdat any

$_ZNSt6vectorIN4cvc58internal12NodeTemplateILb1EEESaIS3_EE16_Temporary_valueD2Ev = comdat any

$_ZNK9__gnu_cxx17__normal_iteratorIPKN4cvc58internal12NodeTemplateILb1EEESt6vectorIS4_SaIS4_EEE4baseEv = comdat any

$_ZN9__gnu_cxx17__normal_iteratorIPKN4cvc58internal12NodeTemplateILb1EEESt6vectorIS4_SaIS4_EEEC2ERKS6_ = comdat any

$_ZNSt6vectorIN4cvc58internal12NodeTemplateILb1EEESaIS3_EE16_Temporary_value8_StorageC2Ev = comdat any

$_ZNSt6vectorIN4cvc58internal12NodeTemplateILb1EEESaIS3_EE16_Temporary_value6_M_ptrEv = comdat any

$_ZNSt6vectorIN4cvc58internal12NodeTemplateILb1EEESaIS3_EE16_Temporary_value8_StorageD2Ev = comdat any

$_ZNSt16allocator_traitsISaIN4cvc58internal12NodeTemplateILb1EEEEE9constructIS3_JS3_EEEvRS4_PT_DpOT0_ = comdat any

$_ZSt13move_backwardIPN4cvc58internal12NodeTemplateILb1EEES4_ET0_T_S6_S5_ = comdat any

$_ZNSt15__new_allocatorIN4cvc58internal12NodeTemplateILb1EEEE9constructIS3_JS3_EEEvPT_DpOT0_ = comdat any

$_ZSt22__copy_move_backward_aILb1EPN4cvc58internal12NodeTemplateILb1EEES4_ET1_T0_S6_S5_ = comdat any

$_ZSt12__miter_baseIPN4cvc58internal12NodeTemplateILb1EEEET_S5_ = comdat any

$_ZSt12__niter_wrapIPN4cvc58internal12NodeTemplateILb1EEEET_RKS5_S5_ = comdat any

$_ZSt12__niter_baseIPN4cvc58internal12NodeTemplateILb1EEEET_S5_ = comdat any

$_ZN4cvc58internal11NodeBuilder6appendILb1EEERS1_RKSt6vectorINS0_12NodeTemplateIXT_EEESaIS6_EE = comdat any

$_ZN4cvc58internal11NodeBuilder6appendIN9__gnu_cxx17__normal_iteratorIPKNS0_12NodeTemplateILb1EEESt6vectorIS6_SaIS6_EEEEEERS1_RKT_SG_ = comdat any

$_ZNKSt6vectorIN4cvc58internal12NodeTemplateILb1EEESaIS3_EE5beginEv = comdat any

$_ZNKSt6vectorIN4cvc58internal12NodeTemplateILb1EEESaIS3_EE3endEv = comdat any

$_ZN9__gnu_cxxneIPKN4cvc58internal12NodeTemplateILb1EEESt6vectorIS4_SaIS4_EEEEbRKNS_17__normal_iteratorIT_T0_EESF_ = comdat any

$_ZNK9__gnu_cxx17__normal_iteratorIPKN4cvc58internal12NodeTemplateILb1EEESt6vectorIS4_SaIS4_EEEdeEv = comdat any

$_ZN9__gnu_cxx17__normal_iteratorIPKN4cvc58internal12NodeTemplateILb1EEESt6vectorIS4_SaIS4_EEEppEv = comdat any

$_ZSt19piecewise_construct = comdat any

$_ZZN4cvc58internal4expr9NodeValue4nullEvE6s_null = comdat any

$_ZGVZN4cvc58internal4expr9NodeValue4nullEvE6s_null = comdat any

@_ZStL8__ioinit = internal global %"class.std::ios_base::Init" zeroinitializer, align 1
@__dso_handle = external hidden global i8
@_ZN4cvc58internal10nullStreamE = external global %"class.cvc5::internal::NullC", align 1
@_ZN4cvc58internal12TraceChannelE = external global %"class.cvc5::internal::TraceC", align 8
@.str = private unnamed_addr constant [9 x i8] c"...op...\00", align 1
@.str.1 = private unnamed_addr constant [2 x i8] c"f\00", align 1
@.str.2 = private unnamed_addr constant [24 x i8] c"Get canonical term for \00", align 1
@.str.3 = private unnamed_addr constant [22 x i8] c"...allocate variable \00", align 1
@.str.4 = private unnamed_addr constant [17 x i8] c"Collect children\00", align 1
@.str.5 = private unnamed_addr constant [36 x i8] c"Sort based on commutative operator \00", align 1
@.str.6 = private unnamed_addr constant [24 x i8] c"Make canonical children\00", align 1
@.str.7 = private unnamed_addr constant [17 x i8] c"Insert operator \00", align 1
@.str.8 = private unnamed_addr constant [21 x i8] c"...constructing for \00", align 1
@.str.9 = private unnamed_addr constant [2 x i8] c".\00", align 1
@.str.10 = private unnamed_addr constant [16 x i8] c"...constructed \00", align 1
@.str.11 = private unnamed_addr constant [6 x i8] c" for \00", align 1
@.str.12 = private unnamed_addr constant [24 x i8] c"...return 0-child term.\00", align 1
@.str.13 = private unnamed_addr constant [50 x i8] c"basic_string: construction from null is not valid\00", align 1
@_ZN4cvc58internal11Cvc5ostream16s_indentIosIndexE = external constant i32, align 4
@_ZN4cvc58internal11Cvc5ostream5s_tabB5cxx11E = external global %"class.std::__cxx11::basic_string", align 8
@_ZSt19piecewise_construct = linkonce_odr constant %"struct.std::piecewise_construct_t" zeroinitializer, comdat, align 1
@.str.14 = private unnamed_addr constant [26 x i8] c"vector::_M_realloc_insert\00", align 1
@_ZTIN4cvc58internal28TypeCheckingExceptionPrivateE = external constant ptr
@_ZZN4cvc58internal4expr9NodeValue4nullEvE6s_null = linkonce_odr global ptr null, comdat, align 8
@_ZGVZN4cvc58internal4expr9NodeValue4nullEvE6s_null = linkonce_odr global i64 0, comdat, align 8
@llvm.global_ctors = appending global [1 x { i32, ptr, ptr }] [{ i32, ptr, ptr } { i32 65535, ptr @_GLOBAL__sub_I_term_canonize.cpp, ptr null }]

@_ZN4cvc58internal4expr12TermCanonizeC1EPNS1_17TypeClassCallbackE = hidden unnamed_addr alias void (ptr, ptr), ptr @_ZN4cvc58internal4expr12TermCanonizeC2EPNS1_17TypeClassCallbackE

; Function Attrs: uwtable
define internal void @__cxx_global_var_init() #0 section ".text.startup" {
entry:
  call void @_ZNSt8ios_base4InitC1Ev(ptr noundef nonnull align 1 dereferenceable(1) @_ZStL8__ioinit)
  %0 = call i32 @__cxa_atexit(ptr @_ZNSt8ios_base4InitD1Ev, ptr @_ZStL8__ioinit, ptr @__dso_handle) #3
  ret void
}

declare void @_ZNSt8ios_base4InitC1Ev(ptr noundef nonnull align 1 dereferenceable(1)) unnamed_addr #1

; Function Attrs: nounwind
declare void @_ZNSt8ios_base4InitD1Ev(ptr noundef nonnull align 1 dereferenceable(1)) unnamed_addr #2

; Function Attrs: nounwind
declare i32 @__cxa_atexit(ptr, ptr, ptr) #3

; Function Attrs: mustprogress nounwind uwtable
define hidden void @_ZN4cvc58internal4expr12TermCanonizeC2EPNS1_17TypeClassCallbackE(ptr noundef nonnull align 8 dereferenceable(216) %this, ptr noundef %tcc) unnamed_addr #4 align 2 {
entry:
  %this.addr = alloca ptr, align 8
  %tcc.addr = alloca ptr, align 8
  store ptr %this, ptr %this.addr, align 8
  store ptr %tcc, ptr %tcc.addr, align 8
  %this1 = load ptr, ptr %this.addr, align 8
  %d_tcc = getelementptr inbounds %"class.cvc5::internal::expr::TermCanonize", ptr %this1, i32 0, i32 0
  %0 = load ptr, ptr %tcc.addr, align 8
  store ptr %0, ptr %d_tcc, align 8
  %d_op_id_count = getelementptr inbounds %"class.cvc5::internal::expr::TermCanonize", ptr %this1, i32 0, i32 1
  store i32 0, ptr %d_op_id_count, align 8
  %d_op_id = getelementptr inbounds %"class.cvc5::internal::expr::TermCanonize", ptr %this1, i32 0, i32 2
  call void @_ZNSt3mapIN4cvc58internal12NodeTemplateILb1EEEiSt4lessIS3_ESaISt4pairIKS3_iEEEC2Ev(ptr noundef nonnull align 8 dereferenceable(48) %d_op_id) #3
  %d_typ_id_count = getelementptr inbounds %"class.cvc5::internal::expr::TermCanonize", ptr %this1, i32 0, i32 3
  store i32 0, ptr %d_typ_id_count, align 8
  %d_typ_id = getelementptr inbounds %"class.cvc5::internal::expr::TermCanonize", ptr %this1, i32 0, i32 4
  call void @_ZNSt3mapIN4cvc58internal8TypeNodeEiSt4lessIS2_ESaISt4pairIKS2_iEEEC2Ev(ptr noundef nonnull align 8 dereferenceable(48) %d_typ_id) #3
  %d_cn_free_var = getelementptr inbounds %"class.cvc5::internal::expr::TermCanonize", ptr %this1, i32 0, i32 5
  call void @_ZNSt3mapISt4pairIN4cvc58internal8TypeNodeEjESt6vectorINS2_12NodeTemplateILb1EEESaIS7_EESt4lessIS4_ESaIS0_IKS4_S9_EEEC2Ev(ptr noundef nonnull align 8 dereferenceable(48) %d_cn_free_var) #3
  %d_fvIndex = getelementptr inbounds %"class.cvc5::internal::expr::TermCanonize", ptr %this1, i32 0, i32 6
  call void @_ZNSt3mapIN4cvc58internal12NodeTemplateILb1EEEmSt4lessIS3_ESaISt4pairIKS3_mEEEC2Ev(ptr noundef nonnull align 8 dereferenceable(48) %d_fvIndex) #3
  ret void
}

; Function Attrs: mustprogress nounwind uwtable
define linkonce_odr hidden void @_ZNSt3mapIN4cvc58internal12NodeTemplateILb1EEEiSt4lessIS3_ESaISt4pairIKS3_iEEEC2Ev(ptr noundef nonnull align 8 dereferenceable(48) %this) unnamed_addr #4 comdat align 2 {
entry:
  %this.addr = alloca ptr, align 8
  store ptr %this, ptr %this.addr, align 8
  %this1 = load ptr, ptr %this.addr, align 8
  %_M_t = getelementptr inbounds %"class.std::map", ptr %this1, i32 0, i32 0
  call void @_ZNSt8_Rb_treeIN4cvc58internal12NodeTemplateILb1EEESt4pairIKS3_iESt10_Select1stIS6_ESt4lessIS3_ESaIS6_EEC2Ev(ptr noundef nonnull align 8 dereferenceable(48) %_M_t) #3
  ret void
}

; Function Attrs: mustprogress nounwind uwtable
define linkonce_odr hidden void @_ZNSt3mapIN4cvc58internal8TypeNodeEiSt4lessIS2_ESaISt4pairIKS2_iEEEC2Ev(ptr noundef nonnull align 8 dereferenceable(48) %this) unnamed_addr #4 comdat align 2 {
entry:
  %this.addr = alloca ptr, align 8
  store ptr %this, ptr %this.addr, align 8
  %this1 = load ptr, ptr %this.addr, align 8
  %_M_t = getelementptr inbounds %"class.std::map.0", ptr %this1, i32 0, i32 0
  call void @_ZNSt8_Rb_treeIN4cvc58internal8TypeNodeESt4pairIKS2_iESt10_Select1stIS5_ESt4lessIS2_ESaIS5_EEC2Ev(ptr noundef nonnull align 8 dereferenceable(48) %_M_t) #3
  ret void
}

; Function Attrs: mustprogress nounwind uwtable
define linkonce_odr hidden void @_ZNSt3mapISt4pairIN4cvc58internal8TypeNodeEjESt6vectorINS2_12NodeTemplateILb1EEESaIS7_EESt4lessIS4_ESaIS0_IKS4_S9_EEEC2Ev(ptr noundef nonnull align 8 dereferenceable(48) %this) unnamed_addr #4 comdat align 2 {
entry:
  %this.addr = alloca ptr, align 8
  store ptr %this, ptr %this.addr, align 8
  %this1 = load ptr, ptr %this.addr, align 8
  %_M_t = getelementptr inbounds %"class.std::map.8", ptr %this1, i32 0, i32 0
  call void @_ZNSt8_Rb_treeISt4pairIN4cvc58internal8TypeNodeEjES0_IKS4_St6vectorINS2_12NodeTemplateILb1EEESaIS8_EEESt10_Select1stISB_ESt4lessIS4_ESaISB_EEC2Ev(ptr noundef nonnull align 8 dereferenceable(48) %_M_t) #3
  ret void
}

; Function Attrs: mustprogress nounwind uwtable
define linkonce_odr hidden void @_ZNSt3mapIN4cvc58internal12NodeTemplateILb1EEEmSt4lessIS3_ESaISt4pairIKS3_mEEEC2Ev(ptr noundef nonnull align 8 dereferenceable(48) %this) unnamed_addr #4 comdat align 2 {
entry:
  %this.addr = alloca ptr, align 8
  store ptr %this, ptr %this.addr, align 8
  %this1 = load ptr, ptr %this.addr, align 8
  %_M_t = getelementptr inbounds %"class.std::map.16", ptr %this1, i32 0, i32 0
  call void @_ZNSt8_Rb_treeIN4cvc58internal12NodeTemplateILb1EEESt4pairIKS3_mESt10_Select1stIS6_ESt4lessIS3_ESaIS6_EEC2Ev(ptr noundef nonnull align 8 dereferenceable(48) %_M_t) #3
  ret void
}

; Function Attrs: mustprogress uwtable
define hidden noundef i32 @_ZN4cvc58internal4expr12TermCanonize16getIdForOperatorENS0_12NodeTemplateILb1EEE(ptr noundef nonnull align 8 dereferenceable(216) %this, ptr noundef %op) #5 align 2 {
entry:
  %retval = alloca i32, align 4
  %this.addr = alloca ptr, align 8
  %op.indirect_addr = alloca ptr, align 8
  %it = alloca %"struct.std::_Rb_tree_iterator", align 8
  %ref.tmp = alloca %"struct.std::_Rb_tree_iterator", align 8
  store ptr %this, ptr %this.addr, align 8
  store ptr %op, ptr %op.indirect_addr, align 8
  %this1 = load ptr, ptr %this.addr, align 8
  %d_op_id = getelementptr inbounds %"class.cvc5::internal::expr::TermCanonize", ptr %this1, i32 0, i32 2
  %call = call ptr @_ZNSt3mapIN4cvc58internal12NodeTemplateILb1EEEiSt4lessIS3_ESaISt4pairIKS3_iEEE4findERS7_(ptr noundef nonnull align 8 dereferenceable(48) %d_op_id, ptr noundef nonnull align 8 dereferenceable(8) %op)
  %coerce.dive = getelementptr inbounds %"struct.std::_Rb_tree_iterator", ptr %it, i32 0, i32 0
  store ptr %call, ptr %coerce.dive, align 8
  %d_op_id2 = getelementptr inbounds %"class.cvc5::internal::expr::TermCanonize", ptr %this1, i32 0, i32 2
  %call3 = call ptr @_ZNSt3mapIN4cvc58internal12NodeTemplateILb1EEEiSt4lessIS3_ESaISt4pairIKS3_iEEE3endEv(ptr noundef nonnull align 8 dereferenceable(48) %d_op_id2) #3
  %coerce.dive4 = getelementptr inbounds %"struct.std::_Rb_tree_iterator", ptr %ref.tmp, i32 0, i32 0
  store ptr %call3, ptr %coerce.dive4, align 8
  %call5 = call noundef zeroext i1 @_ZSteqRKSt17_Rb_tree_iteratorISt4pairIKN4cvc58internal12NodeTemplateILb1EEEiEES9_(ptr noundef nonnull align 8 dereferenceable(8) %it, ptr noundef nonnull align 8 dereferenceable(8) %ref.tmp) #3
  br i1 %call5, label %if.then, label %if.end

if.then:                                          ; preds = %entry
  %d_op_id_count = getelementptr inbounds %"class.cvc5::internal::expr::TermCanonize", ptr %this1, i32 0, i32 1
  %0 = load i32, ptr %d_op_id_count, align 8
  %d_op_id6 = getelementptr inbounds %"class.cvc5::internal::expr::TermCanonize", ptr %this1, i32 0, i32 2
  %call7 = call noundef nonnull align 4 dereferenceable(4) ptr @_ZNSt3mapIN4cvc58internal12NodeTemplateILb1EEEiSt4lessIS3_ESaISt4pairIKS3_iEEEixERS7_(ptr noundef nonnull align 8 dereferenceable(48) %d_op_id6, ptr noundef nonnull align 8 dereferenceable(8) %op)
  store i32 %0, ptr %call7, align 4
  %d_op_id_count8 = getelementptr inbounds %"class.cvc5::internal::expr::TermCanonize", ptr %this1, i32 0, i32 1
  %1 = load i32, ptr %d_op_id_count8, align 8
  %inc = add nsw i32 %1, 1
  store i32 %inc, ptr %d_op_id_count8, align 8
  %d_op_id9 = getelementptr inbounds %"class.cvc5::internal::expr::TermCanonize", ptr %this1, i32 0, i32 2
  %call10 = call noundef nonnull align 4 dereferenceable(4) ptr @_ZNSt3mapIN4cvc58internal12NodeTemplateILb1EEEiSt4lessIS3_ESaISt4pairIKS3_iEEEixERS7_(ptr noundef nonnull align 8 dereferenceable(48) %d_op_id9, ptr noundef nonnull align 8 dereferenceable(8) %op)
  %2 = load i32, ptr %call10, align 4
  store i32 %2, ptr %retval, align 4
  br label %return

if.end:                                           ; preds = %entry
  %call11 = call noundef ptr @_ZNKSt17_Rb_tree_iteratorISt4pairIKN4cvc58internal12NodeTemplateILb1EEEiEEptEv(ptr noundef nonnull align 8 dereferenceable(8) %it) #3
  %second = getelementptr inbounds %"struct.std::pair", ptr %call11, i32 0, i32 1
  %3 = load i32, ptr %second, align 8
  store i32 %3, ptr %retval, align 4
  br label %return

return:                                           ; preds = %if.end, %if.then
  %4 = load i32, ptr %retval, align 4
  ret i32 %4
}

; Function Attrs: mustprogress uwtable
define linkonce_odr hidden ptr @_ZNSt3mapIN4cvc58internal12NodeTemplateILb1EEEiSt4lessIS3_ESaISt4pairIKS3_iEEE4findERS7_(ptr noundef nonnull align 8 dereferenceable(48) %this, ptr noundef nonnull align 8 dereferenceable(8) %__x) #5 comdat align 2 {
entry:
  %retval = alloca %"struct.std::_Rb_tree_iterator", align 8
  %this.addr = alloca ptr, align 8
  %__x.addr = alloca ptr, align 8
  store ptr %this, ptr %this.addr, align 8
  store ptr %__x, ptr %__x.addr, align 8
  %this1 = load ptr, ptr %this.addr, align 8
  %_M_t = getelementptr inbounds %"class.std::map", ptr %this1, i32 0, i32 0
  %0 = load ptr, ptr %__x.addr, align 8
  %call = call ptr @_ZNSt8_Rb_treeIN4cvc58internal12NodeTemplateILb1EEESt4pairIKS3_iESt10_Select1stIS6_ESt4lessIS3_ESaIS6_EE4findERS5_(ptr noundef nonnull align 8 dereferenceable(48) %_M_t, ptr noundef nonnull align 8 dereferenceable(8) %0)
  %coerce.dive = getelementptr inbounds %"struct.std::_Rb_tree_iterator", ptr %retval, i32 0, i32 0
  store ptr %call, ptr %coerce.dive, align 8
  %coerce.dive2 = getelementptr inbounds %"struct.std::_Rb_tree_iterator", ptr %retval, i32 0, i32 0
  %1 = load ptr, ptr %coerce.dive2, align 8
  ret ptr %1
}

; Function Attrs: mustprogress nounwind uwtable
define linkonce_odr noundef zeroext i1 @_ZSteqRKSt17_Rb_tree_iteratorISt4pairIKN4cvc58internal12NodeTemplateILb1EEEiEES9_(ptr noundef nonnull align 8 dereferenceable(8) %__x, ptr noundef nonnull align 8 dereferenceable(8) %__y) #4 comdat {
entry:
  %__x.addr = alloca ptr, align 8
  %__y.addr = alloca ptr, align 8
  store ptr %__x, ptr %__x.addr, align 8
  store ptr %__y, ptr %__y.addr, align 8
  %0 = load ptr, ptr %__x.addr, align 8
  %_M_node = getelementptr inbounds %"struct.std::_Rb_tree_iterator", ptr %0, i32 0, i32 0
  %1 = load ptr, ptr %_M_node, align 8
  %2 = load ptr, ptr %__y.addr, align 8
  %_M_node1 = getelementptr inbounds %"struct.std::_Rb_tree_iterator", ptr %2, i32 0, i32 0
  %3 = load ptr, ptr %_M_node1, align 8
  %cmp = icmp eq ptr %1, %3
  ret i1 %cmp
}

; Function Attrs: mustprogress nounwind uwtable
define linkonce_odr hidden ptr @_ZNSt3mapIN4cvc58internal12NodeTemplateILb1EEEiSt4lessIS3_ESaISt4pairIKS3_iEEE3endEv(ptr noundef nonnull align 8 dereferenceable(48) %this) #4 comdat align 2 {
entry:
  %retval = alloca %"struct.std::_Rb_tree_iterator", align 8
  %this.addr = alloca ptr, align 8
  store ptr %this, ptr %this.addr, align 8
  %this1 = load ptr, ptr %this.addr, align 8
  %_M_t = getelementptr inbounds %"class.std::map", ptr %this1, i32 0, i32 0
  %call = call ptr @_ZNSt8_Rb_treeIN4cvc58internal12NodeTemplateILb1EEESt4pairIKS3_iESt10_Select1stIS6_ESt4lessIS3_ESaIS6_EE3endEv(ptr noundef nonnull align 8 dereferenceable(48) %_M_t) #3
  %coerce.dive = getelementptr inbounds %"struct.std::_Rb_tree_iterator", ptr %retval, i32 0, i32 0
  store ptr %call, ptr %coerce.dive, align 8
  %coerce.dive2 = getelementptr inbounds %"struct.std::_Rb_tree_iterator", ptr %retval, i32 0, i32 0
  %0 = load ptr, ptr %coerce.dive2, align 8
  ret ptr %0
}

; Function Attrs: mustprogress uwtable
define linkonce_odr hidden noundef nonnull align 4 dereferenceable(4) ptr @_ZNSt3mapIN4cvc58internal12NodeTemplateILb1EEEiSt4lessIS3_ESaISt4pairIKS3_iEEEixERS7_(ptr noundef nonnull align 8 dereferenceable(48) %this, ptr noundef nonnull align 8 dereferenceable(8) %__k) #5 comdat align 2 {
entry:
  %this.addr = alloca ptr, align 8
  %__k.addr = alloca ptr, align 8
  %__i = alloca %"struct.std::_Rb_tree_iterator", align 8
  %ref.tmp = alloca %"struct.std::_Rb_tree_iterator", align 8
  %ref.tmp5 = alloca %"struct.std::less", align 1
  %ref.tmp8 = alloca %"struct.std::_Rb_tree_iterator", align 8
  %agg.tmp = alloca %"struct.std::_Rb_tree_const_iterator.135", align 8
  %ref.tmp9 = alloca %"class.std::tuple.136", align 8
  %ref.tmp10 = alloca %"class.std::tuple.139", align 1
  store ptr %this, ptr %this.addr, align 8
  store ptr %__k, ptr %__k.addr, align 8
  %this1 = load ptr, ptr %this.addr, align 8
  %0 = load ptr, ptr %__k.addr, align 8
  %call = call ptr @_ZNSt3mapIN4cvc58internal12NodeTemplateILb1EEEiSt4lessIS3_ESaISt4pairIKS3_iEEE11lower_boundERS7_(ptr noundef nonnull align 8 dereferenceable(48) %this1, ptr noundef nonnull align 8 dereferenceable(8) %0)
  %coerce.dive = getelementptr inbounds %"struct.std::_Rb_tree_iterator", ptr %__i, i32 0, i32 0
  store ptr %call, ptr %coerce.dive, align 8
  %call2 = call ptr @_ZNSt3mapIN4cvc58internal12NodeTemplateILb1EEEiSt4lessIS3_ESaISt4pairIKS3_iEEE3endEv(ptr noundef nonnull align 8 dereferenceable(48) %this1) #3
  %coerce.dive3 = getelementptr inbounds %"struct.std::_Rb_tree_iterator", ptr %ref.tmp, i32 0, i32 0
  store ptr %call2, ptr %coerce.dive3, align 8
  %call4 = call noundef zeroext i1 @_ZSteqRKSt17_Rb_tree_iteratorISt4pairIKN4cvc58internal12NodeTemplateILb1EEEiEES9_(ptr noundef nonnull align 8 dereferenceable(8) %__i, ptr noundef nonnull align 8 dereferenceable(8) %ref.tmp) #3
  br i1 %call4, label %lor.end, label %lor.rhs

lor.rhs:                                          ; preds = %entry
  call void @_ZNKSt3mapIN4cvc58internal12NodeTemplateILb1EEEiSt4lessIS3_ESaISt4pairIKS3_iEEE8key_compEv(ptr noundef nonnull align 8 dereferenceable(48) %this1)
  %1 = load ptr, ptr %__k.addr, align 8
  %call6 = call noundef nonnull align 8 dereferenceable(12) ptr @_ZNKSt17_Rb_tree_iteratorISt4pairIKN4cvc58internal12NodeTemplateILb1EEEiEEdeEv(ptr noundef nonnull align 8 dereferenceable(8) %__i) #3
  %first = getelementptr inbounds %"struct.std::pair", ptr %call6, i32 0, i32 0
  %call7 = call noundef zeroext i1 @_ZNKSt4lessIN4cvc58internal12NodeTemplateILb1EEEEclERKS3_S6_(ptr noundef nonnull align 1 dereferenceable(1) %ref.tmp5, ptr noundef nonnull align 8 dereferenceable(8) %1, ptr noundef nonnull align 8 dereferenceable(8) %first)
  br label %lor.end

lor.end:                                          ; preds = %lor.rhs, %entry
  %2 = phi i1 [ true, %entry ], [ %call7, %lor.rhs ]
  br i1 %2, label %if.then, label %if.end

if.then:                                          ; preds = %lor.end
  %_M_t = getelementptr inbounds %"class.std::map", ptr %this1, i32 0, i32 0
  call void @_ZNSt23_Rb_tree_const_iteratorISt4pairIKN4cvc58internal12NodeTemplateILb1EEEiEEC2ERKSt17_Rb_tree_iteratorIS6_E(ptr noundef nonnull align 8 dereferenceable(8) %agg.tmp, ptr noundef nonnull align 8 dereferenceable(8) %__i) #3
  %3 = load ptr, ptr %__k.addr, align 8
  call void @_ZNSt5tupleIJRKN4cvc58internal12NodeTemplateILb1EEEEEC2ILb1ETnNSt9enable_ifIXclsr4_TCCIXT_EEE29__is_implicitly_constructibleIS5_EEEbE4typeELb1EEES5_(ptr noundef nonnull align 8 dereferenceable(8) %ref.tmp9, ptr noundef nonnull align 8 dereferenceable(8) %3) #3
  %coerce.dive11 = getelementptr inbounds %"struct.std::_Rb_tree_const_iterator.135", ptr %agg.tmp, i32 0, i32 0
  %4 = load ptr, ptr %coerce.dive11, align 8
  %call12 = call ptr @_ZNSt8_Rb_treeIN4cvc58internal12NodeTemplateILb1EEESt4pairIKS3_iESt10_Select1stIS6_ESt4lessIS3_ESaIS6_EE22_M_emplace_hint_uniqueIJRKSt21piecewise_construct_tSt5tupleIJRS5_EESH_IJEEEEESt17_Rb_tree_iteratorIS6_ESt23_Rb_tree_const_iteratorIS6_EDpOT_(ptr noundef nonnull align 8 dereferenceable(48) %_M_t, ptr %4, ptr noundef nonnull align 1 dereferenceable(1) @_ZSt19piecewise_construct, ptr noundef nonnull align 8 dereferenceable(8) %ref.tmp9, ptr noundef nonnull align 1 dereferenceable(1) %ref.tmp10)
  %coerce.dive13 = getelementptr inbounds %"struct.std::_Rb_tree_iterator", ptr %ref.tmp8, i32 0, i32 0
  store ptr %call12, ptr %coerce.dive13, align 8
  call void @llvm.memcpy.p0.p0.i64(ptr align 8 %__i, ptr align 8 %ref.tmp8, i64 8, i1 false)
  br label %if.end

if.end:                                           ; preds = %if.then, %lor.end
  %call14 = call noundef nonnull align 8 dereferenceable(12) ptr @_ZNKSt17_Rb_tree_iteratorISt4pairIKN4cvc58internal12NodeTemplateILb1EEEiEEdeEv(ptr noundef nonnull align 8 dereferenceable(8) %__i) #3
  %second = getelementptr inbounds %"struct.std::pair", ptr %call14, i32 0, i32 1
  ret ptr %second
}

; Function Attrs: mustprogress nounwind uwtable
define linkonce_odr hidden noundef ptr @_ZNKSt17_Rb_tree_iteratorISt4pairIKN4cvc58internal12NodeTemplateILb1EEEiEEptEv(ptr noundef nonnull align 8 dereferenceable(8) %this) #4 comdat align 2 {
entry:
  %this.addr = alloca ptr, align 8
  store ptr %this, ptr %this.addr, align 8
  %this1 = load ptr, ptr %this.addr, align 8
  %_M_node = getelementptr inbounds %"struct.std::_Rb_tree_iterator", ptr %this1, i32 0, i32 0
  %0 = load ptr, ptr %_M_node, align 8
  %call = call noundef ptr @_ZNSt13_Rb_tree_nodeISt4pairIKN4cvc58internal12NodeTemplateILb1EEEiEE9_M_valptrEv(ptr noundef nonnull align 8 dereferenceable(48) %0)
  ret ptr %call
}

; Function Attrs: mustprogress uwtable
define hidden noundef i32 @_ZN4cvc58internal4expr12TermCanonize12getIdForTypeENS0_8TypeNodeE(ptr noundef nonnull align 8 dereferenceable(216) %this, ptr noundef %t) #5 align 2 {
entry:
  %retval = alloca i32, align 4
  %this.addr = alloca ptr, align 8
  %t.indirect_addr = alloca ptr, align 8
  %it = alloca %"struct.std::_Rb_tree_iterator.21", align 8
  %ref.tmp = alloca %"struct.std::_Rb_tree_iterator.21", align 8
  store ptr %this, ptr %this.addr, align 8
  store ptr %t, ptr %t.indirect_addr, align 8
  %this1 = load ptr, ptr %this.addr, align 8
  %d_typ_id = getelementptr inbounds %"class.cvc5::internal::expr::TermCanonize", ptr %this1, i32 0, i32 4
  %call = call ptr @_ZNSt3mapIN4cvc58internal8TypeNodeEiSt4lessIS2_ESaISt4pairIKS2_iEEE4findERS6_(ptr noundef nonnull align 8 dereferenceable(48) %d_typ_id, ptr noundef nonnull align 8 dereferenceable(8) %t)
  %coerce.dive = getelementptr inbounds %"struct.std::_Rb_tree_iterator.21", ptr %it, i32 0, i32 0
  store ptr %call, ptr %coerce.dive, align 8
  %d_typ_id2 = getelementptr inbounds %"class.cvc5::internal::expr::TermCanonize", ptr %this1, i32 0, i32 4
  %call3 = call ptr @_ZNSt3mapIN4cvc58internal8TypeNodeEiSt4lessIS2_ESaISt4pairIKS2_iEEE3endEv(ptr noundef nonnull align 8 dereferenceable(48) %d_typ_id2) #3
  %coerce.dive4 = getelementptr inbounds %"struct.std::_Rb_tree_iterator.21", ptr %ref.tmp, i32 0, i32 0
  store ptr %call3, ptr %coerce.dive4, align 8
  %call5 = call noundef zeroext i1 @_ZSteqRKSt17_Rb_tree_iteratorISt4pairIKN4cvc58internal8TypeNodeEiEES8_(ptr noundef nonnull align 8 dereferenceable(8) %it, ptr noundef nonnull align 8 dereferenceable(8) %ref.tmp) #3
  br i1 %call5, label %if.then, label %if.end

if.then:                                          ; preds = %entry
  %d_typ_id_count = getelementptr inbounds %"class.cvc5::internal::expr::TermCanonize", ptr %this1, i32 0, i32 3
  %0 = load i32, ptr %d_typ_id_count, align 8
  %d_typ_id6 = getelementptr inbounds %"class.cvc5::internal::expr::TermCanonize", ptr %this1, i32 0, i32 4
  %call7 = call noundef nonnull align 4 dereferenceable(4) ptr @_ZNSt3mapIN4cvc58internal8TypeNodeEiSt4lessIS2_ESaISt4pairIKS2_iEEEixERS6_(ptr noundef nonnull align 8 dereferenceable(48) %d_typ_id6, ptr noundef nonnull align 8 dereferenceable(8) %t)
  store i32 %0, ptr %call7, align 4
  %d_typ_id_count8 = getelementptr inbounds %"class.cvc5::internal::expr::TermCanonize", ptr %this1, i32 0, i32 3
  %1 = load i32, ptr %d_typ_id_count8, align 8
  %inc = add nsw i32 %1, 1
  store i32 %inc, ptr %d_typ_id_count8, align 8
  %d_typ_id9 = getelementptr inbounds %"class.cvc5::internal::expr::TermCanonize", ptr %this1, i32 0, i32 4
  %call10 = call noundef nonnull align 4 dereferenceable(4) ptr @_ZNSt3mapIN4cvc58internal8TypeNodeEiSt4lessIS2_ESaISt4pairIKS2_iEEEixERS6_(ptr noundef nonnull align 8 dereferenceable(48) %d_typ_id9, ptr noundef nonnull align 8 dereferenceable(8) %t)
  %2 = load i32, ptr %call10, align 4
  store i32 %2, ptr %retval, align 4
  br label %return

if.end:                                           ; preds = %entry
  %call11 = call noundef ptr @_ZNKSt17_Rb_tree_iteratorISt4pairIKN4cvc58internal8TypeNodeEiEEptEv(ptr noundef nonnull align 8 dereferenceable(8) %it) #3
  %second = getelementptr inbounds %"struct.std::pair.22", ptr %call11, i32 0, i32 1
  %3 = load i32, ptr %second, align 8
  store i32 %3, ptr %retval, align 4
  br label %return

return:                                           ; preds = %if.end, %if.then
  %4 = load i32, ptr %retval, align 4
  ret i32 %4
}

; Function Attrs: mustprogress uwtable
define linkonce_odr hidden ptr @_ZNSt3mapIN4cvc58internal8TypeNodeEiSt4lessIS2_ESaISt4pairIKS2_iEEE4findERS6_(ptr noundef nonnull align 8 dereferenceable(48) %this, ptr noundef nonnull align 8 dereferenceable(8) %__x) #5 comdat align 2 {
entry:
  %retval = alloca %"struct.std::_Rb_tree_iterator.21", align 8
  %this.addr = alloca ptr, align 8
  %__x.addr = alloca ptr, align 8
  store ptr %this, ptr %this.addr, align 8
  store ptr %__x, ptr %__x.addr, align 8
  %this1 = load ptr, ptr %this.addr, align 8
  %_M_t = getelementptr inbounds %"class.std::map.0", ptr %this1, i32 0, i32 0
  %0 = load ptr, ptr %__x.addr, align 8
  %call = call ptr @_ZNSt8_Rb_treeIN4cvc58internal8TypeNodeESt4pairIKS2_iESt10_Select1stIS5_ESt4lessIS2_ESaIS5_EE4findERS4_(ptr noundef nonnull align 8 dereferenceable(48) %_M_t, ptr noundef nonnull align 8 dereferenceable(8) %0)
  %coerce.dive = getelementptr inbounds %"struct.std::_Rb_tree_iterator.21", ptr %retval, i32 0, i32 0
  store ptr %call, ptr %coerce.dive, align 8
  %coerce.dive2 = getelementptr inbounds %"struct.std::_Rb_tree_iterator.21", ptr %retval, i32 0, i32 0
  %1 = load ptr, ptr %coerce.dive2, align 8
  ret ptr %1
}

; Function Attrs: mustprogress nounwind uwtable
define linkonce_odr noundef zeroext i1 @_ZSteqRKSt17_Rb_tree_iteratorISt4pairIKN4cvc58internal8TypeNodeEiEES8_(ptr noundef nonnull align 8 dereferenceable(8) %__x, ptr noundef nonnull align 8 dereferenceable(8) %__y) #4 comdat {
entry:
  %__x.addr = alloca ptr, align 8
  %__y.addr = alloca ptr, align 8
  store ptr %__x, ptr %__x.addr, align 8
  store ptr %__y, ptr %__y.addr, align 8
  %0 = load ptr, ptr %__x.addr, align 8
  %_M_node = getelementptr inbounds %"struct.std::_Rb_tree_iterator.21", ptr %0, i32 0, i32 0
  %1 = load ptr, ptr %_M_node, align 8
  %2 = load ptr, ptr %__y.addr, align 8
  %_M_node1 = getelementptr inbounds %"struct.std::_Rb_tree_iterator.21", ptr %2, i32 0, i32 0
  %3 = load ptr, ptr %_M_node1, align 8
  %cmp = icmp eq ptr %1, %3
  ret i1 %cmp
}

; Function Attrs: mustprogress nounwind uwtable
define linkonce_odr hidden ptr @_ZNSt3mapIN4cvc58internal8TypeNodeEiSt4lessIS2_ESaISt4pairIKS2_iEEE3endEv(ptr noundef nonnull align 8 dereferenceable(48) %this) #4 comdat align 2 {
entry:
  %retval = alloca %"struct.std::_Rb_tree_iterator.21", align 8
  %this.addr = alloca ptr, align 8
  store ptr %this, ptr %this.addr, align 8
  %this1 = load ptr, ptr %this.addr, align 8
  %_M_t = getelementptr inbounds %"class.std::map.0", ptr %this1, i32 0, i32 0
  %call = call ptr @_ZNSt8_Rb_treeIN4cvc58internal8TypeNodeESt4pairIKS2_iESt10_Select1stIS5_ESt4lessIS2_ESaIS5_EE3endEv(ptr noundef nonnull align 8 dereferenceable(48) %_M_t) #3
  %coerce.dive = getelementptr inbounds %"struct.std::_Rb_tree_iterator.21", ptr %retval, i32 0, i32 0
  store ptr %call, ptr %coerce.dive, align 8
  %coerce.dive2 = getelementptr inbounds %"struct.std::_Rb_tree_iterator.21", ptr %retval, i32 0, i32 0
  %0 = load ptr, ptr %coerce.dive2, align 8
  ret ptr %0
}

; Function Attrs: mustprogress uwtable
define linkonce_odr hidden noundef nonnull align 4 dereferenceable(4) ptr @_ZNSt3mapIN4cvc58internal8TypeNodeEiSt4lessIS2_ESaISt4pairIKS2_iEEEixERS6_(ptr noundef nonnull align 8 dereferenceable(48) %this, ptr noundef nonnull align 8 dereferenceable(8) %__k) #5 comdat align 2 {
entry:
  %this.addr = alloca ptr, align 8
  %__k.addr = alloca ptr, align 8
  %__i = alloca %"struct.std::_Rb_tree_iterator.21", align 8
  %ref.tmp = alloca %"struct.std::_Rb_tree_iterator.21", align 8
  %ref.tmp5 = alloca %"struct.std::less.6", align 1
  %ref.tmp8 = alloca %"struct.std::_Rb_tree_iterator.21", align 8
  %agg.tmp = alloca %"struct.std::_Rb_tree_const_iterator.147", align 8
  %ref.tmp9 = alloca %"class.std::tuple.148", align 8
  %ref.tmp10 = alloca %"class.std::tuple.139", align 1
  store ptr %this, ptr %this.addr, align 8
  store ptr %__k, ptr %__k.addr, align 8
  %this1 = load ptr, ptr %this.addr, align 8
  %0 = load ptr, ptr %__k.addr, align 8
  %call = call ptr @_ZNSt3mapIN4cvc58internal8TypeNodeEiSt4lessIS2_ESaISt4pairIKS2_iEEE11lower_boundERS6_(ptr noundef nonnull align 8 dereferenceable(48) %this1, ptr noundef nonnull align 8 dereferenceable(8) %0)
  %coerce.dive = getelementptr inbounds %"struct.std::_Rb_tree_iterator.21", ptr %__i, i32 0, i32 0
  store ptr %call, ptr %coerce.dive, align 8
  %call2 = call ptr @_ZNSt3mapIN4cvc58internal8TypeNodeEiSt4lessIS2_ESaISt4pairIKS2_iEEE3endEv(ptr noundef nonnull align 8 dereferenceable(48) %this1) #3
  %coerce.dive3 = getelementptr inbounds %"struct.std::_Rb_tree_iterator.21", ptr %ref.tmp, i32 0, i32 0
  store ptr %call2, ptr %coerce.dive3, align 8
  %call4 = call noundef zeroext i1 @_ZSteqRKSt17_Rb_tree_iteratorISt4pairIKN4cvc58internal8TypeNodeEiEES8_(ptr noundef nonnull align 8 dereferenceable(8) %__i, ptr noundef nonnull align 8 dereferenceable(8) %ref.tmp) #3
  br i1 %call4, label %lor.end, label %lor.rhs

lor.rhs:                                          ; preds = %entry
  call void @_ZNKSt3mapIN4cvc58internal8TypeNodeEiSt4lessIS2_ESaISt4pairIKS2_iEEE8key_compEv(ptr noundef nonnull align 8 dereferenceable(48) %this1)
  %1 = load ptr, ptr %__k.addr, align 8
  %call6 = call noundef nonnull align 8 dereferenceable(12) ptr @_ZNKSt17_Rb_tree_iteratorISt4pairIKN4cvc58internal8TypeNodeEiEEdeEv(ptr noundef nonnull align 8 dereferenceable(8) %__i) #3
  %first = getelementptr inbounds %"struct.std::pair.22", ptr %call6, i32 0, i32 0
  %call7 = call noundef zeroext i1 @_ZNKSt4lessIN4cvc58internal8TypeNodeEEclERKS2_S5_(ptr noundef nonnull align 1 dereferenceable(1) %ref.tmp5, ptr noundef nonnull align 8 dereferenceable(8) %1, ptr noundef nonnull align 8 dereferenceable(8) %first)
  br label %lor.end

lor.end:                                          ; preds = %lor.rhs, %entry
  %2 = phi i1 [ true, %entry ], [ %call7, %lor.rhs ]
  br i1 %2, label %if.then, label %if.end

if.then:                                          ; preds = %lor.end
  %_M_t = getelementptr inbounds %"class.std::map.0", ptr %this1, i32 0, i32 0
  call void @_ZNSt23_Rb_tree_const_iteratorISt4pairIKN4cvc58internal8TypeNodeEiEEC2ERKSt17_Rb_tree_iteratorIS5_E(ptr noundef nonnull align 8 dereferenceable(8) %agg.tmp, ptr noundef nonnull align 8 dereferenceable(8) %__i) #3
  %3 = load ptr, ptr %__k.addr, align 8
  call void @_ZNSt5tupleIJRKN4cvc58internal8TypeNodeEEEC2ILb1ETnNSt9enable_ifIXclsr4_TCCIXT_EEE29__is_implicitly_constructibleIS4_EEEbE4typeELb1EEES4_(ptr noundef nonnull align 8 dereferenceable(8) %ref.tmp9, ptr noundef nonnull align 8 dereferenceable(8) %3) #3
  %coerce.dive11 = getelementptr inbounds %"struct.std::_Rb_tree_const_iterator.147", ptr %agg.tmp, i32 0, i32 0
  %4 = load ptr, ptr %coerce.dive11, align 8
  %call12 = call ptr @_ZNSt8_Rb_treeIN4cvc58internal8TypeNodeESt4pairIKS2_iESt10_Select1stIS5_ESt4lessIS2_ESaIS5_EE22_M_emplace_hint_uniqueIJRKSt21piecewise_construct_tSt5tupleIJRS4_EESG_IJEEEEESt17_Rb_tree_iteratorIS5_ESt23_Rb_tree_const_iteratorIS5_EDpOT_(ptr noundef nonnull align 8 dereferenceable(48) %_M_t, ptr %4, ptr noundef nonnull align 1 dereferenceable(1) @_ZSt19piecewise_construct, ptr noundef nonnull align 8 dereferenceable(8) %ref.tmp9, ptr noundef nonnull align 1 dereferenceable(1) %ref.tmp10)
  %coerce.dive13 = getelementptr inbounds %"struct.std::_Rb_tree_iterator.21", ptr %ref.tmp8, i32 0, i32 0
  store ptr %call12, ptr %coerce.dive13, align 8
  call void @llvm.memcpy.p0.p0.i64(ptr align 8 %__i, ptr align 8 %ref.tmp8, i64 8, i1 false)
  br label %if.end

if.end:                                           ; preds = %if.then, %lor.end
  %call14 = call noundef nonnull align 8 dereferenceable(12) ptr @_ZNKSt17_Rb_tree_iteratorISt4pairIKN4cvc58internal8TypeNodeEiEEdeEv(ptr noundef nonnull align 8 dereferenceable(8) %__i) #3
  %second = getelementptr inbounds %"struct.std::pair.22", ptr %call14, i32 0, i32 1
  ret ptr %second
}

; Function Attrs: mustprogress nounwind uwtable
define linkonce_odr hidden noundef ptr @_ZNKSt17_Rb_tree_iteratorISt4pairIKN4cvc58internal8TypeNodeEiEEptEv(ptr noundef nonnull align 8 dereferenceable(8) %this) #4 comdat align 2 {
entry:
  %this.addr = alloca ptr, align 8
  store ptr %this, ptr %this.addr, align 8
  %this1 = load ptr, ptr %this.addr, align 8
  %_M_node = getelementptr inbounds %"struct.std::_Rb_tree_iterator.21", ptr %this1, i32 0, i32 0
  %0 = load ptr, ptr %_M_node, align 8
  %call = call noundef ptr @_ZNSt13_Rb_tree_nodeISt4pairIKN4cvc58internal8TypeNodeEiEE9_M_valptrEv(ptr noundef nonnull align 8 dereferenceable(48) %0)
  ret ptr %call
}

; Function Attrs: mustprogress uwtable
define hidden noundef zeroext i1 @_ZN4cvc58internal4expr12TermCanonize12getTermOrderENS0_12NodeTemplateILb1EEES4_(ptr noundef nonnull align 8 dereferenceable(216) %this, ptr noundef %a, ptr noundef %b) #5 align 2 personality ptr @__gxx_personality_v0 {
entry:
  %retval = alloca i1, align 1
  %this.addr = alloca ptr, align 8
  %a.indirect_addr = alloca ptr, align 8
  %b.indirect_addr = alloca ptr, align 8
  %aop = alloca %"class.cvc5::internal::NodeTemplate", align 8
  %bop = alloca %"class.cvc5::internal::NodeTemplate", align 8
  %exn.slot = alloca ptr, align 8
  %ehselector.slot = alloca i32, align 4
  %ref.tmp = alloca %"class.cvc5::internal::__cvc5_true", align 1
  %tmp = alloca %"class.cvc5::internal::Cvc5ostream", align 8
  %agg.tmp.ensured = alloca %"class.cvc5::internal::Cvc5ostream", align 8
  %ref.tmp23 = alloca %"class.cvc5::internal::Cvc5ostream", align 8
  %ref.tmp34 = alloca %"class.cvc5::internal::__cvc5_true", align 1
  %tmp38 = alloca %"class.cvc5::internal::Cvc5ostream", align 8
  %agg.tmp.ensured41 = alloca %"class.cvc5::internal::Cvc5ostream", align 8
  %ref.tmp42 = alloca %"class.cvc5::internal::Cvc5ostream", align 8
  %i = alloca i64, align 8
  %size = alloca i64, align 8
  %ref.tmp65 = alloca %"class.cvc5::internal::NodeTemplate", align 8
  %ref.tmp67 = alloca %"class.cvc5::internal::NodeTemplate", align 8
  %agg.tmp = alloca %"class.cvc5::internal::NodeTemplate", align 8
  %agg.tmp77 = alloca %"class.cvc5::internal::NodeTemplate", align 8
  %cleanup.dest.slot = alloca i32, align 4
  %agg.tmp94 = alloca %"class.cvc5::internal::NodeTemplate", align 8
  %agg.tmp99 = alloca %"class.cvc5::internal::NodeTemplate", align 8
  store ptr %this, ptr %this.addr, align 8
  store ptr %a, ptr %a.indirect_addr, align 8
  store ptr %b, ptr %b.indirect_addr, align 8
  %this1 = load ptr, ptr %this.addr, align 8
  %call = call noundef i32 @_ZNK4cvc58internal12NodeTemplateILb1EE7getKindEv(ptr noundef nonnull align 8 dereferenceable(8) %a)
  %cmp = icmp eq i32 %call, 8
  br i1 %cmp, label %if.then, label %if.end6

if.then:                                          ; preds = %entry
  %call2 = call noundef i32 @_ZNK4cvc58internal12NodeTemplateILb1EE7getKindEv(ptr noundef nonnull align 8 dereferenceable(8) %b)
  %cmp3 = icmp eq i32 %call2, 8
  br i1 %cmp3, label %if.then4, label %if.end

if.then4:                                         ; preds = %if.then
  %call5 = call noundef zeroext i1 @_ZNK4cvc58internal12NodeTemplateILb1EEltILb1EEEbRKNS1_IXT_EEE(ptr noundef nonnull align 8 dereferenceable(8) %a, ptr noundef nonnull align 8 dereferenceable(8) %b)
  store i1 %call5, ptr %retval, align 1
  br label %return

if.end:                                           ; preds = %if.then
  store i1 true, ptr %retval, align 1
  br label %return

if.end6:                                          ; preds = %entry
  %call7 = call noundef i32 @_ZNK4cvc58internal12NodeTemplateILb1EE7getKindEv(ptr noundef nonnull align 8 dereferenceable(8) %b)
  %cmp8 = icmp ne i32 %call7, 8
  br i1 %cmp8, label %if.then9, label %if.end111

if.then9:                                         ; preds = %if.end6
  %call10 = call noundef zeroext i1 @_ZNK4cvc58internal12NodeTemplateILb1EE11hasOperatorEv(ptr noundef nonnull align 8 dereferenceable(8) %a)
  br i1 %call10, label %cond.true, label %cond.false

cond.true:                                        ; preds = %if.then9
  call void @_ZNK4cvc58internal12NodeTemplateILb1EE11getOperatorEv(ptr sret(%"class.cvc5::internal::NodeTemplate") align 8 %aop, ptr noundef nonnull align 8 dereferenceable(8) %a)
  br label %cond.end

cond.false:                                       ; preds = %if.then9
  call void @_ZN4cvc58internal12NodeTemplateILb1EEC2ERKS2_(ptr noundef nonnull align 8 dereferenceable(8) %aop, ptr noundef nonnull align 8 dereferenceable(8) %a)
  br label %cond.end

cond.end:                                         ; preds = %cond.false, %cond.true
  %call11 = invoke noundef zeroext i1 @_ZNK4cvc58internal12NodeTemplateILb1EE11hasOperatorEv(ptr noundef nonnull align 8 dereferenceable(8) %b)
          to label %invoke.cont unwind label %lpad

invoke.cont:                                      ; preds = %cond.end
  br i1 %call11, label %cond.true12, label %cond.false14

cond.true12:                                      ; preds = %invoke.cont
  invoke void @_ZNK4cvc58internal12NodeTemplateILb1EE11getOperatorEv(ptr sret(%"class.cvc5::internal::NodeTemplate") align 8 %bop, ptr noundef nonnull align 8 dereferenceable(8) %b)
          to label %invoke.cont13 unwind label %lpad

invoke.cont13:                                    ; preds = %cond.true12
  br label %cond.end16

cond.false14:                                     ; preds = %invoke.cont
  invoke void @_ZN4cvc58internal12NodeTemplateILb1EEC2ERKS2_(ptr noundef nonnull align 8 dereferenceable(8) %bop, ptr noundef nonnull align 8 dereferenceable(8) %b)
          to label %invoke.cont15 unwind label %lpad

invoke.cont15:                                    ; preds = %cond.false14
  br label %cond.end16

cond.end16:                                       ; preds = %invoke.cont15, %invoke.cont13
  %call19 = invoke noundef zeroext i1 @_ZN4cvc58internal11__cvc5_truecvbEv(ptr noundef nonnull align 1 dereferenceable(1) %ref.tmp)
          to label %invoke.cont18 unwind label %lpad17

invoke.cont18:                                    ; preds = %cond.end16
  br i1 %call19, label %cond.true20, label %cond.false22

cond.true20:                                      ; preds = %invoke.cont18
  invoke void @_ZNK4cvc58internal5NullCcvNS0_11Cvc5ostreamEEv(ptr sret(%"class.cvc5::internal::Cvc5ostream") align 8 %tmp, ptr noundef nonnull align 1 dereferenceable(1) @_ZN4cvc58internal10nullStreamE)
          to label %invoke.cont21 unwind label %lpad17

invoke.cont21:                                    ; preds = %cond.true20
  br label %cond.end33

cond.false22:                                     ; preds = %invoke.cont18
  invoke void @_ZNK4cvc58internal6TraceCclEv(ptr sret(%"class.cvc5::internal::Cvc5ostream") align 8 %ref.tmp23, ptr noundef nonnull align 8 dereferenceable(32) @_ZN4cvc58internal12TraceChannelE)
          to label %invoke.cont24 unwind label %lpad17

invoke.cont24:                                    ; preds = %cond.false22
  %call26 = invoke noundef nonnull align 8 dereferenceable(24) ptr @_ZN4cvc58internal11Cvc5ostreamlsINS0_12NodeTemplateILb1EEEEERS1_RKT_(ptr noundef nonnull align 8 dereferenceable(24) %ref.tmp23, ptr noundef nonnull align 8 dereferenceable(8) %a)
          to label %invoke.cont25 unwind label %lpad17

invoke.cont25:                                    ; preds = %invoke.cont24
  %call28 = invoke noundef nonnull align 8 dereferenceable(24) ptr @_ZN4cvc58internal11Cvc5ostreamlsIA9_cEERS1_RKT_(ptr noundef nonnull align 8 dereferenceable(24) %call26, ptr noundef nonnull align 1 dereferenceable(9) @.str)
          to label %invoke.cont27 unwind label %lpad17

invoke.cont27:                                    ; preds = %invoke.cont25
  %call30 = invoke noundef nonnull align 8 dereferenceable(24) ptr @_ZN4cvc58internal11Cvc5ostreamlsINS0_12NodeTemplateILb1EEEEERS1_RKT_(ptr noundef nonnull align 8 dereferenceable(24) %call28, ptr noundef nonnull align 8 dereferenceable(8) %aop)
          to label %invoke.cont29 unwind label %lpad17

invoke.cont29:                                    ; preds = %invoke.cont27
  %call32 = invoke noundef nonnull align 8 dereferenceable(24) ptr @_ZN4cvc58internal11Cvc5ostreamlsEPFRSoS2_E(ptr noundef nonnull align 8 dereferenceable(24) %call30, ptr noundef @_ZSt4endlIcSt11char_traitsIcEERSt13basic_ostreamIT_T0_ES6_)
          to label %invoke.cont31 unwind label %lpad17

invoke.cont31:                                    ; preds = %invoke.cont29
  call void @llvm.memcpy.p0.p0.i64(ptr align 8 %agg.tmp.ensured, ptr align 8 %call32, i64 24, i1 false)
  br label %cond.end33

cond.end33:                                       ; preds = %invoke.cont31, %invoke.cont21
  %call36 = invoke noundef zeroext i1 @_ZN4cvc58internal11__cvc5_truecvbEv(ptr noundef nonnull align 1 dereferenceable(1) %ref.tmp34)
          to label %invoke.cont35 unwind label %lpad17

invoke.cont35:                                    ; preds = %cond.end33
  br i1 %call36, label %cond.true37, label %cond.false40

cond.true37:                                      ; preds = %invoke.cont35
  invoke void @_ZNK4cvc58internal5NullCcvNS0_11Cvc5ostreamEEv(ptr sret(%"class.cvc5::internal::Cvc5ostream") align 8 %tmp38, ptr noundef nonnull align 1 dereferenceable(1) @_ZN4cvc58internal10nullStreamE)
          to label %invoke.cont39 unwind label %lpad17

invoke.cont39:                                    ; preds = %cond.true37
  br label %cond.end52

cond.false40:                                     ; preds = %invoke.cont35
  invoke void @_ZNK4cvc58internal6TraceCclEv(ptr sret(%"class.cvc5::internal::Cvc5ostream") align 8 %ref.tmp42, ptr noundef nonnull align 8 dereferenceable(32) @_ZN4cvc58internal12TraceChannelE)
          to label %invoke.cont43 unwind label %lpad17

invoke.cont43:                                    ; preds = %cond.false40
  %call45 = invoke noundef nonnull align 8 dereferenceable(24) ptr @_ZN4cvc58internal11Cvc5ostreamlsINS0_12NodeTemplateILb1EEEEERS1_RKT_(ptr noundef nonnull align 8 dereferenceable(24) %ref.tmp42, ptr noundef nonnull align 8 dereferenceable(8) %b)
          to label %invoke.cont44 unwind label %lpad17

invoke.cont44:                                    ; preds = %invoke.cont43
  %call47 = invoke noundef nonnull align 8 dereferenceable(24) ptr @_ZN4cvc58internal11Cvc5ostreamlsIA9_cEERS1_RKT_(ptr noundef nonnull align 8 dereferenceable(24) %call45, ptr noundef nonnull align 1 dereferenceable(9) @.str)
          to label %invoke.cont46 unwind label %lpad17

invoke.cont46:                                    ; preds = %invoke.cont44
  %call49 = invoke noundef nonnull align 8 dereferenceable(24) ptr @_ZN4cvc58internal11Cvc5ostreamlsINS0_12NodeTemplateILb1EEEEERS1_RKT_(ptr noundef nonnull align 8 dereferenceable(24) %call47, ptr noundef nonnull align 8 dereferenceable(8) %bop)
          to label %invoke.cont48 unwind label %lpad17

invoke.cont48:                                    ; preds = %invoke.cont46
  %call51 = invoke noundef nonnull align 8 dereferenceable(24) ptr @_ZN4cvc58internal11Cvc5ostreamlsEPFRSoS2_E(ptr noundef nonnull align 8 dereferenceable(24) %call49, ptr noundef @_ZSt4endlIcSt11char_traitsIcEERSt13basic_ostreamIT_T0_ES6_)
          to label %invoke.cont50 unwind label %lpad17

invoke.cont50:                                    ; preds = %invoke.cont48
  call void @llvm.memcpy.p0.p0.i64(ptr align 8 %agg.tmp.ensured41, ptr align 8 %call51, i64 24, i1 false)
  br label %cond.end52

cond.end52:                                       ; preds = %invoke.cont50, %invoke.cont39
  %call54 = invoke noundef zeroext i1 @_ZNK4cvc58internal12NodeTemplateILb1EEeqILb1EEEbRKNS1_IXT_EEE(ptr noundef nonnull align 8 dereferenceable(8) %aop, ptr noundef nonnull align 8 dereferenceable(8) %bop)
          to label %invoke.cont53 unwind label %lpad17

invoke.cont53:                                    ; preds = %cond.end52
  br i1 %call54, label %if.then55, label %if.else93

if.then55:                                        ; preds = %invoke.cont53
  %call57 = invoke noundef i64 @_ZNK4cvc58internal12NodeTemplateILb1EE14getNumChildrenEv(ptr noundef nonnull align 8 dereferenceable(8) %a)
          to label %invoke.cont56 unwind label %lpad17

invoke.cont56:                                    ; preds = %if.then55
  %call59 = invoke noundef i64 @_ZNK4cvc58internal12NodeTemplateILb1EE14getNumChildrenEv(ptr noundef nonnull align 8 dereferenceable(8) %b)
          to label %invoke.cont58 unwind label %lpad17

invoke.cont58:                                    ; preds = %invoke.cont56
  %cmp60 = icmp eq i64 %call57, %call59
  br i1 %cmp60, label %if.then61, label %if.else

if.then61:                                        ; preds = %invoke.cont58
  store i64 0, ptr %i, align 8
  %call63 = invoke noundef i64 @_ZNK4cvc58internal12NodeTemplateILb1EE14getNumChildrenEv(ptr noundef nonnull align 8 dereferenceable(8) %a)
          to label %invoke.cont62 unwind label %lpad17

invoke.cont62:                                    ; preds = %if.then61
  store i64 %call63, ptr %size, align 8
  br label %for.cond

for.cond:                                         ; preds = %for.inc, %invoke.cont62
  %0 = load i64, ptr %i, align 8
  %1 = load i64, ptr %size, align 8
  %cmp64 = icmp ult i64 %0, %1
  br i1 %cmp64, label %for.body, label %for.end

for.body:                                         ; preds = %for.cond
  %2 = load i64, ptr %i, align 8
  %conv = trunc i64 %2 to i32
  invoke void @_ZNK4cvc58internal12NodeTemplateILb1EEixEi(ptr sret(%"class.cvc5::internal::NodeTemplate") align 8 %ref.tmp65, ptr noundef nonnull align 8 dereferenceable(8) %a, i32 noundef %conv)
          to label %invoke.cont66 unwind label %lpad17

invoke.cont66:                                    ; preds = %for.body
  %3 = load i64, ptr %i, align 8
  %conv68 = trunc i64 %3 to i32
  invoke void @_ZNK4cvc58internal12NodeTemplateILb1EEixEi(ptr sret(%"class.cvc5::internal::NodeTemplate") align 8 %ref.tmp67, ptr noundef nonnull align 8 dereferenceable(8) %b, i32 noundef %conv68)
          to label %invoke.cont70 unwind label %lpad69

invoke.cont70:                                    ; preds = %invoke.cont66
  %call73 = invoke noundef zeroext i1 @_ZNK4cvc58internal12NodeTemplateILb1EEneILb1EEEbRKNS1_IXT_EEE(ptr noundef nonnull align 8 dereferenceable(8) %ref.tmp65, ptr noundef nonnull align 8 dereferenceable(8) %ref.tmp67)
          to label %invoke.cont72 unwind label %lpad71

invoke.cont72:                                    ; preds = %invoke.cont70
  call void @_ZN4cvc58internal12NodeTemplateILb1EED2Ev(ptr noundef nonnull align 8 dereferenceable(8) %ref.tmp67) #3
  call void @_ZN4cvc58internal12NodeTemplateILb1EED2Ev(ptr noundef nonnull align 8 dereferenceable(8) %ref.tmp65) #3
  br i1 %call73, label %if.then74, label %if.end86

if.then74:                                        ; preds = %invoke.cont72
  %4 = load i64, ptr %i, align 8
  %conv75 = trunc i64 %4 to i32
  invoke void @_ZNK4cvc58internal12NodeTemplateILb1EEixEi(ptr sret(%"class.cvc5::internal::NodeTemplate") align 8 %agg.tmp, ptr noundef nonnull align 8 dereferenceable(8) %a, i32 noundef %conv75)
          to label %invoke.cont76 unwind label %lpad17

invoke.cont76:                                    ; preds = %if.then74
  %5 = load i64, ptr %i, align 8
  %conv78 = trunc i64 %5 to i32
  invoke void @_ZNK4cvc58internal12NodeTemplateILb1EEixEi(ptr sret(%"class.cvc5::internal::NodeTemplate") align 8 %agg.tmp77, ptr noundef nonnull align 8 dereferenceable(8) %b, i32 noundef %conv78)
          to label %invoke.cont80 unwind label %lpad79

invoke.cont80:                                    ; preds = %invoke.cont76
  %call83 = invoke noundef zeroext i1 @_ZN4cvc58internal4expr12TermCanonize12getTermOrderENS0_12NodeTemplateILb1EEES4_(ptr noundef nonnull align 8 dereferenceable(216) %this1, ptr noundef %agg.tmp, ptr noundef %agg.tmp77)
          to label %invoke.cont82 unwind label %lpad81

invoke.cont82:                                    ; preds = %invoke.cont80
  store i1 %call83, ptr %retval, align 1
  call void @_ZN4cvc58internal12NodeTemplateILb1EED2Ev(ptr noundef nonnull align 8 dereferenceable(8) %agg.tmp77) #3
  call void @_ZN4cvc58internal12NodeTemplateILb1EED2Ev(ptr noundef nonnull align 8 dereferenceable(8) %agg.tmp) #3
  store i32 1, ptr %cleanup.dest.slot, align 4
  br label %cleanup

lpad:                                             ; preds = %cond.false14, %cond.true12, %cond.end
  %6 = landingpad { ptr, i32 }
          cleanup
  %7 = extractvalue { ptr, i32 } %6, 0
  store ptr %7, ptr %exn.slot, align 8
  %8 = extractvalue { ptr, i32 } %6, 1
  store i32 %8, ptr %ehselector.slot, align 4
  br label %ehcleanup110

lpad17:                                           ; preds = %if.else93, %invoke.cont87, %if.else, %if.then74, %for.body, %if.then61, %invoke.cont56, %if.then55, %cond.end52, %invoke.cont48, %invoke.cont46, %invoke.cont44, %invoke.cont43, %cond.false40, %cond.true37, %cond.end33, %invoke.cont29, %invoke.cont27, %invoke.cont25, %invoke.cont24, %cond.false22, %cond.true20, %cond.end16
  %9 = landingpad { ptr, i32 }
          cleanup
  %10 = extractvalue { ptr, i32 } %9, 0
  store ptr %10, ptr %exn.slot, align 8
  %11 = extractvalue { ptr, i32 } %9, 1
  store i32 %11, ptr %ehselector.slot, align 4
  br label %ehcleanup108

lpad69:                                           ; preds = %invoke.cont66
  %12 = landingpad { ptr, i32 }
          cleanup
  %13 = extractvalue { ptr, i32 } %12, 0
  store ptr %13, ptr %exn.slot, align 8
  %14 = extractvalue { ptr, i32 } %12, 1
  store i32 %14, ptr %ehselector.slot, align 4
  br label %ehcleanup

lpad71:                                           ; preds = %invoke.cont70
  %15 = landingpad { ptr, i32 }
          cleanup
  %16 = extractvalue { ptr, i32 } %15, 0
  store ptr %16, ptr %exn.slot, align 8
  %17 = extractvalue { ptr, i32 } %15, 1
  store i32 %17, ptr %ehselector.slot, align 4
  call void @_ZN4cvc58internal12NodeTemplateILb1EED2Ev(ptr noundef nonnull align 8 dereferenceable(8) %ref.tmp67) #3
  br label %ehcleanup

ehcleanup:                                        ; preds = %lpad71, %lpad69
  call void @_ZN4cvc58internal12NodeTemplateILb1EED2Ev(ptr noundef nonnull align 8 dereferenceable(8) %ref.tmp65) #3
  br label %ehcleanup108

lpad79:                                           ; preds = %invoke.cont76
  %18 = landingpad { ptr, i32 }
          cleanup
  %19 = extractvalue { ptr, i32 } %18, 0
  store ptr %19, ptr %exn.slot, align 8
  %20 = extractvalue { ptr, i32 } %18, 1
  store i32 %20, ptr %ehselector.slot, align 4
  br label %ehcleanup85

lpad81:                                           ; preds = %invoke.cont80
  %21 = landingpad { ptr, i32 }
          cleanup
  %22 = extractvalue { ptr, i32 } %21, 0
  store ptr %22, ptr %exn.slot, align 8
  %23 = extractvalue { ptr, i32 } %21, 1
  store i32 %23, ptr %ehselector.slot, align 4
  call void @_ZN4cvc58internal12NodeTemplateILb1EED2Ev(ptr noundef nonnull align 8 dereferenceable(8) %agg.tmp77) #3
  br label %ehcleanup85

ehcleanup85:                                      ; preds = %lpad81, %lpad79
  call void @_ZN4cvc58internal12NodeTemplateILb1EED2Ev(ptr noundef nonnull align 8 dereferenceable(8) %agg.tmp) #3
  br label %ehcleanup108

if.end86:                                         ; preds = %invoke.cont72
  br label %for.inc

for.inc:                                          ; preds = %if.end86
  %24 = load i64, ptr %i, align 8
  %inc = add i64 %24, 1
  store i64 %inc, ptr %i, align 8
  br label %for.cond, !llvm.loop !4

for.end:                                          ; preds = %for.cond
  br label %if.end92

if.else:                                          ; preds = %invoke.cont58
  %call88 = invoke noundef i64 @_ZNK4cvc58internal12NodeTemplateILb1EE14getNumChildrenEv(ptr noundef nonnull align 8 dereferenceable(8) %a)
          to label %invoke.cont87 unwind label %lpad17

invoke.cont87:                                    ; preds = %if.else
  %call90 = invoke noundef i64 @_ZNK4cvc58internal12NodeTemplateILb1EE14getNumChildrenEv(ptr noundef nonnull align 8 dereferenceable(8) %b)
          to label %invoke.cont89 unwind label %lpad17

invoke.cont89:                                    ; preds = %invoke.cont87
  %cmp91 = icmp ult i64 %call88, %call90
  store i1 %cmp91, ptr %retval, align 1
  store i32 1, ptr %cleanup.dest.slot, align 4
  br label %cleanup

if.end92:                                         ; preds = %for.end
  br label %if.end107

if.else93:                                        ; preds = %invoke.cont53
  invoke void @_ZN4cvc58internal12NodeTemplateILb1EEC2ERKS2_(ptr noundef nonnull align 8 dereferenceable(8) %agg.tmp94, ptr noundef nonnull align 8 dereferenceable(8) %aop)
          to label %invoke.cont95 unwind label %lpad17

invoke.cont95:                                    ; preds = %if.else93
  %call98 = invoke noundef i32 @_ZN4cvc58internal4expr12TermCanonize16getIdForOperatorENS0_12NodeTemplateILb1EEE(ptr noundef nonnull align 8 dereferenceable(216) %this1, ptr noundef %agg.tmp94)
          to label %invoke.cont97 unwind label %lpad96

invoke.cont97:                                    ; preds = %invoke.cont95
  invoke void @_ZN4cvc58internal12NodeTemplateILb1EEC2ERKS2_(ptr noundef nonnull align 8 dereferenceable(8) %agg.tmp99, ptr noundef nonnull align 8 dereferenceable(8) %bop)
          to label %invoke.cont100 unwind label %lpad96

invoke.cont100:                                   ; preds = %invoke.cont97
  %call103 = invoke noundef i32 @_ZN4cvc58internal4expr12TermCanonize16getIdForOperatorENS0_12NodeTemplateILb1EEE(ptr noundef nonnull align 8 dereferenceable(216) %this1, ptr noundef %agg.tmp99)
          to label %invoke.cont102 unwind label %lpad101

invoke.cont102:                                   ; preds = %invoke.cont100
  %cmp104 = icmp slt i32 %call98, %call103
  store i1 %cmp104, ptr %retval, align 1
  call void @_ZN4cvc58internal12NodeTemplateILb1EED2Ev(ptr noundef nonnull align 8 dereferenceable(8) %agg.tmp99) #3
  call void @_ZN4cvc58internal12NodeTemplateILb1EED2Ev(ptr noundef nonnull align 8 dereferenceable(8) %agg.tmp94) #3
  store i32 1, ptr %cleanup.dest.slot, align 4
  br label %cleanup

lpad96:                                           ; preds = %invoke.cont97, %invoke.cont95
  %25 = landingpad { ptr, i32 }
          cleanup
  %26 = extractvalue { ptr, i32 } %25, 0
  store ptr %26, ptr %exn.slot, align 8
  %27 = extractvalue { ptr, i32 } %25, 1
  store i32 %27, ptr %ehselector.slot, align 4
  br label %ehcleanup106

lpad101:                                          ; preds = %invoke.cont100
  %28 = landingpad { ptr, i32 }
          cleanup
  %29 = extractvalue { ptr, i32 } %28, 0
  store ptr %29, ptr %exn.slot, align 8
  %30 = extractvalue { ptr, i32 } %28, 1
  store i32 %30, ptr %ehselector.slot, align 4
  call void @_ZN4cvc58internal12NodeTemplateILb1EED2Ev(ptr noundef nonnull align 8 dereferenceable(8) %agg.tmp99) #3
  br label %ehcleanup106

ehcleanup106:                                     ; preds = %lpad101, %lpad96
  call void @_ZN4cvc58internal12NodeTemplateILb1EED2Ev(ptr noundef nonnull align 8 dereferenceable(8) %agg.tmp94) #3
  br label %ehcleanup108

if.end107:                                        ; preds = %if.end92
  store i32 0, ptr %cleanup.dest.slot, align 4
  br label %cleanup

cleanup:                                          ; preds = %if.end107, %invoke.cont102, %invoke.cont89, %invoke.cont82
  call void @_ZN4cvc58internal12NodeTemplateILb1EED2Ev(ptr noundef nonnull align 8 dereferenceable(8) %bop) #3
  call void @_ZN4cvc58internal12NodeTemplateILb1EED2Ev(ptr noundef nonnull align 8 dereferenceable(8) %aop) #3
  %cleanup.dest = load i32, ptr %cleanup.dest.slot, align 4
  switch i32 %cleanup.dest, label %unreachable [
    i32 0, label %cleanup.cont
    i32 1, label %return
  ]

cleanup.cont:                                     ; preds = %cleanup
  br label %if.end111

ehcleanup108:                                     ; preds = %ehcleanup106, %ehcleanup85, %ehcleanup, %lpad17
  call void @_ZN4cvc58internal12NodeTemplateILb1EED2Ev(ptr noundef nonnull align 8 dereferenceable(8) %bop) #3
  br label %ehcleanup110

ehcleanup110:                                     ; preds = %ehcleanup108, %lpad
  call void @_ZN4cvc58internal12NodeTemplateILb1EED2Ev(ptr noundef nonnull align 8 dereferenceable(8) %aop) #3
  br label %eh.resume

if.end111:                                        ; preds = %cleanup.cont, %if.end6
  store i1 false, ptr %retval, align 1
  br label %return

return:                                           ; preds = %if.end111, %cleanup, %if.end, %if.then4
  %31 = load i1, ptr %retval, align 1
  ret i1 %31

eh.resume:                                        ; preds = %ehcleanup110
  %exn = load ptr, ptr %exn.slot, align 8
  %sel = load i32, ptr %ehselector.slot, align 4
  %lpad.val = insertvalue { ptr, i32 } poison, ptr %exn, 0
  %lpad.val112 = insertvalue { ptr, i32 } %lpad.val, i32 %sel, 1
  resume { ptr, i32 } %lpad.val112

unreachable:                                      ; preds = %cleanup
  unreachable
}

; Function Attrs: mustprogress uwtable
define linkonce_odr hidden noundef i32 @_ZNK4cvc58internal12NodeTemplateILb1EE7getKindEv(ptr noundef nonnull align 8 dereferenceable(8) %this) #5 comdat align 2 {
entry:
  %this.addr = alloca ptr, align 8
  store ptr %this, ptr %this.addr, align 8
  %this1 = load ptr, ptr %this.addr, align 8
  call void @_ZNK4cvc58internal12NodeTemplateILb1EE21assertTNodeNotExpiredEv(ptr noundef nonnull align 8 dereferenceable(8) %this1)
  %d_nv = getelementptr inbounds %"class.cvc5::internal::NodeTemplate", ptr %this1, i32 0, i32 0
  %0 = load ptr, ptr %d_nv, align 8
  %d_kind = getelementptr inbounds %"class.cvc5::internal::expr::NodeValue", ptr %0, i32 0, i32 1
  %bf.load = load i16, ptr %d_kind, align 8
  %bf.clear = and i16 %bf.load, 1023
  %bf.cast = zext i16 %bf.clear to i32
  ret i32 %bf.cast
}

; Function Attrs: mustprogress nounwind uwtable
define linkonce_odr hidden noundef zeroext i1 @_ZNK4cvc58internal12NodeTemplateILb1EEltILb1EEEbRKNS1_IXT_EEE(ptr noundef nonnull align 8 dereferenceable(8) %this, ptr noundef nonnull align 8 dereferenceable(8) %node) #4 comdat align 2 {
entry:
  %this.addr = alloca ptr, align 8
  %node.addr = alloca ptr, align 8
  store ptr %this, ptr %this.addr, align 8
  store ptr %node, ptr %node.addr, align 8
  %this1 = load ptr, ptr %this.addr, align 8
  call void @_ZNK4cvc58internal12NodeTemplateILb1EE21assertTNodeNotExpiredEv(ptr noundef nonnull align 8 dereferenceable(8) %this1)
  %0 = load ptr, ptr %node.addr, align 8
  call void @_ZNK4cvc58internal12NodeTemplateILb1EE21assertTNodeNotExpiredEv(ptr noundef nonnull align 8 dereferenceable(8) %0)
  %d_nv = getelementptr inbounds %"class.cvc5::internal::NodeTemplate", ptr %this1, i32 0, i32 0
  %1 = load ptr, ptr %d_nv, align 8
  %bf.load = load i64, ptr %1, align 8
  %bf.clear = and i64 %bf.load, 1099511627775
  %2 = load ptr, ptr %node.addr, align 8
  %d_nv2 = getelementptr inbounds %"class.cvc5::internal::NodeTemplate", ptr %2, i32 0, i32 0
  %3 = load ptr, ptr %d_nv2, align 8
  %bf.load3 = load i64, ptr %3, align 8
  %bf.clear4 = and i64 %bf.load3, 1099511627775
  %cmp = icmp ult i64 %bf.clear, %bf.clear4
  ret i1 %cmp
}

; Function Attrs: mustprogress uwtable
define linkonce_odr hidden noundef zeroext i1 @_ZNK4cvc58internal12NodeTemplateILb1EE11hasOperatorEv(ptr noundef nonnull align 8 dereferenceable(8) %this) #5 comdat align 2 {
entry:
  %this.addr = alloca ptr, align 8
  store ptr %this, ptr %this.addr, align 8
  %this1 = load ptr, ptr %this.addr, align 8
  call void @_ZNK4cvc58internal12NodeTemplateILb1EE21assertTNodeNotExpiredEv(ptr noundef nonnull align 8 dereferenceable(8) %this1)
  %call = call noundef i32 @_ZNK4cvc58internal12NodeTemplateILb1EE7getKindEv(ptr noundef nonnull align 8 dereferenceable(8) %this1)
  %call2 = call noundef zeroext i1 @_ZN4cvc58internal11NodeManager11hasOperatorENS0_4kind6Kind_tE(i32 noundef %call)
  ret i1 %call2
}

; Function Attrs: mustprogress uwtable
define linkonce_odr hidden void @_ZNK4cvc58internal12NodeTemplateILb1EE11getOperatorEv(ptr noalias sret(%"class.cvc5::internal::NodeTemplate") align 8 %agg.result, ptr noundef nonnull align 8 dereferenceable(8) %this) #5 comdat align 2 personality ptr @__gxx_personality_v0 {
entry:
  %result.ptr = alloca ptr, align 8
  %this.addr = alloca ptr, align 8
  %mk = alloca i32, align 4
  %ref.tmp = alloca %"class.cvc5::internal::NodeTemplate.107", align 8
  %exn.slot = alloca ptr, align 8
  %ehselector.slot = alloca i32, align 4
  store ptr %agg.result, ptr %result.ptr, align 8
  store ptr %this, ptr %this.addr, align 8
  %this1 = load ptr, ptr %this.addr, align 8
  call void @_ZNK4cvc58internal12NodeTemplateILb1EE21assertTNodeNotExpiredEv(ptr noundef nonnull align 8 dereferenceable(8) %this1)
  %call = call noundef i32 @_ZNK4cvc58internal12NodeTemplateILb1EE11getMetaKindEv(ptr noundef nonnull align 8 dereferenceable(8) %this1)
  store i32 %call, ptr %mk, align 4
  %0 = load i32, ptr %mk, align 4
  %cmp = icmp eq i32 %0, 1
  br i1 %cmp, label %if.then, label %if.end

if.then:                                          ; preds = %entry
  %call2 = call noundef ptr @_ZN4cvc58internal11NodeManager9currentNMEv()
  %call3 = call noundef i32 @_ZNK4cvc58internal12NodeTemplateILb1EE7getKindEv(ptr noundef nonnull align 8 dereferenceable(8) %this1)
  call void @_ZN4cvc58internal11NodeManager10operatorOfENS0_4kind6Kind_tE(ptr sret(%"class.cvc5::internal::NodeTemplate.107") align 8 %ref.tmp, ptr noundef nonnull align 8 dereferenceable(3360) %call2, i32 noundef %call3)
  invoke void @_ZN4cvc58internal12NodeTemplateILb1EEC2ERKNS1_ILb0EEE(ptr noundef nonnull align 8 dereferenceable(8) %agg.result, ptr noundef nonnull align 8 dereferenceable(8) %ref.tmp)
          to label %invoke.cont unwind label %lpad

invoke.cont:                                      ; preds = %if.then
  call void @_ZN4cvc58internal12NodeTemplateILb0EED2Ev(ptr noundef nonnull align 8 dereferenceable(8) %ref.tmp) #3
  br label %return

lpad:                                             ; preds = %if.then
  %1 = landingpad { ptr, i32 }
          cleanup
  %2 = extractvalue { ptr, i32 } %1, 0
  store ptr %2, ptr %exn.slot, align 8
  %3 = extractvalue { ptr, i32 } %1, 1
  store i32 %3, ptr %ehselector.slot, align 4
  call void @_ZN4cvc58internal12NodeTemplateILb0EED2Ev(ptr noundef nonnull align 8 dereferenceable(8) %ref.tmp) #3
  br label %eh.resume

if.end:                                           ; preds = %entry
  %d_nv = getelementptr inbounds %"class.cvc5::internal::NodeTemplate", ptr %this1, i32 0, i32 0
  %4 = load ptr, ptr %d_nv, align 8
  %d_children = getelementptr inbounds %"class.cvc5::internal::expr::NodeValue", ptr %4, i32 0, i32 3
  %arrayidx = getelementptr inbounds [0 x ptr], ptr %d_children, i64 0, i64 0
  %5 = load ptr, ptr %arrayidx, align 8
  call void @_ZN4cvc58internal12NodeTemplateILb1EEC2EPKNS0_4expr9NodeValueE(ptr noundef nonnull align 8 dereferenceable(8) %agg.result, ptr noundef %5)
  br label %return

return:                                           ; preds = %if.end, %invoke.cont
  ret void

eh.resume:                                        ; preds = %lpad
  %exn = load ptr, ptr %exn.slot, align 8
  %sel = load i32, ptr %ehselector.slot, align 4
  %lpad.val = insertvalue { ptr, i32 } poison, ptr %exn, 0
  %lpad.val4 = insertvalue { ptr, i32 } %lpad.val, i32 %sel, 1
  resume { ptr, i32 } %lpad.val4
}

; Function Attrs: mustprogress uwtable
define linkonce_odr hidden void @_ZN4cvc58internal12NodeTemplateILb1EEC2ERKS2_(ptr noundef nonnull align 8 dereferenceable(8) %this, ptr noundef nonnull align 8 dereferenceable(8) %e) unnamed_addr #5 comdat align 2 {
entry:
  %this.addr = alloca ptr, align 8
  %e.addr = alloca ptr, align 8
  store ptr %this, ptr %this.addr, align 8
  store ptr %e, ptr %e.addr, align 8
  %this1 = load ptr, ptr %this.addr, align 8
  %0 = load ptr, ptr %e.addr, align 8
  %d_nv = getelementptr inbounds %"class.cvc5::internal::NodeTemplate", ptr %0, i32 0, i32 0
  %1 = load ptr, ptr %d_nv, align 8
  %d_nv2 = getelementptr inbounds %"class.cvc5::internal::NodeTemplate", ptr %this1, i32 0, i32 0
  store ptr %1, ptr %d_nv2, align 8
  %d_nv3 = getelementptr inbounds %"class.cvc5::internal::NodeTemplate", ptr %this1, i32 0, i32 0
  %2 = load ptr, ptr %d_nv3, align 8
  call void @_ZN4cvc58internal4expr9NodeValue3incEv(ptr noundef nonnull align 8 dereferenceable(16) %2)
  ret void
}

declare i32 @__gxx_personality_v0(...)

; Function Attrs: mustprogress nounwind uwtable
define linkonce_odr hidden noundef zeroext i1 @_ZN4cvc58internal11__cvc5_truecvbEv(ptr noundef nonnull align 1 dereferenceable(1) %this) #4 comdat align 2 {
entry:
  %this.addr = alloca ptr, align 8
  store ptr %this, ptr %this.addr, align 8
  ret i1 true
}

; Function Attrs: mustprogress uwtable
define linkonce_odr hidden void @_ZNK4cvc58internal5NullCcvNS0_11Cvc5ostreamEEv(ptr noalias sret(%"class.cvc5::internal::Cvc5ostream") align 8 %agg.result, ptr noundef nonnull align 1 dereferenceable(1) %this) #5 comdat align 2 {
entry:
  %this.addr = alloca ptr, align 8
  store ptr %this, ptr %this.addr, align 8
  call void @_ZN4cvc58internal11Cvc5ostreamC2Ev(ptr noundef nonnull align 8 dereferenceable(24) %agg.result)
  ret void
}

; Function Attrs: mustprogress uwtable
define linkonce_odr hidden void @_ZNK4cvc58internal6TraceCclEv(ptr noalias sret(%"class.cvc5::internal::Cvc5ostream") align 8 %agg.result, ptr noundef nonnull align 8 dereferenceable(32) %this) #5 comdat align 2 {
entry:
  %this.addr = alloca ptr, align 8
  store ptr %this, ptr %this.addr, align 8
  %this1 = load ptr, ptr %this.addr, align 8
  %d_os = getelementptr inbounds %"class.cvc5::internal::TraceC", ptr %this1, i32 0, i32 0
  %0 = load ptr, ptr %d_os, align 8
  call void @_ZN4cvc58internal11Cvc5ostreamC2EPSo(ptr noundef nonnull align 8 dereferenceable(24) %agg.result, ptr noundef %0)
  ret void
}

; Function Attrs: mustprogress uwtable
define linkonce_odr hidden noundef nonnull align 8 dereferenceable(24) ptr @_ZN4cvc58internal11Cvc5ostreamlsINS0_12NodeTemplateILb1EEEEERS1_RKT_(ptr noundef nonnull align 8 dereferenceable(24) %this, ptr noundef nonnull align 8 dereferenceable(8) %t) #5 comdat align 2 personality ptr @__gxx_personality_v0 {
entry:
  %this.addr = alloca ptr, align 8
  %t.addr = alloca ptr, align 8
  %indent = alloca i64, align 8
  %i = alloca i64, align 8
  %agg.tmp = alloca %"class.cvc5::internal::NodeTemplate.107", align 8
  %exn.slot = alloca ptr, align 8
  %ehselector.slot = alloca i32, align 4
  store ptr %this, ptr %this.addr, align 8
  store ptr %t, ptr %t.addr, align 8
  %this1 = load ptr, ptr %this.addr, align 8
  %d_os = getelementptr inbounds %"class.cvc5::internal::Cvc5ostream", ptr %this1, i32 0, i32 0
  %0 = load ptr, ptr %d_os, align 8
  %cmp = icmp ne ptr %0, null
  br i1 %cmp, label %if.then, label %if.end11

if.then:                                          ; preds = %entry
  %d_firstColumn = getelementptr inbounds %"class.cvc5::internal::Cvc5ostream", ptr %this1, i32 0, i32 1
  %1 = load i8, ptr %d_firstColumn, align 8
  %tobool = trunc i8 %1 to i1
  br i1 %tobool, label %if.then2, label %if.end

if.then2:                                         ; preds = %if.then
  %d_firstColumn3 = getelementptr inbounds %"class.cvc5::internal::Cvc5ostream", ptr %this1, i32 0, i32 1
  store i8 0, ptr %d_firstColumn3, align 8
  %d_os4 = getelementptr inbounds %"class.cvc5::internal::Cvc5ostream", ptr %this1, i32 0, i32 0
  %2 = load ptr, ptr %d_os4, align 8
  %vtable = load ptr, ptr %2, align 8
  %vbase.offset.ptr = getelementptr i8, ptr %vtable, i64 -24
  %vbase.offset = load i64, ptr %vbase.offset.ptr, align 8
  %add.ptr = getelementptr inbounds i8, ptr %2, i64 %vbase.offset
  %3 = load i32, ptr @_ZN4cvc58internal11Cvc5ostream16s_indentIosIndexE, align 4
  %call = call noundef nonnull align 8 dereferenceable(8) ptr @_ZNSt8ios_base5iwordEi(ptr noundef nonnull align 8 dereferenceable(216) %add.ptr, i32 noundef %3)
  %4 = load i64, ptr %call, align 8
  store i64 %4, ptr %indent, align 8
  store i64 0, ptr %i, align 8
  br label %for.cond

for.cond:                                         ; preds = %for.inc, %if.then2
  %5 = load i64, ptr %i, align 8
  %6 = load i64, ptr %indent, align 8
  %cmp5 = icmp slt i64 %5, %6
  br i1 %cmp5, label %for.body, label %for.end

for.body:                                         ; preds = %for.cond
  %d_os6 = getelementptr inbounds %"class.cvc5::internal::Cvc5ostream", ptr %this1, i32 0, i32 0
  %7 = load ptr, ptr %d_os6, align 8
  %call7 = call noundef nonnull align 8 dereferenceable(8) ptr @_ZStlsIcSt11char_traitsIcESaIcEERSt13basic_ostreamIT_T0_ES7_RKNSt7__cxx1112basic_stringIS4_S5_T1_EE(ptr noundef nonnull align 8 dereferenceable(8) %7, ptr noundef nonnull align 8 dereferenceable(32) @_ZN4cvc58internal11Cvc5ostream5s_tabB5cxx11E)
  %d_os8 = getelementptr inbounds %"class.cvc5::internal::Cvc5ostream", ptr %this1, i32 0, i32 0
  store ptr %call7, ptr %d_os8, align 8
  br label %for.inc

for.inc:                                          ; preds = %for.body
  %8 = load i64, ptr %i, align 8
  %inc = add nsw i64 %8, 1
  store i64 %inc, ptr %i, align 8
  br label %for.cond, !llvm.loop !6

for.end:                                          ; preds = %for.cond
  br label %if.end

if.end:                                           ; preds = %for.end, %if.then
  %d_os9 = getelementptr inbounds %"class.cvc5::internal::Cvc5ostream", ptr %this1, i32 0, i32 0
  %9 = load ptr, ptr %d_os9, align 8
  %10 = load ptr, ptr %t.addr, align 8
  call void @_ZN4cvc58internal12NodeTemplateILb0EEC2ERKNS1_ILb1EEE(ptr noundef nonnull align 8 dereferenceable(8) %agg.tmp, ptr noundef nonnull align 8 dereferenceable(8) %10)
  %call10 = invoke noundef nonnull align 8 dereferenceable(8) ptr @_ZN4cvc58internallsERSoNS0_12NodeTemplateILb0EEE(ptr noundef nonnull align 8 dereferenceable(8) %9, ptr noundef %agg.tmp)
          to label %invoke.cont unwind label %lpad

invoke.cont:                                      ; preds = %if.end
  call void @_ZN4cvc58internal12NodeTemplateILb0EED2Ev(ptr noundef nonnull align 8 dereferenceable(8) %agg.tmp) #3
  br label %if.end11

lpad:                                             ; preds = %if.end
  %11 = landingpad { ptr, i32 }
          cleanup
  %12 = extractvalue { ptr, i32 } %11, 0
  store ptr %12, ptr %exn.slot, align 8
  %13 = extractvalue { ptr, i32 } %11, 1
  store i32 %13, ptr %ehselector.slot, align 4
  call void @_ZN4cvc58internal12NodeTemplateILb0EED2Ev(ptr noundef nonnull align 8 dereferenceable(8) %agg.tmp) #3
  br label %eh.resume

if.end11:                                         ; preds = %invoke.cont, %entry
  ret ptr %this1

eh.resume:                                        ; preds = %lpad
  %exn = load ptr, ptr %exn.slot, align 8
  %sel = load i32, ptr %ehselector.slot, align 4
  %lpad.val = insertvalue { ptr, i32 } poison, ptr %exn, 0
  %lpad.val12 = insertvalue { ptr, i32 } %lpad.val, i32 %sel, 1
  resume { ptr, i32 } %lpad.val12
}

; Function Attrs: mustprogress uwtable
define linkonce_odr hidden noundef nonnull align 8 dereferenceable(24) ptr @_ZN4cvc58internal11Cvc5ostreamlsIA9_cEERS1_RKT_(ptr noundef nonnull align 8 dereferenceable(24) %this, ptr noundef nonnull align 1 dereferenceable(9) %t) #5 comdat align 2 {
entry:
  %this.addr = alloca ptr, align 8
  %t.addr = alloca ptr, align 8
  %indent = alloca i64, align 8
  %i = alloca i64, align 8
  store ptr %this, ptr %this.addr, align 8
  store ptr %t, ptr %t.addr, align 8
  %this1 = load ptr, ptr %this.addr, align 8
  %d_os = getelementptr inbounds %"class.cvc5::internal::Cvc5ostream", ptr %this1, i32 0, i32 0
  %0 = load ptr, ptr %d_os, align 8
  %cmp = icmp ne ptr %0, null
  br i1 %cmp, label %if.then, label %if.end11

if.then:                                          ; preds = %entry
  %d_firstColumn = getelementptr inbounds %"class.cvc5::internal::Cvc5ostream", ptr %this1, i32 0, i32 1
  %1 = load i8, ptr %d_firstColumn, align 8
  %tobool = trunc i8 %1 to i1
  br i1 %tobool, label %if.then2, label %if.end

if.then2:                                         ; preds = %if.then
  %d_firstColumn3 = getelementptr inbounds %"class.cvc5::internal::Cvc5ostream", ptr %this1, i32 0, i32 1
  store i8 0, ptr %d_firstColumn3, align 8
  %d_os4 = getelementptr inbounds %"class.cvc5::internal::Cvc5ostream", ptr %this1, i32 0, i32 0
  %2 = load ptr, ptr %d_os4, align 8
  %vtable = load ptr, ptr %2, align 8
  %vbase.offset.ptr = getelementptr i8, ptr %vtable, i64 -24
  %vbase.offset = load i64, ptr %vbase.offset.ptr, align 8
  %add.ptr = getelementptr inbounds i8, ptr %2, i64 %vbase.offset
  %3 = load i32, ptr @_ZN4cvc58internal11Cvc5ostream16s_indentIosIndexE, align 4
  %call = call noundef nonnull align 8 dereferenceable(8) ptr @_ZNSt8ios_base5iwordEi(ptr noundef nonnull align 8 dereferenceable(216) %add.ptr, i32 noundef %3)
  %4 = load i64, ptr %call, align 8
  store i64 %4, ptr %indent, align 8
  store i64 0, ptr %i, align 8
  br label %for.cond

for.cond:                                         ; preds = %for.inc, %if.then2
  %5 = load i64, ptr %i, align 8
  %6 = load i64, ptr %indent, align 8
  %cmp5 = icmp slt i64 %5, %6
  br i1 %cmp5, label %for.body, label %for.end

for.body:                                         ; preds = %for.cond
  %d_os6 = getelementptr inbounds %"class.cvc5::internal::Cvc5ostream", ptr %this1, i32 0, i32 0
  %7 = load ptr, ptr %d_os6, align 8
  %call7 = call noundef nonnull align 8 dereferenceable(8) ptr @_ZStlsIcSt11char_traitsIcESaIcEERSt13basic_ostreamIT_T0_ES7_RKNSt7__cxx1112basic_stringIS4_S5_T1_EE(ptr noundef nonnull align 8 dereferenceable(8) %7, ptr noundef nonnull align 8 dereferenceable(32) @_ZN4cvc58internal11Cvc5ostream5s_tabB5cxx11E)
  %d_os8 = getelementptr inbounds %"class.cvc5::internal::Cvc5ostream", ptr %this1, i32 0, i32 0
  store ptr %call7, ptr %d_os8, align 8
  br label %for.inc

for.inc:                                          ; preds = %for.body
  %8 = load i64, ptr %i, align 8
  %inc = add nsw i64 %8, 1
  store i64 %inc, ptr %i, align 8
  br label %for.cond, !llvm.loop !7

for.end:                                          ; preds = %for.cond
  br label %if.end

if.end:                                           ; preds = %for.end, %if.then
  %d_os9 = getelementptr inbounds %"class.cvc5::internal::Cvc5ostream", ptr %this1, i32 0, i32 0
  %9 = load ptr, ptr %d_os9, align 8
  %10 = load ptr, ptr %t.addr, align 8
  %arraydecay = getelementptr inbounds [9 x i8], ptr %10, i64 0, i64 0
  %call10 = call noundef nonnull align 8 dereferenceable(8) ptr @_ZStlsISt11char_traitsIcEERSt13basic_ostreamIcT_ES5_PKc(ptr noundef nonnull align 8 dereferenceable(8) %9, ptr noundef %arraydecay)
  br label %if.end11

if.end11:                                         ; preds = %if.end, %entry
  ret ptr %this1
}

; Function Attrs: mustprogress uwtable
define linkonce_odr hidden noundef nonnull align 8 dereferenceable(24) ptr @_ZN4cvc58internal11Cvc5ostreamlsEPFRSoS2_E(ptr noundef nonnull align 8 dereferenceable(24) %this, ptr noundef %pf) #5 comdat align 2 {
entry:
  %this.addr = alloca ptr, align 8
  %pf.addr = alloca ptr, align 8
  store ptr %this, ptr %this.addr, align 8
  store ptr %pf, ptr %pf.addr, align 8
  %this1 = load ptr, ptr %this.addr, align 8
  %d_os = getelementptr inbounds %"class.cvc5::internal::Cvc5ostream", ptr %this1, i32 0, i32 0
  %0 = load ptr, ptr %d_os, align 8
  %cmp = icmp ne ptr %0, null
  br i1 %cmp, label %if.then, label %if.end6

if.then:                                          ; preds = %entry
  %d_os2 = getelementptr inbounds %"class.cvc5::internal::Cvc5ostream", ptr %this1, i32 0, i32 0
  %1 = load ptr, ptr %d_os2, align 8
  %2 = load ptr, ptr %pf.addr, align 8
  %call = call noundef nonnull align 8 dereferenceable(8) ptr @_ZNSolsEPFRSoS_E(ptr noundef nonnull align 8 dereferenceable(8) %1, ptr noundef %2)
  %d_os3 = getelementptr inbounds %"class.cvc5::internal::Cvc5ostream", ptr %this1, i32 0, i32 0
  store ptr %call, ptr %d_os3, align 8
  %3 = load ptr, ptr %pf.addr, align 8
  %d_endl = getelementptr inbounds %"class.cvc5::internal::Cvc5ostream", ptr %this1, i32 0, i32 2
  %4 = load ptr, ptr %d_endl, align 8
  %cmp4 = icmp eq ptr %3, %4
  br i1 %cmp4, label %if.then5, label %if.end

if.then5:                                         ; preds = %if.then
  %d_firstColumn = getelementptr inbounds %"class.cvc5::internal::Cvc5ostream", ptr %this1, i32 0, i32 1
  store i8 1, ptr %d_firstColumn, align 8
  br label %if.end

if.end:                                           ; preds = %if.then5, %if.then
  br label %if.end6

if.end6:                                          ; preds = %if.end, %entry
  ret ptr %this1
}

declare noundef nonnull align 8 dereferenceable(8) ptr @_ZSt4endlIcSt11char_traitsIcEERSt13basic_ostreamIT_T0_ES6_(ptr noundef nonnull align 8 dereferenceable(8)) #1

; Function Attrs: nocallback nofree nounwind willreturn memory(argmem: readwrite)
declare void @llvm.memcpy.p0.p0.i64(ptr noalias nocapture writeonly, ptr noalias nocapture readonly, i64, i1 immarg) #6

; Function Attrs: mustprogress nounwind uwtable
define linkonce_odr hidden noundef zeroext i1 @_ZNK4cvc58internal12NodeTemplateILb1EEeqILb1EEEbRKNS1_IXT_EEE(ptr noundef nonnull align 8 dereferenceable(8) %this, ptr noundef nonnull align 8 dereferenceable(8) %node) #4 comdat align 2 {
entry:
  %this.addr = alloca ptr, align 8
  %node.addr = alloca ptr, align 8
  store ptr %this, ptr %this.addr, align 8
  store ptr %node, ptr %node.addr, align 8
  %this1 = load ptr, ptr %this.addr, align 8
  call void @_ZNK4cvc58internal12NodeTemplateILb1EE21assertTNodeNotExpiredEv(ptr noundef nonnull align 8 dereferenceable(8) %this1)
  %0 = load ptr, ptr %node.addr, align 8
  call void @_ZNK4cvc58internal12NodeTemplateILb1EE21assertTNodeNotExpiredEv(ptr noundef nonnull align 8 dereferenceable(8) %0)
  %d_nv = getelementptr inbounds %"class.cvc5::internal::NodeTemplate", ptr %this1, i32 0, i32 0
  %1 = load ptr, ptr %d_nv, align 8
  %2 = load ptr, ptr %node.addr, align 8
  %d_nv2 = getelementptr inbounds %"class.cvc5::internal::NodeTemplate", ptr %2, i32 0, i32 0
  %3 = load ptr, ptr %d_nv2, align 8
  %cmp = icmp eq ptr %1, %3
  ret i1 %cmp
}

; Function Attrs: mustprogress uwtable
define linkonce_odr hidden noundef i64 @_ZNK4cvc58internal12NodeTemplateILb1EE14getNumChildrenEv(ptr noundef nonnull align 8 dereferenceable(8) %this) #5 comdat align 2 {
entry:
  %this.addr = alloca ptr, align 8
  store ptr %this, ptr %this.addr, align 8
  %this1 = load ptr, ptr %this.addr, align 8
  call void @_ZNK4cvc58internal12NodeTemplateILb1EE21assertTNodeNotExpiredEv(ptr noundef nonnull align 8 dereferenceable(8) %this1)
  %d_nv = getelementptr inbounds %"class.cvc5::internal::NodeTemplate", ptr %this1, i32 0, i32 0
  %0 = load ptr, ptr %d_nv, align 8
  %call = call noundef i32 @_ZNK4cvc58internal4expr9NodeValue14getNumChildrenEv(ptr noundef nonnull align 8 dereferenceable(16) %0)
  %conv = zext i32 %call to i64
  ret i64 %conv
}

; Function Attrs: mustprogress uwtable
define linkonce_odr hidden void @_ZNK4cvc58internal12NodeTemplateILb1EEixEi(ptr noalias sret(%"class.cvc5::internal::NodeTemplate") align 8 %agg.result, ptr noundef nonnull align 8 dereferenceable(8) %this, i32 noundef %i) #5 comdat align 2 {
entry:
  %result.ptr = alloca ptr, align 8
  %this.addr = alloca ptr, align 8
  %i.addr = alloca i32, align 4
  store ptr %agg.result, ptr %result.ptr, align 8
  store ptr %this, ptr %this.addr, align 8
  store i32 %i, ptr %i.addr, align 4
  %this1 = load ptr, ptr %this.addr, align 8
  call void @_ZNK4cvc58internal12NodeTemplateILb1EE21assertTNodeNotExpiredEv(ptr noundef nonnull align 8 dereferenceable(8) %this1)
  %d_nv = getelementptr inbounds %"class.cvc5::internal::NodeTemplate", ptr %this1, i32 0, i32 0
  %0 = load ptr, ptr %d_nv, align 8
  %1 = load i32, ptr %i.addr, align 4
  %call = call noundef ptr @_ZNK4cvc58internal4expr9NodeValue8getChildEi(ptr noundef nonnull align 8 dereferenceable(16) %0, i32 noundef %1)
  call void @_ZN4cvc58internal12NodeTemplateILb1EEC2EPKNS0_4expr9NodeValueE(ptr noundef nonnull align 8 dereferenceable(8) %agg.result, ptr noundef %call)
  ret void
}

; Function Attrs: mustprogress nounwind uwtable
define linkonce_odr hidden noundef zeroext i1 @_ZNK4cvc58internal12NodeTemplateILb1EEneILb1EEEbRKNS1_IXT_EEE(ptr noundef nonnull align 8 dereferenceable(8) %this, ptr noundef nonnull align 8 dereferenceable(8) %node) #4 comdat align 2 {
entry:
  %this.addr = alloca ptr, align 8
  %node.addr = alloca ptr, align 8
  store ptr %this, ptr %this.addr, align 8
  store ptr %node, ptr %node.addr, align 8
  %this1 = load ptr, ptr %this.addr, align 8
  call void @_ZNK4cvc58internal12NodeTemplateILb1EE21assertTNodeNotExpiredEv(ptr noundef nonnull align 8 dereferenceable(8) %this1)
  %0 = load ptr, ptr %node.addr, align 8
  call void @_ZNK4cvc58internal12NodeTemplateILb1EE21assertTNodeNotExpiredEv(ptr noundef nonnull align 8 dereferenceable(8) %0)
  %d_nv = getelementptr inbounds %"class.cvc5::internal::NodeTemplate", ptr %this1, i32 0, i32 0
  %1 = load ptr, ptr %d_nv, align 8
  %2 = load ptr, ptr %node.addr, align 8
  %d_nv2 = getelementptr inbounds %"class.cvc5::internal::NodeTemplate", ptr %2, i32 0, i32 0
  %3 = load ptr, ptr %d_nv2, align 8
  %cmp = icmp ne ptr %1, %3
  ret i1 %cmp
}

; Function Attrs: mustprogress nounwind uwtable
define linkonce_odr hidden void @_ZN4cvc58internal12NodeTemplateILb1EED2Ev(ptr noundef nonnull align 8 dereferenceable(8) %this) unnamed_addr #4 comdat align 2 personality ptr @__gxx_personality_v0 {
entry:
  %this.addr = alloca ptr, align 8
  store ptr %this, ptr %this.addr, align 8
  %this1 = load ptr, ptr %this.addr, align 8
  %d_nv = getelementptr inbounds %"class.cvc5::internal::NodeTemplate", ptr %this1, i32 0, i32 0
  %0 = load ptr, ptr %d_nv, align 8
  invoke void @_ZN4cvc58internal4expr9NodeValue3decEv(ptr noundef nonnull align 8 dereferenceable(16) %0)
          to label %invoke.cont unwind label %terminate.lpad

invoke.cont:                                      ; preds = %entry
  ret void

terminate.lpad:                                   ; preds = %entry
  %1 = landingpad { ptr, i32 }
          catch ptr null
  %2 = extractvalue { ptr, i32 } %1, 0
  call void @__clang_call_terminate(ptr %2) #15
  unreachable
}

; Function Attrs: mustprogress uwtable
define hidden void @_ZN4cvc58internal4expr12TermCanonize19getCanonicalFreeVarENS0_8TypeNodeEmj(ptr noalias sret(%"class.cvc5::internal::NodeTemplate") align 8 %agg.result, ptr noundef nonnull align 8 dereferenceable(216) %this, ptr noundef %tn, i64 noundef %i, i32 noundef %tc) #5 align 2 personality ptr @__gxx_personality_v0 {
entry:
  %result.ptr = alloca ptr, align 8
  %this.addr = alloca ptr, align 8
  %tn.indirect_addr = alloca ptr, align 8
  %i.addr = alloca i64, align 8
  %tc.addr = alloca i32, align 4
  %nm = alloca ptr, align 8
  %key = alloca %"struct.std::pair.28", align 8
  %tvars = alloca ptr, align 8
  %exn.slot = alloca ptr, align 8
  %ehselector.slot = alloca i32, align 4
  %os = alloca %"class.std::__cxx11::basic_stringstream", align 8
  %oss = alloca %"class.std::__cxx11::basic_stringstream", align 8
  %typ_name = alloca %"class.std::__cxx11::basic_string", align 8
  %agg.tmp = alloca %"class.__gnu_cxx::__normal_iterator.39", align 8
  %ref.tmp = alloca %"class.__gnu_cxx::__normal_iterator", align 8
  %coerce = alloca %"class.__gnu_cxx::__normal_iterator", align 8
  %x = alloca %"class.cvc5::internal::NodeTemplate", align 8
  %ref.tmp36 = alloca %"class.std::__cxx11::basic_string", align 8
  %ref.tmp37 = alloca %"class.std::__cxx11::basic_string", align 8
  %ref.tmp40 = alloca %"class.std::allocator.36", align 1
  store ptr %agg.result, ptr %result.ptr, align 8
  store ptr %this, ptr %this.addr, align 8
  store ptr %tn, ptr %tn.indirect_addr, align 8
  store i64 %i, ptr %i.addr, align 8
  store i32 %tc, ptr %tc.addr, align 4
  %this1 = load ptr, ptr %this.addr, align 8
  %call = call noundef ptr @_ZN4cvc58internal11NodeManager9currentNMEv()
  store ptr %call, ptr %nm, align 8
  call void @_ZNSt4pairIN4cvc58internal8TypeNodeEjEC2IRS2_RjTnNSt9enable_ifIXaaclsr5_PCCPE22_MoveConstructiblePairIT_T0_EEclsr5_PCCPE30_ImplicitlyMoveConvertiblePairIS8_S9_EEEbE4typeELb1EEEOS8_OS9_(ptr noundef nonnull align 8 dereferenceable(12) %key, ptr noundef nonnull align 8 dereferenceable(8) %tn, ptr noundef nonnull align 4 dereferenceable(4) %tc.addr)
  %d_cn_free_var = getelementptr inbounds %"class.cvc5::internal::expr::TermCanonize", ptr %this1, i32 0, i32 5
  %call2 = invoke noundef nonnull align 8 dereferenceable(24) ptr @_ZNSt3mapISt4pairIN4cvc58internal8TypeNodeEjESt6vectorINS2_12NodeTemplateILb1EEESaIS7_EESt4lessIS4_ESaIS0_IKS4_S9_EEEixERSC_(ptr noundef nonnull align 8 dereferenceable(48) %d_cn_free_var, ptr noundef nonnull align 8 dereferenceable(12) %key)
          to label %invoke.cont unwind label %lpad

invoke.cont:                                      ; preds = %entry
  store ptr %call2, ptr %tvars, align 8
  br label %while.cond

while.cond:                                       ; preds = %invoke.cont52, %invoke.cont
  %0 = load ptr, ptr %tvars, align 8
  %call3 = call noundef i64 @_ZNKSt6vectorIN4cvc58internal12NodeTemplateILb1EEESaIS3_EE4sizeEv(ptr noundef nonnull align 8 dereferenceable(24) %0) #3
  %1 = load i64, ptr %i.addr, align 8
  %cmp = icmp ule i64 %call3, %1
  br i1 %cmp, label %while.body, label %while.end55

while.body:                                       ; preds = %while.cond
  invoke void @_ZNSt7__cxx1118basic_stringstreamIcSt11char_traitsIcESaIcEEC1Ev(ptr noundef nonnull align 8 dereferenceable(128) %os)
          to label %invoke.cont4 unwind label %lpad

invoke.cont4:                                     ; preds = %while.body
  %call7 = invoke noundef zeroext i1 @_ZNK4cvc58internal8TypeNode10isFunctionEv(ptr noundef nonnull align 8 dereferenceable(8) %tn)
          to label %invoke.cont6 unwind label %lpad5

invoke.cont6:                                     ; preds = %invoke.cont4
  br i1 %call7, label %if.then, label %if.else

if.then:                                          ; preds = %invoke.cont6
  %add.ptr = getelementptr inbounds i8, ptr %os, i64 16
  %call9 = invoke noundef nonnull align 8 dereferenceable(8) ptr @_ZStlsISt11char_traitsIcEERSt13basic_ostreamIcT_ES5_PKc(ptr noundef nonnull align 8 dereferenceable(8) %add.ptr, ptr noundef @.str.1)
          to label %invoke.cont8 unwind label %lpad5

invoke.cont8:                                     ; preds = %if.then
  %2 = load i64, ptr %i.addr, align 8
  %call11 = invoke noundef nonnull align 8 dereferenceable(8) ptr @_ZNSolsEm(ptr noundef nonnull align 8 dereferenceable(8) %call9, i64 noundef %2)
          to label %invoke.cont10 unwind label %lpad5

invoke.cont10:                                    ; preds = %invoke.cont8
  br label %if.end

lpad:                                             ; preds = %while.end55, %while.body, %entry
  %3 = landingpad { ptr, i32 }
          cleanup
  %4 = extractvalue { ptr, i32 } %3, 0
  store ptr %4, ptr %exn.slot, align 8
  %5 = extractvalue { ptr, i32 } %3, 1
  store i32 %5, ptr %ehselector.slot, align 4
  br label %ehcleanup58

lpad5:                                            ; preds = %if.end, %if.else, %invoke.cont8, %if.then, %invoke.cont4
  %6 = landingpad { ptr, i32 }
          cleanup
  %7 = extractvalue { ptr, i32 } %6, 0
  store ptr %7, ptr %exn.slot, align 8
  %8 = extractvalue { ptr, i32 } %6, 1
  store i32 %8, ptr %ehselector.slot, align 4
  br label %ehcleanup54

if.else:                                          ; preds = %invoke.cont6
  invoke void @_ZNSt7__cxx1118basic_stringstreamIcSt11char_traitsIcESaIcEEC1Ev(ptr noundef nonnull align 8 dereferenceable(128) %oss)
          to label %invoke.cont12 unwind label %lpad5

invoke.cont12:                                    ; preds = %if.else
  %add.ptr13 = getelementptr inbounds i8, ptr %oss, i64 16
  %call16 = invoke noundef nonnull align 8 dereferenceable(8) ptr @_ZN4cvc58internallsERSoRKNS0_8TypeNodeE(ptr noundef nonnull align 8 dereferenceable(8) %add.ptr13, ptr noundef nonnull align 8 dereferenceable(8) %tn)
          to label %invoke.cont15 unwind label %lpad14

invoke.cont15:                                    ; preds = %invoke.cont12
  invoke void @_ZNKSt7__cxx1118basic_stringstreamIcSt11char_traitsIcESaIcEE3strEv(ptr sret(%"class.std::__cxx11::basic_string") align 8 %typ_name, ptr noundef nonnull align 8 dereferenceable(128) %oss)
          to label %invoke.cont17 unwind label %lpad14

invoke.cont17:                                    ; preds = %invoke.cont15
  br label %while.cond18

while.cond18:                                     ; preds = %invoke.cont26, %invoke.cont17
  %call21 = invoke noundef nonnull align 1 dereferenceable(1) ptr @_ZNSt7__cxx1112basic_stringIcSt11char_traitsIcESaIcEEixEm(ptr noundef nonnull align 8 dereferenceable(32) %typ_name, i64 noundef 0)
          to label %invoke.cont20 unwind label %lpad19

invoke.cont20:                                    ; preds = %while.cond18
  %9 = load i8, ptr %call21, align 1
  %conv = sext i8 %9 to i32
  %cmp22 = icmp eq i32 %conv, 40
  br i1 %cmp22, label %while.body23, label %while.end

while.body23:                                     ; preds = %invoke.cont20
  %call24 = call ptr @_ZNSt7__cxx1112basic_stringIcSt11char_traitsIcESaIcEE5beginEv(ptr noundef nonnull align 8 dereferenceable(32) %typ_name) #3
  %coerce.dive = getelementptr inbounds %"class.__gnu_cxx::__normal_iterator", ptr %ref.tmp, i32 0, i32 0
  store ptr %call24, ptr %coerce.dive, align 8
  call void @_ZN9__gnu_cxx17__normal_iteratorIPKcNSt7__cxx1112basic_stringIcSt11char_traitsIcESaIcEEEEC2IPcvEERKNS0_IT_S8_EE(ptr noundef nonnull align 8 dereferenceable(8) %agg.tmp, ptr noundef nonnull align 8 dereferenceable(8) %ref.tmp) #3
  %coerce.dive25 = getelementptr inbounds %"class.__gnu_cxx::__normal_iterator.39", ptr %agg.tmp, i32 0, i32 0
  %10 = load ptr, ptr %coerce.dive25, align 8
  %call27 = invoke ptr @_ZNSt7__cxx1112basic_stringIcSt11char_traitsIcESaIcEE5eraseEN9__gnu_cxx17__normal_iteratorIPKcS4_EE(ptr noundef nonnull align 8 dereferenceable(32) %typ_name, ptr %10)
          to label %invoke.cont26 unwind label %lpad19

invoke.cont26:                                    ; preds = %while.body23
  %coerce.dive28 = getelementptr inbounds %"class.__gnu_cxx::__normal_iterator", ptr %coerce, i32 0, i32 0
  store ptr %call27, ptr %coerce.dive28, align 8
  br label %while.cond18, !llvm.loop !8

lpad14:                                           ; preds = %invoke.cont15, %invoke.cont12
  %11 = landingpad { ptr, i32 }
          cleanup
  %12 = extractvalue { ptr, i32 } %11, 0
  store ptr %12, ptr %exn.slot, align 8
  %13 = extractvalue { ptr, i32 } %11, 1
  store i32 %13, ptr %ehselector.slot, align 4
  br label %ehcleanup

lpad19:                                           ; preds = %invoke.cont32, %invoke.cont30, %while.end, %while.body23, %while.cond18
  %14 = landingpad { ptr, i32 }
          cleanup
  %15 = extractvalue { ptr, i32 } %14, 0
  store ptr %15, ptr %exn.slot, align 8
  %16 = extractvalue { ptr, i32 } %14, 1
  store i32 %16, ptr %ehselector.slot, align 4
  call void @_ZNSt7__cxx1112basic_stringIcSt11char_traitsIcESaIcEED1Ev(ptr noundef nonnull align 8 dereferenceable(32) %typ_name) #3
  br label %ehcleanup

while.end:                                        ; preds = %invoke.cont20
  %add.ptr29 = getelementptr inbounds i8, ptr %os, i64 16
  %call31 = invoke noundef nonnull align 1 dereferenceable(1) ptr @_ZNSt7__cxx1112basic_stringIcSt11char_traitsIcESaIcEEixEm(ptr noundef nonnull align 8 dereferenceable(32) %typ_name, i64 noundef 0)
          to label %invoke.cont30 unwind label %lpad19

invoke.cont30:                                    ; preds = %while.end
  %17 = load i8, ptr %call31, align 1
  %call33 = invoke noundef nonnull align 8 dereferenceable(8) ptr @_ZStlsISt11char_traitsIcEERSt13basic_ostreamIcT_ES5_c(ptr noundef nonnull align 8 dereferenceable(8) %add.ptr29, i8 noundef signext %17)
          to label %invoke.cont32 unwind label %lpad19

invoke.cont32:                                    ; preds = %invoke.cont30
  %18 = load i64, ptr %i.addr, align 8
  %call35 = invoke noundef nonnull align 8 dereferenceable(8) ptr @_ZNSolsEm(ptr noundef nonnull align 8 dereferenceable(8) %call33, i64 noundef %18)
          to label %invoke.cont34 unwind label %lpad19

invoke.cont34:                                    ; preds = %invoke.cont32
  call void @_ZNSt7__cxx1112basic_stringIcSt11char_traitsIcESaIcEED1Ev(ptr noundef nonnull align 8 dereferenceable(32) %typ_name) #3
  call void @_ZNSt7__cxx1118basic_stringstreamIcSt11char_traitsIcESaIcEED1Ev(ptr noundef nonnull align 8 dereferenceable(128) %oss) #3
  br label %if.end

ehcleanup:                                        ; preds = %lpad19, %lpad14
  call void @_ZNSt7__cxx1118basic_stringstreamIcSt11char_traitsIcESaIcEED1Ev(ptr noundef nonnull align 8 dereferenceable(128) %oss) #3
  br label %ehcleanup54

if.end:                                           ; preds = %invoke.cont34, %invoke.cont10
  %19 = load ptr, ptr %nm, align 8
  invoke void @_ZNKSt7__cxx1118basic_stringstreamIcSt11char_traitsIcESaIcEE3strEv(ptr sret(%"class.std::__cxx11::basic_string") align 8 %ref.tmp37, ptr noundef nonnull align 8 dereferenceable(128) %os)
          to label %invoke.cont38 unwind label %lpad5

invoke.cont38:                                    ; preds = %if.end
  %call39 = call noundef ptr @_ZNKSt7__cxx1112basic_stringIcSt11char_traitsIcESaIcEE5c_strEv(ptr noundef nonnull align 8 dereferenceable(32) %ref.tmp37) #3
  call void @_ZNSaIcEC1Ev(ptr noundef nonnull align 1 dereferenceable(1) %ref.tmp40) #3
  invoke void @_ZNSt7__cxx1112basic_stringIcSt11char_traitsIcESaIcEEC2IS3_EEPKcRKS3_(ptr noundef nonnull align 8 dereferenceable(32) %ref.tmp36, ptr noundef %call39, ptr noundef nonnull align 1 dereferenceable(1) %ref.tmp40)
          to label %invoke.cont42 unwind label %lpad41

invoke.cont42:                                    ; preds = %invoke.cont38
  invoke void @_ZN4cvc58internal11NodeManager10mkBoundVarERKNSt7__cxx1112basic_stringIcSt11char_traitsIcESaIcEEERKNS0_8TypeNodeE(ptr sret(%"class.cvc5::internal::NodeTemplate") align 8 %x, ptr noundef nonnull align 8 dereferenceable(3360) %19, ptr noundef nonnull align 8 dereferenceable(32) %ref.tmp36, ptr noundef nonnull align 8 dereferenceable(8) %tn)
          to label %invoke.cont44 unwind label %lpad43

invoke.cont44:                                    ; preds = %invoke.cont42
  call void @_ZNSt7__cxx1112basic_stringIcSt11char_traitsIcESaIcEED1Ev(ptr noundef nonnull align 8 dereferenceable(32) %ref.tmp36) #3
  call void @_ZNSaIcED1Ev(ptr noundef nonnull align 1 dereferenceable(1) %ref.tmp40) #3
  call void @_ZNSt7__cxx1112basic_stringIcSt11char_traitsIcESaIcEED1Ev(ptr noundef nonnull align 8 dereferenceable(32) %ref.tmp37) #3
  %20 = load ptr, ptr %tvars, align 8
  %call48 = call noundef i64 @_ZNKSt6vectorIN4cvc58internal12NodeTemplateILb1EEESaIS3_EE4sizeEv(ptr noundef nonnull align 8 dereferenceable(24) %20) #3
  %d_fvIndex = getelementptr inbounds %"class.cvc5::internal::expr::TermCanonize", ptr %this1, i32 0, i32 6
  %call51 = invoke noundef nonnull align 8 dereferenceable(8) ptr @_ZNSt3mapIN4cvc58internal12NodeTemplateILb1EEEmSt4lessIS3_ESaISt4pairIKS3_mEEEixERS7_(ptr noundef nonnull align 8 dereferenceable(48) %d_fvIndex, ptr noundef nonnull align 8 dereferenceable(8) %x)
          to label %invoke.cont50 unwind label %lpad49

invoke.cont50:                                    ; preds = %invoke.cont44
  store i64 %call48, ptr %call51, align 8
  %21 = load ptr, ptr %tvars, align 8
  invoke void @_ZNSt6vectorIN4cvc58internal12NodeTemplateILb1EEESaIS3_EE9push_backERKS3_(ptr noundef nonnull align 8 dereferenceable(24) %21, ptr noundef nonnull align 8 dereferenceable(8) %x)
          to label %invoke.cont52 unwind label %lpad49

invoke.cont52:                                    ; preds = %invoke.cont50
  call void @_ZN4cvc58internal12NodeTemplateILb1EED2Ev(ptr noundef nonnull align 8 dereferenceable(8) %x) #3
  call void @_ZNSt7__cxx1118basic_stringstreamIcSt11char_traitsIcESaIcEED1Ev(ptr noundef nonnull align 8 dereferenceable(128) %os) #3
  br label %while.cond, !llvm.loop !9

lpad41:                                           ; preds = %invoke.cont38
  %22 = landingpad { ptr, i32 }
          cleanup
  %23 = extractvalue { ptr, i32 } %22, 0
  store ptr %23, ptr %exn.slot, align 8
  %24 = extractvalue { ptr, i32 } %22, 1
  store i32 %24, ptr %ehselector.slot, align 4
  br label %ehcleanup46

lpad43:                                           ; preds = %invoke.cont42
  %25 = landingpad { ptr, i32 }
          cleanup
  %26 = extractvalue { ptr, i32 } %25, 0
  store ptr %26, ptr %exn.slot, align 8
  %27 = extractvalue { ptr, i32 } %25, 1
  store i32 %27, ptr %ehselector.slot, align 4
  call void @_ZNSt7__cxx1112basic_stringIcSt11char_traitsIcESaIcEED1Ev(ptr noundef nonnull align 8 dereferenceable(32) %ref.tmp36) #3
  br label %ehcleanup46

ehcleanup46:                                      ; preds = %lpad43, %lpad41
  call void @_ZNSaIcED1Ev(ptr noundef nonnull align 1 dereferenceable(1) %ref.tmp40) #3
  call void @_ZNSt7__cxx1112basic_stringIcSt11char_traitsIcESaIcEED1Ev(ptr noundef nonnull align 8 dereferenceable(32) %ref.tmp37) #3
  br label %ehcleanup54

lpad49:                                           ; preds = %invoke.cont50, %invoke.cont44
  %28 = landingpad { ptr, i32 }
          cleanup
  %29 = extractvalue { ptr, i32 } %28, 0
  store ptr %29, ptr %exn.slot, align 8
  %30 = extractvalue { ptr, i32 } %28, 1
  store i32 %30, ptr %ehselector.slot, align 4
  call void @_ZN4cvc58internal12NodeTemplateILb1EED2Ev(ptr noundef nonnull align 8 dereferenceable(8) %x) #3
  br label %ehcleanup54

ehcleanup54:                                      ; preds = %lpad49, %ehcleanup46, %ehcleanup, %lpad5
  call void @_ZNSt7__cxx1118basic_stringstreamIcSt11char_traitsIcESaIcEED1Ev(ptr noundef nonnull align 8 dereferenceable(128) %os) #3
  br label %ehcleanup58

while.end55:                                      ; preds = %while.cond
  %31 = load ptr, ptr %tvars, align 8
  %32 = load i64, ptr %i.addr, align 8
  %call56 = call noundef nonnull align 8 dereferenceable(8) ptr @_ZNSt6vectorIN4cvc58internal12NodeTemplateILb1EEESaIS3_EEixEm(ptr noundef nonnull align 8 dereferenceable(24) %31, i64 noundef %32) #3
  invoke void @_ZN4cvc58internal12NodeTemplateILb1EEC2ERKS2_(ptr noundef nonnull align 8 dereferenceable(8) %agg.result, ptr noundef nonnull align 8 dereferenceable(8) %call56)
          to label %invoke.cont57 unwind label %lpad

invoke.cont57:                                    ; preds = %while.end55
  call void @_ZNSt4pairIN4cvc58internal8TypeNodeEjED2Ev(ptr noundef nonnull align 8 dereferenceable(12) %key) #3
  ret void

ehcleanup58:                                      ; preds = %ehcleanup54, %lpad
  call void @_ZNSt4pairIN4cvc58internal8TypeNodeEjED2Ev(ptr noundef nonnull align 8 dereferenceable(12) %key) #3
  br label %eh.resume

eh.resume:                                        ; preds = %ehcleanup58
  %exn = load ptr, ptr %exn.slot, align 8
  %sel = load i32, ptr %ehselector.slot, align 4
  %lpad.val = insertvalue { ptr, i32 } poison, ptr %exn, 0
  %lpad.val59 = insertvalue { ptr, i32 } %lpad.val, i32 %sel, 1
  resume { ptr, i32 } %lpad.val59
}

declare noundef ptr @_ZN4cvc58internal11NodeManager9currentNMEv() #1

; Function Attrs: mustprogress uwtable
define linkonce_odr hidden void @_ZNSt4pairIN4cvc58internal8TypeNodeEjEC2IRS2_RjTnNSt9enable_ifIXaaclsr5_PCCPE22_MoveConstructiblePairIT_T0_EEclsr5_PCCPE30_ImplicitlyMoveConvertiblePairIS8_S9_EEEbE4typeELb1EEEOS8_OS9_(ptr noundef nonnull align 8 dereferenceable(12) %this, ptr noundef nonnull align 8 dereferenceable(8) %__x, ptr noundef nonnull align 4 dereferenceable(4) %__y) unnamed_addr #5 comdat align 2 {
entry:
  %this.addr = alloca ptr, align 8
  %__x.addr = alloca ptr, align 8
  %__y.addr = alloca ptr, align 8
  store ptr %this, ptr %this.addr, align 8
  store ptr %__x, ptr %__x.addr, align 8
  store ptr %__y, ptr %__y.addr, align 8
  %this1 = load ptr, ptr %this.addr, align 8
  %first = getelementptr inbounds %"struct.std::pair.28", ptr %this1, i32 0, i32 0
  %0 = load ptr, ptr %__x.addr, align 8
  call void @_ZN4cvc58internal8TypeNodeC2ERKS1_(ptr noundef nonnull align 8 dereferenceable(8) %first, ptr noundef nonnull align 8 dereferenceable(8) %0)
  %second = getelementptr inbounds %"struct.std::pair.28", ptr %this1, i32 0, i32 1
  %1 = load ptr, ptr %__y.addr, align 8
  %2 = load i32, ptr %1, align 4
  store i32 %2, ptr %second, align 8
  ret void
}

; Function Attrs: mustprogress uwtable
define linkonce_odr hidden noundef nonnull align 8 dereferenceable(24) ptr @_ZNSt3mapISt4pairIN4cvc58internal8TypeNodeEjESt6vectorINS2_12NodeTemplateILb1EEESaIS7_EESt4lessIS4_ESaIS0_IKS4_S9_EEEixERSC_(ptr noundef nonnull align 8 dereferenceable(48) %this, ptr noundef nonnull align 8 dereferenceable(12) %__k) #5 comdat align 2 {
entry:
  %this.addr = alloca ptr, align 8
  %__k.addr = alloca ptr, align 8
  %__i = alloca %"struct.std::_Rb_tree_iterator.151", align 8
  %ref.tmp = alloca %"struct.std::_Rb_tree_iterator.151", align 8
  %ref.tmp5 = alloca %"struct.std::less.14", align 1
  %ref.tmp8 = alloca %"struct.std::_Rb_tree_iterator.151", align 8
  %agg.tmp = alloca %"struct.std::_Rb_tree_const_iterator.154", align 8
  %ref.tmp9 = alloca %"class.std::tuple.155", align 8
  %ref.tmp10 = alloca %"class.std::tuple.139", align 1
  store ptr %this, ptr %this.addr, align 8
  store ptr %__k, ptr %__k.addr, align 8
  %this1 = load ptr, ptr %this.addr, align 8
  %0 = load ptr, ptr %__k.addr, align 8
  %call = call ptr @_ZNSt3mapISt4pairIN4cvc58internal8TypeNodeEjESt6vectorINS2_12NodeTemplateILb1EEESaIS7_EESt4lessIS4_ESaIS0_IKS4_S9_EEE11lower_boundERSC_(ptr noundef nonnull align 8 dereferenceable(48) %this1, ptr noundef nonnull align 8 dereferenceable(12) %0)
  %coerce.dive = getelementptr inbounds %"struct.std::_Rb_tree_iterator.151", ptr %__i, i32 0, i32 0
  store ptr %call, ptr %coerce.dive, align 8
  %call2 = call ptr @_ZNSt3mapISt4pairIN4cvc58internal8TypeNodeEjESt6vectorINS2_12NodeTemplateILb1EEESaIS7_EESt4lessIS4_ESaIS0_IKS4_S9_EEE3endEv(ptr noundef nonnull align 8 dereferenceable(48) %this1) #3
  %coerce.dive3 = getelementptr inbounds %"struct.std::_Rb_tree_iterator.151", ptr %ref.tmp, i32 0, i32 0
  store ptr %call2, ptr %coerce.dive3, align 8
  %call4 = call noundef zeroext i1 @_ZSteqRKSt17_Rb_tree_iteratorISt4pairIKS0_IN4cvc58internal8TypeNodeEjESt6vectorINS2_12NodeTemplateILb1EEESaIS8_EEEESE_(ptr noundef nonnull align 8 dereferenceable(8) %__i, ptr noundef nonnull align 8 dereferenceable(8) %ref.tmp) #3
  br i1 %call4, label %lor.end, label %lor.rhs

lor.rhs:                                          ; preds = %entry
  call void @_ZNKSt3mapISt4pairIN4cvc58internal8TypeNodeEjESt6vectorINS2_12NodeTemplateILb1EEESaIS7_EESt4lessIS4_ESaIS0_IKS4_S9_EEE8key_compEv(ptr noundef nonnull align 8 dereferenceable(48) %this1)
  %1 = load ptr, ptr %__k.addr, align 8
  %call6 = call noundef nonnull align 8 dereferenceable(40) ptr @_ZNKSt17_Rb_tree_iteratorISt4pairIKS0_IN4cvc58internal8TypeNodeEjESt6vectorINS2_12NodeTemplateILb1EEESaIS8_EEEEdeEv(ptr noundef nonnull align 8 dereferenceable(8) %__i) #3
  %first = getelementptr inbounds %"struct.std::pair.152", ptr %call6, i32 0, i32 0
  %call7 = call noundef zeroext i1 @_ZNKSt4lessISt4pairIN4cvc58internal8TypeNodeEjEEclERKS4_S7_(ptr noundef nonnull align 1 dereferenceable(1) %ref.tmp5, ptr noundef nonnull align 8 dereferenceable(12) %1, ptr noundef nonnull align 8 dereferenceable(12) %first)
  br label %lor.end

lor.end:                                          ; preds = %lor.rhs, %entry
  %2 = phi i1 [ true, %entry ], [ %call7, %lor.rhs ]
  br i1 %2, label %if.then, label %if.end

if.then:                                          ; preds = %lor.end
  %_M_t = getelementptr inbounds %"class.std::map.8", ptr %this1, i32 0, i32 0
  call void @_ZNSt23_Rb_tree_const_iteratorISt4pairIKS0_IN4cvc58internal8TypeNodeEjESt6vectorINS2_12NodeTemplateILb1EEESaIS8_EEEEC2ERKSt17_Rb_tree_iteratorISB_E(ptr noundef nonnull align 8 dereferenceable(8) %agg.tmp, ptr noundef nonnull align 8 dereferenceable(8) %__i) #3
  %3 = load ptr, ptr %__k.addr, align 8
  call void @_ZNSt5tupleIJRKSt4pairIN4cvc58internal8TypeNodeEjEEEC2ILb1ETnNSt9enable_ifIXclsr4_TCCIXT_EEE29__is_implicitly_constructibleIS6_EEEbE4typeELb1EEES6_(ptr noundef nonnull align 8 dereferenceable(8) %ref.tmp9, ptr noundef nonnull align 8 dereferenceable(12) %3) #3
  %coerce.dive11 = getelementptr inbounds %"struct.std::_Rb_tree_const_iterator.154", ptr %agg.tmp, i32 0, i32 0
  %4 = load ptr, ptr %coerce.dive11, align 8
  %call12 = call ptr @_ZNSt8_Rb_treeISt4pairIN4cvc58internal8TypeNodeEjES0_IKS4_St6vectorINS2_12NodeTemplateILb1EEESaIS8_EEESt10_Select1stISB_ESt4lessIS4_ESaISB_EE22_M_emplace_hint_uniqueIJRKSt21piecewise_construct_tSt5tupleIJRS5_EESM_IJEEEEESt17_Rb_tree_iteratorISB_ESt23_Rb_tree_const_iteratorISB_EDpOT_(ptr noundef nonnull align 8 dereferenceable(48) %_M_t, ptr %4, ptr noundef nonnull align 1 dereferenceable(1) @_ZSt19piecewise_construct, ptr noundef nonnull align 8 dereferenceable(8) %ref.tmp9, ptr noundef nonnull align 1 dereferenceable(1) %ref.tmp10)
  %coerce.dive13 = getelementptr inbounds %"struct.std::_Rb_tree_iterator.151", ptr %ref.tmp8, i32 0, i32 0
  store ptr %call12, ptr %coerce.dive13, align 8
  call void @llvm.memcpy.p0.p0.i64(ptr align 8 %__i, ptr align 8 %ref.tmp8, i64 8, i1 false)
  br label %if.end

if.end:                                           ; preds = %if.then, %lor.end
  %call14 = call noundef nonnull align 8 dereferenceable(40) ptr @_ZNKSt17_Rb_tree_iteratorISt4pairIKS0_IN4cvc58internal8TypeNodeEjESt6vectorINS2_12NodeTemplateILb1EEESaIS8_EEEEdeEv(ptr noundef nonnull align 8 dereferenceable(8) %__i) #3
  %second = getelementptr inbounds %"struct.std::pair.152", ptr %call14, i32 0, i32 1
  ret ptr %second
}

; Function Attrs: mustprogress nounwind uwtable
define linkonce_odr hidden noundef i64 @_ZNKSt6vectorIN4cvc58internal12NodeTemplateILb1EEESaIS3_EE4sizeEv(ptr noundef nonnull align 8 dereferenceable(24) %this) #4 comdat align 2 {
entry:
  %this.addr = alloca ptr, align 8
  store ptr %this, ptr %this.addr, align 8
  %this1 = load ptr, ptr %this.addr, align 8
  %_M_impl = getelementptr inbounds %"struct.std::_Vector_base.32", ptr %this1, i32 0, i32 0
  %_M_finish = getelementptr inbounds %"struct.std::_Vector_base<cvc5::internal::NodeTemplate<true>, std::allocator<cvc5::internal::NodeTemplate<true>>>::_Vector_impl_data", ptr %_M_impl, i32 0, i32 1
  %0 = load ptr, ptr %_M_finish, align 8
  %_M_impl2 = getelementptr inbounds %"struct.std::_Vector_base.32", ptr %this1, i32 0, i32 0
  %_M_start = getelementptr inbounds %"struct.std::_Vector_base<cvc5::internal::NodeTemplate<true>, std::allocator<cvc5::internal::NodeTemplate<true>>>::_Vector_impl_data", ptr %_M_impl2, i32 0, i32 0
  %1 = load ptr, ptr %_M_start, align 8
  %sub.ptr.lhs.cast = ptrtoint ptr %0 to i64
  %sub.ptr.rhs.cast = ptrtoint ptr %1 to i64
  %sub.ptr.sub = sub i64 %sub.ptr.lhs.cast, %sub.ptr.rhs.cast
  %sub.ptr.div = sdiv exact i64 %sub.ptr.sub, 8
  ret i64 %sub.ptr.div
}

declare void @_ZNSt7__cxx1118basic_stringstreamIcSt11char_traitsIcESaIcEEC1Ev(ptr noundef nonnull align 8 dereferenceable(128)) unnamed_addr #1

; Function Attrs: mustprogress uwtable
define linkonce_odr hidden noundef zeroext i1 @_ZNK4cvc58internal8TypeNode10isFunctionEv(ptr noundef nonnull align 8 dereferenceable(8) %this) #5 comdat align 2 {
entry:
  %this.addr = alloca ptr, align 8
  store ptr %this, ptr %this.addr, align 8
  %this1 = load ptr, ptr %this.addr, align 8
  %call = call noundef i32 @_ZNK4cvc58internal8TypeNode7getKindEv(ptr noundef nonnull align 8 dereferenceable(8) %this1)
  %cmp = icmp eq i32 %call, 25
  ret i1 %cmp
}

declare noundef nonnull align 8 dereferenceable(8) ptr @_ZStlsISt11char_traitsIcEERSt13basic_ostreamIcT_ES5_PKc(ptr noundef nonnull align 8 dereferenceable(8), ptr noundef) #1

declare noundef nonnull align 8 dereferenceable(8) ptr @_ZNSolsEm(ptr noundef nonnull align 8 dereferenceable(8), i64 noundef) #1

; Function Attrs: mustprogress uwtable
define linkonce_odr hidden noundef nonnull align 8 dereferenceable(8) ptr @_ZN4cvc58internallsERSoRKNS0_8TypeNodeE(ptr noundef nonnull align 8 dereferenceable(8) %out, ptr noundef nonnull align 8 dereferenceable(8) %n) #5 comdat {
entry:
  %out.addr = alloca ptr, align 8
  %n.addr = alloca ptr, align 8
  store ptr %out, ptr %out.addr, align 8
  store ptr %n, ptr %n.addr, align 8
  %0 = load ptr, ptr %n.addr, align 8
  %1 = load ptr, ptr %out.addr, align 8
  call void @_ZNK4cvc58internal8TypeNode8toStreamERSo(ptr noundef nonnull align 8 dereferenceable(8) %0, ptr noundef nonnull align 8 dereferenceable(8) %1)
  %2 = load ptr, ptr %out.addr, align 8
  ret ptr %2
}

declare void @_ZNKSt7__cxx1118basic_stringstreamIcSt11char_traitsIcESaIcEE3strEv(ptr sret(%"class.std::__cxx11::basic_string") align 8, ptr noundef nonnull align 8 dereferenceable(128)) #1

declare noundef nonnull align 1 dereferenceable(1) ptr @_ZNSt7__cxx1112basic_stringIcSt11char_traitsIcESaIcEEixEm(ptr noundef nonnull align 8 dereferenceable(32), i64 noundef) #1

declare ptr @_ZNSt7__cxx1112basic_stringIcSt11char_traitsIcESaIcEE5eraseEN9__gnu_cxx17__normal_iteratorIPKcS4_EE(ptr noundef nonnull align 8 dereferenceable(32), ptr) #1

; Function Attrs: nounwind
declare ptr @_ZNSt7__cxx1112basic_stringIcSt11char_traitsIcESaIcEE5beginEv(ptr noundef nonnull align 8 dereferenceable(32)) #2

; Function Attrs: mustprogress nounwind uwtable
define linkonce_odr hidden void @_ZN9__gnu_cxx17__normal_iteratorIPKcNSt7__cxx1112basic_stringIcSt11char_traitsIcESaIcEEEEC2IPcvEERKNS0_IT_S8_EE(ptr noundef nonnull align 8 dereferenceable(8) %this, ptr noundef nonnull align 8 dereferenceable(8) %__i) unnamed_addr #4 comdat align 2 {
entry:
  %this.addr = alloca ptr, align 8
  %__i.addr = alloca ptr, align 8
  store ptr %this, ptr %this.addr, align 8
  store ptr %__i, ptr %__i.addr, align 8
  %this1 = load ptr, ptr %this.addr, align 8
  %_M_current = getelementptr inbounds %"class.__gnu_cxx::__normal_iterator.39", ptr %this1, i32 0, i32 0
  %0 = load ptr, ptr %__i.addr, align 8
  %call = call noundef nonnull align 8 dereferenceable(8) ptr @_ZNK9__gnu_cxx17__normal_iteratorIPcNSt7__cxx1112basic_stringIcSt11char_traitsIcESaIcEEEE4baseEv(ptr noundef nonnull align 8 dereferenceable(8) %0) #3
  %1 = load ptr, ptr %call, align 8
  store ptr %1, ptr %_M_current, align 8
  ret void
}

declare noundef nonnull align 8 dereferenceable(8) ptr @_ZStlsISt11char_traitsIcEERSt13basic_ostreamIcT_ES5_c(ptr noundef nonnull align 8 dereferenceable(8), i8 noundef signext) #1

; Function Attrs: nounwind
declare void @_ZNSt7__cxx1112basic_stringIcSt11char_traitsIcESaIcEED1Ev(ptr noundef nonnull align 8 dereferenceable(32)) unnamed_addr #2

; Function Attrs: nounwind
declare void @_ZNSt7__cxx1118basic_stringstreamIcSt11char_traitsIcESaIcEED1Ev(ptr noundef nonnull align 8 dereferenceable(128)) unnamed_addr #2

declare void @_ZN4cvc58internal11NodeManager10mkBoundVarERKNSt7__cxx1112basic_stringIcSt11char_traitsIcESaIcEEERKNS0_8TypeNodeE(ptr sret(%"class.cvc5::internal::NodeTemplate") align 8, ptr noundef nonnull align 8 dereferenceable(3360), ptr noundef nonnull align 8 dereferenceable(32), ptr noundef nonnull align 8 dereferenceable(8)) #1

; Function Attrs: nounwind
declare noundef ptr @_ZNKSt7__cxx1112basic_stringIcSt11char_traitsIcESaIcEE5c_strEv(ptr noundef nonnull align 8 dereferenceable(32)) #2

; Function Attrs: nounwind
declare void @_ZNSaIcEC1Ev(ptr noundef nonnull align 1 dereferenceable(1)) unnamed_addr #2

; Function Attrs: mustprogress uwtable
define linkonce_odr hidden void @_ZNSt7__cxx1112basic_stringIcSt11char_traitsIcESaIcEEC2IS3_EEPKcRKS3_(ptr noundef nonnull align 8 dereferenceable(32) %this, ptr noundef %__s, ptr noundef nonnull align 1 dereferenceable(1) %__a) unnamed_addr #5 comdat align 2 personality ptr @__gxx_personality_v0 {
entry:
  %this.addr = alloca ptr, align 8
  %__s.addr = alloca ptr, align 8
  %__a.addr = alloca ptr, align 8
  %exn.slot = alloca ptr, align 8
  %ehselector.slot = alloca i32, align 4
  %__end = alloca ptr, align 8
  store ptr %this, ptr %this.addr, align 8
  store ptr %__s, ptr %__s.addr, align 8
  store ptr %__a, ptr %__a.addr, align 8
  %this1 = load ptr, ptr %this.addr, align 8
  %_M_dataplus = getelementptr inbounds %"class.std::__cxx11::basic_string", ptr %this1, i32 0, i32 0
  %call = call noundef ptr @_ZNSt7__cxx1112basic_stringIcSt11char_traitsIcESaIcEE13_M_local_dataEv(ptr noundef nonnull align 8 dereferenceable(32) %this1)
  %0 = load ptr, ptr %__a.addr, align 8
  call void @_ZNSt7__cxx1112basic_stringIcSt11char_traitsIcESaIcEE12_Alloc_hiderC1EPcRKS3_(ptr noundef nonnull align 8 dereferenceable(8) %_M_dataplus, ptr noundef %call, ptr noundef nonnull align 1 dereferenceable(1) %0)
  %1 = load ptr, ptr %__s.addr, align 8
  %cmp = icmp eq ptr %1, null
  br i1 %cmp, label %if.then, label %if.end

if.then:                                          ; preds = %entry
  invoke void @_ZSt19__throw_logic_errorPKc(ptr noundef @.str.13) #16
          to label %invoke.cont unwind label %lpad

invoke.cont:                                      ; preds = %if.then
  unreachable

lpad:                                             ; preds = %invoke.cont2, %if.end, %if.then
  %2 = landingpad { ptr, i32 }
          cleanup
  %3 = extractvalue { ptr, i32 } %2, 0
  store ptr %3, ptr %exn.slot, align 8
  %4 = extractvalue { ptr, i32 } %2, 1
  store i32 %4, ptr %ehselector.slot, align 4
  call void @_ZNSt7__cxx1112basic_stringIcSt11char_traitsIcESaIcEE12_Alloc_hiderD2Ev(ptr noundef nonnull align 8 dereferenceable(8) %_M_dataplus) #3
  br label %eh.resume

if.end:                                           ; preds = %entry
  %5 = load ptr, ptr %__s.addr, align 8
  %6 = load ptr, ptr %__s.addr, align 8
  %call3 = invoke noundef i64 @_ZNSt11char_traitsIcE6lengthEPKc(ptr noundef %6)
          to label %invoke.cont2 unwind label %lpad

invoke.cont2:                                     ; preds = %if.end
  %add.ptr = getelementptr inbounds i8, ptr %5, i64 %call3
  store ptr %add.ptr, ptr %__end, align 8
  %7 = load ptr, ptr %__s.addr, align 8
  %8 = load ptr, ptr %__end, align 8
  invoke void @_ZNSt7__cxx1112basic_stringIcSt11char_traitsIcESaIcEE12_M_constructIPKcEEvT_S8_St20forward_iterator_tag(ptr noundef nonnull align 8 dereferenceable(32) %this1, ptr noundef %7, ptr noundef %8)
          to label %invoke.cont4 unwind label %lpad

invoke.cont4:                                     ; preds = %invoke.cont2
  ret void

eh.resume:                                        ; preds = %lpad
  %exn = load ptr, ptr %exn.slot, align 8
  %sel = load i32, ptr %ehselector.slot, align 4
  %lpad.val = insertvalue { ptr, i32 } poison, ptr %exn, 0
  %lpad.val5 = insertvalue { ptr, i32 } %lpad.val, i32 %sel, 1
  resume { ptr, i32 } %lpad.val5
}

; Function Attrs: nounwind
declare void @_ZNSaIcED1Ev(ptr noundef nonnull align 1 dereferenceable(1)) unnamed_addr #2

; Function Attrs: mustprogress uwtable
define linkonce_odr hidden noundef nonnull align 8 dereferenceable(8) ptr @_ZNSt3mapIN4cvc58internal12NodeTemplateILb1EEEmSt4lessIS3_ESaISt4pairIKS3_mEEEixERS7_(ptr noundef nonnull align 8 dereferenceable(48) %this, ptr noundef nonnull align 8 dereferenceable(8) %__k) #5 comdat align 2 {
entry:
  %this.addr = alloca ptr, align 8
  %__k.addr = alloca ptr, align 8
  %__i = alloca %"struct.std::_Rb_tree_iterator.162", align 8
  %ref.tmp = alloca %"struct.std::_Rb_tree_iterator.162", align 8
  %ref.tmp5 = alloca %"struct.std::less", align 1
  %ref.tmp8 = alloca %"struct.std::_Rb_tree_iterator.162", align 8
  %agg.tmp = alloca %"struct.std::_Rb_tree_const_iterator", align 8
  %ref.tmp9 = alloca %"class.std::tuple.136", align 8
  %ref.tmp10 = alloca %"class.std::tuple.139", align 1
  store ptr %this, ptr %this.addr, align 8
  store ptr %__k, ptr %__k.addr, align 8
  %this1 = load ptr, ptr %this.addr, align 8
  %0 = load ptr, ptr %__k.addr, align 8
  %call = call ptr @_ZNSt3mapIN4cvc58internal12NodeTemplateILb1EEEmSt4lessIS3_ESaISt4pairIKS3_mEEE11lower_boundERS7_(ptr noundef nonnull align 8 dereferenceable(48) %this1, ptr noundef nonnull align 8 dereferenceable(8) %0)
  %coerce.dive = getelementptr inbounds %"struct.std::_Rb_tree_iterator.162", ptr %__i, i32 0, i32 0
  store ptr %call, ptr %coerce.dive, align 8
  %call2 = call ptr @_ZNSt3mapIN4cvc58internal12NodeTemplateILb1EEEmSt4lessIS3_ESaISt4pairIKS3_mEEE3endEv(ptr noundef nonnull align 8 dereferenceable(48) %this1) #3
  %coerce.dive3 = getelementptr inbounds %"struct.std::_Rb_tree_iterator.162", ptr %ref.tmp, i32 0, i32 0
  store ptr %call2, ptr %coerce.dive3, align 8
  %call4 = call noundef zeroext i1 @_ZSteqRKSt17_Rb_tree_iteratorISt4pairIKN4cvc58internal12NodeTemplateILb1EEEmEES9_(ptr noundef nonnull align 8 dereferenceable(8) %__i, ptr noundef nonnull align 8 dereferenceable(8) %ref.tmp) #3
  br i1 %call4, label %lor.end, label %lor.rhs

lor.rhs:                                          ; preds = %entry
  call void @_ZNKSt3mapIN4cvc58internal12NodeTemplateILb1EEEmSt4lessIS3_ESaISt4pairIKS3_mEEE8key_compEv(ptr noundef nonnull align 8 dereferenceable(48) %this1)
  %1 = load ptr, ptr %__k.addr, align 8
  %call6 = call noundef nonnull align 8 dereferenceable(16) ptr @_ZNKSt17_Rb_tree_iteratorISt4pairIKN4cvc58internal12NodeTemplateILb1EEEmEEdeEv(ptr noundef nonnull align 8 dereferenceable(8) %__i) #3
  %first = getelementptr inbounds %"struct.std::pair.108", ptr %call6, i32 0, i32 0
  %call7 = call noundef zeroext i1 @_ZNKSt4lessIN4cvc58internal12NodeTemplateILb1EEEEclERKS3_S6_(ptr noundef nonnull align 1 dereferenceable(1) %ref.tmp5, ptr noundef nonnull align 8 dereferenceable(8) %1, ptr noundef nonnull align 8 dereferenceable(8) %first)
  br label %lor.end

lor.end:                                          ; preds = %lor.rhs, %entry
  %2 = phi i1 [ true, %entry ], [ %call7, %lor.rhs ]
  br i1 %2, label %if.then, label %if.end

if.then:                                          ; preds = %lor.end
  %_M_t = getelementptr inbounds %"class.std::map.16", ptr %this1, i32 0, i32 0
  call void @_ZNSt23_Rb_tree_const_iteratorISt4pairIKN4cvc58internal12NodeTemplateILb1EEEmEEC2ERKSt17_Rb_tree_iteratorIS6_E(ptr noundef nonnull align 8 dereferenceable(8) %agg.tmp, ptr noundef nonnull align 8 dereferenceable(8) %__i) #3
  %3 = load ptr, ptr %__k.addr, align 8
  call void @_ZNSt5tupleIJRKN4cvc58internal12NodeTemplateILb1EEEEEC2ILb1ETnNSt9enable_ifIXclsr4_TCCIXT_EEE29__is_implicitly_constructibleIS5_EEEbE4typeELb1EEES5_(ptr noundef nonnull align 8 dereferenceable(8) %ref.tmp9, ptr noundef nonnull align 8 dereferenceable(8) %3) #3
  %coerce.dive11 = getelementptr inbounds %"struct.std::_Rb_tree_const_iterator", ptr %agg.tmp, i32 0, i32 0
  %4 = load ptr, ptr %coerce.dive11, align 8
  %call12 = call ptr @_ZNSt8_Rb_treeIN4cvc58internal12NodeTemplateILb1EEESt4pairIKS3_mESt10_Select1stIS6_ESt4lessIS3_ESaIS6_EE22_M_emplace_hint_uniqueIJRKSt21piecewise_construct_tSt5tupleIJRS5_EESH_IJEEEEESt17_Rb_tree_iteratorIS6_ESt23_Rb_tree_const_iteratorIS6_EDpOT_(ptr noundef nonnull align 8 dereferenceable(48) %_M_t, ptr %4, ptr noundef nonnull align 1 dereferenceable(1) @_ZSt19piecewise_construct, ptr noundef nonnull align 8 dereferenceable(8) %ref.tmp9, ptr noundef nonnull align 1 dereferenceable(1) %ref.tmp10)
  %coerce.dive13 = getelementptr inbounds %"struct.std::_Rb_tree_iterator.162", ptr %ref.tmp8, i32 0, i32 0
  store ptr %call12, ptr %coerce.dive13, align 8
  call void @llvm.memcpy.p0.p0.i64(ptr align 8 %__i, ptr align 8 %ref.tmp8, i64 8, i1 false)
  br label %if.end

if.end:                                           ; preds = %if.then, %lor.end
  %call14 = call noundef nonnull align 8 dereferenceable(16) ptr @_ZNKSt17_Rb_tree_iteratorISt4pairIKN4cvc58internal12NodeTemplateILb1EEEmEEdeEv(ptr noundef nonnull align 8 dereferenceable(8) %__i) #3
  %second = getelementptr inbounds %"struct.std::pair.108", ptr %call14, i32 0, i32 1
  ret ptr %second
}

; Function Attrs: mustprogress uwtable
define linkonce_odr hidden void @_ZNSt6vectorIN4cvc58internal12NodeTemplateILb1EEESaIS3_EE9push_backERKS3_(ptr noundef nonnull align 8 dereferenceable(24) %this, ptr noundef nonnull align 8 dereferenceable(8) %__x) #5 comdat align 2 {
entry:
  %this.addr = alloca ptr, align 8
  %__x.addr = alloca ptr, align 8
  %agg.tmp = alloca %"class.__gnu_cxx::__normal_iterator.126", align 8
  store ptr %this, ptr %this.addr, align 8
  store ptr %__x, ptr %__x.addr, align 8
  %this1 = load ptr, ptr %this.addr, align 8
  %_M_impl = getelementptr inbounds %"struct.std::_Vector_base.32", ptr %this1, i32 0, i32 0
  %_M_finish = getelementptr inbounds %"struct.std::_Vector_base<cvc5::internal::NodeTemplate<true>, std::allocator<cvc5::internal::NodeTemplate<true>>>::_Vector_impl_data", ptr %_M_impl, i32 0, i32 1
  %0 = load ptr, ptr %_M_finish, align 8
  %_M_impl2 = getelementptr inbounds %"struct.std::_Vector_base.32", ptr %this1, i32 0, i32 0
  %_M_end_of_storage = getelementptr inbounds %"struct.std::_Vector_base<cvc5::internal::NodeTemplate<true>, std::allocator<cvc5::internal::NodeTemplate<true>>>::_Vector_impl_data", ptr %_M_impl2, i32 0, i32 2
  %1 = load ptr, ptr %_M_end_of_storage, align 8
  %cmp = icmp ne ptr %0, %1
  br i1 %cmp, label %if.then, label %if.else

if.then:                                          ; preds = %entry
  %_M_impl3 = getelementptr inbounds %"struct.std::_Vector_base.32", ptr %this1, i32 0, i32 0
  %_M_impl4 = getelementptr inbounds %"struct.std::_Vector_base.32", ptr %this1, i32 0, i32 0
  %_M_finish5 = getelementptr inbounds %"struct.std::_Vector_base<cvc5::internal::NodeTemplate<true>, std::allocator<cvc5::internal::NodeTemplate<true>>>::_Vector_impl_data", ptr %_M_impl4, i32 0, i32 1
  %2 = load ptr, ptr %_M_finish5, align 8
  %3 = load ptr, ptr %__x.addr, align 8
  call void @_ZNSt16allocator_traitsISaIN4cvc58internal12NodeTemplateILb1EEEEE9constructIS3_JRKS3_EEEvRS4_PT_DpOT0_(ptr noundef nonnull align 1 dereferenceable(1) %_M_impl3, ptr noundef %2, ptr noundef nonnull align 8 dereferenceable(8) %3)
  %_M_impl6 = getelementptr inbounds %"struct.std::_Vector_base.32", ptr %this1, i32 0, i32 0
  %_M_finish7 = getelementptr inbounds %"struct.std::_Vector_base<cvc5::internal::NodeTemplate<true>, std::allocator<cvc5::internal::NodeTemplate<true>>>::_Vector_impl_data", ptr %_M_impl6, i32 0, i32 1
  %4 = load ptr, ptr %_M_finish7, align 8
  %incdec.ptr = getelementptr inbounds %"class.cvc5::internal::NodeTemplate", ptr %4, i32 1
  store ptr %incdec.ptr, ptr %_M_finish7, align 8
  br label %if.end

if.else:                                          ; preds = %entry
  %call = call ptr @_ZNSt6vectorIN4cvc58internal12NodeTemplateILb1EEESaIS3_EE3endEv(ptr noundef nonnull align 8 dereferenceable(24) %this1) #3
  %coerce.dive = getelementptr inbounds %"class.__gnu_cxx::__normal_iterator.126", ptr %agg.tmp, i32 0, i32 0
  store ptr %call, ptr %coerce.dive, align 8
  %5 = load ptr, ptr %__x.addr, align 8
  %coerce.dive8 = getelementptr inbounds %"class.__gnu_cxx::__normal_iterator.126", ptr %agg.tmp, i32 0, i32 0
  %6 = load ptr, ptr %coerce.dive8, align 8
  call void @_ZNSt6vectorIN4cvc58internal12NodeTemplateILb1EEESaIS3_EE17_M_realloc_insertIJRKS3_EEEvN9__gnu_cxx17__normal_iteratorIPS3_S5_EEDpOT_(ptr noundef nonnull align 8 dereferenceable(24) %this1, ptr %6, ptr noundef nonnull align 8 dereferenceable(8) %5)
  br label %if.end

if.end:                                           ; preds = %if.else, %if.then
  ret void
}

; Function Attrs: mustprogress nounwind uwtable
define linkonce_odr hidden noundef nonnull align 8 dereferenceable(8) ptr @_ZNSt6vectorIN4cvc58internal12NodeTemplateILb1EEESaIS3_EEixEm(ptr noundef nonnull align 8 dereferenceable(24) %this, i64 noundef %__n) #4 comdat align 2 {
entry:
  %this.addr = alloca ptr, align 8
  %__n.addr = alloca i64, align 8
  store ptr %this, ptr %this.addr, align 8
  store i64 %__n, ptr %__n.addr, align 8
  %this1 = load ptr, ptr %this.addr, align 8
  %_M_impl = getelementptr inbounds %"struct.std::_Vector_base.32", ptr %this1, i32 0, i32 0
  %_M_start = getelementptr inbounds %"struct.std::_Vector_base<cvc5::internal::NodeTemplate<true>, std::allocator<cvc5::internal::NodeTemplate<true>>>::_Vector_impl_data", ptr %_M_impl, i32 0, i32 0
  %0 = load ptr, ptr %_M_start, align 8
  %1 = load i64, ptr %__n.addr, align 8
  %add.ptr = getelementptr inbounds %"class.cvc5::internal::NodeTemplate", ptr %0, i64 %1
  ret ptr %add.ptr
}

; Function Attrs: mustprogress nounwind uwtable
define linkonce_odr hidden void @_ZNSt4pairIN4cvc58internal8TypeNodeEjED2Ev(ptr noundef nonnull align 8 dereferenceable(12) %this) unnamed_addr #4 comdat align 2 {
entry:
  %this.addr = alloca ptr, align 8
  store ptr %this, ptr %this.addr, align 8
  %this1 = load ptr, ptr %this.addr, align 8
  %first = getelementptr inbounds %"struct.std::pair.28", ptr %this1, i32 0, i32 0
  call void @_ZN4cvc58internal8TypeNodeD2Ev(ptr noundef nonnull align 8 dereferenceable(8) %first) #3
  ret void
}

; Function Attrs: mustprogress uwtable
define hidden noundef i32 @_ZN4cvc58internal4expr12TermCanonize12getTypeClassENS0_12NodeTemplateILb0EEE(ptr noundef nonnull align 8 dereferenceable(216) %this, ptr noundef %v) #5 align 2 personality ptr @__gxx_personality_v0 {
entry:
  %retval = alloca i32, align 4
  %this.addr = alloca ptr, align 8
  %v.indirect_addr = alloca ptr, align 8
  %agg.tmp = alloca %"class.cvc5::internal::NodeTemplate.107", align 8
  %cleanup.cond = alloca i1, align 1
  %exn.slot = alloca ptr, align 8
  %ehselector.slot = alloca i32, align 4
  store ptr %this, ptr %this.addr, align 8
  store ptr %v, ptr %v.indirect_addr, align 8
  %this1 = load ptr, ptr %this.addr, align 8
  %d_tcc = getelementptr inbounds %"class.cvc5::internal::expr::TermCanonize", ptr %this1, i32 0, i32 0
  %0 = load ptr, ptr %d_tcc, align 8
  %cmp = icmp eq ptr %0, null
  store i1 false, ptr %cleanup.cond, align 1
  br i1 %cmp, label %cond.true, label %cond.false

cond.true:                                        ; preds = %entry
  br label %cond.end

cond.false:                                       ; preds = %entry
  %d_tcc2 = getelementptr inbounds %"class.cvc5::internal::expr::TermCanonize", ptr %this1, i32 0, i32 0
  %1 = load ptr, ptr %d_tcc2, align 8
  call void @_ZN4cvc58internal12NodeTemplateILb0EEC2ERKS2_(ptr noundef nonnull align 8 dereferenceable(8) %agg.tmp, ptr noundef nonnull align 8 dereferenceable(8) %v)
  store i1 true, ptr %cleanup.cond, align 1
  %vtable = load ptr, ptr %1, align 8
  %vfn = getelementptr inbounds ptr, ptr %vtable, i64 2
  %2 = load ptr, ptr %vfn, align 8
  %call = invoke noundef i32 %2(ptr noundef nonnull align 8 dereferenceable(8) %1, ptr noundef %agg.tmp)
          to label %invoke.cont unwind label %lpad

invoke.cont:                                      ; preds = %cond.false
  br label %cond.end

cond.end:                                         ; preds = %invoke.cont, %cond.true
  %cond = phi i32 [ 0, %cond.true ], [ %call, %invoke.cont ]
  store i32 %cond, ptr %retval, align 4
  %cleanup.is_active = load i1, ptr %cleanup.cond, align 1
  br i1 %cleanup.is_active, label %cleanup.action, label %cleanup.done

cleanup.action:                                   ; preds = %cond.end
  call void @_ZN4cvc58internal12NodeTemplateILb0EED2Ev(ptr noundef nonnull align 8 dereferenceable(8) %agg.tmp) #3
  br label %cleanup.done

cleanup.done:                                     ; preds = %cleanup.action, %cond.end
  %3 = load i32, ptr %retval, align 4
  ret i32 %3

lpad:                                             ; preds = %cond.false
  %4 = landingpad { ptr, i32 }
          cleanup
  %5 = extractvalue { ptr, i32 } %4, 0
  store ptr %5, ptr %exn.slot, align 8
  %6 = extractvalue { ptr, i32 } %4, 1
  store i32 %6, ptr %ehselector.slot, align 4
  %cleanup.is_active3 = load i1, ptr %cleanup.cond, align 1
  br i1 %cleanup.is_active3, label %cleanup.action4, label %cleanup.done5

cleanup.action4:                                  ; preds = %lpad
  call void @_ZN4cvc58internal12NodeTemplateILb0EED2Ev(ptr noundef nonnull align 8 dereferenceable(8) %agg.tmp) #3
  br label %cleanup.done5

cleanup.done5:                                    ; preds = %cleanup.action4, %lpad
  br label %eh.resume

eh.resume:                                        ; preds = %cleanup.done5
  %exn = load ptr, ptr %exn.slot, align 8
  %sel = load i32, ptr %ehselector.slot, align 4
  %lpad.val = insertvalue { ptr, i32 } poison, ptr %exn, 0
  %lpad.val6 = insertvalue { ptr, i32 } %lpad.val, i32 %sel, 1
  resume { ptr, i32 } %lpad.val6
}

; Function Attrs: mustprogress nounwind uwtable
define linkonce_odr hidden void @_ZN4cvc58internal12NodeTemplateILb0EEC2ERKS2_(ptr noundef nonnull align 8 dereferenceable(8) %this, ptr noundef nonnull align 8 dereferenceable(8) %e) unnamed_addr #4 comdat align 2 {
entry:
  %this.addr = alloca ptr, align 8
  %e.addr = alloca ptr, align 8
  store ptr %this, ptr %this.addr, align 8
  store ptr %e, ptr %e.addr, align 8
  %this1 = load ptr, ptr %this.addr, align 8
  %0 = load ptr, ptr %e.addr, align 8
  %d_nv = getelementptr inbounds %"class.cvc5::internal::NodeTemplate.107", ptr %0, i32 0, i32 0
  %1 = load ptr, ptr %d_nv, align 8
  %d_nv2 = getelementptr inbounds %"class.cvc5::internal::NodeTemplate.107", ptr %this1, i32 0, i32 0
  store ptr %1, ptr %d_nv2, align 8
  ret void
}

; Function Attrs: mustprogress nounwind uwtable
define linkonce_odr hidden void @_ZN4cvc58internal12NodeTemplateILb0EED2Ev(ptr noundef nonnull align 8 dereferenceable(8) %this) unnamed_addr #4 comdat align 2 {
entry:
  %this.addr = alloca ptr, align 8
  store ptr %this, ptr %this.addr, align 8
  ret void
}

; Function Attrs: mustprogress uwtable
define hidden noundef i64 @_ZNK4cvc58internal4expr12TermCanonize23getIndexForFreeVariableENS0_12NodeTemplateILb1EEE(ptr noundef nonnull align 8 dereferenceable(216) %this, ptr noundef %v) #5 align 2 {
entry:
  %retval = alloca i64, align 8
  %this.addr = alloca ptr, align 8
  %v.indirect_addr = alloca ptr, align 8
  %it = alloca %"struct.std::_Rb_tree_const_iterator", align 8
  %ref.tmp = alloca %"struct.std::_Rb_tree_const_iterator", align 8
  store ptr %this, ptr %this.addr, align 8
  store ptr %v, ptr %v.indirect_addr, align 8
  %this1 = load ptr, ptr %this.addr, align 8
  %d_fvIndex = getelementptr inbounds %"class.cvc5::internal::expr::TermCanonize", ptr %this1, i32 0, i32 6
  %call = call ptr @_ZNKSt3mapIN4cvc58internal12NodeTemplateILb1EEEmSt4lessIS3_ESaISt4pairIKS3_mEEE4findERS7_(ptr noundef nonnull align 8 dereferenceable(48) %d_fvIndex, ptr noundef nonnull align 8 dereferenceable(8) %v)
  %coerce.dive = getelementptr inbounds %"struct.std::_Rb_tree_const_iterator", ptr %it, i32 0, i32 0
  store ptr %call, ptr %coerce.dive, align 8
  %d_fvIndex2 = getelementptr inbounds %"class.cvc5::internal::expr::TermCanonize", ptr %this1, i32 0, i32 6
  %call3 = call ptr @_ZNKSt3mapIN4cvc58internal12NodeTemplateILb1EEEmSt4lessIS3_ESaISt4pairIKS3_mEEE3endEv(ptr noundef nonnull align 8 dereferenceable(48) %d_fvIndex2) #3
  %coerce.dive4 = getelementptr inbounds %"struct.std::_Rb_tree_const_iterator", ptr %ref.tmp, i32 0, i32 0
  store ptr %call3, ptr %coerce.dive4, align 8
  %call5 = call noundef zeroext i1 @_ZSteqRKSt23_Rb_tree_const_iteratorISt4pairIKN4cvc58internal12NodeTemplateILb1EEEmEES9_(ptr noundef nonnull align 8 dereferenceable(8) %it, ptr noundef nonnull align 8 dereferenceable(8) %ref.tmp) #3
  br i1 %call5, label %if.then, label %if.end

if.then:                                          ; preds = %entry
  store i64 0, ptr %retval, align 8
  br label %return

if.end:                                           ; preds = %entry
  %call6 = call noundef ptr @_ZNKSt23_Rb_tree_const_iteratorISt4pairIKN4cvc58internal12NodeTemplateILb1EEEmEEptEv(ptr noundef nonnull align 8 dereferenceable(8) %it) #3
  %second = getelementptr inbounds %"struct.std::pair.108", ptr %call6, i32 0, i32 1
  %0 = load i64, ptr %second, align 8
  store i64 %0, ptr %retval, align 8
  br label %return

return:                                           ; preds = %if.end, %if.then
  %1 = load i64, ptr %retval, align 8
  ret i64 %1
}

; Function Attrs: mustprogress uwtable
define linkonce_odr hidden ptr @_ZNKSt3mapIN4cvc58internal12NodeTemplateILb1EEEmSt4lessIS3_ESaISt4pairIKS3_mEEE4findERS7_(ptr noundef nonnull align 8 dereferenceable(48) %this, ptr noundef nonnull align 8 dereferenceable(8) %__x) #5 comdat align 2 {
entry:
  %retval = alloca %"struct.std::_Rb_tree_const_iterator", align 8
  %this.addr = alloca ptr, align 8
  %__x.addr = alloca ptr, align 8
  store ptr %this, ptr %this.addr, align 8
  store ptr %__x, ptr %__x.addr, align 8
  %this1 = load ptr, ptr %this.addr, align 8
  %_M_t = getelementptr inbounds %"class.std::map.16", ptr %this1, i32 0, i32 0
  %0 = load ptr, ptr %__x.addr, align 8
  %call = call ptr @_ZNKSt8_Rb_treeIN4cvc58internal12NodeTemplateILb1EEESt4pairIKS3_mESt10_Select1stIS6_ESt4lessIS3_ESaIS6_EE4findERS5_(ptr noundef nonnull align 8 dereferenceable(48) %_M_t, ptr noundef nonnull align 8 dereferenceable(8) %0)
  %coerce.dive = getelementptr inbounds %"struct.std::_Rb_tree_const_iterator", ptr %retval, i32 0, i32 0
  store ptr %call, ptr %coerce.dive, align 8
  %coerce.dive2 = getelementptr inbounds %"struct.std::_Rb_tree_const_iterator", ptr %retval, i32 0, i32 0
  %1 = load ptr, ptr %coerce.dive2, align 8
  ret ptr %1
}

; Function Attrs: mustprogress nounwind uwtable
define linkonce_odr noundef zeroext i1 @_ZSteqRKSt23_Rb_tree_const_iteratorISt4pairIKN4cvc58internal12NodeTemplateILb1EEEmEES9_(ptr noundef nonnull align 8 dereferenceable(8) %__x, ptr noundef nonnull align 8 dereferenceable(8) %__y) #4 comdat {
entry:
  %__x.addr = alloca ptr, align 8
  %__y.addr = alloca ptr, align 8
  store ptr %__x, ptr %__x.addr, align 8
  store ptr %__y, ptr %__y.addr, align 8
  %0 = load ptr, ptr %__x.addr, align 8
  %_M_node = getelementptr inbounds %"struct.std::_Rb_tree_const_iterator", ptr %0, i32 0, i32 0
  %1 = load ptr, ptr %_M_node, align 8
  %2 = load ptr, ptr %__y.addr, align 8
  %_M_node1 = getelementptr inbounds %"struct.std::_Rb_tree_const_iterator", ptr %2, i32 0, i32 0
  %3 = load ptr, ptr %_M_node1, align 8
  %cmp = icmp eq ptr %1, %3
  ret i1 %cmp
}

; Function Attrs: mustprogress nounwind uwtable
define linkonce_odr hidden ptr @_ZNKSt3mapIN4cvc58internal12NodeTemplateILb1EEEmSt4lessIS3_ESaISt4pairIKS3_mEEE3endEv(ptr noundef nonnull align 8 dereferenceable(48) %this) #4 comdat align 2 {
entry:
  %retval = alloca %"struct.std::_Rb_tree_const_iterator", align 8
  %this.addr = alloca ptr, align 8
  store ptr %this, ptr %this.addr, align 8
  %this1 = load ptr, ptr %this.addr, align 8
  %_M_t = getelementptr inbounds %"class.std::map.16", ptr %this1, i32 0, i32 0
  %call = call ptr @_ZNKSt8_Rb_treeIN4cvc58internal12NodeTemplateILb1EEESt4pairIKS3_mESt10_Select1stIS6_ESt4lessIS3_ESaIS6_EE3endEv(ptr noundef nonnull align 8 dereferenceable(48) %_M_t) #3
  %coerce.dive = getelementptr inbounds %"struct.std::_Rb_tree_const_iterator", ptr %retval, i32 0, i32 0
  store ptr %call, ptr %coerce.dive, align 8
  %coerce.dive2 = getelementptr inbounds %"struct.std::_Rb_tree_const_iterator", ptr %retval, i32 0, i32 0
  %0 = load ptr, ptr %coerce.dive2, align 8
  ret ptr %0
}

; Function Attrs: mustprogress nounwind uwtable
define linkonce_odr hidden noundef ptr @_ZNKSt23_Rb_tree_const_iteratorISt4pairIKN4cvc58internal12NodeTemplateILb1EEEmEEptEv(ptr noundef nonnull align 8 dereferenceable(8) %this) #4 comdat align 2 {
entry:
  %this.addr = alloca ptr, align 8
  store ptr %this, ptr %this.addr, align 8
  %this1 = load ptr, ptr %this.addr, align 8
  %_M_node = getelementptr inbounds %"struct.std::_Rb_tree_const_iterator", ptr %this1, i32 0, i32 0
  %0 = load ptr, ptr %_M_node, align 8
  %call = call noundef ptr @_ZNKSt13_Rb_tree_nodeISt4pairIKN4cvc58internal12NodeTemplateILb1EEEmEE9_M_valptrEv(ptr noundef nonnull align 8 dereferenceable(48) %0)
  ret ptr %call
}

; Function Attrs: mustprogress uwtable
define hidden void @_ZN4cvc58internal4expr12TermCanonize16getCanonicalTermENS0_12NodeTemplateILb0EEEbbRSt3mapISt4pairINS0_8TypeNodeEjEjSt4lessIS8_ESaIS6_IKS8_jEEERS5_IS4_NS3_ILb1EEES9_IS4_ESaIS6_IKS4_SG_EEE(ptr noalias sret(%"class.cvc5::internal::NodeTemplate") align 8 %agg.result, ptr noundef nonnull align 8 dereferenceable(216) %this, ptr noundef %n, i1 noundef zeroext %apply_torder, i1 noundef zeroext %doHoVar, ptr noundef nonnull align 8 dereferenceable(48) %var_count, ptr noundef nonnull align 8 dereferenceable(48) %visited) #5 align 2 personality ptr @__gxx_personality_v0 {
entry:
  %result.ptr = alloca ptr, align 8
  %this.addr = alloca ptr, align 8
  %n.indirect_addr = alloca ptr, align 8
  %apply_torder.addr = alloca i8, align 1
  %doHoVar.addr = alloca i8, align 1
  %var_count.addr = alloca ptr, align 8
  %visited.addr = alloca ptr, align 8
  %it = alloca %"struct.std::_Rb_tree_iterator.110", align 8
  %ref.tmp = alloca %"struct.std::_Rb_tree_iterator.110", align 8
  %ref.tmp7 = alloca %"class.cvc5::internal::__cvc5_true", align 1
  %tmp = alloca %"class.cvc5::internal::Cvc5ostream", align 8
  %agg.tmp.ensured = alloca %"class.cvc5::internal::Cvc5ostream", align 8
  %ref.tmp9 = alloca %"class.cvc5::internal::Cvc5ostream", align 8
  %tc = alloca i32, align 4
  %agg.tmp = alloca %"class.cvc5::internal::NodeTemplate.107", align 8
  %exn.slot = alloca ptr, align 8
  %ehselector.slot = alloca i32, align 4
  %tn = alloca %"class.cvc5::internal::TypeNode", align 8
  %key = alloca %"struct.std::pair.28", align 8
  %vn = alloca i32, align 4
  %nrvo = alloca i1, align 1
  %agg.tmp23 = alloca %"class.cvc5::internal::TypeNode", align 8
  %ref.tmp32 = alloca %"class.cvc5::internal::__cvc5_true", align 1
  %tmp36 = alloca %"class.cvc5::internal::Cvc5ostream", align 8
  %agg.tmp.ensured39 = alloca %"class.cvc5::internal::Cvc5ostream", align 8
  %ref.tmp40 = alloca %"class.cvc5::internal::Cvc5ostream", align 8
  %ref.tmp53 = alloca %"class.cvc5::internal::__cvc5_true", align 1
  %tmp56 = alloca %"class.cvc5::internal::Cvc5ostream", align 8
  %agg.tmp.ensured58 = alloca %"class.cvc5::internal::Cvc5ostream", align 8
  %ref.tmp59 = alloca %"class.cvc5::internal::Cvc5ostream", align 8
  %cchildren = alloca %"class.std::vector.31", align 8
  %__range4 = alloca ptr, align 8
  %__begin4 = alloca %"class.cvc5::internal::expr::NodeValue::iterator", align 8
  %__end4 = alloca %"class.cvc5::internal::expr::NodeValue::iterator", align 8
  %cn = alloca ptr, align 8
  %ref.tmp72 = alloca %"class.cvc5::internal::NodeTemplate", align 8
  %ref.tmp73 = alloca %"class.cvc5::internal::NodeTemplate.107", align 8
  %ref.tmp88 = alloca %"class.cvc5::internal::__cvc5_true", align 1
  %tmp92 = alloca %"class.cvc5::internal::Cvc5ostream", align 8
  %agg.tmp.ensured95 = alloca %"class.cvc5::internal::Cvc5ostream", align 8
  %ref.tmp96 = alloca %"class.cvc5::internal::Cvc5ostream", align 8
  %ref.tmp100 = alloca i32, align 4
  %sto = alloca %"struct.cvc5::internal::expr::sortTermOrder", align 8
  %agg.tmp108 = alloca %"class.__gnu_cxx::__normal_iterator.126", align 8
  %agg.tmp111 = alloca %"class.__gnu_cxx::__normal_iterator.126", align 8
  %agg.tmp114 = alloca %"struct.cvc5::internal::expr::sortTermOrder", align 8
  %ref.tmp120 = alloca %"class.cvc5::internal::__cvc5_true", align 1
  %tmp124 = alloca %"class.cvc5::internal::Cvc5ostream", align 8
  %agg.tmp.ensured127 = alloca %"class.cvc5::internal::Cvc5ostream", align 8
  %ref.tmp128 = alloca %"class.cvc5::internal::Cvc5ostream", align 8
  %i = alloca i32, align 4
  %size = alloca i32, align 4
  %ref.tmp140 = alloca %"class.cvc5::internal::NodeTemplate", align 8
  %agg.tmp141 = alloca %"class.cvc5::internal::NodeTemplate.107", align 8
  %op = alloca %"class.cvc5::internal::NodeTemplate", align 8
  %ref.tmp166 = alloca %"class.cvc5::internal::NodeTemplate", align 8
  %agg.tmp167 = alloca %"class.cvc5::internal::NodeTemplate.107", align 8
  %ref.tmp180 = alloca %"class.cvc5::internal::__cvc5_true", align 1
  %tmp184 = alloca %"class.cvc5::internal::Cvc5ostream", align 8
  %agg.tmp.ensured187 = alloca %"class.cvc5::internal::Cvc5ostream", align 8
  %ref.tmp188 = alloca %"class.cvc5::internal::Cvc5ostream", align 8
  %agg.tmp197 = alloca %"class.__gnu_cxx::__normal_iterator.127", align 8
  %ref.tmp198 = alloca %"class.__gnu_cxx::__normal_iterator.126", align 8
  %coerce = alloca %"class.__gnu_cxx::__normal_iterator.126", align 8
  %ref.tmp207 = alloca %"class.cvc5::internal::__cvc5_true", align 1
  %tmp211 = alloca %"class.cvc5::internal::Cvc5ostream", align 8
  %agg.tmp.ensured214 = alloca %"class.cvc5::internal::Cvc5ostream", align 8
  %ref.tmp215 = alloca %"class.cvc5::internal::Cvc5ostream", align 8
  %nrvo226 = alloca i1, align 1
  %ref.tmp232 = alloca %"class.cvc5::internal::__cvc5_true", align 1
  %tmp237 = alloca %"class.cvc5::internal::Cvc5ostream", align 8
  %agg.tmp.ensured240 = alloca %"class.cvc5::internal::Cvc5ostream", align 8
  %ref.tmp241 = alloca %"class.cvc5::internal::Cvc5ostream", align 8
  %ref.tmp267 = alloca %"class.cvc5::internal::__cvc5_true", align 1
  %tmp270 = alloca %"class.cvc5::internal::Cvc5ostream", align 8
  %agg.tmp.ensured272 = alloca %"class.cvc5::internal::Cvc5ostream", align 8
  %ref.tmp273 = alloca %"class.cvc5::internal::Cvc5ostream", align 8
  store ptr %agg.result, ptr %result.ptr, align 8
  store ptr %this, ptr %this.addr, align 8
  store ptr %n, ptr %n.indirect_addr, align 8
  %frombool = zext i1 %apply_torder to i8
  store i8 %frombool, ptr %apply_torder.addr, align 1
  %frombool1 = zext i1 %doHoVar to i8
  store i8 %frombool1, ptr %doHoVar.addr, align 1
  store ptr %var_count, ptr %var_count.addr, align 8
  store ptr %visited, ptr %visited.addr, align 8
  %this2 = load ptr, ptr %this.addr, align 8
  %0 = load ptr, ptr %visited.addr, align 8
  %call = call ptr @_ZNSt3mapIN4cvc58internal12NodeTemplateILb0EEENS2_ILb1EEESt4lessIS3_ESaISt4pairIKS3_S4_EEE4findERS8_(ptr noundef nonnull align 8 dereferenceable(48) %0, ptr noundef nonnull align 8 dereferenceable(8) %n)
  %coerce.dive = getelementptr inbounds %"struct.std::_Rb_tree_iterator.110", ptr %it, i32 0, i32 0
  store ptr %call, ptr %coerce.dive, align 8
  %1 = load ptr, ptr %visited.addr, align 8
  %call3 = call ptr @_ZNSt3mapIN4cvc58internal12NodeTemplateILb0EEENS2_ILb1EEESt4lessIS3_ESaISt4pairIKS3_S4_EEE3endEv(ptr noundef nonnull align 8 dereferenceable(48) %1) #3
  %coerce.dive4 = getelementptr inbounds %"struct.std::_Rb_tree_iterator.110", ptr %ref.tmp, i32 0, i32 0
  store ptr %call3, ptr %coerce.dive4, align 8
  %call5 = call noundef zeroext i1 @_ZStneRKSt17_Rb_tree_iteratorISt4pairIKN4cvc58internal12NodeTemplateILb0EEENS3_ILb1EEEEESA_(ptr noundef nonnull align 8 dereferenceable(8) %it, ptr noundef nonnull align 8 dereferenceable(8) %ref.tmp) #3
  br i1 %call5, label %if.then, label %if.end

if.then:                                          ; preds = %entry
  %call6 = call noundef ptr @_ZNKSt17_Rb_tree_iteratorISt4pairIKN4cvc58internal12NodeTemplateILb0EEENS3_ILb1EEEEEptEv(ptr noundef nonnull align 8 dereferenceable(8) %it) #3
  %second = getelementptr inbounds %"struct.std::pair.119", ptr %call6, i32 0, i32 1
  call void @_ZN4cvc58internal12NodeTemplateILb1EEC2ERKS2_(ptr noundef nonnull align 8 dereferenceable(8) %agg.result, ptr noundef nonnull align 8 dereferenceable(8) %second)
  br label %return

if.end:                                           ; preds = %entry
  %call8 = call noundef zeroext i1 @_ZN4cvc58internal11__cvc5_truecvbEv(ptr noundef nonnull align 1 dereferenceable(1) %ref.tmp7)
  br i1 %call8, label %cond.true, label %cond.false

cond.true:                                        ; preds = %if.end
  call void @_ZNK4cvc58internal5NullCcvNS0_11Cvc5ostreamEEv(ptr sret(%"class.cvc5::internal::Cvc5ostream") align 8 %tmp, ptr noundef nonnull align 1 dereferenceable(1) @_ZN4cvc58internal10nullStreamE)
  br label %cond.end

cond.false:                                       ; preds = %if.end
  call void @_ZNK4cvc58internal6TraceCclEv(ptr sret(%"class.cvc5::internal::Cvc5ostream") align 8 %ref.tmp9, ptr noundef nonnull align 8 dereferenceable(32) @_ZN4cvc58internal12TraceChannelE)
  %call10 = call noundef nonnull align 8 dereferenceable(24) ptr @_ZN4cvc58internal11Cvc5ostreamlsIA24_cEERS1_RKT_(ptr noundef nonnull align 8 dereferenceable(24) %ref.tmp9, ptr noundef nonnull align 1 dereferenceable(24) @.str.2)
  %call11 = call noundef nonnull align 8 dereferenceable(24) ptr @_ZN4cvc58internal11Cvc5ostreamlsINS0_12NodeTemplateILb0EEEEERS1_RKT_(ptr noundef nonnull align 8 dereferenceable(24) %call10, ptr noundef nonnull align 8 dereferenceable(8) %n)
  %call12 = call noundef nonnull align 8 dereferenceable(24) ptr @_ZN4cvc58internal11Cvc5ostreamlsEPFRSoS2_E(ptr noundef nonnull align 8 dereferenceable(24) %call11, ptr noundef @_ZSt4endlIcSt11char_traitsIcEERSt13basic_ostreamIT_T0_ES6_)
  call void @llvm.memcpy.p0.p0.i64(ptr align 8 %agg.tmp.ensured, ptr align 8 %call12, i64 24, i1 false)
  br label %cond.end

cond.end:                                         ; preds = %cond.false, %cond.true
  %call13 = call noundef i32 @_ZNK4cvc58internal12NodeTemplateILb0EE7getKindEv(ptr noundef nonnull align 8 dereferenceable(8) %n)
  %cmp = icmp eq i32 %call13, 8
  br i1 %cmp, label %if.then14, label %if.else

if.then14:                                        ; preds = %cond.end
  call void @_ZN4cvc58internal12NodeTemplateILb0EEC2ERKS2_(ptr noundef nonnull align 8 dereferenceable(8) %agg.tmp, ptr noundef nonnull align 8 dereferenceable(8) %n)
  %call15 = invoke noundef i32 @_ZN4cvc58internal4expr12TermCanonize12getTypeClassENS0_12NodeTemplateILb0EEE(ptr noundef nonnull align 8 dereferenceable(216) %this2, ptr noundef %agg.tmp)
          to label %invoke.cont unwind label %lpad

invoke.cont:                                      ; preds = %if.then14
  call void @_ZN4cvc58internal12NodeTemplateILb0EED2Ev(ptr noundef nonnull align 8 dereferenceable(8) %agg.tmp) #3
  store i32 %call15, ptr %tc, align 4
  call void @_ZNK4cvc58internal12NodeTemplateILb0EE7getTypeEb(ptr sret(%"class.cvc5::internal::TypeNode") align 8 %tn, ptr noundef nonnull align 8 dereferenceable(8) %n, i1 noundef zeroext false)
  invoke void @_ZNSt4pairIN4cvc58internal8TypeNodeEjEC2IRS2_RjTnNSt9enable_ifIXaaclsr5_PCCPE22_MoveConstructiblePairIT_T0_EEclsr5_PCCPE30_ImplicitlyMoveConvertiblePairIS8_S9_EEEbE4typeELb1EEEOS8_OS9_(ptr noundef nonnull align 8 dereferenceable(12) %key, ptr noundef nonnull align 8 dereferenceable(8) %tn, ptr noundef nonnull align 4 dereferenceable(4) %tc)
          to label %invoke.cont17 unwind label %lpad16

invoke.cont17:                                    ; preds = %invoke.cont
  %2 = load ptr, ptr %var_count.addr, align 8
  %call20 = invoke noundef nonnull align 4 dereferenceable(4) ptr @_ZNSt3mapISt4pairIN4cvc58internal8TypeNodeEjEjSt4lessIS4_ESaIS0_IKS4_jEEEixERS7_(ptr noundef nonnull align 8 dereferenceable(48) %2, ptr noundef nonnull align 8 dereferenceable(12) %key)
          to label %invoke.cont19 unwind label %lpad18

invoke.cont19:                                    ; preds = %invoke.cont17
  %3 = load i32, ptr %call20, align 4
  store i32 %3, ptr %vn, align 4
  %4 = load ptr, ptr %var_count.addr, align 8
  %call22 = invoke noundef nonnull align 4 dereferenceable(4) ptr @_ZNSt3mapISt4pairIN4cvc58internal8TypeNodeEjEjSt4lessIS4_ESaIS0_IKS4_jEEEixERS7_(ptr noundef nonnull align 8 dereferenceable(48) %4, ptr noundef nonnull align 8 dereferenceable(12) %key)
          to label %invoke.cont21 unwind label %lpad18

invoke.cont21:                                    ; preds = %invoke.cont19
  %5 = load i32, ptr %call22, align 4
  %inc = add i32 %5, 1
  store i32 %inc, ptr %call22, align 4
  store i1 false, ptr %nrvo, align 1
  invoke void @_ZN4cvc58internal8TypeNodeC2ERKS1_(ptr noundef nonnull align 8 dereferenceable(8) %agg.tmp23, ptr noundef nonnull align 8 dereferenceable(8) %tn)
          to label %invoke.cont24 unwind label %lpad18

invoke.cont24:                                    ; preds = %invoke.cont21
  %6 = load i32, ptr %vn, align 4
  %conv = zext i32 %6 to i64
  %7 = load i32, ptr %tc, align 4
  invoke void @_ZN4cvc58internal4expr12TermCanonize19getCanonicalFreeVarENS0_8TypeNodeEmj(ptr sret(%"class.cvc5::internal::NodeTemplate") align 8 %agg.result, ptr noundef nonnull align 8 dereferenceable(216) %this2, ptr noundef %agg.tmp23, i64 noundef %conv, i32 noundef %7)
          to label %invoke.cont26 unwind label %lpad25

invoke.cont26:                                    ; preds = %invoke.cont24
  call void @_ZN4cvc58internal8TypeNodeD2Ev(ptr noundef nonnull align 8 dereferenceable(8) %agg.tmp23) #3
  %8 = load ptr, ptr %visited.addr, align 8
  %call29 = invoke noundef nonnull align 8 dereferenceable(8) ptr @_ZNSt3mapIN4cvc58internal12NodeTemplateILb0EEENS2_ILb1EEESt4lessIS3_ESaISt4pairIKS3_S4_EEEixERS8_(ptr noundef nonnull align 8 dereferenceable(48) %8, ptr noundef nonnull align 8 dereferenceable(8) %n)
          to label %invoke.cont28 unwind label %lpad27

invoke.cont28:                                    ; preds = %invoke.cont26
  %call31 = invoke noundef nonnull align 8 dereferenceable(8) ptr @_ZN4cvc58internal12NodeTemplateILb1EEaSERKS2_(ptr noundef nonnull align 8 dereferenceable(8) %call29, ptr noundef nonnull align 8 dereferenceable(8) %agg.result)
          to label %invoke.cont30 unwind label %lpad27

invoke.cont30:                                    ; preds = %invoke.cont28
  %call34 = invoke noundef zeroext i1 @_ZN4cvc58internal11__cvc5_truecvbEv(ptr noundef nonnull align 1 dereferenceable(1) %ref.tmp32)
          to label %invoke.cont33 unwind label %lpad27

invoke.cont33:                                    ; preds = %invoke.cont30
  br i1 %call34, label %cond.true35, label %cond.false38

cond.true35:                                      ; preds = %invoke.cont33
  invoke void @_ZNK4cvc58internal5NullCcvNS0_11Cvc5ostreamEEv(ptr sret(%"class.cvc5::internal::Cvc5ostream") align 8 %tmp36, ptr noundef nonnull align 1 dereferenceable(1) @_ZN4cvc58internal10nullStreamE)
          to label %invoke.cont37 unwind label %lpad27

invoke.cont37:                                    ; preds = %cond.true35
  br label %cond.end48

cond.false38:                                     ; preds = %invoke.cont33
  invoke void @_ZNK4cvc58internal6TraceCclEv(ptr sret(%"class.cvc5::internal::Cvc5ostream") align 8 %ref.tmp40, ptr noundef nonnull align 8 dereferenceable(32) @_ZN4cvc58internal12TraceChannelE)
          to label %invoke.cont41 unwind label %lpad27

invoke.cont41:                                    ; preds = %cond.false38
  %call43 = invoke noundef nonnull align 8 dereferenceable(24) ptr @_ZN4cvc58internal11Cvc5ostreamlsIA22_cEERS1_RKT_(ptr noundef nonnull align 8 dereferenceable(24) %ref.tmp40, ptr noundef nonnull align 1 dereferenceable(22) @.str.3)
          to label %invoke.cont42 unwind label %lpad27

invoke.cont42:                                    ; preds = %invoke.cont41
  %call45 = invoke noundef nonnull align 8 dereferenceable(24) ptr @_ZN4cvc58internal11Cvc5ostreamlsINS0_12NodeTemplateILb1EEEEERS1_RKT_(ptr noundef nonnull align 8 dereferenceable(24) %call43, ptr noundef nonnull align 8 dereferenceable(8) %agg.result)
          to label %invoke.cont44 unwind label %lpad27

invoke.cont44:                                    ; preds = %invoke.cont42
  %call47 = invoke noundef nonnull align 8 dereferenceable(24) ptr @_ZN4cvc58internal11Cvc5ostreamlsEPFRSoS2_E(ptr noundef nonnull align 8 dereferenceable(24) %call45, ptr noundef @_ZSt4endlIcSt11char_traitsIcEERSt13basic_ostreamIT_T0_ES6_)
          to label %invoke.cont46 unwind label %lpad27

invoke.cont46:                                    ; preds = %invoke.cont44
  call void @llvm.memcpy.p0.p0.i64(ptr align 8 %agg.tmp.ensured39, ptr align 8 %call47, i64 24, i1 false)
  br label %cond.end48

cond.end48:                                       ; preds = %invoke.cont46, %invoke.cont37
  store i1 true, ptr %nrvo, align 1
  %nrvo.val = load i1, ptr %nrvo, align 1
  br i1 %nrvo.val, label %nrvo.skipdtor, label %nrvo.unused

lpad:                                             ; preds = %if.then14
  %9 = landingpad { ptr, i32 }
          cleanup
  %10 = extractvalue { ptr, i32 } %9, 0
  store ptr %10, ptr %exn.slot, align 8
  %11 = extractvalue { ptr, i32 } %9, 1
  store i32 %11, ptr %ehselector.slot, align 4
  call void @_ZN4cvc58internal12NodeTemplateILb0EED2Ev(ptr noundef nonnull align 8 dereferenceable(8) %agg.tmp) #3
  br label %eh.resume

lpad16:                                           ; preds = %invoke.cont
  %12 = landingpad { ptr, i32 }
          cleanup
  %13 = extractvalue { ptr, i32 } %12, 0
  store ptr %13, ptr %exn.slot, align 8
  %14 = extractvalue { ptr, i32 } %12, 1
  store i32 %14, ptr %ehselector.slot, align 4
  br label %ehcleanup49

lpad18:                                           ; preds = %invoke.cont21, %invoke.cont19, %invoke.cont17
  %15 = landingpad { ptr, i32 }
          cleanup
  %16 = extractvalue { ptr, i32 } %15, 0
  store ptr %16, ptr %exn.slot, align 8
  %17 = extractvalue { ptr, i32 } %15, 1
  store i32 %17, ptr %ehselector.slot, align 4
  br label %ehcleanup

lpad25:                                           ; preds = %invoke.cont24
  %18 = landingpad { ptr, i32 }
          cleanup
  %19 = extractvalue { ptr, i32 } %18, 0
  store ptr %19, ptr %exn.slot, align 8
  %20 = extractvalue { ptr, i32 } %18, 1
  store i32 %20, ptr %ehselector.slot, align 4
  call void @_ZN4cvc58internal8TypeNodeD2Ev(ptr noundef nonnull align 8 dereferenceable(8) %agg.tmp23) #3
  br label %ehcleanup

lpad27:                                           ; preds = %invoke.cont44, %invoke.cont42, %invoke.cont41, %cond.false38, %cond.true35, %invoke.cont30, %invoke.cont28, %invoke.cont26
  %21 = landingpad { ptr, i32 }
          cleanup
  %22 = extractvalue { ptr, i32 } %21, 0
  store ptr %22, ptr %exn.slot, align 8
  %23 = extractvalue { ptr, i32 } %21, 1
  store i32 %23, ptr %ehselector.slot, align 4
  call void @_ZN4cvc58internal12NodeTemplateILb1EED2Ev(ptr noundef nonnull align 8 dereferenceable(8) %agg.result) #3
  br label %ehcleanup

nrvo.unused:                                      ; preds = %cond.end48
  call void @_ZN4cvc58internal12NodeTemplateILb1EED2Ev(ptr noundef nonnull align 8 dereferenceable(8) %agg.result) #3
  br label %nrvo.skipdtor

nrvo.skipdtor:                                    ; preds = %nrvo.unused, %cond.end48
  call void @_ZNSt4pairIN4cvc58internal8TypeNodeEjED2Ev(ptr noundef nonnull align 8 dereferenceable(12) %key) #3
  call void @_ZN4cvc58internal8TypeNodeD2Ev(ptr noundef nonnull align 8 dereferenceable(8) %tn) #3
  br label %return

ehcleanup:                                        ; preds = %lpad27, %lpad25, %lpad18
  call void @_ZNSt4pairIN4cvc58internal8TypeNodeEjED2Ev(ptr noundef nonnull align 8 dereferenceable(12) %key) #3
  br label %ehcleanup49

ehcleanup49:                                      ; preds = %ehcleanup, %lpad16
  call void @_ZN4cvc58internal8TypeNodeD2Ev(ptr noundef nonnull align 8 dereferenceable(8) %tn) #3
  br label %eh.resume

if.else:                                          ; preds = %cond.end
  %call50 = call noundef i64 @_ZNK4cvc58internal12NodeTemplateILb0EE14getNumChildrenEv(ptr noundef nonnull align 8 dereferenceable(8) %n)
  %cmp51 = icmp ugt i64 %call50, 0
  br i1 %cmp51, label %if.then52, label %if.end265

if.then52:                                        ; preds = %if.else
  %call54 = call noundef zeroext i1 @_ZN4cvc58internal11__cvc5_truecvbEv(ptr noundef nonnull align 1 dereferenceable(1) %ref.tmp53)
  br i1 %call54, label %cond.true55, label %cond.false57

cond.true55:                                      ; preds = %if.then52
  call void @_ZNK4cvc58internal5NullCcvNS0_11Cvc5ostreamEEv(ptr sret(%"class.cvc5::internal::Cvc5ostream") align 8 %tmp56, ptr noundef nonnull align 1 dereferenceable(1) @_ZN4cvc58internal10nullStreamE)
  br label %cond.end62

cond.false57:                                     ; preds = %if.then52
  call void @_ZNK4cvc58internal6TraceCclEv(ptr sret(%"class.cvc5::internal::Cvc5ostream") align 8 %ref.tmp59, ptr noundef nonnull align 8 dereferenceable(32) @_ZN4cvc58internal12TraceChannelE)
  %call60 = call noundef nonnull align 8 dereferenceable(24) ptr @_ZN4cvc58internal11Cvc5ostreamlsIA17_cEERS1_RKT_(ptr noundef nonnull align 8 dereferenceable(24) %ref.tmp59, ptr noundef nonnull align 1 dereferenceable(17) @.str.4)
  %call61 = call noundef nonnull align 8 dereferenceable(24) ptr @_ZN4cvc58internal11Cvc5ostreamlsEPFRSoS2_E(ptr noundef nonnull align 8 dereferenceable(24) %call60, ptr noundef @_ZSt4endlIcSt11char_traitsIcEERSt13basic_ostreamIT_T0_ES6_)
  call void @llvm.memcpy.p0.p0.i64(ptr align 8 %agg.tmp.ensured58, ptr align 8 %call61, i64 24, i1 false)
  br label %cond.end62

cond.end62:                                       ; preds = %cond.false57, %cond.true55
  call void @_ZNSt6vectorIN4cvc58internal12NodeTemplateILb1EEESaIS3_EEC2Ev(ptr noundef nonnull align 8 dereferenceable(24) %cchildren) #3
  store ptr %n, ptr %__range4, align 8
  %24 = load ptr, ptr %__range4, align 8
  %call65 = invoke ptr @_ZN4cvc58internal12NodeTemplateILb0EE5beginEv(ptr noundef nonnull align 8 dereferenceable(8) %24)
          to label %invoke.cont64 unwind label %lpad63

invoke.cont64:                                    ; preds = %cond.end62
  %coerce.dive66 = getelementptr inbounds %"class.cvc5::internal::expr::NodeValue::iterator", ptr %__begin4, i32 0, i32 0
  store ptr %call65, ptr %coerce.dive66, align 8
  %25 = load ptr, ptr %__range4, align 8
  %call68 = invoke ptr @_ZN4cvc58internal12NodeTemplateILb0EE3endEv(ptr noundef nonnull align 8 dereferenceable(8) %25)
          to label %invoke.cont67 unwind label %lpad63

invoke.cont67:                                    ; preds = %invoke.cont64
  %coerce.dive69 = getelementptr inbounds %"class.cvc5::internal::expr::NodeValue::iterator", ptr %__end4, i32 0, i32 0
  store ptr %call68, ptr %coerce.dive69, align 8
  br label %for.cond

for.cond:                                         ; preds = %invoke.cont81, %invoke.cont67
  %call71 = invoke noundef zeroext i1 @_ZNK4cvc58internal4expr9NodeValue8iteratorINS0_12NodeTemplateILb0EEEEneERKS6_(ptr noundef nonnull align 8 dereferenceable(8) %__begin4, ptr noundef nonnull align 8 dereferenceable(8) %__end4)
          to label %invoke.cont70 unwind label %lpad63

invoke.cont70:                                    ; preds = %for.cond
  br i1 %call71, label %for.body, label %for.end

for.body:                                         ; preds = %invoke.cont70
  invoke void @_ZNK4cvc58internal4expr9NodeValue8iteratorINS0_12NodeTemplateILb0EEEEdeEv(ptr sret(%"class.cvc5::internal::NodeTemplate.107") align 8 %ref.tmp73, ptr noundef nonnull align 8 dereferenceable(8) %__begin4)
          to label %invoke.cont74 unwind label %lpad63

invoke.cont74:                                    ; preds = %for.body
  invoke void @_ZN4cvc58internal12NodeTemplateILb1EEC2ERKNS1_ILb0EEE(ptr noundef nonnull align 8 dereferenceable(8) %ref.tmp72, ptr noundef nonnull align 8 dereferenceable(8) %ref.tmp73)
          to label %invoke.cont76 unwind label %lpad75

invoke.cont76:                                    ; preds = %invoke.cont74
  call void @_ZN4cvc58internal12NodeTemplateILb0EED2Ev(ptr noundef nonnull align 8 dereferenceable(8) %ref.tmp73) #3
  store ptr %ref.tmp72, ptr %cn, align 8
  %26 = load ptr, ptr %cn, align 8
  invoke void @_ZNSt6vectorIN4cvc58internal12NodeTemplateILb1EEESaIS3_EE9push_backERKS3_(ptr noundef nonnull align 8 dereferenceable(24) %cchildren, ptr noundef nonnull align 8 dereferenceable(8) %26)
          to label %invoke.cont79 unwind label %lpad78

invoke.cont79:                                    ; preds = %invoke.cont76
  call void @_ZN4cvc58internal12NodeTemplateILb1EED2Ev(ptr noundef nonnull align 8 dereferenceable(8) %ref.tmp72) #3
  br label %for.inc

for.inc:                                          ; preds = %invoke.cont79
  %call82 = invoke noundef nonnull align 8 dereferenceable(8) ptr @_ZN4cvc58internal4expr9NodeValue8iteratorINS0_12NodeTemplateILb0EEEEppEv(ptr noundef nonnull align 8 dereferenceable(8) %__begin4)
          to label %invoke.cont81 unwind label %lpad63

invoke.cont81:                                    ; preds = %for.inc
  br label %for.cond

lpad63:                                           ; preds = %invoke.cont229, %invoke.cont227, %cond.end225, %invoke.cont221, %invoke.cont219, %invoke.cont217, %invoke.cont216, %cond.false213, %cond.true210, %if.end206, %if.then162, %for.end158, %for.body139, %invoke.cont130, %invoke.cont129, %cond.false126, %cond.true123, %if.end119, %cond.end107, %invoke.cont103, %invoke.cont101, %invoke.cont98, %invoke.cont97, %cond.false94, %cond.true91, %if.then87, %invoke.cont83, %land.lhs.true, %for.inc, %for.body, %for.cond, %invoke.cont64, %cond.end62
  %27 = landingpad { ptr, i32 }
          cleanup
  %28 = extractvalue { ptr, i32 } %27, 0
  store ptr %28, ptr %exn.slot, align 8
  %29 = extractvalue { ptr, i32 } %27, 1
  store i32 %29, ptr %ehselector.slot, align 4
  br label %ehcleanup264

lpad75:                                           ; preds = %invoke.cont74
  %30 = landingpad { ptr, i32 }
          cleanup
  %31 = extractvalue { ptr, i32 } %30, 0
  store ptr %31, ptr %exn.slot, align 8
  %32 = extractvalue { ptr, i32 } %30, 1
  store i32 %32, ptr %ehselector.slot, align 4
  call void @_ZN4cvc58internal12NodeTemplateILb0EED2Ev(ptr noundef nonnull align 8 dereferenceable(8) %ref.tmp73) #3
  br label %ehcleanup264

lpad78:                                           ; preds = %invoke.cont76
  %33 = landingpad { ptr, i32 }
          cleanup
  %34 = extractvalue { ptr, i32 } %33, 0
  store ptr %34, ptr %exn.slot, align 8
  %35 = extractvalue { ptr, i32 } %33, 1
  store i32 %35, ptr %ehselector.slot, align 4
  call void @_ZN4cvc58internal12NodeTemplateILb1EED2Ev(ptr noundef nonnull align 8 dereferenceable(8) %ref.tmp72) #3
  br label %ehcleanup264

for.end:                                          ; preds = %invoke.cont70
  %36 = load i8, ptr %apply_torder.addr, align 1
  %tobool = trunc i8 %36 to i1
  br i1 %tobool, label %land.lhs.true, label %if.end119

land.lhs.true:                                    ; preds = %for.end
  %call84 = invoke noundef i32 @_ZNK4cvc58internal12NodeTemplateILb0EE7getKindEv(ptr noundef nonnull align 8 dereferenceable(8) %n)
          to label %invoke.cont83 unwind label %lpad63

invoke.cont83:                                    ; preds = %land.lhs.true
  %call86 = invoke noundef zeroext i1 @_ZN4cvc58internal6theory11quantifiers8TermUtil6isCommENS0_4kind6Kind_tEb(i32 noundef %call84, i1 noundef zeroext false)
          to label %invoke.cont85 unwind label %lpad63

invoke.cont85:                                    ; preds = %invoke.cont83
  br i1 %call86, label %if.then87, label %if.end119

if.then87:                                        ; preds = %invoke.cont85
  %call90 = invoke noundef zeroext i1 @_ZN4cvc58internal11__cvc5_truecvbEv(ptr noundef nonnull align 1 dereferenceable(1) %ref.tmp88)
          to label %invoke.cont89 unwind label %lpad63

invoke.cont89:                                    ; preds = %if.then87
  br i1 %call90, label %cond.true91, label %cond.false94

cond.true91:                                      ; preds = %invoke.cont89
  invoke void @_ZNK4cvc58internal5NullCcvNS0_11Cvc5ostreamEEv(ptr sret(%"class.cvc5::internal::Cvc5ostream") align 8 %tmp92, ptr noundef nonnull align 1 dereferenceable(1) @_ZN4cvc58internal10nullStreamE)
          to label %invoke.cont93 unwind label %lpad63

invoke.cont93:                                    ; preds = %cond.true91
  br label %cond.end107

cond.false94:                                     ; preds = %invoke.cont89
  invoke void @_ZNK4cvc58internal6TraceCclEv(ptr sret(%"class.cvc5::internal::Cvc5ostream") align 8 %ref.tmp96, ptr noundef nonnull align 8 dereferenceable(32) @_ZN4cvc58internal12TraceChannelE)
          to label %invoke.cont97 unwind label %lpad63

invoke.cont97:                                    ; preds = %cond.false94
  %call99 = invoke noundef nonnull align 8 dereferenceable(24) ptr @_ZN4cvc58internal11Cvc5ostreamlsIA36_cEERS1_RKT_(ptr noundef nonnull align 8 dereferenceable(24) %ref.tmp96, ptr noundef nonnull align 1 dereferenceable(36) @.str.5)
          to label %invoke.cont98 unwind label %lpad63

invoke.cont98:                                    ; preds = %invoke.cont97
  %call102 = invoke noundef i32 @_ZNK4cvc58internal12NodeTemplateILb0EE7getKindEv(ptr noundef nonnull align 8 dereferenceable(8) %n)
          to label %invoke.cont101 unwind label %lpad63

invoke.cont101:                                   ; preds = %invoke.cont98
  store i32 %call102, ptr %ref.tmp100, align 4
  %call104 = invoke noundef nonnull align 8 dereferenceable(24) ptr @_ZN4cvc58internal11Cvc5ostreamlsINS0_4kind6Kind_tEEERS1_RKT_(ptr noundef nonnull align 8 dereferenceable(24) %call99, ptr noundef nonnull align 4 dereferenceable(4) %ref.tmp100)
          to label %invoke.cont103 unwind label %lpad63

invoke.cont103:                                   ; preds = %invoke.cont101
  %call106 = invoke noundef nonnull align 8 dereferenceable(24) ptr @_ZN4cvc58internal11Cvc5ostreamlsEPFRSoS2_E(ptr noundef nonnull align 8 dereferenceable(24) %call104, ptr noundef @_ZSt4endlIcSt11char_traitsIcEERSt13basic_ostreamIT_T0_ES6_)
          to label %invoke.cont105 unwind label %lpad63

invoke.cont105:                                   ; preds = %invoke.cont103
  call void @llvm.memcpy.p0.p0.i64(ptr align 8 %agg.tmp.ensured95, ptr align 8 %call106, i64 24, i1 false)
  br label %cond.end107

cond.end107:                                      ; preds = %invoke.cont105, %invoke.cont93
  %d_tu = getelementptr inbounds %"struct.cvc5::internal::expr::sortTermOrder", ptr %sto, i32 0, i32 0
  store ptr %this2, ptr %d_tu, align 8
  %call109 = call ptr @_ZNSt6vectorIN4cvc58internal12NodeTemplateILb1EEESaIS3_EE5beginEv(ptr noundef nonnull align 8 dereferenceable(24) %cchildren) #3
  %coerce.dive110 = getelementptr inbounds %"class.__gnu_cxx::__normal_iterator.126", ptr %agg.tmp108, i32 0, i32 0
  store ptr %call109, ptr %coerce.dive110, align 8
  %call112 = call ptr @_ZNSt6vectorIN4cvc58internal12NodeTemplateILb1EEESaIS3_EE3endEv(ptr noundef nonnull align 8 dereferenceable(24) %cchildren) #3
  %coerce.dive113 = getelementptr inbounds %"class.__gnu_cxx::__normal_iterator.126", ptr %agg.tmp111, i32 0, i32 0
  store ptr %call112, ptr %coerce.dive113, align 8
  call void @llvm.memcpy.p0.p0.i64(ptr align 8 %agg.tmp114, ptr align 8 %sto, i64 8, i1 false)
  %coerce.dive115 = getelementptr inbounds %"class.__gnu_cxx::__normal_iterator.126", ptr %agg.tmp108, i32 0, i32 0
  %37 = load ptr, ptr %coerce.dive115, align 8
  %coerce.dive116 = getelementptr inbounds %"class.__gnu_cxx::__normal_iterator.126", ptr %agg.tmp111, i32 0, i32 0
  %38 = load ptr, ptr %coerce.dive116, align 8
  %coerce.dive117 = getelementptr inbounds %"struct.cvc5::internal::expr::sortTermOrder", ptr %agg.tmp114, i32 0, i32 0
  %39 = load ptr, ptr %coerce.dive117, align 8
  invoke void @_ZSt4sortIN9__gnu_cxx17__normal_iteratorIPN4cvc58internal12NodeTemplateILb1EEESt6vectorIS5_SaIS5_EEEENS3_4expr13sortTermOrderEEvT_SD_T0_(ptr %37, ptr %38, ptr %39)
          to label %invoke.cont118 unwind label %lpad63

invoke.cont118:                                   ; preds = %cond.end107
  br label %if.end119

if.end119:                                        ; preds = %invoke.cont118, %invoke.cont85, %for.end
  %call122 = invoke noundef zeroext i1 @_ZN4cvc58internal11__cvc5_truecvbEv(ptr noundef nonnull align 1 dereferenceable(1) %ref.tmp120)
          to label %invoke.cont121 unwind label %lpad63

invoke.cont121:                                   ; preds = %if.end119
  br i1 %call122, label %cond.true123, label %cond.false126

cond.true123:                                     ; preds = %invoke.cont121
  invoke void @_ZNK4cvc58internal5NullCcvNS0_11Cvc5ostreamEEv(ptr sret(%"class.cvc5::internal::Cvc5ostream") align 8 %tmp124, ptr noundef nonnull align 1 dereferenceable(1) @_ZN4cvc58internal10nullStreamE)
          to label %invoke.cont125 unwind label %lpad63

invoke.cont125:                                   ; preds = %cond.true123
  br label %cond.end134

cond.false126:                                    ; preds = %invoke.cont121
  invoke void @_ZNK4cvc58internal6TraceCclEv(ptr sret(%"class.cvc5::internal::Cvc5ostream") align 8 %ref.tmp128, ptr noundef nonnull align 8 dereferenceable(32) @_ZN4cvc58internal12TraceChannelE)
          to label %invoke.cont129 unwind label %lpad63

invoke.cont129:                                   ; preds = %cond.false126
  %call131 = invoke noundef nonnull align 8 dereferenceable(24) ptr @_ZN4cvc58internal11Cvc5ostreamlsIA24_cEERS1_RKT_(ptr noundef nonnull align 8 dereferenceable(24) %ref.tmp128, ptr noundef nonnull align 1 dereferenceable(24) @.str.6)
          to label %invoke.cont130 unwind label %lpad63

invoke.cont130:                                   ; preds = %invoke.cont129
  %call133 = invoke noundef nonnull align 8 dereferenceable(24) ptr @_ZN4cvc58internal11Cvc5ostreamlsEPFRSoS2_E(ptr noundef nonnull align 8 dereferenceable(24) %call131, ptr noundef @_ZSt4endlIcSt11char_traitsIcEERSt13basic_ostreamIT_T0_ES6_)
          to label %invoke.cont132 unwind label %lpad63

invoke.cont132:                                   ; preds = %invoke.cont130
  call void @llvm.memcpy.p0.p0.i64(ptr align 8 %agg.tmp.ensured127, ptr align 8 %call133, i64 24, i1 false)
  br label %cond.end134

cond.end134:                                      ; preds = %invoke.cont132, %invoke.cont125
  store i32 0, ptr %i, align 4
  %call135 = call noundef i64 @_ZNKSt6vectorIN4cvc58internal12NodeTemplateILb1EEESaIS3_EE4sizeEv(ptr noundef nonnull align 8 dereferenceable(24) %cchildren) #3
  %conv136 = trunc i64 %call135 to i32
  store i32 %conv136, ptr %size, align 4
  br label %for.cond137

for.cond137:                                      ; preds = %for.inc156, %cond.end134
  %40 = load i32, ptr %i, align 4
  %41 = load i32, ptr %size, align 4
  %cmp138 = icmp ult i32 %40, %41
  br i1 %cmp138, label %for.body139, label %for.end158

for.body139:                                      ; preds = %for.cond137
  %42 = load i32, ptr %i, align 4
  %conv142 = zext i32 %42 to i64
  %call143 = call noundef nonnull align 8 dereferenceable(8) ptr @_ZNSt6vectorIN4cvc58internal12NodeTemplateILb1EEESaIS3_EEixEm(ptr noundef nonnull align 8 dereferenceable(24) %cchildren, i64 noundef %conv142) #3
  invoke void @_ZN4cvc58internal12NodeTemplateILb0EEC2ERKNS1_ILb1EEE(ptr noundef nonnull align 8 dereferenceable(8) %agg.tmp141, ptr noundef nonnull align 8 dereferenceable(8) %call143)
          to label %invoke.cont144 unwind label %lpad63

invoke.cont144:                                   ; preds = %for.body139
  %43 = load i8, ptr %apply_torder.addr, align 1
  %tobool145 = trunc i8 %43 to i1
  %44 = load i8, ptr %doHoVar.addr, align 1
  %tobool146 = trunc i8 %44 to i1
  %45 = load ptr, ptr %var_count.addr, align 8
  %46 = load ptr, ptr %visited.addr, align 8
  invoke void @_ZN4cvc58internal4expr12TermCanonize16getCanonicalTermENS0_12NodeTemplateILb0EEEbbRSt3mapISt4pairINS0_8TypeNodeEjEjSt4lessIS8_ESaIS6_IKS8_jEEERS5_IS4_NS3_ILb1EEES9_IS4_ESaIS6_IKS4_SG_EEE(ptr sret(%"class.cvc5::internal::NodeTemplate") align 8 %ref.tmp140, ptr noundef nonnull align 8 dereferenceable(216) %this2, ptr noundef %agg.tmp141, i1 noundef zeroext %tobool145, i1 noundef zeroext %tobool146, ptr noundef nonnull align 8 dereferenceable(48) %45, ptr noundef nonnull align 8 dereferenceable(48) %46)
          to label %invoke.cont148 unwind label %lpad147

invoke.cont148:                                   ; preds = %invoke.cont144
  %47 = load i32, ptr %i, align 4
  %conv149 = zext i32 %47 to i64
  %call150 = call noundef nonnull align 8 dereferenceable(8) ptr @_ZNSt6vectorIN4cvc58internal12NodeTemplateILb1EEESaIS3_EEixEm(ptr noundef nonnull align 8 dereferenceable(24) %cchildren, i64 noundef %conv149) #3
  %call153 = invoke noundef nonnull align 8 dereferenceable(8) ptr @_ZN4cvc58internal12NodeTemplateILb1EEaSERKS2_(ptr noundef nonnull align 8 dereferenceable(8) %call150, ptr noundef nonnull align 8 dereferenceable(8) %ref.tmp140)
          to label %invoke.cont152 unwind label %lpad151

invoke.cont152:                                   ; preds = %invoke.cont148
  call void @_ZN4cvc58internal12NodeTemplateILb1EED2Ev(ptr noundef nonnull align 8 dereferenceable(8) %ref.tmp140) #3
  call void @_ZN4cvc58internal12NodeTemplateILb0EED2Ev(ptr noundef nonnull align 8 dereferenceable(8) %agg.tmp141) #3
  br label %for.inc156

for.inc156:                                       ; preds = %invoke.cont152
  %48 = load i32, ptr %i, align 4
  %inc157 = add i32 %48, 1
  store i32 %inc157, ptr %i, align 4
  br label %for.cond137, !llvm.loop !10

lpad147:                                          ; preds = %invoke.cont144
  %49 = landingpad { ptr, i32 }
          cleanup
  %50 = extractvalue { ptr, i32 } %49, 0
  store ptr %50, ptr %exn.slot, align 8
  %51 = extractvalue { ptr, i32 } %49, 1
  store i32 %51, ptr %ehselector.slot, align 4
  br label %ehcleanup155

lpad151:                                          ; preds = %invoke.cont148
  %52 = landingpad { ptr, i32 }
          cleanup
  %53 = extractvalue { ptr, i32 } %52, 0
  store ptr %53, ptr %exn.slot, align 8
  %54 = extractvalue { ptr, i32 } %52, 1
  store i32 %54, ptr %ehselector.slot, align 4
  call void @_ZN4cvc58internal12NodeTemplateILb1EED2Ev(ptr noundef nonnull align 8 dereferenceable(8) %ref.tmp140) #3
  br label %ehcleanup155

ehcleanup155:                                     ; preds = %lpad151, %lpad147
  call void @_ZN4cvc58internal12NodeTemplateILb0EED2Ev(ptr noundef nonnull align 8 dereferenceable(8) %agg.tmp141) #3
  br label %ehcleanup264

for.end158:                                       ; preds = %for.cond137
  %call160 = invoke noundef i32 @_ZNK4cvc58internal12NodeTemplateILb0EE11getMetaKindEv(ptr noundef nonnull align 8 dereferenceable(8) %n)
          to label %invoke.cont159 unwind label %lpad63

invoke.cont159:                                   ; preds = %for.end158
  %cmp161 = icmp eq i32 %call160, 2
  br i1 %cmp161, label %if.then162, label %if.end206

if.then162:                                       ; preds = %invoke.cont159
  invoke void @_ZNK4cvc58internal12NodeTemplateILb0EE11getOperatorEv(ptr sret(%"class.cvc5::internal::NodeTemplate") align 8 %op, ptr noundef nonnull align 8 dereferenceable(8) %n)
          to label %invoke.cont163 unwind label %lpad63

invoke.cont163:                                   ; preds = %if.then162
  %55 = load i8, ptr %doHoVar.addr, align 1
  %tobool164 = trunc i8 %55 to i1
  br i1 %tobool164, label %if.then165, label %if.end179

if.then165:                                       ; preds = %invoke.cont163
  invoke void @_ZN4cvc58internal12NodeTemplateILb0EEC2ERKNS1_ILb1EEE(ptr noundef nonnull align 8 dereferenceable(8) %agg.tmp167, ptr noundef nonnull align 8 dereferenceable(8) %op)
          to label %invoke.cont169 unwind label %lpad168

invoke.cont169:                                   ; preds = %if.then165
  %56 = load i8, ptr %apply_torder.addr, align 1
  %tobool170 = trunc i8 %56 to i1
  %57 = load i8, ptr %doHoVar.addr, align 1
  %tobool171 = trunc i8 %57 to i1
  %58 = load ptr, ptr %var_count.addr, align 8
  %59 = load ptr, ptr %visited.addr, align 8
  invoke void @_ZN4cvc58internal4expr12TermCanonize16getCanonicalTermENS0_12NodeTemplateILb0EEEbbRSt3mapISt4pairINS0_8TypeNodeEjEjSt4lessIS8_ESaIS6_IKS8_jEEERS5_IS4_NS3_ILb1EEES9_IS4_ESaIS6_IKS4_SG_EEE(ptr sret(%"class.cvc5::internal::NodeTemplate") align 8 %ref.tmp166, ptr noundef nonnull align 8 dereferenceable(216) %this2, ptr noundef %agg.tmp167, i1 noundef zeroext %tobool170, i1 noundef zeroext %tobool171, ptr noundef nonnull align 8 dereferenceable(48) %58, ptr noundef nonnull align 8 dereferenceable(48) %59)
          to label %invoke.cont173 unwind label %lpad172

invoke.cont173:                                   ; preds = %invoke.cont169
  %call176 = invoke noundef nonnull align 8 dereferenceable(8) ptr @_ZN4cvc58internal12NodeTemplateILb1EEaSERKS2_(ptr noundef nonnull align 8 dereferenceable(8) %op, ptr noundef nonnull align 8 dereferenceable(8) %ref.tmp166)
          to label %invoke.cont175 unwind label %lpad174

invoke.cont175:                                   ; preds = %invoke.cont173
  call void @_ZN4cvc58internal12NodeTemplateILb1EED2Ev(ptr noundef nonnull align 8 dereferenceable(8) %ref.tmp166) #3
  call void @_ZN4cvc58internal12NodeTemplateILb0EED2Ev(ptr noundef nonnull align 8 dereferenceable(8) %agg.tmp167) #3
  br label %if.end179

lpad168:                                          ; preds = %cond.end196, %invoke.cont192, %invoke.cont190, %invoke.cont189, %cond.false186, %cond.true183, %if.end179, %if.then165
  %60 = landingpad { ptr, i32 }
          cleanup
  %61 = extractvalue { ptr, i32 } %60, 0
  store ptr %61, ptr %exn.slot, align 8
  %62 = extractvalue { ptr, i32 } %60, 1
  store i32 %62, ptr %ehselector.slot, align 4
  br label %ehcleanup205

lpad172:                                          ; preds = %invoke.cont169
  %63 = landingpad { ptr, i32 }
          cleanup
  %64 = extractvalue { ptr, i32 } %63, 0
  store ptr %64, ptr %exn.slot, align 8
  %65 = extractvalue { ptr, i32 } %63, 1
  store i32 %65, ptr %ehselector.slot, align 4
  br label %ehcleanup178

lpad174:                                          ; preds = %invoke.cont173
  %66 = landingpad { ptr, i32 }
          cleanup
  %67 = extractvalue { ptr, i32 } %66, 0
  store ptr %67, ptr %exn.slot, align 8
  %68 = extractvalue { ptr, i32 } %66, 1
  store i32 %68, ptr %ehselector.slot, align 4
  call void @_ZN4cvc58internal12NodeTemplateILb1EED2Ev(ptr noundef nonnull align 8 dereferenceable(8) %ref.tmp166) #3
  br label %ehcleanup178

ehcleanup178:                                     ; preds = %lpad174, %lpad172
  call void @_ZN4cvc58internal12NodeTemplateILb0EED2Ev(ptr noundef nonnull align 8 dereferenceable(8) %agg.tmp167) #3
  br label %ehcleanup205

if.end179:                                        ; preds = %invoke.cont175, %invoke.cont163
  %call182 = invoke noundef zeroext i1 @_ZN4cvc58internal11__cvc5_truecvbEv(ptr noundef nonnull align 1 dereferenceable(1) %ref.tmp180)
          to label %invoke.cont181 unwind label %lpad168

invoke.cont181:                                   ; preds = %if.end179
  br i1 %call182, label %cond.true183, label %cond.false186

cond.true183:                                     ; preds = %invoke.cont181
  invoke void @_ZNK4cvc58internal5NullCcvNS0_11Cvc5ostreamEEv(ptr sret(%"class.cvc5::internal::Cvc5ostream") align 8 %tmp184, ptr noundef nonnull align 1 dereferenceable(1) @_ZN4cvc58internal10nullStreamE)
          to label %invoke.cont185 unwind label %lpad168

invoke.cont185:                                   ; preds = %cond.true183
  br label %cond.end196

cond.false186:                                    ; preds = %invoke.cont181
  invoke void @_ZNK4cvc58internal6TraceCclEv(ptr sret(%"class.cvc5::internal::Cvc5ostream") align 8 %ref.tmp188, ptr noundef nonnull align 8 dereferenceable(32) @_ZN4cvc58internal12TraceChannelE)
          to label %invoke.cont189 unwind label %lpad168

invoke.cont189:                                   ; preds = %cond.false186
  %call191 = invoke noundef nonnull align 8 dereferenceable(24) ptr @_ZN4cvc58internal11Cvc5ostreamlsIA17_cEERS1_RKT_(ptr noundef nonnull align 8 dereferenceable(24) %ref.tmp188, ptr noundef nonnull align 1 dereferenceable(17) @.str.7)
          to label %invoke.cont190 unwind label %lpad168

invoke.cont190:                                   ; preds = %invoke.cont189
  %call193 = invoke noundef nonnull align 8 dereferenceable(24) ptr @_ZN4cvc58internal11Cvc5ostreamlsINS0_12NodeTemplateILb1EEEEERS1_RKT_(ptr noundef nonnull align 8 dereferenceable(24) %call191, ptr noundef nonnull align 8 dereferenceable(8) %op)
          to label %invoke.cont192 unwind label %lpad168

invoke.cont192:                                   ; preds = %invoke.cont190
  %call195 = invoke noundef nonnull align 8 dereferenceable(24) ptr @_ZN4cvc58internal11Cvc5ostreamlsEPFRSoS2_E(ptr noundef nonnull align 8 dereferenceable(24) %call193, ptr noundef @_ZSt4endlIcSt11char_traitsIcEERSt13basic_ostreamIT_T0_ES6_)
          to label %invoke.cont194 unwind label %lpad168

invoke.cont194:                                   ; preds = %invoke.cont192
  call void @llvm.memcpy.p0.p0.i64(ptr align 8 %agg.tmp.ensured187, ptr align 8 %call195, i64 24, i1 false)
  br label %cond.end196

cond.end196:                                      ; preds = %invoke.cont194, %invoke.cont185
  %call199 = call ptr @_ZNSt6vectorIN4cvc58internal12NodeTemplateILb1EEESaIS3_EE5beginEv(ptr noundef nonnull align 8 dereferenceable(24) %cchildren) #3
  %coerce.dive200 = getelementptr inbounds %"class.__gnu_cxx::__normal_iterator.126", ptr %ref.tmp198, i32 0, i32 0
  store ptr %call199, ptr %coerce.dive200, align 8
  call void @_ZN9__gnu_cxx17__normal_iteratorIPKN4cvc58internal12NodeTemplateILb1EEESt6vectorIS4_SaIS4_EEEC2IPS4_vEERKNS0_IT_S9_EE(ptr noundef nonnull align 8 dereferenceable(8) %agg.tmp197, ptr noundef nonnull align 8 dereferenceable(8) %ref.tmp198) #3
  %coerce.dive201 = getelementptr inbounds %"class.__gnu_cxx::__normal_iterator.127", ptr %agg.tmp197, i32 0, i32 0
  %69 = load ptr, ptr %coerce.dive201, align 8
  %call203 = invoke ptr @_ZNSt6vectorIN4cvc58internal12NodeTemplateILb1EEESaIS3_EE6insertEN9__gnu_cxx17__normal_iteratorIPKS3_S5_EERS8_(ptr noundef nonnull align 8 dereferenceable(24) %cchildren, ptr %69, ptr noundef nonnull align 8 dereferenceable(8) %op)
          to label %invoke.cont202 unwind label %lpad168

invoke.cont202:                                   ; preds = %cond.end196
  %coerce.dive204 = getelementptr inbounds %"class.__gnu_cxx::__normal_iterator.126", ptr %coerce, i32 0, i32 0
  store ptr %call203, ptr %coerce.dive204, align 8
  call void @_ZN4cvc58internal12NodeTemplateILb1EED2Ev(ptr noundef nonnull align 8 dereferenceable(8) %op) #3
  br label %if.end206

ehcleanup205:                                     ; preds = %ehcleanup178, %lpad168
  call void @_ZN4cvc58internal12NodeTemplateILb1EED2Ev(ptr noundef nonnull align 8 dereferenceable(8) %op) #3
  br label %ehcleanup264

if.end206:                                        ; preds = %invoke.cont202, %invoke.cont159
  %call209 = invoke noundef zeroext i1 @_ZN4cvc58internal11__cvc5_truecvbEv(ptr noundef nonnull align 1 dereferenceable(1) %ref.tmp207)
          to label %invoke.cont208 unwind label %lpad63

invoke.cont208:                                   ; preds = %if.end206
  br i1 %call209, label %cond.true210, label %cond.false213

cond.true210:                                     ; preds = %invoke.cont208
  invoke void @_ZNK4cvc58internal5NullCcvNS0_11Cvc5ostreamEEv(ptr sret(%"class.cvc5::internal::Cvc5ostream") align 8 %tmp211, ptr noundef nonnull align 1 dereferenceable(1) @_ZN4cvc58internal10nullStreamE)
          to label %invoke.cont212 unwind label %lpad63

invoke.cont212:                                   ; preds = %cond.true210
  br label %cond.end225

cond.false213:                                    ; preds = %invoke.cont208
  invoke void @_ZNK4cvc58internal6TraceCclEv(ptr sret(%"class.cvc5::internal::Cvc5ostream") align 8 %ref.tmp215, ptr noundef nonnull align 8 dereferenceable(32) @_ZN4cvc58internal12TraceChannelE)
          to label %invoke.cont216 unwind label %lpad63

invoke.cont216:                                   ; preds = %cond.false213
  %call218 = invoke noundef nonnull align 8 dereferenceable(24) ptr @_ZN4cvc58internal11Cvc5ostreamlsIA21_cEERS1_RKT_(ptr noundef nonnull align 8 dereferenceable(24) %ref.tmp215, ptr noundef nonnull align 1 dereferenceable(21) @.str.8)
          to label %invoke.cont217 unwind label %lpad63

invoke.cont217:                                   ; preds = %invoke.cont216
  %call220 = invoke noundef nonnull align 8 dereferenceable(24) ptr @_ZN4cvc58internal11Cvc5ostreamlsINS0_12NodeTemplateILb0EEEEERS1_RKT_(ptr noundef nonnull align 8 dereferenceable(24) %call218, ptr noundef nonnull align 8 dereferenceable(8) %n)
          to label %invoke.cont219 unwind label %lpad63

invoke.cont219:                                   ; preds = %invoke.cont217
  %call222 = invoke noundef nonnull align 8 dereferenceable(24) ptr @_ZN4cvc58internal11Cvc5ostreamlsIA2_cEERS1_RKT_(ptr noundef nonnull align 8 dereferenceable(24) %call220, ptr noundef nonnull align 1 dereferenceable(2) @.str.9)
          to label %invoke.cont221 unwind label %lpad63

invoke.cont221:                                   ; preds = %invoke.cont219
  %call224 = invoke noundef nonnull align 8 dereferenceable(24) ptr @_ZN4cvc58internal11Cvc5ostreamlsEPFRSoS2_E(ptr noundef nonnull align 8 dereferenceable(24) %call222, ptr noundef @_ZSt4endlIcSt11char_traitsIcEERSt13basic_ostreamIT_T0_ES6_)
          to label %invoke.cont223 unwind label %lpad63

invoke.cont223:                                   ; preds = %invoke.cont221
  call void @llvm.memcpy.p0.p0.i64(ptr align 8 %agg.tmp.ensured214, ptr align 8 %call224, i64 24, i1 false)
  br label %cond.end225

cond.end225:                                      ; preds = %invoke.cont223, %invoke.cont212
  store i1 false, ptr %nrvo226, align 1
  %call228 = invoke noundef ptr @_ZN4cvc58internal11NodeManager9currentNMEv()
          to label %invoke.cont227 unwind label %lpad63

invoke.cont227:                                   ; preds = %cond.end225
  %call230 = invoke noundef i32 @_ZNK4cvc58internal12NodeTemplateILb0EE7getKindEv(ptr noundef nonnull align 8 dereferenceable(8) %n)
          to label %invoke.cont229 unwind label %lpad63

invoke.cont229:                                   ; preds = %invoke.cont227
  invoke void @_ZN4cvc58internal11NodeManager6mkNodeILb1EEENS0_12NodeTemplateILb1EEENS0_4kind6Kind_tERKSt6vectorINS3_IXT_EEESaIS8_EE(ptr sret(%"class.cvc5::internal::NodeTemplate") align 8 %agg.result, ptr noundef nonnull align 8 dereferenceable(3360) %call228, i32 noundef %call230, ptr noundef nonnull align 8 dereferenceable(24) %cchildren)
          to label %invoke.cont231 unwind label %lpad63

invoke.cont231:                                   ; preds = %invoke.cont229
  %call235 = invoke noundef zeroext i1 @_ZN4cvc58internal11__cvc5_truecvbEv(ptr noundef nonnull align 1 dereferenceable(1) %ref.tmp232)
          to label %invoke.cont234 unwind label %lpad233

invoke.cont234:                                   ; preds = %invoke.cont231
  br i1 %call235, label %cond.true236, label %cond.false239

cond.true236:                                     ; preds = %invoke.cont234
  invoke void @_ZNK4cvc58internal5NullCcvNS0_11Cvc5ostreamEEv(ptr sret(%"class.cvc5::internal::Cvc5ostream") align 8 %tmp237, ptr noundef nonnull align 1 dereferenceable(1) @_ZN4cvc58internal10nullStreamE)
          to label %invoke.cont238 unwind label %lpad233

invoke.cont238:                                   ; preds = %cond.true236
  br label %cond.end255

cond.false239:                                    ; preds = %invoke.cont234
  invoke void @_ZNK4cvc58internal6TraceCclEv(ptr sret(%"class.cvc5::internal::Cvc5ostream") align 8 %ref.tmp241, ptr noundef nonnull align 8 dereferenceable(32) @_ZN4cvc58internal12TraceChannelE)
          to label %invoke.cont242 unwind label %lpad233

invoke.cont242:                                   ; preds = %cond.false239
  %call244 = invoke noundef nonnull align 8 dereferenceable(24) ptr @_ZN4cvc58internal11Cvc5ostreamlsIA16_cEERS1_RKT_(ptr noundef nonnull align 8 dereferenceable(24) %ref.tmp241, ptr noundef nonnull align 1 dereferenceable(16) @.str.10)
          to label %invoke.cont243 unwind label %lpad233

invoke.cont243:                                   ; preds = %invoke.cont242
  %call246 = invoke noundef nonnull align 8 dereferenceable(24) ptr @_ZN4cvc58internal11Cvc5ostreamlsINS0_12NodeTemplateILb1EEEEERS1_RKT_(ptr noundef nonnull align 8 dereferenceable(24) %call244, ptr noundef nonnull align 8 dereferenceable(8) %agg.result)
          to label %invoke.cont245 unwind label %lpad233

invoke.cont245:                                   ; preds = %invoke.cont243
  %call248 = invoke noundef nonnull align 8 dereferenceable(24) ptr @_ZN4cvc58internal11Cvc5ostreamlsIA6_cEERS1_RKT_(ptr noundef nonnull align 8 dereferenceable(24) %call246, ptr noundef nonnull align 1 dereferenceable(6) @.str.11)
          to label %invoke.cont247 unwind label %lpad233

invoke.cont247:                                   ; preds = %invoke.cont245
  %call250 = invoke noundef nonnull align 8 dereferenceable(24) ptr @_ZN4cvc58internal11Cvc5ostreamlsINS0_12NodeTemplateILb0EEEEERS1_RKT_(ptr noundef nonnull align 8 dereferenceable(24) %call248, ptr noundef nonnull align 8 dereferenceable(8) %n)
          to label %invoke.cont249 unwind label %lpad233

invoke.cont249:                                   ; preds = %invoke.cont247
  %call252 = invoke noundef nonnull align 8 dereferenceable(24) ptr @_ZN4cvc58internal11Cvc5ostreamlsIA2_cEERS1_RKT_(ptr noundef nonnull align 8 dereferenceable(24) %call250, ptr noundef nonnull align 1 dereferenceable(2) @.str.9)
          to label %invoke.cont251 unwind label %lpad233

invoke.cont251:                                   ; preds = %invoke.cont249
  %call254 = invoke noundef nonnull align 8 dereferenceable(24) ptr @_ZN4cvc58internal11Cvc5ostreamlsEPFRSoS2_E(ptr noundef nonnull align 8 dereferenceable(24) %call252, ptr noundef @_ZSt4endlIcSt11char_traitsIcEERSt13basic_ostreamIT_T0_ES6_)
          to label %invoke.cont253 unwind label %lpad233

invoke.cont253:                                   ; preds = %invoke.cont251
  call void @llvm.memcpy.p0.p0.i64(ptr align 8 %agg.tmp.ensured240, ptr align 8 %call254, i64 24, i1 false)
  br label %cond.end255

cond.end255:                                      ; preds = %invoke.cont253, %invoke.cont238
  %70 = load ptr, ptr %visited.addr, align 8
  %call257 = invoke noundef nonnull align 8 dereferenceable(8) ptr @_ZNSt3mapIN4cvc58internal12NodeTemplateILb0EEENS2_ILb1EEESt4lessIS3_ESaISt4pairIKS3_S4_EEEixERS8_(ptr noundef nonnull align 8 dereferenceable(48) %70, ptr noundef nonnull align 8 dereferenceable(8) %n)
          to label %invoke.cont256 unwind label %lpad233

invoke.cont256:                                   ; preds = %cond.end255
  %call259 = invoke noundef nonnull align 8 dereferenceable(8) ptr @_ZN4cvc58internal12NodeTemplateILb1EEaSERKS2_(ptr noundef nonnull align 8 dereferenceable(8) %call257, ptr noundef nonnull align 8 dereferenceable(8) %agg.result)
          to label %invoke.cont258 unwind label %lpad233

invoke.cont258:                                   ; preds = %invoke.cont256
  store i1 true, ptr %nrvo226, align 1
  %nrvo.val260 = load i1, ptr %nrvo226, align 1
  br i1 %nrvo.val260, label %nrvo.skipdtor262, label %nrvo.unused261

lpad233:                                          ; preds = %invoke.cont256, %cond.end255, %invoke.cont251, %invoke.cont249, %invoke.cont247, %invoke.cont245, %invoke.cont243, %invoke.cont242, %cond.false239, %cond.true236, %invoke.cont231
  %71 = landingpad { ptr, i32 }
          cleanup
  %72 = extractvalue { ptr, i32 } %71, 0
  store ptr %72, ptr %exn.slot, align 8
  %73 = extractvalue { ptr, i32 } %71, 1
  store i32 %73, ptr %ehselector.slot, align 4
  call void @_ZN4cvc58internal12NodeTemplateILb1EED2Ev(ptr noundef nonnull align 8 dereferenceable(8) %agg.result) #3
  br label %ehcleanup264

nrvo.unused261:                                   ; preds = %invoke.cont258
  call void @_ZN4cvc58internal12NodeTemplateILb1EED2Ev(ptr noundef nonnull align 8 dereferenceable(8) %agg.result) #3
  br label %nrvo.skipdtor262

nrvo.skipdtor262:                                 ; preds = %nrvo.unused261, %invoke.cont258
  call void @_ZNSt6vectorIN4cvc58internal12NodeTemplateILb1EEESaIS3_EED2Ev(ptr noundef nonnull align 8 dereferenceable(24) %cchildren) #3
  br label %return

ehcleanup264:                                     ; preds = %lpad233, %ehcleanup205, %ehcleanup155, %lpad78, %lpad75, %lpad63
  call void @_ZNSt6vectorIN4cvc58internal12NodeTemplateILb1EEESaIS3_EED2Ev(ptr noundef nonnull align 8 dereferenceable(24) %cchildren) #3
  br label %eh.resume

if.end265:                                        ; preds = %if.else
  br label %if.end266

if.end266:                                        ; preds = %if.end265
  %call268 = call noundef zeroext i1 @_ZN4cvc58internal11__cvc5_truecvbEv(ptr noundef nonnull align 1 dereferenceable(1) %ref.tmp267)
  br i1 %call268, label %cond.true269, label %cond.false271

cond.true269:                                     ; preds = %if.end266
  call void @_ZNK4cvc58internal5NullCcvNS0_11Cvc5ostreamEEv(ptr sret(%"class.cvc5::internal::Cvc5ostream") align 8 %tmp270, ptr noundef nonnull align 1 dereferenceable(1) @_ZN4cvc58internal10nullStreamE)
  br label %cond.end276

cond.false271:                                    ; preds = %if.end266
  call void @_ZNK4cvc58internal6TraceCclEv(ptr sret(%"class.cvc5::internal::Cvc5ostream") align 8 %ref.tmp273, ptr noundef nonnull align 8 dereferenceable(32) @_ZN4cvc58internal12TraceChannelE)
  %call274 = call noundef nonnull align 8 dereferenceable(24) ptr @_ZN4cvc58internal11Cvc5ostreamlsIA24_cEERS1_RKT_(ptr noundef nonnull align 8 dereferenceable(24) %ref.tmp273, ptr noundef nonnull align 1 dereferenceable(24) @.str.12)
  %call275 = call noundef nonnull align 8 dereferenceable(24) ptr @_ZN4cvc58internal11Cvc5ostreamlsEPFRSoS2_E(ptr noundef nonnull align 8 dereferenceable(24) %call274, ptr noundef @_ZSt4endlIcSt11char_traitsIcEERSt13basic_ostreamIT_T0_ES6_)
  call void @llvm.memcpy.p0.p0.i64(ptr align 8 %agg.tmp.ensured272, ptr align 8 %call275, i64 24, i1 false)
  br label %cond.end276

cond.end276:                                      ; preds = %cond.false271, %cond.true269
  call void @_ZN4cvc58internal12NodeTemplateILb1EEC2ERKNS1_ILb0EEE(ptr noundef nonnull align 8 dereferenceable(8) %agg.result, ptr noundef nonnull align 8 dereferenceable(8) %n)
  br label %return

return:                                           ; preds = %cond.end276, %nrvo.skipdtor262, %nrvo.skipdtor, %if.then
  ret void

eh.resume:                                        ; preds = %ehcleanup264, %ehcleanup49, %lpad
  %exn = load ptr, ptr %exn.slot, align 8
  %sel = load i32, ptr %ehselector.slot, align 4
  %lpad.val = insertvalue { ptr, i32 } poison, ptr %exn, 0
  %lpad.val277 = insertvalue { ptr, i32 } %lpad.val, i32 %sel, 1
  resume { ptr, i32 } %lpad.val277
}

; Function Attrs: mustprogress uwtable
define linkonce_odr hidden ptr @_ZNSt3mapIN4cvc58internal12NodeTemplateILb0EEENS2_ILb1EEESt4lessIS3_ESaISt4pairIKS3_S4_EEE4findERS8_(ptr noundef nonnull align 8 dereferenceable(48) %this, ptr noundef nonnull align 8 dereferenceable(8) %__x) #5 comdat align 2 {
entry:
  %retval = alloca %"struct.std::_Rb_tree_iterator.110", align 8
  %this.addr = alloca ptr, align 8
  %__x.addr = alloca ptr, align 8
  store ptr %this, ptr %this.addr, align 8
  store ptr %__x, ptr %__x.addr, align 8
  %this1 = load ptr, ptr %this.addr, align 8
  %_M_t = getelementptr inbounds %"class.std::map.111", ptr %this1, i32 0, i32 0
  %0 = load ptr, ptr %__x.addr, align 8
  %call = call ptr @_ZNSt8_Rb_treeIN4cvc58internal12NodeTemplateILb0EEESt4pairIKS3_NS2_ILb1EEEESt10_Select1stIS7_ESt4lessIS3_ESaIS7_EE4findERS5_(ptr noundef nonnull align 8 dereferenceable(48) %_M_t, ptr noundef nonnull align 8 dereferenceable(8) %0)
  %coerce.dive = getelementptr inbounds %"struct.std::_Rb_tree_iterator.110", ptr %retval, i32 0, i32 0
  store ptr %call, ptr %coerce.dive, align 8
  %coerce.dive2 = getelementptr inbounds %"struct.std::_Rb_tree_iterator.110", ptr %retval, i32 0, i32 0
  %1 = load ptr, ptr %coerce.dive2, align 8
  ret ptr %1
}

; Function Attrs: mustprogress nounwind uwtable
define linkonce_odr noundef zeroext i1 @_ZStneRKSt17_Rb_tree_iteratorISt4pairIKN4cvc58internal12NodeTemplateILb0EEENS3_ILb1EEEEESA_(ptr noundef nonnull align 8 dereferenceable(8) %__x, ptr noundef nonnull align 8 dereferenceable(8) %__y) #4 comdat {
entry:
  %__x.addr = alloca ptr, align 8
  %__y.addr = alloca ptr, align 8
  store ptr %__x, ptr %__x.addr, align 8
  store ptr %__y, ptr %__y.addr, align 8
  %0 = load ptr, ptr %__x.addr, align 8
  %_M_node = getelementptr inbounds %"struct.std::_Rb_tree_iterator.110", ptr %0, i32 0, i32 0
  %1 = load ptr, ptr %_M_node, align 8
  %2 = load ptr, ptr %__y.addr, align 8
  %_M_node1 = getelementptr inbounds %"struct.std::_Rb_tree_iterator.110", ptr %2, i32 0, i32 0
  %3 = load ptr, ptr %_M_node1, align 8
  %cmp = icmp ne ptr %1, %3
  ret i1 %cmp
}

; Function Attrs: mustprogress nounwind uwtable
define linkonce_odr hidden ptr @_ZNSt3mapIN4cvc58internal12NodeTemplateILb0EEENS2_ILb1EEESt4lessIS3_ESaISt4pairIKS3_S4_EEE3endEv(ptr noundef nonnull align 8 dereferenceable(48) %this) #4 comdat align 2 {
entry:
  %retval = alloca %"struct.std::_Rb_tree_iterator.110", align 8
  %this.addr = alloca ptr, align 8
  store ptr %this, ptr %this.addr, align 8
  %this1 = load ptr, ptr %this.addr, align 8
  %_M_t = getelementptr inbounds %"class.std::map.111", ptr %this1, i32 0, i32 0
  %call = call ptr @_ZNSt8_Rb_treeIN4cvc58internal12NodeTemplateILb0EEESt4pairIKS3_NS2_ILb1EEEESt10_Select1stIS7_ESt4lessIS3_ESaIS7_EE3endEv(ptr noundef nonnull align 8 dereferenceable(48) %_M_t) #3
  %coerce.dive = getelementptr inbounds %"struct.std::_Rb_tree_iterator.110", ptr %retval, i32 0, i32 0
  store ptr %call, ptr %coerce.dive, align 8
  %coerce.dive2 = getelementptr inbounds %"struct.std::_Rb_tree_iterator.110", ptr %retval, i32 0, i32 0
  %0 = load ptr, ptr %coerce.dive2, align 8
  ret ptr %0
}

; Function Attrs: mustprogress nounwind uwtable
define linkonce_odr hidden noundef ptr @_ZNKSt17_Rb_tree_iteratorISt4pairIKN4cvc58internal12NodeTemplateILb0EEENS3_ILb1EEEEEptEv(ptr noundef nonnull align 8 dereferenceable(8) %this) #4 comdat align 2 {
entry:
  %this.addr = alloca ptr, align 8
  store ptr %this, ptr %this.addr, align 8
  %this1 = load ptr, ptr %this.addr, align 8
  %_M_node = getelementptr inbounds %"struct.std::_Rb_tree_iterator.110", ptr %this1, i32 0, i32 0
  %0 = load ptr, ptr %_M_node, align 8
  %call = call noundef ptr @_ZNSt13_Rb_tree_nodeISt4pairIKN4cvc58internal12NodeTemplateILb0EEENS3_ILb1EEEEE9_M_valptrEv(ptr noundef nonnull align 8 dereferenceable(48) %0)
  ret ptr %call
}

; Function Attrs: mustprogress uwtable
define linkonce_odr hidden noundef nonnull align 8 dereferenceable(24) ptr @_ZN4cvc58internal11Cvc5ostreamlsIA24_cEERS1_RKT_(ptr noundef nonnull align 8 dereferenceable(24) %this, ptr noundef nonnull align 1 dereferenceable(24) %t) #5 comdat align 2 {
entry:
  %this.addr = alloca ptr, align 8
  %t.addr = alloca ptr, align 8
  %indent = alloca i64, align 8
  %i = alloca i64, align 8
  store ptr %this, ptr %this.addr, align 8
  store ptr %t, ptr %t.addr, align 8
  %this1 = load ptr, ptr %this.addr, align 8
  %d_os = getelementptr inbounds %"class.cvc5::internal::Cvc5ostream", ptr %this1, i32 0, i32 0
  %0 = load ptr, ptr %d_os, align 8
  %cmp = icmp ne ptr %0, null
  br i1 %cmp, label %if.then, label %if.end11

if.then:                                          ; preds = %entry
  %d_firstColumn = getelementptr inbounds %"class.cvc5::internal::Cvc5ostream", ptr %this1, i32 0, i32 1
  %1 = load i8, ptr %d_firstColumn, align 8
  %tobool = trunc i8 %1 to i1
  br i1 %tobool, label %if.then2, label %if.end

if.then2:                                         ; preds = %if.then
  %d_firstColumn3 = getelementptr inbounds %"class.cvc5::internal::Cvc5ostream", ptr %this1, i32 0, i32 1
  store i8 0, ptr %d_firstColumn3, align 8
  %d_os4 = getelementptr inbounds %"class.cvc5::internal::Cvc5ostream", ptr %this1, i32 0, i32 0
  %2 = load ptr, ptr %d_os4, align 8
  %vtable = load ptr, ptr %2, align 8
  %vbase.offset.ptr = getelementptr i8, ptr %vtable, i64 -24
  %vbase.offset = load i64, ptr %vbase.offset.ptr, align 8
  %add.ptr = getelementptr inbounds i8, ptr %2, i64 %vbase.offset
  %3 = load i32, ptr @_ZN4cvc58internal11Cvc5ostream16s_indentIosIndexE, align 4
  %call = call noundef nonnull align 8 dereferenceable(8) ptr @_ZNSt8ios_base5iwordEi(ptr noundef nonnull align 8 dereferenceable(216) %add.ptr, i32 noundef %3)
  %4 = load i64, ptr %call, align 8
  store i64 %4, ptr %indent, align 8
  store i64 0, ptr %i, align 8
  br label %for.cond

for.cond:                                         ; preds = %for.inc, %if.then2
  %5 = load i64, ptr %i, align 8
  %6 = load i64, ptr %indent, align 8
  %cmp5 = icmp slt i64 %5, %6
  br i1 %cmp5, label %for.body, label %for.end

for.body:                                         ; preds = %for.cond
  %d_os6 = getelementptr inbounds %"class.cvc5::internal::Cvc5ostream", ptr %this1, i32 0, i32 0
  %7 = load ptr, ptr %d_os6, align 8
  %call7 = call noundef nonnull align 8 dereferenceable(8) ptr @_ZStlsIcSt11char_traitsIcESaIcEERSt13basic_ostreamIT_T0_ES7_RKNSt7__cxx1112basic_stringIS4_S5_T1_EE(ptr noundef nonnull align 8 dereferenceable(8) %7, ptr noundef nonnull align 8 dereferenceable(32) @_ZN4cvc58internal11Cvc5ostream5s_tabB5cxx11E)
  %d_os8 = getelementptr inbounds %"class.cvc5::internal::Cvc5ostream", ptr %this1, i32 0, i32 0
  store ptr %call7, ptr %d_os8, align 8
  br label %for.inc

for.inc:                                          ; preds = %for.body
  %8 = load i64, ptr %i, align 8
  %inc = add nsw i64 %8, 1
  store i64 %inc, ptr %i, align 8
  br label %for.cond, !llvm.loop !11

for.end:                                          ; preds = %for.cond
  br label %if.end

if.end:                                           ; preds = %for.end, %if.then
  %d_os9 = getelementptr inbounds %"class.cvc5::internal::Cvc5ostream", ptr %this1, i32 0, i32 0
  %9 = load ptr, ptr %d_os9, align 8
  %10 = load ptr, ptr %t.addr, align 8
  %arraydecay = getelementptr inbounds [24 x i8], ptr %10, i64 0, i64 0
  %call10 = call noundef nonnull align 8 dereferenceable(8) ptr @_ZStlsISt11char_traitsIcEERSt13basic_ostreamIcT_ES5_PKc(ptr noundef nonnull align 8 dereferenceable(8) %9, ptr noundef %arraydecay)
  br label %if.end11

if.end11:                                         ; preds = %if.end, %entry
  ret ptr %this1
}

; Function Attrs: mustprogress uwtable
define linkonce_odr hidden noundef nonnull align 8 dereferenceable(24) ptr @_ZN4cvc58internal11Cvc5ostreamlsINS0_12NodeTemplateILb0EEEEERS1_RKT_(ptr noundef nonnull align 8 dereferenceable(24) %this, ptr noundef nonnull align 8 dereferenceable(8) %t) #5 comdat align 2 personality ptr @__gxx_personality_v0 {
entry:
  %this.addr = alloca ptr, align 8
  %t.addr = alloca ptr, align 8
  %indent = alloca i64, align 8
  %i = alloca i64, align 8
  %agg.tmp = alloca %"class.cvc5::internal::NodeTemplate.107", align 8
  %exn.slot = alloca ptr, align 8
  %ehselector.slot = alloca i32, align 4
  store ptr %this, ptr %this.addr, align 8
  store ptr %t, ptr %t.addr, align 8
  %this1 = load ptr, ptr %this.addr, align 8
  %d_os = getelementptr inbounds %"class.cvc5::internal::Cvc5ostream", ptr %this1, i32 0, i32 0
  %0 = load ptr, ptr %d_os, align 8
  %cmp = icmp ne ptr %0, null
  br i1 %cmp, label %if.then, label %if.end11

if.then:                                          ; preds = %entry
  %d_firstColumn = getelementptr inbounds %"class.cvc5::internal::Cvc5ostream", ptr %this1, i32 0, i32 1
  %1 = load i8, ptr %d_firstColumn, align 8
  %tobool = trunc i8 %1 to i1
  br i1 %tobool, label %if.then2, label %if.end

if.then2:                                         ; preds = %if.then
  %d_firstColumn3 = getelementptr inbounds %"class.cvc5::internal::Cvc5ostream", ptr %this1, i32 0, i32 1
  store i8 0, ptr %d_firstColumn3, align 8
  %d_os4 = getelementptr inbounds %"class.cvc5::internal::Cvc5ostream", ptr %this1, i32 0, i32 0
  %2 = load ptr, ptr %d_os4, align 8
  %vtable = load ptr, ptr %2, align 8
  %vbase.offset.ptr = getelementptr i8, ptr %vtable, i64 -24
  %vbase.offset = load i64, ptr %vbase.offset.ptr, align 8
  %add.ptr = getelementptr inbounds i8, ptr %2, i64 %vbase.offset
  %3 = load i32, ptr @_ZN4cvc58internal11Cvc5ostream16s_indentIosIndexE, align 4
  %call = call noundef nonnull align 8 dereferenceable(8) ptr @_ZNSt8ios_base5iwordEi(ptr noundef nonnull align 8 dereferenceable(216) %add.ptr, i32 noundef %3)
  %4 = load i64, ptr %call, align 8
  store i64 %4, ptr %indent, align 8
  store i64 0, ptr %i, align 8
  br label %for.cond

for.cond:                                         ; preds = %for.inc, %if.then2
  %5 = load i64, ptr %i, align 8
  %6 = load i64, ptr %indent, align 8
  %cmp5 = icmp slt i64 %5, %6
  br i1 %cmp5, label %for.body, label %for.end

for.body:                                         ; preds = %for.cond
  %d_os6 = getelementptr inbounds %"class.cvc5::internal::Cvc5ostream", ptr %this1, i32 0, i32 0
  %7 = load ptr, ptr %d_os6, align 8
  %call7 = call noundef nonnull align 8 dereferenceable(8) ptr @_ZStlsIcSt11char_traitsIcESaIcEERSt13basic_ostreamIT_T0_ES7_RKNSt7__cxx1112basic_stringIS4_S5_T1_EE(ptr noundef nonnull align 8 dereferenceable(8) %7, ptr noundef nonnull align 8 dereferenceable(32) @_ZN4cvc58internal11Cvc5ostream5s_tabB5cxx11E)
  %d_os8 = getelementptr inbounds %"class.cvc5::internal::Cvc5ostream", ptr %this1, i32 0, i32 0
  store ptr %call7, ptr %d_os8, align 8
  br label %for.inc

for.inc:                                          ; preds = %for.body
  %8 = load i64, ptr %i, align 8
  %inc = add nsw i64 %8, 1
  store i64 %inc, ptr %i, align 8
  br label %for.cond, !llvm.loop !12

for.end:                                          ; preds = %for.cond
  br label %if.end

if.end:                                           ; preds = %for.end, %if.then
  %d_os9 = getelementptr inbounds %"class.cvc5::internal::Cvc5ostream", ptr %this1, i32 0, i32 0
  %9 = load ptr, ptr %d_os9, align 8
  %10 = load ptr, ptr %t.addr, align 8
  call void @_ZN4cvc58internal12NodeTemplateILb0EEC2ERKS2_(ptr noundef nonnull align 8 dereferenceable(8) %agg.tmp, ptr noundef nonnull align 8 dereferenceable(8) %10)
  %call10 = invoke noundef nonnull align 8 dereferenceable(8) ptr @_ZN4cvc58internallsERSoNS0_12NodeTemplateILb0EEE(ptr noundef nonnull align 8 dereferenceable(8) %9, ptr noundef %agg.tmp)
          to label %invoke.cont unwind label %lpad

invoke.cont:                                      ; preds = %if.end
  call void @_ZN4cvc58internal12NodeTemplateILb0EED2Ev(ptr noundef nonnull align 8 dereferenceable(8) %agg.tmp) #3
  br label %if.end11

lpad:                                             ; preds = %if.end
  %11 = landingpad { ptr, i32 }
          cleanup
  %12 = extractvalue { ptr, i32 } %11, 0
  store ptr %12, ptr %exn.slot, align 8
  %13 = extractvalue { ptr, i32 } %11, 1
  store i32 %13, ptr %ehselector.slot, align 4
  call void @_ZN4cvc58internal12NodeTemplateILb0EED2Ev(ptr noundef nonnull align 8 dereferenceable(8) %agg.tmp) #3
  br label %eh.resume

if.end11:                                         ; preds = %invoke.cont, %entry
  ret ptr %this1

eh.resume:                                        ; preds = %lpad
  %exn = load ptr, ptr %exn.slot, align 8
  %sel = load i32, ptr %ehselector.slot, align 4
  %lpad.val = insertvalue { ptr, i32 } poison, ptr %exn, 0
  %lpad.val12 = insertvalue { ptr, i32 } %lpad.val, i32 %sel, 1
  resume { ptr, i32 } %lpad.val12
}

; Function Attrs: mustprogress uwtable
define linkonce_odr hidden noundef i32 @_ZNK4cvc58internal12NodeTemplateILb0EE7getKindEv(ptr noundef nonnull align 8 dereferenceable(8) %this) #5 comdat align 2 {
entry:
  %this.addr = alloca ptr, align 8
  store ptr %this, ptr %this.addr, align 8
  %this1 = load ptr, ptr %this.addr, align 8
  call void @_ZNK4cvc58internal12NodeTemplateILb0EE21assertTNodeNotExpiredEv(ptr noundef nonnull align 8 dereferenceable(8) %this1)
  %d_nv = getelementptr inbounds %"class.cvc5::internal::NodeTemplate.107", ptr %this1, i32 0, i32 0
  %0 = load ptr, ptr %d_nv, align 8
  %d_kind = getelementptr inbounds %"class.cvc5::internal::expr::NodeValue", ptr %0, i32 0, i32 1
  %bf.load = load i16, ptr %d_kind, align 8
  %bf.clear = and i16 %bf.load, 1023
  %bf.cast = zext i16 %bf.clear to i32
  ret i32 %bf.cast
}

; Function Attrs: mustprogress uwtable
define linkonce_odr hidden void @_ZNK4cvc58internal12NodeTemplateILb0EE7getTypeEb(ptr noalias sret(%"class.cvc5::internal::TypeNode") align 8 %agg.result, ptr noundef nonnull align 8 dereferenceable(8) %this, i1 noundef zeroext %check) #5 comdat align 2 personality ptr @__gxx_personality_v0 {
entry:
  %result.ptr = alloca ptr, align 8
  %this.addr = alloca ptr, align 8
  %check.addr = alloca i8, align 1
  %nrvo = alloca i1, align 1
  %agg.tmp = alloca %"class.cvc5::internal::NodeTemplate.107", align 8
  %exn.slot = alloca ptr, align 8
  %ehselector.slot = alloca i32, align 4
  %errOutTmp = alloca %"class.std::__cxx11::basic_stringstream", align 8
  %ref.tmp = alloca %"class.cvc5::internal::TypeNode", align 8
  %agg.tmp9 = alloca %"class.cvc5::internal::NodeTemplate.107", align 8
  %agg.tmp17 = alloca %"class.cvc5::internal::NodeTemplate.107", align 8
  %agg.tmp20 = alloca %"class.std::__cxx11::basic_string", align 8
  %cleanup.isactive = alloca i1, align 1
  store ptr %agg.result, ptr %result.ptr, align 8
  store ptr %this, ptr %this.addr, align 8
  %frombool = zext i1 %check to i8
  store i8 %frombool, ptr %check.addr, align 1
  %this1 = load ptr, ptr %this.addr, align 8
  call void @_ZNK4cvc58internal12NodeTemplateILb0EE21assertTNodeNotExpiredEv(ptr noundef nonnull align 8 dereferenceable(8) %this1)
  store i1 false, ptr %nrvo, align 1
  %call = call noundef ptr @_ZN4cvc58internal11NodeManager9currentNMEv()
  call void @_ZN4cvc58internal12NodeTemplateILb0EEC2ERKS2_(ptr noundef nonnull align 8 dereferenceable(8) %agg.tmp, ptr noundef nonnull align 8 dereferenceable(8) %this1)
  %0 = load i8, ptr %check.addr, align 1
  %tobool = trunc i8 %0 to i1
  invoke void @_ZN4cvc58internal11NodeManager7getTypeENS0_12NodeTemplateILb0EEEbPSo(ptr sret(%"class.cvc5::internal::TypeNode") align 8 %agg.result, ptr noundef nonnull align 8 dereferenceable(3360) %call, ptr noundef %agg.tmp, i1 noundef zeroext %tobool, ptr noundef null)
          to label %invoke.cont unwind label %lpad

invoke.cont:                                      ; preds = %entry
  call void @_ZN4cvc58internal12NodeTemplateILb0EED2Ev(ptr noundef nonnull align 8 dereferenceable(8) %agg.tmp) #3
  %call4 = invoke noundef zeroext i1 @_ZNK4cvc58internal8TypeNode6isNullEv(ptr noundef nonnull align 8 dereferenceable(8) %agg.result)
          to label %invoke.cont3 unwind label %lpad2

invoke.cont3:                                     ; preds = %invoke.cont
  br i1 %call4, label %if.then, label %if.end

if.then:                                          ; preds = %invoke.cont3
  invoke void @_ZNSt7__cxx1118basic_stringstreamIcSt11char_traitsIcESaIcEEC1Ev(ptr noundef nonnull align 8 dereferenceable(128) %errOutTmp)
          to label %invoke.cont5 unwind label %lpad2

invoke.cont5:                                     ; preds = %if.then
  %call8 = invoke noundef ptr @_ZN4cvc58internal11NodeManager9currentNMEv()
          to label %invoke.cont7 unwind label %lpad6

invoke.cont7:                                     ; preds = %invoke.cont5
  invoke void @_ZN4cvc58internal12NodeTemplateILb0EEC2ERKS2_(ptr noundef nonnull align 8 dereferenceable(8) %agg.tmp9, ptr noundef nonnull align 8 dereferenceable(8) %this1)
          to label %invoke.cont10 unwind label %lpad6

invoke.cont10:                                    ; preds = %invoke.cont7
  %1 = load i8, ptr %check.addr, align 1
  %tobool11 = trunc i8 %1 to i1
  %2 = icmp eq ptr %errOutTmp, null
  br i1 %2, label %cast.end, label %cast.notnull

cast.notnull:                                     ; preds = %invoke.cont10
  %add.ptr = getelementptr inbounds i8, ptr %errOutTmp, i64 16
  br label %cast.end

cast.end:                                         ; preds = %cast.notnull, %invoke.cont10
  %cast.result = phi ptr [ %add.ptr, %cast.notnull ], [ null, %invoke.cont10 ]
  invoke void @_ZN4cvc58internal11NodeManager7getTypeENS0_12NodeTemplateILb0EEEbPSo(ptr sret(%"class.cvc5::internal::TypeNode") align 8 %ref.tmp, ptr noundef nonnull align 8 dereferenceable(3360) %call8, ptr noundef %agg.tmp9, i1 noundef zeroext %tobool11, ptr noundef %cast.result)
          to label %invoke.cont13 unwind label %lpad12

invoke.cont13:                                    ; preds = %cast.end
  %call16 = invoke noundef nonnull align 8 dereferenceable(8) ptr @_ZN4cvc58internal8TypeNodeaSERKS1_(ptr noundef nonnull align 8 dereferenceable(8) %agg.result, ptr noundef nonnull align 8 dereferenceable(8) %ref.tmp)
          to label %invoke.cont15 unwind label %lpad14

invoke.cont15:                                    ; preds = %invoke.cont13
  call void @_ZN4cvc58internal8TypeNodeD2Ev(ptr noundef nonnull align 8 dereferenceable(8) %ref.tmp) #3
  call void @_ZN4cvc58internal12NodeTemplateILb0EED2Ev(ptr noundef nonnull align 8 dereferenceable(8) %agg.tmp9) #3
  store i1 true, ptr %cleanup.isactive, align 1
  %exception = call ptr @__cxa_allocate_exception(i64 48) #3
  invoke void @_ZN4cvc58internal12NodeTemplateILb0EEC2ERKS2_(ptr noundef nonnull align 8 dereferenceable(8) %agg.tmp17, ptr noundef nonnull align 8 dereferenceable(8) %this1)
          to label %invoke.cont19 unwind label %lpad18

invoke.cont19:                                    ; preds = %invoke.cont15
  invoke void @_ZNKSt7__cxx1118basic_stringstreamIcSt11char_traitsIcESaIcEE3strEv(ptr sret(%"class.std::__cxx11::basic_string") align 8 %agg.tmp20, ptr noundef nonnull align 8 dereferenceable(128) %errOutTmp)
          to label %invoke.cont22 unwind label %lpad21

invoke.cont22:                                    ; preds = %invoke.cont19
  invoke void @_ZN4cvc58internal28TypeCheckingExceptionPrivateC1ENS0_12NodeTemplateILb0EEENSt7__cxx1112basic_stringIcSt11char_traitsIcESaIcEEE(ptr noundef nonnull align 8 dereferenceable(48) %exception, ptr noundef %agg.tmp17, ptr noundef %agg.tmp20)
          to label %invoke.cont24 unwind label %lpad23

invoke.cont24:                                    ; preds = %invoke.cont22
  store i1 false, ptr %cleanup.isactive, align 1
  invoke void @__cxa_throw(ptr %exception, ptr @_ZTIN4cvc58internal28TypeCheckingExceptionPrivateE, ptr @_ZN4cvc58internal28TypeCheckingExceptionPrivateD1Ev) #16
          to label %unreachable unwind label %lpad23

lpad:                                             ; preds = %entry
  %3 = landingpad { ptr, i32 }
          cleanup
  %4 = extractvalue { ptr, i32 } %3, 0
  store ptr %4, ptr %exn.slot, align 8
  %5 = extractvalue { ptr, i32 } %3, 1
  store i32 %5, ptr %ehselector.slot, align 4
  call void @_ZN4cvc58internal12NodeTemplateILb0EED2Ev(ptr noundef nonnull align 8 dereferenceable(8) %agg.tmp) #3
  br label %eh.resume

lpad2:                                            ; preds = %if.then, %invoke.cont
  %6 = landingpad { ptr, i32 }
          cleanup
  %7 = extractvalue { ptr, i32 } %6, 0
  store ptr %7, ptr %exn.slot, align 8
  %8 = extractvalue { ptr, i32 } %6, 1
  store i32 %8, ptr %ehselector.slot, align 4
  br label %ehcleanup29

lpad6:                                            ; preds = %invoke.cont7, %invoke.cont5
  %9 = landingpad { ptr, i32 }
          cleanup
  %10 = extractvalue { ptr, i32 } %9, 0
  store ptr %10, ptr %exn.slot, align 8
  %11 = extractvalue { ptr, i32 } %9, 1
  store i32 %11, ptr %ehselector.slot, align 4
  br label %ehcleanup28

lpad12:                                           ; preds = %cast.end
  %12 = landingpad { ptr, i32 }
          cleanup
  %13 = extractvalue { ptr, i32 } %12, 0
  store ptr %13, ptr %exn.slot, align 8
  %14 = extractvalue { ptr, i32 } %12, 1
  store i32 %14, ptr %ehselector.slot, align 4
  br label %ehcleanup

lpad14:                                           ; preds = %invoke.cont13
  %15 = landingpad { ptr, i32 }
          cleanup
  %16 = extractvalue { ptr, i32 } %15, 0
  store ptr %16, ptr %exn.slot, align 8
  %17 = extractvalue { ptr, i32 } %15, 1
  store i32 %17, ptr %ehselector.slot, align 4
  call void @_ZN4cvc58internal8TypeNodeD2Ev(ptr noundef nonnull align 8 dereferenceable(8) %ref.tmp) #3
  br label %ehcleanup

ehcleanup:                                        ; preds = %lpad14, %lpad12
  call void @_ZN4cvc58internal12NodeTemplateILb0EED2Ev(ptr noundef nonnull align 8 dereferenceable(8) %agg.tmp9) #3
  br label %ehcleanup28

lpad18:                                           ; preds = %invoke.cont15
  %18 = landingpad { ptr, i32 }
          cleanup
  %19 = extractvalue { ptr, i32 } %18, 0
  store ptr %19, ptr %exn.slot, align 8
  %20 = extractvalue { ptr, i32 } %18, 1
  store i32 %20, ptr %ehselector.slot, align 4
  br label %ehcleanup27

lpad21:                                           ; preds = %invoke.cont19
  %21 = landingpad { ptr, i32 }
          cleanup
  %22 = extractvalue { ptr, i32 } %21, 0
  store ptr %22, ptr %exn.slot, align 8
  %23 = extractvalue { ptr, i32 } %21, 1
  store i32 %23, ptr %ehselector.slot, align 4
  br label %ehcleanup26

lpad23:                                           ; preds = %invoke.cont24, %invoke.cont22
  %24 = landingpad { ptr, i32 }
          cleanup
  %25 = extractvalue { ptr, i32 } %24, 0
  store ptr %25, ptr %exn.slot, align 8
  %26 = extractvalue { ptr, i32 } %24, 1
  store i32 %26, ptr %ehselector.slot, align 4
  call void @_ZNSt7__cxx1112basic_stringIcSt11char_traitsIcESaIcEED1Ev(ptr noundef nonnull align 8 dereferenceable(32) %agg.tmp20) #3
  br label %ehcleanup26

ehcleanup26:                                      ; preds = %lpad23, %lpad21
  call void @_ZN4cvc58internal12NodeTemplateILb0EED2Ev(ptr noundef nonnull align 8 dereferenceable(8) %agg.tmp17) #3
  br label %ehcleanup27

ehcleanup27:                                      ; preds = %ehcleanup26, %lpad18
  %cleanup.is_active = load i1, ptr %cleanup.isactive, align 1
  br i1 %cleanup.is_active, label %cleanup.action, label %cleanup.done

cleanup.action:                                   ; preds = %ehcleanup27
  call void @__cxa_free_exception(ptr %exception) #3
  br label %cleanup.done

cleanup.done:                                     ; preds = %cleanup.action, %ehcleanup27
  br label %ehcleanup28

ehcleanup28:                                      ; preds = %cleanup.done, %ehcleanup, %lpad6
  call void @_ZNSt7__cxx1118basic_stringstreamIcSt11char_traitsIcESaIcEED1Ev(ptr noundef nonnull align 8 dereferenceable(128) %errOutTmp) #3
  br label %ehcleanup29

if.end:                                           ; preds = %invoke.cont3
  store i1 true, ptr %nrvo, align 1
  %nrvo.val = load i1, ptr %nrvo, align 1
  br i1 %nrvo.val, label %nrvo.skipdtor, label %nrvo.unused

nrvo.unused:                                      ; preds = %if.end
  call void @_ZN4cvc58internal8TypeNodeD2Ev(ptr noundef nonnull align 8 dereferenceable(8) %agg.result) #3
  br label %nrvo.skipdtor

nrvo.skipdtor:                                    ; preds = %nrvo.unused, %if.end
  ret void

ehcleanup29:                                      ; preds = %ehcleanup28, %lpad2
  call void @_ZN4cvc58internal8TypeNodeD2Ev(ptr noundef nonnull align 8 dereferenceable(8) %agg.result) #3
  br label %eh.resume

eh.resume:                                        ; preds = %ehcleanup29, %lpad
  %exn = load ptr, ptr %exn.slot, align 8
  %sel = load i32, ptr %ehselector.slot, align 4
  %lpad.val = insertvalue { ptr, i32 } poison, ptr %exn, 0
  %lpad.val30 = insertvalue { ptr, i32 } %lpad.val, i32 %sel, 1
  resume { ptr, i32 } %lpad.val30

unreachable:                                      ; preds = %invoke.cont24
  unreachable
}

; Function Attrs: mustprogress uwtable
define linkonce_odr hidden noundef nonnull align 4 dereferenceable(4) ptr @_ZNSt3mapISt4pairIN4cvc58internal8TypeNodeEjEjSt4lessIS4_ESaIS0_IKS4_jEEEixERS7_(ptr noundef nonnull align 8 dereferenceable(48) %this, ptr noundef nonnull align 8 dereferenceable(12) %__k) #5 comdat align 2 {
entry:
  %this.addr = alloca ptr, align 8
  %__k.addr = alloca ptr, align 8
  %__i = alloca %"struct.std::_Rb_tree_iterator.169", align 8
  %ref.tmp = alloca %"struct.std::_Rb_tree_iterator.169", align 8
  %ref.tmp5 = alloca %"struct.std::less.14", align 1
  %ref.tmp8 = alloca %"struct.std::_Rb_tree_iterator.169", align 8
  %agg.tmp = alloca %"struct.std::_Rb_tree_const_iterator.170", align 8
  %ref.tmp9 = alloca %"class.std::tuple.155", align 8
  %ref.tmp10 = alloca %"class.std::tuple.139", align 1
  store ptr %this, ptr %this.addr, align 8
  store ptr %__k, ptr %__k.addr, align 8
  %this1 = load ptr, ptr %this.addr, align 8
  %0 = load ptr, ptr %__k.addr, align 8
  %call = call ptr @_ZNSt3mapISt4pairIN4cvc58internal8TypeNodeEjEjSt4lessIS4_ESaIS0_IKS4_jEEE11lower_boundERS7_(ptr noundef nonnull align 8 dereferenceable(48) %this1, ptr noundef nonnull align 8 dereferenceable(12) %0)
  %coerce.dive = getelementptr inbounds %"struct.std::_Rb_tree_iterator.169", ptr %__i, i32 0, i32 0
  store ptr %call, ptr %coerce.dive, align 8
  %call2 = call ptr @_ZNSt3mapISt4pairIN4cvc58internal8TypeNodeEjEjSt4lessIS4_ESaIS0_IKS4_jEEE3endEv(ptr noundef nonnull align 8 dereferenceable(48) %this1) #3
  %coerce.dive3 = getelementptr inbounds %"struct.std::_Rb_tree_iterator.169", ptr %ref.tmp, i32 0, i32 0
  store ptr %call2, ptr %coerce.dive3, align 8
  %call4 = call noundef zeroext i1 @_ZSteqRKSt17_Rb_tree_iteratorISt4pairIKS0_IN4cvc58internal8TypeNodeEjEjEES9_(ptr noundef nonnull align 8 dereferenceable(8) %__i, ptr noundef nonnull align 8 dereferenceable(8) %ref.tmp) #3
  br i1 %call4, label %lor.end, label %lor.rhs

lor.rhs:                                          ; preds = %entry
  call void @_ZNKSt3mapISt4pairIN4cvc58internal8TypeNodeEjEjSt4lessIS4_ESaIS0_IKS4_jEEE8key_compEv(ptr noundef nonnull align 8 dereferenceable(48) %this1)
  %1 = load ptr, ptr %__k.addr, align 8
  %call6 = call noundef nonnull align 8 dereferenceable(20) ptr @_ZNKSt17_Rb_tree_iteratorISt4pairIKS0_IN4cvc58internal8TypeNodeEjEjEEdeEv(ptr noundef nonnull align 8 dereferenceable(8) %__i) #3
  %first = getelementptr inbounds %"struct.std::pair.130", ptr %call6, i32 0, i32 0
  %call7 = call noundef zeroext i1 @_ZNKSt4lessISt4pairIN4cvc58internal8TypeNodeEjEEclERKS4_S7_(ptr noundef nonnull align 1 dereferenceable(1) %ref.tmp5, ptr noundef nonnull align 8 dereferenceable(12) %1, ptr noundef nonnull align 8 dereferenceable(12) %first)
  br label %lor.end

lor.end:                                          ; preds = %lor.rhs, %entry
  %2 = phi i1 [ true, %entry ], [ %call7, %lor.rhs ]
  br i1 %2, label %if.then, label %if.end

if.then:                                          ; preds = %lor.end
  %_M_t = getelementptr inbounds %"class.std::map.121", ptr %this1, i32 0, i32 0
  call void @_ZNSt23_Rb_tree_const_iteratorISt4pairIKS0_IN4cvc58internal8TypeNodeEjEjEEC2ERKSt17_Rb_tree_iteratorIS6_E(ptr noundef nonnull align 8 dereferenceable(8) %agg.tmp, ptr noundef nonnull align 8 dereferenceable(8) %__i) #3
  %3 = load ptr, ptr %__k.addr, align 8
  call void @_ZNSt5tupleIJRKSt4pairIN4cvc58internal8TypeNodeEjEEEC2ILb1ETnNSt9enable_ifIXclsr4_TCCIXT_EEE29__is_implicitly_constructibleIS6_EEEbE4typeELb1EEES6_(ptr noundef nonnull align 8 dereferenceable(8) %ref.tmp9, ptr noundef nonnull align 8 dereferenceable(12) %3) #3
  %coerce.dive11 = getelementptr inbounds %"struct.std::_Rb_tree_const_iterator.170", ptr %agg.tmp, i32 0, i32 0
  %4 = load ptr, ptr %coerce.dive11, align 8
  %call12 = call ptr @_ZNSt8_Rb_treeISt4pairIN4cvc58internal8TypeNodeEjES0_IKS4_jESt10_Select1stIS6_ESt4lessIS4_ESaIS6_EE22_M_emplace_hint_uniqueIJRKSt21piecewise_construct_tSt5tupleIJRS5_EESH_IJEEEEESt17_Rb_tree_iteratorIS6_ESt23_Rb_tree_const_iteratorIS6_EDpOT_(ptr noundef nonnull align 8 dereferenceable(48) %_M_t, ptr %4, ptr noundef nonnull align 1 dereferenceable(1) @_ZSt19piecewise_construct, ptr noundef nonnull align 8 dereferenceable(8) %ref.tmp9, ptr noundef nonnull align 1 dereferenceable(1) %ref.tmp10)
  %coerce.dive13 = getelementptr inbounds %"struct.std::_Rb_tree_iterator.169", ptr %ref.tmp8, i32 0, i32 0
  store ptr %call12, ptr %coerce.dive13, align 8
  call void @llvm.memcpy.p0.p0.i64(ptr align 8 %__i, ptr align 8 %ref.tmp8, i64 8, i1 false)
  br label %if.end

if.end:                                           ; preds = %if.then, %lor.end
  %call14 = call noundef nonnull align 8 dereferenceable(20) ptr @_ZNKSt17_Rb_tree_iteratorISt4pairIKS0_IN4cvc58internal8TypeNodeEjEjEEdeEv(ptr noundef nonnull align 8 dereferenceable(8) %__i) #3
  %second = getelementptr inbounds %"struct.std::pair.130", ptr %call14, i32 0, i32 1
  ret ptr %second
}

; Function Attrs: mustprogress uwtable
define linkonce_odr hidden void @_ZN4cvc58internal8TypeNodeC2ERKS1_(ptr noundef nonnull align 8 dereferenceable(8) %this, ptr noundef nonnull align 8 dereferenceable(8) %typeNode) unnamed_addr #5 comdat align 2 {
entry:
  %this.addr = alloca ptr, align 8
  %typeNode.addr = alloca ptr, align 8
  store ptr %this, ptr %this.addr, align 8
  store ptr %typeNode, ptr %typeNode.addr, align 8
  %this1 = load ptr, ptr %this.addr, align 8
  %0 = load ptr, ptr %typeNode.addr, align 8
  %d_nv = getelementptr inbounds %"class.cvc5::internal::TypeNode", ptr %0, i32 0, i32 0
  %1 = load ptr, ptr %d_nv, align 8
  %d_nv2 = getelementptr inbounds %"class.cvc5::internal::TypeNode", ptr %this1, i32 0, i32 0
  store ptr %1, ptr %d_nv2, align 8
  %d_nv3 = getelementptr inbounds %"class.cvc5::internal::TypeNode", ptr %this1, i32 0, i32 0
  %2 = load ptr, ptr %d_nv3, align 8
  call void @_ZN4cvc58internal4expr9NodeValue3incEv(ptr noundef nonnull align 8 dereferenceable(16) %2)
  ret void
}

; Function Attrs: mustprogress nounwind uwtable
define linkonce_odr hidden void @_ZN4cvc58internal8TypeNodeD2Ev(ptr noundef nonnull align 8 dereferenceable(8) %this) unnamed_addr #4 comdat align 2 personality ptr @__gxx_personality_v0 {
entry:
  %this.addr = alloca ptr, align 8
  store ptr %this, ptr %this.addr, align 8
  %this1 = load ptr, ptr %this.addr, align 8
  %d_nv = getelementptr inbounds %"class.cvc5::internal::TypeNode", ptr %this1, i32 0, i32 0
  %0 = load ptr, ptr %d_nv, align 8
  invoke void @_ZN4cvc58internal4expr9NodeValue3decEv(ptr noundef nonnull align 8 dereferenceable(16) %0)
          to label %invoke.cont unwind label %terminate.lpad

invoke.cont:                                      ; preds = %entry
  ret void

terminate.lpad:                                   ; preds = %entry
  %1 = landingpad { ptr, i32 }
          catch ptr null
  %2 = extractvalue { ptr, i32 } %1, 0
  call void @__clang_call_terminate(ptr %2) #15
  unreachable
}

; Function Attrs: mustprogress uwtable
define linkonce_odr hidden noundef nonnull align 8 dereferenceable(8) ptr @_ZNSt3mapIN4cvc58internal12NodeTemplateILb0EEENS2_ILb1EEESt4lessIS3_ESaISt4pairIKS3_S4_EEEixERS8_(ptr noundef nonnull align 8 dereferenceable(48) %this, ptr noundef nonnull align 8 dereferenceable(8) %__k) #5 comdat align 2 {
entry:
  %this.addr = alloca ptr, align 8
  %__k.addr = alloca ptr, align 8
  %__i = alloca %"struct.std::_Rb_tree_iterator.110", align 8
  %ref.tmp = alloca %"struct.std::_Rb_tree_iterator.110", align 8
  %ref.tmp5 = alloca %"struct.std::less.117", align 1
  %ref.tmp8 = alloca %"struct.std::_Rb_tree_iterator.110", align 8
  %agg.tmp = alloca %"struct.std::_Rb_tree_const_iterator.173", align 8
  %ref.tmp9 = alloca %"class.std::tuple.174", align 8
  %ref.tmp10 = alloca %"class.std::tuple.139", align 1
  store ptr %this, ptr %this.addr, align 8
  store ptr %__k, ptr %__k.addr, align 8
  %this1 = load ptr, ptr %this.addr, align 8
  %0 = load ptr, ptr %__k.addr, align 8
  %call = call ptr @_ZNSt3mapIN4cvc58internal12NodeTemplateILb0EEENS2_ILb1EEESt4lessIS3_ESaISt4pairIKS3_S4_EEE11lower_boundERS8_(ptr noundef nonnull align 8 dereferenceable(48) %this1, ptr noundef nonnull align 8 dereferenceable(8) %0)
  %coerce.dive = getelementptr inbounds %"struct.std::_Rb_tree_iterator.110", ptr %__i, i32 0, i32 0
  store ptr %call, ptr %coerce.dive, align 8
  %call2 = call ptr @_ZNSt3mapIN4cvc58internal12NodeTemplateILb0EEENS2_ILb1EEESt4lessIS3_ESaISt4pairIKS3_S4_EEE3endEv(ptr noundef nonnull align 8 dereferenceable(48) %this1) #3
  %coerce.dive3 = getelementptr inbounds %"struct.std::_Rb_tree_iterator.110", ptr %ref.tmp, i32 0, i32 0
  store ptr %call2, ptr %coerce.dive3, align 8
  %call4 = call noundef zeroext i1 @_ZSteqRKSt17_Rb_tree_iteratorISt4pairIKN4cvc58internal12NodeTemplateILb0EEENS3_ILb1EEEEESA_(ptr noundef nonnull align 8 dereferenceable(8) %__i, ptr noundef nonnull align 8 dereferenceable(8) %ref.tmp) #3
  br i1 %call4, label %lor.end, label %lor.rhs

lor.rhs:                                          ; preds = %entry
  call void @_ZNKSt3mapIN4cvc58internal12NodeTemplateILb0EEENS2_ILb1EEESt4lessIS3_ESaISt4pairIKS3_S4_EEE8key_compEv(ptr noundef nonnull align 8 dereferenceable(48) %this1)
  %1 = load ptr, ptr %__k.addr, align 8
  %call6 = call noundef nonnull align 8 dereferenceable(16) ptr @_ZNKSt17_Rb_tree_iteratorISt4pairIKN4cvc58internal12NodeTemplateILb0EEENS3_ILb1EEEEEdeEv(ptr noundef nonnull align 8 dereferenceable(8) %__i) #3
  %first = getelementptr inbounds %"struct.std::pair.119", ptr %call6, i32 0, i32 0
  %call7 = call noundef zeroext i1 @_ZNKSt4lessIN4cvc58internal12NodeTemplateILb0EEEEclERKS3_S6_(ptr noundef nonnull align 1 dereferenceable(1) %ref.tmp5, ptr noundef nonnull align 8 dereferenceable(8) %1, ptr noundef nonnull align 8 dereferenceable(8) %first)
  br label %lor.end

lor.end:                                          ; preds = %lor.rhs, %entry
  %2 = phi i1 [ true, %entry ], [ %call7, %lor.rhs ]
  br i1 %2, label %if.then, label %if.end

if.then:                                          ; preds = %lor.end
  %_M_t = getelementptr inbounds %"class.std::map.111", ptr %this1, i32 0, i32 0
  call void @_ZNSt23_Rb_tree_const_iteratorISt4pairIKN4cvc58internal12NodeTemplateILb0EEENS3_ILb1EEEEEC2ERKSt17_Rb_tree_iteratorIS7_E(ptr noundef nonnull align 8 dereferenceable(8) %agg.tmp, ptr noundef nonnull align 8 dereferenceable(8) %__i) #3
  %3 = load ptr, ptr %__k.addr, align 8
  call void @_ZNSt5tupleIJRKN4cvc58internal12NodeTemplateILb0EEEEEC2ILb1ETnNSt9enable_ifIXclsr4_TCCIXT_EEE29__is_implicitly_constructibleIS5_EEEbE4typeELb1EEES5_(ptr noundef nonnull align 8 dereferenceable(8) %ref.tmp9, ptr noundef nonnull align 8 dereferenceable(8) %3) #3
  %coerce.dive11 = getelementptr inbounds %"struct.std::_Rb_tree_const_iterator.173", ptr %agg.tmp, i32 0, i32 0
  %4 = load ptr, ptr %coerce.dive11, align 8
  %call12 = call ptr @_ZNSt8_Rb_treeIN4cvc58internal12NodeTemplateILb0EEESt4pairIKS3_NS2_ILb1EEEESt10_Select1stIS7_ESt4lessIS3_ESaIS7_EE22_M_emplace_hint_uniqueIJRKSt21piecewise_construct_tSt5tupleIJRS5_EESI_IJEEEEESt17_Rb_tree_iteratorIS7_ESt23_Rb_tree_const_iteratorIS7_EDpOT_(ptr noundef nonnull align 8 dereferenceable(48) %_M_t, ptr %4, ptr noundef nonnull align 1 dereferenceable(1) @_ZSt19piecewise_construct, ptr noundef nonnull align 8 dereferenceable(8) %ref.tmp9, ptr noundef nonnull align 1 dereferenceable(1) %ref.tmp10)
  %coerce.dive13 = getelementptr inbounds %"struct.std::_Rb_tree_iterator.110", ptr %ref.tmp8, i32 0, i32 0
  store ptr %call12, ptr %coerce.dive13, align 8
  call void @llvm.memcpy.p0.p0.i64(ptr align 8 %__i, ptr align 8 %ref.tmp8, i64 8, i1 false)
  br label %if.end

if.end:                                           ; preds = %if.then, %lor.end
  %call14 = call noundef nonnull align 8 dereferenceable(16) ptr @_ZNKSt17_Rb_tree_iteratorISt4pairIKN4cvc58internal12NodeTemplateILb0EEENS3_ILb1EEEEEdeEv(ptr noundef nonnull align 8 dereferenceable(8) %__i) #3
  %second = getelementptr inbounds %"struct.std::pair.119", ptr %call14, i32 0, i32 1
  ret ptr %second
}

; Function Attrs: mustprogress uwtable
define linkonce_odr hidden noundef nonnull align 8 dereferenceable(8) ptr @_ZN4cvc58internal12NodeTemplateILb1EEaSERKS2_(ptr noundef nonnull align 8 dereferenceable(8) %this, ptr noundef nonnull align 8 dereferenceable(8) %e) #5 comdat align 2 {
entry:
  %this.addr = alloca ptr, align 8
  %e.addr = alloca ptr, align 8
  store ptr %this, ptr %this.addr, align 8
  store ptr %e, ptr %e.addr, align 8
  %this1 = load ptr, ptr %this.addr, align 8
  %d_nv = getelementptr inbounds %"class.cvc5::internal::NodeTemplate", ptr %this1, i32 0, i32 0
  %0 = load ptr, ptr %d_nv, align 8
  %1 = load ptr, ptr %e.addr, align 8
  %d_nv2 = getelementptr inbounds %"class.cvc5::internal::NodeTemplate", ptr %1, i32 0, i32 0
  %2 = load ptr, ptr %d_nv2, align 8
  %cmp = icmp ne ptr %0, %2
  br i1 %cmp, label %if.then, label %if.end

if.then:                                          ; preds = %entry
  %d_nv3 = getelementptr inbounds %"class.cvc5::internal::NodeTemplate", ptr %this1, i32 0, i32 0
  %3 = load ptr, ptr %d_nv3, align 8
  call void @_ZN4cvc58internal4expr9NodeValue3decEv(ptr noundef nonnull align 8 dereferenceable(16) %3)
  %4 = load ptr, ptr %e.addr, align 8
  %d_nv4 = getelementptr inbounds %"class.cvc5::internal::NodeTemplate", ptr %4, i32 0, i32 0
  %5 = load ptr, ptr %d_nv4, align 8
  %d_nv5 = getelementptr inbounds %"class.cvc5::internal::NodeTemplate", ptr %this1, i32 0, i32 0
  store ptr %5, ptr %d_nv5, align 8
  %d_nv6 = getelementptr inbounds %"class.cvc5::internal::NodeTemplate", ptr %this1, i32 0, i32 0
  %6 = load ptr, ptr %d_nv6, align 8
  call void @_ZN4cvc58internal4expr9NodeValue3incEv(ptr noundef nonnull align 8 dereferenceable(16) %6)
  br label %if.end

if.end:                                           ; preds = %if.then, %entry
  ret ptr %this1
}

; Function Attrs: mustprogress uwtable
define linkonce_odr hidden noundef nonnull align 8 dereferenceable(24) ptr @_ZN4cvc58internal11Cvc5ostreamlsIA22_cEERS1_RKT_(ptr noundef nonnull align 8 dereferenceable(24) %this, ptr noundef nonnull align 1 dereferenceable(22) %t) #5 comdat align 2 {
entry:
  %this.addr = alloca ptr, align 8
  %t.addr = alloca ptr, align 8
  %indent = alloca i64, align 8
  %i = alloca i64, align 8
  store ptr %this, ptr %this.addr, align 8
  store ptr %t, ptr %t.addr, align 8
  %this1 = load ptr, ptr %this.addr, align 8
  %d_os = getelementptr inbounds %"class.cvc5::internal::Cvc5ostream", ptr %this1, i32 0, i32 0
  %0 = load ptr, ptr %d_os, align 8
  %cmp = icmp ne ptr %0, null
  br i1 %cmp, label %if.then, label %if.end11

if.then:                                          ; preds = %entry
  %d_firstColumn = getelementptr inbounds %"class.cvc5::internal::Cvc5ostream", ptr %this1, i32 0, i32 1
  %1 = load i8, ptr %d_firstColumn, align 8
  %tobool = trunc i8 %1 to i1
  br i1 %tobool, label %if.then2, label %if.end

if.then2:                                         ; preds = %if.then
  %d_firstColumn3 = getelementptr inbounds %"class.cvc5::internal::Cvc5ostream", ptr %this1, i32 0, i32 1
  store i8 0, ptr %d_firstColumn3, align 8
  %d_os4 = getelementptr inbounds %"class.cvc5::internal::Cvc5ostream", ptr %this1, i32 0, i32 0
  %2 = load ptr, ptr %d_os4, align 8
  %vtable = load ptr, ptr %2, align 8
  %vbase.offset.ptr = getelementptr i8, ptr %vtable, i64 -24
  %vbase.offset = load i64, ptr %vbase.offset.ptr, align 8
  %add.ptr = getelementptr inbounds i8, ptr %2, i64 %vbase.offset
  %3 = load i32, ptr @_ZN4cvc58internal11Cvc5ostream16s_indentIosIndexE, align 4
  %call = call noundef nonnull align 8 dereferenceable(8) ptr @_ZNSt8ios_base5iwordEi(ptr noundef nonnull align 8 dereferenceable(216) %add.ptr, i32 noundef %3)
  %4 = load i64, ptr %call, align 8
  store i64 %4, ptr %indent, align 8
  store i64 0, ptr %i, align 8
  br label %for.cond

for.cond:                                         ; preds = %for.inc, %if.then2
  %5 = load i64, ptr %i, align 8
  %6 = load i64, ptr %indent, align 8
  %cmp5 = icmp slt i64 %5, %6
  br i1 %cmp5, label %for.body, label %for.end

for.body:                                         ; preds = %for.cond
  %d_os6 = getelementptr inbounds %"class.cvc5::internal::Cvc5ostream", ptr %this1, i32 0, i32 0
  %7 = load ptr, ptr %d_os6, align 8
  %call7 = call noundef nonnull align 8 dereferenceable(8) ptr @_ZStlsIcSt11char_traitsIcESaIcEERSt13basic_ostreamIT_T0_ES7_RKNSt7__cxx1112basic_stringIS4_S5_T1_EE(ptr noundef nonnull align 8 dereferenceable(8) %7, ptr noundef nonnull align 8 dereferenceable(32) @_ZN4cvc58internal11Cvc5ostream5s_tabB5cxx11E)
  %d_os8 = getelementptr inbounds %"class.cvc5::internal::Cvc5ostream", ptr %this1, i32 0, i32 0
  store ptr %call7, ptr %d_os8, align 8
  br label %for.inc

for.inc:                                          ; preds = %for.body
  %8 = load i64, ptr %i, align 8
  %inc = add nsw i64 %8, 1
  store i64 %inc, ptr %i, align 8
  br label %for.cond, !llvm.loop !13

for.end:                                          ; preds = %for.cond
  br label %if.end

if.end:                                           ; preds = %for.end, %if.then
  %d_os9 = getelementptr inbounds %"class.cvc5::internal::Cvc5ostream", ptr %this1, i32 0, i32 0
  %9 = load ptr, ptr %d_os9, align 8
  %10 = load ptr, ptr %t.addr, align 8
  %arraydecay = getelementptr inbounds [22 x i8], ptr %10, i64 0, i64 0
  %call10 = call noundef nonnull align 8 dereferenceable(8) ptr @_ZStlsISt11char_traitsIcEERSt13basic_ostreamIcT_ES5_PKc(ptr noundef nonnull align 8 dereferenceable(8) %9, ptr noundef %arraydecay)
  br label %if.end11

if.end11:                                         ; preds = %if.end, %entry
  ret ptr %this1
}

; Function Attrs: mustprogress uwtable
define linkonce_odr hidden noundef i64 @_ZNK4cvc58internal12NodeTemplateILb0EE14getNumChildrenEv(ptr noundef nonnull align 8 dereferenceable(8) %this) #5 comdat align 2 {
entry:
  %this.addr = alloca ptr, align 8
  store ptr %this, ptr %this.addr, align 8
  %this1 = load ptr, ptr %this.addr, align 8
  call void @_ZNK4cvc58internal12NodeTemplateILb0EE21assertTNodeNotExpiredEv(ptr noundef nonnull align 8 dereferenceable(8) %this1)
  %d_nv = getelementptr inbounds %"class.cvc5::internal::NodeTemplate.107", ptr %this1, i32 0, i32 0
  %0 = load ptr, ptr %d_nv, align 8
  %call = call noundef i32 @_ZNK4cvc58internal4expr9NodeValue14getNumChildrenEv(ptr noundef nonnull align 8 dereferenceable(16) %0)
  %conv = zext i32 %call to i64
  ret i64 %conv
}

; Function Attrs: mustprogress uwtable
define linkonce_odr hidden noundef nonnull align 8 dereferenceable(24) ptr @_ZN4cvc58internal11Cvc5ostreamlsIA17_cEERS1_RKT_(ptr noundef nonnull align 8 dereferenceable(24) %this, ptr noundef nonnull align 1 dereferenceable(17) %t) #5 comdat align 2 {
entry:
  %this.addr = alloca ptr, align 8
  %t.addr = alloca ptr, align 8
  %indent = alloca i64, align 8
  %i = alloca i64, align 8
  store ptr %this, ptr %this.addr, align 8
  store ptr %t, ptr %t.addr, align 8
  %this1 = load ptr, ptr %this.addr, align 8
  %d_os = getelementptr inbounds %"class.cvc5::internal::Cvc5ostream", ptr %this1, i32 0, i32 0
  %0 = load ptr, ptr %d_os, align 8
  %cmp = icmp ne ptr %0, null
  br i1 %cmp, label %if.then, label %if.end11

if.then:                                          ; preds = %entry
  %d_firstColumn = getelementptr inbounds %"class.cvc5::internal::Cvc5ostream", ptr %this1, i32 0, i32 1
  %1 = load i8, ptr %d_firstColumn, align 8
  %tobool = trunc i8 %1 to i1
  br i1 %tobool, label %if.then2, label %if.end

if.then2:                                         ; preds = %if.then
  %d_firstColumn3 = getelementptr inbounds %"class.cvc5::internal::Cvc5ostream", ptr %this1, i32 0, i32 1
  store i8 0, ptr %d_firstColumn3, align 8
  %d_os4 = getelementptr inbounds %"class.cvc5::internal::Cvc5ostream", ptr %this1, i32 0, i32 0
  %2 = load ptr, ptr %d_os4, align 8
  %vtable = load ptr, ptr %2, align 8
  %vbase.offset.ptr = getelementptr i8, ptr %vtable, i64 -24
  %vbase.offset = load i64, ptr %vbase.offset.ptr, align 8
  %add.ptr = getelementptr inbounds i8, ptr %2, i64 %vbase.offset
  %3 = load i32, ptr @_ZN4cvc58internal11Cvc5ostream16s_indentIosIndexE, align 4
  %call = call noundef nonnull align 8 dereferenceable(8) ptr @_ZNSt8ios_base5iwordEi(ptr noundef nonnull align 8 dereferenceable(216) %add.ptr, i32 noundef %3)
  %4 = load i64, ptr %call, align 8
  store i64 %4, ptr %indent, align 8
  store i64 0, ptr %i, align 8
  br label %for.cond

for.cond:                                         ; preds = %for.inc, %if.then2
  %5 = load i64, ptr %i, align 8
  %6 = load i64, ptr %indent, align 8
  %cmp5 = icmp slt i64 %5, %6
  br i1 %cmp5, label %for.body, label %for.end

for.body:                                         ; preds = %for.cond
  %d_os6 = getelementptr inbounds %"class.cvc5::internal::Cvc5ostream", ptr %this1, i32 0, i32 0
  %7 = load ptr, ptr %d_os6, align 8
  %call7 = call noundef nonnull align 8 dereferenceable(8) ptr @_ZStlsIcSt11char_traitsIcESaIcEERSt13basic_ostreamIT_T0_ES7_RKNSt7__cxx1112basic_stringIS4_S5_T1_EE(ptr noundef nonnull align 8 dereferenceable(8) %7, ptr noundef nonnull align 8 dereferenceable(32) @_ZN4cvc58internal11Cvc5ostream5s_tabB5cxx11E)
  %d_os8 = getelementptr inbounds %"class.cvc5::internal::Cvc5ostream", ptr %this1, i32 0, i32 0
  store ptr %call7, ptr %d_os8, align 8
  br label %for.inc

for.inc:                                          ; preds = %for.body
  %8 = load i64, ptr %i, align 8
  %inc = add nsw i64 %8, 1
  store i64 %inc, ptr %i, align 8
  br label %for.cond, !llvm.loop !14

for.end:                                          ; preds = %for.cond
  br label %if.end

if.end:                                           ; preds = %for.end, %if.then
  %d_os9 = getelementptr inbounds %"class.cvc5::internal::Cvc5ostream", ptr %this1, i32 0, i32 0
  %9 = load ptr, ptr %d_os9, align 8
  %10 = load ptr, ptr %t.addr, align 8
  %arraydecay = getelementptr inbounds [17 x i8], ptr %10, i64 0, i64 0
  %call10 = call noundef nonnull align 8 dereferenceable(8) ptr @_ZStlsISt11char_traitsIcEERSt13basic_ostreamIcT_ES5_PKc(ptr noundef nonnull align 8 dereferenceable(8) %9, ptr noundef %arraydecay)
  br label %if.end11

if.end11:                                         ; preds = %if.end, %entry
  ret ptr %this1
}

; Function Attrs: mustprogress nounwind uwtable
define linkonce_odr hidden void @_ZNSt6vectorIN4cvc58internal12NodeTemplateILb1EEESaIS3_EEC2Ev(ptr noundef nonnull align 8 dereferenceable(24) %this) unnamed_addr #4 comdat align 2 {
entry:
  %this.addr = alloca ptr, align 8
  store ptr %this, ptr %this.addr, align 8
  %this1 = load ptr, ptr %this.addr, align 8
  call void @_ZNSt12_Vector_baseIN4cvc58internal12NodeTemplateILb1EEESaIS3_EEC2Ev(ptr noundef nonnull align 8 dereferenceable(24) %this1) #3
  ret void
}

; Function Attrs: mustprogress uwtable
define linkonce_odr hidden ptr @_ZN4cvc58internal12NodeTemplateILb0EE5beginEv(ptr noundef nonnull align 8 dereferenceable(8) %this) #5 comdat align 2 {
entry:
  %retval = alloca %"class.cvc5::internal::expr::NodeValue::iterator", align 8
  %this.addr = alloca ptr, align 8
  store ptr %this, ptr %this.addr, align 8
  %this1 = load ptr, ptr %this.addr, align 8
  call void @_ZNK4cvc58internal12NodeTemplateILb0EE21assertTNodeNotExpiredEv(ptr noundef nonnull align 8 dereferenceable(8) %this1)
  %d_nv = getelementptr inbounds %"class.cvc5::internal::NodeTemplate.107", ptr %this1, i32 0, i32 0
  %0 = load ptr, ptr %d_nv, align 8
  %call = call ptr @_ZNK4cvc58internal4expr9NodeValue5beginINS0_12NodeTemplateILb0EEEEENS2_8iteratorIT_EEv(ptr noundef nonnull align 8 dereferenceable(16) %0)
  %coerce.dive = getelementptr inbounds %"class.cvc5::internal::expr::NodeValue::iterator", ptr %retval, i32 0, i32 0
  store ptr %call, ptr %coerce.dive, align 8
  %coerce.dive2 = getelementptr inbounds %"class.cvc5::internal::expr::NodeValue::iterator", ptr %retval, i32 0, i32 0
  %1 = load ptr, ptr %coerce.dive2, align 8
  ret ptr %1
}

; Function Attrs: mustprogress uwtable
define linkonce_odr hidden ptr @_ZN4cvc58internal12NodeTemplateILb0EE3endEv(ptr noundef nonnull align 8 dereferenceable(8) %this) #5 comdat align 2 {
entry:
  %retval = alloca %"class.cvc5::internal::expr::NodeValue::iterator", align 8
  %this.addr = alloca ptr, align 8
  store ptr %this, ptr %this.addr, align 8
  %this1 = load ptr, ptr %this.addr, align 8
  call void @_ZNK4cvc58internal12NodeTemplateILb0EE21assertTNodeNotExpiredEv(ptr noundef nonnull align 8 dereferenceable(8) %this1)
  %d_nv = getelementptr inbounds %"class.cvc5::internal::NodeTemplate.107", ptr %this1, i32 0, i32 0
  %0 = load ptr, ptr %d_nv, align 8
  %call = call ptr @_ZNK4cvc58internal4expr9NodeValue3endINS0_12NodeTemplateILb0EEEEENS2_8iteratorIT_EEv(ptr noundef nonnull align 8 dereferenceable(16) %0)
  %coerce.dive = getelementptr inbounds %"class.cvc5::internal::expr::NodeValue::iterator", ptr %retval, i32 0, i32 0
  store ptr %call, ptr %coerce.dive, align 8
  %coerce.dive2 = getelementptr inbounds %"class.cvc5::internal::expr::NodeValue::iterator", ptr %retval, i32 0, i32 0
  %1 = load ptr, ptr %coerce.dive2, align 8
  ret ptr %1
}

; Function Attrs: mustprogress nounwind uwtable
define linkonce_odr hidden noundef zeroext i1 @_ZNK4cvc58internal4expr9NodeValue8iteratorINS0_12NodeTemplateILb0EEEEneERKS6_(ptr noundef nonnull align 8 dereferenceable(8) %this, ptr noundef nonnull align 8 dereferenceable(8) %i) #4 comdat align 2 {
entry:
  %this.addr = alloca ptr, align 8
  %i.addr = alloca ptr, align 8
  store ptr %this, ptr %this.addr, align 8
  store ptr %i, ptr %i.addr, align 8
  %this1 = load ptr, ptr %this.addr, align 8
  %d_i = getelementptr inbounds %"class.cvc5::internal::expr::NodeValue::iterator", ptr %this1, i32 0, i32 0
  %0 = load ptr, ptr %d_i, align 8
  %1 = load ptr, ptr %i.addr, align 8
  %d_i2 = getelementptr inbounds %"class.cvc5::internal::expr::NodeValue::iterator", ptr %1, i32 0, i32 0
  %2 = load ptr, ptr %d_i2, align 8
  %cmp = icmp ne ptr %0, %2
  ret i1 %cmp
}

; Function Attrs: mustprogress uwtable
define linkonce_odr hidden void @_ZNK4cvc58internal4expr9NodeValue8iteratorINS0_12NodeTemplateILb0EEEEdeEv(ptr noalias sret(%"class.cvc5::internal::NodeTemplate.107") align 8 %agg.result, ptr noundef nonnull align 8 dereferenceable(8) %this) #5 comdat align 2 {
entry:
  %result.ptr = alloca ptr, align 8
  %this.addr = alloca ptr, align 8
  store ptr %agg.result, ptr %result.ptr, align 8
  store ptr %this, ptr %this.addr, align 8
  %this1 = load ptr, ptr %this.addr, align 8
  %d_i = getelementptr inbounds %"class.cvc5::internal::expr::NodeValue::iterator", ptr %this1, i32 0, i32 0
  %0 = load ptr, ptr %d_i, align 8
  %1 = load ptr, ptr %0, align 8
  call void @_ZN4cvc58internal12NodeTemplateILb0EEC2EPKNS0_4expr9NodeValueE(ptr noundef nonnull align 8 dereferenceable(8) %agg.result, ptr noundef %1)
  ret void
}

; Function Attrs: mustprogress uwtable
define linkonce_odr hidden void @_ZN4cvc58internal12NodeTemplateILb1EEC2ERKNS1_ILb0EEE(ptr noundef nonnull align 8 dereferenceable(8) %this, ptr noundef nonnull align 8 dereferenceable(8) %e) unnamed_addr #5 comdat align 2 {
entry:
  %this.addr = alloca ptr, align 8
  %e.addr = alloca ptr, align 8
  store ptr %this, ptr %this.addr, align 8
  store ptr %e, ptr %e.addr, align 8
  %this1 = load ptr, ptr %this.addr, align 8
  %0 = load ptr, ptr %e.addr, align 8
  %d_nv = getelementptr inbounds %"class.cvc5::internal::NodeTemplate.107", ptr %0, i32 0, i32 0
  %1 = load ptr, ptr %d_nv, align 8
  %d_nv2 = getelementptr inbounds %"class.cvc5::internal::NodeTemplate", ptr %this1, i32 0, i32 0
  store ptr %1, ptr %d_nv2, align 8
  %d_nv3 = getelementptr inbounds %"class.cvc5::internal::NodeTemplate", ptr %this1, i32 0, i32 0
  %2 = load ptr, ptr %d_nv3, align 8
  call void @_ZN4cvc58internal4expr9NodeValue3incEv(ptr noundef nonnull align 8 dereferenceable(16) %2)
  ret void
}

; Function Attrs: mustprogress nounwind uwtable
define linkonce_odr hidden noundef nonnull align 8 dereferenceable(8) ptr @_ZN4cvc58internal4expr9NodeValue8iteratorINS0_12NodeTemplateILb0EEEEppEv(ptr noundef nonnull align 8 dereferenceable(8) %this) #4 comdat align 2 {
entry:
  %this.addr = alloca ptr, align 8
  store ptr %this, ptr %this.addr, align 8
  %this1 = load ptr, ptr %this.addr, align 8
  %d_i = getelementptr inbounds %"class.cvc5::internal::expr::NodeValue::iterator", ptr %this1, i32 0, i32 0
  %0 = load ptr, ptr %d_i, align 8
  %incdec.ptr = getelementptr inbounds ptr, ptr %0, i32 1
  store ptr %incdec.ptr, ptr %d_i, align 8
  ret ptr %this1
}

declare noundef zeroext i1 @_ZN4cvc58internal6theory11quantifiers8TermUtil6isCommENS0_4kind6Kind_tEb(i32 noundef, i1 noundef zeroext) #1

; Function Attrs: mustprogress uwtable
define linkonce_odr hidden noundef nonnull align 8 dereferenceable(24) ptr @_ZN4cvc58internal11Cvc5ostreamlsIA36_cEERS1_RKT_(ptr noundef nonnull align 8 dereferenceable(24) %this, ptr noundef nonnull align 1 dereferenceable(36) %t) #5 comdat align 2 {
entry:
  %this.addr = alloca ptr, align 8
  %t.addr = alloca ptr, align 8
  %indent = alloca i64, align 8
  %i = alloca i64, align 8
  store ptr %this, ptr %this.addr, align 8
  store ptr %t, ptr %t.addr, align 8
  %this1 = load ptr, ptr %this.addr, align 8
  %d_os = getelementptr inbounds %"class.cvc5::internal::Cvc5ostream", ptr %this1, i32 0, i32 0
  %0 = load ptr, ptr %d_os, align 8
  %cmp = icmp ne ptr %0, null
  br i1 %cmp, label %if.then, label %if.end11

if.then:                                          ; preds = %entry
  %d_firstColumn = getelementptr inbounds %"class.cvc5::internal::Cvc5ostream", ptr %this1, i32 0, i32 1
  %1 = load i8, ptr %d_firstColumn, align 8
  %tobool = trunc i8 %1 to i1
  br i1 %tobool, label %if.then2, label %if.end

if.then2:                                         ; preds = %if.then
  %d_firstColumn3 = getelementptr inbounds %"class.cvc5::internal::Cvc5ostream", ptr %this1, i32 0, i32 1
  store i8 0, ptr %d_firstColumn3, align 8
  %d_os4 = getelementptr inbounds %"class.cvc5::internal::Cvc5ostream", ptr %this1, i32 0, i32 0
  %2 = load ptr, ptr %d_os4, align 8
  %vtable = load ptr, ptr %2, align 8
  %vbase.offset.ptr = getelementptr i8, ptr %vtable, i64 -24
  %vbase.offset = load i64, ptr %vbase.offset.ptr, align 8
  %add.ptr = getelementptr inbounds i8, ptr %2, i64 %vbase.offset
  %3 = load i32, ptr @_ZN4cvc58internal11Cvc5ostream16s_indentIosIndexE, align 4
  %call = call noundef nonnull align 8 dereferenceable(8) ptr @_ZNSt8ios_base5iwordEi(ptr noundef nonnull align 8 dereferenceable(216) %add.ptr, i32 noundef %3)
  %4 = load i64, ptr %call, align 8
  store i64 %4, ptr %indent, align 8
  store i64 0, ptr %i, align 8
  br label %for.cond

for.cond:                                         ; preds = %for.inc, %if.then2
  %5 = load i64, ptr %i, align 8
  %6 = load i64, ptr %indent, align 8
  %cmp5 = icmp slt i64 %5, %6
  br i1 %cmp5, label %for.body, label %for.end

for.body:                                         ; preds = %for.cond
  %d_os6 = getelementptr inbounds %"class.cvc5::internal::Cvc5ostream", ptr %this1, i32 0, i32 0
  %7 = load ptr, ptr %d_os6, align 8
  %call7 = call noundef nonnull align 8 dereferenceable(8) ptr @_ZStlsIcSt11char_traitsIcESaIcEERSt13basic_ostreamIT_T0_ES7_RKNSt7__cxx1112basic_stringIS4_S5_T1_EE(ptr noundef nonnull align 8 dereferenceable(8) %7, ptr noundef nonnull align 8 dereferenceable(32) @_ZN4cvc58internal11Cvc5ostream5s_tabB5cxx11E)
  %d_os8 = getelementptr inbounds %"class.cvc5::internal::Cvc5ostream", ptr %this1, i32 0, i32 0
  store ptr %call7, ptr %d_os8, align 8
  br label %for.inc

for.inc:                                          ; preds = %for.body
  %8 = load i64, ptr %i, align 8
  %inc = add nsw i64 %8, 1
  store i64 %inc, ptr %i, align 8
  br label %for.cond, !llvm.loop !15

for.end:                                          ; preds = %for.cond
  br label %if.end

if.end:                                           ; preds = %for.end, %if.then
  %d_os9 = getelementptr inbounds %"class.cvc5::internal::Cvc5ostream", ptr %this1, i32 0, i32 0
  %9 = load ptr, ptr %d_os9, align 8
  %10 = load ptr, ptr %t.addr, align 8
  %arraydecay = getelementptr inbounds [36 x i8], ptr %10, i64 0, i64 0
  %call10 = call noundef nonnull align 8 dereferenceable(8) ptr @_ZStlsISt11char_traitsIcEERSt13basic_ostreamIcT_ES5_PKc(ptr noundef nonnull align 8 dereferenceable(8) %9, ptr noundef %arraydecay)
  br label %if.end11

if.end11:                                         ; preds = %if.end, %entry
  ret ptr %this1
}

; Function Attrs: mustprogress uwtable
define linkonce_odr hidden noundef nonnull align 8 dereferenceable(24) ptr @_ZN4cvc58internal11Cvc5ostreamlsINS0_4kind6Kind_tEEERS1_RKT_(ptr noundef nonnull align 8 dereferenceable(24) %this, ptr noundef nonnull align 4 dereferenceable(4) %t) #5 comdat align 2 {
entry:
  %this.addr = alloca ptr, align 8
  %t.addr = alloca ptr, align 8
  %indent = alloca i64, align 8
  %i = alloca i64, align 8
  store ptr %this, ptr %this.addr, align 8
  store ptr %t, ptr %t.addr, align 8
  %this1 = load ptr, ptr %this.addr, align 8
  %d_os = getelementptr inbounds %"class.cvc5::internal::Cvc5ostream", ptr %this1, i32 0, i32 0
  %0 = load ptr, ptr %d_os, align 8
  %cmp = icmp ne ptr %0, null
  br i1 %cmp, label %if.then, label %if.end11

if.then:                                          ; preds = %entry
  %d_firstColumn = getelementptr inbounds %"class.cvc5::internal::Cvc5ostream", ptr %this1, i32 0, i32 1
  %1 = load i8, ptr %d_firstColumn, align 8
  %tobool = trunc i8 %1 to i1
  br i1 %tobool, label %if.then2, label %if.end

if.then2:                                         ; preds = %if.then
  %d_firstColumn3 = getelementptr inbounds %"class.cvc5::internal::Cvc5ostream", ptr %this1, i32 0, i32 1
  store i8 0, ptr %d_firstColumn3, align 8
  %d_os4 = getelementptr inbounds %"class.cvc5::internal::Cvc5ostream", ptr %this1, i32 0, i32 0
  %2 = load ptr, ptr %d_os4, align 8
  %vtable = load ptr, ptr %2, align 8
  %vbase.offset.ptr = getelementptr i8, ptr %vtable, i64 -24
  %vbase.offset = load i64, ptr %vbase.offset.ptr, align 8
  %add.ptr = getelementptr inbounds i8, ptr %2, i64 %vbase.offset
  %3 = load i32, ptr @_ZN4cvc58internal11Cvc5ostream16s_indentIosIndexE, align 4
  %call = call noundef nonnull align 8 dereferenceable(8) ptr @_ZNSt8ios_base5iwordEi(ptr noundef nonnull align 8 dereferenceable(216) %add.ptr, i32 noundef %3)
  %4 = load i64, ptr %call, align 8
  store i64 %4, ptr %indent, align 8
  store i64 0, ptr %i, align 8
  br label %for.cond

for.cond:                                         ; preds = %for.inc, %if.then2
  %5 = load i64, ptr %i, align 8
  %6 = load i64, ptr %indent, align 8
  %cmp5 = icmp slt i64 %5, %6
  br i1 %cmp5, label %for.body, label %for.end

for.body:                                         ; preds = %for.cond
  %d_os6 = getelementptr inbounds %"class.cvc5::internal::Cvc5ostream", ptr %this1, i32 0, i32 0
  %7 = load ptr, ptr %d_os6, align 8
  %call7 = call noundef nonnull align 8 dereferenceable(8) ptr @_ZStlsIcSt11char_traitsIcESaIcEERSt13basic_ostreamIT_T0_ES7_RKNSt7__cxx1112basic_stringIS4_S5_T1_EE(ptr noundef nonnull align 8 dereferenceable(8) %7, ptr noundef nonnull align 8 dereferenceable(32) @_ZN4cvc58internal11Cvc5ostream5s_tabB5cxx11E)
  %d_os8 = getelementptr inbounds %"class.cvc5::internal::Cvc5ostream", ptr %this1, i32 0, i32 0
  store ptr %call7, ptr %d_os8, align 8
  br label %for.inc

for.inc:                                          ; preds = %for.body
  %8 = load i64, ptr %i, align 8
  %inc = add nsw i64 %8, 1
  store i64 %inc, ptr %i, align 8
  br label %for.cond, !llvm.loop !16

for.end:                                          ; preds = %for.cond
  br label %if.end

if.end:                                           ; preds = %for.end, %if.then
  %d_os9 = getelementptr inbounds %"class.cvc5::internal::Cvc5ostream", ptr %this1, i32 0, i32 0
  %9 = load ptr, ptr %d_os9, align 8
  %10 = load ptr, ptr %t.addr, align 8
  %11 = load i32, ptr %10, align 4
  %call10 = call noundef nonnull align 8 dereferenceable(8) ptr @_ZN4cvc58internal4kindlsERSoNS1_6Kind_tE(ptr noundef nonnull align 8 dereferenceable(8) %9, i32 noundef %11)
  br label %if.end11

if.end11:                                         ; preds = %if.end, %entry
  ret ptr %this1
}

; Function Attrs: mustprogress uwtable
define linkonce_odr hidden void @_ZSt4sortIN9__gnu_cxx17__normal_iteratorIPN4cvc58internal12NodeTemplateILb1EEESt6vectorIS5_SaIS5_EEEENS3_4expr13sortTermOrderEEvT_SD_T0_(ptr %__first.coerce, ptr %__last.coerce, ptr %__comp.coerce) #5 comdat {
entry:
  %__first = alloca %"class.__gnu_cxx::__normal_iterator.126", align 8
  %__last = alloca %"class.__gnu_cxx::__normal_iterator.126", align 8
  %__comp = alloca %"struct.cvc5::internal::expr::sortTermOrder", align 8
  %agg.tmp = alloca %"class.__gnu_cxx::__normal_iterator.126", align 8
  %agg.tmp3 = alloca %"class.__gnu_cxx::__normal_iterator.126", align 8
  %agg.tmp4 = alloca %"struct.__gnu_cxx::__ops::_Iter_comp_iter", align 8
  %agg.tmp5 = alloca %"struct.cvc5::internal::expr::sortTermOrder", align 8
  %coerce.dive = getelementptr inbounds %"class.__gnu_cxx::__normal_iterator.126", ptr %__first, i32 0, i32 0
  store ptr %__first.coerce, ptr %coerce.dive, align 8
  %coerce.dive1 = getelementptr inbounds %"class.__gnu_cxx::__normal_iterator.126", ptr %__last, i32 0, i32 0
  store ptr %__last.coerce, ptr %coerce.dive1, align 8
  %coerce.dive2 = getelementptr inbounds %"struct.cvc5::internal::expr::sortTermOrder", ptr %__comp, i32 0, i32 0
  store ptr %__comp.coerce, ptr %coerce.dive2, align 8
  call void @llvm.memcpy.p0.p0.i64(ptr align 8 %agg.tmp, ptr align 8 %__first, i64 8, i1 false)
  call void @llvm.memcpy.p0.p0.i64(ptr align 8 %agg.tmp3, ptr align 8 %__last, i64 8, i1 false)
  call void @llvm.memcpy.p0.p0.i64(ptr align 8 %agg.tmp5, ptr align 8 %__comp, i64 8, i1 false)
  %coerce.dive6 = getelementptr inbounds %"struct.cvc5::internal::expr::sortTermOrder", ptr %agg.tmp5, i32 0, i32 0
  %0 = load ptr, ptr %coerce.dive6, align 8
  %call = call ptr @_ZN9__gnu_cxx5__ops16__iter_comp_iterIN4cvc58internal4expr13sortTermOrderEEENS0_15_Iter_comp_iterIT_EES7_(ptr %0)
  %coerce.dive7 = getelementptr inbounds %"struct.__gnu_cxx::__ops::_Iter_comp_iter", ptr %agg.tmp4, i32 0, i32 0
  %coerce.dive8 = getelementptr inbounds %"struct.cvc5::internal::expr::sortTermOrder", ptr %coerce.dive7, i32 0, i32 0
  store ptr %call, ptr %coerce.dive8, align 8
  %coerce.dive9 = getelementptr inbounds %"class.__gnu_cxx::__normal_iterator.126", ptr %agg.tmp, i32 0, i32 0
  %1 = load ptr, ptr %coerce.dive9, align 8
  %coerce.dive10 = getelementptr inbounds %"class.__gnu_cxx::__normal_iterator.126", ptr %agg.tmp3, i32 0, i32 0
  %2 = load ptr, ptr %coerce.dive10, align 8
  %coerce.dive11 = getelementptr inbounds %"struct.__gnu_cxx::__ops::_Iter_comp_iter", ptr %agg.tmp4, i32 0, i32 0
  %coerce.dive12 = getelementptr inbounds %"struct.cvc5::internal::expr::sortTermOrder", ptr %coerce.dive11, i32 0, i32 0
  %3 = load ptr, ptr %coerce.dive12, align 8
  call void @_ZSt6__sortIN9__gnu_cxx17__normal_iteratorIPN4cvc58internal12NodeTemplateILb1EEESt6vectorIS5_SaIS5_EEEENS0_5__ops15_Iter_comp_iterINS3_4expr13sortTermOrderEEEEvT_SG_T0_(ptr %1, ptr %2, ptr %3)
  ret void
}

; Function Attrs: mustprogress nounwind uwtable
define linkonce_odr hidden ptr @_ZNSt6vectorIN4cvc58internal12NodeTemplateILb1EEESaIS3_EE5beginEv(ptr noundef nonnull align 8 dereferenceable(24) %this) #4 comdat align 2 {
entry:
  %retval = alloca %"class.__gnu_cxx::__normal_iterator.126", align 8
  %this.addr = alloca ptr, align 8
  store ptr %this, ptr %this.addr, align 8
  %this1 = load ptr, ptr %this.addr, align 8
  %_M_impl = getelementptr inbounds %"struct.std::_Vector_base.32", ptr %this1, i32 0, i32 0
  %_M_start = getelementptr inbounds %"struct.std::_Vector_base<cvc5::internal::NodeTemplate<true>, std::allocator<cvc5::internal::NodeTemplate<true>>>::_Vector_impl_data", ptr %_M_impl, i32 0, i32 0
  call void @_ZN9__gnu_cxx17__normal_iteratorIPN4cvc58internal12NodeTemplateILb1EEESt6vectorIS4_SaIS4_EEEC2ERKS5_(ptr noundef nonnull align 8 dereferenceable(8) %retval, ptr noundef nonnull align 8 dereferenceable(8) %_M_start) #3
  %coerce.dive = getelementptr inbounds %"class.__gnu_cxx::__normal_iterator.126", ptr %retval, i32 0, i32 0
  %0 = load ptr, ptr %coerce.dive, align 8
  ret ptr %0
}

; Function Attrs: mustprogress nounwind uwtable
define linkonce_odr hidden ptr @_ZNSt6vectorIN4cvc58internal12NodeTemplateILb1EEESaIS3_EE3endEv(ptr noundef nonnull align 8 dereferenceable(24) %this) #4 comdat align 2 {
entry:
  %retval = alloca %"class.__gnu_cxx::__normal_iterator.126", align 8
  %this.addr = alloca ptr, align 8
  store ptr %this, ptr %this.addr, align 8
  %this1 = load ptr, ptr %this.addr, align 8
  %_M_impl = getelementptr inbounds %"struct.std::_Vector_base.32", ptr %this1, i32 0, i32 0
  %_M_finish = getelementptr inbounds %"struct.std::_Vector_base<cvc5::internal::NodeTemplate<true>, std::allocator<cvc5::internal::NodeTemplate<true>>>::_Vector_impl_data", ptr %_M_impl, i32 0, i32 1
  call void @_ZN9__gnu_cxx17__normal_iteratorIPN4cvc58internal12NodeTemplateILb1EEESt6vectorIS4_SaIS4_EEEC2ERKS5_(ptr noundef nonnull align 8 dereferenceable(8) %retval, ptr noundef nonnull align 8 dereferenceable(8) %_M_finish) #3
  %coerce.dive = getelementptr inbounds %"class.__gnu_cxx::__normal_iterator.126", ptr %retval, i32 0, i32 0
  %0 = load ptr, ptr %coerce.dive, align 8
  ret ptr %0
}

; Function Attrs: mustprogress nounwind uwtable
define linkonce_odr hidden void @_ZN4cvc58internal12NodeTemplateILb0EEC2ERKNS1_ILb1EEE(ptr noundef nonnull align 8 dereferenceable(8) %this, ptr noundef nonnull align 8 dereferenceable(8) %e) unnamed_addr #4 comdat align 2 {
entry:
  %this.addr = alloca ptr, align 8
  %e.addr = alloca ptr, align 8
  store ptr %this, ptr %this.addr, align 8
  store ptr %e, ptr %e.addr, align 8
  %this1 = load ptr, ptr %this.addr, align 8
  %0 = load ptr, ptr %e.addr, align 8
  %d_nv = getelementptr inbounds %"class.cvc5::internal::NodeTemplate", ptr %0, i32 0, i32 0
  %1 = load ptr, ptr %d_nv, align 8
  %d_nv2 = getelementptr inbounds %"class.cvc5::internal::NodeTemplate.107", ptr %this1, i32 0, i32 0
  store ptr %1, ptr %d_nv2, align 8
  ret void
}

; Function Attrs: mustprogress uwtable
define linkonce_odr hidden noundef i32 @_ZNK4cvc58internal12NodeTemplateILb0EE11getMetaKindEv(ptr noundef nonnull align 8 dereferenceable(8) %this) #5 comdat align 2 {
entry:
  %this.addr = alloca ptr, align 8
  store ptr %this, ptr %this.addr, align 8
  %this1 = load ptr, ptr %this.addr, align 8
  call void @_ZNK4cvc58internal12NodeTemplateILb0EE21assertTNodeNotExpiredEv(ptr noundef nonnull align 8 dereferenceable(8) %this1)
  %call = call noundef i32 @_ZNK4cvc58internal12NodeTemplateILb0EE7getKindEv(ptr noundef nonnull align 8 dereferenceable(8) %this1)
  %call2 = call noundef i32 @_ZN4cvc58internal4kind10metaKindOfENS1_6Kind_tE(i32 noundef %call)
  ret i32 %call2
}

; Function Attrs: mustprogress uwtable
define linkonce_odr hidden void @_ZNK4cvc58internal12NodeTemplateILb0EE11getOperatorEv(ptr noalias sret(%"class.cvc5::internal::NodeTemplate") align 8 %agg.result, ptr noundef nonnull align 8 dereferenceable(8) %this) #5 comdat align 2 personality ptr @__gxx_personality_v0 {
entry:
  %result.ptr = alloca ptr, align 8
  %this.addr = alloca ptr, align 8
  %mk = alloca i32, align 4
  %ref.tmp = alloca %"class.cvc5::internal::NodeTemplate.107", align 8
  %exn.slot = alloca ptr, align 8
  %ehselector.slot = alloca i32, align 4
  store ptr %agg.result, ptr %result.ptr, align 8
  store ptr %this, ptr %this.addr, align 8
  %this1 = load ptr, ptr %this.addr, align 8
  call void @_ZNK4cvc58internal12NodeTemplateILb0EE21assertTNodeNotExpiredEv(ptr noundef nonnull align 8 dereferenceable(8) %this1)
  %call = call noundef i32 @_ZNK4cvc58internal12NodeTemplateILb0EE11getMetaKindEv(ptr noundef nonnull align 8 dereferenceable(8) %this1)
  store i32 %call, ptr %mk, align 4
  %0 = load i32, ptr %mk, align 4
  %cmp = icmp eq i32 %0, 1
  br i1 %cmp, label %if.then, label %if.end

if.then:                                          ; preds = %entry
  %call2 = call noundef ptr @_ZN4cvc58internal11NodeManager9currentNMEv()
  %call3 = call noundef i32 @_ZNK4cvc58internal12NodeTemplateILb0EE7getKindEv(ptr noundef nonnull align 8 dereferenceable(8) %this1)
  call void @_ZN4cvc58internal11NodeManager10operatorOfENS0_4kind6Kind_tE(ptr sret(%"class.cvc5::internal::NodeTemplate.107") align 8 %ref.tmp, ptr noundef nonnull align 8 dereferenceable(3360) %call2, i32 noundef %call3)
  invoke void @_ZN4cvc58internal12NodeTemplateILb1EEC2ERKNS1_ILb0EEE(ptr noundef nonnull align 8 dereferenceable(8) %agg.result, ptr noundef nonnull align 8 dereferenceable(8) %ref.tmp)
          to label %invoke.cont unwind label %lpad

invoke.cont:                                      ; preds = %if.then
  call void @_ZN4cvc58internal12NodeTemplateILb0EED2Ev(ptr noundef nonnull align 8 dereferenceable(8) %ref.tmp) #3
  br label %return

lpad:                                             ; preds = %if.then
  %1 = landingpad { ptr, i32 }
          cleanup
  %2 = extractvalue { ptr, i32 } %1, 0
  store ptr %2, ptr %exn.slot, align 8
  %3 = extractvalue { ptr, i32 } %1, 1
  store i32 %3, ptr %ehselector.slot, align 4
  call void @_ZN4cvc58internal12NodeTemplateILb0EED2Ev(ptr noundef nonnull align 8 dereferenceable(8) %ref.tmp) #3
  br label %eh.resume

if.end:                                           ; preds = %entry
  %d_nv = getelementptr inbounds %"class.cvc5::internal::NodeTemplate.107", ptr %this1, i32 0, i32 0
  %4 = load ptr, ptr %d_nv, align 8
  %d_children = getelementptr inbounds %"class.cvc5::internal::expr::NodeValue", ptr %4, i32 0, i32 3
  %arrayidx = getelementptr inbounds [0 x ptr], ptr %d_children, i64 0, i64 0
  %5 = load ptr, ptr %arrayidx, align 8
  call void @_ZN4cvc58internal12NodeTemplateILb1EEC2EPKNS0_4expr9NodeValueE(ptr noundef nonnull align 8 dereferenceable(8) %agg.result, ptr noundef %5)
  br label %return

return:                                           ; preds = %if.end, %invoke.cont
  ret void

eh.resume:                                        ; preds = %lpad
  %exn = load ptr, ptr %exn.slot, align 8
  %sel = load i32, ptr %ehselector.slot, align 4
  %lpad.val = insertvalue { ptr, i32 } poison, ptr %exn, 0
  %lpad.val4 = insertvalue { ptr, i32 } %lpad.val, i32 %sel, 1
  resume { ptr, i32 } %lpad.val4
}

; Function Attrs: mustprogress uwtable
define linkonce_odr hidden ptr @_ZNSt6vectorIN4cvc58internal12NodeTemplateILb1EEESaIS3_EE6insertEN9__gnu_cxx17__normal_iteratorIPKS3_S5_EERS8_(ptr noundef nonnull align 8 dereferenceable(24) %this, ptr %__position.coerce, ptr noundef nonnull align 8 dereferenceable(8) %__x) #5 comdat align 2 personality ptr @__gxx_personality_v0 {
entry:
  %retval = alloca %"class.__gnu_cxx::__normal_iterator.126", align 8
  %__position = alloca %"class.__gnu_cxx::__normal_iterator.127", align 8
  %this.addr = alloca ptr, align 8
  %__x.addr = alloca ptr, align 8
  %__n = alloca i64, align 8
  %ref.tmp = alloca %"class.__gnu_cxx::__normal_iterator.126", align 8
  %ref.tmp5 = alloca %"class.__gnu_cxx::__normal_iterator.126", align 8
  %__pos = alloca %"class.__gnu_cxx::__normal_iterator.126", align 8
  %ref.tmp15 = alloca %"class.__gnu_cxx::__normal_iterator.126", align 8
  %ref.tmp18 = alloca %"class.__gnu_cxx::__normal_iterator.127", align 8
  %__x_copy = alloca %"struct.std::vector<cvc5::internal::NodeTemplate<true>>::_Temporary_value", align 8
  %agg.tmp = alloca %"class.__gnu_cxx::__normal_iterator.126", align 8
  %exn.slot = alloca ptr, align 8
  %ehselector.slot = alloca i32, align 4
  %agg.tmp27 = alloca %"class.__gnu_cxx::__normal_iterator.126", align 8
  %ref.tmp28 = alloca %"class.__gnu_cxx::__normal_iterator.126", align 8
  %ref.tmp31 = alloca %"class.__gnu_cxx::__normal_iterator.127", align 8
  %ref.tmp39 = alloca ptr, align 8
  %coerce.dive = getelementptr inbounds %"class.__gnu_cxx::__normal_iterator.127", ptr %__position, i32 0, i32 0
  store ptr %__position.coerce, ptr %coerce.dive, align 8
  store ptr %this, ptr %this.addr, align 8
  store ptr %__x, ptr %__x.addr, align 8
  %this1 = load ptr, ptr %this.addr, align 8
  %call = call ptr @_ZNSt6vectorIN4cvc58internal12NodeTemplateILb1EEESaIS3_EE5beginEv(ptr noundef nonnull align 8 dereferenceable(24) %this1) #3
  %coerce.dive2 = getelementptr inbounds %"class.__gnu_cxx::__normal_iterator.126", ptr %ref.tmp, i32 0, i32 0
  store ptr %call, ptr %coerce.dive2, align 8
  %call3 = call noundef i64 @_ZN9__gnu_cxxmiIPKN4cvc58internal12NodeTemplateILb1EEEPS4_St6vectorIS4_SaIS4_EEEEDTmicldtfp_4baseEcldtfp0_4baseEERKNS_17__normal_iteratorIT_T1_EERKNSC_IT0_SE_EE(ptr noundef nonnull align 8 dereferenceable(8) %__position, ptr noundef nonnull align 8 dereferenceable(8) %ref.tmp) #3
  store i64 %call3, ptr %__n, align 8
  %_M_impl = getelementptr inbounds %"struct.std::_Vector_base.32", ptr %this1, i32 0, i32 0
  %_M_finish = getelementptr inbounds %"struct.std::_Vector_base<cvc5::internal::NodeTemplate<true>, std::allocator<cvc5::internal::NodeTemplate<true>>>::_Vector_impl_data", ptr %_M_impl, i32 0, i32 1
  %0 = load ptr, ptr %_M_finish, align 8
  %_M_impl4 = getelementptr inbounds %"struct.std::_Vector_base.32", ptr %this1, i32 0, i32 0
  %_M_end_of_storage = getelementptr inbounds %"struct.std::_Vector_base<cvc5::internal::NodeTemplate<true>, std::allocator<cvc5::internal::NodeTemplate<true>>>::_Vector_impl_data", ptr %_M_impl4, i32 0, i32 2
  %1 = load ptr, ptr %_M_end_of_storage, align 8
  %cmp = icmp ne ptr %0, %1
  br i1 %cmp, label %if.then, label %if.else26

if.then:                                          ; preds = %entry
  %call6 = call ptr @_ZNSt6vectorIN4cvc58internal12NodeTemplateILb1EEESaIS3_EE3endEv(ptr noundef nonnull align 8 dereferenceable(24) %this1) #3
  %coerce.dive7 = getelementptr inbounds %"class.__gnu_cxx::__normal_iterator.126", ptr %ref.tmp5, i32 0, i32 0
  store ptr %call6, ptr %coerce.dive7, align 8
  %call8 = call noundef zeroext i1 @_ZN9__gnu_cxxeqIPKN4cvc58internal12NodeTemplateILb1EEEPS4_St6vectorIS4_SaIS4_EEEEbRKNS_17__normal_iteratorIT_T1_EERKNSB_IT0_SD_EE(ptr noundef nonnull align 8 dereferenceable(8) %__position, ptr noundef nonnull align 8 dereferenceable(8) %ref.tmp5) #3
  br i1 %call8, label %if.then9, label %if.else

if.then9:                                         ; preds = %if.then
  %_M_impl10 = getelementptr inbounds %"struct.std::_Vector_base.32", ptr %this1, i32 0, i32 0
  %_M_impl11 = getelementptr inbounds %"struct.std::_Vector_base.32", ptr %this1, i32 0, i32 0
  %_M_finish12 = getelementptr inbounds %"struct.std::_Vector_base<cvc5::internal::NodeTemplate<true>, std::allocator<cvc5::internal::NodeTemplate<true>>>::_Vector_impl_data", ptr %_M_impl11, i32 0, i32 1
  %2 = load ptr, ptr %_M_finish12, align 8
  %3 = load ptr, ptr %__x.addr, align 8
  call void @_ZNSt16allocator_traitsISaIN4cvc58internal12NodeTemplateILb1EEEEE9constructIS3_JRKS3_EEEvRS4_PT_DpOT0_(ptr noundef nonnull align 1 dereferenceable(1) %_M_impl10, ptr noundef %2, ptr noundef nonnull align 8 dereferenceable(8) %3)
  %_M_impl13 = getelementptr inbounds %"struct.std::_Vector_base.32", ptr %this1, i32 0, i32 0
  %_M_finish14 = getelementptr inbounds %"struct.std::_Vector_base<cvc5::internal::NodeTemplate<true>, std::allocator<cvc5::internal::NodeTemplate<true>>>::_Vector_impl_data", ptr %_M_impl13, i32 0, i32 1
  %4 = load ptr, ptr %_M_finish14, align 8
  %incdec.ptr = getelementptr inbounds %"class.cvc5::internal::NodeTemplate", ptr %4, i32 1
  store ptr %incdec.ptr, ptr %_M_finish14, align 8
  br label %if.end

if.else:                                          ; preds = %if.then
  %call16 = call ptr @_ZNSt6vectorIN4cvc58internal12NodeTemplateILb1EEESaIS3_EE5beginEv(ptr noundef nonnull align 8 dereferenceable(24) %this1) #3
  %coerce.dive17 = getelementptr inbounds %"class.__gnu_cxx::__normal_iterator.126", ptr %ref.tmp15, i32 0, i32 0
  store ptr %call16, ptr %coerce.dive17, align 8
  %call19 = call ptr @_ZNKSt6vectorIN4cvc58internal12NodeTemplateILb1EEESaIS3_EE6cbeginEv(ptr noundef nonnull align 8 dereferenceable(24) %this1) #3
  %coerce.dive20 = getelementptr inbounds %"class.__gnu_cxx::__normal_iterator.127", ptr %ref.tmp18, i32 0, i32 0
  store ptr %call19, ptr %coerce.dive20, align 8
  %call21 = call noundef i64 @_ZN9__gnu_cxxmiIPKN4cvc58internal12NodeTemplateILb1EEESt6vectorIS4_SaIS4_EEEENS_17__normal_iteratorIT_T0_E15difference_typeERKSD_SG_(ptr noundef nonnull align 8 dereferenceable(8) %__position, ptr noundef nonnull align 8 dereferenceable(8) %ref.tmp18) #3
  %call22 = call ptr @_ZNK9__gnu_cxx17__normal_iteratorIPN4cvc58internal12NodeTemplateILb1EEESt6vectorIS4_SaIS4_EEEplEl(ptr noundef nonnull align 8 dereferenceable(8) %ref.tmp15, i64 noundef %call21) #3
  %coerce.dive23 = getelementptr inbounds %"class.__gnu_cxx::__normal_iterator.126", ptr %__pos, i32 0, i32 0
  store ptr %call22, ptr %coerce.dive23, align 8
  %5 = load ptr, ptr %__x.addr, align 8
  call void @_ZNSt6vectorIN4cvc58internal12NodeTemplateILb1EEESaIS3_EE16_Temporary_valueC2IJRKS3_EEEPS5_DpOT_(ptr noundef nonnull align 8 dereferenceable(16) %__x_copy, ptr noundef %this1, ptr noundef nonnull align 8 dereferenceable(8) %5)
  call void @llvm.memcpy.p0.p0.i64(ptr align 8 %agg.tmp, ptr align 8 %__pos, i64 8, i1 false)
  %call24 = call noundef nonnull align 8 dereferenceable(8) ptr @_ZNSt6vectorIN4cvc58internal12NodeTemplateILb1EEESaIS3_EE16_Temporary_value6_M_valEv(ptr noundef nonnull align 8 dereferenceable(16) %__x_copy) #3
  %coerce.dive25 = getelementptr inbounds %"class.__gnu_cxx::__normal_iterator.126", ptr %agg.tmp, i32 0, i32 0
  %6 = load ptr, ptr %coerce.dive25, align 8
  invoke void @_ZNSt6vectorIN4cvc58internal12NodeTemplateILb1EEESaIS3_EE13_M_insert_auxIS3_EEvN9__gnu_cxx17__normal_iteratorIPS3_S5_EEOT_(ptr noundef nonnull align 8 dereferenceable(24) %this1, ptr %6, ptr noundef nonnull align 8 dereferenceable(8) %call24)
          to label %invoke.cont unwind label %lpad

invoke.cont:                                      ; preds = %if.else
  call void @_ZNSt6vectorIN4cvc58internal12NodeTemplateILb1EEESaIS3_EE16_Temporary_valueD2Ev(ptr noundef nonnull align 8 dereferenceable(16) %__x_copy) #3
  br label %if.end

lpad:                                             ; preds = %if.else
  %7 = landingpad { ptr, i32 }
          cleanup
  %8 = extractvalue { ptr, i32 } %7, 0
  store ptr %8, ptr %exn.slot, align 8
  %9 = extractvalue { ptr, i32 } %7, 1
  store i32 %9, ptr %ehselector.slot, align 4
  call void @_ZNSt6vectorIN4cvc58internal12NodeTemplateILb1EEESaIS3_EE16_Temporary_valueD2Ev(ptr noundef nonnull align 8 dereferenceable(16) %__x_copy) #3
  br label %eh.resume

if.end:                                           ; preds = %invoke.cont, %if.then9
  br label %if.end38

if.else26:                                        ; preds = %entry
  %call29 = call ptr @_ZNSt6vectorIN4cvc58internal12NodeTemplateILb1EEESaIS3_EE5beginEv(ptr noundef nonnull align 8 dereferenceable(24) %this1) #3
  %coerce.dive30 = getelementptr inbounds %"class.__gnu_cxx::__normal_iterator.126", ptr %ref.tmp28, i32 0, i32 0
  store ptr %call29, ptr %coerce.dive30, align 8
  %call32 = call ptr @_ZNKSt6vectorIN4cvc58internal12NodeTemplateILb1EEESaIS3_EE6cbeginEv(ptr noundef nonnull align 8 dereferenceable(24) %this1) #3
  %coerce.dive33 = getelementptr inbounds %"class.__gnu_cxx::__normal_iterator.127", ptr %ref.tmp31, i32 0, i32 0
  store ptr %call32, ptr %coerce.dive33, align 8
  %call34 = call noundef i64 @_ZN9__gnu_cxxmiIPKN4cvc58internal12NodeTemplateILb1EEESt6vectorIS4_SaIS4_EEEENS_17__normal_iteratorIT_T0_E15difference_typeERKSD_SG_(ptr noundef nonnull align 8 dereferenceable(8) %__position, ptr noundef nonnull align 8 dereferenceable(8) %ref.tmp31) #3
  %call35 = call ptr @_ZNK9__gnu_cxx17__normal_iteratorIPN4cvc58internal12NodeTemplateILb1EEESt6vectorIS4_SaIS4_EEEplEl(ptr noundef nonnull align 8 dereferenceable(8) %ref.tmp28, i64 noundef %call34) #3
  %coerce.dive36 = getelementptr inbounds %"class.__gnu_cxx::__normal_iterator.126", ptr %agg.tmp27, i32 0, i32 0
  store ptr %call35, ptr %coerce.dive36, align 8
  %10 = load ptr, ptr %__x.addr, align 8
  %coerce.dive37 = getelementptr inbounds %"class.__gnu_cxx::__normal_iterator.126", ptr %agg.tmp27, i32 0, i32 0
  %11 = load ptr, ptr %coerce.dive37, align 8
  call void @_ZNSt6vectorIN4cvc58internal12NodeTemplateILb1EEESaIS3_EE17_M_realloc_insertIJRKS3_EEEvN9__gnu_cxx17__normal_iteratorIPS3_S5_EEDpOT_(ptr noundef nonnull align 8 dereferenceable(24) %this1, ptr %11, ptr noundef nonnull align 8 dereferenceable(8) %10)
  br label %if.end38

if.end38:                                         ; preds = %if.else26, %if.end
  %_M_impl40 = getelementptr inbounds %"struct.std::_Vector_base.32", ptr %this1, i32 0, i32 0
  %_M_start = getelementptr inbounds %"struct.std::_Vector_base<cvc5::internal::NodeTemplate<true>, std::allocator<cvc5::internal::NodeTemplate<true>>>::_Vector_impl_data", ptr %_M_impl40, i32 0, i32 0
  %12 = load ptr, ptr %_M_start, align 8
  %13 = load i64, ptr %__n, align 8
  %add.ptr = getelementptr inbounds %"class.cvc5::internal::NodeTemplate", ptr %12, i64 %13
  store ptr %add.ptr, ptr %ref.tmp39, align 8
  call void @_ZN9__gnu_cxx17__normal_iteratorIPN4cvc58internal12NodeTemplateILb1EEESt6vectorIS4_SaIS4_EEEC2ERKS5_(ptr noundef nonnull align 8 dereferenceable(8) %retval, ptr noundef nonnull align 8 dereferenceable(8) %ref.tmp39) #3
  %coerce.dive41 = getelementptr inbounds %"class.__gnu_cxx::__normal_iterator.126", ptr %retval, i32 0, i32 0
  %14 = load ptr, ptr %coerce.dive41, align 8
  ret ptr %14

eh.resume:                                        ; preds = %lpad
  %exn = load ptr, ptr %exn.slot, align 8
  %sel = load i32, ptr %ehselector.slot, align 4
  %lpad.val = insertvalue { ptr, i32 } poison, ptr %exn, 0
  %lpad.val42 = insertvalue { ptr, i32 } %lpad.val, i32 %sel, 1
  resume { ptr, i32 } %lpad.val42
}

; Function Attrs: mustprogress nounwind uwtable
define linkonce_odr hidden void @_ZN9__gnu_cxx17__normal_iteratorIPKN4cvc58internal12NodeTemplateILb1EEESt6vectorIS4_SaIS4_EEEC2IPS4_vEERKNS0_IT_S9_EE(ptr noundef nonnull align 8 dereferenceable(8) %this, ptr noundef nonnull align 8 dereferenceable(8) %__i) unnamed_addr #4 comdat align 2 {
entry:
  %this.addr = alloca ptr, align 8
  %__i.addr = alloca ptr, align 8
  store ptr %this, ptr %this.addr, align 8
  store ptr %__i, ptr %__i.addr, align 8
  %this1 = load ptr, ptr %this.addr, align 8
  %_M_current = getelementptr inbounds %"class.__gnu_cxx::__normal_iterator.127", ptr %this1, i32 0, i32 0
  %0 = load ptr, ptr %__i.addr, align 8
  %call = call noundef nonnull align 8 dereferenceable(8) ptr @_ZNK9__gnu_cxx17__normal_iteratorIPN4cvc58internal12NodeTemplateILb1EEESt6vectorIS4_SaIS4_EEE4baseEv(ptr noundef nonnull align 8 dereferenceable(8) %0) #3
  %1 = load ptr, ptr %call, align 8
  store ptr %1, ptr %_M_current, align 8
  ret void
}

; Function Attrs: mustprogress uwtable
define linkonce_odr hidden noundef nonnull align 8 dereferenceable(24) ptr @_ZN4cvc58internal11Cvc5ostreamlsIA21_cEERS1_RKT_(ptr noundef nonnull align 8 dereferenceable(24) %this, ptr noundef nonnull align 1 dereferenceable(21) %t) #5 comdat align 2 {
entry:
  %this.addr = alloca ptr, align 8
  %t.addr = alloca ptr, align 8
  %indent = alloca i64, align 8
  %i = alloca i64, align 8
  store ptr %this, ptr %this.addr, align 8
  store ptr %t, ptr %t.addr, align 8
  %this1 = load ptr, ptr %this.addr, align 8
  %d_os = getelementptr inbounds %"class.cvc5::internal::Cvc5ostream", ptr %this1, i32 0, i32 0
  %0 = load ptr, ptr %d_os, align 8
  %cmp = icmp ne ptr %0, null
  br i1 %cmp, label %if.then, label %if.end11

if.then:                                          ; preds = %entry
  %d_firstColumn = getelementptr inbounds %"class.cvc5::internal::Cvc5ostream", ptr %this1, i32 0, i32 1
  %1 = load i8, ptr %d_firstColumn, align 8
  %tobool = trunc i8 %1 to i1
  br i1 %tobool, label %if.then2, label %if.end

if.then2:                                         ; preds = %if.then
  %d_firstColumn3 = getelementptr inbounds %"class.cvc5::internal::Cvc5ostream", ptr %this1, i32 0, i32 1
  store i8 0, ptr %d_firstColumn3, align 8
  %d_os4 = getelementptr inbounds %"class.cvc5::internal::Cvc5ostream", ptr %this1, i32 0, i32 0
  %2 = load ptr, ptr %d_os4, align 8
  %vtable = load ptr, ptr %2, align 8
  %vbase.offset.ptr = getelementptr i8, ptr %vtable, i64 -24
  %vbase.offset = load i64, ptr %vbase.offset.ptr, align 8
  %add.ptr = getelementptr inbounds i8, ptr %2, i64 %vbase.offset
  %3 = load i32, ptr @_ZN4cvc58internal11Cvc5ostream16s_indentIosIndexE, align 4
  %call = call noundef nonnull align 8 dereferenceable(8) ptr @_ZNSt8ios_base5iwordEi(ptr noundef nonnull align 8 dereferenceable(216) %add.ptr, i32 noundef %3)
  %4 = load i64, ptr %call, align 8
  store i64 %4, ptr %indent, align 8
  store i64 0, ptr %i, align 8
  br label %for.cond

for.cond:                                         ; preds = %for.inc, %if.then2
  %5 = load i64, ptr %i, align 8
  %6 = load i64, ptr %indent, align 8
  %cmp5 = icmp slt i64 %5, %6
  br i1 %cmp5, label %for.body, label %for.end

for.body:                                         ; preds = %for.cond
  %d_os6 = getelementptr inbounds %"class.cvc5::internal::Cvc5ostream", ptr %this1, i32 0, i32 0
  %7 = load ptr, ptr %d_os6, align 8
  %call7 = call noundef nonnull align 8 dereferenceable(8) ptr @_ZStlsIcSt11char_traitsIcESaIcEERSt13basic_ostreamIT_T0_ES7_RKNSt7__cxx1112basic_stringIS4_S5_T1_EE(ptr noundef nonnull align 8 dereferenceable(8) %7, ptr noundef nonnull align 8 dereferenceable(32) @_ZN4cvc58internal11Cvc5ostream5s_tabB5cxx11E)
  %d_os8 = getelementptr inbounds %"class.cvc5::internal::Cvc5ostream", ptr %this1, i32 0, i32 0
  store ptr %call7, ptr %d_os8, align 8
  br label %for.inc

for.inc:                                          ; preds = %for.body
  %8 = load i64, ptr %i, align 8
  %inc = add nsw i64 %8, 1
  store i64 %inc, ptr %i, align 8
  br label %for.cond, !llvm.loop !17

for.end:                                          ; preds = %for.cond
  br label %if.end

if.end:                                           ; preds = %for.end, %if.then
  %d_os9 = getelementptr inbounds %"class.cvc5::internal::Cvc5ostream", ptr %this1, i32 0, i32 0
  %9 = load ptr, ptr %d_os9, align 8
  %10 = load ptr, ptr %t.addr, align 8
  %arraydecay = getelementptr inbounds [21 x i8], ptr %10, i64 0, i64 0
  %call10 = call noundef nonnull align 8 dereferenceable(8) ptr @_ZStlsISt11char_traitsIcEERSt13basic_ostreamIcT_ES5_PKc(ptr noundef nonnull align 8 dereferenceable(8) %9, ptr noundef %arraydecay)
  br label %if.end11

if.end11:                                         ; preds = %if.end, %entry
  ret ptr %this1
}

; Function Attrs: mustprogress uwtable
define linkonce_odr hidden noundef nonnull align 8 dereferenceable(24) ptr @_ZN4cvc58internal11Cvc5ostreamlsIA2_cEERS1_RKT_(ptr noundef nonnull align 8 dereferenceable(24) %this, ptr noundef nonnull align 1 dereferenceable(2) %t) #5 comdat align 2 {
entry:
  %this.addr = alloca ptr, align 8
  %t.addr = alloca ptr, align 8
  %indent = alloca i64, align 8
  %i = alloca i64, align 8
  store ptr %this, ptr %this.addr, align 8
  store ptr %t, ptr %t.addr, align 8
  %this1 = load ptr, ptr %this.addr, align 8
  %d_os = getelementptr inbounds %"class.cvc5::internal::Cvc5ostream", ptr %this1, i32 0, i32 0
  %0 = load ptr, ptr %d_os, align 8
  %cmp = icmp ne ptr %0, null
  br i1 %cmp, label %if.then, label %if.end11

if.then:                                          ; preds = %entry
  %d_firstColumn = getelementptr inbounds %"class.cvc5::internal::Cvc5ostream", ptr %this1, i32 0, i32 1
  %1 = load i8, ptr %d_firstColumn, align 8
  %tobool = trunc i8 %1 to i1
  br i1 %tobool, label %if.then2, label %if.end

if.then2:                                         ; preds = %if.then
  %d_firstColumn3 = getelementptr inbounds %"class.cvc5::internal::Cvc5ostream", ptr %this1, i32 0, i32 1
  store i8 0, ptr %d_firstColumn3, align 8
  %d_os4 = getelementptr inbounds %"class.cvc5::internal::Cvc5ostream", ptr %this1, i32 0, i32 0
  %2 = load ptr, ptr %d_os4, align 8
  %vtable = load ptr, ptr %2, align 8
  %vbase.offset.ptr = getelementptr i8, ptr %vtable, i64 -24
  %vbase.offset = load i64, ptr %vbase.offset.ptr, align 8
  %add.ptr = getelementptr inbounds i8, ptr %2, i64 %vbase.offset
  %3 = load i32, ptr @_ZN4cvc58internal11Cvc5ostream16s_indentIosIndexE, align 4
  %call = call noundef nonnull align 8 dereferenceable(8) ptr @_ZNSt8ios_base5iwordEi(ptr noundef nonnull align 8 dereferenceable(216) %add.ptr, i32 noundef %3)
  %4 = load i64, ptr %call, align 8
  store i64 %4, ptr %indent, align 8
  store i64 0, ptr %i, align 8
  br label %for.cond

for.cond:                                         ; preds = %for.inc, %if.then2
  %5 = load i64, ptr %i, align 8
  %6 = load i64, ptr %indent, align 8
  %cmp5 = icmp slt i64 %5, %6
  br i1 %cmp5, label %for.body, label %for.end

for.body:                                         ; preds = %for.cond
  %d_os6 = getelementptr inbounds %"class.cvc5::internal::Cvc5ostream", ptr %this1, i32 0, i32 0
  %7 = load ptr, ptr %d_os6, align 8
  %call7 = call noundef nonnull align 8 dereferenceable(8) ptr @_ZStlsIcSt11char_traitsIcESaIcEERSt13basic_ostreamIT_T0_ES7_RKNSt7__cxx1112basic_stringIS4_S5_T1_EE(ptr noundef nonnull align 8 dereferenceable(8) %7, ptr noundef nonnull align 8 dereferenceable(32) @_ZN4cvc58internal11Cvc5ostream5s_tabB5cxx11E)
  %d_os8 = getelementptr inbounds %"class.cvc5::internal::Cvc5ostream", ptr %this1, i32 0, i32 0
  store ptr %call7, ptr %d_os8, align 8
  br label %for.inc

for.inc:                                          ; preds = %for.body
  %8 = load i64, ptr %i, align 8
  %inc = add nsw i64 %8, 1
  store i64 %inc, ptr %i, align 8
  br label %for.cond, !llvm.loop !18

for.end:                                          ; preds = %for.cond
  br label %if.end

if.end:                                           ; preds = %for.end, %if.then
  %d_os9 = getelementptr inbounds %"class.cvc5::internal::Cvc5ostream", ptr %this1, i32 0, i32 0
  %9 = load ptr, ptr %d_os9, align 8
  %10 = load ptr, ptr %t.addr, align 8
  %arraydecay = getelementptr inbounds [2 x i8], ptr %10, i64 0, i64 0
  %call10 = call noundef nonnull align 8 dereferenceable(8) ptr @_ZStlsISt11char_traitsIcEERSt13basic_ostreamIcT_ES5_PKc(ptr noundef nonnull align 8 dereferenceable(8) %9, ptr noundef %arraydecay)
  br label %if.end11

if.end11:                                         ; preds = %if.end, %entry
  ret ptr %this1
}

; Function Attrs: mustprogress uwtable
define linkonce_odr hidden void @_ZN4cvc58internal11NodeManager6mkNodeILb1EEENS0_12NodeTemplateILb1EEENS0_4kind6Kind_tERKSt6vectorINS3_IXT_EEESaIS8_EE(ptr noalias sret(%"class.cvc5::internal::NodeTemplate") align 8 %agg.result, ptr noundef nonnull align 8 dereferenceable(3360) %this, i32 noundef %kind, ptr noundef nonnull align 8 dereferenceable(24) %children) #5 comdat align 2 personality ptr @__gxx_personality_v0 {
entry:
  %result.ptr = alloca ptr, align 8
  %this.addr = alloca ptr, align 8
  %kind.addr = alloca i32, align 4
  %children.addr = alloca ptr, align 8
  %nb = alloca %"class.cvc5::internal::NodeBuilder", align 8
  %exn.slot = alloca ptr, align 8
  %ehselector.slot = alloca i32, align 4
  store ptr %agg.result, ptr %result.ptr, align 8
  store ptr %this, ptr %this.addr, align 8
  store i32 %kind, ptr %kind.addr, align 4
  store ptr %children, ptr %children.addr, align 8
  %this1 = load ptr, ptr %this.addr, align 8
  %0 = load i32, ptr %kind.addr, align 4
  call void @_ZN4cvc58internal11NodeBuilderC1EPNS0_11NodeManagerENS0_4kind6Kind_tE(ptr noundef nonnull align 8 dereferenceable(116) %nb, ptr noundef %this1, i32 noundef %0)
  %1 = load ptr, ptr %children.addr, align 8
  %call = invoke noundef nonnull align 8 dereferenceable(116) ptr @_ZN4cvc58internal11NodeBuilder6appendILb1EEERS1_RKSt6vectorINS0_12NodeTemplateIXT_EEESaIS6_EE(ptr noundef nonnull align 8 dereferenceable(116) %nb, ptr noundef nonnull align 8 dereferenceable(24) %1)
          to label %invoke.cont unwind label %lpad

invoke.cont:                                      ; preds = %entry
  invoke void @_ZN4cvc58internal11NodeBuilder13constructNodeEv(ptr sret(%"class.cvc5::internal::NodeTemplate") align 8 %agg.result, ptr noundef nonnull align 8 dereferenceable(116) %nb)
          to label %invoke.cont2 unwind label %lpad

invoke.cont2:                                     ; preds = %invoke.cont
  call void @_ZN4cvc58internal11NodeBuilderD1Ev(ptr noundef nonnull align 8 dereferenceable(116) %nb) #3
  ret void

lpad:                                             ; preds = %invoke.cont, %entry
  %2 = landingpad { ptr, i32 }
          cleanup
  %3 = extractvalue { ptr, i32 } %2, 0
  store ptr %3, ptr %exn.slot, align 8
  %4 = extractvalue { ptr, i32 } %2, 1
  store i32 %4, ptr %ehselector.slot, align 4
  call void @_ZN4cvc58internal11NodeBuilderD1Ev(ptr noundef nonnull align 8 dereferenceable(116) %nb) #3
  br label %eh.resume

eh.resume:                                        ; preds = %lpad
  %exn = load ptr, ptr %exn.slot, align 8
  %sel = load i32, ptr %ehselector.slot, align 4
  %lpad.val = insertvalue { ptr, i32 } poison, ptr %exn, 0
  %lpad.val3 = insertvalue { ptr, i32 } %lpad.val, i32 %sel, 1
  resume { ptr, i32 } %lpad.val3
}

; Function Attrs: mustprogress uwtable
define linkonce_odr hidden noundef nonnull align 8 dereferenceable(24) ptr @_ZN4cvc58internal11Cvc5ostreamlsIA16_cEERS1_RKT_(ptr noundef nonnull align 8 dereferenceable(24) %this, ptr noundef nonnull align 1 dereferenceable(16) %t) #5 comdat align 2 {
entry:
  %this.addr = alloca ptr, align 8
  %t.addr = alloca ptr, align 8
  %indent = alloca i64, align 8
  %i = alloca i64, align 8
  store ptr %this, ptr %this.addr, align 8
  store ptr %t, ptr %t.addr, align 8
  %this1 = load ptr, ptr %this.addr, align 8
  %d_os = getelementptr inbounds %"class.cvc5::internal::Cvc5ostream", ptr %this1, i32 0, i32 0
  %0 = load ptr, ptr %d_os, align 8
  %cmp = icmp ne ptr %0, null
  br i1 %cmp, label %if.then, label %if.end11

if.then:                                          ; preds = %entry
  %d_firstColumn = getelementptr inbounds %"class.cvc5::internal::Cvc5ostream", ptr %this1, i32 0, i32 1
  %1 = load i8, ptr %d_firstColumn, align 8
  %tobool = trunc i8 %1 to i1
  br i1 %tobool, label %if.then2, label %if.end

if.then2:                                         ; preds = %if.then
  %d_firstColumn3 = getelementptr inbounds %"class.cvc5::internal::Cvc5ostream", ptr %this1, i32 0, i32 1
  store i8 0, ptr %d_firstColumn3, align 8
  %d_os4 = getelementptr inbounds %"class.cvc5::internal::Cvc5ostream", ptr %this1, i32 0, i32 0
  %2 = load ptr, ptr %d_os4, align 8
  %vtable = load ptr, ptr %2, align 8
  %vbase.offset.ptr = getelementptr i8, ptr %vtable, i64 -24
  %vbase.offset = load i64, ptr %vbase.offset.ptr, align 8
  %add.ptr = getelementptr inbounds i8, ptr %2, i64 %vbase.offset
  %3 = load i32, ptr @_ZN4cvc58internal11Cvc5ostream16s_indentIosIndexE, align 4
  %call = call noundef nonnull align 8 dereferenceable(8) ptr @_ZNSt8ios_base5iwordEi(ptr noundef nonnull align 8 dereferenceable(216) %add.ptr, i32 noundef %3)
  %4 = load i64, ptr %call, align 8
  store i64 %4, ptr %indent, align 8
  store i64 0, ptr %i, align 8
  br label %for.cond

for.cond:                                         ; preds = %for.inc, %if.then2
  %5 = load i64, ptr %i, align 8
  %6 = load i64, ptr %indent, align 8
  %cmp5 = icmp slt i64 %5, %6
  br i1 %cmp5, label %for.body, label %for.end

for.body:                                         ; preds = %for.cond
  %d_os6 = getelementptr inbounds %"class.cvc5::internal::Cvc5ostream", ptr %this1, i32 0, i32 0
  %7 = load ptr, ptr %d_os6, align 8
  %call7 = call noundef nonnull align 8 dereferenceable(8) ptr @_ZStlsIcSt11char_traitsIcESaIcEERSt13basic_ostreamIT_T0_ES7_RKNSt7__cxx1112basic_stringIS4_S5_T1_EE(ptr noundef nonnull align 8 dereferenceable(8) %7, ptr noundef nonnull align 8 dereferenceable(32) @_ZN4cvc58internal11Cvc5ostream5s_tabB5cxx11E)
  %d_os8 = getelementptr inbounds %"class.cvc5::internal::Cvc5ostream", ptr %this1, i32 0, i32 0
  store ptr %call7, ptr %d_os8, align 8
  br label %for.inc

for.inc:                                          ; preds = %for.body
  %8 = load i64, ptr %i, align 8
  %inc = add nsw i64 %8, 1
  store i64 %inc, ptr %i, align 8
  br label %for.cond, !llvm.loop !19

for.end:                                          ; preds = %for.cond
  br label %if.end

if.end:                                           ; preds = %for.end, %if.then
  %d_os9 = getelementptr inbounds %"class.cvc5::internal::Cvc5ostream", ptr %this1, i32 0, i32 0
  %9 = load ptr, ptr %d_os9, align 8
  %10 = load ptr, ptr %t.addr, align 8
  %arraydecay = getelementptr inbounds [16 x i8], ptr %10, i64 0, i64 0
  %call10 = call noundef nonnull align 8 dereferenceable(8) ptr @_ZStlsISt11char_traitsIcEERSt13basic_ostreamIcT_ES5_PKc(ptr noundef nonnull align 8 dereferenceable(8) %9, ptr noundef %arraydecay)
  br label %if.end11

if.end11:                                         ; preds = %if.end, %entry
  ret ptr %this1
}

; Function Attrs: mustprogress uwtable
define linkonce_odr hidden noundef nonnull align 8 dereferenceable(24) ptr @_ZN4cvc58internal11Cvc5ostreamlsIA6_cEERS1_RKT_(ptr noundef nonnull align 8 dereferenceable(24) %this, ptr noundef nonnull align 1 dereferenceable(6) %t) #5 comdat align 2 {
entry:
  %this.addr = alloca ptr, align 8
  %t.addr = alloca ptr, align 8
  %indent = alloca i64, align 8
  %i = alloca i64, align 8
  store ptr %this, ptr %this.addr, align 8
  store ptr %t, ptr %t.addr, align 8
  %this1 = load ptr, ptr %this.addr, align 8
  %d_os = getelementptr inbounds %"class.cvc5::internal::Cvc5ostream", ptr %this1, i32 0, i32 0
  %0 = load ptr, ptr %d_os, align 8
  %cmp = icmp ne ptr %0, null
  br i1 %cmp, label %if.then, label %if.end11

if.then:                                          ; preds = %entry
  %d_firstColumn = getelementptr inbounds %"class.cvc5::internal::Cvc5ostream", ptr %this1, i32 0, i32 1
  %1 = load i8, ptr %d_firstColumn, align 8
  %tobool = trunc i8 %1 to i1
  br i1 %tobool, label %if.then2, label %if.end

if.then2:                                         ; preds = %if.then
  %d_firstColumn3 = getelementptr inbounds %"class.cvc5::internal::Cvc5ostream", ptr %this1, i32 0, i32 1
  store i8 0, ptr %d_firstColumn3, align 8
  %d_os4 = getelementptr inbounds %"class.cvc5::internal::Cvc5ostream", ptr %this1, i32 0, i32 0
  %2 = load ptr, ptr %d_os4, align 8
  %vtable = load ptr, ptr %2, align 8
  %vbase.offset.ptr = getelementptr i8, ptr %vtable, i64 -24
  %vbase.offset = load i64, ptr %vbase.offset.ptr, align 8
  %add.ptr = getelementptr inbounds i8, ptr %2, i64 %vbase.offset
  %3 = load i32, ptr @_ZN4cvc58internal11Cvc5ostream16s_indentIosIndexE, align 4
  %call = call noundef nonnull align 8 dereferenceable(8) ptr @_ZNSt8ios_base5iwordEi(ptr noundef nonnull align 8 dereferenceable(216) %add.ptr, i32 noundef %3)
  %4 = load i64, ptr %call, align 8
  store i64 %4, ptr %indent, align 8
  store i64 0, ptr %i, align 8
  br label %for.cond

for.cond:                                         ; preds = %for.inc, %if.then2
  %5 = load i64, ptr %i, align 8
  %6 = load i64, ptr %indent, align 8
  %cmp5 = icmp slt i64 %5, %6
  br i1 %cmp5, label %for.body, label %for.end

for.body:                                         ; preds = %for.cond
  %d_os6 = getelementptr inbounds %"class.cvc5::internal::Cvc5ostream", ptr %this1, i32 0, i32 0
  %7 = load ptr, ptr %d_os6, align 8
  %call7 = call noundef nonnull align 8 dereferenceable(8) ptr @_ZStlsIcSt11char_traitsIcESaIcEERSt13basic_ostreamIT_T0_ES7_RKNSt7__cxx1112basic_stringIS4_S5_T1_EE(ptr noundef nonnull align 8 dereferenceable(8) %7, ptr noundef nonnull align 8 dereferenceable(32) @_ZN4cvc58internal11Cvc5ostream5s_tabB5cxx11E)
  %d_os8 = getelementptr inbounds %"class.cvc5::internal::Cvc5ostream", ptr %this1, i32 0, i32 0
  store ptr %call7, ptr %d_os8, align 8
  br label %for.inc

for.inc:                                          ; preds = %for.body
  %8 = load i64, ptr %i, align 8
  %inc = add nsw i64 %8, 1
  store i64 %inc, ptr %i, align 8
  br label %for.cond, !llvm.loop !20

for.end:                                          ; preds = %for.cond
  br label %if.end

if.end:                                           ; preds = %for.end, %if.then
  %d_os9 = getelementptr inbounds %"class.cvc5::internal::Cvc5ostream", ptr %this1, i32 0, i32 0
  %9 = load ptr, ptr %d_os9, align 8
  %10 = load ptr, ptr %t.addr, align 8
  %arraydecay = getelementptr inbounds [6 x i8], ptr %10, i64 0, i64 0
  %call10 = call noundef nonnull align 8 dereferenceable(8) ptr @_ZStlsISt11char_traitsIcEERSt13basic_ostreamIcT_ES5_PKc(ptr noundef nonnull align 8 dereferenceable(8) %9, ptr noundef %arraydecay)
  br label %if.end11

if.end11:                                         ; preds = %if.end, %entry
  ret ptr %this1
}

; Function Attrs: mustprogress nounwind uwtable
define linkonce_odr hidden void @_ZNSt6vectorIN4cvc58internal12NodeTemplateILb1EEESaIS3_EED2Ev(ptr noundef nonnull align 8 dereferenceable(24) %this) unnamed_addr #4 comdat align 2 personality ptr @__gxx_personality_v0 {
entry:
  %this.addr = alloca ptr, align 8
  store ptr %this, ptr %this.addr, align 8
  %this1 = load ptr, ptr %this.addr, align 8
  %_M_impl = getelementptr inbounds %"struct.std::_Vector_base.32", ptr %this1, i32 0, i32 0
  %_M_start = getelementptr inbounds %"struct.std::_Vector_base<cvc5::internal::NodeTemplate<true>, std::allocator<cvc5::internal::NodeTemplate<true>>>::_Vector_impl_data", ptr %_M_impl, i32 0, i32 0
  %0 = load ptr, ptr %_M_start, align 8
  %_M_impl2 = getelementptr inbounds %"struct.std::_Vector_base.32", ptr %this1, i32 0, i32 0
  %_M_finish = getelementptr inbounds %"struct.std::_Vector_base<cvc5::internal::NodeTemplate<true>, std::allocator<cvc5::internal::NodeTemplate<true>>>::_Vector_impl_data", ptr %_M_impl2, i32 0, i32 1
  %1 = load ptr, ptr %_M_finish, align 8
  %call = call noundef nonnull align 1 dereferenceable(1) ptr @_ZNSt12_Vector_baseIN4cvc58internal12NodeTemplateILb1EEESaIS3_EE19_M_get_Tp_allocatorEv(ptr noundef nonnull align 8 dereferenceable(24) %this1) #3
  invoke void @_ZSt8_DestroyIPN4cvc58internal12NodeTemplateILb1EEES3_EvT_S5_RSaIT0_E(ptr noundef %0, ptr noundef %1, ptr noundef nonnull align 1 dereferenceable(1) %call)
          to label %invoke.cont unwind label %terminate.lpad

invoke.cont:                                      ; preds = %entry
  call void @_ZNSt12_Vector_baseIN4cvc58internal12NodeTemplateILb1EEESaIS3_EED2Ev(ptr noundef nonnull align 8 dereferenceable(24) %this1) #3
  ret void

terminate.lpad:                                   ; preds = %entry
  %2 = landingpad { ptr, i32 }
          catch ptr null
  %3 = extractvalue { ptr, i32 } %2, 0
  call void @__clang_call_terminate(ptr %3) #15
  unreachable
}

; Function Attrs: mustprogress uwtable
define hidden void @_ZN4cvc58internal4expr12TermCanonize16getCanonicalTermENS0_12NodeTemplateILb0EEEbb(ptr noalias sret(%"class.cvc5::internal::NodeTemplate") align 8 %agg.result, ptr noundef nonnull align 8 dereferenceable(216) %this, ptr noundef %n, i1 noundef zeroext %apply_torder, i1 noundef zeroext %doHoVar) #5 align 2 personality ptr @__gxx_personality_v0 {
entry:
  %result.ptr = alloca ptr, align 8
  %this.addr = alloca ptr, align 8
  %n.indirect_addr = alloca ptr, align 8
  %apply_torder.addr = alloca i8, align 1
  %doHoVar.addr = alloca i8, align 1
  %var_count = alloca %"class.std::map.121", align 8
  %visited = alloca %"class.std::map.111", align 8
  %agg.tmp = alloca %"class.cvc5::internal::NodeTemplate.107", align 8
  %exn.slot = alloca ptr, align 8
  %ehselector.slot = alloca i32, align 4
  store ptr %agg.result, ptr %result.ptr, align 8
  store ptr %this, ptr %this.addr, align 8
  store ptr %n, ptr %n.indirect_addr, align 8
  %frombool = zext i1 %apply_torder to i8
  store i8 %frombool, ptr %apply_torder.addr, align 1
  %frombool1 = zext i1 %doHoVar to i8
  store i8 %frombool1, ptr %doHoVar.addr, align 1
  %this2 = load ptr, ptr %this.addr, align 8
  call void @_ZNSt3mapISt4pairIN4cvc58internal8TypeNodeEjEjSt4lessIS4_ESaIS0_IKS4_jEEEC2Ev(ptr noundef nonnull align 8 dereferenceable(48) %var_count) #3
  call void @_ZNSt3mapIN4cvc58internal12NodeTemplateILb0EEENS2_ILb1EEESt4lessIS3_ESaISt4pairIKS3_S4_EEEC2Ev(ptr noundef nonnull align 8 dereferenceable(48) %visited) #3
  invoke void @_ZN4cvc58internal12NodeTemplateILb0EEC2ERKS2_(ptr noundef nonnull align 8 dereferenceable(8) %agg.tmp, ptr noundef nonnull align 8 dereferenceable(8) %n)
          to label %invoke.cont unwind label %lpad

invoke.cont:                                      ; preds = %entry
  %0 = load i8, ptr %apply_torder.addr, align 1
  %tobool = trunc i8 %0 to i1
  %1 = load i8, ptr %doHoVar.addr, align 1
  %tobool3 = trunc i8 %1 to i1
  invoke void @_ZN4cvc58internal4expr12TermCanonize16getCanonicalTermENS0_12NodeTemplateILb0EEEbbRSt3mapISt4pairINS0_8TypeNodeEjEjSt4lessIS8_ESaIS6_IKS8_jEEERS5_IS4_NS3_ILb1EEES9_IS4_ESaIS6_IKS4_SG_EEE(ptr sret(%"class.cvc5::internal::NodeTemplate") align 8 %agg.result, ptr noundef nonnull align 8 dereferenceable(216) %this2, ptr noundef %agg.tmp, i1 noundef zeroext %tobool, i1 noundef zeroext %tobool3, ptr noundef nonnull align 8 dereferenceable(48) %var_count, ptr noundef nonnull align 8 dereferenceable(48) %visited)
          to label %invoke.cont5 unwind label %lpad4

invoke.cont5:                                     ; preds = %invoke.cont
  call void @_ZN4cvc58internal12NodeTemplateILb0EED2Ev(ptr noundef nonnull align 8 dereferenceable(8) %agg.tmp) #3
  call void @_ZNSt3mapIN4cvc58internal12NodeTemplateILb0EEENS2_ILb1EEESt4lessIS3_ESaISt4pairIKS3_S4_EEED2Ev(ptr noundef nonnull align 8 dereferenceable(48) %visited) #3
  call void @_ZNSt3mapISt4pairIN4cvc58internal8TypeNodeEjEjSt4lessIS4_ESaIS0_IKS4_jEEED2Ev(ptr noundef nonnull align 8 dereferenceable(48) %var_count) #3
  ret void

lpad:                                             ; preds = %entry
  %2 = landingpad { ptr, i32 }
          cleanup
  %3 = extractvalue { ptr, i32 } %2, 0
  store ptr %3, ptr %exn.slot, align 8
  %4 = extractvalue { ptr, i32 } %2, 1
  store i32 %4, ptr %ehselector.slot, align 4
  br label %ehcleanup

lpad4:                                            ; preds = %invoke.cont
  %5 = landingpad { ptr, i32 }
          cleanup
  %6 = extractvalue { ptr, i32 } %5, 0
  store ptr %6, ptr %exn.slot, align 8
  %7 = extractvalue { ptr, i32 } %5, 1
  store i32 %7, ptr %ehselector.slot, align 4
  call void @_ZN4cvc58internal12NodeTemplateILb0EED2Ev(ptr noundef nonnull align 8 dereferenceable(8) %agg.tmp) #3
  br label %ehcleanup

ehcleanup:                                        ; preds = %lpad4, %lpad
  call void @_ZNSt3mapIN4cvc58internal12NodeTemplateILb0EEENS2_ILb1EEESt4lessIS3_ESaISt4pairIKS3_S4_EEED2Ev(ptr noundef nonnull align 8 dereferenceable(48) %visited) #3
  call void @_ZNSt3mapISt4pairIN4cvc58internal8TypeNodeEjEjSt4lessIS4_ESaIS0_IKS4_jEEED2Ev(ptr noundef nonnull align 8 dereferenceable(48) %var_count) #3
  br label %eh.resume

eh.resume:                                        ; preds = %ehcleanup
  %exn = load ptr, ptr %exn.slot, align 8
  %sel = load i32, ptr %ehselector.slot, align 4
  %lpad.val = insertvalue { ptr, i32 } poison, ptr %exn, 0
  %lpad.val7 = insertvalue { ptr, i32 } %lpad.val, i32 %sel, 1
  resume { ptr, i32 } %lpad.val7
}

; Function Attrs: mustprogress nounwind uwtable
define linkonce_odr hidden void @_ZNSt3mapISt4pairIN4cvc58internal8TypeNodeEjEjSt4lessIS4_ESaIS0_IKS4_jEEEC2Ev(ptr noundef nonnull align 8 dereferenceable(48) %this) unnamed_addr #4 comdat align 2 {
entry:
  %this.addr = alloca ptr, align 8
  store ptr %this, ptr %this.addr, align 8
  %this1 = load ptr, ptr %this.addr, align 8
  %_M_t = getelementptr inbounds %"class.std::map.121", ptr %this1, i32 0, i32 0
  call void @_ZNSt8_Rb_treeISt4pairIN4cvc58internal8TypeNodeEjES0_IKS4_jESt10_Select1stIS6_ESt4lessIS4_ESaIS6_EEC2Ev(ptr noundef nonnull align 8 dereferenceable(48) %_M_t) #3
  ret void
}

; Function Attrs: mustprogress nounwind uwtable
define linkonce_odr hidden void @_ZNSt3mapIN4cvc58internal12NodeTemplateILb0EEENS2_ILb1EEESt4lessIS3_ESaISt4pairIKS3_S4_EEEC2Ev(ptr noundef nonnull align 8 dereferenceable(48) %this) unnamed_addr #4 comdat align 2 {
entry:
  %this.addr = alloca ptr, align 8
  store ptr %this, ptr %this.addr, align 8
  %this1 = load ptr, ptr %this.addr, align 8
  %_M_t = getelementptr inbounds %"class.std::map.111", ptr %this1, i32 0, i32 0
  call void @_ZNSt8_Rb_treeIN4cvc58internal12NodeTemplateILb0EEESt4pairIKS3_NS2_ILb1EEEESt10_Select1stIS7_ESt4lessIS3_ESaIS7_EEC2Ev(ptr noundef nonnull align 8 dereferenceable(48) %_M_t) #3
  ret void
}

; Function Attrs: mustprogress nounwind uwtable
define linkonce_odr hidden void @_ZNSt3mapIN4cvc58internal12NodeTemplateILb0EEENS2_ILb1EEESt4lessIS3_ESaISt4pairIKS3_S4_EEED2Ev(ptr noundef nonnull align 8 dereferenceable(48) %this) unnamed_addr #4 comdat align 2 {
entry:
  %this.addr = alloca ptr, align 8
  store ptr %this, ptr %this.addr, align 8
  %this1 = load ptr, ptr %this.addr, align 8
  %_M_t = getelementptr inbounds %"class.std::map.111", ptr %this1, i32 0, i32 0
  call void @_ZNSt8_Rb_treeIN4cvc58internal12NodeTemplateILb0EEESt4pairIKS3_NS2_ILb1EEEESt10_Select1stIS7_ESt4lessIS3_ESaIS7_EED2Ev(ptr noundef nonnull align 8 dereferenceable(48) %_M_t) #3
  ret void
}

; Function Attrs: mustprogress nounwind uwtable
define linkonce_odr hidden void @_ZNSt3mapISt4pairIN4cvc58internal8TypeNodeEjEjSt4lessIS4_ESaIS0_IKS4_jEEED2Ev(ptr noundef nonnull align 8 dereferenceable(48) %this) unnamed_addr #4 comdat align 2 {
entry:
  %this.addr = alloca ptr, align 8
  store ptr %this, ptr %this.addr, align 8
  %this1 = load ptr, ptr %this.addr, align 8
  %_M_t = getelementptr inbounds %"class.std::map.121", ptr %this1, i32 0, i32 0
  call void @_ZNSt8_Rb_treeISt4pairIN4cvc58internal8TypeNodeEjES0_IKS4_jESt10_Select1stIS6_ESt4lessIS4_ESaIS6_EED2Ev(ptr noundef nonnull align 8 dereferenceable(48) %_M_t) #3
  ret void
}

; Function Attrs: mustprogress uwtable
define hidden void @_ZN4cvc58internal4expr12TermCanonize16getCanonicalTermENS0_12NodeTemplateILb0EEERSt3mapIS4_NS3_ILb1EEESt4lessIS4_ESaISt4pairIKS4_S6_EEEbb(ptr noalias sret(%"class.cvc5::internal::NodeTemplate") align 8 %agg.result, ptr noundef nonnull align 8 dereferenceable(216) %this, ptr noundef %n, ptr noundef nonnull align 8 dereferenceable(48) %visited, i1 noundef zeroext %apply_torder, i1 noundef zeroext %doHoVar) #5 align 2 personality ptr @__gxx_personality_v0 {
entry:
  %result.ptr = alloca ptr, align 8
  %this.addr = alloca ptr, align 8
  %n.indirect_addr = alloca ptr, align 8
  %visited.addr = alloca ptr, align 8
  %apply_torder.addr = alloca i8, align 1
  %doHoVar.addr = alloca i8, align 1
  %var_count = alloca %"class.std::map.121", align 8
  %agg.tmp = alloca %"class.cvc5::internal::NodeTemplate.107", align 8
  %exn.slot = alloca ptr, align 8
  %ehselector.slot = alloca i32, align 4
  store ptr %agg.result, ptr %result.ptr, align 8
  store ptr %this, ptr %this.addr, align 8
  store ptr %n, ptr %n.indirect_addr, align 8
  store ptr %visited, ptr %visited.addr, align 8
  %frombool = zext i1 %apply_torder to i8
  store i8 %frombool, ptr %apply_torder.addr, align 1
  %frombool1 = zext i1 %doHoVar to i8
  store i8 %frombool1, ptr %doHoVar.addr, align 1
  %this2 = load ptr, ptr %this.addr, align 8
  call void @_ZNSt3mapISt4pairIN4cvc58internal8TypeNodeEjEjSt4lessIS4_ESaIS0_IKS4_jEEEC2Ev(ptr noundef nonnull align 8 dereferenceable(48) %var_count) #3
  invoke void @_ZN4cvc58internal12NodeTemplateILb0EEC2ERKS2_(ptr noundef nonnull align 8 dereferenceable(8) %agg.tmp, ptr noundef nonnull align 8 dereferenceable(8) %n)
          to label %invoke.cont unwind label %lpad

invoke.cont:                                      ; preds = %entry
  %0 = load i8, ptr %apply_torder.addr, align 1
  %tobool = trunc i8 %0 to i1
  %1 = load i8, ptr %doHoVar.addr, align 1
  %tobool3 = trunc i8 %1 to i1
  %2 = load ptr, ptr %visited.addr, align 8
  invoke void @_ZN4cvc58internal4expr12TermCanonize16getCanonicalTermENS0_12NodeTemplateILb0EEEbbRSt3mapISt4pairINS0_8TypeNodeEjEjSt4lessIS8_ESaIS6_IKS8_jEEERS5_IS4_NS3_ILb1EEES9_IS4_ESaIS6_IKS4_SG_EEE(ptr sret(%"class.cvc5::internal::NodeTemplate") align 8 %agg.result, ptr noundef nonnull align 8 dereferenceable(216) %this2, ptr noundef %agg.tmp, i1 noundef zeroext %tobool, i1 noundef zeroext %tobool3, ptr noundef nonnull align 8 dereferenceable(48) %var_count, ptr noundef nonnull align 8 dereferenceable(48) %2)
          to label %invoke.cont5 unwind label %lpad4

invoke.cont5:                                     ; preds = %invoke.cont
  call void @_ZN4cvc58internal12NodeTemplateILb0EED2Ev(ptr noundef nonnull align 8 dereferenceable(8) %agg.tmp) #3
  call void @_ZNSt3mapISt4pairIN4cvc58internal8TypeNodeEjEjSt4lessIS4_ESaIS0_IKS4_jEEED2Ev(ptr noundef nonnull align 8 dereferenceable(48) %var_count) #3
  ret void

lpad:                                             ; preds = %entry
  %3 = landingpad { ptr, i32 }
          cleanup
  %4 = extractvalue { ptr, i32 } %3, 0
  store ptr %4, ptr %exn.slot, align 8
  %5 = extractvalue { ptr, i32 } %3, 1
  store i32 %5, ptr %ehselector.slot, align 4
  br label %ehcleanup

lpad4:                                            ; preds = %invoke.cont
  %6 = landingpad { ptr, i32 }
          cleanup
  %7 = extractvalue { ptr, i32 } %6, 0
  store ptr %7, ptr %exn.slot, align 8
  %8 = extractvalue { ptr, i32 } %6, 1
  store i32 %8, ptr %ehselector.slot, align 4
  call void @_ZN4cvc58internal12NodeTemplateILb0EED2Ev(ptr noundef nonnull align 8 dereferenceable(8) %agg.tmp) #3
  br label %ehcleanup

ehcleanup:                                        ; preds = %lpad4, %lpad
  call void @_ZNSt3mapISt4pairIN4cvc58internal8TypeNodeEjEjSt4lessIS4_ESaIS0_IKS4_jEEED2Ev(ptr noundef nonnull align 8 dereferenceable(48) %var_count) #3
  br label %eh.resume

eh.resume:                                        ; preds = %ehcleanup
  %exn = load ptr, ptr %exn.slot, align 8
  %sel = load i32, ptr %ehselector.slot, align 4
  %lpad.val = insertvalue { ptr, i32 } poison, ptr %exn, 0
  %lpad.val6 = insertvalue { ptr, i32 } %lpad.val, i32 %sel, 1
  resume { ptr, i32 } %lpad.val6
}

; Function Attrs: mustprogress nounwind uwtable
define linkonce_odr hidden void @_ZNSt8_Rb_treeIN4cvc58internal12NodeTemplateILb1EEESt4pairIKS3_iESt10_Select1stIS6_ESt4lessIS3_ESaIS6_EEC2Ev(ptr noundef nonnull align 8 dereferenceable(48) %this) unnamed_addr #4 comdat align 2 {
entry:
  %this.addr = alloca ptr, align 8
  store ptr %this, ptr %this.addr, align 8
  %this1 = load ptr, ptr %this.addr, align 8
  %_M_impl = getelementptr inbounds %"class.std::_Rb_tree", ptr %this1, i32 0, i32 0
  call void @_ZNSt8_Rb_treeIN4cvc58internal12NodeTemplateILb1EEESt4pairIKS3_iESt10_Select1stIS6_ESt4lessIS3_ESaIS6_EE13_Rb_tree_implISA_Lb1EEC2Ev(ptr noundef nonnull align 8 dereferenceable(48) %_M_impl) #3
  ret void
}

; Function Attrs: mustprogress nounwind uwtable
define linkonce_odr hidden void @_ZNSt8_Rb_treeIN4cvc58internal12NodeTemplateILb1EEESt4pairIKS3_iESt10_Select1stIS6_ESt4lessIS3_ESaIS6_EE13_Rb_tree_implISA_Lb1EEC2Ev(ptr noundef nonnull align 8 dereferenceable(48) %this) unnamed_addr #4 comdat align 2 {
entry:
  %this.addr = alloca ptr, align 8
  store ptr %this, ptr %this.addr, align 8
  %this1 = load ptr, ptr %this.addr, align 8
  call void @_ZNSaISt13_Rb_tree_nodeISt4pairIKN4cvc58internal12NodeTemplateILb1EEEiEEEC2Ev(ptr noundef nonnull align 1 dereferenceable(1) %this1) #3
  call void @_ZNSt20_Rb_tree_key_compareISt4lessIN4cvc58internal12NodeTemplateILb1EEEEEC2Ev(ptr noundef nonnull align 1 dereferenceable(1) %this1) #3
  %0 = getelementptr inbounds i8, ptr %this1, i64 8
  call void @_ZNSt15_Rb_tree_headerC2Ev(ptr noundef nonnull align 8 dereferenceable(40) %0) #3
  ret void
}

; Function Attrs: mustprogress nounwind uwtable
define linkonce_odr hidden void @_ZNSaISt13_Rb_tree_nodeISt4pairIKN4cvc58internal12NodeTemplateILb1EEEiEEEC2Ev(ptr noundef nonnull align 1 dereferenceable(1) %this) unnamed_addr #4 comdat align 2 {
entry:
  %this.addr = alloca ptr, align 8
  store ptr %this, ptr %this.addr, align 8
  %this1 = load ptr, ptr %this.addr, align 8
  call void @_ZNSt15__new_allocatorISt13_Rb_tree_nodeISt4pairIKN4cvc58internal12NodeTemplateILb1EEEiEEEC2Ev(ptr noundef nonnull align 1 dereferenceable(1) %this1) #3
  ret void
}

; Function Attrs: mustprogress nounwind uwtable
define linkonce_odr hidden void @_ZNSt20_Rb_tree_key_compareISt4lessIN4cvc58internal12NodeTemplateILb1EEEEEC2Ev(ptr noundef nonnull align 1 dereferenceable(1) %this) unnamed_addr #4 comdat align 2 {
entry:
  %this.addr = alloca ptr, align 8
  store ptr %this, ptr %this.addr, align 8
  ret void
}

; Function Attrs: mustprogress nounwind uwtable
define linkonce_odr hidden void @_ZNSt15_Rb_tree_headerC2Ev(ptr noundef nonnull align 8 dereferenceable(40) %this) unnamed_addr #4 comdat align 2 personality ptr @__gxx_personality_v0 {
entry:
  %this.addr = alloca ptr, align 8
  store ptr %this, ptr %this.addr, align 8
  %this1 = load ptr, ptr %this.addr, align 8
  %_M_header2 = getelementptr inbounds %"struct.std::_Rb_tree_header", ptr %this1, i32 0, i32 0
  %_M_color = getelementptr inbounds %"struct.std::_Rb_tree_node_base", ptr %_M_header2, i32 0, i32 0
  store i32 0, ptr %_M_color, align 8
  invoke void @_ZNSt15_Rb_tree_header8_M_resetEv(ptr noundef nonnull align 8 dereferenceable(40) %this1)
          to label %invoke.cont unwind label %terminate.lpad

invoke.cont:                                      ; preds = %entry
  ret void

terminate.lpad:                                   ; preds = %entry
  %0 = landingpad { ptr, i32 }
          catch ptr null
  %1 = extractvalue { ptr, i32 } %0, 0
  call void @__clang_call_terminate(ptr %1) #15
  unreachable
}

; Function Attrs: mustprogress nounwind uwtable
define linkonce_odr hidden void @_ZNSt15__new_allocatorISt13_Rb_tree_nodeISt4pairIKN4cvc58internal12NodeTemplateILb1EEEiEEEC2Ev(ptr noundef nonnull align 1 dereferenceable(1) %this) unnamed_addr #4 comdat align 2 {
entry:
  %this.addr = alloca ptr, align 8
  store ptr %this, ptr %this.addr, align 8
  ret void
}

; Function Attrs: mustprogress nounwind uwtable
define linkonce_odr hidden void @_ZNSt15_Rb_tree_header8_M_resetEv(ptr noundef nonnull align 8 dereferenceable(40) %this) #4 comdat align 2 {
entry:
  %this.addr = alloca ptr, align 8
  store ptr %this, ptr %this.addr, align 8
  %this1 = load ptr, ptr %this.addr, align 8
  %_M_header = getelementptr inbounds %"struct.std::_Rb_tree_header", ptr %this1, i32 0, i32 0
  %_M_parent = getelementptr inbounds %"struct.std::_Rb_tree_node_base", ptr %_M_header, i32 0, i32 1
  store ptr null, ptr %_M_parent, align 8
  %_M_header2 = getelementptr inbounds %"struct.std::_Rb_tree_header", ptr %this1, i32 0, i32 0
  %_M_header3 = getelementptr inbounds %"struct.std::_Rb_tree_header", ptr %this1, i32 0, i32 0
  %_M_left = getelementptr inbounds %"struct.std::_Rb_tree_node_base", ptr %_M_header3, i32 0, i32 2
  store ptr %_M_header2, ptr %_M_left, align 8
  %_M_header4 = getelementptr inbounds %"struct.std::_Rb_tree_header", ptr %this1, i32 0, i32 0
  %_M_header5 = getelementptr inbounds %"struct.std::_Rb_tree_header", ptr %this1, i32 0, i32 0
  %_M_right = getelementptr inbounds %"struct.std::_Rb_tree_node_base", ptr %_M_header5, i32 0, i32 3
  store ptr %_M_header4, ptr %_M_right, align 8
  %_M_node_count = getelementptr inbounds %"struct.std::_Rb_tree_header", ptr %this1, i32 0, i32 1
  store i64 0, ptr %_M_node_count, align 8
  ret void
}

; Function Attrs: noreturn nounwind uwtable
define linkonce_odr hidden void @__clang_call_terminate(ptr noundef %0) #7 comdat {
  %2 = call ptr @__cxa_begin_catch(ptr %0) #3
  call void @_ZSt9terminatev() #15
  unreachable
}

declare ptr @__cxa_begin_catch(ptr)

declare void @_ZSt9terminatev()

; Function Attrs: mustprogress nounwind uwtable
define linkonce_odr hidden void @_ZNSt8_Rb_treeIN4cvc58internal8TypeNodeESt4pairIKS2_iESt10_Select1stIS5_ESt4lessIS2_ESaIS5_EEC2Ev(ptr noundef nonnull align 8 dereferenceable(48) %this) unnamed_addr #4 comdat align 2 {
entry:
  %this.addr = alloca ptr, align 8
  store ptr %this, ptr %this.addr, align 8
  %this1 = load ptr, ptr %this.addr, align 8
  %_M_impl = getelementptr inbounds %"class.std::_Rb_tree.1", ptr %this1, i32 0, i32 0
  call void @_ZNSt8_Rb_treeIN4cvc58internal8TypeNodeESt4pairIKS2_iESt10_Select1stIS5_ESt4lessIS2_ESaIS5_EE13_Rb_tree_implIS9_Lb1EEC2Ev(ptr noundef nonnull align 8 dereferenceable(48) %_M_impl) #3
  ret void
}

; Function Attrs: mustprogress nounwind uwtable
define linkonce_odr hidden void @_ZNSt8_Rb_treeIN4cvc58internal8TypeNodeESt4pairIKS2_iESt10_Select1stIS5_ESt4lessIS2_ESaIS5_EE13_Rb_tree_implIS9_Lb1EEC2Ev(ptr noundef nonnull align 8 dereferenceable(48) %this) unnamed_addr #4 comdat align 2 {
entry:
  %this.addr = alloca ptr, align 8
  store ptr %this, ptr %this.addr, align 8
  %this1 = load ptr, ptr %this.addr, align 8
  call void @_ZNSaISt13_Rb_tree_nodeISt4pairIKN4cvc58internal8TypeNodeEiEEEC2Ev(ptr noundef nonnull align 1 dereferenceable(1) %this1) #3
  call void @_ZNSt20_Rb_tree_key_compareISt4lessIN4cvc58internal8TypeNodeEEEC2Ev(ptr noundef nonnull align 1 dereferenceable(1) %this1) #3
  %0 = getelementptr inbounds i8, ptr %this1, i64 8
  call void @_ZNSt15_Rb_tree_headerC2Ev(ptr noundef nonnull align 8 dereferenceable(40) %0) #3
  ret void
}

; Function Attrs: mustprogress nounwind uwtable
define linkonce_odr hidden void @_ZNSaISt13_Rb_tree_nodeISt4pairIKN4cvc58internal8TypeNodeEiEEEC2Ev(ptr noundef nonnull align 1 dereferenceable(1) %this) unnamed_addr #4 comdat align 2 {
entry:
  %this.addr = alloca ptr, align 8
  store ptr %this, ptr %this.addr, align 8
  %this1 = load ptr, ptr %this.addr, align 8
  call void @_ZNSt15__new_allocatorISt13_Rb_tree_nodeISt4pairIKN4cvc58internal8TypeNodeEiEEEC2Ev(ptr noundef nonnull align 1 dereferenceable(1) %this1) #3
  ret void
}

; Function Attrs: mustprogress nounwind uwtable
define linkonce_odr hidden void @_ZNSt20_Rb_tree_key_compareISt4lessIN4cvc58internal8TypeNodeEEEC2Ev(ptr noundef nonnull align 1 dereferenceable(1) %this) unnamed_addr #4 comdat align 2 {
entry:
  %this.addr = alloca ptr, align 8
  store ptr %this, ptr %this.addr, align 8
  ret void
}

; Function Attrs: mustprogress nounwind uwtable
define linkonce_odr hidden void @_ZNSt15__new_allocatorISt13_Rb_tree_nodeISt4pairIKN4cvc58internal8TypeNodeEiEEEC2Ev(ptr noundef nonnull align 1 dereferenceable(1) %this) unnamed_addr #4 comdat align 2 {
entry:
  %this.addr = alloca ptr, align 8
  store ptr %this, ptr %this.addr, align 8
  ret void
}

; Function Attrs: mustprogress nounwind uwtable
define linkonce_odr hidden void @_ZNSt8_Rb_treeISt4pairIN4cvc58internal8TypeNodeEjES0_IKS4_St6vectorINS2_12NodeTemplateILb1EEESaIS8_EEESt10_Select1stISB_ESt4lessIS4_ESaISB_EEC2Ev(ptr noundef nonnull align 8 dereferenceable(48) %this) unnamed_addr #4 comdat align 2 {
entry:
  %this.addr = alloca ptr, align 8
  store ptr %this, ptr %this.addr, align 8
  %this1 = load ptr, ptr %this.addr, align 8
  %_M_impl = getelementptr inbounds %"class.std::_Rb_tree.9", ptr %this1, i32 0, i32 0
  call void @_ZNSt8_Rb_treeISt4pairIN4cvc58internal8TypeNodeEjES0_IKS4_St6vectorINS2_12NodeTemplateILb1EEESaIS8_EEESt10_Select1stISB_ESt4lessIS4_ESaISB_EE13_Rb_tree_implISF_Lb1EEC2Ev(ptr noundef nonnull align 8 dereferenceable(48) %_M_impl) #3
  ret void
}

; Function Attrs: mustprogress nounwind uwtable
define linkonce_odr hidden void @_ZNSt8_Rb_treeISt4pairIN4cvc58internal8TypeNodeEjES0_IKS4_St6vectorINS2_12NodeTemplateILb1EEESaIS8_EEESt10_Select1stISB_ESt4lessIS4_ESaISB_EE13_Rb_tree_implISF_Lb1EEC2Ev(ptr noundef nonnull align 8 dereferenceable(48) %this) unnamed_addr #4 comdat align 2 {
entry:
  %this.addr = alloca ptr, align 8
  store ptr %this, ptr %this.addr, align 8
  %this1 = load ptr, ptr %this.addr, align 8
  call void @_ZNSaISt13_Rb_tree_nodeISt4pairIKS0_IN4cvc58internal8TypeNodeEjESt6vectorINS2_12NodeTemplateILb1EEESaIS8_EEEEEC2Ev(ptr noundef nonnull align 1 dereferenceable(1) %this1) #3
  call void @_ZNSt20_Rb_tree_key_compareISt4lessISt4pairIN4cvc58internal8TypeNodeEjEEEC2Ev(ptr noundef nonnull align 1 dereferenceable(1) %this1) #3
  %0 = getelementptr inbounds i8, ptr %this1, i64 8
  call void @_ZNSt15_Rb_tree_headerC2Ev(ptr noundef nonnull align 8 dereferenceable(40) %0) #3
  ret void
}

; Function Attrs: mustprogress nounwind uwtable
define linkonce_odr hidden void @_ZNSaISt13_Rb_tree_nodeISt4pairIKS0_IN4cvc58internal8TypeNodeEjESt6vectorINS2_12NodeTemplateILb1EEESaIS8_EEEEEC2Ev(ptr noundef nonnull align 1 dereferenceable(1) %this) unnamed_addr #4 comdat align 2 {
entry:
  %this.addr = alloca ptr, align 8
  store ptr %this, ptr %this.addr, align 8
  %this1 = load ptr, ptr %this.addr, align 8
  call void @_ZNSt15__new_allocatorISt13_Rb_tree_nodeISt4pairIKS1_IN4cvc58internal8TypeNodeEjESt6vectorINS3_12NodeTemplateILb1EEESaIS9_EEEEEC2Ev(ptr noundef nonnull align 1 dereferenceable(1) %this1) #3
  ret void
}

; Function Attrs: mustprogress nounwind uwtable
define linkonce_odr hidden void @_ZNSt20_Rb_tree_key_compareISt4lessISt4pairIN4cvc58internal8TypeNodeEjEEEC2Ev(ptr noundef nonnull align 1 dereferenceable(1) %this) unnamed_addr #4 comdat align 2 {
entry:
  %this.addr = alloca ptr, align 8
  store ptr %this, ptr %this.addr, align 8
  ret void
}

; Function Attrs: mustprogress nounwind uwtable
define linkonce_odr hidden void @_ZNSt15__new_allocatorISt13_Rb_tree_nodeISt4pairIKS1_IN4cvc58internal8TypeNodeEjESt6vectorINS3_12NodeTemplateILb1EEESaIS9_EEEEEC2Ev(ptr noundef nonnull align 1 dereferenceable(1) %this) unnamed_addr #4 comdat align 2 {
entry:
  %this.addr = alloca ptr, align 8
  store ptr %this, ptr %this.addr, align 8
  ret void
}

; Function Attrs: mustprogress nounwind uwtable
define linkonce_odr hidden void @_ZNSt8_Rb_treeIN4cvc58internal12NodeTemplateILb1EEESt4pairIKS3_mESt10_Select1stIS6_ESt4lessIS3_ESaIS6_EEC2Ev(ptr noundef nonnull align 8 dereferenceable(48) %this) unnamed_addr #4 comdat align 2 {
entry:
  %this.addr = alloca ptr, align 8
  store ptr %this, ptr %this.addr, align 8
  %this1 = load ptr, ptr %this.addr, align 8
  %_M_impl = getelementptr inbounds %"class.std::_Rb_tree.17", ptr %this1, i32 0, i32 0
  call void @_ZNSt8_Rb_treeIN4cvc58internal12NodeTemplateILb1EEESt4pairIKS3_mESt10_Select1stIS6_ESt4lessIS3_ESaIS6_EE13_Rb_tree_implISA_Lb1EEC2Ev(ptr noundef nonnull align 8 dereferenceable(48) %_M_impl) #3
  ret void
}

; Function Attrs: mustprogress nounwind uwtable
define linkonce_odr hidden void @_ZNSt8_Rb_treeIN4cvc58internal12NodeTemplateILb1EEESt4pairIKS3_mESt10_Select1stIS6_ESt4lessIS3_ESaIS6_EE13_Rb_tree_implISA_Lb1EEC2Ev(ptr noundef nonnull align 8 dereferenceable(48) %this) unnamed_addr #4 comdat align 2 {
entry:
  %this.addr = alloca ptr, align 8
  store ptr %this, ptr %this.addr, align 8
  %this1 = load ptr, ptr %this.addr, align 8
  call void @_ZNSaISt13_Rb_tree_nodeISt4pairIKN4cvc58internal12NodeTemplateILb1EEEmEEEC2Ev(ptr noundef nonnull align 1 dereferenceable(1) %this1) #3
  call void @_ZNSt20_Rb_tree_key_compareISt4lessIN4cvc58internal12NodeTemplateILb1EEEEEC2Ev(ptr noundef nonnull align 1 dereferenceable(1) %this1) #3
  %0 = getelementptr inbounds i8, ptr %this1, i64 8
  call void @_ZNSt15_Rb_tree_headerC2Ev(ptr noundef nonnull align 8 dereferenceable(40) %0) #3
  ret void
}

; Function Attrs: mustprogress nounwind uwtable
define linkonce_odr hidden void @_ZNSaISt13_Rb_tree_nodeISt4pairIKN4cvc58internal12NodeTemplateILb1EEEmEEEC2Ev(ptr noundef nonnull align 1 dereferenceable(1) %this) unnamed_addr #4 comdat align 2 {
entry:
  %this.addr = alloca ptr, align 8
  store ptr %this, ptr %this.addr, align 8
  %this1 = load ptr, ptr %this.addr, align 8
  call void @_ZNSt15__new_allocatorISt13_Rb_tree_nodeISt4pairIKN4cvc58internal12NodeTemplateILb1EEEmEEEC2Ev(ptr noundef nonnull align 1 dereferenceable(1) %this1) #3
  ret void
}

; Function Attrs: mustprogress nounwind uwtable
define linkonce_odr hidden void @_ZNSt15__new_allocatorISt13_Rb_tree_nodeISt4pairIKN4cvc58internal12NodeTemplateILb1EEEmEEEC2Ev(ptr noundef nonnull align 1 dereferenceable(1) %this) unnamed_addr #4 comdat align 2 {
entry:
  %this.addr = alloca ptr, align 8
  store ptr %this, ptr %this.addr, align 8
  ret void
}

; Function Attrs: mustprogress nounwind uwtable
define linkonce_odr hidden void @_ZN4cvc58internal11Cvc5ostreamC2Ev(ptr noundef nonnull align 8 dereferenceable(24) %this) unnamed_addr #4 comdat align 2 {
entry:
  %this.addr = alloca ptr, align 8
  store ptr %this, ptr %this.addr, align 8
  %this1 = load ptr, ptr %this.addr, align 8
  %d_os = getelementptr inbounds %"class.cvc5::internal::Cvc5ostream", ptr %this1, i32 0, i32 0
  store ptr null, ptr %d_os, align 8
  %d_firstColumn = getelementptr inbounds %"class.cvc5::internal::Cvc5ostream", ptr %this1, i32 0, i32 1
  store i8 0, ptr %d_firstColumn, align 8
  %d_endl = getelementptr inbounds %"class.cvc5::internal::Cvc5ostream", ptr %this1, i32 0, i32 2
  store ptr @_ZSt4endlIcSt11char_traitsIcEERSt13basic_ostreamIT_T0_ES6_, ptr %d_endl, align 8
  ret void
}

; Function Attrs: mustprogress nounwind uwtable
define linkonce_odr hidden void @_ZN4cvc58internal11Cvc5ostreamC2EPSo(ptr noundef nonnull align 8 dereferenceable(24) %this, ptr noundef %os) unnamed_addr #4 comdat align 2 {
entry:
  %this.addr = alloca ptr, align 8
  %os.addr = alloca ptr, align 8
  store ptr %this, ptr %this.addr, align 8
  store ptr %os, ptr %os.addr, align 8
  %this1 = load ptr, ptr %this.addr, align 8
  %d_os = getelementptr inbounds %"class.cvc5::internal::Cvc5ostream", ptr %this1, i32 0, i32 0
  %0 = load ptr, ptr %os.addr, align 8
  store ptr %0, ptr %d_os, align 8
  %d_firstColumn = getelementptr inbounds %"class.cvc5::internal::Cvc5ostream", ptr %this1, i32 0, i32 1
  store i8 1, ptr %d_firstColumn, align 8
  %d_endl = getelementptr inbounds %"class.cvc5::internal::Cvc5ostream", ptr %this1, i32 0, i32 2
  store ptr @_ZSt4endlIcSt11char_traitsIcEERSt13basic_ostreamIT_T0_ES6_, ptr %d_endl, align 8
  ret void
}

declare noundef nonnull align 8 dereferenceable(8) ptr @_ZNSolsEPFRSoS_E(ptr noundef nonnull align 8 dereferenceable(8), ptr noundef) #1

; Function Attrs: mustprogress nounwind uwtable
define linkonce_odr hidden noundef i32 @_ZNK4cvc58internal8TypeNode7getKindEv(ptr noundef nonnull align 8 dereferenceable(8) %this) #4 comdat align 2 {
entry:
  %this.addr = alloca ptr, align 8
  store ptr %this, ptr %this.addr, align 8
  %this1 = load ptr, ptr %this.addr, align 8
  %d_nv = getelementptr inbounds %"class.cvc5::internal::TypeNode", ptr %this1, i32 0, i32 0
  %0 = load ptr, ptr %d_nv, align 8
  %d_kind = getelementptr inbounds %"class.cvc5::internal::expr::NodeValue", ptr %0, i32 0, i32 1
  %bf.load = load i16, ptr %d_kind, align 8
  %bf.clear = and i16 %bf.load, 1023
  %bf.cast = zext i16 %bf.clear to i32
  ret i32 %bf.cast
}

; Function Attrs: mustprogress uwtable
define linkonce_odr hidden void @_ZNK4cvc58internal8TypeNode8toStreamERSo(ptr noundef nonnull align 8 dereferenceable(8) %this, ptr noundef nonnull align 8 dereferenceable(8) %out) #5 comdat align 2 personality ptr @__gxx_personality_v0 {
entry:
  %this.addr = alloca ptr, align 8
  %out.addr = alloca ptr, align 8
  %scope = alloca %"class.cvc5::internal::options::ioutils::Scope", align 8
  %exn.slot = alloca ptr, align 8
  %ehselector.slot = alloca i32, align 4
  store ptr %this, ptr %this.addr, align 8
  store ptr %out, ptr %out.addr, align 8
  %this1 = load ptr, ptr %this.addr, align 8
  %0 = load ptr, ptr %out.addr, align 8
  %vtable = load ptr, ptr %0, align 8
  %vbase.offset.ptr = getelementptr i8, ptr %vtable, i64 -24
  %vbase.offset = load i64, ptr %vbase.offset.ptr, align 8
  %add.ptr = getelementptr inbounds i8, ptr %0, i64 %vbase.offset
  call void @_ZN4cvc58internal7options7ioutils5ScopeC1ERSt8ios_base(ptr noundef nonnull align 8 dereferenceable(44) %scope, ptr noundef nonnull align 8 dereferenceable(216) %add.ptr)
  %1 = load ptr, ptr %out.addr, align 8
  %vtable2 = load ptr, ptr %1, align 8
  %vbase.offset.ptr3 = getelementptr i8, ptr %vtable2, i64 -24
  %vbase.offset4 = load i64, ptr %vbase.offset.ptr3, align 8
  %add.ptr5 = getelementptr inbounds i8, ptr %1, i64 %vbase.offset4
  invoke void @_ZN4cvc58internal7options7ioutils14applyDagThreshERSt8ios_basel(ptr noundef nonnull align 8 dereferenceable(216) %add.ptr5, i64 noundef 0)
          to label %invoke.cont unwind label %lpad

invoke.cont:                                      ; preds = %entry
  %d_nv = getelementptr inbounds %"class.cvc5::internal::TypeNode", ptr %this1, i32 0, i32 0
  %2 = load ptr, ptr %d_nv, align 8
  %3 = load ptr, ptr %out.addr, align 8
  invoke void @_ZNK4cvc58internal4expr9NodeValue8toStreamERSo(ptr noundef nonnull align 8 dereferenceable(16) %2, ptr noundef nonnull align 8 dereferenceable(8) %3)
          to label %invoke.cont6 unwind label %lpad

invoke.cont6:                                     ; preds = %invoke.cont
  call void @_ZN4cvc58internal7options7ioutils5ScopeD1Ev(ptr noundef nonnull align 8 dereferenceable(44) %scope) #3
  ret void

lpad:                                             ; preds = %invoke.cont, %entry
  %4 = landingpad { ptr, i32 }
          cleanup
  %5 = extractvalue { ptr, i32 } %4, 0
  store ptr %5, ptr %exn.slot, align 8
  %6 = extractvalue { ptr, i32 } %4, 1
  store i32 %6, ptr %ehselector.slot, align 4
  call void @_ZN4cvc58internal7options7ioutils5ScopeD1Ev(ptr noundef nonnull align 8 dereferenceable(44) %scope) #3
  br label %eh.resume

eh.resume:                                        ; preds = %lpad
  %exn = load ptr, ptr %exn.slot, align 8
  %sel = load i32, ptr %ehselector.slot, align 4
  %lpad.val = insertvalue { ptr, i32 } poison, ptr %exn, 0
  %lpad.val7 = insertvalue { ptr, i32 } %lpad.val, i32 %sel, 1
  resume { ptr, i32 } %lpad.val7
}

declare void @_ZN4cvc58internal7options7ioutils5ScopeC1ERSt8ios_base(ptr noundef nonnull align 8 dereferenceable(44), ptr noundef nonnull align 8 dereferenceable(216)) unnamed_addr #1

declare void @_ZN4cvc58internal7options7ioutils14applyDagThreshERSt8ios_basel(ptr noundef nonnull align 8 dereferenceable(216), i64 noundef) #1

declare void @_ZNK4cvc58internal4expr9NodeValue8toStreamERSo(ptr noundef nonnull align 8 dereferenceable(16), ptr noundef nonnull align 8 dereferenceable(8)) #1

; Function Attrs: nounwind
declare void @_ZN4cvc58internal7options7ioutils5ScopeD1Ev(ptr noundef nonnull align 8 dereferenceable(44)) unnamed_addr #2

; Function Attrs: mustprogress uwtable
define linkonce_odr hidden void @_ZN4cvc58internal4expr9NodeValue3incEv(ptr noundef nonnull align 8 dereferenceable(16) %this) #5 comdat align 2 {
entry:
  %this.addr = alloca ptr, align 8
  store ptr %this, ptr %this.addr, align 8
  %this1 = load ptr, ptr %this.addr, align 8
  %bf.load = load i64, ptr %this1, align 8
  %bf.lshr = lshr i64 %bf.load, 40
  %bf.clear = and i64 %bf.lshr, 1048575
  %bf.cast = trunc i64 %bf.clear to i32
  %cmp = icmp ult i32 %bf.cast, 1048574
  br i1 %cmp, label %if.then, label %if.else

if.then:                                          ; preds = %entry
  %bf.load2 = load i64, ptr %this1, align 8
  %bf.lshr3 = lshr i64 %bf.load2, 40
  %bf.clear4 = and i64 %bf.lshr3, 1048575
  %bf.cast5 = trunc i64 %bf.clear4 to i32
  %inc = add i32 %bf.cast5, 1
  %0 = zext i32 %inc to i64
  %bf.load6 = load i64, ptr %this1, align 8
  %bf.value = and i64 %0, 1048575
  %bf.shl = shl i64 %bf.value, 40
  %bf.clear7 = and i64 %bf.load6, -1152920405095219201
  %bf.set = or i64 %bf.clear7, %bf.shl
  store i64 %bf.set, ptr %this1, align 8
  br label %if.end25

if.else:                                          ; preds = %entry
  %bf.load8 = load i64, ptr %this1, align 8
  %bf.lshr9 = lshr i64 %bf.load8, 40
  %bf.clear10 = and i64 %bf.lshr9, 1048575
  %bf.cast11 = trunc i64 %bf.clear10 to i32
  %cmp12 = icmp eq i32 %bf.cast11, 1048574
  br i1 %cmp12, label %if.then13, label %if.end

if.then13:                                        ; preds = %if.else
  %bf.load14 = load i64, ptr %this1, align 8
  %bf.lshr15 = lshr i64 %bf.load14, 40
  %bf.clear16 = and i64 %bf.lshr15, 1048575
  %bf.cast17 = trunc i64 %bf.clear16 to i32
  %inc18 = add i32 %bf.cast17, 1
  %1 = zext i32 %inc18 to i64
  %bf.load19 = load i64, ptr %this1, align 8
  %bf.value20 = and i64 %1, 1048575
  %bf.shl21 = shl i64 %bf.value20, 40
  %bf.clear22 = and i64 %bf.load19, -1152920405095219201
  %bf.set23 = or i64 %bf.clear22, %bf.shl21
  store i64 %bf.set23, ptr %this1, align 8
  call void @_ZN4cvc58internal4expr9NodeValue20markRefCountMaxedOutEv(ptr noundef nonnull align 8 dereferenceable(16) %this1)
  br label %if.end

if.end:                                           ; preds = %if.then13, %if.else
  br label %if.end25

if.end25:                                         ; preds = %if.end, %if.then
  ret void
}

declare void @_ZN4cvc58internal4expr9NodeValue20markRefCountMaxedOutEv(ptr noundef nonnull align 8 dereferenceable(16)) #1

; Function Attrs: mustprogress uwtable
define linkonce_odr hidden void @_ZN4cvc58internal4expr9NodeValue3decEv(ptr noundef nonnull align 8 dereferenceable(16) %this) #5 comdat align 2 {
entry:
  %this.addr = alloca ptr, align 8
  store ptr %this, ptr %this.addr, align 8
  %this1 = load ptr, ptr %this.addr, align 8
  %bf.load = load i64, ptr %this1, align 8
  %bf.lshr = lshr i64 %bf.load, 40
  %bf.clear = and i64 %bf.lshr, 1048575
  %bf.cast = trunc i64 %bf.clear to i32
  %cmp = icmp ult i32 %bf.cast, 1048575
  br i1 %cmp, label %if.then, label %if.end14

if.then:                                          ; preds = %entry
  %bf.load2 = load i64, ptr %this1, align 8
  %bf.lshr3 = lshr i64 %bf.load2, 40
  %bf.clear4 = and i64 %bf.lshr3, 1048575
  %bf.cast5 = trunc i64 %bf.clear4 to i32
  %dec = add i32 %bf.cast5, -1
  %0 = zext i32 %dec to i64
  %bf.load6 = load i64, ptr %this1, align 8
  %bf.value = and i64 %0, 1048575
  %bf.shl = shl i64 %bf.value, 40
  %bf.clear7 = and i64 %bf.load6, -1152920405095219201
  %bf.set = or i64 %bf.clear7, %bf.shl
  store i64 %bf.set, ptr %this1, align 8
  %bf.load8 = load i64, ptr %this1, align 8
  %bf.lshr9 = lshr i64 %bf.load8, 40
  %bf.clear10 = and i64 %bf.lshr9, 1048575
  %bf.cast11 = trunc i64 %bf.clear10 to i32
  %cmp12 = icmp eq i32 %bf.cast11, 0
  br i1 %cmp12, label %if.then13, label %if.end

if.then13:                                        ; preds = %if.then
  call void @_ZN4cvc58internal4expr9NodeValue15markForDeletionEv(ptr noundef nonnull align 8 dereferenceable(16) %this1)
  br label %if.end

if.end:                                           ; preds = %if.then13, %if.then
  br label %if.end14

if.end14:                                         ; preds = %if.end, %entry
  ret void
}

declare void @_ZN4cvc58internal4expr9NodeValue15markForDeletionEv(ptr noundef nonnull align 8 dereferenceable(16)) #1

; Function Attrs: mustprogress nounwind uwtable
define linkonce_odr hidden void @_ZNSt12_Vector_baseIN4cvc58internal12NodeTemplateILb1EEESaIS3_EEC2Ev(ptr noundef nonnull align 8 dereferenceable(24) %this) unnamed_addr #4 comdat align 2 {
entry:
  %this.addr = alloca ptr, align 8
  store ptr %this, ptr %this.addr, align 8
  %this1 = load ptr, ptr %this.addr, align 8
  %_M_impl = getelementptr inbounds %"struct.std::_Vector_base.32", ptr %this1, i32 0, i32 0
  call void @_ZNSt12_Vector_baseIN4cvc58internal12NodeTemplateILb1EEESaIS3_EE12_Vector_implC2Ev(ptr noundef nonnull align 8 dereferenceable(24) %_M_impl) #3
  ret void
}

; Function Attrs: mustprogress nounwind uwtable
define linkonce_odr hidden void @_ZNSt12_Vector_baseIN4cvc58internal12NodeTemplateILb1EEESaIS3_EE12_Vector_implC2Ev(ptr noundef nonnull align 8 dereferenceable(24) %this) unnamed_addr #4 comdat align 2 {
entry:
  %this.addr = alloca ptr, align 8
  store ptr %this, ptr %this.addr, align 8
  %this1 = load ptr, ptr %this.addr, align 8
  call void @_ZNSaIN4cvc58internal12NodeTemplateILb1EEEEC2Ev(ptr noundef nonnull align 1 dereferenceable(1) %this1) #3
  call void @_ZNSt12_Vector_baseIN4cvc58internal12NodeTemplateILb1EEESaIS3_EE17_Vector_impl_dataC2Ev(ptr noundef nonnull align 8 dereferenceable(24) %this1) #3
  ret void
}

; Function Attrs: mustprogress nounwind uwtable
define linkonce_odr hidden void @_ZNSaIN4cvc58internal12NodeTemplateILb1EEEEC2Ev(ptr noundef nonnull align 1 dereferenceable(1) %this) unnamed_addr #4 comdat align 2 {
entry:
  %this.addr = alloca ptr, align 8
  store ptr %this, ptr %this.addr, align 8
  %this1 = load ptr, ptr %this.addr, align 8
  call void @_ZNSt15__new_allocatorIN4cvc58internal12NodeTemplateILb1EEEEC2Ev(ptr noundef nonnull align 1 dereferenceable(1) %this1) #3
  ret void
}

; Function Attrs: mustprogress nounwind uwtable
define linkonce_odr hidden void @_ZNSt12_Vector_baseIN4cvc58internal12NodeTemplateILb1EEESaIS3_EE17_Vector_impl_dataC2Ev(ptr noundef nonnull align 8 dereferenceable(24) %this) unnamed_addr #4 comdat align 2 {
entry:
  %this.addr = alloca ptr, align 8
  store ptr %this, ptr %this.addr, align 8
  %this1 = load ptr, ptr %this.addr, align 8
  %_M_start = getelementptr inbounds %"struct.std::_Vector_base<cvc5::internal::NodeTemplate<true>, std::allocator<cvc5::internal::NodeTemplate<true>>>::_Vector_impl_data", ptr %this1, i32 0, i32 0
  store ptr null, ptr %_M_start, align 8
  %_M_finish = getelementptr inbounds %"struct.std::_Vector_base<cvc5::internal::NodeTemplate<true>, std::allocator<cvc5::internal::NodeTemplate<true>>>::_Vector_impl_data", ptr %this1, i32 0, i32 1
  store ptr null, ptr %_M_finish, align 8
  %_M_end_of_storage = getelementptr inbounds %"struct.std::_Vector_base<cvc5::internal::NodeTemplate<true>, std::allocator<cvc5::internal::NodeTemplate<true>>>::_Vector_impl_data", ptr %this1, i32 0, i32 2
  store ptr null, ptr %_M_end_of_storage, align 8
  ret void
}

; Function Attrs: mustprogress nounwind uwtable
define linkonce_odr hidden void @_ZNSt15__new_allocatorIN4cvc58internal12NodeTemplateILb1EEEEC2Ev(ptr noundef nonnull align 1 dereferenceable(1) %this) unnamed_addr #4 comdat align 2 {
entry:
  %this.addr = alloca ptr, align 8
  store ptr %this, ptr %this.addr, align 8
  ret void
}

; Function Attrs: mustprogress nounwind uwtable
define linkonce_odr hidden void @_ZNSt8_Rb_treeISt4pairIN4cvc58internal8TypeNodeEjES0_IKS4_jESt10_Select1stIS6_ESt4lessIS4_ESaIS6_EEC2Ev(ptr noundef nonnull align 8 dereferenceable(48) %this) unnamed_addr #4 comdat align 2 {
entry:
  %this.addr = alloca ptr, align 8
  store ptr %this, ptr %this.addr, align 8
  %this1 = load ptr, ptr %this.addr, align 8
  %_M_impl = getelementptr inbounds %"class.std::_Rb_tree.122", ptr %this1, i32 0, i32 0
  call void @_ZNSt8_Rb_treeISt4pairIN4cvc58internal8TypeNodeEjES0_IKS4_jESt10_Select1stIS6_ESt4lessIS4_ESaIS6_EE13_Rb_tree_implISA_Lb1EEC2Ev(ptr noundef nonnull align 8 dereferenceable(48) %_M_impl) #3
  ret void
}

; Function Attrs: mustprogress nounwind uwtable
define linkonce_odr hidden void @_ZNSt8_Rb_treeISt4pairIN4cvc58internal8TypeNodeEjES0_IKS4_jESt10_Select1stIS6_ESt4lessIS4_ESaIS6_EE13_Rb_tree_implISA_Lb1EEC2Ev(ptr noundef nonnull align 8 dereferenceable(48) %this) unnamed_addr #4 comdat align 2 {
entry:
  %this.addr = alloca ptr, align 8
  store ptr %this, ptr %this.addr, align 8
  %this1 = load ptr, ptr %this.addr, align 8
  call void @_ZNSaISt13_Rb_tree_nodeISt4pairIKS0_IN4cvc58internal8TypeNodeEjEjEEEC2Ev(ptr noundef nonnull align 1 dereferenceable(1) %this1) #3
  call void @_ZNSt20_Rb_tree_key_compareISt4lessISt4pairIN4cvc58internal8TypeNodeEjEEEC2Ev(ptr noundef nonnull align 1 dereferenceable(1) %this1) #3
  %0 = getelementptr inbounds i8, ptr %this1, i64 8
  call void @_ZNSt15_Rb_tree_headerC2Ev(ptr noundef nonnull align 8 dereferenceable(40) %0) #3
  ret void
}

; Function Attrs: mustprogress nounwind uwtable
define linkonce_odr hidden void @_ZNSaISt13_Rb_tree_nodeISt4pairIKS0_IN4cvc58internal8TypeNodeEjEjEEEC2Ev(ptr noundef nonnull align 1 dereferenceable(1) %this) unnamed_addr #4 comdat align 2 {
entry:
  %this.addr = alloca ptr, align 8
  store ptr %this, ptr %this.addr, align 8
  %this1 = load ptr, ptr %this.addr, align 8
  call void @_ZNSt15__new_allocatorISt13_Rb_tree_nodeISt4pairIKS1_IN4cvc58internal8TypeNodeEjEjEEEC2Ev(ptr noundef nonnull align 1 dereferenceable(1) %this1) #3
  ret void
}

; Function Attrs: mustprogress nounwind uwtable
define linkonce_odr hidden void @_ZNSt15__new_allocatorISt13_Rb_tree_nodeISt4pairIKS1_IN4cvc58internal8TypeNodeEjEjEEEC2Ev(ptr noundef nonnull align 1 dereferenceable(1) %this) unnamed_addr #4 comdat align 2 {
entry:
  %this.addr = alloca ptr, align 8
  store ptr %this, ptr %this.addr, align 8
  ret void
}

; Function Attrs: mustprogress nounwind uwtable
define linkonce_odr hidden void @_ZNSt8_Rb_treeIN4cvc58internal12NodeTemplateILb0EEESt4pairIKS3_NS2_ILb1EEEESt10_Select1stIS7_ESt4lessIS3_ESaIS7_EEC2Ev(ptr noundef nonnull align 8 dereferenceable(48) %this) unnamed_addr #4 comdat align 2 {
entry:
  %this.addr = alloca ptr, align 8
  store ptr %this, ptr %this.addr, align 8
  %this1 = load ptr, ptr %this.addr, align 8
  %_M_impl = getelementptr inbounds %"class.std::_Rb_tree.112", ptr %this1, i32 0, i32 0
  call void @_ZNSt8_Rb_treeIN4cvc58internal12NodeTemplateILb0EEESt4pairIKS3_NS2_ILb1EEEESt10_Select1stIS7_ESt4lessIS3_ESaIS7_EE13_Rb_tree_implISB_Lb1EEC2Ev(ptr noundef nonnull align 8 dereferenceable(48) %_M_impl) #3
  ret void
}

; Function Attrs: mustprogress nounwind uwtable
define linkonce_odr hidden void @_ZNSt8_Rb_treeIN4cvc58internal12NodeTemplateILb0EEESt4pairIKS3_NS2_ILb1EEEESt10_Select1stIS7_ESt4lessIS3_ESaIS7_EE13_Rb_tree_implISB_Lb1EEC2Ev(ptr noundef nonnull align 8 dereferenceable(48) %this) unnamed_addr #4 comdat align 2 {
entry:
  %this.addr = alloca ptr, align 8
  store ptr %this, ptr %this.addr, align 8
  %this1 = load ptr, ptr %this.addr, align 8
  call void @_ZNSaISt13_Rb_tree_nodeISt4pairIKN4cvc58internal12NodeTemplateILb0EEENS3_ILb1EEEEEEC2Ev(ptr noundef nonnull align 1 dereferenceable(1) %this1) #3
  call void @_ZNSt20_Rb_tree_key_compareISt4lessIN4cvc58internal12NodeTemplateILb0EEEEEC2Ev(ptr noundef nonnull align 1 dereferenceable(1) %this1) #3
  %0 = getelementptr inbounds i8, ptr %this1, i64 8
  call void @_ZNSt15_Rb_tree_headerC2Ev(ptr noundef nonnull align 8 dereferenceable(40) %0) #3
  ret void
}

; Function Attrs: mustprogress nounwind uwtable
define linkonce_odr hidden void @_ZNSaISt13_Rb_tree_nodeISt4pairIKN4cvc58internal12NodeTemplateILb0EEENS3_ILb1EEEEEEC2Ev(ptr noundef nonnull align 1 dereferenceable(1) %this) unnamed_addr #4 comdat align 2 {
entry:
  %this.addr = alloca ptr, align 8
  store ptr %this, ptr %this.addr, align 8
  %this1 = load ptr, ptr %this.addr, align 8
  call void @_ZNSt15__new_allocatorISt13_Rb_tree_nodeISt4pairIKN4cvc58internal12NodeTemplateILb0EEENS4_ILb1EEEEEEC2Ev(ptr noundef nonnull align 1 dereferenceable(1) %this1) #3
  ret void
}

; Function Attrs: mustprogress nounwind uwtable
define linkonce_odr hidden void @_ZNSt20_Rb_tree_key_compareISt4lessIN4cvc58internal12NodeTemplateILb0EEEEEC2Ev(ptr noundef nonnull align 1 dereferenceable(1) %this) unnamed_addr #4 comdat align 2 {
entry:
  %this.addr = alloca ptr, align 8
  store ptr %this, ptr %this.addr, align 8
  ret void
}

; Function Attrs: mustprogress nounwind uwtable
define linkonce_odr hidden void @_ZNSt15__new_allocatorISt13_Rb_tree_nodeISt4pairIKN4cvc58internal12NodeTemplateILb0EEENS4_ILb1EEEEEEC2Ev(ptr noundef nonnull align 1 dereferenceable(1) %this) unnamed_addr #4 comdat align 2 {
entry:
  %this.addr = alloca ptr, align 8
  store ptr %this, ptr %this.addr, align 8
  ret void
}

; Function Attrs: mustprogress nounwind uwtable
define linkonce_odr hidden void @_ZNSt8_Rb_treeIN4cvc58internal12NodeTemplateILb0EEESt4pairIKS3_NS2_ILb1EEEESt10_Select1stIS7_ESt4lessIS3_ESaIS7_EED2Ev(ptr noundef nonnull align 8 dereferenceable(48) %this) unnamed_addr #4 comdat align 2 personality ptr @__gxx_personality_v0 {
entry:
  %this.addr = alloca ptr, align 8
  store ptr %this, ptr %this.addr, align 8
  %this1 = load ptr, ptr %this.addr, align 8
  %call = call noundef ptr @_ZNSt8_Rb_treeIN4cvc58internal12NodeTemplateILb0EEESt4pairIKS3_NS2_ILb1EEEESt10_Select1stIS7_ESt4lessIS3_ESaIS7_EE8_M_beginEv(ptr noundef nonnull align 8 dereferenceable(48) %this1) #3
  invoke void @_ZNSt8_Rb_treeIN4cvc58internal12NodeTemplateILb0EEESt4pairIKS3_NS2_ILb1EEEESt10_Select1stIS7_ESt4lessIS3_ESaIS7_EE8_M_eraseEPSt13_Rb_tree_nodeIS7_E(ptr noundef nonnull align 8 dereferenceable(48) %this1, ptr noundef %call)
          to label %invoke.cont unwind label %terminate.lpad

invoke.cont:                                      ; preds = %entry
  %_M_impl = getelementptr inbounds %"class.std::_Rb_tree.112", ptr %this1, i32 0, i32 0
  call void @_ZNSt8_Rb_treeIN4cvc58internal12NodeTemplateILb0EEESt4pairIKS3_NS2_ILb1EEEESt10_Select1stIS7_ESt4lessIS3_ESaIS7_EE13_Rb_tree_implISB_Lb1EED2Ev(ptr noundef nonnull align 8 dereferenceable(48) %_M_impl) #3
  ret void

terminate.lpad:                                   ; preds = %entry
  %0 = landingpad { ptr, i32 }
          catch ptr null
  %1 = extractvalue { ptr, i32 } %0, 0
  call void @__clang_call_terminate(ptr %1) #15
  unreachable
}

; Function Attrs: mustprogress uwtable
define linkonce_odr hidden void @_ZNSt8_Rb_treeIN4cvc58internal12NodeTemplateILb0EEESt4pairIKS3_NS2_ILb1EEEESt10_Select1stIS7_ESt4lessIS3_ESaIS7_EE8_M_eraseEPSt13_Rb_tree_nodeIS7_E(ptr noundef nonnull align 8 dereferenceable(48) %this, ptr noundef %__x) #5 comdat align 2 {
entry:
  %this.addr = alloca ptr, align 8
  %__x.addr = alloca ptr, align 8
  %__y = alloca ptr, align 8
  store ptr %this, ptr %this.addr, align 8
  store ptr %__x, ptr %__x.addr, align 8
  %this1 = load ptr, ptr %this.addr, align 8
  br label %while.cond

while.cond:                                       ; preds = %while.body, %entry
  %0 = load ptr, ptr %__x.addr, align 8
  %cmp = icmp ne ptr %0, null
  br i1 %cmp, label %while.body, label %while.end

while.body:                                       ; preds = %while.cond
  %1 = load ptr, ptr %__x.addr, align 8
  %call = call noundef ptr @_ZNSt8_Rb_treeIN4cvc58internal12NodeTemplateILb0EEESt4pairIKS3_NS2_ILb1EEEESt10_Select1stIS7_ESt4lessIS3_ESaIS7_EE8_S_rightEPSt18_Rb_tree_node_base(ptr noundef %1) #3
  call void @_ZNSt8_Rb_treeIN4cvc58internal12NodeTemplateILb0EEESt4pairIKS3_NS2_ILb1EEEESt10_Select1stIS7_ESt4lessIS3_ESaIS7_EE8_M_eraseEPSt13_Rb_tree_nodeIS7_E(ptr noundef nonnull align 8 dereferenceable(48) %this1, ptr noundef %call)
  %2 = load ptr, ptr %__x.addr, align 8
  %call2 = call noundef ptr @_ZNSt8_Rb_treeIN4cvc58internal12NodeTemplateILb0EEESt4pairIKS3_NS2_ILb1EEEESt10_Select1stIS7_ESt4lessIS3_ESaIS7_EE7_S_leftEPSt18_Rb_tree_node_base(ptr noundef %2) #3
  store ptr %call2, ptr %__y, align 8
  %3 = load ptr, ptr %__x.addr, align 8
  call void @_ZNSt8_Rb_treeIN4cvc58internal12NodeTemplateILb0EEESt4pairIKS3_NS2_ILb1EEEESt10_Select1stIS7_ESt4lessIS3_ESaIS7_EE12_M_drop_nodeEPSt13_Rb_tree_nodeIS7_E(ptr noundef nonnull align 8 dereferenceable(48) %this1, ptr noundef %3) #3
  %4 = load ptr, ptr %__y, align 8
  store ptr %4, ptr %__x.addr, align 8
  br label %while.cond, !llvm.loop !21

while.end:                                        ; preds = %while.cond
  ret void
}

; Function Attrs: mustprogress nounwind uwtable
define linkonce_odr hidden noundef ptr @_ZNSt8_Rb_treeIN4cvc58internal12NodeTemplateILb0EEESt4pairIKS3_NS2_ILb1EEEESt10_Select1stIS7_ESt4lessIS3_ESaIS7_EE8_M_beginEv(ptr noundef nonnull align 8 dereferenceable(48) %this) #4 comdat align 2 {
entry:
  %this.addr = alloca ptr, align 8
  store ptr %this, ptr %this.addr, align 8
  %this1 = load ptr, ptr %this.addr, align 8
  %call = call noundef ptr @_ZNKSt8_Rb_treeIN4cvc58internal12NodeTemplateILb0EEESt4pairIKS3_NS2_ILb1EEEESt10_Select1stIS7_ESt4lessIS3_ESaIS7_EE9_M_mbeginEv(ptr noundef nonnull align 8 dereferenceable(48) %this1) #3
  ret ptr %call
}

; Function Attrs: mustprogress nounwind uwtable
define linkonce_odr hidden void @_ZNSt8_Rb_treeIN4cvc58internal12NodeTemplateILb0EEESt4pairIKS3_NS2_ILb1EEEESt10_Select1stIS7_ESt4lessIS3_ESaIS7_EE13_Rb_tree_implISB_Lb1EED2Ev(ptr noundef nonnull align 8 dereferenceable(48) %this) unnamed_addr #4 comdat align 2 {
entry:
  %this.addr = alloca ptr, align 8
  store ptr %this, ptr %this.addr, align 8
  %this1 = load ptr, ptr %this.addr, align 8
  call void @_ZNSaISt13_Rb_tree_nodeISt4pairIKN4cvc58internal12NodeTemplateILb0EEENS3_ILb1EEEEEED2Ev(ptr noundef nonnull align 1 dereferenceable(1) %this1) #3
  ret void
}

; Function Attrs: mustprogress nounwind uwtable
define linkonce_odr hidden noundef ptr @_ZNSt8_Rb_treeIN4cvc58internal12NodeTemplateILb0EEESt4pairIKS3_NS2_ILb1EEEESt10_Select1stIS7_ESt4lessIS3_ESaIS7_EE8_S_rightEPSt18_Rb_tree_node_base(ptr noundef %__x) #4 comdat align 2 {
entry:
  %__x.addr = alloca ptr, align 8
  store ptr %__x, ptr %__x.addr, align 8
  %0 = load ptr, ptr %__x.addr, align 8
  %_M_right = getelementptr inbounds %"struct.std::_Rb_tree_node_base", ptr %0, i32 0, i32 3
  %1 = load ptr, ptr %_M_right, align 8
  ret ptr %1
}

; Function Attrs: mustprogress nounwind uwtable
define linkonce_odr hidden noundef ptr @_ZNSt8_Rb_treeIN4cvc58internal12NodeTemplateILb0EEESt4pairIKS3_NS2_ILb1EEEESt10_Select1stIS7_ESt4lessIS3_ESaIS7_EE7_S_leftEPSt18_Rb_tree_node_base(ptr noundef %__x) #4 comdat align 2 {
entry:
  %__x.addr = alloca ptr, align 8
  store ptr %__x, ptr %__x.addr, align 8
  %0 = load ptr, ptr %__x.addr, align 8
  %_M_left = getelementptr inbounds %"struct.std::_Rb_tree_node_base", ptr %0, i32 0, i32 2
  %1 = load ptr, ptr %_M_left, align 8
  ret ptr %1
}

; Function Attrs: mustprogress nounwind uwtable
define linkonce_odr hidden void @_ZNSt8_Rb_treeIN4cvc58internal12NodeTemplateILb0EEESt4pairIKS3_NS2_ILb1EEEESt10_Select1stIS7_ESt4lessIS3_ESaIS7_EE12_M_drop_nodeEPSt13_Rb_tree_nodeIS7_E(ptr noundef nonnull align 8 dereferenceable(48) %this, ptr noundef %__p) #4 comdat align 2 {
entry:
  %this.addr = alloca ptr, align 8
  %__p.addr = alloca ptr, align 8
  store ptr %this, ptr %this.addr, align 8
  store ptr %__p, ptr %__p.addr, align 8
  %this1 = load ptr, ptr %this.addr, align 8
  %0 = load ptr, ptr %__p.addr, align 8
  call void @_ZNSt8_Rb_treeIN4cvc58internal12NodeTemplateILb0EEESt4pairIKS3_NS2_ILb1EEEESt10_Select1stIS7_ESt4lessIS3_ESaIS7_EE15_M_destroy_nodeEPSt13_Rb_tree_nodeIS7_E(ptr noundef nonnull align 8 dereferenceable(48) %this1, ptr noundef %0) #3
  %1 = load ptr, ptr %__p.addr, align 8
  call void @_ZNSt8_Rb_treeIN4cvc58internal12NodeTemplateILb0EEESt4pairIKS3_NS2_ILb1EEEESt10_Select1stIS7_ESt4lessIS3_ESaIS7_EE11_M_put_nodeEPSt13_Rb_tree_nodeIS7_E(ptr noundef nonnull align 8 dereferenceable(48) %this1, ptr noundef %1) #3
  ret void
}

; Function Attrs: mustprogress nounwind uwtable
define linkonce_odr hidden void @_ZNSt8_Rb_treeIN4cvc58internal12NodeTemplateILb0EEESt4pairIKS3_NS2_ILb1EEEESt10_Select1stIS7_ESt4lessIS3_ESaIS7_EE15_M_destroy_nodeEPSt13_Rb_tree_nodeIS7_E(ptr noundef nonnull align 8 dereferenceable(48) %this, ptr noundef %__p) #4 comdat align 2 personality ptr @__gxx_personality_v0 {
entry:
  %this.addr = alloca ptr, align 8
  %__p.addr = alloca ptr, align 8
  store ptr %this, ptr %this.addr, align 8
  store ptr %__p, ptr %__p.addr, align 8
  %this1 = load ptr, ptr %this.addr, align 8
  %call = call noundef nonnull align 1 dereferenceable(1) ptr @_ZNSt8_Rb_treeIN4cvc58internal12NodeTemplateILb0EEESt4pairIKS3_NS2_ILb1EEEESt10_Select1stIS7_ESt4lessIS3_ESaIS7_EE21_M_get_Node_allocatorEv(ptr noundef nonnull align 8 dereferenceable(48) %this1) #3
  %0 = load ptr, ptr %__p.addr, align 8
  %call2 = invoke noundef ptr @_ZNSt13_Rb_tree_nodeISt4pairIKN4cvc58internal12NodeTemplateILb0EEENS3_ILb1EEEEE9_M_valptrEv(ptr noundef nonnull align 8 dereferenceable(48) %0)
          to label %invoke.cont unwind label %terminate.lpad

invoke.cont:                                      ; preds = %entry
  call void @_ZNSt16allocator_traitsISaISt13_Rb_tree_nodeISt4pairIKN4cvc58internal12NodeTemplateILb0EEENS4_ILb1EEEEEEE7destroyIS8_EEvRSA_PT_(ptr noundef nonnull align 1 dereferenceable(1) %call, ptr noundef %call2) #3
  ret void

terminate.lpad:                                   ; preds = %entry
  %1 = landingpad { ptr, i32 }
          catch ptr null
  %2 = extractvalue { ptr, i32 } %1, 0
  call void @__clang_call_terminate(ptr %2) #15
  unreachable
}

; Function Attrs: mustprogress nounwind uwtable
define linkonce_odr hidden void @_ZNSt8_Rb_treeIN4cvc58internal12NodeTemplateILb0EEESt4pairIKS3_NS2_ILb1EEEESt10_Select1stIS7_ESt4lessIS3_ESaIS7_EE11_M_put_nodeEPSt13_Rb_tree_nodeIS7_E(ptr noundef nonnull align 8 dereferenceable(48) %this, ptr noundef %__p) #4 comdat align 2 personality ptr @__gxx_personality_v0 {
entry:
  %this.addr = alloca ptr, align 8
  %__p.addr = alloca ptr, align 8
  store ptr %this, ptr %this.addr, align 8
  store ptr %__p, ptr %__p.addr, align 8
  %this1 = load ptr, ptr %this.addr, align 8
  %call = call noundef nonnull align 1 dereferenceable(1) ptr @_ZNSt8_Rb_treeIN4cvc58internal12NodeTemplateILb0EEESt4pairIKS3_NS2_ILb1EEEESt10_Select1stIS7_ESt4lessIS3_ESaIS7_EE21_M_get_Node_allocatorEv(ptr noundef nonnull align 8 dereferenceable(48) %this1) #3
  %0 = load ptr, ptr %__p.addr, align 8
  invoke void @_ZNSt16allocator_traitsISaISt13_Rb_tree_nodeISt4pairIKN4cvc58internal12NodeTemplateILb0EEENS4_ILb1EEEEEEE10deallocateERSA_PS9_m(ptr noundef nonnull align 1 dereferenceable(1) %call, ptr noundef %0, i64 noundef 1)
          to label %invoke.cont unwind label %terminate.lpad

invoke.cont:                                      ; preds = %entry
  ret void

terminate.lpad:                                   ; preds = %entry
  %1 = landingpad { ptr, i32 }
          catch ptr null
  %2 = extractvalue { ptr, i32 } %1, 0
  call void @__clang_call_terminate(ptr %2) #15
  unreachable
}

; Function Attrs: mustprogress nounwind uwtable
define linkonce_odr hidden void @_ZNSt16allocator_traitsISaISt13_Rb_tree_nodeISt4pairIKN4cvc58internal12NodeTemplateILb0EEENS4_ILb1EEEEEEE7destroyIS8_EEvRSA_PT_(ptr noundef nonnull align 1 dereferenceable(1) %__a, ptr noundef %__p) #4 comdat align 2 {
entry:
  %__a.addr = alloca ptr, align 8
  %__p.addr = alloca ptr, align 8
  store ptr %__a, ptr %__a.addr, align 8
  store ptr %__p, ptr %__p.addr, align 8
  %0 = load ptr, ptr %__a.addr, align 8
  %1 = load ptr, ptr %__p.addr, align 8
  call void @_ZNSt15__new_allocatorISt13_Rb_tree_nodeISt4pairIKN4cvc58internal12NodeTemplateILb0EEENS4_ILb1EEEEEE7destroyIS8_EEvPT_(ptr noundef nonnull align 1 dereferenceable(1) %0, ptr noundef %1) #3
  ret void
}

; Function Attrs: mustprogress nounwind uwtable
define linkonce_odr hidden noundef nonnull align 1 dereferenceable(1) ptr @_ZNSt8_Rb_treeIN4cvc58internal12NodeTemplateILb0EEESt4pairIKS3_NS2_ILb1EEEESt10_Select1stIS7_ESt4lessIS3_ESaIS7_EE21_M_get_Node_allocatorEv(ptr noundef nonnull align 8 dereferenceable(48) %this) #4 comdat align 2 {
entry:
  %this.addr = alloca ptr, align 8
  store ptr %this, ptr %this.addr, align 8
  %this1 = load ptr, ptr %this.addr, align 8
  %_M_impl = getelementptr inbounds %"class.std::_Rb_tree.112", ptr %this1, i32 0, i32 0
  ret ptr %_M_impl
}

; Function Attrs: mustprogress nounwind uwtable
define linkonce_odr hidden noundef ptr @_ZNSt13_Rb_tree_nodeISt4pairIKN4cvc58internal12NodeTemplateILb0EEENS3_ILb1EEEEE9_M_valptrEv(ptr noundef nonnull align 8 dereferenceable(48) %this) #4 comdat align 2 {
entry:
  %this.addr = alloca ptr, align 8
  store ptr %this, ptr %this.addr, align 8
  %this1 = load ptr, ptr %this.addr, align 8
  %_M_storage = getelementptr inbounds %"struct.std::_Rb_tree_node", ptr %this1, i32 0, i32 1
  %call = call noundef ptr @_ZN9__gnu_cxx16__aligned_membufISt4pairIKN4cvc58internal12NodeTemplateILb0EEENS4_ILb1EEEEE6_M_ptrEv(ptr noundef nonnull align 8 dereferenceable(16) %_M_storage) #3
  ret ptr %call
}

; Function Attrs: mustprogress nounwind uwtable
define linkonce_odr hidden void @_ZNSt15__new_allocatorISt13_Rb_tree_nodeISt4pairIKN4cvc58internal12NodeTemplateILb0EEENS4_ILb1EEEEEE7destroyIS8_EEvPT_(ptr noundef nonnull align 1 dereferenceable(1) %this, ptr noundef %__p) #4 comdat align 2 {
entry:
  %this.addr = alloca ptr, align 8
  %__p.addr = alloca ptr, align 8
  store ptr %this, ptr %this.addr, align 8
  store ptr %__p, ptr %__p.addr, align 8
  %0 = load ptr, ptr %__p.addr, align 8
  call void @_ZNSt4pairIKN4cvc58internal12NodeTemplateILb0EEENS2_ILb1EEEED2Ev(ptr noundef nonnull align 8 dereferenceable(16) %0) #3
  ret void
}

; Function Attrs: mustprogress nounwind uwtable
define linkonce_odr hidden void @_ZNSt4pairIKN4cvc58internal12NodeTemplateILb0EEENS2_ILb1EEEED2Ev(ptr noundef nonnull align 8 dereferenceable(16) %this) unnamed_addr #4 comdat align 2 {
entry:
  %this.addr = alloca ptr, align 8
  store ptr %this, ptr %this.addr, align 8
  %this1 = load ptr, ptr %this.addr, align 8
  %second = getelementptr inbounds %"struct.std::pair.119", ptr %this1, i32 0, i32 1
  call void @_ZN4cvc58internal12NodeTemplateILb1EED2Ev(ptr noundef nonnull align 8 dereferenceable(8) %second) #3
  %first = getelementptr inbounds %"struct.std::pair.119", ptr %this1, i32 0, i32 0
  call void @_ZN4cvc58internal12NodeTemplateILb0EED2Ev(ptr noundef nonnull align 8 dereferenceable(8) %first) #3
  ret void
}

; Function Attrs: mustprogress nounwind uwtable
define linkonce_odr hidden noundef ptr @_ZN9__gnu_cxx16__aligned_membufISt4pairIKN4cvc58internal12NodeTemplateILb0EEENS4_ILb1EEEEE6_M_ptrEv(ptr noundef nonnull align 8 dereferenceable(16) %this) #4 comdat align 2 {
entry:
  %this.addr = alloca ptr, align 8
  store ptr %this, ptr %this.addr, align 8
  %this1 = load ptr, ptr %this.addr, align 8
  %call = call noundef ptr @_ZN9__gnu_cxx16__aligned_membufISt4pairIKN4cvc58internal12NodeTemplateILb0EEENS4_ILb1EEEEE7_M_addrEv(ptr noundef nonnull align 8 dereferenceable(16) %this1) #3
  ret ptr %call
}

; Function Attrs: mustprogress nounwind uwtable
define linkonce_odr hidden noundef ptr @_ZN9__gnu_cxx16__aligned_membufISt4pairIKN4cvc58internal12NodeTemplateILb0EEENS4_ILb1EEEEE7_M_addrEv(ptr noundef nonnull align 8 dereferenceable(16) %this) #4 comdat align 2 {
entry:
  %this.addr = alloca ptr, align 8
  store ptr %this, ptr %this.addr, align 8
  %this1 = load ptr, ptr %this.addr, align 8
  %_M_storage = getelementptr inbounds %"struct.__gnu_cxx::__aligned_membuf", ptr %this1, i32 0, i32 0
  ret ptr %_M_storage
}

; Function Attrs: mustprogress uwtable
define linkonce_odr hidden void @_ZNSt16allocator_traitsISaISt13_Rb_tree_nodeISt4pairIKN4cvc58internal12NodeTemplateILb0EEENS4_ILb1EEEEEEE10deallocateERSA_PS9_m(ptr noundef nonnull align 1 dereferenceable(1) %__a, ptr noundef %__p, i64 noundef %__n) #5 comdat align 2 {
entry:
  %__a.addr = alloca ptr, align 8
  %__p.addr = alloca ptr, align 8
  %__n.addr = alloca i64, align 8
  store ptr %__a, ptr %__a.addr, align 8
  store ptr %__p, ptr %__p.addr, align 8
  store i64 %__n, ptr %__n.addr, align 8
  %0 = load ptr, ptr %__a.addr, align 8
  %1 = load ptr, ptr %__p.addr, align 8
  %2 = load i64, ptr %__n.addr, align 8
  call void @_ZNSt15__new_allocatorISt13_Rb_tree_nodeISt4pairIKN4cvc58internal12NodeTemplateILb0EEENS4_ILb1EEEEEE10deallocateEPS9_m(ptr noundef nonnull align 1 dereferenceable(1) %0, ptr noundef %1, i64 noundef %2)
  ret void
}

; Function Attrs: mustprogress nounwind uwtable
define linkonce_odr hidden void @_ZNSt15__new_allocatorISt13_Rb_tree_nodeISt4pairIKN4cvc58internal12NodeTemplateILb0EEENS4_ILb1EEEEEE10deallocateEPS9_m(ptr noundef nonnull align 1 dereferenceable(1) %this, ptr noundef %__p, i64 noundef %__n) #4 comdat align 2 {
entry:
  %this.addr = alloca ptr, align 8
  %__p.addr = alloca ptr, align 8
  %__n.addr = alloca i64, align 8
  store ptr %this, ptr %this.addr, align 8
  store ptr %__p, ptr %__p.addr, align 8
  store i64 %__n, ptr %__n.addr, align 8
  %0 = load ptr, ptr %__p.addr, align 8
  call void @_ZdlPv(ptr noundef %0) #17
  ret void
}

; Function Attrs: nobuiltin nounwind
declare void @_ZdlPv(ptr noundef) #8

; Function Attrs: mustprogress nounwind uwtable
define linkonce_odr hidden noundef ptr @_ZNKSt8_Rb_treeIN4cvc58internal12NodeTemplateILb0EEESt4pairIKS3_NS2_ILb1EEEESt10_Select1stIS7_ESt4lessIS3_ESaIS7_EE9_M_mbeginEv(ptr noundef nonnull align 8 dereferenceable(48) %this) #4 comdat align 2 {
entry:
  %this.addr = alloca ptr, align 8
  store ptr %this, ptr %this.addr, align 8
  %this1 = load ptr, ptr %this.addr, align 8
  %_M_impl = getelementptr inbounds %"class.std::_Rb_tree.112", ptr %this1, i32 0, i32 0
  %add.ptr = getelementptr inbounds i8, ptr %_M_impl, i64 8
  %_M_header = getelementptr inbounds %"struct.std::_Rb_tree_header", ptr %add.ptr, i32 0, i32 0
  %_M_parent = getelementptr inbounds %"struct.std::_Rb_tree_node_base", ptr %_M_header, i32 0, i32 1
  %0 = load ptr, ptr %_M_parent, align 8
  ret ptr %0
}

; Function Attrs: mustprogress nounwind uwtable
define linkonce_odr hidden void @_ZNSaISt13_Rb_tree_nodeISt4pairIKN4cvc58internal12NodeTemplateILb0EEENS3_ILb1EEEEEED2Ev(ptr noundef nonnull align 1 dereferenceable(1) %this) unnamed_addr #4 comdat align 2 {
entry:
  %this.addr = alloca ptr, align 8
  store ptr %this, ptr %this.addr, align 8
  %this1 = load ptr, ptr %this.addr, align 8
  call void @_ZNSt15__new_allocatorISt13_Rb_tree_nodeISt4pairIKN4cvc58internal12NodeTemplateILb0EEENS4_ILb1EEEEEED2Ev(ptr noundef nonnull align 1 dereferenceable(1) %this1) #3
  ret void
}

; Function Attrs: mustprogress nounwind uwtable
define linkonce_odr hidden void @_ZNSt15__new_allocatorISt13_Rb_tree_nodeISt4pairIKN4cvc58internal12NodeTemplateILb0EEENS4_ILb1EEEEEED2Ev(ptr noundef nonnull align 1 dereferenceable(1) %this) unnamed_addr #4 comdat align 2 {
entry:
  %this.addr = alloca ptr, align 8
  store ptr %this, ptr %this.addr, align 8
  ret void
}

; Function Attrs: mustprogress nounwind uwtable
define linkonce_odr hidden void @_ZNSt8_Rb_treeISt4pairIN4cvc58internal8TypeNodeEjES0_IKS4_jESt10_Select1stIS6_ESt4lessIS4_ESaIS6_EED2Ev(ptr noundef nonnull align 8 dereferenceable(48) %this) unnamed_addr #4 comdat align 2 personality ptr @__gxx_personality_v0 {
entry:
  %this.addr = alloca ptr, align 8
  store ptr %this, ptr %this.addr, align 8
  %this1 = load ptr, ptr %this.addr, align 8
  %call = call noundef ptr @_ZNSt8_Rb_treeISt4pairIN4cvc58internal8TypeNodeEjES0_IKS4_jESt10_Select1stIS6_ESt4lessIS4_ESaIS6_EE8_M_beginEv(ptr noundef nonnull align 8 dereferenceable(48) %this1) #3
  invoke void @_ZNSt8_Rb_treeISt4pairIN4cvc58internal8TypeNodeEjES0_IKS4_jESt10_Select1stIS6_ESt4lessIS4_ESaIS6_EE8_M_eraseEPSt13_Rb_tree_nodeIS6_E(ptr noundef nonnull align 8 dereferenceable(48) %this1, ptr noundef %call)
          to label %invoke.cont unwind label %terminate.lpad

invoke.cont:                                      ; preds = %entry
  %_M_impl = getelementptr inbounds %"class.std::_Rb_tree.122", ptr %this1, i32 0, i32 0
  call void @_ZNSt8_Rb_treeISt4pairIN4cvc58internal8TypeNodeEjES0_IKS4_jESt10_Select1stIS6_ESt4lessIS4_ESaIS6_EE13_Rb_tree_implISA_Lb1EED2Ev(ptr noundef nonnull align 8 dereferenceable(48) %_M_impl) #3
  ret void

terminate.lpad:                                   ; preds = %entry
  %0 = landingpad { ptr, i32 }
          catch ptr null
  %1 = extractvalue { ptr, i32 } %0, 0
  call void @__clang_call_terminate(ptr %1) #15
  unreachable
}

; Function Attrs: mustprogress uwtable
define linkonce_odr void @_ZNSt8_Rb_treeISt4pairIN4cvc58internal8TypeNodeEjES0_IKS4_jESt10_Select1stIS6_ESt4lessIS4_ESaIS6_EE8_M_eraseEPSt13_Rb_tree_nodeIS6_E(ptr noundef nonnull align 8 dereferenceable(48) %this, ptr noundef %__x) #5 comdat align 2 {
entry:
  %this.addr = alloca ptr, align 8
  %__x.addr = alloca ptr, align 8
  %__y = alloca ptr, align 8
  store ptr %this, ptr %this.addr, align 8
  store ptr %__x, ptr %__x.addr, align 8
  %this1 = load ptr, ptr %this.addr, align 8
  br label %while.cond

while.cond:                                       ; preds = %while.body, %entry
  %0 = load ptr, ptr %__x.addr, align 8
  %cmp = icmp ne ptr %0, null
  br i1 %cmp, label %while.body, label %while.end

while.body:                                       ; preds = %while.cond
  %1 = load ptr, ptr %__x.addr, align 8
  %call = call noundef ptr @_ZNSt8_Rb_treeISt4pairIN4cvc58internal8TypeNodeEjES0_IKS4_jESt10_Select1stIS6_ESt4lessIS4_ESaIS6_EE8_S_rightEPSt18_Rb_tree_node_base(ptr noundef %1) #3
  call void @_ZNSt8_Rb_treeISt4pairIN4cvc58internal8TypeNodeEjES0_IKS4_jESt10_Select1stIS6_ESt4lessIS4_ESaIS6_EE8_M_eraseEPSt13_Rb_tree_nodeIS6_E(ptr noundef nonnull align 8 dereferenceable(48) %this1, ptr noundef %call)
  %2 = load ptr, ptr %__x.addr, align 8
  %call2 = call noundef ptr @_ZNSt8_Rb_treeISt4pairIN4cvc58internal8TypeNodeEjES0_IKS4_jESt10_Select1stIS6_ESt4lessIS4_ESaIS6_EE7_S_leftEPSt18_Rb_tree_node_base(ptr noundef %2) #3
  store ptr %call2, ptr %__y, align 8
  %3 = load ptr, ptr %__x.addr, align 8
  call void @_ZNSt8_Rb_treeISt4pairIN4cvc58internal8TypeNodeEjES0_IKS4_jESt10_Select1stIS6_ESt4lessIS4_ESaIS6_EE12_M_drop_nodeEPSt13_Rb_tree_nodeIS6_E(ptr noundef nonnull align 8 dereferenceable(48) %this1, ptr noundef %3) #3
  %4 = load ptr, ptr %__y, align 8
  store ptr %4, ptr %__x.addr, align 8
  br label %while.cond, !llvm.loop !22

while.end:                                        ; preds = %while.cond
  ret void
}

; Function Attrs: mustprogress nounwind uwtable
define linkonce_odr hidden noundef ptr @_ZNSt8_Rb_treeISt4pairIN4cvc58internal8TypeNodeEjES0_IKS4_jESt10_Select1stIS6_ESt4lessIS4_ESaIS6_EE8_M_beginEv(ptr noundef nonnull align 8 dereferenceable(48) %this) #4 comdat align 2 {
entry:
  %this.addr = alloca ptr, align 8
  store ptr %this, ptr %this.addr, align 8
  %this1 = load ptr, ptr %this.addr, align 8
  %call = call noundef ptr @_ZNKSt8_Rb_treeISt4pairIN4cvc58internal8TypeNodeEjES0_IKS4_jESt10_Select1stIS6_ESt4lessIS4_ESaIS6_EE9_M_mbeginEv(ptr noundef nonnull align 8 dereferenceable(48) %this1) #3
  ret ptr %call
}

; Function Attrs: mustprogress nounwind uwtable
define linkonce_odr hidden void @_ZNSt8_Rb_treeISt4pairIN4cvc58internal8TypeNodeEjES0_IKS4_jESt10_Select1stIS6_ESt4lessIS4_ESaIS6_EE13_Rb_tree_implISA_Lb1EED2Ev(ptr noundef nonnull align 8 dereferenceable(48) %this) unnamed_addr #4 comdat align 2 {
entry:
  %this.addr = alloca ptr, align 8
  store ptr %this, ptr %this.addr, align 8
  %this1 = load ptr, ptr %this.addr, align 8
  call void @_ZNSaISt13_Rb_tree_nodeISt4pairIKS0_IN4cvc58internal8TypeNodeEjEjEEED2Ev(ptr noundef nonnull align 1 dereferenceable(1) %this1) #3
  ret void
}

; Function Attrs: mustprogress nounwind uwtable
define linkonce_odr hidden noundef ptr @_ZNSt8_Rb_treeISt4pairIN4cvc58internal8TypeNodeEjES0_IKS4_jESt10_Select1stIS6_ESt4lessIS4_ESaIS6_EE8_S_rightEPSt18_Rb_tree_node_base(ptr noundef %__x) #4 comdat align 2 {
entry:
  %__x.addr = alloca ptr, align 8
  store ptr %__x, ptr %__x.addr, align 8
  %0 = load ptr, ptr %__x.addr, align 8
  %_M_right = getelementptr inbounds %"struct.std::_Rb_tree_node_base", ptr %0, i32 0, i32 3
  %1 = load ptr, ptr %_M_right, align 8
  ret ptr %1
}

; Function Attrs: mustprogress nounwind uwtable
define linkonce_odr hidden noundef ptr @_ZNSt8_Rb_treeISt4pairIN4cvc58internal8TypeNodeEjES0_IKS4_jESt10_Select1stIS6_ESt4lessIS4_ESaIS6_EE7_S_leftEPSt18_Rb_tree_node_base(ptr noundef %__x) #4 comdat align 2 {
entry:
  %__x.addr = alloca ptr, align 8
  store ptr %__x, ptr %__x.addr, align 8
  %0 = load ptr, ptr %__x.addr, align 8
  %_M_left = getelementptr inbounds %"struct.std::_Rb_tree_node_base", ptr %0, i32 0, i32 2
  %1 = load ptr, ptr %_M_left, align 8
  ret ptr %1
}

; Function Attrs: mustprogress nounwind uwtable
define linkonce_odr hidden void @_ZNSt8_Rb_treeISt4pairIN4cvc58internal8TypeNodeEjES0_IKS4_jESt10_Select1stIS6_ESt4lessIS4_ESaIS6_EE12_M_drop_nodeEPSt13_Rb_tree_nodeIS6_E(ptr noundef nonnull align 8 dereferenceable(48) %this, ptr noundef %__p) #4 comdat align 2 {
entry:
  %this.addr = alloca ptr, align 8
  %__p.addr = alloca ptr, align 8
  store ptr %this, ptr %this.addr, align 8
  store ptr %__p, ptr %__p.addr, align 8
  %this1 = load ptr, ptr %this.addr, align 8
  %0 = load ptr, ptr %__p.addr, align 8
  call void @_ZNSt8_Rb_treeISt4pairIN4cvc58internal8TypeNodeEjES0_IKS4_jESt10_Select1stIS6_ESt4lessIS4_ESaIS6_EE15_M_destroy_nodeEPSt13_Rb_tree_nodeIS6_E(ptr noundef nonnull align 8 dereferenceable(48) %this1, ptr noundef %0) #3
  %1 = load ptr, ptr %__p.addr, align 8
  call void @_ZNSt8_Rb_treeISt4pairIN4cvc58internal8TypeNodeEjES0_IKS4_jESt10_Select1stIS6_ESt4lessIS4_ESaIS6_EE11_M_put_nodeEPSt13_Rb_tree_nodeIS6_E(ptr noundef nonnull align 8 dereferenceable(48) %this1, ptr noundef %1) #3
  ret void
}

; Function Attrs: mustprogress nounwind uwtable
define linkonce_odr hidden void @_ZNSt8_Rb_treeISt4pairIN4cvc58internal8TypeNodeEjES0_IKS4_jESt10_Select1stIS6_ESt4lessIS4_ESaIS6_EE15_M_destroy_nodeEPSt13_Rb_tree_nodeIS6_E(ptr noundef nonnull align 8 dereferenceable(48) %this, ptr noundef %__p) #4 comdat align 2 personality ptr @__gxx_personality_v0 {
entry:
  %this.addr = alloca ptr, align 8
  %__p.addr = alloca ptr, align 8
  store ptr %this, ptr %this.addr, align 8
  store ptr %__p, ptr %__p.addr, align 8
  %this1 = load ptr, ptr %this.addr, align 8
  %call = call noundef nonnull align 1 dereferenceable(1) ptr @_ZNSt8_Rb_treeISt4pairIN4cvc58internal8TypeNodeEjES0_IKS4_jESt10_Select1stIS6_ESt4lessIS4_ESaIS6_EE21_M_get_Node_allocatorEv(ptr noundef nonnull align 8 dereferenceable(48) %this1) #3
  %0 = load ptr, ptr %__p.addr, align 8
  %call2 = invoke noundef ptr @_ZNSt13_Rb_tree_nodeISt4pairIKS0_IN4cvc58internal8TypeNodeEjEjEE9_M_valptrEv(ptr noundef nonnull align 8 dereferenceable(56) %0)
          to label %invoke.cont unwind label %terminate.lpad

invoke.cont:                                      ; preds = %entry
  call void @_ZNSt16allocator_traitsISaISt13_Rb_tree_nodeISt4pairIKS1_IN4cvc58internal8TypeNodeEjEjEEEE7destroyIS7_EEvRS9_PT_(ptr noundef nonnull align 1 dereferenceable(1) %call, ptr noundef %call2) #3
  ret void

terminate.lpad:                                   ; preds = %entry
  %1 = landingpad { ptr, i32 }
          catch ptr null
  %2 = extractvalue { ptr, i32 } %1, 0
  call void @__clang_call_terminate(ptr %2) #15
  unreachable
}

; Function Attrs: mustprogress nounwind uwtable
define linkonce_odr hidden void @_ZNSt8_Rb_treeISt4pairIN4cvc58internal8TypeNodeEjES0_IKS4_jESt10_Select1stIS6_ESt4lessIS4_ESaIS6_EE11_M_put_nodeEPSt13_Rb_tree_nodeIS6_E(ptr noundef nonnull align 8 dereferenceable(48) %this, ptr noundef %__p) #4 comdat align 2 personality ptr @__gxx_personality_v0 {
entry:
  %this.addr = alloca ptr, align 8
  %__p.addr = alloca ptr, align 8
  store ptr %this, ptr %this.addr, align 8
  store ptr %__p, ptr %__p.addr, align 8
  %this1 = load ptr, ptr %this.addr, align 8
  %call = call noundef nonnull align 1 dereferenceable(1) ptr @_ZNSt8_Rb_treeISt4pairIN4cvc58internal8TypeNodeEjES0_IKS4_jESt10_Select1stIS6_ESt4lessIS4_ESaIS6_EE21_M_get_Node_allocatorEv(ptr noundef nonnull align 8 dereferenceable(48) %this1) #3
  %0 = load ptr, ptr %__p.addr, align 8
  invoke void @_ZNSt16allocator_traitsISaISt13_Rb_tree_nodeISt4pairIKS1_IN4cvc58internal8TypeNodeEjEjEEEE10deallocateERS9_PS8_m(ptr noundef nonnull align 1 dereferenceable(1) %call, ptr noundef %0, i64 noundef 1)
          to label %invoke.cont unwind label %terminate.lpad

invoke.cont:                                      ; preds = %entry
  ret void

terminate.lpad:                                   ; preds = %entry
  %1 = landingpad { ptr, i32 }
          catch ptr null
  %2 = extractvalue { ptr, i32 } %1, 0
  call void @__clang_call_terminate(ptr %2) #15
  unreachable
}

; Function Attrs: mustprogress nounwind uwtable
define linkonce_odr hidden void @_ZNSt16allocator_traitsISaISt13_Rb_tree_nodeISt4pairIKS1_IN4cvc58internal8TypeNodeEjEjEEEE7destroyIS7_EEvRS9_PT_(ptr noundef nonnull align 1 dereferenceable(1) %__a, ptr noundef %__p) #4 comdat align 2 {
entry:
  %__a.addr = alloca ptr, align 8
  %__p.addr = alloca ptr, align 8
  store ptr %__a, ptr %__a.addr, align 8
  store ptr %__p, ptr %__p.addr, align 8
  %0 = load ptr, ptr %__a.addr, align 8
  %1 = load ptr, ptr %__p.addr, align 8
  call void @_ZNSt15__new_allocatorISt13_Rb_tree_nodeISt4pairIKS1_IN4cvc58internal8TypeNodeEjEjEEE7destroyIS7_EEvPT_(ptr noundef nonnull align 1 dereferenceable(1) %0, ptr noundef %1) #3
  ret void
}

; Function Attrs: mustprogress nounwind uwtable
define linkonce_odr hidden noundef nonnull align 1 dereferenceable(1) ptr @_ZNSt8_Rb_treeISt4pairIN4cvc58internal8TypeNodeEjES0_IKS4_jESt10_Select1stIS6_ESt4lessIS4_ESaIS6_EE21_M_get_Node_allocatorEv(ptr noundef nonnull align 8 dereferenceable(48) %this) #4 comdat align 2 {
entry:
  %this.addr = alloca ptr, align 8
  store ptr %this, ptr %this.addr, align 8
  %this1 = load ptr, ptr %this.addr, align 8
  %_M_impl = getelementptr inbounds %"class.std::_Rb_tree.122", ptr %this1, i32 0, i32 0
  ret ptr %_M_impl
}

; Function Attrs: mustprogress nounwind uwtable
define linkonce_odr hidden noundef ptr @_ZNSt13_Rb_tree_nodeISt4pairIKS0_IN4cvc58internal8TypeNodeEjEjEE9_M_valptrEv(ptr noundef nonnull align 8 dereferenceable(56) %this) #4 comdat align 2 {
entry:
  %this.addr = alloca ptr, align 8
  store ptr %this, ptr %this.addr, align 8
  %this1 = load ptr, ptr %this.addr, align 8
  %_M_storage = getelementptr inbounds %"struct.std::_Rb_tree_node.128", ptr %this1, i32 0, i32 1
  %call = call noundef ptr @_ZN9__gnu_cxx16__aligned_membufISt4pairIKS1_IN4cvc58internal8TypeNodeEjEjEE6_M_ptrEv(ptr noundef nonnull align 8 dereferenceable(24) %_M_storage) #3
  ret ptr %call
}

; Function Attrs: mustprogress nounwind uwtable
define linkonce_odr hidden void @_ZNSt15__new_allocatorISt13_Rb_tree_nodeISt4pairIKS1_IN4cvc58internal8TypeNodeEjEjEEE7destroyIS7_EEvPT_(ptr noundef nonnull align 1 dereferenceable(1) %this, ptr noundef %__p) #4 comdat align 2 {
entry:
  %this.addr = alloca ptr, align 8
  %__p.addr = alloca ptr, align 8
  store ptr %this, ptr %this.addr, align 8
  store ptr %__p, ptr %__p.addr, align 8
  %0 = load ptr, ptr %__p.addr, align 8
  call void @_ZNSt4pairIKS_IN4cvc58internal8TypeNodeEjEjED2Ev(ptr noundef nonnull align 8 dereferenceable(20) %0) #3
  ret void
}

; Function Attrs: mustprogress nounwind uwtable
define linkonce_odr hidden void @_ZNSt4pairIKS_IN4cvc58internal8TypeNodeEjEjED2Ev(ptr noundef nonnull align 8 dereferenceable(20) %this) unnamed_addr #4 comdat align 2 {
entry:
  %this.addr = alloca ptr, align 8
  store ptr %this, ptr %this.addr, align 8
  %this1 = load ptr, ptr %this.addr, align 8
  %first = getelementptr inbounds %"struct.std::pair.130", ptr %this1, i32 0, i32 0
  call void @_ZNSt4pairIN4cvc58internal8TypeNodeEjED2Ev(ptr noundef nonnull align 8 dereferenceable(12) %first) #3
  ret void
}

; Function Attrs: mustprogress nounwind uwtable
define linkonce_odr hidden noundef ptr @_ZN9__gnu_cxx16__aligned_membufISt4pairIKS1_IN4cvc58internal8TypeNodeEjEjEE6_M_ptrEv(ptr noundef nonnull align 8 dereferenceable(24) %this) #4 comdat align 2 {
entry:
  %this.addr = alloca ptr, align 8
  store ptr %this, ptr %this.addr, align 8
  %this1 = load ptr, ptr %this.addr, align 8
  %call = call noundef ptr @_ZN9__gnu_cxx16__aligned_membufISt4pairIKS1_IN4cvc58internal8TypeNodeEjEjEE7_M_addrEv(ptr noundef nonnull align 8 dereferenceable(24) %this1) #3
  ret ptr %call
}

; Function Attrs: mustprogress nounwind uwtable
define linkonce_odr hidden noundef ptr @_ZN9__gnu_cxx16__aligned_membufISt4pairIKS1_IN4cvc58internal8TypeNodeEjEjEE7_M_addrEv(ptr noundef nonnull align 8 dereferenceable(24) %this) #4 comdat align 2 {
entry:
  %this.addr = alloca ptr, align 8
  store ptr %this, ptr %this.addr, align 8
  %this1 = load ptr, ptr %this.addr, align 8
  %_M_storage = getelementptr inbounds %"struct.__gnu_cxx::__aligned_membuf.129", ptr %this1, i32 0, i32 0
  ret ptr %_M_storage
}

; Function Attrs: mustprogress uwtable
define linkonce_odr hidden void @_ZNSt16allocator_traitsISaISt13_Rb_tree_nodeISt4pairIKS1_IN4cvc58internal8TypeNodeEjEjEEEE10deallocateERS9_PS8_m(ptr noundef nonnull align 1 dereferenceable(1) %__a, ptr noundef %__p, i64 noundef %__n) #5 comdat align 2 {
entry:
  %__a.addr = alloca ptr, align 8
  %__p.addr = alloca ptr, align 8
  %__n.addr = alloca i64, align 8
  store ptr %__a, ptr %__a.addr, align 8
  store ptr %__p, ptr %__p.addr, align 8
  store i64 %__n, ptr %__n.addr, align 8
  %0 = load ptr, ptr %__a.addr, align 8
  %1 = load ptr, ptr %__p.addr, align 8
  %2 = load i64, ptr %__n.addr, align 8
  call void @_ZNSt15__new_allocatorISt13_Rb_tree_nodeISt4pairIKS1_IN4cvc58internal8TypeNodeEjEjEEE10deallocateEPS8_m(ptr noundef nonnull align 1 dereferenceable(1) %0, ptr noundef %1, i64 noundef %2)
  ret void
}

; Function Attrs: mustprogress nounwind uwtable
define linkonce_odr hidden void @_ZNSt15__new_allocatorISt13_Rb_tree_nodeISt4pairIKS1_IN4cvc58internal8TypeNodeEjEjEEE10deallocateEPS8_m(ptr noundef nonnull align 1 dereferenceable(1) %this, ptr noundef %__p, i64 noundef %__n) #4 comdat align 2 {
entry:
  %this.addr = alloca ptr, align 8
  %__p.addr = alloca ptr, align 8
  %__n.addr = alloca i64, align 8
  store ptr %this, ptr %this.addr, align 8
  store ptr %__p, ptr %__p.addr, align 8
  store i64 %__n, ptr %__n.addr, align 8
  %0 = load ptr, ptr %__p.addr, align 8
  call void @_ZdlPv(ptr noundef %0) #17
  ret void
}

; Function Attrs: mustprogress nounwind uwtable
define linkonce_odr hidden noundef ptr @_ZNKSt8_Rb_treeISt4pairIN4cvc58internal8TypeNodeEjES0_IKS4_jESt10_Select1stIS6_ESt4lessIS4_ESaIS6_EE9_M_mbeginEv(ptr noundef nonnull align 8 dereferenceable(48) %this) #4 comdat align 2 {
entry:
  %this.addr = alloca ptr, align 8
  store ptr %this, ptr %this.addr, align 8
  %this1 = load ptr, ptr %this.addr, align 8
  %_M_impl = getelementptr inbounds %"class.std::_Rb_tree.122", ptr %this1, i32 0, i32 0
  %add.ptr = getelementptr inbounds i8, ptr %_M_impl, i64 8
  %_M_header = getelementptr inbounds %"struct.std::_Rb_tree_header", ptr %add.ptr, i32 0, i32 0
  %_M_parent = getelementptr inbounds %"struct.std::_Rb_tree_node_base", ptr %_M_header, i32 0, i32 1
  %0 = load ptr, ptr %_M_parent, align 8
  ret ptr %0
}

; Function Attrs: mustprogress nounwind uwtable
define linkonce_odr hidden void @_ZNSaISt13_Rb_tree_nodeISt4pairIKS0_IN4cvc58internal8TypeNodeEjEjEEED2Ev(ptr noundef nonnull align 1 dereferenceable(1) %this) unnamed_addr #4 comdat align 2 {
entry:
  %this.addr = alloca ptr, align 8
  store ptr %this, ptr %this.addr, align 8
  %this1 = load ptr, ptr %this.addr, align 8
  call void @_ZNSt15__new_allocatorISt13_Rb_tree_nodeISt4pairIKS1_IN4cvc58internal8TypeNodeEjEjEEED2Ev(ptr noundef nonnull align 1 dereferenceable(1) %this1) #3
  ret void
}

; Function Attrs: mustprogress nounwind uwtable
define linkonce_odr hidden void @_ZNSt15__new_allocatorISt13_Rb_tree_nodeISt4pairIKS1_IN4cvc58internal8TypeNodeEjEjEEED2Ev(ptr noundef nonnull align 1 dereferenceable(1) %this) unnamed_addr #4 comdat align 2 {
entry:
  %this.addr = alloca ptr, align 8
  store ptr %this, ptr %this.addr, align 8
  ret void
}

declare noundef ptr @_ZNSt7__cxx1112basic_stringIcSt11char_traitsIcESaIcEE13_M_local_dataEv(ptr noundef nonnull align 8 dereferenceable(32)) #1

declare void @_ZNSt7__cxx1112basic_stringIcSt11char_traitsIcESaIcEE12_Alloc_hiderC1EPcRKS3_(ptr noundef nonnull align 8 dereferenceable(8), ptr noundef, ptr noundef nonnull align 1 dereferenceable(1)) unnamed_addr #1

; Function Attrs: noreturn
declare void @_ZSt19__throw_logic_errorPKc(ptr noundef) #9

; Function Attrs: mustprogress nounwind uwtable
define linkonce_odr hidden noundef i64 @_ZNSt11char_traitsIcE6lengthEPKc(ptr noundef %__s) #4 comdat align 2 {
entry:
  %__s.addr = alloca ptr, align 8
  store ptr %__s, ptr %__s.addr, align 8
  %0 = load ptr, ptr %__s.addr, align 8
  %call = call i64 @strlen(ptr noundef %0) #3
  ret i64 %call
}

; Function Attrs: mustprogress uwtable
define linkonce_odr void @_ZNSt7__cxx1112basic_stringIcSt11char_traitsIcESaIcEE12_M_constructIPKcEEvT_S8_St20forward_iterator_tag(ptr noundef nonnull align 8 dereferenceable(32) %this, ptr noundef %__beg, ptr noundef %__end) #5 comdat align 2 personality ptr @__gxx_personality_v0 {
entry:
  %this.addr.i = alloca ptr, align 8
  %this.addr = alloca ptr, align 8
  %__beg.addr = alloca ptr, align 8
  %__end.addr = alloca ptr, align 8
  %__dnew = alloca i64, align 8
  %__guard = alloca %struct._Guard, align 8
  %exn.slot = alloca ptr, align 8
  %ehselector.slot = alloca i32, align 4
  store ptr %this, ptr %this.addr, align 8
  store ptr %__beg, ptr %__beg.addr, align 8
  store ptr %__end, ptr %__end.addr, align 8
  %this1 = load ptr, ptr %this.addr, align 8
  %0 = load ptr, ptr %__beg.addr, align 8
  %1 = load ptr, ptr %__end.addr, align 8
  %call = call noundef i64 @_ZSt8distanceIPKcENSt15iterator_traitsIT_E15difference_typeES3_S3_(ptr noundef %0, ptr noundef %1)
  store i64 %call, ptr %__dnew, align 8
  %2 = load i64, ptr %__dnew, align 8
  %cmp = icmp ugt i64 %2, 15
  br i1 %cmp, label %if.then, label %if.else

if.then:                                          ; preds = %entry
  %call2 = call noundef ptr @_ZNSt7__cxx1112basic_stringIcSt11char_traitsIcESaIcEE9_M_createERmm(ptr noundef nonnull align 8 dereferenceable(32) %this1, ptr noundef nonnull align 8 dereferenceable(8) %__dnew, i64 noundef 0)
  call void @_ZNSt7__cxx1112basic_stringIcSt11char_traitsIcESaIcEE7_M_dataEPc(ptr noundef nonnull align 8 dereferenceable(32) %this1, ptr noundef %call2)
  %3 = load i64, ptr %__dnew, align 8
  call void @_ZNSt7__cxx1112basic_stringIcSt11char_traitsIcESaIcEE11_M_capacityEm(ptr noundef nonnull align 8 dereferenceable(32) %this1, i64 noundef %3)
  br label %if.end

if.else:                                          ; preds = %entry
  store ptr %this1, ptr %this.addr.i, align 8
  %this1.i = load ptr, ptr %this.addr.i, align 8
  %call.i = invoke noundef ptr @_ZNSt7__cxx1112basic_stringIcSt11char_traitsIcESaIcEE13_M_local_dataEv(ptr noundef nonnull align 8 dereferenceable(32) %this1.i)
          to label %_ZNSt7__cxx1112basic_stringIcSt11char_traitsIcESaIcEE17_M_use_local_dataEv.exit unwind label %terminate.lpad.i

terminate.lpad.i:                                 ; preds = %if.else
  %4 = landingpad { ptr, i32 }
          catch ptr null
  %5 = extractvalue { ptr, i32 } %4, 0
  call void @__clang_call_terminate(ptr %5) #15
  unreachable

_ZNSt7__cxx1112basic_stringIcSt11char_traitsIcESaIcEE17_M_use_local_dataEv.exit: ; preds = %if.else
  br label %if.end

if.end:                                           ; preds = %_ZNSt7__cxx1112basic_stringIcSt11char_traitsIcESaIcEE17_M_use_local_dataEv.exit, %if.then
  call void @_ZZNSt7__cxx1112basic_stringIcSt11char_traitsIcESaIcEE12_M_constructIPKcEEvT_S8_St20forward_iterator_tagEN6_GuardC2EPS4_(ptr noundef nonnull align 8 dereferenceable(8) %__guard, ptr noundef %this1)
  %call4 = invoke noundef ptr @_ZNKSt7__cxx1112basic_stringIcSt11char_traitsIcESaIcEE7_M_dataEv(ptr noundef nonnull align 8 dereferenceable(32) %this1)
          to label %invoke.cont unwind label %lpad

invoke.cont:                                      ; preds = %if.end
  %6 = load ptr, ptr %__beg.addr, align 8
  %7 = load ptr, ptr %__end.addr, align 8
  call void @_ZNSt7__cxx1112basic_stringIcSt11char_traitsIcESaIcEE13_S_copy_charsEPcPKcS7_(ptr noundef %call4, ptr noundef %6, ptr noundef %7) #3
  %_M_guarded = getelementptr inbounds %struct._Guard, ptr %__guard, i32 0, i32 0
  store ptr null, ptr %_M_guarded, align 8
  %8 = load i64, ptr %__dnew, align 8
  invoke void @_ZNSt7__cxx1112basic_stringIcSt11char_traitsIcESaIcEE13_M_set_lengthEm(ptr noundef nonnull align 8 dereferenceable(32) %this1, i64 noundef %8)
          to label %invoke.cont5 unwind label %lpad

invoke.cont5:                                     ; preds = %invoke.cont
  call void @_ZZNSt7__cxx1112basic_stringIcSt11char_traitsIcESaIcEE12_M_constructIPKcEEvT_S8_St20forward_iterator_tagEN6_GuardD2Ev(ptr noundef nonnull align 8 dereferenceable(8) %__guard) #3
  ret void

lpad:                                             ; preds = %invoke.cont, %if.end
  %9 = landingpad { ptr, i32 }
          cleanup
  %10 = extractvalue { ptr, i32 } %9, 0
  store ptr %10, ptr %exn.slot, align 8
  %11 = extractvalue { ptr, i32 } %9, 1
  store i32 %11, ptr %ehselector.slot, align 4
  call void @_ZZNSt7__cxx1112basic_stringIcSt11char_traitsIcESaIcEE12_M_constructIPKcEEvT_S8_St20forward_iterator_tagEN6_GuardD2Ev(ptr noundef nonnull align 8 dereferenceable(8) %__guard) #3
  br label %eh.resume

eh.resume:                                        ; preds = %lpad
  %exn = load ptr, ptr %exn.slot, align 8
  %sel = load i32, ptr %ehselector.slot, align 4
  %lpad.val = insertvalue { ptr, i32 } poison, ptr %exn, 0
  %lpad.val6 = insertvalue { ptr, i32 } %lpad.val, i32 %sel, 1
  resume { ptr, i32 } %lpad.val6
}

; Function Attrs: mustprogress nounwind uwtable
define linkonce_odr hidden void @_ZNSt7__cxx1112basic_stringIcSt11char_traitsIcESaIcEE12_Alloc_hiderD2Ev(ptr noundef nonnull align 8 dereferenceable(8) %this) unnamed_addr #4 comdat align 2 {
entry:
  %this.addr = alloca ptr, align 8
  store ptr %this, ptr %this.addr, align 8
  %this1 = load ptr, ptr %this.addr, align 8
  call void @_ZNSaIcED2Ev(ptr noundef nonnull align 1 dereferenceable(1) %this1) #3
  ret void
}

; Function Attrs: nounwind
declare i64 @strlen(ptr noundef) #2

; Function Attrs: mustprogress uwtable
define linkonce_odr noundef i64 @_ZSt8distanceIPKcENSt15iterator_traitsIT_E15difference_typeES3_S3_(ptr noundef %__first, ptr noundef %__last) #5 comdat {
entry:
  %__first.addr = alloca ptr, align 8
  %__last.addr = alloca ptr, align 8
  store ptr %__first, ptr %__first.addr, align 8
  store ptr %__last, ptr %__last.addr, align 8
  %0 = load ptr, ptr %__first.addr, align 8
  %1 = load ptr, ptr %__last.addr, align 8
  call void @_ZSt19__iterator_categoryIPKcENSt15iterator_traitsIT_E17iterator_categoryERKS3_(ptr noundef nonnull align 8 dereferenceable(8) %__first.addr)
  %call = call noundef i64 @_ZSt10__distanceIPKcENSt15iterator_traitsIT_E15difference_typeES3_S3_St26random_access_iterator_tag(ptr noundef %0, ptr noundef %1)
  ret i64 %call
}

declare void @_ZNSt7__cxx1112basic_stringIcSt11char_traitsIcESaIcEE7_M_dataEPc(ptr noundef nonnull align 8 dereferenceable(32), ptr noundef) #1

declare noundef ptr @_ZNSt7__cxx1112basic_stringIcSt11char_traitsIcESaIcEE9_M_createERmm(ptr noundef nonnull align 8 dereferenceable(32), ptr noundef nonnull align 8 dereferenceable(8), i64 noundef) #1

declare void @_ZNSt7__cxx1112basic_stringIcSt11char_traitsIcESaIcEE11_M_capacityEm(ptr noundef nonnull align 8 dereferenceable(32), i64 noundef) #1

; Function Attrs: mustprogress nounwind uwtable
define linkonce_odr hidden void @_ZZNSt7__cxx1112basic_stringIcSt11char_traitsIcESaIcEE12_M_constructIPKcEEvT_S8_St20forward_iterator_tagEN6_GuardC2EPS4_(ptr noundef nonnull align 8 dereferenceable(8) %this, ptr noundef %__s) unnamed_addr #4 comdat align 2 {
entry:
  %this.addr = alloca ptr, align 8
  %__s.addr = alloca ptr, align 8
  store ptr %this, ptr %this.addr, align 8
  store ptr %__s, ptr %__s.addr, align 8
  %this1 = load ptr, ptr %this.addr, align 8
  %_M_guarded = getelementptr inbounds %struct._Guard, ptr %this1, i32 0, i32 0
  %0 = load ptr, ptr %__s.addr, align 8
  store ptr %0, ptr %_M_guarded, align 8
  ret void
}

; Function Attrs: nounwind
declare void @_ZNSt7__cxx1112basic_stringIcSt11char_traitsIcESaIcEE13_S_copy_charsEPcPKcS7_(ptr noundef, ptr noundef, ptr noundef) #2

declare noundef ptr @_ZNKSt7__cxx1112basic_stringIcSt11char_traitsIcESaIcEE7_M_dataEv(ptr noundef nonnull align 8 dereferenceable(32)) #1

declare void @_ZNSt7__cxx1112basic_stringIcSt11char_traitsIcESaIcEE13_M_set_lengthEm(ptr noundef nonnull align 8 dereferenceable(32), i64 noundef) #1

; Function Attrs: mustprogress nounwind uwtable
define linkonce_odr hidden void @_ZZNSt7__cxx1112basic_stringIcSt11char_traitsIcESaIcEE12_M_constructIPKcEEvT_S8_St20forward_iterator_tagEN6_GuardD2Ev(ptr noundef nonnull align 8 dereferenceable(8) %this) unnamed_addr #4 comdat align 2 personality ptr @__gxx_personality_v0 {
entry:
  %this.addr = alloca ptr, align 8
  store ptr %this, ptr %this.addr, align 8
  %this1 = load ptr, ptr %this.addr, align 8
  %_M_guarded = getelementptr inbounds %struct._Guard, ptr %this1, i32 0, i32 0
  %0 = load ptr, ptr %_M_guarded, align 8
  %tobool = icmp ne ptr %0, null
  br i1 %tobool, label %if.then, label %if.end

if.then:                                          ; preds = %entry
  %_M_guarded2 = getelementptr inbounds %struct._Guard, ptr %this1, i32 0, i32 0
  %1 = load ptr, ptr %_M_guarded2, align 8
  invoke void @_ZNSt7__cxx1112basic_stringIcSt11char_traitsIcESaIcEE10_M_disposeEv(ptr noundef nonnull align 8 dereferenceable(32) %1)
          to label %invoke.cont unwind label %terminate.lpad

invoke.cont:                                      ; preds = %if.then
  br label %if.end

if.end:                                           ; preds = %invoke.cont, %entry
  ret void

terminate.lpad:                                   ; preds = %if.then
  %2 = landingpad { ptr, i32 }
          catch ptr null
  %3 = extractvalue { ptr, i32 } %2, 0
  call void @__clang_call_terminate(ptr %3) #15
  unreachable
}

; Function Attrs: mustprogress nounwind uwtable
define linkonce_odr noundef i64 @_ZSt10__distanceIPKcENSt15iterator_traitsIT_E15difference_typeES3_S3_St26random_access_iterator_tag(ptr noundef %__first, ptr noundef %__last) #4 comdat {
entry:
  %__first.addr = alloca ptr, align 8
  %__last.addr = alloca ptr, align 8
  store ptr %__first, ptr %__first.addr, align 8
  store ptr %__last, ptr %__last.addr, align 8
  %0 = load ptr, ptr %__last.addr, align 8
  %1 = load ptr, ptr %__first.addr, align 8
  %sub.ptr.lhs.cast = ptrtoint ptr %0 to i64
  %sub.ptr.rhs.cast = ptrtoint ptr %1 to i64
  %sub.ptr.sub = sub i64 %sub.ptr.lhs.cast, %sub.ptr.rhs.cast
  ret i64 %sub.ptr.sub
}

; Function Attrs: mustprogress nounwind uwtable
define linkonce_odr void @_ZSt19__iterator_categoryIPKcENSt15iterator_traitsIT_E17iterator_categoryERKS3_(ptr noundef nonnull align 8 dereferenceable(8) %0) #4 comdat {
entry:
  %.addr = alloca ptr, align 8
  store ptr %0, ptr %.addr, align 8
  ret void
}

declare void @_ZNSt7__cxx1112basic_stringIcSt11char_traitsIcESaIcEE10_M_disposeEv(ptr noundef nonnull align 8 dereferenceable(32)) #1

; Function Attrs: nounwind
declare void @_ZNSaIcED2Ev(ptr noundef nonnull align 1 dereferenceable(1)) unnamed_addr #2

; Function Attrs: mustprogress uwtable
define linkonce_odr hidden noundef nonnull align 8 dereferenceable(8) ptr @_ZNSt8ios_base5iwordEi(ptr noundef nonnull align 8 dereferenceable(216) %this, i32 noundef %__ix) #5 comdat align 2 {
entry:
  %this.addr = alloca ptr, align 8
  %__ix.addr = alloca i32, align 4
  %__word = alloca ptr, align 8
  store ptr %this, ptr %this.addr, align 8
  store i32 %__ix, ptr %__ix.addr, align 4
  %this1 = load ptr, ptr %this.addr, align 8
  %0 = load i32, ptr %__ix.addr, align 4
  %_M_word_size = getelementptr inbounds %"class.std::ios_base", ptr %this1, i32 0, i32 9
  %1 = load i32, ptr %_M_word_size, align 8
  %cmp = icmp ult i32 %0, %1
  br i1 %cmp, label %cond.true, label %cond.false

cond.true:                                        ; preds = %entry
  %_M_word = getelementptr inbounds %"class.std::ios_base", ptr %this1, i32 0, i32 10
  %2 = load ptr, ptr %_M_word, align 8
  %3 = load i32, ptr %__ix.addr, align 4
  %idxprom = sext i32 %3 to i64
  %arrayidx = getelementptr inbounds %"struct.std::ios_base::_Words", ptr %2, i64 %idxprom
  br label %cond.end

cond.false:                                       ; preds = %entry
  %4 = load i32, ptr %__ix.addr, align 4
  %call = call noundef nonnull align 8 dereferenceable(16) ptr @_ZNSt8ios_base13_M_grow_wordsEib(ptr noundef nonnull align 8 dereferenceable(216) %this1, i32 noundef %4, i1 noundef zeroext true)
  br label %cond.end

cond.end:                                         ; preds = %cond.false, %cond.true
  %cond-lvalue = phi ptr [ %arrayidx, %cond.true ], [ %call, %cond.false ]
  store ptr %cond-lvalue, ptr %__word, align 8
  %5 = load ptr, ptr %__word, align 8
  %_M_iword = getelementptr inbounds %"struct.std::ios_base::_Words", ptr %5, i32 0, i32 1
  ret ptr %_M_iword
}

declare noundef nonnull align 8 dereferenceable(8) ptr @_ZStlsIcSt11char_traitsIcESaIcEERSt13basic_ostreamIT_T0_ES7_RKNSt7__cxx1112basic_stringIS4_S5_T1_EE(ptr noundef nonnull align 8 dereferenceable(8), ptr noundef nonnull align 8 dereferenceable(32)) #1

declare noundef nonnull align 8 dereferenceable(16) ptr @_ZNSt8ios_base13_M_grow_wordsEib(ptr noundef nonnull align 8 dereferenceable(216), i32 noundef, i1 noundef zeroext) #1

; Function Attrs: mustprogress nounwind uwtable
define linkonce_odr hidden void @_ZNK4cvc58internal12NodeTemplateILb0EE21assertTNodeNotExpiredEv(ptr noundef nonnull align 8 dereferenceable(8) %this) #4 comdat align 2 {
entry:
  %this.addr = alloca ptr, align 8
  store ptr %this, ptr %this.addr, align 8
  ret void
}

; Function Attrs: mustprogress uwtable
define linkonce_odr hidden ptr @_ZNSt8_Rb_treeIN4cvc58internal12NodeTemplateILb1EEESt4pairIKS3_iESt10_Select1stIS6_ESt4lessIS3_ESaIS6_EE4findERS5_(ptr noundef nonnull align 8 dereferenceable(48) %this, ptr noundef nonnull align 8 dereferenceable(8) %__k) #5 comdat align 2 {
entry:
  %retval = alloca %"struct.std::_Rb_tree_iterator", align 8
  %this.addr = alloca ptr, align 8
  %__k.addr = alloca ptr, align 8
  %__j = alloca %"struct.std::_Rb_tree_iterator", align 8
  %ref.tmp = alloca %"struct.std::_Rb_tree_iterator", align 8
  store ptr %this, ptr %this.addr, align 8
  store ptr %__k, ptr %__k.addr, align 8
  %this1 = load ptr, ptr %this.addr, align 8
  %call = call noundef ptr @_ZNSt8_Rb_treeIN4cvc58internal12NodeTemplateILb1EEESt4pairIKS3_iESt10_Select1stIS6_ESt4lessIS3_ESaIS6_EE8_M_beginEv(ptr noundef nonnull align 8 dereferenceable(48) %this1) #3
  %call2 = call noundef ptr @_ZNSt8_Rb_treeIN4cvc58internal12NodeTemplateILb1EEESt4pairIKS3_iESt10_Select1stIS6_ESt4lessIS3_ESaIS6_EE6_M_endEv(ptr noundef nonnull align 8 dereferenceable(48) %this1) #3
  %0 = load ptr, ptr %__k.addr, align 8
  %call3 = call ptr @_ZNSt8_Rb_treeIN4cvc58internal12NodeTemplateILb1EEESt4pairIKS3_iESt10_Select1stIS6_ESt4lessIS3_ESaIS6_EE14_M_lower_boundEPSt13_Rb_tree_nodeIS6_EPSt18_Rb_tree_node_baseRS5_(ptr noundef nonnull align 8 dereferenceable(48) %this1, ptr noundef %call, ptr noundef %call2, ptr noundef nonnull align 8 dereferenceable(8) %0)
  %coerce.dive = getelementptr inbounds %"struct.std::_Rb_tree_iterator", ptr %__j, i32 0, i32 0
  store ptr %call3, ptr %coerce.dive, align 8
  %call4 = call ptr @_ZNSt8_Rb_treeIN4cvc58internal12NodeTemplateILb1EEESt4pairIKS3_iESt10_Select1stIS6_ESt4lessIS3_ESaIS6_EE3endEv(ptr noundef nonnull align 8 dereferenceable(48) %this1) #3
  %coerce.dive5 = getelementptr inbounds %"struct.std::_Rb_tree_iterator", ptr %ref.tmp, i32 0, i32 0
  store ptr %call4, ptr %coerce.dive5, align 8
  %call6 = call noundef zeroext i1 @_ZSteqRKSt17_Rb_tree_iteratorISt4pairIKN4cvc58internal12NodeTemplateILb1EEEiEES9_(ptr noundef nonnull align 8 dereferenceable(8) %__j, ptr noundef nonnull align 8 dereferenceable(8) %ref.tmp) #3
  br i1 %call6, label %cond.true, label %lor.lhs.false

lor.lhs.false:                                    ; preds = %entry
  %_M_impl = getelementptr inbounds %"class.std::_Rb_tree", ptr %this1, i32 0, i32 0
  %_M_key_compare = getelementptr inbounds %"struct.std::_Rb_tree_key_compare", ptr %_M_impl, i32 0, i32 0
  %1 = load ptr, ptr %__k.addr, align 8
  %_M_node = getelementptr inbounds %"struct.std::_Rb_tree_iterator", ptr %__j, i32 0, i32 0
  %2 = load ptr, ptr %_M_node, align 8
  %call7 = call noundef nonnull align 8 dereferenceable(8) ptr @_ZNSt8_Rb_treeIN4cvc58internal12NodeTemplateILb1EEESt4pairIKS3_iESt10_Select1stIS6_ESt4lessIS3_ESaIS6_EE6_S_keyEPKSt18_Rb_tree_node_base(ptr noundef %2)
  %call8 = call noundef zeroext i1 @_ZNKSt4lessIN4cvc58internal12NodeTemplateILb1EEEEclERKS3_S6_(ptr noundef nonnull align 1 dereferenceable(1) %_M_key_compare, ptr noundef nonnull align 8 dereferenceable(8) %1, ptr noundef nonnull align 8 dereferenceable(8) %call7)
  br i1 %call8, label %cond.true, label %cond.false

cond.true:                                        ; preds = %lor.lhs.false, %entry
  %call9 = call ptr @_ZNSt8_Rb_treeIN4cvc58internal12NodeTemplateILb1EEESt4pairIKS3_iESt10_Select1stIS6_ESt4lessIS3_ESaIS6_EE3endEv(ptr noundef nonnull align 8 dereferenceable(48) %this1) #3
  %coerce.dive10 = getelementptr inbounds %"struct.std::_Rb_tree_iterator", ptr %retval, i32 0, i32 0
  store ptr %call9, ptr %coerce.dive10, align 8
  br label %cond.end

cond.false:                                       ; preds = %lor.lhs.false
  call void @llvm.memcpy.p0.p0.i64(ptr align 8 %retval, ptr align 8 %__j, i64 8, i1 false)
  br label %cond.end

cond.end:                                         ; preds = %cond.false, %cond.true
  %coerce.dive11 = getelementptr inbounds %"struct.std::_Rb_tree_iterator", ptr %retval, i32 0, i32 0
  %3 = load ptr, ptr %coerce.dive11, align 8
  ret ptr %3
}

; Function Attrs: mustprogress uwtable
define linkonce_odr hidden ptr @_ZNSt8_Rb_treeIN4cvc58internal12NodeTemplateILb1EEESt4pairIKS3_iESt10_Select1stIS6_ESt4lessIS3_ESaIS6_EE14_M_lower_boundEPSt13_Rb_tree_nodeIS6_EPSt18_Rb_tree_node_baseRS5_(ptr noundef nonnull align 8 dereferenceable(48) %this, ptr noundef %__x, ptr noundef %__y, ptr noundef nonnull align 8 dereferenceable(8) %__k) #5 comdat align 2 {
entry:
  %retval = alloca %"struct.std::_Rb_tree_iterator", align 8
  %this.addr = alloca ptr, align 8
  %__x.addr = alloca ptr, align 8
  %__y.addr = alloca ptr, align 8
  %__k.addr = alloca ptr, align 8
  store ptr %this, ptr %this.addr, align 8
