target datalayout = "e-m:e-p270:32:32-p271:32:32-p272:64:64-i64:64-i128:128-f80:128-n8:16:32:64-S128"
target triple = "x86_64-unknown-linux-gnu"

%"class.std::ios_base::Init" = type { i8 }
%"class.cvc5::internal::NullC" = type { i8 }
%"class.cvc5::internal::TraceC" = type { ptr, %"class.std::vector.319" }
%"class.std::vector.319" = type { %"struct.std::_Vector_base.320" }
%"struct.std::_Vector_base.320" = type { %"struct.std::_Vector_base<std::__cxx11::basic_string<char>, std::allocator<std::__cxx11::basic_string<char>>>::_Vector_impl" }
%"struct.std::_Vector_base<std::__cxx11::basic_string<char>, std::allocator<std::__cxx11::basic_string<char>>>::_Vector_impl" = type { %"struct.std::_Vector_base<std::__cxx11::basic_string<char>, std::allocator<std::__cxx11::basic_string<char>>>::_Vector_impl_data" }
%"struct.std::_Vector_base<std::__cxx11::basic_string<char>, std::allocator<std::__cxx11::basic_string<char>>>::_Vector_impl_data" = type { ptr, ptr, ptr }
%"class.cvc5::internal::NodeTemplate" = type { ptr }
%"class.std::__cxx11::basic_string" = type { %"struct.std::__cxx11::basic_string<char>::_Alloc_hider", i64, %union.anon }
%"struct.std::__cxx11::basic_string<char>::_Alloc_hider" = type { ptr }
%union.anon = type { i64, [8 x i8] }
%"struct.std::piecewise_construct_t" = type { i8 }
%"class.std::allocator" = type { i8 }
%"class.cvc5::internal::RemoveTermFormulas" = type { %"class.cvc5::internal::EnvObj", %"class.cvc5::context::CDInsertHashMap", %"class.cvc5::context::CDInsertHashMap.0", %"class.std::unique_ptr", %"class.std::unique_ptr", %"class.std::unique_ptr.3", %"class.cvc5::internal::RtfTermContext" }
%"class.cvc5::internal::EnvObj" = type { ptr, ptr }
%"class.cvc5::context::CDInsertHashMap" = type { %"class.cvc5::context::ContextObj", ptr, i64 }
%"class.cvc5::context::ContextObj" = type { ptr, ptr, ptr, ptr, ptr }
%"class.cvc5::context::CDInsertHashMap.0" = type { %"class.cvc5::context::ContextObj", ptr, i64 }
%"class.std::unique_ptr" = type { %"struct.std::__uniq_ptr_data" }
%"struct.std::__uniq_ptr_data" = type { %"class.std::__uniq_ptr_impl" }
%"class.std::__uniq_ptr_impl" = type { %"class.std::tuple" }
%"class.std::tuple" = type { %"struct.std::_Tuple_impl" }
%"struct.std::_Tuple_impl" = type { %"struct.std::_Head_base.2" }
%"struct.std::_Head_base.2" = type { ptr }
%"class.std::unique_ptr.3" = type { %"struct.std::__uniq_ptr_data.4" }
%"struct.std::__uniq_ptr_data.4" = type { %"class.std::__uniq_ptr_impl.5" }
%"class.std::__uniq_ptr_impl.5" = type { %"class.std::tuple.6" }
%"class.std::tuple.6" = type { %"struct.std::_Tuple_impl.7" }
%"struct.std::_Tuple_impl.7" = type { %"struct.std::_Head_base.10" }
%"struct.std::_Head_base.10" = type { ptr }
%"class.cvc5::internal::RtfTermContext" = type { %"class.cvc5::internal::TermContext" }
%"class.cvc5::internal::TermContext" = type { ptr }
%"class.cvc5::internal::TrustNode" = type { i32, %"class.cvc5::internal::NodeTemplate", ptr }
%"class.cvc5::internal::NodeTemplate.313" = type { ptr }
%"class.cvc5::internal::theory::SkolemLemma" = type { %"class.cvc5::internal::TrustNode", %"class.cvc5::internal::NodeTemplate" }
%"class.cvc5::internal::TCtxStack" = type { ptr, %"class.std::vector.329", ptr }
%"class.std::vector.329" = type { %"struct.std::_Vector_base.330" }
%"struct.std::_Vector_base.330" = type { %"struct.std::_Vector_base<std::pair<cvc5::internal::NodeTemplate<true>, unsigned int>, std::allocator<std::pair<cvc5::internal::NodeTemplate<true>, unsigned int>>>::_Vector_impl" }
%"struct.std::_Vector_base<std::pair<cvc5::internal::NodeTemplate<true>, unsigned int>, std::allocator<std::pair<cvc5::internal::NodeTemplate<true>, unsigned int>>>::_Vector_impl" = type { %"struct.std::_Vector_base<std::pair<cvc5::internal::NodeTemplate<true>, unsigned int>, std::allocator<std::pair<cvc5::internal::NodeTemplate<true>, unsigned int>>>::_Vector_impl_data" }
%"struct.std::_Vector_base<std::pair<cvc5::internal::NodeTemplate<true>, unsigned int>, std::allocator<std::pair<cvc5::internal::NodeTemplate<true>, unsigned int>>>::_Vector_impl_data" = type { ptr, ptr, ptr }
%"class.std::vector" = type { %"struct.std::_Bvector_base" }
%"struct.std::_Bvector_base" = type { %"struct.std::_Bvector_base<std::allocator<bool>>::_Bvector_impl" }
%"struct.std::_Bvector_base<std::allocator<bool>>::_Bvector_impl" = type { %"struct.std::_Bvector_base<std::allocator<bool>>::_Bvector_impl_data" }
%"struct.std::_Bvector_base<std::allocator<bool>>::_Bvector_impl_data" = type { %"struct.std::_Bit_iterator", %"struct.std::_Bit_iterator", ptr }
%"struct.std::_Bit_iterator" = type { %"struct.std::_Bit_iterator_base.base", [4 x i8] }
%"struct.std::_Bit_iterator_base.base" = type <{ ptr, i32 }>
%"struct.std::pair" = type <{ %"class.cvc5::internal::NodeTemplate", i32, [4 x i8] }>
%"struct.std::__detail::_Node_const_iterator" = type { %"struct.std::__detail::_Node_iterator_base" }
%"struct.std::__detail::_Node_iterator_base" = type { ptr }
%"class.cvc5::internal::__cvc5_true" = type { i8 }
%"class.cvc5::internal::Cvc5ostream" = type { ptr, i8, ptr }
%"struct.std::_Bit_reference" = type { ptr, i64 }
%"class.std::vector.324" = type { %"struct.std::_Vector_base.325" }
%"struct.std::_Vector_base.325" = type { %"struct.std::_Vector_base<cvc5::internal::NodeTemplate<true>, std::allocator<cvc5::internal::NodeTemplate<true>>>::_Vector_impl" }
%"struct.std::_Vector_base<cvc5::internal::NodeTemplate<true>, std::allocator<cvc5::internal::NodeTemplate<true>>>::_Vector_impl" = type { %"struct.std::_Vector_base<cvc5::internal::NodeTemplate<true>, std::allocator<cvc5::internal::NodeTemplate<true>>>::_Vector_impl_data" }
%"struct.std::_Vector_base<cvc5::internal::NodeTemplate<true>, std::allocator<cvc5::internal::NodeTemplate<true>>>::_Vector_impl_data" = type { ptr, ptr, ptr }
%"struct.std::pair.334" = type { %"struct.std::pair", %"class.cvc5::internal::NodeTemplate" }
%"struct.std::_Vector_base.315" = type { %"struct.std::_Vector_base<cvc5::internal::theory::SkolemLemma, std::allocator<cvc5::internal::theory::SkolemLemma>>::_Vector_impl" }
%"struct.std::_Vector_base<cvc5::internal::theory::SkolemLemma, std::allocator<cvc5::internal::theory::SkolemLemma>>::_Vector_impl" = type { %"struct.std::_Vector_base<cvc5::internal::theory::SkolemLemma, std::allocator<cvc5::internal::theory::SkolemLemma>>::_Vector_impl_data" }
%"struct.std::_Vector_base<cvc5::internal::theory::SkolemLemma, std::allocator<cvc5::internal::theory::SkolemLemma>>::_Vector_impl_data" = type { ptr, ptr, ptr }
%"class.std::initializer_list" = type { ptr, i64 }
%"class.std::allocator.326" = type { i8 }
%"struct.std::_Bit_iterator_base" = type <{ ptr, i32, [4 x i8] }>
%"class.cvc5::internal::TypeNode" = type { ptr }
%"class.std::__cxx11::basic_stringstream" = type { %"class.std::basic_iostream.base", %"class.std::__cxx11::basic_stringbuf", %"class.std::basic_ios" }
%"class.std::basic_iostream.base" = type { %"class.std::basic_istream.base", %"class.std::basic_ostream.base" }
%"class.std::basic_istream.base" = type { ptr, i64 }
%"class.std::basic_ostream.base" = type { ptr }
%"class.std::__cxx11::basic_stringbuf" = type { %"class.std::basic_streambuf", i32, %"class.std::__cxx11::basic_string" }
%"class.std::basic_streambuf" = type { ptr, ptr, ptr, ptr, ptr, ptr, ptr, %"class.std::locale" }
%"class.std::locale" = type { ptr }
%"class.std::basic_ios" = type { %"class.std::ios_base", ptr, i8, i8, ptr, ptr, ptr, ptr }
%"class.std::ios_base" = type { ptr, i64, i64, i32, i32, i32, ptr, %"struct.std::ios_base::_Words", [8 x %"struct.std::ios_base::_Words"], i32, ptr, %"class.std::locale" }
%"struct.std::ios_base::_Words" = type { ptr, i64 }
%"struct.std::_Bit_const_iterator" = type { %"struct.std::_Bit_iterator_base.base", [4 x i8] }
%"class.cvc5::internal::expr::NodeValue" = type { i64, i16, i32, [0 x ptr] }
%"class.__gnu_cxx::__normal_iterator.530" = type { ptr }
%"class.cvc5::internal::NodeBuilder" = type <{ %"class.cvc5::internal::expr::NodeValue", [10 x ptr], ptr, ptr, i32, [4 x i8] }>
%"class.cvc5::internal::NodeManager" = type { %"class.std::unique_ptr.336", %"class.std::unique_ptr.344", %"class.std::unordered_set", i64, ptr, ptr, i8, %"class.std::unordered_set.367", %"class.std::vector.378", [365 x %"class.cvc5::internal::NodeTemplate"], %"class.std::map.383", %"class.std::vector.391", %"class.std::vector.396", %"class.std::map.401", %"class.cvc5::internal::NodeManager::TupleTypeCache", %"class.cvc5::internal::NodeManager::RecTypeCache" }
%"class.std::unique_ptr.336" = type { %"struct.std::__uniq_ptr_data.337" }
%"struct.std::__uniq_ptr_data.337" = type { %"class.std::__uniq_ptr_impl.338" }
%"class.std::__uniq_ptr_impl.338" = type { %"class.std::tuple.339" }
%"class.std::tuple.339" = type { %"struct.std::_Tuple_impl.340" }
%"struct.std::_Tuple_impl.340" = type { %"struct.std::_Head_base.343" }
%"struct.std::_Head_base.343" = type { ptr }
%"class.std::unique_ptr.344" = type { %"struct.std::__uniq_ptr_data.345" }
%"struct.std::__uniq_ptr_data.345" = type { %"class.std::__uniq_ptr_impl.346" }
%"class.std::__uniq_ptr_impl.346" = type { %"class.std::tuple.347" }
%"class.std::tuple.347" = type { %"struct.std::_Tuple_impl.348" }
%"struct.std::_Tuple_impl.348" = type { %"struct.std::_Head_base.351" }
%"struct.std::_Head_base.351" = type { ptr }
%"class.std::unordered_set" = type { %"class.std::_Hashtable.352" }
%"class.std::_Hashtable.352" = type { ptr, i64, %"struct.std::__detail::_Hash_node_base", i64, %"struct.std::__detail::_Prime_rehash_policy", ptr }
%"struct.std::__detail::_Hash_node_base" = type { ptr }
%"struct.std::__detail::_Prime_rehash_policy" = type { float, i64 }
%"class.std::unordered_set.367" = type { %"class.std::_Hashtable.368" }
%"class.std::_Hashtable.368" = type { ptr, i64, %"struct.std::__detail::_Hash_node_base", i64, %"struct.std::__detail::_Prime_rehash_policy", ptr }
%"class.std::vector.378" = type { %"struct.std::_Vector_base.379" }
%"struct.std::_Vector_base.379" = type { %"struct.std::_Vector_base<cvc5::internal::expr::NodeValue *, std::allocator<cvc5::internal::expr::NodeValue *>>::_Vector_impl" }
%"struct.std::_Vector_base<cvc5::internal::expr::NodeValue *, std::allocator<cvc5::internal::expr::NodeValue *>>::_Vector_impl" = type { %"struct.std::_Vector_base<cvc5::internal::expr::NodeValue *, std::allocator<cvc5::internal::expr::NodeValue *>>::_Vector_impl_data" }
%"struct.std::_Vector_base<cvc5::internal::expr::NodeValue *, std::allocator<cvc5::internal::expr::NodeValue *>>::_Vector_impl_data" = type { ptr, ptr, ptr }
%"class.std::map.383" = type { %"class.std::_Rb_tree.384" }
%"class.std::_Rb_tree.384" = type { %"struct.std::_Rb_tree<cvc5::internal::kind::Kind_t, std::pair<const cvc5::internal::kind::Kind_t, std::map<cvc5::internal::TypeNode, cvc5::internal::NodeTemplate<true>>>, std::_Select1st<std::pair<const cvc5::internal::kind::Kind_t, std::map<cvc5::internal::TypeNode, cvc5::internal::NodeTemplate<true>>>>, std::less<cvc5::internal::kind::Kind_t>>::_Rb_tree_impl" }
%"struct.std::_Rb_tree<cvc5::internal::kind::Kind_t, std::pair<const cvc5::internal::kind::Kind_t, std::map<cvc5::internal::TypeNode, cvc5::internal::NodeTemplate<true>>>, std::_Select1st<std::pair<const cvc5::internal::kind::Kind_t, std::map<cvc5::internal::TypeNode, cvc5::internal::NodeTemplate<true>>>>, std::less<cvc5::internal::kind::Kind_t>>::_Rb_tree_impl" = type { %"struct.std::_Rb_tree_key_compare.388", %"struct.std::_Rb_tree_header" }
%"struct.std::_Rb_tree_key_compare.388" = type { %"struct.std::less.389" }
%"struct.std::less.389" = type { i8 }
%"struct.std::_Rb_tree_header" = type { %"struct.std::_Rb_tree_node_base", i64 }
%"struct.std::_Rb_tree_node_base" = type { i32, ptr, ptr, ptr }
%"class.std::vector.391" = type { %"struct.std::_Vector_base.392" }
%"struct.std::_Vector_base.392" = type { %"struct.std::_Vector_base<std::unique_ptr<cvc5::internal::DType>, std::allocator<std::unique_ptr<cvc5::internal::DType>>>::_Vector_impl" }
%"struct.std::_Vector_base<std::unique_ptr<cvc5::internal::DType>, std::allocator<std::unique_ptr<cvc5::internal::DType>>>::_Vector_impl" = type { %"struct.std::_Vector_base<std::unique_ptr<cvc5::internal::DType>, std::allocator<std::unique_ptr<cvc5::internal::DType>>>::_Vector_impl_data" }
%"struct.std::_Vector_base<std::unique_ptr<cvc5::internal::DType>, std::allocator<std::unique_ptr<cvc5::internal::DType>>>::_Vector_impl_data" = type { ptr, ptr, ptr }
%"class.std::vector.396" = type { %"struct.std::_Vector_base.397" }
%"struct.std::_Vector_base.397" = type { %"struct.std::_Vector_base<std::unique_ptr<cvc5::internal::Oracle>, std::allocator<std::unique_ptr<cvc5::internal::Oracle>>>::_Vector_impl" }
%"struct.std::_Vector_base<std::unique_ptr<cvc5::internal::Oracle>, std::allocator<std::unique_ptr<cvc5::internal::Oracle>>>::_Vector_impl" = type { %"struct.std::_Vector_base<std::unique_ptr<cvc5::internal::Oracle>, std::allocator<std::unique_ptr<cvc5::internal::Oracle>>>::_Vector_impl_data" }
%"struct.std::_Vector_base<std::unique_ptr<cvc5::internal::Oracle>, std::allocator<std::unique_ptr<cvc5::internal::Oracle>>>::_Vector_impl_data" = type { ptr, ptr, ptr }
%"class.std::map.401" = type { %"class.std::_Rb_tree.402" }
%"class.std::_Rb_tree.402" = type { %"struct.std::_Rb_tree<std::pair<std::__cxx11::basic_string<char>, unsigned long>, std::pair<const std::pair<std::__cxx11::basic_string<char>, unsigned long>, cvc5::internal::TypeNode>, std::_Select1st<std::pair<const std::pair<std::__cxx11::basic_string<char>, unsigned long>, cvc5::internal::TypeNode>>, std::less<std::pair<std::__cxx11::basic_string<char>, unsigned long>>>::_Rb_tree_impl" }
%"struct.std::_Rb_tree<std::pair<std::__cxx11::basic_string<char>, unsigned long>, std::pair<const std::pair<std::__cxx11::basic_string<char>, unsigned long>, cvc5::internal::TypeNode>, std::_Select1st<std::pair<const std::pair<std::__cxx11::basic_string<char>, unsigned long>, cvc5::internal::TypeNode>>, std::less<std::pair<std::__cxx11::basic_string<char>, unsigned long>>>::_Rb_tree_impl" = type { %"struct.std::_Rb_tree_key_compare.406", %"struct.std::_Rb_tree_header" }
%"struct.std::_Rb_tree_key_compare.406" = type { %"struct.std::less.407" }
%"struct.std::less.407" = type { i8 }
%"class.cvc5::internal::NodeManager::TupleTypeCache" = type { %"class.std::map.409", %"class.cvc5::internal::TypeNode" }
%"class.std::map.409" = type { %"class.std::_Rb_tree.410" }
%"class.std::_Rb_tree.410" = type { %"struct.std::_Rb_tree<cvc5::internal::TypeNode, std::pair<const cvc5::internal::TypeNode, cvc5::internal::NodeManager::TupleTypeCache>, std::_Select1st<std::pair<const cvc5::internal::TypeNode, cvc5::internal::NodeManager::TupleTypeCache>>, std::less<cvc5::internal::TypeNode>>::_Rb_tree_impl" }
%"struct.std::_Rb_tree<cvc5::internal::TypeNode, std::pair<const cvc5::internal::TypeNode, cvc5::internal::NodeManager::TupleTypeCache>, std::_Select1st<std::pair<const cvc5::internal::TypeNode, cvc5::internal::NodeManager::TupleTypeCache>>, std::less<cvc5::internal::TypeNode>>::_Rb_tree_impl" = type { %"struct.std::_Rb_tree_key_compare.414", %"struct.std::_Rb_tree_header" }
%"struct.std::_Rb_tree_key_compare.414" = type { %"struct.std::less.415" }
%"struct.std::less.415" = type { i8 }
%"class.cvc5::internal::NodeManager::RecTypeCache" = type { %"class.std::map.417", %"class.cvc5::internal::TypeNode" }
%"class.std::map.417" = type { %"class.std::_Rb_tree.418" }
%"class.std::_Rb_tree.418" = type { %"struct.std::_Rb_tree<cvc5::internal::TypeNode, std::pair<const cvc5::internal::TypeNode, std::map<std::__cxx11::basic_string<char>, cvc5::internal::NodeManager::RecTypeCache>>, std::_Select1st<std::pair<const cvc5::internal::TypeNode, std::map<std::__cxx11::basic_string<char>, cvc5::internal::NodeManager::RecTypeCache>>>, std::less<cvc5::internal::TypeNode>>::_Rb_tree_impl" }
%"struct.std::_Rb_tree<cvc5::internal::TypeNode, std::pair<const cvc5::internal::TypeNode, std::map<std::__cxx11::basic_string<char>, cvc5::internal::NodeManager::RecTypeCache>>, std::_Select1st<std::pair<const cvc5::internal::TypeNode, std::map<std::__cxx11::basic_string<char>, cvc5::internal::NodeManager::RecTypeCache>>>, std::less<cvc5::internal::TypeNode>>::_Rb_tree_impl" = type { %"struct.std::_Rb_tree_key_compare.414", %"struct.std::_Rb_tree_header" }
%"struct.std::__detail::_Node_const_iterator.442" = type { %"struct.std::__detail::_Node_iterator_base.443" }
%"struct.std::__detail::_Node_iterator_base.443" = type { ptr }
%"struct.std::pair.444" = type { %"class.cvc5::internal::NodeTemplate", %"class.cvc5::internal::NodeTemplate" }
%"class.std::unordered_map.537" = type { %"class.std::_Hashtable.538" }
%"class.std::_Hashtable.538" = type { ptr, i64, %"struct.std::__detail::_Hash_node_base", i64, %"struct.std::__detail::_Prime_rehash_policy", ptr }
%"class.cvc5::internal::options::ioutils::Scope" = type <{ ptr, i8, [7 x i8], i64, i64, i8, [3 x i8], i32, i32, [4 x i8] }>
%"class.cvc5::internal::Exception" = type { %"class.std::exception", %"class.std::__cxx11::basic_string" }
%"class.std::exception" = type { ptr }
%"class.cvc5::context::InsertHashMap" = type { %"class.std::deque", %"class.std::unordered_map.446" }
%"class.std::deque" = type { %"class.std::_Deque_base" }
%"class.std::_Deque_base" = type { %"struct.std::_Deque_base<cvc5::internal::NodeTemplate<true>, std::allocator<cvc5::internal::NodeTemplate<true>>>::_Deque_impl" }
%"struct.std::_Deque_base<cvc5::internal::NodeTemplate<true>, std::allocator<cvc5::internal::NodeTemplate<true>>>::_Deque_impl" = type { %"struct.std::_Deque_base<cvc5::internal::NodeTemplate<true>, std::allocator<cvc5::internal::NodeTemplate<true>>>::_Deque_impl_data" }
%"struct.std::_Deque_base<cvc5::internal::NodeTemplate<true>, std::allocator<cvc5::internal::NodeTemplate<true>>>::_Deque_impl_data" = type { ptr, i64, %"struct.std::_Deque_iterator", %"struct.std::_Deque_iterator" }
%"struct.std::_Deque_iterator" = type { ptr, ptr, ptr, ptr }
%"class.std::unordered_map.446" = type { %"class.std::_Hashtable.447" }
%"class.std::_Hashtable.447" = type { ptr, i64, %"struct.std::__detail::_Hash_node_base", i64, %"struct.std::__detail::_Prime_rehash_policy", ptr }
%"struct.std::__detail::_Select1st" = type { i8 }
%"struct.std::__detail::_Hash_node_value_base" = type { %"struct.__gnu_cxx::__aligned_buffer" }
%"struct.__gnu_cxx::__aligned_buffer" = type { %"union.std::aligned_storage<16, 8>::type" }
%"union.std::aligned_storage<16, 8>::type" = type { [16 x i8] }
%"struct.std::__detail::_Mod_range_hashing" = type { i8 }
%"struct.std::__detail::_Hash_node_code_cache" = type { i64 }
%struct._Guard = type { ptr }
%"class.cvc5::context::InsertHashMap.464" = type { %"class.std::deque.465", %"class.std::unordered_map.468" }
%"class.std::deque.465" = type { %"class.std::_Deque_base.466" }
%"class.std::_Deque_base.466" = type { %"struct.std::_Deque_base<std::pair<cvc5::internal::NodeTemplate<true>, unsigned int>, std::allocator<std::pair<cvc5::internal::NodeTemplate<true>, unsigned int>>>::_Deque_impl" }
%"struct.std::_Deque_base<std::pair<cvc5::internal::NodeTemplate<true>, unsigned int>, std::allocator<std::pair<cvc5::internal::NodeTemplate<true>, unsigned int>>>::_Deque_impl" = type { %"struct.std::_Deque_base<std::pair<cvc5::internal::NodeTemplate<true>, unsigned int>, std::allocator<std::pair<cvc5::internal::NodeTemplate<true>, unsigned int>>>::_Deque_impl_data" }
%"struct.std::_Deque_base<std::pair<cvc5::internal::NodeTemplate<true>, unsigned int>, std::allocator<std::pair<cvc5::internal::NodeTemplate<true>, unsigned int>>>::_Deque_impl_data" = type { ptr, i64, %"struct.std::_Deque_iterator.467", %"struct.std::_Deque_iterator.467" }
%"struct.std::_Deque_iterator.467" = type { ptr, ptr, ptr, ptr }
%"class.std::unordered_map.468" = type { %"class.std::_Hashtable.469" }
%"class.std::_Hashtable.469" = type { ptr, i64, %"struct.std::__detail::_Hash_node_base", i64, %"struct.std::__detail::_Prime_rehash_policy", ptr }
%"class.std::allocator.487" = type { i8 }
%"struct.std::__detail::_Node_iterator" = type { %"struct.std::__detail::_Node_iterator_base" }
%"struct.std::__detail::_Hash_node_value_base.505" = type { %"struct.__gnu_cxx::__aligned_buffer.506" }
%"struct.__gnu_cxx::__aligned_buffer.506" = type { %"union.std::aligned_storage<24, 8>::type" }
%"union.std::aligned_storage<24, 8>::type" = type { [24 x i8] }
%"struct.std::hash" = type { i8 }
%"struct.std::hash.509" = type { i8 }
%"class.cvc5::internal::OstreamVoider" = type { i8 }
%"class.cvc5::internal::FatalStream" = type { i8 }
%"class.std::allocator.510" = type { i8 }
%"struct.std::__detail::_Node_iterator.513" = type { %"struct.std::__detail::_Node_iterator_base.443" }
%"class.std::allocator.514" = type { i8 }
%"class.__gnu_cxx::__normal_iterator" = type { ptr }
%"struct.std::pair.526" = type { %"struct.std::pair", %"class.cvc5::internal::NodeTemplate" }
%"struct.std::pair.523" = type <{ %"struct.std::__detail::_Node_iterator", i8, [7 x i8] }>
%"class.cvc5::context::Scope" = type { ptr, ptr, i32, ptr, %"class.std::vector.517" }
%"class.std::vector.517" = type { %"struct.std::_Vector_base.518" }
%"struct.std::_Vector_base.518" = type { %"struct.std::_Vector_base<cvc5::context::ContextObj *, std::allocator<cvc5::context::ContextObj *>>::_Vector_impl" }
%"struct.std::_Vector_base<cvc5::context::ContextObj *, std::allocator<cvc5::context::ContextObj *>>::_Vector_impl" = type { %"struct.std::_Vector_base<cvc5::context::ContextObj *, std::allocator<cvc5::context::ContextObj *>>::_Vector_impl_data" }
%"struct.std::_Vector_base<cvc5::context::ContextObj *, std::allocator<cvc5::context::ContextObj *>>::_Vector_impl_data" = type { ptr, ptr, ptr }
%"class.cvc5::context::Context" = type { ptr, %"class.std::vector.270", ptr, ptr }
%"class.std::vector.270" = type { %"struct.std::_Vector_base" }
%"struct.std::_Vector_base" = type { %"struct.std::_Vector_base<cvc5::context::Scope *, std::allocator<cvc5::context::Scope *>>::_Vector_impl" }
%"struct.std::_Vector_base<cvc5::context::Scope *, std::allocator<cvc5::context::Scope *>>::_Vector_impl" = type { %"struct.std::_Vector_base<cvc5::context::Scope *, std::allocator<cvc5::context::Scope *>>::_Vector_impl_data" }
%"struct.std::_Vector_base<cvc5::context::Scope *, std::allocator<cvc5::context::Scope *>>::_Vector_impl_data" = type { ptr, ptr, ptr }
%"class.__gnu_cxx::__normal_iterator.522" = type { ptr }
%"struct.std::_Hashtable<const std::pair<cvc5::internal::NodeTemplate<true>, unsigned int>, std::pair<const std::pair<cvc5::internal::NodeTemplate<true>, unsigned int>, const cvc5::internal::NodeTemplate<true>>, std::allocator<std::pair<const std::pair<cvc5::internal::NodeTemplate<true>, unsigned int>, const cvc5::internal::NodeTemplate<true>>>, std::__detail::_Select1st, std::equal_to<const std::pair<cvc5::internal::NodeTemplate<true>, unsigned int>>, cvc5::internal::PairHashFunction<cvc5::internal::NodeTemplate<true>, unsigned int>, std::__detail::_Mod_range_hashing, std::__detail::_Default_ranged_hash, std::__detail::_Prime_rehash_policy, std::__detail::_Hashtable_traits<true, false, true>>::_Scoped_node" = type { ptr, ptr }
%"struct.std::pair.528" = type { i8, i64 }
%"class.__gnu_cxx::__normal_iterator.531" = type { ptr }
%"struct.std::pair.535" = type { %"class.cvc5::internal::NodeTemplate", %"class.cvc5::internal::NodeTemplate" }
%"struct.std::pair.532" = type <{ %"struct.std::__detail::_Node_iterator.513", i8, [7 x i8] }>
%"struct.std::_Hashtable<const cvc5::internal::NodeTemplate<true>, std::pair<const cvc5::internal::NodeTemplate<true>, const cvc5::internal::NodeTemplate<true>>, std::allocator<std::pair<const cvc5::internal::NodeTemplate<true>, const cvc5::internal::NodeTemplate<true>>>, std::__detail::_Select1st, std::equal_to<const cvc5::internal::NodeTemplate<true>>, std::hash<cvc5::internal::Node>, std::__detail::_Mod_range_hashing, std::__detail::_Default_ranged_hash, std::__detail::_Prime_rehash_policy, std::__detail::_Hashtable_traits<true, false, true>>::_Scoped_node" = type { ptr, ptr }
%"struct.std::__detail::_Node_const_iterator.556" = type { %"struct.std::__detail::_Node_iterator_base.557" }
%"struct.std::__detail::_Node_iterator_base.557" = type { ptr }
%"struct.std::__detail::_Node_iterator.558" = type { %"struct.std::__detail::_Node_iterator_base.557" }
%"class.cvc5::internal::expr::NodeValue::iterator" = type { ptr }
%"struct.std::pair.559" = type { %"class.cvc5::internal::NodeTemplate.313", %"class.cvc5::internal::NodeTemplate.313" }
%"class.cvc5::internal::expr::NodeValue::iterator.565" = type { ptr }
%"struct.std::__detail::_Hash_node_value_base.563" = type { %"struct.__gnu_cxx::__aligned_buffer.564" }
%"struct.__gnu_cxx::__aligned_buffer.564" = type { %"union.std::aligned_storage<16, 8>::type" }
%"struct.std::_Hashtable<cvc5::internal::NodeTemplate<false>, std::pair<const cvc5::internal::NodeTemplate<false>, cvc5::internal::NodeTemplate<false>>, std::allocator<std::pair<const cvc5::internal::NodeTemplate<false>, cvc5::internal::NodeTemplate<false>>>, std::__detail::_Select1st, std::equal_to<cvc5::internal::NodeTemplate<false>>, std::hash<cvc5::internal::TNode>, std::__detail::_Mod_range_hashing, std::__detail::_Default_ranged_hash, std::__detail::_Prime_rehash_policy, std::__detail::_Hashtable_traits<true, false, true>>::_Scoped_node" = type { ptr, ptr }
%"class.std::tuple.566" = type { %"struct.std::_Tuple_impl.567" }
%"struct.std::_Tuple_impl.567" = type { %"struct.std::_Head_base.568" }
%"struct.std::_Head_base.568" = type { ptr }
%"class.std::tuple.569" = type { i8 }
%"class.std::tuple.571" = type { %"struct.std::_Tuple_impl.572" }
%"struct.std::_Tuple_impl.572" = type { %"struct.std::_Head_base.573" }
%"struct.std::_Head_base.573" = type { ptr }

$_ZN4cvc57context15CDInsertHashMapISt4pairINS_8internal12NodeTemplateILb1EEEjES5_NS3_16PairHashFunctionIS5_jSt4hashIS5_ES8_IjEEEEC2EPNS0_7ContextE = comdat any

$_ZN4cvc57context15CDInsertHashMapINS_8internal12NodeTemplateILb1EEES4_St4hashIS4_EEC2EPNS0_7ContextE = comdat any

$_ZNSt10unique_ptrIN4cvc58internal19TConvProofGeneratorESt14default_deleteIS2_EEC2IS4_vEEDn = comdat any

$_ZNSt10unique_ptrIN4cvc58internal19TConvProofGeneratorESt14default_deleteIS2_EEC2IS4_vEEv = comdat any

$_ZNSt10unique_ptrIN4cvc58internal11LazyCDProofESt14default_deleteIS2_EEC2IS4_vEEDn = comdat any

$_ZN4cvc58internal14RtfTermContextC2Ev = comdat any

$_ZNSt10unique_ptrIN4cvc58internal19TConvProofGeneratorESt14default_deleteIS2_EE5resetEPS2_ = comdat any

$_ZNSt7__cxx1112basic_stringIcSt11char_traitsIcESaIcEEC2IS3_EEPKcRKS3_ = comdat any

$_ZNSt10unique_ptrIN4cvc58internal11LazyCDProofESt14default_deleteIS2_EE5resetEPS2_ = comdat any

$_ZN4cvc58internal14RtfTermContextD2Ev = comdat any

$_ZNSt10unique_ptrIN4cvc58internal11LazyCDProofESt14default_deleteIS2_EED2Ev = comdat any

$_ZNSt10unique_ptrIN4cvc58internal19TConvProofGeneratorESt14default_deleteIS2_EED2Ev = comdat any

$_ZN4cvc57context15CDInsertHashMapINS_8internal12NodeTemplateILb1EEES4_St4hashIS4_EED2Ev = comdat any

$_ZN4cvc57context15CDInsertHashMapISt4pairINS_8internal12NodeTemplateILb1EEEjES5_NS3_16PairHashFunctionIS5_jSt4hashIS5_ES8_IjEEEED2Ev = comdat any

$_ZN4cvc58internal6EnvObjD2Ev = comdat any

$_ZN4cvc58internal12NodeTemplateILb0EEC2ERKS2_ = comdat any

$_ZN4cvc58internal12NodeTemplateILb0EED2Ev = comdat any

$_ZNK4cvc58internal12NodeTemplateILb1EEeqILb0EEEbRKNS1_IXT_EEE = comdat any

$_ZNKSt6vectorIN4cvc58internal6theory11SkolemLemmaESaIS3_EE4sizeEv = comdat any

$_ZNSt6vectorIN4cvc58internal6theory11SkolemLemmaESaIS3_EEixEm = comdat any

$_ZN4cvc58internal9TrustNodeC2ERKS1_ = comdat any

$_ZN4cvc58internal9TrustNodeaSERKS1_ = comdat any

$_ZN4cvc58internal9TrustNodeD2Ev = comdat any

$_ZN4cvc58internal12NodeTemplateILb1EEC2ERKS2_ = comdat any

$_ZNKSt10unique_ptrIN4cvc58internal19TConvProofGeneratorESt14default_deleteIS2_EE3getEv = comdat any

$_ZN4cvc58internal12NodeTemplateILb1EED2Ev = comdat any

$_ZN4cvc58internal12NodeTemplateILb0EEC2ERKNS1_ILb1EEE = comdat any

$_ZN4cvc58internal11__cvc5_truecvbEv = comdat any

$_ZNK4cvc58internal5NullCcvNS0_11Cvc5ostreamEEv = comdat any

$_ZNK4cvc58internal6TraceCclEv = comdat any

$_ZN4cvc58internal11Cvc5ostreamlsIA61_cEERS1_RKT_ = comdat any

$_ZN4cvc58internal11Cvc5ostreamlsEPFRSoS2_E = comdat any

$_ZNKSt10unique_ptrIN4cvc58internal11LazyCDProofESt14default_deleteIS2_EE3getEv = comdat any

$_ZNKSt10unique_ptrIN4cvc58internal11LazyCDProofESt14default_deleteIS2_EEptEv = comdat any

$_ZNSaIN4cvc58internal12NodeTemplateILb1EEEEC2Ev = comdat any

$_ZNSt6vectorIN4cvc58internal12NodeTemplateILb1EEESaIS3_EEC2ESt16initializer_listIS3_ERKS4_ = comdat any

$_ZNSt6vectorIN4cvc58internal12NodeTemplateILb1EEESaIS3_EEC2Ev = comdat any

$_ZNSt6vectorIN4cvc58internal12NodeTemplateILb1EEESaIS3_EED2Ev = comdat any

$_ZNSaIN4cvc58internal12NodeTemplateILb1EEEED2Ev = comdat any

$_ZNSt6vectorIbSaIbEEC2Ev = comdat any

$_ZN4cvc58internal12NodeTemplateILb1EEC2ERKNS1_ILb0EEE = comdat any

$_ZNSt6vectorIbSaIbEE9push_backEb = comdat any

$_ZNSt4pairIN4cvc58internal12NodeTemplateILb1EEEjEC2IS3_jTnNSt9enable_ifIXsr6__and_ISt24is_default_constructibleIT_ES7_IT0_ESt6__not_ISt6__and_IJSt37__is_implicitly_default_constructibleIS8_ESE_ISA_EEEEEE5valueEbE4typeELb0EEEv = comdat any

$_ZN4cvc58internal12NodeTemplateILb1EEC2Ev = comdat any

$_ZNSt8__detail20_Node_const_iteratorISt4pairIKS1_IN4cvc58internal12NodeTemplateILb1EEEjEKS5_ELb0ELb1EEC2Ev = comdat any

$_ZNSt4pairIN4cvc58internal12NodeTemplateILb1EEEjEaSEOS4_ = comdat any

$_ZNSt4pairIN4cvc58internal12NodeTemplateILb1EEEjED2Ev = comdat any

$_ZNK4cvc57context15CDInsertHashMapISt4pairINS_8internal12NodeTemplateILb1EEEjES5_NS3_16PairHashFunctionIS5_jSt4hashIS5_ES8_IjEEEE4findERKS6_ = comdat any

$_ZN4cvc58internal12NodeTemplateILb1EEaSERKS2_ = comdat any

$_ZN4cvc58internal11Cvc5ostreamlsIA7_cEERS1_RKT_ = comdat any

$_ZN4cvc58internal11Cvc5ostreamlsINS0_12NodeTemplateILb1EEEEERS1_RKT_ = comdat any

$_ZN4cvc58internal11Cvc5ostreamlsIA3_cEERS1_RKT_ = comdat any

$_ZN4cvc58internal11Cvc5ostreamlsIjEERS1_RKT_ = comdat any

$_ZNSt8__detailneERKNS_19_Node_iterator_baseISt4pairIKS1_IN4cvc58internal12NodeTemplateILb1EEEjEKS5_ELb1EEESC_ = comdat any

$_ZNK4cvc57context15CDInsertHashMapISt4pairINS_8internal12NodeTemplateILb1EEEjES5_NS3_16PairHashFunctionIS5_jSt4hashIS5_ES8_IjEEEE3endEv = comdat any

$_ZN4cvc58internal11Cvc5ostreamlsIA20_cEERS1_RKT_ = comdat any

$_ZNSt6vectorIbSaIbEE8pop_backEv = comdat any

$_ZNSt6vectorIbSaIbEE4backEv = comdat any

$_ZNKSt14_Bit_referencecvbEv = comdat any

$_ZN4cvc58internal9TrustNodeC2Ev = comdat any

$_ZN4cvc58internal11Cvc5ostreamlsIA12_cEERS1_RKT_ = comdat any

$_ZN4cvc58internal11Cvc5ostreamlsIA2_cEERS1_RKT_ = comdat any

$_ZN4cvc58internal11Cvc5ostreamlsIbEERS1_RKT_ = comdat any

$_ZNK4cvc58internal12NodeTemplateILb1EE6isNullEv = comdat any

$_ZNSt6vectorIN4cvc58internal6theory11SkolemLemmaESaIS3_EE9push_backEOS3_ = comdat any

$_ZN4cvc58internal6theory11SkolemLemmaD2Ev = comdat any

$_ZN4cvc58internal11Cvc5ostreamlsIA21_cEERS1_RKT_ = comdat any

$_ZN4cvc57context15CDInsertHashMapISt4pairINS_8internal12NodeTemplateILb1EEEjES5_NS3_16PairHashFunctionIS5_jSt4hashIS5_ES8_IjEEEE6insertERKS6_RKS5_ = comdat any

$_ZNK4cvc58internal12NodeTemplateILb1EE9isClosureEv = comdat any

$_ZNK4cvc58internal12NodeTemplateILb1EE14getNumChildrenEv = comdat any

$_ZN4cvc58internal11Cvc5ostreamlsIA23_cEERS1_RKT_ = comdat any

$_ZNSt6vectorIbSaIbEEixEm = comdat any

$_ZNKSt6vectorIbSaIbEE4sizeEv = comdat any

$_ZNSt14_Bit_referenceaSEb = comdat any

$_ZN4cvc58internal11Cvc5ostreamlsIA13_cEERS1_RKT_ = comdat any

$_ZN4cvc58internal11Cvc5ostreamlsIA15_cEERS1_RKT_ = comdat any

$_ZNK4cvc58internal12NodeTemplateILb1EE11getMetaKindEv = comdat any

$_ZNSt6vectorIN4cvc58internal12NodeTemplateILb1EEESaIS3_EE9push_backEOS3_ = comdat any

$_ZNK4cvc58internal12NodeTemplateILb1EE11getOperatorEv = comdat any

$_ZNK4cvc58internal12NodeTemplateILb1EEixEi = comdat any

$_ZNSt4pairIN4cvc58internal12NodeTemplateILb1EEEjEC2IS3_RjTnNSt9enable_ifIXaaclsr5_PCCPE22_MoveConstructiblePairIT_T0_EEclsr5_PCCPE30_ImplicitlyMoveConvertiblePairIS8_S9_EEEbE4typeELb1EEEOS8_OS9_ = comdat any

$_ZNKSt8__detail20_Node_const_iteratorISt4pairIKS1_IN4cvc58internal12NodeTemplateILb1EEEjEKS5_ELb0ELb1EEdeEv = comdat any

$_ZNK4cvc58internal12NodeTemplateILb1EEneILb1EEEbRKNS1_IXT_EEE = comdat any

$_ZNSt6vectorIN4cvc58internal12NodeTemplateILb1EEESaIS3_EE9push_backERKS3_ = comdat any

$_ZN4cvc58internal11NodeManager6mkNodeILb1EEENS0_12NodeTemplateILb1EEENS0_4kind6Kind_tERKSt6vectorINS3_IXT_EEESaIS8_EE = comdat any

$_ZNK4cvc58internal12NodeTemplateILb1EE7getKindEv = comdat any

$_ZNSt6vectorIbSaIbEED2Ev = comdat any

$_ZN4cvc58internal9TCtxStackD2Ev = comdat any

$_ZN4cvc58internal11NodeManager16getSkolemManagerEv = comdat any

$_ZNK4cvc58internal12NodeTemplateILb0EE7getTypeEb = comdat any

$_ZNK4cvc58internal12NodeTemplateILb0EE7getKindEv = comdat any

$_ZNK4cvc58internal8TypeNode9isBooleanEv = comdat any

$_ZN4cvc58internallsERSoRKNS0_8TypeNodeE = comdat any

$_ZN4cvc58internal14LogicExceptionC2ERKNSt7__cxx1112basic_stringIcSt11char_traitsIcESaIcEEE = comdat any

$_ZN4cvc58internal14LogicExceptionD2Ev = comdat any

$_ZNK4cvc58internal18RemoveTermFormulas16getSkolemForNodeENS0_12NodeTemplateILb1EEE = comdat any

$_ZN4cvc58internal11Cvc5ostreamlsIA41_cEERS1_RKT_ = comdat any

$_ZN4cvc57context15CDInsertHashMapINS_8internal12NodeTemplateILb1EEES4_St4hashIS4_EE6insertERKS4_S9_ = comdat any

$_ZN4cvc58internal11NodeManager6mkNodeENS0_4kind6Kind_tENS0_12NodeTemplateILb0EEES5_S5_ = comdat any

$_ZNK4cvc58internal12NodeTemplateILb0EEixEi = comdat any

$_ZNK4cvc58internal12NodeTemplateILb1EE6eqNodeILb0EEES2_RKNS1_IXT_EEE = comdat any

$_ZN4cvc58internal11Cvc5ostreamlsIA34_cEERS1_RKT_ = comdat any

$_ZN4cvc58internal11Cvc5ostreamlsIA16_cEERS1_RKT_ = comdat any

$_ZNK4cvc58internal12NodeTemplateILb0EE6eqNodeILb1EEENS1_ILb1EEERKNS1_IXT_EEE = comdat any

$_ZN4cvc58internal11Cvc5ostreamlsIA45_cEERS1_RKT_ = comdat any

$_ZNK4cvc58internal12NodeTemplateILb0EE10substituteES2_S2_ = comdat any

$_ZN4cvc58internal11NodeManager6mkNodeENS0_4kind6Kind_tENS0_12NodeTemplateILb0EEES5_ = comdat any

$_ZN4cvc58internal11Cvc5ostreamlsIA56_cEERS1_RKT_ = comdat any

$_ZN4cvc58internal11Cvc5ostreamlsIA37_cEERS1_RKT_ = comdat any

$_ZN4cvc58internal11Cvc5ostreamlsIA6_cEERS1_RKT_ = comdat any

$_ZN4cvc58internal11Cvc5ostreamlsINS0_12NodeTemplateILb0EEEEERS1_RKT_ = comdat any

$_ZN4cvc58internal11Cvc5ostreamlsIA19_cEERS1_RKT_ = comdat any

$_ZN4cvc58internal12NodeTemplateILb1EE4nullEv = comdat any

$_ZN4cvc58internal8TypeNodeD2Ev = comdat any

$_ZNK4cvc58internal12NodeTemplateILb1EE6eqNodeILb1EEES2_RKNS1_IXT_EEE = comdat any

$_ZStneIN4cvc58internal19TConvProofGeneratorESt14default_deleteIS2_EEbRKSt10unique_ptrIT_T0_EDn = comdat any

$_ZN4cvc58internal12NodeTemplateILb1EE6s_nullE = comdat any

$_ZN4cvc58internal4expr9NodeValue4nullEv = comdat any

$_ZN4cvc58internal12NodeTemplateILb1EEC2EPKNS0_4expr9NodeValueE = comdat any

$_ZNSt15__uniq_ptr_dataIN4cvc58internal19TConvProofGeneratorESt14default_deleteIS2_ELb1ELb1EEC2Ev = comdat any

$_ZNSt15__uniq_ptr_implIN4cvc58internal19TConvProofGeneratorESt14default_deleteIS2_EEC2Ev = comdat any

$_ZNSt5tupleIJPN4cvc58internal19TConvProofGeneratorESt14default_deleteIS2_EEEC2ILb1ETnNSt9enable_ifIXclsr17_TupleConstraintsIXT_ES3_S5_EE37__is_implicitly_default_constructibleEEbE4typeELb1EEEv = comdat any

$_ZNSt11_Tuple_implILm0EJPN4cvc58internal19TConvProofGeneratorESt14default_deleteIS2_EEEC2Ev = comdat any

$__clang_call_terminate = comdat any

$_ZNSt11_Tuple_implILm1EJSt14default_deleteIN4cvc58internal19TConvProofGeneratorEEEEC2Ev = comdat any

$_ZNSt10_Head_baseILm0EPN4cvc58internal19TConvProofGeneratorELb0EEC2Ev = comdat any

$_ZNSt10_Head_baseILm1ESt14default_deleteIN4cvc58internal19TConvProofGeneratorEELb1EEC2Ev = comdat any

$_ZNSt15__uniq_ptr_dataIN4cvc58internal11LazyCDProofESt14default_deleteIS2_ELb1ELb1EEC2Ev = comdat any

$_ZNSt15__uniq_ptr_implIN4cvc58internal11LazyCDProofESt14default_deleteIS2_EEC2Ev = comdat any

$_ZNSt5tupleIJPN4cvc58internal11LazyCDProofESt14default_deleteIS2_EEEC2ILb1ETnNSt9enable_ifIXclsr17_TupleConstraintsIXT_ES3_S5_EE37__is_implicitly_default_constructibleEEbE4typeELb1EEEv = comdat any

$_ZNSt11_Tuple_implILm0EJPN4cvc58internal11LazyCDProofESt14default_deleteIS2_EEEC2Ev = comdat any

$_ZNSt11_Tuple_implILm1EJSt14default_deleteIN4cvc58internal11LazyCDProofEEEEC2Ev = comdat any

$_ZNSt10_Head_baseILm0EPN4cvc58internal11LazyCDProofELb0EEC2Ev = comdat any

$_ZNSt10_Head_baseILm1ESt14default_deleteIN4cvc58internal11LazyCDProofEELb1EEC2Ev = comdat any

$_ZN4cvc58internal11TermContextC2Ev = comdat any

$_ZN4cvc58internal11TermContextD2Ev = comdat any

$_ZN4cvc58internal11Cvc5ostreamC2Ev = comdat any

$_ZN4cvc58internal11Cvc5ostreamC2EPSo = comdat any

$_ZNSt12_Vector_baseIN4cvc58internal12NodeTemplateILb1EEESaIS3_EEC2Ev = comdat any

$_ZNSt12_Vector_baseIN4cvc58internal12NodeTemplateILb1EEESaIS3_EE12_Vector_implC2Ev = comdat any

$_ZNSt12_Vector_baseIN4cvc58internal12NodeTemplateILb1EEESaIS3_EE17_Vector_impl_dataC2Ev = comdat any

$_ZNSt15__new_allocatorIN4cvc58internal12NodeTemplateILb1EEEEC2Ev = comdat any

$_ZNSt13_Bvector_baseISaIbEEC2Ev = comdat any

$_ZNSt13_Bvector_baseISaIbEE13_Bvector_implC2Ev = comdat any

$_ZNSaImEC2Ev = comdat any

$_ZNSt15__new_allocatorImEC2Ev = comdat any

$_ZNSt13_Bit_iteratorC2Ev = comdat any

$_ZNSt18_Bit_iterator_baseC2EPmj = comdat any

$_ZNSt8__detail19_Node_iterator_baseISt4pairIKS1_IN4cvc58internal12NodeTemplateILb1EEEjEKS5_ELb1EEC2Ev = comdat any

$_ZNSt6vectorISt4pairIN4cvc58internal12NodeTemplateILb1EEEjESaIS5_EED2Ev = comdat any

$_ZN4cvc58internal9TCtxStackD0Ev = comdat any

$_ZSt8_DestroyIPSt4pairIN4cvc58internal12NodeTemplateILb1EEEjES5_EvT_S7_RSaIT0_E = comdat any

$_ZNSt12_Vector_baseISt4pairIN4cvc58internal12NodeTemplateILb1EEEjESaIS5_EE19_M_get_Tp_allocatorEv = comdat any

$_ZNSt12_Vector_baseISt4pairIN4cvc58internal12NodeTemplateILb1EEEjESaIS5_EED2Ev = comdat any

$_ZSt8_DestroyIPSt4pairIN4cvc58internal12NodeTemplateILb1EEEjEEvT_S7_ = comdat any

$_ZNSt12_Destroy_auxILb0EE9__destroyIPSt4pairIN4cvc58internal12NodeTemplateILb1EEEjEEEvT_S9_ = comdat any

$_ZSt8_DestroyISt4pairIN4cvc58internal12NodeTemplateILb1EEEjEEvPT_ = comdat any

$_ZNSt12_Vector_baseISt4pairIN4cvc58internal12NodeTemplateILb1EEEjESaIS5_EE13_M_deallocateEPS5_m = comdat any

$_ZNSt12_Vector_baseISt4pairIN4cvc58internal12NodeTemplateILb1EEEjESaIS5_EE12_Vector_implD2Ev = comdat any

$_ZNSt16allocator_traitsISaISt4pairIN4cvc58internal12NodeTemplateILb1EEEjEEE10deallocateERS6_PS5_m = comdat any

$_ZNSt15__new_allocatorISt4pairIN4cvc58internal12NodeTemplateILb1EEEjEE10deallocateEPS5_m = comdat any

$_ZNSaISt4pairIN4cvc58internal12NodeTemplateILb1EEEjEED2Ev = comdat any

$_ZNSt15__new_allocatorISt4pairIN4cvc58internal12NodeTemplateILb1EEEjEED2Ev = comdat any

$_ZNKSt10unique_ptrIN4cvc58internal13SkolemManagerESt14default_deleteIS2_EE3getEv = comdat any

$_ZNKSt15__uniq_ptr_implIN4cvc58internal13SkolemManagerESt14default_deleteIS2_EE6_M_ptrEv = comdat any

$_ZSt3getILm0EJPN4cvc58internal13SkolemManagerESt14default_deleteIS2_EEERKNSt13tuple_elementIXT_ESt5tupleIJDpT0_EEE4typeERKSA_ = comdat any

$_ZSt12__get_helperILm0EPN4cvc58internal13SkolemManagerEJSt14default_deleteIS2_EEERKT0_RKSt11_Tuple_implIXT_EJS6_DpT1_EE = comdat any

$_ZNSt11_Tuple_implILm0EJPN4cvc58internal13SkolemManagerESt14default_deleteIS2_EEE7_M_headERKS6_ = comdat any

$_ZNSt10_Head_baseILm0EPN4cvc58internal13SkolemManagerELb0EE7_M_headERKS4_ = comdat any

$_ZNK4cvc58internal8TypeNode7getKindEv = comdat any

$_ZNK4cvc58internal8TypeNode8getConstINS0_12TypeConstantEEERKT_v = comdat any

$_ZNK4cvc58internal8TypeNode8toStreamERSo = comdat any

$_ZN4cvc58internal9ExceptionC2ERKNSt7__cxx1112basic_stringIcSt11char_traitsIcESaIcEEE = comdat any

$_ZN4cvc58internal14LogicExceptionD0Ev = comdat any

$_ZNK4cvc58internal9Exception4whatEv = comdat any

$_ZNSt9exceptionC2Ev = comdat any

$_ZN4cvc58internal9ExceptionD2Ev = comdat any

$_ZN4cvc58internal4expr9NodeValue3decEv = comdat any

$_ZNK4cvc57context15CDInsertHashMapINS_8internal12NodeTemplateILb1EEES4_St4hashIS4_EE4findERKS4_ = comdat any

$_ZNSt8__detailneERKNS_19_Node_iterator_baseISt4pairIKN4cvc58internal12NodeTemplateILb1EEES6_ELb1EEESA_ = comdat any

$_ZNK4cvc57context15CDInsertHashMapINS_8internal12NodeTemplateILb1EEES4_St4hashIS4_EE3endEv = comdat any

$_ZNKSt8__detail20_Node_const_iteratorISt4pairIKN4cvc58internal12NodeTemplateILb1EEES6_ELb0ELb1EEptEv = comdat any

$_ZNK4cvc57context13InsertHashMapINS_8internal12NodeTemplateILb1EEES4_St4hashIS4_EE4findERKS4_ = comdat any

$_ZNKSt13unordered_mapIKN4cvc58internal12NodeTemplateILb1EEES4_St4hashIS3_ESt8equal_toIS4_ESaISt4pairIS4_S4_EEE4findERS4_ = comdat any

$_ZNKSt10_HashtableIKN4cvc58internal12NodeTemplateILb1EEESt4pairIS4_S4_ESaIS6_ENSt8__detail10_Select1stESt8equal_toIS4_ESt4hashIS3_ENS8_18_Mod_range_hashingENS8_20_Default_ranged_hashENS8_20_Prime_rehash_policyENS8_17_Hashtable_traitsILb1ELb0ELb1EEEE4findERS4_ = comdat any

$_ZNKSt10_HashtableIKN4cvc58internal12NodeTemplateILb1EEESt4pairIS4_S4_ESaIS6_ENSt8__detail10_Select1stESt8equal_toIS4_ESt4hashIS3_ENS8_18_Mod_range_hashingENS8_20_Default_ranged_hashENS8_20_Prime_rehash_policyENS8_17_Hashtable_traitsILb1ELb0ELb1EEEE4sizeEv = comdat any

$_ZNSt10_HashtableIKN4cvc58internal12NodeTemplateILb1EEESt4pairIS4_S4_ESaIS6_ENSt8__detail10_Select1stESt8equal_toIS4_ESt4hashIS3_ENS8_18_Mod_range_hashingENS8_20_Default_ranged_hashENS8_20_Prime_rehash_policyENS8_17_Hashtable_traitsILb1ELb0ELb1EEEE22__small_size_thresholdEv = comdat any

$_ZNKSt10_HashtableIKN4cvc58internal12NodeTemplateILb1EEESt4pairIS4_S4_ESaIS6_ENSt8__detail10_Select1stESt8equal_toIS4_ESt4hashIS3_ENS8_18_Mod_range_hashingENS8_20_Default_ranged_hashENS8_20_Prime_rehash_policyENS8_17_Hashtable_traitsILb1ELb0ELb1EEEE5beginEv = comdat any

$_ZNKSt10_HashtableIKN4cvc58internal12NodeTemplateILb1EEESt4pairIS4_S4_ESaIS6_ENSt8__detail10_Select1stESt8equal_toIS4_ESt4hashIS3_ENS8_18_Mod_range_hashingENS8_20_Default_ranged_hashENS8_20_Prime_rehash_policyENS8_17_Hashtable_traitsILb1ELb0ELb1EEEE3endEv = comdat any

$_ZNKSt8__detail15_Hashtable_baseIKN4cvc58internal12NodeTemplateILb1EEESt4pairIS5_S5_ENS_10_Select1stESt8equal_toIS5_ESt4hashIS4_ENS_18_Mod_range_hashingENS_20_Default_ranged_hashENS_17_Hashtable_traitsILb1ELb0ELb1EEEE13_M_key_equalsERS5_RKNS_16_Hash_node_valueIS7_Lb1EEE = comdat any

$_ZNSt8__detail20_Node_const_iteratorISt4pairIKN4cvc58internal12NodeTemplateILb1EEES6_ELb0ELb1EEppEv = comdat any

$_ZNKSt8__detail15_Hash_code_baseIKN4cvc58internal12NodeTemplateILb1EEESt4pairIS5_S5_ENS_10_Select1stESt4hashIS4_ENS_18_Mod_range_hashingENS_20_Default_ranged_hashELb1EE12_M_hash_codeERS5_ = comdat any

$_ZNKSt10_HashtableIKN4cvc58internal12NodeTemplateILb1EEESt4pairIS4_S4_ESaIS6_ENSt8__detail10_Select1stESt8equal_toIS4_ESt4hashIS3_ENS8_18_Mod_range_hashingENS8_20_Default_ranged_hashENS8_20_Prime_rehash_policyENS8_17_Hashtable_traitsILb1ELb0ELb1EEEE15_M_bucket_indexEm = comdat any

$_ZNKSt10_HashtableIKN4cvc58internal12NodeTemplateILb1EEESt4pairIS4_S4_ESaIS6_ENSt8__detail10_Select1stESt8equal_toIS4_ESt4hashIS3_ENS8_18_Mod_range_hashingENS8_20_Default_ranged_hashENS8_20_Prime_rehash_policyENS8_17_Hashtable_traitsILb1ELb0ELb1EEEE12_M_find_nodeEmRS4_m = comdat any

$_ZNSt8__detail20_Node_const_iteratorISt4pairIKN4cvc58internal12NodeTemplateILb1EEES6_ELb0ELb1EEC2EPNS_10_Hash_nodeIS7_Lb1EEE = comdat any

$_ZNSt8__detail22_Hashtable_hash_traitsISt4hashIN4cvc58internal12NodeTemplateILb1EEEEE22__small_size_thresholdEv = comdat any

$_ZNKSt10_HashtableIKN4cvc58internal12NodeTemplateILb1EEESt4pairIS4_S4_ESaIS6_ENSt8__detail10_Select1stESt8equal_toIS4_ESt4hashIS3_ENS8_18_Mod_range_hashingENS8_20_Default_ranged_hashENS8_20_Prime_rehash_policyENS8_17_Hashtable_traitsILb1ELb0ELb1EEEE8_M_beginEv = comdat any

$_ZNKSt8__detail15_Hashtable_baseIKN4cvc58internal12NodeTemplateILb1EEESt4pairIS5_S5_ENS_10_Select1stESt8equal_toIS5_ESt4hashIS4_ENS_18_Mod_range_hashingENS_20_Default_ranged_hashENS_17_Hashtable_traitsILb1ELb0ELb1EEEE5_M_eqEv = comdat any

$_ZNKSt8equal_toIKN4cvc58internal12NodeTemplateILb1EEEEclERS4_S6_ = comdat any

$_ZNKSt8__detail10_Select1stclIRKSt4pairIKN4cvc58internal12NodeTemplateILb1EEES7_EEEONS0_10__1st_typeIT_E4typeEOSC_ = comdat any

$_ZNKSt8__detail21_Hash_node_value_baseISt4pairIKN4cvc58internal12NodeTemplateILb1EEES6_EE4_M_vEv = comdat any

$_ZNKSt8__detail21_Hashtable_ebo_helperILi0ESt8equal_toIKN4cvc58internal12NodeTemplateILb1EEEELb1EE7_M_cgetEv = comdat any

$_ZNK4cvc58internal12NodeTemplateILb1EEeqILb1EEEbRKNS1_IXT_EEE = comdat any

$_ZNK4cvc58internal12NodeTemplateILb1EE21assertTNodeNotExpiredEv = comdat any

$_ZNKSt8__detail21_Hash_node_value_baseISt4pairIKN4cvc58internal12NodeTemplateILb1EEES6_EE9_M_valptrEv = comdat any

$_ZNK9__gnu_cxx16__aligned_bufferISt4pairIKN4cvc58internal12NodeTemplateILb1EEES6_EE6_M_ptrEv = comdat any

$_ZNK9__gnu_cxx16__aligned_bufferISt4pairIKN4cvc58internal12NodeTemplateILb1EEES6_EE7_M_addrEv = comdat any

$_ZNSt8__detail19_Node_iterator_baseISt4pairIKN4cvc58internal12NodeTemplateILb1EEES6_ELb1EE7_M_incrEv = comdat any

$_ZNKSt8__detail10_Hash_nodeISt4pairIKN4cvc58internal12NodeTemplateILb1EEES6_ELb1EE7_M_nextEv = comdat any

$_ZNKSt8__detail15_Hash_code_baseIKN4cvc58internal12NodeTemplateILb1EEESt4pairIS5_S5_ENS_10_Select1stESt4hashIS4_ENS_18_Mod_range_hashingENS_20_Default_ranged_hashELb1EE7_M_hashEv = comdat any

$_ZNKSt8__detail21_Hashtable_ebo_helperILi1ESt4hashIN4cvc58internal12NodeTemplateILb1EEEELb1EE7_M_cgetEv = comdat any

$_ZNKSt8__detail15_Hash_code_baseIKN4cvc58internal12NodeTemplateILb1EEESt4pairIS5_S5_ENS_10_Select1stESt4hashIS4_ENS_18_Mod_range_hashingENS_20_Default_ranged_hashELb1EE15_M_bucket_indexEmm = comdat any

$_ZNKSt8__detail18_Mod_range_hashingclEmm = comdat any

$_ZNKSt10_HashtableIKN4cvc58internal12NodeTemplateILb1EEESt4pairIS4_S4_ESaIS6_ENSt8__detail10_Select1stESt8equal_toIS4_ESt4hashIS3_ENS8_18_Mod_range_hashingENS8_20_Default_ranged_hashENS8_20_Prime_rehash_policyENS8_17_Hashtable_traitsILb1ELb0ELb1EEEE19_M_find_before_nodeEmRS4_m = comdat any

$_ZNKSt8__detail15_Hashtable_baseIKN4cvc58internal12NodeTemplateILb1EEESt4pairIS5_S5_ENS_10_Select1stESt8equal_toIS5_ESt4hashIS4_ENS_18_Mod_range_hashingENS_20_Default_ranged_hashENS_17_Hashtable_traitsILb1ELb0ELb1EEEE9_M_equalsERS5_mRKNS_16_Hash_node_valueIS7_Lb1EEE = comdat any

$_ZNKSt10_HashtableIKN4cvc58internal12NodeTemplateILb1EEESt4pairIS4_S4_ESaIS6_ENSt8__detail10_Select1stESt8equal_toIS4_ESt4hashIS3_ENS8_18_Mod_range_hashingENS8_20_Default_ranged_hashENS8_20_Prime_rehash_policyENS8_17_Hashtable_traitsILb1ELb0ELb1EEEE15_M_bucket_indexERKNS8_16_Hash_node_valueIS6_Lb1EEE = comdat any

$_ZNSt8__detail15_Hashtable_baseIKN4cvc58internal12NodeTemplateILb1EEESt4pairIS5_S5_ENS_10_Select1stESt8equal_toIS5_ESt4hashIS4_ENS_18_Mod_range_hashingENS_20_Default_ranged_hashENS_17_Hashtable_traitsILb1ELb0ELb1EEEE9_S_equalsEmRKNS_21_Hash_node_code_cacheILb1EEE = comdat any

$_ZNKSt8__detail15_Hash_code_baseIKN4cvc58internal12NodeTemplateILb1EEESt4pairIS5_S5_ENS_10_Select1stESt4hashIS4_ENS_18_Mod_range_hashingENS_20_Default_ranged_hashELb1EE15_M_bucket_indexERKNS_16_Hash_node_valueIS7_Lb1EEEm = comdat any

$_ZNSt8__detail19_Node_iterator_baseISt4pairIKN4cvc58internal12NodeTemplateILb1EEES6_ELb1EEC2EPNS_10_Hash_nodeIS7_Lb1EEE = comdat any

$_ZNK4cvc57context13InsertHashMapINS_8internal12NodeTemplateILb1EEES4_St4hashIS4_EE3endEv = comdat any

$_ZNKSt13unordered_mapIKN4cvc58internal12NodeTemplateILb1EEES4_St4hashIS3_ESt8equal_toIS4_ESaISt4pairIS4_S4_EEE3endEv = comdat any

$_ZNSt8__detail21_Hash_node_value_baseISt4pairIKN4cvc58internal12NodeTemplateILb1EEES6_EE9_M_valptrEv = comdat any

$_ZN9__gnu_cxx16__aligned_bufferISt4pairIKN4cvc58internal12NodeTemplateILb1EEES6_EE6_M_ptrEv = comdat any

$_ZN9__gnu_cxx16__aligned_bufferISt4pairIKN4cvc58internal12NodeTemplateILb1EEES6_EE7_M_addrEv = comdat any

$_ZNSt11char_traitsIcE6lengthEPKc = comdat any

$_ZNSt7__cxx1112basic_stringIcSt11char_traitsIcESaIcEE12_M_constructIPKcEEvT_S8_St20forward_iterator_tag = comdat any

$_ZNSt7__cxx1112basic_stringIcSt11char_traitsIcESaIcEE12_Alloc_hiderD2Ev = comdat any

$_ZSt8distanceIPKcENSt15iterator_traitsIT_E15difference_typeES3_S3_ = comdat any

$_ZZNSt7__cxx1112basic_stringIcSt11char_traitsIcESaIcEE12_M_constructIPKcEEvT_S8_St20forward_iterator_tagEN6_GuardC2EPS4_ = comdat any

$_ZZNSt7__cxx1112basic_stringIcSt11char_traitsIcESaIcEE12_M_constructIPKcEEvT_S8_St20forward_iterator_tagEN6_GuardD2Ev = comdat any

$_ZSt10__distanceIPKcENSt15iterator_traitsIT_E15difference_typeES3_S3_St26random_access_iterator_tag = comdat any

$_ZSt19__iterator_categoryIPKcENSt15iterator_traitsIT_E17iterator_categoryERKS3_ = comdat any

$_ZNSt8ios_base5iwordEi = comdat any

$_ZNK4cvc58internal12NodeTemplateILb0EE21assertTNodeNotExpiredEv = comdat any

$_ZN4cvc57context13InsertHashMapISt4pairINS_8internal12NodeTemplateILb1EEEjES5_NS3_16PairHashFunctionIS5_jSt4hashIS5_ES8_IjEEEEC2Ev = comdat any

$_ZN4cvc57context15CDInsertHashMapISt4pairINS_8internal12NodeTemplateILb1EEEjES5_NS3_16PairHashFunctionIS5_jSt4hashIS5_ES8_IjEEEE4saveEPNS0_20ContextMemoryManagerE = comdat any

$_ZN4cvc57context15CDInsertHashMapISt4pairINS_8internal12NodeTemplateILb1EEEjES5_NS3_16PairHashFunctionIS5_jSt4hashIS5_ES8_IjEEEE7restoreEPNS0_10ContextObjE = comdat any

$_ZN4cvc57context15CDInsertHashMapISt4pairINS_8internal12NodeTemplateILb1EEEjES5_NS3_16PairHashFunctionIS5_jSt4hashIS5_ES8_IjEEEED0Ev = comdat any

$_ZNSt5dequeISt4pairIN4cvc58internal12NodeTemplateILb1EEEjESaIS5_EEC2Ev = comdat any

$_ZNSt13unordered_mapIKSt4pairIN4cvc58internal12NodeTemplateILb1EEEjEKS4_NS2_16PairHashFunctionIS4_jSt4hashIS4_ES9_IjEEESt8equal_toIS6_ESaIS0_IS6_S7_EEEC2Ev = comdat any

$_ZNSt11_Deque_baseISt4pairIN4cvc58internal12NodeTemplateILb1EEEjESaIS5_EEC2Ev = comdat any

$_ZNSt11_Deque_baseISt4pairIN4cvc58internal12NodeTemplateILb1EEEjESaIS5_EE11_Deque_implC2Ev = comdat any

$_ZNSt11_Deque_baseISt4pairIN4cvc58internal12NodeTemplateILb1EEEjESaIS5_EE17_M_initialize_mapEm = comdat any

$_ZNSt11_Deque_baseISt4pairIN4cvc58internal12NodeTemplateILb1EEEjESaIS5_EE11_Deque_implD2Ev = comdat any

$_ZNSaISt4pairIN4cvc58internal12NodeTemplateILb1EEEjEEC2Ev = comdat any

$_ZNSt11_Deque_baseISt4pairIN4cvc58internal12NodeTemplateILb1EEEjESaIS5_EE16_Deque_impl_dataC2Ev = comdat any

$_ZNSt15__new_allocatorISt4pairIN4cvc58internal12NodeTemplateILb1EEEjEEC2Ev = comdat any

$_ZNSt15_Deque_iteratorISt4pairIN4cvc58internal12NodeTemplateILb1EEEjERS5_PS5_EC2Ev = comdat any

$_ZSt16__deque_buf_sizem = comdat any

$_ZSt3maxImERKT_S2_S2_ = comdat any

$_ZNSt11_Deque_baseISt4pairIN4cvc58internal12NodeTemplateILb1EEEjESaIS5_EE15_M_allocate_mapEm = comdat any

$_ZNSt11_Deque_baseISt4pairIN4cvc58internal12NodeTemplateILb1EEEjESaIS5_EE15_M_create_nodesEPPS5_S9_ = comdat any

$_ZNSt11_Deque_baseISt4pairIN4cvc58internal12NodeTemplateILb1EEEjESaIS5_EE17_M_deallocate_mapEPPS5_m = comdat any

$_ZNSt15_Deque_iteratorISt4pairIN4cvc58internal12NodeTemplateILb1EEEjERS5_PS5_E11_M_set_nodeEPS7_ = comdat any

$_ZNKSt11_Deque_baseISt4pairIN4cvc58internal12NodeTemplateILb1EEEjESaIS5_EE20_M_get_map_allocatorEv = comdat any

$_ZNSt16allocator_traitsISaIPSt4pairIN4cvc58internal12NodeTemplateILb1EEEjEEE8allocateERS7_m = comdat any

$_ZNSaIPSt4pairIN4cvc58internal12NodeTemplateILb1EEEjEED2Ev = comdat any

$_ZNKSt11_Deque_baseISt4pairIN4cvc58internal12NodeTemplateILb1EEEjESaIS5_EE19_M_get_Tp_allocatorEv = comdat any

$_ZNSaIPSt4pairIN4cvc58internal12NodeTemplateILb1EEEjEEC2IS4_EERKSaIT_E = comdat any

$_ZNSt15__new_allocatorIPSt4pairIN4cvc58internal12NodeTemplateILb1EEEjEEC2Ev = comdat any

$_ZNSt15__new_allocatorIPSt4pairIN4cvc58internal12NodeTemplateILb1EEEjEE8allocateEmPKv = comdat any

$_ZNKSt15__new_allocatorIPSt4pairIN4cvc58internal12NodeTemplateILb1EEEjEE11_M_max_sizeEv = comdat any

$_ZNSt15__new_allocatorIPSt4pairIN4cvc58internal12NodeTemplateILb1EEEjEED2Ev = comdat any

$_ZNSt11_Deque_baseISt4pairIN4cvc58internal12NodeTemplateILb1EEEjESaIS5_EE16_M_allocate_nodeEv = comdat any

$_ZNSt11_Deque_baseISt4pairIN4cvc58internal12NodeTemplateILb1EEEjESaIS5_EE16_M_destroy_nodesEPPS5_S9_ = comdat any

$_ZNSt16allocator_traitsISaISt4pairIN4cvc58internal12NodeTemplateILb1EEEjEEE8allocateERS6_m = comdat any

$_ZNSt15__new_allocatorISt4pairIN4cvc58internal12NodeTemplateILb1EEEjEE8allocateEmPKv = comdat any

$_ZNKSt15__new_allocatorISt4pairIN4cvc58internal12NodeTemplateILb1EEEjEE11_M_max_sizeEv = comdat any

$_ZNSt11_Deque_baseISt4pairIN4cvc58internal12NodeTemplateILb1EEEjESaIS5_EE18_M_deallocate_nodeEPS5_ = comdat any

$_ZNSt16allocator_traitsISaIPSt4pairIN4cvc58internal12NodeTemplateILb1EEEjEEE10deallocateERS7_PS6_m = comdat any

$_ZNSt15__new_allocatorIPSt4pairIN4cvc58internal12NodeTemplateILb1EEEjEE10deallocateEPS6_m = comdat any

$_ZNSt15_Deque_iteratorISt4pairIN4cvc58internal12NodeTemplateILb1EEEjERS5_PS5_E14_S_buffer_sizeEv = comdat any

$_ZNSt10_HashtableIKSt4pairIN4cvc58internal12NodeTemplateILb1EEEjES0_IS6_KS4_ESaIS8_ENSt8__detail10_Select1stESt8equal_toIS6_ENS2_16PairHashFunctionIS4_jSt4hashIS4_ESF_IjEEENSA_18_Mod_range_hashingENSA_20_Default_ranged_hashENSA_20_Prime_rehash_policyENSA_17_Hashtable_traitsILb1ELb0ELb1EEEEC2Ev = comdat any

$_ZNSt8__detail15_Hashtable_baseIKSt4pairIN4cvc58internal12NodeTemplateILb1EEEjES1_IS7_KS5_ENS_10_Select1stESt8equal_toIS7_ENS3_16PairHashFunctionIS5_jSt4hashIS5_ESE_IjEEENS_18_Mod_range_hashingENS_20_Default_ranged_hashENS_17_Hashtable_traitsILb1ELb0ELb1EEEEC2Ev = comdat any

$_ZNSt8__detail16_Hashtable_allocISaINS_10_Hash_nodeISt4pairIKS2_IN4cvc58internal12NodeTemplateILb1EEEjEKS6_ELb1EEEEEC2Ev = comdat any

$_ZNSt8__detail15_Hash_node_baseC2Ev = comdat any

$_ZNSt8__detail20_Prime_rehash_policyC2Ef = comdat any

$_ZNSt8__detail15_Hash_code_baseIKSt4pairIN4cvc58internal12NodeTemplateILb1EEEjES1_IS7_KS5_ENS_10_Select1stENS3_16PairHashFunctionIS5_jSt4hashIS5_ESC_IjEEENS_18_Mod_range_hashingENS_20_Default_ranged_hashELb1EEC2Ev = comdat any

$_ZNSt8__detail21_Hashtable_ebo_helperILi0ESt8equal_toIKSt4pairIN4cvc58internal12NodeTemplateILb1EEEjEELb1EEC2Ev = comdat any

$_ZNSt8__detail21_Hashtable_ebo_helperILi1EN4cvc58internal16PairHashFunctionINS2_12NodeTemplateILb1EEEjSt4hashIS5_ES6_IjEEELb1EEC2Ev = comdat any

$_ZNSt8__detail21_Hashtable_ebo_helperILi0ESaINS_10_Hash_nodeISt4pairIKS2_IN4cvc58internal12NodeTemplateILb1EEEjEKS6_ELb1EEEELb1EEC2Ev = comdat any

$_ZNSaINSt8__detail10_Hash_nodeISt4pairIKS1_IN4cvc58internal12NodeTemplateILb1EEEjEKS5_ELb1EEEEC2Ev = comdat any

$_ZNSt15__new_allocatorINSt8__detail10_Hash_nodeISt4pairIKS2_IN4cvc58internal12NodeTemplateILb1EEEjEKS6_ELb1EEEEC2Ev = comdat any

$_ZN4cvc57context10ContextObjnwEmPNS0_20ContextMemoryManagerE = comdat any

$_ZN4cvc57context15CDInsertHashMapISt4pairINS_8internal12NodeTemplateILb1EEEjES5_NS3_16PairHashFunctionIS5_jSt4hashIS5_ES8_IjEEEEC2ERKSC_ = comdat any

$_ZN4cvc57context10ContextObjdlEPvPNS0_20ContextMemoryManagerE = comdat any

$_ZN4cvc57context10ContextObjC2ERKS1_ = comdat any

$_ZN4cvc58internal11Cvc5ostreamlsIPNS_7context15CDInsertHashMapISt4pairINS0_12NodeTemplateILb1EEEjES7_NS0_16PairHashFunctionIS7_jSt4hashIS7_ESA_IjEEEEEEERS1_RKT_ = comdat any

$_ZN4cvc58internal11Cvc5ostreamlsIPKNS_7context15CDInsertHashMapISt4pairINS0_12NodeTemplateILb1EEEjES7_NS0_16PairHashFunctionIS7_jSt4hashIS7_ESA_IjEEEEEEERS1_RKT_ = comdat any

$_ZN4cvc58internal11Cvc5ostreamlsImEERS1_RKT_ = comdat any

$_ZN4cvc57context10ContextObjD2Ev = comdat any

$_ZN4cvc57context10ContextObjD0Ev = comdat any

$_ZN4cvc57context13InsertHashMapISt4pairINS_8internal12NodeTemplateILb1EEEjES5_NS3_16PairHashFunctionIS5_jSt4hashIS5_ES8_IjEEEE11pop_to_sizeEm = comdat any

$_ZNK4cvc57context13InsertHashMapISt4pairINS_8internal12NodeTemplateILb1EEEjES5_NS3_16PairHashFunctionIS5_jSt4hashIS5_ES8_IjEEEE4sizeEv = comdat any

$_ZN4cvc57context13InsertHashMapISt4pairINS_8internal12NodeTemplateILb1EEEjES5_NS3_16PairHashFunctionIS5_jSt4hashIS5_ES8_IjEEEE8pop_backEv = comdat any

$_ZNKSt5dequeISt4pairIN4cvc58internal12NodeTemplateILb1EEEjESaIS5_EE4sizeEv = comdat any

$_ZStmiRKSt15_Deque_iteratorISt4pairIN4cvc58internal12NodeTemplateILb1EEEjERS5_PS5_ESA_ = comdat any

$_ZNSt5dequeISt4pairIN4cvc58internal12NodeTemplateILb1EEEjESaIS5_EE4backEv = comdat any

$_ZNSt13unordered_mapIKSt4pairIN4cvc58internal12NodeTemplateILb1EEEjEKS4_NS2_16PairHashFunctionIS4_jSt4hashIS4_ES9_IjEEESt8equal_toIS6_ESaIS0_IS6_S7_EEE5eraseERS6_ = comdat any

$_ZNSt5dequeISt4pairIN4cvc58internal12NodeTemplateILb1EEEjESaIS5_EE8pop_backEv = comdat any

$_ZNSt5dequeISt4pairIN4cvc58internal12NodeTemplateILb1EEEjESaIS5_EE3endEv = comdat any

$_ZNSt15_Deque_iteratorISt4pairIN4cvc58internal12NodeTemplateILb1EEEjERS5_PS5_EmmEv = comdat any

$_ZNKSt15_Deque_iteratorISt4pairIN4cvc58internal12NodeTemplateILb1EEEjERS5_PS5_EdeEv = comdat any

$_ZNSt15_Deque_iteratorISt4pairIN4cvc58internal12NodeTemplateILb1EEEjERS5_PS5_EC2ERKS8_ = comdat any

$_ZNSt10_HashtableIKSt4pairIN4cvc58internal12NodeTemplateILb1EEEjES0_IS6_KS4_ESaIS8_ENSt8__detail10_Select1stESt8equal_toIS6_ENS2_16PairHashFunctionIS4_jSt4hashIS4_ESF_IjEEENSA_18_Mod_range_hashingENSA_20_Default_ranged_hashENSA_20_Prime_rehash_policyENSA_17_Hashtable_traitsILb1ELb0ELb1EEEE5eraseERS6_ = comdat any

$_ZNSt10_HashtableIKSt4pairIN4cvc58internal12NodeTemplateILb1EEEjES0_IS6_KS4_ESaIS8_ENSt8__detail10_Select1stESt8equal_toIS6_ENS2_16PairHashFunctionIS4_jSt4hashIS4_ESF_IjEEENSA_18_Mod_range_hashingENSA_20_Default_ranged_hashENSA_20_Prime_rehash_policyENSA_17_Hashtable_traitsILb1ELb0ELb1EEEE8_M_eraseESt17integral_constantIbLb1EERS6_ = comdat any

$_ZNKSt10_HashtableIKSt4pairIN4cvc58internal12NodeTemplateILb1EEEjES0_IS6_KS4_ESaIS8_ENSt8__detail10_Select1stESt8equal_toIS6_ENS2_16PairHashFunctionIS4_jSt4hashIS4_ESF_IjEEENSA_18_Mod_range_hashingENSA_20_Default_ranged_hashENSA_20_Prime_rehash_policyENSA_17_Hashtable_traitsILb1ELb0ELb1EEEE4sizeEv = comdat any

$_ZNSt10_HashtableIKSt4pairIN4cvc58internal12NodeTemplateILb1EEEjES0_IS6_KS4_ESaIS8_ENSt8__detail10_Select1stESt8equal_toIS6_ENS2_16PairHashFunctionIS4_jSt4hashIS4_ESF_IjEEENSA_18_Mod_range_hashingENSA_20_Default_ranged_hashENSA_20_Prime_rehash_policyENSA_17_Hashtable_traitsILb1ELb0ELb1EEEE22__small_size_thresholdEv = comdat any

$_ZNSt10_HashtableIKSt4pairIN4cvc58internal12NodeTemplateILb1EEEjES0_IS6_KS4_ESaIS8_ENSt8__detail10_Select1stESt8equal_toIS6_ENS2_16PairHashFunctionIS4_jSt4hashIS4_ESF_IjEEENSA_18_Mod_range_hashingENSA_20_Default_ranged_hashENSA_20_Prime_rehash_policyENSA_17_Hashtable_traitsILb1ELb0ELb1EEEE19_M_find_before_nodeERS6_ = comdat any

$_ZNKSt10_HashtableIKSt4pairIN4cvc58internal12NodeTemplateILb1EEEjES0_IS6_KS4_ESaIS8_ENSt8__detail10_Select1stESt8equal_toIS6_ENS2_16PairHashFunctionIS4_jSt4hashIS4_ESF_IjEEENSA_18_Mod_range_hashingENSA_20_Default_ranged_hashENSA_20_Prime_rehash_policyENSA_17_Hashtable_traitsILb1ELb0ELb1EEEE15_M_bucket_indexERKNSA_16_Hash_node_valueIS8_Lb1EEE = comdat any

$_ZNKSt8__detail15_Hash_code_baseIKSt4pairIN4cvc58internal12NodeTemplateILb1EEEjES1_IS7_KS5_ENS_10_Select1stENS3_16PairHashFunctionIS5_jSt4hashIS5_ESC_IjEEENS_18_Mod_range_hashingENS_20_Default_ranged_hashELb1EE12_M_hash_codeERS7_ = comdat any

$_ZNKSt10_HashtableIKSt4pairIN4cvc58internal12NodeTemplateILb1EEEjES0_IS6_KS4_ESaIS8_ENSt8__detail10_Select1stESt8equal_toIS6_ENS2_16PairHashFunctionIS4_jSt4hashIS4_ESF_IjEEENSA_18_Mod_range_hashingENSA_20_Default_ranged_hashENSA_20_Prime_rehash_policyENSA_17_Hashtable_traitsILb1ELb0ELb1EEEE15_M_bucket_indexEm = comdat any

$_ZNKSt10_HashtableIKSt4pairIN4cvc58internal12NodeTemplateILb1EEEjES0_IS6_KS4_ESaIS8_ENSt8__detail10_Select1stESt8equal_toIS6_ENS2_16PairHashFunctionIS4_jSt4hashIS4_ESF_IjEEENSA_18_Mod_range_hashingENSA_20_Default_ranged_hashENSA_20_Prime_rehash_policyENSA_17_Hashtable_traitsILb1ELb0ELb1EEEE19_M_find_before_nodeEmRS6_m = comdat any

$_ZNSt10_HashtableIKSt4pairIN4cvc58internal12NodeTemplateILb1EEEjES0_IS6_KS4_ESaIS8_ENSt8__detail10_Select1stESt8equal_toIS6_ENS2_16PairHashFunctionIS4_jSt4hashIS4_ESF_IjEEENSA_18_Mod_range_hashingENSA_20_Default_ranged_hashENSA_20_Prime_rehash_policyENSA_17_Hashtable_traitsILb1ELb0ELb1EEEE8_M_eraseEmPNSA_15_Hash_node_baseEPNSA_10_Hash_nodeIS8_Lb1EEE = comdat any

$_ZNSt8__detail22_Hashtable_hash_traitsIN4cvc58internal16PairHashFunctionINS2_12NodeTemplateILb1EEEjSt4hashIS5_ES6_IjEEEE22__small_size_thresholdEv = comdat any

$_ZNKSt8__detail15_Hashtable_baseIKSt4pairIN4cvc58internal12NodeTemplateILb1EEEjES1_IS7_KS5_ENS_10_Select1stESt8equal_toIS7_ENS3_16PairHashFunctionIS5_jSt4hashIS5_ESE_IjEEENS_18_Mod_range_hashingENS_20_Default_ranged_hashENS_17_Hashtable_traitsILb1ELb0ELb1EEEE13_M_key_equalsERS7_RKNS_16_Hash_node_valueIS9_Lb1EEE = comdat any

$_ZNKSt8__detail10_Hash_nodeISt4pairIKS1_IN4cvc58internal12NodeTemplateILb1EEEjEKS5_ELb1EE7_M_nextEv = comdat any

$_ZNKSt8__detail15_Hashtable_baseIKSt4pairIN4cvc58internal12NodeTemplateILb1EEEjES1_IS7_KS5_ENS_10_Select1stESt8equal_toIS7_ENS3_16PairHashFunctionIS5_jSt4hashIS5_ESE_IjEEENS_18_Mod_range_hashingENS_20_Default_ranged_hashENS_17_Hashtable_traitsILb1ELb0ELb1EEEE5_M_eqEv = comdat any

$_ZNKSt8equal_toIKSt4pairIN4cvc58internal12NodeTemplateILb1EEEjEEclERS6_S8_ = comdat any

$_ZNKSt8__detail10_Select1stclIRKSt4pairIKS2_IN4cvc58internal12NodeTemplateILb1EEEjEKS6_EEEONS0_10__1st_typeIT_E4typeEOSE_ = comdat any

$_ZNKSt8__detail21_Hash_node_value_baseISt4pairIKS1_IN4cvc58internal12NodeTemplateILb1EEEjEKS5_EE4_M_vEv = comdat any

$_ZNKSt8__detail21_Hashtable_ebo_helperILi0ESt8equal_toIKSt4pairIN4cvc58internal12NodeTemplateILb1EEEjEELb1EE7_M_cgetEv = comdat any

$_ZSteqIN4cvc58internal12NodeTemplateILb1EEEjEbRKSt4pairIT_T0_ES9_ = comdat any

$_ZNKSt8__detail21_Hash_node_value_baseISt4pairIKS1_IN4cvc58internal12NodeTemplateILb1EEEjEKS5_EE9_M_valptrEv = comdat any

$_ZNK9__gnu_cxx16__aligned_bufferISt4pairIKS1_IN4cvc58internal12NodeTemplateILb1EEEjEKS5_EE6_M_ptrEv = comdat any

$_ZNK9__gnu_cxx16__aligned_bufferISt4pairIKS1_IN4cvc58internal12NodeTemplateILb1EEEjEKS5_EE7_M_addrEv = comdat any

$_ZNKSt8__detail15_Hash_code_baseIKSt4pairIN4cvc58internal12NodeTemplateILb1EEEjES1_IS7_KS5_ENS_10_Select1stENS3_16PairHashFunctionIS5_jSt4hashIS5_ESC_IjEEENS_18_Mod_range_hashingENS_20_Default_ranged_hashELb1EE15_M_bucket_indexERKNS_16_Hash_node_valueIS9_Lb1EEEm = comdat any

$_ZNKSt8__detail15_Hash_code_baseIKSt4pairIN4cvc58internal12NodeTemplateILb1EEEjES1_IS7_KS5_ENS_10_Select1stENS3_16PairHashFunctionIS5_jSt4hashIS5_ESC_IjEEENS_18_Mod_range_hashingENS_20_Default_ranged_hashELb1EE7_M_hashEv = comdat any

$_ZNK4cvc58internal16PairHashFunctionINS0_12NodeTemplateILb1EEEjSt4hashIS3_ES4_IjEEclERKSt4pairIS3_jE = comdat any

$_ZNKSt8__detail21_Hashtable_ebo_helperILi1EN4cvc58internal16PairHashFunctionINS2_12NodeTemplateILb1EEEjSt4hashIS5_ES6_IjEEELb1EE7_M_cgetEv = comdat any

$_ZN4cvc58internal5fnv1a8fnv1a_64Emm = comdat any

$_ZNKSt4hashIjEclEj = comdat any

$_ZNKSt8__detail15_Hash_code_baseIKSt4pairIN4cvc58internal12NodeTemplateILb1EEEjES1_IS7_KS5_ENS_10_Select1stENS3_16PairHashFunctionIS5_jSt4hashIS5_ESC_IjEEENS_18_Mod_range_hashingENS_20_Default_ranged_hashELb1EE15_M_bucket_indexEmm = comdat any

$_ZNKSt8__detail15_Hashtable_baseIKSt4pairIN4cvc58internal12NodeTemplateILb1EEEjES1_IS7_KS5_ENS_10_Select1stESt8equal_toIS7_ENS3_16PairHashFunctionIS5_jSt4hashIS5_ESE_IjEEENS_18_Mod_range_hashingENS_20_Default_ranged_hashENS_17_Hashtable_traitsILb1ELb0ELb1EEEE9_M_equalsERS7_mRKNS_16_Hash_node_valueIS9_Lb1EEE = comdat any

$_ZNSt8__detail15_Hashtable_baseIKSt4pairIN4cvc58internal12NodeTemplateILb1EEEjES1_IS7_KS5_ENS_10_Select1stESt8equal_toIS7_ENS3_16PairHashFunctionIS5_jSt4hashIS5_ESE_IjEEENS_18_Mod_range_hashingENS_20_Default_ranged_hashENS_17_Hashtable_traitsILb1ELb0ELb1EEEE9_S_equalsEmRKNS_21_Hash_node_code_cacheILb1EEE = comdat any

$_ZNSt10_HashtableIKSt4pairIN4cvc58internal12NodeTemplateILb1EEEjES0_IS6_KS4_ESaIS8_ENSt8__detail10_Select1stESt8equal_toIS6_ENS2_16PairHashFunctionIS4_jSt4hashIS4_ESF_IjEEENSA_18_Mod_range_hashingENSA_20_Default_ranged_hashENSA_20_Prime_rehash_policyENSA_17_Hashtable_traitsILb1ELb0ELb1EEEE22_M_remove_bucket_beginEmPNSA_10_Hash_nodeIS8_Lb1EEEm = comdat any

$_ZNSt8__detail14_Node_iteratorISt4pairIKS1_IN4cvc58internal12NodeTemplateILb1EEEjEKS5_ELb0ELb1EEC2EPNS_10_Hash_nodeIS9_Lb1EEE = comdat any

$_ZNSt8__detail16_Hashtable_allocISaINS_10_Hash_nodeISt4pairIKS2_IN4cvc58internal12NodeTemplateILb1EEEjEKS6_ELb1EEEEE18_M_deallocate_nodeEPSB_ = comdat any

$_ZNSt8__detail19_Node_iterator_baseISt4pairIKS1_IN4cvc58internal12NodeTemplateILb1EEEjEKS5_ELb1EEC2EPNS_10_Hash_nodeIS9_Lb1EEE = comdat any

$_ZNSt16allocator_traitsISaINSt8__detail10_Hash_nodeISt4pairIKS2_IN4cvc58internal12NodeTemplateILb1EEEjEKS6_ELb1EEEEE7destroyISA_EEvRSC_PT_ = comdat any

$_ZNSt8__detail16_Hashtable_allocISaINS_10_Hash_nodeISt4pairIKS2_IN4cvc58internal12NodeTemplateILb1EEEjEKS6_ELb1EEEEE17_M_node_allocatorEv = comdat any

$_ZNSt8__detail21_Hash_node_value_baseISt4pairIKS1_IN4cvc58internal12NodeTemplateILb1EEEjEKS5_EE9_M_valptrEv = comdat any

$_ZNSt8__detail16_Hashtable_allocISaINS_10_Hash_nodeISt4pairIKS2_IN4cvc58internal12NodeTemplateILb1EEEjEKS6_ELb1EEEEE22_M_deallocate_node_ptrEPSB_ = comdat any

$_ZNSt15__new_allocatorINSt8__detail10_Hash_nodeISt4pairIKS2_IN4cvc58internal12NodeTemplateILb1EEEjEKS6_ELb1EEEE7destroyISA_EEvPT_ = comdat any

$_ZNSt4pairIKS_IN4cvc58internal12NodeTemplateILb1EEEjEKS3_ED2Ev = comdat any

$_ZNSt8__detail21_Hashtable_ebo_helperILi0ESaINS_10_Hash_nodeISt4pairIKS2_IN4cvc58internal12NodeTemplateILb1EEEjEKS6_ELb1EEEELb1EE6_M_getEv = comdat any

$_ZN9__gnu_cxx16__aligned_bufferISt4pairIKS1_IN4cvc58internal12NodeTemplateILb1EEEjEKS5_EE6_M_ptrEv = comdat any

$_ZN9__gnu_cxx16__aligned_bufferISt4pairIKS1_IN4cvc58internal12NodeTemplateILb1EEEjEKS5_EE7_M_addrEv = comdat any

$_ZNSt19__ptr_traits_ptr_toIPNSt8__detail10_Hash_nodeISt4pairIKS2_IN4cvc58internal12NodeTemplateILb1EEEjEKS6_ELb1EEESB_Lb0EE10pointer_toERSB_ = comdat any

$_ZNSt16allocator_traitsISaINSt8__detail10_Hash_nodeISt4pairIKS2_IN4cvc58internal12NodeTemplateILb1EEEjEKS6_ELb1EEEEE10deallocateERSC_PSB_m = comdat any

$_ZNSt15__new_allocatorINSt8__detail10_Hash_nodeISt4pairIKS2_IN4cvc58internal12NodeTemplateILb1EEEjEKS6_ELb1EEEE10deallocateEPSB_m = comdat any

$_ZNSt16allocator_traitsISaISt4pairIN4cvc58internal12NodeTemplateILb1EEEjEEE7destroyIS5_EEvRS6_PT_ = comdat any

$_ZNSt11_Deque_baseISt4pairIN4cvc58internal12NodeTemplateILb1EEEjESaIS5_EE19_M_get_Tp_allocatorEv = comdat any

$_ZNSt5dequeISt4pairIN4cvc58internal12NodeTemplateILb1EEEjESaIS5_EE15_M_pop_back_auxEv = comdat any

$_ZNSt15__new_allocatorISt4pairIN4cvc58internal12NodeTemplateILb1EEEjEE7destroyIS5_EEvPT_ = comdat any

$_ZN4cvc57context10ContextObjdlEPv = comdat any

$_ZN4cvc58internal13OstreamVoiderC2Ev = comdat any

$_ZN4cvc58internal13OstreamVoideranERSo = comdat any

$_ZN4cvc57context13InsertHashMapINS_8internal12NodeTemplateILb1EEES4_St4hashIS4_EEC2Ev = comdat any

$_ZN4cvc57context15CDInsertHashMapINS_8internal12NodeTemplateILb1EEES4_St4hashIS4_EE4saveEPNS0_20ContextMemoryManagerE = comdat any

$_ZN4cvc57context15CDInsertHashMapINS_8internal12NodeTemplateILb1EEES4_St4hashIS4_EE7restoreEPNS0_10ContextObjE = comdat any

$_ZN4cvc57context15CDInsertHashMapINS_8internal12NodeTemplateILb1EEES4_St4hashIS4_EED0Ev = comdat any

$_ZNSt5dequeIN4cvc58internal12NodeTemplateILb1EEESaIS3_EEC2Ev = comdat any

$_ZNSt13unordered_mapIKN4cvc58internal12NodeTemplateILb1EEES4_St4hashIS3_ESt8equal_toIS4_ESaISt4pairIS4_S4_EEEC2Ev = comdat any

$_ZNSt11_Deque_baseIN4cvc58internal12NodeTemplateILb1EEESaIS3_EEC2Ev = comdat any

$_ZNSt11_Deque_baseIN4cvc58internal12NodeTemplateILb1EEESaIS3_EE11_Deque_implC2Ev = comdat any

$_ZNSt11_Deque_baseIN4cvc58internal12NodeTemplateILb1EEESaIS3_EE17_M_initialize_mapEm = comdat any

$_ZNSt11_Deque_baseIN4cvc58internal12NodeTemplateILb1EEESaIS3_EE11_Deque_implD2Ev = comdat any

$_ZNSt11_Deque_baseIN4cvc58internal12NodeTemplateILb1EEESaIS3_EE16_Deque_impl_dataC2Ev = comdat any

$_ZNSt15_Deque_iteratorIN4cvc58internal12NodeTemplateILb1EEERS3_PS3_EC2Ev = comdat any

$_ZNSt11_Deque_baseIN4cvc58internal12NodeTemplateILb1EEESaIS3_EE15_M_allocate_mapEm = comdat any

$_ZNSt11_Deque_baseIN4cvc58internal12NodeTemplateILb1EEESaIS3_EE15_M_create_nodesEPPS3_S7_ = comdat any

$_ZNSt11_Deque_baseIN4cvc58internal12NodeTemplateILb1EEESaIS3_EE17_M_deallocate_mapEPPS3_m = comdat any

$_ZNSt15_Deque_iteratorIN4cvc58internal12NodeTemplateILb1EEERS3_PS3_E11_M_set_nodeEPS5_ = comdat any

$_ZNKSt11_Deque_baseIN4cvc58internal12NodeTemplateILb1EEESaIS3_EE20_M_get_map_allocatorEv = comdat any

$_ZNSt16allocator_traitsISaIPN4cvc58internal12NodeTemplateILb1EEEEE8allocateERS5_m = comdat any

$_ZNSaIPN4cvc58internal12NodeTemplateILb1EEEED2Ev = comdat any

$_ZNKSt11_Deque_baseIN4cvc58internal12NodeTemplateILb1EEESaIS3_EE19_M_get_Tp_allocatorEv = comdat any

$_ZNSaIPN4cvc58internal12NodeTemplateILb1EEEEC2IS2_EERKSaIT_E = comdat any

$_ZNSt15__new_allocatorIPN4cvc58internal12NodeTemplateILb1EEEEC2Ev = comdat any

$_ZNSt15__new_allocatorIPN4cvc58internal12NodeTemplateILb1EEEE8allocateEmPKv = comdat any

$_ZNKSt15__new_allocatorIPN4cvc58internal12NodeTemplateILb1EEEE11_M_max_sizeEv = comdat any

$_ZNSt15__new_allocatorIPN4cvc58internal12NodeTemplateILb1EEEED2Ev = comdat any

$_ZNSt11_Deque_baseIN4cvc58internal12NodeTemplateILb1EEESaIS3_EE16_M_allocate_nodeEv = comdat any

$_ZNSt11_Deque_baseIN4cvc58internal12NodeTemplateILb1EEESaIS3_EE16_M_destroy_nodesEPPS3_S7_ = comdat any

$_ZNSt16allocator_traitsISaIN4cvc58internal12NodeTemplateILb1EEEEE8allocateERS4_m = comdat any

$_ZNSt15__new_allocatorIN4cvc58internal12NodeTemplateILb1EEEE8allocateEmPKv = comdat any

$_ZNKSt15__new_allocatorIN4cvc58internal12NodeTemplateILb1EEEE11_M_max_sizeEv = comdat any

$_ZNSt11_Deque_baseIN4cvc58internal12NodeTemplateILb1EEESaIS3_EE18_M_deallocate_nodeEPS3_ = comdat any

$_ZNSt16allocator_traitsISaIN4cvc58internal12NodeTemplateILb1EEEEE10deallocateERS4_PS3_m = comdat any

$_ZNSt15__new_allocatorIN4cvc58internal12NodeTemplateILb1EEEE10deallocateEPS3_m = comdat any

$_ZNSt16allocator_traitsISaIPN4cvc58internal12NodeTemplateILb1EEEEE10deallocateERS5_PS4_m = comdat any

$_ZNSt15__new_allocatorIPN4cvc58internal12NodeTemplateILb1EEEE10deallocateEPS4_m = comdat any

$_ZNSt15_Deque_iteratorIN4cvc58internal12NodeTemplateILb1EEERS3_PS3_E14_S_buffer_sizeEv = comdat any

$_ZNSt15__new_allocatorIN4cvc58internal12NodeTemplateILb1EEEED2Ev = comdat any

$_ZNSt10_HashtableIKN4cvc58internal12NodeTemplateILb1EEESt4pairIS4_S4_ESaIS6_ENSt8__detail10_Select1stESt8equal_toIS4_ESt4hashIS3_ENS8_18_Mod_range_hashingENS8_20_Default_ranged_hashENS8_20_Prime_rehash_policyENS8_17_Hashtable_traitsILb1ELb0ELb1EEEEC2Ev = comdat any

$_ZNSt8__detail15_Hashtable_baseIKN4cvc58internal12NodeTemplateILb1EEESt4pairIS5_S5_ENS_10_Select1stESt8equal_toIS5_ESt4hashIS4_ENS_18_Mod_range_hashingENS_20_Default_ranged_hashENS_17_Hashtable_traitsILb1ELb0ELb1EEEEC2Ev = comdat any

$_ZNSt8__detail16_Hashtable_allocISaINS_10_Hash_nodeISt4pairIKN4cvc58internal12NodeTemplateILb1EEES7_ELb1EEEEEC2Ev = comdat any

$_ZNSt8__detail15_Hash_code_baseIKN4cvc58internal12NodeTemplateILb1EEESt4pairIS5_S5_ENS_10_Select1stESt4hashIS4_ENS_18_Mod_range_hashingENS_20_Default_ranged_hashELb1EEC2Ev = comdat any

$_ZNSt8__detail21_Hashtable_ebo_helperILi0ESt8equal_toIKN4cvc58internal12NodeTemplateILb1EEEELb1EEC2Ev = comdat any

$_ZNSt8__detail21_Hashtable_ebo_helperILi1ESt4hashIN4cvc58internal12NodeTemplateILb1EEEELb1EEC2Ev = comdat any

$_ZNSt8__detail21_Hashtable_ebo_helperILi0ESaINS_10_Hash_nodeISt4pairIKN4cvc58internal12NodeTemplateILb1EEES7_ELb1EEEELb1EEC2Ev = comdat any

$_ZNSaINSt8__detail10_Hash_nodeISt4pairIKN4cvc58internal12NodeTemplateILb1EEES6_ELb1EEEEC2Ev = comdat any

$_ZNSt15__new_allocatorINSt8__detail10_Hash_nodeISt4pairIKN4cvc58internal12NodeTemplateILb1EEES7_ELb1EEEEC2Ev = comdat any

$_ZN4cvc57context15CDInsertHashMapINS_8internal12NodeTemplateILb1EEES4_St4hashIS4_EEC2ERKS7_ = comdat any

$_ZN4cvc58internal11Cvc5ostreamlsIPNS_7context15CDInsertHashMapINS0_12NodeTemplateILb1EEES6_St4hashIS6_EEEEERS1_RKT_ = comdat any

$_ZN4cvc58internal11Cvc5ostreamlsIPKNS_7context15CDInsertHashMapINS0_12NodeTemplateILb1EEES6_St4hashIS6_EEEEERS1_RKT_ = comdat any

$_ZN4cvc57context13InsertHashMapINS_8internal12NodeTemplateILb1EEES4_St4hashIS4_EE11pop_to_sizeEm = comdat any

$_ZNK4cvc57context13InsertHashMapINS_8internal12NodeTemplateILb1EEES4_St4hashIS4_EE4sizeEv = comdat any

$_ZN4cvc57context13InsertHashMapINS_8internal12NodeTemplateILb1EEES4_St4hashIS4_EE8pop_backEv = comdat any

$_ZNKSt5dequeIN4cvc58internal12NodeTemplateILb1EEESaIS3_EE4sizeEv = comdat any

$_ZStmiRKSt15_Deque_iteratorIN4cvc58internal12NodeTemplateILb1EEERS3_PS3_ES8_ = comdat any

$_ZNSt5dequeIN4cvc58internal12NodeTemplateILb1EEESaIS3_EE4backEv = comdat any

$_ZNSt13unordered_mapIKN4cvc58internal12NodeTemplateILb1EEES4_St4hashIS3_ESt8equal_toIS4_ESaISt4pairIS4_S4_EEE5eraseERS4_ = comdat any

$_ZNSt5dequeIN4cvc58internal12NodeTemplateILb1EEESaIS3_EE8pop_backEv = comdat any

$_ZNSt5dequeIN4cvc58internal12NodeTemplateILb1EEESaIS3_EE3endEv = comdat any

$_ZNSt15_Deque_iteratorIN4cvc58internal12NodeTemplateILb1EEERS3_PS3_EmmEv = comdat any

$_ZNKSt15_Deque_iteratorIN4cvc58internal12NodeTemplateILb1EEERS3_PS3_EdeEv = comdat any

$_ZNSt15_Deque_iteratorIN4cvc58internal12NodeTemplateILb1EEERS3_PS3_EC2ERKS6_ = comdat any

$_ZNSt10_HashtableIKN4cvc58internal12NodeTemplateILb1EEESt4pairIS4_S4_ESaIS6_ENSt8__detail10_Select1stESt8equal_toIS4_ESt4hashIS3_ENS8_18_Mod_range_hashingENS8_20_Default_ranged_hashENS8_20_Prime_rehash_policyENS8_17_Hashtable_traitsILb1ELb0ELb1EEEE5eraseERS4_ = comdat any

$_ZNSt10_HashtableIKN4cvc58internal12NodeTemplateILb1EEESt4pairIS4_S4_ESaIS6_ENSt8__detail10_Select1stESt8equal_toIS4_ESt4hashIS3_ENS8_18_Mod_range_hashingENS8_20_Default_ranged_hashENS8_20_Prime_rehash_policyENS8_17_Hashtable_traitsILb1ELb0ELb1EEEE8_M_eraseESt17integral_constantIbLb1EERS4_ = comdat any

$_ZNSt10_HashtableIKN4cvc58internal12NodeTemplateILb1EEESt4pairIS4_S4_ESaIS6_ENSt8__detail10_Select1stESt8equal_toIS4_ESt4hashIS3_ENS8_18_Mod_range_hashingENS8_20_Default_ranged_hashENS8_20_Prime_rehash_policyENS8_17_Hashtable_traitsILb1ELb0ELb1EEEE19_M_find_before_nodeERS4_ = comdat any

$_ZNSt10_HashtableIKN4cvc58internal12NodeTemplateILb1EEESt4pairIS4_S4_ESaIS6_ENSt8__detail10_Select1stESt8equal_toIS4_ESt4hashIS3_ENS8_18_Mod_range_hashingENS8_20_Default_ranged_hashENS8_20_Prime_rehash_policyENS8_17_Hashtable_traitsILb1ELb0ELb1EEEE8_M_eraseEmPNS8_15_Hash_node_baseEPNS8_10_Hash_nodeIS6_Lb1EEE = comdat any

$_ZNSt10_HashtableIKN4cvc58internal12NodeTemplateILb1EEESt4pairIS4_S4_ESaIS6_ENSt8__detail10_Select1stESt8equal_toIS4_ESt4hashIS3_ENS8_18_Mod_range_hashingENS8_20_Default_ranged_hashENS8_20_Prime_rehash_policyENS8_17_Hashtable_traitsILb1ELb0ELb1EEEE22_M_remove_bucket_beginEmPNS8_10_Hash_nodeIS6_Lb1EEEm = comdat any

$_ZNSt8__detail14_Node_iteratorISt4pairIKN4cvc58internal12NodeTemplateILb1EEES6_ELb0ELb1EEC2EPNS_10_Hash_nodeIS7_Lb1EEE = comdat any

$_ZNSt8__detail16_Hashtable_allocISaINS_10_Hash_nodeISt4pairIKN4cvc58internal12NodeTemplateILb1EEES7_ELb1EEEEE18_M_deallocate_nodeEPS9_ = comdat any

$_ZNSt16allocator_traitsISaINSt8__detail10_Hash_nodeISt4pairIKN4cvc58internal12NodeTemplateILb1EEES7_ELb1EEEEE7destroyIS8_EEvRSA_PT_ = comdat any

$_ZNSt8__detail16_Hashtable_allocISaINS_10_Hash_nodeISt4pairIKN4cvc58internal12NodeTemplateILb1EEES7_ELb1EEEEE17_M_node_allocatorEv = comdat any

$_ZNSt8__detail16_Hashtable_allocISaINS_10_Hash_nodeISt4pairIKN4cvc58internal12NodeTemplateILb1EEES7_ELb1EEEEE22_M_deallocate_node_ptrEPS9_ = comdat any

$_ZNSt15__new_allocatorINSt8__detail10_Hash_nodeISt4pairIKN4cvc58internal12NodeTemplateILb1EEES7_ELb1EEEE7destroyIS8_EEvPT_ = comdat any

$_ZNSt4pairIKN4cvc58internal12NodeTemplateILb1EEES4_ED2Ev = comdat any

$_ZNSt8__detail21_Hashtable_ebo_helperILi0ESaINS_10_Hash_nodeISt4pairIKN4cvc58internal12NodeTemplateILb1EEES7_ELb1EEEELb1EE6_M_getEv = comdat any

$_ZNSt19__ptr_traits_ptr_toIPNSt8__detail10_Hash_nodeISt4pairIKN4cvc58internal12NodeTemplateILb1EEES7_ELb1EEES9_Lb0EE10pointer_toERS9_ = comdat any

$_ZNSt16allocator_traitsISaINSt8__detail10_Hash_nodeISt4pairIKN4cvc58internal12NodeTemplateILb1EEES7_ELb1EEEEE10deallocateERSA_PS9_m = comdat any

$_ZNSt15__new_allocatorINSt8__detail10_Hash_nodeISt4pairIKN4cvc58internal12NodeTemplateILb1EEES7_ELb1EEEE10deallocateEPS9_m = comdat any

$_ZNSt16allocator_traitsISaIN4cvc58internal12NodeTemplateILb1EEEEE7destroyIS3_EEvRS4_PT_ = comdat any

$_ZNSt11_Deque_baseIN4cvc58internal12NodeTemplateILb1EEESaIS3_EE19_M_get_Tp_allocatorEv = comdat any

$_ZNSt5dequeIN4cvc58internal12NodeTemplateILb1EEESaIS3_EE15_M_pop_back_auxEv = comdat any

$_ZNSt15__new_allocatorIN4cvc58internal12NodeTemplateILb1EEEE7destroyIS3_EEvPT_ = comdat any

$_ZN4cvc57context13InsertHashMapISt4pairINS_8internal12NodeTemplateILb1EEEjES5_NS3_16PairHashFunctionIS5_jSt4hashIS5_ES8_IjEEEED2Ev = comdat any

$_ZNSt13unordered_mapIKSt4pairIN4cvc58internal12NodeTemplateILb1EEEjEKS4_NS2_16PairHashFunctionIS4_jSt4hashIS4_ES9_IjEEESt8equal_toIS6_ESaIS0_IS6_S7_EEED2Ev = comdat any

$_ZNSt5dequeISt4pairIN4cvc58internal12NodeTemplateILb1EEEjESaIS5_EED2Ev = comdat any

$_ZNSt10_HashtableIKSt4pairIN4cvc58internal12NodeTemplateILb1EEEjES0_IS6_KS4_ESaIS8_ENSt8__detail10_Select1stESt8equal_toIS6_ENS2_16PairHashFunctionIS4_jSt4hashIS4_ESF_IjEEENSA_18_Mod_range_hashingENSA_20_Default_ranged_hashENSA_20_Prime_rehash_policyENSA_17_Hashtable_traitsILb1ELb0ELb1EEEED2Ev = comdat any

$_ZNSt10_HashtableIKSt4pairIN4cvc58internal12NodeTemplateILb1EEEjES0_IS6_KS4_ESaIS8_ENSt8__detail10_Select1stESt8equal_toIS6_ENS2_16PairHashFunctionIS4_jSt4hashIS4_ESF_IjEEENSA_18_Mod_range_hashingENSA_20_Default_ranged_hashENSA_20_Prime_rehash_policyENSA_17_Hashtable_traitsILb1ELb0ELb1EEEE5clearEv = comdat any

$_ZNSt10_HashtableIKSt4pairIN4cvc58internal12NodeTemplateILb1EEEjES0_IS6_KS4_ESaIS8_ENSt8__detail10_Select1stESt8equal_toIS6_ENS2_16PairHashFunctionIS4_jSt4hashIS4_ESF_IjEEENSA_18_Mod_range_hashingENSA_20_Default_ranged_hashENSA_20_Prime_rehash_policyENSA_17_Hashtable_traitsILb1ELb0ELb1EEEE21_M_deallocate_bucketsEv = comdat any

$_ZNSt8__detail16_Hashtable_allocISaINS_10_Hash_nodeISt4pairIKS2_IN4cvc58internal12NodeTemplateILb1EEEjEKS6_ELb1EEEEED2Ev = comdat any

$_ZNSt8__detail16_Hashtable_allocISaINS_10_Hash_nodeISt4pairIKS2_IN4cvc58internal12NodeTemplateILb1EEEjEKS6_ELb1EEEEE19_M_deallocate_nodesEPSB_ = comdat any

$_ZNKSt10_HashtableIKSt4pairIN4cvc58internal12NodeTemplateILb1EEEjES0_IS6_KS4_ESaIS8_ENSt8__detail10_Select1stESt8equal_toIS6_ENS2_16PairHashFunctionIS4_jSt4hashIS4_ESF_IjEEENSA_18_Mod_range_hashingENSA_20_Default_ranged_hashENSA_20_Prime_rehash_policyENSA_17_Hashtable_traitsILb1ELb0ELb1EEEE8_M_beginEv = comdat any

$_ZNSt10_HashtableIKSt4pairIN4cvc58internal12NodeTemplateILb1EEEjES0_IS6_KS4_ESaIS8_ENSt8__detail10_Select1stESt8equal_toIS6_ENS2_16PairHashFunctionIS4_jSt4hashIS4_ESF_IjEEENSA_18_Mod_range_hashingENSA_20_Default_ranged_hashENSA_20_Prime_rehash_policyENSA_17_Hashtable_traitsILb1ELb0ELb1EEEE21_M_deallocate_bucketsEPPNSA_15_Hash_node_baseEm = comdat any

$_ZNKSt10_HashtableIKSt4pairIN4cvc58internal12NodeTemplateILb1EEEjES0_IS6_KS4_ESaIS8_ENSt8__detail10_Select1stESt8equal_toIS6_ENS2_16PairHashFunctionIS4_jSt4hashIS4_ESF_IjEEENSA_18_Mod_range_hashingENSA_20_Default_ranged_hashENSA_20_Prime_rehash_policyENSA_17_Hashtable_traitsILb1ELb0ELb1EEEE21_M_uses_single_bucketEPPNSA_15_Hash_node_baseE = comdat any

$_ZNSt8__detail16_Hashtable_allocISaINS_10_Hash_nodeISt4pairIKS2_IN4cvc58internal12NodeTemplateILb1EEEjEKS6_ELb1EEEEE21_M_deallocate_bucketsEPPNS_15_Hash_node_baseEm = comdat any

$_ZNSt19__ptr_traits_ptr_toIPPNSt8__detail15_Hash_node_baseES2_Lb0EE10pointer_toERS2_ = comdat any

$_ZNSaIPNSt8__detail15_Hash_node_baseEEC2INS_10_Hash_nodeISt4pairIKS5_IN4cvc58internal12NodeTemplateILb1EEEjEKS9_ELb1EEEEERKSaIT_E = comdat any

$_ZNSt16allocator_traitsISaIPNSt8__detail15_Hash_node_baseEEE10deallocateERS3_PS2_m = comdat any

$_ZNSaIPNSt8__detail15_Hash_node_baseEED2Ev = comdat any

$_ZNSt15__new_allocatorIPNSt8__detail15_Hash_node_baseEEC2Ev = comdat any

$_ZNSt15__new_allocatorIPNSt8__detail15_Hash_node_baseEE10deallocateEPS2_m = comdat any

$_ZNSt15__new_allocatorIPNSt8__detail15_Hash_node_baseEED2Ev = comdat any

$_ZNSt8__detail21_Hashtable_ebo_helperILi0ESaINS_10_Hash_nodeISt4pairIKS2_IN4cvc58internal12NodeTemplateILb1EEEjEKS6_ELb1EEEELb1EED2Ev = comdat any

$_ZNSaINSt8__detail10_Hash_nodeISt4pairIKS1_IN4cvc58internal12NodeTemplateILb1EEEjEKS5_ELb1EEEED2Ev = comdat any

$_ZNSt15__new_allocatorINSt8__detail10_Hash_nodeISt4pairIKS2_IN4cvc58internal12NodeTemplateILb1EEEjEKS6_ELb1EEEED2Ev = comdat any

$_ZNSt5dequeISt4pairIN4cvc58internal12NodeTemplateILb1EEEjESaIS5_EE15_M_destroy_dataESt15_Deque_iteratorIS5_RS5_PS5_ESB_RKS6_ = comdat any

$_ZNSt5dequeISt4pairIN4cvc58internal12NodeTemplateILb1EEEjESaIS5_EE5beginEv = comdat any

$_ZNSt11_Deque_baseISt4pairIN4cvc58internal12NodeTemplateILb1EEEjESaIS5_EED2Ev = comdat any

$_ZNSt5dequeISt4pairIN4cvc58internal12NodeTemplateILb1EEEjESaIS5_EE19_M_destroy_data_auxESt15_Deque_iteratorIS5_RS5_PS5_ESB_ = comdat any

$_ZNSt5dequeISt4pairIN4cvc58internal12NodeTemplateILb1EEEjESaIS5_EE14_S_buffer_sizeEv = comdat any

$_ZN4cvc57context13InsertHashMapINS_8internal12NodeTemplateILb1EEES4_St4hashIS4_EED2Ev = comdat any

$_ZNSt13unordered_mapIKN4cvc58internal12NodeTemplateILb1EEES4_St4hashIS3_ESt8equal_toIS4_ESaISt4pairIS4_S4_EEED2Ev = comdat any

$_ZNSt5dequeIN4cvc58internal12NodeTemplateILb1EEESaIS3_EED2Ev = comdat any

$_ZNSt10_HashtableIKN4cvc58internal12NodeTemplateILb1EEESt4pairIS4_S4_ESaIS6_ENSt8__detail10_Select1stESt8equal_toIS4_ESt4hashIS3_ENS8_18_Mod_range_hashingENS8_20_Default_ranged_hashENS8_20_Prime_rehash_policyENS8_17_Hashtable_traitsILb1ELb0ELb1EEEED2Ev = comdat any

$_ZNSt10_HashtableIKN4cvc58internal12NodeTemplateILb1EEESt4pairIS4_S4_ESaIS6_ENSt8__detail10_Select1stESt8equal_toIS4_ESt4hashIS3_ENS8_18_Mod_range_hashingENS8_20_Default_ranged_hashENS8_20_Prime_rehash_policyENS8_17_Hashtable_traitsILb1ELb0ELb1EEEE5clearEv = comdat any

$_ZNSt10_HashtableIKN4cvc58internal12NodeTemplateILb1EEESt4pairIS4_S4_ESaIS6_ENSt8__detail10_Select1stESt8equal_toIS4_ESt4hashIS3_ENS8_18_Mod_range_hashingENS8_20_Default_ranged_hashENS8_20_Prime_rehash_policyENS8_17_Hashtable_traitsILb1ELb0ELb1EEEE21_M_deallocate_bucketsEv = comdat any

$_ZNSt8__detail16_Hashtable_allocISaINS_10_Hash_nodeISt4pairIKN4cvc58internal12NodeTemplateILb1EEES7_ELb1EEEEED2Ev = comdat any

$_ZNSt8__detail16_Hashtable_allocISaINS_10_Hash_nodeISt4pairIKN4cvc58internal12NodeTemplateILb1EEES7_ELb1EEEEE19_M_deallocate_nodesEPS9_ = comdat any

$_ZNSt10_HashtableIKN4cvc58internal12NodeTemplateILb1EEESt4pairIS4_S4_ESaIS6_ENSt8__detail10_Select1stESt8equal_toIS4_ESt4hashIS3_ENS8_18_Mod_range_hashingENS8_20_Default_ranged_hashENS8_20_Prime_rehash_policyENS8_17_Hashtable_traitsILb1ELb0ELb1EEEE21_M_deallocate_bucketsEPPNS8_15_Hash_node_baseEm = comdat any

$_ZNKSt10_HashtableIKN4cvc58internal12NodeTemplateILb1EEESt4pairIS4_S4_ESaIS6_ENSt8__detail10_Select1stESt8equal_toIS4_ESt4hashIS3_ENS8_18_Mod_range_hashingENS8_20_Default_ranged_hashENS8_20_Prime_rehash_policyENS8_17_Hashtable_traitsILb1ELb0ELb1EEEE21_M_uses_single_bucketEPPNS8_15_Hash_node_baseE = comdat any

$_ZNSt8__detail16_Hashtable_allocISaINS_10_Hash_nodeISt4pairIKN4cvc58internal12NodeTemplateILb1EEES7_ELb1EEEEE21_M_deallocate_bucketsEPPNS_15_Hash_node_baseEm = comdat any

$_ZNSaIPNSt8__detail15_Hash_node_baseEEC2INS_10_Hash_nodeISt4pairIKN4cvc58internal12NodeTemplateILb1EEESA_ELb1EEEEERKSaIT_E = comdat any

$_ZNSt8__detail21_Hashtable_ebo_helperILi0ESaINS_10_Hash_nodeISt4pairIKN4cvc58internal12NodeTemplateILb1EEES7_ELb1EEEELb1EED2Ev = comdat any

$_ZNSaINSt8__detail10_Hash_nodeISt4pairIKN4cvc58internal12NodeTemplateILb1EEES6_ELb1EEEED2Ev = comdat any

$_ZNSt15__new_allocatorINSt8__detail10_Hash_nodeISt4pairIKN4cvc58internal12NodeTemplateILb1EEES7_ELb1EEEED2Ev = comdat any

$_ZNSt5dequeIN4cvc58internal12NodeTemplateILb1EEESaIS3_EE15_M_destroy_dataESt15_Deque_iteratorIS3_RS3_PS3_ES9_RKS4_ = comdat any

$_ZNSt5dequeIN4cvc58internal12NodeTemplateILb1EEESaIS3_EE5beginEv = comdat any

$_ZNSt11_Deque_baseIN4cvc58internal12NodeTemplateILb1EEESaIS3_EED2Ev = comdat any

$_ZNSt5dequeIN4cvc58internal12NodeTemplateILb1EEESaIS3_EE19_M_destroy_data_auxESt15_Deque_iteratorIS3_RS3_PS3_ES9_ = comdat any

$_ZSt8_DestroyIPN4cvc58internal12NodeTemplateILb1EEES3_EvT_S5_RSaIT0_E = comdat any

$_ZNSt5dequeIN4cvc58internal12NodeTemplateILb1EEESaIS3_EE14_S_buffer_sizeEv = comdat any

$_ZSt8_DestroyIPN4cvc58internal12NodeTemplateILb1EEEEvT_S5_ = comdat any

$_ZNSt12_Destroy_auxILb0EE9__destroyIPN4cvc58internal12NodeTemplateILb1EEEEEvT_S7_ = comdat any

$_ZSt8_DestroyIN4cvc58internal12NodeTemplateILb1EEEEvPT_ = comdat any

$_ZNSt15__uniq_ptr_implIN4cvc58internal19TConvProofGeneratorESt14default_deleteIS2_EE6_M_ptrEv = comdat any

$_ZNSt10unique_ptrIN4cvc58internal19TConvProofGeneratorESt14default_deleteIS2_EE11get_deleterEv = comdat any

$_ZNKSt14default_deleteIN4cvc58internal19TConvProofGeneratorEEclEPS2_ = comdat any

$_ZSt3getILm0EJPN4cvc58internal19TConvProofGeneratorESt14default_deleteIS2_EEERNSt13tuple_elementIXT_ESt5tupleIJDpT0_EEE4typeERSA_ = comdat any

$_ZSt12__get_helperILm0EPN4cvc58internal19TConvProofGeneratorEJSt14default_deleteIS2_EEERT0_RSt11_Tuple_implIXT_EJS6_DpT1_EE = comdat any

$_ZNSt11_Tuple_implILm0EJPN4cvc58internal19TConvProofGeneratorESt14default_deleteIS2_EEE7_M_headERS6_ = comdat any

$_ZNSt10_Head_baseILm0EPN4cvc58internal19TConvProofGeneratorELb0EE7_M_headERS4_ = comdat any

$_ZNSt15__uniq_ptr_implIN4cvc58internal19TConvProofGeneratorESt14default_deleteIS2_EE10_M_deleterEv = comdat any

$_ZSt3getILm1EJPN4cvc58internal19TConvProofGeneratorESt14default_deleteIS2_EEERNSt13tuple_elementIXT_ESt5tupleIJDpT0_EEE4typeERSA_ = comdat any

$_ZSt12__get_helperILm1ESt14default_deleteIN4cvc58internal19TConvProofGeneratorEEJEERT0_RSt11_Tuple_implIXT_EJS5_DpT1_EE = comdat any

$_ZNSt11_Tuple_implILm1EJSt14default_deleteIN4cvc58internal19TConvProofGeneratorEEEE7_M_headERS5_ = comdat any

$_ZNSt10_Head_baseILm1ESt14default_deleteIN4cvc58internal19TConvProofGeneratorEELb1EE7_M_headERS5_ = comdat any

$_ZNSt15__uniq_ptr_implIN4cvc58internal11LazyCDProofESt14default_deleteIS2_EE6_M_ptrEv = comdat any

$_ZNSt10unique_ptrIN4cvc58internal11LazyCDProofESt14default_deleteIS2_EE11get_deleterEv = comdat any

$_ZNKSt14default_deleteIN4cvc58internal11LazyCDProofEEclEPS2_ = comdat any

$_ZSt3getILm0EJPN4cvc58internal11LazyCDProofESt14default_deleteIS2_EEERNSt13tuple_elementIXT_ESt5tupleIJDpT0_EEE4typeERSA_ = comdat any

$_ZSt12__get_helperILm0EPN4cvc58internal11LazyCDProofEJSt14default_deleteIS2_EEERT0_RSt11_Tuple_implIXT_EJS6_DpT1_EE = comdat any

$_ZNSt11_Tuple_implILm0EJPN4cvc58internal11LazyCDProofESt14default_deleteIS2_EEE7_M_headERS6_ = comdat any

$_ZNSt10_Head_baseILm0EPN4cvc58internal11LazyCDProofELb0EE7_M_headERS4_ = comdat any

$_ZNSt15__uniq_ptr_implIN4cvc58internal11LazyCDProofESt14default_deleteIS2_EE10_M_deleterEv = comdat any

$_ZSt3getILm1EJPN4cvc58internal11LazyCDProofESt14default_deleteIS2_EEERNSt13tuple_elementIXT_ESt5tupleIJDpT0_EEE4typeERSA_ = comdat any

$_ZSt12__get_helperILm1ESt14default_deleteIN4cvc58internal11LazyCDProofEEJEERT0_RSt11_Tuple_implIXT_EJS5_DpT1_EE = comdat any

$_ZNSt11_Tuple_implILm1EJSt14default_deleteIN4cvc58internal11LazyCDProofEEEE7_M_headERS5_ = comdat any

$_ZNSt10_Head_baseILm1ESt14default_deleteIN4cvc58internal11LazyCDProofEELb1EE7_M_headERS5_ = comdat any

$_ZNSt15__uniq_ptr_implIN4cvc58internal19TConvProofGeneratorESt14default_deleteIS2_EE5resetEPS2_ = comdat any

$_ZNSt15__uniq_ptr_implIN4cvc58internal11LazyCDProofESt14default_deleteIS2_EE5resetEPS2_ = comdat any

$_ZN4cvc58internal4expr9NodeValue3incEv = comdat any

$_ZNKSt15__uniq_ptr_implIN4cvc58internal19TConvProofGeneratorESt14default_deleteIS2_EE6_M_ptrEv = comdat any

$_ZSt3getILm0EJPN4cvc58internal19TConvProofGeneratorESt14default_deleteIS2_EEERKNSt13tuple_elementIXT_ESt5tupleIJDpT0_EEE4typeERKSA_ = comdat any

$_ZSt12__get_helperILm0EPN4cvc58internal19TConvProofGeneratorEJSt14default_deleteIS2_EEERKT0_RKSt11_Tuple_implIXT_EJS6_DpT1_EE = comdat any

$_ZNSt11_Tuple_implILm0EJPN4cvc58internal19TConvProofGeneratorESt14default_deleteIS2_EEE7_M_headERKS6_ = comdat any

$_ZNSt10_Head_baseILm0EPN4cvc58internal19TConvProofGeneratorELb0EE7_M_headERKS4_ = comdat any

$_ZNKSt15__uniq_ptr_implIN4cvc58internal11LazyCDProofESt14default_deleteIS2_EE6_M_ptrEv = comdat any

$_ZSt3getILm0EJPN4cvc58internal11LazyCDProofESt14default_deleteIS2_EEERKNSt13tuple_elementIXT_ESt5tupleIJDpT0_EEE4typeERKSA_ = comdat any

$_ZSt12__get_helperILm0EPN4cvc58internal11LazyCDProofEJSt14default_deleteIS2_EEERKT0_RKSt11_Tuple_implIXT_EJS6_DpT1_EE = comdat any

$_ZNSt11_Tuple_implILm0EJPN4cvc58internal11LazyCDProofESt14default_deleteIS2_EEE7_M_headERKS6_ = comdat any

$_ZNSt10_Head_baseILm0EPN4cvc58internal11LazyCDProofELb0EE7_M_headERKS4_ = comdat any

$_ZNSt12_Vector_baseIN4cvc58internal12NodeTemplateILb1EEESaIS3_EEC2ERKS4_ = comdat any

$_ZNSt6vectorIN4cvc58internal12NodeTemplateILb1EEESaIS3_EE19_M_range_initializeIPKS3_EEvT_S9_St20forward_iterator_tag = comdat any

$_ZNKSt16initializer_listIN4cvc58internal12NodeTemplateILb1EEEE5beginEv = comdat any

$_ZNKSt16initializer_listIN4cvc58internal12NodeTemplateILb1EEEE3endEv = comdat any

$_ZNSt12_Vector_baseIN4cvc58internal12NodeTemplateILb1EEESaIS3_EED2Ev = comdat any

$_ZNSt12_Vector_baseIN4cvc58internal12NodeTemplateILb1EEESaIS3_EE12_Vector_implC2ERKS4_ = comdat any

$_ZNSt15__new_allocatorIN4cvc58internal12NodeTemplateILb1EEEEC2ERKS4_ = comdat any

$_ZSt8distanceIPKN4cvc58internal12NodeTemplateILb1EEEENSt15iterator_traitsIT_E15difference_typeES7_S7_ = comdat any

$_ZNSt12_Vector_baseIN4cvc58internal12NodeTemplateILb1EEESaIS3_EE11_M_allocateEm = comdat any

$_ZNSt6vectorIN4cvc58internal12NodeTemplateILb1EEESaIS3_EE17_S_check_init_lenEmRKS4_ = comdat any

$_ZNSt12_Vector_baseIN4cvc58internal12NodeTemplateILb1EEESaIS3_EE19_M_get_Tp_allocatorEv = comdat any

$_ZSt22__uninitialized_copy_aIPKN4cvc58internal12NodeTemplateILb1EEEPS3_S3_ET0_T_S8_S7_RSaIT1_E = comdat any

$_ZSt10__distanceIPKN4cvc58internal12NodeTemplateILb1EEEENSt15iterator_traitsIT_E15difference_typeES7_S7_St26random_access_iterator_tag = comdat any

$_ZSt19__iterator_categoryIPKN4cvc58internal12NodeTemplateILb1EEEENSt15iterator_traitsIT_E17iterator_categoryERKS7_ = comdat any

$_ZNSt6vectorIN4cvc58internal12NodeTemplateILb1EEESaIS3_EE11_S_max_sizeERKS4_ = comdat any

$_ZNSaIN4cvc58internal12NodeTemplateILb1EEEEC2ERKS3_ = comdat any

$_ZNSt16allocator_traitsISaIN4cvc58internal12NodeTemplateILb1EEEEE8max_sizeERKS4_ = comdat any

$_ZSt3minImERKT_S2_S2_ = comdat any

$_ZNKSt15__new_allocatorIN4cvc58internal12NodeTemplateILb1EEEE8max_sizeEv = comdat any

$_ZSt18uninitialized_copyIPKN4cvc58internal12NodeTemplateILb1EEEPS3_ET0_T_S8_S7_ = comdat any

$_ZNSt20__uninitialized_copyILb0EE13__uninit_copyIPKN4cvc58internal12NodeTemplateILb1EEEPS5_EET0_T_SA_S9_ = comdat any

$_ZSt16__do_uninit_copyIPKN4cvc58internal12NodeTemplateILb1EEEPS3_ET0_T_S8_S7_ = comdat any

$_ZSt10_ConstructIN4cvc58internal12NodeTemplateILb1EEEJRKS3_EEvPT_DpOT0_ = comdat any

$_ZNKSt16initializer_listIN4cvc58internal12NodeTemplateILb1EEEE4sizeEv = comdat any

$_ZNSt12_Vector_baseIN4cvc58internal12NodeTemplateILb1EEESaIS3_EE13_M_deallocateEPS3_m = comdat any

$_ZNSt12_Vector_baseIN4cvc58internal12NodeTemplateILb1EEESaIS3_EE12_Vector_implD2Ev = comdat any

$_ZNSt13_Bvector_baseISaIbEED2Ev = comdat any

$_ZNSt13_Bvector_baseISaIbEE13_M_deallocateEv = comdat any

$_ZNSt13_Bvector_baseISaIbEE13_Bvector_implD2Ev = comdat any

$_ZNKSt13_Bvector_baseISaIbEE13_Bvector_impl11_M_end_addrEv = comdat any

$_ZNSt16allocator_traitsISaImEE10deallocateERS0_Pmm = comdat any

$_ZNSt13_Bvector_baseISaIbEE18_Bvector_impl_data8_M_resetEv = comdat any

$_ZNSt15__new_allocatorImE10deallocateEPmm = comdat any

$_ZNSt13_Bvector_baseISaIbEE18_Bvector_impl_dataC2Ev = comdat any

$_ZNSaImED2Ev = comdat any

$_ZNSt15__new_allocatorImED2Ev = comdat any

$_ZNSt13_Bit_iteratorppEi = comdat any

$_ZNKSt13_Bit_iteratordeEv = comdat any

$_ZNSt6vectorIbSaIbEE13_M_insert_auxESt13_Bit_iteratorb = comdat any

$_ZNSt6vectorIbSaIbEE3endEv = comdat any

$_ZNSt18_Bit_iterator_base10_M_bump_upEv = comdat any

$_ZNSt14_Bit_referenceC2EPmm = comdat any

$_ZSt13copy_backwardISt13_Bit_iteratorS0_ET0_T_S2_S1_ = comdat any

$_ZStplRKSt13_Bit_iteratorl = comdat any

$_ZNSt13_Bit_iteratorppEv = comdat any

$_ZNKSt6vectorIbSaIbEE12_M_check_lenEmPKc = comdat any

$_ZNSt13_Bvector_baseISaIbEE11_M_allocateEm = comdat any

$_ZNSt13_Bit_iteratorC2EPmj = comdat any

$_ZNSt6vectorIbSaIbEE15_M_copy_alignedESt19_Bit_const_iteratorS2_St13_Bit_iterator = comdat any

$_ZNSt6vectorIbSaIbEE5beginEv = comdat any

$_ZNSt19_Bit_const_iteratorC2ERKSt13_Bit_iterator = comdat any

$_ZSt4copyISt13_Bit_iteratorS0_ET0_T_S2_S1_ = comdat any

$_ZNSt13_Bvector_baseISaIbEE8_S_nwordEm = comdat any

$_ZSt22__copy_move_backward_aILb0ESt13_Bit_iteratorS0_ET1_T0_S2_S1_ = comdat any

$_ZSt12__miter_baseISt13_Bit_iteratorET_S1_ = comdat any

$_ZSt12__niter_wrapISt13_Bit_iteratorET_RKS1_S1_ = comdat any

$_ZSt23__copy_move_backward_a1ILb0ESt13_Bit_iteratorS0_ET1_T0_S2_S1_ = comdat any

$_ZSt12__niter_baseISt13_Bit_iteratorET_S1_ = comdat any

$_ZSt23__copy_move_backward_a2ILb0ESt13_Bit_iteratorS0_ET1_T0_S2_S1_ = comdat any

$_ZNSt20__copy_move_backwardILb0ELb0ESt26random_access_iterator_tagE13__copy_move_bISt13_Bit_iteratorS3_EET0_T_S5_S4_ = comdat any

$_ZStmiRKSt18_Bit_iterator_baseS1_ = comdat any

$_ZNSt13_Bit_iteratormmEv = comdat any

$_ZNSt14_Bit_referenceaSERKS_ = comdat any

$_ZNSt18_Bit_iterator_base12_M_bump_downEv = comdat any

$_ZNSt13_Bit_iteratorpLEl = comdat any

$_ZNSt18_Bit_iterator_base7_M_incrEl = comdat any

$_ZNKSt6vectorIbSaIbEE8max_sizeEv = comdat any

$_ZNSt16allocator_traitsISaImEE8max_sizeERKS0_ = comdat any

$_ZNKSt13_Bvector_baseISaIbEE20_M_get_Bit_allocatorEv = comdat any

$_ZNKSt15__new_allocatorImE8max_sizeEv = comdat any

$_ZNKSt15__new_allocatorImE11_M_max_sizeEv = comdat any

$_ZNSt16allocator_traitsISaImEE8allocateERS0_m = comdat any

$_ZNSt15__new_allocatorImE8allocateEmPKv = comdat any

$_ZSt4copyIPmS0_ET0_T_S2_S1_ = comdat any

$_ZSt4copyISt19_Bit_const_iteratorSt13_Bit_iteratorET0_T_S3_S2_ = comdat any

$_ZNSt19_Bit_const_iteratorC2EPmj = comdat any

$_ZSt13__copy_move_aILb0EPmS0_ET1_T0_S2_S1_ = comdat any

$_ZSt12__miter_baseIPmET_S1_ = comdat any

$_ZSt12__niter_wrapIPmET_RKS1_S1_ = comdat any

$_ZSt14__copy_move_a1ILb0EPmS0_ET1_T0_S2_S1_ = comdat any

$_ZSt12__niter_baseIPmET_S1_ = comdat any

$_ZSt14__copy_move_a2ILb0EPmS0_ET1_T0_S2_S1_ = comdat any

$_ZNSt11__copy_moveILb0ELb1ESt26random_access_iterator_tagE8__copy_mImEEPT_PKS3_S6_S4_ = comdat any

$_ZSt13__copy_move_aILb0ESt19_Bit_const_iteratorSt13_Bit_iteratorET1_T0_S3_S2_ = comdat any

$_ZSt12__miter_baseISt19_Bit_const_iteratorET_S1_ = comdat any

$_ZSt14__copy_move_a1ILb0ESt19_Bit_const_iteratorSt13_Bit_iteratorET1_T0_S3_S2_ = comdat any

$_ZSt12__niter_baseISt19_Bit_const_iteratorET_S1_ = comdat any

$_ZSt14__copy_move_a2ILb0ESt19_Bit_const_iteratorSt13_Bit_iteratorET1_T0_S3_S2_ = comdat any

$_ZNSt11__copy_moveILb0ELb0ESt26random_access_iterator_tagE8__copy_mISt19_Bit_const_iteratorSt13_Bit_iteratorEET0_T_S6_S5_ = comdat any

$_ZNKSt19_Bit_const_iteratordeEv = comdat any

$_ZNSt19_Bit_const_iteratorppEv = comdat any

$_ZSt13__copy_move_aILb0ESt13_Bit_iteratorS0_ET1_T0_S2_S1_ = comdat any

$_ZSt14__copy_move_a1ILb0ESt13_Bit_iteratorS0_ET1_T0_S2_S1_ = comdat any

$_ZSt14__copy_move_a2ILb0ESt13_Bit_iteratorS0_ET1_T0_S2_S1_ = comdat any

$_ZNSt11__copy_moveILb0ELb0ESt26random_access_iterator_tagE8__copy_mISt13_Bit_iteratorS3_EET0_T_S5_S4_ = comdat any

$_ZNK4cvc57context13InsertHashMapISt4pairINS_8internal12NodeTemplateILb1EEEjES5_NS3_16PairHashFunctionIS5_jSt4hashIS5_ES8_IjEEEE4findERKS6_ = comdat any

$_ZNKSt13unordered_mapIKSt4pairIN4cvc58internal12NodeTemplateILb1EEEjEKS4_NS2_16PairHashFunctionIS4_jSt4hashIS4_ES9_IjEEESt8equal_toIS6_ESaIS0_IS6_S7_EEE4findERS6_ = comdat any

$_ZNKSt10_HashtableIKSt4pairIN4cvc58internal12NodeTemplateILb1EEEjES0_IS6_KS4_ESaIS8_ENSt8__detail10_Select1stESt8equal_toIS6_ENS2_16PairHashFunctionIS4_jSt4hashIS4_ESF_IjEEENSA_18_Mod_range_hashingENSA_20_Default_ranged_hashENSA_20_Prime_rehash_policyENSA_17_Hashtable_traitsILb1ELb0ELb1EEEE4findERS6_ = comdat any

$_ZNKSt10_HashtableIKSt4pairIN4cvc58internal12NodeTemplateILb1EEEjES0_IS6_KS4_ESaIS8_ENSt8__detail10_Select1stESt8equal_toIS6_ENS2_16PairHashFunctionIS4_jSt4hashIS4_ESF_IjEEENSA_18_Mod_range_hashingENSA_20_Default_ranged_hashENSA_20_Prime_rehash_policyENSA_17_Hashtable_traitsILb1ELb0ELb1EEEE5beginEv = comdat any

$_ZNKSt10_HashtableIKSt4pairIN4cvc58internal12NodeTemplateILb1EEEjES0_IS6_KS4_ESaIS8_ENSt8__detail10_Select1stESt8equal_toIS6_ENS2_16PairHashFunctionIS4_jSt4hashIS4_ESF_IjEEENSA_18_Mod_range_hashingENSA_20_Default_ranged_hashENSA_20_Prime_rehash_policyENSA_17_Hashtable_traitsILb1ELb0ELb1EEEE3endEv = comdat any

$_ZNSt8__detail20_Node_const_iteratorISt4pairIKS1_IN4cvc58internal12NodeTemplateILb1EEEjEKS5_ELb0ELb1EEppEv = comdat any

$_ZNKSt10_HashtableIKSt4pairIN4cvc58internal12NodeTemplateILb1EEEjES0_IS6_KS4_ESaIS8_ENSt8__detail10_Select1stESt8equal_toIS6_ENS2_16PairHashFunctionIS4_jSt4hashIS4_ESF_IjEEENSA_18_Mod_range_hashingENSA_20_Default_ranged_hashENSA_20_Prime_rehash_policyENSA_17_Hashtable_traitsILb1ELb0ELb1EEEE12_M_find_nodeEmRS6_m = comdat any

$_ZNSt8__detail20_Node_const_iteratorISt4pairIKS1_IN4cvc58internal12NodeTemplateILb1EEEjEKS5_ELb0ELb1EEC2EPNS_10_Hash_nodeIS9_Lb1EEE = comdat any

$_ZNSt8__detail19_Node_iterator_baseISt4pairIKS1_IN4cvc58internal12NodeTemplateILb1EEEjEKS5_ELb1EE7_M_incrEv = comdat any

$_ZN4cvc58internallsERSoNS0_12NodeTemplateILb0EEE = comdat any

$_ZNK4cvc58internal12NodeTemplateILb0EE8toStreamERSo = comdat any

$_ZNK4cvc57context13InsertHashMapISt4pairINS_8internal12NodeTemplateILb1EEEjES5_NS3_16PairHashFunctionIS5_jSt4hashIS5_ES8_IjEEEE3endEv = comdat any

$_ZNKSt13unordered_mapIKSt4pairIN4cvc58internal12NodeTemplateILb1EEEjEKS4_NS2_16PairHashFunctionIS4_jSt4hashIS4_ES9_IjEEESt8equal_toIS6_ESaIS0_IS6_S7_EEE3endEv = comdat any

$_ZStmiRKSt13_Bit_iteratorl = comdat any

$_ZNSt13_Bit_iteratormIEl = comdat any

$_ZNSt6vectorIN4cvc58internal6theory11SkolemLemmaESaIS3_EE12emplace_backIJS3_EEERS3_DpOT_ = comdat any

$_ZNSt16allocator_traitsISaIN4cvc58internal6theory11SkolemLemmaEEE9constructIS3_JS3_EEEvRS4_PT_DpOT0_ = comdat any

$_ZNSt6vectorIN4cvc58internal6theory11SkolemLemmaESaIS3_EE17_M_realloc_insertIJS3_EEEvN9__gnu_cxx17__normal_iteratorIPS3_S5_EEDpOT_ = comdat any

$_ZNSt6vectorIN4cvc58internal6theory11SkolemLemmaESaIS3_EE3endEv = comdat any

$_ZNSt6vectorIN4cvc58internal6theory11SkolemLemmaESaIS3_EE4backEv = comdat any

$_ZNSt15__new_allocatorIN4cvc58internal6theory11SkolemLemmaEE9constructIS3_JS3_EEEvPT_DpOT0_ = comdat any

$_ZN4cvc58internal6theory11SkolemLemmaC2EOS2_ = comdat any

$_ZNKSt6vectorIN4cvc58internal6theory11SkolemLemmaESaIS3_EE12_M_check_lenEmPKc = comdat any

$_ZN9__gnu_cxxmiIPN4cvc58internal6theory11SkolemLemmaESt6vectorIS4_SaIS4_EEEENS_17__normal_iteratorIT_T0_E15difference_typeERKSC_SF_ = comdat any

$_ZNSt6vectorIN4cvc58internal6theory11SkolemLemmaESaIS3_EE5beginEv = comdat any

$_ZNSt12_Vector_baseIN4cvc58internal6theory11SkolemLemmaESaIS3_EE11_M_allocateEm = comdat any

$_ZSt34__uninitialized_move_if_noexcept_aIPN4cvc58internal6theory11SkolemLemmaES4_SaIS3_EET0_T_S7_S6_RT1_ = comdat any

$_ZNK9__gnu_cxx17__normal_iteratorIPN4cvc58internal6theory11SkolemLemmaESt6vectorIS4_SaIS4_EEE4baseEv = comdat any

$_ZNSt12_Vector_baseIN4cvc58internal6theory11SkolemLemmaESaIS3_EE19_M_get_Tp_allocatorEv = comdat any

$_ZNSt16allocator_traitsISaIN4cvc58internal6theory11SkolemLemmaEEE7destroyIS3_EEvRS4_PT_ = comdat any

$_ZSt8_DestroyIPN4cvc58internal6theory11SkolemLemmaES3_EvT_S5_RSaIT0_E = comdat any

$_ZNSt12_Vector_baseIN4cvc58internal6theory11SkolemLemmaESaIS3_EE13_M_deallocateEPS3_m = comdat any

$_ZNKSt6vectorIN4cvc58internal6theory11SkolemLemmaESaIS3_EE8max_sizeEv = comdat any

$_ZNSt6vectorIN4cvc58internal6theory11SkolemLemmaESaIS3_EE11_S_max_sizeERKS4_ = comdat any

$_ZNKSt12_Vector_baseIN4cvc58internal6theory11SkolemLemmaESaIS3_EE19_M_get_Tp_allocatorEv = comdat any

$_ZNSt16allocator_traitsISaIN4cvc58internal6theory11SkolemLemmaEEE8max_sizeERKS4_ = comdat any

$_ZNKSt15__new_allocatorIN4cvc58internal6theory11SkolemLemmaEE8max_sizeEv = comdat any

$_ZNKSt15__new_allocatorIN4cvc58internal6theory11SkolemLemmaEE11_M_max_sizeEv = comdat any

$_ZN9__gnu_cxx17__normal_iteratorIPN4cvc58internal6theory11SkolemLemmaESt6vectorIS4_SaIS4_EEEC2ERKS5_ = comdat any

$_ZNSt16allocator_traitsISaIN4cvc58internal6theory11SkolemLemmaEEE8allocateERS4_m = comdat any

$_ZNSt15__new_allocatorIN4cvc58internal6theory11SkolemLemmaEE8allocateEmPKv = comdat any

$_ZSt22__uninitialized_copy_aIPKN4cvc58internal6theory11SkolemLemmaEPS3_S3_ET0_T_S8_S7_RSaIT1_E = comdat any

$_ZSt32__make_move_if_noexcept_iteratorIN4cvc58internal6theory11SkolemLemmaEPKS3_ET0_PT_ = comdat any

$_ZSt18uninitialized_copyIPKN4cvc58internal6theory11SkolemLemmaEPS3_ET0_T_S8_S7_ = comdat any

$_ZNSt20__uninitialized_copyILb0EE13__uninit_copyIPKN4cvc58internal6theory11SkolemLemmaEPS5_EET0_T_SA_S9_ = comdat any

$_ZSt16__do_uninit_copyIPKN4cvc58internal6theory11SkolemLemmaEPS3_ET0_T_S8_S7_ = comdat any

$_ZSt10_ConstructIN4cvc58internal6theory11SkolemLemmaEJRKS3_EEvPT_DpOT0_ = comdat any

$_ZSt8_DestroyIPN4cvc58internal6theory11SkolemLemmaEEvT_S5_ = comdat any

$_ZN4cvc58internal6theory11SkolemLemmaC2ERKS2_ = comdat any

$_ZNSt12_Destroy_auxILb0EE9__destroyIPN4cvc58internal6theory11SkolemLemmaEEEvT_S7_ = comdat any

$_ZSt8_DestroyIN4cvc58internal6theory11SkolemLemmaEEvPT_ = comdat any

$_ZNSt15__new_allocatorIN4cvc58internal6theory11SkolemLemmaEE7destroyIS3_EEvPT_ = comdat any

$_ZNSt16allocator_traitsISaIN4cvc58internal6theory11SkolemLemmaEEE10deallocateERS4_PS3_m = comdat any

$_ZNSt15__new_allocatorIN4cvc58internal6theory11SkolemLemmaEE10deallocateEPS3_m = comdat any

$_ZNK9__gnu_cxx17__normal_iteratorIPN4cvc58internal6theory11SkolemLemmaESt6vectorIS4_SaIS4_EEEmiEl = comdat any

$_ZNK9__gnu_cxx17__normal_iteratorIPN4cvc58internal6theory11SkolemLemmaESt6vectorIS4_SaIS4_EEEdeEv = comdat any

$_ZN4cvc57context10ContextObj11makeCurrentEv = comdat any

$_ZN4cvc57context13InsertHashMapISt4pairINS_8internal12NodeTemplateILb1EEEjES5_NS3_16PairHashFunctionIS5_jSt4hashIS5_ES8_IjEEEE9push_backERKS6_RKS5_ = comdat any

$_ZNK4cvc57context5Scope9isCurrentEv = comdat any

$_ZNK4cvc57context7Context11getTopScopeEv = comdat any

$_ZNKSt6vectorIPN4cvc57context5ScopeESaIS3_EE4backEv = comdat any

$_ZNKSt6vectorIPN4cvc57context5ScopeESaIS3_EE3endEv = comdat any

$_ZNK9__gnu_cxx17__normal_iteratorIPKPN4cvc57context5ScopeESt6vectorIS4_SaIS4_EEEmiEl = comdat any

$_ZNK9__gnu_cxx17__normal_iteratorIPKPN4cvc57context5ScopeESt6vectorIS4_SaIS4_EEEdeEv = comdat any

$_ZN9__gnu_cxx17__normal_iteratorIPKPN4cvc57context5ScopeESt6vectorIS4_SaIS4_EEEC2ERKS6_ = comdat any

$_ZNSt13unordered_mapIKSt4pairIN4cvc58internal12NodeTemplateILb1EEEjEKS4_NS2_16PairHashFunctionIS4_jSt4hashIS4_ES9_IjEEESt8equal_toIS6_ESaIS0_IS6_S7_EEE6insertIS0_IS5_S4_EEENSt9enable_ifIXsr16is_constructibleISF_OT_EE5valueES0_INSt8__detail14_Node_iteratorISF_Lb0ELb1EEEbEE4typeESM_ = comdat any

$_ZSt9make_pairIRKSt4pairIN4cvc58internal12NodeTemplateILb1EEEjERKS4_ES0_INSt25__strip_reference_wrapperINSt5decayIT_E4typeEE6__typeENSA_INSB_IT0_E4typeEE6__typeEEOSC_OSH_ = comdat any

$_ZNSt4pairIS_IN4cvc58internal12NodeTemplateILb1EEEjES3_ED2Ev = comdat any

$_ZNSt5dequeISt4pairIN4cvc58internal12NodeTemplateILb1EEEjESaIS5_EE9push_backERKS5_ = comdat any

$_ZNSt10_HashtableIKSt4pairIN4cvc58internal12NodeTemplateILb1EEEjES0_IS6_KS4_ESaIS8_ENSt8__detail10_Select1stESt8equal_toIS6_ENS2_16PairHashFunctionIS4_jSt4hashIS4_ESF_IjEEENSA_18_Mod_range_hashingENSA_20_Default_ranged_hashENSA_20_Prime_rehash_policyENSA_17_Hashtable_traitsILb1ELb0ELb1EEEE7emplaceIJS0_IS5_S4_EEEES0_INSA_14_Node_iteratorIS8_Lb0ELb1EEEbEDpOT_ = comdat any

$_ZNSt10_HashtableIKSt4pairIN4cvc58internal12NodeTemplateILb1EEEjES0_IS6_KS4_ESaIS8_ENSt8__detail10_Select1stESt8equal_toIS6_ENS2_16PairHashFunctionIS4_jSt4hashIS4_ESF_IjEEENSA_18_Mod_range_hashingENSA_20_Default_ranged_hashENSA_20_Prime_rehash_policyENSA_17_Hashtable_traitsILb1ELb0ELb1EEEE10_M_emplaceIJS0_IS5_S4_EEEES0_INSA_14_Node_iteratorIS8_Lb0ELb1EEEbESt17integral_constantIbLb1EEDpOT_ = comdat any

$_ZNSt10_HashtableIKSt4pairIN4cvc58internal12NodeTemplateILb1EEEjES0_IS6_KS4_ESaIS8_ENSt8__detail10_Select1stESt8equal_toIS6_ENS2_16PairHashFunctionIS4_jSt4hashIS4_ESF_IjEEENSA_18_Mod_range_hashingENSA_20_Default_ranged_hashENSA_20_Prime_rehash_policyENSA_17_Hashtable_traitsILb1ELb0ELb1EEEE12_Scoped_nodeC2IJS0_IS5_S4_EEEEPNSA_16_Hashtable_allocISaINSA_10_Hash_nodeIS8_Lb1EEEEEEDpOT_ = comdat any

$_ZNKSt8__detail10_Select1stclIRSt4pairIKS2_IN4cvc58internal12NodeTemplateILb1EEEjEKS6_EEEONS0_10__1st_typeIT_E4typeEOSD_ = comdat any

$_ZNSt8__detail21_Hash_node_value_baseISt4pairIKS1_IN4cvc58internal12NodeTemplateILb1EEEjEKS5_EE4_M_vEv = comdat any

$_ZNSt10_HashtableIKSt4pairIN4cvc58internal12NodeTemplateILb1EEEjES0_IS6_KS4_ESaIS8_ENSt8__detail10_Select1stESt8equal_toIS6_ENS2_16PairHashFunctionIS4_jSt4hashIS4_ESF_IjEEENSA_18_Mod_range_hashingENSA_20_Default_ranged_hashENSA_20_Prime_rehash_policyENSA_17_Hashtable_traitsILb1ELb0ELb1EEEE5beginEv = comdat any

$_ZNSt10_HashtableIKSt4pairIN4cvc58internal12NodeTemplateILb1EEEjES0_IS6_KS4_ESaIS8_ENSt8__detail10_Select1stESt8equal_toIS6_ENS2_16PairHashFunctionIS4_jSt4hashIS4_ESF_IjEEENSA_18_Mod_range_hashingENSA_20_Default_ranged_hashENSA_20_Prime_rehash_policyENSA_17_Hashtable_traitsILb1ELb0ELb1EEEE3endEv = comdat any

$_ZNSt4pairINSt8__detail14_Node_iteratorIS_IKS_IN4cvc58internal12NodeTemplateILb1EEEjEKS5_ELb0ELb1EEEbEC2IRSA_bTnNSt9enable_ifIXaaclsr5_PCCPE22_MoveConstructiblePairIT_T0_EEclsr5_PCCPE30_ImplicitlyMoveConvertiblePairISF_SG_EEEbE4typeELb1EEEOSF_OSG_ = comdat any

$_ZNSt8__detail14_Node_iteratorISt4pairIKS1_IN4cvc58internal12NodeTemplateILb1EEEjEKS5_ELb0ELb1EEppEv = comdat any

$_ZNSt4pairINSt8__detail14_Node_iteratorIS_IKS_IN4cvc58internal12NodeTemplateILb1EEEjEKS5_ELb0ELb1EEEbEC2ISA_bTnNSt9enable_ifIXaaclsr5_PCCPE22_MoveConstructiblePairIT_T0_EEclsr5_PCCPE30_ImplicitlyMoveConvertiblePairISE_SF_EEEbE4typeELb1EEEOSE_OSF_ = comdat any

$_ZNSt10_HashtableIKSt4pairIN4cvc58internal12NodeTemplateILb1EEEjES0_IS6_KS4_ESaIS8_ENSt8__detail10_Select1stESt8equal_toIS6_ENS2_16PairHashFunctionIS4_jSt4hashIS4_ESF_IjEEENSA_18_Mod_range_hashingENSA_20_Default_ranged_hashENSA_20_Prime_rehash_policyENSA_17_Hashtable_traitsILb1ELb0ELb1EEEE21_M_insert_unique_nodeEmmPNSA_10_Hash_nodeIS8_Lb1EEEm = comdat any

$_ZNSt10_HashtableIKSt4pairIN4cvc58internal12NodeTemplateILb1EEEjES0_IS6_KS4_ESaIS8_ENSt8__detail10_Select1stESt8equal_toIS6_ENS2_16PairHashFunctionIS4_jSt4hashIS4_ESF_IjEEENSA_18_Mod_range_hashingENSA_20_Default_ranged_hashENSA_20_Prime_rehash_policyENSA_17_Hashtable_traitsILb1ELb0ELb1EEEE12_Scoped_nodeD2Ev = comdat any

$_ZNSt8__detail16_Hashtable_allocISaINS_10_Hash_nodeISt4pairIKS2_IN4cvc58internal12NodeTemplateILb1EEEjEKS6_ELb1EEEEE16_M_allocate_nodeIJS2_IS7_S6_EEEEPSB_DpOT_ = comdat any

$_ZNSt16allocator_traitsISaINSt8__detail10_Hash_nodeISt4pairIKS2_IN4cvc58internal12NodeTemplateILb1EEEjEKS6_ELb1EEEEE8allocateERSC_m = comdat any

$_ZSt12__to_addressINSt8__detail10_Hash_nodeISt4pairIKS2_IN4cvc58internal12NodeTemplateILb1EEEjEKS6_ELb1EEEEPT_SD_ = comdat any

$_ZNSt8__detail10_Hash_nodeISt4pairIKS1_IN4cvc58internal12NodeTemplateILb1EEEjEKS5_ELb1EEC2Ev = comdat any

$_ZNSt16allocator_traitsISaINSt8__detail10_Hash_nodeISt4pairIKS2_IN4cvc58internal12NodeTemplateILb1EEEjEKS6_ELb1EEEEE9constructISA_JS2_IS7_S6_EEEEvRSC_PT_DpOT0_ = comdat any

$_ZNSt15__new_allocatorINSt8__detail10_Hash_nodeISt4pairIKS2_IN4cvc58internal12NodeTemplateILb1EEEjEKS6_ELb1EEEE8allocateEmPKv = comdat any

$_ZNKSt15__new_allocatorINSt8__detail10_Hash_nodeISt4pairIKS2_IN4cvc58internal12NodeTemplateILb1EEEjEKS6_ELb1EEEE11_M_max_sizeEv = comdat any

$_ZNSt15__new_allocatorINSt8__detail10_Hash_nodeISt4pairIKS2_IN4cvc58internal12NodeTemplateILb1EEEjEKS6_ELb1EEEE9constructISA_JS2_IS7_S6_EEEEvPT_DpOT0_ = comdat any

$_ZNSt4pairIKS_IN4cvc58internal12NodeTemplateILb1EEEjEKS3_EC2IS4_S3_TnNSt9enable_ifIXaaclsr6_PCCFPIT_T0_EE22_MoveConstructiblePairISA_SB_EEclsr6_PCCFPISA_SB_EE30_ImplicitlyMoveConvertiblePairISA_SB_EEEbE4typeELb1EEEOS_ISA_SB_E = comdat any

$_ZNSt4pairIN4cvc58internal12NodeTemplateILb1EEEjEC2EOS4_ = comdat any

$_ZNKSt8__detail20_Prime_rehash_policy8_M_stateEv = comdat any

$_ZNSt10_HashtableIKSt4pairIN4cvc58internal12NodeTemplateILb1EEEjES0_IS6_KS4_ESaIS8_ENSt8__detail10_Select1stESt8equal_toIS6_ENS2_16PairHashFunctionIS4_jSt4hashIS4_ESF_IjEEENSA_18_Mod_range_hashingENSA_20_Default_ranged_hashENSA_20_Prime_rehash_policyENSA_17_Hashtable_traitsILb1ELb0ELb1EEEE9_M_rehashEmRKm = comdat any

$_ZNKSt8__detail15_Hash_code_baseIKSt4pairIN4cvc58internal12NodeTemplateILb1EEEjES1_IS7_KS5_ENS_10_Select1stENS3_16PairHashFunctionIS5_jSt4hashIS5_ESC_IjEEENS_18_Mod_range_hashingENS_20_Default_ranged_hashELb1EE13_M_store_codeERNS_21_Hash_node_code_cacheILb1EEEm = comdat any

$_ZNSt10_HashtableIKSt4pairIN4cvc58internal12NodeTemplateILb1EEEjES0_IS6_KS4_ESaIS8_ENSt8__detail10_Select1stESt8equal_toIS6_ENS2_16PairHashFunctionIS4_jSt4hashIS4_ESF_IjEEENSA_18_Mod_range_hashingENSA_20_Default_ranged_hashENSA_20_Prime_rehash_policyENSA_17_Hashtable_traitsILb1ELb0ELb1EEEE22_M_insert_bucket_beginEmPNSA_10_Hash_nodeIS8_Lb1EEE = comdat any

$_ZNSt10_HashtableIKSt4pairIN4cvc58internal12NodeTemplateILb1EEEjES0_IS6_KS4_ESaIS8_ENSt8__detail10_Select1stESt8equal_toIS6_ENS2_16PairHashFunctionIS4_jSt4hashIS4_ESF_IjEEENSA_18_Mod_range_hashingENSA_20_Default_ranged_hashENSA_20_Prime_rehash_policyENSA_17_Hashtable_traitsILb1ELb0ELb1EEEE13_M_rehash_auxEmSt17integral_constantIbLb1EE = comdat any

$_ZNSt8__detail20_Prime_rehash_policy8_M_resetEm = comdat any

$_ZNSt10_HashtableIKSt4pairIN4cvc58internal12NodeTemplateILb1EEEjES0_IS6_KS4_ESaIS8_ENSt8__detail10_Select1stESt8equal_toIS6_ENS2_16PairHashFunctionIS4_jSt4hashIS4_ESF_IjEEENSA_18_Mod_range_hashingENSA_20_Default_ranged_hashENSA_20_Prime_rehash_policyENSA_17_Hashtable_traitsILb1ELb0ELb1EEEE19_M_allocate_bucketsEm = comdat any

$_ZNSt8__detail16_Hashtable_allocISaINS_10_Hash_nodeISt4pairIKS2_IN4cvc58internal12NodeTemplateILb1EEEjEKS6_ELb1EEEEE19_M_allocate_bucketsEm = comdat any

$_ZNSt16allocator_traitsISaIPNSt8__detail15_Hash_node_baseEEE8allocateERS3_m = comdat any

$_ZSt12__to_addressIPNSt8__detail15_Hash_node_baseEEPT_S4_ = comdat any

$_ZNSt15__new_allocatorIPNSt8__detail15_Hash_node_baseEE8allocateEmPKv = comdat any

$_ZNKSt15__new_allocatorIPNSt8__detail15_Hash_node_baseEE11_M_max_sizeEv = comdat any

$_ZNSt4pairIS_IN4cvc58internal12NodeTemplateILb1EEEjES3_EC2IS4_S3_TnNSt9enable_ifIXaaclsr5_PCCPE18_ConstructiblePairIT_T0_EEclsr5_PCCPE26_ImplicitlyConvertiblePairIS8_S9_EEEbE4typeELb1EEERKS4_RKS3_ = comdat any

$_ZNSt4pairIN4cvc58internal12NodeTemplateILb1EEEjEC2ERKS4_ = comdat any

$_ZNSt16allocator_traitsISaISt4pairIN4cvc58internal12NodeTemplateILb1EEEjEEE9constructIS5_JRKS5_EEEvRS6_PT_DpOT0_ = comdat any

$_ZNSt5dequeISt4pairIN4cvc58internal12NodeTemplateILb1EEEjESaIS5_EE16_M_push_back_auxIJRKS5_EEEvDpOT_ = comdat any

$_ZNSt15__new_allocatorISt4pairIN4cvc58internal12NodeTemplateILb1EEEjEE9constructIS5_JRKS5_EEEvPT_DpOT0_ = comdat any

$_ZNKSt5dequeISt4pairIN4cvc58internal12NodeTemplateILb1EEEjESaIS5_EE8max_sizeEv = comdat any

$_ZNSt5dequeISt4pairIN4cvc58internal12NodeTemplateILb1EEEjESaIS5_EE22_M_reserve_map_at_backEm = comdat any

$_ZNSt5dequeISt4pairIN4cvc58internal12NodeTemplateILb1EEEjESaIS5_EE11_S_max_sizeERKS6_ = comdat any

$_ZNSt16allocator_traitsISaISt4pairIN4cvc58internal12NodeTemplateILb1EEEjEEE8max_sizeERKS6_ = comdat any

$_ZNKSt15__new_allocatorISt4pairIN4cvc58internal12NodeTemplateILb1EEEjEE8max_sizeEv = comdat any

$_ZNSt5dequeISt4pairIN4cvc58internal12NodeTemplateILb1EEEjESaIS5_EE17_M_reallocate_mapEmb = comdat any

$_ZSt4copyIPPSt4pairIN4cvc58internal12NodeTemplateILb1EEEjES7_ET0_T_S9_S8_ = comdat any

$_ZSt13copy_backwardIPPSt4pairIN4cvc58internal12NodeTemplateILb1EEEjES7_ET0_T_S9_S8_ = comdat any

$_ZSt13__copy_move_aILb0EPPSt4pairIN4cvc58internal12NodeTemplateILb1EEEjES7_ET1_T0_S9_S8_ = comdat any

$_ZSt12__miter_baseIPPSt4pairIN4cvc58internal12NodeTemplateILb1EEEjEET_S8_ = comdat any

$_ZSt12__niter_wrapIPPSt4pairIN4cvc58internal12NodeTemplateILb1EEEjEET_RKS8_S8_ = comdat any

$_ZSt14__copy_move_a1ILb0EPPSt4pairIN4cvc58internal12NodeTemplateILb1EEEjES7_ET1_T0_S9_S8_ = comdat any

$_ZSt12__niter_baseIPPSt4pairIN4cvc58internal12NodeTemplateILb1EEEjEET_S8_ = comdat any

$_ZSt14__copy_move_a2ILb0EPPSt4pairIN4cvc58internal12NodeTemplateILb1EEEjES7_ET1_T0_S9_S8_ = comdat any

$_ZNSt11__copy_moveILb0ELb1ESt26random_access_iterator_tagE8__copy_mIPSt4pairIN4cvc58internal12NodeTemplateILb1EEEjEEEPT_PKSA_SD_SB_ = comdat any

$_ZSt22__copy_move_backward_aILb0EPPSt4pairIN4cvc58internal12NodeTemplateILb1EEEjES7_ET1_T0_S9_S8_ = comdat any

$_ZSt23__copy_move_backward_a1ILb0EPPSt4pairIN4cvc58internal12NodeTemplateILb1EEEjES7_ET1_T0_S9_S8_ = comdat any

$_ZSt23__copy_move_backward_a2ILb0EPPSt4pairIN4cvc58internal12NodeTemplateILb1EEEjES7_ET1_T0_S9_S8_ = comdat any

$_ZNSt20__copy_move_backwardILb0ELb1ESt26random_access_iterator_tagE13__copy_move_bIPSt4pairIN4cvc58internal12NodeTemplateILb1EEEjEEEPT_PKSA_SD_SB_ = comdat any

$_ZNK4cvc58internal4expr9NodeValue14getNumChildrenEv = comdat any

$_ZNK4cvc58internal4expr9NodeValue11getMetaKindEv = comdat any

$_ZNK4cvc58internal4expr9NodeValue7getKindEv = comdat any

$_ZN4cvc58internal4expr9NodeValue11dKindToKindEj = comdat any

$_ZNKSt6vectorIbSaIbEE3endEv = comdat any

$_ZNKSt6vectorIbSaIbEE5beginEv = comdat any

$_ZNKSt13_Bit_iteratorixEl = comdat any

$_ZNSt6vectorIN4cvc58internal12NodeTemplateILb1EEESaIS3_EE12emplace_backIJS3_EEERS3_DpOT_ = comdat any

$_ZNSt16allocator_traitsISaIN4cvc58internal12NodeTemplateILb1EEEEE9constructIS3_JS3_EEEvRS4_PT_DpOT0_ = comdat any

$_ZNSt6vectorIN4cvc58internal12NodeTemplateILb1EEESaIS3_EE17_M_realloc_insertIJS3_EEEvN9__gnu_cxx17__normal_iteratorIPS3_S5_EEDpOT_ = comdat any

$_ZNSt6vectorIN4cvc58internal12NodeTemplateILb1EEESaIS3_EE3endEv = comdat any

$_ZNSt6vectorIN4cvc58internal12NodeTemplateILb1EEESaIS3_EE4backEv = comdat any

$_ZNSt15__new_allocatorIN4cvc58internal12NodeTemplateILb1EEEE9constructIS3_JS3_EEEvPT_DpOT0_ = comdat any

$_ZNKSt6vectorIN4cvc58internal12NodeTemplateILb1EEESaIS3_EE12_M_check_lenEmPKc = comdat any

$_ZN9__gnu_cxxmiIPN4cvc58internal12NodeTemplateILb1EEESt6vectorIS4_SaIS4_EEEENS_17__normal_iteratorIT_T0_E15difference_typeERKSC_SF_ = comdat any

$_ZNSt6vectorIN4cvc58internal12NodeTemplateILb1EEESaIS3_EE5beginEv = comdat any

$_ZSt34__uninitialized_move_if_noexcept_aIPN4cvc58internal12NodeTemplateILb1EEES4_SaIS3_EET0_T_S7_S6_RT1_ = comdat any

$_ZNK9__gnu_cxx17__normal_iteratorIPN4cvc58internal12NodeTemplateILb1EEESt6vectorIS4_SaIS4_EEE4baseEv = comdat any

$_ZNKSt6vectorIN4cvc58internal12NodeTemplateILb1EEESaIS3_EE8max_sizeEv = comdat any

$_ZNKSt6vectorIN4cvc58internal12NodeTemplateILb1EEESaIS3_EE4sizeEv = comdat any

$_ZNKSt12_Vector_baseIN4cvc58internal12NodeTemplateILb1EEESaIS3_EE19_M_get_Tp_allocatorEv = comdat any

$_ZN9__gnu_cxx17__normal_iteratorIPN4cvc58internal12NodeTemplateILb1EEESt6vectorIS4_SaIS4_EEEC2ERKS5_ = comdat any

$_ZSt32__make_move_if_noexcept_iteratorIN4cvc58internal12NodeTemplateILb1EEEPKS3_ET0_PT_ = comdat any

$_ZNK9__gnu_cxx17__normal_iteratorIPN4cvc58internal12NodeTemplateILb1EEESt6vectorIS4_SaIS4_EEEmiEl = comdat any

$_ZNK9__gnu_cxx17__normal_iteratorIPN4cvc58internal12NodeTemplateILb1EEESt6vectorIS4_SaIS4_EEEdeEv = comdat any

$_ZNK4cvc58internal4expr9NodeValue8getChildEi = comdat any

$_ZNSt16allocator_traitsISaIN4cvc58internal12NodeTemplateILb1EEEEE9constructIS3_JRKS3_EEEvRS4_PT_DpOT0_ = comdat any

$_ZNSt6vectorIN4cvc58internal12NodeTemplateILb1EEESaIS3_EE17_M_realloc_insertIJRKS3_EEEvN9__gnu_cxx17__normal_iteratorIPS3_S5_EEDpOT_ = comdat any

$_ZNSt15__new_allocatorIN4cvc58internal12NodeTemplateILb1EEEE9constructIS3_JRKS3_EEEvPT_DpOT0_ = comdat any

$_ZN4cvc58internal11NodeBuilder6appendILb1EEERS1_RKSt6vectorINS0_12NodeTemplateIXT_EEESaIS6_EE = comdat any

$_ZN4cvc58internal11NodeBuilder6appendIN9__gnu_cxx17__normal_iteratorIPKNS0_12NodeTemplateILb1EEESt6vectorIS6_SaIS6_EEEEEERS1_RKT_SG_ = comdat any

$_ZNKSt6vectorIN4cvc58internal12NodeTemplateILb1EEESaIS3_EE5beginEv = comdat any

$_ZNKSt6vectorIN4cvc58internal12NodeTemplateILb1EEESaIS3_EE3endEv = comdat any

$_ZN9__gnu_cxxneIPKN4cvc58internal12NodeTemplateILb1EEESt6vectorIS4_SaIS4_EEEEbRKNS_17__normal_iteratorIT_T0_EESF_ = comdat any

$_ZNK9__gnu_cxx17__normal_iteratorIPKN4cvc58internal12NodeTemplateILb1EEESt6vectorIS4_SaIS4_EEEdeEv = comdat any

$_ZN9__gnu_cxx17__normal_iteratorIPKN4cvc58internal12NodeTemplateILb1EEESt6vectorIS4_SaIS4_EEEppEv = comdat any

$_ZNK9__gnu_cxx17__normal_iteratorIPKN4cvc58internal12NodeTemplateILb1EEESt6vectorIS4_SaIS4_EEE4baseEv = comdat any

$_ZN9__gnu_cxx17__normal_iteratorIPKN4cvc58internal12NodeTemplateILb1EEESt6vectorIS4_SaIS4_EEEC2ERKS6_ = comdat any

$_ZNK4cvc58internal8TypeNode6isNullEv = comdat any

$_ZN4cvc58internal8TypeNodeaSERKS1_ = comdat any

$_ZN4cvc57context13InsertHashMapINS_8internal12NodeTemplateILb1EEES4_St4hashIS4_EE9push_backERKS4_S9_ = comdat any

$_ZNSt13unordered_mapIKN4cvc58internal12NodeTemplateILb1EEES4_St4hashIS3_ESt8equal_toIS4_ESaISt4pairIS4_S4_EEE6insertIS9_IS3_S3_EEENSt9enable_ifIXsr16is_constructibleISA_OT_EE5valueES9_INSt8__detail14_Node_iteratorISA_Lb0ELb1EEEbEE4typeESH_ = comdat any

$_ZSt9make_pairIRKN4cvc58internal12NodeTemplateILb1EEES5_ESt4pairINSt25__strip_reference_wrapperINSt5decayIT_E4typeEE6__typeENS7_INS8_IT0_E4typeEE6__typeEEOS9_OSE_ = comdat any

$_ZNSt4pairIN4cvc58internal12NodeTemplateILb1EEES3_ED2Ev = comdat any

$_ZNSt5dequeIN4cvc58internal12NodeTemplateILb1EEESaIS3_EE9push_backERKS3_ = comdat any

$_ZNSt10_HashtableIKN4cvc58internal12NodeTemplateILb1EEESt4pairIS4_S4_ESaIS6_ENSt8__detail10_Select1stESt8equal_toIS4_ESt4hashIS3_ENS8_18_Mod_range_hashingENS8_20_Default_ranged_hashENS8_20_Prime_rehash_policyENS8_17_Hashtable_traitsILb1ELb0ELb1EEEE7emplaceIJS5_IS3_S3_EEEES5_INS8_14_Node_iteratorIS6_Lb0ELb1EEEbEDpOT_ = comdat any

$_ZNSt10_HashtableIKN4cvc58internal12NodeTemplateILb1EEESt4pairIS4_S4_ESaIS6_ENSt8__detail10_Select1stESt8equal_toIS4_ESt4hashIS3_ENS8_18_Mod_range_hashingENS8_20_Default_ranged_hashENS8_20_Prime_rehash_policyENS8_17_Hashtable_traitsILb1ELb0ELb1EEEE10_M_emplaceIJS5_IS3_S3_EEEES5_INS8_14_Node_iteratorIS6_Lb0ELb1EEEbESt17integral_constantIbLb1EEDpOT_ = comdat any

$_ZNSt10_HashtableIKN4cvc58internal12NodeTemplateILb1EEESt4pairIS4_S4_ESaIS6_ENSt8__detail10_Select1stESt8equal_toIS4_ESt4hashIS3_ENS8_18_Mod_range_hashingENS8_20_Default_ranged_hashENS8_20_Prime_rehash_policyENS8_17_Hashtable_traitsILb1ELb0ELb1EEEE12_Scoped_nodeC2IJS5_IS3_S3_EEEEPNS8_16_Hashtable_allocISaINS8_10_Hash_nodeIS6_Lb1EEEEEEDpOT_ = comdat any

$_ZNKSt8__detail10_Select1stclIRSt4pairIKN4cvc58internal12NodeTemplateILb1EEES7_EEEONS0_10__1st_typeIT_E4typeEOSB_ = comdat any

$_ZNSt8__detail21_Hash_node_value_baseISt4pairIKN4cvc58internal12NodeTemplateILb1EEES6_EE4_M_vEv = comdat any

$_ZNSt10_HashtableIKN4cvc58internal12NodeTemplateILb1EEESt4pairIS4_S4_ESaIS6_ENSt8__detail10_Select1stESt8equal_toIS4_ESt4hashIS3_ENS8_18_Mod_range_hashingENS8_20_Default_ranged_hashENS8_20_Prime_rehash_policyENS8_17_Hashtable_traitsILb1ELb0ELb1EEEE5beginEv = comdat any

$_ZNSt10_HashtableIKN4cvc58internal12NodeTemplateILb1EEESt4pairIS4_S4_ESaIS6_ENSt8__detail10_Select1stESt8equal_toIS4_ESt4hashIS3_ENS8_18_Mod_range_hashingENS8_20_Default_ranged_hashENS8_20_Prime_rehash_policyENS8_17_Hashtable_traitsILb1ELb0ELb1EEEE3endEv = comdat any

$_ZNSt4pairINSt8__detail14_Node_iteratorIS_IKN4cvc58internal12NodeTemplateILb1EEES6_ELb0ELb1EEEbEC2IRS8_bTnNSt9enable_ifIXaaclsr5_PCCPE22_MoveConstructiblePairIT_T0_EEclsr5_PCCPE30_ImplicitlyMoveConvertiblePairISD_SE_EEEbE4typeELb1EEEOSD_OSE_ = comdat any

$_ZNSt8__detail14_Node_iteratorISt4pairIKN4cvc58internal12NodeTemplateILb1EEES6_ELb0ELb1EEppEv = comdat any

$_ZNSt4pairINSt8__detail14_Node_iteratorIS_IKN4cvc58internal12NodeTemplateILb1EEES6_ELb0ELb1EEEbEC2IS8_bTnNSt9enable_ifIXaaclsr5_PCCPE22_MoveConstructiblePairIT_T0_EEclsr5_PCCPE30_ImplicitlyMoveConvertiblePairISC_SD_EEEbE4typeELb1EEEOSC_OSD_ = comdat any

$_ZNSt10_HashtableIKN4cvc58internal12NodeTemplateILb1EEESt4pairIS4_S4_ESaIS6_ENSt8__detail10_Select1stESt8equal_toIS4_ESt4hashIS3_ENS8_18_Mod_range_hashingENS8_20_Default_ranged_hashENS8_20_Prime_rehash_policyENS8_17_Hashtable_traitsILb1ELb0ELb1EEEE21_M_insert_unique_nodeEmmPNS8_10_Hash_nodeIS6_Lb1EEEm = comdat any

$_ZNSt10_HashtableIKN4cvc58internal12NodeTemplateILb1EEESt4pairIS4_S4_ESaIS6_ENSt8__detail10_Select1stESt8equal_toIS4_ESt4hashIS3_ENS8_18_Mod_range_hashingENS8_20_Default_ranged_hashENS8_20_Prime_rehash_policyENS8_17_Hashtable_traitsILb1ELb0ELb1EEEE12_Scoped_nodeD2Ev = comdat any

$_ZNSt8__detail16_Hashtable_allocISaINS_10_Hash_nodeISt4pairIKN4cvc58internal12NodeTemplateILb1EEES7_ELb1EEEEE16_M_allocate_nodeIJS2_IS6_S6_EEEEPS9_DpOT_ = comdat any

$_ZNSt16allocator_traitsISaINSt8__detail10_Hash_nodeISt4pairIKN4cvc58internal12NodeTemplateILb1EEES7_ELb1EEEEE8allocateERSA_m = comdat any

$_ZSt12__to_addressINSt8__detail10_Hash_nodeISt4pairIKN4cvc58internal12NodeTemplateILb1EEES7_ELb1EEEEPT_SB_ = comdat any

$_ZNSt8__detail10_Hash_nodeISt4pairIKN4cvc58internal12NodeTemplateILb1EEES6_ELb1EEC2Ev = comdat any

$_ZNSt16allocator_traitsISaINSt8__detail10_Hash_nodeISt4pairIKN4cvc58internal12NodeTemplateILb1EEES7_ELb1EEEEE9constructIS8_JS2_IS6_S6_EEEEvRSA_PT_DpOT0_ = comdat any

$_ZNSt15__new_allocatorINSt8__detail10_Hash_nodeISt4pairIKN4cvc58internal12NodeTemplateILb1EEES7_ELb1EEEE8allocateEmPKv = comdat any

$_ZNKSt15__new_allocatorINSt8__detail10_Hash_nodeISt4pairIKN4cvc58internal12NodeTemplateILb1EEES7_ELb1EEEE11_M_max_sizeEv = comdat any

$_ZNSt15__new_allocatorINSt8__detail10_Hash_nodeISt4pairIKN4cvc58internal12NodeTemplateILb1EEES7_ELb1EEEE9constructIS8_JS2_IS6_S6_EEEEvPT_DpOT0_ = comdat any

$_ZNSt4pairIKN4cvc58internal12NodeTemplateILb1EEES4_EC2IS3_S3_TnNSt9enable_ifIXaaclsr6_PCCFPIT_T0_EE22_MoveConstructiblePairIS8_S9_EEclsr6_PCCFPIS8_S9_EE30_ImplicitlyMoveConvertiblePairIS8_S9_EEEbE4typeELb1EEEOS_IS8_S9_E = comdat any

$_ZNSt10_HashtableIKN4cvc58internal12NodeTemplateILb1EEESt4pairIS4_S4_ESaIS6_ENSt8__detail10_Select1stESt8equal_toIS4_ESt4hashIS3_ENS8_18_Mod_range_hashingENS8_20_Default_ranged_hashENS8_20_Prime_rehash_policyENS8_17_Hashtable_traitsILb1ELb0ELb1EEEE9_M_rehashEmRKm = comdat any

$_ZNKSt8__detail15_Hash_code_baseIKN4cvc58internal12NodeTemplateILb1EEESt4pairIS5_S5_ENS_10_Select1stESt4hashIS4_ENS_18_Mod_range_hashingENS_20_Default_ranged_hashELb1EE13_M_store_codeERNS_21_Hash_node_code_cacheILb1EEEm = comdat any

$_ZNSt10_HashtableIKN4cvc58internal12NodeTemplateILb1EEESt4pairIS4_S4_ESaIS6_ENSt8__detail10_Select1stESt8equal_toIS4_ESt4hashIS3_ENS8_18_Mod_range_hashingENS8_20_Default_ranged_hashENS8_20_Prime_rehash_policyENS8_17_Hashtable_traitsILb1ELb0ELb1EEEE22_M_insert_bucket_beginEmPNS8_10_Hash_nodeIS6_Lb1EEE = comdat any

$_ZNSt10_HashtableIKN4cvc58internal12NodeTemplateILb1EEESt4pairIS4_S4_ESaIS6_ENSt8__detail10_Select1stESt8equal_toIS4_ESt4hashIS3_ENS8_18_Mod_range_hashingENS8_20_Default_ranged_hashENS8_20_Prime_rehash_policyENS8_17_Hashtable_traitsILb1ELb0ELb1EEEE13_M_rehash_auxEmSt17integral_constantIbLb1EE = comdat any

$_ZNSt10_HashtableIKN4cvc58internal12NodeTemplateILb1EEESt4pairIS4_S4_ESaIS6_ENSt8__detail10_Select1stESt8equal_toIS4_ESt4hashIS3_ENS8_18_Mod_range_hashingENS8_20_Default_ranged_hashENS8_20_Prime_rehash_policyENS8_17_Hashtable_traitsILb1ELb0ELb1EEEE19_M_allocate_bucketsEm = comdat any

$_ZNSt8__detail16_Hashtable_allocISaINS_10_Hash_nodeISt4pairIKN4cvc58internal12NodeTemplateILb1EEES7_ELb1EEEEE19_M_allocate_bucketsEm = comdat any

$_ZNSt4pairIN4cvc58internal12NodeTemplateILb1EEES3_EC2IS3_S3_TnNSt9enable_ifIXaaclsr5_PCCPE18_ConstructiblePairIT_T0_EEclsr5_PCCPE26_ImplicitlyConvertiblePairIS7_S8_EEEbE4typeELb1EEERKS3_SC_ = comdat any

$_ZNSt5dequeIN4cvc58internal12NodeTemplateILb1EEESaIS3_EE16_M_push_back_auxIJRKS3_EEEvDpOT_ = comdat any

$_ZNKSt5dequeIN4cvc58internal12NodeTemplateILb1EEESaIS3_EE8max_sizeEv = comdat any

$_ZNSt5dequeIN4cvc58internal12NodeTemplateILb1EEESaIS3_EE22_M_reserve_map_at_backEm = comdat any

$_ZNSt5dequeIN4cvc58internal12NodeTemplateILb1EEESaIS3_EE11_S_max_sizeERKS4_ = comdat any

$_ZNSt5dequeIN4cvc58internal12NodeTemplateILb1EEESaIS3_EE17_M_reallocate_mapEmb = comdat any

$_ZSt4copyIPPN4cvc58internal12NodeTemplateILb1EEES5_ET0_T_S7_S6_ = comdat any

$_ZSt13copy_backwardIPPN4cvc58internal12NodeTemplateILb1EEES5_ET0_T_S7_S6_ = comdat any

$_ZSt13__copy_move_aILb0EPPN4cvc58internal12NodeTemplateILb1EEES5_ET1_T0_S7_S6_ = comdat any

$_ZSt12__miter_baseIPPN4cvc58internal12NodeTemplateILb1EEEET_S6_ = comdat any

$_ZSt12__niter_wrapIPPN4cvc58internal12NodeTemplateILb1EEEET_RKS6_S6_ = comdat any

$_ZSt14__copy_move_a1ILb0EPPN4cvc58internal12NodeTemplateILb1EEES5_ET1_T0_S7_S6_ = comdat any

$_ZSt12__niter_baseIPPN4cvc58internal12NodeTemplateILb1EEEET_S6_ = comdat any

$_ZSt14__copy_move_a2ILb0EPPN4cvc58internal12NodeTemplateILb1EEES5_ET1_T0_S7_S6_ = comdat any

$_ZNSt11__copy_moveILb0ELb1ESt26random_access_iterator_tagE8__copy_mIPN4cvc58internal12NodeTemplateILb1EEEEEPT_PKS8_SB_S9_ = comdat any

$_ZSt22__copy_move_backward_aILb0EPPN4cvc58internal12NodeTemplateILb1EEES5_ET1_T0_S7_S6_ = comdat any

$_ZSt23__copy_move_backward_a1ILb0EPPN4cvc58internal12NodeTemplateILb1EEES5_ET1_T0_S7_S6_ = comdat any

$_ZSt23__copy_move_backward_a2ILb0EPPN4cvc58internal12NodeTemplateILb1EEES5_ET1_T0_S7_S6_ = comdat any

$_ZNSt20__copy_move_backwardILb0ELb1ESt26random_access_iterator_tagE13__copy_move_bIPN4cvc58internal12NodeTemplateILb1EEEEEPT_PKS8_SB_S9_ = comdat any

$_ZN4cvc58internal12NodeTemplateILb0EEC2EPKNS0_4expr9NodeValueE = comdat any

$_ZNK4cvc58internal12NodeTemplateILb0EEeqILb0EEEbRKNS1_IXT_EEE = comdat any

$_ZNSt13unordered_mapIN4cvc58internal12NodeTemplateILb0EEES3_St4hashIS3_ESt8equal_toIS3_ESaISt4pairIKS3_S3_EEEC2Ev = comdat any

$_ZNK4cvc58internal12NodeTemplateILb0EE10substituteES2_S2_RSt13unordered_mapIS2_S2_St4hashIS2_ESt8equal_toIS2_ESaISt4pairIKS2_S2_EEE = comdat any

$_ZNSt13unordered_mapIN4cvc58internal12NodeTemplateILb0EEES3_St4hashIS3_ESt8equal_toIS3_ESaISt4pairIKS3_S3_EEED2Ev = comdat any

$_ZNSt10_HashtableIN4cvc58internal12NodeTemplateILb0EEESt4pairIKS3_S3_ESaIS6_ENSt8__detail10_Select1stESt8equal_toIS3_ESt4hashIS3_ENS8_18_Mod_range_hashingENS8_20_Default_ranged_hashENS8_20_Prime_rehash_policyENS8_17_Hashtable_traitsILb1ELb0ELb1EEEEC2Ev = comdat any

$_ZNSt8__detail15_Hashtable_baseIN4cvc58internal12NodeTemplateILb0EEESt4pairIKS4_S4_ENS_10_Select1stESt8equal_toIS4_ESt4hashIS4_ENS_18_Mod_range_hashingENS_20_Default_ranged_hashENS_17_Hashtable_traitsILb1ELb0ELb1EEEEC2Ev = comdat any

$_ZNSt8__detail16_Hashtable_allocISaINS_10_Hash_nodeISt4pairIKN4cvc58internal12NodeTemplateILb0EEES6_ELb1EEEEEC2Ev = comdat any

$_ZNSt8__detail15_Hash_code_baseIN4cvc58internal12NodeTemplateILb0EEESt4pairIKS4_S4_ENS_10_Select1stESt4hashIS4_ENS_18_Mod_range_hashingENS_20_Default_ranged_hashELb1EEC2Ev = comdat any

$_ZNSt8__detail21_Hashtable_ebo_helperILi0ESt8equal_toIN4cvc58internal12NodeTemplateILb0EEEELb1EEC2Ev = comdat any

$_ZNSt8__detail21_Hashtable_ebo_helperILi1ESt4hashIN4cvc58internal12NodeTemplateILb0EEEELb1EEC2Ev = comdat any

$_ZNSt8__detail21_Hashtable_ebo_helperILi0ESaINS_10_Hash_nodeISt4pairIKN4cvc58internal12NodeTemplateILb0EEES6_ELb1EEEELb1EEC2Ev = comdat any

$_ZNSaINSt8__detail10_Hash_nodeISt4pairIKN4cvc58internal12NodeTemplateILb0EEES5_ELb1EEEEC2Ev = comdat any

$_ZNSt15__new_allocatorINSt8__detail10_Hash_nodeISt4pairIKN4cvc58internal12NodeTemplateILb0EEES6_ELb1EEEEC2Ev = comdat any

$_ZNK4cvc58internal12NodeTemplateILb0EE14getNumChildrenEv = comdat any

$_ZNSt13unordered_mapIN4cvc58internal12NodeTemplateILb0EEES3_St4hashIS3_ESt8equal_toIS3_ESaISt4pairIKS3_S3_EEE4findERS9_ = comdat any

$_ZNSt8__detail20_Node_const_iteratorISt4pairIKN4cvc58internal12NodeTemplateILb0EEES5_ELb0ELb1EEC2ERKNS_14_Node_iteratorIS7_Lb0ELb1EEE = comdat any

$_ZNSt8__detailneERKNS_19_Node_iterator_baseISt4pairIKN4cvc58internal12NodeTemplateILb0EEES5_ELb1EEESA_ = comdat any

$_ZNSt13unordered_mapIN4cvc58internal12NodeTemplateILb0EEES3_St4hashIS3_ESt8equal_toIS3_ESaISt4pairIKS3_S3_EEE3endEv = comdat any

$_ZNKSt8__detail20_Node_const_iteratorISt4pairIKN4cvc58internal12NodeTemplateILb0EEES5_ELb0ELb1EEdeEv = comdat any

$_ZNK4cvc58internal12NodeTemplateILb0EE11getMetaKindEv = comdat any

$_ZNK4cvc58internal12NodeTemplateILb0EE11getOperatorEv = comdat any

$_ZNK4cvc58internal12NodeTemplateILb1EE10substituteENS1_ILb0EEES3_RSt13unordered_mapIS3_S3_St4hashIS3_ESt8equal_toIS3_ESaISt4pairIKS3_S3_EEE = comdat any

$_ZNK4cvc58internal12NodeTemplateILb0EE5beginEv = comdat any

$_ZNK4cvc58internal12NodeTemplateILb0EE3endEv = comdat any

$_ZNK4cvc58internal4expr9NodeValue8iteratorINS0_12NodeTemplateILb0EEEEneERKS6_ = comdat any

$_ZNK4cvc58internal4expr9NodeValue8iteratorINS0_12NodeTemplateILb0EEEEdeEv = comdat any

$_ZN4cvc58internal4expr9NodeValue8iteratorINS0_12NodeTemplateILb0EEEEppEv = comdat any

$_ZNSt13unordered_mapIN4cvc58internal12NodeTemplateILb0EEES3_St4hashIS3_ESt8equal_toIS3_ESaISt4pairIKS3_S3_EEEixERS9_ = comdat any

$_ZN4cvc58internal12NodeTemplateILb0EEaSERKNS1_ILb1EEE = comdat any

$_ZNSt10_HashtableIN4cvc58internal12NodeTemplateILb0EEESt4pairIKS3_S3_ESaIS6_ENSt8__detail10_Select1stESt8equal_toIS3_ESt4hashIS3_ENS8_18_Mod_range_hashingENS8_20_Default_ranged_hashENS8_20_Prime_rehash_policyENS8_17_Hashtable_traitsILb1ELb0ELb1EEEE4findERS5_ = comdat any

$_ZNKSt10_HashtableIN4cvc58internal12NodeTemplateILb0EEESt4pairIKS3_S3_ESaIS6_ENSt8__detail10_Select1stESt8equal_toIS3_ESt4hashIS3_ENS8_18_Mod_range_hashingENS8_20_Default_ranged_hashENS8_20_Prime_rehash_policyENS8_17_Hashtable_traitsILb1ELb0ELb1EEEE4sizeEv = comdat any

$_ZNSt10_HashtableIN4cvc58internal12NodeTemplateILb0EEESt4pairIKS3_S3_ESaIS6_ENSt8__detail10_Select1stESt8equal_toIS3_ESt4hashIS3_ENS8_18_Mod_range_hashingENS8_20_Default_ranged_hashENS8_20_Prime_rehash_policyENS8_17_Hashtable_traitsILb1ELb0ELb1EEEE22__small_size_thresholdEv = comdat any

$_ZNSt10_HashtableIN4cvc58internal12NodeTemplateILb0EEESt4pairIKS3_S3_ESaIS6_ENSt8__detail10_Select1stESt8equal_toIS3_ESt4hashIS3_ENS8_18_Mod_range_hashingENS8_20_Default_ranged_hashENS8_20_Prime_rehash_policyENS8_17_Hashtable_traitsILb1ELb0ELb1EEEE5beginEv = comdat any

$_ZNSt10_HashtableIN4cvc58internal12NodeTemplateILb0EEESt4pairIKS3_S3_ESaIS6_ENSt8__detail10_Select1stESt8equal_toIS3_ESt4hashIS3_ENS8_18_Mod_range_hashingENS8_20_Default_ranged_hashENS8_20_Prime_rehash_policyENS8_17_Hashtable_traitsILb1ELb0ELb1EEEE3endEv = comdat any

$_ZNKSt8__detail15_Hashtable_baseIN4cvc58internal12NodeTemplateILb0EEESt4pairIKS4_S4_ENS_10_Select1stESt8equal_toIS4_ESt4hashIS4_ENS_18_Mod_range_hashingENS_20_Default_ranged_hashENS_17_Hashtable_traitsILb1ELb0ELb1EEEE13_M_key_equalsERS6_RKNS_16_Hash_node_valueIS7_Lb1EEE = comdat any

$_ZNSt8__detail14_Node_iteratorISt4pairIKN4cvc58internal12NodeTemplateILb0EEES5_ELb0ELb1EEppEv = comdat any

$_ZNKSt8__detail15_Hash_code_baseIN4cvc58internal12NodeTemplateILb0EEESt4pairIKS4_S4_ENS_10_Select1stESt4hashIS4_ENS_18_Mod_range_hashingENS_20_Default_ranged_hashELb1EE12_M_hash_codeERS6_ = comdat any

$_ZNKSt10_HashtableIN4cvc58internal12NodeTemplateILb0EEESt4pairIKS3_S3_ESaIS6_ENSt8__detail10_Select1stESt8equal_toIS3_ESt4hashIS3_ENS8_18_Mod_range_hashingENS8_20_Default_ranged_hashENS8_20_Prime_rehash_policyENS8_17_Hashtable_traitsILb1ELb0ELb1EEEE15_M_bucket_indexEm = comdat any

$_ZNKSt10_HashtableIN4cvc58internal12NodeTemplateILb0EEESt4pairIKS3_S3_ESaIS6_ENSt8__detail10_Select1stESt8equal_toIS3_ESt4hashIS3_ENS8_18_Mod_range_hashingENS8_20_Default_ranged_hashENS8_20_Prime_rehash_policyENS8_17_Hashtable_traitsILb1ELb0ELb1EEEE12_M_find_nodeEmRS5_m = comdat any

$_ZNSt8__detail14_Node_iteratorISt4pairIKN4cvc58internal12NodeTemplateILb0EEES5_ELb0ELb1EEC2EPNS_10_Hash_nodeIS7_Lb1EEE = comdat any

$_ZNSt8__detail22_Hashtable_hash_traitsISt4hashIN4cvc58internal12NodeTemplateILb0EEEEE22__small_size_thresholdEv = comdat any

$_ZNKSt10_HashtableIN4cvc58internal12NodeTemplateILb0EEESt4pairIKS3_S3_ESaIS6_ENSt8__detail10_Select1stESt8equal_toIS3_ESt4hashIS3_ENS8_18_Mod_range_hashingENS8_20_Default_ranged_hashENS8_20_Prime_rehash_policyENS8_17_Hashtable_traitsILb1ELb0ELb1EEEE8_M_beginEv = comdat any

$_ZNKSt8__detail15_Hashtable_baseIN4cvc58internal12NodeTemplateILb0EEESt4pairIKS4_S4_ENS_10_Select1stESt8equal_toIS4_ESt4hashIS4_ENS_18_Mod_range_hashingENS_20_Default_ranged_hashENS_17_Hashtable_traitsILb1ELb0ELb1EEEE5_M_eqEv = comdat any

$_ZNKSt8equal_toIN4cvc58internal12NodeTemplateILb0EEEEclERKS3_S6_ = comdat any

$_ZNKSt8__detail10_Select1stclIRKSt4pairIKN4cvc58internal12NodeTemplateILb0EEES6_EEEONS0_10__1st_typeIT_E4typeEOSC_ = comdat any

$_ZNKSt8__detail21_Hash_node_value_baseISt4pairIKN4cvc58internal12NodeTemplateILb0EEES5_EE4_M_vEv = comdat any

$_ZNKSt8__detail21_Hashtable_ebo_helperILi0ESt8equal_toIN4cvc58internal12NodeTemplateILb0EEEELb1EE7_M_cgetEv = comdat any

$_ZNKSt8__detail21_Hash_node_value_baseISt4pairIKN4cvc58internal12NodeTemplateILb0EEES5_EE9_M_valptrEv = comdat any

$_ZNK9__gnu_cxx16__aligned_bufferISt4pairIKN4cvc58internal12NodeTemplateILb0EEES5_EE6_M_ptrEv = comdat any

$_ZNK9__gnu_cxx16__aligned_bufferISt4pairIKN4cvc58internal12NodeTemplateILb0EEES5_EE7_M_addrEv = comdat any

$_ZNSt8__detail19_Node_iterator_baseISt4pairIKN4cvc58internal12NodeTemplateILb0EEES5_ELb1EE7_M_incrEv = comdat any

$_ZNKSt8__detail10_Hash_nodeISt4pairIKN4cvc58internal12NodeTemplateILb0EEES5_ELb1EE7_M_nextEv = comdat any

$_ZNKSt8__detail15_Hash_code_baseIN4cvc58internal12NodeTemplateILb0EEESt4pairIKS4_S4_ENS_10_Select1stESt4hashIS4_ENS_18_Mod_range_hashingENS_20_Default_ranged_hashELb1EE7_M_hashEv = comdat any

$_ZNKSt8__detail21_Hashtable_ebo_helperILi1ESt4hashIN4cvc58internal12NodeTemplateILb0EEEELb1EE7_M_cgetEv = comdat any

$_ZNKSt8__detail15_Hash_code_baseIN4cvc58internal12NodeTemplateILb0EEESt4pairIKS4_S4_ENS_10_Select1stESt4hashIS4_ENS_18_Mod_range_hashingENS_20_Default_ranged_hashELb1EE15_M_bucket_indexEmm = comdat any

$_ZNKSt10_HashtableIN4cvc58internal12NodeTemplateILb0EEESt4pairIKS3_S3_ESaIS6_ENSt8__detail10_Select1stESt8equal_toIS3_ESt4hashIS3_ENS8_18_Mod_range_hashingENS8_20_Default_ranged_hashENS8_20_Prime_rehash_policyENS8_17_Hashtable_traitsILb1ELb0ELb1EEEE19_M_find_before_nodeEmRS5_m = comdat any

$_ZNKSt8__detail15_Hashtable_baseIN4cvc58internal12NodeTemplateILb0EEESt4pairIKS4_S4_ENS_10_Select1stESt8equal_toIS4_ESt4hashIS4_ENS_18_Mod_range_hashingENS_20_Default_ranged_hashENS_17_Hashtable_traitsILb1ELb0ELb1EEEE9_M_equalsERS6_mRKNS_16_Hash_node_valueIS7_Lb1EEE = comdat any

$_ZNKSt10_HashtableIN4cvc58internal12NodeTemplateILb0EEESt4pairIKS3_S3_ESaIS6_ENSt8__detail10_Select1stESt8equal_toIS3_ESt4hashIS3_ENS8_18_Mod_range_hashingENS8_20_Default_ranged_hashENS8_20_Prime_rehash_policyENS8_17_Hashtable_traitsILb1ELb0ELb1EEEE15_M_bucket_indexERKNS8_16_Hash_node_valueIS6_Lb1EEE = comdat any

$_ZNSt8__detail15_Hashtable_baseIN4cvc58internal12NodeTemplateILb0EEESt4pairIKS4_S4_ENS_10_Select1stESt8equal_toIS4_ESt4hashIS4_ENS_18_Mod_range_hashingENS_20_Default_ranged_hashENS_17_Hashtable_traitsILb1ELb0ELb1EEEE9_S_equalsEmRKNS_21_Hash_node_code_cacheILb1EEE = comdat any

$_ZNKSt8__detail15_Hash_code_baseIN4cvc58internal12NodeTemplateILb0EEESt4pairIKS4_S4_ENS_10_Select1stESt4hashIS4_ENS_18_Mod_range_hashingENS_20_Default_ranged_hashELb1EE15_M_bucket_indexERKNS_16_Hash_node_valueIS7_Lb1EEEm = comdat any

$_ZNSt8__detail19_Node_iterator_baseISt4pairIKN4cvc58internal12NodeTemplateILb0EEES5_ELb1EEC2EPNS_10_Hash_nodeIS7_Lb1EEE = comdat any

$_ZNSt8__detail21_Hash_node_value_baseISt4pairIKN4cvc58internal12NodeTemplateILb0EEES5_EE4_M_vEv = comdat any

$_ZNSt8__detail21_Hash_node_value_baseISt4pairIKN4cvc58internal12NodeTemplateILb0EEES5_EE9_M_valptrEv = comdat any

$_ZN9__gnu_cxx16__aligned_bufferISt4pairIKN4cvc58internal12NodeTemplateILb0EEES5_EE6_M_ptrEv = comdat any

$_ZN9__gnu_cxx16__aligned_bufferISt4pairIKN4cvc58internal12NodeTemplateILb0EEES5_EE7_M_addrEv = comdat any

$_ZNK4cvc58internal12NodeTemplateILb1EE5beginEv = comdat any

$_ZNK4cvc58internal12NodeTemplateILb1EE3endEv = comdat any

$_ZNK4cvc58internal4expr9NodeValue8iteratorINS0_12NodeTemplateILb1EEEEneERKS6_ = comdat any

$_ZNK4cvc58internal4expr9NodeValue8iteratorINS0_12NodeTemplateILb1EEEEdeEv = comdat any

$_ZN4cvc58internal4expr9NodeValue8iteratorINS0_12NodeTemplateILb1EEEEppEv = comdat any

$_ZNSt13unordered_mapIN4cvc58internal12NodeTemplateILb0EEES3_St4hashIS3_ESt8equal_toIS3_ESaISt4pairIKS3_S3_EEEixEOS3_ = comdat any

$_ZNK4cvc58internal4expr9NodeValue5beginINS0_12NodeTemplateILb1EEEEENS2_8iteratorIT_EEv = comdat any

$_ZN4cvc58internal4expr9NodeValue8iteratorINS0_12NodeTemplateILb1EEEEC2EPKPKS2_ = comdat any

$_ZNK4cvc58internal4expr9NodeValue3endINS0_12NodeTemplateILb1EEEEENS2_8iteratorIT_EEv = comdat any

$_ZNSt8__detail9_Map_baseIN4cvc58internal12NodeTemplateILb0EEESt4pairIKS4_S4_ESaIS7_ENS_10_Select1stESt8equal_toIS4_ESt4hashIS4_ENS_18_Mod_range_hashingENS_20_Default_ranged_hashENS_20_Prime_rehash_policyENS_17_Hashtable_traitsILb1ELb0ELb1EEELb1EEixEOS4_ = comdat any

$_ZSt16forward_as_tupleIJN4cvc58internal12NodeTemplateILb0EEEEESt5tupleIJDpOT_EES7_ = comdat any

$_ZNSt10_HashtableIN4cvc58internal12NodeTemplateILb0EEESt4pairIKS3_S3_ESaIS6_ENSt8__detail10_Select1stESt8equal_toIS3_ESt4hashIS3_ENS8_18_Mod_range_hashingENS8_20_Default_ranged_hashENS8_20_Prime_rehash_policyENS8_17_Hashtable_traitsILb1ELb0ELb1EEEE12_Scoped_nodeC2IJRKSt21piecewise_construct_tSt5tupleIJOS3_EESP_IJEEEEEPNS8_16_Hashtable_allocISaINS8_10_Hash_nodeIS6_Lb1EEEEEEDpOT_ = comdat any

$_ZNSt10_HashtableIN4cvc58internal12NodeTemplateILb0EEESt4pairIKS3_S3_ESaIS6_ENSt8__detail10_Select1stESt8equal_toIS3_ESt4hashIS3_ENS8_18_Mod_range_hashingENS8_20_Default_ranged_hashENS8_20_Prime_rehash_policyENS8_17_Hashtable_traitsILb1ELb0ELb1EEEE21_M_insert_unique_nodeEmmPNS8_10_Hash_nodeIS6_Lb1EEEm = comdat any

$_ZNKSt8__detail14_Node_iteratorISt4pairIKN4cvc58internal12NodeTemplateILb0EEES5_ELb0ELb1EEptEv = comdat any

$_ZNSt10_HashtableIN4cvc58internal12NodeTemplateILb0EEESt4pairIKS3_S3_ESaIS6_ENSt8__detail10_Select1stESt8equal_toIS3_ESt4hashIS3_ENS8_18_Mod_range_hashingENS8_20_Default_ranged_hashENS8_20_Prime_rehash_policyENS8_17_Hashtable_traitsILb1ELb0ELb1EEEE12_Scoped_nodeD2Ev = comdat any

$_ZNSt5tupleIJON4cvc58internal12NodeTemplateILb0EEEEEC2IJS3_ELb1ETnNSt9enable_ifIXclsr4_TCCIXT0_EEE29__is_implicitly_constructibleIDpT_EEEbE4typeELb1EEEDpOS8_ = comdat any

$_ZNSt11_Tuple_implILm0EJON4cvc58internal12NodeTemplateILb0EEEEEC2IS3_EEOT_ = comdat any

$_ZNSt10_Head_baseILm0EON4cvc58internal12NodeTemplateILb0EEELb0EEC2IS3_EEOT_ = comdat any

$_ZNSt8__detail16_Hashtable_allocISaINS_10_Hash_nodeISt4pairIKN4cvc58internal12NodeTemplateILb0EEES6_ELb1EEEEE16_M_allocate_nodeIJRKSt21piecewise_construct_tSt5tupleIJOS6_EESG_IJEEEEEPS9_DpOT_ = comdat any

$_ZNSt16allocator_traitsISaINSt8__detail10_Hash_nodeISt4pairIKN4cvc58internal12NodeTemplateILb0EEES6_ELb1EEEEE8allocateERSA_m = comdat any

$_ZNSt8__detail16_Hashtable_allocISaINS_10_Hash_nodeISt4pairIKN4cvc58internal12NodeTemplateILb0EEES6_ELb1EEEEE17_M_node_allocatorEv = comdat any

$_ZSt12__to_addressINSt8__detail10_Hash_nodeISt4pairIKN4cvc58internal12NodeTemplateILb0EEES6_ELb1EEEEPT_SB_ = comdat any

$_ZNSt8__detail10_Hash_nodeISt4pairIKN4cvc58internal12NodeTemplateILb0EEES5_ELb1EEC2Ev = comdat any

$_ZNSt16allocator_traitsISaINSt8__detail10_Hash_nodeISt4pairIKN4cvc58internal12NodeTemplateILb0EEES6_ELb1EEEEE9constructIS8_JRKSt21piecewise_construct_tSt5tupleIJOS6_EESG_IJEEEEEvRSA_PT_DpOT0_ = comdat any

$_ZNSt16allocator_traitsISaINSt8__detail10_Hash_nodeISt4pairIKN4cvc58internal12NodeTemplateILb0EEES6_ELb1EEEEE10deallocateERSA_PS9_m = comdat any

$_ZNSt15__new_allocatorINSt8__detail10_Hash_nodeISt4pairIKN4cvc58internal12NodeTemplateILb0EEES6_ELb1EEEE8allocateEmPKv = comdat any

$_ZNKSt15__new_allocatorINSt8__detail10_Hash_nodeISt4pairIKN4cvc58internal12NodeTemplateILb0EEES6_ELb1EEEE11_M_max_sizeEv = comdat any

$_ZNSt8__detail21_Hashtable_ebo_helperILi0ESaINS_10_Hash_nodeISt4pairIKN4cvc58internal12NodeTemplateILb0EEES6_ELb1EEEELb1EE6_M_getEv = comdat any

$_ZNSt15__new_allocatorINSt8__detail10_Hash_nodeISt4pairIKN4cvc58internal12NodeTemplateILb0EEES6_ELb1EEEE9constructIS8_JRKSt21piecewise_construct_tSt5tupleIJOS6_EESF_IJEEEEEvPT_DpOT0_ = comdat any

$_ZNSt5tupleIJON4cvc58internal12NodeTemplateILb0EEEEEC2EOS5_ = comdat any

$_ZNSt4pairIKN4cvc58internal12NodeTemplateILb0EEES3_EC2IJOS3_EJEEESt21piecewise_construct_tSt5tupleIJDpT_EES9_IJDpT0_EE = comdat any

$_ZNSt11_Tuple_implILm0EJON4cvc58internal12NodeTemplateILb0EEEEEC2EOS5_ = comdat any

$_ZNSt4pairIKN4cvc58internal12NodeTemplateILb0EEES3_EC2IJOS3_EJLm0EEJETpTnmJEEERSt5tupleIJDpT_EERS8_IJDpT1_EESt12_Index_tupleIJXspT0_EEESH_IJXspT2_EEE = comdat any

$_ZSt3getILm0EJON4cvc58internal12NodeTemplateILb0EEEEERNSt13tuple_elementIXT_ESt5tupleIJDpT0_EEE4typeERS9_ = comdat any

$_ZN4cvc58internal12NodeTemplateILb0EEC2Ev = comdat any

$_ZSt12__get_helperILm0EON4cvc58internal12NodeTemplateILb0EEEJEERT0_RSt11_Tuple_implIXT_EJS5_DpT1_EE = comdat any

$_ZNSt11_Tuple_implILm0EJON4cvc58internal12NodeTemplateILb0EEEEE7_M_headERS5_ = comdat any

$_ZNSt10_Head_baseILm0EON4cvc58internal12NodeTemplateILb0EEELb0EE7_M_headERS5_ = comdat any

$_ZNSt15__new_allocatorINSt8__detail10_Hash_nodeISt4pairIKN4cvc58internal12NodeTemplateILb0EEES6_ELb1EEEE10deallocateEPS9_m = comdat any

$_ZNSt10_HashtableIN4cvc58internal12NodeTemplateILb0EEESt4pairIKS3_S3_ESaIS6_ENSt8__detail10_Select1stESt8equal_toIS3_ESt4hashIS3_ENS8_18_Mod_range_hashingENS8_20_Default_ranged_hashENS8_20_Prime_rehash_policyENS8_17_Hashtable_traitsILb1ELb0ELb1EEEE9_M_rehashEmRKm = comdat any

$_ZNKSt8__detail15_Hash_code_baseIN4cvc58internal12NodeTemplateILb0EEESt4pairIKS4_S4_ENS_10_Select1stESt4hashIS4_ENS_18_Mod_range_hashingENS_20_Default_ranged_hashELb1EE13_M_store_codeERNS_21_Hash_node_code_cacheILb1EEEm = comdat any

$_ZNSt10_HashtableIN4cvc58internal12NodeTemplateILb0EEESt4pairIKS3_S3_ESaIS6_ENSt8__detail10_Select1stESt8equal_toIS3_ESt4hashIS3_ENS8_18_Mod_range_hashingENS8_20_Default_ranged_hashENS8_20_Prime_rehash_policyENS8_17_Hashtable_traitsILb1ELb0ELb1EEEE22_M_insert_bucket_beginEmPNS8_10_Hash_nodeIS6_Lb1EEE = comdat any

$_ZNSt10_HashtableIN4cvc58internal12NodeTemplateILb0EEESt4pairIKS3_S3_ESaIS6_ENSt8__detail10_Select1stESt8equal_toIS3_ESt4hashIS3_ENS8_18_Mod_range_hashingENS8_20_Default_ranged_hashENS8_20_Prime_rehash_policyENS8_17_Hashtable_traitsILb1ELb0ELb1EEEE13_M_rehash_auxEmSt17integral_constantIbLb1EE = comdat any

$_ZNSt10_HashtableIN4cvc58internal12NodeTemplateILb0EEESt4pairIKS3_S3_ESaIS6_ENSt8__detail10_Select1stESt8equal_toIS3_ESt4hashIS3_ENS8_18_Mod_range_hashingENS8_20_Default_ranged_hashENS8_20_Prime_rehash_policyENS8_17_Hashtable_traitsILb1ELb0ELb1EEEE19_M_allocate_bucketsEm = comdat any

$_ZNSt10_HashtableIN4cvc58internal12NodeTemplateILb0EEESt4pairIKS3_S3_ESaIS6_ENSt8__detail10_Select1stESt8equal_toIS3_ESt4hashIS3_ENS8_18_Mod_range_hashingENS8_20_Default_ranged_hashENS8_20_Prime_rehash_policyENS8_17_Hashtable_traitsILb1ELb0ELb1EEEE21_M_deallocate_bucketsEv = comdat any

$_ZNSt8__detail16_Hashtable_allocISaINS_10_Hash_nodeISt4pairIKN4cvc58internal12NodeTemplateILb0EEES6_ELb1EEEEE19_M_allocate_bucketsEm = comdat any

$_ZNSaIPNSt8__detail15_Hash_node_baseEEC2INS_10_Hash_nodeISt4pairIKN4cvc58internal12NodeTemplateILb0EEES9_ELb1EEEEERKSaIT_E = comdat any

$_ZNSt10_HashtableIN4cvc58internal12NodeTemplateILb0EEESt4pairIKS3_S3_ESaIS6_ENSt8__detail10_Select1stESt8equal_toIS3_ESt4hashIS3_ENS8_18_Mod_range_hashingENS8_20_Default_ranged_hashENS8_20_Prime_rehash_policyENS8_17_Hashtable_traitsILb1ELb0ELb1EEEE21_M_deallocate_bucketsEPPNS8_15_Hash_node_baseEm = comdat any

$_ZNKSt10_HashtableIN4cvc58internal12NodeTemplateILb0EEESt4pairIKS3_S3_ESaIS6_ENSt8__detail10_Select1stESt8equal_toIS3_ESt4hashIS3_ENS8_18_Mod_range_hashingENS8_20_Default_ranged_hashENS8_20_Prime_rehash_policyENS8_17_Hashtable_traitsILb1ELb0ELb1EEEE21_M_uses_single_bucketEPPNS8_15_Hash_node_baseE = comdat any

$_ZNSt8__detail16_Hashtable_allocISaINS_10_Hash_nodeISt4pairIKN4cvc58internal12NodeTemplateILb0EEES6_ELb1EEEEE21_M_deallocate_bucketsEPPNS_15_Hash_node_baseEm = comdat any

$_ZNSt8__detail16_Hashtable_allocISaINS_10_Hash_nodeISt4pairIKN4cvc58internal12NodeTemplateILb0EEES6_ELb1EEEEE18_M_deallocate_nodeEPS9_ = comdat any

$_ZNSt16allocator_traitsISaINSt8__detail10_Hash_nodeISt4pairIKN4cvc58internal12NodeTemplateILb0EEES6_ELb1EEEEE7destroyIS8_EEvRSA_PT_ = comdat any

$_ZNSt8__detail16_Hashtable_allocISaINS_10_Hash_nodeISt4pairIKN4cvc58internal12NodeTemplateILb0EEES6_ELb1EEEEE22_M_deallocate_node_ptrEPS9_ = comdat any

$_ZNSt15__new_allocatorINSt8__detail10_Hash_nodeISt4pairIKN4cvc58internal12NodeTemplateILb0EEES6_ELb1EEEE7destroyIS8_EEvPT_ = comdat any

$_ZNSt4pairIKN4cvc58internal12NodeTemplateILb0EEES3_ED2Ev = comdat any

$_ZNSt19__ptr_traits_ptr_toIPNSt8__detail10_Hash_nodeISt4pairIKN4cvc58internal12NodeTemplateILb0EEES6_ELb1EEES9_Lb0EE10pointer_toERS9_ = comdat any

$_ZNK4cvc58internal4expr9NodeValue5beginINS0_12NodeTemplateILb0EEEEENS2_8iteratorIT_EEv = comdat any

$_ZN4cvc58internal4expr9NodeValue8iteratorINS0_12NodeTemplateILb0EEEEC2EPKPKS2_ = comdat any

$_ZNK4cvc58internal4expr9NodeValue3endINS0_12NodeTemplateILb0EEEEENS2_8iteratorIT_EEv = comdat any

$_ZNSt8__detail9_Map_baseIN4cvc58internal12NodeTemplateILb0EEESt4pairIKS4_S4_ESaIS7_ENS_10_Select1stESt8equal_toIS4_ESt4hashIS4_ENS_18_Mod_range_hashingENS_20_Default_ranged_hashENS_20_Prime_rehash_policyENS_17_Hashtable_traitsILb1ELb0ELb1EEELb1EEixERS6_ = comdat any

$_ZNSt5tupleIJRKN4cvc58internal12NodeTemplateILb0EEEEEC2ILb1ETnNSt9enable_ifIXclsr4_TCCIXT_EEE29__is_implicitly_constructibleIS5_EEEbE4typeELb1EEES5_ = comdat any

$_ZNSt10_HashtableIN4cvc58internal12NodeTemplateILb0EEESt4pairIKS3_S3_ESaIS6_ENSt8__detail10_Select1stESt8equal_toIS3_ESt4hashIS3_ENS8_18_Mod_range_hashingENS8_20_Default_ranged_hashENS8_20_Prime_rehash_policyENS8_17_Hashtable_traitsILb1ELb0ELb1EEEE12_Scoped_nodeC2IJRKSt21piecewise_construct_tSt5tupleIJRS5_EESP_IJEEEEEPNS8_16_Hashtable_allocISaINS8_10_Hash_nodeIS6_Lb1EEEEEEDpOT_ = comdat any

$_ZNSt11_Tuple_implILm0EJRKN4cvc58internal12NodeTemplateILb0EEEEEC2ES5_ = comdat any

$_ZNSt10_Head_baseILm0ERKN4cvc58internal12NodeTemplateILb0EEELb0EEC2ES5_ = comdat any

$_ZNSt8__detail16_Hashtable_allocISaINS_10_Hash_nodeISt4pairIKN4cvc58internal12NodeTemplateILb0EEES6_ELb1EEEEE16_M_allocate_nodeIJRKSt21piecewise_construct_tSt5tupleIJRS7_EESG_IJEEEEEPS9_DpOT_ = comdat any

$_ZNSt16allocator_traitsISaINSt8__detail10_Hash_nodeISt4pairIKN4cvc58internal12NodeTemplateILb0EEES6_ELb1EEEEE9constructIS8_JRKSt21piecewise_construct_tSt5tupleIJRS7_EESG_IJEEEEEvRSA_PT_DpOT0_ = comdat any

$_ZNSt15__new_allocatorINSt8__detail10_Hash_nodeISt4pairIKN4cvc58internal12NodeTemplateILb0EEES6_ELb1EEEE9constructIS8_JRKSt21piecewise_construct_tSt5tupleIJRS7_EESF_IJEEEEEvPT_DpOT0_ = comdat any

$_ZNSt5tupleIJRKN4cvc58internal12NodeTemplateILb0EEEEEC2EOS6_ = comdat any

$_ZNSt4pairIKN4cvc58internal12NodeTemplateILb0EEES3_EC2IJRS4_EJEEESt21piecewise_construct_tSt5tupleIJDpT_EES9_IJDpT0_EE = comdat any

$_ZNSt11_Tuple_implILm0EJRKN4cvc58internal12NodeTemplateILb0EEEEEC2EOS6_ = comdat any

$_ZNSt4pairIKN4cvc58internal12NodeTemplateILb0EEES3_EC2IJRS4_EJLm0EEJETpTnmJEEERSt5tupleIJDpT_EERS8_IJDpT1_EESt12_Index_tupleIJXspT0_EEESH_IJXspT2_EEE = comdat any

$_ZSt3getILm0EJRKN4cvc58internal12NodeTemplateILb0EEEEERNSt13tuple_elementIXT_ESt5tupleIJDpT0_EEE4typeERSA_ = comdat any

$_ZSt12__get_helperILm0ERKN4cvc58internal12NodeTemplateILb0EEEJEERT0_RSt11_Tuple_implIXT_EJS6_DpT1_EE = comdat any

$_ZNSt11_Tuple_implILm0EJRKN4cvc58internal12NodeTemplateILb0EEEEE7_M_headERS6_ = comdat any

$_ZNSt10_Head_baseILm0ERKN4cvc58internal12NodeTemplateILb0EEELb0EE7_M_headERS6_ = comdat any

$_ZNSt10_HashtableIN4cvc58internal12NodeTemplateILb0EEESt4pairIKS3_S3_ESaIS6_ENSt8__detail10_Select1stESt8equal_toIS3_ESt4hashIS3_ENS8_18_Mod_range_hashingENS8_20_Default_ranged_hashENS8_20_Prime_rehash_policyENS8_17_Hashtable_traitsILb1ELb0ELb1EEEED2Ev = comdat any

$_ZNSt10_HashtableIN4cvc58internal12NodeTemplateILb0EEESt4pairIKS3_S3_ESaIS6_ENSt8__detail10_Select1stESt8equal_toIS3_ESt4hashIS3_ENS8_18_Mod_range_hashingENS8_20_Default_ranged_hashENS8_20_Prime_rehash_policyENS8_17_Hashtable_traitsILb1ELb0ELb1EEEE5clearEv = comdat any

$_ZNSt8__detail16_Hashtable_allocISaINS_10_Hash_nodeISt4pairIKN4cvc58internal12NodeTemplateILb0EEES6_ELb1EEEEED2Ev = comdat any

$_ZNSt8__detail16_Hashtable_allocISaINS_10_Hash_nodeISt4pairIKN4cvc58internal12NodeTemplateILb0EEES6_ELb1EEEEE19_M_deallocate_nodesEPS9_ = comdat any

$_ZNSt8__detail21_Hashtable_ebo_helperILi0ESaINS_10_Hash_nodeISt4pairIKN4cvc58internal12NodeTemplateILb0EEES6_ELb1EEEELb1EED2Ev = comdat any

$_ZNSaINSt8__detail10_Hash_nodeISt4pairIKN4cvc58internal12NodeTemplateILb0EEES5_ELb1EEEED2Ev = comdat any

$_ZNSt15__new_allocatorINSt8__detail10_Hash_nodeISt4pairIKN4cvc58internal12NodeTemplateILb0EEES6_ELb1EEEED2Ev = comdat any

$_ZN4cvc58internal4expr9NodeValueC2Ei = comdat any

$_ZNKSt10unique_ptrIN4cvc58internal19TConvProofGeneratorESt14default_deleteIS2_EEcvbEv = comdat any

$_ZTSN4cvc58internal14LogicExceptionE = comdat any

$_ZTIN4cvc58internal14LogicExceptionE = comdat any

$_ZTSN4cvc58internal6EnvObjE = comdat any

$_ZTIN4cvc58internal6EnvObjE = comdat any

$_ZTVN4cvc58internal9TCtxStackE = comdat any

$_ZTSN4cvc58internal9TCtxStackE = comdat any

$_ZTIN4cvc58internal9TCtxStackE = comdat any

$_ZTVN4cvc58internal14LogicExceptionE = comdat any

$_ZTVN4cvc57context15CDInsertHashMapISt4pairINS_8internal12NodeTemplateILb1EEEjES5_NS3_16PairHashFunctionIS5_jSt4hashIS5_ES8_IjEEEEE = comdat any

$_ZTSN4cvc57context15CDInsertHashMapISt4pairINS_8internal12NodeTemplateILb1EEEjES5_NS3_16PairHashFunctionIS5_jSt4hashIS5_ES8_IjEEEEE = comdat any

$_ZTSN4cvc57context10ContextObjE = comdat any

$_ZTIN4cvc57context10ContextObjE = comdat any

$_ZTIN4cvc57context15CDInsertHashMapISt4pairINS_8internal12NodeTemplateILb1EEEjES5_NS3_16PairHashFunctionIS5_jSt4hashIS5_ES8_IjEEEEE = comdat any

$_ZTVN4cvc57context10ContextObjE = comdat any

$_ZTVN4cvc57context15CDInsertHashMapINS_8internal12NodeTemplateILb1EEES4_St4hashIS4_EEE = comdat any

$_ZTSN4cvc57context15CDInsertHashMapINS_8internal12NodeTemplateILb1EEES4_St4hashIS4_EEE = comdat any

$_ZTIN4cvc57context15CDInsertHashMapINS_8internal12NodeTemplateILb1EEES4_St4hashIS4_EEE = comdat any

$_ZSt19piecewise_construct = comdat any

$_ZZN4cvc58internal4expr9NodeValue4nullEvE6s_null = comdat any

$_ZGVZN4cvc58internal4expr9NodeValue4nullEvE6s_null = comdat any

@_ZStL8__ioinit = internal global %"class.std::ios_base::Init" zeroinitializer, align 1
@__dso_handle = external hidden global i8
@_ZTVN4cvc58internal18RemoveTermFormulasE = hidden unnamed_addr constant { [4 x ptr] } { [4 x ptr] [ptr null, ptr @_ZTIN4cvc58internal18RemoveTermFormulasE, ptr @_ZN4cvc58internal18RemoveTermFormulasD1Ev, ptr @_ZN4cvc58internal18RemoveTermFormulasD0Ev] }, align 8
@.str = private unnamed_addr constant [40 x i8] c"RemoveTermFormulas::TConvProofGenerator\00", align 1
@.str.1 = private unnamed_addr constant [32 x i8] c"RemoveTermFormulas::LazyCDProof\00", align 1
@_ZN4cvc58internal10nullStreamE = external global %"class.cvc5::internal::NullC", align 1
@_ZN4cvc58internal12TraceChannelE = external global %"class.cvc5::internal::TraceC", align 8
@.str.2 = private unnamed_addr constant [61 x i8] c"RemoveTermFormulas::run: setup proof for processed new lemma\00", align 1
@.str.3 = private unnamed_addr constant [25 x i8] c"LazyCDProof::addLazyStep\00", align 1
@.str.4 = private unnamed_addr constant [7 x i8] c"Visit \00", align 1
@.str.5 = private unnamed_addr constant [3 x i8] c", \00", align 1
@.str.6 = private unnamed_addr constant [20 x i8] c"...already computed\00", align 1
@.str.7 = private unnamed_addr constant [12 x i8] c"removeITEs(\00", align 1
@.str.8 = private unnamed_addr constant [2 x i8] c")\00", align 1
@.str.9 = private unnamed_addr constant [2 x i8] c" \00", align 1
@.str.10 = private unnamed_addr constant [21 x i8] c"...replace by skolem\00", align 1
@.str.11 = private unnamed_addr constant [23 x i8] c"...recurse to children\00", align 1
@.str.12 = private unnamed_addr constant [13 x i8] c"...base case\00", align 1
@.str.13 = private unnamed_addr constant [15 x i8] c"...reconstruct\00", align 1
@.str.14 = private unnamed_addr constant [22 x i8] c"ITE branches of type \00", align 1
@.str.15 = private unnamed_addr constant [30 x i8] c" are currently not supported.\00", align 1
@_ZTVN10__cxxabiv120__si_class_type_infoE = external global [0 x ptr]
@_ZTSN4cvc58internal14LogicExceptionE = linkonce_odr hidden constant [33 x i8] c"N4cvc58internal14LogicExceptionE\00", comdat, align 1
@_ZTIN4cvc58internal9ExceptionE = external constant ptr
@_ZTIN4cvc58internal14LogicExceptionE = linkonce_odr hidden constant { ptr, ptr, ptr } { ptr getelementptr inbounds (ptr, ptr @_ZTVN10__cxxabiv120__si_class_type_infoE, i64 2), ptr @_ZTSN4cvc58internal14LogicExceptionE, ptr @_ZTIN4cvc58internal9ExceptionE }, comdat, align 8
@.str.16 = private unnamed_addr constant [41 x i8] c"RemoveTermFormulas::run: make ITE skolem\00", align 1
@.str.17 = private unnamed_addr constant [34 x i8] c"RemoveTermFormulas::run: justify \00", align 1
@.str.18 = private unnamed_addr constant [16 x i8] c" with ITE axiom\00", align 1
@.str.19 = private unnamed_addr constant [45 x i8] c"RemoveTermFormulas::run: make WITNESS skolem\00", align 1
@.str.20 = private unnamed_addr constant [34 x i8] c"RemoveTermFormulas::run:skolem_pf\00", align 1
@.str.21 = private unnamed_addr constant [45 x i8] c"RemoveTermFormulas::run: make Boolean skolem\00", align 1
@.str.22 = private unnamed_addr constant [56 x i8] c"RemoveTermFormulas::run: setup proof for new assertion \00", align 1
@.str.23 = private unnamed_addr constant [37 x i8] c"*** term formula removal introduced \00", align 1
@.str.24 = private unnamed_addr constant [6 x i8] c" for \00", align 1
@.str.25 = private unnamed_addr constant [19 x i8] c"Checking closed...\00", align 1
@.str.26 = private unnamed_addr constant [16 x i8] c"rtf-proof-debug\00", align 1
@.str.27 = private unnamed_addr constant [35 x i8] c"RemoveTermFormulas::run:new_assert\00", align 1
@_ZTVN10__cxxabiv121__vmi_class_type_infoE = external global [0 x ptr]
@_ZTSN4cvc58internal18RemoveTermFormulasE = hidden constant [37 x i8] c"N4cvc58internal18RemoveTermFormulasE\00", align 1
@_ZTVN10__cxxabiv117__class_type_infoE = external global [0 x ptr]
@_ZTSN4cvc58internal6EnvObjE = linkonce_odr hidden constant [24 x i8] c"N4cvc58internal6EnvObjE\00", comdat, align 1
@_ZTIN4cvc58internal6EnvObjE = linkonce_odr hidden constant { ptr, ptr } { ptr getelementptr inbounds (ptr, ptr @_ZTVN10__cxxabiv117__class_type_infoE, i64 2), ptr @_ZTSN4cvc58internal6EnvObjE }, comdat, align 8
@_ZTIN4cvc58internal18RemoveTermFormulasE = hidden constant { ptr, ptr, i32, i32, ptr, i64 } { ptr getelementptr inbounds (ptr, ptr @_ZTVN10__cxxabiv121__vmi_class_type_infoE, i64 2), ptr @_ZTSN4cvc58internal18RemoveTermFormulasE, i32 0, i32 1, ptr @_ZTIN4cvc58internal6EnvObjE, i64 0 }, align 8
@_ZN4cvc58internal12NodeTemplateILb1EE6s_nullE = linkonce_odr hidden global %"class.cvc5::internal::NodeTemplate" zeroinitializer, comdat, align 8
@_ZGVN4cvc58internal12NodeTemplateILb1EE6s_nullE = linkonce_odr hidden global i64 0, comdat($_ZN4cvc58internal12NodeTemplateILb1EE6s_nullE), align 8
@_ZTVN4cvc58internal14RtfTermContextE = external unnamed_addr constant { [7 x ptr] }, align 8
@_ZTVN4cvc58internal11TermContextE = external unnamed_addr constant { [7 x ptr] }, align 8
@_ZTVN4cvc58internal9TCtxStackE = linkonce_odr hidden unnamed_addr constant { [4 x ptr] } { [4 x ptr] [ptr null, ptr @_ZTIN4cvc58internal9TCtxStackE, ptr @_ZN4cvc58internal9TCtxStackD2Ev, ptr @_ZN4cvc58internal9TCtxStackD0Ev] }, comdat, align 8
@_ZTSN4cvc58internal9TCtxStackE = linkonce_odr hidden constant [27 x i8] c"N4cvc58internal9TCtxStackE\00", comdat, align 1
@_ZTIN4cvc58internal9TCtxStackE = linkonce_odr hidden constant { ptr, ptr } { ptr getelementptr inbounds (ptr, ptr @_ZTVN10__cxxabiv117__class_type_infoE, i64 2), ptr @_ZTSN4cvc58internal9TCtxStackE }, comdat, align 8
@_ZTVN4cvc58internal14LogicExceptionE = linkonce_odr hidden unnamed_addr constant { [6 x ptr] } { [6 x ptr] [ptr null, ptr @_ZTIN4cvc58internal14LogicExceptionE, ptr @_ZN4cvc58internal14LogicExceptionD2Ev, ptr @_ZN4cvc58internal14LogicExceptionD0Ev, ptr @_ZNK4cvc58internal9Exception4whatEv, ptr @_ZNK4cvc58internal9Exception8toStreamERSo] }, comdat, align 8
@_ZTVN4cvc58internal9ExceptionE = external unnamed_addr constant { [6 x ptr] }, align 8
@_ZTVSt9exception = external unnamed_addr constant { [5 x ptr] }, align 8
@.str.29 = private unnamed_addr constant [50 x i8] c"basic_string: construction from null is not valid\00", align 1
@_ZN4cvc58internal11Cvc5ostream16s_indentIosIndexE = external constant i32, align 4
@_ZN4cvc58internal11Cvc5ostream5s_tabB5cxx11E = external global %"class.std::__cxx11::basic_string", align 8
@_ZTVN4cvc57context15CDInsertHashMapISt4pairINS_8internal12NodeTemplateILb1EEEjES5_NS3_16PairHashFunctionIS5_jSt4hashIS5_ES8_IjEEEEE = linkonce_odr hidden unnamed_addr constant { [6 x ptr] } { [6 x ptr] [ptr null, ptr @_ZTIN4cvc57context15CDInsertHashMapISt4pairINS_8internal12NodeTemplateILb1EEEjES5_NS3_16PairHashFunctionIS5_jSt4hashIS5_ES8_IjEEEEE, ptr @_ZN4cvc57context15CDInsertHashMapISt4pairINS_8internal12NodeTemplateILb1EEEjES5_NS3_16PairHashFunctionIS5_jSt4hashIS5_ES8_IjEEEE4saveEPNS0_20ContextMemoryManagerE, ptr @_ZN4cvc57context15CDInsertHashMapISt4pairINS_8internal12NodeTemplateILb1EEEjES5_NS3_16PairHashFunctionIS5_jSt4hashIS5_ES8_IjEEEE7restoreEPNS0_10ContextObjE, ptr @_ZN4cvc57context15CDInsertHashMapISt4pairINS_8internal12NodeTemplateILb1EEEjES5_NS3_16PairHashFunctionIS5_jSt4hashIS5_ES8_IjEEEED2Ev, ptr @_ZN4cvc57context15CDInsertHashMapISt4pairINS_8internal12NodeTemplateILb1EEEjES5_NS3_16PairHashFunctionIS5_jSt4hashIS5_ES8_IjEEEED0Ev] }, comdat, align 8
@_ZTSN4cvc57context15CDInsertHashMapISt4pairINS_8internal12NodeTemplateILb1EEEjES5_NS3_16PairHashFunctionIS5_jSt4hashIS5_ES8_IjEEEEE = linkonce_odr hidden constant [128 x i8] c"N4cvc57context15CDInsertHashMapISt4pairINS_8internal12NodeTemplateILb1EEEjES5_NS3_16PairHashFunctionIS5_jSt4hashIS5_ES8_IjEEEEE\00", comdat, align 1
@_ZTSN4cvc57context10ContextObjE = linkonce_odr constant [28 x i8] c"N4cvc57context10ContextObjE\00", comdat, align 1
@_ZTIN4cvc57context10ContextObjE = linkonce_odr constant { ptr, ptr } { ptr getelementptr inbounds (ptr, ptr @_ZTVN10__cxxabiv117__class_type_infoE, i64 2), ptr @_ZTSN4cvc57context10ContextObjE }, comdat, align 8
@_ZTIN4cvc57context15CDInsertHashMapISt4pairINS_8internal12NodeTemplateILb1EEEjES5_NS3_16PairHashFunctionIS5_jSt4hashIS5_ES8_IjEEEEE = linkonce_odr hidden constant { ptr, ptr, ptr } { ptr getelementptr inbounds (ptr, ptr @_ZTVN10__cxxabiv120__si_class_type_infoE, i64 2), ptr @_ZTSN4cvc57context15CDInsertHashMapISt4pairINS_8internal12NodeTemplateILb1EEEjES5_NS3_16PairHashFunctionIS5_jSt4hashIS5_ES8_IjEEEEE, ptr @_ZTIN4cvc57context10ContextObjE }, comdat, align 8
@.str.30 = private unnamed_addr constant [12 x i8] c"copy ctor: \00", align 1
@.str.31 = private unnamed_addr constant [7 x i8] c" from \00", align 1
@.str.32 = private unnamed_addr constant [7 x i8] c" size \00", align 1
@_ZTVN4cvc57context10ContextObjE = linkonce_odr unnamed_addr constant { [6 x ptr] } { [6 x ptr] [ptr null, ptr @_ZTIN4cvc57context10ContextObjE, ptr @__cxa_pure_virtual, ptr @__cxa_pure_virtual, ptr @_ZN4cvc57context10ContextObjD2Ev, ptr @_ZN4cvc57context10ContextObjD0Ev] }, comdat, align 8
@.str.33 = private unnamed_addr constant [23 x i8] c"TrailHashMap pop_back \00", align 1
@__PRETTY_FUNCTION__._ZN4cvc57context10ContextObjdlEPv = private unnamed_addr constant [63 x i8] c"static void cvc5::context::ContextObj::operator delete(void *)\00", align 1
@.str.34 = private unnamed_addr constant [109 x i8] c"generated/home/dtcxzyw/WorkSpace/Projects/compilers/llvm-opt-benchmark/bench/cvc5/cvc5/src/context/context.h\00", align 1
@.str.35 = private unnamed_addr constant [17 x i8] c"Check failure\0A\0A \00", align 1
@.str.36 = private unnamed_addr constant [6 x i8] c"false\00", align 1
@.str.37 = private unnamed_addr constant [2 x i8] c"\0A\00", align 1
@.str.38 = private unnamed_addr constant [51 x i8] c"It is not allowed to delete a ContextObj this way!\00", align 1
@_ZTVN4cvc57context15CDInsertHashMapINS_8internal12NodeTemplateILb1EEES4_St4hashIS4_EEE = linkonce_odr hidden unnamed_addr constant { [6 x ptr] } { [6 x ptr] [ptr null, ptr @_ZTIN4cvc57context15CDInsertHashMapINS_8internal12NodeTemplateILb1EEES4_St4hashIS4_EEE, ptr @_ZN4cvc57context15CDInsertHashMapINS_8internal12NodeTemplateILb1EEES4_St4hashIS4_EE4saveEPNS0_20ContextMemoryManagerE, ptr @_ZN4cvc57context15CDInsertHashMapINS_8internal12NodeTemplateILb1EEES4_St4hashIS4_EE7restoreEPNS0_10ContextObjE, ptr @_ZN4cvc57context15CDInsertHashMapINS_8internal12NodeTemplateILb1EEES4_St4hashIS4_EED2Ev, ptr @_ZN4cvc57context15CDInsertHashMapINS_8internal12NodeTemplateILb1EEES4_St4hashIS4_EED0Ev] }, comdat, align 8
@_ZTSN4cvc57context15CDInsertHashMapINS_8internal12NodeTemplateILb1EEES4_St4hashIS4_EEE = linkonce_odr hidden constant [83 x i8] c"N4cvc57context15CDInsertHashMapINS_8internal12NodeTemplateILb1EEES4_St4hashIS4_EEE\00", comdat, align 1
@_ZTIN4cvc57context15CDInsertHashMapINS_8internal12NodeTemplateILb1EEES4_St4hashIS4_EEE = linkonce_odr hidden constant { ptr, ptr, ptr } { ptr getelementptr inbounds (ptr, ptr @_ZTVN10__cxxabiv120__si_class_type_infoE, i64 2), ptr @_ZTSN4cvc57context15CDInsertHashMapINS_8internal12NodeTemplateILb1EEES4_St4hashIS4_EEE, ptr @_ZTIN4cvc57context10ContextObjE }, comdat, align 8
@.str.39 = private unnamed_addr constant [49 x i8] c"cannot create std::vector larger than max_size()\00", align 1
@.str.40 = private unnamed_addr constant [28 x i8] c"vector<bool>::_M_insert_aux\00", align 1
@.str.41 = private unnamed_addr constant [26 x i8] c"vector::_M_realloc_insert\00", align 1
@.str.42 = private unnamed_addr constant [48 x i8] c"cannot create std::deque larger than max_size()\00", align 1
@_ZTIN4cvc58internal28TypeCheckingExceptionPrivateE = external constant ptr
@_ZSt19piecewise_construct = linkonce_odr constant %"struct.std::piecewise_construct_t" zeroinitializer, comdat, align 1
@_ZZN4cvc58internal4expr9NodeValue4nullEvE6s_null = linkonce_odr global ptr null, comdat, align 8
@_ZGVZN4cvc58internal4expr9NodeValue4nullEvE6s_null = linkonce_odr global i64 0, comdat, align 8
@llvm.global_ctors = appending global [2 x { i32, ptr, ptr }] [{ i32, ptr, ptr } { i32 65535, ptr @__cxx_global_var_init.28, ptr @_ZN4cvc58internal12NodeTemplateILb1EE6s_nullE }, { i32, ptr, ptr } { i32 65535, ptr @_GLOBAL__sub_I_term_formula_removal.cpp, ptr null }]
@llvm.used = appending global [1 x ptr] [ptr @_ZN4cvc58internal12NodeTemplateILb1EE6s_nullE], section "llvm.metadata"

@_ZN4cvc58internal18RemoveTermFormulasC1ERNS0_3EnvE = hidden unnamed_addr alias void (ptr, ptr), ptr @_ZN4cvc58internal18RemoveTermFormulasC2ERNS0_3EnvE
@_ZN4cvc58internal18RemoveTermFormulasD1Ev = hidden unnamed_addr alias void (ptr), ptr @_ZN4cvc58internal18RemoveTermFormulasD2Ev

; Function Attrs: uwtable
define internal void @__cxx_global_var_init() #0 section ".text.startup" {
entry:
  call void @_ZNSt8ios_base4InitC1Ev(ptr noundef nonnull align 1 dereferenceable(1) @_ZStL8__ioinit)
  %0 = call i32 @__cxa_atexit(ptr @_ZNSt8ios_base4InitD1Ev, ptr @_ZStL8__ioinit, ptr @__dso_handle) #3
  ret void
}

declare void @_ZNSt8ios_base4InitC1Ev(ptr noundef nonnull align 1 dereferenceable(1)) unnamed_addr #1

; Function Attrs: nounwind
declare void @_ZNSt8ios_base4InitD1Ev(ptr noundef nonnull align 1 dereferenceable(1)) unnamed_addr #2

; Function Attrs: nounwind
declare i32 @__cxa_atexit(ptr, ptr, ptr) #3

; Function Attrs: mustprogress uwtable
define hidden void @_ZN4cvc58internal18RemoveTermFormulasC2ERNS0_3EnvE(ptr noundef nonnull align 8 dereferenceable(160) %this, ptr noundef nonnull align 8 dereferenceable(576) %env) unnamed_addr #4 align 2 personality ptr @__gxx_personality_v0 {
entry:
  %this.addr = alloca ptr, align 8
  %env.addr = alloca ptr, align 8
  %exn.slot = alloca ptr, align 8
  %ehselector.slot = alloca i32, align 4
  %pnm = alloca ptr, align 8
  %agg.tmp = alloca %"class.std::__cxx11::basic_string", align 8
  %ref.tmp = alloca %"class.std::allocator", align 1
  %cleanup.isactive = alloca i1, align 1
  %agg.tmp24 = alloca %"class.std::__cxx11::basic_string", align 8
  %ref.tmp25 = alloca %"class.std::allocator", align 1
  %cleanup.isactive30 = alloca i1, align 1
  %ref.tmp40 = alloca %"class.std::__cxx11::basic_string", align 8
  %ref.tmp41 = alloca %"class.std::allocator", align 1
  %cleanup.isactive46 = alloca i1, align 1
  store ptr %this, ptr %this.addr, align 8
  store ptr %env, ptr %env.addr, align 8
  %this1 = load ptr, ptr %this.addr, align 8
  %0 = load ptr, ptr %env.addr, align 8
  call void @_ZN4cvc58internal6EnvObjC2ERNS0_3EnvE(ptr noundef nonnull align 8 dereferenceable(16) %this1, ptr noundef nonnull align 8 dereferenceable(576) %0)
  store ptr getelementptr inbounds ({ [4 x ptr] }, ptr @_ZTVN4cvc58internal18RemoveTermFormulasE, i32 0, inrange i32 0, i32 2), ptr %this1, align 8
  %d_tfCache = getelementptr inbounds %"class.cvc5::internal::RemoveTermFormulas", ptr %this1, i32 0, i32 1
  %call = invoke noundef ptr @_ZNK4cvc58internal6EnvObj11userContextEv(ptr noundef nonnull align 8 dereferenceable(16) %this1)
          to label %invoke.cont unwind label %lpad

invoke.cont:                                      ; preds = %entry
  invoke void @_ZN4cvc57context15CDInsertHashMapISt4pairINS_8internal12NodeTemplateILb1EEEjES5_NS3_16PairHashFunctionIS5_jSt4hashIS5_ES8_IjEEEEC2EPNS0_7ContextE(ptr noundef nonnull align 8 dereferenceable(56) %d_tfCache, ptr noundef %call)
          to label %invoke.cont2 unwind label %lpad

invoke.cont2:                                     ; preds = %invoke.cont
  %d_skolem_cache = getelementptr inbounds %"class.cvc5::internal::RemoveTermFormulas", ptr %this1, i32 0, i32 2
  %call5 = invoke noundef ptr @_ZNK4cvc58internal6EnvObj11userContextEv(ptr noundef nonnull align 8 dereferenceable(16) %this1)
          to label %invoke.cont4 unwind label %lpad3

invoke.cont4:                                     ; preds = %invoke.cont2
  invoke void @_ZN4cvc57context15CDInsertHashMapINS_8internal12NodeTemplateILb1EEES4_St4hashIS4_EEC2EPNS0_7ContextE(ptr noundef nonnull align 8 dereferenceable(56) %d_skolem_cache, ptr noundef %call5)
          to label %invoke.cont6 unwind label %lpad3

invoke.cont6:                                     ; preds = %invoke.cont4
  %d_tpg = getelementptr inbounds %"class.cvc5::internal::RemoveTermFormulas", ptr %this1, i32 0, i32 3
  call void @_ZNSt10unique_ptrIN4cvc58internal19TConvProofGeneratorESt14default_deleteIS2_EEC2IS4_vEEDn(ptr noundef nonnull align 8 dereferenceable(8) %d_tpg, ptr null) #3
  %d_tpgi = getelementptr inbounds %"class.cvc5::internal::RemoveTermFormulas", ptr %this1, i32 0, i32 4
  call void @_ZNSt10unique_ptrIN4cvc58internal19TConvProofGeneratorESt14default_deleteIS2_EEC2IS4_vEEv(ptr noundef nonnull align 8 dereferenceable(8) %d_tpgi) #3
  %d_lp = getelementptr inbounds %"class.cvc5::internal::RemoveTermFormulas", ptr %this1, i32 0, i32 5
  call void @_ZNSt10unique_ptrIN4cvc58internal11LazyCDProofESt14default_deleteIS2_EEC2IS4_vEEDn(ptr noundef nonnull align 8 dereferenceable(8) %d_lp, ptr null) #3
  %d_rtfc = getelementptr inbounds %"class.cvc5::internal::RemoveTermFormulas", ptr %this1, i32 0, i32 6
  invoke void @_ZN4cvc58internal14RtfTermContextC2Ev(ptr noundef nonnull align 8 dereferenceable(8) %d_rtfc)
          to label %invoke.cont8 unwind label %lpad7

invoke.cont8:                                     ; preds = %invoke.cont6
  %1 = load ptr, ptr %env.addr, align 8
  %call11 = invoke noundef ptr @_ZN4cvc58internal3Env19getProofNodeManagerEv(ptr noundef nonnull align 8 dereferenceable(576) %1)
          to label %invoke.cont10 unwind label %lpad9

invoke.cont10:                                    ; preds = %invoke.cont8
  store ptr %call11, ptr %pnm, align 8
  %2 = load ptr, ptr %pnm, align 8
  %cmp = icmp ne ptr %2, null
  br i1 %cmp, label %if.then, label %if.end

if.then:                                          ; preds = %invoke.cont10
  %d_tpg12 = getelementptr inbounds %"class.cvc5::internal::RemoveTermFormulas", ptr %this1, i32 0, i32 3
  %call14 = invoke noalias noundef nonnull ptr @_Znwm(i64 noundef 808) #14
          to label %invoke.cont13 unwind label %lpad9

invoke.cont13:                                    ; preds = %if.then
  store i1 true, ptr %cleanup.isactive, align 1
  %3 = load ptr, ptr %env.addr, align 8
  call void @_ZNSaIcEC1Ev(ptr noundef nonnull align 1 dereferenceable(1) %ref.tmp) #3
  invoke void @_ZNSt7__cxx1112basic_stringIcSt11char_traitsIcESaIcEEC2IS3_EEPKcRKS3_(ptr noundef nonnull align 8 dereferenceable(32) %agg.tmp, ptr noundef @.str, ptr noundef nonnull align 1 dereferenceable(1) %ref.tmp)
          to label %invoke.cont16 unwind label %lpad15

invoke.cont16:                                    ; preds = %invoke.cont13
  %d_rtfc17 = getelementptr inbounds %"class.cvc5::internal::RemoveTermFormulas", ptr %this1, i32 0, i32 6
  invoke void @_ZN4cvc58internal19TConvProofGeneratorC1ERNS0_3EnvEPNS_7context7ContextENS0_11TConvPolicyENS0_16TConvCachePolicyENSt7__cxx1112basic_stringIcSt11char_traitsIcESaIcEEEPNS0_11TermContextEb(ptr noundef nonnull align 8 dereferenceable(801) %call14, ptr noundef nonnull align 8 dereferenceable(576) %3, ptr noundef null, i32 noundef 0, i32 noundef 2, ptr noundef %agg.tmp, ptr noundef %d_rtfc17, i1 noundef zeroext false)
          to label %invoke.cont19 unwind label %lpad18

invoke.cont19:                                    ; preds = %invoke.cont16
  store i1 false, ptr %cleanup.isactive, align 1
  call void @_ZNSt10unique_ptrIN4cvc58internal19TConvProofGeneratorESt14default_deleteIS2_EE5resetEPS2_(ptr noundef nonnull align 8 dereferenceable(8) %d_tpg12, ptr noundef %call14) #3
  call void @_ZNSt7__cxx1112basic_stringIcSt11char_traitsIcESaIcEED1Ev(ptr noundef nonnull align 8 dereferenceable(32) %agg.tmp) #3
  call void @_ZNSaIcED1Ev(ptr noundef nonnull align 1 dereferenceable(1) %ref.tmp) #3
  %d_tpgi21 = getelementptr inbounds %"class.cvc5::internal::RemoveTermFormulas", ptr %this1, i32 0, i32 4
  %call23 = invoke noalias noundef nonnull ptr @_Znwm(i64 noundef 808) #14
          to label %invoke.cont22 unwind label %lpad9

invoke.cont22:                                    ; preds = %invoke.cont19
  store i1 true, ptr %cleanup.isactive30, align 1
  %4 = load ptr, ptr %env.addr, align 8
  call void @_ZNSaIcEC1Ev(ptr noundef nonnull align 1 dereferenceable(1) %ref.tmp25) #3
  invoke void @_ZNSt7__cxx1112basic_stringIcSt11char_traitsIcESaIcEEC2IS3_EEPKcRKS3_(ptr noundef nonnull align 8 dereferenceable(32) %agg.tmp24, ptr noundef @.str, ptr noundef nonnull align 1 dereferenceable(1) %ref.tmp25)
          to label %invoke.cont27 unwind label %lpad26

invoke.cont27:                                    ; preds = %invoke.cont22
  invoke void @_ZN4cvc58internal19TConvProofGeneratorC1ERNS0_3EnvEPNS_7context7ContextENS0_11TConvPolicyENS0_16TConvCachePolicyENSt7__cxx1112basic_stringIcSt11char_traitsIcESaIcEEEPNS0_11TermContextEb(ptr noundef nonnull align 8 dereferenceable(801) %call23, ptr noundef nonnull align 8 dereferenceable(576) %4, ptr noundef null, i32 noundef 1, i32 noundef 2, ptr noundef %agg.tmp24, ptr noundef null, i1 noundef zeroext false)
          to label %invoke.cont29 unwind label %lpad28

invoke.cont29:                                    ; preds = %invoke.cont27
  store i1 false, ptr %cleanup.isactive30, align 1
  call void @_ZNSt10unique_ptrIN4cvc58internal19TConvProofGeneratorESt14default_deleteIS2_EE5resetEPS2_(ptr noundef nonnull align 8 dereferenceable(8) %d_tpgi21, ptr noundef %call23) #3
  call void @_ZNSt7__cxx1112basic_stringIcSt11char_traitsIcESaIcEED1Ev(ptr noundef nonnull align 8 dereferenceable(32) %agg.tmp24) #3
  call void @_ZNSaIcED1Ev(ptr noundef nonnull align 1 dereferenceable(1) %ref.tmp25) #3
  %d_lp37 = getelementptr inbounds %"class.cvc5::internal::RemoveTermFormulas", ptr %this1, i32 0, i32 5
  %call39 = invoke noalias noundef nonnull ptr @_Znwm(i64 noundef 408) #14
          to label %invoke.cont38 unwind label %lpad9

invoke.cont38:                                    ; preds = %invoke.cont29
  store i1 true, ptr %cleanup.isactive46, align 1
  %5 = load ptr, ptr %env.addr, align 8
  call void @_ZNSaIcEC1Ev(ptr noundef nonnull align 1 dereferenceable(1) %ref.tmp41) #3
  invoke void @_ZNSt7__cxx1112basic_stringIcSt11char_traitsIcESaIcEEC2IS3_EEPKcRKS3_(ptr noundef nonnull align 8 dereferenceable(32) %ref.tmp40, ptr noundef @.str.1, ptr noundef nonnull align 1 dereferenceable(1) %ref.tmp41)
          to label %invoke.cont43 unwind label %lpad42

invoke.cont43:                                    ; preds = %invoke.cont38
  invoke void @_ZN4cvc58internal11LazyCDProofC1ERNS0_3EnvEPNS0_14ProofGeneratorEPNS_7context7ContextERKNSt7__cxx1112basic_stringIcSt11char_traitsIcESaIcEEEbb(ptr noundef nonnull align 8 dereferenceable(408) %call39, ptr noundef nonnull align 8 dereferenceable(576) %5, ptr noundef null, ptr noundef null, ptr noundef nonnull align 8 dereferenceable(32) %ref.tmp40, i1 noundef zeroext true, i1 noundef zeroext true)
          to label %invoke.cont45 unwind label %lpad44

invoke.cont45:                                    ; preds = %invoke.cont43
  store i1 false, ptr %cleanup.isactive46, align 1
  call void @_ZNSt10unique_ptrIN4cvc58internal11LazyCDProofESt14default_deleteIS2_EE5resetEPS2_(ptr noundef nonnull align 8 dereferenceable(8) %d_lp37, ptr noundef %call39) #3
  call void @_ZNSt7__cxx1112basic_stringIcSt11char_traitsIcESaIcEED1Ev(ptr noundef nonnull align 8 dereferenceable(32) %ref.tmp40) #3
  call void @_ZNSaIcED1Ev(ptr noundef nonnull align 1 dereferenceable(1) %ref.tmp41) #3
  br label %if.end

lpad:                                             ; preds = %invoke.cont, %entry
  %6 = landingpad { ptr, i32 }
          cleanup
  %7 = extractvalue { ptr, i32 } %6, 0
  store ptr %7, ptr %exn.slot, align 8
  %8 = extractvalue { ptr, i32 } %6, 1
  store i32 %8, ptr %ehselector.slot, align 4
  br label %ehcleanup59

lpad3:                                            ; preds = %invoke.cont4, %invoke.cont2
  %9 = landingpad { ptr, i32 }
          cleanup
  %10 = extractvalue { ptr, i32 } %9, 0
  store ptr %10, ptr %exn.slot, align 8
  %11 = extractvalue { ptr, i32 } %9, 1
  store i32 %11, ptr %ehselector.slot, align 4
  br label %ehcleanup58

lpad7:                                            ; preds = %invoke.cont6
  %12 = landingpad { ptr, i32 }
          cleanup
  %13 = extractvalue { ptr, i32 } %12, 0
  store ptr %13, ptr %exn.slot, align 8
  %14 = extractvalue { ptr, i32 } %12, 1
  store i32 %14, ptr %ehselector.slot, align 4
  br label %ehcleanup54

lpad9:                                            ; preds = %invoke.cont29, %invoke.cont19, %if.then, %invoke.cont8
  %15 = landingpad { ptr, i32 }
          cleanup
  %16 = extractvalue { ptr, i32 } %15, 0
  store ptr %16, ptr %exn.slot, align 8
  %17 = extractvalue { ptr, i32 } %15, 1
  store i32 %17, ptr %ehselector.slot, align 4
  br label %ehcleanup53

lpad15:                                           ; preds = %invoke.cont13
  %18 = landingpad { ptr, i32 }
          cleanup
  %19 = extractvalue { ptr, i32 } %18, 0
  store ptr %19, ptr %exn.slot, align 8
  %20 = extractvalue { ptr, i32 } %18, 1
  store i32 %20, ptr %ehselector.slot, align 4
  br label %ehcleanup

lpad18:                                           ; preds = %invoke.cont16
  %21 = landingpad { ptr, i32 }
          cleanup
  %22 = extractvalue { ptr, i32 } %21, 0
  store ptr %22, ptr %exn.slot, align 8
  %23 = extractvalue { ptr, i32 } %21, 1
  store i32 %23, ptr %ehselector.slot, align 4
  call void @_ZNSt7__cxx1112basic_stringIcSt11char_traitsIcESaIcEED1Ev(ptr noundef nonnull align 8 dereferenceable(32) %agg.tmp) #3
  br label %ehcleanup

ehcleanup:                                        ; preds = %lpad18, %lpad15
  call void @_ZNSaIcED1Ev(ptr noundef nonnull align 1 dereferenceable(1) %ref.tmp) #3
  %cleanup.is_active = load i1, ptr %cleanup.isactive, align 1
  br i1 %cleanup.is_active, label %cleanup.action, label %cleanup.done

cleanup.action:                                   ; preds = %ehcleanup
  call void @_ZdlPv(ptr noundef %call14) #15
  br label %cleanup.done

cleanup.done:                                     ; preds = %cleanup.action, %ehcleanup
  br label %ehcleanup53

lpad26:                                           ; preds = %invoke.cont22
  %24 = landingpad { ptr, i32 }
          cleanup
  %25 = extractvalue { ptr, i32 } %24, 0
  store ptr %25, ptr %exn.slot, align 8
  %26 = extractvalue { ptr, i32 } %24, 1
  store i32 %26, ptr %ehselector.slot, align 4
  br label %ehcleanup32

lpad28:                                           ; preds = %invoke.cont27
  %27 = landingpad { ptr, i32 }
          cleanup
  %28 = extractvalue { ptr, i32 } %27, 0
  store ptr %28, ptr %exn.slot, align 8
  %29 = extractvalue { ptr, i32 } %27, 1
  store i32 %29, ptr %ehselector.slot, align 4
  call void @_ZNSt7__cxx1112basic_stringIcSt11char_traitsIcESaIcEED1Ev(ptr noundef nonnull align 8 dereferenceable(32) %agg.tmp24) #3
  br label %ehcleanup32

ehcleanup32:                                      ; preds = %lpad28, %lpad26
  call void @_ZNSaIcED1Ev(ptr noundef nonnull align 1 dereferenceable(1) %ref.tmp25) #3
  %cleanup.is_active34 = load i1, ptr %cleanup.isactive30, align 1
  br i1 %cleanup.is_active34, label %cleanup.action35, label %cleanup.done36

cleanup.action35:                                 ; preds = %ehcleanup32
  call void @_ZdlPv(ptr noundef %call23) #15
  br label %cleanup.done36

cleanup.done36:                                   ; preds = %cleanup.action35, %ehcleanup32
  br label %ehcleanup53

lpad42:                                           ; preds = %invoke.cont38
  %30 = landingpad { ptr, i32 }
          cleanup
  %31 = extractvalue { ptr, i32 } %30, 0
  store ptr %31, ptr %exn.slot, align 8
  %32 = extractvalue { ptr, i32 } %30, 1
  store i32 %32, ptr %ehselector.slot, align 4
  br label %ehcleanup48

lpad44:                                           ; preds = %invoke.cont43
  %33 = landingpad { ptr, i32 }
          cleanup
  %34 = extractvalue { ptr, i32 } %33, 0
  store ptr %34, ptr %exn.slot, align 8
  %35 = extractvalue { ptr, i32 } %33, 1
  store i32 %35, ptr %ehselector.slot, align 4
  call void @_ZNSt7__cxx1112basic_stringIcSt11char_traitsIcESaIcEED1Ev(ptr noundef nonnull align 8 dereferenceable(32) %ref.tmp40) #3
  br label %ehcleanup48

ehcleanup48:                                      ; preds = %lpad44, %lpad42
  call void @_ZNSaIcED1Ev(ptr noundef nonnull align 1 dereferenceable(1) %ref.tmp41) #3
  %cleanup.is_active50 = load i1, ptr %cleanup.isactive46, align 1
  br i1 %cleanup.is_active50, label %cleanup.action51, label %cleanup.done52

cleanup.action51:                                 ; preds = %ehcleanup48
  call void @_ZdlPv(ptr noundef %call39) #15
  br label %cleanup.done52

cleanup.done52:                                   ; preds = %cleanup.action51, %ehcleanup48
  br label %ehcleanup53

if.end:                                           ; preds = %invoke.cont45, %invoke.cont10
  ret void

ehcleanup53:                                      ; preds = %cleanup.done52, %cleanup.done36, %cleanup.done, %lpad9
  call void @_ZN4cvc58internal14RtfTermContextD2Ev(ptr noundef nonnull align 8 dereferenceable(8) %d_rtfc) #3
  br label %ehcleanup54

ehcleanup54:                                      ; preds = %ehcleanup53, %lpad7
  call void @_ZNSt10unique_ptrIN4cvc58internal11LazyCDProofESt14default_deleteIS2_EED2Ev(ptr noundef nonnull align 8 dereferenceable(8) %d_lp) #3
  call void @_ZNSt10unique_ptrIN4cvc58internal19TConvProofGeneratorESt14default_deleteIS2_EED2Ev(ptr noundef nonnull align 8 dereferenceable(8) %d_tpgi) #3
  call void @_ZNSt10unique_ptrIN4cvc58internal19TConvProofGeneratorESt14default_deleteIS2_EED2Ev(ptr noundef nonnull align 8 dereferenceable(8) %d_tpg) #3
  call void @_ZN4cvc57context15CDInsertHashMapINS_8internal12NodeTemplateILb1EEES4_St4hashIS4_EED2Ev(ptr noundef nonnull align 8 dereferenceable(56) %d_skolem_cache) #3
  br label %ehcleanup58

ehcleanup58:                                      ; preds = %ehcleanup54, %lpad3
  call void @_ZN4cvc57context15CDInsertHashMapISt4pairINS_8internal12NodeTemplateILb1EEEjES5_NS3_16PairHashFunctionIS5_jSt4hashIS5_ES8_IjEEEED2Ev(ptr noundef nonnull align 8 dereferenceable(56) %d_tfCache) #3
  br label %ehcleanup59

ehcleanup59:                                      ; preds = %ehcleanup58, %lpad
  call void @_ZN4cvc58internal6EnvObjD2Ev(ptr noundef nonnull align 8 dereferenceable(16) %this1) #3
  br label %eh.resume

eh.resume:                                        ; preds = %ehcleanup59
  %exn = load ptr, ptr %exn.slot, align 8
  %sel = load i32, ptr %ehselector.slot, align 4
  %lpad.val = insertvalue { ptr, i32 } poison, ptr %exn, 0
  %lpad.val60 = insertvalue { ptr, i32 } %lpad.val, i32 %sel, 1
  resume { ptr, i32 } %lpad.val60
}

declare void @_ZN4cvc58internal6EnvObjC2ERNS0_3EnvE(ptr noundef nonnull align 8 dereferenceable(16), ptr noundef nonnull align 8 dereferenceable(576)) unnamed_addr #1

declare noundef ptr @_ZNK4cvc58internal6EnvObj11userContextEv(ptr noundef nonnull align 8 dereferenceable(16)) #1

declare i32 @__gxx_personality_v0(...)

; Function Attrs: mustprogress uwtable
define linkonce_odr hidden void @_ZN4cvc57context15CDInsertHashMapISt4pairINS_8internal12NodeTemplateILb1EEEjES5_NS3_16PairHashFunctionIS5_jSt4hashIS5_ES8_IjEEEEC2EPNS0_7ContextE(ptr noundef nonnull align 8 dereferenceable(56) %this, ptr noundef %context) unnamed_addr #4 comdat align 2 personality ptr @__gxx_personality_v0 {
entry:
  %this.addr = alloca ptr, align 8
  %context.addr = alloca ptr, align 8
  %exn.slot = alloca ptr, align 8
  %ehselector.slot = alloca i32, align 4
  store ptr %this, ptr %this.addr, align 8
  store ptr %context, ptr %context.addr, align 8
  %this1 = load ptr, ptr %this.addr, align 8
  %0 = load ptr, ptr %context.addr, align 8
  call void @_ZN4cvc57context10ContextObjC2EPNS0_7ContextE(ptr noundef nonnull align 8 dereferenceable(40) %this1, ptr noundef %0)
  store ptr getelementptr inbounds ({ [6 x ptr] }, ptr @_ZTVN4cvc57context15CDInsertHashMapISt4pairINS_8internal12NodeTemplateILb1EEEjES5_NS3_16PairHashFunctionIS5_jSt4hashIS5_ES8_IjEEEEE, i32 0, inrange i32 0, i32 2), ptr %this1, align 8
  %d_insertMap = getelementptr inbounds %"class.cvc5::context::CDInsertHashMap", ptr %this1, i32 0, i32 1
  %call = invoke noalias noundef nonnull ptr @_Znwm(i64 noundef 136) #14
          to label %invoke.cont unwind label %lpad

invoke.cont:                                      ; preds = %entry
  call void @llvm.memset.p0.i64(ptr align 16 %call, i8 0, i64 136, i1 false)
  invoke void @_ZN4cvc57context13InsertHashMapISt4pairINS_8internal12NodeTemplateILb1EEEjES5_NS3_16PairHashFunctionIS5_jSt4hashIS5_ES8_IjEEEEC2Ev(ptr noundef nonnull align 8 dereferenceable(136) %call)
          to label %invoke.cont3 unwind label %lpad2

invoke.cont3:                                     ; preds = %invoke.cont
  store ptr %call, ptr %d_insertMap, align 8
  %d_size = getelementptr inbounds %"class.cvc5::context::CDInsertHashMap", ptr %this1, i32 0, i32 2
  store i64 0, ptr %d_size, align 8
  ret void

lpad:                                             ; preds = %entry
  %1 = landingpad { ptr, i32 }
          cleanup
  %2 = extractvalue { ptr, i32 } %1, 0
  store ptr %2, ptr %exn.slot, align 8
  %3 = extractvalue { ptr, i32 } %1, 1
  store i32 %3, ptr %ehselector.slot, align 4
  br label %ehcleanup

lpad2:                                            ; preds = %invoke.cont
  %4 = landingpad { ptr, i32 }
          cleanup
  %5 = extractvalue { ptr, i32 } %4, 0
  store ptr %5, ptr %exn.slot, align 8
  %6 = extractvalue { ptr, i32 } %4, 1
  store i32 %6, ptr %ehselector.slot, align 4
  call void @_ZdlPv(ptr noundef %call) #15
  br label %ehcleanup

ehcleanup:                                        ; preds = %lpad2, %lpad
  call void @_ZN4cvc57context10ContextObjD2Ev(ptr noundef nonnull align 8 dereferenceable(40) %this1) #3
  br label %eh.resume

eh.resume:                                        ; preds = %ehcleanup
  %exn = load ptr, ptr %exn.slot, align 8
  %sel = load i32, ptr %ehselector.slot, align 4
  %lpad.val = insertvalue { ptr, i32 } poison, ptr %exn, 0
  %lpad.val4 = insertvalue { ptr, i32 } %lpad.val, i32 %sel, 1
  resume { ptr, i32 } %lpad.val4
}

; Function Attrs: mustprogress uwtable
define linkonce_odr hidden void @_ZN4cvc57context15CDInsertHashMapINS_8internal12NodeTemplateILb1EEES4_St4hashIS4_EEC2EPNS0_7ContextE(ptr noundef nonnull align 8 dereferenceable(56) %this, ptr noundef %context) unnamed_addr #4 comdat align 2 personality ptr @__gxx_personality_v0 {
entry:
  %this.addr = alloca ptr, align 8
  %context.addr = alloca ptr, align 8
  %exn.slot = alloca ptr, align 8
  %ehselector.slot = alloca i32, align 4
  store ptr %this, ptr %this.addr, align 8
  store ptr %context, ptr %context.addr, align 8
  %this1 = load ptr, ptr %this.addr, align 8
  %0 = load ptr, ptr %context.addr, align 8
  call void @_ZN4cvc57context10ContextObjC2EPNS0_7ContextE(ptr noundef nonnull align 8 dereferenceable(40) %this1, ptr noundef %0)
  store ptr getelementptr inbounds ({ [6 x ptr] }, ptr @_ZTVN4cvc57context15CDInsertHashMapINS_8internal12NodeTemplateILb1EEES4_St4hashIS4_EEE, i32 0, inrange i32 0, i32 2), ptr %this1, align 8
  %d_insertMap = getelementptr inbounds %"class.cvc5::context::CDInsertHashMap.0", ptr %this1, i32 0, i32 1
  %call = invoke noalias noundef nonnull ptr @_Znwm(i64 noundef 136) #14
          to label %invoke.cont unwind label %lpad

invoke.cont:                                      ; preds = %entry
  call void @llvm.memset.p0.i64(ptr align 16 %call, i8 0, i64 136, i1 false)
  invoke void @_ZN4cvc57context13InsertHashMapINS_8internal12NodeTemplateILb1EEES4_St4hashIS4_EEC2Ev(ptr noundef nonnull align 8 dereferenceable(136) %call)
          to label %invoke.cont3 unwind label %lpad2

invoke.cont3:                                     ; preds = %invoke.cont
  store ptr %call, ptr %d_insertMap, align 8
  %d_size = getelementptr inbounds %"class.cvc5::context::CDInsertHashMap.0", ptr %this1, i32 0, i32 2
  store i64 0, ptr %d_size, align 8
  ret void

lpad:                                             ; preds = %entry
  %1 = landingpad { ptr, i32 }
          cleanup
  %2 = extractvalue { ptr, i32 } %1, 0
  store ptr %2, ptr %exn.slot, align 8
  %3 = extractvalue { ptr, i32 } %1, 1
  store i32 %3, ptr %ehselector.slot, align 4
  br label %ehcleanup

lpad2:                                            ; preds = %invoke.cont
  %4 = landingpad { ptr, i32 }
          cleanup
  %5 = extractvalue { ptr, i32 } %4, 0
  store ptr %5, ptr %exn.slot, align 8
  %6 = extractvalue { ptr, i32 } %4, 1
  store i32 %6, ptr %ehselector.slot, align 4
  call void @_ZdlPv(ptr noundef %call) #15
  br label %ehcleanup

ehcleanup:                                        ; preds = %lpad2, %lpad
  call void @_ZN4cvc57context10ContextObjD2Ev(ptr noundef nonnull align 8 dereferenceable(40) %this1) #3
  br label %eh.resume

eh.resume:                                        ; preds = %ehcleanup
  %exn = load ptr, ptr %exn.slot, align 8
  %sel = load i32, ptr %ehselector.slot, align 4
  %lpad.val = insertvalue { ptr, i32 } poison, ptr %exn, 0
  %lpad.val4 = insertvalue { ptr, i32 } %lpad.val, i32 %sel, 1
  resume { ptr, i32 } %lpad.val4
}

; Function Attrs: mustprogress nounwind uwtable
define linkonce_odr hidden void @_ZNSt10unique_ptrIN4cvc58internal19TConvProofGeneratorESt14default_deleteIS2_EEC2IS4_vEEDn(ptr noundef nonnull align 8 dereferenceable(8) %this, ptr %0) unnamed_addr #5 comdat align 2 {
entry:
  %this.addr = alloca ptr, align 8
  %.addr = alloca ptr, align 8
  store ptr %this, ptr %this.addr, align 8
  store ptr %0, ptr %.addr, align 8
  %this1 = load ptr, ptr %this.addr, align 8
  %_M_t = getelementptr inbounds %"class.std::unique_ptr", ptr %this1, i32 0, i32 0
  call void @llvm.memset.p0.i64(ptr align 8 %_M_t, i8 0, i64 8, i1 false)
  call void @_ZNSt15__uniq_ptr_dataIN4cvc58internal19TConvProofGeneratorESt14default_deleteIS2_ELb1ELb1EEC2Ev(ptr noundef nonnull align 8 dereferenceable(8) %_M_t) #3
  ret void
}

; Function Attrs: mustprogress nounwind uwtable
define linkonce_odr hidden void @_ZNSt10unique_ptrIN4cvc58internal19TConvProofGeneratorESt14default_deleteIS2_EEC2IS4_vEEv(ptr noundef nonnull align 8 dereferenceable(8) %this) unnamed_addr #5 comdat align 2 {
entry:
  %this.addr = alloca ptr, align 8
  store ptr %this, ptr %this.addr, align 8
  %this1 = load ptr, ptr %this.addr, align 8
  %_M_t = getelementptr inbounds %"class.std::unique_ptr", ptr %this1, i32 0, i32 0
  call void @llvm.memset.p0.i64(ptr align 8 %_M_t, i8 0, i64 8, i1 false)
  call void @_ZNSt15__uniq_ptr_dataIN4cvc58internal19TConvProofGeneratorESt14default_deleteIS2_ELb1ELb1EEC2Ev(ptr noundef nonnull align 8 dereferenceable(8) %_M_t) #3
  ret void
}

; Function Attrs: mustprogress nounwind uwtable
define linkonce_odr hidden void @_ZNSt10unique_ptrIN4cvc58internal11LazyCDProofESt14default_deleteIS2_EEC2IS4_vEEDn(ptr noundef nonnull align 8 dereferenceable(8) %this, ptr %0) unnamed_addr #5 comdat align 2 {
entry:
  %this.addr = alloca ptr, align 8
  %.addr = alloca ptr, align 8
  store ptr %this, ptr %this.addr, align 8
  store ptr %0, ptr %.addr, align 8
  %this1 = load ptr, ptr %this.addr, align 8
  %_M_t = getelementptr inbounds %"class.std::unique_ptr.3", ptr %this1, i32 0, i32 0
  call void @llvm.memset.p0.i64(ptr align 8 %_M_t, i8 0, i64 8, i1 false)
  call void @_ZNSt15__uniq_ptr_dataIN4cvc58internal11LazyCDProofESt14default_deleteIS2_ELb1ELb1EEC2Ev(ptr noundef nonnull align 8 dereferenceable(8) %_M_t) #3
  ret void
}

; Function Attrs: mustprogress uwtable
define linkonce_odr hidden void @_ZN4cvc58internal14RtfTermContextC2Ev(ptr noundef nonnull align 8 dereferenceable(8) %this) unnamed_addr #4 comdat align 2 {
entry:
  %this.addr = alloca ptr, align 8
  store ptr %this, ptr %this.addr, align 8
  %this1 = load ptr, ptr %this.addr, align 8
  call void @_ZN4cvc58internal11TermContextC2Ev(ptr noundef nonnull align 8 dereferenceable(8) %this1)
  store ptr getelementptr inbounds ({ [7 x ptr] }, ptr @_ZTVN4cvc58internal14RtfTermContextE, i32 0, inrange i32 0, i32 2), ptr %this1, align 8
  ret void
}

declare noundef ptr @_ZN4cvc58internal3Env19getProofNodeManagerEv(ptr noundef nonnull align 8 dereferenceable(576)) #1

; Function Attrs: mustprogress nounwind uwtable
define linkonce_odr hidden void @_ZNSt10unique_ptrIN4cvc58internal19TConvProofGeneratorESt14default_deleteIS2_EE5resetEPS2_(ptr noundef nonnull align 8 dereferenceable(8) %this, ptr noundef %__p) #5 comdat align 2 {
entry:
  %this.addr = alloca ptr, align 8
  %__p.addr = alloca ptr, align 8
  store ptr %this, ptr %this.addr, align 8
  store ptr %__p, ptr %__p.addr, align 8
  %this1 = load ptr, ptr %this.addr, align 8
  %_M_t = getelementptr inbounds %"class.std::unique_ptr", ptr %this1, i32 0, i32 0
  %0 = load ptr, ptr %__p.addr, align 8
  call void @_ZNSt15__uniq_ptr_implIN4cvc58internal19TConvProofGeneratorESt14default_deleteIS2_EE5resetEPS2_(ptr noundef nonnull align 8 dereferenceable(8) %_M_t, ptr noundef %0) #3
  ret void
}

; Function Attrs: nobuiltin allocsize(0)
declare noundef nonnull ptr @_Znwm(i64 noundef) #6

; Function Attrs: nounwind
declare void @_ZNSaIcEC1Ev(ptr noundef nonnull align 1 dereferenceable(1)) unnamed_addr #2

; Function Attrs: mustprogress uwtable
define linkonce_odr hidden void @_ZNSt7__cxx1112basic_stringIcSt11char_traitsIcESaIcEEC2IS3_EEPKcRKS3_(ptr noundef nonnull align 8 dereferenceable(32) %this, ptr noundef %__s, ptr noundef nonnull align 1 dereferenceable(1) %__a) unnamed_addr #4 comdat align 2 personality ptr @__gxx_personality_v0 {
entry:
  %this.addr = alloca ptr, align 8
  %__s.addr = alloca ptr, align 8
  %__a.addr = alloca ptr, align 8
  %exn.slot = alloca ptr, align 8
  %ehselector.slot = alloca i32, align 4
  %__end = alloca ptr, align 8
  store ptr %this, ptr %this.addr, align 8
  store ptr %__s, ptr %__s.addr, align 8
  store ptr %__a, ptr %__a.addr, align 8
  %this1 = load ptr, ptr %this.addr, align 8
  %_M_dataplus = getelementptr inbounds %"class.std::__cxx11::basic_string", ptr %this1, i32 0, i32 0
  %call = call noundef ptr @_ZNSt7__cxx1112basic_stringIcSt11char_traitsIcESaIcEE13_M_local_dataEv(ptr noundef nonnull align 8 dereferenceable(32) %this1)
  %0 = load ptr, ptr %__a.addr, align 8
  call void @_ZNSt7__cxx1112basic_stringIcSt11char_traitsIcESaIcEE12_Alloc_hiderC1EPcRKS3_(ptr noundef nonnull align 8 dereferenceable(8) %_M_dataplus, ptr noundef %call, ptr noundef nonnull align 1 dereferenceable(1) %0)
  %1 = load ptr, ptr %__s.addr, align 8
  %cmp = icmp eq ptr %1, null
  br i1 %cmp, label %if.then, label %if.end

if.then:                                          ; preds = %entry
  invoke void @_ZSt19__throw_logic_errorPKc(ptr noundef @.str.29) #16
          to label %invoke.cont unwind label %lpad

invoke.cont:                                      ; preds = %if.then
  unreachable

lpad:                                             ; preds = %invoke.cont2, %if.end, %if.then
  %2 = landingpad { ptr, i32 }
          cleanup
  %3 = extractvalue { ptr, i32 } %2, 0
  store ptr %3, ptr %exn.slot, align 8
  %4 = extractvalue { ptr, i32 } %2, 1
  store i32 %4, ptr %ehselector.slot, align 4
  call void @_ZNSt7__cxx1112basic_stringIcSt11char_traitsIcESaIcEE12_Alloc_hiderD2Ev(ptr noundef nonnull align 8 dereferenceable(8) %_M_dataplus) #3
  br label %eh.resume

if.end:                                           ; preds = %entry
  %5 = load ptr, ptr %__s.addr, align 8
  %6 = load ptr, ptr %__s.addr, align 8
  %call3 = invoke noundef i64 @_ZNSt11char_traitsIcE6lengthEPKc(ptr noundef %6)
          to label %invoke.cont2 unwind label %lpad

invoke.cont2:                                     ; preds = %if.end
  %add.ptr = getelementptr inbounds i8, ptr %5, i64 %call3
  store ptr %add.ptr, ptr %__end, align 8
  %7 = load ptr, ptr %__s.addr, align 8
  %8 = load ptr, ptr %__end, align 8
  invoke void @_ZNSt7__cxx1112basic_stringIcSt11char_traitsIcESaIcEE12_M_constructIPKcEEvT_S8_St20forward_iterator_tag(ptr noundef nonnull align 8 dereferenceable(32) %this1, ptr noundef %7, ptr noundef %8)
          to label %invoke.cont4 unwind label %lpad

invoke.cont4:                                     ; preds = %invoke.cont2
  ret void

eh.resume:                                        ; preds = %lpad
  %exn = load ptr, ptr %exn.slot, align 8
  %sel = load i32, ptr %ehselector.slot, align 4
  %lpad.val = insertvalue { ptr, i32 } poison, ptr %exn, 0
  %lpad.val5 = insertvalue { ptr, i32 } %lpad.val, i32 %sel, 1
  resume { ptr, i32 } %lpad.val5
}

declare void @_ZN4cvc58internal19TConvProofGeneratorC1ERNS0_3EnvEPNS_7context7ContextENS0_11TConvPolicyENS0_16TConvCachePolicyENSt7__cxx1112basic_stringIcSt11char_traitsIcESaIcEEEPNS0_11TermContextEb(ptr noundef nonnull align 8 dereferenceable(801), ptr noundef nonnull align 8 dereferenceable(576), ptr noundef, i32 noundef, i32 noundef, ptr noundef, ptr noundef, i1 noundef zeroext) unnamed_addr #1

; Function Attrs: nounwind
declare void @_ZNSt7__cxx1112basic_stringIcSt11char_traitsIcESaIcEED1Ev(ptr noundef nonnull align 8 dereferenceable(32)) unnamed_addr #2

; Function Attrs: nounwind
declare void @_ZNSaIcED1Ev(ptr noundef nonnull align 1 dereferenceable(1)) unnamed_addr #2

; Function Attrs: nobuiltin nounwind
declare void @_ZdlPv(ptr noundef) #7

; Function Attrs: mustprogress nounwind uwtable
define linkonce_odr hidden void @_ZNSt10unique_ptrIN4cvc58internal11LazyCDProofESt14default_deleteIS2_EE5resetEPS2_(ptr noundef nonnull align 8 dereferenceable(8) %this, ptr noundef %__p) #5 comdat align 2 {
entry:
  %this.addr = alloca ptr, align 8
  %__p.addr = alloca ptr, align 8
  store ptr %this, ptr %this.addr, align 8
  store ptr %__p, ptr %__p.addr, align 8
  %this1 = load ptr, ptr %this.addr, align 8
  %_M_t = getelementptr inbounds %"class.std::unique_ptr.3", ptr %this1, i32 0, i32 0
  %0 = load ptr, ptr %__p.addr, align 8
  call void @_ZNSt15__uniq_ptr_implIN4cvc58internal11LazyCDProofESt14default_deleteIS2_EE5resetEPS2_(ptr noundef nonnull align 8 dereferenceable(8) %_M_t, ptr noundef %0) #3
  ret void
}

declare void @_ZN4cvc58internal11LazyCDProofC1ERNS0_3EnvEPNS0_14ProofGeneratorEPNS_7context7ContextERKNSt7__cxx1112basic_stringIcSt11char_traitsIcESaIcEEEbb(ptr noundef nonnull align 8 dereferenceable(408), ptr noundef nonnull align 8 dereferenceable(576), ptr noundef, ptr noundef, ptr noundef nonnull align 8 dereferenceable(32), i1 noundef zeroext, i1 noundef zeroext) unnamed_addr #1

; Function Attrs: mustprogress nounwind uwtable
define linkonce_odr hidden void @_ZN4cvc58internal14RtfTermContextD2Ev(ptr noundef nonnull align 8 dereferenceable(8) %this) unnamed_addr #5 comdat align 2 {
entry:
  %this.addr = alloca ptr, align 8
  store ptr %this, ptr %this.addr, align 8
  %this1 = load ptr, ptr %this.addr, align 8
  call void @_ZN4cvc58internal11TermContextD2Ev(ptr noundef nonnull align 8 dereferenceable(8) %this1) #3
  ret void
}

; Function Attrs: mustprogress nounwind uwtable
define linkonce_odr hidden void @_ZNSt10unique_ptrIN4cvc58internal11LazyCDProofESt14default_deleteIS2_EED2Ev(ptr noundef nonnull align 8 dereferenceable(8) %this) unnamed_addr #5 comdat align 2 personality ptr @__gxx_personality_v0 {
entry:
  %this.addr = alloca ptr, align 8
  %__ptr = alloca ptr, align 8
  store ptr %this, ptr %this.addr, align 8
  %this1 = load ptr, ptr %this.addr, align 8
  %_M_t = getelementptr inbounds %"class.std::unique_ptr.3", ptr %this1, i32 0, i32 0
  %call = call noundef nonnull align 8 dereferenceable(8) ptr @_ZNSt15__uniq_ptr_implIN4cvc58internal11LazyCDProofESt14default_deleteIS2_EE6_M_ptrEv(ptr noundef nonnull align 8 dereferenceable(8) %_M_t) #3
  store ptr %call, ptr %__ptr, align 8
  %0 = load ptr, ptr %__ptr, align 8
  %1 = load ptr, ptr %0, align 8
  %cmp = icmp ne ptr %1, null
  br i1 %cmp, label %if.then, label %if.end

if.then:                                          ; preds = %entry
  %call2 = call noundef nonnull align 1 dereferenceable(1) ptr @_ZNSt10unique_ptrIN4cvc58internal11LazyCDProofESt14default_deleteIS2_EE11get_deleterEv(ptr noundef nonnull align 8 dereferenceable(8) %this1) #3
  %2 = load ptr, ptr %__ptr, align 8
  %3 = load ptr, ptr %2, align 8
  invoke void @_ZNKSt14default_deleteIN4cvc58internal11LazyCDProofEEclEPS2_(ptr noundef nonnull align 1 dereferenceable(1) %call2, ptr noundef %3)
          to label %invoke.cont unwind label %terminate.lpad

invoke.cont:                                      ; preds = %if.then
  br label %if.end

if.end:                                           ; preds = %invoke.cont, %entry
  %4 = load ptr, ptr %__ptr, align 8
  store ptr null, ptr %4, align 8
  ret void

terminate.lpad:                                   ; preds = %if.then
  %5 = landingpad { ptr, i32 }
          catch ptr null
  %6 = extractvalue { ptr, i32 } %5, 0
  call void @__clang_call_terminate(ptr %6) #17
  unreachable
}

; Function Attrs: mustprogress nounwind uwtable
define linkonce_odr hidden void @_ZNSt10unique_ptrIN4cvc58internal19TConvProofGeneratorESt14default_deleteIS2_EED2Ev(ptr noundef nonnull align 8 dereferenceable(8) %this) unnamed_addr #5 comdat align 2 personality ptr @__gxx_personality_v0 {
entry:
  %this.addr = alloca ptr, align 8
  %__ptr = alloca ptr, align 8
  store ptr %this, ptr %this.addr, align 8
  %this1 = load ptr, ptr %this.addr, align 8
  %_M_t = getelementptr inbounds %"class.std::unique_ptr", ptr %this1, i32 0, i32 0
  %call = call noundef nonnull align 8 dereferenceable(8) ptr @_ZNSt15__uniq_ptr_implIN4cvc58internal19TConvProofGeneratorESt14default_deleteIS2_EE6_M_ptrEv(ptr noundef nonnull align 8 dereferenceable(8) %_M_t) #3
  store ptr %call, ptr %__ptr, align 8
  %0 = load ptr, ptr %__ptr, align 8
  %1 = load ptr, ptr %0, align 8
  %cmp = icmp ne ptr %1, null
  br i1 %cmp, label %if.then, label %if.end

if.then:                                          ; preds = %entry
  %call2 = call noundef nonnull align 1 dereferenceable(1) ptr @_ZNSt10unique_ptrIN4cvc58internal19TConvProofGeneratorESt14default_deleteIS2_EE11get_deleterEv(ptr noundef nonnull align 8 dereferenceable(8) %this1) #3
  %2 = load ptr, ptr %__ptr, align 8
  %3 = load ptr, ptr %2, align 8
  invoke void @_ZNKSt14default_deleteIN4cvc58internal19TConvProofGeneratorEEclEPS2_(ptr noundef nonnull align 1 dereferenceable(1) %call2, ptr noundef %3)
          to label %invoke.cont unwind label %terminate.lpad

invoke.cont:                                      ; preds = %if.then
  br label %if.end

if.end:                                           ; preds = %invoke.cont, %entry
  %4 = load ptr, ptr %__ptr, align 8
  store ptr null, ptr %4, align 8
  ret void

terminate.lpad:                                   ; preds = %if.then
  %5 = landingpad { ptr, i32 }
          catch ptr null
  %6 = extractvalue { ptr, i32 } %5, 0
  call void @__clang_call_terminate(ptr %6) #17
  unreachable
}

; Function Attrs: mustprogress nounwind uwtable
define linkonce_odr hidden void @_ZN4cvc57context15CDInsertHashMapINS_8internal12NodeTemplateILb1EEES4_St4hashIS4_EED2Ev(ptr noundef nonnull align 8 dereferenceable(56) %this) unnamed_addr #5 comdat align 2 personality ptr @__gxx_personality_v0 {
entry:
  %this.addr = alloca ptr, align 8
  store ptr %this, ptr %this.addr, align 8
  %this1 = load ptr, ptr %this.addr, align 8
  store ptr getelementptr inbounds ({ [6 x ptr] }, ptr @_ZTVN4cvc57context15CDInsertHashMapINS_8internal12NodeTemplateILb1EEES4_St4hashIS4_EEE, i32 0, inrange i32 0, i32 2), ptr %this1, align 8
  invoke void @_ZN4cvc57context10ContextObj7destroyEv(ptr noundef nonnull align 8 dereferenceable(40) %this1)
          to label %invoke.cont unwind label %terminate.lpad

invoke.cont:                                      ; preds = %entry
  %d_insertMap = getelementptr inbounds %"class.cvc5::context::CDInsertHashMap.0", ptr %this1, i32 0, i32 1
  %0 = load ptr, ptr %d_insertMap, align 8
  %isnull = icmp eq ptr %0, null
  br i1 %isnull, label %delete.end, label %delete.notnull

delete.notnull:                                   ; preds = %invoke.cont
  call void @_ZN4cvc57context13InsertHashMapINS_8internal12NodeTemplateILb1EEES4_St4hashIS4_EED2Ev(ptr noundef nonnull align 8 dereferenceable(136) %0) #3
  call void @_ZdlPv(ptr noundef %0) #15
  br label %delete.end

delete.end:                                       ; preds = %delete.notnull, %invoke.cont
  call void @_ZN4cvc57context10ContextObjD2Ev(ptr noundef nonnull align 8 dereferenceable(40) %this1) #3
  ret void

terminate.lpad:                                   ; preds = %entry
  %1 = landingpad { ptr, i32 }
          catch ptr null
  %2 = extractvalue { ptr, i32 } %1, 0
  call void @__clang_call_terminate(ptr %2) #17
  unreachable
}

; Function Attrs: mustprogress nounwind uwtable
define linkonce_odr hidden void @_ZN4cvc57context15CDInsertHashMapISt4pairINS_8internal12NodeTemplateILb1EEEjES5_NS3_16PairHashFunctionIS5_jSt4hashIS5_ES8_IjEEEED2Ev(ptr noundef nonnull align 8 dereferenceable(56) %this) unnamed_addr #5 comdat align 2 personality ptr @__gxx_personality_v0 {
entry:
  %this.addr = alloca ptr, align 8
  store ptr %this, ptr %this.addr, align 8
  %this1 = load ptr, ptr %this.addr, align 8
  store ptr getelementptr inbounds ({ [6 x ptr] }, ptr @_ZTVN4cvc57context15CDInsertHashMapISt4pairINS_8internal12NodeTemplateILb1EEEjES5_NS3_16PairHashFunctionIS5_jSt4hashIS5_ES8_IjEEEEE, i32 0, inrange i32 0, i32 2), ptr %this1, align 8
  invoke void @_ZN4cvc57context10ContextObj7destroyEv(ptr noundef nonnull align 8 dereferenceable(40) %this1)
          to label %invoke.cont unwind label %terminate.lpad

invoke.cont:                                      ; preds = %entry
  %d_insertMap = getelementptr inbounds %"class.cvc5::context::CDInsertHashMap", ptr %this1, i32 0, i32 1
  %0 = load ptr, ptr %d_insertMap, align 8
  %isnull = icmp eq ptr %0, null
  br i1 %isnull, label %delete.end, label %delete.notnull

delete.notnull:                                   ; preds = %invoke.cont
  call void @_ZN4cvc57context13InsertHashMapISt4pairINS_8internal12NodeTemplateILb1EEEjES5_NS3_16PairHashFunctionIS5_jSt4hashIS5_ES8_IjEEEED2Ev(ptr noundef nonnull align 8 dereferenceable(136) %0) #3
  call void @_ZdlPv(ptr noundef %0) #15
  br label %delete.end

delete.end:                                       ; preds = %delete.notnull, %invoke.cont
  call void @_ZN4cvc57context10ContextObjD2Ev(ptr noundef nonnull align 8 dereferenceable(40) %this1) #3
  ret void

terminate.lpad:                                   ; preds = %entry
  %1 = landingpad { ptr, i32 }
          catch ptr null
  %2 = extractvalue { ptr, i32 } %1, 0
  call void @__clang_call_terminate(ptr %2) #17
  unreachable
}

; Function Attrs: mustprogress nounwind uwtable
define linkonce_odr hidden void @_ZN4cvc58internal6EnvObjD2Ev(ptr noundef nonnull align 8 dereferenceable(16) %this) unnamed_addr #5 comdat align 2 {
entry:
  %this.addr = alloca ptr, align 8
  store ptr %this, ptr %this.addr, align 8
  ret void
}

; Function Attrs: mustprogress nounwind uwtable
define hidden void @_ZN4cvc58internal18RemoveTermFormulasD2Ev(ptr noundef nonnull align 8 dereferenceable(160) %this) unnamed_addr #5 align 2 {
entry:
  %this.addr = alloca ptr, align 8
  store ptr %this, ptr %this.addr, align 8
  %this1 = load ptr, ptr %this.addr, align 8
  store ptr getelementptr inbounds ({ [4 x ptr] }, ptr @_ZTVN4cvc58internal18RemoveTermFormulasE, i32 0, inrange i32 0, i32 2), ptr %this1, align 8
  %d_rtfc = getelementptr inbounds %"class.cvc5::internal::RemoveTermFormulas", ptr %this1, i32 0, i32 6
  call void @_ZN4cvc58internal14RtfTermContextD2Ev(ptr noundef nonnull align 8 dereferenceable(8) %d_rtfc) #3
  %d_lp = getelementptr inbounds %"class.cvc5::internal::RemoveTermFormulas", ptr %this1, i32 0, i32 5
  call void @_ZNSt10unique_ptrIN4cvc58internal11LazyCDProofESt14default_deleteIS2_EED2Ev(ptr noundef nonnull align 8 dereferenceable(8) %d_lp) #3
  %d_tpgi = getelementptr inbounds %"class.cvc5::internal::RemoveTermFormulas", ptr %this1, i32 0, i32 4
  call void @_ZNSt10unique_ptrIN4cvc58internal19TConvProofGeneratorESt14default_deleteIS2_EED2Ev(ptr noundef nonnull align 8 dereferenceable(8) %d_tpgi) #3
  %d_tpg = getelementptr inbounds %"class.cvc5::internal::RemoveTermFormulas", ptr %this1, i32 0, i32 3
  call void @_ZNSt10unique_ptrIN4cvc58internal19TConvProofGeneratorESt14default_deleteIS2_EED2Ev(ptr noundef nonnull align 8 dereferenceable(8) %d_tpg) #3
  %d_skolem_cache = getelementptr inbounds %"class.cvc5::internal::RemoveTermFormulas", ptr %this1, i32 0, i32 2
  call void @_ZN4cvc57context15CDInsertHashMapINS_8internal12NodeTemplateILb1EEES4_St4hashIS4_EED2Ev(ptr noundef nonnull align 8 dereferenceable(56) %d_skolem_cache) #3
  %d_tfCache = getelementptr inbounds %"class.cvc5::internal::RemoveTermFormulas", ptr %this1, i32 0, i32 1
  call void @_ZN4cvc57context15CDInsertHashMapISt4pairINS_8internal12NodeTemplateILb1EEEjES5_NS3_16PairHashFunctionIS5_jSt4hashIS5_ES8_IjEEEED2Ev(ptr noundef nonnull align 8 dereferenceable(56) %d_tfCache) #3
  call void @_ZN4cvc58internal6EnvObjD2Ev(ptr noundef nonnull align 8 dereferenceable(16) %this1) #3
  ret void
}

; Function Attrs: mustprogress nounwind uwtable
define hidden void @_ZN4cvc58internal18RemoveTermFormulasD0Ev(ptr noundef nonnull align 8 dereferenceable(160) %this) unnamed_addr #5 align 2 {
entry:
  %this.addr = alloca ptr, align 8
  store ptr %this, ptr %this.addr, align 8
  %this1 = load ptr, ptr %this.addr, align 8
  call void @_ZN4cvc58internal18RemoveTermFormulasD1Ev(ptr noundef nonnull align 8 dereferenceable(160) %this1) #3
  call void @_ZdlPv(ptr noundef %this1) #15
  ret void
}

; Function Attrs: mustprogress uwtable
define hidden void @_ZN4cvc58internal18RemoveTermFormulas3runENS0_12NodeTemplateILb0EEERSt6vectorINS0_6theory11SkolemLemmaESaIS6_EEb(ptr noalias sret(%"class.cvc5::internal::TrustNode") align 8 %agg.result, ptr noundef nonnull align 8 dereferenceable(160) %this, ptr noundef %assertion, ptr noundef nonnull align 8 dereferenceable(24) %newAsserts, i1 noundef zeroext %fixedPoint) #4 align 2 personality ptr @__gxx_personality_v0 {
entry:
  %result.ptr = alloca ptr, align 8
  %this.addr = alloca ptr, align 8
  %assertion.indirect_addr = alloca ptr, align 8
  %newAsserts.addr = alloca ptr, align 8
  %fixedPoint.addr = alloca i8, align 1
  %itesRemoved = alloca %"class.cvc5::internal::NodeTemplate", align 8
  %agg.tmp = alloca %"class.cvc5::internal::NodeTemplate.313", align 8
  %exn.slot = alloca ptr, align 8
  %ehselector.slot = alloca i32, align 4
  %cleanup.dest.slot = alloca i32, align 4
  %i = alloca i64, align 8
  %trn = alloca %"class.cvc5::internal::TrustNode", align 8
  %ref.tmp = alloca %"class.cvc5::internal::TrustNode", align 8
  %agg.tmp9 = alloca %"class.cvc5::internal::TrustNode", align 8
  %agg.tmp21 = alloca %"class.cvc5::internal::NodeTemplate.313", align 8
  %agg.tmp23 = alloca %"class.cvc5::internal::NodeTemplate", align 8
  store ptr %agg.result, ptr %result.ptr, align 8
  store ptr %this, ptr %this.addr, align 8
  store ptr %assertion, ptr %assertion.indirect_addr, align 8
  store ptr %newAsserts, ptr %newAsserts.addr, align 8
  %frombool = zext i1 %fixedPoint to i8
  store i8 %frombool, ptr %fixedPoint.addr, align 1
  %this1 = load ptr, ptr %this.addr, align 8
  call void @_ZN4cvc58internal12NodeTemplateILb0EEC2ERKS2_(ptr noundef nonnull align 8 dereferenceable(8) %agg.tmp, ptr noundef nonnull align 8 dereferenceable(8) %assertion)
  %0 = load ptr, ptr %newAsserts.addr, align 8
  invoke void @_ZN4cvc58internal18RemoveTermFormulas11runInternalENS0_12NodeTemplateILb0EEERSt6vectorINS0_6theory11SkolemLemmaESaIS6_EE(ptr sret(%"class.cvc5::internal::NodeTemplate") align 8 %itesRemoved, ptr noundef nonnull align 8 dereferenceable(160) %this1, ptr noundef %agg.tmp, ptr noundef nonnull align 8 dereferenceable(24) %0)
          to label %invoke.cont unwind label %lpad

invoke.cont:                                      ; preds = %entry
  call void @_ZN4cvc58internal12NodeTemplateILb0EED2Ev(ptr noundef nonnull align 8 dereferenceable(8) %agg.tmp) #3
  %call = invoke noundef zeroext i1 @_ZNK4cvc58internal12NodeTemplateILb1EEeqILb0EEEbRKNS1_IXT_EEE(ptr noundef nonnull align 8 dereferenceable(8) %itesRemoved, ptr noundef nonnull align 8 dereferenceable(8) %assertion)
          to label %invoke.cont3 unwind label %lpad2

invoke.cont3:                                     ; preds = %invoke.cont
  br i1 %call, label %if.then, label %if.end

if.then:                                          ; preds = %invoke.cont3
  invoke void @_ZN4cvc58internal9TrustNode4nullEv(ptr sret(%"class.cvc5::internal::TrustNode") align 8 %agg.result)
          to label %invoke.cont4 unwind label %lpad2

invoke.cont4:                                     ; preds = %if.then
  store i32 1, ptr %cleanup.dest.slot, align 4
  br label %cleanup

lpad:                                             ; preds = %entry
  %1 = landingpad { ptr, i32 }
          cleanup
  %2 = extractvalue { ptr, i32 } %1, 0
  store ptr %2, ptr %exn.slot, align 8
  %3 = extractvalue { ptr, i32 } %1, 1
  store i32 %3, ptr %ehselector.slot, align 4
  call void @_ZN4cvc58internal12NodeTemplateILb0EED2Ev(ptr noundef nonnull align 8 dereferenceable(8) %agg.tmp) #3
  br label %eh.resume

lpad2:                                            ; preds = %if.end20, %while.body, %if.then, %invoke.cont
  %4 = landingpad { ptr, i32 }
          cleanup
  %5 = extractvalue { ptr, i32 } %4, 0
  store ptr %5, ptr %exn.slot, align 8
  %6 = extractvalue { ptr, i32 } %4, 1
  store i32 %6, ptr %ehselector.slot, align 4
  br label %ehcleanup31

if.end:                                           ; preds = %invoke.cont3
  %7 = load i8, ptr %fixedPoint.addr, align 1
  %tobool = trunc i8 %7 to i1
  br i1 %tobool, label %if.then5, label %if.end20

if.then5:                                         ; preds = %if.end
  store i64 0, ptr %i, align 8
  br label %while.cond

while.cond:                                       ; preds = %invoke.cont17, %if.then5
  %8 = load i64, ptr %i, align 8
  %9 = load ptr, ptr %newAsserts.addr, align 8
  %call6 = call noundef i64 @_ZNKSt6vectorIN4cvc58internal6theory11SkolemLemmaESaIS3_EE4sizeEv(ptr noundef nonnull align 8 dereferenceable(24) %9) #3
  %cmp = icmp ult i64 %8, %call6
  br i1 %cmp, label %while.body, label %while.end

while.body:                                       ; preds = %while.cond
  %10 = load ptr, ptr %newAsserts.addr, align 8
  %11 = load i64, ptr %i, align 8
  %call7 = call noundef nonnull align 8 dereferenceable(32) ptr @_ZNSt6vectorIN4cvc58internal6theory11SkolemLemmaESaIS3_EEixEm(ptr noundef nonnull align 8 dereferenceable(24) %10, i64 noundef %11) #3
  %d_lemma = getelementptr inbounds %"class.cvc5::internal::theory::SkolemLemma", ptr %call7, i32 0, i32 0
  invoke void @_ZN4cvc58internal9TrustNodeC2ERKS1_(ptr noundef nonnull align 8 dereferenceable(24) %trn, ptr noundef nonnull align 8 dereferenceable(24) %d_lemma)
          to label %invoke.cont8 unwind label %lpad2

invoke.cont8:                                     ; preds = %while.body
  invoke void @_ZN4cvc58internal9TrustNodeC2ERKS1_(ptr noundef nonnull align 8 dereferenceable(24) %agg.tmp9, ptr noundef nonnull align 8 dereferenceable(24) %trn)
          to label %invoke.cont11 unwind label %lpad10

invoke.cont11:                                    ; preds = %invoke.cont8
  %12 = load ptr, ptr %newAsserts.addr, align 8
  invoke void @_ZN4cvc58internal18RemoveTermFormulas8runLemmaENS0_9TrustNodeERSt6vectorINS0_6theory11SkolemLemmaESaIS5_EEb(ptr sret(%"class.cvc5::internal::TrustNode") align 8 %ref.tmp, ptr noundef nonnull align 8 dereferenceable(160) %this1, ptr noundef %agg.tmp9, ptr noundef nonnull align 8 dereferenceable(24) %12, i1 noundef zeroext false)
          to label %invoke.cont13 unwind label %lpad12

invoke.cont13:                                    ; preds = %invoke.cont11
  %13 = load ptr, ptr %newAsserts.addr, align 8
  %14 = load i64, ptr %i, align 8
  %call14 = call noundef nonnull align 8 dereferenceable(32) ptr @_ZNSt6vectorIN4cvc58internal6theory11SkolemLemmaESaIS3_EEixEm(ptr noundef nonnull align 8 dereferenceable(24) %13, i64 noundef %14) #3
  %d_lemma15 = getelementptr inbounds %"class.cvc5::internal::theory::SkolemLemma", ptr %call14, i32 0, i32 0
  %call18 = invoke noundef nonnull align 8 dereferenceable(24) ptr @_ZN4cvc58internal9TrustNodeaSERKS1_(ptr noundef nonnull align 8 dereferenceable(24) %d_lemma15, ptr noundef nonnull align 8 dereferenceable(24) %ref.tmp)
          to label %invoke.cont17 unwind label %lpad16

invoke.cont17:                                    ; preds = %invoke.cont13
  call void @_ZN4cvc58internal9TrustNodeD2Ev(ptr noundef nonnull align 8 dereferenceable(24) %ref.tmp) #3
  call void @_ZN4cvc58internal9TrustNodeD2Ev(ptr noundef nonnull align 8 dereferenceable(24) %agg.tmp9) #3
  %15 = load i64, ptr %i, align 8
  %inc = add i64 %15, 1
  store i64 %inc, ptr %i, align 8
  call void @_ZN4cvc58internal9TrustNodeD2Ev(ptr noundef nonnull align 8 dereferenceable(24) %trn) #3
  br label %while.cond, !llvm.loop !4

lpad10:                                           ; preds = %invoke.cont8
  %16 = landingpad { ptr, i32 }
          cleanup
  %17 = extractvalue { ptr, i32 } %16, 0
  store ptr %17, ptr %exn.slot, align 8
  %18 = extractvalue { ptr, i32 } %16, 1
  store i32 %18, ptr %ehselector.slot, align 4
  br label %ehcleanup19

lpad12:                                           ; preds = %invoke.cont11
  %19 = landingpad { ptr, i32 }
          cleanup
  %20 = extractvalue { ptr, i32 } %19, 0
  store ptr %20, ptr %exn.slot, align 8
  %21 = extractvalue { ptr, i32 } %19, 1
  store i32 %21, ptr %ehselector.slot, align 4
  br label %ehcleanup

lpad16:                                           ; preds = %invoke.cont13
  %22 = landingpad { ptr, i32 }
          cleanup
  %23 = extractvalue { ptr, i32 } %22, 0
  store ptr %23, ptr %exn.slot, align 8
  %24 = extractvalue { ptr, i32 } %22, 1
  store i32 %24, ptr %ehselector.slot, align 4
  call void @_ZN4cvc58internal9TrustNodeD2Ev(ptr noundef nonnull align 8 dereferenceable(24) %ref.tmp) #3
  br label %ehcleanup

ehcleanup:                                        ; preds = %lpad16, %lpad12
  call void @_ZN4cvc58internal9TrustNodeD2Ev(ptr noundef nonnull align 8 dereferenceable(24) %agg.tmp9) #3
  br label %ehcleanup19

ehcleanup19:                                      ; preds = %ehcleanup, %lpad10
  call void @_ZN4cvc58internal9TrustNodeD2Ev(ptr noundef nonnull align 8 dereferenceable(24) %trn) #3
  br label %ehcleanup31

while.end:                                        ; preds = %while.cond
  br label %if.end20

if.end20:                                         ; preds = %while.end, %if.end
  invoke void @_ZN4cvc58internal12NodeTemplateILb0EEC2ERKS2_(ptr noundef nonnull align 8 dereferenceable(8) %agg.tmp21, ptr noundef nonnull align 8 dereferenceable(8) %assertion)
          to label %invoke.cont22 unwind label %lpad2

invoke.cont22:                                    ; preds = %if.end20
  invoke void @_ZN4cvc58internal12NodeTemplateILb1EEC2ERKS2_(ptr noundef nonnull align 8 dereferenceable(8) %agg.tmp23, ptr noundef nonnull align 8 dereferenceable(8) %itesRemoved)
          to label %invoke.cont25 unwind label %lpad24

invoke.cont25:                                    ; preds = %invoke.cont22
  %d_tpg = getelementptr inbounds %"class.cvc5::internal::RemoveTermFormulas", ptr %this1, i32 0, i32 3
  %call26 = call noundef ptr @_ZNKSt10unique_ptrIN4cvc58internal19TConvProofGeneratorESt14default_deleteIS2_EE3getEv(ptr noundef nonnull align 8 dereferenceable(8) %d_tpg) #3
  %25 = icmp eq ptr %call26, null
  br i1 %25, label %cast.end, label %cast.notnull

cast.notnull:                                     ; preds = %invoke.cont25
  %add.ptr = getelementptr inbounds i8, ptr %call26, i64 16
  br label %cast.end

cast.end:                                         ; preds = %cast.notnull, %invoke.cont25
  %cast.result = phi ptr [ %add.ptr, %cast.notnull ], [ null, %invoke.cont25 ]
  invoke void @_ZN4cvc58internal9TrustNode14mkTrustRewriteENS0_12NodeTemplateILb0EEENS2_ILb1EEEPNS0_14ProofGeneratorE(ptr sret(%"class.cvc5::internal::TrustNode") align 8 %agg.result, ptr noundef %agg.tmp21, ptr noundef %agg.tmp23, ptr noundef %cast.result)
          to label %invoke.cont28 unwind label %lpad27

invoke.cont28:                                    ; preds = %cast.end
  call void @_ZN4cvc58internal12NodeTemplateILb1EED2Ev(ptr noundef nonnull align 8 dereferenceable(8) %agg.tmp23) #3
  call void @_ZN4cvc58internal12NodeTemplateILb0EED2Ev(ptr noundef nonnull align 8 dereferenceable(8) %agg.tmp21) #3
  store i32 1, ptr %cleanup.dest.slot, align 4
  br label %cleanup

lpad24:                                           ; preds = %invoke.cont22
  %26 = landingpad { ptr, i32 }
          cleanup
  %27 = extractvalue { ptr, i32 } %26, 0
  store ptr %27, ptr %exn.slot, align 8
  %28 = extractvalue { ptr, i32 } %26, 1
  store i32 %28, ptr %ehselector.slot, align 4
  br label %ehcleanup30

lpad27:                                           ; preds = %cast.end
  %29 = landingpad { ptr, i32 }
          cleanup
  %30 = extractvalue { ptr, i32 } %29, 0
  store ptr %30, ptr %exn.slot, align 8
  %31 = extractvalue { ptr, i32 } %29, 1
  store i32 %31, ptr %ehselector.slot, align 4
  call void @_ZN4cvc58internal12NodeTemplateILb1EED2Ev(ptr noundef nonnull align 8 dereferenceable(8) %agg.tmp23) #3
  br label %ehcleanup30

ehcleanup30:                                      ; preds = %lpad27, %lpad24
  call void @_ZN4cvc58internal12NodeTemplateILb0EED2Ev(ptr noundef nonnull align 8 dereferenceable(8) %agg.tmp21) #3
  br label %ehcleanup31

cleanup:                                          ; preds = %invoke.cont28, %invoke.cont4
  call void @_ZN4cvc58internal12NodeTemplateILb1EED2Ev(ptr noundef nonnull align 8 dereferenceable(8) %itesRemoved) #3
  ret void

ehcleanup31:                                      ; preds = %ehcleanup30, %ehcleanup19, %lpad2
  call void @_ZN4cvc58internal12NodeTemplateILb1EED2Ev(ptr noundef nonnull align 8 dereferenceable(8) %itesRemoved) #3
  br label %eh.resume

eh.resume:                                        ; preds = %ehcleanup31, %lpad
  %exn = load ptr, ptr %exn.slot, align 8
  %sel = load i32, ptr %ehselector.slot, align 4
  %lpad.val = insertvalue { ptr, i32 } poison, ptr %exn, 0
  %lpad.val32 = insertvalue { ptr, i32 } %lpad.val, i32 %sel, 1
  resume { ptr, i32 } %lpad.val32
}

; Function Attrs: mustprogress uwtable
define hidden void @_ZN4cvc58internal18RemoveTermFormulas11runInternalENS0_12NodeTemplateILb0EEERSt6vectorINS0_6theory11SkolemLemmaESaIS6_EE(ptr noalias sret(%"class.cvc5::internal::NodeTemplate") align 8 %agg.result, ptr noundef nonnull align 8 dereferenceable(160) %this, ptr noundef %assertion, ptr noundef nonnull align 8 dereferenceable(24) %output) #4 align 2 personality ptr @__gxx_personality_v0 {
entry:
  %result.ptr = alloca ptr, align 8
  %this.addr = alloca ptr, align 8
  %assertion.indirect_addr = alloca ptr, align 8
  %output.addr = alloca ptr, align 8
  %nm = alloca ptr, align 8
  %ctx = alloca %"class.cvc5::internal::TCtxStack", align 8
  %processedChildren = alloca %"class.std::vector", align 8
  %agg.tmp = alloca %"class.cvc5::internal::NodeTemplate", align 8
  %exn.slot = alloca ptr, align 8
  %ehselector.slot = alloca i32, align 4
  %initial = alloca %"struct.std::pair", align 8
  %curr = alloca %"struct.std::pair", align 8
  %node = alloca %"class.cvc5::internal::NodeTemplate", align 8
  %nodeVal = alloca i32, align 4
  %itc = alloca %"struct.std::__detail::_Node_const_iterator", align 8
  %ref.tmp = alloca %"struct.std::pair", align 8
  %ref.tmp18 = alloca %"struct.std::__detail::_Node_const_iterator", align 8
  %ref.tmp24 = alloca %"class.cvc5::internal::__cvc5_true", align 1
  %tmp = alloca %"class.cvc5::internal::Cvc5ostream", align 8
  %agg.tmp.ensured = alloca %"class.cvc5::internal::Cvc5ostream", align 8
  %ref.tmp28 = alloca %"class.cvc5::internal::Cvc5ostream", align 8
  %ref.tmp40 = alloca %"struct.std::__detail::_Node_const_iterator", align 8
  %ref.tmp47 = alloca %"class.cvc5::internal::__cvc5_true", align 1
  %tmp51 = alloca %"class.cvc5::internal::Cvc5ostream", align 8
  %agg.tmp.ensured54 = alloca %"class.cvc5::internal::Cvc5ostream", align 8
  %ref.tmp55 = alloca %"class.cvc5::internal::Cvc5ostream", align 8
  %ref.tmp64 = alloca %"struct.std::_Bit_reference", align 8
  %newLem = alloca %"class.cvc5::internal::TrustNode", align 8
  %inQuant = alloca i8, align 1
  %inTerm = alloca i8, align 1
  %ref.tmp73 = alloca %"class.cvc5::internal::__cvc5_true", align 1
  %tmp77 = alloca %"class.cvc5::internal::Cvc5ostream", align 8
  %agg.tmp.ensured80 = alloca %"class.cvc5::internal::Cvc5ostream", align 8
  %ref.tmp81 = alloca %"class.cvc5::internal::Cvc5ostream", align 8
  %currt = alloca %"class.cvc5::internal::NodeTemplate", align 8
  %agg.tmp100 = alloca %"class.cvc5::internal::NodeTemplate.313", align 8
  %ref.tmp112 = alloca %"class.cvc5::internal::theory::SkolemLemma", align 8
  %agg.tmp113 = alloca %"class.cvc5::internal::TrustNode", align 8
  %agg.tmp115 = alloca %"class.cvc5::internal::NodeTemplate", align 8
  %ref.tmp124 = alloca %"class.cvc5::internal::__cvc5_true", align 1
  %tmp128 = alloca %"class.cvc5::internal::Cvc5ostream", align 8
  %agg.tmp.ensured131 = alloca %"class.cvc5::internal::Cvc5ostream", align 8
  %ref.tmp132 = alloca %"class.cvc5::internal::Cvc5ostream", align 8
  %nchild = alloca i64, align 8
  %ref.tmp152 = alloca %"class.cvc5::internal::__cvc5_true", align 1
  %tmp156 = alloca %"class.cvc5::internal::Cvc5ostream", align 8
  %agg.tmp.ensured159 = alloca %"class.cvc5::internal::Cvc5ostream", align 8
  %ref.tmp160 = alloca %"class.cvc5::internal::Cvc5ostream", align 8
  %ref.tmp167 = alloca %"struct.std::_Bit_reference", align 8
  %i = alloca i64, align 8
  %agg.tmp173 = alloca %"class.cvc5::internal::NodeTemplate", align 8
  %ref.tmp180 = alloca %"class.cvc5::internal::__cvc5_true", align 1
  %tmp184 = alloca %"class.cvc5::internal::Cvc5ostream", align 8
  %agg.tmp.ensured187 = alloca %"class.cvc5::internal::Cvc5ostream", align 8
  %ref.tmp188 = alloca %"class.cvc5::internal::Cvc5ostream", align 8
  %ref.tmp205 = alloca %"class.cvc5::internal::__cvc5_true", align 1
  %tmp209 = alloca %"class.cvc5::internal::Cvc5ostream", align 8
  %agg.tmp.ensured212 = alloca %"class.cvc5::internal::Cvc5ostream", align 8
  %ref.tmp213 = alloca %"class.cvc5::internal::Cvc5ostream", align 8
  %newChildren = alloca %"class.std::vector.324", align 8
  %childChanged = alloca i8, align 1
  %ref.tmp227 = alloca %"class.cvc5::internal::NodeTemplate", align 8
  %currChild = alloca %"struct.std::pair", align 8
  %i234 = alloca i64, align 8
  %nchild235 = alloca i64, align 8
  %val = alloca i32, align 4
  %agg.tmp243 = alloca %"class.cvc5::internal::NodeTemplate.313", align 8
  %ref.tmp249 = alloca %"struct.std::pair", align 8
  %ref.tmp250 = alloca %"class.cvc5::internal::NodeTemplate", align 8
  %ref.tmp259 = alloca %"struct.std::__detail::_Node_const_iterator", align 8
  %newChild = alloca %"class.cvc5::internal::NodeTemplate", align 8
  %ref.tmp268 = alloca %"class.cvc5::internal::NodeTemplate", align 8
  %ret = alloca %"class.cvc5::internal::NodeTemplate", align 8
  %ref.tmp288 = alloca %"class.cvc5::internal::NodeTemplate", align 8
  %ref.tmp303 = alloca %"struct.std::__detail::_Node_const_iterator", align 8
  store ptr %agg.result, ptr %result.ptr, align 8
  store ptr %this, ptr %this.addr, align 8
  store ptr %assertion, ptr %assertion.indirect_addr, align 8
  store ptr %output, ptr %output.addr, align 8
  %this1 = load ptr, ptr %this.addr, align 8
  %call = call noundef ptr @_ZN4cvc58internal11NodeManager9currentNMEv()
  store ptr %call, ptr %nm, align 8
  %d_rtfc = getelementptr inbounds %"class.cvc5::internal::RemoveTermFormulas", ptr %this1, i32 0, i32 6
  call void @_ZN4cvc58internal9TCtxStackC1EPKNS0_11TermContextE(ptr noundef nonnull align 8 dereferenceable(40) %ctx, ptr noundef %d_rtfc)
  call void @_ZNSt6vectorIbSaIbEEC2Ev(ptr noundef nonnull align 8 dereferenceable(40) %processedChildren) #3
  invoke void @_ZN4cvc58internal12NodeTemplateILb1EEC2ERKNS1_ILb0EEE(ptr noundef nonnull align 8 dereferenceable(8) %agg.tmp, ptr noundef nonnull align 8 dereferenceable(8) %assertion)
          to label %invoke.cont unwind label %lpad

invoke.cont:                                      ; preds = %entry
  invoke void @_ZN4cvc58internal9TCtxStack11pushInitialENS0_12NodeTemplateILb1EEE(ptr noundef nonnull align 8 dereferenceable(40) %ctx, ptr noundef %agg.tmp)
          to label %invoke.cont3 unwind label %lpad2

invoke.cont3:                                     ; preds = %invoke.cont
  call void @_ZN4cvc58internal12NodeTemplateILb1EED2Ev(ptr noundef nonnull align 8 dereferenceable(8) %agg.tmp) #3
  invoke void @_ZNSt6vectorIbSaIbEE9push_backEb(ptr noundef nonnull align 8 dereferenceable(40) %processedChildren, i1 noundef zeroext false)
          to label %invoke.cont4 unwind label %lpad

invoke.cont4:                                     ; preds = %invoke.cont3
  invoke void @_ZNK4cvc58internal9TCtxStack10getCurrentEv(ptr sret(%"struct.std::pair") align 8 %initial, ptr noundef nonnull align 8 dereferenceable(40) %ctx)
          to label %invoke.cont5 unwind label %lpad

invoke.cont5:                                     ; preds = %invoke.cont4
  invoke void @_ZNSt4pairIN4cvc58internal12NodeTemplateILb1EEEjEC2IS3_jTnNSt9enable_ifIXsr6__and_ISt24is_default_constructibleIT_ES7_IT0_ESt6__not_ISt6__and_IJSt37__is_implicitly_default_constructibleIS8_ESE_ISA_EEEEEE5valueEbE4typeELb0EEEv(ptr noundef nonnull align 8 dereferenceable(12) %curr)
          to label %invoke.cont7 unwind label %lpad6

invoke.cont7:                                     ; preds = %invoke.cont5
  invoke void @_ZN4cvc58internal12NodeTemplateILb1EEC2Ev(ptr noundef nonnull align 8 dereferenceable(8) %node)
          to label %invoke.cont9 unwind label %lpad8

invoke.cont9:                                     ; preds = %invoke.cont7
  invoke void @_ZNSt8__detail20_Node_const_iteratorISt4pairIKS1_IN4cvc58internal12NodeTemplateILb1EEEjEKS5_ELb0ELb1EEC2Ev(ptr noundef nonnull align 8 dereferenceable(8) %itc)
          to label %invoke.cont11 unwind label %lpad10

invoke.cont11:                                    ; preds = %invoke.cont9
  br label %while.cond

while.cond:                                       ; preds = %invoke.cont299, %if.end201, %invoke.cont63, %invoke.cont11
  %call13 = invoke noundef zeroext i1 @_ZNK4cvc58internal9TCtxStack5emptyEv(ptr noundef nonnull align 8 dereferenceable(40) %ctx)
          to label %invoke.cont12 unwind label %lpad10

invoke.cont12:                                    ; preds = %while.cond
  %lnot = xor i1 %call13, true
  br i1 %lnot, label %while.body, label %while.end

while.body:                                       ; preds = %invoke.cont12
  invoke void @_ZNK4cvc58internal9TCtxStack10getCurrentEv(ptr sret(%"struct.std::pair") align 8 %ref.tmp, ptr noundef nonnull align 8 dereferenceable(40) %ctx)
          to label %invoke.cont14 unwind label %lpad10

invoke.cont14:                                    ; preds = %while.body
  %call17 = invoke noundef nonnull align 8 dereferenceable(12) ptr @_ZNSt4pairIN4cvc58internal12NodeTemplateILb1EEEjEaSEOS4_(ptr noundef nonnull align 8 dereferenceable(12) %curr, ptr noundef nonnull align 8 dereferenceable(12) %ref.tmp)
          to label %invoke.cont16 unwind label %lpad15

invoke.cont16:                                    ; preds = %invoke.cont14
  call void @_ZNSt4pairIN4cvc58internal12NodeTemplateILb1EEEjED2Ev(ptr noundef nonnull align 8 dereferenceable(12) %ref.tmp) #3
  %d_tfCache = getelementptr inbounds %"class.cvc5::internal::RemoveTermFormulas", ptr %this1, i32 0, i32 1
  %call20 = invoke ptr @_ZNK4cvc57context15CDInsertHashMapISt4pairINS_8internal12NodeTemplateILb1EEEjES5_NS3_16PairHashFunctionIS5_jSt4hashIS5_ES8_IjEEEE4findERKS6_(ptr noundef nonnull align 8 dereferenceable(56) %d_tfCache, ptr noundef nonnull align 8 dereferenceable(12) %curr)
          to label %invoke.cont19 unwind label %lpad10

invoke.cont19:                                    ; preds = %invoke.cont16
  %coerce.dive = getelementptr inbounds %"struct.std::__detail::_Node_const_iterator", ptr %ref.tmp18, i32 0, i32 0
  %coerce.dive21 = getelementptr inbounds %"struct.std::__detail::_Node_iterator_base", ptr %coerce.dive, i32 0, i32 0
  store ptr %call20, ptr %coerce.dive21, align 8
  call void @llvm.memcpy.p0.p0.i64(ptr align 8 %itc, ptr align 8 %ref.tmp18, i64 8, i1 false)
  %first = getelementptr inbounds %"struct.std::pair", ptr %curr, i32 0, i32 0
  %call23 = invoke noundef nonnull align 8 dereferenceable(8) ptr @_ZN4cvc58internal12NodeTemplateILb1EEaSERKS2_(ptr noundef nonnull align 8 dereferenceable(8) %node, ptr noundef nonnull align 8 dereferenceable(8) %first)
          to label %invoke.cont22 unwind label %lpad10

invoke.cont22:                                    ; preds = %invoke.cont19
  %second = getelementptr inbounds %"struct.std::pair", ptr %curr, i32 0, i32 1
  %0 = load i32, ptr %second, align 8
  store i32 %0, ptr %nodeVal, align 4
  %call26 = invoke noundef zeroext i1 @_ZN4cvc58internal11__cvc5_truecvbEv(ptr noundef nonnull align 1 dereferenceable(1) %ref.tmp24)
          to label %invoke.cont25 unwind label %lpad10

invoke.cont25:                                    ; preds = %invoke.cont22
  br i1 %call26, label %cond.true, label %cond.false

cond.true:                                        ; preds = %invoke.cont25
  invoke void @_ZNK4cvc58internal5NullCcvNS0_11Cvc5ostreamEEv(ptr sret(%"class.cvc5::internal::Cvc5ostream") align 8 %tmp, ptr noundef nonnull align 1 dereferenceable(1) @_ZN4cvc58internal10nullStreamE)
          to label %invoke.cont27 unwind label %lpad10

invoke.cont27:                                    ; preds = %cond.true
  br label %cond.end

cond.false:                                       ; preds = %invoke.cont25
  invoke void @_ZNK4cvc58internal6TraceCclEv(ptr sret(%"class.cvc5::internal::Cvc5ostream") align 8 %ref.tmp28, ptr noundef nonnull align 8 dereferenceable(32) @_ZN4cvc58internal12TraceChannelE)
          to label %invoke.cont29 unwind label %lpad10

invoke.cont29:                                    ; preds = %cond.false
  %call31 = invoke noundef nonnull align 8 dereferenceable(24) ptr @_ZN4cvc58internal11Cvc5ostreamlsIA7_cEERS1_RKT_(ptr noundef nonnull align 8 dereferenceable(24) %ref.tmp28, ptr noundef nonnull align 1 dereferenceable(7) @.str.4)
          to label %invoke.cont30 unwind label %lpad10

invoke.cont30:                                    ; preds = %invoke.cont29
  %call33 = invoke noundef nonnull align 8 dereferenceable(24) ptr @_ZN4cvc58internal11Cvc5ostreamlsINS0_12NodeTemplateILb1EEEEERS1_RKT_(ptr noundef nonnull align 8 dereferenceable(24) %call31, ptr noundef nonnull align 8 dereferenceable(8) %node)
          to label %invoke.cont32 unwind label %lpad10

invoke.cont32:                                    ; preds = %invoke.cont30
  %call35 = invoke noundef nonnull align 8 dereferenceable(24) ptr @_ZN4cvc58internal11Cvc5ostreamlsIA3_cEERS1_RKT_(ptr noundef nonnull align 8 dereferenceable(24) %call33, ptr noundef nonnull align 1 dereferenceable(3) @.str.5)
          to label %invoke.cont34 unwind label %lpad10

invoke.cont34:                                    ; preds = %invoke.cont32
  %call37 = invoke noundef nonnull align 8 dereferenceable(24) ptr @_ZN4cvc58internal11Cvc5ostreamlsIjEERS1_RKT_(ptr noundef nonnull align 8 dereferenceable(24) %call35, ptr noundef nonnull align 4 dereferenceable(4) %nodeVal)
          to label %invoke.cont36 unwind label %lpad10

invoke.cont36:                                    ; preds = %invoke.cont34
  %call39 = invoke noundef nonnull align 8 dereferenceable(24) ptr @_ZN4cvc58internal11Cvc5ostreamlsEPFRSoS2_E(ptr noundef nonnull align 8 dereferenceable(24) %call37, ptr noundef @_ZSt4endlIcSt11char_traitsIcEERSt13basic_ostreamIT_T0_ES6_)
          to label %invoke.cont38 unwind label %lpad10

invoke.cont38:                                    ; preds = %invoke.cont36
  call void @llvm.memcpy.p0.p0.i64(ptr align 8 %agg.tmp.ensured, ptr align 8 %call39, i64 24, i1 false)
  br label %cond.end

cond.end:                                         ; preds = %invoke.cont38, %invoke.cont27
  %d_tfCache41 = getelementptr inbounds %"class.cvc5::internal::RemoveTermFormulas", ptr %this1, i32 0, i32 1
  %call43 = invoke ptr @_ZNK4cvc57context15CDInsertHashMapISt4pairINS_8internal12NodeTemplateILb1EEEjES5_NS3_16PairHashFunctionIS5_jSt4hashIS5_ES8_IjEEEE3endEv(ptr noundef nonnull align 8 dereferenceable(56) %d_tfCache41)
          to label %invoke.cont42 unwind label %lpad10

invoke.cont42:                                    ; preds = %cond.end
  %coerce.dive44 = getelementptr inbounds %"struct.std::__detail::_Node_const_iterator", ptr %ref.tmp40, i32 0, i32 0
  %coerce.dive45 = getelementptr inbounds %"struct.std::__detail::_Node_iterator_base", ptr %coerce.dive44, i32 0, i32 0
  store ptr %call43, ptr %coerce.dive45, align 8
  %call46 = call noundef zeroext i1 @_ZNSt8__detailneERKNS_19_Node_iterator_baseISt4pairIKS1_IN4cvc58internal12NodeTemplateILb1EEEjEKS5_ELb1EEESC_(ptr noundef nonnull align 8 dereferenceable(8) %itc, ptr noundef nonnull align 8 dereferenceable(8) %ref.tmp40) #3
  br i1 %call46, label %if.then, label %if.end

if.then:                                          ; preds = %invoke.cont42
  %call49 = invoke noundef zeroext i1 @_ZN4cvc58internal11__cvc5_truecvbEv(ptr noundef nonnull align 1 dereferenceable(1) %ref.tmp47)
          to label %invoke.cont48 unwind label %lpad10

invoke.cont48:                                    ; preds = %if.then
  br i1 %call49, label %cond.true50, label %cond.false53

cond.true50:                                      ; preds = %invoke.cont48
  invoke void @_ZNK4cvc58internal5NullCcvNS0_11Cvc5ostreamEEv(ptr sret(%"class.cvc5::internal::Cvc5ostream") align 8 %tmp51, ptr noundef nonnull align 1 dereferenceable(1) @_ZN4cvc58internal10nullStreamE)
          to label %invoke.cont52 unwind label %lpad10

invoke.cont52:                                    ; preds = %cond.true50
  br label %cond.end61

cond.false53:                                     ; preds = %invoke.cont48
  invoke void @_ZNK4cvc58internal6TraceCclEv(ptr sret(%"class.cvc5::internal::Cvc5ostream") align 8 %ref.tmp55, ptr noundef nonnull align 8 dereferenceable(32) @_ZN4cvc58internal12TraceChannelE)
          to label %invoke.cont56 unwind label %lpad10

invoke.cont56:                                    ; preds = %cond.false53
  %call58 = invoke noundef nonnull align 8 dereferenceable(24) ptr @_ZN4cvc58internal11Cvc5ostreamlsIA20_cEERS1_RKT_(ptr noundef nonnull align 8 dereferenceable(24) %ref.tmp55, ptr noundef nonnull align 1 dereferenceable(20) @.str.6)
          to label %invoke.cont57 unwind label %lpad10

invoke.cont57:                                    ; preds = %invoke.cont56
  %call60 = invoke noundef nonnull align 8 dereferenceable(24) ptr @_ZN4cvc58internal11Cvc5ostreamlsEPFRSoS2_E(ptr noundef nonnull align 8 dereferenceable(24) %call58, ptr noundef @_ZSt4endlIcSt11char_traitsIcEERSt13basic_ostreamIT_T0_ES6_)
          to label %invoke.cont59 unwind label %lpad10

invoke.cont59:                                    ; preds = %invoke.cont57
  call void @llvm.memcpy.p0.p0.i64(ptr align 8 %agg.tmp.ensured54, ptr align 8 %call60, i64 24, i1 false)
  br label %cond.end61

cond.end61:                                       ; preds = %invoke.cont59, %invoke.cont52
  invoke void @_ZN4cvc58internal9TCtxStack3popEv(ptr noundef nonnull align 8 dereferenceable(40) %ctx)
          to label %invoke.cont62 unwind label %lpad10

invoke.cont62:                                    ; preds = %cond.end61
  invoke void @_ZNSt6vectorIbSaIbEE8pop_backEv(ptr noundef nonnull align 8 dereferenceable(40) %processedChildren)
          to label %invoke.cont63 unwind label %lpad10

invoke.cont63:                                    ; preds = %invoke.cont62
  br label %while.cond, !llvm.loop !6

lpad:                                             ; preds = %invoke.cont4, %invoke.cont3, %entry
  %1 = landingpad { ptr, i32 }
          cleanup
  %2 = extractvalue { ptr, i32 } %1, 0
  store ptr %2, ptr %exn.slot, align 8
  %3 = extractvalue { ptr, i32 } %1, 1
  store i32 %3, ptr %ehselector.slot, align 4
  br label %ehcleanup315

lpad2:                                            ; preds = %invoke.cont
  %4 = landingpad { ptr, i32 }
          cleanup
  %5 = extractvalue { ptr, i32 } %4, 0
  store ptr %5, ptr %exn.slot, align 8
  %6 = extractvalue { ptr, i32 } %4, 1
  store i32 %6, ptr %ehselector.slot, align 4
  call void @_ZN4cvc58internal12NodeTemplateILb1EED2Ev(ptr noundef nonnull align 8 dereferenceable(8) %agg.tmp) #3
  br label %ehcleanup315

lpad6:                                            ; preds = %invoke.cont5
  %7 = landingpad { ptr, i32 }
          cleanup
  %8 = extractvalue { ptr, i32 } %7, 0
  store ptr %8, ptr %exn.slot, align 8
  %9 = extractvalue { ptr, i32 } %7, 1
  store i32 %9, ptr %ehselector.slot, align 4
  br label %ehcleanup314

lpad8:                                            ; preds = %invoke.cont7
  %10 = landingpad { ptr, i32 }
          cleanup
  %11 = extractvalue { ptr, i32 } %10, 0
  store ptr %11, ptr %exn.slot, align 8
  %12 = extractvalue { ptr, i32 } %10, 1
  store i32 %12, ptr %ehselector.slot, align 4
  br label %ehcleanup313

lpad10:                                           ; preds = %invoke.cont305, %while.end, %invoke.cont220, %cond.end219, %invoke.cont215, %invoke.cont214, %cond.false211, %cond.true208, %if.end204, %if.then69, %if.end, %invoke.cont62, %cond.end61, %invoke.cont57, %invoke.cont56, %cond.false53, %cond.true50, %if.then, %cond.end, %invoke.cont36, %invoke.cont34, %invoke.cont32, %invoke.cont30, %invoke.cont29, %cond.false, %cond.true, %invoke.cont22, %invoke.cont19, %invoke.cont16, %while.body, %while.cond, %invoke.cont9
  %13 = landingpad { ptr, i32 }
          cleanup
  %14 = extractvalue { ptr, i32 } %13, 0
  store ptr %14, ptr %exn.slot, align 8
  %15 = extractvalue { ptr, i32 } %13, 1
  store i32 %15, ptr %ehselector.slot, align 4
  br label %ehcleanup312

lpad15:                                           ; preds = %invoke.cont14
  %16 = landingpad { ptr, i32 }
          cleanup
  %17 = extractvalue { ptr, i32 } %16, 0
  store ptr %17, ptr %exn.slot, align 8
  %18 = extractvalue { ptr, i32 } %16, 1
  store i32 %18, ptr %ehselector.slot, align 4
  call void @_ZNSt4pairIN4cvc58internal12NodeTemplateILb1EEEjED2Ev(ptr noundef nonnull align 8 dereferenceable(12) %ref.tmp) #3
  br label %ehcleanup312

if.end:                                           ; preds = %invoke.cont42
  %call66 = invoke { ptr, i64 } @_ZNSt6vectorIbSaIbEE4backEv(ptr noundef nonnull align 8 dereferenceable(40) %processedChildren)
          to label %invoke.cont65 unwind label %lpad10

invoke.cont65:                                    ; preds = %if.end
  %19 = getelementptr inbounds { ptr, i64 }, ptr %ref.tmp64, i32 0, i32 0
  %20 = extractvalue { ptr, i64 } %call66, 0
  store ptr %20, ptr %19, align 8
  %21 = getelementptr inbounds { ptr, i64 }, ptr %ref.tmp64, i32 0, i32 1
  %22 = extractvalue { ptr, i64 } %call66, 1
  store i64 %22, ptr %21, align 8
  %call67 = call noundef zeroext i1 @_ZNKSt14_Bit_referencecvbEv(ptr noundef nonnull align 8 dereferenceable(16) %ref.tmp64) #3
  %lnot68 = xor i1 %call67, true
  br i1 %lnot68, label %if.then69, label %if.end204

if.then69:                                        ; preds = %invoke.cont65
  invoke void @_ZN4cvc58internal9TrustNodeC2Ev(ptr noundef nonnull align 8 dereferenceable(24) %newLem)
          to label %invoke.cont70 unwind label %lpad10

invoke.cont70:                                    ; preds = %if.then69
  %23 = load i32, ptr %nodeVal, align 4
  invoke void @_ZN4cvc58internal14RtfTermContext8getFlagsEjRbS2_(i32 noundef %23, ptr noundef nonnull align 1 dereferenceable(1) %inQuant, ptr noundef nonnull align 1 dereferenceable(1) %inTerm)
          to label %invoke.cont72 unwind label %lpad71

invoke.cont72:                                    ; preds = %invoke.cont70
  %call75 = invoke noundef zeroext i1 @_ZN4cvc58internal11__cvc5_truecvbEv(ptr noundef nonnull align 1 dereferenceable(1) %ref.tmp73)
          to label %invoke.cont74 unwind label %lpad71

invoke.cont74:                                    ; preds = %invoke.cont72
  br i1 %call75, label %cond.true76, label %cond.false79

cond.true76:                                      ; preds = %invoke.cont74
  invoke void @_ZNK4cvc58internal5NullCcvNS0_11Cvc5ostreamEEv(ptr sret(%"class.cvc5::internal::Cvc5ostream") align 8 %tmp77, ptr noundef nonnull align 1 dereferenceable(1) @_ZN4cvc58internal10nullStreamE)
          to label %invoke.cont78 unwind label %lpad71

invoke.cont78:                                    ; preds = %cond.true76
  br label %cond.end99

cond.false79:                                     ; preds = %invoke.cont74
  invoke void @_ZNK4cvc58internal6TraceCclEv(ptr sret(%"class.cvc5::internal::Cvc5ostream") align 8 %ref.tmp81, ptr noundef nonnull align 8 dereferenceable(32) @_ZN4cvc58internal12TraceChannelE)
          to label %invoke.cont82 unwind label %lpad71

invoke.cont82:                                    ; preds = %cond.false79
  %call84 = invoke noundef nonnull align 8 dereferenceable(24) ptr @_ZN4cvc58internal11Cvc5ostreamlsIA12_cEERS1_RKT_(ptr noundef nonnull align 8 dereferenceable(24) %ref.tmp81, ptr noundef nonnull align 1 dereferenceable(12) @.str.7)
          to label %invoke.cont83 unwind label %lpad71

invoke.cont83:                                    ; preds = %invoke.cont82
  %call86 = invoke noundef nonnull align 8 dereferenceable(24) ptr @_ZN4cvc58internal11Cvc5ostreamlsINS0_12NodeTemplateILb1EEEEERS1_RKT_(ptr noundef nonnull align 8 dereferenceable(24) %call84, ptr noundef nonnull align 8 dereferenceable(8) %node)
          to label %invoke.cont85 unwind label %lpad71

invoke.cont85:                                    ; preds = %invoke.cont83
  %call88 = invoke noundef nonnull align 8 dereferenceable(24) ptr @_ZN4cvc58internal11Cvc5ostreamlsIA2_cEERS1_RKT_(ptr noundef nonnull align 8 dereferenceable(24) %call86, ptr noundef nonnull align 1 dereferenceable(2) @.str.8)
          to label %invoke.cont87 unwind label %lpad71

invoke.cont87:                                    ; preds = %invoke.cont85
  %call90 = invoke noundef nonnull align 8 dereferenceable(24) ptr @_ZN4cvc58internal11Cvc5ostreamlsIA2_cEERS1_RKT_(ptr noundef nonnull align 8 dereferenceable(24) %call88, ptr noundef nonnull align 1 dereferenceable(2) @.str.9)
          to label %invoke.cont89 unwind label %lpad71

invoke.cont89:                                    ; preds = %invoke.cont87
  %call92 = invoke noundef nonnull align 8 dereferenceable(24) ptr @_ZN4cvc58internal11Cvc5ostreamlsIbEERS1_RKT_(ptr noundef nonnull align 8 dereferenceable(24) %call90, ptr noundef nonnull align 1 dereferenceable(1) %inQuant)
          to label %invoke.cont91 unwind label %lpad71

invoke.cont91:                                    ; preds = %invoke.cont89
  %call94 = invoke noundef nonnull align 8 dereferenceable(24) ptr @_ZN4cvc58internal11Cvc5ostreamlsIA2_cEERS1_RKT_(ptr noundef nonnull align 8 dereferenceable(24) %call92, ptr noundef nonnull align 1 dereferenceable(2) @.str.9)
          to label %invoke.cont93 unwind label %lpad71

invoke.cont93:                                    ; preds = %invoke.cont91
  %call96 = invoke noundef nonnull align 8 dereferenceable(24) ptr @_ZN4cvc58internal11Cvc5ostreamlsIbEERS1_RKT_(ptr noundef nonnull align 8 dereferenceable(24) %call94, ptr noundef nonnull align 1 dereferenceable(1) %inTerm)
          to label %invoke.cont95 unwind label %lpad71

invoke.cont95:                                    ; preds = %invoke.cont93
  %call98 = invoke noundef nonnull align 8 dereferenceable(24) ptr @_ZN4cvc58internal11Cvc5ostreamlsEPFRSoS2_E(ptr noundef nonnull align 8 dereferenceable(24) %call96, ptr noundef @_ZSt4endlIcSt11char_traitsIcEERSt13basic_ostreamIT_T0_ES6_)
          to label %invoke.cont97 unwind label %lpad71

invoke.cont97:                                    ; preds = %invoke.cont95
  call void @llvm.memcpy.p0.p0.i64(ptr align 8 %agg.tmp.ensured80, ptr align 8 %call98, i64 24, i1 false)
  br label %cond.end99

cond.end99:                                       ; preds = %invoke.cont97, %invoke.cont78
  invoke void @_ZN4cvc58internal12NodeTemplateILb0EEC2ERKNS1_ILb1EEE(ptr noundef nonnull align 8 dereferenceable(8) %agg.tmp100, ptr noundef nonnull align 8 dereferenceable(8) %node)
          to label %invoke.cont101 unwind label %lpad71

invoke.cont101:                                   ; preds = %cond.end99
  %24 = load i8, ptr %inTerm, align 1
  %tobool = trunc i8 %24 to i1
  %25 = load i32, ptr %nodeVal, align 4
  %d_tpg = getelementptr inbounds %"class.cvc5::internal::RemoveTermFormulas", ptr %this1, i32 0, i32 3
  %call102 = call noundef ptr @_ZNKSt10unique_ptrIN4cvc58internal19TConvProofGeneratorESt14default_deleteIS2_EE3getEv(ptr noundef nonnull align 8 dereferenceable(8) %d_tpg) #3
  invoke void @_ZN4cvc58internal18RemoveTermFormulas18runCurrentInternalENS0_12NodeTemplateILb0EEEbRNS0_9TrustNodeEjPNS0_19TConvProofGeneratorE(ptr sret(%"class.cvc5::internal::NodeTemplate") align 8 %currt, ptr noundef nonnull align 8 dereferenceable(160) %this1, ptr noundef %agg.tmp100, i1 noundef zeroext %tobool, ptr noundef nonnull align 8 dereferenceable(24) %newLem, i32 noundef %25, ptr noundef %call102)
          to label %invoke.cont104 unwind label %lpad103

invoke.cont104:                                   ; preds = %invoke.cont101
  call void @_ZN4cvc58internal12NodeTemplateILb0EED2Ev(ptr noundef nonnull align 8 dereferenceable(8) %agg.tmp100) #3
  %call107 = invoke noundef zeroext i1 @_ZNK4cvc58internal12NodeTemplateILb1EE6isNullEv(ptr noundef nonnull align 8 dereferenceable(8) %currt)
          to label %invoke.cont106 unwind label %lpad105

invoke.cont106:                                   ; preds = %invoke.cont104
  br i1 %call107, label %if.else, label %if.then108

if.then108:                                       ; preds = %invoke.cont106
  %call110 = invoke noundef zeroext i1 @_ZNK4cvc58internal9TrustNode6isNullEv(ptr noundef nonnull align 8 dereferenceable(24) %newLem)
          to label %invoke.cont109 unwind label %lpad105

invoke.cont109:                                   ; preds = %if.then108
  br i1 %call110, label %if.end123, label %if.then111

if.then111:                                       ; preds = %invoke.cont109
  %26 = load ptr, ptr %output.addr, align 8
  invoke void @_ZN4cvc58internal9TrustNodeC2ERKS1_(ptr noundef nonnull align 8 dereferenceable(24) %agg.tmp113, ptr noundef nonnull align 8 dereferenceable(24) %newLem)
          to label %invoke.cont114 unwind label %lpad105

invoke.cont114:                                   ; preds = %if.then111
  invoke void @_ZN4cvc58internal12NodeTemplateILb1EEC2ERKS2_(ptr noundef nonnull align 8 dereferenceable(8) %agg.tmp115, ptr noundef nonnull align 8 dereferenceable(8) %currt)
          to label %invoke.cont117 unwind label %lpad116

invoke.cont117:                                   ; preds = %invoke.cont114
  invoke void @_ZN4cvc58internal6theory11SkolemLemmaC1ENS0_9TrustNodeENS0_12NodeTemplateILb1EEE(ptr noundef nonnull align 8 dereferenceable(32) %ref.tmp112, ptr noundef %agg.tmp113, ptr noundef %agg.tmp115)
          to label %invoke.cont119 unwind label %lpad118

invoke.cont119:                                   ; preds = %invoke.cont117
  invoke void @_ZNSt6vectorIN4cvc58internal6theory11SkolemLemmaESaIS3_EE9push_backEOS3_(ptr noundef nonnull align 8 dereferenceable(24) %26, ptr noundef nonnull align 8 dereferenceable(32) %ref.tmp112)
          to label %invoke.cont121 unwind label %lpad120

invoke.cont121:                                   ; preds = %invoke.cont119
  call void @_ZN4cvc58internal6theory11SkolemLemmaD2Ev(ptr noundef nonnull align 8 dereferenceable(32) %ref.tmp112) #3
  call void @_ZN4cvc58internal12NodeTemplateILb1EED2Ev(ptr noundef nonnull align 8 dereferenceable(8) %agg.tmp115) #3
  call void @_ZN4cvc58internal9TrustNodeD2Ev(ptr noundef nonnull align 8 dereferenceable(24) %agg.tmp113) #3
  br label %if.end123

lpad71:                                           ; preds = %cond.end99, %invoke.cont95, %invoke.cont93, %invoke.cont91, %invoke.cont89, %invoke.cont87, %invoke.cont85, %invoke.cont83, %invoke.cont82, %cond.false79, %cond.true76, %invoke.cont72, %invoke.cont70
  %27 = landingpad { ptr, i32 }
          cleanup
  %28 = extractvalue { ptr, i32 } %27, 0
  store ptr %28, ptr %exn.slot, align 8
  %29 = extractvalue { ptr, i32 } %27, 1
  store i32 %29, ptr %ehselector.slot, align 4
  br label %ehcleanup203

lpad103:                                          ; preds = %invoke.cont101
  %30 = landingpad { ptr, i32 }
          cleanup
  %31 = extractvalue { ptr, i32 } %30, 0
  store ptr %31, ptr %exn.slot, align 8
  %32 = extractvalue { ptr, i32 } %30, 1
  store i32 %32, ptr %ehselector.slot, align 4
  call void @_ZN4cvc58internal12NodeTemplateILb0EED2Ev(ptr noundef nonnull align 8 dereferenceable(8) %agg.tmp100) #3
  br label %ehcleanup203

lpad105:                                          ; preds = %invoke.cont197, %invoke.cont196, %cond.end194, %invoke.cont190, %invoke.cont189, %cond.false186, %cond.true183, %if.else179, %invoke.cont176, %for.body, %cond.end166, %invoke.cont162, %invoke.cont161, %cond.false158, %cond.true155, %if.then151, %if.else148, %if.then145, %if.else, %invoke.cont141, %invoke.cont140, %cond.end138, %invoke.cont134, %invoke.cont133, %cond.false130, %cond.true127, %if.end123, %if.then111, %if.then108, %invoke.cont104
  %33 = landingpad { ptr, i32 }
          cleanup
  %34 = extractvalue { ptr, i32 } %33, 0
  store ptr %34, ptr %exn.slot, align 8
  %35 = extractvalue { ptr, i32 } %33, 1
  store i32 %35, ptr %ehselector.slot, align 4
  br label %ehcleanup202

lpad116:                                          ; preds = %invoke.cont114
  %36 = landingpad { ptr, i32 }
          cleanup
  %37 = extractvalue { ptr, i32 } %36, 0
  store ptr %37, ptr %exn.slot, align 8
  %38 = extractvalue { ptr, i32 } %36, 1
  store i32 %38, ptr %ehselector.slot, align 4
  br label %ehcleanup122

lpad118:                                          ; preds = %invoke.cont117
  %39 = landingpad { ptr, i32 }
          cleanup
  %40 = extractvalue { ptr, i32 } %39, 0
  store ptr %40, ptr %exn.slot, align 8
  %41 = extractvalue { ptr, i32 } %39, 1
  store i32 %41, ptr %ehselector.slot, align 4
  br label %ehcleanup

lpad120:                                          ; preds = %invoke.cont119
  %42 = landingpad { ptr, i32 }
          cleanup
  %43 = extractvalue { ptr, i32 } %42, 0
  store ptr %43, ptr %exn.slot, align 8
  %44 = extractvalue { ptr, i32 } %42, 1
  store i32 %44, ptr %ehselector.slot, align 4
  call void @_ZN4cvc58internal6theory11SkolemLemmaD2Ev(ptr noundef nonnull align 8 dereferenceable(32) %ref.tmp112) #3
  br label %ehcleanup

ehcleanup:                                        ; preds = %lpad120, %lpad118
  call void @_ZN4cvc58internal12NodeTemplateILb1EED2Ev(ptr noundef nonnull align 8 dereferenceable(8) %agg.tmp115) #3
  br label %ehcleanup122

ehcleanup122:                                     ; preds = %ehcleanup, %lpad116
  call void @_ZN4cvc58internal9TrustNodeD2Ev(ptr noundef nonnull align 8 dereferenceable(24) %agg.tmp113) #3
  br label %ehcleanup202

if.end123:                                        ; preds = %invoke.cont121, %invoke.cont109
  %call126 = invoke noundef zeroext i1 @_ZN4cvc58internal11__cvc5_truecvbEv(ptr noundef nonnull align 1 dereferenceable(1) %ref.tmp124)
          to label %invoke.cont125 unwind label %lpad105

invoke.cont125:                                   ; preds = %if.end123
  br i1 %call126, label %cond.true127, label %cond.false130

cond.true127:                                     ; preds = %invoke.cont125
  invoke void @_ZNK4cvc58internal5NullCcvNS0_11Cvc5ostreamEEv(ptr sret(%"class.cvc5::internal::Cvc5ostream") align 8 %tmp128, ptr noundef nonnull align 1 dereferenceable(1) @_ZN4cvc58internal10nullStreamE)
          to label %invoke.cont129 unwind label %lpad105

invoke.cont129:                                   ; preds = %cond.true127
  br label %cond.end138

cond.false130:                                    ; preds = %invoke.cont125
  invoke void @_ZNK4cvc58internal6TraceCclEv(ptr sret(%"class.cvc5::internal::Cvc5ostream") align 8 %ref.tmp132, ptr noundef nonnull align 8 dereferenceable(32) @_ZN4cvc58internal12TraceChannelE)
          to label %invoke.cont133 unwind label %lpad105

invoke.cont133:                                   ; preds = %cond.false130
  %call135 = invoke noundef nonnull align 8 dereferenceable(24) ptr @_ZN4cvc58internal11Cvc5ostreamlsIA21_cEERS1_RKT_(ptr noundef nonnull align 8 dereferenceable(24) %ref.tmp132, ptr noundef nonnull align 1 dereferenceable(21) @.str.10)
          to label %invoke.cont134 unwind label %lpad105

invoke.cont134:                                   ; preds = %invoke.cont133
  %call137 = invoke noundef nonnull align 8 dereferenceable(24) ptr @_ZN4cvc58internal11Cvc5ostreamlsEPFRSoS2_E(ptr noundef nonnull align 8 dereferenceable(24) %call135, ptr noundef @_ZSt4endlIcSt11char_traitsIcEERSt13basic_ostreamIT_T0_ES6_)
          to label %invoke.cont136 unwind label %lpad105

invoke.cont136:                                   ; preds = %invoke.cont134
  call void @llvm.memcpy.p0.p0.i64(ptr align 8 %agg.tmp.ensured131, ptr align 8 %call137, i64 24, i1 false)
  br label %cond.end138

cond.end138:                                      ; preds = %invoke.cont136, %invoke.cont129
  %d_tfCache139 = getelementptr inbounds %"class.cvc5::internal::RemoveTermFormulas", ptr %this1, i32 0, i32 1
  invoke void @_ZN4cvc57context15CDInsertHashMapISt4pairINS_8internal12NodeTemplateILb1EEEjES5_NS3_16PairHashFunctionIS5_jSt4hashIS5_ES8_IjEEEE6insertERKS6_RKS5_(ptr noundef nonnull align 8 dereferenceable(56) %d_tfCache139, ptr noundef nonnull align 8 dereferenceable(12) %curr, ptr noundef nonnull align 8 dereferenceable(8) %currt)
          to label %invoke.cont140 unwind label %lpad105

invoke.cont140:                                   ; preds = %cond.end138
  invoke void @_ZN4cvc58internal9TCtxStack3popEv(ptr noundef nonnull align 8 dereferenceable(40) %ctx)
          to label %invoke.cont141 unwind label %lpad105

invoke.cont141:                                   ; preds = %invoke.cont140
  invoke void @_ZNSt6vectorIbSaIbEE8pop_backEv(ptr noundef nonnull align 8 dereferenceable(40) %processedChildren)
          to label %invoke.cont142 unwind label %lpad105

invoke.cont142:                                   ; preds = %invoke.cont141
  br label %if.end201

if.else:                                          ; preds = %invoke.cont106
  %call144 = invoke noundef zeroext i1 @_ZNK4cvc58internal12NodeTemplateILb1EE9isClosureEv(ptr noundef nonnull align 8 dereferenceable(8) %node)
          to label %invoke.cont143 unwind label %lpad105

invoke.cont143:                                   ; preds = %if.else
  br i1 %call144, label %if.then145, label %if.else148

if.then145:                                       ; preds = %invoke.cont143
  %d_tfCache146 = getelementptr inbounds %"class.cvc5::internal::RemoveTermFormulas", ptr %this1, i32 0, i32 1
  invoke void @_ZN4cvc57context15CDInsertHashMapISt4pairINS_8internal12NodeTemplateILb1EEEjES5_NS3_16PairHashFunctionIS5_jSt4hashIS5_ES8_IjEEEE6insertERKS6_RKS5_(ptr noundef nonnull align 8 dereferenceable(56) %d_tfCache146, ptr noundef nonnull align 8 dereferenceable(12) %curr, ptr noundef nonnull align 8 dereferenceable(8) %node)
          to label %invoke.cont147 unwind label %lpad105

invoke.cont147:                                   ; preds = %if.then145
  br label %if.end200

if.else148:                                       ; preds = %invoke.cont143
  %call150 = invoke noundef i64 @_ZNK4cvc58internal12NodeTemplateILb1EE14getNumChildrenEv(ptr noundef nonnull align 8 dereferenceable(8) %node)
          to label %invoke.cont149 unwind label %lpad105

invoke.cont149:                                   ; preds = %if.else148
  store i64 %call150, ptr %nchild, align 8
  %45 = load i64, ptr %nchild, align 8
  %cmp = icmp ugt i64 %45, 0
  br i1 %cmp, label %if.then151, label %if.else179

if.then151:                                       ; preds = %invoke.cont149
  %call154 = invoke noundef zeroext i1 @_ZN4cvc58internal11__cvc5_truecvbEv(ptr noundef nonnull align 1 dereferenceable(1) %ref.tmp152)
          to label %invoke.cont153 unwind label %lpad105

invoke.cont153:                                   ; preds = %if.then151
  br i1 %call154, label %cond.true155, label %cond.false158

cond.true155:                                     ; preds = %invoke.cont153
  invoke void @_ZNK4cvc58internal5NullCcvNS0_11Cvc5ostreamEEv(ptr sret(%"class.cvc5::internal::Cvc5ostream") align 8 %tmp156, ptr noundef nonnull align 1 dereferenceable(1) @_ZN4cvc58internal10nullStreamE)
          to label %invoke.cont157 unwind label %lpad105

invoke.cont157:                                   ; preds = %cond.true155
  br label %cond.end166

cond.false158:                                    ; preds = %invoke.cont153
  invoke void @_ZNK4cvc58internal6TraceCclEv(ptr sret(%"class.cvc5::internal::Cvc5ostream") align 8 %ref.tmp160, ptr noundef nonnull align 8 dereferenceable(32) @_ZN4cvc58internal12TraceChannelE)
          to label %invoke.cont161 unwind label %lpad105

invoke.cont161:                                   ; preds = %cond.false158
  %call163 = invoke noundef nonnull align 8 dereferenceable(24) ptr @_ZN4cvc58internal11Cvc5ostreamlsIA23_cEERS1_RKT_(ptr noundef nonnull align 8 dereferenceable(24) %ref.tmp160, ptr noundef nonnull align 1 dereferenceable(23) @.str.11)
          to label %invoke.cont162 unwind label %lpad105

invoke.cont162:                                   ; preds = %invoke.cont161
  %call165 = invoke noundef nonnull align 8 dereferenceable(24) ptr @_ZN4cvc58internal11Cvc5ostreamlsEPFRSoS2_E(ptr noundef nonnull align 8 dereferenceable(24) %call163, ptr noundef @_ZSt4endlIcSt11char_traitsIcEERSt13basic_ostreamIT_T0_ES6_)
          to label %invoke.cont164 unwind label %lpad105

invoke.cont164:                                   ; preds = %invoke.cont162
  call void @llvm.memcpy.p0.p0.i64(ptr align 8 %agg.tmp.ensured159, ptr align 8 %call165, i64 24, i1 false)
  br label %cond.end166

cond.end166:                                      ; preds = %invoke.cont164, %invoke.cont157
  %call168 = call noundef i64 @_ZNKSt6vectorIbSaIbEE4sizeEv(ptr noundef nonnull align 8 dereferenceable(40) %processedChildren) #3
  %sub = sub i64 %call168, 1
  %call170 = invoke { ptr, i64 } @_ZNSt6vectorIbSaIbEEixEm(ptr noundef nonnull align 8 dereferenceable(40) %processedChildren, i64 noundef %sub)
          to label %invoke.cont169 unwind label %lpad105

invoke.cont169:                                   ; preds = %cond.end166
  %46 = getelementptr inbounds { ptr, i64 }, ptr %ref.tmp167, i32 0, i32 0
  %47 = extractvalue { ptr, i64 } %call170, 0
  store ptr %47, ptr %46, align 8
  %48 = getelementptr inbounds { ptr, i64 }, ptr %ref.tmp167, i32 0, i32 1
  %49 = extractvalue { ptr, i64 } %call170, 1
  store i64 %49, ptr %48, align 8
  %call171 = call noundef nonnull align 8 dereferenceable(16) ptr @_ZNSt14_Bit_referenceaSEb(ptr noundef nonnull align 8 dereferenceable(16) %ref.tmp167, i1 noundef zeroext true) #3
  store i64 0, ptr %i, align 8
  br label %for.cond

for.cond:                                         ; preds = %for.inc, %invoke.cont169
  %50 = load i64, ptr %i, align 8
  %51 = load i64, ptr %nchild, align 8
  %cmp172 = icmp ult i64 %50, %51
  br i1 %cmp172, label %for.body, label %for.end

for.body:                                         ; preds = %for.cond
  invoke void @_ZN4cvc58internal12NodeTemplateILb1EEC2ERKS2_(ptr noundef nonnull align 8 dereferenceable(8) %agg.tmp173, ptr noundef nonnull align 8 dereferenceable(8) %node)
          to label %invoke.cont174 unwind label %lpad105

invoke.cont174:                                   ; preds = %for.body
  %52 = load i32, ptr %nodeVal, align 4
  %53 = load i64, ptr %i, align 8
  invoke void @_ZN4cvc58internal9TCtxStack9pushChildENS0_12NodeTemplateILb1EEEjm(ptr noundef nonnull align 8 dereferenceable(40) %ctx, ptr noundef %agg.tmp173, i32 noundef %52, i64 noundef %53)
          to label %invoke.cont176 unwind label %lpad175

invoke.cont176:                                   ; preds = %invoke.cont174
  call void @_ZN4cvc58internal12NodeTemplateILb1EED2Ev(ptr noundef nonnull align 8 dereferenceable(8) %agg.tmp173) #3
  invoke void @_ZNSt6vectorIbSaIbEE9push_backEb(ptr noundef nonnull align 8 dereferenceable(40) %processedChildren, i1 noundef zeroext false)
          to label %invoke.cont178 unwind label %lpad105

invoke.cont178:                                   ; preds = %invoke.cont176
  br label %for.inc

for.inc:                                          ; preds = %invoke.cont178
  %54 = load i64, ptr %i, align 8
  %inc = add i64 %54, 1
  store i64 %inc, ptr %i, align 8
  br label %for.cond, !llvm.loop !7

lpad175:                                          ; preds = %invoke.cont174
  %55 = landingpad { ptr, i32 }
          cleanup
  %56 = extractvalue { ptr, i32 } %55, 0
  store ptr %56, ptr %exn.slot, align 8
  %57 = extractvalue { ptr, i32 } %55, 1
  store i32 %57, ptr %ehselector.slot, align 4
  call void @_ZN4cvc58internal12NodeTemplateILb1EED2Ev(ptr noundef nonnull align 8 dereferenceable(8) %agg.tmp173) #3
  br label %ehcleanup202

for.end:                                          ; preds = %for.cond
  br label %if.end199

if.else179:                                       ; preds = %invoke.cont149
  %call182 = invoke noundef zeroext i1 @_ZN4cvc58internal11__cvc5_truecvbEv(ptr noundef nonnull align 1 dereferenceable(1) %ref.tmp180)
          to label %invoke.cont181 unwind label %lpad105

invoke.cont181:                                   ; preds = %if.else179
  br i1 %call182, label %cond.true183, label %cond.false186

cond.true183:                                     ; preds = %invoke.cont181
  invoke void @_ZNK4cvc58internal5NullCcvNS0_11Cvc5ostreamEEv(ptr sret(%"class.cvc5::internal::Cvc5ostream") align 8 %tmp184, ptr noundef nonnull align 1 dereferenceable(1) @_ZN4cvc58internal10nullStreamE)
          to label %invoke.cont185 unwind label %lpad105

invoke.cont185:                                   ; preds = %cond.true183
  br label %cond.end194

cond.false186:                                    ; preds = %invoke.cont181
  invoke void @_ZNK4cvc58internal6TraceCclEv(ptr sret(%"class.cvc5::internal::Cvc5ostream") align 8 %ref.tmp188, ptr noundef nonnull align 8 dereferenceable(32) @_ZN4cvc58internal12TraceChannelE)
          to label %invoke.cont189 unwind label %lpad105

invoke.cont189:                                   ; preds = %cond.false186
  %call191 = invoke noundef nonnull align 8 dereferenceable(24) ptr @_ZN4cvc58internal11Cvc5ostreamlsIA13_cEERS1_RKT_(ptr noundef nonnull align 8 dereferenceable(24) %ref.tmp188, ptr noundef nonnull align 1 dereferenceable(13) @.str.12)
          to label %invoke.cont190 unwind label %lpad105

invoke.cont190:                                   ; preds = %invoke.cont189
  %call193 = invoke noundef nonnull align 8 dereferenceable(24) ptr @_ZN4cvc58internal11Cvc5ostreamlsEPFRSoS2_E(ptr noundef nonnull align 8 dereferenceable(24) %call191, ptr noundef @_ZSt4endlIcSt11char_traitsIcEERSt13basic_ostreamIT_T0_ES6_)
          to label %invoke.cont192 unwind label %lpad105

invoke.cont192:                                   ; preds = %invoke.cont190
  call void @llvm.memcpy.p0.p0.i64(ptr align 8 %agg.tmp.ensured187, ptr align 8 %call193, i64 24, i1 false)
  br label %cond.end194

cond.end194:                                      ; preds = %invoke.cont192, %invoke.cont185
  %d_tfCache195 = getelementptr inbounds %"class.cvc5::internal::RemoveTermFormulas", ptr %this1, i32 0, i32 1
  invoke void @_ZN4cvc57context15CDInsertHashMapISt4pairINS_8internal12NodeTemplateILb1EEEjES5_NS3_16PairHashFunctionIS5_jSt4hashIS5_ES8_IjEEEE6insertERKS6_RKS5_(ptr noundef nonnull align 8 dereferenceable(56) %d_tfCache195, ptr noundef nonnull align 8 dereferenceable(12) %curr, ptr noundef nonnull align 8 dereferenceable(8) %node)
          to label %invoke.cont196 unwind label %lpad105

invoke.cont196:                                   ; preds = %cond.end194
  invoke void @_ZN4cvc58internal9TCtxStack3popEv(ptr noundef nonnull align 8 dereferenceable(40) %ctx)
          to label %invoke.cont197 unwind label %lpad105

invoke.cont197:                                   ; preds = %invoke.cont196
  invoke void @_ZNSt6vectorIbSaIbEE8pop_backEv(ptr noundef nonnull align 8 dereferenceable(40) %processedChildren)
          to label %invoke.cont198 unwind label %lpad105

invoke.cont198:                                   ; preds = %invoke.cont197
  br label %if.end199

if.end199:                                        ; preds = %invoke.cont198, %for.end
  br label %if.end200

if.end200:                                        ; preds = %if.end199, %invoke.cont147
  br label %if.end201

if.end201:                                        ; preds = %if.end200, %invoke.cont142
  call void @_ZN4cvc58internal12NodeTemplateILb1EED2Ev(ptr noundef nonnull align 8 dereferenceable(8) %currt) #3
  call void @_ZN4cvc58internal9TrustNodeD2Ev(ptr noundef nonnull align 8 dereferenceable(24) %newLem) #3
  br label %while.cond

ehcleanup202:                                     ; preds = %lpad175, %ehcleanup122, %lpad105
  call void @_ZN4cvc58internal12NodeTemplateILb1EED2Ev(ptr noundef nonnull align 8 dereferenceable(8) %currt) #3
  br label %ehcleanup203

ehcleanup203:                                     ; preds = %ehcleanup202, %lpad103, %lpad71
  call void @_ZN4cvc58internal9TrustNodeD2Ev(ptr noundef nonnull align 8 dereferenceable(24) %newLem) #3
  br label %ehcleanup312

if.end204:                                        ; preds = %invoke.cont65
  %call207 = invoke noundef zeroext i1 @_ZN4cvc58internal11__cvc5_truecvbEv(ptr noundef nonnull align 1 dereferenceable(1) %ref.tmp205)
          to label %invoke.cont206 unwind label %lpad10

invoke.cont206:                                   ; preds = %if.end204
  br i1 %call207, label %cond.true208, label %cond.false211

cond.true208:                                     ; preds = %invoke.cont206
  invoke void @_ZNK4cvc58internal5NullCcvNS0_11Cvc5ostreamEEv(ptr sret(%"class.cvc5::internal::Cvc5ostream") align 8 %tmp209, ptr noundef nonnull align 1 dereferenceable(1) @_ZN4cvc58internal10nullStreamE)
          to label %invoke.cont210 unwind label %lpad10

invoke.cont210:                                   ; preds = %cond.true208
  br label %cond.end219

cond.false211:                                    ; preds = %invoke.cont206
  invoke void @_ZNK4cvc58internal6TraceCclEv(ptr sret(%"class.cvc5::internal::Cvc5ostream") align 8 %ref.tmp213, ptr noundef nonnull align 8 dereferenceable(32) @_ZN4cvc58internal12TraceChannelE)
          to label %invoke.cont214 unwind label %lpad10

invoke.cont214:                                   ; preds = %cond.false211
  %call216 = invoke noundef nonnull align 8 dereferenceable(24) ptr @_ZN4cvc58internal11Cvc5ostreamlsIA15_cEERS1_RKT_(ptr noundef nonnull align 8 dereferenceable(24) %ref.tmp213, ptr noundef nonnull align 1 dereferenceable(15) @.str.13)
          to label %invoke.cont215 unwind label %lpad10

invoke.cont215:                                   ; preds = %invoke.cont214
  %call218 = invoke noundef nonnull align 8 dereferenceable(24) ptr @_ZN4cvc58internal11Cvc5ostreamlsEPFRSoS2_E(ptr noundef nonnull align 8 dereferenceable(24) %call216, ptr noundef @_ZSt4endlIcSt11char_traitsIcEERSt13basic_ostreamIT_T0_ES6_)
          to label %invoke.cont217 unwind label %lpad10

invoke.cont217:                                   ; preds = %invoke.cont215
  call void @llvm.memcpy.p0.p0.i64(ptr align 8 %agg.tmp.ensured212, ptr align 8 %call218, i64 24, i1 false)
  br label %cond.end219

cond.end219:                                      ; preds = %invoke.cont217, %invoke.cont210
  invoke void @_ZN4cvc58internal9TCtxStack3popEv(ptr noundef nonnull align 8 dereferenceable(40) %ctx)
          to label %invoke.cont220 unwind label %lpad10

invoke.cont220:                                   ; preds = %cond.end219
  invoke void @_ZNSt6vectorIbSaIbEE8pop_backEv(ptr noundef nonnull align 8 dereferenceable(40) %processedChildren)
          to label %invoke.cont221 unwind label %lpad10

invoke.cont221:                                   ; preds = %invoke.cont220
  call void @_ZNSt6vectorIN4cvc58internal12NodeTemplateILb1EEESaIS3_EEC2Ev(ptr noundef nonnull align 8 dereferenceable(24) %newChildren) #3
  store i8 0, ptr %childChanged, align 1
  %call224 = invoke noundef i32 @_ZNK4cvc58internal12NodeTemplateILb1EE11getMetaKindEv(ptr noundef nonnull align 8 dereferenceable(8) %node)
          to label %invoke.cont223 unwind label %lpad222

invoke.cont223:                                   ; preds = %invoke.cont221
  %cmp225 = icmp eq i32 %call224, 2
  br i1 %cmp225, label %if.then226, label %if.end232

if.then226:                                       ; preds = %invoke.cont223
  invoke void @_ZNK4cvc58internal12NodeTemplateILb1EE11getOperatorEv(ptr sret(%"class.cvc5::internal::NodeTemplate") align 8 %ref.tmp227, ptr noundef nonnull align 8 dereferenceable(8) %node)
          to label %invoke.cont228 unwind label %lpad222

invoke.cont228:                                   ; preds = %if.then226
  invoke void @_ZNSt6vectorIN4cvc58internal12NodeTemplateILb1EEESaIS3_EE9push_backEOS3_(ptr noundef nonnull align 8 dereferenceable(24) %newChildren, ptr noundef nonnull align 8 dereferenceable(8) %ref.tmp227)
          to label %invoke.cont230 unwind label %lpad229

invoke.cont230:                                   ; preds = %invoke.cont228
  call void @_ZN4cvc58internal12NodeTemplateILb1EED2Ev(ptr noundef nonnull align 8 dereferenceable(8) %ref.tmp227) #3
  br label %if.end232

lpad222:                                          ; preds = %if.end232, %if.then226, %invoke.cont221
  %58 = landingpad { ptr, i32 }
          cleanup
  %59 = extractvalue { ptr, i32 } %58, 0
  store ptr %59, ptr %exn.slot, align 8
  %60 = extractvalue { ptr, i32 } %58, 1
  store i32 %60, ptr %ehselector.slot, align 4
  br label %ehcleanup302

lpad229:                                          ; preds = %invoke.cont228
  %61 = landingpad { ptr, i32 }
          cleanup
  %62 = extractvalue { ptr, i32 } %61, 0
  store ptr %62, ptr %exn.slot, align 8
  %63 = extractvalue { ptr, i32 } %61, 1
  store i32 %63, ptr %ehselector.slot, align 4
  call void @_ZN4cvc58internal12NodeTemplateILb1EED2Ev(ptr noundef nonnull align 8 dereferenceable(8) %ref.tmp227) #3
  br label %ehcleanup302

if.end232:                                        ; preds = %invoke.cont230, %invoke.cont223
  invoke void @_ZNSt4pairIN4cvc58internal12NodeTemplateILb1EEEjEC2IS3_jTnNSt9enable_ifIXsr6__and_ISt24is_default_constructibleIT_ES7_IT0_ESt6__not_ISt6__and_IJSt37__is_implicitly_default_constructibleIS8_ESE_ISA_EEEEEE5valueEbE4typeELb0EEEv(ptr noundef nonnull align 8 dereferenceable(12) %currChild)
          to label %invoke.cont233 unwind label %lpad222

invoke.cont233:                                   ; preds = %if.end232
  store i64 0, ptr %i234, align 8
  %call238 = invoke noundef i64 @_ZNK4cvc58internal12NodeTemplateILb1EE14getNumChildrenEv(ptr noundef nonnull align 8 dereferenceable(8) %node)
          to label %invoke.cont237 unwind label %lpad236

invoke.cont237:                                   ; preds = %invoke.cont233
  store i64 %call238, ptr %nchild235, align 8
  br label %for.cond239

for.cond239:                                      ; preds = %for.inc282, %invoke.cont237
  %64 = load i64, ptr %i234, align 8
  %65 = load i64, ptr %nchild235, align 8
  %cmp240 = icmp ult i64 %64, %65
  br i1 %cmp240, label %for.body241, label %for.end284

for.body241:                                      ; preds = %for.cond239
  %d_rtfc242 = getelementptr inbounds %"class.cvc5::internal::RemoveTermFormulas", ptr %this1, i32 0, i32 6
  invoke void @_ZN4cvc58internal12NodeTemplateILb0EEC2ERKNS1_ILb1EEE(ptr noundef nonnull align 8 dereferenceable(8) %agg.tmp243, ptr noundef nonnull align 8 dereferenceable(8) %node)
          to label %invoke.cont244 unwind label %lpad236

invoke.cont244:                                   ; preds = %for.body241
  %66 = load i32, ptr %nodeVal, align 4
  %67 = load i64, ptr %i234, align 8
  %call247 = invoke noundef i32 @_ZNK4cvc58internal14RtfTermContext12computeValueENS0_12NodeTemplateILb0EEEjm(ptr noundef nonnull align 8 dereferenceable(8) %d_rtfc242, ptr noundef %agg.tmp243, i32 noundef %66, i64 noundef %67)
          to label %invoke.cont246 unwind label %lpad245

invoke.cont246:                                   ; preds = %invoke.cont244
  call void @_ZN4cvc58internal12NodeTemplateILb0EED2Ev(ptr noundef nonnull align 8 dereferenceable(8) %agg.tmp243) #3
  store i32 %call247, ptr %val, align 4
  %68 = load i64, ptr %i234, align 8
  %conv = trunc i64 %68 to i32
  invoke void @_ZNK4cvc58internal12NodeTemplateILb1EEixEi(ptr sret(%"class.cvc5::internal::NodeTemplate") align 8 %ref.tmp250, ptr noundef nonnull align 8 dereferenceable(8) %node, i32 noundef %conv)
          to label %invoke.cont251 unwind label %lpad236

invoke.cont251:                                   ; preds = %invoke.cont246
  invoke void @_ZNSt4pairIN4cvc58internal12NodeTemplateILb1EEEjEC2IS3_RjTnNSt9enable_ifIXaaclsr5_PCCPE22_MoveConstructiblePairIT_T0_EEclsr5_PCCPE30_ImplicitlyMoveConvertiblePairIS8_S9_EEEbE4typeELb1EEEOS8_OS9_(ptr noundef nonnull align 8 dereferenceable(12) %ref.tmp249, ptr noundef nonnull align 8 dereferenceable(8) %ref.tmp250, ptr noundef nonnull align 4 dereferenceable(4) %val)
          to label %invoke.cont253 unwind label %lpad252

invoke.cont253:                                   ; preds = %invoke.cont251
  %call256 = invoke noundef nonnull align 8 dereferenceable(12) ptr @_ZNSt4pairIN4cvc58internal12NodeTemplateILb1EEEjEaSEOS4_(ptr noundef nonnull align 8 dereferenceable(12) %currChild, ptr noundef nonnull align 8 dereferenceable(12) %ref.tmp249)
          to label %invoke.cont255 unwind label %lpad254

invoke.cont255:                                   ; preds = %invoke.cont253
  call void @_ZNSt4pairIN4cvc58internal12NodeTemplateILb1EEEjED2Ev(ptr noundef nonnull align 8 dereferenceable(12) %ref.tmp249) #3
  call void @_ZN4cvc58internal12NodeTemplateILb1EED2Ev(ptr noundef nonnull align 8 dereferenceable(8) %ref.tmp250) #3
  %d_tfCache260 = getelementptr inbounds %"class.cvc5::internal::RemoveTermFormulas", ptr %this1, i32 0, i32 1
  %call262 = invoke ptr @_ZNK4cvc57context15CDInsertHashMapISt4pairINS_8internal12NodeTemplateILb1EEEjES5_NS3_16PairHashFunctionIS5_jSt4hashIS5_ES8_IjEEEE4findERKS6_(ptr noundef nonnull align 8 dereferenceable(56) %d_tfCache260, ptr noundef nonnull align 8 dereferenceable(12) %currChild)
          to label %invoke.cont261 unwind label %lpad236

invoke.cont261:                                   ; preds = %invoke.cont255
  %coerce.dive263 = getelementptr inbounds %"struct.std::__detail::_Node_const_iterator", ptr %ref.tmp259, i32 0, i32 0
  %coerce.dive264 = getelementptr inbounds %"struct.std::__detail::_Node_iterator_base", ptr %coerce.dive263, i32 0, i32 0
  store ptr %call262, ptr %coerce.dive264, align 8
  call void @llvm.memcpy.p0.p0.i64(ptr align 8 %itc, ptr align 8 %ref.tmp259, i64 8, i1 false)
  %call265 = call noundef nonnull align 8 dereferenceable(24) ptr @_ZNKSt8__detail20_Node_const_iteratorISt4pairIKS1_IN4cvc58internal12NodeTemplateILb1EEEjEKS5_ELb0ELb1EEdeEv(ptr noundef nonnull align 8 dereferenceable(8) %itc) #3
  %second266 = getelementptr inbounds %"struct.std::pair.334", ptr %call265, i32 0, i32 1
  invoke void @_ZN4cvc58internal12NodeTemplateILb1EEC2ERKS2_(ptr noundef nonnull align 8 dereferenceable(8) %newChild, ptr noundef nonnull align 8 dereferenceable(8) %second266)
          to label %invoke.cont267 unwind label %lpad236

invoke.cont267:                                   ; preds = %invoke.cont261
  %69 = load i64, ptr %i234, align 8
  %conv269 = trunc i64 %69 to i32
  invoke void @_ZNK4cvc58internal12NodeTemplateILb1EEixEi(ptr sret(%"class.cvc5::internal::NodeTemplate") align 8 %ref.tmp268, ptr noundef nonnull align 8 dereferenceable(8) %node, i32 noundef %conv269)
          to label %invoke.cont271 unwind label %lpad270

invoke.cont271:                                   ; preds = %invoke.cont267
  %call274 = invoke noundef zeroext i1 @_ZNK4cvc58internal12NodeTemplateILb1EEneILb1EEEbRKNS1_IXT_EEE(ptr noundef nonnull align 8 dereferenceable(8) %newChild, ptr noundef nonnull align 8 dereferenceable(8) %ref.tmp268)
          to label %invoke.cont273 unwind label %lpad272

invoke.cont273:                                   ; preds = %invoke.cont271
  %conv275 = zext i1 %call274 to i32
  %70 = load i8, ptr %childChanged, align 1
  %tobool276 = trunc i8 %70 to i1
  %conv277 = zext i1 %tobool276 to i32
  %or = or i32 %conv277, %conv275
  %tobool278 = icmp ne i32 %or, 0
  %frombool = zext i1 %tobool278 to i8
  store i8 %frombool, ptr %childChanged, align 1
  call void @_ZN4cvc58internal12NodeTemplateILb1EED2Ev(ptr noundef nonnull align 8 dereferenceable(8) %ref.tmp268) #3
  invoke void @_ZNSt6vectorIN4cvc58internal12NodeTemplateILb1EEESaIS3_EE9push_backERKS3_(ptr noundef nonnull align 8 dereferenceable(24) %newChildren, ptr noundef nonnull align 8 dereferenceable(8) %newChild)
          to label %invoke.cont280 unwind label %lpad270

invoke.cont280:                                   ; preds = %invoke.cont273
  call void @_ZN4cvc58internal12NodeTemplateILb1EED2Ev(ptr noundef nonnull align 8 dereferenceable(8) %newChild) #3
  br label %for.inc282

for.inc282:                                       ; preds = %invoke.cont280
  %71 = load i64, ptr %i234, align 8
  %inc283 = add i64 %71, 1
  store i64 %inc283, ptr %i234, align 8
  br label %for.cond239, !llvm.loop !8

lpad236:                                          ; preds = %for.end284, %invoke.cont261, %invoke.cont255, %invoke.cont246, %for.body241, %invoke.cont233
  %72 = landingpad { ptr, i32 }
          cleanup
  %73 = extractvalue { ptr, i32 } %72, 0
  store ptr %73, ptr %exn.slot, align 8
  %74 = extractvalue { ptr, i32 } %72, 1
  store i32 %74, ptr %ehselector.slot, align 4
  br label %ehcleanup301

lpad245:                                          ; preds = %invoke.cont244
  %75 = landingpad { ptr, i32 }
          cleanup
  %76 = extractvalue { ptr, i32 } %75, 0
  store ptr %76, ptr %exn.slot, align 8
  %77 = extractvalue { ptr, i32 } %75, 1
  store i32 %77, ptr %ehselector.slot, align 4
  call void @_ZN4cvc58internal12NodeTemplateILb0EED2Ev(ptr noundef nonnull align 8 dereferenceable(8) %agg.tmp243) #3
  br label %ehcleanup301

lpad252:                                          ; preds = %invoke.cont251
  %78 = landingpad { ptr, i32 }
          cleanup
  %79 = extractvalue { ptr, i32 } %78, 0
  store ptr %79, ptr %exn.slot, align 8
  %80 = extractvalue { ptr, i32 } %78, 1
  store i32 %80, ptr %ehselector.slot, align 4
  br label %ehcleanup258

lpad254:                                          ; preds = %invoke.cont253
  %81 = landingpad { ptr, i32 }
          cleanup
  %82 = extractvalue { ptr, i32 } %81, 0
  store ptr %82, ptr %exn.slot, align 8
  %83 = extractvalue { ptr, i32 } %81, 1
  store i32 %83, ptr %ehselector.slot, align 4
  call void @_ZNSt4pairIN4cvc58internal12NodeTemplateILb1EEEjED2Ev(ptr noundef nonnull align 8 dereferenceable(12) %ref.tmp249) #3
  br label %ehcleanup258

ehcleanup258:                                     ; preds = %lpad254, %lpad252
  call void @_ZN4cvc58internal12NodeTemplateILb1EED2Ev(ptr noundef nonnull align 8 dereferenceable(8) %ref.tmp250) #3
  br label %ehcleanup301

lpad270:                                          ; preds = %invoke.cont273, %invoke.cont267
  %84 = landingpad { ptr, i32 }
          cleanup
  %85 = extractvalue { ptr, i32 } %84, 0
  store ptr %85, ptr %exn.slot, align 8
  %86 = extractvalue { ptr, i32 } %84, 1
  store i32 %86, ptr %ehselector.slot, align 4
  br label %ehcleanup281

lpad272:                                          ; preds = %invoke.cont271
  %87 = landingpad { ptr, i32 }
          cleanup
  %88 = extractvalue { ptr, i32 } %87, 0
  store ptr %88, ptr %exn.slot, align 8
  %89 = extractvalue { ptr, i32 } %87, 1
  store i32 %89, ptr %ehselector.slot, align 4
  call void @_ZN4cvc58internal12NodeTemplateILb1EED2Ev(ptr noundef nonnull align 8 dereferenceable(8) %ref.tmp268) #3
  br label %ehcleanup281

ehcleanup281:                                     ; preds = %lpad272, %lpad270
  call void @_ZN4cvc58internal12NodeTemplateILb1EED2Ev(ptr noundef nonnull align 8 dereferenceable(8) %newChild) #3
  br label %ehcleanup301

for.end284:                                       ; preds = %for.cond239
  invoke void @_ZN4cvc58internal12NodeTemplateILb1EEC2ERKS2_(ptr noundef nonnull align 8 dereferenceable(8) %ret, ptr noundef nonnull align 8 dereferenceable(8) %node)
          to label %invoke.cont285 unwind label %lpad236

invoke.cont285:                                   ; preds = %for.end284
  %90 = load i8, ptr %childChanged, align 1
  %tobool286 = trunc i8 %90 to i1
  br i1 %tobool286, label %if.then287, label %if.end297

if.then287:                                       ; preds = %invoke.cont285
  %91 = load ptr, ptr %nm, align 8
  %call291 = invoke noundef i32 @_ZNK4cvc58internal12NodeTemplateILb1EE7getKindEv(ptr noundef nonnull align 8 dereferenceable(8) %node)
          to label %invoke.cont290 unwind label %lpad289

invoke.cont290:                                   ; preds = %if.then287
  invoke void @_ZN4cvc58internal11NodeManager6mkNodeILb1EEENS0_12NodeTemplateILb1EEENS0_4kind6Kind_tERKSt6vectorINS3_IXT_EEESaIS8_EE(ptr sret(%"class.cvc5::internal::NodeTemplate") align 8 %ref.tmp288, ptr noundef nonnull align 8 dereferenceable(3360) %91, i32 noundef %call291, ptr noundef nonnull align 8 dereferenceable(24) %newChildren)
          to label %invoke.cont292 unwind label %lpad289

invoke.cont292:                                   ; preds = %invoke.cont290
  %call295 = invoke noundef nonnull align 8 dereferenceable(8) ptr @_ZN4cvc58internal12NodeTemplateILb1EEaSERKS2_(ptr noundef nonnull align 8 dereferenceable(8) %ret, ptr noundef nonnull align 8 dereferenceable(8) %ref.tmp288)
          to label %invoke.cont294 unwind label %lpad293

invoke.cont294:                                   ; preds = %invoke.cont292
  call void @_ZN4cvc58internal12NodeTemplateILb1EED2Ev(ptr noundef nonnull align 8 dereferenceable(8) %ref.tmp288) #3
  br label %if.end297

lpad289:                                          ; preds = %if.end297, %invoke.cont290, %if.then287
  %92 = landingpad { ptr, i32 }
          cleanup
  %93 = extractvalue { ptr, i32 } %92, 0
  store ptr %93, ptr %exn.slot, align 8
  %94 = extractvalue { ptr, i32 } %92, 1
  store i32 %94, ptr %ehselector.slot, align 4
  br label %ehcleanup300

lpad293:                                          ; preds = %invoke.cont292
  %95 = landingpad { ptr, i32 }
          cleanup
  %96 = extractvalue { ptr, i32 } %95, 0
  store ptr %96, ptr %exn.slot, align 8
  %97 = extractvalue { ptr, i32 } %95, 1
  store i32 %97, ptr %ehselector.slot, align 4
  call void @_ZN4cvc58internal12NodeTemplateILb1EED2Ev(ptr noundef nonnull align 8 dereferenceable(8) %ref.tmp288) #3
  br label %ehcleanup300

if.end297:                                        ; preds = %invoke.cont294, %invoke.cont285
  %d_tfCache298 = getelementptr inbounds %"class.cvc5::internal::RemoveTermFormulas", ptr %this1, i32 0, i32 1
  invoke void @_ZN4cvc57context15CDInsertHashMapISt4pairINS_8internal12NodeTemplateILb1EEEjES5_NS3_16PairHashFunctionIS5_jSt4hashIS5_ES8_IjEEEE6insertERKS6_RKS5_(ptr noundef nonnull align 8 dereferenceable(56) %d_tfCache298, ptr noundef nonnull align 8 dereferenceable(12) %curr, ptr noundef nonnull align 8 dereferenceable(8) %ret)
          to label %invoke.cont299 unwind label %lpad289

invoke.cont299:                                   ; preds = %if.end297
  call void @_ZN4cvc58internal12NodeTemplateILb1EED2Ev(ptr noundef nonnull align 8 dereferenceable(8) %ret) #3
  call void @_ZNSt4pairIN4cvc58internal12NodeTemplateILb1EEEjED2Ev(ptr noundef nonnull align 8 dereferenceable(12) %currChild) #3
  call void @_ZNSt6vectorIN4cvc58internal12NodeTemplateILb1EEESaIS3_EED2Ev(ptr noundef nonnull align 8 dereferenceable(24) %newChildren) #3
  br label %while.cond, !llvm.loop !6

ehcleanup300:                                     ; preds = %lpad293, %lpad289
  call void @_ZN4cvc58internal12NodeTemplateILb1EED2Ev(ptr noundef nonnull align 8 dereferenceable(8) %ret) #3
  br label %ehcleanup301

ehcleanup301:                                     ; preds = %ehcleanup300, %ehcleanup281, %ehcleanup258, %lpad245, %lpad236
  call void @_ZNSt4pairIN4cvc58internal12NodeTemplateILb1EEEjED2Ev(ptr noundef nonnull align 8 dereferenceable(12) %currChild) #3
  br label %ehcleanup302

ehcleanup302:                                     ; preds = %ehcleanup301, %lpad229, %lpad222
  call void @_ZNSt6vectorIN4cvc58internal12NodeTemplateILb1EEESaIS3_EED2Ev(ptr noundef nonnull align 8 dereferenceable(24) %newChildren) #3
  br label %ehcleanup312

while.end:                                        ; preds = %invoke.cont12
  %d_tfCache304 = getelementptr inbounds %"class.cvc5::internal::RemoveTermFormulas", ptr %this1, i32 0, i32 1
  %call306 = invoke ptr @_ZNK4cvc57context15CDInsertHashMapISt4pairINS_8internal12NodeTemplateILb1EEEjES5_NS3_16PairHashFunctionIS5_jSt4hashIS5_ES8_IjEEEE4findERKS6_(ptr noundef nonnull align 8 dereferenceable(56) %d_tfCache304, ptr noundef nonnull align 8 dereferenceable(12) %initial)
          to label %invoke.cont305 unwind label %lpad10

invoke.cont305:                                   ; preds = %while.end
  %coerce.dive307 = getelementptr inbounds %"struct.std::__detail::_Node_const_iterator", ptr %ref.tmp303, i32 0, i32 0
  %coerce.dive308 = getelementptr inbounds %"struct.std::__detail::_Node_iterator_base", ptr %coerce.dive307, i32 0, i32 0
  store ptr %call306, ptr %coerce.dive308, align 8
  call void @llvm.memcpy.p0.p0.i64(ptr align 8 %itc, ptr align 8 %ref.tmp303, i64 8, i1 false)
  %call309 = call noundef nonnull align 8 dereferenceable(24) ptr @_ZNKSt8__detail20_Node_const_iteratorISt4pairIKS1_IN4cvc58internal12NodeTemplateILb1EEEjEKS5_ELb0ELb1EEdeEv(ptr noundef nonnull align 8 dereferenceable(8) %itc) #3
  %second310 = getelementptr inbounds %"struct.std::pair.334", ptr %call309, i32 0, i32 1
  invoke void @_ZN4cvc58internal12NodeTemplateILb1EEC2ERKS2_(ptr noundef nonnull align 8 dereferenceable(8) %agg.result, ptr noundef nonnull align 8 dereferenceable(8) %second310)
          to label %invoke.cont311 unwind label %lpad10

invoke.cont311:                                   ; preds = %invoke.cont305
  call void @_ZN4cvc58internal12NodeTemplateILb1EED2Ev(ptr noundef nonnull align 8 dereferenceable(8) %node) #3
  call void @_ZNSt4pairIN4cvc58internal12NodeTemplateILb1EEEjED2Ev(ptr noundef nonnull align 8 dereferenceable(12) %curr) #3
  call void @_ZNSt4pairIN4cvc58internal12NodeTemplateILb1EEEjED2Ev(ptr noundef nonnull align 8 dereferenceable(12) %initial) #3
  call void @_ZNSt6vectorIbSaIbEED2Ev(ptr noundef nonnull align 8 dereferenceable(40) %processedChildren) #3
  call void @_ZN4cvc58internal9TCtxStackD2Ev(ptr noundef nonnull align 8 dereferenceable(40) %ctx) #3
  ret void

ehcleanup312:                                     ; preds = %ehcleanup302, %ehcleanup203, %lpad15, %lpad10
  call void @_ZN4cvc58internal12NodeTemplateILb1EED2Ev(ptr noundef nonnull align 8 dereferenceable(8) %node) #3
  br label %ehcleanup313

ehcleanup313:                                     ; preds = %ehcleanup312, %lpad8
  call void @_ZNSt4pairIN4cvc58internal12NodeTemplateILb1EEEjED2Ev(ptr noundef nonnull align 8 dereferenceable(12) %curr) #3
  br label %ehcleanup314

ehcleanup314:                                     ; preds = %ehcleanup313, %lpad6
  call void @_ZNSt4pairIN4cvc58internal12NodeTemplateILb1EEEjED2Ev(ptr noundef nonnull align 8 dereferenceable(12) %initial) #3
  br label %ehcleanup315

ehcleanup315:                                     ; preds = %ehcleanup314, %lpad2, %lpad
  call void @_ZNSt6vectorIbSaIbEED2Ev(ptr noundef nonnull align 8 dereferenceable(40) %processedChildren) #3
  call void @_ZN4cvc58internal9TCtxStackD2Ev(ptr noundef nonnull align 8 dereferenceable(40) %ctx) #3
  br label %eh.resume

eh.resume:                                        ; preds = %ehcleanup315
  %exn = load ptr, ptr %exn.slot, align 8
  %sel = load i32, ptr %ehselector.slot, align 4
  %lpad.val = insertvalue { ptr, i32 } poison, ptr %exn, 0
  %lpad.val317 = insertvalue { ptr, i32 } %lpad.val, i32 %sel, 1
  resume { ptr, i32 } %lpad.val317
}

; Function Attrs: mustprogress nounwind uwtable
define linkonce_odr hidden void @_ZN4cvc58internal12NodeTemplateILb0EEC2ERKS2_(ptr noundef nonnull align 8 dereferenceable(8) %this, ptr noundef nonnull align 8 dereferenceable(8) %e) unnamed_addr #5 comdat align 2 {
entry:
  %this.addr = alloca ptr, align 8
  %e.addr = alloca ptr, align 8
  store ptr %this, ptr %this.addr, align 8
  store ptr %e, ptr %e.addr, align 8
  %this1 = load ptr, ptr %this.addr, align 8
  %0 = load ptr, ptr %e.addr, align 8
  %d_nv = getelementptr inbounds %"class.cvc5::internal::NodeTemplate.313", ptr %0, i32 0, i32 0
  %1 = load ptr, ptr %d_nv, align 8
  %d_nv2 = getelementptr inbounds %"class.cvc5::internal::NodeTemplate.313", ptr %this1, i32 0, i32 0
  store ptr %1, ptr %d_nv2, align 8
  ret void
}

; Function Attrs: mustprogress nounwind uwtable
define linkonce_odr hidden void @_ZN4cvc58internal12NodeTemplateILb0EED2Ev(ptr noundef nonnull align 8 dereferenceable(8) %this) unnamed_addr #5 comdat align 2 {
entry:
  %this.addr = alloca ptr, align 8
  store ptr %this, ptr %this.addr, align 8
  ret void
}

; Function Attrs: mustprogress nounwind uwtable
define linkonce_odr hidden noundef zeroext i1 @_ZNK4cvc58internal12NodeTemplateILb1EEeqILb0EEEbRKNS1_IXT_EEE(ptr noundef nonnull align 8 dereferenceable(8) %this, ptr noundef nonnull align 8 dereferenceable(8) %node) #5 comdat align 2 {
entry:
  %this.addr = alloca ptr, align 8
  %node.addr = alloca ptr, align 8
  store ptr %this, ptr %this.addr, align 8
  store ptr %node, ptr %node.addr, align 8
  %this1 = load ptr, ptr %this.addr, align 8
  call void @_ZNK4cvc58internal12NodeTemplateILb1EE21assertTNodeNotExpiredEv(ptr noundef nonnull align 8 dereferenceable(8) %this1)
  %0 = load ptr, ptr %node.addr, align 8
  call void @_ZNK4cvc58internal12NodeTemplateILb0EE21assertTNodeNotExpiredEv(ptr noundef nonnull align 8 dereferenceable(8) %0)
  %d_nv = getelementptr inbounds %"class.cvc5::internal::NodeTemplate", ptr %this1, i32 0, i32 0
  %1 = load ptr, ptr %d_nv, align 8
  %2 = load ptr, ptr %node.addr, align 8
  %d_nv2 = getelementptr inbounds %"class.cvc5::internal::NodeTemplate.313", ptr %2, i32 0, i32 0
  %3 = load ptr, ptr %d_nv2, align 8
  %cmp = icmp eq ptr %1, %3
  ret i1 %cmp
}

declare void @_ZN4cvc58internal9TrustNode4nullEv(ptr sret(%"class.cvc5::internal::TrustNode") align 8) #1

; Function Attrs: mustprogress nounwind uwtable
define linkonce_odr hidden noundef i64 @_ZNKSt6vectorIN4cvc58internal6theory11SkolemLemmaESaIS3_EE4sizeEv(ptr noundef nonnull align 8 dereferenceable(24) %this) #5 comdat align 2 {
entry:
  %this.addr = alloca ptr, align 8
  store ptr %this, ptr %this.addr, align 8
  %this1 = load ptr, ptr %this.addr, align 8
  %_M_impl = getelementptr inbounds %"struct.std::_Vector_base.315", ptr %this1, i32 0, i32 0
  %_M_finish = getelementptr inbounds %"struct.std::_Vector_base<cvc5::internal::theory::SkolemLemma, std::allocator<cvc5::internal::theory::SkolemLemma>>::_Vector_impl_data", ptr %_M_impl, i32 0, i32 1
  %0 = load ptr, ptr %_M_finish, align 8
  %_M_impl2 = getelementptr inbounds %"struct.std::_Vector_base.315", ptr %this1, i32 0, i32 0
  %_M_start = getelementptr inbounds %"struct.std::_Vector_base<cvc5::internal::theory::SkolemLemma, std::allocator<cvc5::internal::theory::SkolemLemma>>::_Vector_impl_data", ptr %_M_impl2, i32 0, i32 0
  %1 = load ptr, ptr %_M_start, align 8
  %sub.ptr.lhs.cast = ptrtoint ptr %0 to i64
  %sub.ptr.rhs.cast = ptrtoint ptr %1 to i64
  %sub.ptr.sub = sub i64 %sub.ptr.lhs.cast, %sub.ptr.rhs.cast
  %sub.ptr.div = sdiv exact i64 %sub.ptr.sub, 32
  ret i64 %sub.ptr.div
}

; Function Attrs: mustprogress nounwind uwtable
define linkonce_odr hidden noundef nonnull align 8 dereferenceable(32) ptr @_ZNSt6vectorIN4cvc58internal6theory11SkolemLemmaESaIS3_EEixEm(ptr noundef nonnull align 8 dereferenceable(24) %this, i64 noundef %__n) #5 comdat align 2 {
entry:
  %this.addr = alloca ptr, align 8
  %__n.addr = alloca i64, align 8
  store ptr %this, ptr %this.addr, align 8
  store i64 %__n, ptr %__n.addr, align 8
  %this1 = load ptr, ptr %this.addr, align 8
  %_M_impl = getelementptr inbounds %"struct.std::_Vector_base.315", ptr %this1, i32 0, i32 0
  %_M_start = getelementptr inbounds %"struct.std::_Vector_base<cvc5::internal::theory::SkolemLemma, std::allocator<cvc5::internal::theory::SkolemLemma>>::_Vector_impl_data", ptr %_M_impl, i32 0, i32 0
  %0 = load ptr, ptr %_M_start, align 8
  %1 = load i64, ptr %__n.addr, align 8
  %add.ptr = getelementptr inbounds %"class.cvc5::internal::theory::SkolemLemma", ptr %0, i64 %1
  ret ptr %add.ptr
}

; Function Attrs: mustprogress uwtable
define linkonce_odr hidden void @_ZN4cvc58internal9TrustNodeC2ERKS1_(ptr noundef nonnull align 8 dereferenceable(24) %this, ptr noundef nonnull align 8 dereferenceable(24) %0) unnamed_addr #4 comdat align 2 {
entry:
  %this.addr = alloca ptr, align 8
  %.addr = alloca ptr, align 8
  store ptr %this, ptr %this.addr, align 8
  store ptr %0, ptr %.addr, align 8
  %this1 = load ptr, ptr %this.addr, align 8
  %d_tnk = getelementptr inbounds %"class.cvc5::internal::TrustNode", ptr %this1, i32 0, i32 0
  %1 = load ptr, ptr %.addr, align 8
  %d_tnk2 = getelementptr inbounds %"class.cvc5::internal::TrustNode", ptr %1, i32 0, i32 0
  %2 = load i32, ptr %d_tnk2, align 8
  store i32 %2, ptr %d_tnk, align 8
  %d_proven = getelementptr inbounds %"class.cvc5::internal::TrustNode", ptr %this1, i32 0, i32 1
  %3 = load ptr, ptr %.addr, align 8
  %d_proven3 = getelementptr inbounds %"class.cvc5::internal::TrustNode", ptr %3, i32 0, i32 1
  call void @_ZN4cvc58internal12NodeTemplateILb1EEC2ERKS2_(ptr noundef nonnull align 8 dereferenceable(8) %d_proven, ptr noundef nonnull align 8 dereferenceable(8) %d_proven3)
  %d_gen = getelementptr inbounds %"class.cvc5::internal::TrustNode", ptr %this1, i32 0, i32 2
  %4 = load ptr, ptr %.addr, align 8
  %d_gen4 = getelementptr inbounds %"class.cvc5::internal::TrustNode", ptr %4, i32 0, i32 2
  %5 = load ptr, ptr %d_gen4, align 8
  store ptr %5, ptr %d_gen, align 8
  ret void
}

; Function Attrs: mustprogress uwtable
define hidden void @_ZN4cvc58internal18RemoveTermFormulas8runLemmaENS0_9TrustNodeERSt6vectorINS0_6theory11SkolemLemmaESaIS5_EEb(ptr noalias sret(%"class.cvc5::internal::TrustNode") align 8 %agg.result, ptr noundef nonnull align 8 dereferenceable(160) %this, ptr noundef %lem, ptr noundef nonnull align 8 dereferenceable(24) %newAsserts, i1 noundef zeroext %fixedPoint) #4 align 2 personality ptr @__gxx_personality_v0 {
entry:
  %result.ptr = alloca ptr, align 8
  %this.addr = alloca ptr, align 8
  %lem.indirect_addr = alloca ptr, align 8
  %newAsserts.addr = alloca ptr, align 8
  %fixedPoint.addr = alloca i8, align 1
  %trn = alloca %"class.cvc5::internal::TrustNode", align 8
  %agg.tmp = alloca %"class.cvc5::internal::NodeTemplate.313", align 8
  %ref.tmp = alloca %"class.cvc5::internal::NodeTemplate", align 8
  %exn.slot = alloca ptr, align 8
  %ehselector.slot = alloca i32, align 4
  %cleanup.dest.slot = alloca i32, align 4
  %newAssertion = alloca %"class.cvc5::internal::NodeTemplate", align 8
  %agg.tmp12 = alloca %"class.cvc5::internal::NodeTemplate", align 8
  %ref.tmp18 = alloca %"class.cvc5::internal::__cvc5_true", align 1
  %tmp = alloca %"class.cvc5::internal::Cvc5ostream", align 8
  %agg.tmp.ensured = alloca %"class.cvc5::internal::Cvc5ostream", align 8
  %ref.tmp22 = alloca %"class.cvc5::internal::Cvc5ostream", align 8
  %assertionPre = alloca %"class.cvc5::internal::NodeTemplate", align 8
  %naEq = alloca %"class.cvc5::internal::NodeTemplate", align 8
  %agg.tmp38 = alloca %"class.cvc5::internal::NodeTemplate", align 8
  %agg.tmp48 = alloca %"class.cvc5::internal::NodeTemplate", align 8
  %ref.tmp50 = alloca %"class.std::vector.324", align 8
  %agg.tmp51 = alloca %"class.std::initializer_list", align 8
  %ref.tmp52 = alloca [2 x %"class.cvc5::internal::NodeTemplate"], align 8
  %arrayinit.endOfInit = alloca ptr, align 8
  %ref.tmp58 = alloca %"class.std::allocator.326", align 1
  %ref.tmp61 = alloca %"class.std::vector.324", align 8
  %agg.tmp81 = alloca %"class.cvc5::internal::NodeTemplate", align 8
  store ptr %agg.result, ptr %result.ptr, align 8
  store ptr %this, ptr %this.addr, align 8
  store ptr %lem, ptr %lem.indirect_addr, align 8
  store ptr %newAsserts, ptr %newAsserts.addr, align 8
  %frombool = zext i1 %fixedPoint to i8
  store i8 %frombool, ptr %fixedPoint.addr, align 1
  %this1 = load ptr, ptr %this.addr, align 8
  call void @_ZNK4cvc58internal9TrustNode9getProvenEv(ptr sret(%"class.cvc5::internal::NodeTemplate") align 8 %ref.tmp, ptr noundef nonnull align 8 dereferenceable(24) %lem)
  invoke void @_ZN4cvc58internal12NodeTemplateILb0EEC2ERKNS1_ILb1EEE(ptr noundef nonnull align 8 dereferenceable(8) %agg.tmp, ptr noundef nonnull align 8 dereferenceable(8) %ref.tmp)
          to label %invoke.cont unwind label %lpad

invoke.cont:                                      ; preds = %entry
  %0 = load ptr, ptr %newAsserts.addr, align 8
  %1 = load i8, ptr %fixedPoint.addr, align 1
  %tobool = trunc i8 %1 to i1
  invoke void @_ZN4cvc58internal18RemoveTermFormulas3runENS0_12NodeTemplateILb0EEERSt6vectorINS0_6theory11SkolemLemmaESaIS6_EEb(ptr sret(%"class.cvc5::internal::TrustNode") align 8 %trn, ptr noundef nonnull align 8 dereferenceable(160) %this1, ptr noundef %agg.tmp, ptr noundef nonnull align 8 dereferenceable(24) %0, i1 noundef zeroext %tobool)
          to label %invoke.cont3 unwind label %lpad2

invoke.cont3:                                     ; preds = %invoke.cont
  call void @_ZN4cvc58internal12NodeTemplateILb0EED2Ev(ptr noundef nonnull align 8 dereferenceable(8) %agg.tmp) #3
  call void @_ZN4cvc58internal12NodeTemplateILb1EED2Ev(ptr noundef nonnull align 8 dereferenceable(8) %ref.tmp) #3
  %call = invoke noundef zeroext i1 @_ZNK4cvc58internal9TrustNode6isNullEv(ptr noundef nonnull align 8 dereferenceable(24) %trn)
          to label %invoke.cont5 unwind label %lpad4

invoke.cont5:                                     ; preds = %invoke.cont3
  br i1 %call, label %if.then, label %if.end

if.then:                                          ; preds = %invoke.cont5
  invoke void @_ZN4cvc58internal9TrustNodeC2ERKS1_(ptr noundef nonnull align 8 dereferenceable(24) %agg.result, ptr noundef nonnull align 8 dereferenceable(24) %lem)
          to label %invoke.cont6 unwind label %lpad4

invoke.cont6:                                     ; preds = %if.then
  store i32 1, ptr %cleanup.dest.slot, align 4
  br label %cleanup95

lpad:                                             ; preds = %entry
  %2 = landingpad { ptr, i32 }
          cleanup
  %3 = extractvalue { ptr, i32 } %2, 0
  store ptr %3, ptr %exn.slot, align 8
  %4 = extractvalue { ptr, i32 } %2, 1
  store i32 %4, ptr %ehselector.slot, align 4
  br label %ehcleanup

lpad2:                                            ; preds = %invoke.cont
  %5 = landingpad { ptr, i32 }
          cleanup
  %6 = extractvalue { ptr, i32 } %5, 0
  store ptr %6, ptr %exn.slot, align 8
  %7 = extractvalue { ptr, i32 } %5, 1
  store i32 %7, ptr %ehselector.slot, align 4
  call void @_ZN4cvc58internal12NodeTemplateILb0EED2Ev(ptr noundef nonnull align 8 dereferenceable(8) %agg.tmp) #3
  br label %ehcleanup

ehcleanup:                                        ; preds = %lpad2, %lpad
  call void @_ZN4cvc58internal12NodeTemplateILb1EED2Ev(ptr noundef nonnull align 8 dereferenceable(8) %ref.tmp) #3
  br label %eh.resume

lpad4:                                            ; preds = %if.end, %if.then, %invoke.cont3
  %8 = landingpad { ptr, i32 }
          cleanup
  %9 = extractvalue { ptr, i32 } %8, 0
  store ptr %9, ptr %exn.slot, align 8
  %10 = extractvalue { ptr, i32 } %8, 1
  store i32 %10, ptr %ehselector.slot, align 4
  br label %ehcleanup96

if.end:                                           ; preds = %invoke.cont5
  invoke void @_ZNK4cvc58internal9TrustNode7getNodeEv(ptr sret(%"class.cvc5::internal::NodeTemplate") align 8 %newAssertion, ptr noundef nonnull align 8 dereferenceable(24) %trn)
          to label %invoke.cont7 unwind label %lpad4

invoke.cont7:                                     ; preds = %if.end
  %d_env = getelementptr inbounds %"class.cvc5::internal::EnvObj", ptr %this1, i32 0, i32 1
  %11 = load ptr, ptr %d_env, align 8
  %call10 = invoke noundef zeroext i1 @_ZNK4cvc58internal3Env22isTheoryProofProducingEv(ptr noundef nonnull align 8 dereferenceable(576) %11)
          to label %invoke.cont9 unwind label %lpad8

invoke.cont9:                                     ; preds = %invoke.cont7
  br i1 %call10, label %if.end17, label %if.then11

if.then11:                                        ; preds = %invoke.cont9
  invoke void @_ZN4cvc58internal12NodeTemplateILb1EEC2ERKS2_(ptr noundef nonnull align 8 dereferenceable(8) %agg.tmp12, ptr noundef nonnull align 8 dereferenceable(8) %newAssertion)
          to label %invoke.cont13 unwind label %lpad8

invoke.cont13:                                    ; preds = %if.then11
  invoke void @_ZN4cvc58internal9TrustNode12mkTrustLemmaENS0_12NodeTemplateILb1EEEPNS0_14ProofGeneratorE(ptr sret(%"class.cvc5::internal::TrustNode") align 8 %agg.result, ptr noundef %agg.tmp12, ptr noundef null)
          to label %invoke.cont15 unwind label %lpad14

invoke.cont15:                                    ; preds = %invoke.cont13
  call void @_ZN4cvc58internal12NodeTemplateILb1EED2Ev(ptr noundef nonnull align 8 dereferenceable(8) %agg.tmp12) #3
  store i32 1, ptr %cleanup.dest.slot, align 4
  br label %cleanup

lpad8:                                            ; preds = %cond.end, %invoke.cont24, %invoke.cont23, %cond.false, %cond.true, %if.end17, %if.then11, %invoke.cont7
  %12 = landingpad { ptr, i32 }
          cleanup
  %13 = extractvalue { ptr, i32 } %12, 0
  store ptr %13, ptr %exn.slot, align 8
  %14 = extractvalue { ptr, i32 } %12, 1
  store i32 %14, ptr %ehselector.slot, align 4
  br label %ehcleanup94

lpad14:                                           ; preds = %invoke.cont13
  %15 = landingpad { ptr, i32 }
          cleanup
  %16 = extractvalue { ptr, i32 } %15, 0
  store ptr %16, ptr %exn.slot, align 8
  %17 = extractvalue { ptr, i32 } %15, 1
  store i32 %17, ptr %ehselector.slot, align 4
  call void @_ZN4cvc58internal12NodeTemplateILb1EED2Ev(ptr noundef nonnull align 8 dereferenceable(8) %agg.tmp12) #3
  br label %ehcleanup94

if.end17:                                         ; preds = %invoke.cont9
  %call20 = invoke noundef zeroext i1 @_ZN4cvc58internal11__cvc5_truecvbEv(ptr noundef nonnull align 1 dereferenceable(1) %ref.tmp18)
          to label %invoke.cont19 unwind label %lpad8

invoke.cont19:                                    ; preds = %if.end17
  br i1 %call20, label %cond.true, label %cond.false

cond.true:                                        ; preds = %invoke.cont19
  invoke void @_ZNK4cvc58internal5NullCcvNS0_11Cvc5ostreamEEv(ptr sret(%"class.cvc5::internal::Cvc5ostream") align 8 %tmp, ptr noundef nonnull align 1 dereferenceable(1) @_ZN4cvc58internal10nullStreamE)
          to label %invoke.cont21 unwind label %lpad8

invoke.cont21:                                    ; preds = %cond.true
  br label %cond.end

cond.false:                                       ; preds = %invoke.cont19
  invoke void @_ZNK4cvc58internal6TraceCclEv(ptr sret(%"class.cvc5::internal::Cvc5ostream") align 8 %ref.tmp22, ptr noundef nonnull align 8 dereferenceable(32) @_ZN4cvc58internal12TraceChannelE)
          to label %invoke.cont23 unwind label %lpad8

invoke.cont23:                                    ; preds = %cond.false
  %call25 = invoke noundef nonnull align 8 dereferenceable(24) ptr @_ZN4cvc58internal11Cvc5ostreamlsIA61_cEERS1_RKT_(ptr noundef nonnull align 8 dereferenceable(24) %ref.tmp22, ptr noundef nonnull align 1 dereferenceable(61) @.str.2)
          to label %invoke.cont24 unwind label %lpad8

invoke.cont24:                                    ; preds = %invoke.cont23
  %call27 = invoke noundef nonnull align 8 dereferenceable(24) ptr @_ZN4cvc58internal11Cvc5ostreamlsEPFRSoS2_E(ptr noundef nonnull align 8 dereferenceable(24) %call25, ptr noundef @_ZSt4endlIcSt11char_traitsIcEERSt13basic_ostreamIT_T0_ES6_)
          to label %invoke.cont26 unwind label %lpad8

invoke.cont26:                                    ; preds = %invoke.cont24
  call void @llvm.memcpy.p0.p0.i64(ptr align 8 %agg.tmp.ensured, ptr align 8 %call27, i64 24, i1 false)
  br label %cond.end

cond.end:                                         ; preds = %invoke.cont26, %invoke.cont21
  invoke void @_ZNK4cvc58internal9TrustNode9getProvenEv(ptr sret(%"class.cvc5::internal::NodeTemplate") align 8 %assertionPre, ptr noundef nonnull align 8 dereferenceable(24) %lem)
          to label %invoke.cont28 unwind label %lpad8

invoke.cont28:                                    ; preds = %cond.end
  invoke void @_ZNK4cvc58internal9TrustNode9getProvenEv(ptr sret(%"class.cvc5::internal::NodeTemplate") align 8 %naEq, ptr noundef nonnull align 8 dereferenceable(24) %trn)
          to label %invoke.cont30 unwind label %lpad29

invoke.cont30:                                    ; preds = %invoke.cont28
  %call33 = invoke noundef ptr @_ZNK4cvc58internal9TrustNode12getGeneratorEv(ptr noundef nonnull align 8 dereferenceable(24) %trn)
          to label %invoke.cont32 unwind label %lpad31

invoke.cont32:                                    ; preds = %invoke.cont30
  %d_lp = getelementptr inbounds %"class.cvc5::internal::RemoveTermFormulas", ptr %this1, i32 0, i32 5
  %call34 = call noundef ptr @_ZNKSt10unique_ptrIN4cvc58internal11LazyCDProofESt14default_deleteIS2_EE3getEv(ptr noundef nonnull align 8 dereferenceable(8) %d_lp) #3
  %18 = icmp eq ptr %call34, null
  br i1 %18, label %cast.end, label %cast.notnull

cast.notnull:                                     ; preds = %invoke.cont32
  %add.ptr = getelementptr inbounds i8, ptr %call34, i64 16
  br label %cast.end

cast.end:                                         ; preds = %cast.notnull, %invoke.cont32
  %cast.result = phi ptr [ %add.ptr, %cast.notnull ], [ null, %invoke.cont32 ]
  %cmp = icmp ne ptr %call33, %cast.result
  br i1 %cmp, label %if.then35, label %if.end45

if.then35:                                        ; preds = %cast.end
  %d_lp36 = getelementptr inbounds %"class.cvc5::internal::RemoveTermFormulas", ptr %this1, i32 0, i32 5
  %call37 = call noundef ptr @_ZNKSt10unique_ptrIN4cvc58internal11LazyCDProofESt14default_deleteIS2_EEptEv(ptr noundef nonnull align 8 dereferenceable(8) %d_lp36) #3
  invoke void @_ZN4cvc58internal12NodeTemplateILb1EEC2ERKS2_(ptr noundef nonnull align 8 dereferenceable(8) %agg.tmp38, ptr noundef nonnull align 8 dereferenceable(8) %naEq)
          to label %invoke.cont39 unwind label %lpad31

invoke.cont39:                                    ; preds = %if.then35
  %call42 = invoke noundef ptr @_ZNK4cvc58internal9TrustNode12getGeneratorEv(ptr noundef nonnull align 8 dereferenceable(24) %trn)
          to label %invoke.cont41 unwind label %lpad40

invoke.cont41:                                    ; preds = %invoke.cont39
  invoke void @_ZN4cvc58internal11LazyCDProof11addLazyStepENS0_12NodeTemplateILb1EEEPNS0_14ProofGeneratorENS0_7TrustIdEbPKcb(ptr noundef nonnull align 8 dereferenceable(408) %call37, ptr noundef %agg.tmp38, ptr noundef %call42, i32 noundef 0, i1 noundef zeroext false, ptr noundef @.str.3, i1 noundef zeroext false)
          to label %invoke.cont43 unwind label %lpad40

invoke.cont43:                                    ; preds = %invoke.cont41
  call void @_ZN4cvc58internal12NodeTemplateILb1EED2Ev(ptr noundef nonnull align 8 dereferenceable(8) %agg.tmp38) #3
  br label %if.end45

lpad29:                                           ; preds = %invoke.cont28
  %19 = landingpad { ptr, i32 }
          cleanup
  %20 = extractvalue { ptr, i32 } %19, 0
  store ptr %20, ptr %exn.slot, align 8
  %21 = extractvalue { ptr, i32 } %19, 1
  store i32 %21, ptr %ehselector.slot, align 4
  br label %ehcleanup93

lpad31:                                           ; preds = %arraydestroy.done72, %if.end45, %if.then35, %invoke.cont30
  %22 = landingpad { ptr, i32 }
          cleanup
  %23 = extractvalue { ptr, i32 } %22, 0
  store ptr %23, ptr %exn.slot, align 8
  %24 = extractvalue { ptr, i32 } %22, 1
  store i32 %24, ptr %ehselector.slot, align 4
  br label %ehcleanup92

lpad40:                                           ; preds = %invoke.cont41, %invoke.cont39
  %25 = landingpad { ptr, i32 }
          cleanup
  %26 = extractvalue { ptr, i32 } %25, 0
  store ptr %26, ptr %exn.slot, align 8
  %27 = extractvalue { ptr, i32 } %25, 1
  store i32 %27, ptr %ehselector.slot, align 4
  call void @_ZN4cvc58internal12NodeTemplateILb1EED2Ev(ptr noundef nonnull align 8 dereferenceable(8) %agg.tmp38) #3
  br label %ehcleanup92

if.end45:                                         ; preds = %invoke.cont43, %cast.end
  %d_lp46 = getelementptr inbounds %"class.cvc5::internal::RemoveTermFormulas", ptr %this1, i32 0, i32 5
  %call47 = call noundef ptr @_ZNKSt10unique_ptrIN4cvc58internal11LazyCDProofESt14default_deleteIS2_EEptEv(ptr noundef nonnull align 8 dereferenceable(8) %d_lp46) #3
  invoke void @_ZN4cvc58internal12NodeTemplateILb1EEC2ERKS2_(ptr noundef nonnull align 8 dereferenceable(8) %agg.tmp48, ptr noundef nonnull align 8 dereferenceable(8) %newAssertion)
          to label %invoke.cont49 unwind label %lpad31

invoke.cont49:                                    ; preds = %if.end45
  %arrayinit.begin = getelementptr inbounds [2 x %"class.cvc5::internal::NodeTemplate"], ptr %ref.tmp52, i64 0, i64 0
  store ptr %arrayinit.begin, ptr %arrayinit.endOfInit, align 8
  invoke void @_ZN4cvc58internal12NodeTemplateILb1EEC2ERKS2_(ptr noundef nonnull align 8 dereferenceable(8) %arrayinit.begin, ptr noundef nonnull align 8 dereferenceable(8) %assertionPre)
          to label %invoke.cont54 unwind label %lpad53

invoke.cont54:                                    ; preds = %invoke.cont49
  %arrayinit.element = getelementptr inbounds %"class.cvc5::internal::NodeTemplate", ptr %arrayinit.begin, i64 1
  store ptr %arrayinit.element, ptr %arrayinit.endOfInit, align 8
  invoke void @_ZN4cvc58internal12NodeTemplateILb1EEC2ERKS2_(ptr noundef nonnull align 8 dereferenceable(8) %arrayinit.element, ptr noundef nonnull align 8 dereferenceable(8) %naEq)
          to label %invoke.cont55 unwind label %lpad53

invoke.cont55:                                    ; preds = %invoke.cont54
  %_M_array = getelementptr inbounds %"class.std::initializer_list", ptr %agg.tmp51, i32 0, i32 0
  %arraystart = getelementptr inbounds [2 x %"class.cvc5::internal::NodeTemplate"], ptr %ref.tmp52, i64 0, i64 0
  store ptr %arraystart, ptr %_M_array, align 8
  %_M_len = getelementptr inbounds %"class.std::initializer_list", ptr %agg.tmp51, i32 0, i32 1
  store i64 2, ptr %_M_len, align 8
  call void @_ZNSaIN4cvc58internal12NodeTemplateILb1EEEEC2Ev(ptr noundef nonnull align 1 dereferenceable(1) %ref.tmp58) #3
  %28 = getelementptr inbounds { ptr, i64 }, ptr %agg.tmp51, i32 0, i32 0
  %29 = load ptr, ptr %28, align 8
  %30 = getelementptr inbounds { ptr, i64 }, ptr %agg.tmp51, i32 0, i32 1
  %31 = load i64, ptr %30, align 8
  invoke void @_ZNSt6vectorIN4cvc58internal12NodeTemplateILb1EEESaIS3_EEC2ESt16initializer_listIS3_ERKS4_(ptr noundef nonnull align 8 dereferenceable(24) %ref.tmp50, ptr %29, i64 %31, ptr noundef nonnull align 1 dereferenceable(1) %ref.tmp58)
          to label %invoke.cont60 unwind label %lpad59

invoke.cont60:                                    ; preds = %invoke.cont55
  call void @llvm.memset.p0.i64(ptr align 8 %ref.tmp61, i8 0, i64 24, i1 false)
  call void @_ZNSt6vectorIN4cvc58internal12NodeTemplateILb1EEESaIS3_EEC2Ev(ptr noundef nonnull align 8 dereferenceable(24) %ref.tmp61) #3
  %call64 = invoke noundef zeroext i1 @_ZN4cvc58internal7CDProof7addStepENS0_12NodeTemplateILb1EEENS_9ProofRuleERKSt6vectorIS3_SaIS3_EES9_bNS0_12CDPOverwriteE(ptr noundef nonnull align 8 dereferenceable(217) %call47, ptr noundef %agg.tmp48, i32 noundef 23, ptr noundef nonnull align 8 dereferenceable(24) %ref.tmp50, ptr noundef nonnull align 8 dereferenceable(24) %ref.tmp61, i1 noundef zeroext false, i32 noundef 1)
          to label %invoke.cont63 unwind label %lpad62

invoke.cont63:                                    ; preds = %invoke.cont60
  call void @_ZNSt6vectorIN4cvc58internal12NodeTemplateILb1EEESaIS3_EED2Ev(ptr noundef nonnull align 8 dereferenceable(24) %ref.tmp61) #3
  call void @_ZNSt6vectorIN4cvc58internal12NodeTemplateILb1EEESaIS3_EED2Ev(ptr noundef nonnull align 8 dereferenceable(24) %ref.tmp50) #3
  call void @_ZNSaIN4cvc58internal12NodeTemplateILb1EEEED2Ev(ptr noundef nonnull align 1 dereferenceable(1) %ref.tmp58) #3
  %array.begin = getelementptr inbounds [2 x %"class.cvc5::internal::NodeTemplate"], ptr %ref.tmp52, i32 0, i32 0
  %32 = getelementptr inbounds %"class.cvc5::internal::NodeTemplate", ptr %array.begin, i64 2
  br label %arraydestroy.body68

arraydestroy.body68:                              ; preds = %arraydestroy.body68, %invoke.cont63
  %arraydestroy.elementPast69 = phi ptr [ %32, %invoke.cont63 ], [ %arraydestroy.element70, %arraydestroy.body68 ]
  %arraydestroy.element70 = getelementptr inbounds %"class.cvc5::internal::NodeTemplate", ptr %arraydestroy.elementPast69, i64 -1
  call void @_ZN4cvc58internal12NodeTemplateILb1EED2Ev(ptr noundef nonnull align 8 dereferenceable(8) %arraydestroy.element70) #3
  %arraydestroy.done71 = icmp eq ptr %arraydestroy.element70, %array.begin
  br i1 %arraydestroy.done71, label %arraydestroy.done72, label %arraydestroy.body68

arraydestroy.done72:                              ; preds = %arraydestroy.body68
  call void @_ZN4cvc58internal12NodeTemplateILb1EED2Ev(ptr noundef nonnull align 8 dereferenceable(8) %agg.tmp48) #3
  invoke void @_ZN4cvc58internal12NodeTemplateILb1EEC2ERKS2_(ptr noundef nonnull align 8 dereferenceable(8) %agg.tmp81, ptr noundef nonnull align 8 dereferenceable(8) %newAssertion)
          to label %invoke.cont82 unwind label %lpad31

invoke.cont82:                                    ; preds = %arraydestroy.done72
  %d_lp83 = getelementptr inbounds %"class.cvc5::internal::RemoveTermFormulas", ptr %this1, i32 0, i32 5
  %call84 = call noundef ptr @_ZNKSt10unique_ptrIN4cvc58internal11LazyCDProofESt14default_deleteIS2_EE3getEv(ptr noundef nonnull align 8 dereferenceable(8) %d_lp83) #3
  %33 = icmp eq ptr %call84, null
  br i1 %33, label %cast.end87, label %cast.notnull85

cast.notnull85:                                   ; preds = %invoke.cont82
  %add.ptr86 = getelementptr inbounds i8, ptr %call84, i64 16
  br label %cast.end87

cast.end87:                                       ; preds = %cast.notnull85, %invoke.cont82
  %cast.result88 = phi ptr [ %add.ptr86, %cast.notnull85 ], [ null, %invoke.cont82 ]
  invoke void @_ZN4cvc58internal9TrustNode12mkTrustLemmaENS0_12NodeTemplateILb1EEEPNS0_14ProofGeneratorE(ptr sret(%"class.cvc5::internal::TrustNode") align 8 %agg.result, ptr noundef %agg.tmp81, ptr noundef %cast.result88)
          to label %invoke.cont90 unwind label %lpad89

invoke.cont90:                                    ; preds = %cast.end87
  call void @_ZN4cvc58internal12NodeTemplateILb1EED2Ev(ptr noundef nonnull align 8 dereferenceable(8) %agg.tmp81) #3
  store i32 1, ptr %cleanup.dest.slot, align 4
  call void @_ZN4cvc58internal12NodeTemplateILb1EED2Ev(ptr noundef nonnull align 8 dereferenceable(8) %naEq) #3
  call void @_ZN4cvc58internal12NodeTemplateILb1EED2Ev(ptr noundef nonnull align 8 dereferenceable(8) %assertionPre) #3
  br label %cleanup

lpad53:                                           ; preds = %invoke.cont54, %invoke.cont49
  %34 = landingpad { ptr, i32 }
          cleanup
  %35 = extractvalue { ptr, i32 } %34, 0
  store ptr %35, ptr %exn.slot, align 8
  %36 = extractvalue { ptr, i32 } %34, 1
  store i32 %36, ptr %ehselector.slot, align 4
  %37 = load ptr, ptr %arrayinit.endOfInit, align 8
  %arraydestroy.isempty = icmp eq ptr %arrayinit.begin, %37
  br i1 %arraydestroy.isempty, label %arraydestroy.done57, label %arraydestroy.body

arraydestroy.body:                                ; preds = %arraydestroy.body, %lpad53
  %arraydestroy.elementPast = phi ptr [ %37, %lpad53 ], [ %arraydestroy.element, %arraydestroy.body ]
  %arraydestroy.element = getelementptr inbounds %"class.cvc5::internal::NodeTemplate", ptr %arraydestroy.elementPast, i64 -1
  call void @_ZN4cvc58internal12NodeTemplateILb1EED2Ev(ptr noundef nonnull align 8 dereferenceable(8) %arraydestroy.element) #3
  %arraydestroy.done = icmp eq ptr %arraydestroy.element, %arrayinit.begin
  br i1 %arraydestroy.done, label %arraydestroy.done57, label %arraydestroy.body

arraydestroy.done57:                              ; preds = %arraydestroy.body, %lpad53
  br label %ehcleanup80

lpad59:                                           ; preds = %invoke.cont55
  %38 = landingpad { ptr, i32 }
          cleanup
  %39 = extractvalue { ptr, i32 } %38, 0
  store ptr %39, ptr %exn.slot, align 8
  %40 = extractvalue { ptr, i32 } %38, 1
  store i32 %40, ptr %ehselector.slot, align 4
  br label %ehcleanup67

lpad62:                                           ; preds = %invoke.cont60
  %41 = landingpad { ptr, i32 }
          cleanup
  %42 = extractvalue { ptr, i32 } %41, 0
  store ptr %42, ptr %exn.slot, align 8
  %43 = extractvalue { ptr, i32 } %41, 1
  store i32 %43, ptr %ehselector.slot, align 4
  call void @_ZNSt6vectorIN4cvc58internal12NodeTemplateILb1EEESaIS3_EED2Ev(ptr noundef nonnull align 8 dereferenceable(24) %ref.tmp61) #3
  call void @_ZNSt6vectorIN4cvc58internal12NodeTemplateILb1EEESaIS3_EED2Ev(ptr noundef nonnull align 8 dereferenceable(24) %ref.tmp50) #3
  br label %ehcleanup67

ehcleanup67:                                      ; preds = %lpad62, %lpad59
  call void @_ZNSaIN4cvc58internal12NodeTemplateILb1EEEED2Ev(ptr noundef nonnull align 1 dereferenceable(1) %ref.tmp58) #3
  %array.begin74 = getelementptr inbounds [2 x %"class.cvc5::internal::NodeTemplate"], ptr %ref.tmp52, i32 0, i32 0
  %44 = getelementptr inbounds %"class.cvc5::internal::NodeTemplate", ptr %array.begin74, i64 2
  br label %arraydestroy.body75

arraydestroy.body75:                              ; preds = %arraydestroy.body75, %ehcleanup67
  %arraydestroy.elementPast76 = phi ptr [ %44, %ehcleanup67 ], [ %arraydestroy.element77, %arraydestroy.body75 ]
  %arraydestroy.element77 = getelementptr inbounds %"class.cvc5::internal::NodeTemplate", ptr %arraydestroy.elementPast76, i64 -1
  call void @_ZN4cvc58internal12NodeTemplateILb1EED2Ev(ptr noundef nonnull align 8 dereferenceable(8) %arraydestroy.element77) #3
  %arraydestroy.done78 = icmp eq ptr %arraydestroy.element77, %array.begin74
  br i1 %arraydestroy.done78, label %arraydestroy.done79, label %arraydestroy.body75

arraydestroy.done79:                              ; preds = %arraydestroy.body75
  br label %ehcleanup80

ehcleanup80:                                      ; preds = %arraydestroy.done79, %arraydestroy.done57
  call void @_ZN4cvc58internal12NodeTemplateILb1EED2Ev(ptr noundef nonnull align 8 dereferenceable(8) %agg.tmp48) #3
  br label %ehcleanup92

lpad89:                                           ; preds = %cast.end87
  %45 = landingpad { ptr, i32 }
          cleanup
  %46 = extractvalue { ptr, i32 } %45, 0
  store ptr %46, ptr %exn.slot, align 8
  %47 = extractvalue { ptr, i32 } %45, 1
  store i32 %47, ptr %ehselector.slot, align 4
  call void @_ZN4cvc58internal12NodeTemplateILb1EED2Ev(ptr noundef nonnull align 8 dereferenceable(8) %agg.tmp81) #3
  br label %ehcleanup92

ehcleanup92:                                      ; preds = %lpad89, %ehcleanup80, %lpad40, %lpad31
  call void @_ZN4cvc58internal12NodeTemplateILb1EED2Ev(ptr noundef nonnull align 8 dereferenceable(8) %naEq) #3
  br label %ehcleanup93

ehcleanup93:                                      ; preds = %ehcleanup92, %lpad29
  call void @_ZN4cvc58internal12NodeTemplateILb1EED2Ev(ptr noundef nonnull align 8 dereferenceable(8) %assertionPre) #3
  br label %ehcleanup94

cleanup:                                          ; preds = %invoke.cont90, %invoke.cont15
  call void @_ZN4cvc58internal12NodeTemplateILb1EED2Ev(ptr noundef nonnull align 8 dereferenceable(8) %newAssertion) #3
  br label %cleanup95

ehcleanup94:                                      ; preds = %ehcleanup93, %lpad14, %lpad8
  call void @_ZN4cvc58internal12NodeTemplateILb1EED2Ev(ptr noundef nonnull align 8 dereferenceable(8) %newAssertion) #3
  br label %ehcleanup96

cleanup95:                                        ; preds = %cleanup, %invoke.cont6
  call void @_ZN4cvc58internal9TrustNodeD2Ev(ptr noundef nonnull align 8 dereferenceable(24) %trn) #3
  ret void

ehcleanup96:                                      ; preds = %ehcleanup94, %lpad4
  call void @_ZN4cvc58internal9TrustNodeD2Ev(ptr noundef nonnull align 8 dereferenceable(24) %trn) #3
  br label %eh.resume

eh.resume:                                        ; preds = %ehcleanup96, %ehcleanup
  %exn = load ptr, ptr %exn.slot, align 8
  %sel = load i32, ptr %ehselector.slot, align 4
  %lpad.val = insertvalue { ptr, i32 } poison, ptr %exn, 0
  %lpad.val97 = insertvalue { ptr, i32 } %lpad.val, i32 %sel, 1
  resume { ptr, i32 } %lpad.val97
}

; Function Attrs: mustprogress uwtable
define linkonce_odr hidden noundef nonnull align 8 dereferenceable(24) ptr @_ZN4cvc58internal9TrustNodeaSERKS1_(ptr noundef nonnull align 8 dereferenceable(24) %this, ptr noundef nonnull align 8 dereferenceable(24) %0) #4 comdat align 2 {
entry:
  %this.addr = alloca ptr, align 8
  %.addr = alloca ptr, align 8
  store ptr %this, ptr %this.addr, align 8
  store ptr %0, ptr %.addr, align 8
  %this1 = load ptr, ptr %this.addr, align 8
  %1 = load ptr, ptr %.addr, align 8
  %d_tnk = getelementptr inbounds %"class.cvc5::internal::TrustNode", ptr %1, i32 0, i32 0
  %2 = load i32, ptr %d_tnk, align 8
  %d_tnk2 = getelementptr inbounds %"class.cvc5::internal::TrustNode", ptr %this1, i32 0, i32 0
  store i32 %2, ptr %d_tnk2, align 8
  %d_proven = getelementptr inbounds %"class.cvc5::internal::TrustNode", ptr %this1, i32 0, i32 1
  %3 = load ptr, ptr %.addr, align 8
  %d_proven3 = getelementptr inbounds %"class.cvc5::internal::TrustNode", ptr %3, i32 0, i32 1
  %call = call noundef nonnull align 8 dereferenceable(8) ptr @_ZN4cvc58internal12NodeTemplateILb1EEaSERKS2_(ptr noundef nonnull align 8 dereferenceable(8) %d_proven, ptr noundef nonnull align 8 dereferenceable(8) %d_proven3)
  %4 = load ptr, ptr %.addr, align 8
  %d_gen = getelementptr inbounds %"class.cvc5::internal::TrustNode", ptr %4, i32 0, i32 2
  %5 = load ptr, ptr %d_gen, align 8
  %d_gen4 = getelementptr inbounds %"class.cvc5::internal::TrustNode", ptr %this1, i32 0, i32 2
  store ptr %5, ptr %d_gen4, align 8
  ret ptr %this1
}

; Function Attrs: mustprogress nounwind uwtable
define linkonce_odr hidden void @_ZN4cvc58internal9TrustNodeD2Ev(ptr noundef nonnull align 8 dereferenceable(24) %this) unnamed_addr #5 comdat align 2 {
entry:
  %this.addr = alloca ptr, align 8
  store ptr %this, ptr %this.addr, align 8
  %this1 = load ptr, ptr %this.addr, align 8
  %d_proven = getelementptr inbounds %"class.cvc5::internal::TrustNode", ptr %this1, i32 0, i32 1
  call void @_ZN4cvc58internal12NodeTemplateILb1EED2Ev(ptr noundef nonnull align 8 dereferenceable(8) %d_proven) #3
  ret void
}

declare void @_ZN4cvc58internal9TrustNode14mkTrustRewriteENS0_12NodeTemplateILb0EEENS2_ILb1EEEPNS0_14ProofGeneratorE(ptr sret(%"class.cvc5::internal::TrustNode") align 8, ptr noundef, ptr noundef, ptr noundef) #1

; Function Attrs: mustprogress uwtable
define linkonce_odr hidden void @_ZN4cvc58internal12NodeTemplateILb1EEC2ERKS2_(ptr noundef nonnull align 8 dereferenceable(8) %this, ptr noundef nonnull align 8 dereferenceable(8) %e) unnamed_addr #4 comdat align 2 {
entry:
  %this.addr = alloca ptr, align 8
  %e.addr = alloca ptr, align 8
  store ptr %this, ptr %this.addr, align 8
  store ptr %e, ptr %e.addr, align 8
  %this1 = load ptr, ptr %this.addr, align 8
  %0 = load ptr, ptr %e.addr, align 8
  %d_nv = getelementptr inbounds %"class.cvc5::internal::NodeTemplate", ptr %0, i32 0, i32 0
  %1 = load ptr, ptr %d_nv, align 8
  %d_nv2 = getelementptr inbounds %"class.cvc5::internal::NodeTemplate", ptr %this1, i32 0, i32 0
  store ptr %1, ptr %d_nv2, align 8
  %d_nv3 = getelementptr inbounds %"class.cvc5::internal::NodeTemplate", ptr %this1, i32 0, i32 0
  %2 = load ptr, ptr %d_nv3, align 8
  call void @_ZN4cvc58internal4expr9NodeValue3incEv(ptr noundef nonnull align 8 dereferenceable(16) %2)
  ret void
}

; Function Attrs: mustprogress nounwind uwtable
define linkonce_odr hidden noundef ptr @_ZNKSt10unique_ptrIN4cvc58internal19TConvProofGeneratorESt14default_deleteIS2_EE3getEv(ptr noundef nonnull align 8 dereferenceable(8) %this) #5 comdat align 2 {
entry:
  %this.addr = alloca ptr, align 8
  store ptr %this, ptr %this.addr, align 8
  %this1 = load ptr, ptr %this.addr, align 8
  %_M_t = getelementptr inbounds %"class.std::unique_ptr", ptr %this1, i32 0, i32 0
  %call = call noundef ptr @_ZNKSt15__uniq_ptr_implIN4cvc58internal19TConvProofGeneratorESt14default_deleteIS2_EE6_M_ptrEv(ptr noundef nonnull align 8 dereferenceable(8) %_M_t) #3
  ret ptr %call
}

; Function Attrs: mustprogress nounwind uwtable
define linkonce_odr hidden void @_ZN4cvc58internal12NodeTemplateILb1EED2Ev(ptr noundef nonnull align 8 dereferenceable(8) %this) unnamed_addr #5 comdat align 2 personality ptr @__gxx_personality_v0 {
entry:
  %this.addr = alloca ptr, align 8
  store ptr %this, ptr %this.addr, align 8
  %this1 = load ptr, ptr %this.addr, align 8
  %d_nv = getelementptr inbounds %"class.cvc5::internal::NodeTemplate", ptr %this1, i32 0, i32 0
  %0 = load ptr, ptr %d_nv, align 8
  invoke void @_ZN4cvc58internal4expr9NodeValue3decEv(ptr noundef nonnull align 8 dereferenceable(16) %0)
          to label %invoke.cont unwind label %terminate.lpad

invoke.cont:                                      ; preds = %entry
  ret void

terminate.lpad:                                   ; preds = %entry
  %1 = landingpad { ptr, i32 }
          catch ptr null
  %2 = extractvalue { ptr, i32 } %1, 0
  call void @__clang_call_terminate(ptr %2) #17
  unreachable
}

declare void @_ZNK4cvc58internal9TrustNode9getProvenEv(ptr sret(%"class.cvc5::internal::NodeTemplate") align 8, ptr noundef nonnull align 8 dereferenceable(24)) #1

; Function Attrs: mustprogress nounwind uwtable
define linkonce_odr hidden void @_ZN4cvc58internal12NodeTemplateILb0EEC2ERKNS1_ILb1EEE(ptr noundef nonnull align 8 dereferenceable(8) %this, ptr noundef nonnull align 8 dereferenceable(8) %e) unnamed_addr #5 comdat align 2 {
entry:
  %this.addr = alloca ptr, align 8
  %e.addr = alloca ptr, align 8
  store ptr %this, ptr %this.addr, align 8
  store ptr %e, ptr %e.addr, align 8
  %this1 = load ptr, ptr %this.addr, align 8
  %0 = load ptr, ptr %e.addr, align 8
  %d_nv = getelementptr inbounds %"class.cvc5::internal::NodeTemplate", ptr %0, i32 0, i32 0
  %1 = load ptr, ptr %d_nv, align 8
  %d_nv2 = getelementptr inbounds %"class.cvc5::internal::NodeTemplate.313", ptr %this1, i32 0, i32 0
  store ptr %1, ptr %d_nv2, align 8
  ret void
}

declare noundef zeroext i1 @_ZNK4cvc58internal9TrustNode6isNullEv(ptr noundef nonnull align 8 dereferenceable(24)) #1

declare void @_ZNK4cvc58internal9TrustNode7getNodeEv(ptr sret(%"class.cvc5::internal::NodeTemplate") align 8, ptr noundef nonnull align 8 dereferenceable(24)) #1

declare noundef zeroext i1 @_ZNK4cvc58internal3Env22isTheoryProofProducingEv(ptr noundef nonnull align 8 dereferenceable(576)) #1

declare void @_ZN4cvc58internal9TrustNode12mkTrustLemmaENS0_12NodeTemplateILb1EEEPNS0_14ProofGeneratorE(ptr sret(%"class.cvc5::internal::TrustNode") align 8, ptr noundef, ptr noundef) #1

; Function Attrs: mustprogress nounwind uwtable
define linkonce_odr hidden noundef zeroext i1 @_ZN4cvc58internal11__cvc5_truecvbEv(ptr noundef nonnull align 1 dereferenceable(1) %this) #5 comdat align 2 {
entry:
  %this.addr = alloca ptr, align 8
  store ptr %this, ptr %this.addr, align 8
  ret i1 true
}

; Function Attrs: mustprogress uwtable
define linkonce_odr hidden void @_ZNK4cvc58internal5NullCcvNS0_11Cvc5ostreamEEv(ptr noalias sret(%"class.cvc5::internal::Cvc5ostream") align 8 %agg.result, ptr noundef nonnull align 1 dereferenceable(1) %this) #4 comdat align 2 {
entry:
  %this.addr = alloca ptr, align 8
  store ptr %this, ptr %this.addr, align 8
  call void @_ZN4cvc58internal11Cvc5ostreamC2Ev(ptr noundef nonnull align 8 dereferenceable(24) %agg.result)
  ret void
}

; Function Attrs: mustprogress uwtable
define linkonce_odr hidden void @_ZNK4cvc58internal6TraceCclEv(ptr noalias sret(%"class.cvc5::internal::Cvc5ostream") align 8 %agg.result, ptr noundef nonnull align 8 dereferenceable(32) %this) #4 comdat align 2 {
entry:
  %this.addr = alloca ptr, align 8
  store ptr %this, ptr %this.addr, align 8
  %this1 = load ptr, ptr %this.addr, align 8
  %d_os = getelementptr inbounds %"class.cvc5::internal::TraceC", ptr %this1, i32 0, i32 0
  %0 = load ptr, ptr %d_os, align 8
  call void @_ZN4cvc58internal11Cvc5ostreamC2EPSo(ptr noundef nonnull align 8 dereferenceable(24) %agg.result, ptr noundef %0)
  ret void
}

; Function Attrs: mustprogress uwtable
define linkonce_odr hidden noundef nonnull align 8 dereferenceable(24) ptr @_ZN4cvc58internal11Cvc5ostreamlsIA61_cEERS1_RKT_(ptr noundef nonnull align 8 dereferenceable(24) %this, ptr noundef nonnull align 1 dereferenceable(61) %t) #4 comdat align 2 {
entry:
  %this.addr = alloca ptr, align 8
  %t.addr = alloca ptr, align 8
  %indent = alloca i64, align 8
  %i = alloca i64, align 8
  store ptr %this, ptr %this.addr, align 8
  store ptr %t, ptr %t.addr, align 8
  %this1 = load ptr, ptr %this.addr, align 8
  %d_os = getelementptr inbounds %"class.cvc5::internal::Cvc5ostream", ptr %this1, i32 0, i32 0
  %0 = load ptr, ptr %d_os, align 8
  %cmp = icmp ne ptr %0, null
  br i1 %cmp, label %if.then, label %if.end11

if.then:                                          ; preds = %entry
  %d_firstColumn = getelementptr inbounds %"class.cvc5::internal::Cvc5ostream", ptr %this1, i32 0, i32 1
  %1 = load i8, ptr %d_firstColumn, align 8
  %tobool = trunc i8 %1 to i1
  br i1 %tobool, label %if.then2, label %if.end

if.then2:                                         ; preds = %if.then
  %d_firstColumn3 = getelementptr inbounds %"class.cvc5::internal::Cvc5ostream", ptr %this1, i32 0, i32 1
  store i8 0, ptr %d_firstColumn3, align 8
  %d_os4 = getelementptr inbounds %"class.cvc5::internal::Cvc5ostream", ptr %this1, i32 0, i32 0
  %2 = load ptr, ptr %d_os4, align 8
  %vtable = load ptr, ptr %2, align 8
  %vbase.offset.ptr = getelementptr i8, ptr %vtable, i64 -24
  %vbase.offset = load i64, ptr %vbase.offset.ptr, align 8
  %add.ptr = getelementptr inbounds i8, ptr %2, i64 %vbase.offset
  %3 = load i32, ptr @_ZN4cvc58internal11Cvc5ostream16s_indentIosIndexE, align 4
  %call = call noundef nonnull align 8 dereferenceable(8) ptr @_ZNSt8ios_base5iwordEi(ptr noundef nonnull align 8 dereferenceable(216) %add.ptr, i32 noundef %3)
  %4 = load i64, ptr %call, align 8
  store i64 %4, ptr %indent, align 8
  store i64 0, ptr %i, align 8
  br label %for.cond

for.cond:                                         ; preds = %for.inc, %if.then2
  %5 = load i64, ptr %i, align 8
  %6 = load i64, ptr %indent, align 8
  %cmp5 = icmp slt i64 %5, %6
  br i1 %cmp5, label %for.body, label %for.end

for.body:                                         ; preds = %for.cond
  %d_os6 = getelementptr inbounds %"class.cvc5::internal::Cvc5ostream", ptr %this1, i32 0, i32 0
  %7 = load ptr, ptr %d_os6, align 8
  %call7 = call noundef nonnull align 8 dereferenceable(8) ptr @_ZStlsIcSt11char_traitsIcESaIcEERSt13basic_ostreamIT_T0_ES7_RKNSt7__cxx1112basic_stringIS4_S5_T1_EE(ptr noundef nonnull align 8 dereferenceable(8) %7, ptr noundef nonnull align 8 dereferenceable(32) @_ZN4cvc58internal11Cvc5ostream5s_tabB5cxx11E)
  %d_os8 = getelementptr inbounds %"class.cvc5::internal::Cvc5ostream", ptr %this1, i32 0, i32 0
  store ptr %call7, ptr %d_os8, align 8
  br label %for.inc

for.inc:                                          ; preds = %for.body
  %8 = load i64, ptr %i, align 8
  %inc = add nsw i64 %8, 1
  store i64 %inc, ptr %i, align 8
  br label %for.cond, !llvm.loop !9

for.end:                                          ; preds = %for.cond
  br label %if.end

if.end:                                           ; preds = %for.end, %if.then
  %d_os9 = getelementptr inbounds %"class.cvc5::internal::Cvc5ostream", ptr %this1, i32 0, i32 0
  %9 = load ptr, ptr %d_os9, align 8
  %10 = load ptr, ptr %t.addr, align 8
  %arraydecay = getelementptr inbounds [61 x i8], ptr %10, i64 0, i64 0
  %call10 = call noundef nonnull align 8 dereferenceable(8) ptr @_ZStlsISt11char_traitsIcEERSt13basic_ostreamIcT_ES5_PKc(ptr noundef nonnull align 8 dereferenceable(8) %9, ptr noundef %arraydecay)
  br label %if.end11

if.end11:                                         ; preds = %if.end, %entry
  ret ptr %this1
}

; Function Attrs: mustprogress uwtable
define linkonce_odr hidden noundef nonnull align 8 dereferenceable(24) ptr @_ZN4cvc58internal11Cvc5ostreamlsEPFRSoS2_E(ptr noundef nonnull align 8 dereferenceable(24) %this, ptr noundef %pf) #4 comdat align 2 {
entry:
  %this.addr = alloca ptr, align 8
  %pf.addr = alloca ptr, align 8
  store ptr %this, ptr %this.addr, align 8
  store ptr %pf, ptr %pf.addr, align 8
  %this1 = load ptr, ptr %this.addr, align 8
  %d_os = getelementptr inbounds %"class.cvc5::internal::Cvc5ostream", ptr %this1, i32 0, i32 0
  %0 = load ptr, ptr %d_os, align 8
  %cmp = icmp ne ptr %0, null
  br i1 %cmp, label %if.then, label %if.end6

if.then:                                          ; preds = %entry
  %d_os2 = getelementptr inbounds %"class.cvc5::internal::Cvc5ostream", ptr %this1, i32 0, i32 0
  %1 = load ptr, ptr %d_os2, align 8
  %2 = load ptr, ptr %pf.addr, align 8
  %call = call noundef nonnull align 8 dereferenceable(8) ptr @_ZNSolsEPFRSoS_E(ptr noundef nonnull align 8 dereferenceable(8) %1, ptr noundef %2)
  %d_os3 = getelementptr inbounds %"class.cvc5::internal::Cvc5ostream", ptr %this1, i32 0, i32 0
  store ptr %call, ptr %d_os3, align 8
  %3 = load ptr, ptr %pf.addr, align 8
  %d_endl = getelementptr inbounds %"class.cvc5::internal::Cvc5ostream", ptr %this1, i32 0, i32 2
  %4 = load ptr, ptr %d_endl, align 8
  %cmp4 = icmp eq ptr %3, %4
  br i1 %cmp4, label %if.then5, label %if.end

if.then5:                                         ; preds = %if.then
  %d_firstColumn = getelementptr inbounds %"class.cvc5::internal::Cvc5ostream", ptr %this1, i32 0, i32 1
  store i8 1, ptr %d_firstColumn, align 8
  br label %if.end

if.end:                                           ; preds = %if.then5, %if.then
  br label %if.end6

if.end6:                                          ; preds = %if.end, %entry
  ret ptr %this1
}

declare noundef nonnull align 8 dereferenceable(8) ptr @_ZSt4endlIcSt11char_traitsIcEERSt13basic_ostreamIT_T0_ES6_(ptr noundef nonnull align 8 dereferenceable(8)) #1

; Function Attrs: nocallback nofree nounwind willreturn memory(argmem: readwrite)
declare void @llvm.memcpy.p0.p0.i64(ptr noalias nocapture writeonly, ptr noalias nocapture readonly, i64, i1 immarg) #8

declare noundef ptr @_ZNK4cvc58internal9TrustNode12getGeneratorEv(ptr noundef nonnull align 8 dereferenceable(24)) #1

; Function Attrs: mustprogress nounwind uwtable
define linkonce_odr hidden noundef ptr @_ZNKSt10unique_ptrIN4cvc58internal11LazyCDProofESt14default_deleteIS2_EE3getEv(ptr noundef nonnull align 8 dereferenceable(8) %this) #5 comdat align 2 {
entry:
  %this.addr = alloca ptr, align 8
  store ptr %this, ptr %this.addr, align 8
  %this1 = load ptr, ptr %this.addr, align 8
  %_M_t = getelementptr inbounds %"class.std::unique_ptr.3", ptr %this1, i32 0, i32 0
  %call = call noundef ptr @_ZNKSt15__uniq_ptr_implIN4cvc58internal11LazyCDProofESt14default_deleteIS2_EE6_M_ptrEv(ptr noundef nonnull align 8 dereferenceable(8) %_M_t) #3
  ret ptr %call
}

; Function Attrs: mustprogress nounwind uwtable
define linkonce_odr hidden noundef ptr @_ZNKSt10unique_ptrIN4cvc58internal11LazyCDProofESt14default_deleteIS2_EEptEv(ptr noundef nonnull align 8 dereferenceable(8) %this) #5 comdat align 2 {
entry:
  %this.addr = alloca ptr, align 8
  store ptr %this, ptr %this.addr, align 8
  %this1 = load ptr, ptr %this.addr, align 8
  %call = call noundef ptr @_ZNKSt10unique_ptrIN4cvc58internal11LazyCDProofESt14default_deleteIS2_EE3getEv(ptr noundef nonnull align 8 dereferenceable(8) %this1) #3
  ret ptr %call
}

declare void @_ZN4cvc58internal11LazyCDProof11addLazyStepENS0_12NodeTemplateILb1EEEPNS0_14ProofGeneratorENS0_7TrustIdEbPKcb(ptr noundef nonnull align 8 dereferenceable(408), ptr noundef, ptr noundef, i32 noundef, i1 noundef zeroext, ptr noundef, i1 noundef zeroext) #1

declare noundef zeroext i1 @_ZN4cvc58internal7CDProof7addStepENS0_12NodeTemplateILb1EEENS_9ProofRuleERKSt6vectorIS3_SaIS3_EES9_bNS0_12CDPOverwriteE(ptr noundef nonnull align 8 dereferenceable(217), ptr noundef, i32 noundef, ptr noundef nonnull align 8 dereferenceable(24), ptr noundef nonnull align 8 dereferenceable(24), i1 noundef zeroext, i32 noundef) #1

; Function Attrs: mustprogress nounwind uwtable
define linkonce_odr hidden void @_ZNSaIN4cvc58internal12NodeTemplateILb1EEEEC2Ev(ptr noundef nonnull align 1 dereferenceable(1) %this) unnamed_addr #5 comdat align 2 {
entry:
  %this.addr = alloca ptr, align 8
  store ptr %this, ptr %this.addr, align 8
  %this1 = load ptr, ptr %this.addr, align 8
  call void @_ZNSt15__new_allocatorIN4cvc58internal12NodeTemplateILb1EEEEC2Ev(ptr noundef nonnull align 1 dereferenceable(1) %this1) #3
  ret void
}

; Function Attrs: mustprogress uwtable
define linkonce_odr hidden void @_ZNSt6vectorIN4cvc58internal12NodeTemplateILb1EEESaIS3_EEC2ESt16initializer_listIS3_ERKS4_(ptr noundef nonnull align 8 dereferenceable(24) %this, ptr %__l.coerce0, i64 %__l.coerce1, ptr noundef nonnull align 1 dereferenceable(1) %__a) unnamed_addr #4 comdat align 2 personality ptr @__gxx_personality_v0 {
entry:
  %__l = alloca %"class.std::initializer_list", align 8
  %this.addr = alloca ptr, align 8
  %__a.addr = alloca ptr, align 8
  %exn.slot = alloca ptr, align 8
  %ehselector.slot = alloca i32, align 4
  %0 = getelementptr inbounds { ptr, i64 }, ptr %__l, i32 0, i32 0
  store ptr %__l.coerce0, ptr %0, align 8
  %1 = getelementptr inbounds { ptr, i64 }, ptr %__l, i32 0, i32 1
  store i64 %__l.coerce1, ptr %1, align 8
  store ptr %this, ptr %this.addr, align 8
  store ptr %__a, ptr %__a.addr, align 8
  %this1 = load ptr, ptr %this.addr, align 8
  %2 = load ptr, ptr %__a.addr, align 8
  call void @_ZNSt12_Vector_baseIN4cvc58internal12NodeTemplateILb1EEESaIS3_EEC2ERKS4_(ptr noundef nonnull align 8 dereferenceable(24) %this1, ptr noundef nonnull align 1 dereferenceable(1) %2) #3
  %call = call noundef ptr @_ZNKSt16initializer_listIN4cvc58internal12NodeTemplateILb1EEEE5beginEv(ptr noundef nonnull align 8 dereferenceable(16) %__l) #3
  %call2 = call noundef ptr @_ZNKSt16initializer_listIN4cvc58internal12NodeTemplateILb1EEEE3endEv(ptr noundef nonnull align 8 dereferenceable(16) %__l) #3
  invoke void @_ZNSt6vectorIN4cvc58internal12NodeTemplateILb1EEESaIS3_EE19_M_range_initializeIPKS3_EEvT_S9_St20forward_iterator_tag(ptr noundef nonnull align 8 dereferenceable(24) %this1, ptr noundef %call, ptr noundef %call2)
          to label %invoke.cont unwind label %lpad

invoke.cont:                                      ; preds = %entry
  ret void

lpad:                                             ; preds = %entry
  %3 = landingpad { ptr, i32 }
          cleanup
  %4 = extractvalue { ptr, i32 } %3, 0
  store ptr %4, ptr %exn.slot, align 8
  %5 = extractvalue { ptr, i32 } %3, 1
  store i32 %5, ptr %ehselector.slot, align 4
  call void @_ZNSt12_Vector_baseIN4cvc58internal12NodeTemplateILb1EEESaIS3_EED2Ev(ptr noundef nonnull align 8 dereferenceable(24) %this1) #3
  br label %eh.resume

eh.resume:                                        ; preds = %lpad
  %exn = load ptr, ptr %exn.slot, align 8
  %sel = load i32, ptr %ehselector.slot, align 4
  %lpad.val = insertvalue { ptr, i32 } poison, ptr %exn, 0
  %lpad.val3 = insertvalue { ptr, i32 } %lpad.val, i32 %sel, 1
  resume { ptr, i32 } %lpad.val3
}

; Function Attrs: nocallback nofree nounwind willreturn memory(argmem: write)
declare void @llvm.memset.p0.i64(ptr nocapture writeonly, i8, i64, i1 immarg) #9

; Function Attrs: mustprogress nounwind uwtable
define linkonce_odr hidden void @_ZNSt6vectorIN4cvc58internal12NodeTemplateILb1EEESaIS3_EEC2Ev(ptr noundef nonnull align 8 dereferenceable(24) %this) unnamed_addr #5 comdat align 2 {
entry:
  %this.addr = alloca ptr, align 8
  store ptr %this, ptr %this.addr, align 8
  %this1 = load ptr, ptr %this.addr, align 8
  call void @_ZNSt12_Vector_baseIN4cvc58internal12NodeTemplateILb1EEESaIS3_EEC2Ev(ptr noundef nonnull align 8 dereferenceable(24) %this1) #3
  ret void
}

; Function Attrs: mustprogress nounwind uwtable
define linkonce_odr hidden void @_ZNSt6vectorIN4cvc58internal12NodeTemplateILb1EEESaIS3_EED2Ev(ptr noundef nonnull align 8 dereferenceable(24) %this) unnamed_addr #5 comdat align 2 personality ptr @__gxx_personality_v0 {
entry:
  %this.addr = alloca ptr, align 8
  store ptr %this, ptr %this.addr, align 8
  %this1 = load ptr, ptr %this.addr, align 8
  %_M_impl = getelementptr inbounds %"struct.std::_Vector_base.325", ptr %this1, i32 0, i32 0
  %_M_start = getelementptr inbounds %"struct.std::_Vector_base<cvc5::internal::NodeTemplate<true>, std::allocator<cvc5::internal::NodeTemplate<true>>>::_Vector_impl_data", ptr %_M_impl, i32 0, i32 0
  %0 = load ptr, ptr %_M_start, align 8
  %_M_impl2 = getelementptr inbounds %"struct.std::_Vector_base.325", ptr %this1, i32 0, i32 0
  %_M_finish = getelementptr inbounds %"struct.std::_Vector_base<cvc5::internal::NodeTemplate<true>, std::allocator<cvc5::internal::NodeTemplate<true>>>::_Vector_impl_data", ptr %_M_impl2, i32 0, i32 1
  %1 = load ptr, ptr %_M_finish, align 8
  %call = call noundef nonnull align 1 dereferenceable(1) ptr @_ZNSt12_Vector_baseIN4cvc58internal12NodeTemplateILb1EEESaIS3_EE19_M_get_Tp_allocatorEv(ptr noundef nonnull align 8 dereferenceable(24) %this1) #3
  invoke void @_ZSt8_DestroyIPN4cvc58internal12NodeTemplateILb1EEES3_EvT_S5_RSaIT0_E(ptr noundef %0, ptr noundef %1, ptr noundef nonnull align 1 dereferenceable(1) %call)
          to label %invoke.cont unwind label %terminate.lpad

invoke.cont:                                      ; preds = %entry
  call void @_ZNSt12_Vector_baseIN4cvc58internal12NodeTemplateILb1EEESaIS3_EED2Ev(ptr noundef nonnull align 8 dereferenceable(24) %this1) #3
  ret void

terminate.lpad:                                   ; preds = %entry
  %2 = landingpad { ptr, i32 }
          catch ptr null
  %3 = extractvalue { ptr, i32 } %2, 0
  call void @__clang_call_terminate(ptr %3) #17
  unreachable
}

; Function Attrs: mustprogress nounwind uwtable
define linkonce_odr hidden void @_ZNSaIN4cvc58internal12NodeTemplateILb1EEEED2Ev(ptr noundef nonnull align 1 dereferenceable(1) %this) unnamed_addr #5 comdat align 2 {
entry:
  %this.addr = alloca ptr, align 8
  store ptr %this, ptr %this.addr, align 8
  %this1 = load ptr, ptr %this.addr, align 8
  call void @_ZNSt15__new_allocatorIN4cvc58internal12NodeTemplateILb1EEEED2Ev(ptr noundef nonnull align 1 dereferenceable(1) %this1) #3
  ret void
}

declare noundef ptr @_ZN4cvc58internal11NodeManager9currentNMEv() #1

declare void @_ZN4cvc58internal9TCtxStackC1EPKNS0_11TermContextE(ptr noundef nonnull align 8 dereferenceable(40), ptr noundef) unnamed_addr #1

; Function Attrs: mustprogress nounwind uwtable
define linkonce_odr hidden void @_ZNSt6vectorIbSaIbEEC2Ev(ptr noundef nonnull align 8 dereferenceable(40) %this) unnamed_addr #5 comdat align 2 {
entry:
  %this.addr = alloca ptr, align 8
  store ptr %this, ptr %this.addr, align 8
  %this1 = load ptr, ptr %this.addr, align 8
  call void @_ZNSt13_Bvector_baseISaIbEEC2Ev(ptr noundef nonnull align 8 dereferenceable(40) %this1) #3
  ret void
}

declare void @_ZN4cvc58internal9TCtxStack11pushInitialENS0_12NodeTemplateILb1EEE(ptr noundef nonnull align 8 dereferenceable(40), ptr noundef) #1

; Function Attrs: mustprogress uwtable
define linkonce_odr hidden void @_ZN4cvc58internal12NodeTemplateILb1EEC2ERKNS1_ILb0EEE(ptr noundef nonnull align 8 dereferenceable(8) %this, ptr noundef nonnull align 8 dereferenceable(8) %e) unnamed_addr #4 comdat align 2 {
entry:
  %this.addr = alloca ptr, align 8
  %e.addr = alloca ptr, align 8
  store ptr %this, ptr %this.addr, align 8
  store ptr %e, ptr %e.addr, align 8
  %this1 = load ptr, ptr %this.addr, align 8
  %0 = load ptr, ptr %e.addr, align 8
  %d_nv = getelementptr inbounds %"class.cvc5::internal::NodeTemplate.313", ptr %0, i32 0, i32 0
  %1 = load ptr, ptr %d_nv, align 8
  %d_nv2 = getelementptr inbounds %"class.cvc5::internal::NodeTemplate", ptr %this1, i32 0, i32 0
  store ptr %1, ptr %d_nv2, align 8
  %d_nv3 = getelementptr inbounds %"class.cvc5::internal::NodeTemplate", ptr %this1, i32 0, i32 0
  %2 = load ptr, ptr %d_nv3, align 8
  call void @_ZN4cvc58internal4expr9NodeValue3incEv(ptr noundef nonnull align 8 dereferenceable(16) %2)
  ret void
}

; Function Attrs: mustprogress uwtable
define linkonce_odr hidden void @_ZNSt6vectorIbSaIbEE9push_backEb(ptr noundef nonnull align 8 dereferenceable(40) %this, i1 noundef zeroext %__x) #4 comdat align 2 {
entry:
  %this.addr = alloca ptr, align 8
  %__x.addr = alloca i8, align 1
  %ref.tmp = alloca %"struct.std::_Bit_reference", align 8
  %ref.tmp3 = alloca %"struct.std::_Bit_iterator", align 8
  %agg.tmp = alloca %"struct.std::_Bit_iterator", align 8
  store ptr %this, ptr %this.addr, align 8
  %frombool = zext i1 %__x to i8
  store i8 %frombool, ptr %__x.addr, align 1
  %this1 = load ptr, ptr %this.addr, align 8
  %_M_impl = getelementptr inbounds %"struct.std::_Bvector_base", ptr %this1, i32 0, i32 0
  %_M_finish = getelementptr inbounds %"struct.std::_Bvector_base<std::allocator<bool>>::_Bvector_impl_data", ptr %_M_impl, i32 0, i32 1
  %_M_p = getelementptr inbounds %"struct.std::_Bit_iterator_base", ptr %_M_finish, i32 0, i32 0
  %0 = load ptr, ptr %_M_p, align 8
  %_M_impl2 = getelementptr inbounds %"struct.std::_Bvector_base", ptr %this1, i32 0, i32 0
  %call = call noundef ptr @_ZNKSt13_Bvector_baseISaIbEE13_Bvector_impl11_M_end_addrEv(ptr noundef nonnull align 8 dereferenceable(40) %_M_impl2) #3
  %cmp = icmp ne ptr %0, %call
  br i1 %cmp, label %if.then, label %if.else

if.then:                                          ; preds = %entry
  %1 = load i8, ptr %__x.addr, align 1
  %tobool = trunc i8 %1 to i1
  %_M_impl4 = getelementptr inbounds %"struct.std::_Bvector_base", ptr %this1, i32 0, i32 0
  %_M_finish5 = getelementptr inbounds %"struct.std::_Bvector_base<std::allocator<bool>>::_Bvector_impl_data", ptr %_M_impl4, i32 0, i32 1
  %call6 = call { ptr, i32 } @_ZNSt13_Bit_iteratorppEi(ptr noundef nonnull align 8 dereferenceable(12) %_M_finish5, i32 noundef 0)
  %2 = getelementptr inbounds { ptr, i32 }, ptr %ref.tmp3, i32 0, i32 0
  %3 = extractvalue { ptr, i32 } %call6, 0
  store ptr %3, ptr %2, align 8
  %4 = getelementptr inbounds { ptr, i32 }, ptr %ref.tmp3, i32 0, i32 1
  %5 = extractvalue { ptr, i32 } %call6, 1
  store i32 %5, ptr %4, align 8
  %call7 = call { ptr, i64 } @_ZNKSt13_Bit_iteratordeEv(ptr noundef nonnull align 8 dereferenceable(12) %ref.tmp3)
  %6 = getelementptr inbounds { ptr, i64 }, ptr %ref.tmp, i32 0, i32 0
  %7 = extractvalue { ptr, i64 } %call7, 0
  store ptr %7, ptr %6, align 8
  %8 = getelementptr inbounds { ptr, i64 }, ptr %ref.tmp, i32 0, i32 1
  %9 = extractvalue { ptr, i64 } %call7, 1
  store i64 %9, ptr %8, align 8
  %call8 = call noundef nonnull align 8 dereferenceable(16) ptr @_ZNSt14_Bit_referenceaSEb(ptr noundef nonnull align 8 dereferenceable(16) %ref.tmp, i1 noundef zeroext %tobool) #3
  br label %if.end

if.else:                                          ; preds = %entry
  %call9 = call { ptr, i32 } @_ZNSt6vectorIbSaIbEE3endEv(ptr noundef nonnull align 8 dereferenceable(40) %this1) #3
  %10 = getelementptr inbounds { ptr, i32 }, ptr %agg.tmp, i32 0, i32 0
  %11 = extractvalue { ptr, i32 } %call9, 0
  store ptr %11, ptr %10, align 8
  %12 = getelementptr inbounds { ptr, i32 }, ptr %agg.tmp, i32 0, i32 1
  %13 = extractvalue { ptr, i32 } %call9, 1
  store i32 %13, ptr %12, align 8
  %14 = load i8, ptr %__x.addr, align 1
  %tobool10 = trunc i8 %14 to i1
  %15 = getelementptr inbounds { ptr, i32 }, ptr %agg.tmp, i32 0, i32 0
  %16 = load ptr, ptr %15, align 8
  %17 = getelementptr inbounds { ptr, i32 }, ptr %agg.tmp, i32 0, i32 1
  %18 = load i32, ptr %17, align 8
  call void @_ZNSt6vectorIbSaIbEE13_M_insert_auxESt13_Bit_iteratorb(ptr noundef nonnull align 8 dereferenceable(40) %this1, ptr %16, i32 %18, i1 noundef zeroext %tobool10)
  br label %if.end

if.end:                                           ; preds = %if.else, %if.then
  ret void
}

declare void @_ZNK4cvc58internal9TCtxStack10getCurrentEv(ptr sret(%"struct.std::pair") align 8, ptr noundef nonnull align 8 dereferenceable(40)) #1

; Function Attrs: mustprogress uwtable
define linkonce_odr hidden void @_ZNSt4pairIN4cvc58internal12NodeTemplateILb1EEEjEC2IS3_jTnNSt9enable_ifIXsr6__and_ISt24is_default_constructibleIT_ES7_IT0_ESt6__not_ISt6__and_IJSt37__is_implicitly_default_constructibleIS8_ESE_ISA_EEEEEE5valueEbE4typeELb0EEEv(ptr noundef nonnull align 8 dereferenceable(12) %this) unnamed_addr #4 comdat align 2 {
entry:
  %this.addr = alloca ptr, align 8
  store ptr %this, ptr %this.addr, align 8
  %this1 = load ptr, ptr %this.addr, align 8
  %first = getelementptr inbounds %"struct.std::pair", ptr %this1, i32 0, i32 0
  call void @_ZN4cvc58internal12NodeTemplateILb1EEC2Ev(ptr noundef nonnull align 8 dereferenceable(8) %first)
  %second = getelementptr inbounds %"struct.std::pair", ptr %this1, i32 0, i32 1
  store i32 0, ptr %second, align 8
  ret void
}

; Function Attrs: mustprogress uwtable
define linkonce_odr hidden void @_ZN4cvc58internal12NodeTemplateILb1EEC2Ev(ptr noundef nonnull align 8 dereferenceable(8) %this) unnamed_addr #4 comdat align 2 {
entry:
  %this.addr = alloca ptr, align 8
  store ptr %this, ptr %this.addr, align 8
  %this1 = load ptr, ptr %this.addr, align 8
  %d_nv = getelementptr inbounds %"class.cvc5::internal::NodeTemplate", ptr %this1, i32 0, i32 0
  %call = call noundef nonnull align 8 dereferenceable(16) ptr @_ZN4cvc58internal4expr9NodeValue4nullEv()
  store ptr %call, ptr %d_nv, align 8
  ret void
}

; Function Attrs: mustprogress uwtable
define linkonce_odr hidden void @_ZNSt8__detail20_Node_const_iteratorISt4pairIKS1_IN4cvc58internal12NodeTemplateILb1EEEjEKS5_ELb0ELb1EEC2Ev(ptr noundef nonnull align 8 dereferenceable(8) %this) unnamed_addr #4 comdat align 2 {
entry:
  %this.addr = alloca ptr, align 8
  store ptr %this, ptr %this.addr, align 8
  %this1 = load ptr, ptr %this.addr, align 8
  call void @_ZNSt8__detail19_Node_iterator_baseISt4pairIKS1_IN4cvc58internal12NodeTemplateILb1EEEjEKS5_ELb1EEC2Ev(ptr noundef nonnull align 8 dereferenceable(8) %this1)
  ret void
}

declare noundef zeroext i1 @_ZNK4cvc58internal9TCtxStack5emptyEv(ptr noundef nonnull align 8 dereferenceable(40)) #1

; Function Attrs: mustprogress uwtable
define linkonce_odr hidden noundef nonnull align 8 dereferenceable(12) ptr @_ZNSt4pairIN4cvc58internal12NodeTemplateILb1EEEjEaSEOS4_(ptr noundef nonnull align 8 dereferenceable(12) %this, ptr noundef nonnull align 8 dereferenceable(12) %__p) #4 comdat align 2 {
entry:
  %this.addr = alloca ptr, align 8
  %__p.addr = alloca ptr, align 8
  store ptr %this, ptr %this.addr, align 8
  store ptr %__p, ptr %__p.addr, align 8
  %this1 = load ptr, ptr %this.addr, align 8
  %0 = load ptr, ptr %__p.addr, align 8
  %first = getelementptr inbounds %"struct.std::pair", ptr %0, i32 0, i32 0
  %first2 = getelementptr inbounds %"struct.std::pair", ptr %this1, i32 0, i32 0
  %call = call noundef nonnull align 8 dereferenceable(8) ptr @_ZN4cvc58internal12NodeTemplateILb1EEaSERKS2_(ptr noundef nonnull align 8 dereferenceable(8) %first2, ptr noundef nonnull align 8 dereferenceable(8) %first)
  %1 = load ptr, ptr %__p.addr, align 8
  %second = getelementptr inbounds %"struct.std::pair", ptr %1, i32 0, i32 1
  %2 = load i32, ptr %second, align 4
  %second3 = getelementptr inbounds %"struct.std::pair", ptr %this1, i32 0, i32 1
  store i32 %2, ptr %second3, align 8
  ret ptr %this1
}

; Function Attrs: mustprogress nounwind uwtable
define linkonce_odr hidden void @_ZNSt4pairIN4cvc58internal12NodeTemplateILb1EEEjED2Ev(ptr noundef nonnull align 8 dereferenceable(12) %this) unnamed_addr #5 comdat align 2 {
entry:
  %this.addr = alloca ptr, align 8
  store ptr %this, ptr %this.addr, align 8
  %this1 = load ptr, ptr %this.addr, align 8
  %first = getelementptr inbounds %"struct.std::pair", ptr %this1, i32 0, i32 0
  call void @_ZN4cvc58internal12NodeTemplateILb1EED2Ev(ptr noundef nonnull align 8 dereferenceable(8) %first) #3
  ret void
}

; Function Attrs: mustprogress uwtable
define linkonce_odr hidden ptr @_ZNK4cvc57context15CDInsertHashMapISt4pairINS_8internal12NodeTemplateILb1EEEjES5_NS3_16PairHashFunctionIS5_jSt4hashIS5_ES8_IjEEEE4findERKS6_(ptr noundef nonnull align 8 dereferenceable(56) %this, ptr noundef nonnull align 8 dereferenceable(12) %k) #4 comdat align 2 {
entry:
  %retval = alloca %"struct.std::__detail::_Node_const_iterator", align 8
  %this.addr = alloca ptr, align 8
  %k.addr = alloca ptr, align 8
  store ptr %this, ptr %this.addr, align 8
  store ptr %k, ptr %k.addr, align 8
  %this1 = load ptr, ptr %this.addr, align 8
  %d_insertMap = getelementptr inbounds %"class.cvc5::context::CDInsertHashMap", ptr %this1, i32 0, i32 1
  %0 = load ptr, ptr %d_insertMap, align 8
  %1 = load ptr, ptr %k.addr, align 8
  %call = call ptr @_ZNK4cvc57context13InsertHashMapISt4pairINS_8internal12NodeTemplateILb1EEEjES5_NS3_16PairHashFunctionIS5_jSt4hashIS5_ES8_IjEEEE4findERKS6_(ptr noundef nonnull align 8 dereferenceable(136) %0, ptr noundef nonnull align 8 dereferenceable(12) %1)
  %coerce.dive = getelementptr inbounds %"struct.std::__detail::_Node_const_iterator", ptr %retval, i32 0, i32 0
  %coerce.dive2 = getelementptr inbounds %"struct.std::__detail::_Node_iterator_base", ptr %coerce.dive, i32 0, i32 0
  store ptr %call, ptr %coerce.dive2, align 8
  %coerce.dive3 = getelementptr inbounds %"struct.std::__detail::_Node_const_iterator", ptr %retval, i32 0, i32 0
  %coerce.dive4 = getelementptr inbounds %"struct.std::__detail::_Node_iterator_base", ptr %coerce.dive3, i32 0, i32 0
  %2 = load ptr, ptr %coerce.dive4, align 8
  ret ptr %2
}

; Function Attrs: mustprogress uwtable
define linkonce_odr hidden noundef nonnull align 8 dereferenceable(8) ptr @_ZN4cvc58internal12NodeTemplateILb1EEaSERKS2_(ptr noundef nonnull align 8 dereferenceable(8) %this, ptr noundef nonnull align 8 dereferenceable(8) %e) #4 comdat align 2 {
entry:
  %this.addr = alloca ptr, align 8
  %e.addr = alloca ptr, align 8
  store ptr %this, ptr %this.addr, align 8
  store ptr %e, ptr %e.addr, align 8
  %this1 = load ptr, ptr %this.addr, align 8
  %d_nv = getelementptr inbounds %"class.cvc5::internal::NodeTemplate", ptr %this1, i32 0, i32 0
  %0 = load ptr, ptr %d_nv, align 8
  %1 = load ptr, ptr %e.addr, align 8
  %d_nv2 = getelementptr inbounds %"class.cvc5::internal::NodeTemplate", ptr %1, i32 0, i32 0
  %2 = load ptr, ptr %d_nv2, align 8
  %cmp = icmp ne ptr %0, %2
  br i1 %cmp, label %if.then, label %if.end

if.then:                                          ; preds = %entry
  %d_nv3 = getelementptr inbounds %"class.cvc5::internal::NodeTemplate", ptr %this1, i32 0, i32 0
  %3 = load ptr, ptr %d_nv3, align 8
  call void @_ZN4cvc58internal4expr9NodeValue3decEv(ptr noundef nonnull align 8 dereferenceable(16) %3)
  %4 = load ptr, ptr %e.addr, align 8
  %d_nv4 = getelementptr inbounds %"class.cvc5::internal::NodeTemplate", ptr %4, i32 0, i32 0
  %5 = load ptr, ptr %d_nv4, align 8
  %d_nv5 = getelementptr inbounds %"class.cvc5::internal::NodeTemplate", ptr %this1, i32 0, i32 0
  store ptr %5, ptr %d_nv5, align 8
  %d_nv6 = getelementptr inbounds %"class.cvc5::internal::NodeTemplate", ptr %this1, i32 0, i32 0
  %6 = load ptr, ptr %d_nv6, align 8
  call void @_ZN4cvc58internal4expr9NodeValue3incEv(ptr noundef nonnull align 8 dereferenceable(16) %6)
  br label %if.end

if.end:                                           ; preds = %if.then, %entry
  ret ptr %this1
}

; Function Attrs: mustprogress uwtable
define linkonce_odr hidden noundef nonnull align 8 dereferenceable(24) ptr @_ZN4cvc58internal11Cvc5ostreamlsIA7_cEERS1_RKT_(ptr noundef nonnull align 8 dereferenceable(24) %this, ptr noundef nonnull align 1 dereferenceable(7) %t) #4 comdat align 2 {
entry:
  %this.addr = alloca ptr, align 8
  %t.addr = alloca ptr, align 8
  %indent = alloca i64, align 8
  %i = alloca i64, align 8
  store ptr %this, ptr %this.addr, align 8
  store ptr %t, ptr %t.addr, align 8
  %this1 = load ptr, ptr %this.addr, align 8
  %d_os = getelementptr inbounds %"class.cvc5::internal::Cvc5ostream", ptr %this1, i32 0, i32 0
  %0 = load ptr, ptr %d_os, align 8
  %cmp = icmp ne ptr %0, null
  br i1 %cmp, label %if.then, label %if.end11

if.then:                                          ; preds = %entry
  %d_firstColumn = getelementptr inbounds %"class.cvc5::internal::Cvc5ostream", ptr %this1, i32 0, i32 1
  %1 = load i8, ptr %d_firstColumn, align 8
  %tobool = trunc i8 %1 to i1
  br i1 %tobool, label %if.then2, label %if.end

if.then2:                                         ; preds = %if.then
  %d_firstColumn3 = getelementptr inbounds %"class.cvc5::internal::Cvc5ostream", ptr %this1, i32 0, i32 1
  store i8 0, ptr %d_firstColumn3, align 8
  %d_os4 = getelementptr inbounds %"class.cvc5::internal::Cvc5ostream", ptr %this1, i32 0, i32 0
  %2 = load ptr, ptr %d_os4, align 8
  %vtable = load ptr, ptr %2, align 8
  %vbase.offset.ptr = getelementptr i8, ptr %vtable, i64 -24
  %vbase.offset = load i64, ptr %vbase.offset.ptr, align 8
  %add.ptr = getelementptr inbounds i8, ptr %2, i64 %vbase.offset
  %3 = load i32, ptr @_ZN4cvc58internal11Cvc5ostream16s_indentIosIndexE, align 4
  %call = call noundef nonnull align 8 dereferenceable(8) ptr @_ZNSt8ios_base5iwordEi(ptr noundef nonnull align 8 dereferenceable(216) %add.ptr, i32 noundef %3)
  %4 = load i64, ptr %call, align 8
  store i64 %4, ptr %indent, align 8
  store i64 0, ptr %i, align 8
  br label %for.cond

for.cond:                                         ; preds = %for.inc, %if.then2
  %5 = load i64, ptr %i, align 8
  %6 = load i64, ptr %indent, align 8
  %cmp5 = icmp slt i64 %5, %6
  br i1 %cmp5, label %for.body, label %for.end

for.body:                                         ; preds = %for.cond
  %d_os6 = getelementptr inbounds %"class.cvc5::internal::Cvc5ostream", ptr %this1, i32 0, i32 0
  %7 = load ptr, ptr %d_os6, align 8
  %call7 = call noundef nonnull align 8 dereferenceable(8) ptr @_ZStlsIcSt11char_traitsIcESaIcEERSt13basic_ostreamIT_T0_ES7_RKNSt7__cxx1112basic_stringIS4_S5_T1_EE(ptr noundef nonnull align 8 dereferenceable(8) %7, ptr noundef nonnull align 8 dereferenceable(32) @_ZN4cvc58internal11Cvc5ostream5s_tabB5cxx11E)
  %d_os8 = getelementptr inbounds %"class.cvc5::internal::Cvc5ostream", ptr %this1, i32 0, i32 0
  store ptr %call7, ptr %d_os8, align 8
  br label %for.inc

for.inc:                                          ; preds = %for.body
  %8 = load i64, ptr %i, align 8
  %inc = add nsw i64 %8, 1
  store i64 %inc, ptr %i, align 8
  br label %for.cond, !llvm.loop !10

for.end:                                          ; preds = %for.cond
  br label %if.end

if.end:                                           ; preds = %for.end, %if.then
  %d_os9 = getelementptr inbounds %"class.cvc5::internal::Cvc5ostream", ptr %this1, i32 0, i32 0
  %9 = load ptr, ptr %d_os9, align 8
  %10 = load ptr, ptr %t.addr, align 8
  %arraydecay = getelementptr inbounds [7 x i8], ptr %10, i64 0, i64 0
  %call10 = call noundef nonnull align 8 dereferenceable(8) ptr @_ZStlsISt11char_traitsIcEERSt13basic_ostreamIcT_ES5_PKc(ptr noundef nonnull align 8 dereferenceable(8) %9, ptr noundef %arraydecay)
  br label %if.end11

if.end11:                                         ; preds = %if.end, %entry
  ret ptr %this1
}

; Function Attrs: mustprogress uwtable
define linkonce_odr hidden noundef nonnull align 8 dereferenceable(24) ptr @_ZN4cvc58internal11Cvc5ostreamlsINS0_12NodeTemplateILb1EEEEERS1_RKT_(ptr noundef nonnull align 8 dereferenceable(24) %this, ptr noundef nonnull align 8 dereferenceable(8) %t) #4 comdat align 2 personality ptr @__gxx_personality_v0 {
entry:
  %this.addr = alloca ptr, align 8
  %t.addr = alloca ptr, align 8
  %indent = alloca i64, align 8
  %i = alloca i64, align 8
  %agg.tmp = alloca %"class.cvc5::internal::NodeTemplate.313", align 8
  %exn.slot = alloca ptr, align 8
  %ehselector.slot = alloca i32, align 4
  store ptr %this, ptr %this.addr, align 8
  store ptr %t, ptr %t.addr, align 8
  %this1 = load ptr, ptr %this.addr, align 8
  %d_os = getelementptr inbounds %"class.cvc5::internal::Cvc5ostream", ptr %this1, i32 0, i32 0
  %0 = load ptr, ptr %d_os, align 8
  %cmp = icmp ne ptr %0, null
  br i1 %cmp, label %if.then, label %if.end11

if.then:                                          ; preds = %entry
  %d_firstColumn = getelementptr inbounds %"class.cvc5::internal::Cvc5ostream", ptr %this1, i32 0, i32 1
  %1 = load i8, ptr %d_firstColumn, align 8
  %tobool = trunc i8 %1 to i1
  br i1 %tobool, label %if.then2, label %if.end

if.then2:                                         ; preds = %if.then
  %d_firstColumn3 = getelementptr inbounds %"class.cvc5::internal::Cvc5ostream", ptr %this1, i32 0, i32 1
  store i8 0, ptr %d_firstColumn3, align 8
  %d_os4 = getelementptr inbounds %"class.cvc5::internal::Cvc5ostream", ptr %this1, i32 0, i32 0
  %2 = load ptr, ptr %d_os4, align 8
  %vtable = load ptr, ptr %2, align 8
  %vbase.offset.ptr = getelementptr i8, ptr %vtable, i64 -24
  %vbase.offset = load i64, ptr %vbase.offset.ptr, align 8
  %add.ptr = getelementptr inbounds i8, ptr %2, i64 %vbase.offset
  %3 = load i32, ptr @_ZN4cvc58internal11Cvc5ostream16s_indentIosIndexE, align 4
  %call = call noundef nonnull align 8 dereferenceable(8) ptr @_ZNSt8ios_base5iwordEi(ptr noundef nonnull align 8 dereferenceable(216) %add.ptr, i32 noundef %3)
  %4 = load i64, ptr %call, align 8
  store i64 %4, ptr %indent, align 8
  store i64 0, ptr %i, align 8
  br label %for.cond

for.cond:                                         ; preds = %for.inc, %if.then2
  %5 = load i64, ptr %i, align 8
  %6 = load i64, ptr %indent, align 8
  %cmp5 = icmp slt i64 %5, %6
  br i1 %cmp5, label %for.body, label %for.end

for.body:                                         ; preds = %for.cond
  %d_os6 = getelementptr inbounds %"class.cvc5::internal::Cvc5ostream", ptr %this1, i32 0, i32 0
  %7 = load ptr, ptr %d_os6, align 8
  %call7 = call noundef nonnull align 8 dereferenceable(8) ptr @_ZStlsIcSt11char_traitsIcESaIcEERSt13basic_ostreamIT_T0_ES7_RKNSt7__cxx1112basic_stringIS4_S5_T1_EE(ptr noundef nonnull align 8 dereferenceable(8) %7, ptr noundef nonnull align 8 dereferenceable(32) @_ZN4cvc58internal11Cvc5ostream5s_tabB5cxx11E)
  %d_os8 = getelementptr inbounds %"class.cvc5::internal::Cvc5ostream", ptr %this1, i32 0, i32 0
  store ptr %call7, ptr %d_os8, align 8
  br label %for.inc

for.inc:                                          ; preds = %for.body
  %8 = load i64, ptr %i, align 8
  %inc = add nsw i64 %8, 1
  store i64 %inc, ptr %i, align 8
  br label %for.cond, !llvm.loop !11

for.end:                                          ; preds = %for.cond
  br label %if.end

if.end:                                           ; preds = %for.end, %if.then
  %d_os9 = getelementptr inbounds %"class.cvc5::internal::Cvc5ostream", ptr %this1, i32 0, i32 0
  %9 = load ptr, ptr %d_os9, align 8
  %10 = load ptr, ptr %t.addr, align 8
  call void @_ZN4cvc58internal12NodeTemplateILb0EEC2ERKNS1_ILb1EEE(ptr noundef nonnull align 8 dereferenceable(8) %agg.tmp, ptr noundef nonnull align 8 dereferenceable(8) %10)
  %call10 = invoke noundef nonnull align 8 dereferenceable(8) ptr @_ZN4cvc58internallsERSoNS0_12NodeTemplateILb0EEE(ptr noundef nonnull align 8 dereferenceable(8) %9, ptr noundef %agg.tmp)
          to label %invoke.cont unwind label %lpad

invoke.cont:                                      ; preds = %if.end
  call void @_ZN4cvc58internal12NodeTemplateILb0EED2Ev(ptr noundef nonnull align 8 dereferenceable(8) %agg.tmp) #3
  br label %if.end11

lpad:                                             ; preds = %if.end
  %11 = landingpad { ptr, i32 }
          cleanup
  %12 = extractvalue { ptr, i32 } %11, 0
  store ptr %12, ptr %exn.slot, align 8
  %13 = extractvalue { ptr, i32 } %11, 1
  store i32 %13, ptr %ehselector.slot, align 4
  call void @_ZN4cvc58internal12NodeTemplateILb0EED2Ev(ptr noundef nonnull align 8 dereferenceable(8) %agg.tmp) #3
  br label %eh.resume

if.end11:                                         ; preds = %invoke.cont, %entry
  ret ptr %this1

eh.resume:                                        ; preds = %lpad
  %exn = load ptr, ptr %exn.slot, align 8
  %sel = load i32, ptr %ehselector.slot, align 4
  %lpad.val = insertvalue { ptr, i32 } poison, ptr %exn, 0
  %lpad.val12 = insertvalue { ptr, i32 } %lpad.val, i32 %sel, 1
  resume { ptr, i32 } %lpad.val12
}

; Function Attrs: mustprogress uwtable
define linkonce_odr hidden noundef nonnull align 8 dereferenceable(24) ptr @_ZN4cvc58internal11Cvc5ostreamlsIA3_cEERS1_RKT_(ptr noundef nonnull align 8 dereferenceable(24) %this, ptr noundef nonnull align 1 dereferenceable(3) %t) #4 comdat align 2 {
entry:
  %this.addr = alloca ptr, align 8
  %t.addr = alloca ptr, align 8
  %indent = alloca i64, align 8
  %i = alloca i64, align 8
  store ptr %this, ptr %this.addr, align 8
  store ptr %t, ptr %t.addr, align 8
  %this1 = load ptr, ptr %this.addr, align 8
  %d_os = getelementptr inbounds %"class.cvc5::internal::Cvc5ostream", ptr %this1, i32 0, i32 0
  %0 = load ptr, ptr %d_os, align 8
  %cmp = icmp ne ptr %0, null
  br i1 %cmp, label %if.then, label %if.end11

if.then:                                          ; preds = %entry
  %d_firstColumn = getelementptr inbounds %"class.cvc5::internal::Cvc5ostream", ptr %this1, i32 0, i32 1
  %1 = load i8, ptr %d_firstColumn, align 8
  %tobool = trunc i8 %1 to i1
  br i1 %tobool, label %if.then2, label %if.end

if.then2:                                         ; preds = %if.then
  %d_firstColumn3 = getelementptr inbounds %"class.cvc5::internal::Cvc5ostream", ptr %this1, i32 0, i32 1
  store i8 0, ptr %d_firstColumn3, align 8
  %d_os4 = getelementptr inbounds %"class.cvc5::internal::Cvc5ostream", ptr %this1, i32 0, i32 0
  %2 = load ptr, ptr %d_os4, align 8
  %vtable = load ptr, ptr %2, align 8
  %vbase.offset.ptr = getelementptr i8, ptr %vtable, i64 -24
  %vbase.offset = load i64, ptr %vbase.offset.ptr, align 8
  %add.ptr = getelementptr inbounds i8, ptr %2, i64 %vbase.offset
  %3 = load i32, ptr @_ZN4cvc58internal11Cvc5ostream16s_indentIosIndexE, align 4
  %call = call noundef nonnull align 8 dereferenceable(8) ptr @_ZNSt8ios_base5iwordEi(ptr noundef nonnull align 8 dereferenceable(216) %add.ptr, i32 noundef %3)
  %4 = load i64, ptr %call, align 8
  store i64 %4, ptr %indent, align 8
  store i64 0, ptr %i, align 8
  br label %for.cond

for.cond:                                         ; preds = %for.inc, %if.then2
  %5 = load i64, ptr %i, align 8
  %6 = load i64, ptr %indent, align 8
  %cmp5 = icmp slt i64 %5, %6
  br i1 %cmp5, label %for.body, label %for.end

for.body:                                         ; preds = %for.cond
  %d_os6 = getelementptr inbounds %"class.cvc5::internal::Cvc5ostream", ptr %this1, i32 0, i32 0
  %7 = load ptr, ptr %d_os6, align 8
  %call7 = call noundef nonnull align 8 dereferenceable(8) ptr @_ZStlsIcSt11char_traitsIcESaIcEERSt13basic_ostreamIT_T0_ES7_RKNSt7__cxx1112basic_stringIS4_S5_T1_EE(ptr noundef nonnull align 8 dereferenceable(8) %7, ptr noundef nonnull align 8 dereferenceable(32) @_ZN4cvc58internal11Cvc5ostream5s_tabB5cxx11E)
  %d_os8 = getelementptr inbounds %"class.cvc5::internal::Cvc5ostream", ptr %this1, i32 0, i32 0
  store ptr %call7, ptr %d_os8, align 8
  br label %for.inc

for.inc:                                          ; preds = %for.body
  %8 = load i64, ptr %i, align 8
  %inc = add nsw i64 %8, 1
  store i64 %inc, ptr %i, align 8
  br label %for.cond, !llvm.loop !12

for.end:                                          ; preds = %for.cond
  br label %if.end

if.end:                                           ; preds = %for.end, %if.then
  %d_os9 = getelementptr inbounds %"class.cvc5::internal::Cvc5ostream", ptr %this1, i32 0, i32 0
  %9 = load ptr, ptr %d_os9, align 8
  %10 = load ptr, ptr %t.addr, align 8
  %arraydecay = getelementptr inbounds [3 x i8], ptr %10, i64 0, i64 0
  %call10 = call noundef nonnull align 8 dereferenceable(8) ptr @_ZStlsISt11char_traitsIcEERSt13basic_ostreamIcT_ES5_PKc(ptr noundef nonnull align 8 dereferenceable(8) %9, ptr noundef %arraydecay)
  br label %if.end11

if.end11:                                         ; preds = %if.end, %entry
  ret ptr %this1
}

; Function Attrs: mustprogress uwtable
define linkonce_odr hidden noundef nonnull align 8 dereferenceable(24) ptr @_ZN4cvc58internal11Cvc5ostreamlsIjEERS1_RKT_(ptr noundef nonnull align 8 dereferenceable(24) %this, ptr noundef nonnull align 4 dereferenceable(4) %t) #4 comdat align 2 {
entry:
  %this.addr = alloca ptr, align 8
  %t.addr = alloca ptr, align 8
  %indent = alloca i64, align 8
  %i = alloca i64, align 8
  store ptr %this, ptr %this.addr, align 8
  store ptr %t, ptr %t.addr, align 8
  %this1 = load ptr, ptr %this.addr, align 8
  %d_os = getelementptr inbounds %"class.cvc5::internal::Cvc5ostream", ptr %this1, i32 0, i32 0
  %0 = load ptr, ptr %d_os, align 8
  %cmp = icmp ne ptr %0, null
  br i1 %cmp, label %if.then, label %if.end11

if.then:                                          ; preds = %entry
  %d_firstColumn = getelementptr inbounds %"class.cvc5::internal::Cvc5ostream", ptr %this1, i32 0, i32 1
  %1 = load i8, ptr %d_firstColumn, align 8
  %tobool = trunc i8 %1 to i1
  br i1 %tobool, label %if.then2, label %if.end

if.then2:                                         ; preds = %if.then
  %d_firstColumn3 = getelementptr inbounds %"class.cvc5::internal::Cvc5ostream", ptr %this1, i32 0, i32 1
  store i8 0, ptr %d_firstColumn3, align 8
  %d_os4 = getelementptr inbounds %"class.cvc5::internal::Cvc5ostream", ptr %this1, i32 0, i32 0
  %2 = load ptr, ptr %d_os4, align 8
  %vtable = load ptr, ptr %2, align 8
  %vbase.offset.ptr = getelementptr i8, ptr %vtable, i64 -24
  %vbase.offset = load i64, ptr %vbase.offset.ptr, align 8
  %add.ptr = getelementptr inbounds i8, ptr %2, i64 %vbase.offset
  %3 = load i32, ptr @_ZN4cvc58internal11Cvc5ostream16s_indentIosIndexE, align 4
  %call = call noundef nonnull align 8 dereferenceable(8) ptr @_ZNSt8ios_base5iwordEi(ptr noundef nonnull align 8 dereferenceable(216) %add.ptr, i32 noundef %3)
  %4 = load i64, ptr %call, align 8
  store i64 %4, ptr %indent, align 8
  store i64 0, ptr %i, align 8
  br label %for.cond

for.cond:                                         ; preds = %for.inc, %if.then2
  %5 = load i64, ptr %i, align 8
  %6 = load i64, ptr %indent, align 8
  %cmp5 = icmp slt i64 %5, %6
  br i1 %cmp5, label %for.body, label %for.end

for.body:                                         ; preds = %for.cond
  %d_os6 = getelementptr inbounds %"class.cvc5::internal::Cvc5ostream", ptr %this1, i32 0, i32 0
  %7 = load ptr, ptr %d_os6, align 8
  %call7 = call noundef nonnull align 8 dereferenceable(8) ptr @_ZStlsIcSt11char_traitsIcESaIcEERSt13basic_ostreamIT_T0_ES7_RKNSt7__cxx1112basic_stringIS4_S5_T1_EE(ptr noundef nonnull align 8 dereferenceable(8) %7, ptr noundef nonnull align 8 dereferenceable(32) @_ZN4cvc58internal11Cvc5ostream5s_tabB5cxx11E)
  %d_os8 = getelementptr inbounds %"class.cvc5::internal::Cvc5ostream", ptr %this1, i32 0, i32 0
  store ptr %call7, ptr %d_os8, align 8
  br label %for.inc

for.inc:                                          ; preds = %for.body
  %8 = load i64, ptr %i, align 8
  %inc = add nsw i64 %8, 1
  store i64 %inc, ptr %i, align 8
  br label %for.cond, !llvm.loop !13

for.end:                                          ; preds = %for.cond
  br label %if.end

if.end:                                           ; preds = %for.end, %if.then
  %d_os9 = getelementptr inbounds %"class.cvc5::internal::Cvc5ostream", ptr %this1, i32 0, i32 0
  %9 = load ptr, ptr %d_os9, align 8
  %10 = load ptr, ptr %t.addr, align 8
  %11 = load i32, ptr %10, align 4
  %call10 = call noundef nonnull align 8 dereferenceable(8) ptr @_ZNSolsEj(ptr noundef nonnull align 8 dereferenceable(8) %9, i32 noundef %11)
  br label %if.end11

if.end11:                                         ; preds = %if.end, %entry
  ret ptr %this1
}

; Function Attrs: mustprogress nounwind uwtable
define linkonce_odr noundef zeroext i1 @_ZNSt8__detailneERKNS_19_Node_iterator_baseISt4pairIKS1_IN4cvc58internal12NodeTemplateILb1EEEjEKS5_ELb1EEESC_(ptr noundef nonnull align 8 dereferenceable(8) %__x, ptr noundef nonnull align 8 dereferenceable(8) %__y) #5 comdat {
entry:
  %__x.addr = alloca ptr, align 8
  %__y.addr = alloca ptr, align 8
  store ptr %__x, ptr %__x.addr, align 8
  store ptr %__y, ptr %__y.addr, align 8
  %0 = load ptr, ptr %__x.addr, align 8
  %_M_cur = getelementptr inbounds %"struct.std::__detail::_Node_iterator_base", ptr %0, i32 0, i32 0
  %1 = load ptr, ptr %_M_cur, align 8
  %2 = load ptr, ptr %__y.addr, align 8
  %_M_cur1 = getelementptr inbounds %"struct.std::__detail::_Node_iterator_base", ptr %2, i32 0, i32 0
  %3 = load ptr, ptr %_M_cur1, align 8
  %cmp = icmp ne ptr %1, %3
  ret i1 %cmp
}

; Function Attrs: mustprogress uwtable
define linkonce_odr hidden ptr @_ZNK4cvc57context15CDInsertHashMapISt4pairINS_8internal12NodeTemplateILb1EEEjES5_NS3_16PairHashFunctionIS5_jSt4hashIS5_ES8_IjEEEE3endEv(ptr noundef nonnull align 8 dereferenceable(56) %this) #4 comdat align 2 {
entry:
  %retval = alloca %"struct.std::__detail::_Node_const_iterator", align 8
  %this.addr = alloca ptr, align 8
  store ptr %this, ptr %this.addr, align 8
  %this1 = load ptr, ptr %this.addr, align 8
  %d_insertMap = getelementptr inbounds %"class.cvc5::context::CDInsertHashMap", ptr %this1, i32 0, i32 1
  %0 = load ptr, ptr %d_insertMap, align 8
  %call = call ptr @_ZNK4cvc57context13InsertHashMapISt4pairINS_8internal12NodeTemplateILb1EEEjES5_NS3_16PairHashFunctionIS5_jSt4hashIS5_ES8_IjEEEE3endEv(ptr noundef nonnull align 8 dereferenceable(136) %0)
  %coerce.dive = getelementptr inbounds %"struct.std::__detail::_Node_const_iterator", ptr %retval, i32 0, i32 0
  %coerce.dive2 = getelementptr inbounds %"struct.std::__detail::_Node_iterator_base", ptr %coerce.dive, i32 0, i32 0
  store ptr %call, ptr %coerce.dive2, align 8
  %coerce.dive3 = getelementptr inbounds %"struct.std::__detail::_Node_const_iterator", ptr %retval, i32 0, i32 0
  %coerce.dive4 = getelementptr inbounds %"struct.std::__detail::_Node_iterator_base", ptr %coerce.dive3, i32 0, i32 0
  %1 = load ptr, ptr %coerce.dive4, align 8
  ret ptr %1
}

; Function Attrs: mustprogress uwtable
define linkonce_odr hidden noundef nonnull align 8 dereferenceable(24) ptr @_ZN4cvc58internal11Cvc5ostreamlsIA20_cEERS1_RKT_(ptr noundef nonnull align 8 dereferenceable(24) %this, ptr noundef nonnull align 1 dereferenceable(20) %t) #4 comdat align 2 {
entry:
  %this.addr = alloca ptr, align 8
  %t.addr = alloca ptr, align 8
  %indent = alloca i64, align 8
  %i = alloca i64, align 8
  store ptr %this, ptr %this.addr, align 8
  store ptr %t, ptr %t.addr, align 8
  %this1 = load ptr, ptr %this.addr, align 8
  %d_os = getelementptr inbounds %"class.cvc5::internal::Cvc5ostream", ptr %this1, i32 0, i32 0
  %0 = load ptr, ptr %d_os, align 8
  %cmp = icmp ne ptr %0, null
  br i1 %cmp, label %if.then, label %if.end11

if.then:                                          ; preds = %entry
  %d_firstColumn = getelementptr inbounds %"class.cvc5::internal::Cvc5ostream", ptr %this1, i32 0, i32 1
  %1 = load i8, ptr %d_firstColumn, align 8
  %tobool = trunc i8 %1 to i1
  br i1 %tobool, label %if.then2, label %if.end

if.then2:                                         ; preds = %if.then
  %d_firstColumn3 = getelementptr inbounds %"class.cvc5::internal::Cvc5ostream", ptr %this1, i32 0, i32 1
  store i8 0, ptr %d_firstColumn3, align 8
  %d_os4 = getelementptr inbounds %"class.cvc5::internal::Cvc5ostream", ptr %this1, i32 0, i32 0
  %2 = load ptr, ptr %d_os4, align 8
  %vtable = load ptr, ptr %2, align 8
  %vbase.offset.ptr = getelementptr i8, ptr %vtable, i64 -24
  %vbase.offset = load i64, ptr %vbase.offset.ptr, align 8
  %add.ptr = getelementptr inbounds i8, ptr %2, i64 %vbase.offset
  %3 = load i32, ptr @_ZN4cvc58internal11Cvc5ostream16s_indentIosIndexE, align 4
  %call = call noundef nonnull align 8 dereferenceable(8) ptr @_ZNSt8ios_base5iwordEi(ptr noundef nonnull align 8 dereferenceable(216) %add.ptr, i32 noundef %3)
  %4 = load i64, ptr %call, align 8
  store i64 %4, ptr %indent, align 8
  store i64 0, ptr %i, align 8
  br label %for.cond

for.cond:                                         ; preds = %for.inc, %if.then2
  %5 = load i64, ptr %i, align 8
  %6 = load i64, ptr %indent, align 8
  %cmp5 = icmp slt i64 %5, %6
  br i1 %cmp5, label %for.body, label %for.end

for.body:                                         ; preds = %for.cond
  %d_os6 = getelementptr inbounds %"class.cvc5::internal::Cvc5ostream", ptr %this1, i32 0, i32 0
  %7 = load ptr, ptr %d_os6, align 8
  %call7 = call noundef nonnull align 8 dereferenceable(8) ptr @_ZStlsIcSt11char_traitsIcESaIcEERSt13basic_ostreamIT_T0_ES7_RKNSt7__cxx1112basic_stringIS4_S5_T1_EE(ptr noundef nonnull align 8 dereferenceable(8) %7, ptr noundef nonnull align 8 dereferenceable(32) @_ZN4cvc58internal11Cvc5ostream5s_tabB5cxx11E)
  %d_os8 = getelementptr inbounds %"class.cvc5::internal::Cvc5ostream", ptr %this1, i32 0, i32 0
  store ptr %call7, ptr %d_os8, align 8
  br label %for.inc

for.inc:                                          ; preds = %for.body
  %8 = load i64, ptr %i, align 8
  %inc = add nsw i64 %8, 1
  store i64 %inc, ptr %i, align 8
  br label %for.cond, !llvm.loop !14

for.end:                                          ; preds = %for.cond
  br label %if.end

if.end:                                           ; preds = %for.end, %if.then
  %d_os9 = getelementptr inbounds %"class.cvc5::internal::Cvc5ostream", ptr %this1, i32 0, i32 0
  %9 = load ptr, ptr %d_os9, align 8
  %10 = load ptr, ptr %t.addr, align 8
  %arraydecay = getelementptr inbounds [20 x i8], ptr %10, i64 0, i64 0
  %call10 = call noundef nonnull align 8 dereferenceable(8) ptr @_ZStlsISt11char_traitsIcEERSt13basic_ostreamIcT_ES5_PKc(ptr noundef nonnull align 8 dereferenceable(8) %9, ptr noundef %arraydecay)
  br label %if.end11

if.end11:                                         ; preds = %if.end, %entry
  ret ptr %this1
}

declare void @_ZN4cvc58internal9TCtxStack3popEv(ptr noundef nonnull align 8 dereferenceable(40)) #1

; Function Attrs: mustprogress uwtable
define linkonce_odr hidden void @_ZNSt6vectorIbSaIbEE8pop_backEv(ptr noundef nonnull align 8 dereferenceable(40) %this) #4 comdat align 2 {
entry:
  %this.addr = alloca ptr, align 8
  store ptr %this, ptr %this.addr, align 8
  %this1 = load ptr, ptr %this.addr, align 8
  %_M_impl = getelementptr inbounds %"struct.std::_Bvector_base", ptr %this1, i32 0, i32 0
  %_M_finish = getelementptr inbounds %"struct.std::_Bvector_base<std::allocator<bool>>::_Bvector_impl_data", ptr %_M_impl, i32 0, i32 1
  %call = call noundef nonnull align 8 dereferenceable(12) ptr @_ZNSt13_Bit_iteratormmEv(ptr noundef nonnull align 8 dereferenceable(12) %_M_finish)
  ret void
}

; Function Attrs: mustprogress uwtable
define linkonce_odr hidden { ptr, i64 } @_ZNSt6vectorIbSaIbEE4backEv(ptr noundef nonnull align 8 dereferenceable(40) %this) #4 comdat align 2 {
entry:
  %retval = alloca %"struct.std::_Bit_reference", align 8
  %this.addr = alloca ptr, align 8
  %ref.tmp = alloca %"struct.std::_Bit_iterator", align 8
  %ref.tmp2 = alloca %"struct.std::_Bit_iterator", align 8
  store ptr %this, ptr %this.addr, align 8
  %this1 = load ptr, ptr %this.addr, align 8
  %call = call { ptr, i32 } @_ZNSt6vectorIbSaIbEE3endEv(ptr noundef nonnull align 8 dereferenceable(40) %this1) #3
  %0 = getelementptr inbounds { ptr, i32 }, ptr %ref.tmp2, i32 0, i32 0
  %1 = extractvalue { ptr, i32 } %call, 0
  store ptr %1, ptr %0, align 8
  %2 = getelementptr inbounds { ptr, i32 }, ptr %ref.tmp2, i32 0, i32 1
  %3 = extractvalue { ptr, i32 } %call, 1
  store i32 %3, ptr %2, align 8
  %call3 = call { ptr, i32 } @_ZStmiRKSt13_Bit_iteratorl(ptr noundef nonnull align 8 dereferenceable(12) %ref.tmp2, i64 noundef 1)
  %4 = getelementptr inbounds { ptr, i32 }, ptr %ref.tmp, i32 0, i32 0
  %5 = extractvalue { ptr, i32 } %call3, 0
  store ptr %5, ptr %4, align 8
  %6 = getelementptr inbounds { ptr, i32 }, ptr %ref.tmp, i32 0, i32 1
  %7 = extractvalue { ptr, i32 } %call3, 1
  store i32 %7, ptr %6, align 8
  %call4 = call { ptr, i64 } @_ZNKSt13_Bit_iteratordeEv(ptr noundef nonnull align 8 dereferenceable(12) %ref.tmp)
  %8 = getelementptr inbounds { ptr, i64 }, ptr %retval, i32 0, i32 0
  %9 = extractvalue { ptr, i64 } %call4, 0
  store ptr %9, ptr %8, align 8
  %10 = getelementptr inbounds { ptr, i64 }, ptr %retval, i32 0, i32 1
  %11 = extractvalue { ptr, i64 } %call4, 1
  store i64 %11, ptr %10, align 8
  %12 = load { ptr, i64 }, ptr %retval, align 8
  ret { ptr, i64 } %12
}

; Function Attrs: mustprogress nounwind uwtable
define linkonce_odr hidden noundef zeroext i1 @_ZNKSt14_Bit_referencecvbEv(ptr noundef nonnull align 8 dereferenceable(16) %this) #5 comdat align 2 {
entry:
  %this.addr = alloca ptr, align 8
  store ptr %this, ptr %this.addr, align 8
  %this1 = load ptr, ptr %this.addr, align 8
  %_M_p = getelementptr inbounds %"struct.std::_Bit_reference", ptr %this1, i32 0, i32 0
  %0 = load ptr, ptr %_M_p, align 8
  %1 = load i64, ptr %0, align 8
  %_M_mask = getelementptr inbounds %"struct.std::_Bit_reference", ptr %this1, i32 0, i32 1
  %2 = load i64, ptr %_M_mask, align 8
  %and = and i64 %1, %2
  %tobool = icmp ne i64 %and, 0
  %lnot = xor i1 %tobool, true
  %lnot2 = xor i1 %lnot, true
  ret i1 %lnot2
}

; Function Attrs: mustprogress uwtable
define linkonce_odr hidden void @_ZN4cvc58internal9TrustNodeC2Ev(ptr noundef nonnull align 8 dereferenceable(24) %this) unnamed_addr #4 comdat align 2 {
entry:
  %this.addr = alloca ptr, align 8
  store ptr %this, ptr %this.addr, align 8
  %this1 = load ptr, ptr %this.addr, align 8
  %d_tnk = getelementptr inbounds %"class.cvc5::internal::TrustNode", ptr %this1, i32 0, i32 0
  store i32 4, ptr %d_tnk, align 8
  %d_proven = getelementptr inbounds %"class.cvc5::internal::TrustNode", ptr %this1, i32 0, i32 1
  call void @_ZN4cvc58internal12NodeTemplateILb1EEC2Ev(ptr noundef nonnull align 8 dereferenceable(8) %d_proven)
  %d_gen = getelementptr inbounds %"class.cvc5::internal::TrustNode", ptr %this1, i32 0, i32 2
  store ptr null, ptr %d_gen, align 8
  ret void
}

declare void @_ZN4cvc58internal14RtfTermContext8getFlagsEjRbS2_(i32 noundef, ptr noundef nonnull align 1 dereferenceable(1), ptr noundef nonnull align 1 dereferenceable(1)) #1

; Function Attrs: mustprogress uwtable
define linkonce_odr hidden noundef nonnull align 8 dereferenceable(24) ptr @_ZN4cvc58internal11Cvc5ostreamlsIA12_cEERS1_RKT_(ptr noundef nonnull align 8 dereferenceable(24) %this, ptr noundef nonnull align 1 dereferenceable(12) %t) #4 comdat align 2 {
entry:
  %this.addr = alloca ptr, align 8
  %t.addr = alloca ptr, align 8
  %indent = alloca i64, align 8
  %i = alloca i64, align 8
  store ptr %this, ptr %this.addr, align 8
  store ptr %t, ptr %t.addr, align 8
  %this1 = load ptr, ptr %this.addr, align 8
  %d_os = getelementptr inbounds %"class.cvc5::internal::Cvc5ostream", ptr %this1, i32 0, i32 0
  %0 = load ptr, ptr %d_os, align 8
  %cmp = icmp ne ptr %0, null
  br i1 %cmp, label %if.then, label %if.end11

if.then:                                          ; preds = %entry
  %d_firstColumn = getelementptr inbounds %"class.cvc5::internal::Cvc5ostream", ptr %this1, i32 0, i32 1
  %1 = load i8, ptr %d_firstColumn, align 8
  %tobool = trunc i8 %1 to i1
  br i1 %tobool, label %if.then2, label %if.end

if.then2:                                         ; preds = %if.then
  %d_firstColumn3 = getelementptr inbounds %"class.cvc5::internal::Cvc5ostream", ptr %this1, i32 0, i32 1
  store i8 0, ptr %d_firstColumn3, align 8
  %d_os4 = getelementptr inbounds %"class.cvc5::internal::Cvc5ostream", ptr %this1, i32 0, i32 0
  %2 = load ptr, ptr %d_os4, align 8
  %vtable = load ptr, ptr %2, align 8
  %vbase.offset.ptr = getelementptr i8, ptr %vtable, i64 -24
  %vbase.offset = load i64, ptr %vbase.offset.ptr, align 8
  %add.ptr = getelementptr inbounds i8, ptr %2, i64 %vbase.offset
  %3 = load i32, ptr @_ZN4cvc58internal11Cvc5ostream16s_indentIosIndexE, align 4
  %call = call noundef nonnull align 8 dereferenceable(8) ptr @_ZNSt8ios_base5iwordEi(ptr noundef nonnull align 8 dereferenceable(216) %add.ptr, i32 noundef %3)
  %4 = load i64, ptr %call, align 8
  store i64 %4, ptr %indent, align 8
  store i64 0, ptr %i, align 8
  br label %for.cond

for.cond:                                         ; preds = %for.inc, %if.then2
  %5 = load i64, ptr %i, align 8
  %6 = load i64, ptr %indent, align 8
  %cmp5 = icmp slt i64 %5, %6
  br i1 %cmp5, label %for.body, label %for.end

for.body:                                         ; preds = %for.cond
  %d_os6 = getelementptr inbounds %"class.cvc5::internal::Cvc5ostream", ptr %this1, i32 0, i32 0
  %7 = load ptr, ptr %d_os6, align 8
  %call7 = call noundef nonnull align 8 dereferenceable(8) ptr @_ZStlsIcSt11char_traitsIcESaIcEERSt13basic_ostreamIT_T0_ES7_RKNSt7__cxx1112basic_stringIS4_S5_T1_EE(ptr noundef nonnull align 8 dereferenceable(8) %7, ptr noundef nonnull align 8 dereferenceable(32) @_ZN4cvc58internal11Cvc5ostream5s_tabB5cxx11E)
  %d_os8 = getelementptr inbounds %"class.cvc5::internal::Cvc5ostream", ptr %this1, i32 0, i32 0
  store ptr %call7, ptr %d_os8, align 8
  br label %for.inc

for.inc:                                          ; preds = %for.body
  %8 = load i64, ptr %i, align 8
  %inc = add nsw i64 %8, 1
  store i64 %inc, ptr %i, align 8
  br label %for.cond, !llvm.loop !15

for.end:                                          ; preds = %for.cond
  br label %if.end

if.end:                                           ; preds = %for.end, %if.then
  %d_os9 = getelementptr inbounds %"class.cvc5::internal::Cvc5ostream", ptr %this1, i32 0, i32 0
  %9 = load ptr, ptr %d_os9, align 8
  %10 = load ptr, ptr %t.addr, align 8
  %arraydecay = getelementptr inbounds [12 x i8], ptr %10, i64 0, i64 0
  %call10 = call noundef nonnull align 8 dereferenceable(8) ptr @_ZStlsISt11char_traitsIcEERSt13basic_ostreamIcT_ES5_PKc(ptr noundef nonnull align 8 dereferenceable(8) %9, ptr noundef %arraydecay)
  br label %if.end11

if.end11:                                         ; preds = %if.end, %entry
  ret ptr %this1
}

; Function Attrs: mustprogress uwtable
define linkonce_odr hidden noundef nonnull align 8 dereferenceable(24) ptr @_ZN4cvc58internal11Cvc5ostreamlsIA2_cEERS1_RKT_(ptr noundef nonnull align 8 dereferenceable(24) %this, ptr noundef nonnull align 1 dereferenceable(2) %t) #4 comdat align 2 {
entry:
  %this.addr = alloca ptr, align 8
  %t.addr = alloca ptr, align 8
  %indent = alloca i64, align 8
  %i = alloca i64, align 8
  store ptr %this, ptr %this.addr, align 8
  store ptr %t, ptr %t.addr, align 8
  %this1 = load ptr, ptr %this.addr, align 8
  %d_os = getelementptr inbounds %"class.cvc5::internal::Cvc5ostream", ptr %this1, i32 0, i32 0
  %0 = load ptr, ptr %d_os, align 8
  %cmp = icmp ne ptr %0, null
  br i1 %cmp, label %if.then, label %if.end11

if.then:                                          ; preds = %entry
  %d_firstColumn = getelementptr inbounds %"class.cvc5::internal::Cvc5ostream", ptr %this1, i32 0, i32 1
  %1 = load i8, ptr %d_firstColumn, align 8
  %tobool = trunc i8 %1 to i1
  br i1 %tobool, label %if.then2, label %if.end

if.then2:                                         ; preds = %if.then
  %d_firstColumn3 = getelementptr inbounds %"class.cvc5::internal::Cvc5ostream", ptr %this1, i32 0, i32 1
  store i8 0, ptr %d_firstColumn3, align 8
  %d_os4 = getelementptr inbounds %"class.cvc5::internal::Cvc5ostream", ptr %this1, i32 0, i32 0
  %2 = load ptr, ptr %d_os4, align 8
  %vtable = load ptr, ptr %2, align 8
  %vbase.offset.ptr = getelementptr i8, ptr %vtable, i64 -24
  %vbase.offset = load i64, ptr %vbase.offset.ptr, align 8
  %add.ptr = getelementptr inbounds i8, ptr %2, i64 %vbase.offset
  %3 = load i32, ptr @_ZN4cvc58internal11Cvc5ostream16s_indentIosIndexE, align 4
  %call = call noundef nonnull align 8 dereferenceable(8) ptr @_ZNSt8ios_base5iwordEi(ptr noundef nonnull align 8 dereferenceable(216) %add.ptr, i32 noundef %3)
  %4 = load i64, ptr %call, align 8
  store i64 %4, ptr %indent, align 8
  store i64 0, ptr %i, align 8
  br label %for.cond

for.cond:                                         ; preds = %for.inc, %if.then2
  %5 = load i64, ptr %i, align 8
  %6 = load i64, ptr %indent, align 8
  %cmp5 = icmp slt i64 %5, %6
  br i1 %cmp5, label %for.body, label %for.end

for.body:                                         ; preds = %for.cond
  %d_os6 = getelementptr inbounds %"class.cvc5::internal::Cvc5ostream", ptr %this1, i32 0, i32 0
  %7 = load ptr, ptr %d_os6, align 8
  %call7 = call noundef nonnull align 8 dereferenceable(8) ptr @_ZStlsIcSt11char_traitsIcESaIcEERSt13basic_ostreamIT_T0_ES7_RKNSt7__cxx1112basic_stringIS4_S5_T1_EE(ptr noundef nonnull align 8 dereferenceable(8) %7, ptr noundef nonnull align 8 dereferenceable(32) @_ZN4cvc58internal11Cvc5ostream5s_tabB5cxx11E)
  %d_os8 = getelementptr inbounds %"class.cvc5::internal::Cvc5ostream", ptr %this1, i32 0, i32 0
  store ptr %call7, ptr %d_os8, align 8
  br label %for.inc

for.inc:                                          ; preds = %for.body
  %8 = load i64, ptr %i, align 8
  %inc = add nsw i64 %8, 1
  store i64 %inc, ptr %i, align 8
  br label %for.cond, !llvm.loop !16

for.end:                                          ; preds = %for.cond
  br label %if.end

if.end:                                           ; preds = %for.end, %if.then
  %d_os9 = getelementptr inbounds %"class.cvc5::internal::Cvc5ostream", ptr %this1, i32 0, i32 0
  %9 = load ptr, ptr %d_os9, align 8
  %10 = load ptr, ptr %t.addr, align 8
  %arraydecay = getelementptr inbounds [2 x i8], ptr %10, i64 0, i64 0
  %call10 = call noundef nonnull align 8 dereferenceable(8) ptr @_ZStlsISt11char_traitsIcEERSt13basic_ostreamIcT_ES5_PKc(ptr noundef nonnull align 8 dereferenceable(8) %9, ptr noundef %arraydecay)
  br label %if.end11

if.end11:                                         ; preds = %if.end, %entry
  ret ptr %this1
}

; Function Attrs: mustprogress uwtable
define linkonce_odr hidden noundef nonnull align 8 dereferenceable(24) ptr @_ZN4cvc58internal11Cvc5ostreamlsIbEERS1_RKT_(ptr noundef nonnull align 8 dereferenceable(24) %this, ptr noundef nonnull align 1 dereferenceable(1) %t) #4 comdat align 2 {
entry:
  %this.addr = alloca ptr, align 8
  %t.addr = alloca ptr, align 8
  %indent = alloca i64, align 8
  %i = alloca i64, align 8
  store ptr %this, ptr %this.addr, align 8
  store ptr %t, ptr %t.addr, align 8
  %this1 = load ptr, ptr %this.addr, align 8
  %d_os = getelementptr inbounds %"class.cvc5::internal::Cvc5ostream", ptr %this1, i32 0, i32 0
  %0 = load ptr, ptr %d_os, align 8
  %cmp = icmp ne ptr %0, null
  br i1 %cmp, label %if.then, label %if.end12

if.then:                                          ; preds = %entry
  %d_firstColumn = getelementptr inbounds %"class.cvc5::internal::Cvc5ostream", ptr %this1, i32 0, i32 1
  %1 = load i8, ptr %d_firstColumn, align 8
  %tobool = trunc i8 %1 to i1
  br i1 %tobool, label %if.then2, label %if.end

if.then2:                                         ; preds = %if.then
  %d_firstColumn3 = getelementptr inbounds %"class.cvc5::internal::Cvc5ostream", ptr %this1, i32 0, i32 1
  store i8 0, ptr %d_firstColumn3, align 8
  %d_os4 = getelementptr inbounds %"class.cvc5::internal::Cvc5ostream", ptr %this1, i32 0, i32 0
  %2 = load ptr, ptr %d_os4, align 8
  %vtable = load ptr, ptr %2, align 8
  %vbase.offset.ptr = getelementptr i8, ptr %vtable, i64 -24
  %vbase.offset = load i64, ptr %vbase.offset.ptr, align 8
  %add.ptr = getelementptr inbounds i8, ptr %2, i64 %vbase.offset
  %3 = load i32, ptr @_ZN4cvc58internal11Cvc5ostream16s_indentIosIndexE, align 4
  %call = call noundef nonnull align 8 dereferenceable(8) ptr @_ZNSt8ios_base5iwordEi(ptr noundef nonnull align 8 dereferenceable(216) %add.ptr, i32 noundef %3)
  %4 = load i64, ptr %call, align 8
  store i64 %4, ptr %indent, align 8
  store i64 0, ptr %i, align 8
  br label %for.cond

for.cond:                                         ; preds = %for.inc, %if.then2
  %5 = load i64, ptr %i, align 8
  %6 = load i64, ptr %indent, align 8
  %cmp5 = icmp slt i64 %5, %6
  br i1 %cmp5, label %for.body, label %for.end

for.body:                                         ; preds = %for.cond
  %d_os6 = getelementptr inbounds %"class.cvc5::internal::Cvc5ostream", ptr %this1, i32 0, i32 0
  %7 = load ptr, ptr %d_os6, align 8
  %call7 = call noundef nonnull align 8 dereferenceable(8) ptr @_ZStlsIcSt11char_traitsIcESaIcEERSt13basic_ostreamIT_T0_ES7_RKNSt7__cxx1112basic_stringIS4_S5_T1_EE(ptr noundef nonnull align 8 dereferenceable(8) %7, ptr noundef nonnull align 8 dereferenceable(32) @_ZN4cvc58internal11Cvc5ostream5s_tabB5cxx11E)
  %d_os8 = getelementptr inbounds %"class.cvc5::internal::Cvc5ostream", ptr %this1, i32 0, i32 0
  store ptr %call7, ptr %d_os8, align 8
  br label %for.inc

for.inc:                                          ; preds = %for.body
  %8 = load i64, ptr %i, align 8
  %inc = add nsw i64 %8, 1
  store i64 %inc, ptr %i, align 8
  br label %for.cond, !llvm.loop !17

for.end:                                          ; preds = %for.cond
  br label %if.end

if.end:                                           ; preds = %for.end, %if.then
  %d_os9 = getelementptr inbounds %"class.cvc5::internal::Cvc5ostream", ptr %this1, i32 0, i32 0
  %9 = load ptr, ptr %d_os9, align 8
  %10 = load ptr, ptr %t.addr, align 8
  %11 = load i8, ptr %10, align 1
  %tobool10 = trunc i8 %11 to i1
  %call11 = call noundef nonnull align 8 dereferenceable(8) ptr @_ZNSolsEb(ptr noundef nonnull align 8 dereferenceable(8) %9, i1 noundef zeroext %tobool10)
  br label %if.end12

if.end12:                                         ; preds = %if.end, %entry
  ret ptr %this1
}

; Function Attrs: mustprogress uwtable
define hidden void @_ZN4cvc58internal18RemoveTermFormulas18runCurrentInternalENS0_12NodeTemplateILb0EEEbRNS0_9TrustNodeEjPNS0_19TConvProofGeneratorE(ptr noalias sret(%"class.cvc5::internal::NodeTemplate") align 8 %agg.result, ptr noundef nonnull align 8 dereferenceable(160) %this, ptr noundef %node, i1 noundef zeroext %inTerm, ptr noundef nonnull align 8 dereferenceable(24) %newLem, i32 noundef %cval, ptr noundef %pg) #4 align 2 personality ptr @__gxx_personality_v0 {
entry:
  %result.ptr = alloca ptr, align 8
  %this.addr = alloca ptr, align 8
  %node.indirect_addr = alloca ptr, align 8
  %inTerm.addr = alloca i8, align 1
  %newLem.addr = alloca ptr, align 8
  %cval.addr = alloca i32, align 4
  %pg.addr = alloca ptr, align 8
  %nodeManager = alloca ptr, align 8
  %sm = alloca ptr, align 8
  %nodeType = alloca %"class.cvc5::internal::TypeNode", align 8
  %skolem = alloca %"class.cvc5::internal::NodeTemplate", align 8
  %exn.slot = alloca ptr, align 8
  %ehselector.slot = alloca i32, align 4
  %newAssertion = alloca %"class.cvc5::internal::NodeTemplate", align 8
  %newAssertionPg = alloca ptr, align 8
  %ss = alloca %"class.std::__cxx11::basic_stringstream", align 8
  %ref.tmp = alloca %"class.std::__cxx11::basic_string", align 8
  %cleanup.isactive = alloca i1, align 1
  %ref.tmp28 = alloca %"class.cvc5::internal::NodeTemplate", align 8
  %agg.tmp = alloca %"class.cvc5::internal::NodeTemplate", align 8
  %ref.tmp40 = alloca %"class.cvc5::internal::__cvc5_true", align 1
  %tmp = alloca %"class.cvc5::internal::Cvc5ostream", align 8
  %agg.tmp.ensured = alloca %"class.cvc5::internal::Cvc5ostream", align 8
  %ref.tmp44 = alloca %"class.cvc5::internal::Cvc5ostream", align 8
  %ref.tmp50 = alloca %"class.cvc5::internal::NodeTemplate", align 8
  %agg.tmp51 = alloca %"class.cvc5::internal::NodeTemplate", align 8
  %ref.tmp60 = alloca %"class.cvc5::internal::NodeTemplate", align 8
  %ref.tmp65 = alloca %"class.cvc5::internal::NodeTemplate", align 8
  %agg.tmp66 = alloca %"class.cvc5::internal::NodeTemplate.313", align 8
  %agg.tmp68 = alloca %"class.cvc5::internal::NodeTemplate.313", align 8
  %ref.tmp69 = alloca %"class.cvc5::internal::NodeTemplate", align 8
  %ref.tmp70 = alloca %"class.cvc5::internal::NodeTemplate.313", align 8
  %agg.tmp77 = alloca %"class.cvc5::internal::NodeTemplate.313", align 8
  %ref.tmp78 = alloca %"class.cvc5::internal::NodeTemplate", align 8
  %ref.tmp79 = alloca %"class.cvc5::internal::NodeTemplate.313", align 8
  %ref.tmp102 = alloca %"class.cvc5::internal::__cvc5_true", align 1
  %tmp106 = alloca %"class.cvc5::internal::Cvc5ostream", align 8
  %agg.tmp.ensured109 = alloca %"class.cvc5::internal::Cvc5ostream", align 8
  %ref.tmp110 = alloca %"class.cvc5::internal::Cvc5ostream", align 8
  %axiom = alloca %"class.cvc5::internal::NodeTemplate", align 8
  %agg.tmp121 = alloca %"class.cvc5::internal::NodeTemplate", align 8
  %agg.tmp127 = alloca %"class.cvc5::internal::NodeTemplate", align 8
  %ref.tmp130 = alloca %"class.std::vector.324", align 8
  %ref.tmp131 = alloca %"class.std::vector.324", align 8
  %agg.tmp132 = alloca %"class.std::initializer_list", align 8
  %ref.tmp133 = alloca [1 x %"class.cvc5::internal::NodeTemplate"], align 8
  %arrayinit.endOfInit = alloca ptr, align 8
  %ref.tmp138 = alloca %"class.std::allocator.326", align 1
  %eq = alloca %"class.cvc5::internal::NodeTemplate", align 8
  %agg.tmp163 = alloca %"class.cvc5::internal::NodeTemplate", align 8
  %ref.tmp166 = alloca %"class.std::vector.324", align 8
  %ref.tmp167 = alloca %"class.std::vector.324", align 8
  %agg.tmp168 = alloca %"class.std::initializer_list", align 8
  %ref.tmp169 = alloca [1 x %"class.cvc5::internal::NodeTemplate"], align 8
  %arrayinit.endOfInit171 = alloca ptr, align 8
  %ref.tmp184 = alloca %"class.std::allocator.326", align 1
  %agg.tmp209 = alloca %"class.cvc5::internal::NodeTemplate", align 8
  %ref.tmp211 = alloca %"class.std::vector.324", align 8
  %agg.tmp212 = alloca %"class.std::initializer_list", align 8
  %ref.tmp213 = alloca [2 x %"class.cvc5::internal::NodeTemplate"], align 8
  %arrayinit.endOfInit215 = alloca ptr, align 8
  %ref.tmp229 = alloca %"class.std::allocator.326", align 1
  %ref.tmp232 = alloca %"class.std::vector.324", align 8
  %agg.tmp233 = alloca %"class.std::initializer_list", align 8
  %ref.tmp234 = alloca [1 x %"class.cvc5::internal::NodeTemplate"], align 8
  %arrayinit.endOfInit236 = alloca ptr, align 8
  %ref.tmp249 = alloca %"class.std::allocator.326", align 1
  %agg.tmp297 = alloca %"class.cvc5::internal::NodeTemplate.313", align 8
  %ref.tmp304 = alloca %"class.cvc5::internal::NodeTemplate", align 8
  %agg.tmp305 = alloca %"class.cvc5::internal::NodeTemplate", align 8
  %ref.tmp317 = alloca %"class.cvc5::internal::__cvc5_true", align 1
  %tmp321 = alloca %"class.cvc5::internal::Cvc5ostream", align 8
  %agg.tmp.ensured324 = alloca %"class.cvc5::internal::Cvc5ostream", align 8
  %ref.tmp325 = alloca %"class.cvc5::internal::Cvc5ostream", align 8
  %ref.tmp332 = alloca %"class.cvc5::internal::NodeTemplate", align 8
  %agg.tmp333 = alloca %"class.cvc5::internal::NodeTemplate", align 8
  %ref.tmp343 = alloca %"class.cvc5::internal::NodeTemplate", align 8
  %ref.tmp348 = alloca %"class.cvc5::internal::NodeTemplate", align 8
  %ref.tmp349 = alloca %"class.cvc5::internal::NodeTemplate.313", align 8
  %agg.tmp351 = alloca %"class.cvc5::internal::NodeTemplate.313", align 8
  %ref.tmp352 = alloca %"class.cvc5::internal::NodeTemplate.313", align 8
  %agg.tmp357 = alloca %"class.cvc5::internal::NodeTemplate.313", align 8
  %existsAssertion = alloca %"class.cvc5::internal::NodeTemplate", align 8
  %agg.tmp373 = alloca %"class.cvc5::internal::NodeTemplate.313", align 8
  %agg.tmp375 = alloca %"class.cvc5::internal::NodeTemplate.313", align 8
  %expg = alloca ptr, align 8
  %agg.tmp382 = alloca %"class.cvc5::internal::NodeTemplate", align 8
  %agg.tmp391 = alloca %"class.cvc5::internal::NodeTemplate", align 8
  %agg.tmp398 = alloca %"class.cvc5::internal::NodeTemplate", align 8
  %ref.tmp400 = alloca %"class.std::vector.324", align 8
  %agg.tmp401 = alloca %"class.std::initializer_list", align 8
  %ref.tmp402 = alloca [1 x %"class.cvc5::internal::NodeTemplate"], align 8
  %arrayinit.endOfInit404 = alloca ptr, align 8
  %ref.tmp417 = alloca %"class.std::allocator.326", align 1
  %ref.tmp420 = alloca %"class.std::vector.324", align 8
  %agg.tmp455 = alloca %"class.cvc5::internal::NodeTemplate.313", align 8
  %cleanup.cond = alloca i1, align 1
  %ref.tmp469 = alloca %"class.cvc5::internal::NodeTemplate", align 8
  %agg.tmp470 = alloca %"class.cvc5::internal::NodeTemplate", align 8
  %ref.tmp482 = alloca %"class.cvc5::internal::__cvc5_true", align 1
  %tmp486 = alloca %"class.cvc5::internal::Cvc5ostream", align 8
  %agg.tmp.ensured489 = alloca %"class.cvc5::internal::Cvc5ostream", align 8
  %ref.tmp490 = alloca %"class.cvc5::internal::Cvc5ostream", align 8
  %ref.tmp497 = alloca %"class.cvc5::internal::NodeTemplate", align 8
  %agg.tmp498 = alloca %"class.cvc5::internal::NodeTemplate", align 8
  %ref.tmp508 = alloca %"class.cvc5::internal::NodeTemplate", align 8
  %ref.tmp513 = alloca %"class.cvc5::internal::NodeTemplate", align 8
  %agg.tmp529 = alloca %"class.cvc5::internal::NodeTemplate", align 8
  %agg.tmp531 = alloca %"class.cvc5::internal::NodeTemplate", align 8
  %ref.tmp534 = alloca %"class.std::vector.324", align 8
  %ref.tmp535 = alloca %"class.std::vector.324", align 8
  %agg.tmp536 = alloca %"class.std::initializer_list", align 8
  %ref.tmp537 = alloca [1 x %"class.cvc5::internal::NodeTemplate"], align 8
  %arrayinit.endOfInit539 = alloca ptr, align 8
  %ref.tmp552 = alloca %"class.std::allocator.326", align 1
  %ref.tmp579 = alloca %"class.cvc5::internal::__cvc5_true", align 1
  %tmp583 = alloca %"class.cvc5::internal::Cvc5ostream", align 8
  %agg.tmp.ensured586 = alloca %"class.cvc5::internal::Cvc5ostream", align 8
  %ref.tmp587 = alloca %"class.cvc5::internal::Cvc5ostream", align 8
  %agg.tmp603 = alloca %"class.cvc5::internal::NodeTemplate", align 8
  %ref.tmp605 = alloca %"class.std::vector.324", align 8
  %ref.tmp606 = alloca %"class.std::vector.324", align 8
  %agg.tmp607 = alloca %"class.std::initializer_list", align 8
  %ref.tmp608 = alloca [1 x %"class.cvc5::internal::NodeTemplate"], align 8
  %arrayinit.endOfInit610 = alloca ptr, align 8
  %ref.tmp623 = alloca %"class.std::allocator.326", align 1
  %ref.tmp648 = alloca %"class.cvc5::internal::__cvc5_true", align 1
  %tmp652 = alloca %"class.cvc5::internal::Cvc5ostream", align 8
  %agg.tmp.ensured655 = alloca %"class.cvc5::internal::Cvc5ostream", align 8
  %ref.tmp656 = alloca %"class.cvc5::internal::Cvc5ostream", align 8
  %ref.tmp669 = alloca %"class.cvc5::internal::TrustNode", align 8
  %agg.tmp670 = alloca %"class.cvc5::internal::NodeTemplate", align 8
  %ref.tmp685 = alloca %"class.cvc5::internal::__cvc5_true", align 1
  %tmp689 = alloca %"class.cvc5::internal::Cvc5ostream", align 8
  %agg.tmp.ensured692 = alloca %"class.cvc5::internal::Cvc5ostream", align 8
  %ref.tmp693 = alloca %"class.cvc5::internal::Cvc5ostream", align 8
  %cleanup.dest.slot = alloca i32, align 4
  store ptr %agg.result, ptr %result.ptr, align 8
  store ptr %this, ptr %this.addr, align 8
  store ptr %node, ptr %node.indirect_addr, align 8
  %frombool = zext i1 %inTerm to i8
  store i8 %frombool, ptr %inTerm.addr, align 1
  store ptr %newLem, ptr %newLem.addr, align 8
  store i32 %cval, ptr %cval.addr, align 4
  store ptr %pg, ptr %pg.addr, align 8
  %this1 = load ptr, ptr %this.addr, align 8
  %call = call noundef ptr @_ZN4cvc58internal11NodeManager9currentNMEv()
  store ptr %call, ptr %nodeManager, align 8
  %0 = load ptr, ptr %nodeManager, align 8
  %call2 = call noundef ptr @_ZN4cvc58internal11NodeManager16getSkolemManagerEv(ptr noundef nonnull align 8 dereferenceable(3360) %0)
  store ptr %call2, ptr %sm, align 8
  call void @_ZNK4cvc58internal12NodeTemplateILb0EE7getTypeEb(ptr sret(%"class.cvc5::internal::TypeNode") align 8 %nodeType, ptr noundef nonnull align 8 dereferenceable(8) %node, i1 noundef zeroext false)
  invoke void @_ZN4cvc58internal12NodeTemplateILb1EEC2Ev(ptr noundef nonnull align 8 dereferenceable(8) %skolem)
          to label %invoke.cont unwind label %lpad

invoke.cont:                                      ; preds = %entry
  invoke void @_ZN4cvc58internal12NodeTemplateILb1EEC2Ev(ptr noundef nonnull align 8 dereferenceable(8) %newAssertion)
          to label %invoke.cont4 unwind label %lpad3

invoke.cont4:                                     ; preds = %invoke.cont
  store ptr null, ptr %newAssertionPg, align 8
  %call7 = invoke noundef i32 @_ZNK4cvc58internal12NodeTemplateILb0EE7getKindEv(ptr noundef nonnull align 8 dereferenceable(8) %node)
          to label %invoke.cont6 unwind label %lpad5

invoke.cont6:                                     ; preds = %invoke.cont4
  %cmp = icmp eq i32 %call7, 23
  br i1 %cmp, label %land.lhs.true, label %if.else

land.lhs.true:                                    ; preds = %invoke.cont6
  %call9 = invoke noundef zeroext i1 @_ZNK4cvc58internal8TypeNode9isBooleanEv(ptr noundef nonnull align 8 dereferenceable(8) %nodeType)
          to label %invoke.cont8 unwind label %lpad5

invoke.cont8:                                     ; preds = %land.lhs.true
  br i1 %call9, label %if.else, label %if.then

if.then:                                          ; preds = %invoke.cont8
  %call11 = invoke noundef zeroext i1 @_ZNK4cvc58internal8TypeNode12isFirstClassEv(ptr noundef nonnull align 8 dereferenceable(8) %nodeType)
          to label %invoke.cont10 unwind label %lpad5

invoke.cont10:                                    ; preds = %if.then
  br i1 %call11, label %if.end, label %if.then12

if.then12:                                        ; preds = %invoke.cont10
  invoke void @_ZNSt7__cxx1118basic_stringstreamIcSt11char_traitsIcESaIcEEC1Ev(ptr noundef nonnull align 8 dereferenceable(128) %ss)
          to label %invoke.cont13 unwind label %lpad5

invoke.cont13:                                    ; preds = %if.then12
  %add.ptr = getelementptr inbounds i8, ptr %ss, i64 16
  %call16 = invoke noundef nonnull align 8 dereferenceable(8) ptr @_ZStlsISt11char_traitsIcEERSt13basic_ostreamIcT_ES5_PKc(ptr noundef nonnull align 8 dereferenceable(8) %add.ptr, ptr noundef @.str.14)
          to label %invoke.cont15 unwind label %lpad14

invoke.cont15:                                    ; preds = %invoke.cont13
  %call18 = invoke noundef nonnull align 8 dereferenceable(8) ptr @_ZN4cvc58internallsERSoRKNS0_8TypeNodeE(ptr noundef nonnull align 8 dereferenceable(8) %call16, ptr noundef nonnull align 8 dereferenceable(8) %nodeType)
          to label %invoke.cont17 unwind label %lpad14

invoke.cont17:                                    ; preds = %invoke.cont15
  %call20 = invoke noundef nonnull align 8 dereferenceable(8) ptr @_ZStlsISt11char_traitsIcEERSt13basic_ostreamIcT_ES5_PKc(ptr noundef nonnull align 8 dereferenceable(8) %call18, ptr noundef @.str.15)
          to label %invoke.cont19 unwind label %lpad14

invoke.cont19:                                    ; preds = %invoke.cont17
  %call22 = invoke noundef nonnull align 8 dereferenceable(8) ptr @_ZNSolsEPFRSoS_E(ptr noundef nonnull align 8 dereferenceable(8) %call20, ptr noundef @_ZSt4endlIcSt11char_traitsIcEERSt13basic_ostreamIT_T0_ES6_)
          to label %invoke.cont21 unwind label %lpad14

invoke.cont21:                                    ; preds = %invoke.cont19
  store i1 true, ptr %cleanup.isactive, align 1
  %exception = call ptr @__cxa_allocate_exception(i64 40) #3
  invoke void @_ZNKSt7__cxx1118basic_stringstreamIcSt11char_traitsIcESaIcEE3strEv(ptr sret(%"class.std::__cxx11::basic_string") align 8 %ref.tmp, ptr noundef nonnull align 8 dereferenceable(128) %ss)
          to label %invoke.cont24 unwind label %lpad23

invoke.cont24:                                    ; preds = %invoke.cont21
  invoke void @_ZN4cvc58internal14LogicExceptionC2ERKNSt7__cxx1112basic_stringIcSt11char_traitsIcESaIcEEE(ptr noundef nonnull align 8 dereferenceable(40) %exception, ptr noundef nonnull align 8 dereferenceable(32) %ref.tmp)
          to label %invoke.cont26 unwind label %lpad25

invoke.cont26:                                    ; preds = %invoke.cont24
  store i1 false, ptr %cleanup.isactive, align 1
  invoke void @__cxa_throw(ptr %exception, ptr @_ZTIN4cvc58internal14LogicExceptionE, ptr @_ZN4cvc58internal14LogicExceptionD2Ev) #16
          to label %unreachable unwind label %lpad25

lpad:                                             ; preds = %entry
  %1 = landingpad { ptr, i32 }
          cleanup
  %2 = extractvalue { ptr, i32 } %1, 0
  store ptr %2, ptr %exn.slot, align 8
  %3 = extractvalue { ptr, i32 } %1, 1
  store i32 %3, ptr %ehselector.slot, align 4
  br label %ehcleanup711

lpad3:                                            ; preds = %invoke.cont
  %4 = landingpad { ptr, i32 }
          cleanup
  %5 = extractvalue { ptr, i32 } %4, 0
  store ptr %5, ptr %exn.slot, align 8
  %6 = extractvalue { ptr, i32 } %4, 1
  store i32 %6, ptr %ehselector.slot, align 4
  br label %ehcleanup709

lpad5:                                            ; preds = %if.end705, %if.end703, %invoke.cont700, %cond.end699, %invoke.cont695, %invoke.cont694, %cond.false691, %cond.true688, %invoke.cont681, %cond.end668, %invoke.cont664, %invoke.cont662, %invoke.cont660, %invoke.cont658, %invoke.cont657, %cond.false654, %cond.true651, %if.end647, %if.then600, %cond.end595, %invoke.cont591, %invoke.cont589, %invoke.cont588, %cond.false585, %cond.true582, %if.then578, %if.end575, %if.then528, %if.then525, %if.end522, %invoke.cont511, %invoke.cont503, %cond.end496, %invoke.cont492, %invoke.cont491, %cond.false488, %cond.true485, %if.then481, %invoke.cont475, %if.then468, %land.rhs, %if.else451, %if.then372, %invoke.cont363, %invoke.cont346, %invoke.cont338, %cond.end331, %invoke.cont327, %invoke.cont326, %cond.false323, %cond.true320, %if.then316, %invoke.cont310, %if.then303, %if.then296, %if.else, %cond.end120, %invoke.cont116, %invoke.cont114, %invoke.cont112, %invoke.cont111, %cond.false108, %cond.true105, %if.then101, %invoke.cont89, %invoke.cont63, %invoke.cont56, %cond.end, %invoke.cont46, %invoke.cont45, %cond.false, %cond.true, %if.then39, %invoke.cont33, %if.end, %if.then12, %if.then, %land.lhs.true, %invoke.cont4
  %7 = landingpad { ptr, i32 }
          cleanup
  %8 = extractvalue { ptr, i32 } %7, 0
  store ptr %8, ptr %exn.slot, align 8
  %9 = extractvalue { ptr, i32 } %7, 1
  store i32 %9, ptr %ehselector.slot, align 4
  br label %ehcleanup707

lpad14:                                           ; preds = %invoke.cont19, %invoke.cont17, %invoke.cont15, %invoke.cont13
  %10 = landingpad { ptr, i32 }
          cleanup
  %11 = extractvalue { ptr, i32 } %10, 0
  store ptr %11, ptr %exn.slot, align 8
  %12 = extractvalue { ptr, i32 } %10, 1
  store i32 %12, ptr %ehselector.slot, align 4
  br label %ehcleanup27

lpad23:                                           ; preds = %invoke.cont21
  %13 = landingpad { ptr, i32 }
          cleanup
  %14 = extractvalue { ptr, i32 } %13, 0
  store ptr %14, ptr %exn.slot, align 8
  %15 = extractvalue { ptr, i32 } %13, 1
  store i32 %15, ptr %ehselector.slot, align 4
  br label %ehcleanup

lpad25:                                           ; preds = %invoke.cont26, %invoke.cont24
  %16 = landingpad { ptr, i32 }
          cleanup
  %17 = extractvalue { ptr, i32 } %16, 0
  store ptr %17, ptr %exn.slot, align 8
  %18 = extractvalue { ptr, i32 } %16, 1
  store i32 %18, ptr %ehselector.slot, align 4
  call void @_ZNSt7__cxx1112basic_stringIcSt11char_traitsIcESaIcEED1Ev(ptr noundef nonnull align 8 dereferenceable(32) %ref.tmp) #3
  br label %ehcleanup

ehcleanup:                                        ; preds = %lpad25, %lpad23
  %cleanup.is_active = load i1, ptr %cleanup.isactive, align 1
  br i1 %cleanup.is_active, label %cleanup.action, label %cleanup.done

cleanup.action:                                   ; preds = %ehcleanup
  call void @__cxa_free_exception(ptr %exception) #3
  br label %cleanup.done

cleanup.done:                                     ; preds = %cleanup.action, %ehcleanup
  br label %ehcleanup27

ehcleanup27:                                      ; preds = %cleanup.done, %lpad14
  call void @_ZNSt7__cxx1118basic_stringstreamIcSt11char_traitsIcESaIcEED1Ev(ptr noundef nonnull align 8 dereferenceable(128) %ss) #3
  br label %ehcleanup707

if.end:                                           ; preds = %invoke.cont10
  invoke void @_ZN4cvc58internal12NodeTemplateILb1EEC2ERKNS1_ILb0EEE(ptr noundef nonnull align 8 dereferenceable(8) %agg.tmp, ptr noundef nonnull align 8 dereferenceable(8) %node)
          to label %invoke.cont29 unwind label %lpad5

invoke.cont29:                                    ; preds = %if.end
  invoke void @_ZNK4cvc58internal18RemoveTermFormulas16getSkolemForNodeENS0_12NodeTemplateILb1EEE(ptr sret(%"class.cvc5::internal::NodeTemplate") align 8 %ref.tmp28, ptr noundef nonnull align 8 dereferenceable(160) %this1, ptr noundef %agg.tmp)
          to label %invoke.cont31 unwind label %lpad30

invoke.cont31:                                    ; preds = %invoke.cont29
  %call34 = invoke noundef nonnull align 8 dereferenceable(8) ptr @_ZN4cvc58internal12NodeTemplateILb1EEaSERKS2_(ptr noundef nonnull align 8 dereferenceable(8) %skolem, ptr noundef nonnull align 8 dereferenceable(8) %ref.tmp28)
          to label %invoke.cont33 unwind label %lpad32

invoke.cont33:                                    ; preds = %invoke.cont31
  call void @_ZN4cvc58internal12NodeTemplateILb1EED2Ev(ptr noundef nonnull align 8 dereferenceable(8) %ref.tmp28) #3
  call void @_ZN4cvc58internal12NodeTemplateILb1EED2Ev(ptr noundef nonnull align 8 dereferenceable(8) %agg.tmp) #3
  %call38 = invoke noundef zeroext i1 @_ZNK4cvc58internal12NodeTemplateILb1EE6isNullEv(ptr noundef nonnull align 8 dereferenceable(8) %skolem)
          to label %invoke.cont37 unwind label %lpad5

invoke.cont37:                                    ; preds = %invoke.cont33
  br i1 %call38, label %if.then39, label %if.end292

if.then39:                                        ; preds = %invoke.cont37
  %call42 = invoke noundef zeroext i1 @_ZN4cvc58internal11__cvc5_truecvbEv(ptr noundef nonnull align 1 dereferenceable(1) %ref.tmp40)
          to label %invoke.cont41 unwind label %lpad5

invoke.cont41:                                    ; preds = %if.then39
  br i1 %call42, label %cond.true, label %cond.false

cond.true:                                        ; preds = %invoke.cont41
  invoke void @_ZNK4cvc58internal5NullCcvNS0_11Cvc5ostreamEEv(ptr sret(%"class.cvc5::internal::Cvc5ostream") align 8 %tmp, ptr noundef nonnull align 1 dereferenceable(1) @_ZN4cvc58internal10nullStreamE)
          to label %invoke.cont43 unwind label %lpad5

invoke.cont43:                                    ; preds = %cond.true
  br label %cond.end

cond.false:                                       ; preds = %invoke.cont41
  invoke void @_ZNK4cvc58internal6TraceCclEv(ptr sret(%"class.cvc5::internal::Cvc5ostream") align 8 %ref.tmp44, ptr noundef nonnull align 8 dereferenceable(32) @_ZN4cvc58internal12TraceChannelE)
          to label %invoke.cont45 unwind label %lpad5

invoke.cont45:                                    ; preds = %cond.false
  %call47 = invoke noundef nonnull align 8 dereferenceable(24) ptr @_ZN4cvc58internal11Cvc5ostreamlsIA41_cEERS1_RKT_(ptr noundef nonnull align 8 dereferenceable(24) %ref.tmp44, ptr noundef nonnull align 1 dereferenceable(41) @.str.16)
          to label %invoke.cont46 unwind label %lpad5

invoke.cont46:                                    ; preds = %invoke.cont45
  %call49 = invoke noundef nonnull align 8 dereferenceable(24) ptr @_ZN4cvc58internal11Cvc5ostreamlsEPFRSoS2_E(ptr noundef nonnull align 8 dereferenceable(24) %call47, ptr noundef @_ZSt4endlIcSt11char_traitsIcEERSt13basic_ostreamIT_T0_ES6_)
          to label %invoke.cont48 unwind label %lpad5

invoke.cont48:                                    ; preds = %invoke.cont46
  call void @llvm.memcpy.p0.p0.i64(ptr align 8 %agg.tmp.ensured, ptr align 8 %call49, i64 24, i1 false)
  br label %cond.end

cond.end:                                         ; preds = %invoke.cont48, %invoke.cont43
  %19 = load ptr, ptr %sm, align 8
  invoke void @_ZN4cvc58internal12NodeTemplateILb1EEC2ERKNS1_ILb0EEE(ptr noundef nonnull align 8 dereferenceable(8) %agg.tmp51, ptr noundef nonnull align 8 dereferenceable(8) %node)
          to label %invoke.cont52 unwind label %lpad5

invoke.cont52:                                    ; preds = %cond.end
  invoke void @_ZN4cvc58internal13SkolemManager14mkPurifySkolemENS0_12NodeTemplateILb1EEEPNS0_14ProofGeneratorE(ptr sret(%"class.cvc5::internal::NodeTemplate") align 8 %ref.tmp50, ptr noundef nonnull align 8 dereferenceable(152) %19, ptr noundef %agg.tmp51, ptr noundef null)
          to label %invoke.cont54 unwind label %lpad53

invoke.cont54:                                    ; preds = %invoke.cont52
  %call57 = invoke noundef nonnull align 8 dereferenceable(8) ptr @_ZN4cvc58internal12NodeTemplateILb1EEaSERKS2_(ptr noundef nonnull align 8 dereferenceable(8) %skolem, ptr noundef nonnull align 8 dereferenceable(8) %ref.tmp50)
          to label %invoke.cont56 unwind label %lpad55

invoke.cont56:                                    ; preds = %invoke.cont54
  call void @_ZN4cvc58internal12NodeTemplateILb1EED2Ev(ptr noundef nonnull align 8 dereferenceable(8) %ref.tmp50) #3
  call void @_ZN4cvc58internal12NodeTemplateILb1EED2Ev(ptr noundef nonnull align 8 dereferenceable(8) %agg.tmp51) #3
  %d_skolem_cache = getelementptr inbounds %"class.cvc5::internal::RemoveTermFormulas", ptr %this1, i32 0, i32 2
  invoke void @_ZN4cvc58internal12NodeTemplateILb1EEC2ERKNS1_ILb0EEE(ptr noundef nonnull align 8 dereferenceable(8) %ref.tmp60, ptr noundef nonnull align 8 dereferenceable(8) %node)
          to label %invoke.cont61 unwind label %lpad5

invoke.cont61:                                    ; preds = %invoke.cont56
  invoke void @_ZN4cvc57context15CDInsertHashMapINS_8internal12NodeTemplateILb1EEES4_St4hashIS4_EE6insertERKS4_S9_(ptr noundef nonnull align 8 dereferenceable(56) %d_skolem_cache, ptr noundef nonnull align 8 dereferenceable(8) %ref.tmp60, ptr noundef nonnull align 8 dereferenceable(8) %skolem)
          to label %invoke.cont63 unwind label %lpad62

invoke.cont63:                                    ; preds = %invoke.cont61
  call void @_ZN4cvc58internal12NodeTemplateILb1EED2Ev(ptr noundef nonnull align 8 dereferenceable(8) %ref.tmp60) #3
  %20 = load ptr, ptr %nodeManager, align 8
  invoke void @_ZNK4cvc58internal12NodeTemplateILb0EEixEi(ptr sret(%"class.cvc5::internal::NodeTemplate.313") align 8 %agg.tmp66, ptr noundef nonnull align 8 dereferenceable(8) %node, i32 noundef 0)
          to label %invoke.cont67 unwind label %lpad5

invoke.cont67:                                    ; preds = %invoke.cont63
  invoke void @_ZNK4cvc58internal12NodeTemplateILb0EEixEi(ptr sret(%"class.cvc5::internal::NodeTemplate.313") align 8 %ref.tmp70, ptr noundef nonnull align 8 dereferenceable(8) %node, i32 noundef 1)
          to label %invoke.cont72 unwind label %lpad71

invoke.cont72:                                    ; preds = %invoke.cont67
  invoke void @_ZNK4cvc58internal12NodeTemplateILb1EE6eqNodeILb0EEES2_RKNS1_IXT_EEE(ptr sret(%"class.cvc5::internal::NodeTemplate") align 8 %ref.tmp69, ptr noundef nonnull align 8 dereferenceable(8) %skolem, ptr noundef nonnull align 8 dereferenceable(8) %ref.tmp70)
          to label %invoke.cont74 unwind label %lpad73

invoke.cont74:                                    ; preds = %invoke.cont72
  invoke void @_ZN4cvc58internal12NodeTemplateILb0EEC2ERKNS1_ILb1EEE(ptr noundef nonnull align 8 dereferenceable(8) %agg.tmp68, ptr noundef nonnull align 8 dereferenceable(8) %ref.tmp69)
          to label %invoke.cont76 unwind label %lpad75

invoke.cont76:                                    ; preds = %invoke.cont74
  invoke void @_ZNK4cvc58internal12NodeTemplateILb0EEixEi(ptr sret(%"class.cvc5::internal::NodeTemplate.313") align 8 %ref.tmp79, ptr noundef nonnull align 8 dereferenceable(8) %node, i32 noundef 2)
          to label %invoke.cont81 unwind label %lpad80

invoke.cont81:                                    ; preds = %invoke.cont76
  invoke void @_ZNK4cvc58internal12NodeTemplateILb1EE6eqNodeILb0EEES2_RKNS1_IXT_EEE(ptr sret(%"class.cvc5::internal::NodeTemplate") align 8 %ref.tmp78, ptr noundef nonnull align 8 dereferenceable(8) %skolem, ptr noundef nonnull align 8 dereferenceable(8) %ref.tmp79)
          to label %invoke.cont83 unwind label %lpad82

invoke.cont83:                                    ; preds = %invoke.cont81
  invoke void @_ZN4cvc58internal12NodeTemplateILb0EEC2ERKNS1_ILb1EEE(ptr noundef nonnull align 8 dereferenceable(8) %agg.tmp77, ptr noundef nonnull align 8 dereferenceable(8) %ref.tmp78)
          to label %invoke.cont85 unwind label %lpad84

invoke.cont85:                                    ; preds = %invoke.cont83
  invoke void @_ZN4cvc58internal11NodeManager6mkNodeENS0_4kind6Kind_tENS0_12NodeTemplateILb0EEES5_S5_(ptr sret(%"class.cvc5::internal::NodeTemplate") align 8 %ref.tmp65, ptr noundef nonnull align 8 dereferenceable(3360) %20, i32 noundef 23, ptr noundef %agg.tmp66, ptr noundef %agg.tmp68, ptr noundef %agg.tmp77)
          to label %invoke.cont87 unwind label %lpad86

invoke.cont87:                                    ; preds = %invoke.cont85
  %call90 = invoke noundef nonnull align 8 dereferenceable(8) ptr @_ZN4cvc58internal12NodeTemplateILb1EEaSERKS2_(ptr noundef nonnull align 8 dereferenceable(8) %newAssertion, ptr noundef nonnull align 8 dereferenceable(8) %ref.tmp65)
          to label %invoke.cont89 unwind label %lpad88

invoke.cont89:                                    ; preds = %invoke.cont87
  call void @_ZN4cvc58internal12NodeTemplateILb1EED2Ev(ptr noundef nonnull align 8 dereferenceable(8) %ref.tmp65) #3
  call void @_ZN4cvc58internal12NodeTemplateILb0EED2Ev(ptr noundef nonnull align 8 dereferenceable(8) %agg.tmp77) #3
  call void @_ZN4cvc58internal12NodeTemplateILb1EED2Ev(ptr noundef nonnull align 8 dereferenceable(8) %ref.tmp78) #3
  call void @_ZN4cvc58internal12NodeTemplateILb0EED2Ev(ptr noundef nonnull align 8 dereferenceable(8) %ref.tmp79) #3
  call void @_ZN4cvc58internal12NodeTemplateILb0EED2Ev(ptr noundef nonnull align 8 dereferenceable(8) %agg.tmp68) #3
  call void @_ZN4cvc58internal12NodeTemplateILb1EED2Ev(ptr noundef nonnull align 8 dereferenceable(8) %ref.tmp69) #3
  call void @_ZN4cvc58internal12NodeTemplateILb0EED2Ev(ptr noundef nonnull align 8 dereferenceable(8) %ref.tmp70) #3
  call void @_ZN4cvc58internal12NodeTemplateILb0EED2Ev(ptr noundef nonnull align 8 dereferenceable(8) %agg.tmp66) #3
  %call100 = invoke noundef zeroext i1 @_ZNK4cvc58internal18RemoveTermFormulas14isProofEnabledEv(ptr noundef nonnull align 8 dereferenceable(160) %this1)
          to label %invoke.cont99 unwind label %lpad5

invoke.cont99:                                    ; preds = %invoke.cont89
  br i1 %call100, label %if.then101, label %if.end291

if.then101:                                       ; preds = %invoke.cont99
  %call104 = invoke noundef zeroext i1 @_ZN4cvc58internal11__cvc5_truecvbEv(ptr noundef nonnull align 1 dereferenceable(1) %ref.tmp102)
          to label %invoke.cont103 unwind label %lpad5

invoke.cont103:                                   ; preds = %if.then101
  br i1 %call104, label %cond.true105, label %cond.false108

cond.true105:                                     ; preds = %invoke.cont103
  invoke void @_ZNK4cvc58internal5NullCcvNS0_11Cvc5ostreamEEv(ptr sret(%"class.cvc5::internal::Cvc5ostream") align 8 %tmp106, ptr noundef nonnull align 1 dereferenceable(1) @_ZN4cvc58internal10nullStreamE)
          to label %invoke.cont107 unwind label %lpad5

invoke.cont107:                                   ; preds = %cond.true105
  br label %cond.end120

cond.false108:                                    ; preds = %invoke.cont103
  invoke void @_ZNK4cvc58internal6TraceCclEv(ptr sret(%"class.cvc5::internal::Cvc5ostream") align 8 %ref.tmp110, ptr noundef nonnull align 8 dereferenceable(32) @_ZN4cvc58internal12TraceChannelE)
          to label %invoke.cont111 unwind label %lpad5

invoke.cont111:                                   ; preds = %cond.false108
  %call113 = invoke noundef nonnull align 8 dereferenceable(24) ptr @_ZN4cvc58internal11Cvc5ostreamlsIA34_cEERS1_RKT_(ptr noundef nonnull align 8 dereferenceable(24) %ref.tmp110, ptr noundef nonnull align 1 dereferenceable(34) @.str.17)
          to label %invoke.cont112 unwind label %lpad5

invoke.cont112:                                   ; preds = %invoke.cont111
  %call115 = invoke noundef nonnull align 8 dereferenceable(24) ptr @_ZN4cvc58internal11Cvc5ostreamlsINS0_12NodeTemplateILb1EEEEERS1_RKT_(ptr noundef nonnull align 8 dereferenceable(24) %call113, ptr noundef nonnull align 8 dereferenceable(8) %newAssertion)
          to label %invoke.cont114 unwind label %lpad5

invoke.cont114:                                   ; preds = %invoke.cont112
  %call117 = invoke noundef nonnull align 8 dereferenceable(24) ptr @_ZN4cvc58internal11Cvc5ostreamlsIA16_cEERS1_RKT_(ptr noundef nonnull align 8 dereferenceable(24) %call115, ptr noundef nonnull align 1 dereferenceable(16) @.str.18)
          to label %invoke.cont116 unwind label %lpad5

invoke.cont116:                                   ; preds = %invoke.cont114
  %call119 = invoke noundef nonnull align 8 dereferenceable(24) ptr @_ZN4cvc58internal11Cvc5ostreamlsEPFRSoS2_E(ptr noundef nonnull align 8 dereferenceable(24) %call117, ptr noundef @_ZSt4endlIcSt11char_traitsIcEERSt13basic_ostreamIT_T0_ES6_)
          to label %invoke.cont118 unwind label %lpad5

invoke.cont118:                                   ; preds = %invoke.cont116
  call void @llvm.memcpy.p0.p0.i64(ptr align 8 %agg.tmp.ensured109, ptr align 8 %call119, i64 24, i1 false)
  br label %cond.end120

cond.end120:                                      ; preds = %invoke.cont118, %invoke.cont107
  invoke void @_ZN4cvc58internal12NodeTemplateILb1EEC2ERKNS1_ILb0EEE(ptr noundef nonnull align 8 dereferenceable(8) %agg.tmp121, ptr noundef nonnull align 8 dereferenceable(8) %node)
          to label %invoke.cont122 unwind label %lpad5

invoke.cont122:                                   ; preds = %cond.end120
  invoke void @_ZN4cvc58internal18RemoveTermFormulas11getAxiomForENS0_12NodeTemplateILb1EEE(ptr sret(%"class.cvc5::internal::NodeTemplate") align 8 %axiom, ptr noundef %agg.tmp121)
          to label %invoke.cont124 unwind label %lpad123

invoke.cont124:                                   ; preds = %invoke.cont122
  call void @_ZN4cvc58internal12NodeTemplateILb1EED2Ev(ptr noundef nonnull align 8 dereferenceable(8) %agg.tmp121) #3
  %d_lp = getelementptr inbounds %"class.cvc5::internal::RemoveTermFormulas", ptr %this1, i32 0, i32 5
  %call126 = call noundef ptr @_ZNKSt10unique_ptrIN4cvc58internal11LazyCDProofESt14default_deleteIS2_EEptEv(ptr noundef nonnull align 8 dereferenceable(8) %d_lp) #3
  invoke void @_ZN4cvc58internal12NodeTemplateILb1EEC2ERKS2_(ptr noundef nonnull align 8 dereferenceable(8) %agg.tmp127, ptr noundef nonnull align 8 dereferenceable(8) %axiom)
          to label %invoke.cont129 unwind label %lpad128

invoke.cont129:                                   ; preds = %invoke.cont124
  call void @llvm.memset.p0.i64(ptr align 8 %ref.tmp130, i8 0, i64 24, i1 false)
  call void @_ZNSt6vectorIN4cvc58internal12NodeTemplateILb1EEESaIS3_EEC2Ev(ptr noundef nonnull align 8 dereferenceable(24) %ref.tmp130) #3
  %arrayinit.begin = getelementptr inbounds [1 x %"class.cvc5::internal::NodeTemplate"], ptr %ref.tmp133, i64 0, i64 0
  store ptr %arrayinit.begin, ptr %arrayinit.endOfInit, align 8
  invoke void @_ZN4cvc58internal12NodeTemplateILb1EEC2ERKNS1_ILb0EEE(ptr noundef nonnull align 8 dereferenceable(8) %arrayinit.begin, ptr noundef nonnull align 8 dereferenceable(8) %node)
          to label %invoke.cont135 unwind label %lpad134

invoke.cont135:                                   ; preds = %invoke.cont129
  %_M_array = getelementptr inbounds %"class.std::initializer_list", ptr %agg.tmp132, i32 0, i32 0
  %arraystart = getelementptr inbounds [1 x %"class.cvc5::internal::NodeTemplate"], ptr %ref.tmp133, i64 0, i64 0
  store ptr %arraystart, ptr %_M_array, align 8
  %_M_len = getelementptr inbounds %"class.std::initializer_list", ptr %agg.tmp132, i32 0, i32 1
  store i64 1, ptr %_M_len, align 8
  call void @_ZNSaIN4cvc58internal12NodeTemplateILb1EEEEC2Ev(ptr noundef nonnull align 1 dereferenceable(1) %ref.tmp138) #3
  %21 = getelementptr inbounds { ptr, i64 }, ptr %agg.tmp132, i32 0, i32 0
  %22 = load ptr, ptr %21, align 8
  %23 = getelementptr inbounds { ptr, i64 }, ptr %agg.tmp132, i32 0, i32 1
  %24 = load i64, ptr %23, align 8
  invoke void @_ZNSt6vectorIN4cvc58internal12NodeTemplateILb1EEESaIS3_EEC2ESt16initializer_listIS3_ERKS4_(ptr noundef nonnull align 8 dereferenceable(24) %ref.tmp131, ptr %22, i64 %24, ptr noundef nonnull align 1 dereferenceable(1) %ref.tmp138)
          to label %invoke.cont140 unwind label %lpad139

invoke.cont140:                                   ; preds = %invoke.cont135
  %call143 = invoke noundef zeroext i1 @_ZN4cvc58internal7CDProof7addStepENS0_12NodeTemplateILb1EEENS_9ProofRuleERKSt6vectorIS3_SaIS3_EES9_bNS0_12CDPOverwriteE(ptr noundef nonnull align 8 dereferenceable(217) %call126, ptr noundef %agg.tmp127, i32 noundef 12, ptr noundef nonnull align 8 dereferenceable(24) %ref.tmp130, ptr noundef nonnull align 8 dereferenceable(24) %ref.tmp131, i1 noundef zeroext false, i32 noundef 1)
          to label %invoke.cont142 unwind label %lpad141

invoke.cont142:                                   ; preds = %invoke.cont140
  call void @_ZNSt6vectorIN4cvc58internal12NodeTemplateILb1EEESaIS3_EED2Ev(ptr noundef nonnull align 8 dereferenceable(24) %ref.tmp131) #3
  call void @_ZNSaIN4cvc58internal12NodeTemplateILb1EEEED2Ev(ptr noundef nonnull align 1 dereferenceable(1) %ref.tmp138) #3
  %array.begin = getelementptr inbounds [1 x %"class.cvc5::internal::NodeTemplate"], ptr %ref.tmp133, i32 0, i32 0
  %25 = getelementptr inbounds %"class.cvc5::internal::NodeTemplate", ptr %array.begin, i64 1
  br label %arraydestroy.body146

arraydestroy.body146:                             ; preds = %arraydestroy.body146, %invoke.cont142
  %arraydestroy.elementPast147 = phi ptr [ %25, %invoke.cont142 ], [ %arraydestroy.element148, %arraydestroy.body146 ]
  %arraydestroy.element148 = getelementptr inbounds %"class.cvc5::internal::NodeTemplate", ptr %arraydestroy.elementPast147, i64 -1
  call void @_ZN4cvc58internal12NodeTemplateILb1EED2Ev(ptr noundef nonnull align 8 dereferenceable(8) %arraydestroy.element148) #3
  %arraydestroy.done149 = icmp eq ptr %arraydestroy.element148, %array.begin
  br i1 %arraydestroy.done149, label %arraydestroy.done150, label %arraydestroy.body146

arraydestroy.done150:                             ; preds = %arraydestroy.body146
  call void @_ZNSt6vectorIN4cvc58internal12NodeTemplateILb1EEESaIS3_EED2Ev(ptr noundef nonnull align 8 dereferenceable(24) %ref.tmp130) #3
  call void @_ZN4cvc58internal12NodeTemplateILb1EED2Ev(ptr noundef nonnull align 8 dereferenceable(8) %agg.tmp127) #3
  invoke void @_ZNK4cvc58internal12NodeTemplateILb0EE6eqNodeILb1EEENS1_ILb1EEERKNS1_IXT_EEE(ptr sret(%"class.cvc5::internal::NodeTemplate") align 8 %eq, ptr noundef nonnull align 8 dereferenceable(8) %node, ptr noundef nonnull align 8 dereferenceable(8) %skolem)
          to label %invoke.cont160 unwind label %lpad128

invoke.cont160:                                   ; preds = %arraydestroy.done150
  %d_lp161 = getelementptr inbounds %"class.cvc5::internal::RemoveTermFormulas", ptr %this1, i32 0, i32 5
  %call162 = call noundef ptr @_ZNKSt10unique_ptrIN4cvc58internal11LazyCDProofESt14default_deleteIS2_EEptEv(ptr noundef nonnull align 8 dereferenceable(8) %d_lp161) #3
  invoke void @_ZN4cvc58internal12NodeTemplateILb1EEC2ERKS2_(ptr noundef nonnull align 8 dereferenceable(8) %agg.tmp163, ptr noundef nonnull align 8 dereferenceable(8) %eq)
          to label %invoke.cont165 unwind label %lpad164

invoke.cont165:                                   ; preds = %invoke.cont160
  call void @llvm.memset.p0.i64(ptr align 8 %ref.tmp166, i8 0, i64 24, i1 false)
  call void @_ZNSt6vectorIN4cvc58internal12NodeTemplateILb1EEESaIS3_EEC2Ev(ptr noundef nonnull align 8 dereferenceable(24) %ref.tmp166) #3
  %arrayinit.begin170 = getelementptr inbounds [1 x %"class.cvc5::internal::NodeTemplate"], ptr %ref.tmp169, i64 0, i64 0
  store ptr %arrayinit.begin170, ptr %arrayinit.endOfInit171, align 8
  invoke void @_ZN4cvc58internal12NodeTemplateILb1EEC2ERKS2_(ptr noundef nonnull align 8 dereferenceable(8) %arrayinit.begin170, ptr noundef nonnull align 8 dereferenceable(8) %eq)
          to label %invoke.cont173 unwind label %lpad172

invoke.cont173:                                   ; preds = %invoke.cont165
  %_M_array181 = getelementptr inbounds %"class.std::initializer_list", ptr %agg.tmp168, i32 0, i32 0
  %arraystart182 = getelementptr inbounds [1 x %"class.cvc5::internal::NodeTemplate"], ptr %ref.tmp169, i64 0, i64 0
  store ptr %arraystart182, ptr %_M_array181, align 8
  %_M_len183 = getelementptr inbounds %"class.std::initializer_list", ptr %agg.tmp168, i32 0, i32 1
  store i64 1, ptr %_M_len183, align 8
  call void @_ZNSaIN4cvc58internal12NodeTemplateILb1EEEEC2Ev(ptr noundef nonnull align 1 dereferenceable(1) %ref.tmp184) #3
  %26 = getelementptr inbounds { ptr, i64 }, ptr %agg.tmp168, i32 0, i32 0
  %27 = load ptr, ptr %26, align 8
  %28 = getelementptr inbounds { ptr, i64 }, ptr %agg.tmp168, i32 0, i32 1
  %29 = load i64, ptr %28, align 8
  invoke void @_ZNSt6vectorIN4cvc58internal12NodeTemplateILb1EEESaIS3_EEC2ESt16initializer_listIS3_ERKS4_(ptr noundef nonnull align 8 dereferenceable(24) %ref.tmp167, ptr %27, i64 %29, ptr noundef nonnull align 1 dereferenceable(1) %ref.tmp184)
          to label %invoke.cont186 unwind label %lpad185

invoke.cont186:                                   ; preds = %invoke.cont173
  %call189 = invoke noundef zeroext i1 @_ZN4cvc58internal7CDProof7addStepENS0_12NodeTemplateILb1EEENS_9ProofRuleERKSt6vectorIS3_SaIS3_EES9_bNS0_12CDPOverwriteE(ptr noundef nonnull align 8 dereferenceable(217) %call162, ptr noundef %agg.tmp163, i32 noundef 6, ptr noundef nonnull align 8 dereferenceable(24) %ref.tmp166, ptr noundef nonnull align 8 dereferenceable(24) %ref.tmp167, i1 noundef zeroext false, i32 noundef 1)
          to label %invoke.cont188 unwind label %lpad187

invoke.cont188:                                   ; preds = %invoke.cont186
  call void @_ZNSt6vectorIN4cvc58internal12NodeTemplateILb1EEESaIS3_EED2Ev(ptr noundef nonnull align 8 dereferenceable(24) %ref.tmp167) #3
  call void @_ZNSaIN4cvc58internal12NodeTemplateILb1EEEED2Ev(ptr noundef nonnull align 1 dereferenceable(1) %ref.tmp184) #3
  %array.begin192 = getelementptr inbounds [1 x %"class.cvc5::internal::NodeTemplate"], ptr %ref.tmp169, i32 0, i32 0
  %30 = getelementptr inbounds %"class.cvc5::internal::NodeTemplate", ptr %array.begin192, i64 1
  br label %arraydestroy.body193

arraydestroy.body193:                             ; preds = %arraydestroy.body193, %invoke.cont188
  %arraydestroy.elementPast194 = phi ptr [ %30, %invoke.cont188 ], [ %arraydestroy.element195, %arraydestroy.body193 ]
  %arraydestroy.element195 = getelementptr inbounds %"class.cvc5::internal::NodeTemplate", ptr %arraydestroy.elementPast194, i64 -1
  call void @_ZN4cvc58internal12NodeTemplateILb1EED2Ev(ptr noundef nonnull align 8 dereferenceable(8) %arraydestroy.element195) #3
  %arraydestroy.done196 = icmp eq ptr %arraydestroy.element195, %array.begin192
  br i1 %arraydestroy.done196, label %arraydestroy.done197, label %arraydestroy.body193

arraydestroy.done197:                             ; preds = %arraydestroy.body193
  call void @_ZNSt6vectorIN4cvc58internal12NodeTemplateILb1EEESaIS3_EED2Ev(ptr noundef nonnull align 8 dereferenceable(24) %ref.tmp166) #3
  call void @_ZN4cvc58internal12NodeTemplateILb1EED2Ev(ptr noundef nonnull align 8 dereferenceable(8) %agg.tmp163) #3
  %d_lp207 = getelementptr inbounds %"class.cvc5::internal::RemoveTermFormulas", ptr %this1, i32 0, i32 5
  %call208 = call noundef ptr @_ZNKSt10unique_ptrIN4cvc58internal11LazyCDProofESt14default_deleteIS2_EEptEv(ptr noundef nonnull align 8 dereferenceable(8) %d_lp207) #3
  invoke void @_ZN4cvc58internal12NodeTemplateILb1EEC2ERKS2_(ptr noundef nonnull align 8 dereferenceable(8) %agg.tmp209, ptr noundef nonnull align 8 dereferenceable(8) %newAssertion)
          to label %invoke.cont210 unwind label %lpad164

invoke.cont210:                                   ; preds = %arraydestroy.done197
  %arrayinit.begin214 = getelementptr inbounds [2 x %"class.cvc5::internal::NodeTemplate"], ptr %ref.tmp213, i64 0, i64 0
  store ptr %arrayinit.begin214, ptr %arrayinit.endOfInit215, align 8
  invoke void @_ZN4cvc58internal12NodeTemplateILb1EEC2ERKS2_(ptr noundef nonnull align 8 dereferenceable(8) %arrayinit.begin214, ptr noundef nonnull align 8 dereferenceable(8) %axiom)
          to label %invoke.cont217 unwind label %lpad216

invoke.cont217:                                   ; preds = %invoke.cont210
  %arrayinit.element = getelementptr inbounds %"class.cvc5::internal::NodeTemplate", ptr %arrayinit.begin214, i64 1
  store ptr %arrayinit.element, ptr %arrayinit.endOfInit215, align 8
  invoke void @_ZN4cvc58internal12NodeTemplateILb1EEC2ERKS2_(ptr noundef nonnull align 8 dereferenceable(8) %arrayinit.element, ptr noundef nonnull align 8 dereferenceable(8) %eq)
          to label %invoke.cont218 unwind label %lpad216

invoke.cont218:                                   ; preds = %invoke.cont217
  %_M_array226 = getelementptr inbounds %"class.std::initializer_list", ptr %agg.tmp212, i32 0, i32 0
  %arraystart227 = getelementptr inbounds [2 x %"class.cvc5::internal::NodeTemplate"], ptr %ref.tmp213, i64 0, i64 0
  store ptr %arraystart227, ptr %_M_array226, align 8
  %_M_len228 = getelementptr inbounds %"class.std::initializer_list", ptr %agg.tmp212, i32 0, i32 1
  store i64 2, ptr %_M_len228, align 8
  call void @_ZNSaIN4cvc58internal12NodeTemplateILb1EEEEC2Ev(ptr noundef nonnull align 1 dereferenceable(1) %ref.tmp229) #3
  %31 = getelementptr inbounds { ptr, i64 }, ptr %agg.tmp212, i32 0, i32 0
  %32 = load ptr, ptr %31, align 8
  %33 = getelementptr inbounds { ptr, i64 }, ptr %agg.tmp212, i32 0, i32 1
  %34 = load i64, ptr %33, align 8
  invoke void @_ZNSt6vectorIN4cvc58internal12NodeTemplateILb1EEESaIS3_EEC2ESt16initializer_listIS3_ERKS4_(ptr noundef nonnull align 8 dereferenceable(24) %ref.tmp211, ptr %32, i64 %34, ptr noundef nonnull align 1 dereferenceable(1) %ref.tmp229)
          to label %invoke.cont231 unwind label %lpad230

invoke.cont231:                                   ; preds = %invoke.cont218
  %arrayinit.begin235 = getelementptr inbounds [1 x %"class.cvc5::internal::NodeTemplate"], ptr %ref.tmp234, i64 0, i64 0
  store ptr %arrayinit.begin235, ptr %arrayinit.endOfInit236, align 8
  invoke void @_ZN4cvc58internal12NodeTemplateILb1EEC2ERKS2_(ptr noundef nonnull align 8 dereferenceable(8) %arrayinit.begin235, ptr noundef nonnull align 8 dereferenceable(8) %newAssertion)
          to label %invoke.cont238 unwind label %lpad237

invoke.cont238:                                   ; preds = %invoke.cont231
  %_M_array246 = getelementptr inbounds %"class.std::initializer_list", ptr %agg.tmp233, i32 0, i32 0
  %arraystart247 = getelementptr inbounds [1 x %"class.cvc5::internal::NodeTemplate"], ptr %ref.tmp234, i64 0, i64 0
  store ptr %arraystart247, ptr %_M_array246, align 8
  %_M_len248 = getelementptr inbounds %"class.std::initializer_list", ptr %agg.tmp233, i32 0, i32 1
  store i64 1, ptr %_M_len248, align 8
  call void @_ZNSaIN4cvc58internal12NodeTemplateILb1EEEEC2Ev(ptr noundef nonnull align 1 dereferenceable(1) %ref.tmp249) #3
  %35 = getelementptr inbounds { ptr, i64 }, ptr %agg.tmp233, i32 0, i32 0
  %36 = load ptr, ptr %35, align 8
  %37 = getelementptr inbounds { ptr, i64 }, ptr %agg.tmp233, i32 0, i32 1
  %38 = load i64, ptr %37, align 8
  invoke void @_ZNSt6vectorIN4cvc58internal12NodeTemplateILb1EEESaIS3_EEC2ESt16initializer_listIS3_ERKS4_(ptr noundef nonnull align 8 dereferenceable(24) %ref.tmp232, ptr %36, i64 %38, ptr noundef nonnull align 1 dereferenceable(1) %ref.tmp249)
          to label %invoke.cont251 unwind label %lpad250

invoke.cont251:                                   ; preds = %invoke.cont238
  %call254 = invoke noundef zeroext i1 @_ZN4cvc58internal7CDProof7addStepENS0_12NodeTemplateILb1EEENS_9ProofRuleERKSt6vectorIS3_SaIS3_EES9_bNS0_12CDPOverwriteE(ptr noundef nonnull align 8 dereferenceable(217) %call208, ptr noundef %agg.tmp209, i32 noundef 8, ptr noundef nonnull align 8 dereferenceable(24) %ref.tmp211, ptr noundef nonnull align 8 dereferenceable(24) %ref.tmp232, i1 noundef zeroext false, i32 noundef 1)
          to label %invoke.cont253 unwind label %lpad252

invoke.cont253:                                   ; preds = %invoke.cont251
  call void @_ZNSt6vectorIN4cvc58internal12NodeTemplateILb1EEESaIS3_EED2Ev(ptr noundef nonnull align 8 dereferenceable(24) %ref.tmp232) #3
  call void @_ZNSaIN4cvc58internal12NodeTemplateILb1EEEED2Ev(ptr noundef nonnull align 1 dereferenceable(1) %ref.tmp249) #3
  %array.begin257 = getelementptr inbounds [1 x %"class.cvc5::internal::NodeTemplate"], ptr %ref.tmp234, i32 0, i32 0
  %39 = getelementptr inbounds %"class.cvc5::internal::NodeTemplate", ptr %array.begin257, i64 1
  br label %arraydestroy.body258

arraydestroy.body258:                             ; preds = %arraydestroy.body258, %invoke.cont253
  %arraydestroy.elementPast259 = phi ptr [ %39, %invoke.cont253 ], [ %arraydestroy.element260, %arraydestroy.body258 ]
  %arraydestroy.element260 = getelementptr inbounds %"class.cvc5::internal::NodeTemplate", ptr %arraydestroy.elementPast259, i64 -1
  call void @_ZN4cvc58internal12NodeTemplateILb1EED2Ev(ptr noundef nonnull align 8 dereferenceable(8) %arraydestroy.element260) #3
  %arraydestroy.done261 = icmp eq ptr %arraydestroy.element260, %array.begin257
  br i1 %arraydestroy.done261, label %arraydestroy.done262, label %arraydestroy.body258

arraydestroy.done262:                             ; preds = %arraydestroy.body258
  call void @_ZNSt6vectorIN4cvc58internal12NodeTemplateILb1EEESaIS3_EED2Ev(ptr noundef nonnull align 8 dereferenceable(24) %ref.tmp211) #3
  call void @_ZNSaIN4cvc58internal12NodeTemplateILb1EEEED2Ev(ptr noundef nonnull align 1 dereferenceable(1) %ref.tmp229) #3
  %array.begin272 = getelementptr inbounds [2 x %"class.cvc5::internal::NodeTemplate"], ptr %ref.tmp213, i32 0, i32 0
  %40 = getelementptr inbounds %"class.cvc5::internal::NodeTemplate", ptr %array.begin272, i64 2
  br label %arraydestroy.body273

arraydestroy.body273:                             ; preds = %arraydestroy.body273, %arraydestroy.done262
  %arraydestroy.elementPast274 = phi ptr [ %40, %arraydestroy.done262 ], [ %arraydestroy.element275, %arraydestroy.body273 ]
  %arraydestroy.element275 = getelementptr inbounds %"class.cvc5::internal::NodeTemplate", ptr %arraydestroy.elementPast274, i64 -1
  call void @_ZN4cvc58internal12NodeTemplateILb1EED2Ev(ptr noundef nonnull align 8 dereferenceable(8) %arraydestroy.element275) #3
  %arraydestroy.done276 = icmp eq ptr %arraydestroy.element275, %array.begin272
  br i1 %arraydestroy.done276, label %arraydestroy.done277, label %arraydestroy.body273

arraydestroy.done277:                             ; preds = %arraydestroy.body273
  call void @_ZN4cvc58internal12NodeTemplateILb1EED2Ev(ptr noundef nonnull align 8 dereferenceable(8) %agg.tmp209) #3
  %d_lp286 = getelementptr inbounds %"class.cvc5::internal::RemoveTermFormulas", ptr %this1, i32 0, i32 5
  %call287 = call noundef ptr @_ZNKSt10unique_ptrIN4cvc58internal11LazyCDProofESt14default_deleteIS2_EE3getEv(ptr noundef nonnull align 8 dereferenceable(8) %d_lp286) #3
  %41 = icmp eq ptr %call287, null
  br i1 %41, label %cast.end, label %cast.notnull

cast.notnull:                                     ; preds = %arraydestroy.done277
  %add.ptr288 = getelementptr inbounds i8, ptr %call287, i64 16
  br label %cast.end

cast.end:                                         ; preds = %cast.notnull, %arraydestroy.done277
  %cast.result = phi ptr [ %add.ptr288, %cast.notnull ], [ null, %arraydestroy.done277 ]
  store ptr %cast.result, ptr %newAssertionPg, align 8
  call void @_ZN4cvc58internal12NodeTemplateILb1EED2Ev(ptr noundef nonnull align 8 dereferenceable(8) %eq) #3
  call void @_ZN4cvc58internal12NodeTemplateILb1EED2Ev(ptr noundef nonnull align 8 dereferenceable(8) %axiom) #3
  br label %if.end291

lpad30:                                           ; preds = %invoke.cont29
  %42 = landingpad { ptr, i32 }
          cleanup
  %43 = extractvalue { ptr, i32 } %42, 0
  store ptr %43, ptr %exn.slot, align 8
  %44 = extractvalue { ptr, i32 } %42, 1
  store i32 %44, ptr %ehselector.slot, align 4
  br label %ehcleanup36

lpad32:                                           ; preds = %invoke.cont31
  %45 = landingpad { ptr, i32 }
          cleanup
  %46 = extractvalue { ptr, i32 } %45, 0
  store ptr %46, ptr %exn.slot, align 8
  %47 = extractvalue { ptr, i32 } %45, 1
  store i32 %47, ptr %ehselector.slot, align 4
  call void @_ZN4cvc58internal12NodeTemplateILb1EED2Ev(ptr noundef nonnull align 8 dereferenceable(8) %ref.tmp28) #3
  br label %ehcleanup36

ehcleanup36:                                      ; preds = %lpad32, %lpad30
  call void @_ZN4cvc58internal12NodeTemplateILb1EED2Ev(ptr noundef nonnull align 8 dereferenceable(8) %agg.tmp) #3
  br label %ehcleanup707

lpad53:                                           ; preds = %invoke.cont52
  %48 = landingpad { ptr, i32 }
          cleanup
  %49 = extractvalue { ptr, i32 } %48, 0
  store ptr %49, ptr %exn.slot, align 8
  %50 = extractvalue { ptr, i32 } %48, 1
  store i32 %50, ptr %ehselector.slot, align 4
  br label %ehcleanup59

lpad55:                                           ; preds = %invoke.cont54
  %51 = landingpad { ptr, i32 }
          cleanup
  %52 = extractvalue { ptr, i32 } %51, 0
  store ptr %52, ptr %exn.slot, align 8
  %53 = extractvalue { ptr, i32 } %51, 1
  store i32 %53, ptr %ehselector.slot, align 4
  call void @_ZN4cvc58internal12NodeTemplateILb1EED2Ev(ptr noundef nonnull align 8 dereferenceable(8) %ref.tmp50) #3
  br label %ehcleanup59

ehcleanup59:                                      ; preds = %lpad55, %lpad53
  call void @_ZN4cvc58internal12NodeTemplateILb1EED2Ev(ptr noundef nonnull align 8 dereferenceable(8) %agg.tmp51) #3
  br label %ehcleanup707

lpad62:                                           ; preds = %invoke.cont61
  %54 = landingpad { ptr, i32 }
          cleanup
  %55 = extractvalue { ptr, i32 } %54, 0
  store ptr %55, ptr %exn.slot, align 8
  %56 = extractvalue { ptr, i32 } %54, 1
  store i32 %56, ptr %ehselector.slot, align 4
  call void @_ZN4cvc58internal12NodeTemplateILb1EED2Ev(ptr noundef nonnull align 8 dereferenceable(8) %ref.tmp60) #3
  br label %ehcleanup707

lpad71:                                           ; preds = %invoke.cont67
  %57 = landingpad { ptr, i32 }
          cleanup
  %58 = extractvalue { ptr, i32 } %57, 0
  store ptr %58, ptr %exn.slot, align 8
  %59 = extractvalue { ptr, i32 } %57, 1
  store i32 %59, ptr %ehselector.slot, align 4
  br label %ehcleanup98

lpad73:                                           ; preds = %invoke.cont72
  %60 = landingpad { ptr, i32 }
          cleanup
  %61 = extractvalue { ptr, i32 } %60, 0
  store ptr %61, ptr %exn.slot, align 8
  %62 = extractvalue { ptr, i32 } %60, 1
  store i32 %62, ptr %ehselector.slot, align 4
  br label %ehcleanup97

lpad75:                                           ; preds = %invoke.cont74
  %63 = landingpad { ptr, i32 }
          cleanup
  %64 = extractvalue { ptr, i32 } %63, 0
  store ptr %64, ptr %exn.slot, align 8
  %65 = extractvalue { ptr, i32 } %63, 1
  store i32 %65, ptr %ehselector.slot, align 4
  br label %ehcleanup96

lpad80:                                           ; preds = %invoke.cont76
  %66 = landingpad { ptr, i32 }
          cleanup
  %67 = extractvalue { ptr, i32 } %66, 0
  store ptr %67, ptr %exn.slot, align 8
  %68 = extractvalue { ptr, i32 } %66, 1
  store i32 %68, ptr %ehselector.slot, align 4
  br label %ehcleanup95

lpad82:                                           ; preds = %invoke.cont81
  %69 = landingpad { ptr, i32 }
          cleanup
  %70 = extractvalue { ptr, i32 } %69, 0
  store ptr %70, ptr %exn.slot, align 8
  %71 = extractvalue { ptr, i32 } %69, 1
  store i32 %71, ptr %ehselector.slot, align 4
  br label %ehcleanup94

lpad84:                                           ; preds = %invoke.cont83
  %72 = landingpad { ptr, i32 }
          cleanup
  %73 = extractvalue { ptr, i32 } %72, 0
  store ptr %73, ptr %exn.slot, align 8
  %74 = extractvalue { ptr, i32 } %72, 1
  store i32 %74, ptr %ehselector.slot, align 4
  br label %ehcleanup93

lpad86:                                           ; preds = %invoke.cont85
  %75 = landingpad { ptr, i32 }
          cleanup
  %76 = extractvalue { ptr, i32 } %75, 0
  store ptr %76, ptr %exn.slot, align 8
  %77 = extractvalue { ptr, i32 } %75, 1
  store i32 %77, ptr %ehselector.slot, align 4
  br label %ehcleanup92

lpad88:                                           ; preds = %invoke.cont87
  %78 = landingpad { ptr, i32 }
          cleanup
  %79 = extractvalue { ptr, i32 } %78, 0
  store ptr %79, ptr %exn.slot, align 8
  %80 = extractvalue { ptr, i32 } %78, 1
  store i32 %80, ptr %ehselector.slot, align 4
  call void @_ZN4cvc58internal12NodeTemplateILb1EED2Ev(ptr noundef nonnull align 8 dereferenceable(8) %ref.tmp65) #3
  br label %ehcleanup92

ehcleanup92:                                      ; preds = %lpad88, %lpad86
  call void @_ZN4cvc58internal12NodeTemplateILb0EED2Ev(ptr noundef nonnull align 8 dereferenceable(8) %agg.tmp77) #3
  br label %ehcleanup93

ehcleanup93:                                      ; preds = %ehcleanup92, %lpad84
  call void @_ZN4cvc58internal12NodeTemplateILb1EED2Ev(ptr noundef nonnull align 8 dereferenceable(8) %ref.tmp78) #3
  br label %ehcleanup94

ehcleanup94:                                      ; preds = %ehcleanup93, %lpad82
  call void @_ZN4cvc58internal12NodeTemplateILb0EED2Ev(ptr noundef nonnull align 8 dereferenceable(8) %ref.tmp79) #3
  br label %ehcleanup95

ehcleanup95:                                      ; preds = %ehcleanup94, %lpad80
  call void @_ZN4cvc58internal12NodeTemplateILb0EED2Ev(ptr noundef nonnull align 8 dereferenceable(8) %agg.tmp68) #3
  br label %ehcleanup96

ehcleanup96:                                      ; preds = %ehcleanup95, %lpad75
  call void @_ZN4cvc58internal12NodeTemplateILb1EED2Ev(ptr noundef nonnull align 8 dereferenceable(8) %ref.tmp69) #3
  br label %ehcleanup97

ehcleanup97:                                      ; preds = %ehcleanup96, %lpad73
  call void @_ZN4cvc58internal12NodeTemplateILb0EED2Ev(ptr noundef nonnull align 8 dereferenceable(8) %ref.tmp70) #3
  br label %ehcleanup98

ehcleanup98:                                      ; preds = %ehcleanup97, %lpad71
  call void @_ZN4cvc58internal12NodeTemplateILb0EED2Ev(ptr noundef nonnull align 8 dereferenceable(8) %agg.tmp66) #3
  br label %ehcleanup707

lpad123:                                          ; preds = %invoke.cont122
  %81 = landingpad { ptr, i32 }
          cleanup
  %82 = extractvalue { ptr, i32 } %81, 0
  store ptr %82, ptr %exn.slot, align 8
  %83 = extractvalue { ptr, i32 } %81, 1
  store i32 %83, ptr %ehselector.slot, align 4
  call void @_ZN4cvc58internal12NodeTemplateILb1EED2Ev(ptr noundef nonnull align 8 dereferenceable(8) %agg.tmp121) #3
  br label %ehcleanup707

lpad128:                                          ; preds = %arraydestroy.done150, %invoke.cont124
  %84 = landingpad { ptr, i32 }
          cleanup
  %85 = extractvalue { ptr, i32 } %84, 0
  store ptr %85, ptr %exn.slot, align 8
  %86 = extractvalue { ptr, i32 } %84, 1
  store i32 %86, ptr %ehselector.slot, align 4
  br label %ehcleanup290

lpad134:                                          ; preds = %invoke.cont129
  %87 = landingpad { ptr, i32 }
          cleanup
  %88 = extractvalue { ptr, i32 } %87, 0
  store ptr %88, ptr %exn.slot, align 8
  %89 = extractvalue { ptr, i32 } %87, 1
  store i32 %89, ptr %ehselector.slot, align 4
  %90 = load ptr, ptr %arrayinit.endOfInit, align 8
  %arraydestroy.isempty = icmp eq ptr %arrayinit.begin, %90
  br i1 %arraydestroy.isempty, label %arraydestroy.done137, label %arraydestroy.body

arraydestroy.body:                                ; preds = %arraydestroy.body, %lpad134
  %arraydestroy.elementPast = phi ptr [ %90, %lpad134 ], [ %arraydestroy.element, %arraydestroy.body ]
  %arraydestroy.element = getelementptr inbounds %"class.cvc5::internal::NodeTemplate", ptr %arraydestroy.elementPast, i64 -1
  call void @_ZN4cvc58internal12NodeTemplateILb1EED2Ev(ptr noundef nonnull align 8 dereferenceable(8) %arraydestroy.element) #3
  %arraydestroy.done = icmp eq ptr %arraydestroy.element, %arrayinit.begin
  br i1 %arraydestroy.done, label %arraydestroy.done137, label %arraydestroy.body

arraydestroy.done137:                             ; preds = %arraydestroy.body, %lpad134
  br label %ehcleanup158

lpad139:                                          ; preds = %invoke.cont135
  %91 = landingpad { ptr, i32 }
          cleanup
  %92 = extractvalue { ptr, i32 } %91, 0
  store ptr %92, ptr %exn.slot, align 8
  %93 = extractvalue { ptr, i32 } %91, 1
  store i32 %93, ptr %ehselector.slot, align 4
  br label %ehcleanup145

lpad141:                                          ; preds = %invoke.cont140
  %94 = landingpad { ptr, i32 }
          cleanup
  %95 = extractvalue { ptr, i32 } %94, 0
  store ptr %95, ptr %exn.slot, align 8
  %96 = extractvalue { ptr, i32 } %94, 1
  store i32 %96, ptr %ehselector.slot, align 4
  call void @_ZNSt6vectorIN4cvc58internal12NodeTemplateILb1EEESaIS3_EED2Ev(ptr noundef nonnull align 8 dereferenceable(24) %ref.tmp131) #3
  br label %ehcleanup145

ehcleanup145:                                     ; preds = %lpad141, %lpad139
  call void @_ZNSaIN4cvc58internal12NodeTemplateILb1EEEED2Ev(ptr noundef nonnull align 1 dereferenceable(1) %ref.tmp138) #3
  %array.begin152 = getelementptr inbounds [1 x %"class.cvc5::internal::NodeTemplate"], ptr %ref.tmp133, i32 0, i32 0
  %97 = getelementptr inbounds %"class.cvc5::internal::NodeTemplate", ptr %array.begin152, i64 1
  br label %arraydestroy.body153

arraydestroy.body153:                             ; preds = %arraydestroy.body153, %ehcleanup145
  %arraydestroy.elementPast154 = phi ptr [ %97, %ehcleanup145 ], [ %arraydestroy.element155, %arraydestroy.body153 ]
  %arraydestroy.element155 = getelementptr inbounds %"class.cvc5::internal::NodeTemplate", ptr %arraydestroy.elementPast154, i64 -1
  call void @_ZN4cvc58internal12NodeTemplateILb1EED2Ev(ptr noundef nonnull align 8 dereferenceable(8) %arraydestroy.element155) #3
  %arraydestroy.done156 = icmp eq ptr %arraydestroy.element155, %array.begin152
  br i1 %arraydestroy.done156, label %arraydestroy.done157, label %arraydestroy.body153

arraydestroy.done157:                             ; preds = %arraydestroy.body153
  br label %ehcleanup158

ehcleanup158:                                     ; preds = %arraydestroy.done157, %arraydestroy.done137
  call void @_ZNSt6vectorIN4cvc58internal12NodeTemplateILb1EEESaIS3_EED2Ev(ptr noundef nonnull align 8 dereferenceable(24) %ref.tmp130) #3
  call void @_ZN4cvc58internal12NodeTemplateILb1EED2Ev(ptr noundef nonnull align 8 dereferenceable(8) %agg.tmp127) #3
  br label %ehcleanup290

lpad164:                                          ; preds = %arraydestroy.done197, %invoke.cont160
  %98 = landingpad { ptr, i32 }
          cleanup
  %99 = extractvalue { ptr, i32 } %98, 0
  store ptr %99, ptr %exn.slot, align 8
  %100 = extractvalue { ptr, i32 } %98, 1
  store i32 %100, ptr %ehselector.slot, align 4
  br label %ehcleanup289

lpad172:                                          ; preds = %invoke.cont165
  %101 = landingpad { ptr, i32 }
          cleanup
  %102 = extractvalue { ptr, i32 } %101, 0
  store ptr %102, ptr %exn.slot, align 8
  %103 = extractvalue { ptr, i32 } %101, 1
  store i32 %103, ptr %ehselector.slot, align 4
  %104 = load ptr, ptr %arrayinit.endOfInit171, align 8
  %arraydestroy.isempty175 = icmp eq ptr %arrayinit.begin170, %104
  br i1 %arraydestroy.isempty175, label %arraydestroy.done180, label %arraydestroy.body176

arraydestroy.body176:                             ; preds = %arraydestroy.body176, %lpad172
  %arraydestroy.elementPast177 = phi ptr [ %104, %lpad172 ], [ %arraydestroy.element178, %arraydestroy.body176 ]
  %arraydestroy.element178 = getelementptr inbounds %"class.cvc5::internal::NodeTemplate", ptr %arraydestroy.elementPast177, i64 -1
  call void @_ZN4cvc58internal12NodeTemplateILb1EED2Ev(ptr noundef nonnull align 8 dereferenceable(8) %arraydestroy.element178) #3
  %arraydestroy.done179 = icmp eq ptr %arraydestroy.element178, %arrayinit.begin170
  br i1 %arraydestroy.done179, label %arraydestroy.done180, label %arraydestroy.body176

arraydestroy.done180:                             ; preds = %arraydestroy.body176, %lpad172
  br label %ehcleanup205

lpad185:                                          ; preds = %invoke.cont173
  %105 = landingpad { ptr, i32 }
          cleanup
  %106 = extractvalue { ptr, i32 } %105, 0
  store ptr %106, ptr %exn.slot, align 8
  %107 = extractvalue { ptr, i32 } %105, 1
  store i32 %107, ptr %ehselector.slot, align 4
  br label %ehcleanup191

lpad187:                                          ; preds = %invoke.cont186
  %108 = landingpad { ptr, i32 }
          cleanup
  %109 = extractvalue { ptr, i32 } %108, 0
  store ptr %109, ptr %exn.slot, align 8
  %110 = extractvalue { ptr, i32 } %108, 1
  store i32 %110, ptr %ehselector.slot, align 4
  call void @_ZNSt6vectorIN4cvc58internal12NodeTemplateILb1EEESaIS3_EED2Ev(ptr noundef nonnull align 8 dereferenceable(24) %ref.tmp167) #3
  br label %ehcleanup191

ehcleanup191:                                     ; preds = %lpad187, %lpad185
  call void @_ZNSaIN4cvc58internal12NodeTemplateILb1EEEED2Ev(ptr noundef nonnull align 1 dereferenceable(1) %ref.tmp184) #3
  %array.begin199 = getelementptr inbounds [1 x %"class.cvc5::internal::NodeTemplate"], ptr %ref.tmp169, i32 0, i32 0
  %111 = getelementptr inbounds %"class.cvc5::internal::NodeTemplate", ptr %array.begin199, i64 1
  br label %arraydestroy.body200

arraydestroy.body200:                             ; preds = %arraydestroy.body200, %ehcleanup191
  %arraydestroy.elementPast201 = phi ptr [ %111, %ehcleanup191 ], [ %arraydestroy.element202, %arraydestroy.body200 ]
  %arraydestroy.element202 = getelementptr inbounds %"class.cvc5::internal::NodeTemplate", ptr %arraydestroy.elementPast201, i64 -1
  call void @_ZN4cvc58internal12NodeTemplateILb1EED2Ev(ptr noundef nonnull align 8 dereferenceable(8) %arraydestroy.element202) #3
  %arraydestroy.done203 = icmp eq ptr %arraydestroy.element202, %array.begin199
  br i1 %arraydestroy.done203, label %arraydestroy.done204, label %arraydestroy.body200

arraydestroy.done204:                             ; preds = %arraydestroy.body200
  br label %ehcleanup205

ehcleanup205:                                     ; preds = %arraydestroy.done204, %arraydestroy.done180
  call void @_ZNSt6vectorIN4cvc58internal12NodeTemplateILb1EEESaIS3_EED2Ev(ptr noundef nonnull align 8 dereferenceable(24) %ref.tmp166) #3
  call void @_ZN4cvc58internal12NodeTemplateILb1EED2Ev(ptr noundef nonnull align 8 dereferenceable(8) %agg.tmp163) #3
  br label %ehcleanup289

lpad216:                                          ; preds = %invoke.cont217, %invoke.cont210
  %112 = landingpad { ptr, i32 }
          cleanup
  %113 = extractvalue { ptr, i32 } %112, 0
  store ptr %113, ptr %exn.slot, align 8
  %114 = extractvalue { ptr, i32 } %112, 1
  store i32 %114, ptr %ehselector.slot, align 4
  %115 = load ptr, ptr %arrayinit.endOfInit215, align 8
  %arraydestroy.isempty220 = icmp eq ptr %arrayinit.begin214, %115
  br i1 %arraydestroy.isempty220, label %arraydestroy.done225, label %arraydestroy.body221

arraydestroy.body221:                             ; preds = %arraydestroy.body221, %lpad216
  %arraydestroy.elementPast222 = phi ptr [ %115, %lpad216 ], [ %arraydestroy.element223, %arraydestroy.body221 ]
  %arraydestroy.element223 = getelementptr inbounds %"class.cvc5::internal::NodeTemplate", ptr %arraydestroy.elementPast222, i64 -1
  call void @_ZN4cvc58internal12NodeTemplateILb1EED2Ev(ptr noundef nonnull align 8 dereferenceable(8) %arraydestroy.element223) #3
  %arraydestroy.done224 = icmp eq ptr %arraydestroy.element223, %arrayinit.begin214
  br i1 %arraydestroy.done224, label %arraydestroy.done225, label %arraydestroy.body221

arraydestroy.done225:                             ; preds = %arraydestroy.body221, %lpad216
  br label %ehcleanup285

lpad230:                                          ; preds = %invoke.cont218
  %116 = landingpad { ptr, i32 }
          cleanup
  %117 = extractvalue { ptr, i32 } %116, 0
  store ptr %117, ptr %exn.slot, align 8
  %118 = extractvalue { ptr, i32 } %116, 1
  store i32 %118, ptr %ehselector.slot, align 4
  br label %ehcleanup271

lpad237:                                          ; preds = %invoke.cont231
  %119 = landingpad { ptr, i32 }
          cleanup
  %120 = extractvalue { ptr, i32 } %119, 0
  store ptr %120, ptr %exn.slot, align 8
  %121 = extractvalue { ptr, i32 } %119, 1
  store i32 %121, ptr %ehselector.slot, align 4
  %122 = load ptr, ptr %arrayinit.endOfInit236, align 8
  %arraydestroy.isempty240 = icmp eq ptr %arrayinit.begin235, %122
  br i1 %arraydestroy.isempty240, label %arraydestroy.done245, label %arraydestroy.body241

arraydestroy.body241:                             ; preds = %arraydestroy.body241, %lpad237
  %arraydestroy.elementPast242 = phi ptr [ %122, %lpad237 ], [ %arraydestroy.element243, %arraydestroy.body241 ]
  %arraydestroy.element243 = getelementptr inbounds %"class.cvc5::internal::NodeTemplate", ptr %arraydestroy.elementPast242, i64 -1
  call void @_ZN4cvc58internal12NodeTemplateILb1EED2Ev(ptr noundef nonnull align 8 dereferenceable(8) %arraydestroy.element243) #3
  %arraydestroy.done244 = icmp eq ptr %arraydestroy.element243, %arrayinit.begin235
  br i1 %arraydestroy.done244, label %arraydestroy.done245, label %arraydestroy.body241

arraydestroy.done245:                             ; preds = %arraydestroy.body241, %lpad237
  br label %ehcleanup270

lpad250:                                          ; preds = %invoke.cont238
  %123 = landingpad { ptr, i32 }
          cleanup
  %124 = extractvalue { ptr, i32 } %123, 0
  store ptr %124, ptr %exn.slot, align 8
  %125 = extractvalue { ptr, i32 } %123, 1
  store i32 %125, ptr %ehselector.slot, align 4
  br label %ehcleanup256

lpad252:                                          ; preds = %invoke.cont251
  %126 = landingpad { ptr, i32 }
          cleanup
  %127 = extractvalue { ptr, i32 } %126, 0
  store ptr %127, ptr %exn.slot, align 8
  %128 = extractvalue { ptr, i32 } %126, 1
  store i32 %128, ptr %ehselector.slot, align 4
  call void @_ZNSt6vectorIN4cvc58internal12NodeTemplateILb1EEESaIS3_EED2Ev(ptr noundef nonnull align 8 dereferenceable(24) %ref.tmp232) #3
  br label %ehcleanup256

ehcleanup256:                                     ; preds = %lpad252, %lpad250
  call void @_ZNSaIN4cvc58internal12NodeTemplateILb1EEEED2Ev(ptr noundef nonnull align 1 dereferenceable(1) %ref.tmp249) #3
  %array.begin264 = getelementptr inbounds [1 x %"class.cvc5::internal::NodeTemplate"], ptr %ref.tmp234, i32 0, i32 0
  %129 = getelementptr inbounds %"class.cvc5::internal::NodeTemplate", ptr %array.begin264, i64 1
  br label %arraydestroy.body265

arraydestroy.body265:                             ; preds = %arraydestroy.body265, %ehcleanup256
  %arraydestroy.elementPast266 = phi ptr [ %129, %ehcleanup256 ], [ %arraydestroy.element267, %arraydestroy.body265 ]
  %arraydestroy.element267 = getelementptr inbounds %"class.cvc5::internal::NodeTemplate", ptr %arraydestroy.elementPast266, i64 -1
  call void @_ZN4cvc58internal12NodeTemplateILb1EED2Ev(ptr noundef nonnull align 8 dereferenceable(8) %arraydestroy.element267) #3
  %arraydestroy.done268 = icmp eq ptr %arraydestroy.element267, %array.begin264
  br i1 %arraydestroy.done268, label %arraydestroy.done269, label %arraydestroy.body265

arraydestroy.done269:                             ; preds = %arraydestroy.body265
  br label %ehcleanup270

ehcleanup270:                                     ; preds = %arraydestroy.done269, %arraydestroy.done245
  call void @_ZNSt6vectorIN4cvc58internal12NodeTemplateILb1EEESaIS3_EED2Ev(ptr noundef nonnull align 8 dereferenceable(24) %ref.tmp211) #3
  br label %ehcleanup271

ehcleanup271:                                     ; preds = %ehcleanup270, %lpad230
  call void @_ZNSaIN4cvc58internal12NodeTemplateILb1EEEED2Ev(ptr noundef nonnull align 1 dereferenceable(1) %ref.tmp229) #3
  %array.begin279 = getelementptr inbounds [2 x %"class.cvc5::internal::NodeTemplate"], ptr %ref.tmp213, i32 0, i32 0
  %130 = getelementptr inbounds %"class.cvc5::internal::NodeTemplate", ptr %array.begin279, i64 2
  br label %arraydestroy.body280

arraydestroy.body280:                             ; preds = %arraydestroy.body280, %ehcleanup271
  %arraydestroy.elementPast281 = phi ptr [ %130, %ehcleanup271 ], [ %arraydestroy.element282, %arraydestroy.body280 ]
  %arraydestroy.element282 = getelementptr inbounds %"class.cvc5::internal::NodeTemplate", ptr %arraydestroy.elementPast281, i64 -1
  call void @_ZN4cvc58internal12NodeTemplateILb1EED2Ev(ptr noundef nonnull align 8 dereferenceable(8) %arraydestroy.element282) #3
  %arraydestroy.done283 = icmp eq ptr %arraydestroy.element282, %array.begin279
  br i1 %arraydestroy.done283, label %arraydestroy.done284, label %arraydestroy.body280

arraydestroy.done284:                             ; preds = %arraydestroy.body280
  br label %ehcleanup285

ehcleanup285:                                     ; preds = %arraydestroy.done284, %arraydestroy.done225
  call void @_ZN4cvc58internal12NodeTemplateILb1EED2Ev(ptr noundef nonnull align 8 dereferenceable(8) %agg.tmp209) #3
  br label %ehcleanup289

ehcleanup289:                                     ; preds = %ehcleanup285, %ehcleanup205, %lpad164
  call void @_ZN4cvc58internal12NodeTemplateILb1EED2Ev(ptr noundef nonnull align 8 dereferenceable(8) %eq) #3
  br label %ehcleanup290

ehcleanup290:                                     ; preds = %ehcleanup289, %ehcleanup158, %lpad128
  call void @_ZN4cvc58internal12NodeTemplateILb1EED2Ev(ptr noundef nonnull align 8 dereferenceable(8) %axiom) #3
  br label %ehcleanup707

if.end291:                                        ; preds = %cast.end, %invoke.cont99
  br label %if.end292

if.end292:                                        ; preds = %if.end291, %invoke.cont37
  br label %if.end522

if.else:                                          ; preds = %invoke.cont8, %invoke.cont6
  %call294 = invoke noundef i32 @_ZNK4cvc58internal12NodeTemplateILb0EE7getKindEv(ptr noundef nonnull align 8 dereferenceable(8) %node)
          to label %invoke.cont293 unwind label %lpad5

invoke.cont293:                                   ; preds = %if.else
  %cmp295 = icmp eq i32 %call294, 11
  br i1 %cmp295, label %if.then296, label %if.else451

if.then296:                                       ; preds = %invoke.cont293
  invoke void @_ZN4cvc58internal12NodeTemplateILb0EEC2ERKS2_(ptr noundef nonnull align 8 dereferenceable(8) %agg.tmp297, ptr noundef nonnull align 8 dereferenceable(8) %node)
          to label %invoke.cont298 unwind label %lpad5

invoke.cont298:                                   ; preds = %if.then296
  %call301 = invoke noundef zeroext i1 @_ZN4cvc58internal4expr10hasFreeVarENS0_12NodeTemplateILb0EEE(ptr noundef %agg.tmp297)
          to label %invoke.cont300 unwind label %lpad299

invoke.cont300:                                   ; preds = %invoke.cont298
  %lnot = xor i1 %call301, true
  call void @_ZN4cvc58internal12NodeTemplateILb0EED2Ev(ptr noundef nonnull align 8 dereferenceable(8) %agg.tmp297) #3
  br i1 %lnot, label %if.then303, label %if.end450

if.then303:                                       ; preds = %invoke.cont300
  invoke void @_ZN4cvc58internal12NodeTemplateILb1EEC2ERKNS1_ILb0EEE(ptr noundef nonnull align 8 dereferenceable(8) %agg.tmp305, ptr noundef nonnull align 8 dereferenceable(8) %node)
          to label %invoke.cont306 unwind label %lpad5

invoke.cont306:                                   ; preds = %if.then303
  invoke void @_ZNK4cvc58internal18RemoveTermFormulas16getSkolemForNodeENS0_12NodeTemplateILb1EEE(ptr sret(%"class.cvc5::internal::NodeTemplate") align 8 %ref.tmp304, ptr noundef nonnull align 8 dereferenceable(160) %this1, ptr noundef %agg.tmp305)
          to label %invoke.cont308 unwind label %lpad307

invoke.cont308:                                   ; preds = %invoke.cont306
  %call311 = invoke noundef nonnull align 8 dereferenceable(8) ptr @_ZN4cvc58internal12NodeTemplateILb1EEaSERKS2_(ptr noundef nonnull align 8 dereferenceable(8) %skolem, ptr noundef nonnull align 8 dereferenceable(8) %ref.tmp304)
          to label %invoke.cont310 unwind label %lpad309

invoke.cont310:                                   ; preds = %invoke.cont308
  call void @_ZN4cvc58internal12NodeTemplateILb1EED2Ev(ptr noundef nonnull align 8 dereferenceable(8) %ref.tmp304) #3
  call void @_ZN4cvc58internal12NodeTemplateILb1EED2Ev(ptr noundef nonnull align 8 dereferenceable(8) %agg.tmp305) #3
  %call315 = invoke noundef zeroext i1 @_ZNK4cvc58internal12NodeTemplateILb1EE6isNullEv(ptr noundef nonnull align 8 dereferenceable(8) %skolem)
          to label %invoke.cont314 unwind label %lpad5

invoke.cont314:                                   ; preds = %invoke.cont310
  br i1 %call315, label %if.then316, label %if.end449

if.then316:                                       ; preds = %invoke.cont314
  %call319 = invoke noundef zeroext i1 @_ZN4cvc58internal11__cvc5_truecvbEv(ptr noundef nonnull align 1 dereferenceable(1) %ref.tmp317)
          to label %invoke.cont318 unwind label %lpad5

invoke.cont318:                                   ; preds = %if.then316
  br i1 %call319, label %cond.true320, label %cond.false323

cond.true320:                                     ; preds = %invoke.cont318
  invoke void @_ZNK4cvc58internal5NullCcvNS0_11Cvc5ostreamEEv(ptr sret(%"class.cvc5::internal::Cvc5ostream") align 8 %tmp321, ptr noundef nonnull align 1 dereferenceable(1) @_ZN4cvc58internal10nullStreamE)
          to label %invoke.cont322 unwind label %lpad5

invoke.cont322:                                   ; preds = %cond.true320
  br label %cond.end331

cond.false323:                                    ; preds = %invoke.cont318
  invoke void @_ZNK4cvc58internal6TraceCclEv(ptr sret(%"class.cvc5::internal::Cvc5ostream") align 8 %ref.tmp325, ptr noundef nonnull align 8 dereferenceable(32) @_ZN4cvc58internal12TraceChannelE)
          to label %invoke.cont326 unwind label %lpad5

invoke.cont326:                                   ; preds = %cond.false323
  %call328 = invoke noundef nonnull align 8 dereferenceable(24) ptr @_ZN4cvc58internal11Cvc5ostreamlsIA45_cEERS1_RKT_(ptr noundef nonnull align 8 dereferenceable(24) %ref.tmp325, ptr noundef nonnull align 1 dereferenceable(45) @.str.19)
          to label %invoke.cont327 unwind label %lpad5

invoke.cont327:                                   ; preds = %invoke.cont326
  %call330 = invoke noundef nonnull align 8 dereferenceable(24) ptr @_ZN4cvc58internal11Cvc5ostreamlsEPFRSoS2_E(ptr noundef nonnull align 8 dereferenceable(24) %call328, ptr noundef @_ZSt4endlIcSt11char_traitsIcEERSt13basic_ostreamIT_T0_ES6_)
          to label %invoke.cont329 unwind label %lpad5

invoke.cont329:                                   ; preds = %invoke.cont327
  call void @llvm.memcpy.p0.p0.i64(ptr align 8 %agg.tmp.ensured324, ptr align 8 %call330, i64 24, i1 false)
  br label %cond.end331

cond.end331:                                      ; preds = %invoke.cont329, %invoke.cont322
  %131 = load ptr, ptr %sm, align 8
  invoke void @_ZN4cvc58internal12NodeTemplateILb1EEC2ERKNS1_ILb0EEE(ptr noundef nonnull align 8 dereferenceable(8) %agg.tmp333, ptr noundef nonnull align 8 dereferenceable(8) %node)
          to label %invoke.cont334 unwind label %lpad5

invoke.cont334:                                   ; preds = %cond.end331
  invoke void @_ZN4cvc58internal13SkolemManager14mkPurifySkolemENS0_12NodeTemplateILb1EEEPNS0_14ProofGeneratorE(ptr sret(%"class.cvc5::internal::NodeTemplate") align 8 %ref.tmp332, ptr noundef nonnull align 8 dereferenceable(152) %131, ptr noundef %agg.tmp333, ptr noundef null)
          to label %invoke.cont336 unwind label %lpad335

invoke.cont336:                                   ; preds = %invoke.cont334
  %call339 = invoke noundef nonnull align 8 dereferenceable(8) ptr @_ZN4cvc58internal12NodeTemplateILb1EEaSERKS2_(ptr noundef nonnull align 8 dereferenceable(8) %skolem, ptr noundef nonnull align 8 dereferenceable(8) %ref.tmp332)
          to label %invoke.cont338 unwind label %lpad337

invoke.cont338:                                   ; preds = %invoke.cont336
  call void @_ZN4cvc58internal12NodeTemplateILb1EED2Ev(ptr noundef nonnull align 8 dereferenceable(8) %ref.tmp332) #3
  call void @_ZN4cvc58internal12NodeTemplateILb1EED2Ev(ptr noundef nonnull align 8 dereferenceable(8) %agg.tmp333) #3
  %d_skolem_cache342 = getelementptr inbounds %"class.cvc5::internal::RemoveTermFormulas", ptr %this1, i32 0, i32 2
  invoke void @_ZN4cvc58internal12NodeTemplateILb1EEC2ERKNS1_ILb0EEE(ptr noundef nonnull align 8 dereferenceable(8) %ref.tmp343, ptr noundef nonnull align 8 dereferenceable(8) %node)
          to label %invoke.cont344 unwind label %lpad5

invoke.cont344:                                   ; preds = %invoke.cont338
  invoke void @_ZN4cvc57context15CDInsertHashMapINS_8internal12NodeTemplateILb1EEES4_St4hashIS4_EE6insertERKS4_S9_(ptr noundef nonnull align 8 dereferenceable(56) %d_skolem_cache342, ptr noundef nonnull align 8 dereferenceable(8) %ref.tmp343, ptr noundef nonnull align 8 dereferenceable(8) %skolem)
          to label %invoke.cont346 unwind label %lpad345

invoke.cont346:                                   ; preds = %invoke.cont344
  call void @_ZN4cvc58internal12NodeTemplateILb1EED2Ev(ptr noundef nonnull align 8 dereferenceable(8) %ref.tmp343) #3
  invoke void @_ZNK4cvc58internal12NodeTemplateILb0EEixEi(ptr sret(%"class.cvc5::internal::NodeTemplate.313") align 8 %ref.tmp349, ptr noundef nonnull align 8 dereferenceable(8) %node, i32 noundef 1)
          to label %invoke.cont350 unwind label %lpad5

invoke.cont350:                                   ; preds = %invoke.cont346
  invoke void @_ZNK4cvc58internal12NodeTemplateILb0EEixEi(ptr sret(%"class.cvc5::internal::NodeTemplate.313") align 8 %ref.tmp352, ptr noundef nonnull align 8 dereferenceable(8) %node, i32 noundef 0)
          to label %invoke.cont354 unwind label %lpad353

invoke.cont354:                                   ; preds = %invoke.cont350
  invoke void @_ZNK4cvc58internal12NodeTemplateILb0EEixEi(ptr sret(%"class.cvc5::internal::NodeTemplate.313") align 8 %agg.tmp351, ptr noundef nonnull align 8 dereferenceable(8) %ref.tmp352, i32 noundef 0)
          to label %invoke.cont356 unwind label %lpad355

invoke.cont356:                                   ; preds = %invoke.cont354
  invoke void @_ZN4cvc58internal12NodeTemplateILb0EEC2ERKNS1_ILb1EEE(ptr noundef nonnull align 8 dereferenceable(8) %agg.tmp357, ptr noundef nonnull align 8 dereferenceable(8) %skolem)
          to label %invoke.cont359 unwind label %lpad358

invoke.cont359:                                   ; preds = %invoke.cont356
  invoke void @_ZNK4cvc58internal12NodeTemplateILb0EE10substituteES2_S2_(ptr sret(%"class.cvc5::internal::NodeTemplate") align 8 %ref.tmp348, ptr noundef nonnull align 8 dereferenceable(8) %ref.tmp349, ptr noundef %agg.tmp351, ptr noundef %agg.tmp357)
          to label %invoke.cont361 unwind label %lpad360

invoke.cont361:                                   ; preds = %invoke.cont359
  %call364 = invoke noundef nonnull align 8 dereferenceable(8) ptr @_ZN4cvc58internal12NodeTemplateILb1EEaSERKS2_(ptr noundef nonnull align 8 dereferenceable(8) %newAssertion, ptr noundef nonnull align 8 dereferenceable(8) %ref.tmp348)
          to label %invoke.cont363 unwind label %lpad362

invoke.cont363:                                   ; preds = %invoke.cont361
  call void @_ZN4cvc58internal12NodeTemplateILb1EED2Ev(ptr noundef nonnull align 8 dereferenceable(8) %ref.tmp348) #3
  call void @_ZN4cvc58internal12NodeTemplateILb0EED2Ev(ptr noundef nonnull align 8 dereferenceable(8) %agg.tmp357) #3
  call void @_ZN4cvc58internal12NodeTemplateILb0EED2Ev(ptr noundef nonnull align 8 dereferenceable(8) %agg.tmp351) #3
  call void @_ZN4cvc58internal12NodeTemplateILb0EED2Ev(ptr noundef nonnull align 8 dereferenceable(8) %ref.tmp352) #3
  call void @_ZN4cvc58internal12NodeTemplateILb0EED2Ev(ptr noundef nonnull align 8 dereferenceable(8) %ref.tmp349) #3
  %call371 = invoke noundef zeroext i1 @_ZNK4cvc58internal18RemoveTermFormulas14isProofEnabledEv(ptr noundef nonnull align 8 dereferenceable(160) %this1)
          to label %invoke.cont370 unwind label %lpad5

invoke.cont370:                                   ; preds = %invoke.cont363
  br i1 %call371, label %if.then372, label %if.end448

if.then372:                                       ; preds = %invoke.cont370
  %132 = load ptr, ptr %nodeManager, align 8
  invoke void @_ZNK4cvc58internal12NodeTemplateILb0EEixEi(ptr sret(%"class.cvc5::internal::NodeTemplate.313") align 8 %agg.tmp373, ptr noundef nonnull align 8 dereferenceable(8) %node, i32 noundef 0)
          to label %invoke.cont374 unwind label %lpad5

invoke.cont374:                                   ; preds = %if.then372
  invoke void @_ZNK4cvc58internal12NodeTemplateILb0EEixEi(ptr sret(%"class.cvc5::internal::NodeTemplate.313") align 8 %agg.tmp375, ptr noundef nonnull align 8 dereferenceable(8) %node, i32 noundef 1)
          to label %invoke.cont377 unwind label %lpad376

invoke.cont377:                                   ; preds = %invoke.cont374
  invoke void @_ZN4cvc58internal11NodeManager6mkNodeENS0_4kind6Kind_tENS0_12NodeTemplateILb0EEES5_(ptr sret(%"class.cvc5::internal::NodeTemplate") align 8 %existsAssertion, ptr noundef nonnull align 8 dereferenceable(3360) %132, i32 noundef 353, ptr noundef %agg.tmp373, ptr noundef %agg.tmp375)
          to label %invoke.cont379 unwind label %lpad378

invoke.cont379:                                   ; preds = %invoke.cont377
  call void @_ZN4cvc58internal12NodeTemplateILb0EED2Ev(ptr noundef nonnull align 8 dereferenceable(8) %agg.tmp375) #3
  call void @_ZN4cvc58internal12NodeTemplateILb0EED2Ev(ptr noundef nonnull align 8 dereferenceable(8) %agg.tmp373) #3
  %133 = load ptr, ptr %sm, align 8
  invoke void @_ZN4cvc58internal12NodeTemplateILb1EEC2ERKS2_(ptr noundef nonnull align 8 dereferenceable(8) %agg.tmp382, ptr noundef nonnull align 8 dereferenceable(8) %existsAssertion)
          to label %invoke.cont384 unwind label %lpad383

invoke.cont384:                                   ; preds = %invoke.cont379
  %call387 = invoke noundef ptr @_ZNK4cvc58internal13SkolemManager17getProofGeneratorENS0_12NodeTemplateILb1EEE(ptr noundef nonnull align 8 dereferenceable(152) %133, ptr noundef %agg.tmp382)
          to label %invoke.cont386 unwind label %lpad385

invoke.cont386:                                   ; preds = %invoke.cont384
  call void @_ZN4cvc58internal12NodeTemplateILb1EED2Ev(ptr noundef nonnull align 8 dereferenceable(8) %agg.tmp382) #3
  store ptr %call387, ptr %expg, align 8
  %d_lp389 = getelementptr inbounds %"class.cvc5::internal::RemoveTermFormulas", ptr %this1, i32 0, i32 5
  %call390 = call noundef ptr @_ZNKSt10unique_ptrIN4cvc58internal11LazyCDProofESt14default_deleteIS2_EEptEv(ptr noundef nonnull align 8 dereferenceable(8) %d_lp389) #3
  invoke void @_ZN4cvc58internal12NodeTemplateILb1EEC2ERKS2_(ptr noundef nonnull align 8 dereferenceable(8) %agg.tmp391, ptr noundef nonnull align 8 dereferenceable(8) %existsAssertion)
          to label %invoke.cont392 unwind label %lpad383

invoke.cont392:                                   ; preds = %invoke.cont386
  %134 = load ptr, ptr %expg, align 8
  invoke void @_ZN4cvc58internal11LazyCDProof11addLazyStepENS0_12NodeTemplateILb1EEEPNS0_14ProofGeneratorENS0_7TrustIdEbPKcb(ptr noundef nonnull align 8 dereferenceable(408) %call390, ptr noundef %agg.tmp391, ptr noundef %134, i32 noundef 8, i1 noundef zeroext true, ptr noundef @.str.20, i1 noundef zeroext false)
          to label %invoke.cont394 unwind label %lpad393

invoke.cont394:                                   ; preds = %invoke.cont392
  call void @_ZN4cvc58internal12NodeTemplateILb1EED2Ev(ptr noundef nonnull align 8 dereferenceable(8) %agg.tmp391) #3
  %d_lp396 = getelementptr inbounds %"class.cvc5::internal::RemoveTermFormulas", ptr %this1, i32 0, i32 5
  %call397 = call noundef ptr @_ZNKSt10unique_ptrIN4cvc58internal11LazyCDProofESt14default_deleteIS2_EEptEv(ptr noundef nonnull align 8 dereferenceable(8) %d_lp396) #3
  invoke void @_ZN4cvc58internal12NodeTemplateILb1EEC2ERKS2_(ptr noundef nonnull align 8 dereferenceable(8) %agg.tmp398, ptr noundef nonnull align 8 dereferenceable(8) %newAssertion)
          to label %invoke.cont399 unwind label %lpad383

invoke.cont399:                                   ; preds = %invoke.cont394
  %arrayinit.begin403 = getelementptr inbounds [1 x %"class.cvc5::internal::NodeTemplate"], ptr %ref.tmp402, i64 0, i64 0
  store ptr %arrayinit.begin403, ptr %arrayinit.endOfInit404, align 8
  invoke void @_ZN4cvc58internal12NodeTemplateILb1EEC2ERKS2_(ptr noundef nonnull align 8 dereferenceable(8) %arrayinit.begin403, ptr noundef nonnull align 8 dereferenceable(8) %existsAssertion)
          to label %invoke.cont406 unwind label %lpad405

invoke.cont406:                                   ; preds = %invoke.cont399
  %_M_array414 = getelementptr inbounds %"class.std::initializer_list", ptr %agg.tmp401, i32 0, i32 0
  %arraystart415 = getelementptr inbounds [1 x %"class.cvc5::internal::NodeTemplate"], ptr %ref.tmp402, i64 0, i64 0
  store ptr %arraystart415, ptr %_M_array414, align 8
  %_M_len416 = getelementptr inbounds %"class.std::initializer_list", ptr %agg.tmp401, i32 0, i32 1
  store i64 1, ptr %_M_len416, align 8
  call void @_ZNSaIN4cvc58internal12NodeTemplateILb1EEEEC2Ev(ptr noundef nonnull align 1 dereferenceable(1) %ref.tmp417) #3
  %135 = getelementptr inbounds { ptr, i64 }, ptr %agg.tmp401, i32 0, i32 0
  %136 = load ptr, ptr %135, align 8
  %137 = getelementptr inbounds { ptr, i64 }, ptr %agg.tmp401, i32 0, i32 1
  %138 = load i64, ptr %137, align 8
  invoke void @_ZNSt6vectorIN4cvc58internal12NodeTemplateILb1EEESaIS3_EEC2ESt16initializer_listIS3_ERKS4_(ptr noundef nonnull align 8 dereferenceable(24) %ref.tmp400, ptr %136, i64 %138, ptr noundef nonnull align 1 dereferenceable(1) %ref.tmp417)
          to label %invoke.cont419 unwind label %lpad418

invoke.cont419:                                   ; preds = %invoke.cont406
  call void @llvm.memset.p0.i64(ptr align 8 %ref.tmp420, i8 0, i64 24, i1 false)
  call void @_ZNSt6vectorIN4cvc58internal12NodeTemplateILb1EEESaIS3_EEC2Ev(ptr noundef nonnull align 8 dereferenceable(24) %ref.tmp420) #3
  %call423 = invoke noundef zeroext i1 @_ZN4cvc58internal7CDProof7addStepENS0_12NodeTemplateILb1EEENS_9ProofRuleERKSt6vectorIS3_SaIS3_EES9_bNS0_12CDPOverwriteE(ptr noundef nonnull align 8 dereferenceable(217) %call397, ptr noundef %agg.tmp398, i32 noundef 92, ptr noundef nonnull align 8 dereferenceable(24) %ref.tmp400, ptr noundef nonnull align 8 dereferenceable(24) %ref.tmp420, i1 noundef zeroext false, i32 noundef 1)
          to label %invoke.cont422 unwind label %lpad421

invoke.cont422:                                   ; preds = %invoke.cont419
  call void @_ZNSt6vectorIN4cvc58internal12NodeTemplateILb1EEESaIS3_EED2Ev(ptr noundef nonnull align 8 dereferenceable(24) %ref.tmp420) #3
  call void @_ZNSt6vectorIN4cvc58internal12NodeTemplateILb1EEESaIS3_EED2Ev(ptr noundef nonnull align 8 dereferenceable(24) %ref.tmp400) #3
  call void @_ZNSaIN4cvc58internal12NodeTemplateILb1EEEED2Ev(ptr noundef nonnull align 1 dereferenceable(1) %ref.tmp417) #3
  %array.begin427 = getelementptr inbounds [1 x %"class.cvc5::internal::NodeTemplate"], ptr %ref.tmp402, i32 0, i32 0
  %139 = getelementptr inbounds %"class.cvc5::internal::NodeTemplate", ptr %array.begin427, i64 1
  br label %arraydestroy.body428

arraydestroy.body428:                             ; preds = %arraydestroy.body428, %invoke.cont422
  %arraydestroy.elementPast429 = phi ptr [ %139, %invoke.cont422 ], [ %arraydestroy.element430, %arraydestroy.body428 ]
  %arraydestroy.element430 = getelementptr inbounds %"class.cvc5::internal::NodeTemplate", ptr %arraydestroy.elementPast429, i64 -1
  call void @_ZN4cvc58internal12NodeTemplateILb1EED2Ev(ptr noundef nonnull align 8 dereferenceable(8) %arraydestroy.element430) #3
  %arraydestroy.done431 = icmp eq ptr %arraydestroy.element430, %array.begin427
  br i1 %arraydestroy.done431, label %arraydestroy.done432, label %arraydestroy.body428

arraydestroy.done432:                             ; preds = %arraydestroy.body428
  call void @_ZN4cvc58internal12NodeTemplateILb1EED2Ev(ptr noundef nonnull align 8 dereferenceable(8) %agg.tmp398) #3
  %d_lp441 = getelementptr inbounds %"class.cvc5::internal::RemoveTermFormulas", ptr %this1, i32 0, i32 5
  %call442 = call noundef ptr @_ZNKSt10unique_ptrIN4cvc58internal11LazyCDProofESt14default_deleteIS2_EE3getEv(ptr noundef nonnull align 8 dereferenceable(8) %d_lp441) #3
  %140 = icmp eq ptr %call442, null
  br i1 %140, label %cast.end445, label %cast.notnull443

cast.notnull443:                                  ; preds = %arraydestroy.done432
  %add.ptr444 = getelementptr inbounds i8, ptr %call442, i64 16
  br label %cast.end445

cast.end445:                                      ; preds = %cast.notnull443, %arraydestroy.done432
  %cast.result446 = phi ptr [ %add.ptr444, %cast.notnull443 ], [ null, %arraydestroy.done432 ]
  store ptr %cast.result446, ptr %newAssertionPg, align 8
  call void @_ZN4cvc58internal12NodeTemplateILb1EED2Ev(ptr noundef nonnull align 8 dereferenceable(8) %existsAssertion) #3
  br label %if.end448

lpad299:                                          ; preds = %invoke.cont298
  %141 = landingpad { ptr, i32 }
          cleanup
  %142 = extractvalue { ptr, i32 } %141, 0
  store ptr %142, ptr %exn.slot, align 8
  %143 = extractvalue { ptr, i32 } %141, 1
  store i32 %143, ptr %ehselector.slot, align 4
  call void @_ZN4cvc58internal12NodeTemplateILb0EED2Ev(ptr noundef nonnull align 8 dereferenceable(8) %agg.tmp297) #3
  br label %ehcleanup707

lpad307:                                          ; preds = %invoke.cont306
  %144 = landingpad { ptr, i32 }
          cleanup
  %145 = extractvalue { ptr, i32 } %144, 0
  store ptr %145, ptr %exn.slot, align 8
  %146 = extractvalue { ptr, i32 } %144, 1
  store i32 %146, ptr %ehselector.slot, align 4
  br label %ehcleanup313

lpad309:                                          ; preds = %invoke.cont308
  %147 = landingpad { ptr, i32 }
          cleanup
  %148 = extractvalue { ptr, i32 } %147, 0
  store ptr %148, ptr %exn.slot, align 8
  %149 = extractvalue { ptr, i32 } %147, 1
  store i32 %149, ptr %ehselector.slot, align 4
  call void @_ZN4cvc58internal12NodeTemplateILb1EED2Ev(ptr noundef nonnull align 8 dereferenceable(8) %ref.tmp304) #3
  br label %ehcleanup313

ehcleanup313:                                     ; preds = %lpad309, %lpad307
  call void @_ZN4cvc58internal12NodeTemplateILb1EED2Ev(ptr noundef nonnull align 8 dereferenceable(8) %agg.tmp305) #3
  br label %ehcleanup707

lpad335:                                          ; preds = %invoke.cont334
  %150 = landingpad { ptr, i32 }
          cleanup
  %151 = extractvalue { ptr, i32 } %150, 0
  store ptr %151, ptr %exn.slot, align 8
  %152 = extractvalue { ptr, i32 } %150, 1
  store i32 %152, ptr %ehselector.slot, align 4
  br label %ehcleanup341

lpad337:                                          ; preds = %invoke.cont336
  %153 = landingpad { ptr, i32 }
          cleanup
  %154 = extractvalue { ptr, i32 } %153, 0
  store ptr %154, ptr %exn.slot, align 8
  %155 = extractvalue { ptr, i32 } %153, 1
  store i32 %155, ptr %ehselector.slot, align 4
  call void @_ZN4cvc58internal12NodeTemplateILb1EED2Ev(ptr noundef nonnull align 8 dereferenceable(8) %ref.tmp332) #3
  br label %ehcleanup341

ehcleanup341:                                     ; preds = %lpad337, %lpad335
  call void @_ZN4cvc58internal12NodeTemplateILb1EED2Ev(ptr noundef nonnull align 8 dereferenceable(8) %agg.tmp333) #3
  br label %ehcleanup707

lpad345:                                          ; preds = %invoke.cont344
  %156 = landingpad { ptr, i32 }
          cleanup
  %157 = extractvalue { ptr, i32 } %156, 0
  store ptr %157, ptr %exn.slot, align 8
  %158 = extractvalue { ptr, i32 } %156, 1
  store i32 %158, ptr %ehselector.slot, align 4
  call void @_ZN4cvc58internal12NodeTemplateILb1EED2Ev(ptr noundef nonnull align 8 dereferenceable(8) %ref.tmp343) #3
  br label %ehcleanup707

lpad353:                                          ; preds = %invoke.cont350
  %159 = landingpad { ptr, i32 }
          cleanup
  %160 = extractvalue { ptr, i32 } %159, 0
  store ptr %160, ptr %exn.slot, align 8
  %161 = extractvalue { ptr, i32 } %159, 1
  store i32 %161, ptr %ehselector.slot, align 4
  br label %ehcleanup369

lpad355:                                          ; preds = %invoke.cont354
  %162 = landingpad { ptr, i32 }
          cleanup
  %163 = extractvalue { ptr, i32 } %162, 0
  store ptr %163, ptr %exn.slot, align 8
  %164 = extractvalue { ptr, i32 } %162, 1
  store i32 %164, ptr %ehselector.slot, align 4
  br label %ehcleanup368

lpad358:                                          ; preds = %invoke.cont356
  %165 = landingpad { ptr, i32 }
          cleanup
  %166 = extractvalue { ptr, i32 } %165, 0
  store ptr %166, ptr %exn.slot, align 8
  %167 = extractvalue { ptr, i32 } %165, 1
  store i32 %167, ptr %ehselector.slot, align 4
  br label %ehcleanup367

lpad360:                                          ; preds = %invoke.cont359
  %168 = landingpad { ptr, i32 }
          cleanup
  %169 = extractvalue { ptr, i32 } %168, 0
  store ptr %169, ptr %exn.slot, align 8
  %170 = extractvalue { ptr, i32 } %168, 1
  store i32 %170, ptr %ehselector.slot, align 4
  br label %ehcleanup366

lpad362:                                          ; preds = %invoke.cont361
  %171 = landingpad { ptr, i32 }
          cleanup
  %172 = extractvalue { ptr, i32 } %171, 0
  store ptr %172, ptr %exn.slot, align 8
  %173 = extractvalue { ptr, i32 } %171, 1
  store i32 %173, ptr %ehselector.slot, align 4
  call void @_ZN4cvc58internal12NodeTemplateILb1EED2Ev(ptr noundef nonnull align 8 dereferenceable(8) %ref.tmp348) #3
  br label %ehcleanup366

ehcleanup366:                                     ; preds = %lpad362, %lpad360
  call void @_ZN4cvc58internal12NodeTemplateILb0EED2Ev(ptr noundef nonnull align 8 dereferenceable(8) %agg.tmp357) #3
  br label %ehcleanup367

ehcleanup367:                                     ; preds = %ehcleanup366, %lpad358
  call void @_ZN4cvc58internal12NodeTemplateILb0EED2Ev(ptr noundef nonnull align 8 dereferenceable(8) %agg.tmp351) #3
  br label %ehcleanup368

ehcleanup368:                                     ; preds = %ehcleanup367, %lpad355
  call void @_ZN4cvc58internal12NodeTemplateILb0EED2Ev(ptr noundef nonnull align 8 dereferenceable(8) %ref.tmp352) #3
  br label %ehcleanup369

ehcleanup369:                                     ; preds = %ehcleanup368, %lpad353
  call void @_ZN4cvc58internal12NodeTemplateILb0EED2Ev(ptr noundef nonnull align 8 dereferenceable(8) %ref.tmp349) #3
  br label %ehcleanup707

lpad376:                                          ; preds = %invoke.cont374
  %174 = landingpad { ptr, i32 }
          cleanup
  %175 = extractvalue { ptr, i32 } %174, 0
  store ptr %175, ptr %exn.slot, align 8
  %176 = extractvalue { ptr, i32 } %174, 1
  store i32 %176, ptr %ehselector.slot, align 4
  br label %ehcleanup381

lpad378:                                          ; preds = %invoke.cont377
  %177 = landingpad { ptr, i32 }
          cleanup
  %178 = extractvalue { ptr, i32 } %177, 0
  store ptr %178, ptr %exn.slot, align 8
  %179 = extractvalue { ptr, i32 } %177, 1
  store i32 %179, ptr %ehselector.slot, align 4
  call void @_ZN4cvc58internal12NodeTemplateILb0EED2Ev(ptr noundef nonnull align 8 dereferenceable(8) %agg.tmp375) #3
  br label %ehcleanup381

ehcleanup381:                                     ; preds = %lpad378, %lpad376
  call void @_ZN4cvc58internal12NodeTemplateILb0EED2Ev(ptr noundef nonnull align 8 dereferenceable(8) %agg.tmp373) #3
  br label %ehcleanup707

lpad383:                                          ; preds = %invoke.cont394, %invoke.cont386, %invoke.cont379
  %180 = landingpad { ptr, i32 }
          cleanup
  %181 = extractvalue { ptr, i32 } %180, 0
  store ptr %181, ptr %exn.slot, align 8
  %182 = extractvalue { ptr, i32 } %180, 1
  store i32 %182, ptr %ehselector.slot, align 4
  br label %ehcleanup447

lpad385:                                          ; preds = %invoke.cont384
  %183 = landingpad { ptr, i32 }
          cleanup
  %184 = extractvalue { ptr, i32 } %183, 0
  store ptr %184, ptr %exn.slot, align 8
  %185 = extractvalue { ptr, i32 } %183, 1
  store i32 %185, ptr %ehselector.slot, align 4
  call void @_ZN4cvc58internal12NodeTemplateILb1EED2Ev(ptr noundef nonnull align 8 dereferenceable(8) %agg.tmp382) #3
  br label %ehcleanup447

lpad393:                                          ; preds = %invoke.cont392
  %186 = landingpad { ptr, i32 }
          cleanup
  %187 = extractvalue { ptr, i32 } %186, 0
  store ptr %187, ptr %exn.slot, align 8
  %188 = extractvalue { ptr, i32 } %186, 1
  store i32 %188, ptr %ehselector.slot, align 4
  call void @_ZN4cvc58internal12NodeTemplateILb1EED2Ev(ptr noundef nonnull align 8 dereferenceable(8) %agg.tmp391) #3
  br label %ehcleanup447

lpad405:                                          ; preds = %invoke.cont399
  %189 = landingpad { ptr, i32 }
          cleanup
  %190 = extractvalue { ptr, i32 } %189, 0
  store ptr %190, ptr %exn.slot, align 8
