target datalayout = "e-m:e-p270:32:32-p271:32:32-p272:64:64-i64:64-i128:128-f80:128-n8:16:32:64-S128"
target triple = "x86_64-unknown-linux-gnu"

%"class.std::ios_base::Init" = type { i8 }
%"class.cvc5::internal::NullC" = type { i8 }
%"class.cvc5::internal::TraceC" = type { ptr, %"class.std::vector.335" }
%"class.std::vector.335" = type { %"struct.std::_Vector_base.336" }
%"struct.std::_Vector_base.336" = type { %"struct.std::_Vector_base<std::__cxx11::basic_string<char>, std::allocator<std::__cxx11::basic_string<char>>>::_Vector_impl" }
%"struct.std::_Vector_base<std::__cxx11::basic_string<char>, std::allocator<std::__cxx11::basic_string<char>>>::_Vector_impl" = type { %"struct.std::_Vector_base<std::__cxx11::basic_string<char>, std::allocator<std::__cxx11::basic_string<char>>>::_Vector_impl_data" }
%"struct.std::_Vector_base<std::__cxx11::basic_string<char>, std::allocator<std::__cxx11::basic_string<char>>>::_Vector_impl_data" = type { ptr, ptr, ptr }
%"class.cvc5::internal::NodeTemplate" = type { ptr }
%"class.std::__cxx11::basic_string" = type { %"struct.std::__cxx11::basic_string<char>::_Alloc_hider", i64, %union.anon }
%"struct.std::__cxx11::basic_string<char>::_Alloc_hider" = type { ptr }
%union.anon = type { i64, [8 x i8] }
%"struct.std::piecewise_construct_t" = type { i8 }
%"class.cvc5::internal::theory::TheoryEngineModelBuilder" = type { %"class.cvc5::internal::EnvObj", %"class.std::unordered_map", %"class.std::map" }
%"class.cvc5::internal::EnvObj" = type { ptr, ptr }
%"class.std::unordered_map" = type { %"class.std::_Hashtable" }
%"class.std::_Hashtable" = type { ptr, i64, %"struct.std::__detail::_Hash_node_base", i64, %"struct.std::__detail::_Prime_rehash_policy", ptr }
%"struct.std::__detail::_Hash_node_base" = type { ptr }
%"struct.std::__detail::_Prime_rehash_policy" = type { float, i64 }
%"class.std::map" = type { %"class.std::_Rb_tree" }
%"class.std::_Rb_tree" = type { %"struct.std::_Rb_tree<cvc5::internal::NodeTemplate<true>, std::pair<const cvc5::internal::NodeTemplate<true>, cvc5::internal::NodeTemplate<true>>, std::_Select1st<std::pair<const cvc5::internal::NodeTemplate<true>, cvc5::internal::NodeTemplate<true>>>, std::less<cvc5::internal::NodeTemplate<true>>>::_Rb_tree_impl" }
%"struct.std::_Rb_tree<cvc5::internal::NodeTemplate<true>, std::pair<const cvc5::internal::NodeTemplate<true>, cvc5::internal::NodeTemplate<true>>, std::_Select1st<std::pair<const cvc5::internal::NodeTemplate<true>, cvc5::internal::NodeTemplate<true>>>, std::less<cvc5::internal::NodeTemplate<true>>>::_Rb_tree_impl" = type { %"struct.std::_Rb_tree_key_compare", %"struct.std::_Rb_tree_header" }
%"struct.std::_Rb_tree_key_compare" = type { %"struct.std::less" }
%"struct.std::less" = type { i8 }
%"struct.std::_Rb_tree_header" = type { %"struct.std::_Rb_tree_node_base", i64 }
%"struct.std::_Rb_tree_node_base" = type { i32, ptr, ptr, ptr }
%"class.cvc5::internal::TypeNode" = type { ptr }
%"class.__gnu_cxx::__normal_iterator.273" = type { ptr }
%"class.__gnu_cxx::__normal_iterator" = type { ptr }
%"class.cvc5::internal::theory::TheoryEngineModelBuilder::Assigner" = type <{ %"class.std::unique_ptr.261", %"class.std::vector.269", i8, [7 x i8] }>
%"class.std::unique_ptr.261" = type { %"struct.std::__uniq_ptr_data.262" }
%"struct.std::__uniq_ptr_data.262" = type { %"class.std::__uniq_ptr_impl.263" }
%"class.std::__uniq_ptr_impl.263" = type { %"class.std::tuple.264" }
%"class.std::tuple.264" = type { %"struct.std::_Tuple_impl.265" }
%"struct.std::_Tuple_impl.265" = type { %"struct.std::_Head_base.268" }
%"struct.std::_Head_base.268" = type { ptr }
%"class.std::vector.269" = type { %"struct.std::_Vector_base" }
%"struct.std::_Vector_base" = type { %"struct.std::_Vector_base<cvc5::internal::NodeTemplate<true>, std::allocator<cvc5::internal::NodeTemplate<true>>>::_Vector_impl" }
%"struct.std::_Vector_base<cvc5::internal::NodeTemplate<true>, std::allocator<cvc5::internal::NodeTemplate<true>>>::_Vector_impl" = type { %"struct.std::_Vector_base<cvc5::internal::NodeTemplate<true>, std::allocator<cvc5::internal::NodeTemplate<true>>>::_Vector_impl_data" }
%"struct.std::_Vector_base<cvc5::internal::NodeTemplate<true>, std::allocator<cvc5::internal::NodeTemplate<true>>>::_Vector_impl_data" = type { ptr, ptr, ptr }
%"class.cvc5::internal::theory::TypeEnumerator" = type { ptr }
%"struct.__gnu_cxx::__ops::_Iter_equals_val.784" = type { ptr }
%"class.cvc5::internal::theory::eq::EqClassIterator" = type { ptr, i32, i32 }
%"class.cvc5::internal::__cvc5_true" = type { i8 }
%"class.cvc5::internal::Cvc5ostream" = type { ptr, i8, ptr }
%"class.cvc5::internal::NodeTemplate.274" = type { ptr }
%"class.cvc5::internal::theory::TheoryModel" = type { %"class.cvc5::internal::EnvObj", %"class.std::__cxx11::basic_string", ptr, %"class.std::unordered_set", %"class.std::unordered_set", %"class.std::set", %"class.std::map", %"class.std::map.298", %"class.std::map", %"class.std::map.298", %"class.cvc5::internal::theory::RepSet", %"class.cvc5::internal::NodeTemplate", %"class.cvc5::internal::NodeTemplate", i8, %"class.std::unordered_set.321", %"class.std::unordered_map", %"class.cvc5::internal::NodeTemplate", %"class.cvc5::internal::NodeTemplate", %"class.std::map.298", %"class.std::map.298", i8, %"class.std::map" }
%"class.std::unordered_set" = type { %"class.std::_Hashtable.275" }
%"class.std::_Hashtable.275" = type { ptr, i64, %"struct.std::__detail::_Hash_node_base", i64, %"struct.std::__detail::_Prime_rehash_policy", ptr }
%"class.std::set" = type { %"class.std::_Rb_tree.292" }
%"class.std::_Rb_tree.292" = type { %"struct.std::_Rb_tree<cvc5::internal::kind::Kind_t, cvc5::internal::kind::Kind_t, std::_Identity<cvc5::internal::kind::Kind_t>, std::less<cvc5::internal::kind::Kind_t>>::_Rb_tree_impl" }
%"struct.std::_Rb_tree<cvc5::internal::kind::Kind_t, cvc5::internal::kind::Kind_t, std::_Identity<cvc5::internal::kind::Kind_t>, std::less<cvc5::internal::kind::Kind_t>>::_Rb_tree_impl" = type { %"struct.std::_Rb_tree_key_compare.296", %"struct.std::_Rb_tree_header" }
%"struct.std::_Rb_tree_key_compare.296" = type { %"struct.std::less.297" }
%"struct.std::less.297" = type { i8 }
%"class.cvc5::internal::theory::RepSet" = type { %"class.std::map.303", %"class.std::map.311", %"class.std::map.316", %"class.std::map" }
%"class.std::map.303" = type { %"class.std::_Rb_tree.304" }
%"class.std::_Rb_tree.304" = type { %"struct.std::_Rb_tree<cvc5::internal::TypeNode, std::pair<const cvc5::internal::TypeNode, std::vector<cvc5::internal::NodeTemplate<true>>>, std::_Select1st<std::pair<const cvc5::internal::TypeNode, std::vector<cvc5::internal::NodeTemplate<true>>>>, std::less<cvc5::internal::TypeNode>>::_Rb_tree_impl" }
%"struct.std::_Rb_tree<cvc5::internal::TypeNode, std::pair<const cvc5::internal::TypeNode, std::vector<cvc5::internal::NodeTemplate<true>>>, std::_Select1st<std::pair<const cvc5::internal::TypeNode, std::vector<cvc5::internal::NodeTemplate<true>>>>, std::less<cvc5::internal::TypeNode>>::_Rb_tree_impl" = type { %"struct.std::_Rb_tree_key_compare.308", %"struct.std::_Rb_tree_header" }
%"struct.std::_Rb_tree_key_compare.308" = type { %"struct.std::less.309" }
%"struct.std::less.309" = type { i8 }
%"class.std::map.311" = type { %"class.std::_Rb_tree.312" }
%"class.std::_Rb_tree.312" = type { %"struct.std::_Rb_tree<cvc5::internal::TypeNode, std::pair<const cvc5::internal::TypeNode, bool>, std::_Select1st<std::pair<const cvc5::internal::TypeNode, bool>>, std::less<cvc5::internal::TypeNode>>::_Rb_tree_impl" }
%"struct.std::_Rb_tree<cvc5::internal::TypeNode, std::pair<const cvc5::internal::TypeNode, bool>, std::_Select1st<std::pair<const cvc5::internal::TypeNode, bool>>, std::less<cvc5::internal::TypeNode>>::_Rb_tree_impl" = type { %"struct.std::_Rb_tree_key_compare.308", %"struct.std::_Rb_tree_header" }
%"class.std::map.316" = type { %"class.std::_Rb_tree.317" }
%"class.std::_Rb_tree.317" = type { %"struct.std::_Rb_tree<cvc5::internal::NodeTemplate<true>, std::pair<const cvc5::internal::NodeTemplate<true>, int>, std::_Select1st<std::pair<const cvc5::internal::NodeTemplate<true>, int>>, std::less<cvc5::internal::NodeTemplate<true>>>::_Rb_tree_impl" }
%"struct.std::_Rb_tree<cvc5::internal::NodeTemplate<true>, std::pair<const cvc5::internal::NodeTemplate<true>, int>, std::_Select1st<std::pair<const cvc5::internal::NodeTemplate<true>, int>>, std::less<cvc5::internal::NodeTemplate<true>>>::_Rb_tree_impl" = type { %"struct.std::_Rb_tree_key_compare", %"struct.std::_Rb_tree_header" }
%"class.std::unordered_set.321" = type { %"class.std::_Hashtable.322" }
%"class.std::_Hashtable.322" = type { ptr, i64, %"struct.std::__detail::_Hash_node_base", i64, %"struct.std::__detail::_Prime_rehash_policy", ptr }
%"class.std::map.298" = type { %"class.std::_Rb_tree.299" }
%"class.std::_Rb_tree.299" = type { %"struct.std::_Rb_tree<cvc5::internal::NodeTemplate<true>, std::pair<const cvc5::internal::NodeTemplate<true>, std::vector<cvc5::internal::NodeTemplate<true>>>, std::_Select1st<std::pair<const cvc5::internal::NodeTemplate<true>, std::vector<cvc5::internal::NodeTemplate<true>>>>, std::less<cvc5::internal::NodeTemplate<true>>>::_Rb_tree_impl" }
%"struct.std::_Rb_tree<cvc5::internal::NodeTemplate<true>, std::pair<const cvc5::internal::NodeTemplate<true>, std::vector<cvc5::internal::NodeTemplate<true>>>, std::_Select1st<std::pair<const cvc5::internal::NodeTemplate<true>, std::vector<cvc5::internal::NodeTemplate<true>>>>, std::less<cvc5::internal::NodeTemplate<true>>>::_Rb_tree_impl" = type { %"struct.std::_Rb_tree_key_compare", %"struct.std::_Rb_tree_header" }
%"struct.std::_Rb_tree_iterator" = type { ptr }
%"struct.std::__detail::_Node_iterator.629" = type { %"struct.std::__detail::_Node_iterator_base.630" }
%"struct.std::__detail::_Node_iterator_base.630" = type { ptr }
%"struct.std::pair" = type { %"class.cvc5::internal::NodeTemplate", %"class.cvc5::internal::NodeTemplate" }
%"class.cvc5::internal::expr::NodeValue" = type { i64, i16, i32, [0 x ptr] }
%"class.std::__cxx11::basic_stringstream" = type { %"class.std::basic_iostream.base", %"class.std::__cxx11::basic_stringbuf", %"class.std::basic_ios" }
%"class.std::basic_iostream.base" = type { %"class.std::basic_istream.base", %"class.std::basic_ostream.base" }
%"class.std::basic_istream.base" = type { ptr, i64 }
%"class.std::basic_ostream.base" = type { ptr }
%"class.std::__cxx11::basic_stringbuf" = type { %"class.std::basic_streambuf", i32, %"class.std::__cxx11::basic_string" }
%"class.std::basic_streambuf" = type { ptr, ptr, ptr, ptr, ptr, ptr, ptr, %"class.std::locale" }
%"class.std::locale" = type { ptr }
%"class.std::basic_ios" = type { %"class.std::ios_base", ptr, i8, i8, ptr, ptr, ptr, ptr }
%"class.std::ios_base" = type { ptr, i64, i64, i32, i32, i32, ptr, %"struct.std::ios_base::_Words", [8 x %"struct.std::ios_base::_Words"], i32, ptr, %"class.std::locale" }
%"struct.std::ios_base::_Words" = type { ptr, i64 }
%"struct.std::__detail::_Node_iterator" = type { %"struct.std::__detail::_Node_iterator_base" }
%"struct.std::__detail::_Node_iterator_base" = type { ptr }
%"class.cvc5::internal::expr::NodeValue::iterator" = type { ptr }
%"struct.std::pair.473" = type <{ %"struct.std::__detail::_Node_iterator", i8, [7 x i8] }>
%"struct.std::_Rb_tree_const_iterator.789" = type { ptr }
%"class.std::tuple.790" = type { %"struct.std::_Tuple_impl.791" }
%"struct.std::_Tuple_impl.791" = type { %"struct.std::_Head_base.792" }
%"struct.std::_Head_base.792" = type { ptr }
%"class.std::tuple.780" = type { i8 }
%"struct.std::_Rb_tree_const_iterator" = type { ptr }
%"class.std::set.475" = type { %"class.std::_Rb_tree.476" }
%"class.std::_Rb_tree.476" = type { %"struct.std::_Rb_tree<cvc5::internal::NodeTemplate<true>, cvc5::internal::NodeTemplate<true>, std::_Identity<cvc5::internal::NodeTemplate<true>>, std::less<cvc5::internal::NodeTemplate<true>>>::_Rb_tree_impl" }
%"struct.std::_Rb_tree<cvc5::internal::NodeTemplate<true>, cvc5::internal::NodeTemplate<true>, std::_Identity<cvc5::internal::NodeTemplate<true>>, std::less<cvc5::internal::NodeTemplate<true>>>::_Rb_tree_impl" = type { %"struct.std::_Rb_tree_key_compare", %"struct.std::_Rb_tree_header" }
%"struct.std::_Rb_tree_iterator.515" = type { ptr }
%"class.std::map.516" = type { %"class.std::_Rb_tree.517" }
%"class.std::_Rb_tree.517" = type { %"struct.std::_Rb_tree<cvc5::internal::NodeTemplate<true>, std::pair<const cvc5::internal::NodeTemplate<true>, bool>, std::_Select1st<std::pair<const cvc5::internal::NodeTemplate<true>, bool>>, std::less<cvc5::internal::NodeTemplate<true>>>::_Rb_tree_impl" }
%"struct.std::_Rb_tree<cvc5::internal::NodeTemplate<true>, std::pair<const cvc5::internal::NodeTemplate<true>, bool>, std::_Select1st<std::pair<const cvc5::internal::NodeTemplate<true>, bool>>, std::less<cvc5::internal::NodeTemplate<true>>>::_Rb_tree_impl" = type { %"struct.std::_Rb_tree_key_compare", %"struct.std::_Rb_tree_header" }
%"struct.std::_Rb_tree_const_iterator.802" = type { ptr }
%"struct.std::pair.799" = type <{ %"class.cvc5::internal::NodeTemplate", i8, [7 x i8] }>
%"struct.std::_Rb_tree_iterator.611" = type { ptr }
%"struct.std::_Rb_tree_const_iterator.803" = type { ptr }
%"class.std::tuple.777" = type { %"struct.std::_Tuple_impl.778" }
%"struct.std::_Tuple_impl.778" = type { %"struct.std::_Head_base.779" }
%"struct.std::_Head_base.779" = type { ptr }
%"struct.std::pair.612" = type <{ %"class.cvc5::internal::TypeNode", i32, [4 x i8] }>
%"class.std::map.521" = type { %"class.std::_Rb_tree.522" }
%"class.std::_Rb_tree.522" = type { %"struct.std::_Rb_tree<cvc5::internal::TypeNode, std::pair<const cvc5::internal::TypeNode, unsigned int>, std::_Select1st<std::pair<const cvc5::internal::TypeNode, unsigned int>>, std::less<cvc5::internal::TypeNode>>::_Rb_tree_impl" }
%"struct.std::_Rb_tree<cvc5::internal::TypeNode, std::pair<const cvc5::internal::TypeNode, unsigned int>, std::_Select1st<std::pair<const cvc5::internal::TypeNode, unsigned int>>, std::less<cvc5::internal::TypeNode>>::_Rb_tree_impl" = type { %"struct.std::_Rb_tree_key_compare.308", %"struct.std::_Rb_tree_header" }
%"class.cvc5::internal::UninterpretedSortValue" = type { %"class.std::unique_ptr.526", %"class.cvc5::internal::Integer" }
%"class.std::unique_ptr.526" = type { %"struct.std::__uniq_ptr_data.527" }
%"struct.std::__uniq_ptr_data.527" = type { %"class.std::__uniq_ptr_impl.528" }
%"class.std::__uniq_ptr_impl.528" = type { %"class.std::tuple.529" }
%"class.std::tuple.529" = type { %"struct.std::_Tuple_impl.530" }
%"struct.std::_Tuple_impl.530" = type { %"struct.std::_Head_base.533" }
%"struct.std::_Head_base.533" = type { ptr }
%"class.cvc5::internal::Integer" = type { %class.__gmp_expr }
%class.__gmp_expr = type { [1 x %struct.__mpz_struct] }
%struct.__mpz_struct = type { i32, i32, ptr }
%"class.__gnu_cxx::__normal_iterator.534" = type { ptr }
%"struct.std::__detail::_Node_iterator.535" = type { %"struct.std::__detail::_Node_iterator_base.536" }
%"struct.std::__detail::_Node_iterator_base.536" = type { ptr }
%"struct.std::pair.555" = type <{ %"struct.std::__detail::_Node_iterator.535", i8, [7 x i8] }>
%"struct.__gnu_cxx::__ops::_Iter_equals_val.806" = type { ptr }
%"struct.std::_Vector_base.481" = type { %"struct.std::_Vector_base<cvc5::internal::TypeNode, std::allocator<cvc5::internal::TypeNode>>::_Vector_impl" }
%"struct.std::_Vector_base<cvc5::internal::TypeNode, std::allocator<cvc5::internal::TypeNode>>::_Vector_impl" = type { %"struct.std::_Vector_base<cvc5::internal::TypeNode, std::allocator<cvc5::internal::TypeNode>>::_Vector_impl_data" }
%"struct.std::_Vector_base<cvc5::internal::TypeNode, std::allocator<cvc5::internal::TypeNode>>::_Vector_impl_data" = type { ptr, ptr, ptr }
%"class.std::unordered_set.537" = type { %"class.std::_Hashtable.538" }
%"class.std::_Hashtable.538" = type { ptr, i64, %"struct.std::__detail::_Hash_node_base", i64, %"struct.std::__detail::_Prime_rehash_policy", ptr }
%"class.cvc5::internal::theory::TypeEnumeratorProperties" = type <{ i8, [7 x i8], %"class.std::map.573", i32, [4 x i8] }>
%"class.std::map.573" = type { %"class.std::_Rb_tree.574" }
%"class.std::_Rb_tree.574" = type { %"struct.std::_Rb_tree<cvc5::internal::TypeNode, std::pair<const cvc5::internal::TypeNode, cvc5::internal::Integer>, std::_Select1st<std::pair<const cvc5::internal::TypeNode, cvc5::internal::Integer>>, std::less<cvc5::internal::TypeNode>>::_Rb_tree_impl" }
%"struct.std::_Rb_tree<cvc5::internal::TypeNode, std::pair<const cvc5::internal::TypeNode, cvc5::internal::Integer>, std::_Select1st<std::pair<const cvc5::internal::TypeNode, cvc5::internal::Integer>>, std::less<cvc5::internal::TypeNode>>::_Rb_tree_impl" = type { %"struct.std::_Rb_tree_key_compare.308", %"struct.std::_Rb_tree_header" }
%"class.cvc5::internal::theory::TypeSet" = type { %"class.std::unordered_map.578", %"class.std::unordered_map.592", ptr }
%"class.std::unordered_map.578" = type { %"class.std::_Hashtable.579" }
%"class.std::_Hashtable.579" = type { ptr, i64, %"struct.std::__detail::_Hash_node_base", i64, %"struct.std::__detail::_Prime_rehash_policy", ptr }
%"class.std::unordered_map.592" = type { %"class.std::_Hashtable.593" }
%"class.std::_Hashtable.593" = type { ptr, i64, %"struct.std::__detail::_Hash_node_base", i64, %"struct.std::__detail::_Prime_rehash_policy", ptr }
%"class.std::vector.480" = type { %"struct.std::_Vector_base.481" }
%"class.std::map.606" = type { %"class.std::_Rb_tree.607" }
%"class.std::_Rb_tree.607" = type { %"struct.std::_Rb_tree<cvc5::internal::NodeTemplate<true>, std::pair<const cvc5::internal::NodeTemplate<true>, cvc5::internal::theory::TheoryEngineModelBuilder::Assigner>, std::_Select1st<std::pair<const cvc5::internal::NodeTemplate<true>, cvc5::internal::theory::TheoryEngineModelBuilder::Assigner>>, std::less<cvc5::internal::NodeTemplate<true>>>::_Rb_tree_impl" }
%"struct.std::_Rb_tree<cvc5::internal::NodeTemplate<true>, std::pair<const cvc5::internal::NodeTemplate<true>, cvc5::internal::theory::TheoryEngineModelBuilder::Assigner>, std::_Select1st<std::pair<const cvc5::internal::NodeTemplate<true>, cvc5::internal::theory::TheoryEngineModelBuilder::Assigner>>, std::less<cvc5::internal::NodeTemplate<true>>>::_Rb_tree_impl" = type { %"struct.std::_Rb_tree_key_compare", %"struct.std::_Rb_tree_header" }
%"class.cvc5::internal::theory::eq::EqClassesIterator" = type { ptr, i64 }
%"struct.std::__detail::_Node_iterator.615" = type { %"struct.std::__detail::_Node_iterator_base.616" }
%"struct.std::__detail::_Node_iterator_base.616" = type { ptr }
%"class.std::set.617" = type { %"class.std::_Rb_tree.618" }
%"class.std::_Rb_tree.618" = type { %"struct.std::_Rb_tree<cvc5::internal::TypeNode, cvc5::internal::TypeNode, std::_Identity<cvc5::internal::TypeNode>, std::less<cvc5::internal::TypeNode>>::_Rb_tree_impl" }
%"struct.std::_Rb_tree<cvc5::internal::TypeNode, cvc5::internal::TypeNode, std::_Identity<cvc5::internal::TypeNode>, std::less<cvc5::internal::TypeNode>>::_Rb_tree_impl" = type { %"struct.std::_Rb_tree_key_compare.308", %"struct.std::_Rb_tree_header" }
%"struct.std::pair.622" = type <{ %"struct.std::_Rb_tree_const_iterator.624", i8, [7 x i8] }>
%"struct.std::_Rb_tree_const_iterator.624" = type { ptr }
%"struct.std::_Rb_tree_iterator.626" = type { ptr }
%"class.cvc5::internal::Options" = type { %"class.std::unique_ptr.53", %"class.std::unique_ptr.61", %"class.std::unique_ptr.69", %"class.std::unique_ptr.77", %"class.std::unique_ptr.85", %"class.std::unique_ptr.93", %"class.std::unique_ptr.101", %"class.std::unique_ptr.109", %"class.std::unique_ptr.117", %"class.std::unique_ptr.125", %"class.std::unique_ptr.133", %"class.std::unique_ptr.141", %"class.std::unique_ptr.149", %"class.std::unique_ptr.157", %"class.std::unique_ptr.165", %"class.std::unique_ptr.173", %"class.std::unique_ptr.181", %"class.std::unique_ptr.189", %"class.std::unique_ptr.197", %"class.std::unique_ptr.205", %"class.std::unique_ptr.213", %"class.std::unique_ptr.221", %"class.std::unique_ptr.229", %"class.std::unique_ptr.237", ptr, ptr, ptr, ptr, ptr, ptr, ptr, ptr, ptr, ptr, ptr, ptr, ptr, ptr, ptr, ptr, ptr, ptr, ptr, ptr, ptr, ptr, ptr, ptr, %"class.std::unique_ptr.245" }
%"class.std::unique_ptr.53" = type { %"struct.std::__uniq_ptr_data.54" }
%"struct.std::__uniq_ptr_data.54" = type { %"class.std::__uniq_ptr_impl.55" }
%"class.std::__uniq_ptr_impl.55" = type { %"class.std::tuple.56" }
%"class.std::tuple.56" = type { %"struct.std::_Tuple_impl.57" }
%"struct.std::_Tuple_impl.57" = type { %"struct.std::_Head_base.60" }
%"struct.std::_Head_base.60" = type { ptr }
%"class.std::unique_ptr.61" = type { %"struct.std::__uniq_ptr_data.62" }
%"struct.std::__uniq_ptr_data.62" = type { %"class.std::__uniq_ptr_impl.63" }
%"class.std::__uniq_ptr_impl.63" = type { %"class.std::tuple.64" }
%"class.std::tuple.64" = type { %"struct.std::_Tuple_impl.65" }
%"struct.std::_Tuple_impl.65" = type { %"struct.std::_Head_base.68" }
%"struct.std::_Head_base.68" = type { ptr }
%"class.std::unique_ptr.69" = type { %"struct.std::__uniq_ptr_data.70" }
%"struct.std::__uniq_ptr_data.70" = type { %"class.std::__uniq_ptr_impl.71" }
%"class.std::__uniq_ptr_impl.71" = type { %"class.std::tuple.72" }
%"class.std::tuple.72" = type { %"struct.std::_Tuple_impl.73" }
%"struct.std::_Tuple_impl.73" = type { %"struct.std::_Head_base.76" }
%"struct.std::_Head_base.76" = type { ptr }
%"class.std::unique_ptr.77" = type { %"struct.std::__uniq_ptr_data.78" }
%"struct.std::__uniq_ptr_data.78" = type { %"class.std::__uniq_ptr_impl.79" }
%"class.std::__uniq_ptr_impl.79" = type { %"class.std::tuple.80" }
%"class.std::tuple.80" = type { %"struct.std::_Tuple_impl.81" }
%"struct.std::_Tuple_impl.81" = type { %"struct.std::_Head_base.84" }
%"struct.std::_Head_base.84" = type { ptr }
%"class.std::unique_ptr.85" = type { %"struct.std::__uniq_ptr_data.86" }
%"struct.std::__uniq_ptr_data.86" = type { %"class.std::__uniq_ptr_impl.87" }
%"class.std::__uniq_ptr_impl.87" = type { %"class.std::tuple.88" }
%"class.std::tuple.88" = type { %"struct.std::_Tuple_impl.89" }
%"struct.std::_Tuple_impl.89" = type { %"struct.std::_Head_base.92" }
%"struct.std::_Head_base.92" = type { ptr }
%"class.std::unique_ptr.93" = type { %"struct.std::__uniq_ptr_data.94" }
%"struct.std::__uniq_ptr_data.94" = type { %"class.std::__uniq_ptr_impl.95" }
%"class.std::__uniq_ptr_impl.95" = type { %"class.std::tuple.96" }
%"class.std::tuple.96" = type { %"struct.std::_Tuple_impl.97" }
%"struct.std::_Tuple_impl.97" = type { %"struct.std::_Head_base.100" }
%"struct.std::_Head_base.100" = type { ptr }
%"class.std::unique_ptr.101" = type { %"struct.std::__uniq_ptr_data.102" }
%"struct.std::__uniq_ptr_data.102" = type { %"class.std::__uniq_ptr_impl.103" }
%"class.std::__uniq_ptr_impl.103" = type { %"class.std::tuple.104" }
%"class.std::tuple.104" = type { %"struct.std::_Tuple_impl.105" }
%"struct.std::_Tuple_impl.105" = type { %"struct.std::_Head_base.108" }
%"struct.std::_Head_base.108" = type { ptr }
%"class.std::unique_ptr.109" = type { %"struct.std::__uniq_ptr_data.110" }
%"struct.std::__uniq_ptr_data.110" = type { %"class.std::__uniq_ptr_impl.111" }
%"class.std::__uniq_ptr_impl.111" = type { %"class.std::tuple.112" }
%"class.std::tuple.112" = type { %"struct.std::_Tuple_impl.113" }
%"struct.std::_Tuple_impl.113" = type { %"struct.std::_Head_base.116" }
%"struct.std::_Head_base.116" = type { ptr }
%"class.std::unique_ptr.117" = type { %"struct.std::__uniq_ptr_data.118" }
%"struct.std::__uniq_ptr_data.118" = type { %"class.std::__uniq_ptr_impl.119" }
%"class.std::__uniq_ptr_impl.119" = type { %"class.std::tuple.120" }
%"class.std::tuple.120" = type { %"struct.std::_Tuple_impl.121" }
%"struct.std::_Tuple_impl.121" = type { %"struct.std::_Head_base.124" }
%"struct.std::_Head_base.124" = type { ptr }
%"class.std::unique_ptr.125" = type { %"struct.std::__uniq_ptr_data.126" }
%"struct.std::__uniq_ptr_data.126" = type { %"class.std::__uniq_ptr_impl.127" }
%"class.std::__uniq_ptr_impl.127" = type { %"class.std::tuple.128" }
%"class.std::tuple.128" = type { %"struct.std::_Tuple_impl.129" }
%"struct.std::_Tuple_impl.129" = type { %"struct.std::_Head_base.132" }
%"struct.std::_Head_base.132" = type { ptr }
%"class.std::unique_ptr.133" = type { %"struct.std::__uniq_ptr_data.134" }
%"struct.std::__uniq_ptr_data.134" = type { %"class.std::__uniq_ptr_impl.135" }
%"class.std::__uniq_ptr_impl.135" = type { %"class.std::tuple.136" }
%"class.std::tuple.136" = type { %"struct.std::_Tuple_impl.137" }
%"struct.std::_Tuple_impl.137" = type { %"struct.std::_Head_base.140" }
%"struct.std::_Head_base.140" = type { ptr }
%"class.std::unique_ptr.141" = type { %"struct.std::__uniq_ptr_data.142" }
%"struct.std::__uniq_ptr_data.142" = type { %"class.std::__uniq_ptr_impl.143" }
%"class.std::__uniq_ptr_impl.143" = type { %"class.std::tuple.144" }
%"class.std::tuple.144" = type { %"struct.std::_Tuple_impl.145" }
%"struct.std::_Tuple_impl.145" = type { %"struct.std::_Head_base.148" }
%"struct.std::_Head_base.148" = type { ptr }
%"class.std::unique_ptr.149" = type { %"struct.std::__uniq_ptr_data.150" }
%"struct.std::__uniq_ptr_data.150" = type { %"class.std::__uniq_ptr_impl.151" }
%"class.std::__uniq_ptr_impl.151" = type { %"class.std::tuple.152" }
%"class.std::tuple.152" = type { %"struct.std::_Tuple_impl.153" }
%"struct.std::_Tuple_impl.153" = type { %"struct.std::_Head_base.156" }
%"struct.std::_Head_base.156" = type { ptr }
%"class.std::unique_ptr.157" = type { %"struct.std::__uniq_ptr_data.158" }
%"struct.std::__uniq_ptr_data.158" = type { %"class.std::__uniq_ptr_impl.159" }
%"class.std::__uniq_ptr_impl.159" = type { %"class.std::tuple.160" }
%"class.std::tuple.160" = type { %"struct.std::_Tuple_impl.161" }
%"struct.std::_Tuple_impl.161" = type { %"struct.std::_Head_base.164" }
%"struct.std::_Head_base.164" = type { ptr }
%"class.std::unique_ptr.165" = type { %"struct.std::__uniq_ptr_data.166" }
%"struct.std::__uniq_ptr_data.166" = type { %"class.std::__uniq_ptr_impl.167" }
%"class.std::__uniq_ptr_impl.167" = type { %"class.std::tuple.168" }
%"class.std::tuple.168" = type { %"struct.std::_Tuple_impl.169" }
%"struct.std::_Tuple_impl.169" = type { %"struct.std::_Head_base.172" }
%"struct.std::_Head_base.172" = type { ptr }
%"class.std::unique_ptr.173" = type { %"struct.std::__uniq_ptr_data.174" }
%"struct.std::__uniq_ptr_data.174" = type { %"class.std::__uniq_ptr_impl.175" }
%"class.std::__uniq_ptr_impl.175" = type { %"class.std::tuple.176" }
%"class.std::tuple.176" = type { %"struct.std::_Tuple_impl.177" }
%"struct.std::_Tuple_impl.177" = type { %"struct.std::_Head_base.180" }
%"struct.std::_Head_base.180" = type { ptr }
%"class.std::unique_ptr.181" = type { %"struct.std::__uniq_ptr_data.182" }
%"struct.std::__uniq_ptr_data.182" = type { %"class.std::__uniq_ptr_impl.183" }
%"class.std::__uniq_ptr_impl.183" = type { %"class.std::tuple.184" }
%"class.std::tuple.184" = type { %"struct.std::_Tuple_impl.185" }
%"struct.std::_Tuple_impl.185" = type { %"struct.std::_Head_base.188" }
%"struct.std::_Head_base.188" = type { ptr }
%"class.std::unique_ptr.189" = type { %"struct.std::__uniq_ptr_data.190" }
%"struct.std::__uniq_ptr_data.190" = type { %"class.std::__uniq_ptr_impl.191" }
%"class.std::__uniq_ptr_impl.191" = type { %"class.std::tuple.192" }
%"class.std::tuple.192" = type { %"struct.std::_Tuple_impl.193" }
%"struct.std::_Tuple_impl.193" = type { %"struct.std::_Head_base.196" }
%"struct.std::_Head_base.196" = type { ptr }
%"class.std::unique_ptr.197" = type { %"struct.std::__uniq_ptr_data.198" }
%"struct.std::__uniq_ptr_data.198" = type { %"class.std::__uniq_ptr_impl.199" }
%"class.std::__uniq_ptr_impl.199" = type { %"class.std::tuple.200" }
%"class.std::tuple.200" = type { %"struct.std::_Tuple_impl.201" }
%"struct.std::_Tuple_impl.201" = type { %"struct.std::_Head_base.204" }
%"struct.std::_Head_base.204" = type { ptr }
%"class.std::unique_ptr.205" = type { %"struct.std::__uniq_ptr_data.206" }
%"struct.std::__uniq_ptr_data.206" = type { %"class.std::__uniq_ptr_impl.207" }
%"class.std::__uniq_ptr_impl.207" = type { %"class.std::tuple.208" }
%"class.std::tuple.208" = type { %"struct.std::_Tuple_impl.209" }
%"struct.std::_Tuple_impl.209" = type { %"struct.std::_Head_base.212" }
%"struct.std::_Head_base.212" = type { ptr }
%"class.std::unique_ptr.213" = type { %"struct.std::__uniq_ptr_data.214" }
%"struct.std::__uniq_ptr_data.214" = type { %"class.std::__uniq_ptr_impl.215" }
%"class.std::__uniq_ptr_impl.215" = type { %"class.std::tuple.216" }
%"class.std::tuple.216" = type { %"struct.std::_Tuple_impl.217" }
%"struct.std::_Tuple_impl.217" = type { %"struct.std::_Head_base.220" }
%"struct.std::_Head_base.220" = type { ptr }
%"class.std::unique_ptr.221" = type { %"struct.std::__uniq_ptr_data.222" }
%"struct.std::__uniq_ptr_data.222" = type { %"class.std::__uniq_ptr_impl.223" }
%"class.std::__uniq_ptr_impl.223" = type { %"class.std::tuple.224" }
%"class.std::tuple.224" = type { %"struct.std::_Tuple_impl.225" }
%"struct.std::_Tuple_impl.225" = type { %"struct.std::_Head_base.228" }
%"struct.std::_Head_base.228" = type { ptr }
%"class.std::unique_ptr.229" = type { %"struct.std::__uniq_ptr_data.230" }
%"struct.std::__uniq_ptr_data.230" = type { %"class.std::__uniq_ptr_impl.231" }
%"class.std::__uniq_ptr_impl.231" = type { %"class.std::tuple.232" }
%"class.std::tuple.232" = type { %"struct.std::_Tuple_impl.233" }
%"struct.std::_Tuple_impl.233" = type { %"struct.std::_Head_base.236" }
%"struct.std::_Head_base.236" = type { ptr }
%"class.std::unique_ptr.237" = type { %"struct.std::__uniq_ptr_data.238" }
%"struct.std::__uniq_ptr_data.238" = type { %"class.std::__uniq_ptr_impl.239" }
%"class.std::__uniq_ptr_impl.239" = type { %"class.std::tuple.240" }
%"class.std::tuple.240" = type { %"struct.std::_Tuple_impl.241" }
%"struct.std::_Tuple_impl.241" = type { %"struct.std::_Head_base.244" }
%"struct.std::_Head_base.244" = type { ptr }
%"class.std::unique_ptr.245" = type { %"struct.std::__uniq_ptr_data.246" }
%"struct.std::__uniq_ptr_data.246" = type { %"class.std::__uniq_ptr_impl.247" }
%"class.std::__uniq_ptr_impl.247" = type { %"class.std::tuple.248" }
%"class.std::tuple.248" = type { %"struct.std::_Tuple_impl.249" }
%"struct.std::_Tuple_impl.249" = type { %"struct.std::_Head_base.252" }
%"struct.std::_Head_base.252" = type { ptr }
%"struct.cvc5::internal::options::HolderQUANTIFIERS" = type <{ i8, i8, i8, i8, i8, i8, i8, i8, i32, i8, i8, i8, i8, i8, i8, i8, i8, i32, i8, i8, i8, i8, i8, i8, i8, i8, i8, [3 x i8], i32, i8, i8, i8, i8, i8, i8, i8, i8, i8, i8, i8, i8, i8, i8, i8, i8, i8, i8, i8, i8, i8, i8, i8, i8, i8, i8, i8, i8, i8, [3 x i8], i32, i8, i8, i8, i8, i64, i8, [7 x i8], i64, i8, [7 x i8], i64, i8, i8, i8, i8, i8, i8, i8, i8, i8, i8, i8, i8, i8, i8, i8, i8, i64, i8, i8, i8, i8, i8, i8, i8, i8, i8, i8, i8, i8, i8, i8, i8, i8, i8, i8, i8, i8, i8, [3 x i8], i32, i8, [3 x i8], i64, i8, i8, i8, i8, i8, i8, i8, i8, i8, i8, i8, i8, i8, [3 x i8], i32, i8, i8, i8, i8, i64, i8, [7 x i8], i64, i8, i8, i8, i8, i32, i8, [7 x i8], i64, i8, i8, i8, i8, i8, [3 x i8], i32, i8, [3 x i8], i32, i8, i8, i8, i8, i32, i8, i8, i8, i8, i8, i8, i8, i8, i32, i8, i8, i8, i8, i8, i8, i8, i8, i8, i8, i8, i8, i8, i8, i8, i8, i32, i8, i8, i8, i8, i32, i8, i8, i8, i8, i32, i8, i8, i8, i8, i8, i8, i8, i8, i32, i8, i8, i8, i8, i8, [3 x i8], i32, i8, i8, i8, i8, i8, i8, i8, i8, i8, i8, i8, i8, i8, i8, i8, i8, i8, i8, i8, i8, i8, [3 x i8], i32, i8, [7 x i8], i64, i8, [7 x i8], double, i8, [3 x i8], i32, i8, [7 x i8], i64, i8, [3 x i8], i32, i8, i8, i8, i8, i32, i8, i8, i8, i8, i8, i8, i8, i8, i8, [3 x i8], i32, i8, [3 x i8], i32, i8, [3 x i8], i32, i8, [3 x i8], i32, i8, i8, i8, i8, i8, [3 x i8], i32, i8, i8, i8, i8, i8, [7 x i8], i64, i8, i8, i8, i8, i32, i8, [3 x i8], i32, i8, i8, i8, [5 x i8], i64, i8, i8, i8, [5 x i8], i64, i8, i8, i8, [5 x i8], i64, i8, i8, i8, i8, i8, i8, i8, i8, i8, i8, i8, i8, i8, [3 x i8], i64, i8, i8, i8, i8, i8, i8, i8, i8, i64, i8, [3 x i8], i32, i8, i8, i8, i8, i32, i8, [7 x i8], i64, i8, [7 x i8], double, i8, i8, i8, i8, i8, [3 x i8], i32, i8, i8, i8, i8, i64, i8, [7 x i8], i64, i8, i8, i8, i8, i32, i8, [3 x i8], i32, i8, [3 x i8], i32, i8, [3 x i8], i32, i8, [3 x i8], i32, i8, i8, i8, i8, i8, [3 x i8] }>
%"struct.cvc5::internal::options::HolderSTRINGS" = type <{ i32, i8, [3 x i8], i32, i8, [3 x i8], i32, i8, [3 x i8], i64, i8, i8, i8, i8, i8, i8, i8, i8, i8, i8, i8, i8, i8, i8, i8, i8, i8, i8, i8, i8, i8, i8, i8, i8, i8, i8, i8, i8, i8, i8, i8, i8, i64, i8, [3 x i8], i32, i8, i8, i8, i8, i8, i8, i8, i8 }>
%"struct.std::pair.627" = type { %"class.cvc5::internal::NodeTemplate", %"class.cvc5::internal::theory::TheoryEngineModelBuilder::Assigner" }
%"struct.std::_Rb_tree_const_iterator.808" = type { ptr }
%"struct.std::_Rb_tree_iterator.775" = type { ptr }
%"struct.std::_Rb_tree_const_iterator.776" = type { ptr }
%"struct.std::pair.759" = type { %"class.cvc5::internal::TypeNode", %"class.cvc5::internal::Integer" }
%"struct.std::_Rb_tree_iterator.811" = type { ptr }
%"struct.std::pair.812" = type <{ %"struct.std::_Rb_tree_iterator.814", i8, [7 x i8] }>
%"struct.std::_Rb_tree_iterator.814" = type { ptr }
%"struct.std::pair.745" = type { %"class.cvc5::internal::TypeNode", ptr }
%"struct.cvc5::internal::options::HolderSMT" = type <{ i8, i8, i8, i8, i8, i8, [2 x i8], i64, i8, i8, i8, i8, i8, i8, i8, i8, i8, i8, i8, i8, i8, i8, i8, i8, i32, i8, [3 x i8], double, i8, [3 x i8], i32, i8, i8, i8, i8, i32, i8, i8, i8, i8, i32, i8, [3 x i8], i32, i8, i8, i8, i8, i8, i8, i8, i8, i32, i8, i8, i8, i8, i8, i8, i8, i8, i8, i8, i8, i8, i8, i8, i8, i8, i8, i8, i8, i8, i8, i8, i8, i8, i8, i8, i8, i8, i32, i8, i8, i8, i8, i8, i8, i8, i8, i32, i8, i8, i8, i8, i32, i8, [7 x i8], i64, i8, i8, i8, i8, i8, i8, i8, i8, i64, i8, i8, i8, i8, i32, i8, [7 x i8] }>
%"class.cvc5::internal::OstreamVoider" = type { i8 }
%"class.cvc5::internal::FatalStream" = type { i8 }
%"class.cvc5::internal::NodeBuilder" = type <{ %"class.cvc5::internal::expr::NodeValue", [10 x ptr], ptr, ptr, i32, [4 x i8] }>
%"struct.cvc5::internal::SortTypeSize" = type { %"class.std::map.731" }
%"class.std::map.731" = type { %"class.std::_Rb_tree.732" }
%"class.std::_Rb_tree.732" = type { %"struct.std::_Rb_tree<cvc5::internal::TypeNode, std::pair<const cvc5::internal::TypeNode, unsigned long>, std::_Select1st<std::pair<const cvc5::internal::TypeNode, unsigned long>>, std::less<cvc5::internal::TypeNode>>::_Rb_tree_impl" }
%"struct.std::_Rb_tree<cvc5::internal::TypeNode, std::pair<const cvc5::internal::TypeNode, unsigned long>, std::_Select1st<std::pair<const cvc5::internal::TypeNode, unsigned long>>, std::less<cvc5::internal::TypeNode>>::_Rb_tree_impl" = type { %"struct.std::_Rb_tree_key_compare.308", %"struct.std::_Rb_tree_header" }
%"class.std::allocator.39" = type { i8 }
%"struct.cvc5::internal::options::HolderTHEORY" = type <{ i8, i8, i8, i8, i32, i8, i8, i8, i8, i32, i8, [3 x i8], i32, i8, [3 x i8] }>
%"class.cvc5::internal::theory::uf::UfModelTree" = type { %"class.cvc5::internal::NodeTemplate", %"class.std::vector.712", %"class.cvc5::internal::theory::uf::UfModelTreeNode" }
%"class.std::vector.712" = type { %"struct.std::_Vector_base.713" }
%"struct.std::_Vector_base.713" = type { %"struct.std::_Vector_base<int, std::allocator<int>>::_Vector_impl" }
%"struct.std::_Vector_base<int, std::allocator<int>>::_Vector_impl" = type { %"struct.std::_Vector_base<int, std::allocator<int>>::_Vector_impl_data" }
%"struct.std::_Vector_base<int, std::allocator<int>>::_Vector_impl_data" = type { ptr, ptr, ptr }
%"class.cvc5::internal::theory::uf::UfModelTreeNode" = type { %"class.std::map.717", %"class.cvc5::internal::NodeTemplate" }
%"class.std::map.717" = type { %"class.std::_Rb_tree.718" }
%"class.std::_Rb_tree.718" = type { %"struct.std::_Rb_tree<cvc5::internal::NodeTemplate<true>, std::pair<const cvc5::internal::NodeTemplate<true>, cvc5::internal::theory::uf::UfModelTreeNode>, std::_Select1st<std::pair<const cvc5::internal::NodeTemplate<true>, cvc5::internal::theory::uf::UfModelTreeNode>>, std::less<cvc5::internal::NodeTemplate<true>>>::_Rb_tree_impl" }
%"struct.std::_Rb_tree<cvc5::internal::NodeTemplate<true>, std::pair<const cvc5::internal::NodeTemplate<true>, cvc5::internal::theory::uf::UfModelTreeNode>, std::_Select1st<std::pair<const cvc5::internal::NodeTemplate<true>, cvc5::internal::theory::uf::UfModelTreeNode>>, std::less<cvc5::internal::NodeTemplate<true>>>::_Rb_tree_impl" = type { %"struct.std::_Rb_tree_key_compare", %"struct.std::_Rb_tree_header" }
%"class.std::vector.722" = type { %"struct.std::_Vector_base.723" }
%"struct.std::_Vector_base.723" = type { %"struct.std::_Vector_base<cvc5::internal::NodeTemplate<false>, std::allocator<cvc5::internal::NodeTemplate<false>>>::_Vector_impl" }
%"struct.std::_Vector_base<cvc5::internal::NodeTemplate<false>, std::allocator<cvc5::internal::NodeTemplate<false>>>::_Vector_impl" = type { %"struct.std::_Vector_base<cvc5::internal::NodeTemplate<false>, std::allocator<cvc5::internal::NodeTemplate<false>>>::_Vector_impl_data" }
%"struct.std::_Vector_base<cvc5::internal::NodeTemplate<false>, std::allocator<cvc5::internal::NodeTemplate<false>>>::_Vector_impl_data" = type { ptr, ptr, ptr }
%"struct.std::_Rb_tree_iterator.727" = type { ptr }
%"struct.std::_Rb_tree_const_iterator.822" = type { ptr }
%"struct.std::pair.728" = type { %"class.cvc5::internal::NodeTemplate", %"class.std::vector.269" }
%"class.__gnu_cxx::__normal_iterator.730" = type { ptr }
%"class.__gnu_cxx::__normal_iterator.827" = type { ptr }
%"class.std::unordered_map.828" = type { %"class.std::_Hashtable.829" }
%"class.std::_Hashtable.829" = type { ptr, i64, %"struct.std::__detail::_Hash_node_base", i64, %"struct.std::__detail::_Prime_rehash_policy", ptr }
%"struct.__gnu_cxx::__ops::_Iter_comp_iter" = type { %"struct.cvc5::internal::SortTypeSize" }
%"class.__gnu_cxx::__normal_iterator.770" = type { ptr }
%"struct.std::__detail::_Hash_node_value_base" = type { %"struct.__gnu_cxx::__aligned_buffer" }
%"struct.__gnu_cxx::__aligned_buffer" = type { %"union.std::aligned_storage<8, 8>::type" }
%"union.std::aligned_storage<8, 8>::type" = type { [8 x i8] }
%"class.std::allocator.736" = type { i8 }
%"struct.std::__detail::_Hash_node_value_base.741" = type { %"struct.__gnu_cxx::__aligned_buffer.742" }
%"struct.__gnu_cxx::__aligned_buffer.742" = type { %"union.std::aligned_storage<16, 8>::type" }
%"union.std::aligned_storage<16, 8>::type" = type { [16 x i8] }
%"struct.std::_Rb_tree_node" = type { %"struct.std::_Rb_tree_node_base", %"struct.__gnu_cxx::__aligned_membuf" }
%"struct.__gnu_cxx::__aligned_membuf" = type { [8 x i8] }
%"struct.std::__detail::_Hash_node_value_base.749" = type { %"struct.__gnu_cxx::__aligned_buffer.750" }
%"struct.__gnu_cxx::__aligned_buffer.750" = type { %"union.std::aligned_storage<8, 8>::type" }
%"struct.std::_Rb_tree_node.751" = type { %"struct.std::_Rb_tree_node_base", %"struct.__gnu_cxx::__aligned_membuf.752" }
%"struct.__gnu_cxx::__aligned_membuf.752" = type { [16 x i8] }
%"struct.std::_Rb_tree_node.753" = type { %"struct.std::_Rb_tree_node_base", %"struct.__gnu_cxx::__aligned_membuf.754" }
%"struct.__gnu_cxx::__aligned_membuf.754" = type { [48 x i8] }
%"struct.std::_Rb_tree_node.755" = type { %"struct.std::_Rb_tree_node_base", %"struct.__gnu_cxx::__aligned_membuf.756" }
%"struct.__gnu_cxx::__aligned_membuf.756" = type { [16 x i8] }
%"struct.std::_Rb_tree_node.757" = type { %"struct.std::_Rb_tree_node_base", %"struct.__gnu_cxx::__aligned_membuf.758" }
%"struct.__gnu_cxx::__aligned_membuf.758" = type { [24 x i8] }
%"class.cvc5::internal::options::ioutils::Scope" = type <{ ptr, i8, [7 x i8], i64, i64, i8, [3 x i8], i32, i32, [4 x i8] }>
%"class.__gnu_cxx::__normal_iterator.765" = type { ptr }
%"struct.std::_Rb_tree_node.761" = type { %"struct.std::_Rb_tree_node_base", %"struct.__gnu_cxx::__aligned_membuf.762" }
%"struct.__gnu_cxx::__aligned_membuf.762" = type { [64 x i8] }
%"struct.std::pair.763" = type { %"class.cvc5::internal::NodeTemplate", %"class.cvc5::internal::theory::uf::UfModelTreeNode" }
%"class.std::allocator.733" = type { i8 }
%"struct.std::_Rb_tree<cvc5::internal::TypeNode, std::pair<const cvc5::internal::TypeNode, unsigned long>, std::_Select1st<std::pair<const cvc5::internal::TypeNode, unsigned long>>, std::less<cvc5::internal::TypeNode>>::_Alloc_node" = type { ptr }
%"struct.std::_Rb_tree_node.766" = type { %"struct.std::_Rb_tree_node_base", %"struct.__gnu_cxx::__aligned_membuf.767" }
%"struct.__gnu_cxx::__aligned_membuf.767" = type { [16 x i8] }
%"struct.std::pair.768" = type { %"class.cvc5::internal::TypeNode", i64 }
%"struct.__gnu_cxx::__ops::_Iter_equals_val" = type { ptr }
%"struct.std::__detail::_Hash_node_value_base.773" = type { %"struct.__gnu_cxx::__aligned_buffer.774" }
%"struct.__gnu_cxx::__aligned_buffer.774" = type { %"union.std::aligned_storage<16, 8>::type" }
%struct._Guard = type { ptr }
%"struct.std::_Rb_tree<cvc5::internal::TypeNode, std::pair<const cvc5::internal::TypeNode, cvc5::internal::Integer>, std::_Select1st<std::pair<const cvc5::internal::TypeNode, cvc5::internal::Integer>>, std::less<cvc5::internal::TypeNode>>::_Auto_node" = type { ptr, ptr }
%"struct.std::pair.781" = type { ptr, ptr }
%"struct.std::_Select1st" = type { i8 }
%"class.std::move_iterator" = type { ptr }
%"struct.std::_Select1st.785" = type { i8 }
%"struct.std::__detail::_Identity" = type { i8 }
%"struct.std::__detail::_Mod_range_hashing" = type { i8 }
%"struct.std::__detail::_Hash_node_code_cache" = type { i64 }
%"struct.std::__detail::_AllocNode" = type { ptr }
%"struct.std::_Hashtable<cvc5::internal::NodeTemplate<true>, cvc5::internal::NodeTemplate<true>, std::allocator<cvc5::internal::NodeTemplate<true>>, std::__detail::_Identity, std::equal_to<cvc5::internal::NodeTemplate<true>>, std::hash<cvc5::internal::Node>, std::__detail::_Mod_range_hashing, std::__detail::_Default_ranged_hash, std::__detail::_Prime_rehash_policy, std::__detail::_Hashtable_traits<true, true, true>>::_Scoped_node" = type { ptr, ptr }
%"struct.std::pair.787" = type { i8, i64 }
%"struct.std::_Rb_tree<cvc5::internal::NodeTemplate<true>, std::pair<const cvc5::internal::NodeTemplate<true>, cvc5::internal::NodeTemplate<true>>, std::_Select1st<std::pair<const cvc5::internal::NodeTemplate<true>, cvc5::internal::NodeTemplate<true>>>, std::less<cvc5::internal::NodeTemplate<true>>>::_Auto_node" = type { ptr, ptr }
%"struct.std::_Rb_tree_node.793" = type { %"struct.std::_Rb_tree_node_base", %"struct.__gnu_cxx::__aligned_membuf.794" }
%"struct.__gnu_cxx::__aligned_membuf.794" = type { [8 x i8] }
%"struct.std::_Select1st.797" = type { i8 }
%"struct.std::_Rb_tree_node.795" = type { %"struct.std::_Rb_tree_node_base", %"struct.__gnu_cxx::__aligned_membuf.796" }
%"struct.__gnu_cxx::__aligned_membuf.796" = type { [16 x i8] }
%"struct.std::_Rb_tree<cvc5::internal::NodeTemplate<true>, std::pair<const cvc5::internal::NodeTemplate<true>, bool>, std::_Select1st<std::pair<const cvc5::internal::NodeTemplate<true>, bool>>, std::less<cvc5::internal::NodeTemplate<true>>>::_Auto_node" = type { ptr, ptr }
%"struct.std::_Rb_tree<cvc5::internal::TypeNode, std::pair<const cvc5::internal::TypeNode, unsigned int>, std::_Select1st<std::pair<const cvc5::internal::TypeNode, unsigned int>>, std::less<cvc5::internal::TypeNode>>::_Auto_node" = type { ptr, ptr }
%"struct.std::_Select1st.804" = type { i8 }
%"struct.std::__detail::_AllocNode.807" = type { ptr }
%"struct.std::_Hashtable<cvc5::internal::TypeNode, cvc5::internal::TypeNode, std::allocator<cvc5::internal::TypeNode>, std::__detail::_Identity, std::equal_to<cvc5::internal::TypeNode>, std::hash<cvc5::internal::TypeNode>, std::__detail::_Mod_range_hashing, std::__detail::_Default_ranged_hash, std::__detail::_Prime_rehash_policy, std::__detail::_Hashtable_traits<true, true, true>>::_Scoped_node" = type { ptr, ptr }
%"struct.std::_Rb_tree<cvc5::internal::NodeTemplate<true>, std::pair<const cvc5::internal::NodeTemplate<true>, cvc5::internal::theory::TheoryEngineModelBuilder::Assigner>, std::_Select1st<std::pair<const cvc5::internal::NodeTemplate<true>, cvc5::internal::theory::TheoryEngineModelBuilder::Assigner>>, std::less<cvc5::internal::NodeTemplate<true>>>::_Auto_node" = type { ptr, ptr }
%"struct.std::_Select1st.809" = type { i8 }
%"struct.std::_Identity" = type { i8 }
%"struct.std::_Rb_tree<cvc5::internal::TypeNode, cvc5::internal::TypeNode, std::_Identity<cvc5::internal::TypeNode>, std::less<cvc5::internal::TypeNode>>::_Alloc_node" = type { ptr }
%"struct.std::pair.817" = type { %"struct.std::_Rb_tree_iterator", %"struct.std::_Rb_tree_iterator" }
%"struct.std::__detail::_Select1st" = type { i8 }
%"struct.std::_Hashtable<cvc5::internal::NodeTemplate<true>, std::pair<const cvc5::internal::NodeTemplate<true>, cvc5::internal::NodeTemplate<true>>, std::allocator<std::pair<const cvc5::internal::NodeTemplate<true>, cvc5::internal::NodeTemplate<true>>>, std::__detail::_Select1st, std::equal_to<cvc5::internal::NodeTemplate<true>>, std::hash<cvc5::internal::Node>, std::__detail::_Mod_range_hashing, std::__detail::_Default_ranged_hash, std::__detail::_Prime_rehash_policy, std::__detail::_Hashtable_traits<true, false, true>>::_Scoped_node" = type { ptr, ptr }
%"class.std::tuple.819" = type { %"struct.std::_Tuple_impl.820" }
%"struct.std::_Tuple_impl.820" = type { %"struct.std::_Head_base.821" }
%"struct.std::_Head_base.821" = type { ptr }
%"struct.std::_Rb_tree<cvc5::internal::NodeTemplate<true>, std::pair<const cvc5::internal::NodeTemplate<true>, std::vector<cvc5::internal::NodeTemplate<true>>>, std::_Select1st<std::pair<const cvc5::internal::NodeTemplate<true>, std::vector<cvc5::internal::NodeTemplate<true>>>>, std::less<cvc5::internal::NodeTemplate<true>>>::_Auto_node" = type { ptr, ptr }
%"struct.std::_Select1st.825" = type { i8 }
%"struct.std::_Rb_tree_node.823" = type { %"struct.std::_Rb_tree_node_base", %"struct.__gnu_cxx::__aligned_membuf.824" }
%"struct.__gnu_cxx::__aligned_membuf.824" = type { [32 x i8] }
%"struct.std::__detail::_Node_const_iterator" = type { %"struct.std::__detail::_Node_iterator_base.842" }
%"struct.std::__detail::_Node_iterator_base.842" = type { ptr }
%"struct.std::__detail::_Node_iterator.843" = type { %"struct.std::__detail::_Node_iterator_base.842" }
%"class.cvc5::internal::expr::NodeValue::iterator.846" = type { ptr }
%"struct.std::pair.844" = type { %"class.cvc5::internal::NodeTemplate.274", %"class.cvc5::internal::NodeTemplate.274" }
%"struct.__gnu_cxx::__ops::_Iter_equals_val.851" = type { ptr }
%"struct.std::__detail::_Hash_node_value_base.849" = type { %"struct.__gnu_cxx::__aligned_buffer.850" }
%"struct.__gnu_cxx::__aligned_buffer.850" = type { %"union.std::aligned_storage<16, 8>::type" }
%"struct.std::_Hashtable<cvc5::internal::NodeTemplate<false>, std::pair<const cvc5::internal::NodeTemplate<false>, cvc5::internal::NodeTemplate<false>>, std::allocator<std::pair<const cvc5::internal::NodeTemplate<false>, cvc5::internal::NodeTemplate<false>>>, std::__detail::_Select1st, std::equal_to<cvc5::internal::NodeTemplate<false>>, std::hash<cvc5::internal::TNode>, std::__detail::_Mod_range_hashing, std::__detail::_Default_ranged_hash, std::__detail::_Prime_rehash_policy, std::__detail::_Hashtable_traits<true, false, true>>::_Scoped_node" = type { ptr, ptr }
%"class.std::tuple.852" = type { %"struct.std::_Tuple_impl.853" }
%"struct.std::_Tuple_impl.853" = type { %"struct.std::_Head_base.854" }
%"struct.std::_Head_base.854" = type { ptr }
%"struct.__gnu_cxx::__ops::_Iter_comp_val" = type { %"struct.cvc5::internal::SortTypeSize" }
%"struct.__gnu_cxx::__ops::_Val_comp_iter" = type { %"struct.cvc5::internal::SortTypeSize" }

$_ZNSt13unordered_mapIN4cvc58internal12NodeTemplateILb1EEES3_St4hashIS3_ESt8equal_toIS3_ESaISt4pairIKS3_S3_EEEC2Ev = comdat any

$_ZNSt3mapIN4cvc58internal12NodeTemplateILb1EEES3_St4lessIS3_ESaISt4pairIKS3_S3_EEEC2Ev = comdat any

$_ZNSt10unique_ptrIN4cvc58internal6theory14TypeEnumeratorESt14default_deleteIS3_EE5resetEPS3_ = comdat any

$_ZN4cvc58internal8TypeNodeC2ERKS1_ = comdat any

$_ZN4cvc58internal6theory14TypeEnumeratorC2ENS0_8TypeNodeEPNS1_24TypeEnumeratorPropertiesE = comdat any

$_ZN4cvc58internal8TypeNodeD2Ev = comdat any

$_ZNSt6vectorIN4cvc58internal12NodeTemplateILb1EEESaIS3_EE6insertIN9__gnu_cxx17__normal_iteratorIPKS3_S5_EEvEENS8_IPS3_S5_EESB_T_SE_ = comdat any

$_ZNSt6vectorIN4cvc58internal12NodeTemplateILb1EEESaIS3_EE3endEv = comdat any

$_ZN9__gnu_cxx17__normal_iteratorIPKN4cvc58internal12NodeTemplateILb1EEESt6vectorIS4_SaIS4_EEEC2IPS4_vEERKNS0_IT_S9_EE = comdat any

$_ZNKSt6vectorIN4cvc58internal12NodeTemplateILb1EEESaIS3_EE5beginEv = comdat any

$_ZNKSt6vectorIN4cvc58internal12NodeTemplateILb1EEESaIS3_EE3endEv = comdat any

$_ZN4cvc58internal12NodeTemplateILb1EEC2Ev = comdat any

$_ZNKSt10unique_ptrIN4cvc58internal6theory14TypeEnumeratorESt14default_deleteIS3_EEdeEv = comdat any

$_ZN4cvc58internal6theory14TypeEnumerator10isFinishedEv = comdat any

$_ZN4cvc58internal12NodeTemplateILb1EE4nullEv = comdat any

$_ZN4cvc58internal6theory14TypeEnumeratordeEv = comdat any

$_ZN4cvc58internal12NodeTemplateILb1EEaSERKS2_ = comdat any

$_ZN4cvc58internal12NodeTemplateILb1EED2Ev = comdat any

$_ZN9__gnu_cxxeqIPN4cvc58internal12NodeTemplateILb1EEESt6vectorIS4_SaIS4_EEEEbRKNS_17__normal_iteratorIT_T0_EESE_ = comdat any

$_ZSt4findIN9__gnu_cxx17__normal_iteratorIPN4cvc58internal12NodeTemplateILb1EEESt6vectorIS5_SaIS5_EEEES5_ET_SB_SB_RKT0_ = comdat any

$_ZNSt6vectorIN4cvc58internal12NodeTemplateILb1EEESaIS3_EE5beginEv = comdat any

$_ZN4cvc58internal6theory14TypeEnumeratorppEv = comdat any

$_ZN4cvc58internal12NodeTemplateILb1EEC2ERKS2_ = comdat any

$_ZN4cvc58internal12NodeTemplateILb1EEC2ERKNS1_ILb0EEE = comdat any

$_ZN4cvc58internal11__cvc5_truecvbEv = comdat any

$_ZNK4cvc58internal5NullCcvNS0_11Cvc5ostreamEEv = comdat any

$_ZNK4cvc58internal6TraceCclEv = comdat any

$_ZN4cvc58internal11Cvc5ostreamlsIA16_cEERS1_RKT_ = comdat any

$_ZN4cvc58internal11Cvc5ostreamlsINS0_12NodeTemplateILb1EEEEERS1_RKT_ = comdat any

$_ZN4cvc58internal11Cvc5ostreamlsEPFRSoS2_E = comdat any

$_ZN4cvc58internal12NodeTemplateILb0EEC2ERKNS1_ILb1EEE = comdat any

$_ZN4cvc58internal12NodeTemplateILb0EED2Ev = comdat any

$_ZN4cvc58internal11Cvc5ostreamlsIA20_cEERS1_RKT_ = comdat any

$_ZN4cvc58internal11Cvc5ostreamlsIA11_cEERS1_RKT_ = comdat any

$_ZN4cvc58internal11Cvc5ostreamlsIbEERS1_RKT_ = comdat any

$_ZNSt17_Rb_tree_iteratorISt4pairIKN4cvc58internal12NodeTemplateILb1EEES4_EEC2Ev = comdat any

$_ZNKSt6vectorIN4cvc58internal12NodeTemplateILb1EEESaIS3_EE4sizeEv = comdat any

$_ZNSt6vectorIN4cvc58internal12NodeTemplateILb1EEESaIS3_EEixEm = comdat any

$_ZNSt3mapIN4cvc58internal12NodeTemplateILb1EEES3_St4lessIS3_ESaISt4pairIKS3_S3_EEE4findERS7_ = comdat any

$_ZSteqRKSt17_Rb_tree_iteratorISt4pairIKN4cvc58internal12NodeTemplateILb1EEES4_EES9_ = comdat any

$_ZNSt3mapIN4cvc58internal12NodeTemplateILb1EEES3_St4lessIS3_ESaISt4pairIKS3_S3_EEE3endEv = comdat any

$_ZN4cvc58internal11Cvc5ostreamlsIA37_cEERS1_RKT_ = comdat any

$_ZNKSt17_Rb_tree_iteratorISt4pairIKN4cvc58internal12NodeTemplateILb1EEES4_EEptEv = comdat any

$_ZN4cvc58internal11Cvc5ostreamlsIA26_cEERS1_RKT_ = comdat any

$_ZNK4cvc58internal12NodeTemplateILb0EE7getKindEv = comdat any

$_ZNK4cvc58internal12NodeTemplateILb0EE7getTypeEb = comdat any

$_ZNK4cvc58internal8TypeNode10isFunctionEv = comdat any

$_ZNK4cvc58internal12NodeTemplateILb0EE5isVarEv = comdat any

$_ZNK4cvc58internal12NodeTemplateILb0EEixEi = comdat any

$_ZNK4cvc58internal8TypeNode14getNumChildrenEv = comdat any

$_ZNK4cvc58internal12NodeTemplateILb0EE9isClosureEv = comdat any

$_ZNSt8__detailneERKNS_19_Node_iterator_baseIN4cvc58internal12NodeTemplateILb1EEELb1EEES7_ = comdat any

$_ZNSt13unordered_setIN4cvc58internal12NodeTemplateILb1EEESt4hashIS3_ESt8equal_toIS3_ESaIS3_EE4findERKS3_ = comdat any

$_ZNSt13unordered_setIN4cvc58internal12NodeTemplateILb1EEESt4hashIS3_ESt8equal_toIS3_ESaIS3_EE3endEv = comdat any

$_ZN4cvc58internal12NodeTemplateILb0EEC2ERKS2_ = comdat any

$_ZN4cvc58internal6theory2eq14EqualityEngine7addTermENS0_12NodeTemplateILb0EEE = comdat any

$_ZN4cvc58internal12NodeTemplateILb0EE5beginEv = comdat any

$_ZNK4cvc58internal4expr9NodeValue8iteratorINS0_12NodeTemplateILb0EEEEneERKS6_ = comdat any

$_ZN4cvc58internal12NodeTemplateILb0EE3endEv = comdat any

$_ZNK4cvc58internal4expr9NodeValue8iteratorINS0_12NodeTemplateILb0EEEEdeEv = comdat any

$_ZN4cvc58internal4expr9NodeValue8iteratorINS0_12NodeTemplateILb0EEEEppEv = comdat any

$_ZNSt13unordered_setIN4cvc58internal12NodeTemplateILb1EEESt4hashIS3_ESt8equal_toIS3_ESaIS3_EE6insertEOS3_ = comdat any

$_ZNSt3mapIN4cvc58internal12NodeTemplateILb1EEES3_St4lessIS3_ESaISt4pairIKS3_S3_EEEixERS7_ = comdat any

$_ZN4cvc58internal11Cvc5ostreamlsIA5_cEERS1_RKT_ = comdat any

$_ZN4cvc58internal11Cvc5ostreamlsIA4_cEERS1_RKT_ = comdat any

$_ZN4cvc58internal11Cvc5ostreamlsIA36_cEERS1_RKT_ = comdat any

$_ZN4cvc58internal11Cvc5ostreamlsIA3_cEERS1_RKT_ = comdat any

$_ZNKSt3setIN4cvc58internal12NodeTemplateILb1EEESt4lessIS3_ESaIS3_EE5beginEv = comdat any

$_ZStneRKSt23_Rb_tree_const_iteratorIN4cvc58internal12NodeTemplateILb1EEEES6_ = comdat any

$_ZNKSt3setIN4cvc58internal12NodeTemplateILb1EEESt4lessIS3_ESaIS3_EE3endEv = comdat any

$_ZNKSt23_Rb_tree_const_iteratorIN4cvc58internal12NodeTemplateILb1EEEEdeEv = comdat any

$_ZN4cvc58internal11Cvc5ostreamlsIA9_cEERS1_RKT_ = comdat any

$_ZNSt23_Rb_tree_const_iteratorIN4cvc58internal12NodeTemplateILb1EEEEppEv = comdat any

$_ZNK4cvc58internal12NodeTemplateILb1EEeqILb1EEEbRKNS1_IXT_EEE = comdat any

$_ZNK4cvc58internal12NodeTemplateILb1EE7getKindEv = comdat any

$_ZNK4cvc58internal12NodeTemplateILb1EE11getOperatorEv = comdat any

$_ZNK4cvc58internal12NodeTemplateILb1EE14getNumChildrenEv = comdat any

$_ZNK4cvc58internal12NodeTemplateILb1EEixEi = comdat any

$_ZNK4cvc58internal8TypeNode7isArrayEv = comdat any

$_ZNK4cvc58internal8TypeNode17getArrayIndexTypeEv = comdat any

$_ZNK4cvc58internal8TypeNode23getArrayConstituentTypeEv = comdat any

$_ZNK4cvc58internal8TypeNode5isSetEv = comdat any

$_ZNK4cvc58internal8TypeNode17getSetElementTypeEv = comdat any

$_ZSteqRKSt17_Rb_tree_iteratorISt4pairIKN4cvc58internal12NodeTemplateILb1EEEbEES9_ = comdat any

$_ZNSt3mapIN4cvc58internal12NodeTemplateILb1EEEbSt4lessIS3_ESaISt4pairIKS3_bEEE4findERS7_ = comdat any

$_ZNSt3mapIN4cvc58internal12NodeTemplateILb1EEEbSt4lessIS3_ESaISt4pairIKS3_bEEE3endEv = comdat any

$_ZNSt3mapIN4cvc58internal12NodeTemplateILb1EEEbSt4lessIS3_ESaISt4pairIKS3_bEEEixERS7_ = comdat any

$_ZNK4cvc58internal12NodeTemplateILb1EE7getTypeEb = comdat any

$_ZN4cvc58internal11Cvc5ostreamlsIA27_cEERS1_RKT_ = comdat any

$_ZN4cvc58internal11Cvc5ostreamlsIA2_cEERS1_RKT_ = comdat any

$_ZN4cvc58internal11Cvc5ostreamlsINS0_8TypeNodeEEERS1_RKT_ = comdat any

$_ZNSt3mapIN4cvc58internal8TypeNodeEjSt4lessIS2_ESaISt4pairIKS2_jEEEixERS6_ = comdat any

$_ZN4cvc58internal11Cvc5ostreamlsIA18_cEERS1_RKT_ = comdat any

$_ZN4cvc58internal11Cvc5ostreamlsIjEERS1_RKT_ = comdat any

$_ZNK4cvc58internal12NodeTemplateILb1EE8getConstINS0_22UninterpretedSortValueEEERKT_v = comdat any

$_ZNK4cvc58internal22UninterpretedSortValue8getIndexEv = comdat any

$_ZN4cvc58internal11Cvc5ostreamlsIA12_cEERS1_RKT_ = comdat any

$_ZN9__gnu_cxxeqIPN4cvc58internal8TypeNodeESt6vectorIS3_SaIS3_EEEEbRKNS_17__normal_iteratorIT_T0_EESD_ = comdat any

$_ZSt4findIN9__gnu_cxx17__normal_iteratorIPN4cvc58internal8TypeNodeESt6vectorIS4_SaIS4_EEEES4_ET_SA_SA_RKT0_ = comdat any

$_ZNSt6vectorIN4cvc58internal8TypeNodeESaIS2_EE5beginEv = comdat any

$_ZNSt6vectorIN4cvc58internal8TypeNodeESaIS2_EE3endEv = comdat any

$_ZNSt8__detaileqERKNS_19_Node_iterator_baseIN4cvc58internal8TypeNodeELb1EEES6_ = comdat any

$_ZNSt13unordered_setIN4cvc58internal8TypeNodeESt4hashIS2_ESt8equal_toIS2_ESaIS2_EE4findERKS2_ = comdat any

$_ZNSt13unordered_setIN4cvc58internal8TypeNodeESt4hashIS2_ESt8equal_toIS2_ESaIS2_EE3endEv = comdat any

$_ZNSt13unordered_setIN4cvc58internal8TypeNodeESt4hashIS2_ESt8equal_toIS2_ESaIS2_EE6insertERKS2_ = comdat any

$_ZNSt6vectorIN4cvc58internal8TypeNodeESaIS2_EE9push_backERKS2_ = comdat any

$_ZN4cvc58internal11Cvc5ostreamlsIA52_cEERS1_RKT_ = comdat any

$_ZN4cvc58internal11Cvc5ostreamlsIA55_cEERS1_RKT_ = comdat any

$_ZN4cvc58internal11Cvc5ostreamlsIA114_cEERS1_RKT_ = comdat any

$_ZN4cvc58internal6theory24TypeEnumeratorPropertiesC2Ebj = comdat any

$_ZNSt3mapIN4cvc58internal12NodeTemplateILb1EEES3_St4lessIS3_ESaISt4pairIKS3_S3_EEE5clearEv = comdat any

$_ZN4cvc58internal6theory7TypeSetC2Ev = comdat any

$_ZNSt6vectorIN4cvc58internal8TypeNodeESaIS2_EEC2Ev = comdat any

$_ZNSt3mapIN4cvc58internal8TypeNodeEjSt4lessIS2_ESaISt4pairIKS2_jEEEC2Ev = comdat any

$_ZNSt13unordered_setIN4cvc58internal12NodeTemplateILb1EEESt4hashIS3_ESt8equal_toIS3_ESaIS3_EEC2Ev = comdat any

$_ZNSt3mapIN4cvc58internal12NodeTemplateILb1EEENS1_6theory24TheoryEngineModelBuilder8AssignerESt4lessIS3_ESaISt4pairIKS3_S6_EEEC2Ev = comdat any

$_ZNSt6vectorIN4cvc58internal12NodeTemplateILb1EEESaIS3_EEC2Ev = comdat any

$_ZN4cvc58internal11Cvc5ostreamlsIA22_cEERS1_RKT_ = comdat any

$_ZNK4cvc58internal12NodeTemplateILb1EE6isNullEv = comdat any

$_ZN4cvc58internal11Cvc5ostreamlsIA44_cEERS1_RKT_ = comdat any

$_ZNK4cvc58internal12NodeTemplateILb1EE6eqNodeILb1EEES2_RKNS1_IXT_EEE = comdat any

$_ZNK4cvc58internal12NodeTemplateILb1EE8getConstIbEERKT_v = comdat any

$_ZN4cvc58internal11Cvc5ostreamlsIA17_cEERS1_RKT_ = comdat any

$_ZN4cvc58internal11Cvc5ostreamlsIA6_cEERS1_RKT_ = comdat any

$_ZStneRKSt17_Rb_tree_iteratorISt4pairIKN4cvc58internal12NodeTemplateILb1EEES4_EES9_ = comdat any

$_ZNSt13unordered_setIN4cvc58internal8TypeNodeESt4hashIS2_ESt8equal_toIS2_ESaIS2_EEC2Ev = comdat any

$_ZNSt13unordered_setIN4cvc58internal8TypeNodeESt4hashIS2_ESt8equal_toIS2_ESaIS2_EED2Ev = comdat any

$_ZNSt13unordered_setIN4cvc58internal12NodeTemplateILb1EEESt4hashIS3_ESt8equal_toIS3_ESaIS3_EE6insertERKS3_ = comdat any

$_ZNSt3mapIN4cvc58internal12NodeTemplateILb1EEENS1_6theory24TheoryEngineModelBuilder8AssignerESt4lessIS3_ESaISt4pairIKS3_S6_EEEixERSA_ = comdat any

$_ZN9__gnu_cxxneIPN4cvc58internal12NodeTemplateILb1EEESt6vectorIS4_SaIS4_EEEEbRKNS_17__normal_iteratorIT_T0_EESE_ = comdat any

$_ZNK9__gnu_cxx17__normal_iteratorIPN4cvc58internal12NodeTemplateILb1EEESt6vectorIS4_SaIS4_EEEdeEv = comdat any

$_ZNSt6vectorIN4cvc58internal12NodeTemplateILb1EEESaIS3_EE9push_backERKS3_ = comdat any

$_ZN9__gnu_cxx17__normal_iteratorIPN4cvc58internal12NodeTemplateILb1EEESt6vectorIS4_SaIS4_EEEppEv = comdat any

$_ZNK4cvc58internal12NodeTemplateILb1EEneILb1EEEbRKNS1_IXT_EEE = comdat any

$_ZNSt6vectorIN4cvc58internal12NodeTemplateILb1EEESaIS3_EED2Ev = comdat any

$_ZNSt3mapIN4cvc58internal8TypeNodeEjSt4lessIS2_ESaISt4pairIKS2_jEEE5beginEv = comdat any

$_ZStneRKSt17_Rb_tree_iteratorISt4pairIKN4cvc58internal8TypeNodeEjEES8_ = comdat any

$_ZNSt3mapIN4cvc58internal8TypeNodeEjSt4lessIS2_ESaISt4pairIKS2_jEEE3endEv = comdat any

$_ZN4cvc58internal11Cvc5ostreamlsIA24_cEERS1_RKT_ = comdat any

$_ZNKSt17_Rb_tree_iteratorISt4pairIKN4cvc58internal8TypeNodeEjEEptEv = comdat any

$_ZN4cvc58internal7IntegerC2Ej = comdat any

$_ZNSt3mapIN4cvc58internal8TypeNodeENS1_7IntegerESt4lessIS2_ESaISt4pairIKS2_S3_EEEixERS7_ = comdat any

$_ZN4cvc58internal7IntegerD2Ev = comdat any

$_ZNSt17_Rb_tree_iteratorISt4pairIKN4cvc58internal8TypeNodeEjEEppEv = comdat any

$_ZN4cvc58internal11Cvc5ostreamlsIA19_cEERS1_RKT_ = comdat any

$_ZNSt8__detail14_Node_iteratorISt4pairIKN4cvc58internal8TypeNodeEPSt3setINS3_12NodeTemplateILb1EEESt4lessIS8_ESaIS8_EEELb0ELb1EEC2Ev = comdat any

$_ZN9__gnu_cxx17__normal_iteratorIPN4cvc58internal8TypeNodeESt6vectorIS3_SaIS3_EEEC2Ev = comdat any

$_ZNSt23_Rb_tree_const_iteratorIN4cvc58internal12NodeTemplateILb1EEEEC2Ev = comdat any

$_ZNSt3setIN4cvc58internal8TypeNodeESt4lessIS2_ESaIS2_EEC2Ev = comdat any

$_ZNSt3setIN4cvc58internal8TypeNodeESt4lessIS2_ESaIS2_EE5clearEv = comdat any

$_ZN9__gnu_cxxneIPN4cvc58internal8TypeNodeESt6vectorIS3_SaIS3_EEEEbRKNS_17__normal_iteratorIT_T0_EESD_ = comdat any

$_ZNK9__gnu_cxx17__normal_iteratorIPN4cvc58internal8TypeNodeESt6vectorIS3_SaIS3_EEEdeEv = comdat any

$_ZNKSt3setIN4cvc58internal12NodeTemplateILb1EEESt4lessIS3_ESaIS3_EE5emptyEv = comdat any

$_ZN4cvc58internal11Cvc5ostreamlsIA32_cEERS1_RKT_ = comdat any

$_ZNSt13unordered_mapIN4cvc58internal12NodeTemplateILb1EEES3_St4hashIS3_ESt8equal_toIS3_ESaISt4pairIKS3_S3_EEE5clearEv = comdat any

$_ZN4cvc58internal11Cvc5ostreamlsIA15_cEERS1_RKT_ = comdat any

$_ZN4cvc58internal11Cvc5ostreamlsIA35_cEERS1_RKT_ = comdat any

$_ZNSt3setIN4cvc58internal12NodeTemplateILb1EEESt4lessIS3_ESaIS3_EE5eraseB5cxx11ESt23_Rb_tree_const_iteratorIS3_E = comdat any

$_ZNSt3setIN4cvc58internal8TypeNodeESt4lessIS2_ESaIS2_EE6insertERKS2_ = comdat any

$_ZN4cvc58internal11Cvc5ostreamlsIA41_cEERS1_RKT_ = comdat any

$_ZNSt3mapIN4cvc58internal12NodeTemplateILb1EEES3_St4lessIS3_ESaISt4pairIKS3_S3_EEE5eraseERS7_ = comdat any

$_ZN9__gnu_cxx17__normal_iteratorIPN4cvc58internal8TypeNodeESt6vectorIS3_SaIS3_EEEppEv = comdat any

$_ZStneRKSt23_Rb_tree_const_iteratorIN4cvc58internal8TypeNodeEES5_ = comdat any

$_ZNSt3setIN4cvc58internal8TypeNodeESt4lessIS2_ESaIS2_EE4findERKS2_ = comdat any

$_ZNKSt3setIN4cvc58internal8TypeNodeESt4lessIS2_ESaIS2_EE3endEv = comdat any

$_ZN4cvc58internal11Cvc5ostreamlsIA34_cEERS1_RKT_ = comdat any

$_ZNSt17_Rb_tree_iteratorISt4pairIKN4cvc58internal12NodeTemplateILb1EEENS2_6theory24TheoryEngineModelBuilder8AssignerEEEC2Ev = comdat any

$_ZNSt3mapIN4cvc58internal12NodeTemplateILb1EEENS1_6theory24TheoryEngineModelBuilder8AssignerESt4lessIS3_ESaISt4pairIKS3_S6_EEE4findERSA_ = comdat any

$_ZStneRKSt17_Rb_tree_iteratorISt4pairIKN4cvc58internal12NodeTemplateILb1EEENS2_6theory24TheoryEngineModelBuilder8AssignerEEESC_ = comdat any

$_ZNSt3mapIN4cvc58internal12NodeTemplateILb1EEENS1_6theory24TheoryEngineModelBuilder8AssignerESt4lessIS3_ESaISt4pairIKS3_S6_EEE3endEv = comdat any

$_ZNKSt17_Rb_tree_iteratorISt4pairIKN4cvc58internal12NodeTemplateILb1EEENS2_6theory24TheoryEngineModelBuilder8AssignerEEEptEv = comdat any

$_ZN4cvc58internal11Cvc5ostreamlsIA13_cEERS1_RKT_ = comdat any

$_ZN4cvc58internal11Cvc5ostreamlsIA43_cEERS1_RKT_ = comdat any

$_ZN4cvc58internal11Cvc5ostreamlsIA21_cEERS1_RKT_ = comdat any

$_ZN4cvc58internal11Cvc5ostreamlsIA48_cEERS1_RKT_ = comdat any

$_ZN4cvc58internal6theory14TypeEnumeratorD2Ev = comdat any

$_ZN4cvc58internal11Cvc5ostreamlsIA8_cEERS1_RKT_ = comdat any

$_ZN4cvc58internal11Cvc5ostreamlsIA33_cEERS1_RKT_ = comdat any

$_ZNSt3mapIN4cvc58internal12NodeTemplateILb1EEES3_St4lessIS3_ESaISt4pairIKS3_S3_EEE5beginEv = comdat any

$_ZNSt17_Rb_tree_iteratorISt4pairIKN4cvc58internal12NodeTemplateILb1EEES4_EEppEv = comdat any

$_ZN4cvc58internal6theory7TypeSet5beginEv = comdat any

$_ZNSt8__detailneERKNS_19_Node_iterator_baseISt4pairIKN4cvc58internal8TypeNodeEPSt3setINS3_12NodeTemplateILb1EEESt4lessIS8_ESaIS8_EEELb1EEESH_ = comdat any

$_ZN4cvc58internal6theory7TypeSet3endEv = comdat any

$_ZN4cvc58internal6theory7TypeSet6getSetENSt8__detail14_Node_iteratorISt4pairIKNS0_8TypeNodeEPSt3setINS0_12NodeTemplateILb1EEESt4lessISA_ESaISA_EEELb0ELb1EEE = comdat any

$_ZNSt8__detail14_Node_iteratorISt4pairIKN4cvc58internal8TypeNodeEPSt3setINS3_12NodeTemplateILb1EEESt4lessIS8_ESaIS8_EEELb0ELb1EEppEv = comdat any

$_ZNSt3setIN4cvc58internal8TypeNodeESt4lessIS2_ESaIS2_EED2Ev = comdat any

$_ZNSt13unordered_setIN4cvc58internal12NodeTemplateILb1EEESt4hashIS3_ESt8equal_toIS3_ESaIS3_EED2Ev = comdat any

$_ZNSt3mapIN4cvc58internal12NodeTemplateILb1EEES3_St4lessIS3_ESaISt4pairIKS3_S3_EEED2Ev = comdat any

$_ZNSt3mapIN4cvc58internal12NodeTemplateILb1EEENS1_6theory24TheoryEngineModelBuilder8AssignerESt4lessIS3_ESaISt4pairIKS3_S6_EEED2Ev = comdat any

$_ZNSt3mapIN4cvc58internal8TypeNodeEjSt4lessIS2_ESaISt4pairIKS2_jEEED2Ev = comdat any

$_ZNSt6vectorIN4cvc58internal8TypeNodeESaIS2_EED2Ev = comdat any

$_ZN4cvc58internal6theory24TypeEnumeratorPropertiesD2Ev = comdat any

$_ZNK4cvc58internal8TypeNode9isBooleanEv = comdat any

$_ZN4cvc58internal13OstreamVoiderC2Ev = comdat any

$_ZN4cvc58internal13OstreamVoideranERSo = comdat any

$_ZNK4cvc58internal8TypeNodeeqERKS1_ = comdat any

$_ZN4cvc58internallsERSoRKNS0_8TypeNodeE = comdat any

$_ZN4cvc58internallsERSoNS0_12NodeTemplateILb0EEE = comdat any

$_ZNKSt17_Rb_tree_iteratorISt4pairIKN4cvc58internal12NodeTemplateILb1EEES4_EEdeEv = comdat any

$_ZNSt13unordered_mapIN4cvc58internal12NodeTemplateILb1EEES3_St4hashIS3_ESt8equal_toIS3_ESaISt4pairIKS3_S3_EEE4findERS9_ = comdat any

$_ZNSt8__detailneERKNS_19_Node_iterator_baseISt4pairIKN4cvc58internal12NodeTemplateILb1EEES5_ELb1EEESA_ = comdat any

$_ZNSt13unordered_mapIN4cvc58internal12NodeTemplateILb1EEES3_St4hashIS3_ESt8equal_toIS3_ESaISt4pairIKS3_S3_EEE3endEv = comdat any

$_ZNKSt8__detail14_Node_iteratorISt4pairIKN4cvc58internal12NodeTemplateILb1EEES5_ELb0ELb1EEdeEv = comdat any

$_ZN4cvc58internal11Cvc5ostreamlsINS0_12NodeTemplateILb0EEEEERS1_RKT_ = comdat any

$_ZNK4cvc58internal12NodeTemplateILb0EE14getNumChildrenEv = comdat any

$_ZNK4cvc58internal12NodeTemplateILb0EE11getMetaKindEv = comdat any

$_ZNSt6vectorIN4cvc58internal12NodeTemplateILb1EEESaIS3_EE9push_backEOS3_ = comdat any

$_ZNK4cvc58internal12NodeTemplateILb0EE11getOperatorEv = comdat any

$_ZN4cvc58internal11Cvc5ostreamlsImEERS1_RKT_ = comdat any

$_ZN4cvc58internal11Cvc5ostreamlsIA14_cEERS1_RKT_ = comdat any

$_ZN4cvc58internal11NodeManager6mkNodeILb1EEENS0_12NodeTemplateILb1EEENS0_4kind6Kind_tERKSt6vectorINS3_IXT_EEESaIS8_EE = comdat any

$_ZNSt13unordered_mapIN4cvc58internal12NodeTemplateILb1EEES3_St4hashIS3_ESt8equal_toIS3_ESaISt4pairIKS3_S3_EEEixEOS3_ = comdat any

$_ZN4cvc58internal6theory2uf11UfModelTreeC2ENS0_12NodeTemplateILb1EEE = comdat any

$_ZNSt3mapIN4cvc58internal12NodeTemplateILb1EEESt6vectorIS3_SaIS3_EESt4lessIS3_ESaISt4pairIKS3_S6_EEEixERSA_ = comdat any

$_ZNSt6vectorIN4cvc58internal12NodeTemplateILb0EEESaIS3_EEC2Ev = comdat any

$_ZNSt6vectorIN4cvc58internal12NodeTemplateILb0EEESaIS3_EE9push_backEOS3_ = comdat any

$_ZN4cvc58internal11NodeManager6mkNodeILb0EEENS0_12NodeTemplateILb1EEENS0_4kind6Kind_tERKSt6vectorINS3_IXT_EEESaIS8_EE = comdat any

$_ZN4cvc58internal11Cvc5ostreamlsIA7_cEERS1_RKT_ = comdat any

$_ZN4cvc58internal6theory2uf11UfModelTree8setValueEPNS1_11TheoryModelENS0_12NodeTemplateILb1EEES7_b = comdat any

$_ZNSt6vectorIN4cvc58internal12NodeTemplateILb0EEESaIS3_EED2Ev = comdat any

$_ZN4cvc58internal6theory2uf11UfModelTree15setDefaultValueEPNS1_11TheoryModelENS0_12NodeTemplateILb1EEE = comdat any

$_ZN4cvc58internal6theory2uf11UfModelTree8simplifyEv = comdat any

$_ZN4cvc58internal11Cvc5ostreamlsIA23_cEERS1_RKT_ = comdat any

$_ZN4cvc58internal6theory2uf11UfModelTreeD2Ev = comdat any

$_ZNKSt6vectorIN4cvc58internal8TypeNodeESaIS2_EE4sizeEv = comdat any

$_ZNSt6vectorIN4cvc58internal8TypeNodeESaIS2_EEixEm = comdat any

$_ZNSt3mapIN4cvc58internal12NodeTemplateILb1EEESt6vectorIS3_SaIS3_EESt4lessIS3_ESaISt4pairIKS3_S6_EEE4findERSA_ = comdat any

$_ZStneRKSt17_Rb_tree_iteratorISt4pairIKN4cvc58internal12NodeTemplateILb1EEESt6vectorIS4_SaIS4_EEEESC_ = comdat any

$_ZNSt3mapIN4cvc58internal12NodeTemplateILb1EEESt6vectorIS3_SaIS3_EESt4lessIS3_ESaISt4pairIKS3_S6_EEE3endEv = comdat any

$_ZNKSt17_Rb_tree_iteratorISt4pairIKN4cvc58internal12NodeTemplateILb1EEESt6vectorIS4_SaIS4_EEEEptEv = comdat any

$_ZNKSt6vectorIN4cvc58internal12NodeTemplateILb0EEESaIS3_EE5emptyEv = comdat any

$_ZNK4cvc58internal12NodeTemplateILb1EE10substituteIN9__gnu_cxx17__normal_iteratorIPNS1_ILb0EEESt6vectorIS6_SaIS6_EEEESB_EES2_T_SC_T0_SD_ = comdat any

$_ZNSt6vectorIN4cvc58internal12NodeTemplateILb0EEESaIS3_EE5beginEv = comdat any

$_ZNSt6vectorIN4cvc58internal12NodeTemplateILb0EEESaIS3_EE3endEv = comdat any

$_ZN4cvc58internal11NodeManager6mkNodeENS0_4kind6Kind_tENS0_12NodeTemplateILb0EEES5_S5_ = comdat any

$_ZN4cvc58internal11NodeManager6mkNodeENS0_4kind6Kind_tENS0_12NodeTemplateILb0EEES5_ = comdat any

$_ZN4cvc58internal11Cvc5ostreamlsIA29_cEERS1_RKT_ = comdat any

$_ZN4cvc58internal12SortTypeSizeC2Ev = comdat any

$_ZSt4sortIN9__gnu_cxx17__normal_iteratorIPN4cvc58internal12NodeTemplateILb1EEESt6vectorIS5_SaIS5_EEEENS3_12SortTypeSizeEEvT_SC_T0_ = comdat any

$_ZN4cvc58internal12SortTypeSizeC2ERKS1_ = comdat any

$_ZN4cvc58internal12SortTypeSizeD2Ev = comdat any

$_ZNK4cvc58internal6TraceC4isOnERKNSt7__cxx1112basic_stringIcSt11char_traitsIcESaIcEEE = comdat any

$_ZNSt7__cxx1112basic_stringIcSt11char_traitsIcESaIcEEC2IS3_EEPKcRKS3_ = comdat any

$_ZN4cvc58internal6theory24TheoryEngineModelBuilderD2Ev = comdat any

$_ZN4cvc58internal6theory24TheoryEngineModelBuilderD0Ev = comdat any

$_ZN4cvc58internal6theory24TheoryEngineModelBuilder10debugModelEPNS1_11TheoryModelE = comdat any

$_ZN4cvc58internal12NodeTemplateILb1EE6s_nullE = comdat any

$_ZN4cvc58internal4expr9NodeValue4nullEv = comdat any

$_ZN4cvc58internal12NodeTemplateILb1EEC2EPKNS0_4expr9NodeValueE = comdat any

$_ZNSt10_HashtableIN4cvc58internal12NodeTemplateILb1EEESt4pairIKS3_S3_ESaIS6_ENSt8__detail10_Select1stESt8equal_toIS3_ESt4hashIS3_ENS8_18_Mod_range_hashingENS8_20_Default_ranged_hashENS8_20_Prime_rehash_policyENS8_17_Hashtable_traitsILb1ELb0ELb1EEEEC2Ev = comdat any

$_ZNSt8__detail15_Hashtable_baseIN4cvc58internal12NodeTemplateILb1EEESt4pairIKS4_S4_ENS_10_Select1stESt8equal_toIS4_ESt4hashIS4_ENS_18_Mod_range_hashingENS_20_Default_ranged_hashENS_17_Hashtable_traitsILb1ELb0ELb1EEEEC2Ev = comdat any

$_ZNSt8__detail16_Hashtable_allocISaINS_10_Hash_nodeISt4pairIKN4cvc58internal12NodeTemplateILb1EEES6_ELb1EEEEEC2Ev = comdat any

$_ZNSt8__detail15_Hash_node_baseC2Ev = comdat any

$_ZNSt8__detail20_Prime_rehash_policyC2Ef = comdat any

$_ZNSt8__detail15_Hash_code_baseIN4cvc58internal12NodeTemplateILb1EEESt4pairIKS4_S4_ENS_10_Select1stESt4hashIS4_ENS_18_Mod_range_hashingENS_20_Default_ranged_hashELb1EEC2Ev = comdat any

$_ZNSt8__detail21_Hashtable_ebo_helperILi0ESt8equal_toIN4cvc58internal12NodeTemplateILb1EEEELb1EEC2Ev = comdat any

$_ZNSt8__detail21_Hashtable_ebo_helperILi1ESt4hashIN4cvc58internal12NodeTemplateILb1EEEELb1EEC2Ev = comdat any

$_ZNSt8__detail21_Hashtable_ebo_helperILi0ESaINS_10_Hash_nodeISt4pairIKN4cvc58internal12NodeTemplateILb1EEES6_ELb1EEEELb1EEC2Ev = comdat any

$_ZNSaINSt8__detail10_Hash_nodeISt4pairIKN4cvc58internal12NodeTemplateILb1EEES5_ELb1EEEEC2Ev = comdat any

$_ZNSt15__new_allocatorINSt8__detail10_Hash_nodeISt4pairIKN4cvc58internal12NodeTemplateILb1EEES6_ELb1EEEEC2Ev = comdat any

$_ZNSt8_Rb_treeIN4cvc58internal12NodeTemplateILb1EEESt4pairIKS3_S3_ESt10_Select1stIS6_ESt4lessIS3_ESaIS6_EEC2Ev = comdat any

$_ZNSt8_Rb_treeIN4cvc58internal12NodeTemplateILb1EEESt4pairIKS3_S3_ESt10_Select1stIS6_ESt4lessIS3_ESaIS6_EE13_Rb_tree_implISA_Lb1EEC2Ev = comdat any

$_ZNSaISt13_Rb_tree_nodeISt4pairIKN4cvc58internal12NodeTemplateILb1EEES4_EEEC2Ev = comdat any

$_ZNSt20_Rb_tree_key_compareISt4lessIN4cvc58internal12NodeTemplateILb1EEEEEC2Ev = comdat any

$_ZNSt15_Rb_tree_headerC2Ev = comdat any

$_ZNSt15__new_allocatorISt13_Rb_tree_nodeISt4pairIKN4cvc58internal12NodeTemplateILb1EEES5_EEEC2Ev = comdat any

$_ZNSt15_Rb_tree_header8_M_resetEv = comdat any

$__clang_call_terminate = comdat any

$_ZN4cvc58internal4expr9NodeValue3incEv = comdat any

$_ZN4cvc58internal4expr9NodeValue3decEv = comdat any

$_ZN4cvc58internal11Cvc5ostreamC2Ev = comdat any

$_ZN4cvc58internal11Cvc5ostreamC2EPSo = comdat any

$_ZNK4cvc58internal8TypeNode7getKindEv = comdat any

$_ZNK4cvc58internal4expr9NodeValue14getNumChildrenEv = comdat any

$_ZNK4cvc58internal4expr9NodeValue11getMetaKindEv = comdat any

$_ZNK4cvc58internal4expr9NodeValue7getKindEv = comdat any

$_ZN4cvc58internal4expr9NodeValue11dKindToKindEj = comdat any

$_ZNK4cvc58internal8TypeNodeixEi = comdat any

$_ZNK4cvc58internal4expr9NodeValue8getChildEi = comdat any

$_ZN4cvc58internal8TypeNodeC2EPKNS0_4expr9NodeValueE = comdat any

$_ZNSt3mapIN4cvc58internal8TypeNodeENS1_7IntegerESt4lessIS2_ESaISt4pairIKS2_S3_EEEC2Ev = comdat any

$_ZNSt8_Rb_treeIN4cvc58internal8TypeNodeESt4pairIKS2_NS1_7IntegerEESt10_Select1stIS6_ESt4lessIS2_ESaIS6_EEC2Ev = comdat any

$_ZNSt8_Rb_treeIN4cvc58internal8TypeNodeESt4pairIKS2_NS1_7IntegerEESt10_Select1stIS6_ESt4lessIS2_ESaIS6_EE13_Rb_tree_implISA_Lb1EEC2Ev = comdat any

$_ZNSaISt13_Rb_tree_nodeISt4pairIKN4cvc58internal8TypeNodeENS2_7IntegerEEEEC2Ev = comdat any

$_ZNSt20_Rb_tree_key_compareISt4lessIN4cvc58internal8TypeNodeEEEC2Ev = comdat any

$_ZNSt15__new_allocatorISt13_Rb_tree_nodeISt4pairIKN4cvc58internal8TypeNodeENS3_7IntegerEEEEC2Ev = comdat any

$_ZNSt13unordered_mapIN4cvc58internal8TypeNodeEPSt3setINS1_12NodeTemplateILb1EEESt4lessIS5_ESaIS5_EESt4hashIS2_ESt8equal_toIS2_ESaISt4pairIKS2_SA_EEEC2Ev = comdat any

$_ZNSt13unordered_mapIN4cvc58internal8TypeNodeEPNS1_6theory14TypeEnumeratorESt4hashIS2_ESt8equal_toIS2_ESaISt4pairIKS2_S5_EEEC2Ev = comdat any

$_ZNSt10_HashtableIN4cvc58internal8TypeNodeESt4pairIKS2_PSt3setINS1_12NodeTemplateILb1EEESt4lessIS7_ESaIS7_EEESaISD_ENSt8__detail10_Select1stESt8equal_toIS2_ESt4hashIS2_ENSF_18_Mod_range_hashingENSF_20_Default_ranged_hashENSF_20_Prime_rehash_policyENSF_17_Hashtable_traitsILb1ELb0ELb1EEEEC2Ev = comdat any

$_ZNSt8__detail15_Hashtable_baseIN4cvc58internal8TypeNodeESt4pairIKS3_PSt3setINS2_12NodeTemplateILb1EEESt4lessIS8_ESaIS8_EEENS_10_Select1stESt8equal_toIS3_ESt4hashIS3_ENS_18_Mod_range_hashingENS_20_Default_ranged_hashENS_17_Hashtable_traitsILb1ELb0ELb1EEEEC2Ev = comdat any

$_ZNSt8__detail16_Hashtable_allocISaINS_10_Hash_nodeISt4pairIKN4cvc58internal8TypeNodeEPSt3setINS4_12NodeTemplateILb1EEESt4lessIS9_ESaIS9_EEELb1EEEEEC2Ev = comdat any

$_ZNSt8__detail15_Hash_code_baseIN4cvc58internal8TypeNodeESt4pairIKS3_PSt3setINS2_12NodeTemplateILb1EEESt4lessIS8_ESaIS8_EEENS_10_Select1stESt4hashIS3_ENS_18_Mod_range_hashingENS_20_Default_ranged_hashELb1EEC2Ev = comdat any

$_ZNSt8__detail21_Hashtable_ebo_helperILi0ESt8equal_toIN4cvc58internal8TypeNodeEELb1EEC2Ev = comdat any

$_ZNSt8__detail21_Hashtable_ebo_helperILi1ESt4hashIN4cvc58internal8TypeNodeEELb1EEC2Ev = comdat any

$_ZNSt8__detail21_Hashtable_ebo_helperILi0ESaINS_10_Hash_nodeISt4pairIKN4cvc58internal8TypeNodeEPSt3setINS4_12NodeTemplateILb1EEESt4lessIS9_ESaIS9_EEELb1EEEELb1EEC2Ev = comdat any

$_ZNSaINSt8__detail10_Hash_nodeISt4pairIKN4cvc58internal8TypeNodeEPSt3setINS3_12NodeTemplateILb1EEESt4lessIS8_ESaIS8_EEELb1EEEEC2Ev = comdat any

$_ZNSt15__new_allocatorINSt8__detail10_Hash_nodeISt4pairIKN4cvc58internal8TypeNodeEPSt3setINS4_12NodeTemplateILb1EEESt4lessIS9_ESaIS9_EEELb1EEEEC2Ev = comdat any

$_ZNSt10_HashtableIN4cvc58internal8TypeNodeESt4pairIKS2_PNS1_6theory14TypeEnumeratorEESaIS8_ENSt8__detail10_Select1stESt8equal_toIS2_ESt4hashIS2_ENSA_18_Mod_range_hashingENSA_20_Default_ranged_hashENSA_20_Prime_rehash_policyENSA_17_Hashtable_traitsILb1ELb0ELb1EEEEC2Ev = comdat any

$_ZNSt8__detail15_Hashtable_baseIN4cvc58internal8TypeNodeESt4pairIKS3_PNS2_6theory14TypeEnumeratorEENS_10_Select1stESt8equal_toIS3_ESt4hashIS3_ENS_18_Mod_range_hashingENS_20_Default_ranged_hashENS_17_Hashtable_traitsILb1ELb0ELb1EEEEC2Ev = comdat any

$_ZNSt8__detail16_Hashtable_allocISaINS_10_Hash_nodeISt4pairIKN4cvc58internal8TypeNodeEPNS4_6theory14TypeEnumeratorEELb1EEEEEC2Ev = comdat any

$_ZNSt8__detail15_Hash_code_baseIN4cvc58internal8TypeNodeESt4pairIKS3_PNS2_6theory14TypeEnumeratorEENS_10_Select1stESt4hashIS3_ENS_18_Mod_range_hashingENS_20_Default_ranged_hashELb1EEC2Ev = comdat any

$_ZNSt8__detail21_Hashtable_ebo_helperILi0ESaINS_10_Hash_nodeISt4pairIKN4cvc58internal8TypeNodeEPNS4_6theory14TypeEnumeratorEELb1EEEELb1EEC2Ev = comdat any

$_ZNSaINSt8__detail10_Hash_nodeISt4pairIKN4cvc58internal8TypeNodeEPNS3_6theory14TypeEnumeratorEELb1EEEEC2Ev = comdat any

$_ZNSt15__new_allocatorINSt8__detail10_Hash_nodeISt4pairIKN4cvc58internal8TypeNodeEPNS4_6theory14TypeEnumeratorEELb1EEEEC2Ev = comdat any

$_ZNSt12_Vector_baseIN4cvc58internal8TypeNodeESaIS2_EEC2Ev = comdat any

$_ZNSt12_Vector_baseIN4cvc58internal8TypeNodeESaIS2_EE12_Vector_implC2Ev = comdat any

$_ZNSaIN4cvc58internal8TypeNodeEEC2Ev = comdat any

$_ZNSt12_Vector_baseIN4cvc58internal8TypeNodeESaIS2_EE17_Vector_impl_dataC2Ev = comdat any

$_ZNSt15__new_allocatorIN4cvc58internal8TypeNodeEEC2Ev = comdat any

$_ZNSt8_Rb_treeIN4cvc58internal8TypeNodeESt4pairIKS2_jESt10_Select1stIS5_ESt4lessIS2_ESaIS5_EEC2Ev = comdat any

$_ZNSt8_Rb_treeIN4cvc58internal8TypeNodeESt4pairIKS2_jESt10_Select1stIS5_ESt4lessIS2_ESaIS5_EE13_Rb_tree_implIS9_Lb1EEC2Ev = comdat any

$_ZNSaISt13_Rb_tree_nodeISt4pairIKN4cvc58internal8TypeNodeEjEEEC2Ev = comdat any

$_ZNSt15__new_allocatorISt13_Rb_tree_nodeISt4pairIKN4cvc58internal8TypeNodeEjEEEC2Ev = comdat any

$_ZNSt10_HashtableIN4cvc58internal12NodeTemplateILb1EEES3_SaIS3_ENSt8__detail9_IdentityESt8equal_toIS3_ESt4hashIS3_ENS5_18_Mod_range_hashingENS5_20_Default_ranged_hashENS5_20_Prime_rehash_policyENS5_17_Hashtable_traitsILb1ELb1ELb1EEEEC2Ev = comdat any

$_ZNSt8__detail15_Hashtable_baseIN4cvc58internal12NodeTemplateILb1EEES4_NS_9_IdentityESt8equal_toIS4_ESt4hashIS4_ENS_18_Mod_range_hashingENS_20_Default_ranged_hashENS_17_Hashtable_traitsILb1ELb1ELb1EEEEC2Ev = comdat any

$_ZNSt8__detail16_Hashtable_allocISaINS_10_Hash_nodeIN4cvc58internal12NodeTemplateILb1EEELb1EEEEEC2Ev = comdat any

$_ZNSt8__detail15_Hash_code_baseIN4cvc58internal12NodeTemplateILb1EEES4_NS_9_IdentityESt4hashIS4_ENS_18_Mod_range_hashingENS_20_Default_ranged_hashELb1EEC2Ev = comdat any

$_ZNSt8__detail21_Hashtable_ebo_helperILi0ESaINS_10_Hash_nodeIN4cvc58internal12NodeTemplateILb1EEELb1EEEELb1EEC2Ev = comdat any

$_ZNSaINSt8__detail10_Hash_nodeIN4cvc58internal12NodeTemplateILb1EEELb1EEEEC2Ev = comdat any

$_ZNSt15__new_allocatorINSt8__detail10_Hash_nodeIN4cvc58internal12NodeTemplateILb1EEELb1EEEEC2Ev = comdat any

$_ZNSt8_Rb_treeIN4cvc58internal12NodeTemplateILb1EEESt4pairIKS3_NS1_6theory24TheoryEngineModelBuilder8AssignerEESt10_Select1stIS9_ESt4lessIS3_ESaIS9_EEC2Ev = comdat any

$_ZNSt8_Rb_treeIN4cvc58internal12NodeTemplateILb1EEESt4pairIKS3_NS1_6theory24TheoryEngineModelBuilder8AssignerEESt10_Select1stIS9_ESt4lessIS3_ESaIS9_EE13_Rb_tree_implISD_Lb1EEC2Ev = comdat any

$_ZNSaISt13_Rb_tree_nodeISt4pairIKN4cvc58internal12NodeTemplateILb1EEENS2_6theory24TheoryEngineModelBuilder8AssignerEEEEC2Ev = comdat any

$_ZNSt15__new_allocatorISt13_Rb_tree_nodeISt4pairIKN4cvc58internal12NodeTemplateILb1EEENS3_6theory24TheoryEngineModelBuilder8AssignerEEEEC2Ev = comdat any

$_ZNSt12_Vector_baseIN4cvc58internal12NodeTemplateILb1EEESaIS3_EEC2Ev = comdat any

$_ZNSt12_Vector_baseIN4cvc58internal12NodeTemplateILb1EEESaIS3_EE12_Vector_implC2Ev = comdat any

$_ZNSaIN4cvc58internal12NodeTemplateILb1EEEEC2Ev = comdat any

$_ZNSt12_Vector_baseIN4cvc58internal12NodeTemplateILb1EEESaIS3_EE17_Vector_impl_dataC2Ev = comdat any

$_ZNSt15__new_allocatorIN4cvc58internal12NodeTemplateILb1EEEEC2Ev = comdat any

$_ZNSt10_HashtableIN4cvc58internal8TypeNodeES2_SaIS2_ENSt8__detail9_IdentityESt8equal_toIS2_ESt4hashIS2_ENS4_18_Mod_range_hashingENS4_20_Default_ranged_hashENS4_20_Prime_rehash_policyENS4_17_Hashtable_traitsILb1ELb1ELb1EEEEC2Ev = comdat any

$_ZNSt8__detail15_Hashtable_baseIN4cvc58internal8TypeNodeES3_NS_9_IdentityESt8equal_toIS3_ESt4hashIS3_ENS_18_Mod_range_hashingENS_20_Default_ranged_hashENS_17_Hashtable_traitsILb1ELb1ELb1EEEEC2Ev = comdat any

$_ZNSt8__detail16_Hashtable_allocISaINS_10_Hash_nodeIN4cvc58internal8TypeNodeELb1EEEEEC2Ev = comdat any

$_ZNSt8__detail15_Hash_code_baseIN4cvc58internal8TypeNodeES3_NS_9_IdentityESt4hashIS3_ENS_18_Mod_range_hashingENS_20_Default_ranged_hashELb1EEC2Ev = comdat any

$_ZNSt8__detail21_Hashtable_ebo_helperILi0ESaINS_10_Hash_nodeIN4cvc58internal8TypeNodeELb1EEEELb1EEC2Ev = comdat any

$_ZNSaINSt8__detail10_Hash_nodeIN4cvc58internal8TypeNodeELb1EEEEC2Ev = comdat any

$_ZNSt15__new_allocatorINSt8__detail10_Hash_nodeIN4cvc58internal8TypeNodeELb1EEEEC2Ev = comdat any

$_ZNSt10_HashtableIN4cvc58internal8TypeNodeES2_SaIS2_ENSt8__detail9_IdentityESt8equal_toIS2_ESt4hashIS2_ENS4_18_Mod_range_hashingENS4_20_Default_ranged_hashENS4_20_Prime_rehash_policyENS4_17_Hashtable_traitsILb1ELb1ELb1EEEED2Ev = comdat any

$_ZNSt10_HashtableIN4cvc58internal8TypeNodeES2_SaIS2_ENSt8__detail9_IdentityESt8equal_toIS2_ESt4hashIS2_ENS4_18_Mod_range_hashingENS4_20_Default_ranged_hashENS4_20_Prime_rehash_policyENS4_17_Hashtable_traitsILb1ELb1ELb1EEEE5clearEv = comdat any

$_ZNSt10_HashtableIN4cvc58internal8TypeNodeES2_SaIS2_ENSt8__detail9_IdentityESt8equal_toIS2_ESt4hashIS2_ENS4_18_Mod_range_hashingENS4_20_Default_ranged_hashENS4_20_Prime_rehash_policyENS4_17_Hashtable_traitsILb1ELb1ELb1EEEE21_M_deallocate_bucketsEv = comdat any

$_ZNSt8__detail16_Hashtable_allocISaINS_10_Hash_nodeIN4cvc58internal8TypeNodeELb1EEEEED2Ev = comdat any

$_ZNSt8__detail16_Hashtable_allocISaINS_10_Hash_nodeIN4cvc58internal8TypeNodeELb1EEEEE19_M_deallocate_nodesEPS5_ = comdat any

$_ZNKSt10_HashtableIN4cvc58internal8TypeNodeES2_SaIS2_ENSt8__detail9_IdentityESt8equal_toIS2_ESt4hashIS2_ENS4_18_Mod_range_hashingENS4_20_Default_ranged_hashENS4_20_Prime_rehash_policyENS4_17_Hashtable_traitsILb1ELb1ELb1EEEE8_M_beginEv = comdat any

$_ZNKSt8__detail10_Hash_nodeIN4cvc58internal8TypeNodeELb1EE7_M_nextEv = comdat any

$_ZNSt8__detail16_Hashtable_allocISaINS_10_Hash_nodeIN4cvc58internal8TypeNodeELb1EEEEE18_M_deallocate_nodeEPS5_ = comdat any

$_ZNSt16allocator_traitsISaINSt8__detail10_Hash_nodeIN4cvc58internal8TypeNodeELb1EEEEE7destroyIS4_EEvRS6_PT_ = comdat any

$_ZNSt8__detail16_Hashtable_allocISaINS_10_Hash_nodeIN4cvc58internal8TypeNodeELb1EEEEE17_M_node_allocatorEv = comdat any

$_ZNSt8__detail21_Hash_node_value_baseIN4cvc58internal8TypeNodeEE9_M_valptrEv = comdat any

$_ZNSt8__detail16_Hashtable_allocISaINS_10_Hash_nodeIN4cvc58internal8TypeNodeELb1EEEEE22_M_deallocate_node_ptrEPS5_ = comdat any

$_ZNSt15__new_allocatorINSt8__detail10_Hash_nodeIN4cvc58internal8TypeNodeELb1EEEE7destroyIS4_EEvPT_ = comdat any

$_ZNSt8__detail21_Hashtable_ebo_helperILi0ESaINS_10_Hash_nodeIN4cvc58internal8TypeNodeELb1EEEELb1EE6_M_getEv = comdat any

$_ZN9__gnu_cxx16__aligned_bufferIN4cvc58internal8TypeNodeEE6_M_ptrEv = comdat any

$_ZN9__gnu_cxx16__aligned_bufferIN4cvc58internal8TypeNodeEE7_M_addrEv = comdat any

$_ZNSt19__ptr_traits_ptr_toIPNSt8__detail10_Hash_nodeIN4cvc58internal8TypeNodeELb1EEES5_Lb0EE10pointer_toERS5_ = comdat any

$_ZNSt16allocator_traitsISaINSt8__detail10_Hash_nodeIN4cvc58internal8TypeNodeELb1EEEEE10deallocateERS6_PS5_m = comdat any

$_ZNSt15__new_allocatorINSt8__detail10_Hash_nodeIN4cvc58internal8TypeNodeELb1EEEE10deallocateEPS5_m = comdat any

$_ZNSt10_HashtableIN4cvc58internal8TypeNodeES2_SaIS2_ENSt8__detail9_IdentityESt8equal_toIS2_ESt4hashIS2_ENS4_18_Mod_range_hashingENS4_20_Default_ranged_hashENS4_20_Prime_rehash_policyENS4_17_Hashtable_traitsILb1ELb1ELb1EEEE21_M_deallocate_bucketsEPPNS4_15_Hash_node_baseEm = comdat any

$_ZNKSt10_HashtableIN4cvc58internal8TypeNodeES2_SaIS2_ENSt8__detail9_IdentityESt8equal_toIS2_ESt4hashIS2_ENS4_18_Mod_range_hashingENS4_20_Default_ranged_hashENS4_20_Prime_rehash_policyENS4_17_Hashtable_traitsILb1ELb1ELb1EEEE21_M_uses_single_bucketEPPNS4_15_Hash_node_baseE = comdat any

$_ZNSt8__detail16_Hashtable_allocISaINS_10_Hash_nodeIN4cvc58internal8TypeNodeELb1EEEEE21_M_deallocate_bucketsEPPNS_15_Hash_node_baseEm = comdat any

$_ZNSt19__ptr_traits_ptr_toIPPNSt8__detail15_Hash_node_baseES2_Lb0EE10pointer_toERS2_ = comdat any

$_ZNSaIPNSt8__detail15_Hash_node_baseEEC2INS_10_Hash_nodeIN4cvc58internal8TypeNodeELb1EEEEERKSaIT_E = comdat any

$_ZNSt16allocator_traitsISaIPNSt8__detail15_Hash_node_baseEEE10deallocateERS3_PS2_m = comdat any

$_ZNSaIPNSt8__detail15_Hash_node_baseEED2Ev = comdat any

$_ZNSt15__new_allocatorIPNSt8__detail15_Hash_node_baseEEC2Ev = comdat any

$_ZNSt15__new_allocatorIPNSt8__detail15_Hash_node_baseEE10deallocateEPS2_m = comdat any

$_ZNSt15__new_allocatorIPNSt8__detail15_Hash_node_baseEED2Ev = comdat any

$_ZNSt8__detail21_Hashtable_ebo_helperILi0ESaINS_10_Hash_nodeIN4cvc58internal8TypeNodeELb1EEEELb1EED2Ev = comdat any

$_ZNSaINSt8__detail10_Hash_nodeIN4cvc58internal8TypeNodeELb1EEEED2Ev = comdat any

$_ZNSt15__new_allocatorINSt8__detail10_Hash_nodeIN4cvc58internal8TypeNodeELb1EEEED2Ev = comdat any

$_ZN10__gmp_exprIA1_12__mpz_structS1_EC2Ej = comdat any

$_ZN10__gmp_exprIA1_12__mpz_structS1_E7init_uiEm = comdat any

$_ZN10__gmp_exprIA1_12__mpz_structS1_ED2Ev = comdat any

$_ZNSt8__detail19_Node_iterator_baseISt4pairIKN4cvc58internal8TypeNodeEPSt3setINS3_12NodeTemplateILb1EEESt4lessIS8_ESaIS8_EEELb1EEC2Ev = comdat any

$_ZNSt8_Rb_treeIN4cvc58internal8TypeNodeES2_St9_IdentityIS2_ESt4lessIS2_ESaIS2_EEC2Ev = comdat any

$_ZNSt8_Rb_treeIN4cvc58internal8TypeNodeES2_St9_IdentityIS2_ESt4lessIS2_ESaIS2_EE13_Rb_tree_implIS6_Lb1EEC2Ev = comdat any

$_ZNSaISt13_Rb_tree_nodeIN4cvc58internal8TypeNodeEEEC2Ev = comdat any

$_ZNSt15__new_allocatorISt13_Rb_tree_nodeIN4cvc58internal8TypeNodeEEEC2Ev = comdat any

$_ZNSt13unordered_mapIN4cvc58internal8TypeNodeEPSt3setINS1_12NodeTemplateILb1EEESt4lessIS5_ESaIS5_EESt4hashIS2_ESt8equal_toIS2_ESaISt4pairIKS2_SA_EEE5beginEv = comdat any

$_ZNSt10_HashtableIN4cvc58internal8TypeNodeESt4pairIKS2_PSt3setINS1_12NodeTemplateILb1EEESt4lessIS7_ESaIS7_EEESaISD_ENSt8__detail10_Select1stESt8equal_toIS2_ESt4hashIS2_ENSF_18_Mod_range_hashingENSF_20_Default_ranged_hashENSF_20_Prime_rehash_policyENSF_17_Hashtable_traitsILb1ELb0ELb1EEEE5beginEv = comdat any

$_ZNKSt10_HashtableIN4cvc58internal8TypeNodeESt4pairIKS2_PSt3setINS1_12NodeTemplateILb1EEESt4lessIS7_ESaIS7_EEESaISD_ENSt8__detail10_Select1stESt8equal_toIS2_ESt4hashIS2_ENSF_18_Mod_range_hashingENSF_20_Default_ranged_hashENSF_20_Prime_rehash_policyENSF_17_Hashtable_traitsILb1ELb0ELb1EEEE8_M_beginEv = comdat any

$_ZNSt8__detail14_Node_iteratorISt4pairIKN4cvc58internal8TypeNodeEPSt3setINS3_12NodeTemplateILb1EEESt4lessIS8_ESaIS8_EEELb0ELb1EEC2EPNS_10_Hash_nodeISE_Lb1EEE = comdat any

$_ZNSt8__detail19_Node_iterator_baseISt4pairIKN4cvc58internal8TypeNodeEPSt3setINS3_12NodeTemplateILb1EEESt4lessIS8_ESaIS8_EEELb1EEC2EPNS_10_Hash_nodeISE_Lb1EEE = comdat any

$_ZNSt13unordered_mapIN4cvc58internal8TypeNodeEPSt3setINS1_12NodeTemplateILb1EEESt4lessIS5_ESaIS5_EESt4hashIS2_ESt8equal_toIS2_ESaISt4pairIKS2_SA_EEE3endEv = comdat any

$_ZNSt10_HashtableIN4cvc58internal8TypeNodeESt4pairIKS2_PSt3setINS1_12NodeTemplateILb1EEESt4lessIS7_ESaIS7_EEESaISD_ENSt8__detail10_Select1stESt8equal_toIS2_ESt4hashIS2_ENSF_18_Mod_range_hashingENSF_20_Default_ranged_hashENSF_20_Prime_rehash_policyENSF_17_Hashtable_traitsILb1ELb0ELb1EEEE3endEv = comdat any

$_ZNKSt8__detail14_Node_iteratorISt4pairIKN4cvc58internal8TypeNodeEPSt3setINS3_12NodeTemplateILb1EEESt4lessIS8_ESaIS8_EEELb0ELb1EEdeEv = comdat any

$_ZNSt8__detail21_Hash_node_value_baseISt4pairIKN4cvc58internal8TypeNodeEPSt3setINS3_12NodeTemplateILb1EEESt4lessIS8_ESaIS8_EEEE4_M_vEv = comdat any

$_ZNSt8__detail21_Hash_node_value_baseISt4pairIKN4cvc58internal8TypeNodeEPSt3setINS3_12NodeTemplateILb1EEESt4lessIS8_ESaIS8_EEEE9_M_valptrEv = comdat any

$_ZN9__gnu_cxx16__aligned_bufferISt4pairIKN4cvc58internal8TypeNodeEPSt3setINS3_12NodeTemplateILb1EEESt4lessIS8_ESaIS8_EEEE6_M_ptrEv = comdat any

$_ZN9__gnu_cxx16__aligned_bufferISt4pairIKN4cvc58internal8TypeNodeEPSt3setINS3_12NodeTemplateILb1EEESt4lessIS8_ESaIS8_EEEE7_M_addrEv = comdat any

$_ZNSt8_Rb_treeIN4cvc58internal8TypeNodeES2_St9_IdentityIS2_ESt4lessIS2_ESaIS2_EED2Ev = comdat any

$_ZNSt8_Rb_treeIN4cvc58internal8TypeNodeES2_St9_IdentityIS2_ESt4lessIS2_ESaIS2_EE8_M_eraseEPSt13_Rb_tree_nodeIS2_E = comdat any

$_ZNSt8_Rb_treeIN4cvc58internal8TypeNodeES2_St9_IdentityIS2_ESt4lessIS2_ESaIS2_EE8_M_beginEv = comdat any

$_ZNSt8_Rb_treeIN4cvc58internal8TypeNodeES2_St9_IdentityIS2_ESt4lessIS2_ESaIS2_EE13_Rb_tree_implIS6_Lb1EED2Ev = comdat any

$_ZNSt8_Rb_treeIN4cvc58internal8TypeNodeES2_St9_IdentityIS2_ESt4lessIS2_ESaIS2_EE8_S_rightEPSt18_Rb_tree_node_base = comdat any

$_ZNSt8_Rb_treeIN4cvc58internal8TypeNodeES2_St9_IdentityIS2_ESt4lessIS2_ESaIS2_EE7_S_leftEPSt18_Rb_tree_node_base = comdat any

$_ZNSt8_Rb_treeIN4cvc58internal8TypeNodeES2_St9_IdentityIS2_ESt4lessIS2_ESaIS2_EE12_M_drop_nodeEPSt13_Rb_tree_nodeIS2_E = comdat any

$_ZNSt8_Rb_treeIN4cvc58internal8TypeNodeES2_St9_IdentityIS2_ESt4lessIS2_ESaIS2_EE15_M_destroy_nodeEPSt13_Rb_tree_nodeIS2_E = comdat any

$_ZNSt8_Rb_treeIN4cvc58internal8TypeNodeES2_St9_IdentityIS2_ESt4lessIS2_ESaIS2_EE11_M_put_nodeEPSt13_Rb_tree_nodeIS2_E = comdat any

$_ZNSt16allocator_traitsISaISt13_Rb_tree_nodeIN4cvc58internal8TypeNodeEEEE7destroyIS3_EEvRS5_PT_ = comdat any

$_ZNSt8_Rb_treeIN4cvc58internal8TypeNodeES2_St9_IdentityIS2_ESt4lessIS2_ESaIS2_EE21_M_get_Node_allocatorEv = comdat any

$_ZNSt13_Rb_tree_nodeIN4cvc58internal8TypeNodeEE9_M_valptrEv = comdat any

$_ZNSt15__new_allocatorISt13_Rb_tree_nodeIN4cvc58internal8TypeNodeEEE7destroyIS3_EEvPT_ = comdat any

$_ZN9__gnu_cxx16__aligned_membufIN4cvc58internal8TypeNodeEE6_M_ptrEv = comdat any

$_ZN9__gnu_cxx16__aligned_membufIN4cvc58internal8TypeNodeEE7_M_addrEv = comdat any

$_ZNSt16allocator_traitsISaISt13_Rb_tree_nodeIN4cvc58internal8TypeNodeEEEE10deallocateERS5_PS4_m = comdat any

$_ZNSt15__new_allocatorISt13_Rb_tree_nodeIN4cvc58internal8TypeNodeEEE10deallocateEPS4_m = comdat any

$_ZNKSt8_Rb_treeIN4cvc58internal8TypeNodeES2_St9_IdentityIS2_ESt4lessIS2_ESaIS2_EE9_M_mbeginEv = comdat any

$_ZNSaISt13_Rb_tree_nodeIN4cvc58internal8TypeNodeEEED2Ev = comdat any

$_ZNSt15__new_allocatorISt13_Rb_tree_nodeIN4cvc58internal8TypeNodeEEED2Ev = comdat any

$_ZNSt10_HashtableIN4cvc58internal12NodeTemplateILb1EEES3_SaIS3_ENSt8__detail9_IdentityESt8equal_toIS3_ESt4hashIS3_ENS5_18_Mod_range_hashingENS5_20_Default_ranged_hashENS5_20_Prime_rehash_policyENS5_17_Hashtable_traitsILb1ELb1ELb1EEEED2Ev = comdat any

$_ZNSt10_HashtableIN4cvc58internal12NodeTemplateILb1EEES3_SaIS3_ENSt8__detail9_IdentityESt8equal_toIS3_ESt4hashIS3_ENS5_18_Mod_range_hashingENS5_20_Default_ranged_hashENS5_20_Prime_rehash_policyENS5_17_Hashtable_traitsILb1ELb1ELb1EEEE5clearEv = comdat any

$_ZNSt10_HashtableIN4cvc58internal12NodeTemplateILb1EEES3_SaIS3_ENSt8__detail9_IdentityESt8equal_toIS3_ESt4hashIS3_ENS5_18_Mod_range_hashingENS5_20_Default_ranged_hashENS5_20_Prime_rehash_policyENS5_17_Hashtable_traitsILb1ELb1ELb1EEEE21_M_deallocate_bucketsEv = comdat any

$_ZNSt8__detail16_Hashtable_allocISaINS_10_Hash_nodeIN4cvc58internal12NodeTemplateILb1EEELb1EEEEED2Ev = comdat any

$_ZNSt8__detail16_Hashtable_allocISaINS_10_Hash_nodeIN4cvc58internal12NodeTemplateILb1EEELb1EEEEE19_M_deallocate_nodesEPS6_ = comdat any

$_ZNKSt10_HashtableIN4cvc58internal12NodeTemplateILb1EEES3_SaIS3_ENSt8__detail9_IdentityESt8equal_toIS3_ESt4hashIS3_ENS5_18_Mod_range_hashingENS5_20_Default_ranged_hashENS5_20_Prime_rehash_policyENS5_17_Hashtable_traitsILb1ELb1ELb1EEEE8_M_beginEv = comdat any

$_ZNKSt8__detail10_Hash_nodeIN4cvc58internal12NodeTemplateILb1EEELb1EE7_M_nextEv = comdat any

$_ZNSt8__detail16_Hashtable_allocISaINS_10_Hash_nodeIN4cvc58internal12NodeTemplateILb1EEELb1EEEEE18_M_deallocate_nodeEPS6_ = comdat any

$_ZNSt16allocator_traitsISaINSt8__detail10_Hash_nodeIN4cvc58internal12NodeTemplateILb1EEELb1EEEEE7destroyIS5_EEvRS7_PT_ = comdat any

$_ZNSt8__detail16_Hashtable_allocISaINS_10_Hash_nodeIN4cvc58internal12NodeTemplateILb1EEELb1EEEEE17_M_node_allocatorEv = comdat any

$_ZNSt8__detail21_Hash_node_value_baseIN4cvc58internal12NodeTemplateILb1EEEE9_M_valptrEv = comdat any

$_ZNSt8__detail16_Hashtable_allocISaINS_10_Hash_nodeIN4cvc58internal12NodeTemplateILb1EEELb1EEEEE22_M_deallocate_node_ptrEPS6_ = comdat any

$_ZNSt15__new_allocatorINSt8__detail10_Hash_nodeIN4cvc58internal12NodeTemplateILb1EEELb1EEEE7destroyIS5_EEvPT_ = comdat any

$_ZNSt8__detail21_Hashtable_ebo_helperILi0ESaINS_10_Hash_nodeIN4cvc58internal12NodeTemplateILb1EEELb1EEEELb1EE6_M_getEv = comdat any

$_ZN9__gnu_cxx16__aligned_bufferIN4cvc58internal12NodeTemplateILb1EEEE6_M_ptrEv = comdat any

$_ZN9__gnu_cxx16__aligned_bufferIN4cvc58internal12NodeTemplateILb1EEEE7_M_addrEv = comdat any

$_ZNSt19__ptr_traits_ptr_toIPNSt8__detail10_Hash_nodeIN4cvc58internal12NodeTemplateILb1EEELb1EEES6_Lb0EE10pointer_toERS6_ = comdat any

$_ZNSt16allocator_traitsISaINSt8__detail10_Hash_nodeIN4cvc58internal12NodeTemplateILb1EEELb1EEEEE10deallocateERS7_PS6_m = comdat any

$_ZNSt15__new_allocatorINSt8__detail10_Hash_nodeIN4cvc58internal12NodeTemplateILb1EEELb1EEEE10deallocateEPS6_m = comdat any

$_ZNSt10_HashtableIN4cvc58internal12NodeTemplateILb1EEES3_SaIS3_ENSt8__detail9_IdentityESt8equal_toIS3_ESt4hashIS3_ENS5_18_Mod_range_hashingENS5_20_Default_ranged_hashENS5_20_Prime_rehash_policyENS5_17_Hashtable_traitsILb1ELb1ELb1EEEE21_M_deallocate_bucketsEPPNS5_15_Hash_node_baseEm = comdat any

$_ZNKSt10_HashtableIN4cvc58internal12NodeTemplateILb1EEES3_SaIS3_ENSt8__detail9_IdentityESt8equal_toIS3_ESt4hashIS3_ENS5_18_Mod_range_hashingENS5_20_Default_ranged_hashENS5_20_Prime_rehash_policyENS5_17_Hashtable_traitsILb1ELb1ELb1EEEE21_M_uses_single_bucketEPPNS5_15_Hash_node_baseE = comdat any

$_ZNSt8__detail16_Hashtable_allocISaINS_10_Hash_nodeIN4cvc58internal12NodeTemplateILb1EEELb1EEEEE21_M_deallocate_bucketsEPPNS_15_Hash_node_baseEm = comdat any

$_ZNSaIPNSt8__detail15_Hash_node_baseEEC2INS_10_Hash_nodeIN4cvc58internal12NodeTemplateILb1EEELb1EEEEERKSaIT_E = comdat any

$_ZNSt8__detail21_Hashtable_ebo_helperILi0ESaINS_10_Hash_nodeIN4cvc58internal12NodeTemplateILb1EEELb1EEEELb1EED2Ev = comdat any

$_ZNSaINSt8__detail10_Hash_nodeIN4cvc58internal12NodeTemplateILb1EEELb1EEEED2Ev = comdat any

$_ZNSt15__new_allocatorINSt8__detail10_Hash_nodeIN4cvc58internal12NodeTemplateILb1EEELb1EEEED2Ev = comdat any

$_ZNSt8_Rb_treeIN4cvc58internal12NodeTemplateILb1EEESt4pairIKS3_S3_ESt10_Select1stIS6_ESt4lessIS3_ESaIS6_EED2Ev = comdat any

$_ZNSt8_Rb_treeIN4cvc58internal12NodeTemplateILb1EEESt4pairIKS3_S3_ESt10_Select1stIS6_ESt4lessIS3_ESaIS6_EE8_M_eraseEPSt13_Rb_tree_nodeIS6_E = comdat any

$_ZNSt8_Rb_treeIN4cvc58internal12NodeTemplateILb1EEESt4pairIKS3_S3_ESt10_Select1stIS6_ESt4lessIS3_ESaIS6_EE8_M_beginEv = comdat any

$_ZNSt8_Rb_treeIN4cvc58internal12NodeTemplateILb1EEESt4pairIKS3_S3_ESt10_Select1stIS6_ESt4lessIS3_ESaIS6_EE13_Rb_tree_implISA_Lb1EED2Ev = comdat any

$_ZNSt8_Rb_treeIN4cvc58internal12NodeTemplateILb1EEESt4pairIKS3_S3_ESt10_Select1stIS6_ESt4lessIS3_ESaIS6_EE8_S_rightEPSt18_Rb_tree_node_base = comdat any

$_ZNSt8_Rb_treeIN4cvc58internal12NodeTemplateILb1EEESt4pairIKS3_S3_ESt10_Select1stIS6_ESt4lessIS3_ESaIS6_EE7_S_leftEPSt18_Rb_tree_node_base = comdat any

$_ZNSt8_Rb_treeIN4cvc58internal12NodeTemplateILb1EEESt4pairIKS3_S3_ESt10_Select1stIS6_ESt4lessIS3_ESaIS6_EE12_M_drop_nodeEPSt13_Rb_tree_nodeIS6_E = comdat any

$_ZNSt8_Rb_treeIN4cvc58internal12NodeTemplateILb1EEESt4pairIKS3_S3_ESt10_Select1stIS6_ESt4lessIS3_ESaIS6_EE15_M_destroy_nodeEPSt13_Rb_tree_nodeIS6_E = comdat any

$_ZNSt8_Rb_treeIN4cvc58internal12NodeTemplateILb1EEESt4pairIKS3_S3_ESt10_Select1stIS6_ESt4lessIS3_ESaIS6_EE11_M_put_nodeEPSt13_Rb_tree_nodeIS6_E = comdat any

$_ZNSt16allocator_traitsISaISt13_Rb_tree_nodeISt4pairIKN4cvc58internal12NodeTemplateILb1EEES5_EEEE7destroyIS7_EEvRS9_PT_ = comdat any

$_ZNSt8_Rb_treeIN4cvc58internal12NodeTemplateILb1EEESt4pairIKS3_S3_ESt10_Select1stIS6_ESt4lessIS3_ESaIS6_EE21_M_get_Node_allocatorEv = comdat any

$_ZNSt13_Rb_tree_nodeISt4pairIKN4cvc58internal12NodeTemplateILb1EEES4_EE9_M_valptrEv = comdat any

$_ZNSt15__new_allocatorISt13_Rb_tree_nodeISt4pairIKN4cvc58internal12NodeTemplateILb1EEES5_EEE7destroyIS7_EEvPT_ = comdat any

$_ZNSt4pairIKN4cvc58internal12NodeTemplateILb1EEES3_ED2Ev = comdat any

$_ZN9__gnu_cxx16__aligned_membufISt4pairIKN4cvc58internal12NodeTemplateILb1EEES5_EE6_M_ptrEv = comdat any

$_ZN9__gnu_cxx16__aligned_membufISt4pairIKN4cvc58internal12NodeTemplateILb1EEES5_EE7_M_addrEv = comdat any

$_ZNSt16allocator_traitsISaISt13_Rb_tree_nodeISt4pairIKN4cvc58internal12NodeTemplateILb1EEES5_EEEE10deallocateERS9_PS8_m = comdat any

$_ZNSt15__new_allocatorISt13_Rb_tree_nodeISt4pairIKN4cvc58internal12NodeTemplateILb1EEES5_EEE10deallocateEPS8_m = comdat any

$_ZNKSt8_Rb_treeIN4cvc58internal12NodeTemplateILb1EEESt4pairIKS3_S3_ESt10_Select1stIS6_ESt4lessIS3_ESaIS6_EE9_M_mbeginEv = comdat any

$_ZNSaISt13_Rb_tree_nodeISt4pairIKN4cvc58internal12NodeTemplateILb1EEES4_EEED2Ev = comdat any

$_ZNSt15__new_allocatorISt13_Rb_tree_nodeISt4pairIKN4cvc58internal12NodeTemplateILb1EEES5_EEED2Ev = comdat any

$_ZNSt8_Rb_treeIN4cvc58internal12NodeTemplateILb1EEESt4pairIKS3_NS1_6theory24TheoryEngineModelBuilder8AssignerEESt10_Select1stIS9_ESt4lessIS3_ESaIS9_EED2Ev = comdat any

$_ZNSt8_Rb_treeIN4cvc58internal12NodeTemplateILb1EEESt4pairIKS3_NS1_6theory24TheoryEngineModelBuilder8AssignerEESt10_Select1stIS9_ESt4lessIS3_ESaIS9_EE8_M_eraseEPSt13_Rb_tree_nodeIS9_E = comdat any

$_ZNSt8_Rb_treeIN4cvc58internal12NodeTemplateILb1EEESt4pairIKS3_NS1_6theory24TheoryEngineModelBuilder8AssignerEESt10_Select1stIS9_ESt4lessIS3_ESaIS9_EE8_M_beginEv = comdat any

$_ZNSt8_Rb_treeIN4cvc58internal12NodeTemplateILb1EEESt4pairIKS3_NS1_6theory24TheoryEngineModelBuilder8AssignerEESt10_Select1stIS9_ESt4lessIS3_ESaIS9_EE13_Rb_tree_implISD_Lb1EED2Ev = comdat any

$_ZNSt8_Rb_treeIN4cvc58internal12NodeTemplateILb1EEESt4pairIKS3_NS1_6theory24TheoryEngineModelBuilder8AssignerEESt10_Select1stIS9_ESt4lessIS3_ESaIS9_EE8_S_rightEPSt18_Rb_tree_node_base = comdat any

$_ZNSt8_Rb_treeIN4cvc58internal12NodeTemplateILb1EEESt4pairIKS3_NS1_6theory24TheoryEngineModelBuilder8AssignerEESt10_Select1stIS9_ESt4lessIS3_ESaIS9_EE7_S_leftEPSt18_Rb_tree_node_base = comdat any

$_ZNSt8_Rb_treeIN4cvc58internal12NodeTemplateILb1EEESt4pairIKS3_NS1_6theory24TheoryEngineModelBuilder8AssignerEESt10_Select1stIS9_ESt4lessIS3_ESaIS9_EE12_M_drop_nodeEPSt13_Rb_tree_nodeIS9_E = comdat any

$_ZNSt8_Rb_treeIN4cvc58internal12NodeTemplateILb1EEESt4pairIKS3_NS1_6theory24TheoryEngineModelBuilder8AssignerEESt10_Select1stIS9_ESt4lessIS3_ESaIS9_EE15_M_destroy_nodeEPSt13_Rb_tree_nodeIS9_E = comdat any

$_ZNSt8_Rb_treeIN4cvc58internal12NodeTemplateILb1EEESt4pairIKS3_NS1_6theory24TheoryEngineModelBuilder8AssignerEESt10_Select1stIS9_ESt4lessIS3_ESaIS9_EE11_M_put_nodeEPSt13_Rb_tree_nodeIS9_E = comdat any

$_ZNSt16allocator_traitsISaISt13_Rb_tree_nodeISt4pairIKN4cvc58internal12NodeTemplateILb1EEENS3_6theory24TheoryEngineModelBuilder8AssignerEEEEE7destroyISA_EEvRSC_PT_ = comdat any

$_ZNSt8_Rb_treeIN4cvc58internal12NodeTemplateILb1EEESt4pairIKS3_NS1_6theory24TheoryEngineModelBuilder8AssignerEESt10_Select1stIS9_ESt4lessIS3_ESaIS9_EE21_M_get_Node_allocatorEv = comdat any

$_ZNSt13_Rb_tree_nodeISt4pairIKN4cvc58internal12NodeTemplateILb1EEENS2_6theory24TheoryEngineModelBuilder8AssignerEEE9_M_valptrEv = comdat any

$_ZNSt15__new_allocatorISt13_Rb_tree_nodeISt4pairIKN4cvc58internal12NodeTemplateILb1EEENS3_6theory24TheoryEngineModelBuilder8AssignerEEEE7destroyISA_EEvPT_ = comdat any

$_ZNSt4pairIKN4cvc58internal12NodeTemplateILb1EEENS1_6theory24TheoryEngineModelBuilder8AssignerEED2Ev = comdat any

$_ZN4cvc58internal6theory24TheoryEngineModelBuilder8AssignerD2Ev = comdat any

$_ZNSt10unique_ptrIN4cvc58internal6theory14TypeEnumeratorESt14default_deleteIS3_EED2Ev = comdat any

$_ZNSt15__uniq_ptr_implIN4cvc58internal6theory14TypeEnumeratorESt14default_deleteIS3_EE6_M_ptrEv = comdat any

$_ZNSt10unique_ptrIN4cvc58internal6theory14TypeEnumeratorESt14default_deleteIS3_EE11get_deleterEv = comdat any

$_ZNKSt14default_deleteIN4cvc58internal6theory14TypeEnumeratorEEclEPS3_ = comdat any

$_ZSt3getILm0EJPN4cvc58internal6theory14TypeEnumeratorESt14default_deleteIS3_EEERNSt13tuple_elementIXT_ESt5tupleIJDpT0_EEE4typeERSB_ = comdat any

$_ZSt12__get_helperILm0EPN4cvc58internal6theory14TypeEnumeratorEJSt14default_deleteIS3_EEERT0_RSt11_Tuple_implIXT_EJS7_DpT1_EE = comdat any

$_ZNSt11_Tuple_implILm0EJPN4cvc58internal6theory14TypeEnumeratorESt14default_deleteIS3_EEE7_M_headERS7_ = comdat any

$_ZNSt10_Head_baseILm0EPN4cvc58internal6theory14TypeEnumeratorELb0EE7_M_headERS5_ = comdat any

$_ZNSt15__uniq_ptr_implIN4cvc58internal6theory14TypeEnumeratorESt14default_deleteIS3_EE10_M_deleterEv = comdat any

$_ZSt3getILm1EJPN4cvc58internal6theory14TypeEnumeratorESt14default_deleteIS3_EEERNSt13tuple_elementIXT_ESt5tupleIJDpT0_EEE4typeERSB_ = comdat any

$_ZSt12__get_helperILm1ESt14default_deleteIN4cvc58internal6theory14TypeEnumeratorEEJEERT0_RSt11_Tuple_implIXT_EJS6_DpT1_EE = comdat any

$_ZNSt11_Tuple_implILm1EJSt14default_deleteIN4cvc58internal6theory14TypeEnumeratorEEEE7_M_headERS6_ = comdat any

$_ZNSt10_Head_baseILm1ESt14default_deleteIN4cvc58internal6theory14TypeEnumeratorEELb1EE7_M_headERS6_ = comdat any

$_ZN9__gnu_cxx16__aligned_membufISt4pairIKN4cvc58internal12NodeTemplateILb1EEENS3_6theory24TheoryEngineModelBuilder8AssignerEEE6_M_ptrEv = comdat any

$_ZN9__gnu_cxx16__aligned_membufISt4pairIKN4cvc58internal12NodeTemplateILb1EEENS3_6theory24TheoryEngineModelBuilder8AssignerEEE7_M_addrEv = comdat any

$_ZNSt16allocator_traitsISaISt13_Rb_tree_nodeISt4pairIKN4cvc58internal12NodeTemplateILb1EEENS3_6theory24TheoryEngineModelBuilder8AssignerEEEEE10deallocateERSC_PSB_m = comdat any

$_ZNSt15__new_allocatorISt13_Rb_tree_nodeISt4pairIKN4cvc58internal12NodeTemplateILb1EEENS3_6theory24TheoryEngineModelBuilder8AssignerEEEE10deallocateEPSB_m = comdat any

$_ZNKSt8_Rb_treeIN4cvc58internal12NodeTemplateILb1EEESt4pairIKS3_NS1_6theory24TheoryEngineModelBuilder8AssignerEESt10_Select1stIS9_ESt4lessIS3_ESaIS9_EE9_M_mbeginEv = comdat any

$_ZNSaISt13_Rb_tree_nodeISt4pairIKN4cvc58internal12NodeTemplateILb1EEENS2_6theory24TheoryEngineModelBuilder8AssignerEEEED2Ev = comdat any

$_ZNSt15__new_allocatorISt13_Rb_tree_nodeISt4pairIKN4cvc58internal12NodeTemplateILb1EEENS3_6theory24TheoryEngineModelBuilder8AssignerEEEED2Ev = comdat any

$_ZNSt8_Rb_treeIN4cvc58internal8TypeNodeESt4pairIKS2_jESt10_Select1stIS5_ESt4lessIS2_ESaIS5_EED2Ev = comdat any

$_ZNSt8_Rb_treeIN4cvc58internal8TypeNodeESt4pairIKS2_jESt10_Select1stIS5_ESt4lessIS2_ESaIS5_EE8_M_eraseEPSt13_Rb_tree_nodeIS5_E = comdat any

$_ZNSt8_Rb_treeIN4cvc58internal8TypeNodeESt4pairIKS2_jESt10_Select1stIS5_ESt4lessIS2_ESaIS5_EE8_M_beginEv = comdat any

$_ZNSt8_Rb_treeIN4cvc58internal8TypeNodeESt4pairIKS2_jESt10_Select1stIS5_ESt4lessIS2_ESaIS5_EE13_Rb_tree_implIS9_Lb1EED2Ev = comdat any

$_ZNSt8_Rb_treeIN4cvc58internal8TypeNodeESt4pairIKS2_jESt10_Select1stIS5_ESt4lessIS2_ESaIS5_EE8_S_rightEPSt18_Rb_tree_node_base = comdat any

$_ZNSt8_Rb_treeIN4cvc58internal8TypeNodeESt4pairIKS2_jESt10_Select1stIS5_ESt4lessIS2_ESaIS5_EE7_S_leftEPSt18_Rb_tree_node_base = comdat any

$_ZNSt8_Rb_treeIN4cvc58internal8TypeNodeESt4pairIKS2_jESt10_Select1stIS5_ESt4lessIS2_ESaIS5_EE12_M_drop_nodeEPSt13_Rb_tree_nodeIS5_E = comdat any

$_ZNSt8_Rb_treeIN4cvc58internal8TypeNodeESt4pairIKS2_jESt10_Select1stIS5_ESt4lessIS2_ESaIS5_EE15_M_destroy_nodeEPSt13_Rb_tree_nodeIS5_E = comdat any

$_ZNSt8_Rb_treeIN4cvc58internal8TypeNodeESt4pairIKS2_jESt10_Select1stIS5_ESt4lessIS2_ESaIS5_EE11_M_put_nodeEPSt13_Rb_tree_nodeIS5_E = comdat any

$_ZNSt16allocator_traitsISaISt13_Rb_tree_nodeISt4pairIKN4cvc58internal8TypeNodeEjEEEE7destroyIS6_EEvRS8_PT_ = comdat any

$_ZNSt8_Rb_treeIN4cvc58internal8TypeNodeESt4pairIKS2_jESt10_Select1stIS5_ESt4lessIS2_ESaIS5_EE21_M_get_Node_allocatorEv = comdat any

$_ZNSt13_Rb_tree_nodeISt4pairIKN4cvc58internal8TypeNodeEjEE9_M_valptrEv = comdat any

$_ZNSt15__new_allocatorISt13_Rb_tree_nodeISt4pairIKN4cvc58internal8TypeNodeEjEEE7destroyIS6_EEvPT_ = comdat any

$_ZNSt4pairIKN4cvc58internal8TypeNodeEjED2Ev = comdat any

$_ZN9__gnu_cxx16__aligned_membufISt4pairIKN4cvc58internal8TypeNodeEjEE6_M_ptrEv = comdat any

$_ZN9__gnu_cxx16__aligned_membufISt4pairIKN4cvc58internal8TypeNodeEjEE7_M_addrEv = comdat any

$_ZNSt16allocator_traitsISaISt13_Rb_tree_nodeISt4pairIKN4cvc58internal8TypeNodeEjEEEE10deallocateERS8_PS7_m = comdat any

$_ZNSt15__new_allocatorISt13_Rb_tree_nodeISt4pairIKN4cvc58internal8TypeNodeEjEEE10deallocateEPS7_m = comdat any

$_ZNKSt8_Rb_treeIN4cvc58internal8TypeNodeESt4pairIKS2_jESt10_Select1stIS5_ESt4lessIS2_ESaIS5_EE9_M_mbeginEv = comdat any

$_ZNSaISt13_Rb_tree_nodeISt4pairIKN4cvc58internal8TypeNodeEjEEED2Ev = comdat any

$_ZNSt15__new_allocatorISt13_Rb_tree_nodeISt4pairIKN4cvc58internal8TypeNodeEjEEED2Ev = comdat any

$_ZNSt3mapIN4cvc58internal8TypeNodeENS1_7IntegerESt4lessIS2_ESaISt4pairIKS2_S3_EEED2Ev = comdat any

$_ZNSt8_Rb_treeIN4cvc58internal8TypeNodeESt4pairIKS2_NS1_7IntegerEESt10_Select1stIS6_ESt4lessIS2_ESaIS6_EED2Ev = comdat any

$_ZNSt8_Rb_treeIN4cvc58internal8TypeNodeESt4pairIKS2_NS1_7IntegerEESt10_Select1stIS6_ESt4lessIS2_ESaIS6_EE8_M_eraseEPSt13_Rb_tree_nodeIS6_E = comdat any

$_ZNSt8_Rb_treeIN4cvc58internal8TypeNodeESt4pairIKS2_NS1_7IntegerEESt10_Select1stIS6_ESt4lessIS2_ESaIS6_EE8_M_beginEv = comdat any

$_ZNSt8_Rb_treeIN4cvc58internal8TypeNodeESt4pairIKS2_NS1_7IntegerEESt10_Select1stIS6_ESt4lessIS2_ESaIS6_EE13_Rb_tree_implISA_Lb1EED2Ev = comdat any

$_ZNSt8_Rb_treeIN4cvc58internal8TypeNodeESt4pairIKS2_NS1_7IntegerEESt10_Select1stIS6_ESt4lessIS2_ESaIS6_EE8_S_rightEPSt18_Rb_tree_node_base = comdat any

$_ZNSt8_Rb_treeIN4cvc58internal8TypeNodeESt4pairIKS2_NS1_7IntegerEESt10_Select1stIS6_ESt4lessIS2_ESaIS6_EE7_S_leftEPSt18_Rb_tree_node_base = comdat any

$_ZNSt8_Rb_treeIN4cvc58internal8TypeNodeESt4pairIKS2_NS1_7IntegerEESt10_Select1stIS6_ESt4lessIS2_ESaIS6_EE12_M_drop_nodeEPSt13_Rb_tree_nodeIS6_E = comdat any

$_ZNSt8_Rb_treeIN4cvc58internal8TypeNodeESt4pairIKS2_NS1_7IntegerEESt10_Select1stIS6_ESt4lessIS2_ESaIS6_EE15_M_destroy_nodeEPSt13_Rb_tree_nodeIS6_E = comdat any

$_ZNSt8_Rb_treeIN4cvc58internal8TypeNodeESt4pairIKS2_NS1_7IntegerEESt10_Select1stIS6_ESt4lessIS2_ESaIS6_EE11_M_put_nodeEPSt13_Rb_tree_nodeIS6_E = comdat any

$_ZNSt16allocator_traitsISaISt13_Rb_tree_nodeISt4pairIKN4cvc58internal8TypeNodeENS3_7IntegerEEEEE7destroyIS7_EEvRS9_PT_ = comdat any

$_ZNSt8_Rb_treeIN4cvc58internal8TypeNodeESt4pairIKS2_NS1_7IntegerEESt10_Select1stIS6_ESt4lessIS2_ESaIS6_EE21_M_get_Node_allocatorEv = comdat any

$_ZNSt13_Rb_tree_nodeISt4pairIKN4cvc58internal8TypeNodeENS2_7IntegerEEE9_M_valptrEv = comdat any

$_ZNSt15__new_allocatorISt13_Rb_tree_nodeISt4pairIKN4cvc58internal8TypeNodeENS3_7IntegerEEEE7destroyIS7_EEvPT_ = comdat any

$_ZNSt4pairIKN4cvc58internal8TypeNodeENS1_7IntegerEED2Ev = comdat any

$_ZN9__gnu_cxx16__aligned_membufISt4pairIKN4cvc58internal8TypeNodeENS3_7IntegerEEE6_M_ptrEv = comdat any

$_ZN9__gnu_cxx16__aligned_membufISt4pairIKN4cvc58internal8TypeNodeENS3_7IntegerEEE7_M_addrEv = comdat any

$_ZNSt16allocator_traitsISaISt13_Rb_tree_nodeISt4pairIKN4cvc58internal8TypeNodeENS3_7IntegerEEEEE10deallocateERS9_PS8_m = comdat any

$_ZNSt15__new_allocatorISt13_Rb_tree_nodeISt4pairIKN4cvc58internal8TypeNodeENS3_7IntegerEEEE10deallocateEPS8_m = comdat any

$_ZNKSt8_Rb_treeIN4cvc58internal8TypeNodeESt4pairIKS2_NS1_7IntegerEESt10_Select1stIS6_ESt4lessIS2_ESaIS6_EE9_M_mbeginEv = comdat any

$_ZNSaISt13_Rb_tree_nodeISt4pairIKN4cvc58internal8TypeNodeENS2_7IntegerEEEED2Ev = comdat any

$_ZNSt15__new_allocatorISt13_Rb_tree_nodeISt4pairIKN4cvc58internal8TypeNodeENS3_7IntegerEEEED2Ev = comdat any

$_ZNK4cvc58internal8TypeNode8getConstINS0_12TypeConstantEEERKT_v = comdat any

$_ZNK4cvc58internal8TypeNode8toStreamERSo = comdat any

$_ZNK4cvc58internal12NodeTemplateILb0EE8toStreamERSo = comdat any

$_ZNK4cvc58internal12NodeTemplateILb0EE21assertTNodeNotExpiredEv = comdat any

$_ZNSt6vectorIiSaIiEEC2Ev = comdat any

$_ZN4cvc58internal6theory2uf15UfModelTreeNodeC2Ev = comdat any

$_ZNSt6vectorIiSaIiEE9push_backERKi = comdat any

$_ZN4cvc58internal6theory2uf15UfModelTreeNodeD2Ev = comdat any

$_ZNSt6vectorIiSaIiEED2Ev = comdat any

$_ZNSt12_Vector_baseIiSaIiEEC2Ev = comdat any

$_ZNSt12_Vector_baseIiSaIiEE12_Vector_implC2Ev = comdat any

$_ZNSaIiEC2Ev = comdat any

$_ZNSt12_Vector_baseIiSaIiEE17_Vector_impl_dataC2Ev = comdat any

$_ZNSt15__new_allocatorIiEC2Ev = comdat any

$_ZNSt3mapIN4cvc58internal12NodeTemplateILb1EEENS1_6theory2uf15UfModelTreeNodeESt4lessIS3_ESaISt4pairIKS3_S6_EEEC2Ev = comdat any

$_ZNSt3mapIN4cvc58internal12NodeTemplateILb1EEENS1_6theory2uf15UfModelTreeNodeESt4lessIS3_ESaISt4pairIKS3_S6_EEED2Ev = comdat any

$_ZNSt8_Rb_treeIN4cvc58internal12NodeTemplateILb1EEESt4pairIKS3_NS1_6theory2uf15UfModelTreeNodeEESt10_Select1stIS9_ESt4lessIS3_ESaIS9_EEC2Ev = comdat any

$_ZNSt8_Rb_treeIN4cvc58internal12NodeTemplateILb1EEESt4pairIKS3_NS1_6theory2uf15UfModelTreeNodeEESt10_Select1stIS9_ESt4lessIS3_ESaIS9_EE13_Rb_tree_implISD_Lb1EEC2Ev = comdat any

$_ZNSaISt13_Rb_tree_nodeISt4pairIKN4cvc58internal12NodeTemplateILb1EEENS2_6theory2uf15UfModelTreeNodeEEEEC2Ev = comdat any

$_ZNSt15__new_allocatorISt13_Rb_tree_nodeISt4pairIKN4cvc58internal12NodeTemplateILb1EEENS3_6theory2uf15UfModelTreeNodeEEEEC2Ev = comdat any

$_ZNSt8_Rb_treeIN4cvc58internal12NodeTemplateILb1EEESt4pairIKS3_NS1_6theory2uf15UfModelTreeNodeEESt10_Select1stIS9_ESt4lessIS3_ESaIS9_EED2Ev = comdat any

$_ZNSt8_Rb_treeIN4cvc58internal12NodeTemplateILb1EEESt4pairIKS3_NS1_6theory2uf15UfModelTreeNodeEESt10_Select1stIS9_ESt4lessIS3_ESaIS9_EE8_M_eraseEPSt13_Rb_tree_nodeIS9_E = comdat any

$_ZNSt8_Rb_treeIN4cvc58internal12NodeTemplateILb1EEESt4pairIKS3_NS1_6theory2uf15UfModelTreeNodeEESt10_Select1stIS9_ESt4lessIS3_ESaIS9_EE8_M_beginEv = comdat any

$_ZNSt8_Rb_treeIN4cvc58internal12NodeTemplateILb1EEESt4pairIKS3_NS1_6theory2uf15UfModelTreeNodeEESt10_Select1stIS9_ESt4lessIS3_ESaIS9_EE13_Rb_tree_implISD_Lb1EED2Ev = comdat any

$_ZNSt8_Rb_treeIN4cvc58internal12NodeTemplateILb1EEESt4pairIKS3_NS1_6theory2uf15UfModelTreeNodeEESt10_Select1stIS9_ESt4lessIS3_ESaIS9_EE8_S_rightEPSt18_Rb_tree_node_base = comdat any

$_ZNSt8_Rb_treeIN4cvc58internal12NodeTemplateILb1EEESt4pairIKS3_NS1_6theory2uf15UfModelTreeNodeEESt10_Select1stIS9_ESt4lessIS3_ESaIS9_EE7_S_leftEPSt18_Rb_tree_node_base = comdat any

$_ZNSt8_Rb_treeIN4cvc58internal12NodeTemplateILb1EEESt4pairIKS3_NS1_6theory2uf15UfModelTreeNodeEESt10_Select1stIS9_ESt4lessIS3_ESaIS9_EE12_M_drop_nodeEPSt13_Rb_tree_nodeIS9_E = comdat any

$_ZNSt8_Rb_treeIN4cvc58internal12NodeTemplateILb1EEESt4pairIKS3_NS1_6theory2uf15UfModelTreeNodeEESt10_Select1stIS9_ESt4lessIS3_ESaIS9_EE15_M_destroy_nodeEPSt13_Rb_tree_nodeIS9_E = comdat any

$_ZNSt8_Rb_treeIN4cvc58internal12NodeTemplateILb1EEESt4pairIKS3_NS1_6theory2uf15UfModelTreeNodeEESt10_Select1stIS9_ESt4lessIS3_ESaIS9_EE11_M_put_nodeEPSt13_Rb_tree_nodeIS9_E = comdat any

$_ZNSt16allocator_traitsISaISt13_Rb_tree_nodeISt4pairIKN4cvc58internal12NodeTemplateILb1EEENS3_6theory2uf15UfModelTreeNodeEEEEE7destroyISA_EEvRSC_PT_ = comdat any

$_ZNSt8_Rb_treeIN4cvc58internal12NodeTemplateILb1EEESt4pairIKS3_NS1_6theory2uf15UfModelTreeNodeEESt10_Select1stIS9_ESt4lessIS3_ESaIS9_EE21_M_get_Node_allocatorEv = comdat any

$_ZNSt13_Rb_tree_nodeISt4pairIKN4cvc58internal12NodeTemplateILb1EEENS2_6theory2uf15UfModelTreeNodeEEE9_M_valptrEv = comdat any

$_ZNSt15__new_allocatorISt13_Rb_tree_nodeISt4pairIKN4cvc58internal12NodeTemplateILb1EEENS3_6theory2uf15UfModelTreeNodeEEEE7destroyISA_EEvPT_ = comdat any

$_ZNSt4pairIKN4cvc58internal12NodeTemplateILb1EEENS1_6theory2uf15UfModelTreeNodeEED2Ev = comdat any

$_ZN9__gnu_cxx16__aligned_membufISt4pairIKN4cvc58internal12NodeTemplateILb1EEENS3_6theory2uf15UfModelTreeNodeEEE6_M_ptrEv = comdat any

$_ZN9__gnu_cxx16__aligned_membufISt4pairIKN4cvc58internal12NodeTemplateILb1EEENS3_6theory2uf15UfModelTreeNodeEEE7_M_addrEv = comdat any

$_ZNSt16allocator_traitsISaISt13_Rb_tree_nodeISt4pairIKN4cvc58internal12NodeTemplateILb1EEENS3_6theory2uf15UfModelTreeNodeEEEEE10deallocateERSC_PSB_m = comdat any

$_ZNSt15__new_allocatorISt13_Rb_tree_nodeISt4pairIKN4cvc58internal12NodeTemplateILb1EEENS3_6theory2uf15UfModelTreeNodeEEEE10deallocateEPSB_m = comdat any

$_ZNKSt8_Rb_treeIN4cvc58internal12NodeTemplateILb1EEESt4pairIKS3_NS1_6theory2uf15UfModelTreeNodeEESt10_Select1stIS9_ESt4lessIS3_ESaIS9_EE9_M_mbeginEv = comdat any

$_ZNSaISt13_Rb_tree_nodeISt4pairIKN4cvc58internal12NodeTemplateILb1EEENS2_6theory2uf15UfModelTreeNodeEEEED2Ev = comdat any

$_ZNSt15__new_allocatorISt13_Rb_tree_nodeISt4pairIKN4cvc58internal12NodeTemplateILb1EEENS3_6theory2uf15UfModelTreeNodeEEEED2Ev = comdat any

$_ZNSt16allocator_traitsISaIiEE9constructIiJRKiEEEvRS0_PT_DpOT0_ = comdat any

$_ZNSt6vectorIiSaIiEE17_M_realloc_insertIJRKiEEEvN9__gnu_cxx17__normal_iteratorIPiS1_EEDpOT_ = comdat any

$_ZNSt6vectorIiSaIiEE3endEv = comdat any

$_ZNSt15__new_allocatorIiE9constructIiJRKiEEEvPT_DpOT0_ = comdat any

$_ZNKSt6vectorIiSaIiEE12_M_check_lenEmPKc = comdat any

$_ZN9__gnu_cxxmiIPiSt6vectorIiSaIiEEEENS_17__normal_iteratorIT_T0_E15difference_typeERKS8_SB_ = comdat any

$_ZNSt6vectorIiSaIiEE5beginEv = comdat any

$_ZNSt12_Vector_baseIiSaIiEE11_M_allocateEm = comdat any

$_ZNSt6vectorIiSaIiEE11_S_relocateEPiS2_S2_RS0_ = comdat any

$_ZNK9__gnu_cxx17__normal_iteratorIPiSt6vectorIiSaIiEEE4baseEv = comdat any

$_ZNSt12_Vector_baseIiSaIiEE19_M_get_Tp_allocatorEv = comdat any

$_ZNSt12_Vector_baseIiSaIiEE13_M_deallocateEPim = comdat any

$_ZNKSt6vectorIiSaIiEE8max_sizeEv = comdat any

$_ZNKSt6vectorIiSaIiEE4sizeEv = comdat any

$_ZSt3maxImERKT_S2_S2_ = comdat any

$_ZNSt6vectorIiSaIiEE11_S_max_sizeERKS0_ = comdat any

$_ZNKSt12_Vector_baseIiSaIiEE19_M_get_Tp_allocatorEv = comdat any

$_ZNSt16allocator_traitsISaIiEE8max_sizeERKS0_ = comdat any

$_ZSt3minImERKT_S2_S2_ = comdat any

$_ZNKSt15__new_allocatorIiE8max_sizeEv = comdat any

$_ZNKSt15__new_allocatorIiE11_M_max_sizeEv = comdat any

$_ZN9__gnu_cxx17__normal_iteratorIPiSt6vectorIiSaIiEEEC2ERKS1_ = comdat any

$_ZNSt16allocator_traitsISaIiEE8allocateERS0_m = comdat any

$_ZNSt15__new_allocatorIiE8allocateEmPKv = comdat any

$_ZSt12__relocate_aIPiS0_SaIiEET0_T_S3_S2_RT1_ = comdat any

$_ZSt14__relocate_a_1IiiENSt9enable_ifIXsr3std24__is_bitwise_relocatableIT_EE5valueEPS1_E4typeES2_S2_S2_RSaIT0_E = comdat any

$_ZSt12__niter_baseIPiET_S1_ = comdat any

$_ZNSt16allocator_traitsISaIiEE10deallocateERS0_Pim = comdat any

$_ZNSt15__new_allocatorIiE10deallocateEPim = comdat any

$_ZSt8_DestroyIPiiEvT_S1_RSaIT0_E = comdat any

$_ZNSt12_Vector_baseIiSaIiEED2Ev = comdat any

$_ZSt8_DestroyIPiEvT_S1_ = comdat any

$_ZNSt12_Destroy_auxILb1EE9__destroyIPiEEvT_S3_ = comdat any

$_ZNSt12_Vector_baseIiSaIiEE12_Vector_implD2Ev = comdat any

$_ZNSaIiED2Ev = comdat any

$_ZNSt15__new_allocatorIiED2Ev = comdat any

$_ZNSt12_Vector_baseIN4cvc58internal12NodeTemplateILb0EEESaIS3_EEC2Ev = comdat any

$_ZNSt12_Vector_baseIN4cvc58internal12NodeTemplateILb0EEESaIS3_EE12_Vector_implC2Ev = comdat any

$_ZNSaIN4cvc58internal12NodeTemplateILb0EEEEC2Ev = comdat any

$_ZNSt12_Vector_baseIN4cvc58internal12NodeTemplateILb0EEESaIS3_EE17_Vector_impl_dataC2Ev = comdat any

$_ZNSt15__new_allocatorIN4cvc58internal12NodeTemplateILb0EEEEC2Ev = comdat any

$_ZNSt3mapIN4cvc58internal8TypeNodeEmSt4lessIS2_ESaISt4pairIKS2_mEEEC2Ev = comdat any

$_ZNSt8_Rb_treeIN4cvc58internal8TypeNodeESt4pairIKS2_mESt10_Select1stIS5_ESt4lessIS2_ESaIS5_EEC2Ev = comdat any

$_ZNSt8_Rb_treeIN4cvc58internal8TypeNodeESt4pairIKS2_mESt10_Select1stIS5_ESt4lessIS2_ESaIS5_EE13_Rb_tree_implIS9_Lb1EEC2Ev = comdat any

$_ZNSaISt13_Rb_tree_nodeISt4pairIKN4cvc58internal8TypeNodeEmEEEC2Ev = comdat any

$_ZNSt15__new_allocatorISt13_Rb_tree_nodeISt4pairIKN4cvc58internal8TypeNodeEmEEEC2Ev = comdat any

$_ZNSt3mapIN4cvc58internal8TypeNodeEmSt4lessIS2_ESaISt4pairIKS2_mEEEC2ERKS9_ = comdat any

$_ZNSt8_Rb_treeIN4cvc58internal8TypeNodeESt4pairIKS2_mESt10_Select1stIS5_ESt4lessIS2_ESaIS5_EEC2ERKSB_ = comdat any

$_ZNSt8_Rb_treeIN4cvc58internal8TypeNodeESt4pairIKS2_mESt10_Select1stIS5_ESt4lessIS2_ESaIS5_EE13_Rb_tree_implIS9_Lb1EEC2ERKSD_ = comdat any

$_ZNKSt8_Rb_treeIN4cvc58internal8TypeNodeESt4pairIKS2_mESt10_Select1stIS5_ESt4lessIS2_ESaIS5_EE7_M_rootEv = comdat any

$_ZNSt8_Rb_treeIN4cvc58internal8TypeNodeESt4pairIKS2_mESt10_Select1stIS5_ESt4lessIS2_ESaIS5_EE7_M_copyERKSB_ = comdat any

$_ZNSt8_Rb_treeIN4cvc58internal8TypeNodeESt4pairIKS2_mESt10_Select1stIS5_ESt4lessIS2_ESaIS5_EE7_M_rootEv = comdat any

$_ZNSt8_Rb_treeIN4cvc58internal8TypeNodeESt4pairIKS2_mESt10_Select1stIS5_ESt4lessIS2_ESaIS5_EE13_Rb_tree_implIS9_Lb1EED2Ev = comdat any

$_ZN9__gnu_cxx14__alloc_traitsISaISt13_Rb_tree_nodeISt4pairIKN4cvc58internal8TypeNodeEmEEES8_E17_S_select_on_copyERKS9_ = comdat any

$_ZNSaISt13_Rb_tree_nodeISt4pairIKN4cvc58internal8TypeNodeEmEEED2Ev = comdat any

$_ZNSt20_Rb_tree_key_compareISt4lessIN4cvc58internal8TypeNodeEEEC2ERKS4_ = comdat any

$_ZNSt16allocator_traitsISaISt13_Rb_tree_nodeISt4pairIKN4cvc58internal8TypeNodeEmEEEE37select_on_container_copy_constructionERKS8_ = comdat any

$_ZNSaISt13_Rb_tree_nodeISt4pairIKN4cvc58internal8TypeNodeEmEEEC2ERKS7_ = comdat any

$_ZNSt15__new_allocatorISt13_Rb_tree_nodeISt4pairIKN4cvc58internal8TypeNodeEmEEEC2ERKS8_ = comdat any

$_ZNSt15__new_allocatorISt13_Rb_tree_nodeISt4pairIKN4cvc58internal8TypeNodeEmEEED2Ev = comdat any

$_ZNSt8_Rb_treeIN4cvc58internal8TypeNodeESt4pairIKS2_mESt10_Select1stIS5_ESt4lessIS2_ESaIS5_EE11_Alloc_nodeC2ERSB_ = comdat any

$_ZNSt8_Rb_treeIN4cvc58internal8TypeNodeESt4pairIKS2_mESt10_Select1stIS5_ESt4lessIS2_ESaIS5_EE7_M_copyILb0ENSB_11_Alloc_nodeEEEPSt13_Rb_tree_nodeIS5_ERKSB_RT0_ = comdat any

$_ZNSt8_Rb_treeIN4cvc58internal8TypeNodeESt4pairIKS2_mESt10_Select1stIS5_ESt4lessIS2_ESaIS5_EE7_M_copyILb0ENSB_11_Alloc_nodeEEEPSt13_Rb_tree_nodeIS5_ESG_PSt18_Rb_tree_node_baseRT0_ = comdat any

$_ZNKSt8_Rb_treeIN4cvc58internal8TypeNodeESt4pairIKS2_mESt10_Select1stIS5_ESt4lessIS2_ESaIS5_EE9_M_mbeginEv = comdat any

$_ZNSt8_Rb_treeIN4cvc58internal8TypeNodeESt4pairIKS2_mESt10_Select1stIS5_ESt4lessIS2_ESaIS5_EE6_M_endEv = comdat any

$_ZNSt8_Rb_treeIN4cvc58internal8TypeNodeESt4pairIKS2_mESt10_Select1stIS5_ESt4lessIS2_ESaIS5_EE10_S_minimumEPSt18_Rb_tree_node_base = comdat any

$_ZNSt8_Rb_treeIN4cvc58internal8TypeNodeESt4pairIKS2_mESt10_Select1stIS5_ESt4lessIS2_ESaIS5_EE11_M_leftmostEv = comdat any

$_ZNSt8_Rb_treeIN4cvc58internal8TypeNodeESt4pairIKS2_mESt10_Select1stIS5_ESt4lessIS2_ESaIS5_EE10_S_maximumEPSt18_Rb_tree_node_base = comdat any

$_ZNSt8_Rb_treeIN4cvc58internal8TypeNodeESt4pairIKS2_mESt10_Select1stIS5_ESt4lessIS2_ESaIS5_EE12_M_rightmostEv = comdat any

$_ZNSt8_Rb_treeIN4cvc58internal8TypeNodeESt4pairIKS2_mESt10_Select1stIS5_ESt4lessIS2_ESaIS5_EE13_M_clone_nodeILb0ENSB_11_Alloc_nodeEEEPSt13_Rb_tree_nodeIS5_ESG_RT0_ = comdat any

$_ZNSt8_Rb_treeIN4cvc58internal8TypeNodeESt4pairIKS2_mESt10_Select1stIS5_ESt4lessIS2_ESaIS5_EE8_S_rightEPSt18_Rb_tree_node_base = comdat any

$_ZNSt8_Rb_treeIN4cvc58internal8TypeNodeESt4pairIKS2_mESt10_Select1stIS5_ESt4lessIS2_ESaIS5_EE7_S_leftEPSt18_Rb_tree_node_base = comdat any

$_ZNSt8_Rb_treeIN4cvc58internal8TypeNodeESt4pairIKS2_mESt10_Select1stIS5_ESt4lessIS2_ESaIS5_EE8_M_eraseEPSt13_Rb_tree_nodeIS5_E = comdat any

$_ZNKSt8_Rb_treeIN4cvc58internal8TypeNodeESt4pairIKS2_mESt10_Select1stIS5_ESt4lessIS2_ESaIS5_EE11_Alloc_nodeclIRKS5_EEPSt13_Rb_tree_nodeIS5_EOT_ = comdat any

$_ZNSt13_Rb_tree_nodeISt4pairIKN4cvc58internal8TypeNodeEmEE9_M_valptrEv = comdat any

$_ZNSt8_Rb_treeIN4cvc58internal8TypeNodeESt4pairIKS2_mESt10_Select1stIS5_ESt4lessIS2_ESaIS5_EE14_M_create_nodeIJRKS5_EEEPSt13_Rb_tree_nodeIS5_EDpOT_ = comdat any

$_ZNSt8_Rb_treeIN4cvc58internal8TypeNodeESt4pairIKS2_mESt10_Select1stIS5_ESt4lessIS2_ESaIS5_EE11_M_get_nodeEv = comdat any

$_ZNSt8_Rb_treeIN4cvc58internal8TypeNodeESt4pairIKS2_mESt10_Select1stIS5_ESt4lessIS2_ESaIS5_EE17_M_construct_nodeIJRKS5_EEEvPSt13_Rb_tree_nodeIS5_EDpOT_ = comdat any

$_ZNSt16allocator_traitsISaISt13_Rb_tree_nodeISt4pairIKN4cvc58internal8TypeNodeEmEEEE8allocateERS8_m = comdat any

$_ZNSt8_Rb_treeIN4cvc58internal8TypeNodeESt4pairIKS2_mESt10_Select1stIS5_ESt4lessIS2_ESaIS5_EE21_M_get_Node_allocatorEv = comdat any

$_ZNSt15__new_allocatorISt13_Rb_tree_nodeISt4pairIKN4cvc58internal8TypeNodeEmEEE8allocateEmPKv = comdat any

$_ZNKSt15__new_allocatorISt13_Rb_tree_nodeISt4pairIKN4cvc58internal8TypeNodeEmEEE11_M_max_sizeEv = comdat any

$_ZNSt16allocator_traitsISaISt13_Rb_tree_nodeISt4pairIKN4cvc58internal8TypeNodeEmEEEE9constructIS6_JRKS6_EEEvRS8_PT_DpOT0_ = comdat any

$_ZNSt8_Rb_treeIN4cvc58internal8TypeNodeESt4pairIKS2_mESt10_Select1stIS5_ESt4lessIS2_ESaIS5_EE11_M_put_nodeEPSt13_Rb_tree_nodeIS5_E = comdat any

$_ZNSt15__new_allocatorISt13_Rb_tree_nodeISt4pairIKN4cvc58internal8TypeNodeEmEEE9constructIS6_JRKS6_EEEvPT_DpOT0_ = comdat any

$_ZNSt4pairIKN4cvc58internal8TypeNodeEmEC2ERKS4_ = comdat any

$_ZNSt16allocator_traitsISaISt13_Rb_tree_nodeISt4pairIKN4cvc58internal8TypeNodeEmEEEE10deallocateERS8_PS7_m = comdat any

$_ZNSt15__new_allocatorISt13_Rb_tree_nodeISt4pairIKN4cvc58internal8TypeNodeEmEEE10deallocateEPS7_m = comdat any

$_ZN9__gnu_cxx16__aligned_membufISt4pairIKN4cvc58internal8TypeNodeEmEE6_M_ptrEv = comdat any

$_ZN9__gnu_cxx16__aligned_membufISt4pairIKN4cvc58internal8TypeNodeEmEE7_M_addrEv = comdat any

$_ZNSt8_Rb_treeIN4cvc58internal8TypeNodeESt4pairIKS2_mESt10_Select1stIS5_ESt4lessIS2_ESaIS5_EE12_M_drop_nodeEPSt13_Rb_tree_nodeIS5_E = comdat any

$_ZNSt8_Rb_treeIN4cvc58internal8TypeNodeESt4pairIKS2_mESt10_Select1stIS5_ESt4lessIS2_ESaIS5_EE15_M_destroy_nodeEPSt13_Rb_tree_nodeIS5_E = comdat any

$_ZNSt16allocator_traitsISaISt13_Rb_tree_nodeISt4pairIKN4cvc58internal8TypeNodeEmEEEE7destroyIS6_EEvRS8_PT_ = comdat any

$_ZNSt15__new_allocatorISt13_Rb_tree_nodeISt4pairIKN4cvc58internal8TypeNodeEmEEE7destroyIS6_EEvPT_ = comdat any

$_ZNSt4pairIKN4cvc58internal8TypeNodeEmED2Ev = comdat any

$_ZNSt18_Rb_tree_node_base10_S_minimumEPS_ = comdat any

$_ZNSt18_Rb_tree_node_base10_S_maximumEPS_ = comdat any

$_ZNSt3mapIN4cvc58internal8TypeNodeEmSt4lessIS2_ESaISt4pairIKS2_mEEED2Ev = comdat any

$_ZNSt8_Rb_treeIN4cvc58internal8TypeNodeESt4pairIKS2_mESt10_Select1stIS5_ESt4lessIS2_ESaIS5_EED2Ev = comdat any

$_ZNSt8_Rb_treeIN4cvc58internal8TypeNodeESt4pairIKS2_mESt10_Select1stIS5_ESt4lessIS2_ESaIS5_EE8_M_beginEv = comdat any

$_ZNKSt6vectorINSt7__cxx1112basic_stringIcSt11char_traitsIcESaIcEEESaIS5_EE5emptyEv = comdat any

$_ZN9__gnu_cxxneIPKNSt7__cxx1112basic_stringIcSt11char_traitsIcESaIcEEESt6vectorIS6_SaIS6_EEEEbRKNS_17__normal_iteratorIT_T0_EESH_ = comdat any

$_ZSt4findIN9__gnu_cxx17__normal_iteratorIPKNSt7__cxx1112basic_stringIcSt11char_traitsIcESaIcEEESt6vectorIS7_SaIS7_EEEES7_ET_SE_SE_RKT0_ = comdat any

$_ZNKSt6vectorINSt7__cxx1112basic_stringIcSt11char_traitsIcESaIcEEESaIS5_EE5beginEv = comdat any

$_ZNKSt6vectorINSt7__cxx1112basic_stringIcSt11char_traitsIcESaIcEEESaIS5_EE3endEv = comdat any

$_ZN9__gnu_cxxeqIPKNSt7__cxx1112basic_stringIcSt11char_traitsIcESaIcEEESt6vectorIS6_SaIS6_EEEEbRKNS_17__normal_iteratorIT_T0_EESH_ = comdat any

$_ZNK9__gnu_cxx17__normal_iteratorIPKNSt7__cxx1112basic_stringIcSt11char_traitsIcESaIcEEESt6vectorIS6_SaIS6_EEE4baseEv = comdat any

$_ZSt9__find_ifIN9__gnu_cxx17__normal_iteratorIPKNSt7__cxx1112basic_stringIcSt11char_traitsIcESaIcEEESt6vectorIS7_SaIS7_EEEENS0_5__ops16_Iter_equals_valIS8_EEET_SH_SH_T0_ = comdat any

$_ZN9__gnu_cxx5__ops17__iter_equals_valIKNSt7__cxx1112basic_stringIcSt11char_traitsIcESaIcEEEEENS0_16_Iter_equals_valIT_EERSA_ = comdat any

$_ZSt9__find_ifIN9__gnu_cxx17__normal_iteratorIPKNSt7__cxx1112basic_stringIcSt11char_traitsIcESaIcEEESt6vectorIS7_SaIS7_EEEENS0_5__ops16_Iter_equals_valIS8_EEET_SH_SH_T0_St26random_access_iterator_tag = comdat any

$_ZSt19__iterator_categoryIN9__gnu_cxx17__normal_iteratorIPKNSt7__cxx1112basic_stringIcSt11char_traitsIcESaIcEEESt6vectorIS7_SaIS7_EEEEENSt15iterator_traitsIT_E17iterator_categoryERKSF_ = comdat any

$_ZN9__gnu_cxxmiIPKNSt7__cxx1112basic_stringIcSt11char_traitsIcESaIcEEESt6vectorIS6_SaIS6_EEEENS_17__normal_iteratorIT_T0_E15difference_typeERKSF_SI_ = comdat any

$_ZN9__gnu_cxx5__ops16_Iter_equals_valIKNSt7__cxx1112basic_stringIcSt11char_traitsIcESaIcEEEEclINS_17__normal_iteratorIPS8_St6vectorIS7_SaIS7_EEEEEEbT_ = comdat any

$_ZN9__gnu_cxx17__normal_iteratorIPKNSt7__cxx1112basic_stringIcSt11char_traitsIcESaIcEEESt6vectorIS6_SaIS6_EEEppEv = comdat any

$_ZSteqIcEN9__gnu_cxx11__enable_ifIXsr9__is_charIT_EE7__valueEbE6__typeERKNSt7__cxx1112basic_stringIS2_St11char_traitsIS2_ESaIS2_EEESC_ = comdat any

$_ZNK9__gnu_cxx17__normal_iteratorIPKNSt7__cxx1112basic_stringIcSt11char_traitsIcESaIcEEESt6vectorIS6_SaIS6_EEEdeEv = comdat any

$_ZNSt11char_traitsIcE7compareEPKcS2_m = comdat any

$_ZN9__gnu_cxx5__ops16_Iter_equals_valIKNSt7__cxx1112basic_stringIcSt11char_traitsIcESaIcEEEEC2ERS8_ = comdat any

$_ZN9__gnu_cxx17__normal_iteratorIPKNSt7__cxx1112basic_stringIcSt11char_traitsIcESaIcEEESt6vectorIS6_SaIS6_EEEC2ERKS8_ = comdat any

$_ZNSt13unordered_mapIN4cvc58internal12NodeTemplateILb1EEES3_St4hashIS3_ESt8equal_toIS3_ESaISt4pairIKS3_S3_EEED2Ev = comdat any

$_ZN4cvc58internal6EnvObjD2Ev = comdat any

$_ZNSt10_HashtableIN4cvc58internal12NodeTemplateILb1EEESt4pairIKS3_S3_ESaIS6_ENSt8__detail10_Select1stESt8equal_toIS3_ESt4hashIS3_ENS8_18_Mod_range_hashingENS8_20_Default_ranged_hashENS8_20_Prime_rehash_policyENS8_17_Hashtable_traitsILb1ELb0ELb1EEEED2Ev = comdat any

$_ZNSt10_HashtableIN4cvc58internal12NodeTemplateILb1EEESt4pairIKS3_S3_ESaIS6_ENSt8__detail10_Select1stESt8equal_toIS3_ESt4hashIS3_ENS8_18_Mod_range_hashingENS8_20_Default_ranged_hashENS8_20_Prime_rehash_policyENS8_17_Hashtable_traitsILb1ELb0ELb1EEEE5clearEv = comdat any

$_ZNSt10_HashtableIN4cvc58internal12NodeTemplateILb1EEESt4pairIKS3_S3_ESaIS6_ENSt8__detail10_Select1stESt8equal_toIS3_ESt4hashIS3_ENS8_18_Mod_range_hashingENS8_20_Default_ranged_hashENS8_20_Prime_rehash_policyENS8_17_Hashtable_traitsILb1ELb0ELb1EEEE21_M_deallocate_bucketsEv = comdat any

$_ZNSt8__detail16_Hashtable_allocISaINS_10_Hash_nodeISt4pairIKN4cvc58internal12NodeTemplateILb1EEES6_ELb1EEEEED2Ev = comdat any

$_ZNSt8__detail16_Hashtable_allocISaINS_10_Hash_nodeISt4pairIKN4cvc58internal12NodeTemplateILb1EEES6_ELb1EEEEE19_M_deallocate_nodesEPS9_ = comdat any

$_ZNKSt10_HashtableIN4cvc58internal12NodeTemplateILb1EEESt4pairIKS3_S3_ESaIS6_ENSt8__detail10_Select1stESt8equal_toIS3_ESt4hashIS3_ENS8_18_Mod_range_hashingENS8_20_Default_ranged_hashENS8_20_Prime_rehash_policyENS8_17_Hashtable_traitsILb1ELb0ELb1EEEE8_M_beginEv = comdat any

$_ZNKSt8__detail10_Hash_nodeISt4pairIKN4cvc58internal12NodeTemplateILb1EEES5_ELb1EE7_M_nextEv = comdat any

$_ZNSt8__detail16_Hashtable_allocISaINS_10_Hash_nodeISt4pairIKN4cvc58internal12NodeTemplateILb1EEES6_ELb1EEEEE18_M_deallocate_nodeEPS9_ = comdat any

$_ZNSt16allocator_traitsISaINSt8__detail10_Hash_nodeISt4pairIKN4cvc58internal12NodeTemplateILb1EEES6_ELb1EEEEE7destroyIS8_EEvRSA_PT_ = comdat any

$_ZNSt8__detail16_Hashtable_allocISaINS_10_Hash_nodeISt4pairIKN4cvc58internal12NodeTemplateILb1EEES6_ELb1EEEEE17_M_node_allocatorEv = comdat any

$_ZNSt8__detail21_Hash_node_value_baseISt4pairIKN4cvc58internal12NodeTemplateILb1EEES5_EE9_M_valptrEv = comdat any

$_ZNSt8__detail16_Hashtable_allocISaINS_10_Hash_nodeISt4pairIKN4cvc58internal12NodeTemplateILb1EEES6_ELb1EEEEE22_M_deallocate_node_ptrEPS9_ = comdat any

$_ZNSt15__new_allocatorINSt8__detail10_Hash_nodeISt4pairIKN4cvc58internal12NodeTemplateILb1EEES6_ELb1EEEE7destroyIS8_EEvPT_ = comdat any

$_ZNSt8__detail21_Hashtable_ebo_helperILi0ESaINS_10_Hash_nodeISt4pairIKN4cvc58internal12NodeTemplateILb1EEES6_ELb1EEEELb1EE6_M_getEv = comdat any

$_ZN9__gnu_cxx16__aligned_bufferISt4pairIKN4cvc58internal12NodeTemplateILb1EEES5_EE6_M_ptrEv = comdat any

$_ZN9__gnu_cxx16__aligned_bufferISt4pairIKN4cvc58internal12NodeTemplateILb1EEES5_EE7_M_addrEv = comdat any

$_ZNSt19__ptr_traits_ptr_toIPNSt8__detail10_Hash_nodeISt4pairIKN4cvc58internal12NodeTemplateILb1EEES6_ELb1EEES9_Lb0EE10pointer_toERS9_ = comdat any

$_ZNSt16allocator_traitsISaINSt8__detail10_Hash_nodeISt4pairIKN4cvc58internal12NodeTemplateILb1EEES6_ELb1EEEEE10deallocateERSA_PS9_m = comdat any

$_ZNSt15__new_allocatorINSt8__detail10_Hash_nodeISt4pairIKN4cvc58internal12NodeTemplateILb1EEES6_ELb1EEEE10deallocateEPS9_m = comdat any

$_ZNSt10_HashtableIN4cvc58internal12NodeTemplateILb1EEESt4pairIKS3_S3_ESaIS6_ENSt8__detail10_Select1stESt8equal_toIS3_ESt4hashIS3_ENS8_18_Mod_range_hashingENS8_20_Default_ranged_hashENS8_20_Prime_rehash_policyENS8_17_Hashtable_traitsILb1ELb0ELb1EEEE21_M_deallocate_bucketsEPPNS8_15_Hash_node_baseEm = comdat any

$_ZNKSt10_HashtableIN4cvc58internal12NodeTemplateILb1EEESt4pairIKS3_S3_ESaIS6_ENSt8__detail10_Select1stESt8equal_toIS3_ESt4hashIS3_ENS8_18_Mod_range_hashingENS8_20_Default_ranged_hashENS8_20_Prime_rehash_policyENS8_17_Hashtable_traitsILb1ELb0ELb1EEEE21_M_uses_single_bucketEPPNS8_15_Hash_node_baseE = comdat any

$_ZNSt8__detail16_Hashtable_allocISaINS_10_Hash_nodeISt4pairIKN4cvc58internal12NodeTemplateILb1EEES6_ELb1EEEEE21_M_deallocate_bucketsEPPNS_15_Hash_node_baseEm = comdat any

$_ZNSaIPNSt8__detail15_Hash_node_baseEEC2INS_10_Hash_nodeISt4pairIKN4cvc58internal12NodeTemplateILb1EEES9_ELb1EEEEERKSaIT_E = comdat any

$_ZNSt8__detail21_Hashtable_ebo_helperILi0ESaINS_10_Hash_nodeISt4pairIKN4cvc58internal12NodeTemplateILb1EEES6_ELb1EEEELb1EED2Ev = comdat any

$_ZNSaINSt8__detail10_Hash_nodeISt4pairIKN4cvc58internal12NodeTemplateILb1EEES5_ELb1EEEED2Ev = comdat any

$_ZNSt15__new_allocatorINSt8__detail10_Hash_nodeISt4pairIKN4cvc58internal12NodeTemplateILb1EEES6_ELb1EEEED2Ev = comdat any

$_ZNSt11char_traitsIcE6lengthEPKc = comdat any

$_ZNSt7__cxx1112basic_stringIcSt11char_traitsIcESaIcEE12_M_constructIPKcEEvT_S8_St20forward_iterator_tag = comdat any

$_ZNSt7__cxx1112basic_stringIcSt11char_traitsIcESaIcEE12_Alloc_hiderD2Ev = comdat any

$_ZSt8distanceIPKcENSt15iterator_traitsIT_E15difference_typeES3_S3_ = comdat any

$_ZZNSt7__cxx1112basic_stringIcSt11char_traitsIcESaIcEE12_M_constructIPKcEEvT_S8_St20forward_iterator_tagEN6_GuardC2EPS4_ = comdat any

$_ZZNSt7__cxx1112basic_stringIcSt11char_traitsIcESaIcEE12_M_constructIPKcEEvT_S8_St20forward_iterator_tagEN6_GuardD2Ev = comdat any

$_ZSt10__distanceIPKcENSt15iterator_traitsIT_E15difference_typeES3_S3_St26random_access_iterator_tag = comdat any

$_ZSt19__iterator_categoryIPKcENSt15iterator_traitsIT_E17iterator_categoryERKS3_ = comdat any

$_ZNSt8ios_base5iwordEi = comdat any

$_ZNSt3mapIN4cvc58internal8TypeNodeENS1_7IntegerESt4lessIS2_ESaISt4pairIKS2_S3_EEE11lower_boundERS7_ = comdat any

$_ZSteqRKSt17_Rb_tree_iteratorISt4pairIKN4cvc58internal8TypeNodeENS2_7IntegerEEES9_ = comdat any

$_ZNSt3mapIN4cvc58internal8TypeNodeENS1_7IntegerESt4lessIS2_ESaISt4pairIKS2_S3_EEE3endEv = comdat any

$_ZNKSt3mapIN4cvc58internal8TypeNodeENS1_7IntegerESt4lessIS2_ESaISt4pairIKS2_S3_EEE8key_compEv = comdat any

$_ZNKSt4lessIN4cvc58internal8TypeNodeEEclERKS2_S5_ = comdat any

$_ZNKSt17_Rb_tree_iteratorISt4pairIKN4cvc58internal8TypeNodeENS2_7IntegerEEEdeEv = comdat any

$_ZNSt8_Rb_treeIN4cvc58internal8TypeNodeESt4pairIKS2_NS1_7IntegerEESt10_Select1stIS6_ESt4lessIS2_ESaIS6_EE22_M_emplace_hint_uniqueIJRKSt21piecewise_construct_tSt5tupleIJRS4_EESH_IJEEEEESt17_Rb_tree_iteratorIS6_ESt23_Rb_tree_const_iteratorIS6_EDpOT_ = comdat any

$_ZNSt23_Rb_tree_const_iteratorISt4pairIKN4cvc58internal8TypeNodeENS2_7IntegerEEEC2ERKSt17_Rb_tree_iteratorIS6_E = comdat any

$_ZNSt5tupleIJRKN4cvc58internal8TypeNodeEEEC2ILb1ETnNSt9enable_ifIXclsr4_TCCIXT_EEE29__is_implicitly_constructibleIS4_EEEbE4typeELb1EEES4_ = comdat any

$_ZNSt8_Rb_treeIN4cvc58internal8TypeNodeESt4pairIKS2_NS1_7IntegerEESt10_Select1stIS6_ESt4lessIS2_ESaIS6_EE11lower_boundERS4_ = comdat any

$_ZNSt8_Rb_treeIN4cvc58internal8TypeNodeESt4pairIKS2_NS1_7IntegerEESt10_Select1stIS6_ESt4lessIS2_ESaIS6_EE14_M_lower_boundEPSt13_Rb_tree_nodeIS6_EPSt18_Rb_tree_node_baseRS4_ = comdat any

$_ZNSt8_Rb_treeIN4cvc58internal8TypeNodeESt4pairIKS2_NS1_7IntegerEESt10_Select1stIS6_ESt4lessIS2_ESaIS6_EE6_M_endEv = comdat any

$_ZNSt8_Rb_treeIN4cvc58internal8TypeNodeESt4pairIKS2_NS1_7IntegerEESt10_Select1stIS6_ESt4lessIS2_ESaIS6_EE6_S_keyEPKSt13_Rb_tree_nodeIS6_E = comdat any

$_ZNSt17_Rb_tree_iteratorISt4pairIKN4cvc58internal8TypeNodeENS2_7IntegerEEEC2EPSt18_Rb_tree_node_base = comdat any

$_ZNKSt10_Select1stISt4pairIKN4cvc58internal8TypeNodeENS2_7IntegerEEEclERKS6_ = comdat any

$_ZNKSt13_Rb_tree_nodeISt4pairIKN4cvc58internal8TypeNodeENS2_7IntegerEEE9_M_valptrEv = comdat any

$_ZNK9__gnu_cxx16__aligned_membufISt4pairIKN4cvc58internal8TypeNodeENS3_7IntegerEEE6_M_ptrEv = comdat any

$_ZNK9__gnu_cxx16__aligned_membufISt4pairIKN4cvc58internal8TypeNodeENS3_7IntegerEEE7_M_addrEv = comdat any

$_ZNSt8_Rb_treeIN4cvc58internal8TypeNodeESt4pairIKS2_NS1_7IntegerEESt10_Select1stIS6_ESt4lessIS2_ESaIS6_EE3endEv = comdat any

$_ZNKSt8_Rb_treeIN4cvc58internal8TypeNodeESt4pairIKS2_NS1_7IntegerEESt10_Select1stIS6_ESt4lessIS2_ESaIS6_EE8key_compEv = comdat any

$_ZNK4cvc58internal8TypeNodeltERKS1_ = comdat any

$_ZNSt8_Rb_treeIN4cvc58internal8TypeNodeESt4pairIKS2_NS1_7IntegerEESt10_Select1stIS6_ESt4lessIS2_ESaIS6_EE10_Auto_nodeC2IJRKSt21piecewise_construct_tSt5tupleIJRS4_EESI_IJEEEEERSC_DpOT_ = comdat any

$_ZNSt8_Rb_treeIN4cvc58internal8TypeNodeESt4pairIKS2_NS1_7IntegerEESt10_Select1stIS6_ESt4lessIS2_ESaIS6_EE29_M_get_insert_hint_unique_posESt23_Rb_tree_const_iteratorIS6_ERS4_ = comdat any

$_ZNKSt8_Rb_treeIN4cvc58internal8TypeNodeESt4pairIKS2_NS1_7IntegerEESt10_Select1stIS6_ESt4lessIS2_ESaIS6_EE10_Auto_node6_M_keyEv = comdat any

$_ZNSt8_Rb_treeIN4cvc58internal8TypeNodeESt4pairIKS2_NS1_7IntegerEESt10_Select1stIS6_ESt4lessIS2_ESaIS6_EE10_Auto_node9_M_insertES3_IPSt18_Rb_tree_node_baseSF_E = comdat any

$_ZNSt8_Rb_treeIN4cvc58internal8TypeNodeESt4pairIKS2_NS1_7IntegerEESt10_Select1stIS6_ESt4lessIS2_ESaIS6_EE10_Auto_nodeD2Ev = comdat any

$_ZNSt8_Rb_treeIN4cvc58internal8TypeNodeESt4pairIKS2_NS1_7IntegerEESt10_Select1stIS6_ESt4lessIS2_ESaIS6_EE14_M_create_nodeIJRKSt21piecewise_construct_tSt5tupleIJRS4_EESH_IJEEEEEPSt13_Rb_tree_nodeIS6_EDpOT_ = comdat any

$_ZNSt8_Rb_treeIN4cvc58internal8TypeNodeESt4pairIKS2_NS1_7IntegerEESt10_Select1stIS6_ESt4lessIS2_ESaIS6_EE11_M_get_nodeEv = comdat any

$_ZNSt8_Rb_treeIN4cvc58internal8TypeNodeESt4pairIKS2_NS1_7IntegerEESt10_Select1stIS6_ESt4lessIS2_ESaIS6_EE17_M_construct_nodeIJRKSt21piecewise_construct_tSt5tupleIJRS4_EESH_IJEEEEEvPSt13_Rb_tree_nodeIS6_EDpOT_ = comdat any

$_ZNSt16allocator_traitsISaISt13_Rb_tree_nodeISt4pairIKN4cvc58internal8TypeNodeENS3_7IntegerEEEEE8allocateERS9_m = comdat any

$_ZNSt15__new_allocatorISt13_Rb_tree_nodeISt4pairIKN4cvc58internal8TypeNodeENS3_7IntegerEEEE8allocateEmPKv = comdat any

$_ZNKSt15__new_allocatorISt13_Rb_tree_nodeISt4pairIKN4cvc58internal8TypeNodeENS3_7IntegerEEEE11_M_max_sizeEv = comdat any

$_ZNSt16allocator_traitsISaISt13_Rb_tree_nodeISt4pairIKN4cvc58internal8TypeNodeENS3_7IntegerEEEEE9constructIS7_JRKSt21piecewise_construct_tSt5tupleIJRS5_EESF_IJEEEEEvRS9_PT_DpOT0_ = comdat any

$_ZNSt15__new_allocatorISt13_Rb_tree_nodeISt4pairIKN4cvc58internal8TypeNodeENS3_7IntegerEEEE9constructIS7_JRKSt21piecewise_construct_tSt5tupleIJRS5_EESE_IJEEEEEvPT_DpOT0_ = comdat any

$_ZNSt5tupleIJRKN4cvc58internal8TypeNodeEEEC2EOS5_ = comdat any

$_ZNSt4pairIKN4cvc58internal8TypeNodeENS1_7IntegerEEC2IJRS3_EJEEESt21piecewise_construct_tSt5tupleIJDpT_EES9_IJDpT0_EE = comdat any

$_ZNSt11_Tuple_implILm0EJRKN4cvc58internal8TypeNodeEEEC2EOS5_ = comdat any

$_ZNSt4pairIKN4cvc58internal8TypeNodeENS1_7IntegerEEC2IJRS3_EJLm0EEJETpTnmJEEERSt5tupleIJDpT_EERS8_IJDpT1_EESt12_Index_tupleIJXspT0_EEESH_IJXspT2_EEE = comdat any

$_ZSt3getILm0EJRKN4cvc58internal8TypeNodeEEERNSt13tuple_elementIXT_ESt5tupleIJDpT0_EEE4typeERS9_ = comdat any

$_ZN4cvc58internal7IntegerC2Ev = comdat any

$_ZSt12__get_helperILm0ERKN4cvc58internal8TypeNodeEJEERT0_RSt11_Tuple_implIXT_EJS5_DpT1_EE = comdat any

$_ZNSt11_Tuple_implILm0EJRKN4cvc58internal8TypeNodeEEE7_M_headERS5_ = comdat any

$_ZNSt10_Head_baseILm0ERKN4cvc58internal8TypeNodeELb0EE7_M_headERS5_ = comdat any

$_ZN10__gmp_exprIA1_12__mpz_structS1_EC2Ei = comdat any

$_ZN10__gmp_exprIA1_12__mpz_structS1_E7init_siEl = comdat any

$_ZNKSt23_Rb_tree_const_iteratorISt4pairIKN4cvc58internal8TypeNodeENS2_7IntegerEEE13_M_const_castEv = comdat any

$_ZNKSt8_Rb_treeIN4cvc58internal8TypeNodeESt4pairIKS2_NS1_7IntegerEESt10_Select1stIS6_ESt4lessIS2_ESaIS6_EE4sizeEv = comdat any

$_ZNSt8_Rb_treeIN4cvc58internal8TypeNodeESt4pairIKS2_NS1_7IntegerEESt10_Select1stIS6_ESt4lessIS2_ESaIS6_EE6_S_keyEPKSt18_Rb_tree_node_base = comdat any

$_ZNSt8_Rb_treeIN4cvc58internal8TypeNodeESt4pairIKS2_NS1_7IntegerEESt10_Select1stIS6_ESt4lessIS2_ESaIS6_EE12_M_rightmostEv = comdat any

$_ZNSt4pairIPSt18_Rb_tree_node_baseS1_EC2IS1_S1_TnNSt9enable_ifIXaaclsr5_PCCPE18_ConstructiblePairIT_T0_EEclsr5_PCCPE26_ImplicitlyConvertiblePairIS5_S6_EEEbE4typeELb1EEERKS1_SA_ = comdat any

$_ZNSt8_Rb_treeIN4cvc58internal8TypeNodeESt4pairIKS2_NS1_7IntegerEESt10_Select1stIS6_ESt4lessIS2_ESaIS6_EE24_M_get_insert_unique_posERS4_ = comdat any

$_ZNSt8_Rb_treeIN4cvc58internal8TypeNodeESt4pairIKS2_NS1_7IntegerEESt10_Select1stIS6_ESt4lessIS2_ESaIS6_EE11_M_leftmostEv = comdat any

$_ZNSt4pairIPSt18_Rb_tree_node_baseS1_EC2IRS1_S4_TnNSt9enable_ifIXaaclsr5_PCCPE22_MoveConstructiblePairIT_T0_EEclsr5_PCCPE30_ImplicitlyMoveConvertiblePairIS6_S7_EEEbE4typeELb1EEEOS6_OS7_ = comdat any

$_ZNSt17_Rb_tree_iteratorISt4pairIKN4cvc58internal8TypeNodeENS2_7IntegerEEEmmEv = comdat any

$_ZNSt17_Rb_tree_iteratorISt4pairIKN4cvc58internal8TypeNodeENS2_7IntegerEEEppEv = comdat any

$_ZNSt8_Rb_treeIN4cvc58internal8TypeNodeESt4pairIKS2_NS1_7IntegerEESt10_Select1stIS6_ESt4lessIS2_ESaIS6_EE5beginEv = comdat any

$_ZNSt4pairIPSt18_Rb_tree_node_baseS1_EC2IRPSt13_Rb_tree_nodeIS_IKN4cvc58internal8TypeNodeENS6_7IntegerEEERS1_TnNSt9enable_ifIXaaclsr5_PCCPE22_MoveConstructiblePairIT_T0_EEclsr5_PCCPE30_ImplicitlyMoveConvertiblePairISG_SH_EEEbE4typeELb1EEEOSG_OSH_ = comdat any

$_ZNSt8_Rb_treeIN4cvc58internal8TypeNodeESt4pairIKS2_NS1_7IntegerEESt10_Select1stIS6_ESt4lessIS2_ESaIS6_EE14_M_insert_nodeEPSt18_Rb_tree_node_baseSE_PSt13_Rb_tree_nodeIS6_E = comdat any

$_ZNSt11_Tuple_implILm0EJRKN4cvc58internal8TypeNodeEEEC2ES4_ = comdat any

$_ZNSt10_Head_baseILm0ERKN4cvc58internal8TypeNodeELb0EEC2ES4_ = comdat any

$_ZSt8_DestroyIPN4cvc58internal12NodeTemplateILb1EEES3_EvT_S5_RSaIT0_E = comdat any

$_ZNSt12_Vector_baseIN4cvc58internal12NodeTemplateILb1EEESaIS3_EE19_M_get_Tp_allocatorEv = comdat any

$_ZNSt12_Vector_baseIN4cvc58internal12NodeTemplateILb1EEESaIS3_EED2Ev = comdat any

$_ZSt8_DestroyIPN4cvc58internal12NodeTemplateILb1EEEEvT_S5_ = comdat any

$_ZNSt12_Destroy_auxILb0EE9__destroyIPN4cvc58internal12NodeTemplateILb1EEEEEvT_S7_ = comdat any

$_ZSt8_DestroyIN4cvc58internal12NodeTemplateILb1EEEEvPT_ = comdat any

$_ZNSt12_Vector_baseIN4cvc58internal12NodeTemplateILb1EEESaIS3_EE13_M_deallocateEPS3_m = comdat any

$_ZNSt12_Vector_baseIN4cvc58internal12NodeTemplateILb1EEESaIS3_EE12_Vector_implD2Ev = comdat any

$_ZNSt16allocator_traitsISaIN4cvc58internal12NodeTemplateILb1EEEEE10deallocateERS4_PS3_m = comdat any

$_ZNSt15__new_allocatorIN4cvc58internal12NodeTemplateILb1EEEE10deallocateEPS3_m = comdat any

$_ZNSaIN4cvc58internal12NodeTemplateILb1EEEED2Ev = comdat any

$_ZNSt15__new_allocatorIN4cvc58internal12NodeTemplateILb1EEEED2Ev = comdat any

$_ZNK4cvc58internal12NodeTemplateILb1EE21assertTNodeNotExpiredEv = comdat any

$_ZNK4cvc58internal8TypeNode6isNullEv = comdat any

$_ZN4cvc58internal8TypeNodeaSERKS1_ = comdat any

$_ZN4cvc58internal4expr9NodeValueC2Ei = comdat any

$_ZNSt15__uniq_ptr_implIN4cvc58internal6theory14TypeEnumeratorESt14default_deleteIS3_EE5resetEPS3_ = comdat any

$_ZN9__gnu_cxx17__normal_iteratorIPN4cvc58internal12NodeTemplateILb1EEESt6vectorIS4_SaIS4_EEEC2ERKS5_ = comdat any

$_ZN9__gnu_cxx17__normal_iteratorIPKN4cvc58internal12NodeTemplateILb1EEESt6vectorIS4_SaIS4_EEEC2ERKS6_ = comdat any

$_ZN9__gnu_cxxmiIPKN4cvc58internal12NodeTemplateILb1EEESt6vectorIS4_SaIS4_EEEENS_17__normal_iteratorIT_T0_E15difference_typeERKSD_SG_ = comdat any

$_ZNKSt6vectorIN4cvc58internal12NodeTemplateILb1EEESaIS3_EE6cbeginEv = comdat any

$_ZNSt6vectorIN4cvc58internal12NodeTemplateILb1EEESaIS3_EE18_M_insert_dispatchIN9__gnu_cxx17__normal_iteratorIPKS3_S5_EEEEvNS8_IPS3_S5_EET_SE_St12__false_type = comdat any

$_ZNK9__gnu_cxx17__normal_iteratorIPN4cvc58internal12NodeTemplateILb1EEESt6vectorIS4_SaIS4_EEEplEl = comdat any

$_ZNK9__gnu_cxx17__normal_iteratorIPKN4cvc58internal12NodeTemplateILb1EEESt6vectorIS4_SaIS4_EEE4baseEv = comdat any

$_ZNSt6vectorIN4cvc58internal12NodeTemplateILb1EEESaIS3_EE15_M_range_insertIN9__gnu_cxx17__normal_iteratorIPKS3_S5_EEEEvNS8_IPS3_S5_EET_SE_St20forward_iterator_tag = comdat any

$_ZSt19__iterator_categoryIN9__gnu_cxx17__normal_iteratorIPKN4cvc58internal12NodeTemplateILb1EEESt6vectorIS5_SaIS5_EEEEENSt15iterator_traitsIT_E17iterator_categoryERKSD_ = comdat any

$_ZN9__gnu_cxxneIPKN4cvc58internal12NodeTemplateILb1EEESt6vectorIS4_SaIS4_EEEEbRKNS_17__normal_iteratorIT_T0_EESF_ = comdat any

$_ZSt8distanceIN9__gnu_cxx17__normal_iteratorIPKN4cvc58internal12NodeTemplateILb1EEESt6vectorIS5_SaIS5_EEEEENSt15iterator_traitsIT_E15difference_typeESD_SD_ = comdat any

$_ZN9__gnu_cxxmiIPN4cvc58internal12NodeTemplateILb1EEESt6vectorIS4_SaIS4_EEEENS_17__normal_iteratorIT_T0_E15difference_typeERKSC_SF_ = comdat any

$_ZSt22__uninitialized_move_aIPN4cvc58internal12NodeTemplateILb1EEES4_SaIS3_EET0_T_S7_S6_RT1_ = comdat any

$_ZSt13move_backwardIPN4cvc58internal12NodeTemplateILb1EEES4_ET0_T_S6_S5_ = comdat any

$_ZNK9__gnu_cxx17__normal_iteratorIPN4cvc58internal12NodeTemplateILb1EEESt6vectorIS4_SaIS4_EEE4baseEv = comdat any

$_ZSt4copyIN9__gnu_cxx17__normal_iteratorIPKN4cvc58internal12NodeTemplateILb1EEESt6vectorIS5_SaIS5_EEEENS1_IPS5_SA_EEET0_T_SF_SE_ = comdat any

$_ZSt7advanceIN9__gnu_cxx17__normal_iteratorIPKN4cvc58internal12NodeTemplateILb1EEESt6vectorIS5_SaIS5_EEEEmEvRT_T0_ = comdat any

$_ZSt22__uninitialized_copy_aIN9__gnu_cxx17__normal_iteratorIPKN4cvc58internal12NodeTemplateILb1EEESt6vectorIS5_SaIS5_EEEEPS5_S5_ET0_T_SE_SD_RSaIT1_E = comdat any

$_ZNKSt6vectorIN4cvc58internal12NodeTemplateILb1EEESaIS3_EE12_M_check_lenEmPKc = comdat any

$_ZNSt12_Vector_baseIN4cvc58internal12NodeTemplateILb1EEESaIS3_EE11_M_allocateEm = comdat any

$_ZSt34__uninitialized_move_if_noexcept_aIPN4cvc58internal12NodeTemplateILb1EEES4_SaIS3_EET0_T_S7_S6_RT1_ = comdat any

$_ZSt10__distanceIN9__gnu_cxx17__normal_iteratorIPKN4cvc58internal12NodeTemplateILb1EEESt6vectorIS5_SaIS5_EEEEENSt15iterator_traitsIT_E15difference_typeESD_SD_St26random_access_iterator_tag = comdat any

$_ZSt22__uninitialized_copy_aISt13move_iteratorIPN4cvc58internal12NodeTemplateILb1EEEES5_S4_ET0_T_S8_S7_RSaIT1_E = comdat any

$_ZSt18make_move_iteratorIPN4cvc58internal12NodeTemplateILb1EEEESt13move_iteratorIT_ES6_ = comdat any

$_ZSt18uninitialized_copyISt13move_iteratorIPN4cvc58internal12NodeTemplateILb1EEEES5_ET0_T_S8_S7_ = comdat any

$_ZNSt20__uninitialized_copyILb0EE13__uninit_copyISt13move_iteratorIPN4cvc58internal12NodeTemplateILb1EEEES7_EET0_T_SA_S9_ = comdat any

$_ZSt16__do_uninit_copyISt13move_iteratorIPN4cvc58internal12NodeTemplateILb1EEEES5_ET0_T_S8_S7_ = comdat any

$_ZStneIPN4cvc58internal12NodeTemplateILb1EEEEbRKSt13move_iteratorIT_ES9_ = comdat any

$_ZSt10_ConstructIN4cvc58internal12NodeTemplateILb1EEEJS3_EEvPT_DpOT0_ = comdat any

$_ZNKSt13move_iteratorIPN4cvc58internal12NodeTemplateILb1EEEEdeEv = comdat any

$_ZNSt13move_iteratorIPN4cvc58internal12NodeTemplateILb1EEEEppEv = comdat any

$_ZSteqIPN4cvc58internal12NodeTemplateILb1EEEEbRKSt13move_iteratorIT_ES9_ = comdat any

$_ZNKSt13move_iteratorIPN4cvc58internal12NodeTemplateILb1EEEE4baseEv = comdat any

$_ZNSt13move_iteratorIPN4cvc58internal12NodeTemplateILb1EEEEC2ES4_ = comdat any

$_ZSt22__copy_move_backward_aILb1EPN4cvc58internal12NodeTemplateILb1EEES4_ET1_T0_S6_S5_ = comdat any

$_ZSt12__miter_baseIPN4cvc58internal12NodeTemplateILb1EEEET_S5_ = comdat any

$_ZSt12__niter_wrapIPN4cvc58internal12NodeTemplateILb1EEEET_RKS5_S5_ = comdat any

$_ZSt23__copy_move_backward_a1ILb1EPN4cvc58internal12NodeTemplateILb1EEES4_ET1_T0_S6_S5_ = comdat any

$_ZSt12__niter_baseIPN4cvc58internal12NodeTemplateILb1EEEET_S5_ = comdat any

$_ZSt23__copy_move_backward_a2ILb1EPN4cvc58internal12NodeTemplateILb1EEES4_ET1_T0_S6_S5_ = comdat any

$_ZNSt20__copy_move_backwardILb1ELb0ESt26random_access_iterator_tagE13__copy_move_bIPN4cvc58internal12NodeTemplateILb1EEES7_EET0_T_S9_S8_ = comdat any

$_ZSt13__copy_move_aILb0EN9__gnu_cxx17__normal_iteratorIPKN4cvc58internal12NodeTemplateILb1EEESt6vectorIS5_SaIS5_EEEENS1_IPS5_SA_EEET1_T0_SF_SE_ = comdat any

$_ZSt12__miter_baseIN9__gnu_cxx17__normal_iteratorIPKN4cvc58internal12NodeTemplateILb1EEESt6vectorIS5_SaIS5_EEEEET_SC_ = comdat any

$_ZSt12__niter_wrapIN9__gnu_cxx17__normal_iteratorIPN4cvc58internal12NodeTemplateILb1EEESt6vectorIS5_SaIS5_EEEES6_ET_SB_T0_ = comdat any

$_ZSt14__copy_move_a1ILb0EPKN4cvc58internal12NodeTemplateILb1EEEPS3_ET1_T0_S8_S7_ = comdat any

$_ZSt12__niter_baseIPKN4cvc58internal12NodeTemplateILb1EEESt6vectorIS3_SaIS3_EEET_N9__gnu_cxx17__normal_iteratorIS9_T0_EE = comdat any

$_ZSt12__niter_baseIPN4cvc58internal12NodeTemplateILb1EEESt6vectorIS3_SaIS3_EEET_N9__gnu_cxx17__normal_iteratorIS8_T0_EE = comdat any

$_ZSt14__copy_move_a2ILb0EPKN4cvc58internal12NodeTemplateILb1EEEPS3_ET1_T0_S8_S7_ = comdat any

$_ZNSt11__copy_moveILb0ELb0ESt26random_access_iterator_tagE8__copy_mIPKN4cvc58internal12NodeTemplateILb1EEEPS6_EET0_T_SB_SA_ = comdat any

$_ZSt9__advanceIN9__gnu_cxx17__normal_iteratorIPKN4cvc58internal12NodeTemplateILb1EEESt6vectorIS5_SaIS5_EEEElEvRT_T0_St26random_access_iterator_tag = comdat any

$_ZN9__gnu_cxx17__normal_iteratorIPKN4cvc58internal12NodeTemplateILb1EEESt6vectorIS4_SaIS4_EEEppEv = comdat any

$_ZN9__gnu_cxx17__normal_iteratorIPKN4cvc58internal12NodeTemplateILb1EEESt6vectorIS4_SaIS4_EEEmmEv = comdat any

$_ZN9__gnu_cxx17__normal_iteratorIPKN4cvc58internal12NodeTemplateILb1EEESt6vectorIS4_SaIS4_EEEpLEl = comdat any

$_ZSt18uninitialized_copyIN9__gnu_cxx17__normal_iteratorIPKN4cvc58internal12NodeTemplateILb1EEESt6vectorIS5_SaIS5_EEEEPS5_ET0_T_SE_SD_ = comdat any

$_ZNSt20__uninitialized_copyILb0EE13__uninit_copyIN9__gnu_cxx17__normal_iteratorIPKN4cvc58internal12NodeTemplateILb1EEESt6vectorIS7_SaIS7_EEEEPS7_EET0_T_SG_SF_ = comdat any

$_ZSt16__do_uninit_copyIN9__gnu_cxx17__normal_iteratorIPKN4cvc58internal12NodeTemplateILb1EEESt6vectorIS5_SaIS5_EEEEPS5_ET0_T_SE_SD_ = comdat any

$_ZSt10_ConstructIN4cvc58internal12NodeTemplateILb1EEEJRKS3_EEvPT_DpOT0_ = comdat any

$_ZNK9__gnu_cxx17__normal_iteratorIPKN4cvc58internal12NodeTemplateILb1EEESt6vectorIS4_SaIS4_EEEdeEv = comdat any

$_ZNKSt6vectorIN4cvc58internal12NodeTemplateILb1EEESaIS3_EE8max_sizeEv = comdat any

$_ZNSt6vectorIN4cvc58internal12NodeTemplateILb1EEESaIS3_EE11_S_max_sizeERKS4_ = comdat any

$_ZNKSt12_Vector_baseIN4cvc58internal12NodeTemplateILb1EEESaIS3_EE19_M_get_Tp_allocatorEv = comdat any

$_ZNSt16allocator_traitsISaIN4cvc58internal12NodeTemplateILb1EEEEE8max_sizeERKS4_ = comdat any

$_ZNKSt15__new_allocatorIN4cvc58internal12NodeTemplateILb1EEEE8max_sizeEv = comdat any

$_ZNKSt15__new_allocatorIN4cvc58internal12NodeTemplateILb1EEEE11_M_max_sizeEv = comdat any

$_ZNSt16allocator_traitsISaIN4cvc58internal12NodeTemplateILb1EEEEE8allocateERS4_m = comdat any

$_ZNSt15__new_allocatorIN4cvc58internal12NodeTemplateILb1EEEE8allocateEmPKv = comdat any

$_ZSt22__uninitialized_copy_aIPKN4cvc58internal12NodeTemplateILb1EEEPS3_S3_ET0_T_S8_S7_RSaIT1_E = comdat any

$_ZSt32__make_move_if_noexcept_iteratorIN4cvc58internal12NodeTemplateILb1EEEPKS3_ET0_PT_ = comdat any

$_ZSt18uninitialized_copyIPKN4cvc58internal12NodeTemplateILb1EEEPS3_ET0_T_S8_S7_ = comdat any

$_ZNSt20__uninitialized_copyILb0EE13__uninit_copyIPKN4cvc58internal12NodeTemplateILb1EEEPS5_EET0_T_SA_S9_ = comdat any

$_ZSt16__do_uninit_copyIPKN4cvc58internal12NodeTemplateILb1EEEPS3_ET0_T_S8_S7_ = comdat any

$_ZNKSt10unique_ptrIN4cvc58internal6theory14TypeEnumeratorESt14default_deleteIS3_EE3getEv = comdat any

$_ZNKSt15__uniq_ptr_implIN4cvc58internal6theory14TypeEnumeratorESt14default_deleteIS3_EE6_M_ptrEv = comdat any

$_ZSt3getILm0EJPN4cvc58internal6theory14TypeEnumeratorESt14default_deleteIS3_EEERKNSt13tuple_elementIXT_ESt5tupleIJDpT0_EEE4typeERKSB_ = comdat any

$_ZSt12__get_helperILm0EPN4cvc58internal6theory14TypeEnumeratorEJSt14default_deleteIS3_EEERKT0_RKSt11_Tuple_implIXT_EJS7_DpT1_EE = comdat any

$_ZNSt11_Tuple_implILm0EJPN4cvc58internal6theory14TypeEnumeratorESt14default_deleteIS3_EEE7_M_headERKS7_ = comdat any

$_ZNSt10_Head_baseILm0EPN4cvc58internal6theory14TypeEnumeratorELb0EE7_M_headERKS5_ = comdat any

$_ZSt9__find_ifIN9__gnu_cxx17__normal_iteratorIPN4cvc58internal12NodeTemplateILb1EEESt6vectorIS5_SaIS5_EEEENS0_5__ops16_Iter_equals_valIKS5_EEET_SF_SF_T0_ = comdat any

$_ZN9__gnu_cxx5__ops17__iter_equals_valIKN4cvc58internal12NodeTemplateILb1EEEEENS0_16_Iter_equals_valIT_EERS8_ = comdat any

$_ZSt9__find_ifIN9__gnu_cxx17__normal_iteratorIPN4cvc58internal12NodeTemplateILb1EEESt6vectorIS5_SaIS5_EEEENS0_5__ops16_Iter_equals_valIKS5_EEET_SF_SF_T0_St26random_access_iterator_tag = comdat any

$_ZSt19__iterator_categoryIN9__gnu_cxx17__normal_iteratorIPN4cvc58internal12NodeTemplateILb1EEESt6vectorIS5_SaIS5_EEEEENSt15iterator_traitsIT_E17iterator_categoryERKSC_ = comdat any

$_ZN9__gnu_cxx5__ops16_Iter_equals_valIKN4cvc58internal12NodeTemplateILb1EEEEclINS_17__normal_iteratorIPS5_St6vectorIS5_SaIS5_EEEEEEbT_ = comdat any

$_ZN9__gnu_cxx5__ops16_Iter_equals_valIKN4cvc58internal12NodeTemplateILb1EEEEC2ERS6_ = comdat any

$_ZNSt8_Rb_treeIN4cvc58internal12NodeTemplateILb1EEESt4pairIKS3_S3_ESt10_Select1stIS6_ESt4lessIS3_ESaIS6_EE4findERS5_ = comdat any

$_ZNSt8_Rb_treeIN4cvc58internal12NodeTemplateILb1EEESt4pairIKS3_S3_ESt10_Select1stIS6_ESt4lessIS3_ESaIS6_EE14_M_lower_boundEPSt13_Rb_tree_nodeIS6_EPSt18_Rb_tree_node_baseRS5_ = comdat any

$_ZNSt8_Rb_treeIN4cvc58internal12NodeTemplateILb1EEESt4pairIKS3_S3_ESt10_Select1stIS6_ESt4lessIS3_ESaIS6_EE6_M_endEv = comdat any

$_ZNSt8_Rb_treeIN4cvc58internal12NodeTemplateILb1EEESt4pairIKS3_S3_ESt10_Select1stIS6_ESt4lessIS3_ESaIS6_EE3endEv = comdat any

$_ZNKSt4lessIN4cvc58internal12NodeTemplateILb1EEEEclERKS3_S6_ = comdat any

$_ZNSt8_Rb_treeIN4cvc58internal12NodeTemplateILb1EEESt4pairIKS3_S3_ESt10_Select1stIS6_ESt4lessIS3_ESaIS6_EE6_S_keyEPKSt18_Rb_tree_node_base = comdat any

$_ZNSt8_Rb_treeIN4cvc58internal12NodeTemplateILb1EEESt4pairIKS3_S3_ESt10_Select1stIS6_ESt4lessIS3_ESaIS6_EE6_S_keyEPKSt13_Rb_tree_nodeIS6_E = comdat any

$_ZNSt17_Rb_tree_iteratorISt4pairIKN4cvc58internal12NodeTemplateILb1EEES4_EEC2EPSt18_Rb_tree_node_base = comdat any

$_ZNKSt10_Select1stISt4pairIKN4cvc58internal12NodeTemplateILb1EEES4_EEclERKS6_ = comdat any

$_ZNKSt13_Rb_tree_nodeISt4pairIKN4cvc58internal12NodeTemplateILb1EEES4_EE9_M_valptrEv = comdat any

$_ZNK9__gnu_cxx16__aligned_membufISt4pairIKN4cvc58internal12NodeTemplateILb1EEES5_EE6_M_ptrEv = comdat any

$_ZNK9__gnu_cxx16__aligned_membufISt4pairIKN4cvc58internal12NodeTemplateILb1EEES5_EE7_M_addrEv = comdat any

$_ZNK4cvc58internal12NodeTemplateILb1EEltILb1EEEbRKNS1_IXT_EEE = comdat any

$_ZN4cvc58internal12NodeTemplateILb0EEC2EPKNS0_4expr9NodeValueE = comdat any

$_ZNSt10_HashtableIN4cvc58internal12NodeTemplateILb1EEES3_SaIS3_ENSt8__detail9_IdentityESt8equal_toIS3_ESt4hashIS3_ENS5_18_Mod_range_hashingENS5_20_Default_ranged_hashENS5_20_Prime_rehash_policyENS5_17_Hashtable_traitsILb1ELb1ELb1EEEE4findERKS3_ = comdat any

$_ZNKSt10_HashtableIN4cvc58internal12NodeTemplateILb1EEES3_SaIS3_ENSt8__detail9_IdentityESt8equal_toIS3_ESt4hashIS3_ENS5_18_Mod_range_hashingENS5_20_Default_ranged_hashENS5_20_Prime_rehash_policyENS5_17_Hashtable_traitsILb1ELb1ELb1EEEE4sizeEv = comdat any

$_ZNSt10_HashtableIN4cvc58internal12NodeTemplateILb1EEES3_SaIS3_ENSt8__detail9_IdentityESt8equal_toIS3_ESt4hashIS3_ENS5_18_Mod_range_hashingENS5_20_Default_ranged_hashENS5_20_Prime_rehash_policyENS5_17_Hashtable_traitsILb1ELb1ELb1EEEE22__small_size_thresholdEv = comdat any

$_ZNSt10_HashtableIN4cvc58internal12NodeTemplateILb1EEES3_SaIS3_ENSt8__detail9_IdentityESt8equal_toIS3_ESt4hashIS3_ENS5_18_Mod_range_hashingENS5_20_Default_ranged_hashENS5_20_Prime_rehash_policyENS5_17_Hashtable_traitsILb1ELb1ELb1EEEE5beginEv = comdat any

$_ZNSt10_HashtableIN4cvc58internal12NodeTemplateILb1EEES3_SaIS3_ENSt8__detail9_IdentityESt8equal_toIS3_ESt4hashIS3_ENS5_18_Mod_range_hashingENS5_20_Default_ranged_hashENS5_20_Prime_rehash_policyENS5_17_Hashtable_traitsILb1ELb1ELb1EEEE3endEv = comdat any

$_ZNKSt8__detail15_Hashtable_baseIN4cvc58internal12NodeTemplateILb1EEES4_NS_9_IdentityESt8equal_toIS4_ESt4hashIS4_ENS_18_Mod_range_hashingENS_20_Default_ranged_hashENS_17_Hashtable_traitsILb1ELb1ELb1EEEE13_M_key_equalsERKS4_RKNS_16_Hash_node_valueIS4_Lb1EEE = comdat any

$_ZNSt8__detail14_Node_iteratorIN4cvc58internal12NodeTemplateILb1EEELb1ELb1EEppEv = comdat any

$_ZNKSt8__detail15_Hash_code_baseIN4cvc58internal12NodeTemplateILb1EEES4_NS_9_IdentityESt4hashIS4_ENS_18_Mod_range_hashingENS_20_Default_ranged_hashELb1EE12_M_hash_codeERKS4_ = comdat any

$_ZNKSt10_HashtableIN4cvc58internal12NodeTemplateILb1EEES3_SaIS3_ENSt8__detail9_IdentityESt8equal_toIS3_ESt4hashIS3_ENS5_18_Mod_range_hashingENS5_20_Default_ranged_hashENS5_20_Prime_rehash_policyENS5_17_Hashtable_traitsILb1ELb1ELb1EEEE15_M_bucket_indexEm = comdat any

$_ZNKSt10_HashtableIN4cvc58internal12NodeTemplateILb1EEES3_SaIS3_ENSt8__detail9_IdentityESt8equal_toIS3_ESt4hashIS3_ENS5_18_Mod_range_hashingENS5_20_Default_ranged_hashENS5_20_Prime_rehash_policyENS5_17_Hashtable_traitsILb1ELb1ELb1EEEE12_M_find_nodeEmRKS3_m = comdat any

$_ZNSt8__detail14_Node_iteratorIN4cvc58internal12NodeTemplateILb1EEELb1ELb1EEC2EPNS_10_Hash_nodeIS4_Lb1EEE = comdat any

$_ZNSt8__detail22_Hashtable_hash_traitsISt4hashIN4cvc58internal12NodeTemplateILb1EEEEE22__small_size_thresholdEv = comdat any

$_ZNKSt8__detail15_Hashtable_baseIN4cvc58internal12NodeTemplateILb1EEES4_NS_9_IdentityESt8equal_toIS4_ESt4hashIS4_ENS_18_Mod_range_hashingENS_20_Default_ranged_hashENS_17_Hashtable_traitsILb1ELb1ELb1EEEE5_M_eqEv = comdat any

$_ZNKSt8equal_toIN4cvc58internal12NodeTemplateILb1EEEEclERKS3_S6_ = comdat any

$_ZNKSt8__detail9_IdentityclIRKN4cvc58internal12NodeTemplateILb1EEEEEOT_S9_ = comdat any

$_ZNKSt8__detail21_Hash_node_value_baseIN4cvc58internal12NodeTemplateILb1EEEE4_M_vEv = comdat any

$_ZNKSt8__detail21_Hashtable_ebo_helperILi0ESt8equal_toIN4cvc58internal12NodeTemplateILb1EEEELb1EE7_M_cgetEv = comdat any

$_ZNKSt8__detail21_Hash_node_value_baseIN4cvc58internal12NodeTemplateILb1EEEE9_M_valptrEv = comdat any

$_ZNK9__gnu_cxx16__aligned_bufferIN4cvc58internal12NodeTemplateILb1EEEE6_M_ptrEv = comdat any

$_ZNK9__gnu_cxx16__aligned_bufferIN4cvc58internal12NodeTemplateILb1EEEE7_M_addrEv = comdat any

$_ZNSt8__detail19_Node_iterator_baseIN4cvc58internal12NodeTemplateILb1EEELb1EE7_M_incrEv = comdat any

$_ZNKSt8__detail15_Hash_code_baseIN4cvc58internal12NodeTemplateILb1EEES4_NS_9_IdentityESt4hashIS4_ENS_18_Mod_range_hashingENS_20_Default_ranged_hashELb1EE7_M_hashEv = comdat any

$_ZNKSt8__detail21_Hashtable_ebo_helperILi1ESt4hashIN4cvc58internal12NodeTemplateILb1EEEELb1EE7_M_cgetEv = comdat any

$_ZNKSt8__detail15_Hash_code_baseIN4cvc58internal12NodeTemplateILb1EEES4_NS_9_IdentityESt4hashIS4_ENS_18_Mod_range_hashingENS_20_Default_ranged_hashELb1EE15_M_bucket_indexEmm = comdat any

$_ZNKSt8__detail18_Mod_range_hashingclEmm = comdat any

$_ZNKSt10_HashtableIN4cvc58internal12NodeTemplateILb1EEES3_SaIS3_ENSt8__detail9_IdentityESt8equal_toIS3_ESt4hashIS3_ENS5_18_Mod_range_hashingENS5_20_Default_ranged_hashENS5_20_Prime_rehash_policyENS5_17_Hashtable_traitsILb1ELb1ELb1EEEE19_M_find_before_nodeEmRKS3_m = comdat any

$_ZNKSt8__detail15_Hashtable_baseIN4cvc58internal12NodeTemplateILb1EEES4_NS_9_IdentityESt8equal_toIS4_ESt4hashIS4_ENS_18_Mod_range_hashingENS_20_Default_ranged_hashENS_17_Hashtable_traitsILb1ELb1ELb1EEEE9_M_equalsERKS4_mRKNS_16_Hash_node_valueIS4_Lb1EEE = comdat any

$_ZNKSt10_HashtableIN4cvc58internal12NodeTemplateILb1EEES3_SaIS3_ENSt8__detail9_IdentityESt8equal_toIS3_ESt4hashIS3_ENS5_18_Mod_range_hashingENS5_20_Default_ranged_hashENS5_20_Prime_rehash_policyENS5_17_Hashtable_traitsILb1ELb1ELb1EEEE15_M_bucket_indexERKNS5_16_Hash_node_valueIS3_Lb1EEE = comdat any

$_ZNSt8__detail15_Hashtable_baseIN4cvc58internal12NodeTemplateILb1EEES4_NS_9_IdentityESt8equal_toIS4_ESt4hashIS4_ENS_18_Mod_range_hashingENS_20_Default_ranged_hashENS_17_Hashtable_traitsILb1ELb1ELb1EEEE9_S_equalsEmRKNS_21_Hash_node_code_cacheILb1EEE = comdat any

$_ZNKSt8__detail15_Hash_code_baseIN4cvc58internal12NodeTemplateILb1EEES4_NS_9_IdentityESt4hashIS4_ENS_18_Mod_range_hashingENS_20_Default_ranged_hashELb1EE15_M_bucket_indexERKNS_16_Hash_node_valueIS4_Lb1EEEm = comdat any

$_ZNSt8__detail19_Node_iterator_baseIN4cvc58internal12NodeTemplateILb1EEELb1EEC2EPNS_10_Hash_nodeIS4_Lb1EEE = comdat any

$_ZNK4cvc58internal4expr9NodeValue5beginINS0_12NodeTemplateILb0EEEEENS2_8iteratorIT_EEv = comdat any

$_ZN4cvc58internal4expr9NodeValue8iteratorINS0_12NodeTemplateILb0EEEEC2EPKPKS2_ = comdat any

$_ZNK4cvc58internal4expr9NodeValue3endINS0_12NodeTemplateILb0EEEEENS2_8iteratorIT_EEv = comdat any

$_ZNSt8__detail7_InsertIN4cvc58internal12NodeTemplateILb1EEES4_SaIS4_ENS_9_IdentityESt8equal_toIS4_ESt4hashIS4_ENS_18_Mod_range_hashingENS_20_Default_ranged_hashENS_20_Prime_rehash_policyENS_17_Hashtable_traitsILb1ELb1ELb1EEELb1EE6insertEOS4_ = comdat any

$_ZNSt8__detail12_Insert_baseIN4cvc58internal12NodeTemplateILb1EEES4_SaIS4_ENS_9_IdentityESt8equal_toIS4_ESt4hashIS4_ENS_18_Mod_range_hashingENS_20_Default_ranged_hashENS_20_Prime_rehash_policyENS_17_Hashtable_traitsILb1ELb1ELb1EEEE20_M_conjure_hashtableEv = comdat any

$_ZNSt8__detail10_AllocNodeISaINS_10_Hash_nodeIN4cvc58internal12NodeTemplateILb1EEELb1EEEEEC2ERNS_16_Hashtable_allocIS7_EE = comdat any

$_ZNSt10_HashtableIN4cvc58internal12NodeTemplateILb1EEES3_SaIS3_ENSt8__detail9_IdentityESt8equal_toIS3_ESt4hashIS3_ENS5_18_Mod_range_hashingENS5_20_Default_ranged_hashENS5_20_Prime_rehash_policyENS5_17_Hashtable_traitsILb1ELb1ELb1EEEE9_M_insertIS3_NS5_10_AllocNodeISaINS5_10_Hash_nodeIS3_Lb1EEEEEEEESt4pairINS5_14_Node_iteratorIS3_Lb1ELb1EEEbEOT_RKT0_St17integral_constantIbLb1EE = comdat any

$_ZNSt10_HashtableIN4cvc58internal12NodeTemplateILb1EEES3_SaIS3_ENSt8__detail9_IdentityESt8equal_toIS3_ESt4hashIS3_ENS5_18_Mod_range_hashingENS5_20_Default_ranged_hashENS5_20_Prime_rehash_policyENS5_17_Hashtable_traitsILb1ELb1ELb1EEEE16_M_insert_uniqueIS3_S3_NS5_10_AllocNodeISaINS5_10_Hash_nodeIS3_Lb1EEEEEEEESt4pairINS5_14_Node_iteratorIS3_Lb1ELb1EEEbEOT_OT0_RKT1_ = comdat any

$_ZNSt10_HashtableIN4cvc58internal12NodeTemplateILb1EEES3_SaIS3_ENSt8__detail9_IdentityESt8equal_toIS3_ESt4hashIS3_ENS5_18_Mod_range_hashingENS5_20_Default_ranged_hashENS5_20_Prime_rehash_policyENS5_17_Hashtable_traitsILb1ELb1ELb1EEEE14_S_forward_keyEOS3_ = comdat any

$_ZNKSt8__detail9_IdentityclIN4cvc58internal12NodeTemplateILb1EEEEEOT_S7_ = comdat any

$_ZNKSt8__detail15_Hashtable_baseIN4cvc58internal12NodeTemplateILb1EEES4_NS_9_IdentityESt8equal_toIS4_ESt4hashIS4_ENS_18_Mod_range_hashingENS_20_Default_ranged_hashENS_17_Hashtable_traitsILb1ELb1ELb1EEEE16_M_key_equals_trIS4_EEbRKT_RKNS_16_Hash_node_valueIS4_Lb1EEE = comdat any

$_ZNSt4pairINSt8__detail14_Node_iteratorIN4cvc58internal12NodeTemplateILb1EEELb1ELb1EEEbEC2IRS6_bTnNSt9enable_ifIXaaclsr5_PCCPE22_MoveConstructiblePairIT_T0_EEclsr5_PCCPE30_ImplicitlyMoveConvertiblePairISB_SC_EEEbE4typeELb1EEEOSB_OSC_ = comdat any

$_ZNKSt8__detail15_Hash_code_baseIN4cvc58internal12NodeTemplateILb1EEES4_NS_9_IdentityESt4hashIS4_ENS_18_Mod_range_hashingENS_20_Default_ranged_hashELb1EE15_M_hash_code_trIS4_EEmRKT_ = comdat any

$_ZNKSt10_HashtableIN4cvc58internal12NodeTemplateILb1EEES3_SaIS3_ENSt8__detail9_IdentityESt8equal_toIS3_ESt4hashIS3_ENS5_18_Mod_range_hashingENS5_20_Default_ranged_hashENS5_20_Prime_rehash_policyENS5_17_Hashtable_traitsILb1ELb1ELb1EEEE15_M_find_node_trIS3_EEPNS5_10_Hash_nodeIS3_Lb1EEEmRKT_m = comdat any

$_ZNSt4pairINSt8__detail14_Node_iteratorIN4cvc58internal12NodeTemplateILb1EEELb1ELb1EEEbEC2IS6_bTnNSt9enable_ifIXaaclsr5_PCCPE22_MoveConstructiblePairIT_T0_EEclsr5_PCCPE30_ImplicitlyMoveConvertiblePairISA_SB_EEEbE4typeELb1EEEOSA_OSB_ = comdat any

$_ZNSt8__detail12_NodeBuilderINS_9_IdentityEE8_S_buildIN4cvc58internal12NodeTemplateILb1EEES7_NS_10_AllocNodeISaINS_10_Hash_nodeIS7_Lb1EEEEEEEEPNT1_11__node_typeEOT_OT0_RKSD_ = comdat any

$_ZNSt10_HashtableIN4cvc58internal12NodeTemplateILb1EEES3_SaIS3_ENSt8__detail9_IdentityESt8equal_toIS3_ESt4hashIS3_ENS5_18_Mod_range_hashingENS5_20_Default_ranged_hashENS5_20_Prime_rehash_policyENS5_17_Hashtable_traitsILb1ELb1ELb1EEEE12_Scoped_nodeC2EPNS5_10_Hash_nodeIS3_Lb1EEEPNS5_16_Hashtable_allocISaISJ_EEE = comdat any

$_ZNSt10_HashtableIN4cvc58internal12NodeTemplateILb1EEES3_SaIS3_ENSt8__detail9_IdentityESt8equal_toIS3_ESt4hashIS3_ENS5_18_Mod_range_hashingENS5_20_Default_ranged_hashENS5_20_Prime_rehash_policyENS5_17_Hashtable_traitsILb1ELb1ELb1EEEE21_M_insert_unique_nodeEmmPNS5_10_Hash_nodeIS3_Lb1EEEm = comdat any

$_ZNSt10_HashtableIN4cvc58internal12NodeTemplateILb1EEES3_SaIS3_ENSt8__detail9_IdentityESt8equal_toIS3_ESt4hashIS3_ENS5_18_Mod_range_hashingENS5_20_Default_ranged_hashENS5_20_Prime_rehash_policyENS5_17_Hashtable_traitsILb1ELb1ELb1EEEE12_Scoped_nodeD2Ev = comdat any

$_ZNKSt10_HashtableIN4cvc58internal12NodeTemplateILb1EEES3_SaIS3_ENSt8__detail9_IdentityESt8equal_toIS3_ESt4hashIS3_ENS5_18_Mod_range_hashingENS5_20_Default_ranged_hashENS5_20_Prime_rehash_policyENS5_17_Hashtable_traitsILb1ELb1ELb1EEEE22_M_find_before_node_trIS3_EEPNS5_15_Hash_node_baseEmRKT_m = comdat any

$_ZNKSt8__detail15_Hashtable_baseIN4cvc58internal12NodeTemplateILb1EEES4_NS_9_IdentityESt8equal_toIS4_ESt4hashIS4_ENS_18_Mod_range_hashingENS_20_Default_ranged_hashENS_17_Hashtable_traitsILb1ELb1ELb1EEEE12_M_equals_trIS4_EEbRKT_mRKNS_16_Hash_node_valueIS4_Lb1EEE = comdat any

$_ZNKSt8__detail10_AllocNodeISaINS_10_Hash_nodeIN4cvc58internal12NodeTemplateILb1EEELb1EEEEEclIJS5_EEEPS6_DpOT_ = comdat any

$_ZNSt8__detail16_Hashtable_allocISaINS_10_Hash_nodeIN4cvc58internal12NodeTemplateILb1EEELb1EEEEE16_M_allocate_nodeIJS5_EEEPS6_DpOT_ = comdat any

$_ZNSt16allocator_traitsISaINSt8__detail10_Hash_nodeIN4cvc58internal12NodeTemplateILb1EEELb1EEEEE8allocateERS7_m = comdat any

$_ZSt12__to_addressINSt8__detail10_Hash_nodeIN4cvc58internal12NodeTemplateILb1EEELb1EEEEPT_S8_ = comdat any

$_ZNSt8__detail10_Hash_nodeIN4cvc58internal12NodeTemplateILb1EEELb1EEC2Ev = comdat any

$_ZNSt16allocator_traitsISaINSt8__detail10_Hash_nodeIN4cvc58internal12NodeTemplateILb1EEELb1EEEEE9constructIS5_JS5_EEEvRS7_PT_DpOT0_ = comdat any

$_ZNSt15__new_allocatorINSt8__detail10_Hash_nodeIN4cvc58internal12NodeTemplateILb1EEELb1EEEE8allocateEmPKv = comdat any

$_ZNKSt15__new_allocatorINSt8__detail10_Hash_nodeIN4cvc58internal12NodeTemplateILb1EEELb1EEEE11_M_max_sizeEv = comdat any

$_ZNSt15__new_allocatorINSt8__detail10_Hash_nodeIN4cvc58internal12NodeTemplateILb1EEELb1EEEE9constructIS5_JS5_EEEvPT_DpOT0_ = comdat any

$_ZNKSt8__detail20_Prime_rehash_policy8_M_stateEv = comdat any

$_ZNSt10_HashtableIN4cvc58internal12NodeTemplateILb1EEES3_SaIS3_ENSt8__detail9_IdentityESt8equal_toIS3_ESt4hashIS3_ENS5_18_Mod_range_hashingENS5_20_Default_ranged_hashENS5_20_Prime_rehash_policyENS5_17_Hashtable_traitsILb1ELb1ELb1EEEE9_M_rehashEmRKm = comdat any

$_ZNKSt8__detail15_Hash_code_baseIN4cvc58internal12NodeTemplateILb1EEES4_NS_9_IdentityESt4hashIS4_ENS_18_Mod_range_hashingENS_20_Default_ranged_hashELb1EE13_M_store_codeERNS_21_Hash_node_code_cacheILb1EEEm = comdat any

$_ZNSt10_HashtableIN4cvc58internal12NodeTemplateILb1EEES3_SaIS3_ENSt8__detail9_IdentityESt8equal_toIS3_ESt4hashIS3_ENS5_18_Mod_range_hashingENS5_20_Default_ranged_hashENS5_20_Prime_rehash_policyENS5_17_Hashtable_traitsILb1ELb1ELb1EEEE22_M_insert_bucket_beginEmPNS5_10_Hash_nodeIS3_Lb1EEE = comdat any

$_ZNSt10_HashtableIN4cvc58internal12NodeTemplateILb1EEES3_SaIS3_ENSt8__detail9_IdentityESt8equal_toIS3_ESt4hashIS3_ENS5_18_Mod_range_hashingENS5_20_Default_ranged_hashENS5_20_Prime_rehash_policyENS5_17_Hashtable_traitsILb1ELb1ELb1EEEE13_M_rehash_auxEmSt17integral_constantIbLb1EE = comdat any

$_ZNSt8__detail20_Prime_rehash_policy8_M_resetEm = comdat any

$_ZNSt10_HashtableIN4cvc58internal12NodeTemplateILb1EEES3_SaIS3_ENSt8__detail9_IdentityESt8equal_toIS3_ESt4hashIS3_ENS5_18_Mod_range_hashingENS5_20_Default_ranged_hashENS5_20_Prime_rehash_policyENS5_17_Hashtable_traitsILb1ELb1ELb1EEEE19_M_allocate_bucketsEm = comdat any

$_ZNSt8__detail16_Hashtable_allocISaINS_10_Hash_nodeIN4cvc58internal12NodeTemplateILb1EEELb1EEEEE19_M_allocate_bucketsEm = comdat any

$_ZNSt16allocator_traitsISaIPNSt8__detail15_Hash_node_baseEEE8allocateERS3_m = comdat any

$_ZSt12__to_addressIPNSt8__detail15_Hash_node_baseEEPT_S4_ = comdat any

$_ZNSt15__new_allocatorIPNSt8__detail15_Hash_node_baseEE8allocateEmPKv = comdat any

$_ZNKSt15__new_allocatorIPNSt8__detail15_Hash_node_baseEE11_M_max_sizeEv = comdat any

$_ZNSt3mapIN4cvc58internal12NodeTemplateILb1EEES3_St4lessIS3_ESaISt4pairIKS3_S3_EEE11lower_boundERS7_ = comdat any

$_ZNKSt3mapIN4cvc58internal12NodeTemplateILb1EEES3_St4lessIS3_ESaISt4pairIKS3_S3_EEE8key_compEv = comdat any

$_ZNSt8_Rb_treeIN4cvc58internal12NodeTemplateILb1EEESt4pairIKS3_S3_ESt10_Select1stIS6_ESt4lessIS3_ESaIS6_EE22_M_emplace_hint_uniqueIJRKSt21piecewise_construct_tSt5tupleIJRS5_EESH_IJEEEEESt17_Rb_tree_iteratorIS6_ESt23_Rb_tree_const_iteratorIS6_EDpOT_ = comdat any

$_ZNSt23_Rb_tree_const_iteratorISt4pairIKN4cvc58internal12NodeTemplateILb1EEES4_EEC2ERKSt17_Rb_tree_iteratorIS6_E = comdat any

$_ZNSt5tupleIJRKN4cvc58internal12NodeTemplateILb1EEEEEC2ILb1ETnNSt9enable_ifIXclsr4_TCCIXT_EEE29__is_implicitly_constructibleIS5_EEEbE4typeELb1EEES5_ = comdat any

$_ZNSt8_Rb_treeIN4cvc58internal12NodeTemplateILb1EEESt4pairIKS3_S3_ESt10_Select1stIS6_ESt4lessIS3_ESaIS6_EE11lower_boundERS5_ = comdat any

$_ZNKSt8_Rb_treeIN4cvc58internal12NodeTemplateILb1EEESt4pairIKS3_S3_ESt10_Select1stIS6_ESt4lessIS3_ESaIS6_EE8key_compEv = comdat any

$_ZNSt8_Rb_treeIN4cvc58internal12NodeTemplateILb1EEESt4pairIKS3_S3_ESt10_Select1stIS6_ESt4lessIS3_ESaIS6_EE10_Auto_nodeC2IJRKSt21piecewise_construct_tSt5tupleIJRS5_EESI_IJEEEEERSC_DpOT_ = comdat any

$_ZNSt8_Rb_treeIN4cvc58internal12NodeTemplateILb1EEESt4pairIKS3_S3_ESt10_Select1stIS6_ESt4lessIS3_ESaIS6_EE29_M_get_insert_hint_unique_posESt23_Rb_tree_const_iteratorIS6_ERS5_ = comdat any

$_ZNKSt8_Rb_treeIN4cvc58internal12NodeTemplateILb1EEESt4pairIKS3_S3_ESt10_Select1stIS6_ESt4lessIS3_ESaIS6_EE10_Auto_node6_M_keyEv = comdat any

$_ZNSt8_Rb_treeIN4cvc58internal12NodeTemplateILb1EEESt4pairIKS3_S3_ESt10_Select1stIS6_ESt4lessIS3_ESaIS6_EE10_Auto_node9_M_insertES4_IPSt18_Rb_tree_node_baseSF_E = comdat any

$_ZNSt8_Rb_treeIN4cvc58internal12NodeTemplateILb1EEESt4pairIKS3_S3_ESt10_Select1stIS6_ESt4lessIS3_ESaIS6_EE10_Auto_nodeD2Ev = comdat any

$_ZNSt8_Rb_treeIN4cvc58internal12NodeTemplateILb1EEESt4pairIKS3_S3_ESt10_Select1stIS6_ESt4lessIS3_ESaIS6_EE14_M_create_nodeIJRKSt21piecewise_construct_tSt5tupleIJRS5_EESH_IJEEEEEPSt13_Rb_tree_nodeIS6_EDpOT_ = comdat any

$_ZNSt8_Rb_treeIN4cvc58internal12NodeTemplateILb1EEESt4pairIKS3_S3_ESt10_Select1stIS6_ESt4lessIS3_ESaIS6_EE11_M_get_nodeEv = comdat any

$_ZNSt8_Rb_treeIN4cvc58internal12NodeTemplateILb1EEESt4pairIKS3_S3_ESt10_Select1stIS6_ESt4lessIS3_ESaIS6_EE17_M_construct_nodeIJRKSt21piecewise_construct_tSt5tupleIJRS5_EESH_IJEEEEEvPSt13_Rb_tree_nodeIS6_EDpOT_ = comdat any

$_ZNSt16allocator_traitsISaISt13_Rb_tree_nodeISt4pairIKN4cvc58internal12NodeTemplateILb1EEES5_EEEE8allocateERS9_m = comdat any

$_ZNSt15__new_allocatorISt13_Rb_tree_nodeISt4pairIKN4cvc58internal12NodeTemplateILb1EEES5_EEE8allocateEmPKv = comdat any

$_ZNKSt15__new_allocatorISt13_Rb_tree_nodeISt4pairIKN4cvc58internal12NodeTemplateILb1EEES5_EEE11_M_max_sizeEv = comdat any

$_ZNSt16allocator_traitsISaISt13_Rb_tree_nodeISt4pairIKN4cvc58internal12NodeTemplateILb1EEES5_EEEE9constructIS7_JRKSt21piecewise_construct_tSt5tupleIJRS6_EESF_IJEEEEEvRS9_PT_DpOT0_ = comdat any

$_ZNSt15__new_allocatorISt13_Rb_tree_nodeISt4pairIKN4cvc58internal12NodeTemplateILb1EEES5_EEE9constructIS7_JRKSt21piecewise_construct_tSt5tupleIJRS6_EESE_IJEEEEEvPT_DpOT0_ = comdat any

$_ZNSt5tupleIJRKN4cvc58internal12NodeTemplateILb1EEEEEC2EOS6_ = comdat any

$_ZNSt4pairIKN4cvc58internal12NodeTemplateILb1EEES3_EC2IJRS4_EJEEESt21piecewise_construct_tSt5tupleIJDpT_EES9_IJDpT0_EE = comdat any

$_ZNSt11_Tuple_implILm0EJRKN4cvc58internal12NodeTemplateILb1EEEEEC2EOS6_ = comdat any

$_ZNSt4pairIKN4cvc58internal12NodeTemplateILb1EEES3_EC2IJRS4_EJLm0EEJETpTnmJEEERSt5tupleIJDpT_EERS8_IJDpT1_EESt12_Index_tupleIJXspT0_EEESH_IJXspT2_EEE = comdat any

$_ZSt3getILm0EJRKN4cvc58internal12NodeTemplateILb1EEEEERNSt13tuple_elementIXT_ESt5tupleIJDpT0_EEE4typeERSA_ = comdat any

$_ZSt12__get_helperILm0ERKN4cvc58internal12NodeTemplateILb1EEEJEERT0_RSt11_Tuple_implIXT_EJS6_DpT1_EE = comdat any

$_ZNSt11_Tuple_implILm0EJRKN4cvc58internal12NodeTemplateILb1EEEEE7_M_headERS6_ = comdat any

$_ZNSt10_Head_baseILm0ERKN4cvc58internal12NodeTemplateILb1EEELb0EE7_M_headERS6_ = comdat any

$_ZNKSt23_Rb_tree_const_iteratorISt4pairIKN4cvc58internal12NodeTemplateILb1EEES4_EE13_M_const_castEv = comdat any

$_ZNKSt8_Rb_treeIN4cvc58internal12NodeTemplateILb1EEESt4pairIKS3_S3_ESt10_Select1stIS6_ESt4lessIS3_ESaIS6_EE4sizeEv = comdat any

$_ZNSt8_Rb_treeIN4cvc58internal12NodeTemplateILb1EEESt4pairIKS3_S3_ESt10_Select1stIS6_ESt4lessIS3_ESaIS6_EE12_M_rightmostEv = comdat any

$_ZNSt8_Rb_treeIN4cvc58internal12NodeTemplateILb1EEESt4pairIKS3_S3_ESt10_Select1stIS6_ESt4lessIS3_ESaIS6_EE24_M_get_insert_unique_posERS5_ = comdat any

$_ZNSt8_Rb_treeIN4cvc58internal12NodeTemplateILb1EEESt4pairIKS3_S3_ESt10_Select1stIS6_ESt4lessIS3_ESaIS6_EE11_M_leftmostEv = comdat any

$_ZNSt17_Rb_tree_iteratorISt4pairIKN4cvc58internal12NodeTemplateILb1EEES4_EEmmEv = comdat any

$_ZNSt8_Rb_treeIN4cvc58internal12NodeTemplateILb1EEESt4pairIKS3_S3_ESt10_Select1stIS6_ESt4lessIS3_ESaIS6_EE5beginEv = comdat any

$_ZNSt4pairIPSt18_Rb_tree_node_baseS1_EC2IRPSt13_Rb_tree_nodeIS_IKN4cvc58internal12NodeTemplateILb1EEES8_EERS1_TnNSt9enable_ifIXaaclsr5_PCCPE22_MoveConstructiblePairIT_T0_EEclsr5_PCCPE30_ImplicitlyMoveConvertiblePairISG_SH_EEEbE4typeELb1EEEOSG_OSH_ = comdat any

$_ZNSt8_Rb_treeIN4cvc58internal12NodeTemplateILb1EEESt4pairIKS3_S3_ESt10_Select1stIS6_ESt4lessIS3_ESaIS6_EE14_M_insert_nodeEPSt18_Rb_tree_node_baseSE_PSt13_Rb_tree_nodeIS6_E = comdat any

$_ZNSt11_Tuple_implILm0EJRKN4cvc58internal12NodeTemplateILb1EEEEEC2ES5_ = comdat any

$_ZNSt10_Head_baseILm0ERKN4cvc58internal12NodeTemplateILb1EEELb0EEC2ES5_ = comdat any

$_ZNKSt8_Rb_treeIN4cvc58internal12NodeTemplateILb1EEES3_St9_IdentityIS3_ESt4lessIS3_ESaIS3_EE5beginEv = comdat any

$_ZNSt23_Rb_tree_const_iteratorIN4cvc58internal12NodeTemplateILb1EEEEC2EPKSt18_Rb_tree_node_base = comdat any

$_ZNKSt8_Rb_treeIN4cvc58internal12NodeTemplateILb1EEES3_St9_IdentityIS3_ESt4lessIS3_ESaIS3_EE3endEv = comdat any

$_ZNKSt13_Rb_tree_nodeIN4cvc58internal12NodeTemplateILb1EEEE9_M_valptrEv = comdat any

$_ZNK9__gnu_cxx16__aligned_membufIN4cvc58internal12NodeTemplateILb1EEEE6_M_ptrEv = comdat any

$_ZNK9__gnu_cxx16__aligned_membufIN4cvc58internal12NodeTemplateILb1EEEE7_M_addrEv = comdat any

$_ZNK4cvc58internal12NodeTemplateILb1EE11getMetaKindEv = comdat any

$_ZNSt8_Rb_treeIN4cvc58internal12NodeTemplateILb1EEESt4pairIKS3_bESt10_Select1stIS6_ESt4lessIS3_ESaIS6_EE4findERS5_ = comdat any

$_ZNSt8_Rb_treeIN4cvc58internal12NodeTemplateILb1EEESt4pairIKS3_bESt10_Select1stIS6_ESt4lessIS3_ESaIS6_EE14_M_lower_boundEPSt13_Rb_tree_nodeIS6_EPSt18_Rb_tree_node_baseRS5_ = comdat any

$_ZNSt8_Rb_treeIN4cvc58internal12NodeTemplateILb1EEESt4pairIKS3_bESt10_Select1stIS6_ESt4lessIS3_ESaIS6_EE8_M_beginEv = comdat any

$_ZNSt8_Rb_treeIN4cvc58internal12NodeTemplateILb1EEESt4pairIKS3_bESt10_Select1stIS6_ESt4lessIS3_ESaIS6_EE6_M_endEv = comdat any

$_ZNSt8_Rb_treeIN4cvc58internal12NodeTemplateILb1EEESt4pairIKS3_bESt10_Select1stIS6_ESt4lessIS3_ESaIS6_EE3endEv = comdat any

$_ZNSt8_Rb_treeIN4cvc58internal12NodeTemplateILb1EEESt4pairIKS3_bESt10_Select1stIS6_ESt4lessIS3_ESaIS6_EE6_S_keyEPKSt18_Rb_tree_node_base = comdat any

$_ZNSt8_Rb_treeIN4cvc58internal12NodeTemplateILb1EEESt4pairIKS3_bESt10_Select1stIS6_ESt4lessIS3_ESaIS6_EE6_S_keyEPKSt13_Rb_tree_nodeIS6_E = comdat any

$_ZNSt8_Rb_treeIN4cvc58internal12NodeTemplateILb1EEESt4pairIKS3_bESt10_Select1stIS6_ESt4lessIS3_ESaIS6_EE7_S_leftEPSt18_Rb_tree_node_base = comdat any

$_ZNSt8_Rb_treeIN4cvc58internal12NodeTemplateILb1EEESt4pairIKS3_bESt10_Select1stIS6_ESt4lessIS3_ESaIS6_EE8_S_rightEPSt18_Rb_tree_node_base = comdat any

$_ZNSt17_Rb_tree_iteratorISt4pairIKN4cvc58internal12NodeTemplateILb1EEEbEEC2EPSt18_Rb_tree_node_base = comdat any

$_ZNKSt10_Select1stISt4pairIKN4cvc58internal12NodeTemplateILb1EEEbEEclERKS6_ = comdat any

$_ZNKSt13_Rb_tree_nodeISt4pairIKN4cvc58internal12NodeTemplateILb1EEEbEE9_M_valptrEv = comdat any

$_ZNK9__gnu_cxx16__aligned_membufISt4pairIKN4cvc58internal12NodeTemplateILb1EEEbEE6_M_ptrEv = comdat any

$_ZNK9__gnu_cxx16__aligned_membufISt4pairIKN4cvc58internal12NodeTemplateILb1EEEbEE7_M_addrEv = comdat any

$_ZNKSt8_Rb_treeIN4cvc58internal12NodeTemplateILb1EEESt4pairIKS3_bESt10_Select1stIS6_ESt4lessIS3_ESaIS6_EE9_M_mbeginEv = comdat any

$_ZNSt3mapIN4cvc58internal12NodeTemplateILb1EEEbSt4lessIS3_ESaISt4pairIKS3_bEEE11lower_boundERS7_ = comdat any

$_ZNKSt3mapIN4cvc58internal12NodeTemplateILb1EEEbSt4lessIS3_ESaISt4pairIKS3_bEEE8key_compEv = comdat any

$_ZNKSt17_Rb_tree_iteratorISt4pairIKN4cvc58internal12NodeTemplateILb1EEEbEEdeEv = comdat any

$_ZNSt8_Rb_treeIN4cvc58internal12NodeTemplateILb1EEESt4pairIKS3_bESt10_Select1stIS6_ESt4lessIS3_ESaIS6_EE22_M_emplace_hint_uniqueIJRKSt21piecewise_construct_tSt5tupleIJRS5_EESH_IJEEEEESt17_Rb_tree_iteratorIS6_ESt23_Rb_tree_const_iteratorIS6_EDpOT_ = comdat any

$_ZNSt23_Rb_tree_const_iteratorISt4pairIKN4cvc58internal12NodeTemplateILb1EEEbEEC2ERKSt17_Rb_tree_iteratorIS6_E = comdat any

$_ZNSt8_Rb_treeIN4cvc58internal12NodeTemplateILb1EEESt4pairIKS3_bESt10_Select1stIS6_ESt4lessIS3_ESaIS6_EE11lower_boundERS5_ = comdat any

$_ZNKSt8_Rb_treeIN4cvc58internal12NodeTemplateILb1EEESt4pairIKS3_bESt10_Select1stIS6_ESt4lessIS3_ESaIS6_EE8key_compEv = comdat any

$_ZNSt13_Rb_tree_nodeISt4pairIKN4cvc58internal12NodeTemplateILb1EEEbEE9_M_valptrEv = comdat any

$_ZN9__gnu_cxx16__aligned_membufISt4pairIKN4cvc58internal12NodeTemplateILb1EEEbEE6_M_ptrEv = comdat any

$_ZN9__gnu_cxx16__aligned_membufISt4pairIKN4cvc58internal12NodeTemplateILb1EEEbEE7_M_addrEv = comdat any

$_ZNSt8_Rb_treeIN4cvc58internal12NodeTemplateILb1EEESt4pairIKS3_bESt10_Select1stIS6_ESt4lessIS3_ESaIS6_EE10_Auto_nodeC2IJRKSt21piecewise_construct_tSt5tupleIJRS5_EESI_IJEEEEERSC_DpOT_ = comdat any

$_ZNSt8_Rb_treeIN4cvc58internal12NodeTemplateILb1EEESt4pairIKS3_bESt10_Select1stIS6_ESt4lessIS3_ESaIS6_EE29_M_get_insert_hint_unique_posESt23_Rb_tree_const_iteratorIS6_ERS5_ = comdat any

$_ZNKSt8_Rb_treeIN4cvc58internal12NodeTemplateILb1EEESt4pairIKS3_bESt10_Select1stIS6_ESt4lessIS3_ESaIS6_EE10_Auto_node6_M_keyEv = comdat any

$_ZNSt8_Rb_treeIN4cvc58internal12NodeTemplateILb1EEESt4pairIKS3_bESt10_Select1stIS6_ESt4lessIS3_ESaIS6_EE10_Auto_node9_M_insertES4_IPSt18_Rb_tree_node_baseSF_E = comdat any

$_ZNSt8_Rb_treeIN4cvc58internal12NodeTemplateILb1EEESt4pairIKS3_bESt10_Select1stIS6_ESt4lessIS3_ESaIS6_EE10_Auto_nodeD2Ev = comdat any

$_ZNSt8_Rb_treeIN4cvc58internal12NodeTemplateILb1EEESt4pairIKS3_bESt10_Select1stIS6_ESt4lessIS3_ESaIS6_EE14_M_create_nodeIJRKSt21piecewise_construct_tSt5tupleIJRS5_EESH_IJEEEEEPSt13_Rb_tree_nodeIS6_EDpOT_ = comdat any

$_ZNSt8_Rb_treeIN4cvc58internal12NodeTemplateILb1EEESt4pairIKS3_bESt10_Select1stIS6_ESt4lessIS3_ESaIS6_EE11_M_get_nodeEv = comdat any

$_ZNSt8_Rb_treeIN4cvc58internal12NodeTemplateILb1EEESt4pairIKS3_bESt10_Select1stIS6_ESt4lessIS3_ESaIS6_EE17_M_construct_nodeIJRKSt21piecewise_construct_tSt5tupleIJRS5_EESH_IJEEEEEvPSt13_Rb_tree_nodeIS6_EDpOT_ = comdat any

$_ZNSt16allocator_traitsISaISt13_Rb_tree_nodeISt4pairIKN4cvc58internal12NodeTemplateILb1EEEbEEEE8allocateERS9_m = comdat any

$_ZNSt8_Rb_treeIN4cvc58internal12NodeTemplateILb1EEESt4pairIKS3_bESt10_Select1stIS6_ESt4lessIS3_ESaIS6_EE21_M_get_Node_allocatorEv = comdat any

$_ZNSt15__new_allocatorISt13_Rb_tree_nodeISt4pairIKN4cvc58internal12NodeTemplateILb1EEEbEEE8allocateEmPKv = comdat any

$_ZNKSt15__new_allocatorISt13_Rb_tree_nodeISt4pairIKN4cvc58internal12NodeTemplateILb1EEEbEEE11_M_max_sizeEv = comdat any

$_ZNSt16allocator_traitsISaISt13_Rb_tree_nodeISt4pairIKN4cvc58internal12NodeTemplateILb1EEEbEEEE9constructIS7_JRKSt21piecewise_construct_tSt5tupleIJRS6_EESF_IJEEEEEvRS9_PT_DpOT0_ = comdat any

$_ZNSt8_Rb_treeIN4cvc58internal12NodeTemplateILb1EEESt4pairIKS3_bESt10_Select1stIS6_ESt4lessIS3_ESaIS6_EE11_M_put_nodeEPSt13_Rb_tree_nodeIS6_E = comdat any

$_ZNSt15__new_allocatorISt13_Rb_tree_nodeISt4pairIKN4cvc58internal12NodeTemplateILb1EEEbEEE9constructIS7_JRKSt21piecewise_construct_tSt5tupleIJRS6_EESE_IJEEEEEvPT_DpOT0_ = comdat any

$_ZNSt4pairIKN4cvc58internal12NodeTemplateILb1EEEbEC2IJRS4_EJEEESt21piecewise_construct_tSt5tupleIJDpT_EES9_IJDpT0_EE = comdat any

$_ZNSt4pairIKN4cvc58internal12NodeTemplateILb1EEEbEC2IJRS4_EJLm0EEJETpTnmJEEERSt5tupleIJDpT_EERS8_IJDpT1_EESt12_Index_tupleIJXspT0_EEESH_IJXspT2_EEE = comdat any

$_ZNSt16allocator_traitsISaISt13_Rb_tree_nodeISt4pairIKN4cvc58internal12NodeTemplateILb1EEEbEEEE10deallocateERS9_PS8_m = comdat any

$_ZNSt15__new_allocatorISt13_Rb_tree_nodeISt4pairIKN4cvc58internal12NodeTemplateILb1EEEbEEE10deallocateEPS8_m = comdat any

$_ZNKSt23_Rb_tree_const_iteratorISt4pairIKN4cvc58internal12NodeTemplateILb1EEEbEE13_M_const_castEv = comdat any

$_ZNKSt8_Rb_treeIN4cvc58internal12NodeTemplateILb1EEESt4pairIKS3_bESt10_Select1stIS6_ESt4lessIS3_ESaIS6_EE4sizeEv = comdat any

$_ZNSt8_Rb_treeIN4cvc58internal12NodeTemplateILb1EEESt4pairIKS3_bESt10_Select1stIS6_ESt4lessIS3_ESaIS6_EE12_M_rightmostEv = comdat any

$_ZNSt8_Rb_treeIN4cvc58internal12NodeTemplateILb1EEESt4pairIKS3_bESt10_Select1stIS6_ESt4lessIS3_ESaIS6_EE24_M_get_insert_unique_posERS5_ = comdat any

$_ZNSt8_Rb_treeIN4cvc58internal12NodeTemplateILb1EEESt4pairIKS3_bESt10_Select1stIS6_ESt4lessIS3_ESaIS6_EE11_M_leftmostEv = comdat any

$_ZNSt17_Rb_tree_iteratorISt4pairIKN4cvc58internal12NodeTemplateILb1EEEbEEmmEv = comdat any

$_ZNSt17_Rb_tree_iteratorISt4pairIKN4cvc58internal12NodeTemplateILb1EEEbEEppEv = comdat any

$_ZNSt8_Rb_treeIN4cvc58internal12NodeTemplateILb1EEESt4pairIKS3_bESt10_Select1stIS6_ESt4lessIS3_ESaIS6_EE5beginEv = comdat any

$_ZNSt4pairIPSt18_Rb_tree_node_baseS1_EC2IRPSt13_Rb_tree_nodeIS_IKN4cvc58internal12NodeTemplateILb1EEEbEERS1_TnNSt9enable_ifIXaaclsr5_PCCPE22_MoveConstructiblePairIT_T0_EEclsr5_PCCPE30_ImplicitlyMoveConvertiblePairISG_SH_EEEbE4typeELb1EEEOSG_OSH_ = comdat any

$_ZNSt8_Rb_treeIN4cvc58internal12NodeTemplateILb1EEESt4pairIKS3_bESt10_Select1stIS6_ESt4lessIS3_ESaIS6_EE14_M_insert_nodeEPSt18_Rb_tree_node_baseSE_PSt13_Rb_tree_nodeIS6_E = comdat any

$_ZNSt8_Rb_treeIN4cvc58internal12NodeTemplateILb1EEESt4pairIKS3_bESt10_Select1stIS6_ESt4lessIS3_ESaIS6_EE12_M_drop_nodeEPSt13_Rb_tree_nodeIS6_E = comdat any

$_ZNSt8_Rb_treeIN4cvc58internal12NodeTemplateILb1EEESt4pairIKS3_bESt10_Select1stIS6_ESt4lessIS3_ESaIS6_EE15_M_destroy_nodeEPSt13_Rb_tree_nodeIS6_E = comdat any

$_ZNSt16allocator_traitsISaISt13_Rb_tree_nodeISt4pairIKN4cvc58internal12NodeTemplateILb1EEEbEEEE7destroyIS7_EEvRS9_PT_ = comdat any

$_ZNSt15__new_allocatorISt13_Rb_tree_nodeISt4pairIKN4cvc58internal12NodeTemplateILb1EEEbEEE7destroyIS7_EEvPT_ = comdat any

$_ZNSt4pairIKN4cvc58internal12NodeTemplateILb1EEEbED2Ev = comdat any

$_ZNSt3mapIN4cvc58internal8TypeNodeEjSt4lessIS2_ESaISt4pairIKS2_jEEE11lower_boundERS6_ = comdat any

$_ZSteqRKSt17_Rb_tree_iteratorISt4pairIKN4cvc58internal8TypeNodeEjEES8_ = comdat any

$_ZNKSt3mapIN4cvc58internal8TypeNodeEjSt4lessIS2_ESaISt4pairIKS2_jEEE8key_compEv = comdat any

$_ZNKSt17_Rb_tree_iteratorISt4pairIKN4cvc58internal8TypeNodeEjEEdeEv = comdat any

$_ZNSt8_Rb_treeIN4cvc58internal8TypeNodeESt4pairIKS2_jESt10_Select1stIS5_ESt4lessIS2_ESaIS5_EE22_M_emplace_hint_uniqueIJRKSt21piecewise_construct_tSt5tupleIJRS4_EESG_IJEEEEESt17_Rb_tree_iteratorIS5_ESt23_Rb_tree_const_iteratorIS5_EDpOT_ = comdat any

$_ZNSt23_Rb_tree_const_iteratorISt4pairIKN4cvc58internal8TypeNodeEjEEC2ERKSt17_Rb_tree_iteratorIS5_E = comdat any

$_ZNSt8_Rb_treeIN4cvc58internal8TypeNodeESt4pairIKS2_jESt10_Select1stIS5_ESt4lessIS2_ESaIS5_EE11lower_boundERS4_ = comdat any

$_ZNSt8_Rb_treeIN4cvc58internal8TypeNodeESt4pairIKS2_jESt10_Select1stIS5_ESt4lessIS2_ESaIS5_EE14_M_lower_boundEPSt13_Rb_tree_nodeIS5_EPSt18_Rb_tree_node_baseRS4_ = comdat any

$_ZNSt8_Rb_treeIN4cvc58internal8TypeNodeESt4pairIKS2_jESt10_Select1stIS5_ESt4lessIS2_ESaIS5_EE6_M_endEv = comdat any

$_ZNSt8_Rb_treeIN4cvc58internal8TypeNodeESt4pairIKS2_jESt10_Select1stIS5_ESt4lessIS2_ESaIS5_EE6_S_keyEPKSt13_Rb_tree_nodeIS5_E = comdat any

$_ZNSt17_Rb_tree_iteratorISt4pairIKN4cvc58internal8TypeNodeEjEEC2EPSt18_Rb_tree_node_base = comdat any

$_ZNKSt10_Select1stISt4pairIKN4cvc58internal8TypeNodeEjEEclERKS5_ = comdat any

$_ZNKSt13_Rb_tree_nodeISt4pairIKN4cvc58internal8TypeNodeEjEE9_M_valptrEv = comdat any

$_ZNK9__gnu_cxx16__aligned_membufISt4pairIKN4cvc58internal8TypeNodeEjEE6_M_ptrEv = comdat any

$_ZNK9__gnu_cxx16__aligned_membufISt4pairIKN4cvc58internal8TypeNodeEjEE7_M_addrEv = comdat any

$_ZNKSt8_Rb_treeIN4cvc58internal8TypeNodeESt4pairIKS2_jESt10_Select1stIS5_ESt4lessIS2_ESaIS5_EE8key_compEv = comdat any

$_ZNSt8_Rb_treeIN4cvc58internal8TypeNodeESt4pairIKS2_jESt10_Select1stIS5_ESt4lessIS2_ESaIS5_EE10_Auto_nodeC2IJRKSt21piecewise_construct_tSt5tupleIJRS4_EESH_IJEEEEERSB_DpOT_ = comdat any

$_ZNSt8_Rb_treeIN4cvc58internal8TypeNodeESt4pairIKS2_jESt10_Select1stIS5_ESt4lessIS2_ESaIS5_EE29_M_get_insert_hint_unique_posESt23_Rb_tree_const_iteratorIS5_ERS4_ = comdat any

$_ZNKSt8_Rb_treeIN4cvc58internal8TypeNodeESt4pairIKS2_jESt10_Select1stIS5_ESt4lessIS2_ESaIS5_EE10_Auto_node6_M_keyEv = comdat any

$_ZNSt8_Rb_treeIN4cvc58internal8TypeNodeESt4pairIKS2_jESt10_Select1stIS5_ESt4lessIS2_ESaIS5_EE10_Auto_node9_M_insertES3_IPSt18_Rb_tree_node_baseSE_E = comdat any

$_ZNSt8_Rb_treeIN4cvc58internal8TypeNodeESt4pairIKS2_jESt10_Select1stIS5_ESt4lessIS2_ESaIS5_EE10_Auto_nodeD2Ev = comdat any

$_ZNSt8_Rb_treeIN4cvc58internal8TypeNodeESt4pairIKS2_jESt10_Select1stIS5_ESt4lessIS2_ESaIS5_EE14_M_create_nodeIJRKSt21piecewise_construct_tSt5tupleIJRS4_EESG_IJEEEEEPSt13_Rb_tree_nodeIS5_EDpOT_ = comdat any

$_ZNSt8_Rb_treeIN4cvc58internal8TypeNodeESt4pairIKS2_jESt10_Select1stIS5_ESt4lessIS2_ESaIS5_EE11_M_get_nodeEv = comdat any

$_ZNSt8_Rb_treeIN4cvc58internal8TypeNodeESt4pairIKS2_jESt10_Select1stIS5_ESt4lessIS2_ESaIS5_EE17_M_construct_nodeIJRKSt21piecewise_construct_tSt5tupleIJRS4_EESG_IJEEEEEvPSt13_Rb_tree_nodeIS5_EDpOT_ = comdat any

$_ZNSt16allocator_traitsISaISt13_Rb_tree_nodeISt4pairIKN4cvc58internal8TypeNodeEjEEEE8allocateERS8_m = comdat any

$_ZNSt15__new_allocatorISt13_Rb_tree_nodeISt4pairIKN4cvc58internal8TypeNodeEjEEE8allocateEmPKv = comdat any

$_ZNKSt15__new_allocatorISt13_Rb_tree_nodeISt4pairIKN4cvc58internal8TypeNodeEjEEE11_M_max_sizeEv = comdat any

$_ZNSt16allocator_traitsISaISt13_Rb_tree_nodeISt4pairIKN4cvc58internal8TypeNodeEjEEEE9constructIS6_JRKSt21piecewise_construct_tSt5tupleIJRS5_EESE_IJEEEEEvRS8_PT_DpOT0_ = comdat any

$_ZNSt15__new_allocatorISt13_Rb_tree_nodeISt4pairIKN4cvc58internal8TypeNodeEjEEE9constructIS6_JRKSt21piecewise_construct_tSt5tupleIJRS5_EESD_IJEEEEEvPT_DpOT0_ = comdat any

$_ZNSt4pairIKN4cvc58internal8TypeNodeEjEC2IJRS3_EJEEESt21piecewise_construct_tSt5tupleIJDpT_EES8_IJDpT0_EE = comdat any

$_ZNSt4pairIKN4cvc58internal8TypeNodeEjEC2IJRS3_EJLm0EEJETpTnmJEEERSt5tupleIJDpT_EERS7_IJDpT1_EESt12_Index_tupleIJXspT0_EEESG_IJXspT2_EEE = comdat any

$_ZNKSt23_Rb_tree_const_iteratorISt4pairIKN4cvc58internal8TypeNodeEjEE13_M_const_castEv = comdat any

$_ZNKSt8_Rb_treeIN4cvc58internal8TypeNodeESt4pairIKS2_jESt10_Select1stIS5_ESt4lessIS2_ESaIS5_EE4sizeEv = comdat any

$_ZNSt8_Rb_treeIN4cvc58internal8TypeNodeESt4pairIKS2_jESt10_Select1stIS5_ESt4lessIS2_ESaIS5_EE6_S_keyEPKSt18_Rb_tree_node_base = comdat any

$_ZNSt8_Rb_treeIN4cvc58internal8TypeNodeESt4pairIKS2_jESt10_Select1stIS5_ESt4lessIS2_ESaIS5_EE12_M_rightmostEv = comdat any

$_ZNSt8_Rb_treeIN4cvc58internal8TypeNodeESt4pairIKS2_jESt10_Select1stIS5_ESt4lessIS2_ESaIS5_EE24_M_get_insert_unique_posERS4_ = comdat any

$_ZNSt8_Rb_treeIN4cvc58internal8TypeNodeESt4pairIKS2_jESt10_Select1stIS5_ESt4lessIS2_ESaIS5_EE11_M_leftmostEv = comdat any

$_ZNSt17_Rb_tree_iteratorISt4pairIKN4cvc58internal8TypeNodeEjEEmmEv = comdat any

$_ZNSt8_Rb_treeIN4cvc58internal8TypeNodeESt4pairIKS2_jESt10_Select1stIS5_ESt4lessIS2_ESaIS5_EE5beginEv = comdat any

$_ZNSt4pairIPSt18_Rb_tree_node_baseS1_EC2IRPSt13_Rb_tree_nodeIS_IKN4cvc58internal8TypeNodeEjEERS1_TnNSt9enable_ifIXaaclsr5_PCCPE22_MoveConstructiblePairIT_T0_EEclsr5_PCCPE30_ImplicitlyMoveConvertiblePairISF_SG_EEEbE4typeELb1EEEOSF_OSG_ = comdat any

$_ZNSt8_Rb_treeIN4cvc58internal8TypeNodeESt4pairIKS2_jESt10_Select1stIS5_ESt4lessIS2_ESaIS5_EE14_M_insert_nodeEPSt18_Rb_tree_node_baseSD_PSt13_Rb_tree_nodeIS5_E = comdat any

$_ZN9__gnu_cxx17__normal_iteratorIPN4cvc58internal8TypeNodeESt6vectorIS3_SaIS3_EEEC2ERKS4_ = comdat any

$_ZSt9__find_ifIN9__gnu_cxx17__normal_iteratorIPN4cvc58internal8TypeNodeESt6vectorIS4_SaIS4_EEEENS0_5__ops16_Iter_equals_valIKS4_EEET_SE_SE_T0_ = comdat any

$_ZN9__gnu_cxx5__ops17__iter_equals_valIKN4cvc58internal8TypeNodeEEENS0_16_Iter_equals_valIT_EERS7_ = comdat any

$_ZSt9__find_ifIN9__gnu_cxx17__normal_iteratorIPN4cvc58internal8TypeNodeESt6vectorIS4_SaIS4_EEEENS0_5__ops16_Iter_equals_valIKS4_EEET_SE_SE_T0_St26random_access_iterator_tag = comdat any

$_ZSt19__iterator_categoryIN9__gnu_cxx17__normal_iteratorIPN4cvc58internal8TypeNodeESt6vectorIS4_SaIS4_EEEEENSt15iterator_traitsIT_E17iterator_categoryERKSB_ = comdat any

$_ZN9__gnu_cxxmiIPN4cvc58internal8TypeNodeESt6vectorIS3_SaIS3_EEEENS_17__normal_iteratorIT_T0_E15difference_typeERKSB_SE_ = comdat any

$_ZN9__gnu_cxx5__ops16_Iter_equals_valIKN4cvc58internal8TypeNodeEEclINS_17__normal_iteratorIPS4_St6vectorIS4_SaIS4_EEEEEEbT_ = comdat any

$_ZNK9__gnu_cxx17__normal_iteratorIPN4cvc58internal8TypeNodeESt6vectorIS3_SaIS3_EEE4baseEv = comdat any

$_ZN9__gnu_cxx5__ops16_Iter_equals_valIKN4cvc58internal8TypeNodeEEC2ERS5_ = comdat any

$_ZNSt10_HashtableIN4cvc58internal8TypeNodeES2_SaIS2_ENSt8__detail9_IdentityESt8equal_toIS2_ESt4hashIS2_ENS4_18_Mod_range_hashingENS4_20_Default_ranged_hashENS4_20_Prime_rehash_policyENS4_17_Hashtable_traitsILb1ELb1ELb1EEEE4findERKS2_ = comdat any

$_ZNKSt10_HashtableIN4cvc58internal8TypeNodeES2_SaIS2_ENSt8__detail9_IdentityESt8equal_toIS2_ESt4hashIS2_ENS4_18_Mod_range_hashingENS4_20_Default_ranged_hashENS4_20_Prime_rehash_policyENS4_17_Hashtable_traitsILb1ELb1ELb1EEEE4sizeEv = comdat any

$_ZNSt10_HashtableIN4cvc58internal8TypeNodeES2_SaIS2_ENSt8__detail9_IdentityESt8equal_toIS2_ESt4hashIS2_ENS4_18_Mod_range_hashingENS4_20_Default_ranged_hashENS4_20_Prime_rehash_policyENS4_17_Hashtable_traitsILb1ELb1ELb1EEEE22__small_size_thresholdEv = comdat any

$_ZNSt10_HashtableIN4cvc58internal8TypeNodeES2_SaIS2_ENSt8__detail9_IdentityESt8equal_toIS2_ESt4hashIS2_ENS4_18_Mod_range_hashingENS4_20_Default_ranged_hashENS4_20_Prime_rehash_policyENS4_17_Hashtable_traitsILb1ELb1ELb1EEEE5beginEv = comdat any

$_ZNSt8__detailneERKNS_19_Node_iterator_baseIN4cvc58internal8TypeNodeELb1EEES6_ = comdat any

$_ZNSt10_HashtableIN4cvc58internal8TypeNodeES2_SaIS2_ENSt8__detail9_IdentityESt8equal_toIS2_ESt4hashIS2_ENS4_18_Mod_range_hashingENS4_20_Default_ranged_hashENS4_20_Prime_rehash_policyENS4_17_Hashtable_traitsILb1ELb1ELb1EEEE3endEv = comdat any

$_ZNKSt8__detail15_Hashtable_baseIN4cvc58internal8TypeNodeES3_NS_9_IdentityESt8equal_toIS3_ESt4hashIS3_ENS_18_Mod_range_hashingENS_20_Default_ranged_hashENS_17_Hashtable_traitsILb1ELb1ELb1EEEE13_M_key_equalsERKS3_RKNS_16_Hash_node_valueIS3_Lb1EEE = comdat any

$_ZNSt8__detail14_Node_iteratorIN4cvc58internal8TypeNodeELb1ELb1EEppEv = comdat any

$_ZNKSt8__detail15_Hash_code_baseIN4cvc58internal8TypeNodeES3_NS_9_IdentityESt4hashIS3_ENS_18_Mod_range_hashingENS_20_Default_ranged_hashELb1EE12_M_hash_codeERKS3_ = comdat any

$_ZNKSt10_HashtableIN4cvc58internal8TypeNodeES2_SaIS2_ENSt8__detail9_IdentityESt8equal_toIS2_ESt4hashIS2_ENS4_18_Mod_range_hashingENS4_20_Default_ranged_hashENS4_20_Prime_rehash_policyENS4_17_Hashtable_traitsILb1ELb1ELb1EEEE15_M_bucket_indexEm = comdat any

$_ZNKSt10_HashtableIN4cvc58internal8TypeNodeES2_SaIS2_ENSt8__detail9_IdentityESt8equal_toIS2_ESt4hashIS2_ENS4_18_Mod_range_hashingENS4_20_Default_ranged_hashENS4_20_Prime_rehash_policyENS4_17_Hashtable_traitsILb1ELb1ELb1EEEE12_M_find_nodeEmRKS2_m = comdat any

$_ZNSt8__detail14_Node_iteratorIN4cvc58internal8TypeNodeELb1ELb1EEC2EPNS_10_Hash_nodeIS3_Lb1EEE = comdat any

$_ZNSt8__detail22_Hashtable_hash_traitsISt4hashIN4cvc58internal8TypeNodeEEE22__small_size_thresholdEv = comdat any

$_ZNKSt8__detail15_Hashtable_baseIN4cvc58internal8TypeNodeES3_NS_9_IdentityESt8equal_toIS3_ESt4hashIS3_ENS_18_Mod_range_hashingENS_20_Default_ranged_hashENS_17_Hashtable_traitsILb1ELb1ELb1EEEE5_M_eqEv = comdat any

$_ZNKSt8equal_toIN4cvc58internal8TypeNodeEEclERKS2_S5_ = comdat any

$_ZNKSt8__detail9_IdentityclIRKN4cvc58internal8TypeNodeEEEOT_S8_ = comdat any

$_ZNKSt8__detail21_Hash_node_value_baseIN4cvc58internal8TypeNodeEE4_M_vEv = comdat any

$_ZNKSt8__detail21_Hashtable_ebo_helperILi0ESt8equal_toIN4cvc58internal8TypeNodeEELb1EE7_M_cgetEv = comdat any

$_ZNKSt8__detail21_Hash_node_value_baseIN4cvc58internal8TypeNodeEE9_M_valptrEv = comdat any

$_ZNK9__gnu_cxx16__aligned_bufferIN4cvc58internal8TypeNodeEE6_M_ptrEv = comdat any

$_ZNK9__gnu_cxx16__aligned_bufferIN4cvc58internal8TypeNodeEE7_M_addrEv = comdat any

$_ZNSt8__detail19_Node_iterator_baseIN4cvc58internal8TypeNodeELb1EE7_M_incrEv = comdat any

$_ZNKSt8__detail15_Hash_code_baseIN4cvc58internal8TypeNodeES3_NS_9_IdentityESt4hashIS3_ENS_18_Mod_range_hashingENS_20_Default_ranged_hashELb1EE7_M_hashEv = comdat any

$_ZNKSt8__detail21_Hashtable_ebo_helperILi1ESt4hashIN4cvc58internal8TypeNodeEELb1EE7_M_cgetEv = comdat any

$_ZNKSt8__detail15_Hash_code_baseIN4cvc58internal8TypeNodeES3_NS_9_IdentityESt4hashIS3_ENS_18_Mod_range_hashingENS_20_Default_ranged_hashELb1EE15_M_bucket_indexEmm = comdat any

$_ZNKSt10_HashtableIN4cvc58internal8TypeNodeES2_SaIS2_ENSt8__detail9_IdentityESt8equal_toIS2_ESt4hashIS2_ENS4_18_Mod_range_hashingENS4_20_Default_ranged_hashENS4_20_Prime_rehash_policyENS4_17_Hashtable_traitsILb1ELb1ELb1EEEE19_M_find_before_nodeEmRKS2_m = comdat any

$_ZNKSt8__detail15_Hashtable_baseIN4cvc58internal8TypeNodeES3_NS_9_IdentityESt8equal_toIS3_ESt4hashIS3_ENS_18_Mod_range_hashingENS_20_Default_ranged_hashENS_17_Hashtable_traitsILb1ELb1ELb1EEEE9_M_equalsERKS3_mRKNS_16_Hash_node_valueIS3_Lb1EEE = comdat any

$_ZNKSt10_HashtableIN4cvc58internal8TypeNodeES2_SaIS2_ENSt8__detail9_IdentityESt8equal_toIS2_ESt4hashIS2_ENS4_18_Mod_range_hashingENS4_20_Default_ranged_hashENS4_20_Prime_rehash_policyENS4_17_Hashtable_traitsILb1ELb1ELb1EEEE15_M_bucket_indexERKNS4_16_Hash_node_valueIS2_Lb1EEE = comdat any

$_ZNSt8__detail15_Hashtable_baseIN4cvc58internal8TypeNodeES3_NS_9_IdentityESt8equal_toIS3_ESt4hashIS3_ENS_18_Mod_range_hashingENS_20_Default_ranged_hashENS_17_Hashtable_traitsILb1ELb1ELb1EEEE9_S_equalsEmRKNS_21_Hash_node_code_cacheILb1EEE = comdat any

$_ZNKSt8__detail15_Hash_code_baseIN4cvc58internal8TypeNodeES3_NS_9_IdentityESt4hashIS3_ENS_18_Mod_range_hashingENS_20_Default_ranged_hashELb1EE15_M_bucket_indexERKNS_16_Hash_node_valueIS3_Lb1EEEm = comdat any

$_ZNSt8__detail19_Node_iterator_baseIN4cvc58internal8TypeNodeELb1EEC2EPNS_10_Hash_nodeIS3_Lb1EEE = comdat any

$_ZNSt8__detail12_Insert_baseIN4cvc58internal8TypeNodeES3_SaIS3_ENS_9_IdentityESt8equal_toIS3_ESt4hashIS3_ENS_18_Mod_range_hashingENS_20_Default_ranged_hashENS_20_Prime_rehash_policyENS_17_Hashtable_traitsILb1ELb1ELb1EEEE6insertERKS3_ = comdat any

$_ZNSt8__detail12_Insert_baseIN4cvc58internal8TypeNodeES3_SaIS3_ENS_9_IdentityESt8equal_toIS3_ESt4hashIS3_ENS_18_Mod_range_hashingENS_20_Default_ranged_hashENS_20_Prime_rehash_policyENS_17_Hashtable_traitsILb1ELb1ELb1EEEE20_M_conjure_hashtableEv = comdat any

$_ZNSt8__detail10_AllocNodeISaINS_10_Hash_nodeIN4cvc58internal8TypeNodeELb1EEEEEC2ERNS_16_Hashtable_allocIS6_EE = comdat any

$_ZNSt10_HashtableIN4cvc58internal8TypeNodeES2_SaIS2_ENSt8__detail9_IdentityESt8equal_toIS2_ESt4hashIS2_ENS4_18_Mod_range_hashingENS4_20_Default_ranged_hashENS4_20_Prime_rehash_policyENS4_17_Hashtable_traitsILb1ELb1ELb1EEEE9_M_insertIRKS2_NS4_10_AllocNodeISaINS4_10_Hash_nodeIS2_Lb1EEEEEEEESt4pairINS4_14_Node_iteratorIS2_Lb1ELb1EEEbEOT_RKT0_St17integral_constantIbLb1EE = comdat any

$_ZNSt10_HashtableIN4cvc58internal8TypeNodeES2_SaIS2_ENSt8__detail9_IdentityESt8equal_toIS2_ESt4hashIS2_ENS4_18_Mod_range_hashingENS4_20_Default_ranged_hashENS4_20_Prime_rehash_policyENS4_17_Hashtable_traitsILb1ELb1ELb1EEEE16_M_insert_uniqueIRKS2_SI_NS4_10_AllocNodeISaINS4_10_Hash_nodeIS2_Lb1EEEEEEEESt4pairINS4_14_Node_iteratorIS2_Lb1ELb1EEEbEOT_OT0_RKT1_ = comdat any

$_ZNSt10_HashtableIN4cvc58internal8TypeNodeES2_SaIS2_ENSt8__detail9_IdentityESt8equal_toIS2_ESt4hashIS2_ENS4_18_Mod_range_hashingENS4_20_Default_ranged_hashENS4_20_Prime_rehash_policyENS4_17_Hashtable_traitsILb1ELb1ELb1EEEE14_S_forward_keyERKS2_ = comdat any

$_ZNKSt8__detail15_Hashtable_baseIN4cvc58internal8TypeNodeES3_NS_9_IdentityESt8equal_toIS3_ESt4hashIS3_ENS_18_Mod_range_hashingENS_20_Default_ranged_hashENS_17_Hashtable_traitsILb1ELb1ELb1EEEE16_M_key_equals_trIS3_EEbRKT_RKNS_16_Hash_node_valueIS3_Lb1EEE = comdat any

$_ZNSt4pairINSt8__detail14_Node_iteratorIN4cvc58internal8TypeNodeELb1ELb1EEEbEC2IRS5_bTnNSt9enable_ifIXaaclsr5_PCCPE22_MoveConstructiblePairIT_T0_EEclsr5_PCCPE30_ImplicitlyMoveConvertiblePairISA_SB_EEEbE4typeELb1EEEOSA_OSB_ = comdat any

$_ZNKSt8__detail15_Hash_code_baseIN4cvc58internal8TypeNodeES3_NS_9_IdentityESt4hashIS3_ENS_18_Mod_range_hashingENS_20_Default_ranged_hashELb1EE15_M_hash_code_trIS3_EEmRKT_ = comdat any

$_ZNKSt10_HashtableIN4cvc58internal8TypeNodeES2_SaIS2_ENSt8__detail9_IdentityESt8equal_toIS2_ESt4hashIS2_ENS4_18_Mod_range_hashingENS4_20_Default_ranged_hashENS4_20_Prime_rehash_policyENS4_17_Hashtable_traitsILb1ELb1ELb1EEEE15_M_find_node_trIS2_EEPNS4_10_Hash_nodeIS2_Lb1EEEmRKT_m = comdat any

$_ZNSt4pairINSt8__detail14_Node_iteratorIN4cvc58internal8TypeNodeELb1ELb1EEEbEC2IS5_bTnNSt9enable_ifIXaaclsr5_PCCPE22_MoveConstructiblePairIT_T0_EEclsr5_PCCPE30_ImplicitlyMoveConvertiblePairIS9_SA_EEEbE4typeELb1EEEOS9_OSA_ = comdat any

$_ZNSt8__detail12_NodeBuilderINS_9_IdentityEE8_S_buildIRKN4cvc58internal8TypeNodeES8_NS_10_AllocNodeISaINS_10_Hash_nodeIS6_Lb1EEEEEEEEPNT1_11__node_typeEOT_OT0_RKSE_ = comdat any

$_ZNSt10_HashtableIN4cvc58internal8TypeNodeES2_SaIS2_ENSt8__detail9_IdentityESt8equal_toIS2_ESt4hashIS2_ENS4_18_Mod_range_hashingENS4_20_Default_ranged_hashENS4_20_Prime_rehash_policyENS4_17_Hashtable_traitsILb1ELb1ELb1EEEE12_Scoped_nodeC2EPNS4_10_Hash_nodeIS2_Lb1EEEPNS4_16_Hashtable_allocISaISI_EEE = comdat any

$_ZNSt10_HashtableIN4cvc58internal8TypeNodeES2_SaIS2_ENSt8__detail9_IdentityESt8equal_toIS2_ESt4hashIS2_ENS4_18_Mod_range_hashingENS4_20_Default_ranged_hashENS4_20_Prime_rehash_policyENS4_17_Hashtable_traitsILb1ELb1ELb1EEEE21_M_insert_unique_nodeEmmPNS4_10_Hash_nodeIS2_Lb1EEEm = comdat any

$_ZNSt10_HashtableIN4cvc58internal8TypeNodeES2_SaIS2_ENSt8__detail9_IdentityESt8equal_toIS2_ESt4hashIS2_ENS4_18_Mod_range_hashingENS4_20_Default_ranged_hashENS4_20_Prime_rehash_policyENS4_17_Hashtable_traitsILb1ELb1ELb1EEEE12_Scoped_nodeD2Ev = comdat any

$_ZNKSt10_HashtableIN4cvc58internal8TypeNodeES2_SaIS2_ENSt8__detail9_IdentityESt8equal_toIS2_ESt4hashIS2_ENS4_18_Mod_range_hashingENS4_20_Default_ranged_hashENS4_20_Prime_rehash_policyENS4_17_Hashtable_traitsILb1ELb1ELb1EEEE22_M_find_before_node_trIS2_EEPNS4_15_Hash_node_baseEmRKT_m = comdat any

$_ZNKSt8__detail15_Hashtable_baseIN4cvc58internal8TypeNodeES3_NS_9_IdentityESt8equal_toIS3_ESt4hashIS3_ENS_18_Mod_range_hashingENS_20_Default_ranged_hashENS_17_Hashtable_traitsILb1ELb1ELb1EEEE12_M_equals_trIS3_EEbRKT_mRKNS_16_Hash_node_valueIS3_Lb1EEE = comdat any

$_ZNKSt8__detail10_AllocNodeISaINS_10_Hash_nodeIN4cvc58internal8TypeNodeELb1EEEEEclIJRKS4_EEEPS5_DpOT_ = comdat any

$_ZNSt8__detail16_Hashtable_allocISaINS_10_Hash_nodeIN4cvc58internal8TypeNodeELb1EEEEE16_M_allocate_nodeIJRKS4_EEEPS5_DpOT_ = comdat any

$_ZNSt16allocator_traitsISaINSt8__detail10_Hash_nodeIN4cvc58internal8TypeNodeELb1EEEEE8allocateERS6_m = comdat any

$_ZSt12__to_addressINSt8__detail10_Hash_nodeIN4cvc58internal8TypeNodeELb1EEEEPT_S7_ = comdat any

$_ZNSt8__detail10_Hash_nodeIN4cvc58internal8TypeNodeELb1EEC2Ev = comdat any

$_ZNSt16allocator_traitsISaINSt8__detail10_Hash_nodeIN4cvc58internal8TypeNodeELb1EEEEE9constructIS4_JRKS4_EEEvRS6_PT_DpOT0_ = comdat any

$_ZNSt15__new_allocatorINSt8__detail10_Hash_nodeIN4cvc58internal8TypeNodeELb1EEEE8allocateEmPKv = comdat any

$_ZNKSt15__new_allocatorINSt8__detail10_Hash_nodeIN4cvc58internal8TypeNodeELb1EEEE11_M_max_sizeEv = comdat any

$_ZNSt15__new_allocatorINSt8__detail10_Hash_nodeIN4cvc58internal8TypeNodeELb1EEEE9constructIS4_JRKS4_EEEvPT_DpOT0_ = comdat any

$_ZNSt10_HashtableIN4cvc58internal8TypeNodeES2_SaIS2_ENSt8__detail9_IdentityESt8equal_toIS2_ESt4hashIS2_ENS4_18_Mod_range_hashingENS4_20_Default_ranged_hashENS4_20_Prime_rehash_policyENS4_17_Hashtable_traitsILb1ELb1ELb1EEEE9_M_rehashEmRKm = comdat any

$_ZNKSt8__detail15_Hash_code_baseIN4cvc58internal8TypeNodeES3_NS_9_IdentityESt4hashIS3_ENS_18_Mod_range_hashingENS_20_Default_ranged_hashELb1EE13_M_store_codeERNS_21_Hash_node_code_cacheILb1EEEm = comdat any

$_ZNSt10_HashtableIN4cvc58internal8TypeNodeES2_SaIS2_ENSt8__detail9_IdentityESt8equal_toIS2_ESt4hashIS2_ENS4_18_Mod_range_hashingENS4_20_Default_ranged_hashENS4_20_Prime_rehash_policyENS4_17_Hashtable_traitsILb1ELb1ELb1EEEE22_M_insert_bucket_beginEmPNS4_10_Hash_nodeIS2_Lb1EEE = comdat any

$_ZNSt10_HashtableIN4cvc58internal8TypeNodeES2_SaIS2_ENSt8__detail9_IdentityESt8equal_toIS2_ESt4hashIS2_ENS4_18_Mod_range_hashingENS4_20_Default_ranged_hashENS4_20_Prime_rehash_policyENS4_17_Hashtable_traitsILb1ELb1ELb1EEEE13_M_rehash_auxEmSt17integral_constantIbLb1EE = comdat any

$_ZNSt10_HashtableIN4cvc58internal8TypeNodeES2_SaIS2_ENSt8__detail9_IdentityESt8equal_toIS2_ESt4hashIS2_ENS4_18_Mod_range_hashingENS4_20_Default_ranged_hashENS4_20_Prime_rehash_policyENS4_17_Hashtable_traitsILb1ELb1ELb1EEEE19_M_allocate_bucketsEm = comdat any

$_ZNSt8__detail16_Hashtable_allocISaINS_10_Hash_nodeIN4cvc58internal8TypeNodeELb1EEEEE19_M_allocate_bucketsEm = comdat any

$_ZNSt16allocator_traitsISaIN4cvc58internal8TypeNodeEEE9constructIS2_JRKS2_EEEvRS3_PT_DpOT0_ = comdat any

$_ZNSt6vectorIN4cvc58internal8TypeNodeESaIS2_EE17_M_realloc_insertIJRKS2_EEEvN9__gnu_cxx17__normal_iteratorIPS2_S4_EEDpOT_ = comdat any

$_ZNSt15__new_allocatorIN4cvc58internal8TypeNodeEE9constructIS2_JRKS2_EEEvPT_DpOT0_ = comdat any

$_ZNKSt6vectorIN4cvc58internal8TypeNodeESaIS2_EE12_M_check_lenEmPKc = comdat any

$_ZNSt12_Vector_baseIN4cvc58internal8TypeNodeESaIS2_EE11_M_allocateEm = comdat any

$_ZSt34__uninitialized_move_if_noexcept_aIPN4cvc58internal8TypeNodeES3_SaIS2_EET0_T_S6_S5_RT1_ = comdat any

$_ZNSt12_Vector_baseIN4cvc58internal8TypeNodeESaIS2_EE19_M_get_Tp_allocatorEv = comdat any

$_ZNSt16allocator_traitsISaIN4cvc58internal8TypeNodeEEE7destroyIS2_EEvRS3_PT_ = comdat any

$_ZSt8_DestroyIPN4cvc58internal8TypeNodeES2_EvT_S4_RSaIT0_E = comdat any

$_ZNSt12_Vector_baseIN4cvc58internal8TypeNodeESaIS2_EE13_M_deallocateEPS2_m = comdat any

$_ZNKSt6vectorIN4cvc58internal8TypeNodeESaIS2_EE8max_sizeEv = comdat any

$_ZNSt6vectorIN4cvc58internal8TypeNodeESaIS2_EE11_S_max_sizeERKS3_ = comdat any

$_ZNKSt12_Vector_baseIN4cvc58internal8TypeNodeESaIS2_EE19_M_get_Tp_allocatorEv = comdat any

$_ZNSt16allocator_traitsISaIN4cvc58internal8TypeNodeEEE8max_sizeERKS3_ = comdat any

$_ZNKSt15__new_allocatorIN4cvc58internal8TypeNodeEE8max_sizeEv = comdat any

$_ZNKSt15__new_allocatorIN4cvc58internal8TypeNodeEE11_M_max_sizeEv = comdat any

$_ZNSt16allocator_traitsISaIN4cvc58internal8TypeNodeEEE8allocateERS3_m = comdat any

$_ZNSt15__new_allocatorIN4cvc58internal8TypeNodeEE8allocateEmPKv = comdat any

$_ZSt22__uninitialized_copy_aIPKN4cvc58internal8TypeNodeEPS2_S2_ET0_T_S7_S6_RSaIT1_E = comdat any

$_ZSt32__make_move_if_noexcept_iteratorIN4cvc58internal8TypeNodeEPKS2_ET0_PT_ = comdat any

$_ZSt18uninitialized_copyIPKN4cvc58internal8TypeNodeEPS2_ET0_T_S7_S6_ = comdat any

$_ZNSt20__uninitialized_copyILb0EE13__uninit_copyIPKN4cvc58internal8TypeNodeEPS4_EET0_T_S9_S8_ = comdat any

$_ZSt16__do_uninit_copyIPKN4cvc58internal8TypeNodeEPS2_ET0_T_S7_S6_ = comdat any

$_ZSt10_ConstructIN4cvc58internal8TypeNodeEJRKS2_EEvPT_DpOT0_ = comdat any

$_ZSt8_DestroyIPN4cvc58internal8TypeNodeEEvT_S4_ = comdat any

$_ZNSt12_Destroy_auxILb0EE9__destroyIPN4cvc58internal8TypeNodeEEEvT_S6_ = comdat any

$_ZSt8_DestroyIN4cvc58internal8TypeNodeEEvPT_ = comdat any

$_ZNSt15__new_allocatorIN4cvc58internal8TypeNodeEE7destroyIS2_EEvPT_ = comdat any

$_ZNSt16allocator_traitsISaIN4cvc58internal8TypeNodeEEE10deallocateERS3_PS2_m = comdat any

$_ZNSt15__new_allocatorIN4cvc58internal8TypeNodeEE10deallocateEPS2_m = comdat any

$_ZNSt8_Rb_treeIN4cvc58internal12NodeTemplateILb1EEESt4pairIKS3_S3_ESt10_Select1stIS6_ESt4lessIS3_ESaIS6_EE5clearEv = comdat any

$_ZNSt12_Vector_baseIN4cvc58internal8TypeNodeESaIS2_EED2Ev = comdat any

$_ZNSt12_Vector_baseIN4cvc58internal8TypeNodeESaIS2_EE12_Vector_implD2Ev = comdat any

$_ZNSaIN4cvc58internal8TypeNodeEED2Ev = comdat any

$_ZNSt15__new_allocatorIN4cvc58internal8TypeNodeEED2Ev = comdat any

$_ZNSt8__detail12_Insert_baseIN4cvc58internal12NodeTemplateILb1EEES4_SaIS4_ENS_9_IdentityESt8equal_toIS4_ESt4hashIS4_ENS_18_Mod_range_hashingENS_20_Default_ranged_hashENS_20_Prime_rehash_policyENS_17_Hashtable_traitsILb1ELb1ELb1EEEE6insertERKS4_ = comdat any

$_ZNSt10_HashtableIN4cvc58internal12NodeTemplateILb1EEES3_SaIS3_ENSt8__detail9_IdentityESt8equal_toIS3_ESt4hashIS3_ENS5_18_Mod_range_hashingENS5_20_Default_ranged_hashENS5_20_Prime_rehash_policyENS5_17_Hashtable_traitsILb1ELb1ELb1EEEE9_M_insertIRKS3_NS5_10_AllocNodeISaINS5_10_Hash_nodeIS3_Lb1EEEEEEEESt4pairINS5_14_Node_iteratorIS3_Lb1ELb1EEEbEOT_RKT0_St17integral_constantIbLb1EE = comdat any

$_ZNSt10_HashtableIN4cvc58internal12NodeTemplateILb1EEES3_SaIS3_ENSt8__detail9_IdentityESt8equal_toIS3_ESt4hashIS3_ENS5_18_Mod_range_hashingENS5_20_Default_ranged_hashENS5_20_Prime_rehash_policyENS5_17_Hashtable_traitsILb1ELb1ELb1EEEE16_M_insert_uniqueIRKS3_SJ_NS5_10_AllocNodeISaINS5_10_Hash_nodeIS3_Lb1EEEEEEEESt4pairINS5_14_Node_iteratorIS3_Lb1ELb1EEEbEOT_OT0_RKT1_ = comdat any

$_ZNSt10_HashtableIN4cvc58internal12NodeTemplateILb1EEES3_SaIS3_ENSt8__detail9_IdentityESt8equal_toIS3_ESt4hashIS3_ENS5_18_Mod_range_hashingENS5_20_Default_ranged_hashENS5_20_Prime_rehash_policyENS5_17_Hashtable_traitsILb1ELb1ELb1EEEE14_S_forward_keyERKS3_ = comdat any

$_ZNSt8__detail12_NodeBuilderINS_9_IdentityEE8_S_buildIRKN4cvc58internal12NodeTemplateILb1EEES9_NS_10_AllocNodeISaINS_10_Hash_nodeIS7_Lb1EEEEEEEEPNT1_11__node_typeEOT_OT0_RKSF_ = comdat any

$_ZNKSt8__detail10_AllocNodeISaINS_10_Hash_nodeIN4cvc58internal12NodeTemplateILb1EEELb1EEEEEclIJRKS5_EEEPS6_DpOT_ = comdat any

$_ZNSt8__detail16_Hashtable_allocISaINS_10_Hash_nodeIN4cvc58internal12NodeTemplateILb1EEELb1EEEEE16_M_allocate_nodeIJRKS5_EEEPS6_DpOT_ = comdat any

$_ZNSt16allocator_traitsISaINSt8__detail10_Hash_nodeIN4cvc58internal12NodeTemplateILb1EEELb1EEEEE9constructIS5_JRKS5_EEEvRS7_PT_DpOT0_ = comdat any

$_ZNSt15__new_allocatorINSt8__detail10_Hash_nodeIN4cvc58internal12NodeTemplateILb1EEELb1EEEE9constructIS5_JRKS5_EEEvPT_DpOT0_ = comdat any

$_ZNSt3mapIN4cvc58internal12NodeTemplateILb1EEENS1_6theory24TheoryEngineModelBuilder8AssignerESt4lessIS3_ESaISt4pairIKS3_S6_EEE11lower_boundERSA_ = comdat any

$_ZSteqRKSt17_Rb_tree_iteratorISt4pairIKN4cvc58internal12NodeTemplateILb1EEENS2_6theory24TheoryEngineModelBuilder8AssignerEEESC_ = comdat any

$_ZNKSt3mapIN4cvc58internal12NodeTemplateILb1EEENS1_6theory24TheoryEngineModelBuilder8AssignerESt4lessIS3_ESaISt4pairIKS3_S6_EEE8key_compEv = comdat any

$_ZNKSt17_Rb_tree_iteratorISt4pairIKN4cvc58internal12NodeTemplateILb1EEENS2_6theory24TheoryEngineModelBuilder8AssignerEEEdeEv = comdat any

$_ZNSt8_Rb_treeIN4cvc58internal12NodeTemplateILb1EEESt4pairIKS3_NS1_6theory24TheoryEngineModelBuilder8AssignerEESt10_Select1stIS9_ESt4lessIS3_ESaIS9_EE22_M_emplace_hint_uniqueIJRKSt21piecewise_construct_tSt5tupleIJRS5_EESK_IJEEEEESt17_Rb_tree_iteratorIS9_ESt23_Rb_tree_const_iteratorIS9_EDpOT_ = comdat any

$_ZNSt23_Rb_tree_const_iteratorISt4pairIKN4cvc58internal12NodeTemplateILb1EEENS2_6theory24TheoryEngineModelBuilder8AssignerEEEC2ERKSt17_Rb_tree_iteratorIS9_E = comdat any

$_ZNSt8_Rb_treeIN4cvc58internal12NodeTemplateILb1EEESt4pairIKS3_NS1_6theory24TheoryEngineModelBuilder8AssignerEESt10_Select1stIS9_ESt4lessIS3_ESaIS9_EE11lower_boundERS5_ = comdat any

$_ZNSt8_Rb_treeIN4cvc58internal12NodeTemplateILb1EEESt4pairIKS3_NS1_6theory24TheoryEngineModelBuilder8AssignerEESt10_Select1stIS9_ESt4lessIS3_ESaIS9_EE14_M_lower_boundEPSt13_Rb_tree_nodeIS9_EPSt18_Rb_tree_node_baseRS5_ = comdat any

$_ZNSt8_Rb_treeIN4cvc58internal12NodeTemplateILb1EEESt4pairIKS3_NS1_6theory24TheoryEngineModelBuilder8AssignerEESt10_Select1stIS9_ESt4lessIS3_ESaIS9_EE6_M_endEv = comdat any

$_ZNSt8_Rb_treeIN4cvc58internal12NodeTemplateILb1EEESt4pairIKS3_NS1_6theory24TheoryEngineModelBuilder8AssignerEESt10_Select1stIS9_ESt4lessIS3_ESaIS9_EE6_S_keyEPKSt13_Rb_tree_nodeIS9_E = comdat any

$_ZNSt17_Rb_tree_iteratorISt4pairIKN4cvc58internal12NodeTemplateILb1EEENS2_6theory24TheoryEngineModelBuilder8AssignerEEEC2EPSt18_Rb_tree_node_base = comdat any

$_ZNKSt10_Select1stISt4pairIKN4cvc58internal12NodeTemplateILb1EEENS2_6theory24TheoryEngineModelBuilder8AssignerEEEclERKS9_ = comdat any

$_ZNKSt13_Rb_tree_nodeISt4pairIKN4cvc58internal12NodeTemplateILb1EEENS2_6theory24TheoryEngineModelBuilder8AssignerEEE9_M_valptrEv = comdat any

$_ZNK9__gnu_cxx16__aligned_membufISt4pairIKN4cvc58internal12NodeTemplateILb1EEENS3_6theory24TheoryEngineModelBuilder8AssignerEEE6_M_ptrEv = comdat any

$_ZNK9__gnu_cxx16__aligned_membufISt4pairIKN4cvc58internal12NodeTemplateILb1EEENS3_6theory24TheoryEngineModelBuilder8AssignerEEE7_M_addrEv = comdat any

$_ZNKSt8_Rb_treeIN4cvc58internal12NodeTemplateILb1EEESt4pairIKS3_NS1_6theory24TheoryEngineModelBuilder8AssignerEESt10_Select1stIS9_ESt4lessIS3_ESaIS9_EE8key_compEv = comdat any

$_ZNSt8_Rb_treeIN4cvc58internal12NodeTemplateILb1EEESt4pairIKS3_NS1_6theory24TheoryEngineModelBuilder8AssignerEESt10_Select1stIS9_ESt4lessIS3_ESaIS9_EE10_Auto_nodeC2IJRKSt21piecewise_construct_tSt5tupleIJRS5_EESL_IJEEEEERSF_DpOT_ = comdat any

$_ZNSt8_Rb_treeIN4cvc58internal12NodeTemplateILb1EEESt4pairIKS3_NS1_6theory24TheoryEngineModelBuilder8AssignerEESt10_Select1stIS9_ESt4lessIS3_ESaIS9_EE29_M_get_insert_hint_unique_posESt23_Rb_tree_const_iteratorIS9_ERS5_ = comdat any

$_ZNKSt8_Rb_treeIN4cvc58internal12NodeTemplateILb1EEESt4pairIKS3_NS1_6theory24TheoryEngineModelBuilder8AssignerEESt10_Select1stIS9_ESt4lessIS3_ESaIS9_EE10_Auto_node6_M_keyEv = comdat any

$_ZNSt8_Rb_treeIN4cvc58internal12NodeTemplateILb1EEESt4pairIKS3_NS1_6theory24TheoryEngineModelBuilder8AssignerEESt10_Select1stIS9_ESt4lessIS3_ESaIS9_EE10_Auto_node9_M_insertES4_IPSt18_Rb_tree_node_baseSI_E = comdat any

$_ZNSt8_Rb_treeIN4cvc58internal12NodeTemplateILb1EEESt4pairIKS3_NS1_6theory24TheoryEngineModelBuilder8AssignerEESt10_Select1stIS9_ESt4lessIS3_ESaIS9_EE10_Auto_nodeD2Ev = comdat any

$_ZNSt8_Rb_treeIN4cvc58internal12NodeTemplateILb1EEESt4pairIKS3_NS1_6theory24TheoryEngineModelBuilder8AssignerEESt10_Select1stIS9_ESt4lessIS3_ESaIS9_EE14_M_create_nodeIJRKSt21piecewise_construct_tSt5tupleIJRS5_EESK_IJEEEEEPSt13_Rb_tree_nodeIS9_EDpOT_ = comdat any

$_ZNSt8_Rb_treeIN4cvc58internal12NodeTemplateILb1EEESt4pairIKS3_NS1_6theory24TheoryEngineModelBuilder8AssignerEESt10_Select1stIS9_ESt4lessIS3_ESaIS9_EE11_M_get_nodeEv = comdat any

$_ZNSt8_Rb_treeIN4cvc58internal12NodeTemplateILb1EEESt4pairIKS3_NS1_6theory24TheoryEngineModelBuilder8AssignerEESt10_Select1stIS9_ESt4lessIS3_ESaIS9_EE17_M_construct_nodeIJRKSt21piecewise_construct_tSt5tupleIJRS5_EESK_IJEEEEEvPSt13_Rb_tree_nodeIS9_EDpOT_ = comdat any

$_ZNSt16allocator_traitsISaISt13_Rb_tree_nodeISt4pairIKN4cvc58internal12NodeTemplateILb1EEENS3_6theory24TheoryEngineModelBuilder8AssignerEEEEE8allocateERSC_m = comdat any

$_ZNSt15__new_allocatorISt13_Rb_tree_nodeISt4pairIKN4cvc58internal12NodeTemplateILb1EEENS3_6theory24TheoryEngineModelBuilder8AssignerEEEE8allocateEmPKv = comdat any

$_ZNKSt15__new_allocatorISt13_Rb_tree_nodeISt4pairIKN4cvc58internal12NodeTemplateILb1EEENS3_6theory24TheoryEngineModelBuilder8AssignerEEEE11_M_max_sizeEv = comdat any

$_ZNSt16allocator_traitsISaISt13_Rb_tree_nodeISt4pairIKN4cvc58internal12NodeTemplateILb1EEENS3_6theory24TheoryEngineModelBuilder8AssignerEEEEE9constructISA_JRKSt21piecewise_construct_tSt5tupleIJRS6_EESI_IJEEEEEvRSC_PT_DpOT0_ = comdat any

$_ZNSt15__new_allocatorISt13_Rb_tree_nodeISt4pairIKN4cvc58internal12NodeTemplateILb1EEENS3_6theory24TheoryEngineModelBuilder8AssignerEEEE9constructISA_JRKSt21piecewise_construct_tSt5tupleIJRS6_EESH_IJEEEEEvPT_DpOT0_ = comdat any

$_ZNSt4pairIKN4cvc58internal12NodeTemplateILb1EEENS1_6theory24TheoryEngineModelBuilder8AssignerEEC2IJRS4_EJEEESt21piecewise_construct_tSt5tupleIJDpT_EESC_IJDpT0_EE = comdat any

$_ZNSt4pairIKN4cvc58internal12NodeTemplateILb1EEENS1_6theory24TheoryEngineModelBuilder8AssignerEEC2IJRS4_EJLm0EEJETpTnmJEEERSt5tupleIJDpT_EERSB_IJDpT1_EESt12_Index_tupleIJXspT0_EEESK_IJXspT2_EEE = comdat any

$_ZN4cvc58internal6theory24TheoryEngineModelBuilder8AssignerC2Ev = comdat any

$_ZNSt10unique_ptrIN4cvc58internal6theory14TypeEnumeratorESt14default_deleteIS3_EEC2IS5_vEEDn = comdat any

$_ZNSt15__uniq_ptr_dataIN4cvc58internal6theory14TypeEnumeratorESt14default_deleteIS3_ELb1ELb1EEC2Ev = comdat any

$_ZNSt15__uniq_ptr_implIN4cvc58internal6theory14TypeEnumeratorESt14default_deleteIS3_EEC2Ev = comdat any

$_ZNSt5tupleIJPN4cvc58internal6theory14TypeEnumeratorESt14default_deleteIS3_EEEC2ILb1ETnNSt9enable_ifIXclsr17_TupleConstraintsIXT_ES4_S6_EE37__is_implicitly_default_constructibleEEbE4typeELb1EEEv = comdat any

$_ZNSt11_Tuple_implILm0EJPN4cvc58internal6theory14TypeEnumeratorESt14default_deleteIS3_EEEC2Ev = comdat any

$_ZNSt11_Tuple_implILm1EJSt14default_deleteIN4cvc58internal6theory14TypeEnumeratorEEEEC2Ev = comdat any

$_ZNSt10_Head_baseILm0EPN4cvc58internal6theory14TypeEnumeratorELb0EEC2Ev = comdat any

$_ZNSt10_Head_baseILm1ESt14default_deleteIN4cvc58internal6theory14TypeEnumeratorEELb1EEC2Ev = comdat any

$_ZNKSt23_Rb_tree_const_iteratorISt4pairIKN4cvc58internal12NodeTemplateILb1EEENS2_6theory24TheoryEngineModelBuilder8AssignerEEE13_M_const_castEv = comdat any

$_ZNKSt8_Rb_treeIN4cvc58internal12NodeTemplateILb1EEESt4pairIKS3_NS1_6theory24TheoryEngineModelBuilder8AssignerEESt10_Select1stIS9_ESt4lessIS3_ESaIS9_EE4sizeEv = comdat any

$_ZNSt8_Rb_treeIN4cvc58internal12NodeTemplateILb1EEESt4pairIKS3_NS1_6theory24TheoryEngineModelBuilder8AssignerEESt10_Select1stIS9_ESt4lessIS3_ESaIS9_EE6_S_keyEPKSt18_Rb_tree_node_base = comdat any

$_ZNSt8_Rb_treeIN4cvc58internal12NodeTemplateILb1EEESt4pairIKS3_NS1_6theory24TheoryEngineModelBuilder8AssignerEESt10_Select1stIS9_ESt4lessIS3_ESaIS9_EE12_M_rightmostEv = comdat any

$_ZNSt8_Rb_treeIN4cvc58internal12NodeTemplateILb1EEESt4pairIKS3_NS1_6theory24TheoryEngineModelBuilder8AssignerEESt10_Select1stIS9_ESt4lessIS3_ESaIS9_EE24_M_get_insert_unique_posERS5_ = comdat any

$_ZNSt8_Rb_treeIN4cvc58internal12NodeTemplateILb1EEESt4pairIKS3_NS1_6theory24TheoryEngineModelBuilder8AssignerEESt10_Select1stIS9_ESt4lessIS3_ESaIS9_EE11_M_leftmostEv = comdat any

$_ZNSt17_Rb_tree_iteratorISt4pairIKN4cvc58internal12NodeTemplateILb1EEENS2_6theory24TheoryEngineModelBuilder8AssignerEEEmmEv = comdat any

$_ZNSt17_Rb_tree_iteratorISt4pairIKN4cvc58internal12NodeTemplateILb1EEENS2_6theory24TheoryEngineModelBuilder8AssignerEEEppEv = comdat any

$_ZNSt8_Rb_treeIN4cvc58internal12NodeTemplateILb1EEESt4pairIKS3_NS1_6theory24TheoryEngineModelBuilder8AssignerEESt10_Select1stIS9_ESt4lessIS3_ESaIS9_EE5beginEv = comdat any

$_ZNSt4pairIPSt18_Rb_tree_node_baseS1_EC2IRPSt13_Rb_tree_nodeIS_IKN4cvc58internal12NodeTemplateILb1EEENS6_6theory24TheoryEngineModelBuilder8AssignerEEERS1_TnNSt9enable_ifIXaaclsr5_PCCPE22_MoveConstructiblePairIT_T0_EEclsr5_PCCPE30_ImplicitlyMoveConvertiblePairISJ_SK_EEEbE4typeELb1EEEOSJ_OSK_ = comdat any

$_ZNSt8_Rb_treeIN4cvc58internal12NodeTemplateILb1EEESt4pairIKS3_NS1_6theory24TheoryEngineModelBuilder8AssignerEESt10_Select1stIS9_ESt4lessIS3_ESaIS9_EE14_M_insert_nodeEPSt18_Rb_tree_node_baseSH_PSt13_Rb_tree_nodeIS9_E = comdat any

$_ZNSt16allocator_traitsISaIN4cvc58internal12NodeTemplateILb1EEEEE9constructIS3_JRKS3_EEEvRS4_PT_DpOT0_ = comdat any

$_ZNSt6vectorIN4cvc58internal12NodeTemplateILb1EEESaIS3_EE17_M_realloc_insertIJRKS3_EEEvN9__gnu_cxx17__normal_iteratorIPS3_S5_EEDpOT_ = comdat any

$_ZNSt15__new_allocatorIN4cvc58internal12NodeTemplateILb1EEEE9constructIS3_JRKS3_EEEvPT_DpOT0_ = comdat any

$_ZNSt16allocator_traitsISaIN4cvc58internal12NodeTemplateILb1EEEEE7destroyIS3_EEvRS4_PT_ = comdat any

$_ZNSt15__new_allocatorIN4cvc58internal12NodeTemplateILb1EEEE7destroyIS3_EEvPT_ = comdat any

$_ZNSt8_Rb_treeIN4cvc58internal8TypeNodeESt4pairIKS2_jESt10_Select1stIS5_ESt4lessIS2_ESaIS5_EE3endEv = comdat any

$_ZNSt8_Rb_treeIN4cvc58internal8TypeNodeES2_St9_IdentityIS2_ESt4lessIS2_ESaIS2_EE5clearEv = comdat any

$_ZNKSt8_Rb_treeIN4cvc58internal12NodeTemplateILb1EEES3_St9_IdentityIS3_ESt4lessIS3_ESaIS3_EE5emptyEv = comdat any

$_ZNSt8_Rb_treeIN4cvc58internal12NodeTemplateILb1EEES3_St9_IdentityIS3_ESt4lessIS3_ESaIS3_EE5eraseB5cxx11ESt23_Rb_tree_const_iteratorIS3_E = comdat any

$_ZNSt23_Rb_tree_const_iteratorIN4cvc58internal12NodeTemplateILb1EEEEC2ERKSt17_Rb_tree_iteratorIS3_E = comdat any

$_ZNSt8_Rb_treeIN4cvc58internal12NodeTemplateILb1EEES3_St9_IdentityIS3_ESt4lessIS3_ESaIS3_EE12_M_erase_auxESt23_Rb_tree_const_iteratorIS3_E = comdat any

$_ZNKSt23_Rb_tree_const_iteratorIN4cvc58internal12NodeTemplateILb1EEEE13_M_const_castEv = comdat any

$_ZNSt8_Rb_treeIN4cvc58internal12NodeTemplateILb1EEES3_St9_IdentityIS3_ESt4lessIS3_ESaIS3_EE12_M_drop_nodeEPSt13_Rb_tree_nodeIS3_E = comdat any

$_ZNSt8_Rb_treeIN4cvc58internal12NodeTemplateILb1EEES3_St9_IdentityIS3_ESt4lessIS3_ESaIS3_EE15_M_destroy_nodeEPSt13_Rb_tree_nodeIS3_E = comdat any

$_ZNSt8_Rb_treeIN4cvc58internal12NodeTemplateILb1EEES3_St9_IdentityIS3_ESt4lessIS3_ESaIS3_EE11_M_put_nodeEPSt13_Rb_tree_nodeIS3_E = comdat any

$_ZNSt16allocator_traitsISaISt13_Rb_tree_nodeIN4cvc58internal12NodeTemplateILb1EEEEEE7destroyIS4_EEvRS6_PT_ = comdat any

$_ZNSt8_Rb_treeIN4cvc58internal12NodeTemplateILb1EEES3_St9_IdentityIS3_ESt4lessIS3_ESaIS3_EE21_M_get_Node_allocatorEv = comdat any

$_ZNSt13_Rb_tree_nodeIN4cvc58internal12NodeTemplateILb1EEEE9_M_valptrEv = comdat any

$_ZNSt15__new_allocatorISt13_Rb_tree_nodeIN4cvc58internal12NodeTemplateILb1EEEEE7destroyIS4_EEvPT_ = comdat any

$_ZN9__gnu_cxx16__aligned_membufIN4cvc58internal12NodeTemplateILb1EEEE6_M_ptrEv = comdat any

$_ZN9__gnu_cxx16__aligned_membufIN4cvc58internal12NodeTemplateILb1EEEE7_M_addrEv = comdat any

$_ZNSt16allocator_traitsISaISt13_Rb_tree_nodeIN4cvc58internal12NodeTemplateILb1EEEEEE10deallocateERS6_PS5_m = comdat any

$_ZNSt15__new_allocatorISt13_Rb_tree_nodeIN4cvc58internal12NodeTemplateILb1EEEEE10deallocateEPS5_m = comdat any

$_ZNSt17_Rb_tree_iteratorIN4cvc58internal12NodeTemplateILb1EEEEC2EPSt18_Rb_tree_node_base = comdat any

$_ZNSt8_Rb_treeIN4cvc58internal8TypeNodeES2_St9_IdentityIS2_ESt4lessIS2_ESaIS2_EE16_M_insert_uniqueIRKS2_EESt4pairISt17_Rb_tree_iteratorIS2_EbEOT_ = comdat any

$_ZNSt4pairISt23_Rb_tree_const_iteratorIN4cvc58internal8TypeNodeEEbEC2IRSt17_Rb_tree_iteratorIS3_ERbTnNSt9enable_ifIXaaclsr5_PCCPE22_MoveConstructiblePairIT_T0_EEclsr5_PCCPE30_ImplicitlyMoveConvertiblePairISC_SD_EEEbE4typeELb1EEEOSC_OSD_ = comdat any

$_ZNSt8_Rb_treeIN4cvc58internal8TypeNodeES2_St9_IdentityIS2_ESt4lessIS2_ESaIS2_EE24_M_get_insert_unique_posERKS2_ = comdat any

$_ZNKSt9_IdentityIN4cvc58internal8TypeNodeEEclERKS2_ = comdat any

$_ZNSt8_Rb_treeIN4cvc58internal8TypeNodeES2_St9_IdentityIS2_ESt4lessIS2_ESaIS2_EE11_Alloc_nodeC2ERS8_ = comdat any

$_ZNSt8_Rb_treeIN4cvc58internal8TypeNodeES2_St9_IdentityIS2_ESt4lessIS2_ESaIS2_EE10_M_insert_IRKS2_NS8_11_Alloc_nodeEEESt17_Rb_tree_iteratorIS2_EPSt18_Rb_tree_node_baseSG_OT_RT0_ = comdat any

$_ZNSt4pairISt17_Rb_tree_iteratorIN4cvc58internal8TypeNodeEEbEC2IS4_bTnNSt9enable_ifIXaaclsr5_PCCPE22_MoveConstructiblePairIT_T0_EEclsr5_PCCPE30_ImplicitlyMoveConvertiblePairIS8_S9_EEEbE4typeELb1EEEOS8_OS9_ = comdat any

$_ZNSt17_Rb_tree_iteratorIN4cvc58internal8TypeNodeEEC2EPSt18_Rb_tree_node_base = comdat any

$_ZNSt8_Rb_treeIN4cvc58internal8TypeNodeES2_St9_IdentityIS2_ESt4lessIS2_ESaIS2_EE6_M_endEv = comdat any

$_ZNSt8_Rb_treeIN4cvc58internal8TypeNodeES2_St9_IdentityIS2_ESt4lessIS2_ESaIS2_EE6_S_keyEPKSt13_Rb_tree_nodeIS2_E = comdat any

$_ZSteqRKSt17_Rb_tree_iteratorIN4cvc58internal8TypeNodeEES5_ = comdat any

$_ZNSt8_Rb_treeIN4cvc58internal8TypeNodeES2_St9_IdentityIS2_ESt4lessIS2_ESaIS2_EE5beginEv = comdat any

$_ZNSt4pairIPSt18_Rb_tree_node_baseS1_EC2IRPSt13_Rb_tree_nodeIN4cvc58internal8TypeNodeEERS1_TnNSt9enable_ifIXaaclsr5_PCCPE22_MoveConstructiblePairIT_T0_EEclsr5_PCCPE30_ImplicitlyMoveConvertiblePairISD_SE_EEEbE4typeELb1EEEOSD_OSE_ = comdat any

$_ZNSt17_Rb_tree_iteratorIN4cvc58internal8TypeNodeEEmmEv = comdat any

$_ZNSt8_Rb_treeIN4cvc58internal8TypeNodeES2_St9_IdentityIS2_ESt4lessIS2_ESaIS2_EE6_S_keyEPKSt18_Rb_tree_node_base = comdat any

$_ZNKSt13_Rb_tree_nodeIN4cvc58internal8TypeNodeEE9_M_valptrEv = comdat any

$_ZNK9__gnu_cxx16__aligned_membufIN4cvc58internal8TypeNodeEE6_M_ptrEv = comdat any

$_ZNK9__gnu_cxx16__aligned_membufIN4cvc58internal8TypeNodeEE7_M_addrEv = comdat any

$_ZNKSt8_Rb_treeIN4cvc58internal8TypeNodeES2_St9_IdentityIS2_ESt4lessIS2_ESaIS2_EE11_Alloc_nodeclIRKS2_EEPSt13_Rb_tree_nodeIS2_EOT_ = comdat any

$_ZNSt8_Rb_treeIN4cvc58internal8TypeNodeES2_St9_IdentityIS2_ESt4lessIS2_ESaIS2_EE14_M_create_nodeIJRKS2_EEEPSt13_Rb_tree_nodeIS2_EDpOT_ = comdat any

$_ZNSt8_Rb_treeIN4cvc58internal8TypeNodeES2_St9_IdentityIS2_ESt4lessIS2_ESaIS2_EE11_M_get_nodeEv = comdat any

$_ZNSt8_Rb_treeIN4cvc58internal8TypeNodeES2_St9_IdentityIS2_ESt4lessIS2_ESaIS2_EE17_M_construct_nodeIJRKS2_EEEvPSt13_Rb_tree_nodeIS2_EDpOT_ = comdat any

$_ZNSt16allocator_traitsISaISt13_Rb_tree_nodeIN4cvc58internal8TypeNodeEEEE8allocateERS5_m = comdat any

$_ZNSt15__new_allocatorISt13_Rb_tree_nodeIN4cvc58internal8TypeNodeEEE8allocateEmPKv = comdat any

$_ZNKSt15__new_allocatorISt13_Rb_tree_nodeIN4cvc58internal8TypeNodeEEE11_M_max_sizeEv = comdat any

$_ZNSt16allocator_traitsISaISt13_Rb_tree_nodeIN4cvc58internal8TypeNodeEEEE9constructIS3_JRKS3_EEEvRS5_PT_DpOT0_ = comdat any

$_ZNSt15__new_allocatorISt13_Rb_tree_nodeIN4cvc58internal8TypeNodeEEE9constructIS3_JRKS3_EEEvPT_DpOT0_ = comdat any

$_ZNSt23_Rb_tree_const_iteratorIN4cvc58internal8TypeNodeEEC2ERKSt17_Rb_tree_iteratorIS2_E = comdat any

$_ZNSt8_Rb_treeIN4cvc58internal12NodeTemplateILb1EEESt4pairIKS3_S3_ESt10_Select1stIS6_ESt4lessIS3_ESaIS6_EE5eraseERS5_ = comdat any

$_ZNSt8_Rb_treeIN4cvc58internal12NodeTemplateILb1EEESt4pairIKS3_S3_ESt10_Select1stIS6_ESt4lessIS3_ESaIS6_EE11equal_rangeERS5_ = comdat any

$_ZNSt8_Rb_treeIN4cvc58internal12NodeTemplateILb1EEESt4pairIKS3_S3_ESt10_Select1stIS6_ESt4lessIS3_ESaIS6_EE12_M_erase_auxESt23_Rb_tree_const_iteratorIS6_ESE_ = comdat any

$_ZNSt8_Rb_treeIN4cvc58internal12NodeTemplateILb1EEESt4pairIKS3_S3_ESt10_Select1stIS6_ESt4lessIS3_ESaIS6_EE14_M_upper_boundEPSt13_Rb_tree_nodeIS6_EPSt18_Rb_tree_node_baseRS5_ = comdat any

$_ZNSt4pairISt17_Rb_tree_iteratorIS_IKN4cvc58internal12NodeTemplateILb1EEES4_EES7_EC2IS7_S7_TnNSt9enable_ifIXaaclsr5_PCCPE22_MoveConstructiblePairIT_T0_EEclsr5_PCCPE30_ImplicitlyMoveConvertiblePairISB_SC_EEEbE4typeELb1EEEOSB_OSC_ = comdat any

$_ZSteqRKSt23_Rb_tree_const_iteratorISt4pairIKN4cvc58internal12NodeTemplateILb1EEES4_EES9_ = comdat any

$_ZStneRKSt23_Rb_tree_const_iteratorISt4pairIKN4cvc58internal12NodeTemplateILb1EEES4_EES9_ = comdat any

$_ZNSt8_Rb_treeIN4cvc58internal12NodeTemplateILb1EEESt4pairIKS3_S3_ESt10_Select1stIS6_ESt4lessIS3_ESaIS6_EE12_M_erase_auxESt23_Rb_tree_const_iteratorIS6_E = comdat any

$_ZNSt23_Rb_tree_const_iteratorISt4pairIKN4cvc58internal12NodeTemplateILb1EEES4_EEppEi = comdat any

$_ZNSt8_Rb_treeIN4cvc58internal8TypeNodeES2_St9_IdentityIS2_ESt4lessIS2_ESaIS2_EE4findERKS2_ = comdat any

$_ZNSt8_Rb_treeIN4cvc58internal8TypeNodeES2_St9_IdentityIS2_ESt4lessIS2_ESaIS2_EE14_M_lower_boundEPSt13_Rb_tree_nodeIS2_EPSt18_Rb_tree_node_baseRKS2_ = comdat any

$_ZNSt8_Rb_treeIN4cvc58internal8TypeNodeES2_St9_IdentityIS2_ESt4lessIS2_ESaIS2_EE3endEv = comdat any

$_ZNKSt8_Rb_treeIN4cvc58internal8TypeNodeES2_St9_IdentityIS2_ESt4lessIS2_ESaIS2_EE3endEv = comdat any

$_ZNSt23_Rb_tree_const_iteratorIN4cvc58internal8TypeNodeEEC2EPKSt18_Rb_tree_node_base = comdat any

$_ZNSt8_Rb_treeIN4cvc58internal12NodeTemplateILb1EEESt4pairIKS3_NS1_6theory24TheoryEngineModelBuilder8AssignerEESt10_Select1stIS9_ESt4lessIS3_ESaIS9_EE4findERS5_ = comdat any

$_ZNSt8_Rb_treeIN4cvc58internal12NodeTemplateILb1EEESt4pairIKS3_NS1_6theory24TheoryEngineModelBuilder8AssignerEESt10_Select1stIS9_ESt4lessIS3_ESaIS9_EE3endEv = comdat any

$_ZNSt8__detail19_Node_iterator_baseISt4pairIKN4cvc58internal8TypeNodeEPSt3setINS3_12NodeTemplateILb1EEESt4lessIS8_ESaIS8_EEELb1EE7_M_incrEv = comdat any

$_ZNKSt8__detail10_Hash_nodeISt4pairIKN4cvc58internal8TypeNodeEPSt3setINS3_12NodeTemplateILb1EEESt4lessIS8_ESaIS8_EEELb1EE7_M_nextEv = comdat any

$_ZNSt10_HashtableIN4cvc58internal12NodeTemplateILb1EEESt4pairIKS3_S3_ESaIS6_ENSt8__detail10_Select1stESt8equal_toIS3_ESt4hashIS3_ENS8_18_Mod_range_hashingENS8_20_Default_ranged_hashENS8_20_Prime_rehash_policyENS8_17_Hashtable_traitsILb1ELb0ELb1EEEE4findERS5_ = comdat any

$_ZNKSt10_HashtableIN4cvc58internal12NodeTemplateILb1EEESt4pairIKS3_S3_ESaIS6_ENSt8__detail10_Select1stESt8equal_toIS3_ESt4hashIS3_ENS8_18_Mod_range_hashingENS8_20_Default_ranged_hashENS8_20_Prime_rehash_policyENS8_17_Hashtable_traitsILb1ELb0ELb1EEEE4sizeEv = comdat any

$_ZNSt10_HashtableIN4cvc58internal12NodeTemplateILb1EEESt4pairIKS3_S3_ESaIS6_ENSt8__detail10_Select1stESt8equal_toIS3_ESt4hashIS3_ENS8_18_Mod_range_hashingENS8_20_Default_ranged_hashENS8_20_Prime_rehash_policyENS8_17_Hashtable_traitsILb1ELb0ELb1EEEE22__small_size_thresholdEv = comdat any

$_ZNSt10_HashtableIN4cvc58internal12NodeTemplateILb1EEESt4pairIKS3_S3_ESaIS6_ENSt8__detail10_Select1stESt8equal_toIS3_ESt4hashIS3_ENS8_18_Mod_range_hashingENS8_20_Default_ranged_hashENS8_20_Prime_rehash_policyENS8_17_Hashtable_traitsILb1ELb0ELb1EEEE5beginEv = comdat any

$_ZNSt10_HashtableIN4cvc58internal12NodeTemplateILb1EEESt4pairIKS3_S3_ESaIS6_ENSt8__detail10_Select1stESt8equal_toIS3_ESt4hashIS3_ENS8_18_Mod_range_hashingENS8_20_Default_ranged_hashENS8_20_Prime_rehash_policyENS8_17_Hashtable_traitsILb1ELb0ELb1EEEE3endEv = comdat any

$_ZNKSt8__detail15_Hashtable_baseIN4cvc58internal12NodeTemplateILb1EEESt4pairIKS4_S4_ENS_10_Select1stESt8equal_toIS4_ESt4hashIS4_ENS_18_Mod_range_hashingENS_20_Default_ranged_hashENS_17_Hashtable_traitsILb1ELb0ELb1EEEE13_M_key_equalsERS6_RKNS_16_Hash_node_valueIS7_Lb1EEE = comdat any

$_ZNSt8__detail14_Node_iteratorISt4pairIKN4cvc58internal12NodeTemplateILb1EEES5_ELb0ELb1EEppEv = comdat any

$_ZNKSt8__detail15_Hash_code_baseIN4cvc58internal12NodeTemplateILb1EEESt4pairIKS4_S4_ENS_10_Select1stESt4hashIS4_ENS_18_Mod_range_hashingENS_20_Default_ranged_hashELb1EE12_M_hash_codeERS6_ = comdat any

$_ZNKSt10_HashtableIN4cvc58internal12NodeTemplateILb1EEESt4pairIKS3_S3_ESaIS6_ENSt8__detail10_Select1stESt8equal_toIS3_ESt4hashIS3_ENS8_18_Mod_range_hashingENS8_20_Default_ranged_hashENS8_20_Prime_rehash_policyENS8_17_Hashtable_traitsILb1ELb0ELb1EEEE15_M_bucket_indexEm = comdat any

$_ZNKSt10_HashtableIN4cvc58internal12NodeTemplateILb1EEESt4pairIKS3_S3_ESaIS6_ENSt8__detail10_Select1stESt8equal_toIS3_ESt4hashIS3_ENS8_18_Mod_range_hashingENS8_20_Default_ranged_hashENS8_20_Prime_rehash_policyENS8_17_Hashtable_traitsILb1ELb0ELb1EEEE12_M_find_nodeEmRS5_m = comdat any

$_ZNSt8__detail14_Node_iteratorISt4pairIKN4cvc58internal12NodeTemplateILb1EEES5_ELb0ELb1EEC2EPNS_10_Hash_nodeIS7_Lb1EEE = comdat any

$_ZNKSt8__detail15_Hashtable_baseIN4cvc58internal12NodeTemplateILb1EEESt4pairIKS4_S4_ENS_10_Select1stESt8equal_toIS4_ESt4hashIS4_ENS_18_Mod_range_hashingENS_20_Default_ranged_hashENS_17_Hashtable_traitsILb1ELb0ELb1EEEE5_M_eqEv = comdat any

$_ZNKSt8__detail10_Select1stclIRKSt4pairIKN4cvc58internal12NodeTemplateILb1EEES6_EEEONS0_10__1st_typeIT_E4typeEOSC_ = comdat any

$_ZNKSt8__detail21_Hash_node_value_baseISt4pairIKN4cvc58internal12NodeTemplateILb1EEES5_EE4_M_vEv = comdat any

$_ZNKSt8__detail21_Hash_node_value_baseISt4pairIKN4cvc58internal12NodeTemplateILb1EEES5_EE9_M_valptrEv = comdat any

$_ZNK9__gnu_cxx16__aligned_bufferISt4pairIKN4cvc58internal12NodeTemplateILb1EEES5_EE6_M_ptrEv = comdat any

$_ZNK9__gnu_cxx16__aligned_bufferISt4pairIKN4cvc58internal12NodeTemplateILb1EEES5_EE7_M_addrEv = comdat any

$_ZNSt8__detail19_Node_iterator_baseISt4pairIKN4cvc58internal12NodeTemplateILb1EEES5_ELb1EE7_M_incrEv = comdat any

$_ZNKSt8__detail15_Hash_code_baseIN4cvc58internal12NodeTemplateILb1EEESt4pairIKS4_S4_ENS_10_Select1stESt4hashIS4_ENS_18_Mod_range_hashingENS_20_Default_ranged_hashELb1EE7_M_hashEv = comdat any

$_ZNKSt8__detail15_Hash_code_baseIN4cvc58internal12NodeTemplateILb1EEESt4pairIKS4_S4_ENS_10_Select1stESt4hashIS4_ENS_18_Mod_range_hashingENS_20_Default_ranged_hashELb1EE15_M_bucket_indexEmm = comdat any

$_ZNKSt10_HashtableIN4cvc58internal12NodeTemplateILb1EEESt4pairIKS3_S3_ESaIS6_ENSt8__detail10_Select1stESt8equal_toIS3_ESt4hashIS3_ENS8_18_Mod_range_hashingENS8_20_Default_ranged_hashENS8_20_Prime_rehash_policyENS8_17_Hashtable_traitsILb1ELb0ELb1EEEE19_M_find_before_nodeEmRS5_m = comdat any

$_ZNKSt8__detail15_Hashtable_baseIN4cvc58internal12NodeTemplateILb1EEESt4pairIKS4_S4_ENS_10_Select1stESt8equal_toIS4_ESt4hashIS4_ENS_18_Mod_range_hashingENS_20_Default_ranged_hashENS_17_Hashtable_traitsILb1ELb0ELb1EEEE9_M_equalsERS6_mRKNS_16_Hash_node_valueIS7_Lb1EEE = comdat any

$_ZNKSt10_HashtableIN4cvc58internal12NodeTemplateILb1EEESt4pairIKS3_S3_ESaIS6_ENSt8__detail10_Select1stESt8equal_toIS3_ESt4hashIS3_ENS8_18_Mod_range_hashingENS8_20_Default_ranged_hashENS8_20_Prime_rehash_policyENS8_17_Hashtable_traitsILb1ELb0ELb1EEEE15_M_bucket_indexERKNS8_16_Hash_node_valueIS6_Lb1EEE = comdat any

$_ZNSt8__detail15_Hashtable_baseIN4cvc58internal12NodeTemplateILb1EEESt4pairIKS4_S4_ENS_10_Select1stESt8equal_toIS4_ESt4hashIS4_ENS_18_Mod_range_hashingENS_20_Default_ranged_hashENS_17_Hashtable_traitsILb1ELb0ELb1EEEE9_S_equalsEmRKNS_21_Hash_node_code_cacheILb1EEE = comdat any

$_ZNKSt8__detail15_Hash_code_baseIN4cvc58internal12NodeTemplateILb1EEESt4pairIKS4_S4_ENS_10_Select1stESt4hashIS4_ENS_18_Mod_range_hashingENS_20_Default_ranged_hashELb1EE15_M_bucket_indexERKNS_16_Hash_node_valueIS7_Lb1EEEm = comdat any

$_ZNSt8__detail19_Node_iterator_baseISt4pairIKN4cvc58internal12NodeTemplateILb1EEES5_ELb1EEC2EPNS_10_Hash_nodeIS7_Lb1EEE = comdat any

$_ZNSt8__detail21_Hash_node_value_baseISt4pairIKN4cvc58internal12NodeTemplateILb1EEES5_EE4_M_vEv = comdat any

$_ZNSt6vectorIN4cvc58internal12NodeTemplateILb1EEESaIS3_EE12emplace_backIJS3_EEERS3_DpOT_ = comdat any

$_ZNSt16allocator_traitsISaIN4cvc58internal12NodeTemplateILb1EEEEE9constructIS3_JS3_EEEvRS4_PT_DpOT0_ = comdat any

$_ZNSt6vectorIN4cvc58internal12NodeTemplateILb1EEESaIS3_EE17_M_realloc_insertIJS3_EEEvN9__gnu_cxx17__normal_iteratorIPS3_S5_EEDpOT_ = comdat any

$_ZNSt6vectorIN4cvc58internal12NodeTemplateILb1EEESaIS3_EE4backEv = comdat any

$_ZNSt15__new_allocatorIN4cvc58internal12NodeTemplateILb1EEEE9constructIS3_JS3_EEEvPT_DpOT0_ = comdat any

$_ZNK9__gnu_cxx17__normal_iteratorIPN4cvc58internal12NodeTemplateILb1EEESt6vectorIS4_SaIS4_EEEmiEl = comdat any

$_ZN4cvc58internal11NodeBuilder6appendILb1EEERS1_RKSt6vectorINS0_12NodeTemplateIXT_EEESaIS6_EE = comdat any

$_ZN4cvc58internal11NodeBuilder6appendIN9__gnu_cxx17__normal_iteratorIPKNS0_12NodeTemplateILb1EEESt6vectorIS6_SaIS6_EEEEEERS1_RKT_SG_ = comdat any

$_ZNSt8__detail9_Map_baseIN4cvc58internal12NodeTemplateILb1EEESt4pairIKS4_S4_ESaIS7_ENS_10_Select1stESt8equal_toIS4_ESt4hashIS4_ENS_18_Mod_range_hashingENS_20_Default_ranged_hashENS_20_Prime_rehash_policyENS_17_Hashtable_traitsILb1ELb0ELb1EEELb1EEixEOS4_ = comdat any

$_ZSt16forward_as_tupleIJN4cvc58internal12NodeTemplateILb1EEEEESt5tupleIJDpOT_EES7_ = comdat any

$_ZNSt10_HashtableIN4cvc58internal12NodeTemplateILb1EEESt4pairIKS3_S3_ESaIS6_ENSt8__detail10_Select1stESt8equal_toIS3_ESt4hashIS3_ENS8_18_Mod_range_hashingENS8_20_Default_ranged_hashENS8_20_Prime_rehash_policyENS8_17_Hashtable_traitsILb1ELb0ELb1EEEE12_Scoped_nodeC2IJRKSt21piecewise_construct_tSt5tupleIJOS3_EESP_IJEEEEEPNS8_16_Hashtable_allocISaINS8_10_Hash_nodeIS6_Lb1EEEEEEDpOT_ = comdat any

$_ZNSt10_HashtableIN4cvc58internal12NodeTemplateILb1EEESt4pairIKS3_S3_ESaIS6_ENSt8__detail10_Select1stESt8equal_toIS3_ESt4hashIS3_ENS8_18_Mod_range_hashingENS8_20_Default_ranged_hashENS8_20_Prime_rehash_policyENS8_17_Hashtable_traitsILb1ELb0ELb1EEEE21_M_insert_unique_nodeEmmPNS8_10_Hash_nodeIS6_Lb1EEEm = comdat any

$_ZNKSt8__detail14_Node_iteratorISt4pairIKN4cvc58internal12NodeTemplateILb1EEES5_ELb0ELb1EEptEv = comdat any

$_ZNSt10_HashtableIN4cvc58internal12NodeTemplateILb1EEESt4pairIKS3_S3_ESaIS6_ENSt8__detail10_Select1stESt8equal_toIS3_ESt4hashIS3_ENS8_18_Mod_range_hashingENS8_20_Default_ranged_hashENS8_20_Prime_rehash_policyENS8_17_Hashtable_traitsILb1ELb0ELb1EEEE12_Scoped_nodeD2Ev = comdat any

$_ZNSt5tupleIJON4cvc58internal12NodeTemplateILb1EEEEEC2IJS3_ELb1ETnNSt9enable_ifIXclsr4_TCCIXT0_EEE29__is_implicitly_constructibleIDpT_EEEbE4typeELb1EEEDpOS8_ = comdat any

$_ZNSt11_Tuple_implILm0EJON4cvc58internal12NodeTemplateILb1EEEEEC2IS3_EEOT_ = comdat any

$_ZNSt10_Head_baseILm0EON4cvc58internal12NodeTemplateILb1EEELb0EEC2IS3_EEOT_ = comdat any

$_ZNSt8__detail16_Hashtable_allocISaINS_10_Hash_nodeISt4pairIKN4cvc58internal12NodeTemplateILb1EEES6_ELb1EEEEE16_M_allocate_nodeIJRKSt21piecewise_construct_tSt5tupleIJOS6_EESG_IJEEEEEPS9_DpOT_ = comdat any

$_ZNSt16allocator_traitsISaINSt8__detail10_Hash_nodeISt4pairIKN4cvc58internal12NodeTemplateILb1EEES6_ELb1EEEEE8allocateERSA_m = comdat any

$_ZSt12__to_addressINSt8__detail10_Hash_nodeISt4pairIKN4cvc58internal12NodeTemplateILb1EEES6_ELb1EEEEPT_SB_ = comdat any

$_ZNSt8__detail10_Hash_nodeISt4pairIKN4cvc58internal12NodeTemplateILb1EEES5_ELb1EEC2Ev = comdat any

$_ZNSt16allocator_traitsISaINSt8__detail10_Hash_nodeISt4pairIKN4cvc58internal12NodeTemplateILb1EEES6_ELb1EEEEE9constructIS8_JRKSt21piecewise_construct_tSt5tupleIJOS6_EESG_IJEEEEEvRSA_PT_DpOT0_ = comdat any

$_ZNSt15__new_allocatorINSt8__detail10_Hash_nodeISt4pairIKN4cvc58internal12NodeTemplateILb1EEES6_ELb1EEEE8allocateEmPKv = comdat any

$_ZNKSt15__new_allocatorINSt8__detail10_Hash_nodeISt4pairIKN4cvc58internal12NodeTemplateILb1EEES6_ELb1EEEE11_M_max_sizeEv = comdat any

$_ZNSt15__new_allocatorINSt8__detail10_Hash_nodeISt4pairIKN4cvc58internal12NodeTemplateILb1EEES6_ELb1EEEE9constructIS8_JRKSt21piecewise_construct_tSt5tupleIJOS6_EESF_IJEEEEEvPT_DpOT0_ = comdat any

$_ZNSt5tupleIJON4cvc58internal12NodeTemplateILb1EEEEEC2EOS5_ = comdat any

$_ZNSt4pairIKN4cvc58internal12NodeTemplateILb1EEES3_EC2IJOS3_EJEEESt21piecewise_construct_tSt5tupleIJDpT_EES9_IJDpT0_EE = comdat any

$_ZNSt11_Tuple_implILm0EJON4cvc58internal12NodeTemplateILb1EEEEEC2EOS5_ = comdat any

$_ZNSt4pairIKN4cvc58internal12NodeTemplateILb1EEES3_EC2IJOS3_EJLm0EEJETpTnmJEEERSt5tupleIJDpT_EERS8_IJDpT1_EESt12_Index_tupleIJXspT0_EEESH_IJXspT2_EEE = comdat any

$_ZSt3getILm0EJON4cvc58internal12NodeTemplateILb1EEEEERNSt13tuple_elementIXT_ESt5tupleIJDpT0_EEE4typeERS9_ = comdat any

$_ZSt12__get_helperILm0EON4cvc58internal12NodeTemplateILb1EEEJEERT0_RSt11_Tuple_implIXT_EJS5_DpT1_EE = comdat any

$_ZNSt11_Tuple_implILm0EJON4cvc58internal12NodeTemplateILb1EEEEE7_M_headERS5_ = comdat any

$_ZNSt10_Head_baseILm0EON4cvc58internal12NodeTemplateILb1EEELb0EE7_M_headERS5_ = comdat any

$_ZNSt10_HashtableIN4cvc58internal12NodeTemplateILb1EEESt4pairIKS3_S3_ESaIS6_ENSt8__detail10_Select1stESt8equal_toIS3_ESt4hashIS3_ENS8_18_Mod_range_hashingENS8_20_Default_ranged_hashENS8_20_Prime_rehash_policyENS8_17_Hashtable_traitsILb1ELb0ELb1EEEE9_M_rehashEmRKm = comdat any

$_ZNKSt8__detail15_Hash_code_baseIN4cvc58internal12NodeTemplateILb1EEESt4pairIKS4_S4_ENS_10_Select1stESt4hashIS4_ENS_18_Mod_range_hashingENS_20_Default_ranged_hashELb1EE13_M_store_codeERNS_21_Hash_node_code_cacheILb1EEEm = comdat any

$_ZNSt10_HashtableIN4cvc58internal12NodeTemplateILb1EEESt4pairIKS3_S3_ESaIS6_ENSt8__detail10_Select1stESt8equal_toIS3_ESt4hashIS3_ENS8_18_Mod_range_hashingENS8_20_Default_ranged_hashENS8_20_Prime_rehash_policyENS8_17_Hashtable_traitsILb1ELb0ELb1EEEE22_M_insert_bucket_beginEmPNS8_10_Hash_nodeIS6_Lb1EEE = comdat any

$_ZNSt10_HashtableIN4cvc58internal12NodeTemplateILb1EEESt4pairIKS3_S3_ESaIS6_ENSt8__detail10_Select1stESt8equal_toIS3_ESt4hashIS3_ENS8_18_Mod_range_hashingENS8_20_Default_ranged_hashENS8_20_Prime_rehash_policyENS8_17_Hashtable_traitsILb1ELb0ELb1EEEE13_M_rehash_auxEmSt17integral_constantIbLb1EE = comdat any

$_ZNSt10_HashtableIN4cvc58internal12NodeTemplateILb1EEESt4pairIKS3_S3_ESaIS6_ENSt8__detail10_Select1stESt8equal_toIS3_ESt4hashIS3_ENS8_18_Mod_range_hashingENS8_20_Default_ranged_hashENS8_20_Prime_rehash_policyENS8_17_Hashtable_traitsILb1ELb0ELb1EEEE19_M_allocate_bucketsEm = comdat any

$_ZNSt8__detail16_Hashtable_allocISaINS_10_Hash_nodeISt4pairIKN4cvc58internal12NodeTemplateILb1EEES6_ELb1EEEEE19_M_allocate_bucketsEm = comdat any

$_ZNSt3mapIN4cvc58internal12NodeTemplateILb1EEESt6vectorIS3_SaIS3_EESt4lessIS3_ESaISt4pairIKS3_S6_EEE11lower_boundERSA_ = comdat any

$_ZSteqRKSt17_Rb_tree_iteratorISt4pairIKN4cvc58internal12NodeTemplateILb1EEESt6vectorIS4_SaIS4_EEEESC_ = comdat any

$_ZNKSt3mapIN4cvc58internal12NodeTemplateILb1EEESt6vectorIS3_SaIS3_EESt4lessIS3_ESaISt4pairIKS3_S6_EEE8key_compEv = comdat any

$_ZNKSt17_Rb_tree_iteratorISt4pairIKN4cvc58internal12NodeTemplateILb1EEESt6vectorIS4_SaIS4_EEEEdeEv = comdat any

$_ZNSt8_Rb_treeIN4cvc58internal12NodeTemplateILb1EEESt4pairIKS3_St6vectorIS3_SaIS3_EEESt10_Select1stIS9_ESt4lessIS3_ESaIS9_EE22_M_emplace_hint_uniqueIJRKSt21piecewise_construct_tSt5tupleIJRS5_EESK_IJEEEEESt17_Rb_tree_iteratorIS9_ESt23_Rb_tree_const_iteratorIS9_EDpOT_ = comdat any

$_ZNSt23_Rb_tree_const_iteratorISt4pairIKN4cvc58internal12NodeTemplateILb1EEESt6vectorIS4_SaIS4_EEEEC2ERKSt17_Rb_tree_iteratorIS9_E = comdat any

$_ZNSt8_Rb_treeIN4cvc58internal12NodeTemplateILb1EEESt4pairIKS3_St6vectorIS3_SaIS3_EEESt10_Select1stIS9_ESt4lessIS3_ESaIS9_EE11lower_boundERS5_ = comdat any

$_ZNSt8_Rb_treeIN4cvc58internal12NodeTemplateILb1EEESt4pairIKS3_St6vectorIS3_SaIS3_EEESt10_Select1stIS9_ESt4lessIS3_ESaIS9_EE14_M_lower_boundEPSt13_Rb_tree_nodeIS9_EPSt18_Rb_tree_node_baseRS5_ = comdat any

$_ZNSt8_Rb_treeIN4cvc58internal12NodeTemplateILb1EEESt4pairIKS3_St6vectorIS3_SaIS3_EEESt10_Select1stIS9_ESt4lessIS3_ESaIS9_EE8_M_beginEv = comdat any

$_ZNSt8_Rb_treeIN4cvc58internal12NodeTemplateILb1EEESt4pairIKS3_St6vectorIS3_SaIS3_EEESt10_Select1stIS9_ESt4lessIS3_ESaIS9_EE6_M_endEv = comdat any

$_ZNSt8_Rb_treeIN4cvc58internal12NodeTemplateILb1EEESt4pairIKS3_St6vectorIS3_SaIS3_EEESt10_Select1stIS9_ESt4lessIS3_ESaIS9_EE6_S_keyEPKSt13_Rb_tree_nodeIS9_E = comdat any

$_ZNSt8_Rb_treeIN4cvc58internal12NodeTemplateILb1EEESt4pairIKS3_St6vectorIS3_SaIS3_EEESt10_Select1stIS9_ESt4lessIS3_ESaIS9_EE7_S_leftEPSt18_Rb_tree_node_base = comdat any

$_ZNSt8_Rb_treeIN4cvc58internal12NodeTemplateILb1EEESt4pairIKS3_St6vectorIS3_SaIS3_EEESt10_Select1stIS9_ESt4lessIS3_ESaIS9_EE8_S_rightEPSt18_Rb_tree_node_base = comdat any

$_ZNSt17_Rb_tree_iteratorISt4pairIKN4cvc58internal12NodeTemplateILb1EEESt6vectorIS4_SaIS4_EEEEC2EPSt18_Rb_tree_node_base = comdat any

$_ZNKSt10_Select1stISt4pairIKN4cvc58internal12NodeTemplateILb1EEESt6vectorIS4_SaIS4_EEEEclERKS9_ = comdat any

$_ZNKSt13_Rb_tree_nodeISt4pairIKN4cvc58internal12NodeTemplateILb1EEESt6vectorIS4_SaIS4_EEEE9_M_valptrEv = comdat any

$_ZNK9__gnu_cxx16__aligned_membufISt4pairIKN4cvc58internal12NodeTemplateILb1EEESt6vectorIS5_SaIS5_EEEE6_M_ptrEv = comdat any

$_ZNK9__gnu_cxx16__aligned_membufISt4pairIKN4cvc58internal12NodeTemplateILb1EEESt6vectorIS5_SaIS5_EEEE7_M_addrEv = comdat any

$_ZNKSt8_Rb_treeIN4cvc58internal12NodeTemplateILb1EEESt4pairIKS3_St6vectorIS3_SaIS3_EEESt10_Select1stIS9_ESt4lessIS3_ESaIS9_EE9_M_mbeginEv = comdat any

$_ZNKSt8_Rb_treeIN4cvc58internal12NodeTemplateILb1EEESt4pairIKS3_St6vectorIS3_SaIS3_EEESt10_Select1stIS9_ESt4lessIS3_ESaIS9_EE8key_compEv = comdat any

$_ZNSt13_Rb_tree_nodeISt4pairIKN4cvc58internal12NodeTemplateILb1EEESt6vectorIS4_SaIS4_EEEE9_M_valptrEv = comdat any

$_ZN9__gnu_cxx16__aligned_membufISt4pairIKN4cvc58internal12NodeTemplateILb1EEESt6vectorIS5_SaIS5_EEEE6_M_ptrEv = comdat any

$_ZN9__gnu_cxx16__aligned_membufISt4pairIKN4cvc58internal12NodeTemplateILb1EEESt6vectorIS5_SaIS5_EEEE7_M_addrEv = comdat any

$_ZNSt8_Rb_treeIN4cvc58internal12NodeTemplateILb1EEESt4pairIKS3_St6vectorIS3_SaIS3_EEESt10_Select1stIS9_ESt4lessIS3_ESaIS9_EE10_Auto_nodeC2IJRKSt21piecewise_construct_tSt5tupleIJRS5_EESL_IJEEEEERSF_DpOT_ = comdat any

$_ZNSt8_Rb_treeIN4cvc58internal12NodeTemplateILb1EEESt4pairIKS3_St6vectorIS3_SaIS3_EEESt10_Select1stIS9_ESt4lessIS3_ESaIS9_EE29_M_get_insert_hint_unique_posESt23_Rb_tree_const_iteratorIS9_ERS5_ = comdat any

$_ZNKSt8_Rb_treeIN4cvc58internal12NodeTemplateILb1EEESt4pairIKS3_St6vectorIS3_SaIS3_EEESt10_Select1stIS9_ESt4lessIS3_ESaIS9_EE10_Auto_node6_M_keyEv = comdat any

$_ZNSt8_Rb_treeIN4cvc58internal12NodeTemplateILb1EEESt4pairIKS3_St6vectorIS3_SaIS3_EEESt10_Select1stIS9_ESt4lessIS3_ESaIS9_EE10_Auto_node9_M_insertES4_IPSt18_Rb_tree_node_baseSI_E = comdat any

$_ZNSt8_Rb_treeIN4cvc58internal12NodeTemplateILb1EEESt4pairIKS3_St6vectorIS3_SaIS3_EEESt10_Select1stIS9_ESt4lessIS3_ESaIS9_EE10_Auto_nodeD2Ev = comdat any

$_ZNSt8_Rb_treeIN4cvc58internal12NodeTemplateILb1EEESt4pairIKS3_St6vectorIS3_SaIS3_EEESt10_Select1stIS9_ESt4lessIS3_ESaIS9_EE14_M_create_nodeIJRKSt21piecewise_construct_tSt5tupleIJRS5_EESK_IJEEEEEPSt13_Rb_tree_nodeIS9_EDpOT_ = comdat any

$_ZNSt8_Rb_treeIN4cvc58internal12NodeTemplateILb1EEESt4pairIKS3_St6vectorIS3_SaIS3_EEESt10_Select1stIS9_ESt4lessIS3_ESaIS9_EE11_M_get_nodeEv = comdat any

$_ZNSt8_Rb_treeIN4cvc58internal12NodeTemplateILb1EEESt4pairIKS3_St6vectorIS3_SaIS3_EEESt10_Select1stIS9_ESt4lessIS3_ESaIS9_EE17_M_construct_nodeIJRKSt21piecewise_construct_tSt5tupleIJRS5_EESK_IJEEEEEvPSt13_Rb_tree_nodeIS9_EDpOT_ = comdat any

$_ZNSt16allocator_traitsISaISt13_Rb_tree_nodeISt4pairIKN4cvc58internal12NodeTemplateILb1EEESt6vectorIS5_SaIS5_EEEEEE8allocateERSC_m = comdat any

$_ZNSt8_Rb_treeIN4cvc58internal12NodeTemplateILb1EEESt4pairIKS3_St6vectorIS3_SaIS3_EEESt10_Select1stIS9_ESt4lessIS3_ESaIS9_EE21_M_get_Node_allocatorEv = comdat any

$_ZNSt15__new_allocatorISt13_Rb_tree_nodeISt4pairIKN4cvc58internal12NodeTemplateILb1EEESt6vectorIS5_SaIS5_EEEEE8allocateEmPKv = comdat any

$_ZNKSt15__new_allocatorISt13_Rb_tree_nodeISt4pairIKN4cvc58internal12NodeTemplateILb1EEESt6vectorIS5_SaIS5_EEEEE11_M_max_sizeEv = comdat any

$_ZNSt16allocator_traitsISaISt13_Rb_tree_nodeISt4pairIKN4cvc58internal12NodeTemplateILb1EEESt6vectorIS5_SaIS5_EEEEEE9constructISA_JRKSt21piecewise_construct_tSt5tupleIJRS6_EESI_IJEEEEEvRSC_PT_DpOT0_ = comdat any

$_ZNSt8_Rb_treeIN4cvc58internal12NodeTemplateILb1EEESt4pairIKS3_St6vectorIS3_SaIS3_EEESt10_Select1stIS9_ESt4lessIS3_ESaIS9_EE11_M_put_nodeEPSt13_Rb_tree_nodeIS9_E = comdat any

$_ZNSt15__new_allocatorISt13_Rb_tree_nodeISt4pairIKN4cvc58internal12NodeTemplateILb1EEESt6vectorIS5_SaIS5_EEEEE9constructISA_JRKSt21piecewise_construct_tSt5tupleIJRS6_EESH_IJEEEEEvPT_DpOT0_ = comdat any

$_ZNSt4pairIKN4cvc58internal12NodeTemplateILb1EEESt6vectorIS3_SaIS3_EEEC2IJRS4_EJEEESt21piecewise_construct_tSt5tupleIJDpT_EESC_IJDpT0_EE = comdat any

$_ZNSt4pairIKN4cvc58internal12NodeTemplateILb1EEESt6vectorIS3_SaIS3_EEEC2IJRS4_EJLm0EEJETpTnmJEEERSt5tupleIJDpT_EERSB_IJDpT1_EESt12_Index_tupleIJXspT0_EEESK_IJXspT2_EEE = comdat any

$_ZNSt16allocator_traitsISaISt13_Rb_tree_nodeISt4pairIKN4cvc58internal12NodeTemplateILb1EEESt6vectorIS5_SaIS5_EEEEEE10deallocateERSC_PSB_m = comdat any

$_ZNSt15__new_allocatorISt13_Rb_tree_nodeISt4pairIKN4cvc58internal12NodeTemplateILb1EEESt6vectorIS5_SaIS5_EEEEE10deallocateEPSB_m = comdat any

$_ZNKSt23_Rb_tree_const_iteratorISt4pairIKN4cvc58internal12NodeTemplateILb1EEESt6vectorIS4_SaIS4_EEEE13_M_const_castEv = comdat any

$_ZNKSt8_Rb_treeIN4cvc58internal12NodeTemplateILb1EEESt4pairIKS3_St6vectorIS3_SaIS3_EEESt10_Select1stIS9_ESt4lessIS3_ESaIS9_EE4sizeEv = comdat any

$_ZNSt8_Rb_treeIN4cvc58internal12NodeTemplateILb1EEESt4pairIKS3_St6vectorIS3_SaIS3_EEESt10_Select1stIS9_ESt4lessIS3_ESaIS9_EE6_S_keyEPKSt18_Rb_tree_node_base = comdat any

$_ZNSt8_Rb_treeIN4cvc58internal12NodeTemplateILb1EEESt4pairIKS3_St6vectorIS3_SaIS3_EEESt10_Select1stIS9_ESt4lessIS3_ESaIS9_EE12_M_rightmostEv = comdat any

$_ZNSt8_Rb_treeIN4cvc58internal12NodeTemplateILb1EEESt4pairIKS3_St6vectorIS3_SaIS3_EEESt10_Select1stIS9_ESt4lessIS3_ESaIS9_EE24_M_get_insert_unique_posERS5_ = comdat any

$_ZNSt8_Rb_treeIN4cvc58internal12NodeTemplateILb1EEESt4pairIKS3_St6vectorIS3_SaIS3_EEESt10_Select1stIS9_ESt4lessIS3_ESaIS9_EE11_M_leftmostEv = comdat any

$_ZNSt17_Rb_tree_iteratorISt4pairIKN4cvc58internal12NodeTemplateILb1EEESt6vectorIS4_SaIS4_EEEEmmEv = comdat any

$_ZNSt17_Rb_tree_iteratorISt4pairIKN4cvc58internal12NodeTemplateILb1EEESt6vectorIS4_SaIS4_EEEEppEv = comdat any

$_ZNSt8_Rb_treeIN4cvc58internal12NodeTemplateILb1EEESt4pairIKS3_St6vectorIS3_SaIS3_EEESt10_Select1stIS9_ESt4lessIS3_ESaIS9_EE5beginEv = comdat any

$_ZNSt4pairIPSt18_Rb_tree_node_baseS1_EC2IRPSt13_Rb_tree_nodeIS_IKN4cvc58internal12NodeTemplateILb1EEESt6vectorIS8_SaIS8_EEEERS1_TnNSt9enable_ifIXaaclsr5_PCCPE22_MoveConstructiblePairIT_T0_EEclsr5_PCCPE30_ImplicitlyMoveConvertiblePairISJ_SK_EEEbE4typeELb1EEEOSJ_OSK_ = comdat any

$_ZNSt8_Rb_treeIN4cvc58internal12NodeTemplateILb1EEESt4pairIKS3_St6vectorIS3_SaIS3_EEESt10_Select1stIS9_ESt4lessIS3_ESaIS9_EE14_M_insert_nodeEPSt18_Rb_tree_node_baseSH_PSt13_Rb_tree_nodeIS9_E = comdat any

$_ZNSt8_Rb_treeIN4cvc58internal12NodeTemplateILb1EEESt4pairIKS3_St6vectorIS3_SaIS3_EEESt10_Select1stIS9_ESt4lessIS3_ESaIS9_EE12_M_drop_nodeEPSt13_Rb_tree_nodeIS9_E = comdat any

$_ZNSt8_Rb_treeIN4cvc58internal12NodeTemplateILb1EEESt4pairIKS3_St6vectorIS3_SaIS3_EEESt10_Select1stIS9_ESt4lessIS3_ESaIS9_EE15_M_destroy_nodeEPSt13_Rb_tree_nodeIS9_E = comdat any

$_ZNSt16allocator_traitsISaISt13_Rb_tree_nodeISt4pairIKN4cvc58internal12NodeTemplateILb1EEESt6vectorIS5_SaIS5_EEEEEE7destroyISA_EEvRSC_PT_ = comdat any

$_ZNSt15__new_allocatorISt13_Rb_tree_nodeISt4pairIKN4cvc58internal12NodeTemplateILb1EEESt6vectorIS5_SaIS5_EEEEE7destroyISA_EEvPT_ = comdat any

$_ZNSt4pairIKN4cvc58internal12NodeTemplateILb1EEESt6vectorIS3_SaIS3_EEED2Ev = comdat any

$_ZSt8_DestroyIPN4cvc58internal12NodeTemplateILb0EEES3_EvT_S5_RSaIT0_E = comdat any

$_ZNSt12_Vector_baseIN4cvc58internal12NodeTemplateILb0EEESaIS3_EE19_M_get_Tp_allocatorEv = comdat any

$_ZNSt12_Vector_baseIN4cvc58internal12NodeTemplateILb0EEESaIS3_EED2Ev = comdat any

$_ZSt8_DestroyIPN4cvc58internal12NodeTemplateILb0EEEEvT_S5_ = comdat any

$_ZNSt12_Destroy_auxILb0EE9__destroyIPN4cvc58internal12NodeTemplateILb0EEEEEvT_S7_ = comdat any

$_ZSt8_DestroyIN4cvc58internal12NodeTemplateILb0EEEEvPT_ = comdat any

$_ZNSt12_Vector_baseIN4cvc58internal12NodeTemplateILb0EEESaIS3_EE13_M_deallocateEPS3_m = comdat any

$_ZNSt12_Vector_baseIN4cvc58internal12NodeTemplateILb0EEESaIS3_EE12_Vector_implD2Ev = comdat any

$_ZNSt16allocator_traitsISaIN4cvc58internal12NodeTemplateILb0EEEEE10deallocateERS4_PS3_m = comdat any

$_ZNSt15__new_allocatorIN4cvc58internal12NodeTemplateILb0EEEE10deallocateEPS3_m = comdat any

$_ZNSaIN4cvc58internal12NodeTemplateILb0EEEED2Ev = comdat any

$_ZNSt15__new_allocatorIN4cvc58internal12NodeTemplateILb0EEEED2Ev = comdat any

$_ZNSt6vectorIN4cvc58internal12NodeTemplateILb0EEESaIS3_EE12emplace_backIJS3_EEERS3_DpOT_ = comdat any

$_ZNSt16allocator_traitsISaIN4cvc58internal12NodeTemplateILb0EEEEE9constructIS3_JS3_EEEvRS4_PT_DpOT0_ = comdat any

$_ZNSt6vectorIN4cvc58internal12NodeTemplateILb0EEESaIS3_EE17_M_realloc_insertIJS3_EEEvN9__gnu_cxx17__normal_iteratorIPS3_S5_EEDpOT_ = comdat any

$_ZNSt6vectorIN4cvc58internal12NodeTemplateILb0EEESaIS3_EE4backEv = comdat any

$_ZNSt15__new_allocatorIN4cvc58internal12NodeTemplateILb0EEEE9constructIS3_JS3_EEEvPT_DpOT0_ = comdat any

$_ZNKSt6vectorIN4cvc58internal12NodeTemplateILb0EEESaIS3_EE12_M_check_lenEmPKc = comdat any

$_ZN9__gnu_cxxmiIPN4cvc58internal12NodeTemplateILb0EEESt6vectorIS4_SaIS4_EEEENS_17__normal_iteratorIT_T0_E15difference_typeERKSC_SF_ = comdat any

$_ZNSt12_Vector_baseIN4cvc58internal12NodeTemplateILb0EEESaIS3_EE11_M_allocateEm = comdat any

$_ZSt34__uninitialized_move_if_noexcept_aIPN4cvc58internal12NodeTemplateILb0EEES4_SaIS3_EET0_T_S7_S6_RT1_ = comdat any

$_ZNK9__gnu_cxx17__normal_iteratorIPN4cvc58internal12NodeTemplateILb0EEESt6vectorIS4_SaIS4_EEE4baseEv = comdat any

$_ZNSt16allocator_traitsISaIN4cvc58internal12NodeTemplateILb0EEEEE7destroyIS3_EEvRS4_PT_ = comdat any

$_ZNKSt6vectorIN4cvc58internal12NodeTemplateILb0EEESaIS3_EE8max_sizeEv = comdat any

$_ZNKSt6vectorIN4cvc58internal12NodeTemplateILb0EEESaIS3_EE4sizeEv = comdat any

$_ZNSt6vectorIN4cvc58internal12NodeTemplateILb0EEESaIS3_EE11_S_max_sizeERKS4_ = comdat any

$_ZNKSt12_Vector_baseIN4cvc58internal12NodeTemplateILb0EEESaIS3_EE19_M_get_Tp_allocatorEv = comdat any

$_ZNSt16allocator_traitsISaIN4cvc58internal12NodeTemplateILb0EEEEE8max_sizeERKS4_ = comdat any

$_ZNKSt15__new_allocatorIN4cvc58internal12NodeTemplateILb0EEEE8max_sizeEv = comdat any

$_ZNKSt15__new_allocatorIN4cvc58internal12NodeTemplateILb0EEEE11_M_max_sizeEv = comdat any

$_ZNSt16allocator_traitsISaIN4cvc58internal12NodeTemplateILb0EEEEE8allocateERS4_m = comdat any

$_ZNSt15__new_allocatorIN4cvc58internal12NodeTemplateILb0EEEE8allocateEmPKv = comdat any

$_ZSt22__uninitialized_copy_aIPKN4cvc58internal12NodeTemplateILb0EEEPS3_S3_ET0_T_S8_S7_RSaIT1_E = comdat any

$_ZSt32__make_move_if_noexcept_iteratorIN4cvc58internal12NodeTemplateILb0EEEPKS3_ET0_PT_ = comdat any

$_ZSt18uninitialized_copyIPKN4cvc58internal12NodeTemplateILb0EEEPS3_ET0_T_S8_S7_ = comdat any

$_ZNSt20__uninitialized_copyILb0EE13__uninit_copyIPKN4cvc58internal12NodeTemplateILb0EEEPS5_EET0_T_SA_S9_ = comdat any

$_ZSt16__do_uninit_copyIPKN4cvc58internal12NodeTemplateILb0EEEPS3_ET0_T_S8_S7_ = comdat any

$_ZSt10_ConstructIN4cvc58internal12NodeTemplateILb0EEEJRKS3_EEvPT_DpOT0_ = comdat any

$_ZNSt15__new_allocatorIN4cvc58internal12NodeTemplateILb0EEEE7destroyIS3_EEvPT_ = comdat any

$_ZNK9__gnu_cxx17__normal_iteratorIPN4cvc58internal12NodeTemplateILb0EEESt6vectorIS4_SaIS4_EEEmiEl = comdat any

$_ZNK9__gnu_cxx17__normal_iteratorIPN4cvc58internal12NodeTemplateILb0EEESt6vectorIS4_SaIS4_EEEdeEv = comdat any

$_ZN9__gnu_cxx17__normal_iteratorIPN4cvc58internal12NodeTemplateILb0EEESt6vectorIS4_SaIS4_EEEC2ERKS5_ = comdat any

$_ZN4cvc58internal11NodeBuilder6appendILb0EEERS1_RKSt6vectorINS0_12NodeTemplateIXT_EEESaIS6_EE = comdat any

$_ZN4cvc58internal11NodeBuilder6appendIN9__gnu_cxx17__normal_iteratorIPKNS0_12NodeTemplateILb0EEESt6vectorIS6_SaIS6_EEEEEERS1_RKT_SG_ = comdat any

$_ZNKSt6vectorIN4cvc58internal12NodeTemplateILb0EEESaIS3_EE5beginEv = comdat any

$_ZNKSt6vectorIN4cvc58internal12NodeTemplateILb0EEESaIS3_EE3endEv = comdat any

$_ZN9__gnu_cxxneIPKN4cvc58internal12NodeTemplateILb0EEESt6vectorIS4_SaIS4_EEEEbRKNS_17__normal_iteratorIT_T0_EESF_ = comdat any

$_ZNK9__gnu_cxx17__normal_iteratorIPKN4cvc58internal12NodeTemplateILb0EEESt6vectorIS4_SaIS4_EEEdeEv = comdat any

$_ZN9__gnu_cxx17__normal_iteratorIPKN4cvc58internal12NodeTemplateILb0EEESt6vectorIS4_SaIS4_EEEppEv = comdat any

$_ZNK9__gnu_cxx17__normal_iteratorIPKN4cvc58internal12NodeTemplateILb0EEESt6vectorIS4_SaIS4_EEE4baseEv = comdat any

$_ZN9__gnu_cxx17__normal_iteratorIPKN4cvc58internal12NodeTemplateILb0EEESt6vectorIS4_SaIS4_EEEC2ERKS6_ = comdat any

$_ZNSt8_Rb_treeIN4cvc58internal12NodeTemplateILb1EEESt4pairIKS3_St6vectorIS3_SaIS3_EEESt10_Select1stIS9_ESt4lessIS3_ESaIS9_EE4findERS5_ = comdat any

$_ZNSt8_Rb_treeIN4cvc58internal12NodeTemplateILb1EEESt4pairIKS3_St6vectorIS3_SaIS3_EEESt10_Select1stIS9_ESt4lessIS3_ESaIS9_EE3endEv = comdat any

$_ZN9__gnu_cxxeqIPKN4cvc58internal12NodeTemplateILb0EEESt6vectorIS4_SaIS4_EEEEbRKNS_17__normal_iteratorIT_T0_EESF_ = comdat any

$_ZNSt13unordered_mapIN4cvc58internal12NodeTemplateILb0EEES3_St4hashIS3_ESt8equal_toIS3_ESaISt4pairIKS3_S3_EEEC2Ev = comdat any

$_ZNK4cvc58internal12NodeTemplateILb1EE10substituteIN9__gnu_cxx17__normal_iteratorIPNS1_ILb0EEESt6vectorIS6_SaIS6_EEEESB_EES2_T_SC_T0_SD_RSt13unordered_mapIS6_S6_St4hashIS6_ESt8equal_toIS6_ESaISt4pairIKS6_S6_EEE = comdat any

$_ZNSt13unordered_mapIN4cvc58internal12NodeTemplateILb0EEES3_St4hashIS3_ESt8equal_toIS3_ESaISt4pairIKS3_S3_EEED2Ev = comdat any

$_ZNSt10_HashtableIN4cvc58internal12NodeTemplateILb0EEESt4pairIKS3_S3_ESaIS6_ENSt8__detail10_Select1stESt8equal_toIS3_ESt4hashIS3_ENS8_18_Mod_range_hashingENS8_20_Default_ranged_hashENS8_20_Prime_rehash_policyENS8_17_Hashtable_traitsILb1ELb0ELb1EEEEC2Ev = comdat any

$_ZNSt8__detail15_Hashtable_baseIN4cvc58internal12NodeTemplateILb0EEESt4pairIKS4_S4_ENS_10_Select1stESt8equal_toIS4_ESt4hashIS4_ENS_18_Mod_range_hashingENS_20_Default_ranged_hashENS_17_Hashtable_traitsILb1ELb0ELb1EEEEC2Ev = comdat any

$_ZNSt8__detail16_Hashtable_allocISaINS_10_Hash_nodeISt4pairIKN4cvc58internal12NodeTemplateILb0EEES6_ELb1EEEEEC2Ev = comdat any

$_ZNSt8__detail15_Hash_code_baseIN4cvc58internal12NodeTemplateILb0EEESt4pairIKS4_S4_ENS_10_Select1stESt4hashIS4_ENS_18_Mod_range_hashingENS_20_Default_ranged_hashELb1EEC2Ev = comdat any

$_ZNSt8__detail21_Hashtable_ebo_helperILi0ESt8equal_toIN4cvc58internal12NodeTemplateILb0EEEELb1EEC2Ev = comdat any

$_ZNSt8__detail21_Hashtable_ebo_helperILi1ESt4hashIN4cvc58internal12NodeTemplateILb0EEEELb1EEC2Ev = comdat any

$_ZNSt8__detail21_Hashtable_ebo_helperILi0ESaINS_10_Hash_nodeISt4pairIKN4cvc58internal12NodeTemplateILb0EEES6_ELb1EEEELb1EEC2Ev = comdat any

$_ZNSaINSt8__detail10_Hash_nodeISt4pairIKN4cvc58internal12NodeTemplateILb0EEES5_ELb1EEEEC2Ev = comdat any

$_ZNSt15__new_allocatorINSt8__detail10_Hash_nodeISt4pairIKN4cvc58internal12NodeTemplateILb0EEES6_ELb1EEEEC2Ev = comdat any

$_ZNSt13unordered_mapIN4cvc58internal12NodeTemplateILb0EEES3_St4hashIS3_ESt8equal_toIS3_ESaISt4pairIKS3_S3_EEE4findERS9_ = comdat any

$_ZNSt8__detail20_Node_const_iteratorISt4pairIKN4cvc58internal12NodeTemplateILb0EEES5_ELb0ELb1EEC2ERKNS_14_Node_iteratorIS7_Lb0ELb1EEE = comdat any

$_ZNSt8__detailneERKNS_19_Node_iterator_baseISt4pairIKN4cvc58internal12NodeTemplateILb0EEES5_ELb1EEESA_ = comdat any

$_ZNSt13unordered_mapIN4cvc58internal12NodeTemplateILb0EEES3_St4hashIS3_ESt8equal_toIS3_ESaISt4pairIKS3_S3_EEE3endEv = comdat any

$_ZNKSt8__detail20_Node_const_iteratorISt4pairIKN4cvc58internal12NodeTemplateILb0EEES5_ELb0ELb1EEdeEv = comdat any

$_ZSt4findIN9__gnu_cxx17__normal_iteratorIPN4cvc58internal12NodeTemplateILb0EEESt6vectorIS5_SaIS5_EEEES5_ET_SB_SB_RKT0_ = comdat any

$_ZN9__gnu_cxxneIPN4cvc58internal12NodeTemplateILb0EEESt6vectorIS4_SaIS4_EEEEbRKNS_17__normal_iteratorIT_T0_EESE_ = comdat any

$_ZSt7advanceIN9__gnu_cxx17__normal_iteratorIPN4cvc58internal12NodeTemplateILb0EEESt6vectorIS5_SaIS5_EEEElEvRT_T0_ = comdat any

$_ZSt8distanceIN9__gnu_cxx17__normal_iteratorIPN4cvc58internal12NodeTemplateILb0EEESt6vectorIS5_SaIS5_EEEEENSt15iterator_traitsIT_E15difference_typeESC_SC_ = comdat any

$_ZNSt13unordered_mapIN4cvc58internal12NodeTemplateILb0EEES3_St4hashIS3_ESt8equal_toIS3_ESaISt4pairIKS3_S3_EEEixEOS3_ = comdat any

$_ZN4cvc58internal12NodeTemplateILb0EEaSERKNS1_ILb1EEE = comdat any

$_ZNK4cvc58internal12NodeTemplateILb1EE5beginEv = comdat any

$_ZNK4cvc58internal12NodeTemplateILb1EE3endEv = comdat any

$_ZNK4cvc58internal4expr9NodeValue8iteratorINS0_12NodeTemplateILb1EEEEneERKS6_ = comdat any

$_ZNK4cvc58internal4expr9NodeValue8iteratorINS0_12NodeTemplateILb1EEEEdeEv = comdat any

$_ZN4cvc58internal4expr9NodeValue8iteratorINS0_12NodeTemplateILb1EEEEppEv = comdat any

$_ZNSt10_HashtableIN4cvc58internal12NodeTemplateILb0EEESt4pairIKS3_S3_ESaIS6_ENSt8__detail10_Select1stESt8equal_toIS3_ESt4hashIS3_ENS8_18_Mod_range_hashingENS8_20_Default_ranged_hashENS8_20_Prime_rehash_policyENS8_17_Hashtable_traitsILb1ELb0ELb1EEEE4findERS5_ = comdat any

$_ZNKSt10_HashtableIN4cvc58internal12NodeTemplateILb0EEESt4pairIKS3_S3_ESaIS6_ENSt8__detail10_Select1stESt8equal_toIS3_ESt4hashIS3_ENS8_18_Mod_range_hashingENS8_20_Default_ranged_hashENS8_20_Prime_rehash_policyENS8_17_Hashtable_traitsILb1ELb0ELb1EEEE4sizeEv = comdat any

$_ZNSt10_HashtableIN4cvc58internal12NodeTemplateILb0EEESt4pairIKS3_S3_ESaIS6_ENSt8__detail10_Select1stESt8equal_toIS3_ESt4hashIS3_ENS8_18_Mod_range_hashingENS8_20_Default_ranged_hashENS8_20_Prime_rehash_policyENS8_17_Hashtable_traitsILb1ELb0ELb1EEEE22__small_size_thresholdEv = comdat any

$_ZNSt10_HashtableIN4cvc58internal12NodeTemplateILb0EEESt4pairIKS3_S3_ESaIS6_ENSt8__detail10_Select1stESt8equal_toIS3_ESt4hashIS3_ENS8_18_Mod_range_hashingENS8_20_Default_ranged_hashENS8_20_Prime_rehash_policyENS8_17_Hashtable_traitsILb1ELb0ELb1EEEE5beginEv = comdat any

$_ZNSt10_HashtableIN4cvc58internal12NodeTemplateILb0EEESt4pairIKS3_S3_ESaIS6_ENSt8__detail10_Select1stESt8equal_toIS3_ESt4hashIS3_ENS8_18_Mod_range_hashingENS8_20_Default_ranged_hashENS8_20_Prime_rehash_policyENS8_17_Hashtable_traitsILb1ELb0ELb1EEEE3endEv = comdat any

$_ZNKSt8__detail15_Hashtable_baseIN4cvc58internal12NodeTemplateILb0EEESt4pairIKS4_S4_ENS_10_Select1stESt8equal_toIS4_ESt4hashIS4_ENS_18_Mod_range_hashingENS_20_Default_ranged_hashENS_17_Hashtable_traitsILb1ELb0ELb1EEEE13_M_key_equalsERS6_RKNS_16_Hash_node_valueIS7_Lb1EEE = comdat any

$_ZNSt8__detail14_Node_iteratorISt4pairIKN4cvc58internal12NodeTemplateILb0EEES5_ELb0ELb1EEppEv = comdat any

$_ZNKSt8__detail15_Hash_code_baseIN4cvc58internal12NodeTemplateILb0EEESt4pairIKS4_S4_ENS_10_Select1stESt4hashIS4_ENS_18_Mod_range_hashingENS_20_Default_ranged_hashELb1EE12_M_hash_codeERS6_ = comdat any

$_ZNKSt10_HashtableIN4cvc58internal12NodeTemplateILb0EEESt4pairIKS3_S3_ESaIS6_ENSt8__detail10_Select1stESt8equal_toIS3_ESt4hashIS3_ENS8_18_Mod_range_hashingENS8_20_Default_ranged_hashENS8_20_Prime_rehash_policyENS8_17_Hashtable_traitsILb1ELb0ELb1EEEE15_M_bucket_indexEm = comdat any

$_ZNKSt10_HashtableIN4cvc58internal12NodeTemplateILb0EEESt4pairIKS3_S3_ESaIS6_ENSt8__detail10_Select1stESt8equal_toIS3_ESt4hashIS3_ENS8_18_Mod_range_hashingENS8_20_Default_ranged_hashENS8_20_Prime_rehash_policyENS8_17_Hashtable_traitsILb1ELb0ELb1EEEE12_M_find_nodeEmRS5_m = comdat any

$_ZNSt8__detail14_Node_iteratorISt4pairIKN4cvc58internal12NodeTemplateILb0EEES5_ELb0ELb1EEC2EPNS_10_Hash_nodeIS7_Lb1EEE = comdat any

$_ZNSt8__detail22_Hashtable_hash_traitsISt4hashIN4cvc58internal12NodeTemplateILb0EEEEE22__small_size_thresholdEv = comdat any

$_ZNKSt10_HashtableIN4cvc58internal12NodeTemplateILb0EEESt4pairIKS3_S3_ESaIS6_ENSt8__detail10_Select1stESt8equal_toIS3_ESt4hashIS3_ENS8_18_Mod_range_hashingENS8_20_Default_ranged_hashENS8_20_Prime_rehash_policyENS8_17_Hashtable_traitsILb1ELb0ELb1EEEE8_M_beginEv = comdat any

$_ZNKSt8__detail15_Hashtable_baseIN4cvc58internal12NodeTemplateILb0EEESt4pairIKS4_S4_ENS_10_Select1stESt8equal_toIS4_ESt4hashIS4_ENS_18_Mod_range_hashingENS_20_Default_ranged_hashENS_17_Hashtable_traitsILb1ELb0ELb1EEEE5_M_eqEv = comdat any

$_ZNKSt8equal_toIN4cvc58internal12NodeTemplateILb0EEEEclERKS3_S6_ = comdat any

$_ZNKSt8__detail10_Select1stclIRKSt4pairIKN4cvc58internal12NodeTemplateILb0EEES6_EEEONS0_10__1st_typeIT_E4typeEOSC_ = comdat any

$_ZNKSt8__detail21_Hash_node_value_baseISt4pairIKN4cvc58internal12NodeTemplateILb0EEES5_EE4_M_vEv = comdat any

$_ZNKSt8__detail21_Hashtable_ebo_helperILi0ESt8equal_toIN4cvc58internal12NodeTemplateILb0EEEELb1EE7_M_cgetEv = comdat any

$_ZNK4cvc58internal12NodeTemplateILb0EEeqILb0EEEbRKNS1_IXT_EEE = comdat any

$_ZNKSt8__detail21_Hash_node_value_baseISt4pairIKN4cvc58internal12NodeTemplateILb0EEES5_EE9_M_valptrEv = comdat any

$_ZNK9__gnu_cxx16__aligned_bufferISt4pairIKN4cvc58internal12NodeTemplateILb0EEES5_EE6_M_ptrEv = comdat any

$_ZNK9__gnu_cxx16__aligned_bufferISt4pairIKN4cvc58internal12NodeTemplateILb0EEES5_EE7_M_addrEv = comdat any

$_ZNSt8__detail19_Node_iterator_baseISt4pairIKN4cvc58internal12NodeTemplateILb0EEES5_ELb1EE7_M_incrEv = comdat any

$_ZNKSt8__detail10_Hash_nodeISt4pairIKN4cvc58internal12NodeTemplateILb0EEES5_ELb1EE7_M_nextEv = comdat any

$_ZNKSt8__detail15_Hash_code_baseIN4cvc58internal12NodeTemplateILb0EEESt4pairIKS4_S4_ENS_10_Select1stESt4hashIS4_ENS_18_Mod_range_hashingENS_20_Default_ranged_hashELb1EE7_M_hashEv = comdat any

$_ZNKSt8__detail21_Hashtable_ebo_helperILi1ESt4hashIN4cvc58internal12NodeTemplateILb0EEEELb1EE7_M_cgetEv = comdat any

$_ZNKSt8__detail15_Hash_code_baseIN4cvc58internal12NodeTemplateILb0EEESt4pairIKS4_S4_ENS_10_Select1stESt4hashIS4_ENS_18_Mod_range_hashingENS_20_Default_ranged_hashELb1EE15_M_bucket_indexEmm = comdat any

$_ZNKSt10_HashtableIN4cvc58internal12NodeTemplateILb0EEESt4pairIKS3_S3_ESaIS6_ENSt8__detail10_Select1stESt8equal_toIS3_ESt4hashIS3_ENS8_18_Mod_range_hashingENS8_20_Default_ranged_hashENS8_20_Prime_rehash_policyENS8_17_Hashtable_traitsILb1ELb0ELb1EEEE19_M_find_before_nodeEmRS5_m = comdat any

$_ZNKSt8__detail15_Hashtable_baseIN4cvc58internal12NodeTemplateILb0EEESt4pairIKS4_S4_ENS_10_Select1stESt8equal_toIS4_ESt4hashIS4_ENS_18_Mod_range_hashingENS_20_Default_ranged_hashENS_17_Hashtable_traitsILb1ELb0ELb1EEEE9_M_equalsERS6_mRKNS_16_Hash_node_valueIS7_Lb1EEE = comdat any

$_ZNKSt10_HashtableIN4cvc58internal12NodeTemplateILb0EEESt4pairIKS3_S3_ESaIS6_ENSt8__detail10_Select1stESt8equal_toIS3_ESt4hashIS3_ENS8_18_Mod_range_hashingENS8_20_Default_ranged_hashENS8_20_Prime_rehash_policyENS8_17_Hashtable_traitsILb1ELb0ELb1EEEE15_M_bucket_indexERKNS8_16_Hash_node_valueIS6_Lb1EEE = comdat any

$_ZNSt8__detail15_Hashtable_baseIN4cvc58internal12NodeTemplateILb0EEESt4pairIKS4_S4_ENS_10_Select1stESt8equal_toIS4_ESt4hashIS4_ENS_18_Mod_range_hashingENS_20_Default_ranged_hashENS_17_Hashtable_traitsILb1ELb0ELb1EEEE9_S_equalsEmRKNS_21_Hash_node_code_cacheILb1EEE = comdat any

$_ZNKSt8__detail15_Hash_code_baseIN4cvc58internal12NodeTemplateILb0EEESt4pairIKS4_S4_ENS_10_Select1stESt4hashIS4_ENS_18_Mod_range_hashingENS_20_Default_ranged_hashELb1EE15_M_bucket_indexERKNS_16_Hash_node_valueIS7_Lb1EEEm = comdat any

$_ZNSt8__detail19_Node_iterator_baseISt4pairIKN4cvc58internal12NodeTemplateILb0EEES5_ELb1EEC2EPNS_10_Hash_nodeIS7_Lb1EEE = comdat any

$_ZNSt8__detail21_Hash_node_value_baseISt4pairIKN4cvc58internal12NodeTemplateILb0EEES5_EE4_M_vEv = comdat any

$_ZNSt8__detail21_Hash_node_value_baseISt4pairIKN4cvc58internal12NodeTemplateILb0EEES5_EE9_M_valptrEv = comdat any

$_ZN9__gnu_cxx16__aligned_bufferISt4pairIKN4cvc58internal12NodeTemplateILb0EEES5_EE6_M_ptrEv = comdat any

$_ZN9__gnu_cxx16__aligned_bufferISt4pairIKN4cvc58internal12NodeTemplateILb0EEES5_EE7_M_addrEv = comdat any

$_ZSt9__find_ifIN9__gnu_cxx17__normal_iteratorIPN4cvc58internal12NodeTemplateILb0EEESt6vectorIS5_SaIS5_EEEENS0_5__ops16_Iter_equals_valIKS5_EEET_SF_SF_T0_ = comdat any

$_ZN9__gnu_cxx5__ops17__iter_equals_valIKN4cvc58internal12NodeTemplateILb0EEEEENS0_16_Iter_equals_valIT_EERS8_ = comdat any

$_ZSt9__find_ifIN9__gnu_cxx17__normal_iteratorIPN4cvc58internal12NodeTemplateILb0EEESt6vectorIS5_SaIS5_EEEENS0_5__ops16_Iter_equals_valIKS5_EEET_SF_SF_T0_St26random_access_iterator_tag = comdat any

$_ZSt19__iterator_categoryIN9__gnu_cxx17__normal_iteratorIPN4cvc58internal12NodeTemplateILb0EEESt6vectorIS5_SaIS5_EEEEENSt15iterator_traitsIT_E17iterator_categoryERKSC_ = comdat any

$_ZN9__gnu_cxx5__ops16_Iter_equals_valIKN4cvc58internal12NodeTemplateILb0EEEEclINS_17__normal_iteratorIPS5_St6vectorIS5_SaIS5_EEEEEEbT_ = comdat any

$_ZN9__gnu_cxx17__normal_iteratorIPN4cvc58internal12NodeTemplateILb0EEESt6vectorIS4_SaIS4_EEEppEv = comdat any

$_ZN9__gnu_cxx5__ops16_Iter_equals_valIKN4cvc58internal12NodeTemplateILb0EEEEC2ERS6_ = comdat any

$_ZSt9__advanceIN9__gnu_cxx17__normal_iteratorIPN4cvc58internal12NodeTemplateILb0EEESt6vectorIS5_SaIS5_EEEElEvRT_T0_St26random_access_iterator_tag = comdat any

$_ZN9__gnu_cxx17__normal_iteratorIPN4cvc58internal12NodeTemplateILb0EEESt6vectorIS4_SaIS4_EEEmmEv = comdat any

$_ZN9__gnu_cxx17__normal_iteratorIPN4cvc58internal12NodeTemplateILb0EEESt6vectorIS4_SaIS4_EEEpLEl = comdat any

$_ZSt10__distanceIN9__gnu_cxx17__normal_iteratorIPN4cvc58internal12NodeTemplateILb0EEESt6vectorIS5_SaIS5_EEEEENSt15iterator_traitsIT_E15difference_typeESC_SC_St26random_access_iterator_tag = comdat any

$_ZNSt8__detail9_Map_baseIN4cvc58internal12NodeTemplateILb0EEESt4pairIKS4_S4_ESaIS7_ENS_10_Select1stESt8equal_toIS4_ESt4hashIS4_ENS_18_Mod_range_hashingENS_20_Default_ranged_hashENS_20_Prime_rehash_policyENS_17_Hashtable_traitsILb1ELb0ELb1EEELb1EEixEOS4_ = comdat any

$_ZSt16forward_as_tupleIJN4cvc58internal12NodeTemplateILb0EEEEESt5tupleIJDpOT_EES7_ = comdat any

$_ZNSt10_HashtableIN4cvc58internal12NodeTemplateILb0EEESt4pairIKS3_S3_ESaIS6_ENSt8__detail10_Select1stESt8equal_toIS3_ESt4hashIS3_ENS8_18_Mod_range_hashingENS8_20_Default_ranged_hashENS8_20_Prime_rehash_policyENS8_17_Hashtable_traitsILb1ELb0ELb1EEEE12_Scoped_nodeC2IJRKSt21piecewise_construct_tSt5tupleIJOS3_EESP_IJEEEEEPNS8_16_Hashtable_allocISaINS8_10_Hash_nodeIS6_Lb1EEEEEEDpOT_ = comdat any

$_ZNSt10_HashtableIN4cvc58internal12NodeTemplateILb0EEESt4pairIKS3_S3_ESaIS6_ENSt8__detail10_Select1stESt8equal_toIS3_ESt4hashIS3_ENS8_18_Mod_range_hashingENS8_20_Default_ranged_hashENS8_20_Prime_rehash_policyENS8_17_Hashtable_traitsILb1ELb0ELb1EEEE21_M_insert_unique_nodeEmmPNS8_10_Hash_nodeIS6_Lb1EEEm = comdat any

$_ZNKSt8__detail14_Node_iteratorISt4pairIKN4cvc58internal12NodeTemplateILb0EEES5_ELb0ELb1EEptEv = comdat any

$_ZNSt10_HashtableIN4cvc58internal12NodeTemplateILb0EEESt4pairIKS3_S3_ESaIS6_ENSt8__detail10_Select1stESt8equal_toIS3_ESt4hashIS3_ENS8_18_Mod_range_hashingENS8_20_Default_ranged_hashENS8_20_Prime_rehash_policyENS8_17_Hashtable_traitsILb1ELb0ELb1EEEE12_Scoped_nodeD2Ev = comdat any

$_ZNSt5tupleIJON4cvc58internal12NodeTemplateILb0EEEEEC2IJS3_ELb1ETnNSt9enable_ifIXclsr4_TCCIXT0_EEE29__is_implicitly_constructibleIDpT_EEEbE4typeELb1EEEDpOS8_ = comdat any

$_ZNSt11_Tuple_implILm0EJON4cvc58internal12NodeTemplateILb0EEEEEC2IS3_EEOT_ = comdat any

$_ZNSt10_Head_baseILm0EON4cvc58internal12NodeTemplateILb0EEELb0EEC2IS3_EEOT_ = comdat any

$_ZNSt8__detail16_Hashtable_allocISaINS_10_Hash_nodeISt4pairIKN4cvc58internal12NodeTemplateILb0EEES6_ELb1EEEEE16_M_allocate_nodeIJRKSt21piecewise_construct_tSt5tupleIJOS6_EESG_IJEEEEEPS9_DpOT_ = comdat any

$_ZNSt16allocator_traitsISaINSt8__detail10_Hash_nodeISt4pairIKN4cvc58internal12NodeTemplateILb0EEES6_ELb1EEEEE8allocateERSA_m = comdat any

$_ZNSt8__detail16_Hashtable_allocISaINS_10_Hash_nodeISt4pairIKN4cvc58internal12NodeTemplateILb0EEES6_ELb1EEEEE17_M_node_allocatorEv = comdat any

$_ZSt12__to_addressINSt8__detail10_Hash_nodeISt4pairIKN4cvc58internal12NodeTemplateILb0EEES6_ELb1EEEEPT_SB_ = comdat any

$_ZNSt8__detail10_Hash_nodeISt4pairIKN4cvc58internal12NodeTemplateILb0EEES5_ELb1EEC2Ev = comdat any

$_ZNSt16allocator_traitsISaINSt8__detail10_Hash_nodeISt4pairIKN4cvc58internal12NodeTemplateILb0EEES6_ELb1EEEEE9constructIS8_JRKSt21piecewise_construct_tSt5tupleIJOS6_EESG_IJEEEEEvRSA_PT_DpOT0_ = comdat any

$_ZNSt16allocator_traitsISaINSt8__detail10_Hash_nodeISt4pairIKN4cvc58internal12NodeTemplateILb0EEES6_ELb1EEEEE10deallocateERSA_PS9_m = comdat any

$_ZNSt15__new_allocatorINSt8__detail10_Hash_nodeISt4pairIKN4cvc58internal12NodeTemplateILb0EEES6_ELb1EEEE8allocateEmPKv = comdat any

$_ZNKSt15__new_allocatorINSt8__detail10_Hash_nodeISt4pairIKN4cvc58internal12NodeTemplateILb0EEES6_ELb1EEEE11_M_max_sizeEv = comdat any

$_ZNSt8__detail21_Hashtable_ebo_helperILi0ESaINS_10_Hash_nodeISt4pairIKN4cvc58internal12NodeTemplateILb0EEES6_ELb1EEEELb1EE6_M_getEv = comdat any

$_ZNSt15__new_allocatorINSt8__detail10_Hash_nodeISt4pairIKN4cvc58internal12NodeTemplateILb0EEES6_ELb1EEEE9constructIS8_JRKSt21piecewise_construct_tSt5tupleIJOS6_EESF_IJEEEEEvPT_DpOT0_ = comdat any

$_ZNSt5tupleIJON4cvc58internal12NodeTemplateILb0EEEEEC2EOS5_ = comdat any

$_ZNSt4pairIKN4cvc58internal12NodeTemplateILb0EEES3_EC2IJOS3_EJEEESt21piecewise_construct_tSt5tupleIJDpT_EES9_IJDpT0_EE = comdat any

$_ZNSt11_Tuple_implILm0EJON4cvc58internal12NodeTemplateILb0EEEEEC2EOS5_ = comdat any

$_ZNSt4pairIKN4cvc58internal12NodeTemplateILb0EEES3_EC2IJOS3_EJLm0EEJETpTnmJEEERSt5tupleIJDpT_EERS8_IJDpT1_EESt12_Index_tupleIJXspT0_EEESH_IJXspT2_EEE = comdat any

$_ZSt3getILm0EJON4cvc58internal12NodeTemplateILb0EEEEERNSt13tuple_elementIXT_ESt5tupleIJDpT0_EEE4typeERS9_ = comdat any

$_ZN4cvc58internal12NodeTemplateILb0EEC2Ev = comdat any

$_ZSt12__get_helperILm0EON4cvc58internal12NodeTemplateILb0EEEJEERT0_RSt11_Tuple_implIXT_EJS5_DpT1_EE = comdat any

$_ZNSt11_Tuple_implILm0EJON4cvc58internal12NodeTemplateILb0EEEEE7_M_headERS5_ = comdat any

$_ZNSt10_Head_baseILm0EON4cvc58internal12NodeTemplateILb0EEELb0EE7_M_headERS5_ = comdat any

$_ZNSt15__new_allocatorINSt8__detail10_Hash_nodeISt4pairIKN4cvc58internal12NodeTemplateILb0EEES6_ELb1EEEE10deallocateEPS9_m = comdat any

$_ZNSt10_HashtableIN4cvc58internal12NodeTemplateILb0EEESt4pairIKS3_S3_ESaIS6_ENSt8__detail10_Select1stESt8equal_toIS3_ESt4hashIS3_ENS8_18_Mod_range_hashingENS8_20_Default_ranged_hashENS8_20_Prime_rehash_policyENS8_17_Hashtable_traitsILb1ELb0ELb1EEEE9_M_rehashEmRKm = comdat any

$_ZNKSt8__detail15_Hash_code_baseIN4cvc58internal12NodeTemplateILb0EEESt4pairIKS4_S4_ENS_10_Select1stESt4hashIS4_ENS_18_Mod_range_hashingENS_20_Default_ranged_hashELb1EE13_M_store_codeERNS_21_Hash_node_code_cacheILb1EEEm = comdat any

$_ZNSt10_HashtableIN4cvc58internal12NodeTemplateILb0EEESt4pairIKS3_S3_ESaIS6_ENSt8__detail10_Select1stESt8equal_toIS3_ESt4hashIS3_ENS8_18_Mod_range_hashingENS8_20_Default_ranged_hashENS8_20_Prime_rehash_policyENS8_17_Hashtable_traitsILb1ELb0ELb1EEEE22_M_insert_bucket_beginEmPNS8_10_Hash_nodeIS6_Lb1EEE = comdat any

$_ZNSt10_HashtableIN4cvc58internal12NodeTemplateILb0EEESt4pairIKS3_S3_ESaIS6_ENSt8__detail10_Select1stESt8equal_toIS3_ESt4hashIS3_ENS8_18_Mod_range_hashingENS8_20_Default_ranged_hashENS8_20_Prime_rehash_policyENS8_17_Hashtable_traitsILb1ELb0ELb1EEEE13_M_rehash_auxEmSt17integral_constantIbLb1EE = comdat any

$_ZNSt10_HashtableIN4cvc58internal12NodeTemplateILb0EEESt4pairIKS3_S3_ESaIS6_ENSt8__detail10_Select1stESt8equal_toIS3_ESt4hashIS3_ENS8_18_Mod_range_hashingENS8_20_Default_ranged_hashENS8_20_Prime_rehash_policyENS8_17_Hashtable_traitsILb1ELb0ELb1EEEE19_M_allocate_bucketsEm = comdat any

$_ZNSt10_HashtableIN4cvc58internal12NodeTemplateILb0EEESt4pairIKS3_S3_ESaIS6_ENSt8__detail10_Select1stESt8equal_toIS3_ESt4hashIS3_ENS8_18_Mod_range_hashingENS8_20_Default_ranged_hashENS8_20_Prime_rehash_policyENS8_17_Hashtable_traitsILb1ELb0ELb1EEEE21_M_deallocate_bucketsEv = comdat any

$_ZNSt8__detail16_Hashtable_allocISaINS_10_Hash_nodeISt4pairIKN4cvc58internal12NodeTemplateILb0EEES6_ELb1EEEEE19_M_allocate_bucketsEm = comdat any

$_ZNSaIPNSt8__detail15_Hash_node_baseEEC2INS_10_Hash_nodeISt4pairIKN4cvc58internal12NodeTemplateILb0EEES9_ELb1EEEEERKSaIT_E = comdat any

$_ZNSt10_HashtableIN4cvc58internal12NodeTemplateILb0EEESt4pairIKS3_S3_ESaIS6_ENSt8__detail10_Select1stESt8equal_toIS3_ESt4hashIS3_ENS8_18_Mod_range_hashingENS8_20_Default_ranged_hashENS8_20_Prime_rehash_policyENS8_17_Hashtable_traitsILb1ELb0ELb1EEEE21_M_deallocate_bucketsEPPNS8_15_Hash_node_baseEm = comdat any

$_ZNKSt10_HashtableIN4cvc58internal12NodeTemplateILb0EEESt4pairIKS3_S3_ESaIS6_ENSt8__detail10_Select1stESt8equal_toIS3_ESt4hashIS3_ENS8_18_Mod_range_hashingENS8_20_Default_ranged_hashENS8_20_Prime_rehash_policyENS8_17_Hashtable_traitsILb1ELb0ELb1EEEE21_M_uses_single_bucketEPPNS8_15_Hash_node_baseE = comdat any

$_ZNSt8__detail16_Hashtable_allocISaINS_10_Hash_nodeISt4pairIKN4cvc58internal12NodeTemplateILb0EEES6_ELb1EEEEE21_M_deallocate_bucketsEPPNS_15_Hash_node_baseEm = comdat any

$_ZNSt8__detail16_Hashtable_allocISaINS_10_Hash_nodeISt4pairIKN4cvc58internal12NodeTemplateILb0EEES6_ELb1EEEEE18_M_deallocate_nodeEPS9_ = comdat any

$_ZNSt16allocator_traitsISaINSt8__detail10_Hash_nodeISt4pairIKN4cvc58internal12NodeTemplateILb0EEES6_ELb1EEEEE7destroyIS8_EEvRSA_PT_ = comdat any

$_ZNSt8__detail16_Hashtable_allocISaINS_10_Hash_nodeISt4pairIKN4cvc58internal12NodeTemplateILb0EEES6_ELb1EEEEE22_M_deallocate_node_ptrEPS9_ = comdat any

$_ZNSt15__new_allocatorINSt8__detail10_Hash_nodeISt4pairIKN4cvc58internal12NodeTemplateILb0EEES6_ELb1EEEE7destroyIS8_EEvPT_ = comdat any

$_ZNSt4pairIKN4cvc58internal12NodeTemplateILb0EEES3_ED2Ev = comdat any

$_ZNSt19__ptr_traits_ptr_toIPNSt8__detail10_Hash_nodeISt4pairIKN4cvc58internal12NodeTemplateILb0EEES6_ELb1EEES9_Lb0EE10pointer_toERS9_ = comdat any

$_ZNK4cvc58internal4expr9NodeValue5beginINS0_12NodeTemplateILb1EEEEENS2_8iteratorIT_EEv = comdat any

$_ZN4cvc58internal4expr9NodeValue8iteratorINS0_12NodeTemplateILb1EEEEC2EPKPKS2_ = comdat any

$_ZNK4cvc58internal4expr9NodeValue3endINS0_12NodeTemplateILb1EEEEENS2_8iteratorIT_EEv = comdat any

$_ZNSt10_HashtableIN4cvc58internal12NodeTemplateILb0EEESt4pairIKS3_S3_ESaIS6_ENSt8__detail10_Select1stESt8equal_toIS3_ESt4hashIS3_ENS8_18_Mod_range_hashingENS8_20_Default_ranged_hashENS8_20_Prime_rehash_policyENS8_17_Hashtable_traitsILb1ELb0ELb1EEEED2Ev = comdat any

$_ZNSt10_HashtableIN4cvc58internal12NodeTemplateILb0EEESt4pairIKS3_S3_ESaIS6_ENSt8__detail10_Select1stESt8equal_toIS3_ESt4hashIS3_ENS8_18_Mod_range_hashingENS8_20_Default_ranged_hashENS8_20_Prime_rehash_policyENS8_17_Hashtable_traitsILb1ELb0ELb1EEEE5clearEv = comdat any

$_ZNSt8__detail16_Hashtable_allocISaINS_10_Hash_nodeISt4pairIKN4cvc58internal12NodeTemplateILb0EEES6_ELb1EEEEED2Ev = comdat any

$_ZNSt8__detail16_Hashtable_allocISaINS_10_Hash_nodeISt4pairIKN4cvc58internal12NodeTemplateILb0EEES6_ELb1EEEEE19_M_deallocate_nodesEPS9_ = comdat any

$_ZNSt8__detail21_Hashtable_ebo_helperILi0ESaINS_10_Hash_nodeISt4pairIKN4cvc58internal12NodeTemplateILb0EEES6_ELb1EEEELb1EED2Ev = comdat any

$_ZNSaINSt8__detail10_Hash_nodeISt4pairIKN4cvc58internal12NodeTemplateILb0EEES5_ELb1EEEED2Ev = comdat any

$_ZNSt15__new_allocatorINSt8__detail10_Hash_nodeISt4pairIKN4cvc58internal12NodeTemplateILb0EEES6_ELb1EEEED2Ev = comdat any

$_ZSt6__sortIN9__gnu_cxx17__normal_iteratorIPN4cvc58internal12NodeTemplateILb1EEESt6vectorIS5_SaIS5_EEEENS0_5__ops15_Iter_comp_iterINS3_12SortTypeSizeEEEEvT_SF_T0_ = comdat any

$_ZN9__gnu_cxx5__ops16__iter_comp_iterIN4cvc58internal12SortTypeSizeEEENS0_15_Iter_comp_iterIT_EES6_ = comdat any

$_ZN9__gnu_cxx5__ops15_Iter_comp_iterIN4cvc58internal12SortTypeSizeEED2Ev = comdat any

$_ZSt16__introsort_loopIN9__gnu_cxx17__normal_iteratorIPN4cvc58internal12NodeTemplateILb1EEESt6vectorIS5_SaIS5_EEEElNS0_5__ops15_Iter_comp_iterINS3_12SortTypeSizeEEEEvT_SF_T0_T1_ = comdat any

$_ZSt4__lgl = comdat any

$_ZN9__gnu_cxx5__ops15_Iter_comp_iterIN4cvc58internal12SortTypeSizeEEC2ERKS5_ = comdat any

$_ZSt22__final_insertion_sortIN9__gnu_cxx17__normal_iteratorIPN4cvc58internal12NodeTemplateILb1EEESt6vectorIS5_SaIS5_EEEENS0_5__ops15_Iter_comp_iterINS3_12SortTypeSizeEEEEvT_SF_T0_ = comdat any

$_ZSt14__partial_sortIN9__gnu_cxx17__normal_iteratorIPN4cvc58internal12NodeTemplateILb1EEESt6vectorIS5_SaIS5_EEEENS0_5__ops15_Iter_comp_iterINS3_12SortTypeSizeEEEEvT_SF_SF_T0_ = comdat any

$_ZSt27__unguarded_partition_pivotIN9__gnu_cxx17__normal_iteratorIPN4cvc58internal12NodeTemplateILb1EEESt6vectorIS5_SaIS5_EEEENS0_5__ops15_Iter_comp_iterINS3_12SortTypeSizeEEEET_SF_SF_T0_ = comdat any

$_ZSt13__heap_selectIN9__gnu_cxx17__normal_iteratorIPN4cvc58internal12NodeTemplateILb1EEESt6vectorIS5_SaIS5_EEEENS0_5__ops15_Iter_comp_iterINS3_12SortTypeSizeEEEEvT_SF_SF_T0_ = comdat any

$_ZSt11__sort_heapIN9__gnu_cxx17__normal_iteratorIPN4cvc58internal12NodeTemplateILb1EEESt6vectorIS5_SaIS5_EEEENS0_5__ops15_Iter_comp_iterINS3_12SortTypeSizeEEEEvT_SF_RT0_ = comdat any

$_ZSt11__make_heapIN9__gnu_cxx17__normal_iteratorIPN4cvc58internal12NodeTemplateILb1EEESt6vectorIS5_SaIS5_EEEENS0_5__ops15_Iter_comp_iterINS3_12SortTypeSizeEEEEvT_SF_RT0_ = comdat any

$_ZN9__gnu_cxxltIPN4cvc58internal12NodeTemplateILb1EEESt6vectorIS4_SaIS4_EEEEbRKNS_17__normal_iteratorIT_T0_EESE_ = comdat any

$_ZN9__gnu_cxx5__ops15_Iter_comp_iterIN4cvc58internal12SortTypeSizeEEclINS_17__normal_iteratorIPNS3_12NodeTemplateILb1EEESt6vectorIS9_SaIS9_EEEESE_EEbT_T0_ = comdat any

$_ZSt10__pop_heapIN9__gnu_cxx17__normal_iteratorIPN4cvc58internal12NodeTemplateILb1EEESt6vectorIS5_SaIS5_EEEENS0_5__ops15_Iter_comp_iterINS3_12SortTypeSizeEEEEvT_SF_SF_RT0_ = comdat any

$_ZSt13__adjust_heapIN9__gnu_cxx17__normal_iteratorIPN4cvc58internal12NodeTemplateILb1EEESt6vectorIS5_SaIS5_EEEElS5_NS0_5__ops15_Iter_comp_iterINS3_12SortTypeSizeEEEEvT_T0_SG_T1_T2_ = comdat any

$_ZN9__gnu_cxx5__ops14_Iter_comp_valIN4cvc58internal12SortTypeSizeEEC2EONS0_15_Iter_comp_iterIS4_EE = comdat any

$_ZSt11__push_heapIN9__gnu_cxx17__normal_iteratorIPN4cvc58internal12NodeTemplateILb1EEESt6vectorIS5_SaIS5_EEEElS5_NS0_5__ops14_Iter_comp_valINS3_12SortTypeSizeEEEEvT_T0_SG_T1_RT2_ = comdat any

$_ZN9__gnu_cxx5__ops14_Iter_comp_valIN4cvc58internal12SortTypeSizeEED2Ev = comdat any

$_ZN4cvc58internal12SortTypeSizeC2EOS1_ = comdat any

$_ZNSt3mapIN4cvc58internal8TypeNodeEmSt4lessIS2_ESaISt4pairIKS2_mEEEC2EOS9_ = comdat any

$_ZNSt8_Rb_treeIN4cvc58internal8TypeNodeESt4pairIKS2_mESt10_Select1stIS5_ESt4lessIS2_ESaIS5_EEC2EOSB_ = comdat any

$_ZNSt8_Rb_treeIN4cvc58internal8TypeNodeESt4pairIKS2_mESt10_Select1stIS5_ESt4lessIS2_ESaIS5_EE13_Rb_tree_implIS9_Lb1EEC2EOSD_ = comdat any

$_ZNSt20_Rb_tree_key_compareISt4lessIN4cvc58internal8TypeNodeEEEC2EOS5_ = comdat any

$_ZNSt15_Rb_tree_headerC2EOS_ = comdat any

$_ZNSt15_Rb_tree_header12_M_move_dataERS_ = comdat any

$_ZN9__gnu_cxx5__ops14_Iter_comp_valIN4cvc58internal12SortTypeSizeEEclINS_17__normal_iteratorIPNS3_12NodeTemplateILb1EEESt6vectorIS9_SaIS9_EEEES9_EEbT_RT0_ = comdat any

$_ZN9__gnu_cxx17__normal_iteratorIPN4cvc58internal12NodeTemplateILb1EEESt6vectorIS4_SaIS4_EEEmmEv = comdat any

$_ZSt22__move_median_to_firstIN9__gnu_cxx17__normal_iteratorIPN4cvc58internal12NodeTemplateILb1EEESt6vectorIS5_SaIS5_EEEENS0_5__ops15_Iter_comp_iterINS3_12SortTypeSizeEEEEvT_SF_SF_SF_T0_ = comdat any

$_ZSt21__unguarded_partitionIN9__gnu_cxx17__normal_iteratorIPN4cvc58internal12NodeTemplateILb1EEESt6vectorIS5_SaIS5_EEEENS0_5__ops15_Iter_comp_iterINS3_12SortTypeSizeEEEET_SF_SF_SF_T0_ = comdat any

$_ZSt9iter_swapIN9__gnu_cxx17__normal_iteratorIPN4cvc58internal12NodeTemplateILb1EEESt6vectorIS5_SaIS5_EEEESA_EvT_T0_ = comdat any

$_ZSt4swapIN4cvc58internal12NodeTemplateILb1EEEENSt9enable_ifIXsr6__and_ISt6__not_ISt15__is_tuple_likeIT_EESt21is_move_constructibleIS7_ESt18is_move_assignableIS7_EEE5valueEvE4typeERS7_SG_ = comdat any

$_ZSt16__insertion_sortIN9__gnu_cxx17__normal_iteratorIPN4cvc58internal12NodeTemplateILb1EEESt6vectorIS5_SaIS5_EEEENS0_5__ops15_Iter_comp_iterINS3_12SortTypeSizeEEEEvT_SF_T0_ = comdat any

$_ZSt26__unguarded_insertion_sortIN9__gnu_cxx17__normal_iteratorIPN4cvc58internal12NodeTemplateILb1EEESt6vectorIS5_SaIS5_EEEENS0_5__ops15_Iter_comp_iterINS3_12SortTypeSizeEEEEvT_SF_T0_ = comdat any

$_ZSt13move_backwardIN9__gnu_cxx17__normal_iteratorIPN4cvc58internal12NodeTemplateILb1EEESt6vectorIS5_SaIS5_EEEESA_ET0_T_SC_SB_ = comdat any

$_ZSt25__unguarded_linear_insertIN9__gnu_cxx17__normal_iteratorIPN4cvc58internal12NodeTemplateILb1EEESt6vectorIS5_SaIS5_EEEENS0_5__ops14_Val_comp_iterINS3_12SortTypeSizeEEEEvT_T0_ = comdat any

$_ZN9__gnu_cxx5__ops15__val_comp_iterIN4cvc58internal12SortTypeSizeEEENS0_14_Val_comp_iterIT_EENS0_15_Iter_comp_iterIS6_EE = comdat any

$_ZN9__gnu_cxx5__ops14_Val_comp_iterIN4cvc58internal12SortTypeSizeEED2Ev = comdat any

$_ZSt22__copy_move_backward_aILb1EN9__gnu_cxx17__normal_iteratorIPN4cvc58internal12NodeTemplateILb1EEESt6vectorIS5_SaIS5_EEEESA_ET1_T0_SC_SB_ = comdat any

$_ZSt12__miter_baseIN9__gnu_cxx17__normal_iteratorIPN4cvc58internal12NodeTemplateILb1EEESt6vectorIS5_SaIS5_EEEEET_SB_ = comdat any

$_ZN9__gnu_cxx5__ops14_Val_comp_iterIN4cvc58internal12SortTypeSizeEEclINS3_12NodeTemplateILb1EEENS_17__normal_iteratorIPS8_St6vectorIS8_SaIS8_EEEEEEbRT_T0_ = comdat any

$_ZN9__gnu_cxx5__ops14_Val_comp_iterIN4cvc58internal12SortTypeSizeEEC2EONS0_15_Iter_comp_iterIS4_EE = comdat any

$_ZN9__gnu_cxx5__ops15_Iter_comp_iterIN4cvc58internal12SortTypeSizeEEC2ES4_ = comdat any

$_ZTSN4cvc58internal6EnvObjE = comdat any

$_ZTIN4cvc58internal6EnvObjE = comdat any

$_ZSt19piecewise_construct = comdat any

$_ZZN4cvc58internal4expr9NodeValue4nullEvE6s_null = comdat any

$_ZGVZN4cvc58internal4expr9NodeValue4nullEvE6s_null = comdat any

@_ZStL8__ioinit = internal global %"class.std::ios_base::Init" zeroinitializer, align 1
@__dso_handle = external hidden global i8
@_ZTVN4cvc58internal6theory24TheoryEngineModelBuilderE = hidden unnamed_addr constant { [7 x ptr] } { [7 x ptr] [ptr null, ptr @_ZTIN4cvc58internal6theory24TheoryEngineModelBuilderE, ptr @_ZN4cvc58internal6theory24TheoryEngineModelBuilderD2Ev, ptr @_ZN4cvc58internal6theory24TheoryEngineModelBuilderD0Ev, ptr @_ZN4cvc58internal6theory24TheoryEngineModelBuilder20preProcessBuildModelEPNS1_11TheoryModelE, ptr @_ZN4cvc58internal6theory24TheoryEngineModelBuilder17processBuildModelEPNS1_11TheoryModelE, ptr @_ZN4cvc58internal6theory24TheoryEngineModelBuilder10debugModelEPNS1_11TheoryModelE] }, align 8
@_ZN4cvc58internal10nullStreamE = external global %"class.cvc5::internal::NullC", align 1
@_ZN4cvc58internal12TraceChannelE = external global %"class.cvc5::internal::TraceC", align 8
@.str = private unnamed_addr constant [16 x i8] c"Look at term : \00", align 1
@.str.1 = private unnamed_addr constant [20 x i8] c"...try to normalize\00", align 1
@.str.2 = private unnamed_addr constant [11 x i8] c"...return \00", align 1
@.str.3 = private unnamed_addr constant [11 x i8] c", isValue=\00", align 1
@.str.4 = private unnamed_addr constant [37 x i8] c"isAssignerActive: not active due to \00", align 1
@.str.5 = private unnamed_addr constant [26 x i8] c"isAssignerActive: active!\00", align 1
@.str.6 = private unnamed_addr constant [37 x i8] c"    Assign: Setting constant rep of \00", align 1
@.str.7 = private unnamed_addr constant [5 x i8] c" to \00", align 1
@.str.8 = private unnamed_addr constant [4 x i8] c"Is \00", align 1
@.str.9 = private unnamed_addr constant [36 x i8] c" and excluded codatatype value for \00", align 1
@.str.10 = private unnamed_addr constant [3 x i8] c"? \00", align 1
@.str.11 = private unnamed_addr constant [9 x i8] c"  Rep : \00", align 1
@.str.12 = private unnamed_addr constant [27 x i8] c"Is excluded usort value : \00", align 1
@.str.13 = private unnamed_addr constant [2 x i8] c" \00", align 1
@.str.14 = private unnamed_addr constant [18 x i8] c"  Cardinality is \00", align 1
@.str.15 = private unnamed_addr constant [12 x i8] c"  Index is \00", align 1
@.str.16 = private unnamed_addr constant [37 x i8] c"TheoryEngineModelBuilder: buildModel\00", align 1
@.str.17 = private unnamed_addr constant [52 x i8] c"TheoryEngineModelBuilder: Preprocess build model...\00", align 1
@.str.18 = private unnamed_addr constant [55 x i8] c"TheoryEngineModelBuilder: fail preprocess build model.\00", align 1
@.str.19 = private unnamed_addr constant [114 x i8] c"TheoryEngineModelBuilder: Add assignable subterms , collect representatives and compute assignable information...\00", align 1
@.str.20 = private unnamed_addr constant [18 x i8] c"  Processing EQC \00", align 1
@.str.21 = private unnamed_addr constant [22 x i8] c"    Processing Term: \00", align 1
@.str.22 = private unnamed_addr constant [44 x i8] c"Model values in the same equivalence class \00", align 1
@.str.23 = private unnamed_addr constant [17 x i8] c"    ..ConstRep( \00", align 1
@.str.24 = private unnamed_addr constant [6 x i8] c" ) = \00", align 1
@.str.25 = private unnamed_addr constant [12 x i8] c"    ..Rep( \00", align 1
@.str.26 = private unnamed_addr constant [24 x i8] c"Fixed bound (#eqc) for \00", align 1
@.str.27 = private unnamed_addr constant [4 x i8] c" : \00", align 1
@.str.28 = private unnamed_addr constant [19 x i8] c"Processing EC's...\00", align 1
@.str.29 = private unnamed_addr constant [32 x i8] c"  Eval phase, working on type: \00", align 1
@.str.30 = private unnamed_addr constant [15 x i8] c"Look at eqc : \00", align 1
@.str.31 = private unnamed_addr constant [35 x i8] c"    Eval: Setting constant rep of \00", align 1
@.str.32 = private unnamed_addr constant [41 x i8] c"  Normalization phase, working on type: \00", align 1
@.str.33 = private unnamed_addr constant [22 x i8] c"    Normalizing rep (\00", align 1
@.str.34 = private unnamed_addr constant [19 x i8] c"), normalized to (\00", align 1
@.str.35 = private unnamed_addr constant [2 x i8] c")\00", align 1
@.str.36 = private unnamed_addr constant [34 x i8] c"  Assign phase, working on type: \00", align 1
@.str.37 = private unnamed_addr constant [9 x i8] c"    eqc \00", align 1
@.str.38 = private unnamed_addr constant [16 x i8] c" is assignable=\00", align 1
@.str.39 = private unnamed_addr constant [13 x i8] c", evaluable=\00", align 1
@.str.40 = private unnamed_addr constant [43 x i8] c"Get value from assigner for finite type...\00", align 1
@.str.41 = private unnamed_addr constant [24 x i8] c"Enumerate term of type \00", align 1
@.str.42 = private unnamed_addr constant [21 x i8] c"Check if excluded : \00", align 1
@.str.43 = private unnamed_addr constant [18 x i8] c"Excluded value : \00", align 1
@.str.44 = private unnamed_addr constant [48 x i8] c" due to alpha-equivalent codatatype expression.\00", align 1
@.str.45 = private unnamed_addr constant [36 x i8] c"Get first value from finite type...\00", align 1
@.str.46 = private unnamed_addr constant [8 x i8] c"...got \00", align 1
@.str.47 = private unnamed_addr constant [33 x i8] c"Copy representatives to model...\00", align 1
@.str.48 = private unnamed_addr constant [27 x i8] c"Make sure ECs have reps...\00", align 1
@.str.49 = private unnamed_addr constant [52 x i8] c"TheoryEngineModelBuilder: fail process build model.\00", align 1
@.str.50 = private unnamed_addr constant [34 x i8] c"TheoryEngineModelBuilder: success\00", align 1
@__PRETTY_FUNCTION__._ZN4cvc58internal6theory24TheoryEngineModelBuilder15debugCheckModelEPNS1_11TheoryModelE = private unnamed_addr constant [86 x i8] c"void cvc5::internal::theory::TheoryEngineModelBuilder::debugCheckModel(TheoryModel *)\00", align 1
@.str.51 = private unnamed_addr constant [123 x i8] c"generated/home/dtcxzyw/WorkSpace/Projects/compilers/llvm-opt-benchmark/bench/cvc5/cvc5/src/theory/theory_model_builder.cpp\00", align 1
@.str.52 = private unnamed_addr constant [17 x i8] c"Check failure\0A\0A \00", align 1
@.str.53 = private unnamed_addr constant [14 x i8] c"rep.isConst()\00", align 1
@.str.54 = private unnamed_addr constant [2 x i8] c"\0A\00", align 1
@_ZZN4cvc58internal6theory24TheoryEngineModelBuilder15debugCheckModelEPNS1_11TheoryModelEE16repCheckInstance = internal global i32 0, align 4
@.str.55 = private unnamed_addr constant [29 x i8] c"rep.getType() == n.getType()\00", align 1
@.str.56 = private unnamed_addr constant [16 x i8] c"Representative \00", align 1
@.str.57 = private unnamed_addr constant [5 x i8] c" of \00", align 1
@.str.58 = private unnamed_addr constant [29 x i8] c" violates type constraints (\00", align 1
@.str.59 = private unnamed_addr constant [6 x i8] c" and \00", align 1
@.str.60 = private unnamed_addr constant [29 x i8] c"Failed representative check:\00", align 1
@.str.61 = private unnamed_addr constant [3 x i8] c"( \00", align 1
@.str.62 = private unnamed_addr constant [3 x i8] c") \00", align 1
@.str.63 = private unnamed_addr constant [4 x i8] c"n: \00", align 1
@.str.64 = private unnamed_addr constant [14 x i8] c"getValue(n): \00", align 1
@.str.65 = private unnamed_addr constant [6 x i8] c"rep: \00", align 1
@.str.66 = private unnamed_addr constant [11 x i8] c"val == rep\00", align 1
@.str.67 = private unnamed_addr constant [17 x i8] c"do normalize on \00", align 1
@.str.68 = private unnamed_addr constant [15 x i8] c": const child \00", align 1
@.str.69 = private unnamed_addr constant [8 x i8] c": keep \00", align 1
@.str.70 = private unnamed_addr constant [14 x i8] c": no hasTerm \00", align 1
@.str.71 = private unnamed_addr constant [18 x i8] c"  process term : \00", align 1
@.str.72 = private unnamed_addr constant [15 x i8] c"    get rep : \00", align 1
@.str.73 = private unnamed_addr constant [11 x i8] c" returned \00", align 1
@.str.74 = private unnamed_addr constant [12 x i8] c"  Setting (\00", align 1
@.str.75 = private unnamed_addr constant [7 x i8] c") to (\00", align 1
@.str.76 = private unnamed_addr constant [6 x i8] c"_arg_\00", align 1
@.str.77 = private unnamed_addr constant [23 x i8] c"...assign via function\00", align 1
@.str.78 = private unnamed_addr constant [15 x i8] c"    process : \00", align 1
@.str.79 = private unnamed_addr constant [17 x i8] c"      get rep : \00", align 1
@.str.80 = private unnamed_addr constant [21 x i8] c"      get rep val : \00", align 1
@.str.81 = private unnamed_addr constant [26 x i8] c"...assign via ho function\00", align 1
@.str.82 = private unnamed_addr constant [29 x i8] c"Assigning function values...\00", align 1
@.str.83 = private unnamed_addr constant [26 x i8] c"Sort functions by type...\00", align 1
@.str.84 = private unnamed_addr constant [14 x i8] c"model-builder\00", align 1
@.str.85 = private unnamed_addr constant [9 x i8] c"...have \00", align 1
@.str.86 = private unnamed_addr constant [22 x i8] c" functions to assign:\00", align 1
@.str.87 = private unnamed_addr constant [4 x i8] c"  [\00", align 1
@.str.88 = private unnamed_addr constant [5 x i8] c"] : \00", align 1
@.str.89 = private unnamed_addr constant [13 x i8] c"  Function #\00", align 1
@.str.90 = private unnamed_addr constant [5 x i8] c" is \00", align 1
@.str.91 = private unnamed_addr constant [29 x i8] c"  Assign function value for \00", align 1
@.str.92 = private unnamed_addr constant [19 x i8] c" based on APPLY_UF\00", align 1
@.str.93 = private unnamed_addr constant [27 x i8] c" based on curried HO_APPLY\00", align 1
@.str.94 = private unnamed_addr constant [36 x i8] c"Finished assigning function values.\00", align 1
@_ZTVN10__cxxabiv121__vmi_class_type_infoE = external global [0 x ptr]
@_ZTSN4cvc58internal6theory24TheoryEngineModelBuilderE = hidden constant [50 x i8] c"N4cvc58internal6theory24TheoryEngineModelBuilderE\00", align 1
@_ZTVN10__cxxabiv117__class_type_infoE = external global [0 x ptr]
@_ZTSN4cvc58internal6EnvObjE = linkonce_odr hidden constant [24 x i8] c"N4cvc58internal6EnvObjE\00", comdat, align 1
@_ZTIN4cvc58internal6EnvObjE = linkonce_odr hidden constant { ptr, ptr } { ptr getelementptr inbounds (ptr, ptr @_ZTVN10__cxxabiv117__class_type_infoE, i64 2), ptr @_ZTSN4cvc58internal6EnvObjE }, comdat, align 8
@_ZTIN4cvc58internal6theory24TheoryEngineModelBuilderE = hidden constant { ptr, ptr, i32, i32, ptr, i64 } { ptr getelementptr inbounds (ptr, ptr @_ZTVN10__cxxabiv121__vmi_class_type_infoE, i64 2), ptr @_ZTSN4cvc58internal6theory24TheoryEngineModelBuilderE, i32 0, i32 1, ptr @_ZTIN4cvc58internal6EnvObjE, i64 0 }, align 8
@_ZN4cvc58internal12NodeTemplateILb1EE6s_nullE = linkonce_odr hidden global %"class.cvc5::internal::NodeTemplate" zeroinitializer, comdat, align 8
@_ZGVN4cvc58internal12NodeTemplateILb1EE6s_nullE = linkonce_odr hidden global i64 0, comdat($_ZN4cvc58internal12NodeTemplateILb1EE6s_nullE), align 8
@.str.96 = private unnamed_addr constant [26 x i8] c"vector::_M_realloc_insert\00", align 1
@.str.97 = private unnamed_addr constant [50 x i8] c"basic_string: construction from null is not valid\00", align 1
@_ZN4cvc58internal11Cvc5ostream16s_indentIosIndexE = external constant i32, align 4
@_ZN4cvc58internal11Cvc5ostream5s_tabB5cxx11E = external global %"class.std::__cxx11::basic_string", align 8
@_ZSt19piecewise_construct = linkonce_odr constant %"struct.std::piecewise_construct_t" zeroinitializer, comdat, align 1
@_ZTIN4cvc58internal28TypeCheckingExceptionPrivateE = external constant ptr
@_ZZN4cvc58internal4expr9NodeValue4nullEvE6s_null = linkonce_odr global ptr null, comdat, align 8
@_ZGVZN4cvc58internal4expr9NodeValue4nullEvE6s_null = linkonce_odr global i64 0, comdat, align 8
@.str.98 = private unnamed_addr constant [24 x i8] c"vector::_M_range_insert\00", align 1
@llvm.global_ctors = appending global [2 x { i32, ptr, ptr }] [{ i32, ptr, ptr } { i32 65535, ptr @__cxx_global_var_init.95, ptr @_ZN4cvc58internal12NodeTemplateILb1EE6s_nullE }, { i32, ptr, ptr } { i32 65535, ptr @_GLOBAL__sub_I_theory_model_builder.cpp, ptr null }]
@llvm.used = appending global [1 x ptr] [ptr @_ZN4cvc58internal12NodeTemplateILb1EE6s_nullE], section "llvm.metadata"

@_ZN4cvc58internal6theory24TheoryEngineModelBuilderC1ERNS0_3EnvE = hidden unnamed_addr alias void (ptr, ptr), ptr @_ZN4cvc58internal6theory24TheoryEngineModelBuilderC2ERNS0_3EnvE

; Function Attrs: uwtable
define internal void @__cxx_global_var_init() #0 section ".text.startup" {
entry:
  call void @_ZNSt8ios_base4InitC1Ev(ptr noundef nonnull align 1 dereferenceable(1) @_ZStL8__ioinit)
  %0 = call i32 @__cxa_atexit(ptr @_ZNSt8ios_base4InitD1Ev, ptr @_ZStL8__ioinit, ptr @__dso_handle) #3
  ret void
}

declare void @_ZNSt8ios_base4InitC1Ev(ptr noundef nonnull align 1 dereferenceable(1)) unnamed_addr #1

; Function Attrs: nounwind
declare void @_ZNSt8ios_base4InitD1Ev(ptr noundef nonnull align 1 dereferenceable(1)) unnamed_addr #2

; Function Attrs: nounwind
declare i32 @__cxa_atexit(ptr, ptr, ptr) #3

; Function Attrs: mustprogress uwtable
define hidden void @_ZN4cvc58internal6theory24TheoryEngineModelBuilderC2ERNS0_3EnvE(ptr noundef nonnull align 8 dereferenceable(120) %this, ptr noundef nonnull align 8 dereferenceable(576) %env) unnamed_addr #4 align 2 {
entry:
  %this.addr = alloca ptr, align 8
  %env.addr = alloca ptr, align 8
  store ptr %this, ptr %this.addr, align 8
  store ptr %env, ptr %env.addr, align 8
  %this1 = load ptr, ptr %this.addr, align 8
  %0 = load ptr, ptr %env.addr, align 8
  call void @_ZN4cvc58internal6EnvObjC2ERNS0_3EnvE(ptr noundef nonnull align 8 dereferenceable(16) %this1, ptr noundef nonnull align 8 dereferenceable(576) %0)
  store ptr getelementptr inbounds ({ [7 x ptr] }, ptr @_ZTVN4cvc58internal6theory24TheoryEngineModelBuilderE, i32 0, inrange i32 0, i32 2), ptr %this1, align 8
  %d_normalizedCache = getelementptr inbounds %"class.cvc5::internal::theory::TheoryEngineModelBuilder", ptr %this1, i32 0, i32 1
  call void @_ZNSt13unordered_mapIN4cvc58internal12NodeTemplateILb1EEES3_St4hashIS3_ESt8equal_toIS3_ESaISt4pairIKS3_S3_EEEC2Ev(ptr noundef nonnull align 8 dereferenceable(56) %d_normalizedCache) #3
  %d_constantReps = getelementptr inbounds %"class.cvc5::internal::theory::TheoryEngineModelBuilder", ptr %this1, i32 0, i32 2
  call void @_ZNSt3mapIN4cvc58internal12NodeTemplateILb1EEES3_St4lessIS3_ESaISt4pairIKS3_S3_EEEC2Ev(ptr noundef nonnull align 8 dereferenceable(48) %d_constantReps) #3
  ret void
}

declare void @_ZN4cvc58internal6EnvObjC2ERNS0_3EnvE(ptr noundef nonnull align 8 dereferenceable(16), ptr noundef nonnull align 8 dereferenceable(576)) unnamed_addr #1

; Function Attrs: mustprogress nounwind uwtable
define linkonce_odr hidden void @_ZNSt13unordered_mapIN4cvc58internal12NodeTemplateILb1EEES3_St4hashIS3_ESt8equal_toIS3_ESaISt4pairIKS3_S3_EEEC2Ev(ptr noundef nonnull align 8 dereferenceable(56) %this) unnamed_addr #5 comdat align 2 {
entry:
  %this.addr = alloca ptr, align 8
  store ptr %this, ptr %this.addr, align 8
  %this1 = load ptr, ptr %this.addr, align 8
  %_M_h = getelementptr inbounds %"class.std::unordered_map", ptr %this1, i32 0, i32 0
  call void @_ZNSt10_HashtableIN4cvc58internal12NodeTemplateILb1EEESt4pairIKS3_S3_ESaIS6_ENSt8__detail10_Select1stESt8equal_toIS3_ESt4hashIS3_ENS8_18_Mod_range_hashingENS8_20_Default_ranged_hashENS8_20_Prime_rehash_policyENS8_17_Hashtable_traitsILb1ELb0ELb1EEEEC2Ev(ptr noundef nonnull align 8 dereferenceable(56) %_M_h) #3
  ret void
}

; Function Attrs: mustprogress nounwind uwtable
define linkonce_odr hidden void @_ZNSt3mapIN4cvc58internal12NodeTemplateILb1EEES3_St4lessIS3_ESaISt4pairIKS3_S3_EEEC2Ev(ptr noundef nonnull align 8 dereferenceable(48) %this) unnamed_addr #5 comdat align 2 {
entry:
  %this.addr = alloca ptr, align 8
  store ptr %this, ptr %this.addr, align 8
  %this1 = load ptr, ptr %this.addr, align 8
  %_M_t = getelementptr inbounds %"class.std::map", ptr %this1, i32 0, i32 0
  call void @_ZNSt8_Rb_treeIN4cvc58internal12NodeTemplateILb1EEESt4pairIKS3_S3_ESt10_Select1stIS6_ESt4lessIS3_ESaIS6_EEC2Ev(ptr noundef nonnull align 8 dereferenceable(48) %_M_t) #3
  ret void
}

; Function Attrs: mustprogress uwtable
define hidden void @_ZN4cvc58internal6theory24TheoryEngineModelBuilder8Assigner10initializeENS0_8TypeNodeEPNS1_24TypeEnumeratorPropertiesERKSt6vectorINS0_12NodeTemplateILb1EEESaIS9_EE(ptr noundef nonnull align 8 dereferenceable(33) %this, ptr noundef %tn, ptr noundef %tep, ptr noundef nonnull align 8 dereferenceable(24) %aes) #4 align 2 personality ptr @__gxx_personality_v0 {
entry:
  %this.addr = alloca ptr, align 8
  %tn.indirect_addr = alloca ptr, align 8
  %tep.addr = alloca ptr, align 8
  %aes.addr = alloca ptr, align 8
  %agg.tmp = alloca %"class.cvc5::internal::TypeNode", align 8
  %exn.slot = alloca ptr, align 8
  %ehselector.slot = alloca i32, align 4
  %cleanup.isactive = alloca i1, align 1
  %agg.tmp4 = alloca %"class.__gnu_cxx::__normal_iterator.273", align 8
  %ref.tmp = alloca %"class.__gnu_cxx::__normal_iterator", align 8
  %agg.tmp7 = alloca %"class.__gnu_cxx::__normal_iterator.273", align 8
  %agg.tmp10 = alloca %"class.__gnu_cxx::__normal_iterator.273", align 8
  %coerce = alloca %"class.__gnu_cxx::__normal_iterator", align 8
  store ptr %this, ptr %this.addr, align 8
  store ptr %tn, ptr %tn.indirect_addr, align 8
  store ptr %tep, ptr %tep.addr, align 8
  store ptr %aes, ptr %aes.addr, align 8
  %this1 = load ptr, ptr %this.addr, align 8
  %d_te = getelementptr inbounds %"class.cvc5::internal::theory::TheoryEngineModelBuilder::Assigner", ptr %this1, i32 0, i32 0
  %call = call noalias noundef nonnull ptr @_Znwm(i64 noundef 8) #17
  store i1 true, ptr %cleanup.isactive, align 1
  invoke void @_ZN4cvc58internal8TypeNodeC2ERKS1_(ptr noundef nonnull align 8 dereferenceable(8) %agg.tmp, ptr noundef nonnull align 8 dereferenceable(8) %tn)
          to label %invoke.cont unwind label %lpad

invoke.cont:                                      ; preds = %entry
  %0 = load ptr, ptr %tep.addr, align 8
  invoke void @_ZN4cvc58internal6theory14TypeEnumeratorC2ENS0_8TypeNodeEPNS1_24TypeEnumeratorPropertiesE(ptr noundef nonnull align 8 dereferenceable(8) %call, ptr noundef %agg.tmp, ptr noundef %0)
          to label %invoke.cont3 unwind label %lpad2

invoke.cont3:                                     ; preds = %invoke.cont
  store i1 false, ptr %cleanup.isactive, align 1
  call void @_ZNSt10unique_ptrIN4cvc58internal6theory14TypeEnumeratorESt14default_deleteIS3_EE5resetEPS3_(ptr noundef nonnull align 8 dereferenceable(8) %d_te, ptr noundef %call) #3
  call void @_ZN4cvc58internal8TypeNodeD2Ev(ptr noundef nonnull align 8 dereferenceable(8) %agg.tmp) #3
  %d_assignExcSet = getelementptr inbounds %"class.cvc5::internal::theory::TheoryEngineModelBuilder::Assigner", ptr %this1, i32 0, i32 1
  %d_assignExcSet5 = getelementptr inbounds %"class.cvc5::internal::theory::TheoryEngineModelBuilder::Assigner", ptr %this1, i32 0, i32 1
  %call6 = call ptr @_ZNSt6vectorIN4cvc58internal12NodeTemplateILb1EEESaIS3_EE3endEv(ptr noundef nonnull align 8 dereferenceable(24) %d_assignExcSet5) #3
  %coerce.dive = getelementptr inbounds %"class.__gnu_cxx::__normal_iterator", ptr %ref.tmp, i32 0, i32 0
  store ptr %call6, ptr %coerce.dive, align 8
  call void @_ZN9__gnu_cxx17__normal_iteratorIPKN4cvc58internal12NodeTemplateILb1EEESt6vectorIS4_SaIS4_EEEC2IPS4_vEERKNS0_IT_S9_EE(ptr noundef nonnull align 8 dereferenceable(8) %agg.tmp4, ptr noundef nonnull align 8 dereferenceable(8) %ref.tmp) #3
  %1 = load ptr, ptr %aes.addr, align 8
  %call8 = call ptr @_ZNKSt6vectorIN4cvc58internal12NodeTemplateILb1EEESaIS3_EE5beginEv(ptr noundef nonnull align 8 dereferenceable(24) %1) #3
  %coerce.dive9 = getelementptr inbounds %"class.__gnu_cxx::__normal_iterator.273", ptr %agg.tmp7, i32 0, i32 0
  store ptr %call8, ptr %coerce.dive9, align 8
  %2 = load ptr, ptr %aes.addr, align 8
  %call11 = call ptr @_ZNKSt6vectorIN4cvc58internal12NodeTemplateILb1EEESaIS3_EE3endEv(ptr noundef nonnull align 8 dereferenceable(24) %2) #3
  %coerce.dive12 = getelementptr inbounds %"class.__gnu_cxx::__normal_iterator.273", ptr %agg.tmp10, i32 0, i32 0
  store ptr %call11, ptr %coerce.dive12, align 8
  %coerce.dive13 = getelementptr inbounds %"class.__gnu_cxx::__normal_iterator.273", ptr %agg.tmp4, i32 0, i32 0
  %3 = load ptr, ptr %coerce.dive13, align 8
  %coerce.dive14 = getelementptr inbounds %"class.__gnu_cxx::__normal_iterator.273", ptr %agg.tmp7, i32 0, i32 0
  %4 = load ptr, ptr %coerce.dive14, align 8
  %coerce.dive15 = getelementptr inbounds %"class.__gnu_cxx::__normal_iterator.273", ptr %agg.tmp10, i32 0, i32 0
  %5 = load ptr, ptr %coerce.dive15, align 8
  %call16 = call ptr @_ZNSt6vectorIN4cvc58internal12NodeTemplateILb1EEESaIS3_EE6insertIN9__gnu_cxx17__normal_iteratorIPKS3_S5_EEvEENS8_IPS3_S5_EESB_T_SE_(ptr noundef nonnull align 8 dereferenceable(24) %d_assignExcSet, ptr %3, ptr %4, ptr %5)
  %coerce.dive17 = getelementptr inbounds %"class.__gnu_cxx::__normal_iterator", ptr %coerce, i32 0, i32 0
  store ptr %call16, ptr %coerce.dive17, align 8
  ret void

lpad:                                             ; preds = %entry
  %6 = landingpad { ptr, i32 }
          cleanup
  %7 = extractvalue { ptr, i32 } %6, 0
  store ptr %7, ptr %exn.slot, align 8
  %8 = extractvalue { ptr, i32 } %6, 1
  store i32 %8, ptr %ehselector.slot, align 4
  br label %ehcleanup

lpad2:                                            ; preds = %invoke.cont
  %9 = landingpad { ptr, i32 }
          cleanup
  %10 = extractvalue { ptr, i32 } %9, 0
  store ptr %10, ptr %exn.slot, align 8
  %11 = extractvalue { ptr, i32 } %9, 1
  store i32 %11, ptr %ehselector.slot, align 4
  call void @_ZN4cvc58internal8TypeNodeD2Ev(ptr noundef nonnull align 8 dereferenceable(8) %agg.tmp) #3
  br label %ehcleanup

ehcleanup:                                        ; preds = %lpad2, %lpad
  %cleanup.is_active = load i1, ptr %cleanup.isactive, align 1
  br i1 %cleanup.is_active, label %cleanup.action, label %cleanup.done

cleanup.action:                                   ; preds = %ehcleanup
  call void @_ZdlPv(ptr noundef %call) #18
  br label %cleanup.done

cleanup.done:                                     ; preds = %cleanup.action, %ehcleanup
  br label %eh.resume

eh.resume:                                        ; preds = %cleanup.done
  %exn = load ptr, ptr %exn.slot, align 8
  %sel = load i32, ptr %ehselector.slot, align 4
  %lpad.val = insertvalue { ptr, i32 } poison, ptr %exn, 0
  %lpad.val18 = insertvalue { ptr, i32 } %lpad.val, i32 %sel, 1
  resume { ptr, i32 } %lpad.val18
}

; Function Attrs: mustprogress nounwind uwtable
define linkonce_odr hidden void @_ZNSt10unique_ptrIN4cvc58internal6theory14TypeEnumeratorESt14default_deleteIS3_EE5resetEPS3_(ptr noundef nonnull align 8 dereferenceable(8) %this, ptr noundef %__p) #5 comdat align 2 {
entry:
  %this.addr = alloca ptr, align 8
  %__p.addr = alloca ptr, align 8
  store ptr %this, ptr %this.addr, align 8
  store ptr %__p, ptr %__p.addr, align 8
  %this1 = load ptr, ptr %this.addr, align 8
  %_M_t = getelementptr inbounds %"class.std::unique_ptr.261", ptr %this1, i32 0, i32 0
  %0 = load ptr, ptr %__p.addr, align 8
  call void @_ZNSt15__uniq_ptr_implIN4cvc58internal6theory14TypeEnumeratorESt14default_deleteIS3_EE5resetEPS3_(ptr noundef nonnull align 8 dereferenceable(8) %_M_t, ptr noundef %0) #3
  ret void
}

; Function Attrs: nobuiltin allocsize(0)
declare noundef nonnull ptr @_Znwm(i64 noundef) #6

; Function Attrs: mustprogress uwtable
define linkonce_odr hidden void @_ZN4cvc58internal8TypeNodeC2ERKS1_(ptr noundef nonnull align 8 dereferenceable(8) %this, ptr noundef nonnull align 8 dereferenceable(8) %typeNode) unnamed_addr #4 comdat align 2 {
entry:
  %this.addr = alloca ptr, align 8
  %typeNode.addr = alloca ptr, align 8
  store ptr %this, ptr %this.addr, align 8
  store ptr %typeNode, ptr %typeNode.addr, align 8
  %this1 = load ptr, ptr %this.addr, align 8
  %0 = load ptr, ptr %typeNode.addr, align 8
  %d_nv = getelementptr inbounds %"class.cvc5::internal::TypeNode", ptr %0, i32 0, i32 0
  %1 = load ptr, ptr %d_nv, align 8
  %d_nv2 = getelementptr inbounds %"class.cvc5::internal::TypeNode", ptr %this1, i32 0, i32 0
  store ptr %1, ptr %d_nv2, align 8
  %d_nv3 = getelementptr inbounds %"class.cvc5::internal::TypeNode", ptr %this1, i32 0, i32 0
  %2 = load ptr, ptr %d_nv3, align 8
  call void @_ZN4cvc58internal4expr9NodeValue3incEv(ptr noundef nonnull align 8 dereferenceable(16) %2)
  ret void
}

declare i32 @__gxx_personality_v0(...)

; Function Attrs: mustprogress uwtable
define linkonce_odr hidden void @_ZN4cvc58internal6theory14TypeEnumeratorC2ENS0_8TypeNodeEPNS1_24TypeEnumeratorPropertiesE(ptr noundef nonnull align 8 dereferenceable(8) %this, ptr noundef %type, ptr noundef %tep) unnamed_addr #4 comdat align 2 personality ptr @__gxx_personality_v0 {
entry:
  %this.addr = alloca ptr, align 8
  %type.indirect_addr = alloca ptr, align 8
  %tep.addr = alloca ptr, align 8
  %agg.tmp = alloca %"class.cvc5::internal::TypeNode", align 8
  %exn.slot = alloca ptr, align 8
  %ehselector.slot = alloca i32, align 4
  store ptr %this, ptr %this.addr, align 8
  store ptr %type, ptr %type.indirect_addr, align 8
  store ptr %tep, ptr %tep.addr, align 8
  %this1 = load ptr, ptr %this.addr, align 8
  %d_te = getelementptr inbounds %"class.cvc5::internal::theory::TypeEnumerator", ptr %this1, i32 0, i32 0
  call void @_ZN4cvc58internal8TypeNodeC2ERKS1_(ptr noundef nonnull align 8 dereferenceable(8) %agg.tmp, ptr noundef nonnull align 8 dereferenceable(8) %type)
  %0 = load ptr, ptr %tep.addr, align 8
  %call = invoke noundef ptr @_ZN4cvc58internal6theory14TypeEnumerator16mkTypeEnumeratorENS0_8TypeNodeEPNS1_24TypeEnumeratorPropertiesE(ptr noundef %agg.tmp, ptr noundef %0)
          to label %invoke.cont unwind label %lpad

invoke.cont:                                      ; preds = %entry
  call void @_ZN4cvc58internal8TypeNodeD2Ev(ptr noundef nonnull align 8 dereferenceable(8) %agg.tmp) #3
  store ptr %call, ptr %d_te, align 8
  ret void

lpad:                                             ; preds = %entry
  %1 = landingpad { ptr, i32 }
          cleanup
  %2 = extractvalue { ptr, i32 } %1, 0
  store ptr %2, ptr %exn.slot, align 8
  %3 = extractvalue { ptr, i32 } %1, 1
  store i32 %3, ptr %ehselector.slot, align 4
  call void @_ZN4cvc58internal8TypeNodeD2Ev(ptr noundef nonnull align 8 dereferenceable(8) %agg.tmp) #3
  br label %eh.resume

eh.resume:                                        ; preds = %lpad
  %exn = load ptr, ptr %exn.slot, align 8
  %sel = load i32, ptr %ehselector.slot, align 4
  %lpad.val = insertvalue { ptr, i32 } poison, ptr %exn, 0
  %lpad.val2 = insertvalue { ptr, i32 } %lpad.val, i32 %sel, 1
  resume { ptr, i32 } %lpad.val2
}

; Function Attrs: mustprogress nounwind uwtable
define linkonce_odr hidden void @_ZN4cvc58internal8TypeNodeD2Ev(ptr noundef nonnull align 8 dereferenceable(8) %this) unnamed_addr #5 comdat align 2 personality ptr @__gxx_personality_v0 {
entry:
  %this.addr = alloca ptr, align 8
  store ptr %this, ptr %this.addr, align 8
  %this1 = load ptr, ptr %this.addr, align 8
  %d_nv = getelementptr inbounds %"class.cvc5::internal::TypeNode", ptr %this1, i32 0, i32 0
  %0 = load ptr, ptr %d_nv, align 8
  invoke void @_ZN4cvc58internal4expr9NodeValue3decEv(ptr noundef nonnull align 8 dereferenceable(16) %0)
          to label %invoke.cont unwind label %terminate.lpad

invoke.cont:                                      ; preds = %entry
  ret void

terminate.lpad:                                   ; preds = %entry
  %1 = landingpad { ptr, i32 }
          catch ptr null
  %2 = extractvalue { ptr, i32 } %1, 0
  call void @__clang_call_terminate(ptr %2) #19
  unreachable
}

; Function Attrs: nobuiltin nounwind
declare void @_ZdlPv(ptr noundef) #7

; Function Attrs: mustprogress uwtable
define linkonce_odr hidden ptr @_ZNSt6vectorIN4cvc58internal12NodeTemplateILb1EEESaIS3_EE6insertIN9__gnu_cxx17__normal_iteratorIPKS3_S5_EEvEENS8_IPS3_S5_EESB_T_SE_(ptr noundef nonnull align 8 dereferenceable(24) %this, ptr %__position.coerce, ptr %__first.coerce, ptr %__last.coerce) #4 comdat align 2 {
entry:
  %retval = alloca %"class.__gnu_cxx::__normal_iterator", align 8
  %__position = alloca %"class.__gnu_cxx::__normal_iterator.273", align 8
  %__first = alloca %"class.__gnu_cxx::__normal_iterator.273", align 8
  %__last = alloca %"class.__gnu_cxx::__normal_iterator.273", align 8
  %this.addr = alloca ptr, align 8
  %__offset = alloca i64, align 8
  %ref.tmp = alloca %"class.__gnu_cxx::__normal_iterator.273", align 8
  %agg.tmp = alloca %"class.__gnu_cxx::__normal_iterator", align 8
  %ref.tmp6 = alloca %"class.__gnu_cxx::__normal_iterator", align 8
  %agg.tmp11 = alloca %"class.__gnu_cxx::__normal_iterator.273", align 8
  %agg.tmp12 = alloca %"class.__gnu_cxx::__normal_iterator.273", align 8
  %ref.tmp17 = alloca %"class.__gnu_cxx::__normal_iterator", align 8
  %coerce.dive = getelementptr inbounds %"class.__gnu_cxx::__normal_iterator.273", ptr %__position, i32 0, i32 0
  store ptr %__position.coerce, ptr %coerce.dive, align 8
  %coerce.dive1 = getelementptr inbounds %"class.__gnu_cxx::__normal_iterator.273", ptr %__first, i32 0, i32 0
  store ptr %__first.coerce, ptr %coerce.dive1, align 8
  %coerce.dive2 = getelementptr inbounds %"class.__gnu_cxx::__normal_iterator.273", ptr %__last, i32 0, i32 0
  store ptr %__last.coerce, ptr %coerce.dive2, align 8
  store ptr %this, ptr %this.addr, align 8
  %this3 = load ptr, ptr %this.addr, align 8
  %call = call ptr @_ZNKSt6vectorIN4cvc58internal12NodeTemplateILb1EEESaIS3_EE6cbeginEv(ptr noundef nonnull align 8 dereferenceable(24) %this3) #3
  %coerce.dive4 = getelementptr inbounds %"class.__gnu_cxx::__normal_iterator.273", ptr %ref.tmp, i32 0, i32 0
  store ptr %call, ptr %coerce.dive4, align 8
  %call5 = call noundef i64 @_ZN9__gnu_cxxmiIPKN4cvc58internal12NodeTemplateILb1EEESt6vectorIS4_SaIS4_EEEENS_17__normal_iteratorIT_T0_E15difference_typeERKSD_SG_(ptr noundef nonnull align 8 dereferenceable(8) %__position, ptr noundef nonnull align 8 dereferenceable(8) %ref.tmp) #3
  store i64 %call5, ptr %__offset, align 8
  %call7 = call ptr @_ZNSt6vectorIN4cvc58internal12NodeTemplateILb1EEESaIS3_EE5beginEv(ptr noundef nonnull align 8 dereferenceable(24) %this3) #3
  %coerce.dive8 = getelementptr inbounds %"class.__gnu_cxx::__normal_iterator", ptr %ref.tmp6, i32 0, i32 0
  store ptr %call7, ptr %coerce.dive8, align 8
  %0 = load i64, ptr %__offset, align 8
  %call9 = call ptr @_ZNK9__gnu_cxx17__normal_iteratorIPN4cvc58internal12NodeTemplateILb1EEESt6vectorIS4_SaIS4_EEEplEl(ptr noundef nonnull align 8 dereferenceable(8) %ref.tmp6, i64 noundef %0) #3
  %coerce.dive10 = getelementptr inbounds %"class.__gnu_cxx::__normal_iterator", ptr %agg.tmp, i32 0, i32 0
  store ptr %call9, ptr %coerce.dive10, align 8
  call void @llvm.memcpy.p0.p0.i64(ptr align 8 %agg.tmp11, ptr align 8 %__first, i64 8, i1 false)
  call void @llvm.memcpy.p0.p0.i64(ptr align 8 %agg.tmp12, ptr align 8 %__last, i64 8, i1 false)
  %coerce.dive14 = getelementptr inbounds %"class.__gnu_cxx::__normal_iterator", ptr %agg.tmp, i32 0, i32 0
  %1 = load ptr, ptr %coerce.dive14, align 8
  %coerce.dive15 = getelementptr inbounds %"class.__gnu_cxx::__normal_iterator.273", ptr %agg.tmp11, i32 0, i32 0
  %2 = load ptr, ptr %coerce.dive15, align 8
  %coerce.dive16 = getelementptr inbounds %"class.__gnu_cxx::__normal_iterator.273", ptr %agg.tmp12, i32 0, i32 0
  %3 = load ptr, ptr %coerce.dive16, align 8
  call void @_ZNSt6vectorIN4cvc58internal12NodeTemplateILb1EEESaIS3_EE18_M_insert_dispatchIN9__gnu_cxx17__normal_iteratorIPKS3_S5_EEEEvNS8_IPS3_S5_EET_SE_St12__false_type(ptr noundef nonnull align 8 dereferenceable(24) %this3, ptr %1, ptr %2, ptr %3)
  %call18 = call ptr @_ZNSt6vectorIN4cvc58internal12NodeTemplateILb1EEESaIS3_EE5beginEv(ptr noundef nonnull align 8 dereferenceable(24) %this3) #3
  %coerce.dive19 = getelementptr inbounds %"class.__gnu_cxx::__normal_iterator", ptr %ref.tmp17, i32 0, i32 0
  store ptr %call18, ptr %coerce.dive19, align 8
  %4 = load i64, ptr %__offset, align 8
  %call20 = call ptr @_ZNK9__gnu_cxx17__normal_iteratorIPN4cvc58internal12NodeTemplateILb1EEESt6vectorIS4_SaIS4_EEEplEl(ptr noundef nonnull align 8 dereferenceable(8) %ref.tmp17, i64 noundef %4) #3
  %coerce.dive21 = getelementptr inbounds %"class.__gnu_cxx::__normal_iterator", ptr %retval, i32 0, i32 0
  store ptr %call20, ptr %coerce.dive21, align 8
  %coerce.dive22 = getelementptr inbounds %"class.__gnu_cxx::__normal_iterator", ptr %retval, i32 0, i32 0
  %5 = load ptr, ptr %coerce.dive22, align 8
  ret ptr %5
}

; Function Attrs: mustprogress nounwind uwtable
define linkonce_odr hidden ptr @_ZNSt6vectorIN4cvc58internal12NodeTemplateILb1EEESaIS3_EE3endEv(ptr noundef nonnull align 8 dereferenceable(24) %this) #5 comdat align 2 {
entry:
  %retval = alloca %"class.__gnu_cxx::__normal_iterator", align 8
  %this.addr = alloca ptr, align 8
  store ptr %this, ptr %this.addr, align 8
  %this1 = load ptr, ptr %this.addr, align 8
  %_M_impl = getelementptr inbounds %"struct.std::_Vector_base", ptr %this1, i32 0, i32 0
  %_M_finish = getelementptr inbounds %"struct.std::_Vector_base<cvc5::internal::NodeTemplate<true>, std::allocator<cvc5::internal::NodeTemplate<true>>>::_Vector_impl_data", ptr %_M_impl, i32 0, i32 1
  call void @_ZN9__gnu_cxx17__normal_iteratorIPN4cvc58internal12NodeTemplateILb1EEESt6vectorIS4_SaIS4_EEEC2ERKS5_(ptr noundef nonnull align 8 dereferenceable(8) %retval, ptr noundef nonnull align 8 dereferenceable(8) %_M_finish) #3
  %coerce.dive = getelementptr inbounds %"class.__gnu_cxx::__normal_iterator", ptr %retval, i32 0, i32 0
  %0 = load ptr, ptr %coerce.dive, align 8
  ret ptr %0
}

; Function Attrs: mustprogress nounwind uwtable
define linkonce_odr hidden void @_ZN9__gnu_cxx17__normal_iteratorIPKN4cvc58internal12NodeTemplateILb1EEESt6vectorIS4_SaIS4_EEEC2IPS4_vEERKNS0_IT_S9_EE(ptr noundef nonnull align 8 dereferenceable(8) %this, ptr noundef nonnull align 8 dereferenceable(8) %__i) unnamed_addr #5 comdat align 2 {
entry:
  %this.addr = alloca ptr, align 8
  %__i.addr = alloca ptr, align 8
  store ptr %this, ptr %this.addr, align 8
  store ptr %__i, ptr %__i.addr, align 8
  %this1 = load ptr, ptr %this.addr, align 8
  %_M_current = getelementptr inbounds %"class.__gnu_cxx::__normal_iterator.273", ptr %this1, i32 0, i32 0
  %0 = load ptr, ptr %__i.addr, align 8
  %call = call noundef nonnull align 8 dereferenceable(8) ptr @_ZNK9__gnu_cxx17__normal_iteratorIPN4cvc58internal12NodeTemplateILb1EEESt6vectorIS4_SaIS4_EEE4baseEv(ptr noundef nonnull align 8 dereferenceable(8) %0) #3
  %1 = load ptr, ptr %call, align 8
  store ptr %1, ptr %_M_current, align 8
  ret void
}

; Function Attrs: mustprogress nounwind uwtable
define linkonce_odr hidden ptr @_ZNKSt6vectorIN4cvc58internal12NodeTemplateILb1EEESaIS3_EE5beginEv(ptr noundef nonnull align 8 dereferenceable(24) %this) #5 comdat align 2 {
entry:
  %retval = alloca %"class.__gnu_cxx::__normal_iterator.273", align 8
  %this.addr = alloca ptr, align 8
  store ptr %this, ptr %this.addr, align 8
  %this1 = load ptr, ptr %this.addr, align 8
  %_M_impl = getelementptr inbounds %"struct.std::_Vector_base", ptr %this1, i32 0, i32 0
  %_M_start = getelementptr inbounds %"struct.std::_Vector_base<cvc5::internal::NodeTemplate<true>, std::allocator<cvc5::internal::NodeTemplate<true>>>::_Vector_impl_data", ptr %_M_impl, i32 0, i32 0
  call void @_ZN9__gnu_cxx17__normal_iteratorIPKN4cvc58internal12NodeTemplateILb1EEESt6vectorIS4_SaIS4_EEEC2ERKS6_(ptr noundef nonnull align 8 dereferenceable(8) %retval, ptr noundef nonnull align 8 dereferenceable(8) %_M_start) #3
  %coerce.dive = getelementptr inbounds %"class.__gnu_cxx::__normal_iterator.273", ptr %retval, i32 0, i32 0
  %0 = load ptr, ptr %coerce.dive, align 8
  ret ptr %0
}

; Function Attrs: mustprogress nounwind uwtable
define linkonce_odr hidden ptr @_ZNKSt6vectorIN4cvc58internal12NodeTemplateILb1EEESaIS3_EE3endEv(ptr noundef nonnull align 8 dereferenceable(24) %this) #5 comdat align 2 {
entry:
  %retval = alloca %"class.__gnu_cxx::__normal_iterator.273", align 8
  %this.addr = alloca ptr, align 8
  store ptr %this, ptr %this.addr, align 8
  %this1 = load ptr, ptr %this.addr, align 8
  %_M_impl = getelementptr inbounds %"struct.std::_Vector_base", ptr %this1, i32 0, i32 0
  %_M_finish = getelementptr inbounds %"struct.std::_Vector_base<cvc5::internal::NodeTemplate<true>, std::allocator<cvc5::internal::NodeTemplate<true>>>::_Vector_impl_data", ptr %_M_impl, i32 0, i32 1
  call void @_ZN9__gnu_cxx17__normal_iteratorIPKN4cvc58internal12NodeTemplateILb1EEESt6vectorIS4_SaIS4_EEEC2ERKS6_(ptr noundef nonnull align 8 dereferenceable(8) %retval, ptr noundef nonnull align 8 dereferenceable(8) %_M_finish) #3
  %coerce.dive = getelementptr inbounds %"class.__gnu_cxx::__normal_iterator.273", ptr %retval, i32 0, i32 0
  %0 = load ptr, ptr %coerce.dive, align 8
  ret ptr %0
}

; Function Attrs: mustprogress uwtable
define hidden void @_ZN4cvc58internal6theory24TheoryEngineModelBuilder8Assigner17getNextAssignmentEv(ptr noalias sret(%"class.cvc5::internal::NodeTemplate") align 8 %agg.result, ptr noundef nonnull align 8 dereferenceable(33) %this) #4 align 2 personality ptr @__gxx_personality_v0 {
entry:
  %result.ptr = alloca ptr, align 8
  %this.addr = alloca ptr, align 8
  %n = alloca %"class.cvc5::internal::NodeTemplate", align 8
  %success = alloca i8, align 1
  %te = alloca ptr, align 8
  %exn.slot = alloca ptr, align 8
  %ehselector.slot = alloca i32, align 4
  %cleanup.dest.slot = alloca i32, align 4
  %ref.tmp = alloca %"class.cvc5::internal::NodeTemplate", align 8
  %ref.tmp8 = alloca %"class.__gnu_cxx::__normal_iterator", align 8
  %agg.tmp = alloca %"class.__gnu_cxx::__normal_iterator", align 8
  %agg.tmp10 = alloca %"class.__gnu_cxx::__normal_iterator", align 8
  %ref.tmp19 = alloca %"class.__gnu_cxx::__normal_iterator", align 8
  store ptr %agg.result, ptr %result.ptr, align 8
  store ptr %this, ptr %this.addr, align 8
  %this1 = load ptr, ptr %this.addr, align 8
  call void @_ZN4cvc58internal12NodeTemplateILb1EEC2Ev(ptr noundef nonnull align 8 dereferenceable(8) %n)
  store i8 0, ptr %success, align 1
  %d_te = getelementptr inbounds %"class.cvc5::internal::theory::TheoryEngineModelBuilder::Assigner", ptr %this1, i32 0, i32 0
  %call = call noundef nonnull align 8 dereferenceable(8) ptr @_ZNKSt10unique_ptrIN4cvc58internal6theory14TypeEnumeratorESt14default_deleteIS3_EEdeEv(ptr noundef nonnull align 8 dereferenceable(8) %d_te) #3
  store ptr %call, ptr %te, align 8
  %0 = load ptr, ptr %te, align 8
  %call2 = invoke noundef zeroext i1 @_ZN4cvc58internal6theory14TypeEnumerator10isFinishedEv(ptr noundef nonnull align 8 dereferenceable(8) %0)
          to label %invoke.cont unwind label %lpad

invoke.cont:                                      ; preds = %entry
  br i1 %call2, label %if.then, label %if.end

if.then:                                          ; preds = %invoke.cont
  invoke void @_ZN4cvc58internal12NodeTemplateILb1EE4nullEv(ptr sret(%"class.cvc5::internal::NodeTemplate") align 8 %agg.result)
          to label %invoke.cont3 unwind label %lpad

invoke.cont3:                                     ; preds = %if.then
  store i32 1, ptr %cleanup.dest.slot, align 4
  br label %cleanup

lpad:                                             ; preds = %do.end, %invoke.cont16, %invoke.cont6, %do.body, %if.then, %entry
  %1 = landingpad { ptr, i32 }
          cleanup
  %2 = extractvalue { ptr, i32 } %1, 0
  store ptr %2, ptr %exn.slot, align 8
  %3 = extractvalue { ptr, i32 } %1, 1
  store i32 %3, ptr %ehselector.slot, align 4
  br label %ehcleanup

if.end:                                           ; preds = %invoke.cont
  br label %do.body

do.body:                                          ; preds = %do.cond, %if.end
  %4 = load ptr, ptr %te, align 8
  invoke void @_ZN4cvc58internal6theory14TypeEnumeratordeEv(ptr sret(%"class.cvc5::internal::NodeTemplate") align 8 %ref.tmp, ptr noundef nonnull align 8 dereferenceable(8) %4)
          to label %invoke.cont4 unwind label %lpad

invoke.cont4:                                     ; preds = %do.body
  %call7 = invoke noundef nonnull align 8 dereferenceable(8) ptr @_ZN4cvc58internal12NodeTemplateILb1EEaSERKS2_(ptr noundef nonnull align 8 dereferenceable(8) %n, ptr noundef nonnull align 8 dereferenceable(8) %ref.tmp)
          to label %invoke.cont6 unwind label %lpad5

invoke.cont6:                                     ; preds = %invoke.cont4
  call void @_ZN4cvc58internal12NodeTemplateILb1EED2Ev(ptr noundef nonnull align 8 dereferenceable(8) %ref.tmp) #3
  %d_assignExcSet = getelementptr inbounds %"class.cvc5::internal::theory::TheoryEngineModelBuilder::Assigner", ptr %this1, i32 0, i32 1
  %call9 = call ptr @_ZNSt6vectorIN4cvc58internal12NodeTemplateILb1EEESaIS3_EE5beginEv(ptr noundef nonnull align 8 dereferenceable(24) %d_assignExcSet) #3
  %coerce.dive = getelementptr inbounds %"class.__gnu_cxx::__normal_iterator", ptr %agg.tmp, i32 0, i32 0
  store ptr %call9, ptr %coerce.dive, align 8
  %d_assignExcSet11 = getelementptr inbounds %"class.cvc5::internal::theory::TheoryEngineModelBuilder::Assigner", ptr %this1, i32 0, i32 1
  %call12 = call ptr @_ZNSt6vectorIN4cvc58internal12NodeTemplateILb1EEESaIS3_EE3endEv(ptr noundef nonnull align 8 dereferenceable(24) %d_assignExcSet11) #3
  %coerce.dive13 = getelementptr inbounds %"class.__gnu_cxx::__normal_iterator", ptr %agg.tmp10, i32 0, i32 0
  store ptr %call12, ptr %coerce.dive13, align 8
  %coerce.dive14 = getelementptr inbounds %"class.__gnu_cxx::__normal_iterator", ptr %agg.tmp, i32 0, i32 0
  %5 = load ptr, ptr %coerce.dive14, align 8
  %coerce.dive15 = getelementptr inbounds %"class.__gnu_cxx::__normal_iterator", ptr %agg.tmp10, i32 0, i32 0
  %6 = load ptr, ptr %coerce.dive15, align 8
  %call17 = invoke ptr @_ZSt4findIN9__gnu_cxx17__normal_iteratorIPN4cvc58internal12NodeTemplateILb1EEESt6vectorIS5_SaIS5_EEEES5_ET_SB_SB_RKT0_(ptr %5, ptr %6, ptr noundef nonnull align 8 dereferenceable(8) %n)
          to label %invoke.cont16 unwind label %lpad

invoke.cont16:                                    ; preds = %invoke.cont6
  %coerce.dive18 = getelementptr inbounds %"class.__gnu_cxx::__normal_iterator", ptr %ref.tmp8, i32 0, i32 0
  store ptr %call17, ptr %coerce.dive18, align 8
  %d_assignExcSet20 = getelementptr inbounds %"class.cvc5::internal::theory::TheoryEngineModelBuilder::Assigner", ptr %this1, i32 0, i32 1
  %call21 = call ptr @_ZNSt6vectorIN4cvc58internal12NodeTemplateILb1EEESaIS3_EE3endEv(ptr noundef nonnull align 8 dereferenceable(24) %d_assignExcSet20) #3
  %coerce.dive22 = getelementptr inbounds %"class.__gnu_cxx::__normal_iterator", ptr %ref.tmp19, i32 0, i32 0
  store ptr %call21, ptr %coerce.dive22, align 8
  %call23 = call noundef zeroext i1 @_ZN9__gnu_cxxeqIPN4cvc58internal12NodeTemplateILb1EEESt6vectorIS4_SaIS4_EEEEbRKNS_17__normal_iteratorIT_T0_EESE_(ptr noundef nonnull align 8 dereferenceable(8) %ref.tmp8, ptr noundef nonnull align 8 dereferenceable(8) %ref.tmp19) #3
  %frombool = zext i1 %call23 to i8
  store i8 %frombool, ptr %success, align 1
  %7 = load ptr, ptr %te, align 8
  %call25 = invoke noundef nonnull align 8 dereferenceable(8) ptr @_ZN4cvc58internal6theory14TypeEnumeratorppEv(ptr noundef nonnull align 8 dereferenceable(8) %7)
          to label %invoke.cont24 unwind label %lpad

invoke.cont24:                                    ; preds = %invoke.cont16
  br label %do.cond

do.cond:                                          ; preds = %invoke.cont24
  %8 = load i8, ptr %success, align 1
  %tobool = trunc i8 %8 to i1
  %lnot = xor i1 %tobool, true
  br i1 %lnot, label %do.body, label %do.end, !llvm.loop !4

do.end:                                           ; preds = %do.cond
  invoke void @_ZN4cvc58internal12NodeTemplateILb1EEC2ERKS2_(ptr noundef nonnull align 8 dereferenceable(8) %agg.result, ptr noundef nonnull align 8 dereferenceable(8) %n)
          to label %invoke.cont26 unwind label %lpad

invoke.cont26:                                    ; preds = %do.end
  store i32 1, ptr %cleanup.dest.slot, align 4
  br label %cleanup

lpad5:                                            ; preds = %invoke.cont4
  %9 = landingpad { ptr, i32 }
          cleanup
  %10 = extractvalue { ptr, i32 } %9, 0
  store ptr %10, ptr %exn.slot, align 8
  %11 = extractvalue { ptr, i32 } %9, 1
  store i32 %11, ptr %ehselector.slot, align 4
  call void @_ZN4cvc58internal12NodeTemplateILb1EED2Ev(ptr noundef nonnull align 8 dereferenceable(8) %ref.tmp) #3
  br label %ehcleanup

cleanup:                                          ; preds = %invoke.cont26, %invoke.cont3
  call void @_ZN4cvc58internal12NodeTemplateILb1EED2Ev(ptr noundef nonnull align 8 dereferenceable(8) %n) #3
  ret void

ehcleanup:                                        ; preds = %lpad5, %lpad
  call void @_ZN4cvc58internal12NodeTemplateILb1EED2Ev(ptr noundef nonnull align 8 dereferenceable(8) %n) #3
  br label %eh.resume

eh.resume:                                        ; preds = %ehcleanup
  %exn = load ptr, ptr %exn.slot, align 8
  %sel = load i32, ptr %ehselector.slot, align 4
  %lpad.val = insertvalue { ptr, i32 } poison, ptr %exn, 0
  %lpad.val27 = insertvalue { ptr, i32 } %lpad.val, i32 %sel, 1
  resume { ptr, i32 } %lpad.val27
}

; Function Attrs: mustprogress uwtable
define linkonce_odr hidden void @_ZN4cvc58internal12NodeTemplateILb1EEC2Ev(ptr noundef nonnull align 8 dereferenceable(8) %this) unnamed_addr #4 comdat align 2 {
entry:
  %this.addr = alloca ptr, align 8
  store ptr %this, ptr %this.addr, align 8
  %this1 = load ptr, ptr %this.addr, align 8
  %d_nv = getelementptr inbounds %"class.cvc5::internal::NodeTemplate", ptr %this1, i32 0, i32 0
  %call = call noundef nonnull align 8 dereferenceable(16) ptr @_ZN4cvc58internal4expr9NodeValue4nullEv()
  store ptr %call, ptr %d_nv, align 8
  ret void
}

; Function Attrs: mustprogress nounwind uwtable
define linkonce_odr hidden noundef nonnull align 8 dereferenceable(8) ptr @_ZNKSt10unique_ptrIN4cvc58internal6theory14TypeEnumeratorESt14default_deleteIS3_EEdeEv(ptr noundef nonnull align 8 dereferenceable(8) %this) #5 comdat align 2 {
entry:
  %this.addr = alloca ptr, align 8
  store ptr %this, ptr %this.addr, align 8
  %this1 = load ptr, ptr %this.addr, align 8
  br label %do.body

do.body:                                          ; preds = %entry
  br label %do.cond

do.cond:                                          ; preds = %do.body
  br label %do.end

do.end:                                           ; preds = %do.cond
  %call = call noundef ptr @_ZNKSt10unique_ptrIN4cvc58internal6theory14TypeEnumeratorESt14default_deleteIS3_EE3getEv(ptr noundef nonnull align 8 dereferenceable(8) %this1) #3
  ret ptr %call
}

; Function Attrs: mustprogress uwtable
define linkonce_odr hidden noundef zeroext i1 @_ZN4cvc58internal6theory14TypeEnumerator10isFinishedEv(ptr noundef nonnull align 8 dereferenceable(8) %this) #4 comdat align 2 {
entry:
  %this.addr = alloca ptr, align 8
  store ptr %this, ptr %this.addr, align 8
  %this1 = load ptr, ptr %this.addr, align 8
  %d_te = getelementptr inbounds %"class.cvc5::internal::theory::TypeEnumerator", ptr %this1, i32 0, i32 0
  %0 = load ptr, ptr %d_te, align 8
  %vtable = load ptr, ptr %0, align 8
  %vfn = getelementptr inbounds ptr, ptr %vtable, i64 2
  %1 = load ptr, ptr %vfn, align 8
  %call = call noundef zeroext i1 %1(ptr noundef nonnull align 8 dereferenceable(16) %0)
  ret i1 %call
}

; Function Attrs: mustprogress uwtable
define linkonce_odr hidden void @_ZN4cvc58internal12NodeTemplateILb1EE4nullEv(ptr noalias sret(%"class.cvc5::internal::NodeTemplate") align 8 %agg.result) #4 comdat align 2 {
entry:
  %result.ptr = alloca ptr, align 8
  store ptr %agg.result, ptr %result.ptr, align 8
  call void @_ZN4cvc58internal12NodeTemplateILb1EEC2ERKS2_(ptr noundef nonnull align 8 dereferenceable(8) %agg.result, ptr noundef nonnull align 8 dereferenceable(8) @_ZN4cvc58internal12NodeTemplateILb1EE6s_nullE)
  ret void
}

; Function Attrs: mustprogress uwtable
define linkonce_odr hidden void @_ZN4cvc58internal6theory14TypeEnumeratordeEv(ptr noalias sret(%"class.cvc5::internal::NodeTemplate") align 8 %agg.result, ptr noundef nonnull align 8 dereferenceable(8) %this) #4 comdat align 2 {
entry:
  %result.ptr = alloca ptr, align 8
  %this.addr = alloca ptr, align 8
  store ptr %agg.result, ptr %result.ptr, align 8
  store ptr %this, ptr %this.addr, align 8
  %this1 = load ptr, ptr %this.addr, align 8
  %d_te = getelementptr inbounds %"class.cvc5::internal::theory::TypeEnumerator", ptr %this1, i32 0, i32 0
  %0 = load ptr, ptr %d_te, align 8
  %vtable = load ptr, ptr %0, align 8
  %vfn = getelementptr inbounds ptr, ptr %vtable, i64 3
  %1 = load ptr, ptr %vfn, align 8
  call void %1(ptr sret(%"class.cvc5::internal::NodeTemplate") align 8 %agg.result, ptr noundef nonnull align 8 dereferenceable(16) %0)
  ret void
}

; Function Attrs: mustprogress uwtable
define linkonce_odr hidden noundef nonnull align 8 dereferenceable(8) ptr @_ZN4cvc58internal12NodeTemplateILb1EEaSERKS2_(ptr noundef nonnull align 8 dereferenceable(8) %this, ptr noundef nonnull align 8 dereferenceable(8) %e) #4 comdat align 2 {
entry:
  %this.addr = alloca ptr, align 8
  %e.addr = alloca ptr, align 8
  store ptr %this, ptr %this.addr, align 8
  store ptr %e, ptr %e.addr, align 8
  %this1 = load ptr, ptr %this.addr, align 8
  %d_nv = getelementptr inbounds %"class.cvc5::internal::NodeTemplate", ptr %this1, i32 0, i32 0
  %0 = load ptr, ptr %d_nv, align 8
  %1 = load ptr, ptr %e.addr, align 8
  %d_nv2 = getelementptr inbounds %"class.cvc5::internal::NodeTemplate", ptr %1, i32 0, i32 0
  %2 = load ptr, ptr %d_nv2, align 8
  %cmp = icmp ne ptr %0, %2
  br i1 %cmp, label %if.then, label %if.end

if.then:                                          ; preds = %entry
  %d_nv3 = getelementptr inbounds %"class.cvc5::internal::NodeTemplate", ptr %this1, i32 0, i32 0
  %3 = load ptr, ptr %d_nv3, align 8
  call void @_ZN4cvc58internal4expr9NodeValue3decEv(ptr noundef nonnull align 8 dereferenceable(16) %3)
  %4 = load ptr, ptr %e.addr, align 8
  %d_nv4 = getelementptr inbounds %"class.cvc5::internal::NodeTemplate", ptr %4, i32 0, i32 0
  %5 = load ptr, ptr %d_nv4, align 8
  %d_nv5 = getelementptr inbounds %"class.cvc5::internal::NodeTemplate", ptr %this1, i32 0, i32 0
  store ptr %5, ptr %d_nv5, align 8
  %d_nv6 = getelementptr inbounds %"class.cvc5::internal::NodeTemplate", ptr %this1, i32 0, i32 0
  %6 = load ptr, ptr %d_nv6, align 8
  call void @_ZN4cvc58internal4expr9NodeValue3incEv(ptr noundef nonnull align 8 dereferenceable(16) %6)
  br label %if.end

if.end:                                           ; preds = %if.then, %entry
  ret ptr %this1
}

; Function Attrs: mustprogress nounwind uwtable
define linkonce_odr hidden void @_ZN4cvc58internal12NodeTemplateILb1EED2Ev(ptr noundef nonnull align 8 dereferenceable(8) %this) unnamed_addr #5 comdat align 2 personality ptr @__gxx_personality_v0 {
entry:
  %this.addr = alloca ptr, align 8
  store ptr %this, ptr %this.addr, align 8
  %this1 = load ptr, ptr %this.addr, align 8
  %d_nv = getelementptr inbounds %"class.cvc5::internal::NodeTemplate", ptr %this1, i32 0, i32 0
  %0 = load ptr, ptr %d_nv, align 8
  invoke void @_ZN4cvc58internal4expr9NodeValue3decEv(ptr noundef nonnull align 8 dereferenceable(16) %0)
          to label %invoke.cont unwind label %terminate.lpad

invoke.cont:                                      ; preds = %entry
  ret void

terminate.lpad:                                   ; preds = %entry
  %1 = landingpad { ptr, i32 }
          catch ptr null
  %2 = extractvalue { ptr, i32 } %1, 0
  call void @__clang_call_terminate(ptr %2) #19
  unreachable
}

; Function Attrs: mustprogress nounwind uwtable
define linkonce_odr hidden noundef zeroext i1 @_ZN9__gnu_cxxeqIPN4cvc58internal12NodeTemplateILb1EEESt6vectorIS4_SaIS4_EEEEbRKNS_17__normal_iteratorIT_T0_EESE_(ptr noundef nonnull align 8 dereferenceable(8) %__lhs, ptr noundef nonnull align 8 dereferenceable(8) %__rhs) #5 comdat {
entry:
  %__lhs.addr = alloca ptr, align 8
  %__rhs.addr = alloca ptr, align 8
  store ptr %__lhs, ptr %__lhs.addr, align 8
  store ptr %__rhs, ptr %__rhs.addr, align 8
  %0 = load ptr, ptr %__lhs.addr, align 8
  %call = call noundef nonnull align 8 dereferenceable(8) ptr @_ZNK9__gnu_cxx17__normal_iteratorIPN4cvc58internal12NodeTemplateILb1EEESt6vectorIS4_SaIS4_EEE4baseEv(ptr noundef nonnull align 8 dereferenceable(8) %0) #3
  %1 = load ptr, ptr %call, align 8
  %2 = load ptr, ptr %__rhs.addr, align 8
  %call1 = call noundef nonnull align 8 dereferenceable(8) ptr @_ZNK9__gnu_cxx17__normal_iteratorIPN4cvc58internal12NodeTemplateILb1EEESt6vectorIS4_SaIS4_EEE4baseEv(ptr noundef nonnull align 8 dereferenceable(8) %2) #3
  %3 = load ptr, ptr %call1, align 8
  %cmp = icmp eq ptr %1, %3
  ret i1 %cmp
}

; Function Attrs: mustprogress uwtable
define linkonce_odr hidden ptr @_ZSt4findIN9__gnu_cxx17__normal_iteratorIPN4cvc58internal12NodeTemplateILb1EEESt6vectorIS5_SaIS5_EEEES5_ET_SB_SB_RKT0_(ptr %__first.coerce, ptr %__last.coerce, ptr noundef nonnull align 8 dereferenceable(8) %__val) #4 comdat {
entry:
  %retval = alloca %"class.__gnu_cxx::__normal_iterator", align 8
  %__first = alloca %"class.__gnu_cxx::__normal_iterator", align 8
  %__last = alloca %"class.__gnu_cxx::__normal_iterator", align 8
  %__val.addr = alloca ptr, align 8
  %agg.tmp = alloca %"class.__gnu_cxx::__normal_iterator", align 8
  %agg.tmp2 = alloca %"class.__gnu_cxx::__normal_iterator", align 8
  %agg.tmp3 = alloca %"struct.__gnu_cxx::__ops::_Iter_equals_val.784", align 8
  %coerce.dive = getelementptr inbounds %"class.__gnu_cxx::__normal_iterator", ptr %__first, i32 0, i32 0
  store ptr %__first.coerce, ptr %coerce.dive, align 8
  %coerce.dive1 = getelementptr inbounds %"class.__gnu_cxx::__normal_iterator", ptr %__last, i32 0, i32 0
  store ptr %__last.coerce, ptr %coerce.dive1, align 8
  store ptr %__val, ptr %__val.addr, align 8
  call void @llvm.memcpy.p0.p0.i64(ptr align 8 %agg.tmp, ptr align 8 %__first, i64 8, i1 false)
  call void @llvm.memcpy.p0.p0.i64(ptr align 8 %agg.tmp2, ptr align 8 %__last, i64 8, i1 false)
  %0 = load ptr, ptr %__val.addr, align 8
  %call = call ptr @_ZN9__gnu_cxx5__ops17__iter_equals_valIKN4cvc58internal12NodeTemplateILb1EEEEENS0_16_Iter_equals_valIT_EERS8_(ptr noundef nonnull align 8 dereferenceable(8) %0)
  %coerce.dive4 = getelementptr inbounds %"struct.__gnu_cxx::__ops::_Iter_equals_val.784", ptr %agg.tmp3, i32 0, i32 0
  store ptr %call, ptr %coerce.dive4, align 8
  %coerce.dive5 = getelementptr inbounds %"class.__gnu_cxx::__normal_iterator", ptr %agg.tmp, i32 0, i32 0
  %1 = load ptr, ptr %coerce.dive5, align 8
  %coerce.dive6 = getelementptr inbounds %"class.__gnu_cxx::__normal_iterator", ptr %agg.tmp2, i32 0, i32 0
  %2 = load ptr, ptr %coerce.dive6, align 8
  %coerce.dive7 = getelementptr inbounds %"struct.__gnu_cxx::__ops::_Iter_equals_val.784", ptr %agg.tmp3, i32 0, i32 0
  %3 = load ptr, ptr %coerce.dive7, align 8
  %call8 = call ptr @_ZSt9__find_ifIN9__gnu_cxx17__normal_iteratorIPN4cvc58internal12NodeTemplateILb1EEESt6vectorIS5_SaIS5_EEEENS0_5__ops16_Iter_equals_valIKS5_EEET_SF_SF_T0_(ptr %1, ptr %2, ptr %3)
  %coerce.dive9 = getelementptr inbounds %"class.__gnu_cxx::__normal_iterator", ptr %retval, i32 0, i32 0
  store ptr %call8, ptr %coerce.dive9, align 8
  %coerce.dive10 = getelementptr inbounds %"class.__gnu_cxx::__normal_iterator", ptr %retval, i32 0, i32 0
  %4 = load ptr, ptr %coerce.dive10, align 8
  ret ptr %4
}

; Function Attrs: mustprogress nounwind uwtable
define linkonce_odr hidden ptr @_ZNSt6vectorIN4cvc58internal12NodeTemplateILb1EEESaIS3_EE5beginEv(ptr noundef nonnull align 8 dereferenceable(24) %this) #5 comdat align 2 {
entry:
  %retval = alloca %"class.__gnu_cxx::__normal_iterator", align 8
  %this.addr = alloca ptr, align 8
  store ptr %this, ptr %this.addr, align 8
  %this1 = load ptr, ptr %this.addr, align 8
  %_M_impl = getelementptr inbounds %"struct.std::_Vector_base", ptr %this1, i32 0, i32 0
  %_M_start = getelementptr inbounds %"struct.std::_Vector_base<cvc5::internal::NodeTemplate<true>, std::allocator<cvc5::internal::NodeTemplate<true>>>::_Vector_impl_data", ptr %_M_impl, i32 0, i32 0
  call void @_ZN9__gnu_cxx17__normal_iteratorIPN4cvc58internal12NodeTemplateILb1EEESt6vectorIS4_SaIS4_EEEC2ERKS5_(ptr noundef nonnull align 8 dereferenceable(8) %retval, ptr noundef nonnull align 8 dereferenceable(8) %_M_start) #3
  %coerce.dive = getelementptr inbounds %"class.__gnu_cxx::__normal_iterator", ptr %retval, i32 0, i32 0
  %0 = load ptr, ptr %coerce.dive, align 8
  ret ptr %0
}

; Function Attrs: mustprogress uwtable
define linkonce_odr hidden noundef nonnull align 8 dereferenceable(8) ptr @_ZN4cvc58internal6theory14TypeEnumeratorppEv(ptr noundef nonnull align 8 dereferenceable(8) %this) #4 comdat align 2 {
entry:
  %this.addr = alloca ptr, align 8
  store ptr %this, ptr %this.addr, align 8
  %this1 = load ptr, ptr %this.addr, align 8
  %d_te = getelementptr inbounds %"class.cvc5::internal::theory::TypeEnumerator", ptr %this1, i32 0, i32 0
  %0 = load ptr, ptr %d_te, align 8
  %vtable = load ptr, ptr %0, align 8
  %vfn = getelementptr inbounds ptr, ptr %vtable, i64 4
  %1 = load ptr, ptr %vfn, align 8
  %call = call noundef nonnull align 8 dereferenceable(16) ptr %1(ptr noundef nonnull align 8 dereferenceable(16) %0)
  ret ptr %this1
}

; Function Attrs: mustprogress uwtable
define linkonce_odr hidden void @_ZN4cvc58internal12NodeTemplateILb1EEC2ERKS2_(ptr noundef nonnull align 8 dereferenceable(8) %this, ptr noundef nonnull align 8 dereferenceable(8) %e) unnamed_addr #4 comdat align 2 {
entry:
  %this.addr = alloca ptr, align 8
  %e.addr = alloca ptr, align 8
  store ptr %this, ptr %this.addr, align 8
  store ptr %e, ptr %e.addr, align 8
  %this1 = load ptr, ptr %this.addr, align 8
  %0 = load ptr, ptr %e.addr, align 8
  %d_nv = getelementptr inbounds %"class.cvc5::internal::NodeTemplate", ptr %0, i32 0, i32 0
  %1 = load ptr, ptr %d_nv, align 8
  %d_nv2 = getelementptr inbounds %"class.cvc5::internal::NodeTemplate", ptr %this1, i32 0, i32 0
  store ptr %1, ptr %d_nv2, align 8
  %d_nv3 = getelementptr inbounds %"class.cvc5::internal::NodeTemplate", ptr %this1, i32 0, i32 0
  %2 = load ptr, ptr %d_nv3, align 8
  call void @_ZN4cvc58internal4expr9NodeValue3incEv(ptr noundef nonnull align 8 dereferenceable(16) %2)
  ret void
}

; Function Attrs: mustprogress uwtable
define hidden void @_ZN4cvc58internal6theory24TheoryEngineModelBuilder11evaluateEqcEPNS1_11TheoryModelENS0_12NodeTemplateILb0EEE(ptr noalias sret(%"class.cvc5::internal::NodeTemplate") align 8 %agg.result, ptr noundef nonnull align 8 dereferenceable(120) %this, ptr noundef %m, ptr noundef %r) #4 align 2 personality ptr @__gxx_personality_v0 {
entry:
  %result.ptr = alloca ptr, align 8
  %this.addr = alloca ptr, align 8
  %m.addr = alloca ptr, align 8
  %r.indirect_addr = alloca ptr, align 8
  %eqc_i = alloca %"class.cvc5::internal::theory::eq::EqClassIterator", align 8
  %agg.tmp = alloca %"class.cvc5::internal::NodeTemplate", align 8
  %exn.slot = alloca ptr, align 8
  %ehselector.slot = alloca i32, align 4
  %n = alloca %"class.cvc5::internal::NodeTemplate", align 8
  %ref.tmp = alloca %"class.cvc5::internal::__cvc5_true", align 1
  %tmp = alloca %"class.cvc5::internal::Cvc5ostream", align 8
  %agg.tmp.ensured = alloca %"class.cvc5::internal::Cvc5ostream", align 8
  %ref.tmp6 = alloca %"class.cvc5::internal::Cvc5ostream", align 8
  %agg.tmp14 = alloca %"class.cvc5::internal::NodeTemplate.274", align 8
  %ref.tmp20 = alloca %"class.cvc5::internal::__cvc5_true", align 1
  %tmp24 = alloca %"class.cvc5::internal::Cvc5ostream", align 8
  %agg.tmp.ensured27 = alloca %"class.cvc5::internal::Cvc5ostream", align 8
  %ref.tmp28 = alloca %"class.cvc5::internal::Cvc5ostream", align 8
  %nrvo = alloca i1, align 1
  %agg.tmp35 = alloca %"class.cvc5::internal::NodeTemplate.274", align 8
  %ref.tmp39 = alloca %"class.cvc5::internal::__cvc5_true", align 1
  %tmp44 = alloca %"class.cvc5::internal::Cvc5ostream", align 8
  %agg.tmp.ensured47 = alloca %"class.cvc5::internal::Cvc5ostream", align 8
  %ref.tmp48 = alloca %"class.cvc5::internal::Cvc5ostream", align 8
  %ref.tmp56 = alloca i8, align 1
  %agg.tmp57 = alloca %"class.cvc5::internal::NodeTemplate.274", align 8
  %cleanup.cond = alloca i1, align 1
  %agg.tmp70 = alloca %"class.cvc5::internal::NodeTemplate.274", align 8
  %cleanup.dest.slot = alloca i32, align 4
  store ptr %agg.result, ptr %result.ptr, align 8
  store ptr %this, ptr %this.addr, align 8
  store ptr %m, ptr %m.addr, align 8
  store ptr %r, ptr %r.indirect_addr, align 8
  %this1 = load ptr, ptr %this.addr, align 8
  call void @_ZN4cvc58internal12NodeTemplateILb1EEC2ERKNS1_ILb0EEE(ptr noundef nonnull align 8 dereferenceable(8) %agg.tmp, ptr noundef nonnull align 8 dereferenceable(8) %r)
  %0 = load ptr, ptr %m.addr, align 8
  %d_equalityEngine = getelementptr inbounds %"class.cvc5::internal::theory::TheoryModel", ptr %0, i32 0, i32 2
  %1 = load ptr, ptr %d_equalityEngine, align 8
  invoke void @_ZN4cvc58internal6theory2eq15EqClassIteratorC1ENS0_12NodeTemplateILb1EEEPKNS2_14EqualityEngineE(ptr noundef nonnull align 8 dereferenceable(16) %eqc_i, ptr noundef %agg.tmp, ptr noundef %1)
          to label %invoke.cont unwind label %lpad

invoke.cont:                                      ; preds = %entry
  call void @_ZN4cvc58internal12NodeTemplateILb1EED2Ev(ptr noundef nonnull align 8 dereferenceable(8) %agg.tmp) #3
  br label %for.cond

for.cond:                                         ; preds = %for.inc, %invoke.cont
  %call = call noundef zeroext i1 @_ZNK4cvc58internal6theory2eq15EqClassIterator10isFinishedEv(ptr noundef nonnull align 8 dereferenceable(16) %eqc_i)
  %lnot = xor i1 %call, true
  br i1 %lnot, label %for.body, label %for.end

for.body:                                         ; preds = %for.cond
  call void @_ZNK4cvc58internal6theory2eq15EqClassIteratordeEv(ptr sret(%"class.cvc5::internal::NodeTemplate") align 8 %n, ptr noundef nonnull align 8 dereferenceable(16) %eqc_i)
  %call4 = invoke noundef zeroext i1 @_ZN4cvc58internal11__cvc5_truecvbEv(ptr noundef nonnull align 1 dereferenceable(1) %ref.tmp)
          to label %invoke.cont3 unwind label %lpad2

invoke.cont3:                                     ; preds = %for.body
  br i1 %call4, label %cond.true, label %cond.false

cond.true:                                        ; preds = %invoke.cont3
  invoke void @_ZNK4cvc58internal5NullCcvNS0_11Cvc5ostreamEEv(ptr sret(%"class.cvc5::internal::Cvc5ostream") align 8 %tmp, ptr noundef nonnull align 1 dereferenceable(1) @_ZN4cvc58internal10nullStreamE)
          to label %invoke.cont5 unwind label %lpad2

invoke.cont5:                                     ; preds = %cond.true
  br label %cond.end

cond.false:                                       ; preds = %invoke.cont3
  invoke void @_ZNK4cvc58internal6TraceCclEv(ptr sret(%"class.cvc5::internal::Cvc5ostream") align 8 %ref.tmp6, ptr noundef nonnull align 8 dereferenceable(32) @_ZN4cvc58internal12TraceChannelE)
          to label %invoke.cont7 unwind label %lpad2

invoke.cont7:                                     ; preds = %cond.false
  %call9 = invoke noundef nonnull align 8 dereferenceable(24) ptr @_ZN4cvc58internal11Cvc5ostreamlsIA16_cEERS1_RKT_(ptr noundef nonnull align 8 dereferenceable(24) %ref.tmp6, ptr noundef nonnull align 1 dereferenceable(16) @.str)
          to label %invoke.cont8 unwind label %lpad2

invoke.cont8:                                     ; preds = %invoke.cont7
  %call11 = invoke noundef nonnull align 8 dereferenceable(24) ptr @_ZN4cvc58internal11Cvc5ostreamlsINS0_12NodeTemplateILb1EEEEERS1_RKT_(ptr noundef nonnull align 8 dereferenceable(24) %call9, ptr noundef nonnull align 8 dereferenceable(8) %n)
          to label %invoke.cont10 unwind label %lpad2

invoke.cont10:                                    ; preds = %invoke.cont8
  %call13 = invoke noundef nonnull align 8 dereferenceable(24) ptr @_ZN4cvc58internal11Cvc5ostreamlsEPFRSoS2_E(ptr noundef nonnull align 8 dereferenceable(24) %call11, ptr noundef @_ZSt4endlIcSt11char_traitsIcEERSt13basic_ostreamIT_T0_ES6_)
          to label %invoke.cont12 unwind label %lpad2

invoke.cont12:                                    ; preds = %invoke.cont10
  call void @llvm.memcpy.p0.p0.i64(ptr align 8 %agg.tmp.ensured, ptr align 8 %call13, i64 24, i1 false)
  br label %cond.end

cond.end:                                         ; preds = %invoke.cont12, %invoke.cont5
  invoke void @_ZN4cvc58internal12NodeTemplateILb0EEC2ERKNS1_ILb1EEE(ptr noundef nonnull align 8 dereferenceable(8) %agg.tmp14, ptr noundef nonnull align 8 dereferenceable(8) %n)
          to label %invoke.cont15 unwind label %lpad2

invoke.cont15:                                    ; preds = %cond.end
  %call18 = invoke noundef zeroext i1 @_ZN4cvc58internal6theory24TheoryEngineModelBuilder12isAssignableENS0_12NodeTemplateILb0EEE(ptr noundef nonnull align 8 dereferenceable(120) %this1, ptr noundef %agg.tmp14)
          to label %invoke.cont17 unwind label %lpad16

invoke.cont17:                                    ; preds = %invoke.cont15
  %lnot19 = xor i1 %call18, true
  call void @_ZN4cvc58internal12NodeTemplateILb0EED2Ev(ptr noundef nonnull align 8 dereferenceable(8) %agg.tmp14) #3
  br i1 %lnot19, label %if.then, label %if.end76

if.then:                                          ; preds = %invoke.cont17
  %call22 = invoke noundef zeroext i1 @_ZN4cvc58internal11__cvc5_truecvbEv(ptr noundef nonnull align 1 dereferenceable(1) %ref.tmp20)
          to label %invoke.cont21 unwind label %lpad2

invoke.cont21:                                    ; preds = %if.then
  br i1 %call22, label %cond.true23, label %cond.false26

cond.true23:                                      ; preds = %invoke.cont21
  invoke void @_ZNK4cvc58internal5NullCcvNS0_11Cvc5ostreamEEv(ptr sret(%"class.cvc5::internal::Cvc5ostream") align 8 %tmp24, ptr noundef nonnull align 1 dereferenceable(1) @_ZN4cvc58internal10nullStreamE)
          to label %invoke.cont25 unwind label %lpad2

invoke.cont25:                                    ; preds = %cond.true23
  br label %cond.end34

cond.false26:                                     ; preds = %invoke.cont21
  invoke void @_ZNK4cvc58internal6TraceCclEv(ptr sret(%"class.cvc5::internal::Cvc5ostream") align 8 %ref.tmp28, ptr noundef nonnull align 8 dereferenceable(32) @_ZN4cvc58internal12TraceChannelE)
          to label %invoke.cont29 unwind label %lpad2

invoke.cont29:                                    ; preds = %cond.false26
  %call31 = invoke noundef nonnull align 8 dereferenceable(24) ptr @_ZN4cvc58internal11Cvc5ostreamlsIA20_cEERS1_RKT_(ptr noundef nonnull align 8 dereferenceable(24) %ref.tmp28, ptr noundef nonnull align 1 dereferenceable(20) @.str.1)
          to label %invoke.cont30 unwind label %lpad2

invoke.cont30:                                    ; preds = %invoke.cont29
  %call33 = invoke noundef nonnull align 8 dereferenceable(24) ptr @_ZN4cvc58internal11Cvc5ostreamlsEPFRSoS2_E(ptr noundef nonnull align 8 dereferenceable(24) %call31, ptr noundef @_ZSt4endlIcSt11char_traitsIcEERSt13basic_ostreamIT_T0_ES6_)
          to label %invoke.cont32 unwind label %lpad2

invoke.cont32:                                    ; preds = %invoke.cont30
  call void @llvm.memcpy.p0.p0.i64(ptr align 8 %agg.tmp.ensured27, ptr align 8 %call33, i64 24, i1 false)
  br label %cond.end34

cond.end34:                                       ; preds = %invoke.cont32, %invoke.cont25
  store i1 false, ptr %nrvo, align 1
  %2 = load ptr, ptr %m.addr, align 8
  invoke void @_ZN4cvc58internal12NodeTemplateILb0EEC2ERKNS1_ILb1EEE(ptr noundef nonnull align 8 dereferenceable(8) %agg.tmp35, ptr noundef nonnull align 8 dereferenceable(8) %n)
          to label %invoke.cont36 unwind label %lpad2

invoke.cont36:                                    ; preds = %cond.end34
  invoke void @_ZN4cvc58internal6theory24TheoryEngineModelBuilder9normalizeEPNS1_11TheoryModelENS0_12NodeTemplateILb0EEEb(ptr sret(%"class.cvc5::internal::NodeTemplate") align 8 %agg.result, ptr noundef nonnull align 8 dereferenceable(120) %this1, ptr noundef %2, ptr noundef %agg.tmp35, i1 noundef zeroext true)
          to label %invoke.cont38 unwind label %lpad37

invoke.cont38:                                    ; preds = %invoke.cont36
  call void @_ZN4cvc58internal12NodeTemplateILb0EED2Ev(ptr noundef nonnull align 8 dereferenceable(8) %agg.tmp35) #3
  store i1 false, ptr %cleanup.cond, align 1
  %call42 = invoke noundef zeroext i1 @_ZN4cvc58internal11__cvc5_truecvbEv(ptr noundef nonnull align 1 dereferenceable(1) %ref.tmp39)
          to label %invoke.cont41 unwind label %lpad40

invoke.cont41:                                    ; preds = %invoke.cont38
  br i1 %call42, label %cond.true43, label %cond.false46

cond.true43:                                      ; preds = %invoke.cont41
  invoke void @_ZNK4cvc58internal5NullCcvNS0_11Cvc5ostreamEEv(ptr sret(%"class.cvc5::internal::Cvc5ostream") align 8 %tmp44, ptr noundef nonnull align 1 dereferenceable(1) @_ZN4cvc58internal10nullStreamE)
          to label %invoke.cont45 unwind label %lpad40

invoke.cont45:                                    ; preds = %cond.true43
  br label %cond.end66

cond.false46:                                     ; preds = %invoke.cont41
  invoke void @_ZNK4cvc58internal6TraceCclEv(ptr sret(%"class.cvc5::internal::Cvc5ostream") align 8 %ref.tmp48, ptr noundef nonnull align 8 dereferenceable(32) @_ZN4cvc58internal12TraceChannelE)
          to label %invoke.cont49 unwind label %lpad40

invoke.cont49:                                    ; preds = %cond.false46
  %call51 = invoke noundef nonnull align 8 dereferenceable(24) ptr @_ZN4cvc58internal11Cvc5ostreamlsIA11_cEERS1_RKT_(ptr noundef nonnull align 8 dereferenceable(24) %ref.tmp48, ptr noundef nonnull align 1 dereferenceable(11) @.str.2)
          to label %invoke.cont50 unwind label %lpad40

invoke.cont50:                                    ; preds = %invoke.cont49
  %call53 = invoke noundef nonnull align 8 dereferenceable(24) ptr @_ZN4cvc58internal11Cvc5ostreamlsINS0_12NodeTemplateILb1EEEEERS1_RKT_(ptr noundef nonnull align 8 dereferenceable(24) %call51, ptr noundef nonnull align 8 dereferenceable(8) %agg.result)
          to label %invoke.cont52 unwind label %lpad40

invoke.cont52:                                    ; preds = %invoke.cont50
  %call55 = invoke noundef nonnull align 8 dereferenceable(24) ptr @_ZN4cvc58internal11Cvc5ostreamlsIA11_cEERS1_RKT_(ptr noundef nonnull align 8 dereferenceable(24) %call53, ptr noundef nonnull align 1 dereferenceable(11) @.str.3)
          to label %invoke.cont54 unwind label %lpad40

invoke.cont54:                                    ; preds = %invoke.cont52
  %3 = load ptr, ptr %m.addr, align 8
  invoke void @_ZN4cvc58internal12NodeTemplateILb0EEC2ERKNS1_ILb1EEE(ptr noundef nonnull align 8 dereferenceable(8) %agg.tmp57, ptr noundef nonnull align 8 dereferenceable(8) %agg.result)
          to label %invoke.cont58 unwind label %lpad40

invoke.cont58:                                    ; preds = %invoke.cont54
  store i1 true, ptr %cleanup.cond, align 1
  %call61 = invoke noundef zeroext i1 @_ZNK4cvc58internal6theory11TheoryModel7isValueENS0_12NodeTemplateILb0EEE(ptr noundef nonnull align 8 dereferenceable(904) %3, ptr noundef %agg.tmp57)
          to label %invoke.cont60 unwind label %lpad59

invoke.cont60:                                    ; preds = %invoke.cont58
  %frombool = zext i1 %call61 to i8
  store i8 %frombool, ptr %ref.tmp56, align 1
  %call63 = invoke noundef nonnull align 8 dereferenceable(24) ptr @_ZN4cvc58internal11Cvc5ostreamlsIbEERS1_RKT_(ptr noundef nonnull align 8 dereferenceable(24) %call55, ptr noundef nonnull align 1 dereferenceable(1) %ref.tmp56)
          to label %invoke.cont62 unwind label %lpad59

invoke.cont62:                                    ; preds = %invoke.cont60
  %call65 = invoke noundef nonnull align 8 dereferenceable(24) ptr @_ZN4cvc58internal11Cvc5ostreamlsEPFRSoS2_E(ptr noundef nonnull align 8 dereferenceable(24) %call63, ptr noundef @_ZSt4endlIcSt11char_traitsIcEERSt13basic_ostreamIT_T0_ES6_)
          to label %invoke.cont64 unwind label %lpad59

invoke.cont64:                                    ; preds = %invoke.cont62
  call void @llvm.memcpy.p0.p0.i64(ptr align 8 %agg.tmp.ensured47, ptr align 8 %call65, i64 24, i1 false)
  br label %cond.end66

cond.end66:                                       ; preds = %invoke.cont64, %invoke.cont45
  %cleanup.is_active = load i1, ptr %cleanup.cond, align 1
  br i1 %cleanup.is_active, label %cleanup.action, label %cleanup.done

cleanup.action:                                   ; preds = %cond.end66
  call void @_ZN4cvc58internal12NodeTemplateILb0EED2Ev(ptr noundef nonnull align 8 dereferenceable(8) %agg.tmp57) #3
  br label %cleanup.done

cleanup.done:                                     ; preds = %cleanup.action, %cond.end66
  %4 = load ptr, ptr %m.addr, align 8
  invoke void @_ZN4cvc58internal12NodeTemplateILb0EEC2ERKNS1_ILb1EEE(ptr noundef nonnull align 8 dereferenceable(8) %agg.tmp70, ptr noundef nonnull align 8 dereferenceable(8) %agg.result)
          to label %invoke.cont71 unwind label %lpad40

invoke.cont71:                                    ; preds = %cleanup.done
  %call74 = invoke noundef zeroext i1 @_ZNK4cvc58internal6theory11TheoryModel7isValueENS0_12NodeTemplateILb0EEE(ptr noundef nonnull align 8 dereferenceable(904) %4, ptr noundef %agg.tmp70)
          to label %invoke.cont73 unwind label %lpad72

invoke.cont73:                                    ; preds = %invoke.cont71
  call void @_ZN4cvc58internal12NodeTemplateILb0EED2Ev(ptr noundef nonnull align 8 dereferenceable(8) %agg.tmp70) #3
  br i1 %call74, label %if.then75, label %if.end

if.then75:                                        ; preds = %invoke.cont73
  store i1 true, ptr %nrvo, align 1
  store i32 1, ptr %cleanup.dest.slot, align 4
  br label %cleanup

lpad:                                             ; preds = %entry
  %5 = landingpad { ptr, i32 }
          cleanup
  %6 = extractvalue { ptr, i32 } %5, 0
  store ptr %6, ptr %exn.slot, align 8
  %7 = extractvalue { ptr, i32 } %5, 1
  store i32 %7, ptr %ehselector.slot, align 4
  call void @_ZN4cvc58internal12NodeTemplateILb1EED2Ev(ptr noundef nonnull align 8 dereferenceable(8) %agg.tmp) #3
  br label %eh.resume

lpad2:                                            ; preds = %cond.end34, %invoke.cont30, %invoke.cont29, %cond.false26, %cond.true23, %if.then, %cond.end, %invoke.cont10, %invoke.cont8, %invoke.cont7, %cond.false, %cond.true, %for.body
  %8 = landingpad { ptr, i32 }
          cleanup
  %9 = extractvalue { ptr, i32 } %8, 0
  store ptr %9, ptr %exn.slot, align 8
  %10 = extractvalue { ptr, i32 } %8, 1
  store i32 %10, ptr %ehselector.slot, align 4
  br label %ehcleanup80

lpad16:                                           ; preds = %invoke.cont15
  %11 = landingpad { ptr, i32 }
          cleanup
  %12 = extractvalue { ptr, i32 } %11, 0
  store ptr %12, ptr %exn.slot, align 8
  %13 = extractvalue { ptr, i32 } %11, 1
  store i32 %13, ptr %ehselector.slot, align 4
  call void @_ZN4cvc58internal12NodeTemplateILb0EED2Ev(ptr noundef nonnull align 8 dereferenceable(8) %agg.tmp14) #3
  br label %ehcleanup80

lpad37:                                           ; preds = %invoke.cont36
  %14 = landingpad { ptr, i32 }
          cleanup
  %15 = extractvalue { ptr, i32 } %14, 0
  store ptr %15, ptr %exn.slot, align 8
  %16 = extractvalue { ptr, i32 } %14, 1
  store i32 %16, ptr %ehselector.slot, align 4
  call void @_ZN4cvc58internal12NodeTemplateILb0EED2Ev(ptr noundef nonnull align 8 dereferenceable(8) %agg.tmp35) #3
  br label %ehcleanup80

lpad40:                                           ; preds = %cleanup.done, %invoke.cont54, %invoke.cont52, %invoke.cont50, %invoke.cont49, %cond.false46, %cond.true43, %invoke.cont38
  %17 = landingpad { ptr, i32 }
          cleanup
  %18 = extractvalue { ptr, i32 } %17, 0
  store ptr %18, ptr %exn.slot, align 8
  %19 = extractvalue { ptr, i32 } %17, 1
  store i32 %19, ptr %ehselector.slot, align 4
  br label %ehcleanup

lpad59:                                           ; preds = %invoke.cont62, %invoke.cont60, %invoke.cont58
  %20 = landingpad { ptr, i32 }
          cleanup
  %21 = extractvalue { ptr, i32 } %20, 0
  store ptr %21, ptr %exn.slot, align 8
  %22 = extractvalue { ptr, i32 } %20, 1
  store i32 %22, ptr %ehselector.slot, align 4
  %cleanup.is_active67 = load i1, ptr %cleanup.cond, align 1
  br i1 %cleanup.is_active67, label %cleanup.action68, label %cleanup.done69

cleanup.action68:                                 ; preds = %lpad59
  call void @_ZN4cvc58internal12NodeTemplateILb0EED2Ev(ptr noundef nonnull align 8 dereferenceable(8) %agg.tmp57) #3
  br label %cleanup.done69

cleanup.done69:                                   ; preds = %cleanup.action68, %lpad59
  br label %ehcleanup

lpad72:                                           ; preds = %invoke.cont71
  %23 = landingpad { ptr, i32 }
          cleanup
  %24 = extractvalue { ptr, i32 } %23, 0
  store ptr %24, ptr %exn.slot, align 8
  %25 = extractvalue { ptr, i32 } %23, 1
  store i32 %25, ptr %ehselector.slot, align 4
  call void @_ZN4cvc58internal12NodeTemplateILb0EED2Ev(ptr noundef nonnull align 8 dereferenceable(8) %agg.tmp70) #3
  br label %ehcleanup

if.end:                                           ; preds = %invoke.cont73
  store i32 0, ptr %cleanup.dest.slot, align 4
  br label %cleanup

cleanup:                                          ; preds = %if.end, %if.then75
  %nrvo.val = load i1, ptr %nrvo, align 1
  br i1 %nrvo.val, label %nrvo.skipdtor, label %nrvo.unused

nrvo.unused:                                      ; preds = %cleanup
  call void @_ZN4cvc58internal12NodeTemplateILb1EED2Ev(ptr noundef nonnull align 8 dereferenceable(8) %agg.result) #3
  br label %nrvo.skipdtor

nrvo.skipdtor:                                    ; preds = %nrvo.unused, %cleanup
  %cleanup.dest = load i32, ptr %cleanup.dest.slot, align 4
  switch i32 %cleanup.dest, label %cleanup77 [
    i32 0, label %cleanup.cont
  ]

cleanup.cont:                                     ; preds = %nrvo.skipdtor
  br label %if.end76

ehcleanup:                                        ; preds = %lpad72, %cleanup.done69, %lpad40
  call void @_ZN4cvc58internal12NodeTemplateILb1EED2Ev(ptr noundef nonnull align 8 dereferenceable(8) %agg.result) #3
  br label %ehcleanup80

if.end76:                                         ; preds = %cleanup.cont, %invoke.cont17
  store i32 0, ptr %cleanup.dest.slot, align 4
  br label %cleanup77

cleanup77:                                        ; preds = %if.end76, %nrvo.skipdtor
  call void @_ZN4cvc58internal12NodeTemplateILb1EED2Ev(ptr noundef nonnull align 8 dereferenceable(8) %n) #3
  %cleanup.dest78 = load i32, ptr %cleanup.dest.slot, align 4
  switch i32 %cleanup.dest78, label %unreachable [
    i32 0, label %cleanup.cont79
    i32 1, label %return
  ]

cleanup.cont79:                                   ; preds = %cleanup77
  br label %for.inc

for.inc:                                          ; preds = %cleanup.cont79
  %call81 = call noundef nonnull align 8 dereferenceable(16) ptr @_ZN4cvc58internal6theory2eq15EqClassIteratorppEv(ptr noundef nonnull align 8 dereferenceable(16) %eqc_i)
  br label %for.cond, !llvm.loop !6

ehcleanup80:                                      ; preds = %ehcleanup, %lpad37, %lpad16, %lpad2
  call void @_ZN4cvc58internal12NodeTemplateILb1EED2Ev(ptr noundef nonnull align 8 dereferenceable(8) %n) #3
  br label %eh.resume

for.end:                                          ; preds = %for.cond
  call void @_ZN4cvc58internal12NodeTemplateILb1EE4nullEv(ptr sret(%"class.cvc5::internal::NodeTemplate") align 8 %agg.result)
  br label %return

return:                                           ; preds = %for.end, %cleanup77
  ret void

eh.resume:                                        ; preds = %ehcleanup80, %lpad
  %exn = load ptr, ptr %exn.slot, align 8
  %sel = load i32, ptr %ehselector.slot, align 4
  %lpad.val = insertvalue { ptr, i32 } poison, ptr %exn, 0
  %lpad.val82 = insertvalue { ptr, i32 } %lpad.val, i32 %sel, 1
  resume { ptr, i32 } %lpad.val82

unreachable:                                      ; preds = %cleanup77
  unreachable
}

; Function Attrs: mustprogress uwtable
define linkonce_odr hidden void @_ZN4cvc58internal12NodeTemplateILb1EEC2ERKNS1_ILb0EEE(ptr noundef nonnull align 8 dereferenceable(8) %this, ptr noundef nonnull align 8 dereferenceable(8) %e) unnamed_addr #4 comdat align 2 {
entry:
  %this.addr = alloca ptr, align 8
  %e.addr = alloca ptr, align 8
  store ptr %this, ptr %this.addr, align 8
  store ptr %e, ptr %e.addr, align 8
  %this1 = load ptr, ptr %this.addr, align 8
  %0 = load ptr, ptr %e.addr, align 8
  %d_nv = getelementptr inbounds %"class.cvc5::internal::NodeTemplate.274", ptr %0, i32 0, i32 0
  %1 = load ptr, ptr %d_nv, align 8
  %d_nv2 = getelementptr inbounds %"class.cvc5::internal::NodeTemplate", ptr %this1, i32 0, i32 0
  store ptr %1, ptr %d_nv2, align 8
  %d_nv3 = getelementptr inbounds %"class.cvc5::internal::NodeTemplate", ptr %this1, i32 0, i32 0
  %2 = load ptr, ptr %d_nv3, align 8
  call void @_ZN4cvc58internal4expr9NodeValue3incEv(ptr noundef nonnull align 8 dereferenceable(16) %2)
  ret void
}

declare void @_ZN4cvc58internal6theory2eq15EqClassIteratorC1ENS0_12NodeTemplateILb1EEEPKNS2_14EqualityEngineE(ptr noundef nonnull align 8 dereferenceable(16), ptr noundef, ptr noundef) unnamed_addr #1

declare noundef zeroext i1 @_ZNK4cvc58internal6theory2eq15EqClassIterator10isFinishedEv(ptr noundef nonnull align 8 dereferenceable(16)) #1

declare void @_ZNK4cvc58internal6theory2eq15EqClassIteratordeEv(ptr sret(%"class.cvc5::internal::NodeTemplate") align 8, ptr noundef nonnull align 8 dereferenceable(16)) #1

; Function Attrs: mustprogress nounwind uwtable
define linkonce_odr hidden noundef zeroext i1 @_ZN4cvc58internal11__cvc5_truecvbEv(ptr noundef nonnull align 1 dereferenceable(1) %this) #5 comdat align 2 {
entry:
  %this.addr = alloca ptr, align 8
  store ptr %this, ptr %this.addr, align 8
  ret i1 true
}

; Function Attrs: mustprogress uwtable
define linkonce_odr hidden void @_ZNK4cvc58internal5NullCcvNS0_11Cvc5ostreamEEv(ptr noalias sret(%"class.cvc5::internal::Cvc5ostream") align 8 %agg.result, ptr noundef nonnull align 1 dereferenceable(1) %this) #4 comdat align 2 {
entry:
  %this.addr = alloca ptr, align 8
  store ptr %this, ptr %this.addr, align 8
  call void @_ZN4cvc58internal11Cvc5ostreamC2Ev(ptr noundef nonnull align 8 dereferenceable(24) %agg.result)
  ret void
}

; Function Attrs: mustprogress uwtable
define linkonce_odr hidden void @_ZNK4cvc58internal6TraceCclEv(ptr noalias sret(%"class.cvc5::internal::Cvc5ostream") align 8 %agg.result, ptr noundef nonnull align 8 dereferenceable(32) %this) #4 comdat align 2 {
entry:
  %this.addr = alloca ptr, align 8
  store ptr %this, ptr %this.addr, align 8
  %this1 = load ptr, ptr %this.addr, align 8
  %d_os = getelementptr inbounds %"class.cvc5::internal::TraceC", ptr %this1, i32 0, i32 0
  %0 = load ptr, ptr %d_os, align 8
  call void @_ZN4cvc58internal11Cvc5ostreamC2EPSo(ptr noundef nonnull align 8 dereferenceable(24) %agg.result, ptr noundef %0)
  ret void
}

; Function Attrs: mustprogress uwtable
define linkonce_odr hidden noundef nonnull align 8 dereferenceable(24) ptr @_ZN4cvc58internal11Cvc5ostreamlsIA16_cEERS1_RKT_(ptr noundef nonnull align 8 dereferenceable(24) %this, ptr noundef nonnull align 1 dereferenceable(16) %t) #4 comdat align 2 {
entry:
  %this.addr = alloca ptr, align 8
  %t.addr = alloca ptr, align 8
  %indent = alloca i64, align 8
  %i = alloca i64, align 8
  store ptr %this, ptr %this.addr, align 8
  store ptr %t, ptr %t.addr, align 8
  %this1 = load ptr, ptr %this.addr, align 8
  %d_os = getelementptr inbounds %"class.cvc5::internal::Cvc5ostream", ptr %this1, i32 0, i32 0
  %0 = load ptr, ptr %d_os, align 8
  %cmp = icmp ne ptr %0, null
  br i1 %cmp, label %if.then, label %if.end11

if.then:                                          ; preds = %entry
  %d_firstColumn = getelementptr inbounds %"class.cvc5::internal::Cvc5ostream", ptr %this1, i32 0, i32 1
  %1 = load i8, ptr %d_firstColumn, align 8
  %tobool = trunc i8 %1 to i1
  br i1 %tobool, label %if.then2, label %if.end

if.then2:                                         ; preds = %if.then
  %d_firstColumn3 = getelementptr inbounds %"class.cvc5::internal::Cvc5ostream", ptr %this1, i32 0, i32 1
  store i8 0, ptr %d_firstColumn3, align 8
  %d_os4 = getelementptr inbounds %"class.cvc5::internal::Cvc5ostream", ptr %this1, i32 0, i32 0
  %2 = load ptr, ptr %d_os4, align 8
  %vtable = load ptr, ptr %2, align 8
  %vbase.offset.ptr = getelementptr i8, ptr %vtable, i64 -24
  %vbase.offset = load i64, ptr %vbase.offset.ptr, align 8
  %add.ptr = getelementptr inbounds i8, ptr %2, i64 %vbase.offset
  %3 = load i32, ptr @_ZN4cvc58internal11Cvc5ostream16s_indentIosIndexE, align 4
  %call = call noundef nonnull align 8 dereferenceable(8) ptr @_ZNSt8ios_base5iwordEi(ptr noundef nonnull align 8 dereferenceable(216) %add.ptr, i32 noundef %3)
  %4 = load i64, ptr %call, align 8
  store i64 %4, ptr %indent, align 8
  store i64 0, ptr %i, align 8
  br label %for.cond

for.cond:                                         ; preds = %for.inc, %if.then2
  %5 = load i64, ptr %i, align 8
  %6 = load i64, ptr %indent, align 8
  %cmp5 = icmp slt i64 %5, %6
  br i1 %cmp5, label %for.body, label %for.end

for.body:                                         ; preds = %for.cond
  %d_os6 = getelementptr inbounds %"class.cvc5::internal::Cvc5ostream", ptr %this1, i32 0, i32 0
  %7 = load ptr, ptr %d_os6, align 8
  %call7 = call noundef nonnull align 8 dereferenceable(8) ptr @_ZStlsIcSt11char_traitsIcESaIcEERSt13basic_ostreamIT_T0_ES7_RKNSt7__cxx1112basic_stringIS4_S5_T1_EE(ptr noundef nonnull align 8 dereferenceable(8) %7, ptr noundef nonnull align 8 dereferenceable(32) @_ZN4cvc58internal11Cvc5ostream5s_tabB5cxx11E)
  %d_os8 = getelementptr inbounds %"class.cvc5::internal::Cvc5ostream", ptr %this1, i32 0, i32 0
  store ptr %call7, ptr %d_os8, align 8
  br label %for.inc

for.inc:                                          ; preds = %for.body
  %8 = load i64, ptr %i, align 8
  %inc = add nsw i64 %8, 1
  store i64 %inc, ptr %i, align 8
  br label %for.cond, !llvm.loop !7

for.end:                                          ; preds = %for.cond
  br label %if.end

if.end:                                           ; preds = %for.end, %if.then
  %d_os9 = getelementptr inbounds %"class.cvc5::internal::Cvc5ostream", ptr %this1, i32 0, i32 0
  %9 = load ptr, ptr %d_os9, align 8
  %10 = load ptr, ptr %t.addr, align 8
  %arraydecay = getelementptr inbounds [16 x i8], ptr %10, i64 0, i64 0
  %call10 = call noundef nonnull align 8 dereferenceable(8) ptr @_ZStlsISt11char_traitsIcEERSt13basic_ostreamIcT_ES5_PKc(ptr noundef nonnull align 8 dereferenceable(8) %9, ptr noundef %arraydecay)
  br label %if.end11

if.end11:                                         ; preds = %if.end, %entry
  ret ptr %this1
}

; Function Attrs: mustprogress uwtable
define linkonce_odr hidden noundef nonnull align 8 dereferenceable(24) ptr @_ZN4cvc58internal11Cvc5ostreamlsINS0_12NodeTemplateILb1EEEEERS1_RKT_(ptr noundef nonnull align 8 dereferenceable(24) %this, ptr noundef nonnull align 8 dereferenceable(8) %t) #4 comdat align 2 personality ptr @__gxx_personality_v0 {
entry:
  %this.addr = alloca ptr, align 8
  %t.addr = alloca ptr, align 8
  %indent = alloca i64, align 8
  %i = alloca i64, align 8
  %agg.tmp = alloca %"class.cvc5::internal::NodeTemplate.274", align 8
  %exn.slot = alloca ptr, align 8
  %ehselector.slot = alloca i32, align 4
  store ptr %this, ptr %this.addr, align 8
  store ptr %t, ptr %t.addr, align 8
  %this1 = load ptr, ptr %this.addr, align 8
  %d_os = getelementptr inbounds %"class.cvc5::internal::Cvc5ostream", ptr %this1, i32 0, i32 0
  %0 = load ptr, ptr %d_os, align 8
  %cmp = icmp ne ptr %0, null
  br i1 %cmp, label %if.then, label %if.end11

if.then:                                          ; preds = %entry
  %d_firstColumn = getelementptr inbounds %"class.cvc5::internal::Cvc5ostream", ptr %this1, i32 0, i32 1
  %1 = load i8, ptr %d_firstColumn, align 8
  %tobool = trunc i8 %1 to i1
  br i1 %tobool, label %if.then2, label %if.end

if.then2:                                         ; preds = %if.then
  %d_firstColumn3 = getelementptr inbounds %"class.cvc5::internal::Cvc5ostream", ptr %this1, i32 0, i32 1
  store i8 0, ptr %d_firstColumn3, align 8
  %d_os4 = getelementptr inbounds %"class.cvc5::internal::Cvc5ostream", ptr %this1, i32 0, i32 0
  %2 = load ptr, ptr %d_os4, align 8
  %vtable = load ptr, ptr %2, align 8
  %vbase.offset.ptr = getelementptr i8, ptr %vtable, i64 -24
  %vbase.offset = load i64, ptr %vbase.offset.ptr, align 8
  %add.ptr = getelementptr inbounds i8, ptr %2, i64 %vbase.offset
  %3 = load i32, ptr @_ZN4cvc58internal11Cvc5ostream16s_indentIosIndexE, align 4
  %call = call noundef nonnull align 8 dereferenceable(8) ptr @_ZNSt8ios_base5iwordEi(ptr noundef nonnull align 8 dereferenceable(216) %add.ptr, i32 noundef %3)
  %4 = load i64, ptr %call, align 8
  store i64 %4, ptr %indent, align 8
  store i64 0, ptr %i, align 8
  br label %for.cond

for.cond:                                         ; preds = %for.inc, %if.then2
  %5 = load i64, ptr %i, align 8
  %6 = load i64, ptr %indent, align 8
  %cmp5 = icmp slt i64 %5, %6
  br i1 %cmp5, label %for.body, label %for.end

for.body:                                         ; preds = %for.cond
  %d_os6 = getelementptr inbounds %"class.cvc5::internal::Cvc5ostream", ptr %this1, i32 0, i32 0
  %7 = load ptr, ptr %d_os6, align 8
  %call7 = call noundef nonnull align 8 dereferenceable(8) ptr @_ZStlsIcSt11char_traitsIcESaIcEERSt13basic_ostreamIT_T0_ES7_RKNSt7__cxx1112basic_stringIS4_S5_T1_EE(ptr noundef nonnull align 8 dereferenceable(8) %7, ptr noundef nonnull align 8 dereferenceable(32) @_ZN4cvc58internal11Cvc5ostream5s_tabB5cxx11E)
  %d_os8 = getelementptr inbounds %"class.cvc5::internal::Cvc5ostream", ptr %this1, i32 0, i32 0
  store ptr %call7, ptr %d_os8, align 8
  br label %for.inc

for.inc:                                          ; preds = %for.body
  %8 = load i64, ptr %i, align 8
  %inc = add nsw i64 %8, 1
  store i64 %inc, ptr %i, align 8
  br label %for.cond, !llvm.loop !8

for.end:                                          ; preds = %for.cond
  br label %if.end

if.end:                                           ; preds = %for.end, %if.then
  %d_os9 = getelementptr inbounds %"class.cvc5::internal::Cvc5ostream", ptr %this1, i32 0, i32 0
  %9 = load ptr, ptr %d_os9, align 8
  %10 = load ptr, ptr %t.addr, align 8
  call void @_ZN4cvc58internal12NodeTemplateILb0EEC2ERKNS1_ILb1EEE(ptr noundef nonnull align 8 dereferenceable(8) %agg.tmp, ptr noundef nonnull align 8 dereferenceable(8) %10)
  %call10 = invoke noundef nonnull align 8 dereferenceable(8) ptr @_ZN4cvc58internallsERSoNS0_12NodeTemplateILb0EEE(ptr noundef nonnull align 8 dereferenceable(8) %9, ptr noundef %agg.tmp)
          to label %invoke.cont unwind label %lpad

invoke.cont:                                      ; preds = %if.end
  call void @_ZN4cvc58internal12NodeTemplateILb0EED2Ev(ptr noundef nonnull align 8 dereferenceable(8) %agg.tmp) #3
  br label %if.end11

lpad:                                             ; preds = %if.end
  %11 = landingpad { ptr, i32 }
          cleanup
  %12 = extractvalue { ptr, i32 } %11, 0
  store ptr %12, ptr %exn.slot, align 8
  %13 = extractvalue { ptr, i32 } %11, 1
  store i32 %13, ptr %ehselector.slot, align 4
  call void @_ZN4cvc58internal12NodeTemplateILb0EED2Ev(ptr noundef nonnull align 8 dereferenceable(8) %agg.tmp) #3
  br label %eh.resume

if.end11:                                         ; preds = %invoke.cont, %entry
  ret ptr %this1

eh.resume:                                        ; preds = %lpad
  %exn = load ptr, ptr %exn.slot, align 8
  %sel = load i32, ptr %ehselector.slot, align 4
  %lpad.val = insertvalue { ptr, i32 } poison, ptr %exn, 0
  %lpad.val12 = insertvalue { ptr, i32 } %lpad.val, i32 %sel, 1
  resume { ptr, i32 } %lpad.val12
}

; Function Attrs: mustprogress uwtable
define linkonce_odr hidden noundef nonnull align 8 dereferenceable(24) ptr @_ZN4cvc58internal11Cvc5ostreamlsEPFRSoS2_E(ptr noundef nonnull align 8 dereferenceable(24) %this, ptr noundef %pf) #4 comdat align 2 {
entry:
  %this.addr = alloca ptr, align 8
  %pf.addr = alloca ptr, align 8
  store ptr %this, ptr %this.addr, align 8
  store ptr %pf, ptr %pf.addr, align 8
  %this1 = load ptr, ptr %this.addr, align 8
  %d_os = getelementptr inbounds %"class.cvc5::internal::Cvc5ostream", ptr %this1, i32 0, i32 0
  %0 = load ptr, ptr %d_os, align 8
  %cmp = icmp ne ptr %0, null
  br i1 %cmp, label %if.then, label %if.end6

if.then:                                          ; preds = %entry
  %d_os2 = getelementptr inbounds %"class.cvc5::internal::Cvc5ostream", ptr %this1, i32 0, i32 0
  %1 = load ptr, ptr %d_os2, align 8
  %2 = load ptr, ptr %pf.addr, align 8
  %call = call noundef nonnull align 8 dereferenceable(8) ptr @_ZNSolsEPFRSoS_E(ptr noundef nonnull align 8 dereferenceable(8) %1, ptr noundef %2)
  %d_os3 = getelementptr inbounds %"class.cvc5::internal::Cvc5ostream", ptr %this1, i32 0, i32 0
  store ptr %call, ptr %d_os3, align 8
  %3 = load ptr, ptr %pf.addr, align 8
  %d_endl = getelementptr inbounds %"class.cvc5::internal::Cvc5ostream", ptr %this1, i32 0, i32 2
  %4 = load ptr, ptr %d_endl, align 8
  %cmp4 = icmp eq ptr %3, %4
  br i1 %cmp4, label %if.then5, label %if.end

if.then5:                                         ; preds = %if.then
  %d_firstColumn = getelementptr inbounds %"class.cvc5::internal::Cvc5ostream", ptr %this1, i32 0, i32 1
  store i8 1, ptr %d_firstColumn, align 8
  br label %if.end

if.end:                                           ; preds = %if.then5, %if.then
  br label %if.end6

if.end6:                                          ; preds = %if.end, %entry
  ret ptr %this1
}

declare noundef nonnull align 8 dereferenceable(8) ptr @_ZSt4endlIcSt11char_traitsIcEERSt13basic_ostreamIT_T0_ES6_(ptr noundef nonnull align 8 dereferenceable(8)) #1

; Function Attrs: nocallback nofree nounwind willreturn memory(argmem: readwrite)
declare void @llvm.memcpy.p0.p0.i64(ptr noalias nocapture writeonly, ptr noalias nocapture readonly, i64, i1 immarg) #8

; Function Attrs: mustprogress uwtable
define hidden noundef zeroext i1 @_ZN4cvc58internal6theory24TheoryEngineModelBuilder12isAssignableENS0_12NodeTemplateILb0EEE(ptr noundef nonnull align 8 dereferenceable(120) %this, ptr noundef %n) #4 align 2 personality ptr @__gxx_personality_v0 {
entry:
  %retval = alloca i1, align 1
  %this.addr = alloca ptr, align 8
  %n.indirect_addr = alloca ptr, align 8
  %ref.tmp = alloca %"class.cvc5::internal::TypeNode", align 8
  %exn.slot = alloca ptr, align 8
  %ehselector.slot = alloca i32, align 4
  %ref.tmp24 = alloca %"class.cvc5::internal::TypeNode", align 8
  %cleanup.cond = alloca i1, align 1
  %ref.tmp36 = alloca %"class.cvc5::internal::TypeNode", align 8
  %ref.tmp37 = alloca %"class.cvc5::internal::NodeTemplate.274", align 8
  %cleanup.cond39 = alloca i1, align 1
  %cleanup.cond42 = alloca i1, align 1
  store ptr %this, ptr %this.addr, align 8
  store ptr %n, ptr %n.indirect_addr, align 8
  %this1 = load ptr, ptr %this.addr, align 8
  %call = call noundef i32 @_ZNK4cvc58internal12NodeTemplateILb0EE7getKindEv(ptr noundef nonnull align 8 dereferenceable(8) %n)
  %cmp = icmp eq i32 %call, 208
  br i1 %cmp, label %if.then, label %lor.lhs.false

lor.lhs.false:                                    ; preds = %entry
  %call2 = call noundef i32 @_ZNK4cvc58internal12NodeTemplateILb0EE7getKindEv(ptr noundef nonnull align 8 dereferenceable(8) %n)
  %cmp3 = icmp eq i32 %call2, 218
  br i1 %cmp3, label %if.then, label %lor.lhs.false4

lor.lhs.false4:                                   ; preds = %lor.lhs.false
  %call5 = call noundef i32 @_ZNK4cvc58internal12NodeTemplateILb0EE7getKindEv(ptr noundef nonnull align 8 dereferenceable(8) %n)
  %cmp6 = icmp eq i32 %call5, 333
  br i1 %cmp6, label %if.then, label %if.else11

if.then:                                          ; preds = %lor.lhs.false4, %lor.lhs.false, %entry
  %call7 = call noundef nonnull align 8 dereferenceable(88) ptr @_ZNK4cvc58internal6EnvObj9logicInfoEv(ptr noundef nonnull align 8 dereferenceable(16) %this1)
  %call8 = call noundef zeroext i1 @_ZNK4cvc58internal9LogicInfo13isHigherOrderEv(ptr noundef nonnull align 8 dereferenceable(88) %call7)
  br i1 %call8, label %if.else, label %if.then9

if.then9:                                         ; preds = %if.then
  store i1 true, ptr %retval, align 1
  br label %return

if.else:                                          ; preds = %if.then
  call void @_ZNK4cvc58internal12NodeTemplateILb0EE7getTypeEb(ptr sret(%"class.cvc5::internal::TypeNode") align 8 %ref.tmp, ptr noundef nonnull align 8 dereferenceable(8) %n, i1 noundef zeroext false)
  %call10 = invoke noundef zeroext i1 @_ZNK4cvc58internal8TypeNode10isFunctionEv(ptr noundef nonnull align 8 dereferenceable(8) %ref.tmp)
          to label %invoke.cont unwind label %lpad

invoke.cont:                                      ; preds = %if.else
  %lnot = xor i1 %call10, true
  store i1 %lnot, ptr %retval, align 1
  call void @_ZN4cvc58internal8TypeNodeD2Ev(ptr noundef nonnull align 8 dereferenceable(8) %ref.tmp) #3
  br label %return

lpad:                                             ; preds = %if.else
  %0 = landingpad { ptr, i32 }
          cleanup
  %1 = extractvalue { ptr, i32 } %0, 0
  store ptr %1, ptr %exn.slot, align 8
  %2 = extractvalue { ptr, i32 } %0, 1
  store i32 %2, ptr %ehselector.slot, align 4
  call void @_ZN4cvc58internal8TypeNodeD2Ev(ptr noundef nonnull align 8 dereferenceable(8) %ref.tmp) #3
  br label %eh.resume

if.else11:                                        ; preds = %lor.lhs.false4
  %call12 = call noundef i32 @_ZNK4cvc58internal12NodeTemplateILb0EE7getKindEv(ptr noundef nonnull align 8 dereferenceable(8) %n)
  %cmp13 = icmp eq i32 %call12, 203
  br i1 %cmp13, label %if.then14, label %if.else15

if.then14:                                        ; preds = %if.else11
  store i1 true, ptr %retval, align 1
  br label %return

if.else15:                                        ; preds = %if.else11
  %call16 = call noundef nonnull align 8 dereferenceable(88) ptr @_ZNK4cvc58internal6EnvObj9logicInfoEv(ptr noundef nonnull align 8 dereferenceable(16) %this1)
  %call17 = call noundef zeroext i1 @_ZNK4cvc58internal9LogicInfo13isHigherOrderEv(ptr noundef nonnull align 8 dereferenceable(88) %call16)
  br i1 %call17, label %if.else22, label %if.then18

if.then18:                                        ; preds = %if.else15
  %call19 = call noundef zeroext i1 @_ZNK4cvc58internal12NodeTemplateILb0EE5isVarEv(ptr noundef nonnull align 8 dereferenceable(8) %n)
  br i1 %call19, label %lor.end, label %lor.rhs

lor.rhs:                                          ; preds = %if.then18
  %call20 = call noundef i32 @_ZNK4cvc58internal12NodeTemplateILb0EE7getKindEv(ptr noundef nonnull align 8 dereferenceable(8) %n)
  %cmp21 = icmp eq i32 %call20, 24
  br label %lor.end

lor.end:                                          ; preds = %lor.rhs, %if.then18
  %3 = phi i1 [ true, %if.then18 ], [ %cmp21, %lor.rhs ]
  store i1 %3, ptr %retval, align 1
  br label %return

if.else22:                                        ; preds = %if.else15
  %call23 = call noundef zeroext i1 @_ZNK4cvc58internal12NodeTemplateILb0EE5isVarEv(ptr noundef nonnull align 8 dereferenceable(8) %n)
  store i1 false, ptr %cleanup.cond, align 1
  store i1 false, ptr %cleanup.cond39, align 1
  store i1 false, ptr %cleanup.cond42, align 1
  br i1 %call23, label %land.lhs.true, label %lor.lhs.false28

land.lhs.true:                                    ; preds = %if.else22
  call void @_ZNK4cvc58internal12NodeTemplateILb0EE7getTypeEb(ptr sret(%"class.cvc5::internal::TypeNode") align 8 %ref.tmp24, ptr noundef nonnull align 8 dereferenceable(8) %n, i1 noundef zeroext false)
  store i1 true, ptr %cleanup.cond, align 1
  %call27 = invoke noundef zeroext i1 @_ZNK4cvc58internal8TypeNode10isFunctionEv(ptr noundef nonnull align 8 dereferenceable(8) %ref.tmp24)
          to label %invoke.cont26 unwind label %lpad25

invoke.cont26:                                    ; preds = %land.lhs.true
  br i1 %call27, label %lor.lhs.false28, label %lor.end47

lor.lhs.false28:                                  ; preds = %invoke.cont26, %if.else22
  %call30 = invoke noundef i32 @_ZNK4cvc58internal12NodeTemplateILb0EE7getKindEv(ptr noundef nonnull align 8 dereferenceable(8) %n)
          to label %invoke.cont29 unwind label %lpad25

invoke.cont29:                                    ; preds = %lor.lhs.false28
  %cmp31 = icmp eq i32 %call30, 24
  br i1 %cmp31, label %lor.end47, label %lor.rhs32

lor.rhs32:                                        ; preds = %invoke.cont29
  %call34 = invoke noundef i32 @_ZNK4cvc58internal12NodeTemplateILb0EE7getKindEv(ptr noundef nonnull align 8 dereferenceable(8) %n)
          to label %invoke.cont33 unwind label %lpad25

invoke.cont33:                                    ; preds = %lor.rhs32
  %cmp35 = icmp eq i32 %call34, 27
  br i1 %cmp35, label %land.rhs, label %land.end

land.rhs:                                         ; preds = %invoke.cont33
  invoke void @_ZNK4cvc58internal12NodeTemplateILb0EEixEi(ptr sret(%"class.cvc5::internal::NodeTemplate.274") align 8 %ref.tmp37, ptr noundef nonnull align 8 dereferenceable(8) %n, i32 noundef 0)
          to label %invoke.cont38 unwind label %lpad25

invoke.cont38:                                    ; preds = %land.rhs
  store i1 true, ptr %cleanup.cond39, align 1
  invoke void @_ZNK4cvc58internal12NodeTemplateILb0EE7getTypeEb(ptr sret(%"class.cvc5::internal::TypeNode") align 8 %ref.tmp36, ptr noundef nonnull align 8 dereferenceable(8) %ref.tmp37, i1 noundef zeroext false)
          to label %invoke.cont41 unwind label %lpad40

invoke.cont41:                                    ; preds = %invoke.cont38
  store i1 true, ptr %cleanup.cond42, align 1
  %call45 = invoke noundef i64 @_ZNK4cvc58internal8TypeNode14getNumChildrenEv(ptr noundef nonnull align 8 dereferenceable(8) %ref.tmp36)
          to label %invoke.cont44 unwind label %lpad43

invoke.cont44:                                    ; preds = %invoke.cont41
  %cmp46 = icmp eq i64 %call45, 2
  br label %land.end

land.end:                                         ; preds = %invoke.cont44, %invoke.cont33
  %4 = phi i1 [ false, %invoke.cont33 ], [ %cmp46, %invoke.cont44 ]
  br label %lor.end47

lor.end47:                                        ; preds = %land.end, %invoke.cont29, %invoke.cont26
  %5 = phi i1 [ true, %invoke.cont29 ], [ true, %invoke.cont26 ], [ %4, %land.end ]
  store i1 %5, ptr %retval, align 1
  %cleanup.is_active = load i1, ptr %cleanup.cond42, align 1
  br i1 %cleanup.is_active, label %cleanup.action, label %cleanup.done

cleanup.action:                                   ; preds = %lor.end47
  call void @_ZN4cvc58internal8TypeNodeD2Ev(ptr noundef nonnull align 8 dereferenceable(8) %ref.tmp36) #3
  br label %cleanup.done

cleanup.done:                                     ; preds = %cleanup.action, %lor.end47
  %cleanup.is_active51 = load i1, ptr %cleanup.cond39, align 1
  br i1 %cleanup.is_active51, label %cleanup.action52, label %cleanup.done53

cleanup.action52:                                 ; preds = %cleanup.done
  call void @_ZN4cvc58internal12NodeTemplateILb0EED2Ev(ptr noundef nonnull align 8 dereferenceable(8) %ref.tmp37) #3
  br label %cleanup.done53

cleanup.done53:                                   ; preds = %cleanup.action52, %cleanup.done
  %cleanup.is_active57 = load i1, ptr %cleanup.cond, align 1
  br i1 %cleanup.is_active57, label %cleanup.action58, label %cleanup.done59

cleanup.action58:                                 ; preds = %cleanup.done53
  call void @_ZN4cvc58internal8TypeNodeD2Ev(ptr noundef nonnull align 8 dereferenceable(8) %ref.tmp24) #3
  br label %cleanup.done59

cleanup.done59:                                   ; preds = %cleanup.action58, %cleanup.done53
  br label %return

lpad25:                                           ; preds = %land.rhs, %lor.rhs32, %lor.lhs.false28, %land.lhs.true
  %6 = landingpad { ptr, i32 }
          cleanup
  %7 = extractvalue { ptr, i32 } %6, 0
  store ptr %7, ptr %exn.slot, align 8
  %8 = extractvalue { ptr, i32 } %6, 1
  store i32 %8, ptr %ehselector.slot, align 4
  br label %ehcleanup60

lpad40:                                           ; preds = %invoke.cont38
  %9 = landingpad { ptr, i32 }
          cleanup
  %10 = extractvalue { ptr, i32 } %9, 0
  store ptr %10, ptr %exn.slot, align 8
  %11 = extractvalue { ptr, i32 } %9, 1
  store i32 %11, ptr %ehselector.slot, align 4
  br label %ehcleanup

lpad43:                                           ; preds = %invoke.cont41
  %12 = landingpad { ptr, i32 }
          cleanup
  %13 = extractvalue { ptr, i32 } %12, 0
  store ptr %13, ptr %exn.slot, align 8
  %14 = extractvalue { ptr, i32 } %12, 1
  store i32 %14, ptr %ehselector.slot, align 4
  %cleanup.is_active48 = load i1, ptr %cleanup.cond42, align 1
  br i1 %cleanup.is_active48, label %cleanup.action49, label %cleanup.done50

cleanup.action49:                                 ; preds = %lpad43
  call void @_ZN4cvc58internal8TypeNodeD2Ev(ptr noundef nonnull align 8 dereferenceable(8) %ref.tmp36) #3
  br label %cleanup.done50

cleanup.done50:                                   ; preds = %cleanup.action49, %lpad43
  br label %ehcleanup

ehcleanup:                                        ; preds = %cleanup.done50, %lpad40
  %cleanup.is_active54 = load i1, ptr %cleanup.cond39, align 1
  br i1 %cleanup.is_active54, label %cleanup.action55, label %cleanup.done56

cleanup.action55:                                 ; preds = %ehcleanup
  call void @_ZN4cvc58internal12NodeTemplateILb0EED2Ev(ptr noundef nonnull align 8 dereferenceable(8) %ref.tmp37) #3
  br label %cleanup.done56

cleanup.done56:                                   ; preds = %cleanup.action55, %ehcleanup
  br label %ehcleanup60

ehcleanup60:                                      ; preds = %cleanup.done56, %lpad25
  %cleanup.is_active61 = load i1, ptr %cleanup.cond, align 1
  br i1 %cleanup.is_active61, label %cleanup.action62, label %cleanup.done63

cleanup.action62:                                 ; preds = %ehcleanup60
  call void @_ZN4cvc58internal8TypeNodeD2Ev(ptr noundef nonnull align 8 dereferenceable(8) %ref.tmp24) #3
  br label %cleanup.done63

cleanup.done63:                                   ; preds = %cleanup.action62, %ehcleanup60
  br label %eh.resume

return:                                           ; preds = %cleanup.done59, %lor.end, %if.then14, %invoke.cont, %if.then9
  %15 = load i1, ptr %retval, align 1
  ret i1 %15

eh.resume:                                        ; preds = %cleanup.done63, %lpad
  %exn = load ptr, ptr %exn.slot, align 8
  %sel = load i32, ptr %ehselector.slot, align 4
  %lpad.val = insertvalue { ptr, i32 } poison, ptr %exn, 0
  %lpad.val64 = insertvalue { ptr, i32 } %lpad.val, i32 %sel, 1
  resume { ptr, i32 } %lpad.val64
}

; Function Attrs: mustprogress nounwind uwtable
define linkonce_odr hidden void @_ZN4cvc58internal12NodeTemplateILb0EEC2ERKNS1_ILb1EEE(ptr noundef nonnull align 8 dereferenceable(8) %this, ptr noundef nonnull align 8 dereferenceable(8) %e) unnamed_addr #5 comdat align 2 {
entry:
  %this.addr = alloca ptr, align 8
  %e.addr = alloca ptr, align 8
  store ptr %this, ptr %this.addr, align 8
  store ptr %e, ptr %e.addr, align 8
  %this1 = load ptr, ptr %this.addr, align 8
  %0 = load ptr, ptr %e.addr, align 8
  %d_nv = getelementptr inbounds %"class.cvc5::internal::NodeTemplate", ptr %0, i32 0, i32 0
  %1 = load ptr, ptr %d_nv, align 8
  %d_nv2 = getelementptr inbounds %"class.cvc5::internal::NodeTemplate.274", ptr %this1, i32 0, i32 0
  store ptr %1, ptr %d_nv2, align 8
  ret void
}

; Function Attrs: mustprogress nounwind uwtable
define linkonce_odr hidden void @_ZN4cvc58internal12NodeTemplateILb0EED2Ev(ptr noundef nonnull align 8 dereferenceable(8) %this) unnamed_addr #5 comdat align 2 {
entry:
  %this.addr = alloca ptr, align 8
  store ptr %this, ptr %this.addr, align 8
  ret void
}

; Function Attrs: mustprogress uwtable
define linkonce_odr hidden noundef nonnull align 8 dereferenceable(24) ptr @_ZN4cvc58internal11Cvc5ostreamlsIA20_cEERS1_RKT_(ptr noundef nonnull align 8 dereferenceable(24) %this, ptr noundef nonnull align 1 dereferenceable(20) %t) #4 comdat align 2 {
entry:
  %this.addr = alloca ptr, align 8
  %t.addr = alloca ptr, align 8
  %indent = alloca i64, align 8
  %i = alloca i64, align 8
  store ptr %this, ptr %this.addr, align 8
  store ptr %t, ptr %t.addr, align 8
  %this1 = load ptr, ptr %this.addr, align 8
  %d_os = getelementptr inbounds %"class.cvc5::internal::Cvc5ostream", ptr %this1, i32 0, i32 0
  %0 = load ptr, ptr %d_os, align 8
  %cmp = icmp ne ptr %0, null
  br i1 %cmp, label %if.then, label %if.end11

if.then:                                          ; preds = %entry
  %d_firstColumn = getelementptr inbounds %"class.cvc5::internal::Cvc5ostream", ptr %this1, i32 0, i32 1
  %1 = load i8, ptr %d_firstColumn, align 8
  %tobool = trunc i8 %1 to i1
  br i1 %tobool, label %if.then2, label %if.end

if.then2:                                         ; preds = %if.then
  %d_firstColumn3 = getelementptr inbounds %"class.cvc5::internal::Cvc5ostream", ptr %this1, i32 0, i32 1
  store i8 0, ptr %d_firstColumn3, align 8
  %d_os4 = getelementptr inbounds %"class.cvc5::internal::Cvc5ostream", ptr %this1, i32 0, i32 0
  %2 = load ptr, ptr %d_os4, align 8
  %vtable = load ptr, ptr %2, align 8
  %vbase.offset.ptr = getelementptr i8, ptr %vtable, i64 -24
  %vbase.offset = load i64, ptr %vbase.offset.ptr, align 8
  %add.ptr = getelementptr inbounds i8, ptr %2, i64 %vbase.offset
  %3 = load i32, ptr @_ZN4cvc58internal11Cvc5ostream16s_indentIosIndexE, align 4
  %call = call noundef nonnull align 8 dereferenceable(8) ptr @_ZNSt8ios_base5iwordEi(ptr noundef nonnull align 8 dereferenceable(216) %add.ptr, i32 noundef %3)
  %4 = load i64, ptr %call, align 8
  store i64 %4, ptr %indent, align 8
  store i64 0, ptr %i, align 8
  br label %for.cond

for.cond:                                         ; preds = %for.inc, %if.then2
  %5 = load i64, ptr %i, align 8
  %6 = load i64, ptr %indent, align 8
  %cmp5 = icmp slt i64 %5, %6
  br i1 %cmp5, label %for.body, label %for.end

for.body:                                         ; preds = %for.cond
  %d_os6 = getelementptr inbounds %"class.cvc5::internal::Cvc5ostream", ptr %this1, i32 0, i32 0
  %7 = load ptr, ptr %d_os6, align 8
  %call7 = call noundef nonnull align 8 dereferenceable(8) ptr @_ZStlsIcSt11char_traitsIcESaIcEERSt13basic_ostreamIT_T0_ES7_RKNSt7__cxx1112basic_stringIS4_S5_T1_EE(ptr noundef nonnull align 8 dereferenceable(8) %7, ptr noundef nonnull align 8 dereferenceable(32) @_ZN4cvc58internal11Cvc5ostream5s_tabB5cxx11E)
  %d_os8 = getelementptr inbounds %"class.cvc5::internal::Cvc5ostream", ptr %this1, i32 0, i32 0
  store ptr %call7, ptr %d_os8, align 8
  br label %for.inc

for.inc:                                          ; preds = %for.body
  %8 = load i64, ptr %i, align 8
  %inc = add nsw i64 %8, 1
  store i64 %inc, ptr %i, align 8
  br label %for.cond, !llvm.loop !9

for.end:                                          ; preds = %for.cond
  br label %if.end

if.end:                                           ; preds = %for.end, %if.then
  %d_os9 = getelementptr inbounds %"class.cvc5::internal::Cvc5ostream", ptr %this1, i32 0, i32 0
  %9 = load ptr, ptr %d_os9, align 8
  %10 = load ptr, ptr %t.addr, align 8
  %arraydecay = getelementptr inbounds [20 x i8], ptr %10, i64 0, i64 0
  %call10 = call noundef nonnull align 8 dereferenceable(8) ptr @_ZStlsISt11char_traitsIcEERSt13basic_ostreamIcT_ES5_PKc(ptr noundef nonnull align 8 dereferenceable(8) %9, ptr noundef %arraydecay)
  br label %if.end11

if.end11:                                         ; preds = %if.end, %entry
  ret ptr %this1
}

; Function Attrs: mustprogress uwtable
define hidden void @_ZN4cvc58internal6theory24TheoryEngineModelBuilder9normalizeEPNS1_11TheoryModelENS0_12NodeTemplateILb0EEEb(ptr noalias sret(%"class.cvc5::internal::NodeTemplate") align 8 %agg.result, ptr noundef nonnull align 8 dereferenceable(120) %this, ptr noundef %m, ptr noundef %r, i1 noundef zeroext %evalOnly) #4 align 2 personality ptr @__gxx_personality_v0 {
entry:
  %result.ptr = alloca ptr, align 8
  %this.addr = alloca ptr, align 8
  %m.addr = alloca ptr, align 8
  %r.indirect_addr = alloca ptr, align 8
  %evalOnly.addr = alloca i8, align 1
  %itMap = alloca %"struct.std::_Rb_tree_iterator", align 8
  %ref.tmp = alloca %"class.cvc5::internal::NodeTemplate", align 8
  %exn.slot = alloca ptr, align 8
  %ehselector.slot = alloca i32, align 4
  %ref.tmp2 = alloca %"struct.std::_Rb_tree_iterator", align 8
  %it = alloca %"struct.std::__detail::_Node_iterator.629", align 8
  %ref.tmp8 = alloca %"class.cvc5::internal::NodeTemplate", align 8
  %ref.tmp14 = alloca %"struct.std::__detail::_Node_iterator.629", align 8
  %ref.tmp24 = alloca %"class.cvc5::internal::__cvc5_true", align 1
  %tmp = alloca %"class.cvc5::internal::Cvc5ostream", align 8
  %agg.tmp.ensured = alloca %"class.cvc5::internal::Cvc5ostream", align 8
  %ref.tmp26 = alloca %"class.cvc5::internal::Cvc5ostream", align 8
  %nrvo = alloca i1, align 1
  %children = alloca %"class.std::vector.269", align 8
  %ref.tmp39 = alloca %"class.cvc5::internal::NodeTemplate", align 8
  %i = alloca i64, align 8
  %nchild = alloca i64, align 8
  %ri = alloca %"class.cvc5::internal::NodeTemplate", align 8
  %ref.tmp47 = alloca %"class.cvc5::internal::NodeTemplate.274", align 8
  %recurse = alloca i8, align 1
  %agg.tmp = alloca %"class.cvc5::internal::NodeTemplate.274", align 8
  %ref.tmp60 = alloca %"struct.std::_Rb_tree_iterator", align 8
  %ref.tmp62 = alloca %"class.cvc5::internal::NodeTemplate", align 8
  %ref.tmp63 = alloca %"class.cvc5::internal::NodeTemplate.274", align 8
  %agg.tmp65 = alloca %"class.cvc5::internal::NodeTemplate.274", align 8
  %ref.tmp76 = alloca %"struct.std::_Rb_tree_iterator", align 8
  %ref.tmp86 = alloca %"class.cvc5::internal::__cvc5_true", align 1
  %tmp90 = alloca %"class.cvc5::internal::Cvc5ostream", align 8
  %agg.tmp.ensured93 = alloca %"class.cvc5::internal::Cvc5ostream", align 8
  %ref.tmp94 = alloca %"class.cvc5::internal::Cvc5ostream", align 8
  %ref.tmp106 = alloca %"class.cvc5::internal::__cvc5_true", align 1
  %tmp110 = alloca %"class.cvc5::internal::Cvc5ostream", align 8
  %agg.tmp.ensured113 = alloca %"class.cvc5::internal::Cvc5ostream", align 8
  %ref.tmp114 = alloca %"class.cvc5::internal::Cvc5ostream", align 8
  %ref.tmp128 = alloca %"class.cvc5::internal::__cvc5_true", align 1
  %tmp132 = alloca %"class.cvc5::internal::Cvc5ostream", align 8
  %agg.tmp.ensured135 = alloca %"class.cvc5::internal::Cvc5ostream", align 8
  %ref.tmp136 = alloca %"class.cvc5::internal::Cvc5ostream", align 8
  %ref.tmp150 = alloca %"class.cvc5::internal::NodeTemplate", align 8
  %agg.tmp151 = alloca %"class.cvc5::internal::NodeTemplate.274", align 8
  %ref.tmp165 = alloca %"class.cvc5::internal::NodeTemplate", align 8
  %ref.tmp175 = alloca %"class.cvc5::internal::NodeTemplate", align 8
  %agg.tmp176 = alloca %"class.cvc5::internal::NodeTemplate.274", align 8
  %ref.tmp188 = alloca %"class.cvc5::internal::NodeTemplate", align 8
  store ptr %agg.result, ptr %result.ptr, align 8
  store ptr %this, ptr %this.addr, align 8
  store ptr %m, ptr %m.addr, align 8
  store ptr %r, ptr %r.indirect_addr, align 8
  %frombool = zext i1 %evalOnly to i8
  store i8 %frombool, ptr %evalOnly.addr, align 1
  %this1 = load ptr, ptr %this.addr, align 8
  %d_constantReps = getelementptr inbounds %"class.cvc5::internal::theory::TheoryEngineModelBuilder", ptr %this1, i32 0, i32 2
  call void @_ZN4cvc58internal12NodeTemplateILb1EEC2ERKNS1_ILb0EEE(ptr noundef nonnull align 8 dereferenceable(8) %ref.tmp, ptr noundef nonnull align 8 dereferenceable(8) %r)
  %call = invoke ptr @_ZNSt3mapIN4cvc58internal12NodeTemplateILb1EEES3_St4lessIS3_ESaISt4pairIKS3_S3_EEE4findERS7_(ptr noundef nonnull align 8 dereferenceable(48) %d_constantReps, ptr noundef nonnull align 8 dereferenceable(8) %ref.tmp)
          to label %invoke.cont unwind label %lpad

invoke.cont:                                      ; preds = %entry
  %coerce.dive = getelementptr inbounds %"struct.std::_Rb_tree_iterator", ptr %itMap, i32 0, i32 0
  store ptr %call, ptr %coerce.dive, align 8
  call void @_ZN4cvc58internal12NodeTemplateILb1EED2Ev(ptr noundef nonnull align 8 dereferenceable(8) %ref.tmp) #3
  %d_constantReps3 = getelementptr inbounds %"class.cvc5::internal::theory::TheoryEngineModelBuilder", ptr %this1, i32 0, i32 2
  %call4 = call ptr @_ZNSt3mapIN4cvc58internal12NodeTemplateILb1EEES3_St4lessIS3_ESaISt4pairIKS3_S3_EEE3endEv(ptr noundef nonnull align 8 dereferenceable(48) %d_constantReps3) #3
  %coerce.dive5 = getelementptr inbounds %"struct.std::_Rb_tree_iterator", ptr %ref.tmp2, i32 0, i32 0
  store ptr %call4, ptr %coerce.dive5, align 8
  %call6 = call noundef zeroext i1 @_ZStneRKSt17_Rb_tree_iteratorISt4pairIKN4cvc58internal12NodeTemplateILb1EEES4_EES9_(ptr noundef nonnull align 8 dereferenceable(8) %itMap, ptr noundef nonnull align 8 dereferenceable(8) %ref.tmp2) #3
  br i1 %call6, label %if.then, label %if.end

if.then:                                          ; preds = %invoke.cont
  %call7 = call noundef nonnull align 8 dereferenceable(16) ptr @_ZNKSt17_Rb_tree_iteratorISt4pairIKN4cvc58internal12NodeTemplateILb1EEES4_EEdeEv(ptr noundef nonnull align 8 dereferenceable(8) %itMap) #3
  %second = getelementptr inbounds %"struct.std::pair", ptr %call7, i32 0, i32 1
  call void @_ZN4cvc58internal12NodeTemplateILb1EEC2ERKS2_(ptr noundef nonnull align 8 dereferenceable(8) %agg.result, ptr noundef nonnull align 8 dereferenceable(8) %second)
  br label %return

lpad:                                             ; preds = %entry
  %0 = landingpad { ptr, i32 }
          cleanup
  %1 = extractvalue { ptr, i32 } %0, 0
  store ptr %1, ptr %exn.slot, align 8
  %2 = extractvalue { ptr, i32 } %0, 1
  store i32 %2, ptr %ehselector.slot, align 4
  call void @_ZN4cvc58internal12NodeTemplateILb1EED2Ev(ptr noundef nonnull align 8 dereferenceable(8) %ref.tmp) #3
  br label %eh.resume

if.end:                                           ; preds = %invoke.cont
  %d_normalizedCache = getelementptr inbounds %"class.cvc5::internal::theory::TheoryEngineModelBuilder", ptr %this1, i32 0, i32 1
  call void @_ZN4cvc58internal12NodeTemplateILb1EEC2ERKNS1_ILb0EEE(ptr noundef nonnull align 8 dereferenceable(8) %ref.tmp8, ptr noundef nonnull align 8 dereferenceable(8) %r)
  %call11 = invoke ptr @_ZNSt13unordered_mapIN4cvc58internal12NodeTemplateILb1EEES3_St4hashIS3_ESt8equal_toIS3_ESaISt4pairIKS3_S3_EEE4findERS9_(ptr noundef nonnull align 8 dereferenceable(56) %d_normalizedCache, ptr noundef nonnull align 8 dereferenceable(8) %ref.tmp8)
          to label %invoke.cont10 unwind label %lpad9

invoke.cont10:                                    ; preds = %if.end
  %coerce.dive12 = getelementptr inbounds %"struct.std::__detail::_Node_iterator.629", ptr %it, i32 0, i32 0
  %coerce.dive13 = getelementptr inbounds %"struct.std::__detail::_Node_iterator_base.630", ptr %coerce.dive12, i32 0, i32 0
  store ptr %call11, ptr %coerce.dive13, align 8
  call void @_ZN4cvc58internal12NodeTemplateILb1EED2Ev(ptr noundef nonnull align 8 dereferenceable(8) %ref.tmp8) #3
  %d_normalizedCache15 = getelementptr inbounds %"class.cvc5::internal::theory::TheoryEngineModelBuilder", ptr %this1, i32 0, i32 1
  %call16 = call ptr @_ZNSt13unordered_mapIN4cvc58internal12NodeTemplateILb1EEES3_St4hashIS3_ESt8equal_toIS3_ESaISt4pairIKS3_S3_EEE3endEv(ptr noundef nonnull align 8 dereferenceable(56) %d_normalizedCache15) #3
  %coerce.dive17 = getelementptr inbounds %"struct.std::__detail::_Node_iterator.629", ptr %ref.tmp14, i32 0, i32 0
  %coerce.dive18 = getelementptr inbounds %"struct.std::__detail::_Node_iterator_base.630", ptr %coerce.dive17, i32 0, i32 0
  store ptr %call16, ptr %coerce.dive18, align 8
  %call19 = call noundef zeroext i1 @_ZNSt8__detailneERKNS_19_Node_iterator_baseISt4pairIKN4cvc58internal12NodeTemplateILb1EEES5_ELb1EEESA_(ptr noundef nonnull align 8 dereferenceable(8) %it, ptr noundef nonnull align 8 dereferenceable(8) %ref.tmp14) #3
  br i1 %call19, label %if.then20, label %if.end23

if.then20:                                        ; preds = %invoke.cont10
  %call21 = call noundef nonnull align 8 dereferenceable(16) ptr @_ZNKSt8__detail14_Node_iteratorISt4pairIKN4cvc58internal12NodeTemplateILb1EEES5_ELb0ELb1EEdeEv(ptr noundef nonnull align 8 dereferenceable(8) %it) #3
  %second22 = getelementptr inbounds %"struct.std::pair", ptr %call21, i32 0, i32 1
  call void @_ZN4cvc58internal12NodeTemplateILb1EEC2ERKS2_(ptr noundef nonnull align 8 dereferenceable(8) %agg.result, ptr noundef nonnull align 8 dereferenceable(8) %second22)
  br label %return

lpad9:                                            ; preds = %if.end
  %3 = landingpad { ptr, i32 }
          cleanup
  %4 = extractvalue { ptr, i32 } %3, 0
  store ptr %4, ptr %exn.slot, align 8
  %5 = extractvalue { ptr, i32 } %3, 1
  store i32 %5, ptr %ehselector.slot, align 4
  call void @_ZN4cvc58internal12NodeTemplateILb1EED2Ev(ptr noundef nonnull align 8 dereferenceable(8) %ref.tmp8) #3
  br label %eh.resume

if.end23:                                         ; preds = %invoke.cont10
  %call25 = call noundef zeroext i1 @_ZN4cvc58internal11__cvc5_truecvbEv(ptr noundef nonnull align 1 dereferenceable(1) %ref.tmp24)
  br i1 %call25, label %cond.true, label %cond.false

cond.true:                                        ; preds = %if.end23
  call void @_ZNK4cvc58internal5NullCcvNS0_11Cvc5ostreamEEv(ptr sret(%"class.cvc5::internal::Cvc5ostream") align 8 %tmp, ptr noundef nonnull align 1 dereferenceable(1) @_ZN4cvc58internal10nullStreamE)
  br label %cond.end

cond.false:                                       ; preds = %if.end23
  call void @_ZNK4cvc58internal6TraceCclEv(ptr sret(%"class.cvc5::internal::Cvc5ostream") align 8 %ref.tmp26, ptr noundef nonnull align 8 dereferenceable(32) @_ZN4cvc58internal12TraceChannelE)
  %call27 = call noundef nonnull align 8 dereferenceable(24) ptr @_ZN4cvc58internal11Cvc5ostreamlsIA17_cEERS1_RKT_(ptr noundef nonnull align 8 dereferenceable(24) %ref.tmp26, ptr noundef nonnull align 1 dereferenceable(17) @.str.67)
  %call28 = call noundef nonnull align 8 dereferenceable(24) ptr @_ZN4cvc58internal11Cvc5ostreamlsINS0_12NodeTemplateILb0EEEEERS1_RKT_(ptr noundef nonnull align 8 dereferenceable(24) %call27, ptr noundef nonnull align 8 dereferenceable(8) %r)
  %call29 = call noundef nonnull align 8 dereferenceable(24) ptr @_ZN4cvc58internal11Cvc5ostreamlsEPFRSoS2_E(ptr noundef nonnull align 8 dereferenceable(24) %call28, ptr noundef @_ZSt4endlIcSt11char_traitsIcEERSt13basic_ostreamIT_T0_ES6_)
  call void @llvm.memcpy.p0.p0.i64(ptr align 8 %agg.tmp.ensured, ptr align 8 %call29, i64 24, i1 false)
  br label %cond.end

cond.end:                                         ; preds = %cond.false, %cond.true
  store i1 false, ptr %nrvo, align 1
  call void @_ZN4cvc58internal12NodeTemplateILb1EEC2ERKNS1_ILb0EEE(ptr noundef nonnull align 8 dereferenceable(8) %agg.result, ptr noundef nonnull align 8 dereferenceable(8) %r)
  %call32 = invoke noundef i64 @_ZNK4cvc58internal12NodeTemplateILb0EE14getNumChildrenEv(ptr noundef nonnull align 8 dereferenceable(8) %r)
          to label %invoke.cont31 unwind label %lpad30

invoke.cont31:                                    ; preds = %cond.end
  %cmp = icmp ugt i64 %call32, 0
  br i1 %cmp, label %if.then33, label %if.end186

if.then33:                                        ; preds = %invoke.cont31
  call void @_ZNSt6vectorIN4cvc58internal12NodeTemplateILb1EEESaIS3_EEC2Ev(ptr noundef nonnull align 8 dereferenceable(24) %children) #3
  %call36 = invoke noundef i32 @_ZNK4cvc58internal12NodeTemplateILb0EE11getMetaKindEv(ptr noundef nonnull align 8 dereferenceable(8) %r)
          to label %invoke.cont35 unwind label %lpad34

invoke.cont35:                                    ; preds = %if.then33
  %cmp37 = icmp eq i32 %call36, 2
  br i1 %cmp37, label %if.then38, label %if.end43

if.then38:                                        ; preds = %invoke.cont35
  invoke void @_ZNK4cvc58internal12NodeTemplateILb0EE11getOperatorEv(ptr sret(%"class.cvc5::internal::NodeTemplate") align 8 %ref.tmp39, ptr noundef nonnull align 8 dereferenceable(8) %r)
          to label %invoke.cont40 unwind label %lpad34

invoke.cont40:                                    ; preds = %if.then38
  invoke void @_ZNSt6vectorIN4cvc58internal12NodeTemplateILb1EEESaIS3_EE9push_backEOS3_(ptr noundef nonnull align 8 dereferenceable(24) %children, ptr noundef nonnull align 8 dereferenceable(8) %ref.tmp39)
          to label %invoke.cont42 unwind label %lpad41

invoke.cont42:                                    ; preds = %invoke.cont40
  call void @_ZN4cvc58internal12NodeTemplateILb1EED2Ev(ptr noundef nonnull align 8 dereferenceable(8) %ref.tmp39) #3
  br label %if.end43

lpad30:                                           ; preds = %if.end186, %cond.end
  %6 = landingpad { ptr, i32 }
          cleanup
  %7 = extractvalue { ptr, i32 } %6, 0
  store ptr %7, ptr %exn.slot, align 8
  %8 = extractvalue { ptr, i32 } %6, 1
  store i32 %8, ptr %ehselector.slot, align 4
  br label %ehcleanup196

lpad34:                                           ; preds = %invoke.cont172, %invoke.cont168, %invoke.cont166, %for.end, %for.body, %if.end43, %if.then38, %if.then33
  %9 = landingpad { ptr, i32 }
          cleanup
  %10 = extractvalue { ptr, i32 } %9, 0
  store ptr %10, ptr %exn.slot, align 8
  %11 = extractvalue { ptr, i32 } %9, 1
  store i32 %11, ptr %ehselector.slot, align 4
  br label %ehcleanup185

lpad41:                                           ; preds = %invoke.cont40
  %12 = landingpad { ptr, i32 }
          cleanup
  %13 = extractvalue { ptr, i32 } %12, 0
  store ptr %13, ptr %exn.slot, align 8
  %14 = extractvalue { ptr, i32 } %12, 1
  store i32 %14, ptr %ehselector.slot, align 4
  call void @_ZN4cvc58internal12NodeTemplateILb1EED2Ev(ptr noundef nonnull align 8 dereferenceable(8) %ref.tmp39) #3
  br label %ehcleanup185

if.end43:                                         ; preds = %invoke.cont42, %invoke.cont35
  store i64 0, ptr %i, align 8
  %call45 = invoke noundef i64 @_ZNK4cvc58internal12NodeTemplateILb0EE14getNumChildrenEv(ptr noundef nonnull align 8 dereferenceable(8) %r)
          to label %invoke.cont44 unwind label %lpad34

invoke.cont44:                                    ; preds = %if.end43
  store i64 %call45, ptr %nchild, align 8
  br label %for.cond

for.cond:                                         ; preds = %for.inc, %invoke.cont44
  %15 = load i64, ptr %i, align 8
  %16 = load i64, ptr %nchild, align 8
  %cmp46 = icmp ult i64 %15, %16
  br i1 %cmp46, label %for.body, label %for.end

for.body:                                         ; preds = %for.cond
  %17 = load i64, ptr %i, align 8
  %conv = trunc i64 %17 to i32
  invoke void @_ZNK4cvc58internal12NodeTemplateILb0EEixEi(ptr sret(%"class.cvc5::internal::NodeTemplate.274") align 8 %ref.tmp47, ptr noundef nonnull align 8 dereferenceable(8) %r, i32 noundef %conv)
          to label %invoke.cont48 unwind label %lpad34

invoke.cont48:                                    ; preds = %for.body
  invoke void @_ZN4cvc58internal12NodeTemplateILb1EEC2ERKNS1_ILb0EEE(ptr noundef nonnull align 8 dereferenceable(8) %ri, ptr noundef nonnull align 8 dereferenceable(8) %ref.tmp47)
          to label %invoke.cont50 unwind label %lpad49

invoke.cont50:                                    ; preds = %invoke.cont48
  call void @_ZN4cvc58internal12NodeTemplateILb0EED2Ev(ptr noundef nonnull align 8 dereferenceable(8) %ref.tmp47) #3
  store i8 1, ptr %recurse, align 1
  %call53 = invoke noundef zeroext i1 @_ZNK4cvc58internal12NodeTemplateILb1EE7isConstEv(ptr noundef nonnull align 8 dereferenceable(8) %ri)
          to label %invoke.cont52 unwind label %lpad51

invoke.cont52:                                    ; preds = %invoke.cont50
  br i1 %call53, label %if.end162, label %if.then54

if.then54:                                        ; preds = %invoke.cont52
  %18 = load ptr, ptr %m.addr, align 8
  %d_equalityEngine = getelementptr inbounds %"class.cvc5::internal::theory::TheoryModel", ptr %18, i32 0, i32 2
  %19 = load ptr, ptr %d_equalityEngine, align 8
  invoke void @_ZN4cvc58internal12NodeTemplateILb0EEC2ERKNS1_ILb1EEE(ptr noundef nonnull align 8 dereferenceable(8) %agg.tmp, ptr noundef nonnull align 8 dereferenceable(8) %ri)
          to label %invoke.cont55 unwind label %lpad51

invoke.cont55:                                    ; preds = %if.then54
  %call58 = invoke noundef zeroext i1 @_ZNK4cvc58internal6theory2eq14EqualityEngine7hasTermENS0_12NodeTemplateILb0EEE(ptr noundef nonnull align 8 dereferenceable(1784) %19, ptr noundef %agg.tmp)
          to label %invoke.cont57 unwind label %lpad56

invoke.cont57:                                    ; preds = %invoke.cont55
  call void @_ZN4cvc58internal12NodeTemplateILb0EED2Ev(ptr noundef nonnull align 8 dereferenceable(8) %agg.tmp) #3
  br i1 %call58, label %if.then59, label %if.else127

if.then59:                                        ; preds = %invoke.cont57
  %d_constantReps61 = getelementptr inbounds %"class.cvc5::internal::theory::TheoryEngineModelBuilder", ptr %this1, i32 0, i32 2
  %20 = load ptr, ptr %m.addr, align 8
  %d_equalityEngine64 = getelementptr inbounds %"class.cvc5::internal::theory::TheoryModel", ptr %20, i32 0, i32 2
  %21 = load ptr, ptr %d_equalityEngine64, align 8
  invoke void @_ZN4cvc58internal12NodeTemplateILb0EEC2ERKNS1_ILb1EEE(ptr noundef nonnull align 8 dereferenceable(8) %agg.tmp65, ptr noundef nonnull align 8 dereferenceable(8) %ri)
          to label %invoke.cont66 unwind label %lpad51

invoke.cont66:                                    ; preds = %if.then59
  invoke void @_ZNK4cvc58internal6theory2eq14EqualityEngine17getRepresentativeENS0_12NodeTemplateILb0EEE(ptr sret(%"class.cvc5::internal::NodeTemplate.274") align 8 %ref.tmp63, ptr noundef nonnull align 8 dereferenceable(1784) %21, ptr noundef %agg.tmp65)
          to label %invoke.cont68 unwind label %lpad67

invoke.cont68:                                    ; preds = %invoke.cont66
  invoke void @_ZN4cvc58internal12NodeTemplateILb1EEC2ERKNS1_ILb0EEE(ptr noundef nonnull align 8 dereferenceable(8) %ref.tmp62, ptr noundef nonnull align 8 dereferenceable(8) %ref.tmp63)
          to label %invoke.cont70 unwind label %lpad69

invoke.cont70:                                    ; preds = %invoke.cont68
  %call73 = invoke ptr @_ZNSt3mapIN4cvc58internal12NodeTemplateILb1EEES3_St4lessIS3_ESaISt4pairIKS3_S3_EEE4findERS7_(ptr noundef nonnull align 8 dereferenceable(48) %d_constantReps61, ptr noundef nonnull align 8 dereferenceable(8) %ref.tmp62)
          to label %invoke.cont72 unwind label %lpad71

invoke.cont72:                                    ; preds = %invoke.cont70
  %coerce.dive74 = getelementptr inbounds %"struct.std::_Rb_tree_iterator", ptr %ref.tmp60, i32 0, i32 0
  store ptr %call73, ptr %coerce.dive74, align 8
  call void @llvm.memcpy.p0.p0.i64(ptr align 8 %itMap, ptr align 8 %ref.tmp60, i64 8, i1 false)
  call void @_ZN4cvc58internal12NodeTemplateILb1EED2Ev(ptr noundef nonnull align 8 dereferenceable(8) %ref.tmp62) #3
  call void @_ZN4cvc58internal12NodeTemplateILb0EED2Ev(ptr noundef nonnull align 8 dereferenceable(8) %ref.tmp63) #3
  call void @_ZN4cvc58internal12NodeTemplateILb0EED2Ev(ptr noundef nonnull align 8 dereferenceable(8) %agg.tmp65) #3
  %d_constantReps77 = getelementptr inbounds %"class.cvc5::internal::theory::TheoryEngineModelBuilder", ptr %this1, i32 0, i32 2
  %call78 = call ptr @_ZNSt3mapIN4cvc58internal12NodeTemplateILb1EEES3_St4lessIS3_ESaISt4pairIKS3_S3_EEE3endEv(ptr noundef nonnull align 8 dereferenceable(48) %d_constantReps77) #3
  %coerce.dive79 = getelementptr inbounds %"struct.std::_Rb_tree_iterator", ptr %ref.tmp76, i32 0, i32 0
  store ptr %call78, ptr %coerce.dive79, align 8
  %call80 = call noundef zeroext i1 @_ZStneRKSt17_Rb_tree_iteratorISt4pairIKN4cvc58internal12NodeTemplateILb1EEES4_EES9_(ptr noundef nonnull align 8 dereferenceable(8) %itMap, ptr noundef nonnull align 8 dereferenceable(8) %ref.tmp76) #3
  br i1 %call80, label %if.then81, label %if.else

if.then81:                                        ; preds = %invoke.cont72
  %call82 = call noundef nonnull align 8 dereferenceable(16) ptr @_ZNKSt17_Rb_tree_iteratorISt4pairIKN4cvc58internal12NodeTemplateILb1EEES4_EEdeEv(ptr noundef nonnull align 8 dereferenceable(8) %itMap) #3
  %second83 = getelementptr inbounds %"struct.std::pair", ptr %call82, i32 0, i32 1
  %call85 = invoke noundef nonnull align 8 dereferenceable(8) ptr @_ZN4cvc58internal12NodeTemplateILb1EEaSERKS2_(ptr noundef nonnull align 8 dereferenceable(8) %ri, ptr noundef nonnull align 8 dereferenceable(8) %second83)
          to label %invoke.cont84 unwind label %lpad51

invoke.cont84:                                    ; preds = %if.then81
  %call88 = invoke noundef zeroext i1 @_ZN4cvc58internal11__cvc5_truecvbEv(ptr noundef nonnull align 1 dereferenceable(1) %ref.tmp86)
          to label %invoke.cont87 unwind label %lpad51

invoke.cont87:                                    ; preds = %invoke.cont84
  br i1 %call88, label %cond.true89, label %cond.false92

cond.true89:                                      ; preds = %invoke.cont87
  invoke void @_ZNK4cvc58internal5NullCcvNS0_11Cvc5ostreamEEv(ptr sret(%"class.cvc5::internal::Cvc5ostream") align 8 %tmp90, ptr noundef nonnull align 1 dereferenceable(1) @_ZN4cvc58internal10nullStreamE)
          to label %invoke.cont91 unwind label %lpad51

invoke.cont91:                                    ; preds = %cond.true89
  br label %cond.end104

cond.false92:                                     ; preds = %invoke.cont87
  invoke void @_ZNK4cvc58internal6TraceCclEv(ptr sret(%"class.cvc5::internal::Cvc5ostream") align 8 %ref.tmp94, ptr noundef nonnull align 8 dereferenceable(32) @_ZN4cvc58internal12TraceChannelE)
          to label %invoke.cont95 unwind label %lpad51

invoke.cont95:                                    ; preds = %cond.false92
  %call97 = invoke noundef nonnull align 8 dereferenceable(24) ptr @_ZN4cvc58internal11Cvc5ostreamlsImEERS1_RKT_(ptr noundef nonnull align 8 dereferenceable(24) %ref.tmp94, ptr noundef nonnull align 8 dereferenceable(8) %i)
          to label %invoke.cont96 unwind label %lpad51

invoke.cont96:                                    ; preds = %invoke.cont95
  %call99 = invoke noundef nonnull align 8 dereferenceable(24) ptr @_ZN4cvc58internal11Cvc5ostreamlsIA15_cEERS1_RKT_(ptr noundef nonnull align 8 dereferenceable(24) %call97, ptr noundef nonnull align 1 dereferenceable(15) @.str.68)
          to label %invoke.cont98 unwind label %lpad51

invoke.cont98:                                    ; preds = %invoke.cont96
  %call101 = invoke noundef nonnull align 8 dereferenceable(24) ptr @_ZN4cvc58internal11Cvc5ostreamlsINS0_12NodeTemplateILb1EEEEERS1_RKT_(ptr noundef nonnull align 8 dereferenceable(24) %call99, ptr noundef nonnull align 8 dereferenceable(8) %ri)
          to label %invoke.cont100 unwind label %lpad51

invoke.cont100:                                   ; preds = %invoke.cont98
  %call103 = invoke noundef nonnull align 8 dereferenceable(24) ptr @_ZN4cvc58internal11Cvc5ostreamlsEPFRSoS2_E(ptr noundef nonnull align 8 dereferenceable(24) %call101, ptr noundef @_ZSt4endlIcSt11char_traitsIcEERSt13basic_ostreamIT_T0_ES6_)
          to label %invoke.cont102 unwind label %lpad51

invoke.cont102:                                   ; preds = %invoke.cont100
  call void @llvm.memcpy.p0.p0.i64(ptr align 8 %agg.tmp.ensured93, ptr align 8 %call103, i64 24, i1 false)
  br label %cond.end104

cond.end104:                                      ; preds = %invoke.cont102, %invoke.cont91
  store i8 0, ptr %recurse, align 1
  br label %if.end126

lpad49:                                           ; preds = %invoke.cont48
  %22 = landingpad { ptr, i32 }
          cleanup
  %23 = extractvalue { ptr, i32 } %22, 0
  store ptr %23, ptr %exn.slot, align 8
  %24 = extractvalue { ptr, i32 } %22, 1
  store i32 %24, ptr %ehselector.slot, align 4
  call void @_ZN4cvc58internal12NodeTemplateILb0EED2Ev(ptr noundef nonnull align 8 dereferenceable(8) %ref.tmp47) #3
  br label %ehcleanup185

lpad51:                                           ; preds = %if.end162, %if.then149, %invoke.cont142, %invoke.cont140, %invoke.cont138, %invoke.cont137, %cond.false134, %cond.true131, %if.else127, %invoke.cont120, %invoke.cont118, %invoke.cont116, %invoke.cont115, %cond.false112, %cond.true109, %if.then105, %invoke.cont100, %invoke.cont98, %invoke.cont96, %invoke.cont95, %cond.false92, %cond.true89, %invoke.cont84, %if.then81, %if.then59, %if.then54, %invoke.cont50
  %25 = landingpad { ptr, i32 }
          cleanup
  %26 = extractvalue { ptr, i32 } %25, 0
  store ptr %26, ptr %exn.slot, align 8
  %27 = extractvalue { ptr, i32 } %25, 1
  store i32 %27, ptr %ehselector.slot, align 4
  br label %ehcleanup164

lpad56:                                           ; preds = %invoke.cont55
  %28 = landingpad { ptr, i32 }
          cleanup
  %29 = extractvalue { ptr, i32 } %28, 0
  store ptr %29, ptr %exn.slot, align 8
  %30 = extractvalue { ptr, i32 } %28, 1
  store i32 %30, ptr %ehselector.slot, align 4
  call void @_ZN4cvc58internal12NodeTemplateILb0EED2Ev(ptr noundef nonnull align 8 dereferenceable(8) %agg.tmp) #3
  br label %ehcleanup164

lpad67:                                           ; preds = %invoke.cont66
  %31 = landingpad { ptr, i32 }
          cleanup
  %32 = extractvalue { ptr, i32 } %31, 0
  store ptr %32, ptr %exn.slot, align 8
  %33 = extractvalue { ptr, i32 } %31, 1
  store i32 %33, ptr %ehselector.slot, align 4
  br label %ehcleanup75

lpad69:                                           ; preds = %invoke.cont68
  %34 = landingpad { ptr, i32 }
          cleanup
  %35 = extractvalue { ptr, i32 } %34, 0
  store ptr %35, ptr %exn.slot, align 8
  %36 = extractvalue { ptr, i32 } %34, 1
  store i32 %36, ptr %ehselector.slot, align 4
  br label %ehcleanup

lpad71:                                           ; preds = %invoke.cont70
  %37 = landingpad { ptr, i32 }
          cleanup
  %38 = extractvalue { ptr, i32 } %37, 0
  store ptr %38, ptr %exn.slot, align 8
  %39 = extractvalue { ptr, i32 } %37, 1
  store i32 %39, ptr %ehselector.slot, align 4
  call void @_ZN4cvc58internal12NodeTemplateILb1EED2Ev(ptr noundef nonnull align 8 dereferenceable(8) %ref.tmp62) #3
  br label %ehcleanup

ehcleanup:                                        ; preds = %lpad71, %lpad69
  call void @_ZN4cvc58internal12NodeTemplateILb0EED2Ev(ptr noundef nonnull align 8 dereferenceable(8) %ref.tmp63) #3
  br label %ehcleanup75

ehcleanup75:                                      ; preds = %ehcleanup, %lpad67
  call void @_ZN4cvc58internal12NodeTemplateILb0EED2Ev(ptr noundef nonnull align 8 dereferenceable(8) %agg.tmp65) #3
  br label %ehcleanup164

if.else:                                          ; preds = %invoke.cont72
  %40 = load i8, ptr %evalOnly.addr, align 1
  %tobool = trunc i8 %40 to i1
  br i1 %tobool, label %if.end125, label %if.then105

if.then105:                                       ; preds = %if.else
  store i8 0, ptr %recurse, align 1
  %call108 = invoke noundef zeroext i1 @_ZN4cvc58internal11__cvc5_truecvbEv(ptr noundef nonnull align 1 dereferenceable(1) %ref.tmp106)
          to label %invoke.cont107 unwind label %lpad51

invoke.cont107:                                   ; preds = %if.then105
  br i1 %call108, label %cond.true109, label %cond.false112

cond.true109:                                     ; preds = %invoke.cont107
  invoke void @_ZNK4cvc58internal5NullCcvNS0_11Cvc5ostreamEEv(ptr sret(%"class.cvc5::internal::Cvc5ostream") align 8 %tmp110, ptr noundef nonnull align 1 dereferenceable(1) @_ZN4cvc58internal10nullStreamE)
          to label %invoke.cont111 unwind label %lpad51

invoke.cont111:                                   ; preds = %cond.true109
  br label %cond.end124

cond.false112:                                    ; preds = %invoke.cont107
  invoke void @_ZNK4cvc58internal6TraceCclEv(ptr sret(%"class.cvc5::internal::Cvc5ostream") align 8 %ref.tmp114, ptr noundef nonnull align 8 dereferenceable(32) @_ZN4cvc58internal12TraceChannelE)
          to label %invoke.cont115 unwind label %lpad51

invoke.cont115:                                   ; preds = %cond.false112
  %call117 = invoke noundef nonnull align 8 dereferenceable(24) ptr @_ZN4cvc58internal11Cvc5ostreamlsImEERS1_RKT_(ptr noundef nonnull align 8 dereferenceable(24) %ref.tmp114, ptr noundef nonnull align 8 dereferenceable(8) %i)
          to label %invoke.cont116 unwind label %lpad51

invoke.cont116:                                   ; preds = %invoke.cont115
  %call119 = invoke noundef nonnull align 8 dereferenceable(24) ptr @_ZN4cvc58internal11Cvc5ostreamlsIA8_cEERS1_RKT_(ptr noundef nonnull align 8 dereferenceable(24) %call117, ptr noundef nonnull align 1 dereferenceable(8) @.str.69)
          to label %invoke.cont118 unwind label %lpad51

invoke.cont118:                                   ; preds = %invoke.cont116
  %call121 = invoke noundef nonnull align 8 dereferenceable(24) ptr @_ZN4cvc58internal11Cvc5ostreamlsINS0_12NodeTemplateILb1EEEEERS1_RKT_(ptr noundef nonnull align 8 dereferenceable(24) %call119, ptr noundef nonnull align 8 dereferenceable(8) %ri)
          to label %invoke.cont120 unwind label %lpad51

invoke.cont120:                                   ; preds = %invoke.cont118
  %call123 = invoke noundef nonnull align 8 dereferenceable(24) ptr @_ZN4cvc58internal11Cvc5ostreamlsEPFRSoS2_E(ptr noundef nonnull align 8 dereferenceable(24) %call121, ptr noundef @_ZSt4endlIcSt11char_traitsIcEERSt13basic_ostreamIT_T0_ES6_)
          to label %invoke.cont122 unwind label %lpad51

invoke.cont122:                                   ; preds = %invoke.cont120
  call void @llvm.memcpy.p0.p0.i64(ptr align 8 %agg.tmp.ensured113, ptr align 8 %call123, i64 24, i1 false)
  br label %cond.end124

cond.end124:                                      ; preds = %invoke.cont122, %invoke.cont111
  br label %if.end125

if.end125:                                        ; preds = %cond.end124, %if.else
  br label %if.end126

if.end126:                                        ; preds = %if.end125, %cond.end104
  br label %if.end147

if.else127:                                       ; preds = %invoke.cont57
  %call130 = invoke noundef zeroext i1 @_ZN4cvc58internal11__cvc5_truecvbEv(ptr noundef nonnull align 1 dereferenceable(1) %ref.tmp128)
          to label %invoke.cont129 unwind label %lpad51

invoke.cont129:                                   ; preds = %if.else127
  br i1 %call130, label %cond.true131, label %cond.false134

cond.true131:                                     ; preds = %invoke.cont129
  invoke void @_ZNK4cvc58internal5NullCcvNS0_11Cvc5ostreamEEv(ptr sret(%"class.cvc5::internal::Cvc5ostream") align 8 %tmp132, ptr noundef nonnull align 1 dereferenceable(1) @_ZN4cvc58internal10nullStreamE)
          to label %invoke.cont133 unwind label %lpad51

invoke.cont133:                                   ; preds = %cond.true131
  br label %cond.end146

cond.false134:                                    ; preds = %invoke.cont129
  invoke void @_ZNK4cvc58internal6TraceCclEv(ptr sret(%"class.cvc5::internal::Cvc5ostream") align 8 %ref.tmp136, ptr noundef nonnull align 8 dereferenceable(32) @_ZN4cvc58internal12TraceChannelE)
          to label %invoke.cont137 unwind label %lpad51

invoke.cont137:                                   ; preds = %cond.false134
  %call139 = invoke noundef nonnull align 8 dereferenceable(24) ptr @_ZN4cvc58internal11Cvc5ostreamlsImEERS1_RKT_(ptr noundef nonnull align 8 dereferenceable(24) %ref.tmp136, ptr noundef nonnull align 8 dereferenceable(8) %i)
          to label %invoke.cont138 unwind label %lpad51

invoke.cont138:                                   ; preds = %invoke.cont137
  %call141 = invoke noundef nonnull align 8 dereferenceable(24) ptr @_ZN4cvc58internal11Cvc5ostreamlsIA14_cEERS1_RKT_(ptr noundef nonnull align 8 dereferenceable(24) %call139, ptr noundef nonnull align 1 dereferenceable(14) @.str.70)
          to label %invoke.cont140 unwind label %lpad51

invoke.cont140:                                   ; preds = %invoke.cont138
  %call143 = invoke noundef nonnull align 8 dereferenceable(24) ptr @_ZN4cvc58internal11Cvc5ostreamlsINS0_12NodeTemplateILb1EEEEERS1_RKT_(ptr noundef nonnull align 8 dereferenceable(24) %call141, ptr noundef nonnull align 8 dereferenceable(8) %ri)
          to label %invoke.cont142 unwind label %lpad51

invoke.cont142:                                   ; preds = %invoke.cont140
  %call145 = invoke noundef nonnull align 8 dereferenceable(24) ptr @_ZN4cvc58internal11Cvc5ostreamlsEPFRSoS2_E(ptr noundef nonnull align 8 dereferenceable(24) %call143, ptr noundef @_ZSt4endlIcSt11char_traitsIcEERSt13basic_ostreamIT_T0_ES6_)
          to label %invoke.cont144 unwind label %lpad51

invoke.cont144:                                   ; preds = %invoke.cont142
  call void @llvm.memcpy.p0.p0.i64(ptr align 8 %agg.tmp.ensured135, ptr align 8 %call145, i64 24, i1 false)
  br label %cond.end146

cond.end146:                                      ; preds = %invoke.cont144, %invoke.cont133
  br label %if.end147

if.end147:                                        ; preds = %cond.end146, %if.end126
  %41 = load i8, ptr %recurse, align 1
  %tobool148 = trunc i8 %41 to i1
  br i1 %tobool148, label %if.then149, label %if.end161

if.then149:                                       ; preds = %if.end147
  %42 = load ptr, ptr %m.addr, align 8
  invoke void @_ZN4cvc58internal12NodeTemplateILb0EEC2ERKNS1_ILb1EEE(ptr noundef nonnull align 8 dereferenceable(8) %agg.tmp151, ptr noundef nonnull align 8 dereferenceable(8) %ri)
          to label %invoke.cont152 unwind label %lpad51

invoke.cont152:                                   ; preds = %if.then149
  %43 = load i8, ptr %evalOnly.addr, align 1
  %tobool153 = trunc i8 %43 to i1
  invoke void @_ZN4cvc58internal6theory24TheoryEngineModelBuilder9normalizeEPNS1_11TheoryModelENS0_12NodeTemplateILb0EEEb(ptr sret(%"class.cvc5::internal::NodeTemplate") align 8 %ref.tmp150, ptr noundef nonnull align 8 dereferenceable(120) %this1, ptr noundef %42, ptr noundef %agg.tmp151, i1 noundef zeroext %tobool153)
          to label %invoke.cont155 unwind label %lpad154

invoke.cont155:                                   ; preds = %invoke.cont152
  %call158 = invoke noundef nonnull align 8 dereferenceable(8) ptr @_ZN4cvc58internal12NodeTemplateILb1EEaSERKS2_(ptr noundef nonnull align 8 dereferenceable(8) %ri, ptr noundef nonnull align 8 dereferenceable(8) %ref.tmp150)
          to label %invoke.cont157 unwind label %lpad156

invoke.cont157:                                   ; preds = %invoke.cont155
  call void @_ZN4cvc58internal12NodeTemplateILb1EED2Ev(ptr noundef nonnull align 8 dereferenceable(8) %ref.tmp150) #3
  call void @_ZN4cvc58internal12NodeTemplateILb0EED2Ev(ptr noundef nonnull align 8 dereferenceable(8) %agg.tmp151) #3
  br label %if.end161

lpad154:                                          ; preds = %invoke.cont152
  %44 = landingpad { ptr, i32 }
          cleanup
  %45 = extractvalue { ptr, i32 } %44, 0
  store ptr %45, ptr %exn.slot, align 8
  %46 = extractvalue { ptr, i32 } %44, 1
  store i32 %46, ptr %ehselector.slot, align 4
  br label %ehcleanup160

lpad156:                                          ; preds = %invoke.cont155
  %47 = landingpad { ptr, i32 }
          cleanup
  %48 = extractvalue { ptr, i32 } %47, 0
  store ptr %48, ptr %exn.slot, align 8
  %49 = extractvalue { ptr, i32 } %47, 1
  store i32 %49, ptr %ehselector.slot, align 4
  call void @_ZN4cvc58internal12NodeTemplateILb1EED2Ev(ptr noundef nonnull align 8 dereferenceable(8) %ref.tmp150) #3
  br label %ehcleanup160

ehcleanup160:                                     ; preds = %lpad156, %lpad154
  call void @_ZN4cvc58internal12NodeTemplateILb0EED2Ev(ptr noundef nonnull align 8 dereferenceable(8) %agg.tmp151) #3
  br label %ehcleanup164

if.end161:                                        ; preds = %invoke.cont157, %if.end147
  br label %if.end162

if.end162:                                        ; preds = %if.end161, %invoke.cont52
  invoke void @_ZNSt6vectorIN4cvc58internal12NodeTemplateILb1EEESaIS3_EE9push_backERKS3_(ptr noundef nonnull align 8 dereferenceable(24) %children, ptr noundef nonnull align 8 dereferenceable(8) %ri)
          to label %invoke.cont163 unwind label %lpad51

invoke.cont163:                                   ; preds = %if.end162
  call void @_ZN4cvc58internal12NodeTemplateILb1EED2Ev(ptr noundef nonnull align 8 dereferenceable(8) %ri) #3
  br label %for.inc

for.inc:                                          ; preds = %invoke.cont163
  %50 = load i64, ptr %i, align 8
  %inc = add i64 %50, 1
  store i64 %inc, ptr %i, align 8
  br label %for.cond, !llvm.loop !10

ehcleanup164:                                     ; preds = %ehcleanup160, %ehcleanup75, %lpad56, %lpad51
  call void @_ZN4cvc58internal12NodeTemplateILb1EED2Ev(ptr noundef nonnull align 8 dereferenceable(8) %ri) #3
  br label %ehcleanup185

for.end:                                          ; preds = %for.cond
  %call167 = invoke noundef ptr @_ZN4cvc58internal11NodeManager9currentNMEv()
          to label %invoke.cont166 unwind label %lpad34

invoke.cont166:                                   ; preds = %for.end
  %call169 = invoke noundef i32 @_ZNK4cvc58internal12NodeTemplateILb0EE7getKindEv(ptr noundef nonnull align 8 dereferenceable(8) %r)
          to label %invoke.cont168 unwind label %lpad34

invoke.cont168:                                   ; preds = %invoke.cont166
  invoke void @_ZN4cvc58internal11NodeManager6mkNodeILb1EEENS0_12NodeTemplateILb1EEENS0_4kind6Kind_tERKSt6vectorINS3_IXT_EEESaIS8_EE(ptr sret(%"class.cvc5::internal::NodeTemplate") align 8 %ref.tmp165, ptr noundef nonnull align 8 dereferenceable(3360) %call167, i32 noundef %call169, ptr noundef nonnull align 8 dereferenceable(24) %children)
          to label %invoke.cont170 unwind label %lpad34

invoke.cont170:                                   ; preds = %invoke.cont168
  %call173 = invoke noundef nonnull align 8 dereferenceable(8) ptr @_ZN4cvc58internal12NodeTemplateILb1EEaSERKS2_(ptr noundef nonnull align 8 dereferenceable(8) %agg.result, ptr noundef nonnull align 8 dereferenceable(8) %ref.tmp165)
          to label %invoke.cont172 unwind label %lpad171

invoke.cont172:                                   ; preds = %invoke.cont170
  call void @_ZN4cvc58internal12NodeTemplateILb1EED2Ev(ptr noundef nonnull align 8 dereferenceable(8) %ref.tmp165) #3
  invoke void @_ZN4cvc58internal12NodeTemplateILb0EEC2ERKNS1_ILb1EEE(ptr noundef nonnull align 8 dereferenceable(8) %agg.tmp176, ptr noundef nonnull align 8 dereferenceable(8) %agg.result)
          to label %invoke.cont177 unwind label %lpad34

invoke.cont177:                                   ; preds = %invoke.cont172
  invoke void @_ZNK4cvc58internal6EnvObj7rewriteENS0_12NodeTemplateILb0EEE(ptr sret(%"class.cvc5::internal::NodeTemplate") align 8 %ref.tmp175, ptr noundef nonnull align 8 dereferenceable(16) %this1, ptr noundef %agg.tmp176)
          to label %invoke.cont179 unwind label %lpad178

invoke.cont179:                                   ; preds = %invoke.cont177
  %call182 = invoke noundef nonnull align 8 dereferenceable(8) ptr @_ZN4cvc58internal12NodeTemplateILb1EEaSERKS2_(ptr noundef nonnull align 8 dereferenceable(8) %agg.result, ptr noundef nonnull align 8 dereferenceable(8) %ref.tmp175)
          to label %invoke.cont181 unwind label %lpad180

invoke.cont181:                                   ; preds = %invoke.cont179
  call void @_ZN4cvc58internal12NodeTemplateILb1EED2Ev(ptr noundef nonnull align 8 dereferenceable(8) %ref.tmp175) #3
  call void @_ZN4cvc58internal12NodeTemplateILb0EED2Ev(ptr noundef nonnull align 8 dereferenceable(8) %agg.tmp176) #3
  call void @_ZNSt6vectorIN4cvc58internal12NodeTemplateILb1EEESaIS3_EED2Ev(ptr noundef nonnull align 8 dereferenceable(24) %children) #3
  br label %if.end186

lpad171:                                          ; preds = %invoke.cont170
  %51 = landingpad { ptr, i32 }
          cleanup
  %52 = extractvalue { ptr, i32 } %51, 0
  store ptr %52, ptr %exn.slot, align 8
  %53 = extractvalue { ptr, i32 } %51, 1
  store i32 %53, ptr %ehselector.slot, align 4
  call void @_ZN4cvc58internal12NodeTemplateILb1EED2Ev(ptr noundef nonnull align 8 dereferenceable(8) %ref.tmp165) #3
  br label %ehcleanup185

lpad178:                                          ; preds = %invoke.cont177
  %54 = landingpad { ptr, i32 }
          cleanup
  %55 = extractvalue { ptr, i32 } %54, 0
  store ptr %55, ptr %exn.slot, align 8
  %56 = extractvalue { ptr, i32 } %54, 1
  store i32 %56, ptr %ehselector.slot, align 4
  br label %ehcleanup184

lpad180:                                          ; preds = %invoke.cont179
  %57 = landingpad { ptr, i32 }
          cleanup
  %58 = extractvalue { ptr, i32 } %57, 0
  store ptr %58, ptr %exn.slot, align 8
  %59 = extractvalue { ptr, i32 } %57, 1
  store i32 %59, ptr %ehselector.slot, align 4
  call void @_ZN4cvc58internal12NodeTemplateILb1EED2Ev(ptr noundef nonnull align 8 dereferenceable(8) %ref.tmp175) #3
  br label %ehcleanup184

ehcleanup184:                                     ; preds = %lpad180, %lpad178
  call void @_ZN4cvc58internal12NodeTemplateILb0EED2Ev(ptr noundef nonnull align 8 dereferenceable(8) %agg.tmp176) #3
  br label %ehcleanup185

ehcleanup185:                                     ; preds = %ehcleanup184, %lpad171, %ehcleanup164, %lpad49, %lpad41, %lpad34
  call void @_ZNSt6vectorIN4cvc58internal12NodeTemplateILb1EEESaIS3_EED2Ev(ptr noundef nonnull align 8 dereferenceable(24) %children) #3
  br label %ehcleanup196

if.end186:                                        ; preds = %invoke.cont181, %invoke.cont31
  %d_normalizedCache187 = getelementptr inbounds %"class.cvc5::internal::theory::TheoryEngineModelBuilder", ptr %this1, i32 0, i32 1
  invoke void @_ZN4cvc58internal12NodeTemplateILb1EEC2ERKNS1_ILb0EEE(ptr noundef nonnull align 8 dereferenceable(8) %ref.tmp188, ptr noundef nonnull align 8 dereferenceable(8) %r)
          to label %invoke.cont189 unwind label %lpad30

invoke.cont189:                                   ; preds = %if.end186
  %call192 = invoke noundef nonnull align 8 dereferenceable(8) ptr @_ZNSt13unordered_mapIN4cvc58internal12NodeTemplateILb1EEES3_St4hashIS3_ESt8equal_toIS3_ESaISt4pairIKS3_S3_EEEixEOS3_(ptr noundef nonnull align 8 dereferenceable(56) %d_normalizedCache187, ptr noundef nonnull align 8 dereferenceable(8) %ref.tmp188)
          to label %invoke.cont191 unwind label %lpad190

invoke.cont191:                                   ; preds = %invoke.cont189
  %call194 = invoke noundef nonnull align 8 dereferenceable(8) ptr @_ZN4cvc58internal12NodeTemplateILb1EEaSERKS2_(ptr noundef nonnull align 8 dereferenceable(8) %call192, ptr noundef nonnull align 8 dereferenceable(8) %agg.result)
          to label %invoke.cont193 unwind label %lpad190

invoke.cont193:                                   ; preds = %invoke.cont191
  call void @_ZN4cvc58internal12NodeTemplateILb1EED2Ev(ptr noundef nonnull align 8 dereferenceable(8) %ref.tmp188) #3
  store i1 true, ptr %nrvo, align 1
  %nrvo.val = load i1, ptr %nrvo, align 1
  br i1 %nrvo.val, label %nrvo.skipdtor, label %nrvo.unused

lpad190:                                          ; preds = %invoke.cont191, %invoke.cont189
  %60 = landingpad { ptr, i32 }
          cleanup
  %61 = extractvalue { ptr, i32 } %60, 0
  store ptr %61, ptr %exn.slot, align 8
  %62 = extractvalue { ptr, i32 } %60, 1
  store i32 %62, ptr %ehselector.slot, align 4
  call void @_ZN4cvc58internal12NodeTemplateILb1EED2Ev(ptr noundef nonnull align 8 dereferenceable(8) %ref.tmp188) #3
  br label %ehcleanup196

nrvo.unused:                                      ; preds = %invoke.cont193
  call void @_ZN4cvc58internal12NodeTemplateILb1EED2Ev(ptr noundef nonnull align 8 dereferenceable(8) %agg.result) #3
  br label %nrvo.skipdtor

nrvo.skipdtor:                                    ; preds = %nrvo.unused, %invoke.cont193
  br label %return

ehcleanup196:                                     ; preds = %lpad190, %ehcleanup185, %lpad30
  call void @_ZN4cvc58internal12NodeTemplateILb1EED2Ev(ptr noundef nonnull align 8 dereferenceable(8) %agg.result) #3
  br label %eh.resume

return:                                           ; preds = %nrvo.skipdtor, %if.then20, %if.then
  ret void

eh.resume:                                        ; preds = %ehcleanup196, %lpad9, %lpad
  %exn = load ptr, ptr %exn.slot, align 8
  %sel = load i32, ptr %ehselector.slot, align 4
  %lpad.val = insertvalue { ptr, i32 } poison, ptr %exn, 0
  %lpad.val197 = insertvalue { ptr, i32 } %lpad.val, i32 %sel, 1
  resume { ptr, i32 } %lpad.val197
}

; Function Attrs: mustprogress uwtable
define linkonce_odr hidden noundef nonnull align 8 dereferenceable(24) ptr @_ZN4cvc58internal11Cvc5ostreamlsIA11_cEERS1_RKT_(ptr noundef nonnull align 8 dereferenceable(24) %this, ptr noundef nonnull align 1 dereferenceable(11) %t) #4 comdat align 2 {
entry:
  %this.addr = alloca ptr, align 8
  %t.addr = alloca ptr, align 8
  %indent = alloca i64, align 8
  %i = alloca i64, align 8
  store ptr %this, ptr %this.addr, align 8
  store ptr %t, ptr %t.addr, align 8
  %this1 = load ptr, ptr %this.addr, align 8
  %d_os = getelementptr inbounds %"class.cvc5::internal::Cvc5ostream", ptr %this1, i32 0, i32 0
  %0 = load ptr, ptr %d_os, align 8
  %cmp = icmp ne ptr %0, null
  br i1 %cmp, label %if.then, label %if.end11

if.then:                                          ; preds = %entry
  %d_firstColumn = getelementptr inbounds %"class.cvc5::internal::Cvc5ostream", ptr %this1, i32 0, i32 1
  %1 = load i8, ptr %d_firstColumn, align 8
  %tobool = trunc i8 %1 to i1
  br i1 %tobool, label %if.then2, label %if.end

if.then2:                                         ; preds = %if.then
  %d_firstColumn3 = getelementptr inbounds %"class.cvc5::internal::Cvc5ostream", ptr %this1, i32 0, i32 1
  store i8 0, ptr %d_firstColumn3, align 8
  %d_os4 = getelementptr inbounds %"class.cvc5::internal::Cvc5ostream", ptr %this1, i32 0, i32 0
  %2 = load ptr, ptr %d_os4, align 8
  %vtable = load ptr, ptr %2, align 8
  %vbase.offset.ptr = getelementptr i8, ptr %vtable, i64 -24
  %vbase.offset = load i64, ptr %vbase.offset.ptr, align 8
  %add.ptr = getelementptr inbounds i8, ptr %2, i64 %vbase.offset
  %3 = load i32, ptr @_ZN4cvc58internal11Cvc5ostream16s_indentIosIndexE, align 4
  %call = call noundef nonnull align 8 dereferenceable(8) ptr @_ZNSt8ios_base5iwordEi(ptr noundef nonnull align 8 dereferenceable(216) %add.ptr, i32 noundef %3)
  %4 = load i64, ptr %call, align 8
  store i64 %4, ptr %indent, align 8
  store i64 0, ptr %i, align 8
  br label %for.cond

for.cond:                                         ; preds = %for.inc, %if.then2
  %5 = load i64, ptr %i, align 8
  %6 = load i64, ptr %indent, align 8
  %cmp5 = icmp slt i64 %5, %6
  br i1 %cmp5, label %for.body, label %for.end

for.body:                                         ; preds = %for.cond
  %d_os6 = getelementptr inbounds %"class.cvc5::internal::Cvc5ostream", ptr %this1, i32 0, i32 0
  %7 = load ptr, ptr %d_os6, align 8
  %call7 = call noundef nonnull align 8 dereferenceable(8) ptr @_ZStlsIcSt11char_traitsIcESaIcEERSt13basic_ostreamIT_T0_ES7_RKNSt7__cxx1112basic_stringIS4_S5_T1_EE(ptr noundef nonnull align 8 dereferenceable(8) %7, ptr noundef nonnull align 8 dereferenceable(32) @_ZN4cvc58internal11Cvc5ostream5s_tabB5cxx11E)
  %d_os8 = getelementptr inbounds %"class.cvc5::internal::Cvc5ostream", ptr %this1, i32 0, i32 0
  store ptr %call7, ptr %d_os8, align 8
  br label %for.inc

for.inc:                                          ; preds = %for.body
  %8 = load i64, ptr %i, align 8
  %inc = add nsw i64 %8, 1
  store i64 %inc, ptr %i, align 8
  br label %for.cond, !llvm.loop !11

for.end:                                          ; preds = %for.cond
  br label %if.end

if.end:                                           ; preds = %for.end, %if.then
  %d_os9 = getelementptr inbounds %"class.cvc5::internal::Cvc5ostream", ptr %this1, i32 0, i32 0
  %9 = load ptr, ptr %d_os9, align 8
  %10 = load ptr, ptr %t.addr, align 8
  %arraydecay = getelementptr inbounds [11 x i8], ptr %10, i64 0, i64 0
  %call10 = call noundef nonnull align 8 dereferenceable(8) ptr @_ZStlsISt11char_traitsIcEERSt13basic_ostreamIcT_ES5_PKc(ptr noundef nonnull align 8 dereferenceable(8) %9, ptr noundef %arraydecay)
  br label %if.end11

if.end11:                                         ; preds = %if.end, %entry
  ret ptr %this1
}

; Function Attrs: mustprogress uwtable
define linkonce_odr hidden noundef nonnull align 8 dereferenceable(24) ptr @_ZN4cvc58internal11Cvc5ostreamlsIbEERS1_RKT_(ptr noundef nonnull align 8 dereferenceable(24) %this, ptr noundef nonnull align 1 dereferenceable(1) %t) #4 comdat align 2 {
entry:
  %this.addr = alloca ptr, align 8
  %t.addr = alloca ptr, align 8
  %indent = alloca i64, align 8
  %i = alloca i64, align 8
  store ptr %this, ptr %this.addr, align 8
  store ptr %t, ptr %t.addr, align 8
  %this1 = load ptr, ptr %this.addr, align 8
  %d_os = getelementptr inbounds %"class.cvc5::internal::Cvc5ostream", ptr %this1, i32 0, i32 0
  %0 = load ptr, ptr %d_os, align 8
  %cmp = icmp ne ptr %0, null
  br i1 %cmp, label %if.then, label %if.end12

if.then:                                          ; preds = %entry
  %d_firstColumn = getelementptr inbounds %"class.cvc5::internal::Cvc5ostream", ptr %this1, i32 0, i32 1
  %1 = load i8, ptr %d_firstColumn, align 8
  %tobool = trunc i8 %1 to i1
  br i1 %tobool, label %if.then2, label %if.end

if.then2:                                         ; preds = %if.then
  %d_firstColumn3 = getelementptr inbounds %"class.cvc5::internal::Cvc5ostream", ptr %this1, i32 0, i32 1
  store i8 0, ptr %d_firstColumn3, align 8
  %d_os4 = getelementptr inbounds %"class.cvc5::internal::Cvc5ostream", ptr %this1, i32 0, i32 0
  %2 = load ptr, ptr %d_os4, align 8
  %vtable = load ptr, ptr %2, align 8
  %vbase.offset.ptr = getelementptr i8, ptr %vtable, i64 -24
  %vbase.offset = load i64, ptr %vbase.offset.ptr, align 8
  %add.ptr = getelementptr inbounds i8, ptr %2, i64 %vbase.offset
  %3 = load i32, ptr @_ZN4cvc58internal11Cvc5ostream16s_indentIosIndexE, align 4
  %call = call noundef nonnull align 8 dereferenceable(8) ptr @_ZNSt8ios_base5iwordEi(ptr noundef nonnull align 8 dereferenceable(216) %add.ptr, i32 noundef %3)
  %4 = load i64, ptr %call, align 8
  store i64 %4, ptr %indent, align 8
  store i64 0, ptr %i, align 8
  br label %for.cond

for.cond:                                         ; preds = %for.inc, %if.then2
  %5 = load i64, ptr %i, align 8
  %6 = load i64, ptr %indent, align 8
  %cmp5 = icmp slt i64 %5, %6
  br i1 %cmp5, label %for.body, label %for.end

for.body:                                         ; preds = %for.cond
  %d_os6 = getelementptr inbounds %"class.cvc5::internal::Cvc5ostream", ptr %this1, i32 0, i32 0
  %7 = load ptr, ptr %d_os6, align 8
  %call7 = call noundef nonnull align 8 dereferenceable(8) ptr @_ZStlsIcSt11char_traitsIcESaIcEERSt13basic_ostreamIT_T0_ES7_RKNSt7__cxx1112basic_stringIS4_S5_T1_EE(ptr noundef nonnull align 8 dereferenceable(8) %7, ptr noundef nonnull align 8 dereferenceable(32) @_ZN4cvc58internal11Cvc5ostream5s_tabB5cxx11E)
  %d_os8 = getelementptr inbounds %"class.cvc5::internal::Cvc5ostream", ptr %this1, i32 0, i32 0
  store ptr %call7, ptr %d_os8, align 8
  br label %for.inc

for.inc:                                          ; preds = %for.body
  %8 = load i64, ptr %i, align 8
  %inc = add nsw i64 %8, 1
  store i64 %inc, ptr %i, align 8
  br label %for.cond, !llvm.loop !12

for.end:                                          ; preds = %for.cond
  br label %if.end

if.end:                                           ; preds = %for.end, %if.then
  %d_os9 = getelementptr inbounds %"class.cvc5::internal::Cvc5ostream", ptr %this1, i32 0, i32 0
  %9 = load ptr, ptr %d_os9, align 8
  %10 = load ptr, ptr %t.addr, align 8
  %11 = load i8, ptr %10, align 1
  %tobool10 = trunc i8 %11 to i1
  %call11 = call noundef nonnull align 8 dereferenceable(8) ptr @_ZNSolsEb(ptr noundef nonnull align 8 dereferenceable(8) %9, i1 noundef zeroext %tobool10)
  br label %if.end12

if.end12:                                         ; preds = %if.end, %entry
  ret ptr %this1
}

declare noundef zeroext i1 @_ZNK4cvc58internal6theory11TheoryModel7isValueENS0_12NodeTemplateILb0EEE(ptr noundef nonnull align 8 dereferenceable(904), ptr noundef) #1

declare noundef nonnull align 8 dereferenceable(16) ptr @_ZN4cvc58internal6theory2eq15EqClassIteratorppEv(ptr noundef nonnull align 8 dereferenceable(16)) #1

; Function Attrs: mustprogress uwtable
define hidden noundef zeroext i1 @_ZN4cvc58internal6theory24TheoryEngineModelBuilder16isAssignerActiveEPNS1_11TheoryModelERNS2_8AssignerE(ptr noundef nonnull align 8 dereferenceable(120) %this, ptr noundef %tm, ptr noundef nonnull align 8 dereferenceable(33) %a) #4 align 2 personality ptr @__gxx_personality_v0 {
entry:
  %retval = alloca i1, align 1
  %this.addr = alloca ptr, align 8
  %tm.addr = alloca ptr, align 8
  %a.addr = alloca ptr, align 8
  %eset = alloca ptr, align 8
  %it = alloca %"struct.std::_Rb_tree_iterator", align 8
  %i = alloca i32, align 4
  %size = alloca i32, align 4
  %er = alloca %"class.cvc5::internal::NodeTemplate", align 8
  %agg.tmp = alloca %"class.cvc5::internal::NodeTemplate.274", align 8
  %exn.slot = alloca ptr, align 8
  %ehselector.slot = alloca i32, align 4
  %cleanup.dest.slot = alloca i32, align 4
  %ref.tmp = alloca %"struct.std::_Rb_tree_iterator", align 8
  %ref.tmp11 = alloca %"struct.std::_Rb_tree_iterator", align 8
  %ref.tmp17 = alloca %"class.cvc5::internal::__cvc5_true", align 1
  %tmp = alloca %"class.cvc5::internal::Cvc5ostream", align 8
  %agg.tmp.ensured = alloca %"class.cvc5::internal::Cvc5ostream", align 8
  %ref.tmp21 = alloca %"class.cvc5::internal::Cvc5ostream", align 8
  %ref.tmp35 = alloca %"class.cvc5::internal::__cvc5_true", align 1
  %tmp38 = alloca %"class.cvc5::internal::Cvc5ostream", align 8
  %agg.tmp.ensured40 = alloca %"class.cvc5::internal::Cvc5ostream", align 8
  %ref.tmp41 = alloca %"class.cvc5::internal::Cvc5ostream", align 8
  store ptr %this, ptr %this.addr, align 8
  store ptr %tm, ptr %tm.addr, align 8
  store ptr %a, ptr %a.addr, align 8
  %this1 = load ptr, ptr %this.addr, align 8
  %0 = load ptr, ptr %a.addr, align 8
  %d_isActive = getelementptr inbounds %"class.cvc5::internal::theory::TheoryEngineModelBuilder::Assigner", ptr %0, i32 0, i32 2
  %1 = load i8, ptr %d_isActive, align 8
  %tobool = trunc i8 %1 to i1
  br i1 %tobool, label %if.then, label %if.end

if.then:                                          ; preds = %entry
  store i1 true, ptr %retval, align 1
  br label %return

if.end:                                           ; preds = %entry
  %2 = load ptr, ptr %a.addr, align 8
  %d_assignExcSet = getelementptr inbounds %"class.cvc5::internal::theory::TheoryEngineModelBuilder::Assigner", ptr %2, i32 0, i32 1
  store ptr %d_assignExcSet, ptr %eset, align 8
  call void @_ZNSt17_Rb_tree_iteratorISt4pairIKN4cvc58internal12NodeTemplateILb1EEES4_EEC2Ev(ptr noundef nonnull align 8 dereferenceable(8) %it) #3
  store i32 0, ptr %i, align 4
  %3 = load ptr, ptr %eset, align 8
  %call = call noundef i64 @_ZNKSt6vectorIN4cvc58internal12NodeTemplateILb1EEESaIS3_EE4sizeEv(ptr noundef nonnull align 8 dereferenceable(24) %3) #3
  %conv = trunc i64 %call to i32
  store i32 %conv, ptr %size, align 4
  br label %for.cond

for.cond:                                         ; preds = %for.inc, %if.end
  %4 = load i32, ptr %i, align 4
  %5 = load i32, ptr %size, align 4
  %cmp = icmp ult i32 %4, %5
  br i1 %cmp, label %for.body, label %for.end

for.body:                                         ; preds = %for.cond
  %6 = load ptr, ptr %eset, align 8
  %7 = load i32, ptr %i, align 4
  %conv2 = zext i32 %7 to i64
  %call3 = call noundef nonnull align 8 dereferenceable(8) ptr @_ZNSt6vectorIN4cvc58internal12NodeTemplateILb1EEESaIS3_EEixEm(ptr noundef nonnull align 8 dereferenceable(24) %6, i64 noundef %conv2) #3
  call void @_ZN4cvc58internal12NodeTemplateILb1EEC2ERKS2_(ptr noundef nonnull align 8 dereferenceable(8) %er, ptr noundef nonnull align 8 dereferenceable(8) %call3)
  %8 = load ptr, ptr %tm.addr, align 8
  invoke void @_ZN4cvc58internal12NodeTemplateILb0EEC2ERKNS1_ILb1EEE(ptr noundef nonnull align 8 dereferenceable(8) %agg.tmp, ptr noundef nonnull align 8 dereferenceable(8) %er)
          to label %invoke.cont unwind label %lpad

invoke.cont:                                      ; preds = %for.body
  %call6 = invoke noundef zeroext i1 @_ZNK4cvc58internal6theory11TheoryModel7isValueENS0_12NodeTemplateILb0EEE(ptr noundef nonnull align 8 dereferenceable(904) %8, ptr noundef %agg.tmp)
          to label %invoke.cont5 unwind label %lpad4

invoke.cont5:                                     ; preds = %invoke.cont
  call void @_ZN4cvc58internal12NodeTemplateILb0EED2Ev(ptr noundef nonnull align 8 dereferenceable(8) %agg.tmp) #3
  br i1 %call6, label %if.then7, label %if.end8

if.then7:                                         ; preds = %invoke.cont5
  store i32 4, ptr %cleanup.dest.slot, align 4
  br label %cleanup

lpad:                                             ; preds = %if.end29, %invoke.cont25, %invoke.cont23, %invoke.cont22, %cond.false, %cond.true, %if.then16, %if.end8, %for.body
  %9 = landingpad { ptr, i32 }
          cleanup
  %10 = extractvalue { ptr, i32 } %9, 0
  store ptr %10, ptr %exn.slot, align 8
  %11 = extractvalue { ptr, i32 } %9, 1
  store i32 %11, ptr %ehselector.slot, align 4
  br label %ehcleanup

lpad4:                                            ; preds = %invoke.cont
  %12 = landingpad { ptr, i32 }
          cleanup
  %13 = extractvalue { ptr, i32 } %12, 0
  store ptr %13, ptr %exn.slot, align 8
  %14 = extractvalue { ptr, i32 } %12, 1
  store i32 %14, ptr %ehselector.slot, align 4
  call void @_ZN4cvc58internal12NodeTemplateILb0EED2Ev(ptr noundef nonnull align 8 dereferenceable(8) %agg.tmp) #3
  br label %ehcleanup

if.end8:                                          ; preds = %invoke.cont5
  %d_constantReps = getelementptr inbounds %"class.cvc5::internal::theory::TheoryEngineModelBuilder", ptr %this1, i32 0, i32 2
  %call10 = invoke ptr @_ZNSt3mapIN4cvc58internal12NodeTemplateILb1EEES3_St4lessIS3_ESaISt4pairIKS3_S3_EEE4findERS7_(ptr noundef nonnull align 8 dereferenceable(48) %d_constantReps, ptr noundef nonnull align 8 dereferenceable(8) %er)
          to label %invoke.cont9 unwind label %lpad

invoke.cont9:                                     ; preds = %if.end8
  %coerce.dive = getelementptr inbounds %"struct.std::_Rb_tree_iterator", ptr %ref.tmp, i32 0, i32 0
  store ptr %call10, ptr %coerce.dive, align 8
  call void @llvm.memcpy.p0.p0.i64(ptr align 8 %it, ptr align 8 %ref.tmp, i64 8, i1 false)
  %d_constantReps12 = getelementptr inbounds %"class.cvc5::internal::theory::TheoryEngineModelBuilder", ptr %this1, i32 0, i32 2
  %call13 = call ptr @_ZNSt3mapIN4cvc58internal12NodeTemplateILb1EEES3_St4lessIS3_ESaISt4pairIKS3_S3_EEE3endEv(ptr noundef nonnull align 8 dereferenceable(48) %d_constantReps12) #3
  %coerce.dive14 = getelementptr inbounds %"struct.std::_Rb_tree_iterator", ptr %ref.tmp11, i32 0, i32 0
  store ptr %call13, ptr %coerce.dive14, align 8
  %call15 = call noundef zeroext i1 @_ZSteqRKSt17_Rb_tree_iteratorISt4pairIKN4cvc58internal12NodeTemplateILb1EEES4_EES9_(ptr noundef nonnull align 8 dereferenceable(8) %it, ptr noundef nonnull align 8 dereferenceable(8) %ref.tmp11) #3
  br i1 %call15, label %if.then16, label %if.end29

if.then16:                                        ; preds = %invoke.cont9
  %call19 = invoke noundef zeroext i1 @_ZN4cvc58internal11__cvc5_truecvbEv(ptr noundef nonnull align 1 dereferenceable(1) %ref.tmp17)
          to label %invoke.cont18 unwind label %lpad

invoke.cont18:                                    ; preds = %if.then16
  br i1 %call19, label %cond.true, label %cond.false

cond.true:                                        ; preds = %invoke.cont18
  invoke void @_ZNK4cvc58internal5NullCcvNS0_11Cvc5ostreamEEv(ptr sret(%"class.cvc5::internal::Cvc5ostream") align 8 %tmp, ptr noundef nonnull align 1 dereferenceable(1) @_ZN4cvc58internal10nullStreamE)
          to label %invoke.cont20 unwind label %lpad

invoke.cont20:                                    ; preds = %cond.true
  br label %cond.end

cond.false:                                       ; preds = %invoke.cont18
  invoke void @_ZNK4cvc58internal6TraceCclEv(ptr sret(%"class.cvc5::internal::Cvc5ostream") align 8 %ref.tmp21, ptr noundef nonnull align 8 dereferenceable(32) @_ZN4cvc58internal12TraceChannelE)
          to label %invoke.cont22 unwind label %lpad

invoke.cont22:                                    ; preds = %cond.false
  %call24 = invoke noundef nonnull align 8 dereferenceable(24) ptr @_ZN4cvc58internal11Cvc5ostreamlsIA37_cEERS1_RKT_(ptr noundef nonnull align 8 dereferenceable(24) %ref.tmp21, ptr noundef nonnull align 1 dereferenceable(37) @.str.4)
          to label %invoke.cont23 unwind label %lpad

invoke.cont23:                                    ; preds = %invoke.cont22
  %call26 = invoke noundef nonnull align 8 dereferenceable(24) ptr @_ZN4cvc58internal11Cvc5ostreamlsINS0_12NodeTemplateILb1EEEEERS1_RKT_(ptr noundef nonnull align 8 dereferenceable(24) %call24, ptr noundef nonnull align 8 dereferenceable(8) %er)
          to label %invoke.cont25 unwind label %lpad

invoke.cont25:                                    ; preds = %invoke.cont23
  %call28 = invoke noundef nonnull align 8 dereferenceable(24) ptr @_ZN4cvc58internal11Cvc5ostreamlsEPFRSoS2_E(ptr noundef nonnull align 8 dereferenceable(24) %call26, ptr noundef @_ZSt4endlIcSt11char_traitsIcEERSt13basic_ostreamIT_T0_ES6_)
          to label %invoke.cont27 unwind label %lpad

invoke.cont27:                                    ; preds = %invoke.cont25
  call void @llvm.memcpy.p0.p0.i64(ptr align 8 %agg.tmp.ensured, ptr align 8 %call28, i64 24, i1 false)
  br label %cond.end

cond.end:                                         ; preds = %invoke.cont27, %invoke.cont20
  store i1 false, ptr %retval, align 1
  store i32 1, ptr %cleanup.dest.slot, align 4
  br label %cleanup

if.end29:                                         ; preds = %invoke.cont9
  %call30 = call noundef ptr @_ZNKSt17_Rb_tree_iteratorISt4pairIKN4cvc58internal12NodeTemplateILb1EEES4_EEptEv(ptr noundef nonnull align 8 dereferenceable(8) %it) #3
  %second = getelementptr inbounds %"struct.std::pair", ptr %call30, i32 0, i32 1
  %15 = load ptr, ptr %eset, align 8
  %16 = load i32, ptr %i, align 4
  %conv31 = zext i32 %16 to i64
  %call32 = call noundef nonnull align 8 dereferenceable(8) ptr @_ZNSt6vectorIN4cvc58internal12NodeTemplateILb1EEESaIS3_EEixEm(ptr noundef nonnull align 8 dereferenceable(24) %15, i64 noundef %conv31) #3
  %call34 = invoke noundef nonnull align 8 dereferenceable(8) ptr @_ZN4cvc58internal12NodeTemplateILb1EEaSERKS2_(ptr noundef nonnull align 8 dereferenceable(8) %call32, ptr noundef nonnull align 8 dereferenceable(8) %second)
          to label %invoke.cont33 unwind label %lpad

invoke.cont33:                                    ; preds = %if.end29
  store i32 0, ptr %cleanup.dest.slot, align 4
  br label %cleanup

cleanup:                                          ; preds = %invoke.cont33, %cond.end, %if.then7
  call void @_ZN4cvc58internal12NodeTemplateILb1EED2Ev(ptr noundef nonnull align 8 dereferenceable(8) %er) #3
  %cleanup.dest = load i32, ptr %cleanup.dest.slot, align 4
  switch i32 %cleanup.dest, label %unreachable [
    i32 0, label %cleanup.cont
    i32 4, label %for.inc
    i32 1, label %return
  ]

cleanup.cont:                                     ; preds = %cleanup
  br label %for.inc

for.inc:                                          ; preds = %cleanup.cont, %cleanup
  %17 = load i32, ptr %i, align 4
  %inc = add i32 %17, 1
  store i32 %inc, ptr %i, align 4
  br label %for.cond, !llvm.loop !13

ehcleanup:                                        ; preds = %lpad4, %lpad
  call void @_ZN4cvc58internal12NodeTemplateILb1EED2Ev(ptr noundef nonnull align 8 dereferenceable(8) %er) #3
  br label %eh.resume

for.end:                                          ; preds = %for.cond
  %call36 = call noundef zeroext i1 @_ZN4cvc58internal11__cvc5_truecvbEv(ptr noundef nonnull align 1 dereferenceable(1) %ref.tmp35)
  br i1 %call36, label %cond.true37, label %cond.false39

cond.true37:                                      ; preds = %for.end
  call void @_ZNK4cvc58internal5NullCcvNS0_11Cvc5ostreamEEv(ptr sret(%"class.cvc5::internal::Cvc5ostream") align 8 %tmp38, ptr noundef nonnull align 1 dereferenceable(1) @_ZN4cvc58internal10nullStreamE)
  br label %cond.end44

cond.false39:                                     ; preds = %for.end
  call void @_ZNK4cvc58internal6TraceCclEv(ptr sret(%"class.cvc5::internal::Cvc5ostream") align 8 %ref.tmp41, ptr noundef nonnull align 8 dereferenceable(32) @_ZN4cvc58internal12TraceChannelE)
  %call42 = call noundef nonnull align 8 dereferenceable(24) ptr @_ZN4cvc58internal11Cvc5ostreamlsIA26_cEERS1_RKT_(ptr noundef nonnull align 8 dereferenceable(24) %ref.tmp41, ptr noundef nonnull align 1 dereferenceable(26) @.str.5)
  %call43 = call noundef nonnull align 8 dereferenceable(24) ptr @_ZN4cvc58internal11Cvc5ostreamlsEPFRSoS2_E(ptr noundef nonnull align 8 dereferenceable(24) %call42, ptr noundef @_ZSt4endlIcSt11char_traitsIcEERSt13basic_ostreamIT_T0_ES6_)
  call void @llvm.memcpy.p0.p0.i64(ptr align 8 %agg.tmp.ensured40, ptr align 8 %call43, i64 24, i1 false)
  br label %cond.end44

cond.end44:                                       ; preds = %cond.false39, %cond.true37
  %18 = load ptr, ptr %a.addr, align 8
  %d_isActive45 = getelementptr inbounds %"class.cvc5::internal::theory::TheoryEngineModelBuilder::Assigner", ptr %18, i32 0, i32 2
  store i8 1, ptr %d_isActive45, align 8
  store i1 true, ptr %retval, align 1
  br label %return

return:                                           ; preds = %cond.end44, %cleanup, %if.then
  %19 = load i1, ptr %retval, align 1
  ret i1 %19

eh.resume:                                        ; preds = %ehcleanup
  %exn = load ptr, ptr %exn.slot, align 8
  %sel = load i32, ptr %ehselector.slot, align 4
  %lpad.val = insertvalue { ptr, i32 } poison, ptr %exn, 0
  %lpad.val46 = insertvalue { ptr, i32 } %lpad.val, i32 %sel, 1
  resume { ptr, i32 } %lpad.val46

unreachable:                                      ; preds = %cleanup
  unreachable
}

; Function Attrs: mustprogress nounwind uwtable
define linkonce_odr hidden void @_ZNSt17_Rb_tree_iteratorISt4pairIKN4cvc58internal12NodeTemplateILb1EEES4_EEC2Ev(ptr noundef nonnull align 8 dereferenceable(8) %this) unnamed_addr #5 comdat align 2 {
entry:
  %this.addr = alloca ptr, align 8
  store ptr %this, ptr %this.addr, align 8
  %this1 = load ptr, ptr %this.addr, align 8
  %_M_node = getelementptr inbounds %"struct.std::_Rb_tree_iterator", ptr %this1, i32 0, i32 0
  store ptr null, ptr %_M_node, align 8
  ret void
}

; Function Attrs: mustprogress nounwind uwtable
define linkonce_odr hidden noundef i64 @_ZNKSt6vectorIN4cvc58internal12NodeTemplateILb1EEESaIS3_EE4sizeEv(ptr noundef nonnull align 8 dereferenceable(24) %this) #5 comdat align 2 {
entry:
  %this.addr = alloca ptr, align 8
  store ptr %this, ptr %this.addr, align 8
  %this1 = load ptr, ptr %this.addr, align 8
  %_M_impl = getelementptr inbounds %"struct.std::_Vector_base", ptr %this1, i32 0, i32 0
  %_M_finish = getelementptr inbounds %"struct.std::_Vector_base<cvc5::internal::NodeTemplate<true>, std::allocator<cvc5::internal::NodeTemplate<true>>>::_Vector_impl_data", ptr %_M_impl, i32 0, i32 1
  %0 = load ptr, ptr %_M_finish, align 8
  %_M_impl2 = getelementptr inbounds %"struct.std::_Vector_base", ptr %this1, i32 0, i32 0
  %_M_start = getelementptr inbounds %"struct.std::_Vector_base<cvc5::internal::NodeTemplate<true>, std::allocator<cvc5::internal::NodeTemplate<true>>>::_Vector_impl_data", ptr %_M_impl2, i32 0, i32 0
  %1 = load ptr, ptr %_M_start, align 8
  %sub.ptr.lhs.cast = ptrtoint ptr %0 to i64
  %sub.ptr.rhs.cast = ptrtoint ptr %1 to i64
  %sub.ptr.sub = sub i64 %sub.ptr.lhs.cast, %sub.ptr.rhs.cast
  %sub.ptr.div = sdiv exact i64 %sub.ptr.sub, 8
  ret i64 %sub.ptr.div
}

; Function Attrs: mustprogress nounwind uwtable
define linkonce_odr hidden noundef nonnull align 8 dereferenceable(8) ptr @_ZNSt6vectorIN4cvc58internal12NodeTemplateILb1EEESaIS3_EEixEm(ptr noundef nonnull align 8 dereferenceable(24) %this, i64 noundef %__n) #5 comdat align 2 {
entry:
  %this.addr = alloca ptr, align 8
  %__n.addr = alloca i64, align 8
  store ptr %this, ptr %this.addr, align 8
  store i64 %__n, ptr %__n.addr, align 8
  %this1 = load ptr, ptr %this.addr, align 8
  %_M_impl = getelementptr inbounds %"struct.std::_Vector_base", ptr %this1, i32 0, i32 0
  %_M_start = getelementptr inbounds %"struct.std::_Vector_base<cvc5::internal::NodeTemplate<true>, std::allocator<cvc5::internal::NodeTemplate<true>>>::_Vector_impl_data", ptr %_M_impl, i32 0, i32 0
  %0 = load ptr, ptr %_M_start, align 8
  %1 = load i64, ptr %__n.addr, align 8
  %add.ptr = getelementptr inbounds %"class.cvc5::internal::NodeTemplate", ptr %0, i64 %1
  ret ptr %add.ptr
}

; Function Attrs: mustprogress uwtable
define linkonce_odr hidden ptr @_ZNSt3mapIN4cvc58internal12NodeTemplateILb1EEES3_St4lessIS3_ESaISt4pairIKS3_S3_EEE4findERS7_(ptr noundef nonnull align 8 dereferenceable(48) %this, ptr noundef nonnull align 8 dereferenceable(8) %__x) #4 comdat align 2 {
entry:
  %retval = alloca %"struct.std::_Rb_tree_iterator", align 8
  %this.addr = alloca ptr, align 8
  %__x.addr = alloca ptr, align 8
  store ptr %this, ptr %this.addr, align 8
  store ptr %__x, ptr %__x.addr, align 8
  %this1 = load ptr, ptr %this.addr, align 8
  %_M_t = getelementptr inbounds %"class.std::map", ptr %this1, i32 0, i32 0
  %0 = load ptr, ptr %__x.addr, align 8
  %call = call ptr @_ZNSt8_Rb_treeIN4cvc58internal12NodeTemplateILb1EEESt4pairIKS3_S3_ESt10_Select1stIS6_ESt4lessIS3_ESaIS6_EE4findERS5_(ptr noundef nonnull align 8 dereferenceable(48) %_M_t, ptr noundef nonnull align 8 dereferenceable(8) %0)
  %coerce.dive = getelementptr inbounds %"struct.std::_Rb_tree_iterator", ptr %retval, i32 0, i32 0
  store ptr %call, ptr %coerce.dive, align 8
  %coerce.dive2 = getelementptr inbounds %"struct.std::_Rb_tree_iterator", ptr %retval, i32 0, i32 0
  %1 = load ptr, ptr %coerce.dive2, align 8
  ret ptr %1
}

; Function Attrs: mustprogress nounwind uwtable
define linkonce_odr noundef zeroext i1 @_ZSteqRKSt17_Rb_tree_iteratorISt4pairIKN4cvc58internal12NodeTemplateILb1EEES4_EES9_(ptr noundef nonnull align 8 dereferenceable(8) %__x, ptr noundef nonnull align 8 dereferenceable(8) %__y) #5 comdat {
entry:
  %__x.addr = alloca ptr, align 8
  %__y.addr = alloca ptr, align 8
  store ptr %__x, ptr %__x.addr, align 8
  store ptr %__y, ptr %__y.addr, align 8
  %0 = load ptr, ptr %__x.addr, align 8
  %_M_node = getelementptr inbounds %"struct.std::_Rb_tree_iterator", ptr %0, i32 0, i32 0
  %1 = load ptr, ptr %_M_node, align 8
  %2 = load ptr, ptr %__y.addr, align 8
  %_M_node1 = getelementptr inbounds %"struct.std::_Rb_tree_iterator", ptr %2, i32 0, i32 0
  %3 = load ptr, ptr %_M_node1, align 8
  %cmp = icmp eq ptr %1, %3
  ret i1 %cmp
}

; Function Attrs: mustprogress nounwind uwtable
define linkonce_odr hidden ptr @_ZNSt3mapIN4cvc58internal12NodeTemplateILb1EEES3_St4lessIS3_ESaISt4pairIKS3_S3_EEE3endEv(ptr noundef nonnull align 8 dereferenceable(48) %this) #5 comdat align 2 {
entry:
  %retval = alloca %"struct.std::_Rb_tree_iterator", align 8
  %this.addr = alloca ptr, align 8
  store ptr %this, ptr %this.addr, align 8
  %this1 = load ptr, ptr %this.addr, align 8
  %_M_t = getelementptr inbounds %"class.std::map", ptr %this1, i32 0, i32 0
  %call = call ptr @_ZNSt8_Rb_treeIN4cvc58internal12NodeTemplateILb1EEESt4pairIKS3_S3_ESt10_Select1stIS6_ESt4lessIS3_ESaIS6_EE3endEv(ptr noundef nonnull align 8 dereferenceable(48) %_M_t) #3
  %coerce.dive = getelementptr inbounds %"struct.std::_Rb_tree_iterator", ptr %retval, i32 0, i32 0
  store ptr %call, ptr %coerce.dive, align 8
  %coerce.dive2 = getelementptr inbounds %"struct.std::_Rb_tree_iterator", ptr %retval, i32 0, i32 0
  %0 = load ptr, ptr %coerce.dive2, align 8
  ret ptr %0
}

; Function Attrs: mustprogress uwtable
define linkonce_odr hidden noundef nonnull align 8 dereferenceable(24) ptr @_ZN4cvc58internal11Cvc5ostreamlsIA37_cEERS1_RKT_(ptr noundef nonnull align 8 dereferenceable(24) %this, ptr noundef nonnull align 1 dereferenceable(37) %t) #4 comdat align 2 {
entry:
  %this.addr = alloca ptr, align 8
  %t.addr = alloca ptr, align 8
  %indent = alloca i64, align 8
  %i = alloca i64, align 8
  store ptr %this, ptr %this.addr, align 8
  store ptr %t, ptr %t.addr, align 8
  %this1 = load ptr, ptr %this.addr, align 8
  %d_os = getelementptr inbounds %"class.cvc5::internal::Cvc5ostream", ptr %this1, i32 0, i32 0
  %0 = load ptr, ptr %d_os, align 8
  %cmp = icmp ne ptr %0, null
  br i1 %cmp, label %if.then, label %if.end11

if.then:                                          ; preds = %entry
  %d_firstColumn = getelementptr inbounds %"class.cvc5::internal::Cvc5ostream", ptr %this1, i32 0, i32 1
  %1 = load i8, ptr %d_firstColumn, align 8
  %tobool = trunc i8 %1 to i1
  br i1 %tobool, label %if.then2, label %if.end

if.then2:                                         ; preds = %if.then
  %d_firstColumn3 = getelementptr inbounds %"class.cvc5::internal::Cvc5ostream", ptr %this1, i32 0, i32 1
  store i8 0, ptr %d_firstColumn3, align 8
  %d_os4 = getelementptr inbounds %"class.cvc5::internal::Cvc5ostream", ptr %this1, i32 0, i32 0
  %2 = load ptr, ptr %d_os4, align 8
  %vtable = load ptr, ptr %2, align 8
  %vbase.offset.ptr = getelementptr i8, ptr %vtable, i64 -24
  %vbase.offset = load i64, ptr %vbase.offset.ptr, align 8
  %add.ptr = getelementptr inbounds i8, ptr %2, i64 %vbase.offset
  %3 = load i32, ptr @_ZN4cvc58internal11Cvc5ostream16s_indentIosIndexE, align 4
  %call = call noundef nonnull align 8 dereferenceable(8) ptr @_ZNSt8ios_base5iwordEi(ptr noundef nonnull align 8 dereferenceable(216) %add.ptr, i32 noundef %3)
  %4 = load i64, ptr %call, align 8
  store i64 %4, ptr %indent, align 8
  store i64 0, ptr %i, align 8
  br label %for.cond

for.cond:                                         ; preds = %for.inc, %if.then2
  %5 = load i64, ptr %i, align 8
  %6 = load i64, ptr %indent, align 8
  %cmp5 = icmp slt i64 %5, %6
  br i1 %cmp5, label %for.body, label %for.end

for.body:                                         ; preds = %for.cond
  %d_os6 = getelementptr inbounds %"class.cvc5::internal::Cvc5ostream", ptr %this1, i32 0, i32 0
  %7 = load ptr, ptr %d_os6, align 8
  %call7 = call noundef nonnull align 8 dereferenceable(8) ptr @_ZStlsIcSt11char_traitsIcESaIcEERSt13basic_ostreamIT_T0_ES7_RKNSt7__cxx1112basic_stringIS4_S5_T1_EE(ptr noundef nonnull align 8 dereferenceable(8) %7, ptr noundef nonnull align 8 dereferenceable(32) @_ZN4cvc58internal11Cvc5ostream5s_tabB5cxx11E)
  %d_os8 = getelementptr inbounds %"class.cvc5::internal::Cvc5ostream", ptr %this1, i32 0, i32 0
  store ptr %call7, ptr %d_os8, align 8
  br label %for.inc

for.inc:                                          ; preds = %for.body
  %8 = load i64, ptr %i, align 8
  %inc = add nsw i64 %8, 1
  store i64 %inc, ptr %i, align 8
  br label %for.cond, !llvm.loop !14

for.end:                                          ; preds = %for.cond
  br label %if.end

if.end:                                           ; preds = %for.end, %if.then
  %d_os9 = getelementptr inbounds %"class.cvc5::internal::Cvc5ostream", ptr %this1, i32 0, i32 0
  %9 = load ptr, ptr %d_os9, align 8
  %10 = load ptr, ptr %t.addr, align 8
  %arraydecay = getelementptr inbounds [37 x i8], ptr %10, i64 0, i64 0
  %call10 = call noundef nonnull align 8 dereferenceable(8) ptr @_ZStlsISt11char_traitsIcEERSt13basic_ostreamIcT_ES5_PKc(ptr noundef nonnull align 8 dereferenceable(8) %9, ptr noundef %arraydecay)
  br label %if.end11

if.end11:                                         ; preds = %if.end, %entry
  ret ptr %this1
}

; Function Attrs: mustprogress nounwind uwtable
define linkonce_odr hidden noundef ptr @_ZNKSt17_Rb_tree_iteratorISt4pairIKN4cvc58internal12NodeTemplateILb1EEES4_EEptEv(ptr noundef nonnull align 8 dereferenceable(8) %this) #5 comdat align 2 {
entry:
  %this.addr = alloca ptr, align 8
  store ptr %this, ptr %this.addr, align 8
  %this1 = load ptr, ptr %this.addr, align 8
  %_M_node = getelementptr inbounds %"struct.std::_Rb_tree_iterator", ptr %this1, i32 0, i32 0
  %0 = load ptr, ptr %_M_node, align 8
  %call = call noundef ptr @_ZNSt13_Rb_tree_nodeISt4pairIKN4cvc58internal12NodeTemplateILb1EEES4_EE9_M_valptrEv(ptr noundef nonnull align 8 dereferenceable(48) %0)
  ret ptr %call
}

; Function Attrs: mustprogress uwtable
define linkonce_odr hidden noundef nonnull align 8 dereferenceable(24) ptr @_ZN4cvc58internal11Cvc5ostreamlsIA26_cEERS1_RKT_(ptr noundef nonnull align 8 dereferenceable(24) %this, ptr noundef nonnull align 1 dereferenceable(26) %t) #4 comdat align 2 {
entry:
  %this.addr = alloca ptr, align 8
  %t.addr = alloca ptr, align 8
  %indent = alloca i64, align 8
  %i = alloca i64, align 8
  store ptr %this, ptr %this.addr, align 8
  store ptr %t, ptr %t.addr, align 8
  %this1 = load ptr, ptr %this.addr, align 8
  %d_os = getelementptr inbounds %"class.cvc5::internal::Cvc5ostream", ptr %this1, i32 0, i32 0
  %0 = load ptr, ptr %d_os, align 8
  %cmp = icmp ne ptr %0, null
  br i1 %cmp, label %if.then, label %if.end11

if.then:                                          ; preds = %entry
  %d_firstColumn = getelementptr inbounds %"class.cvc5::internal::Cvc5ostream", ptr %this1, i32 0, i32 1
  %1 = load i8, ptr %d_firstColumn, align 8
  %tobool = trunc i8 %1 to i1
  br i1 %tobool, label %if.then2, label %if.end

if.then2:                                         ; preds = %if.then
  %d_firstColumn3 = getelementptr inbounds %"class.cvc5::internal::Cvc5ostream", ptr %this1, i32 0, i32 1
  store i8 0, ptr %d_firstColumn3, align 8
  %d_os4 = getelementptr inbounds %"class.cvc5::internal::Cvc5ostream", ptr %this1, i32 0, i32 0
  %2 = load ptr, ptr %d_os4, align 8
  %vtable = load ptr, ptr %2, align 8
  %vbase.offset.ptr = getelementptr i8, ptr %vtable, i64 -24
  %vbase.offset = load i64, ptr %vbase.offset.ptr, align 8
  %add.ptr = getelementptr inbounds i8, ptr %2, i64 %vbase.offset
  %3 = load i32, ptr @_ZN4cvc58internal11Cvc5ostream16s_indentIosIndexE, align 4
  %call = call noundef nonnull align 8 dereferenceable(8) ptr @_ZNSt8ios_base5iwordEi(ptr noundef nonnull align 8 dereferenceable(216) %add.ptr, i32 noundef %3)
  %4 = load i64, ptr %call, align 8
  store i64 %4, ptr %indent, align 8
  store i64 0, ptr %i, align 8
  br label %for.cond

for.cond:                                         ; preds = %for.inc, %if.then2
  %5 = load i64, ptr %i, align 8
  %6 = load i64, ptr %indent, align 8
  %cmp5 = icmp slt i64 %5, %6
  br i1 %cmp5, label %for.body, label %for.end

for.body:                                         ; preds = %for.cond
  %d_os6 = getelementptr inbounds %"class.cvc5::internal::Cvc5ostream", ptr %this1, i32 0, i32 0
  %7 = load ptr, ptr %d_os6, align 8
  %call7 = call noundef nonnull align 8 dereferenceable(8) ptr @_ZStlsIcSt11char_traitsIcESaIcEERSt13basic_ostreamIT_T0_ES7_RKNSt7__cxx1112basic_stringIS4_S5_T1_EE(ptr noundef nonnull align 8 dereferenceable(8) %7, ptr noundef nonnull align 8 dereferenceable(32) @_ZN4cvc58internal11Cvc5ostream5s_tabB5cxx11E)
  %d_os8 = getelementptr inbounds %"class.cvc5::internal::Cvc5ostream", ptr %this1, i32 0, i32 0
  store ptr %call7, ptr %d_os8, align 8
  br label %for.inc

for.inc:                                          ; preds = %for.body
  %8 = load i64, ptr %i, align 8
  %inc = add nsw i64 %8, 1
  store i64 %inc, ptr %i, align 8
  br label %for.cond, !llvm.loop !15

for.end:                                          ; preds = %for.cond
  br label %if.end

if.end:                                           ; preds = %for.end, %if.then
  %d_os9 = getelementptr inbounds %"class.cvc5::internal::Cvc5ostream", ptr %this1, i32 0, i32 0
  %9 = load ptr, ptr %d_os9, align 8
  %10 = load ptr, ptr %t.addr, align 8
  %arraydecay = getelementptr inbounds [26 x i8], ptr %10, i64 0, i64 0
  %call10 = call noundef nonnull align 8 dereferenceable(8) ptr @_ZStlsISt11char_traitsIcEERSt13basic_ostreamIcT_ES5_PKc(ptr noundef nonnull align 8 dereferenceable(8) %9, ptr noundef %arraydecay)
  br label %if.end11

if.end11:                                         ; preds = %if.end, %entry
  ret ptr %this1
}

; Function Attrs: mustprogress nounwind uwtable
define linkonce_odr hidden noundef i32 @_ZNK4cvc58internal12NodeTemplateILb0EE7getKindEv(ptr noundef nonnull align 8 dereferenceable(8) %this) #5 comdat align 2 {
entry:
  %this.addr = alloca ptr, align 8
  store ptr %this, ptr %this.addr, align 8
  %this1 = load ptr, ptr %this.addr, align 8
  call void @_ZNK4cvc58internal12NodeTemplateILb0EE21assertTNodeNotExpiredEv(ptr noundef nonnull align 8 dereferenceable(8) %this1)
  %d_nv = getelementptr inbounds %"class.cvc5::internal::NodeTemplate.274", ptr %this1, i32 0, i32 0
  %0 = load ptr, ptr %d_nv, align 8
  %d_kind = getelementptr inbounds %"class.cvc5::internal::expr::NodeValue", ptr %0, i32 0, i32 1
  %bf.load = load i16, ptr %d_kind, align 8
  %bf.clear = and i16 %bf.load, 1023
  %bf.cast = zext i16 %bf.clear to i32
  ret i32 %bf.cast
}

declare noundef nonnull align 8 dereferenceable(88) ptr @_ZNK4cvc58internal6EnvObj9logicInfoEv(ptr noundef nonnull align 8 dereferenceable(16)) #1

declare noundef zeroext i1 @_ZNK4cvc58internal9LogicInfo13isHigherOrderEv(ptr noundef nonnull align 8 dereferenceable(88)) #1

; Function Attrs: mustprogress uwtable
define linkonce_odr hidden void @_ZNK4cvc58internal12NodeTemplateILb0EE7getTypeEb(ptr noalias sret(%"class.cvc5::internal::TypeNode") align 8 %agg.result, ptr noundef nonnull align 8 dereferenceable(8) %this, i1 noundef zeroext %check) #4 comdat align 2 personality ptr @__gxx_personality_v0 {
entry:
  %result.ptr = alloca ptr, align 8
  %this.addr = alloca ptr, align 8
  %check.addr = alloca i8, align 1
  %nrvo = alloca i1, align 1
  %agg.tmp = alloca %"class.cvc5::internal::NodeTemplate.274", align 8
  %exn.slot = alloca ptr, align 8
  %ehselector.slot = alloca i32, align 4
  %errOutTmp = alloca %"class.std::__cxx11::basic_stringstream", align 8
  %ref.tmp = alloca %"class.cvc5::internal::TypeNode", align 8
  %agg.tmp9 = alloca %"class.cvc5::internal::NodeTemplate.274", align 8
  %agg.tmp17 = alloca %"class.cvc5::internal::NodeTemplate.274", align 8
  %agg.tmp20 = alloca %"class.std::__cxx11::basic_string", align 8
  %cleanup.isactive = alloca i1, align 1
  store ptr %agg.result, ptr %result.ptr, align 8
  store ptr %this, ptr %this.addr, align 8
  %frombool = zext i1 %check to i8
  store i8 %frombool, ptr %check.addr, align 1
  %this1 = load ptr, ptr %this.addr, align 8
  call void @_ZNK4cvc58internal12NodeTemplateILb0EE21assertTNodeNotExpiredEv(ptr noundef nonnull align 8 dereferenceable(8) %this1)
  store i1 false, ptr %nrvo, align 1
  %call = call noundef ptr @_ZN4cvc58internal11NodeManager9currentNMEv()
  call void @_ZN4cvc58internal12NodeTemplateILb0EEC2ERKS2_(ptr noundef nonnull align 8 dereferenceable(8) %agg.tmp, ptr noundef nonnull align 8 dereferenceable(8) %this1)
  %0 = load i8, ptr %check.addr, align 1
  %tobool = trunc i8 %0 to i1
  invoke void @_ZN4cvc58internal11NodeManager7getTypeENS0_12NodeTemplateILb0EEEbPSo(ptr sret(%"class.cvc5::internal::TypeNode") align 8 %agg.result, ptr noundef nonnull align 8 dereferenceable(3360) %call, ptr noundef %agg.tmp, i1 noundef zeroext %tobool, ptr noundef null)
          to label %invoke.cont unwind label %lpad

invoke.cont:                                      ; preds = %entry
  call void @_ZN4cvc58internal12NodeTemplateILb0EED2Ev(ptr noundef nonnull align 8 dereferenceable(8) %agg.tmp) #3
  %call4 = invoke noundef zeroext i1 @_ZNK4cvc58internal8TypeNode6isNullEv(ptr noundef nonnull align 8 dereferenceable(8) %agg.result)
          to label %invoke.cont3 unwind label %lpad2

invoke.cont3:                                     ; preds = %invoke.cont
  br i1 %call4, label %if.then, label %if.end

if.then:                                          ; preds = %invoke.cont3
  invoke void @_ZNSt7__cxx1118basic_stringstreamIcSt11char_traitsIcESaIcEEC1Ev(ptr noundef nonnull align 8 dereferenceable(128) %errOutTmp)
          to label %invoke.cont5 unwind label %lpad2

invoke.cont5:                                     ; preds = %if.then
  %call8 = invoke noundef ptr @_ZN4cvc58internal11NodeManager9currentNMEv()
          to label %invoke.cont7 unwind label %lpad6

invoke.cont7:                                     ; preds = %invoke.cont5
  invoke void @_ZN4cvc58internal12NodeTemplateILb0EEC2ERKS2_(ptr noundef nonnull align 8 dereferenceable(8) %agg.tmp9, ptr noundef nonnull align 8 dereferenceable(8) %this1)
          to label %invoke.cont10 unwind label %lpad6

invoke.cont10:                                    ; preds = %invoke.cont7
  %1 = load i8, ptr %check.addr, align 1
  %tobool11 = trunc i8 %1 to i1
  %2 = icmp eq ptr %errOutTmp, null
  br i1 %2, label %cast.end, label %cast.notnull

cast.notnull:                                     ; preds = %invoke.cont10
  %add.ptr = getelementptr inbounds i8, ptr %errOutTmp, i64 16
  br label %cast.end

cast.end:                                         ; preds = %cast.notnull, %invoke.cont10
  %cast.result = phi ptr [ %add.ptr, %cast.notnull ], [ null, %invoke.cont10 ]
  invoke void @_ZN4cvc58internal11NodeManager7getTypeENS0_12NodeTemplateILb0EEEbPSo(ptr sret(%"class.cvc5::internal::TypeNode") align 8 %ref.tmp, ptr noundef nonnull align 8 dereferenceable(3360) %call8, ptr noundef %agg.tmp9, i1 noundef zeroext %tobool11, ptr noundef %cast.result)
          to label %invoke.cont13 unwind label %lpad12

invoke.cont13:                                    ; preds = %cast.end
  %call16 = invoke noundef nonnull align 8 dereferenceable(8) ptr @_ZN4cvc58internal8TypeNodeaSERKS1_(ptr noundef nonnull align 8 dereferenceable(8) %agg.result, ptr noundef nonnull align 8 dereferenceable(8) %ref.tmp)
          to label %invoke.cont15 unwind label %lpad14

invoke.cont15:                                    ; preds = %invoke.cont13
  call void @_ZN4cvc58internal8TypeNodeD2Ev(ptr noundef nonnull align 8 dereferenceable(8) %ref.tmp) #3
  call void @_ZN4cvc58internal12NodeTemplateILb0EED2Ev(ptr noundef nonnull align 8 dereferenceable(8) %agg.tmp9) #3
  store i1 true, ptr %cleanup.isactive, align 1
  %exception = call ptr @__cxa_allocate_exception(i64 48) #3
  invoke void @_ZN4cvc58internal12NodeTemplateILb0EEC2ERKS2_(ptr noundef nonnull align 8 dereferenceable(8) %agg.tmp17, ptr noundef nonnull align 8 dereferenceable(8) %this1)
          to label %invoke.cont19 unwind label %lpad18

invoke.cont19:                                    ; preds = %invoke.cont15
  invoke void @_ZNKSt7__cxx1118basic_stringstreamIcSt11char_traitsIcESaIcEE3strEv(ptr sret(%"class.std::__cxx11::basic_string") align 8 %agg.tmp20, ptr noundef nonnull align 8 dereferenceable(128) %errOutTmp)
          to label %invoke.cont22 unwind label %lpad21

invoke.cont22:                                    ; preds = %invoke.cont19
  invoke void @_ZN4cvc58internal28TypeCheckingExceptionPrivateC1ENS0_12NodeTemplateILb0EEENSt7__cxx1112basic_stringIcSt11char_traitsIcESaIcEEE(ptr noundef nonnull align 8 dereferenceable(48) %exception, ptr noundef %agg.tmp17, ptr noundef %agg.tmp20)
          to label %invoke.cont24 unwind label %lpad23

invoke.cont24:                                    ; preds = %invoke.cont22
  store i1 false, ptr %cleanup.isactive, align 1
  invoke void @__cxa_throw(ptr %exception, ptr @_ZTIN4cvc58internal28TypeCheckingExceptionPrivateE, ptr @_ZN4cvc58internal28TypeCheckingExceptionPrivateD1Ev) #20
          to label %unreachable unwind label %lpad23

lpad:                                             ; preds = %entry
  %3 = landingpad { ptr, i32 }
          cleanup
  %4 = extractvalue { ptr, i32 } %3, 0
  store ptr %4, ptr %exn.slot, align 8
  %5 = extractvalue { ptr, i32 } %3, 1
  store i32 %5, ptr %ehselector.slot, align 4
  call void @_ZN4cvc58internal12NodeTemplateILb0EED2Ev(ptr noundef nonnull align 8 dereferenceable(8) %agg.tmp) #3
  br label %eh.resume

lpad2:                                            ; preds = %if.then, %invoke.cont
  %6 = landingpad { ptr, i32 }
          cleanup
  %7 = extractvalue { ptr, i32 } %6, 0
  store ptr %7, ptr %exn.slot, align 8
  %8 = extractvalue { ptr, i32 } %6, 1
  store i32 %8, ptr %ehselector.slot, align 4
  br label %ehcleanup29

lpad6:                                            ; preds = %invoke.cont7, %invoke.cont5
  %9 = landingpad { ptr, i32 }
          cleanup
  %10 = extractvalue { ptr, i32 } %9, 0
  store ptr %10, ptr %exn.slot, align 8
  %11 = extractvalue { ptr, i32 } %9, 1
  store i32 %11, ptr %ehselector.slot, align 4
  br label %ehcleanup28

lpad12:                                           ; preds = %cast.end
  %12 = landingpad { ptr, i32 }
          cleanup
  %13 = extractvalue { ptr, i32 } %12, 0
  store ptr %13, ptr %exn.slot, align 8
  %14 = extractvalue { ptr, i32 } %12, 1
  store i32 %14, ptr %ehselector.slot, align 4
  br label %ehcleanup

lpad14:                                           ; preds = %invoke.cont13
  %15 = landingpad { ptr, i32 }
          cleanup
  %16 = extractvalue { ptr, i32 } %15, 0
  store ptr %16, ptr %exn.slot, align 8
  %17 = extractvalue { ptr, i32 } %15, 1
  store i32 %17, ptr %ehselector.slot, align 4
  call void @_ZN4cvc58internal8TypeNodeD2Ev(ptr noundef nonnull align 8 dereferenceable(8) %ref.tmp) #3
  br label %ehcleanup

ehcleanup:                                        ; preds = %lpad14, %lpad12
  call void @_ZN4cvc58internal12NodeTemplateILb0EED2Ev(ptr noundef nonnull align 8 dereferenceable(8) %agg.tmp9) #3
  br label %ehcleanup28

lpad18:                                           ; preds = %invoke.cont15
  %18 = landingpad { ptr, i32 }
          cleanup
  %19 = extractvalue { ptr, i32 } %18, 0
  store ptr %19, ptr %exn.slot, align 8
  %20 = extractvalue { ptr, i32 } %18, 1
  store i32 %20, ptr %ehselector.slot, align 4
  br label %ehcleanup27

lpad21:                                           ; preds = %invoke.cont19
  %21 = landingpad { ptr, i32 }
          cleanup
  %22 = extractvalue { ptr, i32 } %21, 0
  store ptr %22, ptr %exn.slot, align 8
  %23 = extractvalue { ptr, i32 } %21, 1
  store i32 %23, ptr %ehselector.slot, align 4
  br label %ehcleanup26

lpad23:                                           ; preds = %invoke.cont24, %invoke.cont22
  %24 = landingpad { ptr, i32 }
          cleanup
  %25 = extractvalue { ptr, i32 } %24, 0
  store ptr %25, ptr %exn.slot, align 8
  %26 = extractvalue { ptr, i32 } %24, 1
  store i32 %26, ptr %ehselector.slot, align 4
  call void @_ZNSt7__cxx1112basic_stringIcSt11char_traitsIcESaIcEED1Ev(ptr noundef nonnull align 8 dereferenceable(32) %agg.tmp20) #3
  br label %ehcleanup26

ehcleanup26:                                      ; preds = %lpad23, %lpad21
  call void @_ZN4cvc58internal12NodeTemplateILb0EED2Ev(ptr noundef nonnull align 8 dereferenceable(8) %agg.tmp17) #3
  br label %ehcleanup27

ehcleanup27:                                      ; preds = %ehcleanup26, %lpad18
  %cleanup.is_active = load i1, ptr %cleanup.isactive, align 1
  br i1 %cleanup.is_active, label %cleanup.action, label %cleanup.done

cleanup.action:                                   ; preds = %ehcleanup27
  call void @__cxa_free_exception(ptr %exception) #3
  br label %cleanup.done

cleanup.done:                                     ; preds = %cleanup.action, %ehcleanup27
  br label %ehcleanup28

ehcleanup28:                                      ; preds = %cleanup.done, %ehcleanup, %lpad6
  call void @_ZNSt7__cxx1118basic_stringstreamIcSt11char_traitsIcESaIcEED1Ev(ptr noundef nonnull align 8 dereferenceable(128) %errOutTmp) #3
  br label %ehcleanup29

if.end:                                           ; preds = %invoke.cont3
  store i1 true, ptr %nrvo, align 1
  %nrvo.val = load i1, ptr %nrvo, align 1
  br i1 %nrvo.val, label %nrvo.skipdtor, label %nrvo.unused

nrvo.unused:                                      ; preds = %if.end
  call void @_ZN4cvc58internal8TypeNodeD2Ev(ptr noundef nonnull align 8 dereferenceable(8) %agg.result) #3
  br label %nrvo.skipdtor

nrvo.skipdtor:                                    ; preds = %nrvo.unused, %if.end
  ret void

ehcleanup29:                                      ; preds = %ehcleanup28, %lpad2
  call void @_ZN4cvc58internal8TypeNodeD2Ev(ptr noundef nonnull align 8 dereferenceable(8) %agg.result) #3
  br label %eh.resume

eh.resume:                                        ; preds = %ehcleanup29, %lpad
  %exn = load ptr, ptr %exn.slot, align 8
  %sel = load i32, ptr %ehselector.slot, align 4
  %lpad.val = insertvalue { ptr, i32 } poison, ptr %exn, 0
  %lpad.val30 = insertvalue { ptr, i32 } %lpad.val, i32 %sel, 1
  resume { ptr, i32 } %lpad.val30

unreachable:                                      ; preds = %invoke.cont24
  unreachable
}

; Function Attrs: mustprogress uwtable
define linkonce_odr hidden noundef zeroext i1 @_ZNK4cvc58internal8TypeNode10isFunctionEv(ptr noundef nonnull align 8 dereferenceable(8) %this) #4 comdat align 2 {
entry:
  %this.addr = alloca ptr, align 8
  store ptr %this, ptr %this.addr, align 8
  %this1 = load ptr, ptr %this.addr, align 8
  %call = call noundef i32 @_ZNK4cvc58internal8TypeNode7getKindEv(ptr noundef nonnull align 8 dereferenceable(8) %this1)
  %cmp = icmp eq i32 %call, 25
  ret i1 %cmp
}

; Function Attrs: mustprogress uwtable
define linkonce_odr hidden noundef zeroext i1 @_ZNK4cvc58internal12NodeTemplateILb0EE5isVarEv(ptr noundef nonnull align 8 dereferenceable(8) %this) #4 comdat align 2 {
entry:
  %this.addr = alloca ptr, align 8
  store ptr %this, ptr %this.addr, align 8
  %this1 = load ptr, ptr %this.addr, align 8
  call void @_ZNK4cvc58internal12NodeTemplateILb0EE21assertTNodeNotExpiredEv(ptr noundef nonnull align 8 dereferenceable(8) %this1)
  %call = call noundef i32 @_ZNK4cvc58internal12NodeTemplateILb0EE11getMetaKindEv(ptr noundef nonnull align 8 dereferenceable(8) %this1)
  %cmp = icmp eq i32 %call, 0
  ret i1 %cmp
}

; Function Attrs: mustprogress uwtable
define linkonce_odr hidden void @_ZNK4cvc58internal12NodeTemplateILb0EEixEi(ptr noalias sret(%"class.cvc5::internal::NodeTemplate.274") align 8 %agg.result, ptr noundef nonnull align 8 dereferenceable(8) %this, i32 noundef %i) #4 comdat align 2 {
entry:
  %result.ptr = alloca ptr, align 8
  %this.addr = alloca ptr, align 8
  %i.addr = alloca i32, align 4
  store ptr %agg.result, ptr %result.ptr, align 8
  store ptr %this, ptr %this.addr, align 8
  store i32 %i, ptr %i.addr, align 4
  %this1 = load ptr, ptr %this.addr, align 8
  call void @_ZNK4cvc58internal12NodeTemplateILb0EE21assertTNodeNotExpiredEv(ptr noundef nonnull align 8 dereferenceable(8) %this1)
  %d_nv = getelementptr inbounds %"class.cvc5::internal::NodeTemplate.274", ptr %this1, i32 0, i32 0
  %0 = load ptr, ptr %d_nv, align 8
  %1 = load i32, ptr %i.addr, align 4
  %call = call noundef ptr @_ZNK4cvc58internal4expr9NodeValue8getChildEi(ptr noundef nonnull align 8 dereferenceable(16) %0, i32 noundef %1)
  call void @_ZN4cvc58internal12NodeTemplateILb0EEC2EPKNS0_4expr9NodeValueE(ptr noundef nonnull align 8 dereferenceable(8) %agg.result, ptr noundef %call)
  ret void
}

; Function Attrs: mustprogress uwtable
define linkonce_odr hidden noundef i64 @_ZNK4cvc58internal8TypeNode14getNumChildrenEv(ptr noundef nonnull align 8 dereferenceable(8) %this) #4 comdat align 2 {
entry:
  %this.addr = alloca ptr, align 8
  store ptr %this, ptr %this.addr, align 8
  %this1 = load ptr, ptr %this.addr, align 8
  %d_nv = getelementptr inbounds %"class.cvc5::internal::TypeNode", ptr %this1, i32 0, i32 0
  %0 = load ptr, ptr %d_nv, align 8
  %call = call noundef i32 @_ZNK4cvc58internal4expr9NodeValue14getNumChildrenEv(ptr noundef nonnull align 8 dereferenceable(16) %0)
  %conv = zext i32 %call to i64
  ret i64 %conv
}

; Function Attrs: mustprogress uwtable
define hidden void @_ZN4cvc58internal6theory24TheoryEngineModelBuilder21addAssignableSubtermsENS0_12NodeTemplateILb0EEEPNS1_11TheoryModelERSt13unordered_setINS3_ILb1EEESt4hashIS8_ESt8equal_toIS8_ESaIS8_EE(ptr noundef nonnull align 8 dereferenceable(120) %this, ptr noundef %n, ptr noundef %tm, ptr noundef nonnull align 8 dereferenceable(56) %cache) #4 align 2 personality ptr @__gxx_personality_v0 {
entry:
  %this.addr = alloca ptr, align 8
  %n.indirect_addr = alloca ptr, align 8
  %tm.addr = alloca ptr, align 8
  %cache.addr = alloca ptr, align 8
  %ref.tmp = alloca %"struct.std::__detail::_Node_iterator", align 8
  %ref.tmp2 = alloca %"class.cvc5::internal::NodeTemplate", align 8
  %exn.slot = alloca ptr, align 8
  %ehselector.slot = alloca i32, align 4
  %ref.tmp5 = alloca %"struct.std::__detail::_Node_iterator", align 8
  %agg.tmp = alloca %"class.cvc5::internal::NodeTemplate.274", align 8
  %agg.tmp16 = alloca %"class.cvc5::internal::NodeTemplate.274", align 8
  %child_it = alloca %"class.cvc5::internal::expr::NodeValue::iterator", align 8
  %ref.tmp22 = alloca %"class.cvc5::internal::expr::NodeValue::iterator", align 8
  %agg.tmp26 = alloca %"class.cvc5::internal::NodeTemplate.274", align 8
  %ref.tmp30 = alloca %"class.cvc5::internal::NodeTemplate", align 8
  %coerce = alloca %"struct.std::pair.473", align 8
  store ptr %this, ptr %this.addr, align 8
  store ptr %n, ptr %n.indirect_addr, align 8
  store ptr %tm, ptr %tm.addr, align 8
  store ptr %cache, ptr %cache.addr, align 8
  %this1 = load ptr, ptr %this.addr, align 8
  %call = call noundef zeroext i1 @_ZNK4cvc58internal12NodeTemplateILb0EE9isClosureEv(ptr noundef nonnull align 8 dereferenceable(8) %n)
  br i1 %call, label %if.then, label %if.end

if.then:                                          ; preds = %entry
  br label %return

if.end:                                           ; preds = %entry
  %0 = load ptr, ptr %cache.addr, align 8
  call void @_ZN4cvc58internal12NodeTemplateILb1EEC2ERKNS1_ILb0EEE(ptr noundef nonnull align 8 dereferenceable(8) %ref.tmp2, ptr noundef nonnull align 8 dereferenceable(8) %n)
  %call3 = invoke ptr @_ZNSt13unordered_setIN4cvc58internal12NodeTemplateILb1EEESt4hashIS3_ESt8equal_toIS3_ESaIS3_EE4findERKS3_(ptr noundef nonnull align 8 dereferenceable(56) %0, ptr noundef nonnull align 8 dereferenceable(8) %ref.tmp2)
          to label %invoke.cont unwind label %lpad

invoke.cont:                                      ; preds = %if.end
  %coerce.dive = getelementptr inbounds %"struct.std::__detail::_Node_iterator", ptr %ref.tmp, i32 0, i32 0
  %coerce.dive4 = getelementptr inbounds %"struct.std::__detail::_Node_iterator_base", ptr %coerce.dive, i32 0, i32 0
  store ptr %call3, ptr %coerce.dive4, align 8
  %1 = load ptr, ptr %cache.addr, align 8
  %call6 = call ptr @_ZNSt13unordered_setIN4cvc58internal12NodeTemplateILb1EEESt4hashIS3_ESt8equal_toIS3_ESaIS3_EE3endEv(ptr noundef nonnull align 8 dereferenceable(56) %1) #3
  %coerce.dive7 = getelementptr inbounds %"struct.std::__detail::_Node_iterator", ptr %ref.tmp5, i32 0, i32 0
  %coerce.dive8 = getelementptr inbounds %"struct.std::__detail::_Node_iterator_base", ptr %coerce.dive7, i32 0, i32 0
  store ptr %call6, ptr %coerce.dive8, align 8
  %call9 = call noundef zeroext i1 @_ZNSt8__detailneERKNS_19_Node_iterator_baseIN4cvc58internal12NodeTemplateILb1EEELb1EEES7_(ptr noundef nonnull align 8 dereferenceable(8) %ref.tmp, ptr noundef nonnull align 8 dereferenceable(8) %ref.tmp5) #3
  call void @_ZN4cvc58internal12NodeTemplateILb1EED2Ev(ptr noundef nonnull align 8 dereferenceable(8) %ref.tmp2) #3
  br i1 %call9, label %if.then10, label %if.end11

if.then10:                                        ; preds = %invoke.cont
  br label %return

lpad:                                             ; preds = %if.end
  %2 = landingpad { ptr, i32 }
          cleanup
  %3 = extractvalue { ptr, i32 } %2, 0
  store ptr %3, ptr %exn.slot, align 8
  %4 = extractvalue { ptr, i32 } %2, 1
  store i32 %4, ptr %ehselector.slot, align 4
  call void @_ZN4cvc58internal12NodeTemplateILb1EED2Ev(ptr noundef nonnull align 8 dereferenceable(8) %ref.tmp2) #3
  br label %eh.resume

if.end11:                                         ; preds = %invoke.cont
  call void @_ZN4cvc58internal12NodeTemplateILb0EEC2ERKS2_(ptr noundef nonnull align 8 dereferenceable(8) %agg.tmp, ptr noundef nonnull align 8 dereferenceable(8) %n)
  %call14 = invoke noundef zeroext i1 @_ZN4cvc58internal6theory24TheoryEngineModelBuilder12isAssignableENS0_12NodeTemplateILb0EEE(ptr noundef nonnull align 8 dereferenceable(120) %this1, ptr noundef %agg.tmp)
          to label %invoke.cont13 unwind label %lpad12

invoke.cont13:                                    ; preds = %if.end11
  call void @_ZN4cvc58internal12NodeTemplateILb0EED2Ev(ptr noundef nonnull align 8 dereferenceable(8) %agg.tmp) #3
  br i1 %call14, label %if.then15, label %if.end19

if.then15:                                        ; preds = %invoke.cont13
  %5 = load ptr, ptr %tm.addr, align 8
  %d_equalityEngine = getelementptr inbounds %"class.cvc5::internal::theory::TheoryModel", ptr %5, i32 0, i32 2
  %6 = load ptr, ptr %d_equalityEngine, align 8
  call void @_ZN4cvc58internal12NodeTemplateILb0EEC2ERKS2_(ptr noundef nonnull align 8 dereferenceable(8) %agg.tmp16, ptr noundef nonnull align 8 dereferenceable(8) %n)
  invoke void @_ZN4cvc58internal6theory2eq14EqualityEngine7addTermENS0_12NodeTemplateILb0EEE(ptr noundef nonnull align 8 dereferenceable(1784) %6, ptr noundef %agg.tmp16)
          to label %invoke.cont18 unwind label %lpad17

invoke.cont18:                                    ; preds = %if.then15
  call void @_ZN4cvc58internal12NodeTemplateILb0EED2Ev(ptr noundef nonnull align 8 dereferenceable(8) %agg.tmp16) #3
  br label %if.end19

lpad12:                                           ; preds = %if.end11
  %7 = landingpad { ptr, i32 }
          cleanup
  %8 = extractvalue { ptr, i32 } %7, 0
  store ptr %8, ptr %exn.slot, align 8
  %9 = extractvalue { ptr, i32 } %7, 1
  store i32 %9, ptr %ehselector.slot, align 4
  call void @_ZN4cvc58internal12NodeTemplateILb0EED2Ev(ptr noundef nonnull align 8 dereferenceable(8) %agg.tmp) #3
  br label %eh.resume

lpad17:                                           ; preds = %if.then15
  %10 = landingpad { ptr, i32 }
          cleanup
  %11 = extractvalue { ptr, i32 } %10, 0
  store ptr %11, ptr %exn.slot, align 8
  %12 = extractvalue { ptr, i32 } %10, 1
  store i32 %12, ptr %ehselector.slot, align 4
  call void @_ZN4cvc58internal12NodeTemplateILb0EED2Ev(ptr noundef nonnull align 8 dereferenceable(8) %agg.tmp16) #3
  br label %eh.resume

if.end19:                                         ; preds = %invoke.cont18, %invoke.cont13
  %call20 = call ptr @_ZN4cvc58internal12NodeTemplateILb0EE5beginEv(ptr noundef nonnull align 8 dereferenceable(8) %n)
  %coerce.dive21 = getelementptr inbounds %"class.cvc5::internal::expr::NodeValue::iterator", ptr %child_it, i32 0, i32 0
  store ptr %call20, ptr %coerce.dive21, align 8
  br label %for.cond

for.cond:                                         ; preds = %for.inc, %if.end19
  %call23 = call ptr @_ZN4cvc58internal12NodeTemplateILb0EE3endEv(ptr noundef nonnull align 8 dereferenceable(8) %n)
  %coerce.dive24 = getelementptr inbounds %"class.cvc5::internal::expr::NodeValue::iterator", ptr %ref.tmp22, i32 0, i32 0
  store ptr %call23, ptr %coerce.dive24, align 8
  %call25 = call noundef zeroext i1 @_ZNK4cvc58internal4expr9NodeValue8iteratorINS0_12NodeTemplateILb0EEEEneERKS6_(ptr noundef nonnull align 8 dereferenceable(8) %child_it, ptr noundef nonnull align 8 dereferenceable(8) %ref.tmp22)
  br i1 %call25, label %for.body, label %for.end

for.body:                                         ; preds = %for.cond
  call void @_ZNK4cvc58internal4expr9NodeValue8iteratorINS0_12NodeTemplateILb0EEEEdeEv(ptr sret(%"class.cvc5::internal::NodeTemplate.274") align 8 %agg.tmp26, ptr noundef nonnull align 8 dereferenceable(8) %child_it)
  %13 = load ptr, ptr %tm.addr, align 8
  %14 = load ptr, ptr %cache.addr, align 8
  invoke void @_ZN4cvc58internal6theory24TheoryEngineModelBuilder21addAssignableSubtermsENS0_12NodeTemplateILb0EEEPNS1_11TheoryModelERSt13unordered_setINS3_ILb1EEESt4hashIS8_ESt8equal_toIS8_ESaIS8_EE(ptr noundef nonnull align 8 dereferenceable(120) %this1, ptr noundef %agg.tmp26, ptr noundef %13, ptr noundef nonnull align 8 dereferenceable(56) %14)
          to label %invoke.cont28 unwind label %lpad27

invoke.cont28:                                    ; preds = %for.body
  call void @_ZN4cvc58internal12NodeTemplateILb0EED2Ev(ptr noundef nonnull align 8 dereferenceable(8) %agg.tmp26) #3
  br label %for.inc

for.inc:                                          ; preds = %invoke.cont28
  %call29 = call noundef nonnull align 8 dereferenceable(8) ptr @_ZN4cvc58internal4expr9NodeValue8iteratorINS0_12NodeTemplateILb0EEEEppEv(ptr noundef nonnull align 8 dereferenceable(8) %child_it)
  br label %for.cond, !llvm.loop !16

lpad27:                                           ; preds = %for.body
  %15 = landingpad { ptr, i32 }
          cleanup
  %16 = extractvalue { ptr, i32 } %15, 0
  store ptr %16, ptr %exn.slot, align 8
  %17 = extractvalue { ptr, i32 } %15, 1
  store i32 %17, ptr %ehselector.slot, align 4
  call void @_ZN4cvc58internal12NodeTemplateILb0EED2Ev(ptr noundef nonnull align 8 dereferenceable(8) %agg.tmp26) #3
  br label %eh.resume

for.end:                                          ; preds = %for.cond
  %18 = load ptr, ptr %cache.addr, align 8
  call void @_ZN4cvc58internal12NodeTemplateILb1EEC2ERKNS1_ILb0EEE(ptr noundef nonnull align 8 dereferenceable(8) %ref.tmp30, ptr noundef nonnull align 8 dereferenceable(8) %n)
  %call33 = invoke { ptr, i8 } @_ZNSt13unordered_setIN4cvc58internal12NodeTemplateILb1EEESt4hashIS3_ESt8equal_toIS3_ESaIS3_EE6insertEOS3_(ptr noundef nonnull align 8 dereferenceable(56) %18, ptr noundef nonnull align 8 dereferenceable(8) %ref.tmp30)
          to label %invoke.cont32 unwind label %lpad31

invoke.cont32:                                    ; preds = %for.end
  %19 = getelementptr inbounds { ptr, i8 }, ptr %coerce, i32 0, i32 0
  %20 = extractvalue { ptr, i8 } %call33, 0
  store ptr %20, ptr %19, align 8
  %21 = getelementptr inbounds { ptr, i8 }, ptr %coerce, i32 0, i32 1
  %22 = extractvalue { ptr, i8 } %call33, 1
  store i8 %22, ptr %21, align 8
  call void @_ZN4cvc58internal12NodeTemplateILb1EED2Ev(ptr noundef nonnull align 8 dereferenceable(8) %ref.tmp30) #3
  br label %return

return:                                           ; preds = %invoke.cont32, %if.then10, %if.then
  ret void

lpad31:                                           ; preds = %for.end
  %23 = landingpad { ptr, i32 }
          cleanup
  %24 = extractvalue { ptr, i32 } %23, 0
  store ptr %24, ptr %exn.slot, align 8
  %25 = extractvalue { ptr, i32 } %23, 1
  store i32 %25, ptr %ehselector.slot, align 4
  call void @_ZN4cvc58internal12NodeTemplateILb1EED2Ev(ptr noundef nonnull align 8 dereferenceable(8) %ref.tmp30) #3
  br label %eh.resume

eh.resume:                                        ; preds = %lpad31, %lpad27, %lpad17, %lpad12, %lpad
  %exn = load ptr, ptr %exn.slot, align 8
  %sel = load i32, ptr %ehselector.slot, align 4
  %lpad.val = insertvalue { ptr, i32 } poison, ptr %exn, 0
  %lpad.val34 = insertvalue { ptr, i32 } %lpad.val, i32 %sel, 1
  resume { ptr, i32 } %lpad.val34
}

; Function Attrs: mustprogress nounwind uwtable
define linkonce_odr hidden noundef zeroext i1 @_ZNK4cvc58internal12NodeTemplateILb0EE9isClosureEv(ptr noundef nonnull align 8 dereferenceable(8) %this) #5 comdat align 2 {
entry:
  %this.addr = alloca ptr, align 8
  store ptr %this, ptr %this.addr, align 8
  %this1 = load ptr, ptr %this.addr, align 8
  call void @_ZNK4cvc58internal12NodeTemplateILb0EE21assertTNodeNotExpiredEv(ptr noundef nonnull align 8 dereferenceable(8) %this1)
  %call = call noundef i32 @_ZNK4cvc58internal12NodeTemplateILb0EE7getKindEv(ptr noundef nonnull align 8 dereferenceable(8) %this1)
  %cmp = icmp eq i32 %call, 26
  br i1 %cmp, label %lor.end, label %lor.lhs.false

lor.lhs.false:                                    ; preds = %entry
  %call2 = call noundef i32 @_ZNK4cvc58internal12NodeTemplateILb0EE7getKindEv(ptr noundef nonnull align 8 dereferenceable(8) %this1)
  %cmp3 = icmp eq i32 %call2, 352
  br i1 %cmp3, label %lor.end, label %lor.lhs.false4

lor.lhs.false4:                                   ; preds = %lor.lhs.false
  %call5 = call noundef i32 @_ZNK4cvc58internal12NodeTemplateILb0EE7getKindEv(ptr noundef nonnull align 8 dereferenceable(8) %this1)
  %cmp6 = icmp eq i32 %call5, 353
  br i1 %cmp6, label %lor.end, label %lor.lhs.false7

lor.lhs.false7:                                   ; preds = %lor.lhs.false4
  %call8 = call noundef i32 @_ZNK4cvc58internal12NodeTemplateILb0EE7getKindEv(ptr noundef nonnull align 8 dereferenceable(8) %this1)
  %cmp9 = icmp eq i32 %call8, 11
  br i1 %cmp9, label %lor.end, label %lor.lhs.false10

lor.lhs.false10:                                  ; preds = %lor.lhs.false7
  %call11 = call noundef i32 @_ZNK4cvc58internal12NodeTemplateILb0EE7getKindEv(ptr noundef nonnull align 8 dereferenceable(8) %this1)
  %cmp12 = icmp eq i32 %call11, 255
  br i1 %cmp12, label %lor.end, label %lor.rhs

lor.rhs:                                          ; preds = %lor.lhs.false10
  %call13 = call noundef i32 @_ZNK4cvc58internal12NodeTemplateILb0EE7getKindEv(ptr noundef nonnull align 8 dereferenceable(8) %this1)
  %cmp14 = icmp eq i32 %call13, 233
  br label %lor.end

lor.end:                                          ; preds = %lor.rhs, %lor.lhs.false10, %lor.lhs.false7, %lor.lhs.false4, %lor.lhs.false, %entry
  %0 = phi i1 [ true, %lor.lhs.false10 ], [ true, %lor.lhs.false7 ], [ true, %lor.lhs.false4 ], [ true, %lor.lhs.false ], [ true, %entry ], [ %cmp14, %lor.rhs ]
  ret i1 %0
}

; Function Attrs: mustprogress nounwind uwtable
define linkonce_odr noundef zeroext i1 @_ZNSt8__detailneERKNS_19_Node_iterator_baseIN4cvc58internal12NodeTemplateILb1EEELb1EEES7_(ptr noundef nonnull align 8 dereferenceable(8) %__x, ptr noundef nonnull align 8 dereferenceable(8) %__y) #5 comdat {
entry:
  %__x.addr = alloca ptr, align 8
  %__y.addr = alloca ptr, align 8
  store ptr %__x, ptr %__x.addr, align 8
  store ptr %__y, ptr %__y.addr, align 8
  %0 = load ptr, ptr %__x.addr, align 8
  %_M_cur = getelementptr inbounds %"struct.std::__detail::_Node_iterator_base", ptr %0, i32 0, i32 0
  %1 = load ptr, ptr %_M_cur, align 8
