target datalayout = "e-m:e-p270:32:32-p271:32:32-p272:64:64-i64:64-i128:128-f80:128-n8:16:32:64-S128"
target triple = "x86_64-unknown-linux-gnu"

%"class.std::ios_base::Init" = type { i8 }
%"class.cvc5::internal::NullC" = type { i8 }
%"class.cvc5::internal::TraceC" = type { ptr, %"class.std::vector.553" }
%"class.std::vector.553" = type { %"struct.std::_Vector_base.554" }
%"struct.std::_Vector_base.554" = type { %"struct.std::_Vector_base<std::__cxx11::basic_string<char>, std::allocator<std::__cxx11::basic_string<char>>>::_Vector_impl" }
%"struct.std::_Vector_base<std::__cxx11::basic_string<char>, std::allocator<std::__cxx11::basic_string<char>>>::_Vector_impl" = type { %"struct.std::_Vector_base<std::__cxx11::basic_string<char>, std::allocator<std::__cxx11::basic_string<char>>>::_Vector_impl_data" }
%"struct.std::_Vector_base<std::__cxx11::basic_string<char>, std::allocator<std::__cxx11::basic_string<char>>>::_Vector_impl_data" = type { ptr, ptr, ptr }
%"class.cvc5::internal::NodeTemplate" = type { ptr }
%"class.std::__cxx11::basic_string" = type { %"struct.std::__cxx11::basic_string<char>::_Alloc_hider", i64, %union.anon }
%"struct.std::__cxx11::basic_string<char>::_Alloc_hider" = type { ptr }
%union.anon = type { i64, [8 x i8] }
%"struct.std::piecewise_construct_t" = type { i8 }
%"class.cvc5::internal::theory::Valuation" = type { ptr }
%"class.std::allocator" = type { i8 }
%"class.cvc5::internal::theory::bags::TheoryBags" = type { %"class.cvc5::internal::theory::Theory", %"class.cvc5::internal::theory::bags::SolverState", %"class.cvc5::internal::theory::bags::InferenceManager", %"class.cvc5::internal::theory::bags::InferenceGenerator", %"class.cvc5::internal::theory::bags::TheoryBags::NotifyClass", %"class.cvc5::internal::theory::bags::BagsStatistics", %"class.cvc5::internal::theory::bags::BagsRewriter", %"class.cvc5::internal::theory::bags::TermRegistry", %"class.cvc5::internal::theory::bags::BagSolver", %"class.cvc5::internal::theory::bags::CardSolver", %"class.cvc5::internal::theory::CarePairArgumentCallback", %"class.std::map.118", %"class.cvc5::internal::theory::bags::Strategy" }
%"class.cvc5::internal::theory::Theory" = type { %"class.cvc5::internal::EnvObj", %"class.std::__cxx11::basic_string", %"class.cvc5::internal::TimerStat", %"class.cvc5::internal::TimerStat", %"class.cvc5::context::CDList", ptr, %"class.cvc5::internal::theory::Valuation", ptr, %"class.std::unique_ptr", ptr, ptr, ptr, ptr, i32, [4 x i8], %"class.cvc5::context::CDList.5", %"class.cvc5::context::CDO", %"class.cvc5::context::CDO", ptr, ptr }
%"class.cvc5::internal::EnvObj" = type { ptr, ptr }
%"class.cvc5::internal::TimerStat" = type { ptr }
%"class.cvc5::context::CDList" = type <{ %"class.cvc5::context::ContextObj", %"class.std::vector", i64, i8, %"class.cvc5::context::DefaultCleanUp", [6 x i8] }>
%"class.cvc5::context::ContextObj" = type { ptr, ptr, ptr, ptr, ptr }
%"class.std::vector" = type { %"struct.std::_Vector_base" }
%"struct.std::_Vector_base" = type { %"struct.std::_Vector_base<cvc5::internal::NodeTemplate<false>, std::allocator<cvc5::internal::NodeTemplate<false>>>::_Vector_impl" }
%"struct.std::_Vector_base<cvc5::internal::NodeTemplate<false>, std::allocator<cvc5::internal::NodeTemplate<false>>>::_Vector_impl" = type { %"struct.std::_Vector_base<cvc5::internal::NodeTemplate<false>, std::allocator<cvc5::internal::NodeTemplate<false>>>::_Vector_impl_data" }
%"struct.std::_Vector_base<cvc5::internal::NodeTemplate<false>, std::allocator<cvc5::internal::NodeTemplate<false>>>::_Vector_impl_data" = type { ptr, ptr, ptr }
%"class.cvc5::context::DefaultCleanUp" = type { i8 }
%"class.std::unique_ptr" = type { %"struct.std::__uniq_ptr_data" }
%"struct.std::__uniq_ptr_data" = type { %"class.std::__uniq_ptr_impl" }
%"class.std::__uniq_ptr_impl" = type { %"class.std::tuple" }
%"class.std::tuple" = type { %"struct.std::_Tuple_impl" }
%"struct.std::_Tuple_impl" = type { %"struct.std::_Head_base.4" }
%"struct.std::_Head_base.4" = type { ptr }
%"class.cvc5::context::CDList.5" = type <{ %"class.cvc5::context::ContextObj", %"class.std::vector.6", i64, i8, %"class.cvc5::context::DefaultCleanUp.11", [6 x i8] }>
%"class.std::vector.6" = type { %"struct.std::_Vector_base.7" }
%"struct.std::_Vector_base.7" = type { %"struct.std::_Vector_base<cvc5::internal::theory::Assertion, std::allocator<cvc5::internal::theory::Assertion>>::_Vector_impl" }
%"struct.std::_Vector_base<cvc5::internal::theory::Assertion, std::allocator<cvc5::internal::theory::Assertion>>::_Vector_impl" = type { %"struct.std::_Vector_base<cvc5::internal::theory::Assertion, std::allocator<cvc5::internal::theory::Assertion>>::_Vector_impl_data" }
%"struct.std::_Vector_base<cvc5::internal::theory::Assertion, std::allocator<cvc5::internal::theory::Assertion>>::_Vector_impl_data" = type { ptr, ptr, ptr }
%"class.cvc5::context::DefaultCleanUp.11" = type { i8 }
%"class.cvc5::context::CDO" = type <{ %"class.cvc5::context::ContextObj", i32, [4 x i8] }>
%"class.cvc5::internal::theory::bags::SolverState" = type { %"class.cvc5::internal::theory::TheoryState", %"class.cvc5::internal::NodeTemplate", %"class.cvc5::internal::NodeTemplate", ptr, %"class.std::set", %"class.std::map", %"class.std::map.22", %"class.std::map.22", %"class.cvc5::context::CDHashMap" }
%"class.cvc5::internal::theory::TheoryState" = type { %"class.cvc5::internal::EnvObj", %"class.cvc5::internal::theory::Valuation", ptr, %"class.cvc5::context::CDO.13" }
%"class.cvc5::context::CDO.13" = type <{ %"class.cvc5::context::ContextObj", i8, [7 x i8] }>
%"class.std::set" = type { %"class.std::_Rb_tree" }
%"class.std::_Rb_tree" = type { %"struct.std::_Rb_tree<cvc5::internal::NodeTemplate<true>, cvc5::internal::NodeTemplate<true>, std::_Identity<cvc5::internal::NodeTemplate<true>>, std::less<cvc5::internal::NodeTemplate<true>>>::_Rb_tree_impl" }
%"struct.std::_Rb_tree<cvc5::internal::NodeTemplate<true>, cvc5::internal::NodeTemplate<true>, std::_Identity<cvc5::internal::NodeTemplate<true>>, std::less<cvc5::internal::NodeTemplate<true>>>::_Rb_tree_impl" = type { %"struct.std::_Rb_tree_key_compare", %"struct.std::_Rb_tree_header" }
%"struct.std::_Rb_tree_key_compare" = type { %"struct.std::less" }
%"struct.std::less" = type { i8 }
%"struct.std::_Rb_tree_header" = type { %"struct.std::_Rb_tree_node_base", i64 }
%"struct.std::_Rb_tree_node_base" = type { i32, ptr, ptr, ptr }
%"class.std::map" = type { %"class.std::_Rb_tree.18" }
%"class.std::_Rb_tree.18" = type { %"struct.std::_Rb_tree<cvc5::internal::NodeTemplate<true>, std::pair<const cvc5::internal::NodeTemplate<true>, std::vector<std::pair<cvc5::internal::NodeTemplate<true>, cvc5::internal::NodeTemplate<true>>>>, std::_Select1st<std::pair<const cvc5::internal::NodeTemplate<true>, std::vector<std::pair<cvc5::internal::NodeTemplate<true>, cvc5::internal::NodeTemplate<true>>>>>, std::less<cvc5::internal::NodeTemplate<true>>>::_Rb_tree_impl" }
%"struct.std::_Rb_tree<cvc5::internal::NodeTemplate<true>, std::pair<const cvc5::internal::NodeTemplate<true>, std::vector<std::pair<cvc5::internal::NodeTemplate<true>, cvc5::internal::NodeTemplate<true>>>>, std::_Select1st<std::pair<const cvc5::internal::NodeTemplate<true>, std::vector<std::pair<cvc5::internal::NodeTemplate<true>, cvc5::internal::NodeTemplate<true>>>>>, std::less<cvc5::internal::NodeTemplate<true>>>::_Rb_tree_impl" = type { %"struct.std::_Rb_tree_key_compare", %"struct.std::_Rb_tree_header" }
%"class.std::map.22" = type { %"class.std::_Rb_tree.23" }
%"class.std::_Rb_tree.23" = type { %"struct.std::_Rb_tree<cvc5::internal::NodeTemplate<true>, std::pair<const cvc5::internal::NodeTemplate<true>, cvc5::internal::NodeTemplate<true>>, std::_Select1st<std::pair<const cvc5::internal::NodeTemplate<true>, cvc5::internal::NodeTemplate<true>>>, std::less<cvc5::internal::NodeTemplate<true>>>::_Rb_tree_impl" }
%"struct.std::_Rb_tree<cvc5::internal::NodeTemplate<true>, std::pair<const cvc5::internal::NodeTemplate<true>, cvc5::internal::NodeTemplate<true>>, std::_Select1st<std::pair<const cvc5::internal::NodeTemplate<true>, cvc5::internal::NodeTemplate<true>>>, std::less<cvc5::internal::NodeTemplate<true>>>::_Rb_tree_impl" = type { %"struct.std::_Rb_tree_key_compare", %"struct.std::_Rb_tree_header" }
%"class.cvc5::context::CDHashMap" = type { %"class.cvc5::context::ContextObj", %"class.std::unordered_map", ptr, ptr }
%"class.std::unordered_map" = type { %"class.std::_Hashtable" }
%"class.std::_Hashtable" = type { ptr, i64, %"struct.std::__detail::_Hash_node_base", i64, %"struct.std::__detail::_Prime_rehash_policy", ptr }
%"struct.std::__detail::_Hash_node_base" = type { ptr }
%"struct.std::__detail::_Prime_rehash_policy" = type { float, i64 }
%"class.cvc5::internal::theory::bags::InferenceManager" = type { %"class.cvc5::internal::theory::InferenceManagerBuffered.base", %"class.cvc5::internal::NodeTemplate", %"class.cvc5::internal::NodeTemplate", ptr }
%"class.cvc5::internal::theory::InferenceManagerBuffered.base" = type <{ %"class.cvc5::internal::theory::TheoryInferenceManager", %"class.std::vector.64", %"class.std::vector.64", %"class.std::map.69", i8 }>
%"class.cvc5::internal::theory::TheoryInferenceManager" = type { %"class.cvc5::internal::EnvObj", ptr, ptr, ptr, ptr, ptr, ptr, %"class.std::unique_ptr.32", %"class.std::unique_ptr.40", %"class.std::unique_ptr.48", %"class.std::unique_ptr.56", i8, %"class.cvc5::context::CDHashSet", %"class.cvc5::context::CDHashSet", i32, i32, i32, %"class.cvc5::internal::HistogramStat", %"class.cvc5::internal::HistogramStat", %"class.cvc5::internal::HistogramStat" }
%"class.std::unique_ptr.32" = type { %"struct.std::__uniq_ptr_data.33" }
%"struct.std::__uniq_ptr_data.33" = type { %"class.std::__uniq_ptr_impl.34" }
%"class.std::__uniq_ptr_impl.34" = type { %"class.std::tuple.35" }
%"class.std::tuple.35" = type { %"struct.std::_Tuple_impl.36" }
%"struct.std::_Tuple_impl.36" = type { %"struct.std::_Head_base.39" }
%"struct.std::_Head_base.39" = type { ptr }
%"class.std::unique_ptr.40" = type { %"struct.std::__uniq_ptr_data.41" }
%"struct.std::__uniq_ptr_data.41" = type { %"class.std::__uniq_ptr_impl.42" }
%"class.std::__uniq_ptr_impl.42" = type { %"class.std::tuple.43" }
%"class.std::tuple.43" = type { %"struct.std::_Tuple_impl.44" }
%"struct.std::_Tuple_impl.44" = type { %"struct.std::_Head_base.47" }
%"struct.std::_Head_base.47" = type { ptr }
%"class.std::unique_ptr.48" = type { %"struct.std::__uniq_ptr_data.49" }
%"struct.std::__uniq_ptr_data.49" = type { %"class.std::__uniq_ptr_impl.50" }
%"class.std::__uniq_ptr_impl.50" = type { %"class.std::tuple.51" }
%"class.std::tuple.51" = type { %"struct.std::_Tuple_impl.52" }
%"struct.std::_Tuple_impl.52" = type { %"struct.std::_Head_base.55" }
%"struct.std::_Head_base.55" = type { ptr }
%"class.std::unique_ptr.56" = type { %"struct.std::__uniq_ptr_data.57" }
%"struct.std::__uniq_ptr_data.57" = type { %"class.std::__uniq_ptr_impl.58" }
%"class.std::__uniq_ptr_impl.58" = type { %"class.std::tuple.59" }
%"class.std::tuple.59" = type { %"struct.std::_Tuple_impl.60" }
%"struct.std::_Tuple_impl.60" = type { %"struct.std::_Head_base.63" }
%"struct.std::_Head_base.63" = type { ptr }
%"class.cvc5::context::CDHashSet" = type { %"class.cvc5::context::CDInsertHashMap" }
%"class.cvc5::context::CDInsertHashMap" = type { %"class.cvc5::context::ContextObj", ptr, i64 }
%"class.cvc5::internal::HistogramStat" = type { ptr }
%"class.std::vector.64" = type { %"struct.std::_Vector_base.65" }
%"struct.std::_Vector_base.65" = type { %"struct.std::_Vector_base<std::unique_ptr<cvc5::internal::theory::TheoryInference>, std::allocator<std::unique_ptr<cvc5::internal::theory::TheoryInference>>>::_Vector_impl" }
%"struct.std::_Vector_base<std::unique_ptr<cvc5::internal::theory::TheoryInference>, std::allocator<std::unique_ptr<cvc5::internal::theory::TheoryInference>>>::_Vector_impl" = type { %"struct.std::_Vector_base<std::unique_ptr<cvc5::internal::theory::TheoryInference>, std::allocator<std::unique_ptr<cvc5::internal::theory::TheoryInference>>>::_Vector_impl_data" }
%"struct.std::_Vector_base<std::unique_ptr<cvc5::internal::theory::TheoryInference>, std::allocator<std::unique_ptr<cvc5::internal::theory::TheoryInference>>>::_Vector_impl_data" = type { ptr, ptr, ptr }
%"class.std::map.69" = type { %"class.std::_Rb_tree.70" }
%"class.std::_Rb_tree.70" = type { %"struct.std::_Rb_tree<cvc5::internal::NodeTemplate<true>, std::pair<const cvc5::internal::NodeTemplate<true>, bool>, std::_Select1st<std::pair<const cvc5::internal::NodeTemplate<true>, bool>>, std::less<cvc5::internal::NodeTemplate<true>>>::_Rb_tree_impl" }
%"struct.std::_Rb_tree<cvc5::internal::NodeTemplate<true>, std::pair<const cvc5::internal::NodeTemplate<true>, bool>, std::_Select1st<std::pair<const cvc5::internal::NodeTemplate<true>, bool>>, std::less<cvc5::internal::NodeTemplate<true>>>::_Rb_tree_impl" = type { %"struct.std::_Rb_tree_key_compare", %"struct.std::_Rb_tree_header" }
%"class.cvc5::internal::theory::bags::InferenceGenerator" = type { ptr, ptr, ptr, ptr, %"class.cvc5::internal::NodeTemplate", %"class.cvc5::internal::NodeTemplate", %"class.cvc5::internal::NodeTemplate" }
%"class.cvc5::internal::theory::bags::TheoryBags::NotifyClass" = type { %"class.cvc5::internal::theory::TheoryEqNotifyClass", ptr }
%"class.cvc5::internal::theory::TheoryEqNotifyClass" = type { %"class.cvc5::internal::theory::eq::EqualityEngineNotify", ptr }
%"class.cvc5::internal::theory::eq::EqualityEngineNotify" = type { ptr }
%"class.cvc5::internal::theory::bags::BagsStatistics" = type { %"class.cvc5::internal::HistogramStat.74" }
%"class.cvc5::internal::HistogramStat.74" = type { ptr }
%"class.cvc5::internal::theory::bags::BagsRewriter" = type { %"class.cvc5::internal::theory::TheoryRewriter", ptr, %"class.cvc5::internal::NodeTemplate", %"class.cvc5::internal::NodeTemplate", ptr, ptr }
%"class.cvc5::internal::theory::TheoryRewriter" = type { ptr }
%"class.cvc5::internal::theory::bags::TermRegistry" = type { %"class.cvc5::internal::EnvObj", ptr, %"class.cvc5::context::CDHashMap.75", %"class.cvc5::context::CDHashMap.75", %"class.std::map.90" }
%"class.cvc5::context::CDHashMap.75" = type { %"class.cvc5::context::ContextObj", %"class.std::unordered_map.76", ptr, ptr }
%"class.std::unordered_map.76" = type { %"class.std::_Hashtable.77" }
%"class.std::_Hashtable.77" = type { ptr, i64, %"struct.std::__detail::_Hash_node_base", i64, %"struct.std::__detail::_Prime_rehash_policy", ptr }
%"class.std::map.90" = type { %"class.std::_Rb_tree.91" }
%"class.std::_Rb_tree.91" = type { %"struct.std::_Rb_tree<cvc5::internal::TypeNode, std::pair<const cvc5::internal::TypeNode, cvc5::internal::NodeTemplate<true>>, std::_Select1st<std::pair<const cvc5::internal::TypeNode, cvc5::internal::NodeTemplate<true>>>, std::less<cvc5::internal::TypeNode>>::_Rb_tree_impl" }
%"struct.std::_Rb_tree<cvc5::internal::TypeNode, std::pair<const cvc5::internal::TypeNode, cvc5::internal::NodeTemplate<true>>, std::_Select1st<std::pair<const cvc5::internal::TypeNode, cvc5::internal::NodeTemplate<true>>>, std::less<cvc5::internal::TypeNode>>::_Rb_tree_impl" = type { %"struct.std::_Rb_tree_key_compare.95", %"struct.std::_Rb_tree_header" }
%"struct.std::_Rb_tree_key_compare.95" = type { %"struct.std::less.96" }
%"struct.std::less.96" = type { i8 }
%"class.cvc5::internal::theory::bags::BagSolver" = type { %"class.cvc5::internal::EnvObj", ptr, %"class.cvc5::internal::theory::bags::InferenceGenerator", ptr, ptr, %"class.cvc5::context::CDHashMap.98", %"class.cvc5::internal::NodeTemplate", %"class.cvc5::internal::NodeTemplate", %"class.cvc5::internal::NodeTemplate", %"class.cvc5::internal::NodeTemplate" }
%"class.cvc5::context::CDHashMap.98" = type { %"class.cvc5::context::ContextObj", %"class.std::unordered_map.99", ptr, ptr }
%"class.std::unordered_map.99" = type { %"class.std::_Hashtable.100" }
%"class.std::_Hashtable.100" = type { ptr, i64, %"struct.std::__detail::_Hash_node_base", i64, %"struct.std::__detail::_Prime_rehash_policy", ptr }
%"class.cvc5::internal::theory::bags::CardSolver" = type { %"class.cvc5::internal::EnvObj", ptr, %"class.cvc5::internal::theory::bags::InferenceGenerator", ptr, ptr, %"class.std::map.113", %"class.cvc5::internal::NodeTemplate", %"class.cvc5::internal::NodeTemplate", %"class.cvc5::internal::NodeTemplate", %"class.cvc5::internal::NodeTemplate" }
%"class.std::map.113" = type { %"class.std::_Rb_tree.114" }
%"class.std::_Rb_tree.114" = type { %"struct.std::_Rb_tree<cvc5::internal::NodeTemplate<true>, std::pair<const cvc5::internal::NodeTemplate<true>, std::set<std::vector<cvc5::internal::NodeTemplate<true>>>>, std::_Select1st<std::pair<const cvc5::internal::NodeTemplate<true>, std::set<std::vector<cvc5::internal::NodeTemplate<true>>>>>, std::less<cvc5::internal::NodeTemplate<true>>>::_Rb_tree_impl" }
%"struct.std::_Rb_tree<cvc5::internal::NodeTemplate<true>, std::pair<const cvc5::internal::NodeTemplate<true>, std::set<std::vector<cvc5::internal::NodeTemplate<true>>>>, std::_Select1st<std::pair<const cvc5::internal::NodeTemplate<true>, std::set<std::vector<cvc5::internal::NodeTemplate<true>>>>>, std::less<cvc5::internal::NodeTemplate<true>>>::_Rb_tree_impl" = type { %"struct.std::_Rb_tree_key_compare", %"struct.std::_Rb_tree_header" }
%"class.cvc5::internal::theory::CarePairArgumentCallback" = type { %"class.cvc5::internal::NodeTriePathPairProcessCallback", ptr }
%"class.cvc5::internal::NodeTriePathPairProcessCallback" = type { ptr }
%"class.std::map.118" = type { %"class.std::_Rb_tree.119" }
%"class.std::_Rb_tree.119" = type { %"struct.std::_Rb_tree<cvc5::internal::kind::Kind_t, std::pair<const cvc5::internal::kind::Kind_t, std::vector<cvc5::internal::NodeTemplate<true>>>, std::_Select1st<std::pair<const cvc5::internal::kind::Kind_t, std::vector<cvc5::internal::NodeTemplate<true>>>>, std::less<cvc5::internal::kind::Kind_t>>::_Rb_tree_impl" }
%"struct.std::_Rb_tree<cvc5::internal::kind::Kind_t, std::pair<const cvc5::internal::kind::Kind_t, std::vector<cvc5::internal::NodeTemplate<true>>>, std::_Select1st<std::pair<const cvc5::internal::kind::Kind_t, std::vector<cvc5::internal::NodeTemplate<true>>>>, std::less<cvc5::internal::kind::Kind_t>>::_Rb_tree_impl" = type { %"struct.std::_Rb_tree_key_compare.123", %"struct.std::_Rb_tree_header" }
%"struct.std::_Rb_tree_key_compare.123" = type { %"struct.std::less.124" }
%"struct.std::less.124" = type { i8 }
%"class.cvc5::internal::theory::bags::Strategy" = type { i8, %"class.std::vector.126", %"class.std::map.131" }
%"class.std::vector.126" = type { %"struct.std::_Vector_base.127" }
%"struct.std::_Vector_base.127" = type { %"struct.std::_Vector_base<std::pair<cvc5::internal::theory::bags::InferStep, unsigned long>, std::allocator<std::pair<cvc5::internal::theory::bags::InferStep, unsigned long>>>::_Vector_impl" }
%"struct.std::_Vector_base<std::pair<cvc5::internal::theory::bags::InferStep, unsigned long>, std::allocator<std::pair<cvc5::internal::theory::bags::InferStep, unsigned long>>>::_Vector_impl" = type { %"struct.std::_Vector_base<std::pair<cvc5::internal::theory::bags::InferStep, unsigned long>, std::allocator<std::pair<cvc5::internal::theory::bags::InferStep, unsigned long>>>::_Vector_impl_data" }
%"struct.std::_Vector_base<std::pair<cvc5::internal::theory::bags::InferStep, unsigned long>, std::allocator<std::pair<cvc5::internal::theory::bags::InferStep, unsigned long>>>::_Vector_impl_data" = type { ptr, ptr, ptr }
%"class.std::map.131" = type { %"class.std::_Rb_tree.132" }
%"class.std::_Rb_tree.132" = type { %"struct.std::_Rb_tree<cvc5::internal::theory::Theory::Effort, std::pair<const cvc5::internal::theory::Theory::Effort, std::pair<unsigned long, unsigned long>>, std::_Select1st<std::pair<const cvc5::internal::theory::Theory::Effort, std::pair<unsigned long, unsigned long>>>, std::less<cvc5::internal::theory::Theory::Effort>>::_Rb_tree_impl" }
%"struct.std::_Rb_tree<cvc5::internal::theory::Theory::Effort, std::pair<const cvc5::internal::theory::Theory::Effort, std::pair<unsigned long, unsigned long>>, std::_Select1st<std::pair<const cvc5::internal::theory::Theory::Effort, std::pair<unsigned long, unsigned long>>>, std::less<cvc5::internal::theory::Theory::Effort>>::_Rb_tree_impl" = type { %"struct.std::_Rb_tree_key_compare.136", %"struct.std::_Rb_tree_header" }
%"struct.std::_Rb_tree_key_compare.136" = type { %"struct.std::less.137" }
%"struct.std::less.137" = type { i8 }
%"struct.cvc5::internal::theory::EeSetupInfo" = type <{ ptr, %"class.std::__cxx11::basic_string", i8, i8, i8, i8, i8, [3 x i8] }>
%"class.cvc5::internal::TrustNode" = type { i32, %"class.cvc5::internal::NodeTemplate", ptr }
%"class.cvc5::internal::__cvc5_true" = type { i8 }
%"class.cvc5::internal::Cvc5ostream" = type { ptr, i8, ptr }
%"class.std::vector.457" = type { %"struct.std::_Vector_base.458" }
%"struct.std::_Vector_base.458" = type { %"struct.std::_Vector_base<cvc5::internal::NodeTemplate<true>, std::allocator<cvc5::internal::NodeTemplate<true>>>::_Vector_impl" }
%"struct.std::_Vector_base<cvc5::internal::NodeTemplate<true>, std::allocator<cvc5::internal::NodeTemplate<true>>>::_Vector_impl" = type { %"struct.std::_Vector_base<cvc5::internal::NodeTemplate<true>, std::allocator<cvc5::internal::NodeTemplate<true>>>::_Vector_impl_data" }
%"struct.std::_Vector_base<cvc5::internal::NodeTemplate<true>, std::allocator<cvc5::internal::NodeTemplate<true>>>::_Vector_impl_data" = type { ptr, ptr, ptr }
%"class.cvc5::internal::NodeTemplate.552" = type { ptr }
%"class.cvc5::internal::expr::NodeValue" = type { i64, i16, i32, [0 x ptr] }
%"class.cvc5::internal::TypeNode" = type { ptr }
%"class.cvc5::internal::EmptyBag" = type { %"class.std::unique_ptr.661" }
%"class.std::unique_ptr.661" = type { %"struct.std::__uniq_ptr_data.662" }
%"struct.std::__uniq_ptr_data.662" = type { %"class.std::__uniq_ptr_impl.663" }
%"class.std::__uniq_ptr_impl.663" = type { %"class.std::tuple.664" }
%"class.std::tuple.664" = type { %"struct.std::_Tuple_impl.665" }
%"struct.std::_Tuple_impl.665" = type { %"struct.std::_Head_base.668" }
%"struct.std::_Head_base.668" = type { ptr }
%"class.cvc5::internal::Rational" = type { %class.__gmp_expr }
%class.__gmp_expr = type { [1 x %struct.__mpq_struct] }
%struct.__mpq_struct = type { %struct.__mpz_struct, %struct.__mpz_struct }
%struct.__mpz_struct = type { i32, i32, ptr }
%"class.cvc5::internal::theory::SkolemLemma" = type { %"class.cvc5::internal::TrustNode", %"class.cvc5::internal::NodeTemplate" }
%"class.cvc5::internal::NodeBuilder" = type <{ %"class.cvc5::internal::expr::NodeValue", [10 x ptr], ptr, ptr, i32, [4 x i8] }>
%"class.cvc5::internal::NodeManager" = type { %"class.std::unique_ptr.563", %"class.std::unique_ptr.571", %"class.std::unordered_set", i64, ptr, ptr, i8, %"class.std::unordered_set.594", %"class.std::vector.605", [365 x %"class.cvc5::internal::NodeTemplate"], %"class.std::map.610", %"class.std::vector.615", %"class.std::vector.620", %"class.std::map.625", %"class.cvc5::internal::NodeManager::TupleTypeCache", %"class.cvc5::internal::NodeManager::RecTypeCache" }
%"class.std::unique_ptr.563" = type { %"struct.std::__uniq_ptr_data.564" }
%"struct.std::__uniq_ptr_data.564" = type { %"class.std::__uniq_ptr_impl.565" }
%"class.std::__uniq_ptr_impl.565" = type { %"class.std::tuple.566" }
%"class.std::tuple.566" = type { %"struct.std::_Tuple_impl.567" }
%"struct.std::_Tuple_impl.567" = type { %"struct.std::_Head_base.570" }
%"struct.std::_Head_base.570" = type { ptr }
%"class.std::unique_ptr.571" = type { %"struct.std::__uniq_ptr_data.572" }
%"struct.std::__uniq_ptr_data.572" = type { %"class.std::__uniq_ptr_impl.573" }
%"class.std::__uniq_ptr_impl.573" = type { %"class.std::tuple.574" }
%"class.std::tuple.574" = type { %"struct.std::_Tuple_impl.575" }
%"struct.std::_Tuple_impl.575" = type { %"struct.std::_Head_base.578" }
%"struct.std::_Head_base.578" = type { ptr }
%"class.std::unordered_set" = type { %"class.std::_Hashtable.579" }
%"class.std::_Hashtable.579" = type { ptr, i64, %"struct.std::__detail::_Hash_node_base", i64, %"struct.std::__detail::_Prime_rehash_policy", ptr }
%"class.std::unordered_set.594" = type { %"class.std::_Hashtable.595" }
%"class.std::_Hashtable.595" = type { ptr, i64, %"struct.std::__detail::_Hash_node_base", i64, %"struct.std::__detail::_Prime_rehash_policy", ptr }
%"class.std::vector.605" = type { %"struct.std::_Vector_base.606" }
%"struct.std::_Vector_base.606" = type { %"struct.std::_Vector_base<cvc5::internal::expr::NodeValue *, std::allocator<cvc5::internal::expr::NodeValue *>>::_Vector_impl" }
%"struct.std::_Vector_base<cvc5::internal::expr::NodeValue *, std::allocator<cvc5::internal::expr::NodeValue *>>::_Vector_impl" = type { %"struct.std::_Vector_base<cvc5::internal::expr::NodeValue *, std::allocator<cvc5::internal::expr::NodeValue *>>::_Vector_impl_data" }
%"struct.std::_Vector_base<cvc5::internal::expr::NodeValue *, std::allocator<cvc5::internal::expr::NodeValue *>>::_Vector_impl_data" = type { ptr, ptr, ptr }
%"class.std::map.610" = type { %"class.std::_Rb_tree.611" }
%"class.std::_Rb_tree.611" = type { %"struct.std::_Rb_tree<cvc5::internal::kind::Kind_t, std::pair<const cvc5::internal::kind::Kind_t, std::map<cvc5::internal::TypeNode, cvc5::internal::NodeTemplate<true>>>, std::_Select1st<std::pair<const cvc5::internal::kind::Kind_t, std::map<cvc5::internal::TypeNode, cvc5::internal::NodeTemplate<true>>>>, std::less<cvc5::internal::kind::Kind_t>>::_Rb_tree_impl" }
%"struct.std::_Rb_tree<cvc5::internal::kind::Kind_t, std::pair<const cvc5::internal::kind::Kind_t, std::map<cvc5::internal::TypeNode, cvc5::internal::NodeTemplate<true>>>, std::_Select1st<std::pair<const cvc5::internal::kind::Kind_t, std::map<cvc5::internal::TypeNode, cvc5::internal::NodeTemplate<true>>>>, std::less<cvc5::internal::kind::Kind_t>>::_Rb_tree_impl" = type { %"struct.std::_Rb_tree_key_compare.123", %"struct.std::_Rb_tree_header" }
%"class.std::vector.615" = type { %"struct.std::_Vector_base.616" }
%"struct.std::_Vector_base.616" = type { %"struct.std::_Vector_base<std::unique_ptr<cvc5::internal::DType>, std::allocator<std::unique_ptr<cvc5::internal::DType>>>::_Vector_impl" }
%"struct.std::_Vector_base<std::unique_ptr<cvc5::internal::DType>, std::allocator<std::unique_ptr<cvc5::internal::DType>>>::_Vector_impl" = type { %"struct.std::_Vector_base<std::unique_ptr<cvc5::internal::DType>, std::allocator<std::unique_ptr<cvc5::internal::DType>>>::_Vector_impl_data" }
%"struct.std::_Vector_base<std::unique_ptr<cvc5::internal::DType>, std::allocator<std::unique_ptr<cvc5::internal::DType>>>::_Vector_impl_data" = type { ptr, ptr, ptr }
%"class.std::vector.620" = type { %"struct.std::_Vector_base.621" }
%"struct.std::_Vector_base.621" = type { %"struct.std::_Vector_base<std::unique_ptr<cvc5::internal::Oracle>, std::allocator<std::unique_ptr<cvc5::internal::Oracle>>>::_Vector_impl" }
%"struct.std::_Vector_base<std::unique_ptr<cvc5::internal::Oracle>, std::allocator<std::unique_ptr<cvc5::internal::Oracle>>>::_Vector_impl" = type { %"struct.std::_Vector_base<std::unique_ptr<cvc5::internal::Oracle>, std::allocator<std::unique_ptr<cvc5::internal::Oracle>>>::_Vector_impl_data" }
%"struct.std::_Vector_base<std::unique_ptr<cvc5::internal::Oracle>, std::allocator<std::unique_ptr<cvc5::internal::Oracle>>>::_Vector_impl_data" = type { ptr, ptr, ptr }
%"class.std::map.625" = type { %"class.std::_Rb_tree.626" }
%"class.std::_Rb_tree.626" = type { %"struct.std::_Rb_tree<std::pair<std::__cxx11::basic_string<char>, unsigned long>, std::pair<const std::pair<std::__cxx11::basic_string<char>, unsigned long>, cvc5::internal::TypeNode>, std::_Select1st<std::pair<const std::pair<std::__cxx11::basic_string<char>, unsigned long>, cvc5::internal::TypeNode>>, std::less<std::pair<std::__cxx11::basic_string<char>, unsigned long>>>::_Rb_tree_impl" }
%"struct.std::_Rb_tree<std::pair<std::__cxx11::basic_string<char>, unsigned long>, std::pair<const std::pair<std::__cxx11::basic_string<char>, unsigned long>, cvc5::internal::TypeNode>, std::_Select1st<std::pair<const std::pair<std::__cxx11::basic_string<char>, unsigned long>, cvc5::internal::TypeNode>>, std::less<std::pair<std::__cxx11::basic_string<char>, unsigned long>>>::_Rb_tree_impl" = type { %"struct.std::_Rb_tree_key_compare.630", %"struct.std::_Rb_tree_header" }
%"struct.std::_Rb_tree_key_compare.630" = type { %"struct.std::less.631" }
%"struct.std::less.631" = type { i8 }
%"class.cvc5::internal::NodeManager::TupleTypeCache" = type { %"class.std::map.633", %"class.cvc5::internal::TypeNode" }
%"class.std::map.633" = type { %"class.std::_Rb_tree.634" }
%"class.std::_Rb_tree.634" = type { %"struct.std::_Rb_tree<cvc5::internal::TypeNode, std::pair<const cvc5::internal::TypeNode, cvc5::internal::NodeManager::TupleTypeCache>, std::_Select1st<std::pair<const cvc5::internal::TypeNode, cvc5::internal::NodeManager::TupleTypeCache>>, std::less<cvc5::internal::TypeNode>>::_Rb_tree_impl" }
%"struct.std::_Rb_tree<cvc5::internal::TypeNode, std::pair<const cvc5::internal::TypeNode, cvc5::internal::NodeManager::TupleTypeCache>, std::_Select1st<std::pair<const cvc5::internal::TypeNode, cvc5::internal::NodeManager::TupleTypeCache>>, std::less<cvc5::internal::TypeNode>>::_Rb_tree_impl" = type { %"struct.std::_Rb_tree_key_compare.95", %"struct.std::_Rb_tree_header" }
%"class.cvc5::internal::NodeManager::RecTypeCache" = type { %"class.std::map.638", %"class.cvc5::internal::TypeNode" }
%"class.std::map.638" = type { %"class.std::_Rb_tree.639" }
%"class.std::_Rb_tree.639" = type { %"struct.std::_Rb_tree<cvc5::internal::TypeNode, std::pair<const cvc5::internal::TypeNode, std::map<std::__cxx11::basic_string<char>, cvc5::internal::NodeManager::RecTypeCache>>, std::_Select1st<std::pair<const cvc5::internal::TypeNode, std::map<std::__cxx11::basic_string<char>, cvc5::internal::NodeManager::RecTypeCache>>>, std::less<cvc5::internal::TypeNode>>::_Rb_tree_impl" }
%"struct.std::_Rb_tree<cvc5::internal::TypeNode, std::pair<const cvc5::internal::TypeNode, std::map<std::__cxx11::basic_string<char>, cvc5::internal::NodeManager::RecTypeCache>>, std::_Select1st<std::pair<const cvc5::internal::TypeNode, std::map<std::__cxx11::basic_string<char>, cvc5::internal::NodeManager::RecTypeCache>>>, std::less<cvc5::internal::TypeNode>>::_Rb_tree_impl" = type { %"struct.std::_Rb_tree_key_compare.95", %"struct.std::_Rb_tree_header" }
%"class.std::__cxx11::basic_stringstream" = type { %"class.std::basic_iostream.base", %"class.std::__cxx11::basic_stringbuf", %"class.std::basic_ios" }
%"class.std::basic_iostream.base" = type { %"class.std::basic_istream.base", %"class.std::basic_ostream.base" }
%"class.std::basic_istream.base" = type { ptr, i64 }
%"class.std::basic_ostream.base" = type { ptr }
%"class.std::__cxx11::basic_stringbuf" = type { %"class.std::basic_streambuf", i32, %"class.std::__cxx11::basic_string" }
%"class.std::basic_streambuf" = type { ptr, ptr, ptr, ptr, ptr, ptr, ptr, %"class.std::locale" }
%"class.std::locale" = type { ptr }
%"class.std::basic_ios" = type { %"class.std::ios_base", ptr, i8, i8, ptr, ptr, ptr, ptr }
%"class.std::ios_base" = type { ptr, i64, i64, i32, i32, i32, ptr, %"struct.std::ios_base::_Words", [8 x %"struct.std::ios_base::_Words"], i32, ptr, %"class.std::locale" }
%"struct.std::ios_base::_Words" = type { ptr, i64 }
%class.__gmp_expr.816 = type { [1 x %struct.__mpz_struct] }
%"class.cvc5::internal::theory::eq::EqClassesIterator" = type { ptr, i64 }
%"class.cvc5::internal::theory::eq::EqClassIterator" = type { ptr, i32, i32 }
%"struct.std::_Rb_tree_iterator.749" = type { ptr }
%"struct.std::_Rb_tree_const_iterator.838" = type { ptr }
%"class.std::tuple.839" = type { %"struct.std::_Tuple_impl.840" }
%"struct.std::_Tuple_impl.840" = type { %"struct.std::_Head_base.841" }
%"struct.std::_Head_base.841" = type { ptr }
%"class.std::tuple.833" = type { i8 }
%"struct.std::pair.750" = type { i32, %"class.std::vector.457" }
%"class.__gnu_cxx::__normal_iterator.748" = type { ptr }
%"class.__gnu_cxx::__normal_iterator" = type { ptr }
%"struct.std::pair" = type { i32, i64 }
%"class.__gnu_cxx::__normal_iterator.817" = type { ptr }
%"class.cvc5::internal::FatalStream" = type { i8 }
%"struct.std::_Rb_tree_const_iterator" = type { ptr }
%"struct.std::_Rb_tree_iterator" = type { ptr }
%"class.std::vector.669" = type { %"struct.std::_Vector_base.670" }
%"struct.std::_Vector_base.670" = type { %"struct.std::_Vector_base<std::pair<cvc5::internal::NodeTemplate<true>, cvc5::internal::NodeTemplate<true>>, std::allocator<std::pair<cvc5::internal::NodeTemplate<true>, cvc5::internal::NodeTemplate<true>>>>::_Vector_impl" }
%"struct.std::_Vector_base<std::pair<cvc5::internal::NodeTemplate<true>, cvc5::internal::NodeTemplate<true>>, std::allocator<std::pair<cvc5::internal::NodeTemplate<true>, cvc5::internal::NodeTemplate<true>>>>::_Vector_impl" = type { %"struct.std::_Vector_base<std::pair<cvc5::internal::NodeTemplate<true>, cvc5::internal::NodeTemplate<true>>, std::allocator<std::pair<cvc5::internal::NodeTemplate<true>, cvc5::internal::NodeTemplate<true>>>>::_Vector_impl_data" }
%"struct.std::_Vector_base<std::pair<cvc5::internal::NodeTemplate<true>, cvc5::internal::NodeTemplate<true>>, std::allocator<std::pair<cvc5::internal::NodeTemplate<true>, cvc5::internal::NodeTemplate<true>>>>::_Vector_impl_data" = type { ptr, ptr, ptr }
%"class.__gnu_cxx::__normal_iterator.674" = type { ptr }
%"struct.std::pair.675" = type { %"class.cvc5::internal::NodeTemplate", %"class.cvc5::internal::NodeTemplate" }
%"class.__gnu_cxx::__normal_iterator.677" = type { ptr }
%"struct.std::_Rb_tree_const_iterator.829" = type { ptr }
%"class.std::tuple.830" = type { %"struct.std::_Tuple_impl.831" }
%"struct.std::_Tuple_impl.831" = type { %"struct.std::_Head_base.832" }
%"struct.std::_Head_base.832" = type { ptr }
%"struct.std::pair.821" = type { %"class.cvc5::internal::NodeTemplate", %"class.cvc5::internal::NodeTemplate" }
%class.__gmp_expr.818 = type { %struct.__gmp_binary_expr }
%struct.__gmp_binary_expr = type { ptr, ptr }
%"class.std::map.752" = type { %"class.std::_Rb_tree.753" }
%"class.std::_Rb_tree.753" = type { %"struct.std::_Rb_tree<cvc5::internal::TypeNode, std::pair<const cvc5::internal::TypeNode, cvc5::internal::NodeTemplateTrie<false>>, std::_Select1st<std::pair<const cvc5::internal::TypeNode, cvc5::internal::NodeTemplateTrie<false>>>, std::less<cvc5::internal::TypeNode>>::_Rb_tree_impl" }
%"struct.std::_Rb_tree<cvc5::internal::TypeNode, std::pair<const cvc5::internal::TypeNode, cvc5::internal::NodeTemplateTrie<false>>, std::_Select1st<std::pair<const cvc5::internal::TypeNode, cvc5::internal::NodeTemplateTrie<false>>>, std::less<cvc5::internal::TypeNode>>::_Rb_tree_impl" = type { %"struct.std::_Rb_tree_key_compare.95", %"struct.std::_Rb_tree_header" }
%"class.__gnu_cxx::__normal_iterator.757" = type { ptr }
%"struct.std::_Rb_tree_iterator.765" = type { ptr }
%"struct.std::pair.766" = type { %"class.cvc5::internal::TypeNode", %"class.cvc5::internal::NodeTemplateTrie" }
%"class.cvc5::internal::NodeTemplateTrie" = type { %"class.std::map.758" }
%"class.std::map.758" = type { %"class.std::_Rb_tree.759" }
%"class.std::_Rb_tree.759" = type { %"struct.std::_Rb_tree<cvc5::internal::NodeTemplate<false>, std::pair<const cvc5::internal::NodeTemplate<false>, cvc5::internal::NodeTemplateTrie<false>>, std::_Select1st<std::pair<const cvc5::internal::NodeTemplate<false>, cvc5::internal::NodeTemplateTrie<false>>>, std::less<cvc5::internal::NodeTemplate<false>>>::_Rb_tree_impl" }
%"struct.std::_Rb_tree<cvc5::internal::NodeTemplate<false>, std::pair<const cvc5::internal::NodeTemplate<false>, cvc5::internal::NodeTemplateTrie<false>>, std::_Select1st<std::pair<const cvc5::internal::NodeTemplate<false>, cvc5::internal::NodeTemplateTrie<false>>>, std::less<cvc5::internal::NodeTemplate<false>>>::_Rb_tree_impl" = type { %"struct.std::_Rb_tree_key_compare.763", %"struct.std::_Rb_tree_header" }
%"struct.std::_Rb_tree_key_compare.763" = type { %"struct.std::less.764" }
%"struct.std::less.764" = type { i8 }
%"struct.std::_Rb_tree_const_iterator.847" = type { ptr }
%"class.std::tuple.848" = type { %"struct.std::_Tuple_impl.849" }
%"struct.std::_Tuple_impl.849" = type { %"struct.std::_Head_base.850" }
%"struct.std::_Head_base.850" = type { ptr }
%"struct.std::_Rb_tree_node" = type { %"struct.std::_Rb_tree_node_base", %"struct.__gnu_cxx::__aligned_membuf" }
%"struct.__gnu_cxx::__aligned_membuf" = type { [32 x i8] }
%"struct.std::_Rb_tree_node.768" = type { %"struct.std::_Rb_tree_node_base", %"struct.__gnu_cxx::__aligned_membuf.769" }
%"struct.__gnu_cxx::__aligned_membuf.769" = type { [16 x i8] }
%"struct.std::pair.770" = type { %"class.cvc5::internal::TypeNode", %"class.cvc5::internal::NodeTemplate" }
%"struct.std::__detail::_Node_iterator" = type { %"struct.std::__detail::_Node_iterator_base" }
%"struct.std::__detail::_Node_iterator_base" = type { ptr }
%"struct.std::pair.772" = type { %"class.cvc5::internal::NodeTemplate", ptr }
%"class.cvc5::context::CDOhash_map" = type { %"class.cvc5::context::ContextObj", %"struct.std::pair.774", ptr, ptr, ptr }
%"struct.std::pair.774" = type { %"class.cvc5::internal::NodeTemplate", %"class.cvc5::internal::NodeTemplate" }
%"struct.std::__detail::_Hash_node_value_base" = type { %"struct.__gnu_cxx::__aligned_buffer" }
%"struct.__gnu_cxx::__aligned_buffer" = type { %"union.std::aligned_storage<16, 8>::type" }
%"union.std::aligned_storage<16, 8>::type" = type { [16 x i8] }
%"class.std::allocator.776" = type { i8 }
%"class.cvc5::internal::OstreamVoider" = type { i8 }
%"class.cvc5::internal::theory::InferenceManagerBuffered" = type <{ %"class.cvc5::internal::theory::TheoryInferenceManager", %"class.std::vector.64", %"class.std::vector.64", %"class.std::map.69", i8, [7 x i8] }>
%"struct.std::_Rb_tree_node.779" = type { %"struct.std::_Rb_tree_node_base", %"struct.__gnu_cxx::__aligned_membuf.780" }
%"struct.__gnu_cxx::__aligned_membuf.780" = type { [16 x i8] }
%"struct.std::pair.781" = type <{ %"class.cvc5::internal::NodeTemplate", i8, [7 x i8] }>
%"class.std::unique_ptr.783" = type { %"struct.std::__uniq_ptr_data.784" }
%"struct.std::__uniq_ptr_data.784" = type { %"class.std::__uniq_ptr_impl.785" }
%"class.std::__uniq_ptr_impl.785" = type { %"class.std::tuple.786" }
%"class.std::tuple.786" = type { %"struct.std::_Tuple_impl.787" }
%"struct.std::_Tuple_impl.787" = type { %"struct.std::_Head_base.790" }
%"struct.std::_Head_base.790" = type { ptr }
%"struct.std::__detail::_Node_iterator.791" = type { %"struct.std::__detail::_Node_iterator_base.792" }
%"struct.std::__detail::_Node_iterator_base.792" = type { ptr }
%"struct.std::pair.793" = type { %"class.cvc5::internal::NodeTemplate", ptr }
%"class.cvc5::context::CDOhash_map.795" = type { %"class.cvc5::context::ContextObj", %"struct.std::pair.796", ptr, ptr, ptr }
%"struct.std::pair.796" = type { %"class.cvc5::internal::NodeTemplate", %"class.std::shared_ptr" }
%"class.std::shared_ptr" = type { %"class.std::__shared_ptr" }
%"class.std::__shared_ptr" = type { ptr, %"class.std::__shared_count" }
%"class.std::__shared_count" = type { ptr }
%"struct.std::__detail::_Hash_node_value_base.800" = type { %"struct.__gnu_cxx::__aligned_buffer.801" }
%"struct.__gnu_cxx::__aligned_buffer.801" = type { %"union.std::aligned_storage<16, 8>::type" }
%"struct.std::_Rb_tree_node.802" = type { %"struct.std::_Rb_tree_node_base", %"struct.__gnu_cxx::__aligned_membuf.803" }
%"struct.__gnu_cxx::__aligned_membuf.803" = type { [32 x i8] }
%"struct.std::pair.804" = type { %"class.cvc5::internal::NodeTemplate", %"class.std::vector.669" }
%"struct.std::_Rb_tree_node.806" = type { %"struct.std::_Rb_tree_node_base", %"struct.__gnu_cxx::__aligned_membuf.807" }
%"struct.__gnu_cxx::__aligned_membuf.807" = type { [8 x i8] }
%"struct.__gnu_cxx::__ops::_Iter_equals_val" = type { ptr }
%"struct.std::_Rb_tree_node.819" = type { %"struct.std::_Rb_tree_node_base", %"struct.__gnu_cxx::__aligned_membuf.820" }
%"struct.__gnu_cxx::__aligned_membuf.820" = type { [16 x i8] }
%"class.cvc5::internal::Exception" = type { %"class.std::exception", %"class.std::__cxx11::basic_string" }
%"class.std::exception" = type { ptr }
%"struct.std::_Rb_tree_node.823" = type { %"struct.std::_Rb_tree_node_base", %"struct.__gnu_cxx::__aligned_membuf.824" }
%"struct.__gnu_cxx::__aligned_membuf.824" = type { [56 x i8] }
%"struct.std::_Rb_tree_node.825" = type { %"struct.std::_Rb_tree_node_base", %"struct.__gnu_cxx::__aligned_membuf.826" }
%"struct.__gnu_cxx::__aligned_membuf.826" = type { [56 x i8] }
%"struct.std::pair.827" = type { %"class.cvc5::internal::NodeTemplate.552", %"class.cvc5::internal::NodeTemplateTrie" }
%struct._Guard = type { ptr }
%"class.cvc5::internal::options::ioutils::Scope" = type <{ ptr, i8, [7 x i8], i64, i64, i8, [3 x i8], i32, i32, [4 x i8] }>
%"struct.std::_Rb_tree<cvc5::internal::NodeTemplate<true>, std::pair<const cvc5::internal::NodeTemplate<true>, cvc5::internal::NodeTemplate<true>>, std::_Select1st<std::pair<const cvc5::internal::NodeTemplate<true>, cvc5::internal::NodeTemplate<true>>>, std::less<cvc5::internal::NodeTemplate<true>>>::_Auto_node" = type { ptr, ptr }
%"struct.std::pair.834" = type { ptr, ptr }
%"struct.std::_Select1st" = type { i8 }
%"class.__gnu_cxx::__normal_iterator.837" = type { ptr }
%"struct.std::_Vector_base.559" = type { %"struct.std::_Vector_base<cvc5::internal::theory::SkolemLemma, std::allocator<cvc5::internal::theory::SkolemLemma>>::_Vector_impl" }
%"struct.std::_Vector_base<cvc5::internal::theory::SkolemLemma, std::allocator<cvc5::internal::theory::SkolemLemma>>::_Vector_impl" = type { %"struct.std::_Vector_base<cvc5::internal::theory::SkolemLemma, std::allocator<cvc5::internal::theory::SkolemLemma>>::_Vector_impl_data" }
%"struct.std::_Vector_base<cvc5::internal::theory::SkolemLemma, std::allocator<cvc5::internal::theory::SkolemLemma>>::_Vector_impl_data" = type { ptr, ptr, ptr }
%"struct.std::_Rb_tree<cvc5::internal::kind::Kind_t, std::pair<const cvc5::internal::kind::Kind_t, std::vector<cvc5::internal::NodeTemplate<true>>>, std::_Select1st<std::pair<const cvc5::internal::kind::Kind_t, std::vector<cvc5::internal::NodeTemplate<true>>>>, std::less<cvc5::internal::kind::Kind_t>>::_Auto_node" = type { ptr, ptr }
%"struct.std::_Select1st.842" = type { i8 }
%"struct.std::_Identity" = type { i8 }
%"class.__gnu_cxx::__normal_iterator.845" = type { ptr }
%"class.__gnu_cxx::__normal_iterator.846" = type { ptr }
%"struct.std::_Rb_tree<cvc5::internal::TypeNode, std::pair<const cvc5::internal::TypeNode, cvc5::internal::NodeTemplateTrie<false>>, std::_Select1st<std::pair<const cvc5::internal::TypeNode, cvc5::internal::NodeTemplateTrie<false>>>, std::less<cvc5::internal::TypeNode>>::_Auto_node" = type { ptr, ptr }
%"struct.std::_Select1st.851" = type { i8 }

$_ZNSt7__cxx1112basic_stringIcSt11char_traitsIcESaIcEEC2IS3_EEPKcRKS3_ = comdat any

$_ZN4cvc58internal6theory4bags10TheoryBags11NotifyClassC2ERS3_RNS1_22TheoryInferenceManagerE = comdat any

$_ZNSt3mapIN4cvc58internal4kind6Kind_tESt6vectorINS1_12NodeTemplateILb1EEESaIS6_EESt4lessIS3_ESaISt4pairIKS3_S8_EEEC2Ev = comdat any

$_ZNSt3mapIN4cvc58internal4kind6Kind_tESt6vectorINS1_12NodeTemplateILb1EEESaIS6_EESt4lessIS3_ESaISt4pairIKS3_S8_EEED2Ev = comdat any

$_ZN4cvc58internal6theory24CarePairArgumentCallbackD2Ev = comdat any

$_ZN4cvc58internal6theory4bags12TermRegistryD2Ev = comdat any

$_ZN4cvc58internal6theory4bags12BagsRewriterD2Ev = comdat any

$_ZN4cvc58internal6theory4bags10TheoryBags11NotifyClassD2Ev = comdat any

$_ZN4cvc58internal6theory4bags18InferenceGeneratorD2Ev = comdat any

$_ZN4cvc58internal6theory4bags16InferenceManagerD2Ev = comdat any

$_ZN4cvc58internal6theory4bags11SolverStateD2Ev = comdat any

$_ZN4cvc58internal11__cvc5_truecvbEv = comdat any

$_ZNK4cvc58internal5NullCcvNS0_11Cvc5ostreamEEv = comdat any

$_ZNK4cvc58internal6TraceCclEv = comdat any

$_ZN4cvc58internal11Cvc5ostreamlsIA23_cEERS1_RKT_ = comdat any

$_ZN4cvc58internal11Cvc5ostreamlsINS0_12NodeTemplateILb0EEEEERS1_RKT_ = comdat any

$_ZN4cvc58internal11Cvc5ostreamlsEPFRSoS2_E = comdat any

$_ZNK4cvc58internal12NodeTemplateILb0EE7getKindEv = comdat any

$_ZN4cvc58internal12NodeTemplateILb1EEC2ERKNS1_ILb0EEE = comdat any

$_ZN4cvc58internal12NodeTemplateILb1EED2Ev = comdat any

$_ZNSt6vectorIN4cvc58internal12NodeTemplateILb1EEESaIS3_EEC2Ev = comdat any

$_ZN4cvc58internal11NodeManager6mkNodeILb1EEENS0_12NodeTemplateILb1EEENS0_4kind6Kind_tERKSt6vectorINS3_IXT_EEESaIS8_EE = comdat any

$_ZN4cvc58internal12NodeTemplateILb0EEC2ERKNS1_ILb1EEE = comdat any

$_ZN4cvc58internal12NodeTemplateILb0EED2Ev = comdat any

$_ZN4cvc58internal11Cvc5ostreamlsIA8_cEERS1_RKT_ = comdat any

$_ZN4cvc58internal11Cvc5ostreamlsIA5_cEERS1_RKT_ = comdat any

$_ZN4cvc58internal11Cvc5ostreamlsINS0_12NodeTemplateILb1EEEEERS1_RKT_ = comdat any

$_ZN4cvc58internal11Cvc5ostreamlsIA12_cEERS1_RKT_ = comdat any

$_ZN4cvc58internal12NodeTemplateILb0EEC2ERKS2_ = comdat any

$_ZN4cvc58internal12NodeTemplateILb1EEC2ERKS2_ = comdat any

$_ZNSt6vectorIN4cvc58internal12NodeTemplateILb1EEESaIS3_EED2Ev = comdat any

$_ZN4cvc58internal11NodeManager16getSkolemManagerEv = comdat any

$_ZNK4cvc58internal12NodeTemplateILb1EEixEi = comdat any

$_ZNK4cvc58internal12NodeTemplateILb1EE7getTypeEb = comdat any

$_ZN4cvc58internal8TypeNodeD2Ev = comdat any

$_ZN4cvc58internal8TypeNodeC2ERKS1_ = comdat any

$_ZN4cvc58internal12NodeTemplateILb1EEC2Ev = comdat any

$_ZN4cvc58internal11NodeManager6mkNodeENS0_4kind6Kind_tENS0_12NodeTemplateILb0EEES5_ = comdat any

$_ZNK4cvc58internal12NodeTemplateILb1EE6eqNodeILb1EEES2_RKNS1_IXT_EEE = comdat any

$_ZN4cvc58internal8RationalC2Ei = comdat any

$_ZN4cvc58internal8RationalD2Ev = comdat any

$_ZNSt6vectorIN4cvc58internal6theory11SkolemLemmaESaIS3_EE9push_backEOS3_ = comdat any

$_ZN4cvc58internal9TrustNodeC2ERKS1_ = comdat any

$_ZN4cvc58internal6theory11SkolemLemmaD2Ev = comdat any

$_ZN4cvc58internal9TrustNodeD2Ev = comdat any

$_ZN4cvc58internal11Cvc5ostreamlsIA11_cEERS1_RKT_ = comdat any

$_ZNSt3mapIN4cvc58internal4kind6Kind_tESt6vectorINS1_12NodeTemplateILb1EEESaIS6_EESt4lessIS3_ESaISt4pairIKS3_S8_EEE5clearEv = comdat any

$_ZN4cvc58internal11Cvc5ostreamlsIA7_cEERS1_RKT_ = comdat any

$_ZNSt3mapIN4cvc58internal4kind6Kind_tESt6vectorINS1_12NodeTemplateILb1EEESaIS6_EESt4lessIS3_ESaISt4pairIKS3_S8_EEEixEOS3_ = comdat any

$_ZNK4cvc58internal12NodeTemplateILb1EE7getKindEv = comdat any

$_ZNSt6vectorIN4cvc58internal12NodeTemplateILb1EEESaIS3_EE9push_backERKS3_ = comdat any

$_ZN4cvc58internal11Cvc5ostreamlsIA2_cEERS1_RKT_ = comdat any

$_ZN4cvc58internal11Cvc5ostreamlsIA4_cEERS1_RKT_ = comdat any

$_ZN4cvc58internal11Cvc5ostreamlsIA9_cEERS1_RKT_ = comdat any

$_ZN4cvc58internal11Cvc5ostreamlsINS0_6theory6Theory6EffortEEERS1_RKT_ = comdat any

$_ZN4cvc58internal11Cvc5ostreamlsIA21_cEERS1_RKT_ = comdat any

$_ZN4cvc58internal11Cvc5ostreamlsIA20_cEERS1_RKT_ = comdat any

$_ZNK4cvc58internal6TraceC4isOnERKNSt7__cxx1112basic_stringIcSt11char_traitsIcESaIcEEE = comdat any

$_ZN4cvc58internal11Cvc5ostreamlsIA27_cEERS1_RKT_ = comdat any

$_ZN4cvc58internal11Cvc5ostreamlsIPKcEERS1_RKT_ = comdat any

$_ZN4cvc58internal11Cvc5ostreamlsIA30_cEERS1_RKT_ = comdat any

$_ZN4cvc58internal11Cvc5ostreamlsIA25_cEERS1_RKT_ = comdat any

$_ZN9__gnu_cxxneIPSt4pairIN4cvc58internal6theory4bags9InferStepEmESt6vectorIS7_SaIS7_EEEEbRKNS_17__normal_iteratorIT_T0_EESH_ = comdat any

$_ZNK9__gnu_cxx17__normal_iteratorIPSt4pairIN4cvc58internal6theory4bags9InferStepEmESt6vectorIS7_SaIS7_EEEptEv = comdat any

$_ZN9__gnu_cxx17__normal_iteratorIPSt4pairIN4cvc58internal6theory4bags9InferStepEmESt6vectorIS7_SaIS7_EEEppEv = comdat any

$_ZN4cvc58internal11Cvc5ostreamlsIA22_cEERS1_RKT_ = comdat any

$_ZN4cvc58internal11Cvc5ostreamlsINS0_6theory4bags9InferStepEEERS1_RKT_ = comdat any

$_ZN4cvc58internal11Cvc5ostreamlsIiEERS1_RKT_ = comdat any

$_ZN4cvc58internal11Cvc5ostreamlsIA6_cEERS1_RKT_ = comdat any

$_ZN4cvc58internal11Cvc5ostreamlsIA15_cEERS1_RKT_ = comdat any

$_ZN4cvc58internal11Cvc5ostreamlsIbEERS1_RKT_ = comdat any

$_ZN4cvc58internal11Cvc5ostreamlsIA16_cEERS1_RKT_ = comdat any

$_ZN4cvc58internal11Cvc5ostreamlsIA14_cEERS1_RKT_ = comdat any

$_ZN4cvc58internal11Cvc5ostreamlsIA34_cEERS1_RKT_ = comdat any

$_ZN4cvc58internal11Cvc5ostreamlsISt3setINS0_12NodeTemplateILb1EEESt4lessIS5_ESaIS5_EEEERS1_RKT_ = comdat any

$_ZNSt3mapIN4cvc58internal12NodeTemplateILb1EEES3_St4lessIS3_ESaISt4pairIKS3_S3_EEEC2Ev = comdat any

$_ZNKSt3setIN4cvc58internal12NodeTemplateILb1EEESt4lessIS3_ESaIS3_EE5beginEv = comdat any

$_ZNKSt3setIN4cvc58internal12NodeTemplateILb1EEESt4lessIS3_ESaIS3_EE3endEv = comdat any

$_ZStneRKSt23_Rb_tree_const_iteratorIN4cvc58internal12NodeTemplateILb1EEEES6_ = comdat any

$_ZNKSt23_Rb_tree_const_iteratorIN4cvc58internal12NodeTemplateILb1EEEEdeEv = comdat any

$_ZStneRKSt17_Rb_tree_iteratorISt4pairIKN4cvc58internal12NodeTemplateILb1EEES4_EES9_ = comdat any

$_ZNSt3mapIN4cvc58internal12NodeTemplateILb1EEES3_St4lessIS3_ESaISt4pairIKS3_S3_EEE4findERS7_ = comdat any

$_ZNSt3mapIN4cvc58internal12NodeTemplateILb1EEES3_St4lessIS3_ESaISt4pairIKS3_S3_EEE3endEv = comdat any

$_ZNSt6vectorISt4pairIN4cvc58internal12NodeTemplateILb1EEES4_ESaIS5_EEC2Ev = comdat any

$_ZNKSt6vectorISt4pairIN4cvc58internal12NodeTemplateILb1EEES4_ESaIS5_EE5beginEv = comdat any

$_ZNKSt6vectorISt4pairIN4cvc58internal12NodeTemplateILb1EEES4_ESaIS5_EE3endEv = comdat any

$_ZN9__gnu_cxxneIPKSt4pairIN4cvc58internal12NodeTemplateILb1EEES5_ESt6vectorIS6_SaIS6_EEEEbRKNS_17__normal_iteratorIT_T0_EESH_ = comdat any

$_ZNK9__gnu_cxx17__normal_iteratorIPKSt4pairIN4cvc58internal12NodeTemplateILb1EEES5_ESt6vectorIS6_SaIS6_EEEdeEv = comdat any

$_ZNSt4pairIN4cvc58internal12NodeTemplateILb1EEES3_EC2ERKS4_ = comdat any

$_ZSteqRKSt23_Rb_tree_const_iteratorIN4cvc58internal12NodeTemplateILb1EEEES6_ = comdat any

$_ZNKSt3setIN4cvc58internal12NodeTemplateILb1EEESt4lessIS3_ESaIS3_EE4findERKS3_ = comdat any

$_ZNSt6vectorISt4pairIN4cvc58internal12NodeTemplateILb1EEES4_ESaIS5_EE9push_backERKS5_ = comdat any

$_ZNSt4pairIN4cvc58internal12NodeTemplateILb1EEES3_ED2Ev = comdat any

$_ZN9__gnu_cxx17__normal_iteratorIPKSt4pairIN4cvc58internal12NodeTemplateILb1EEES5_ESt6vectorIS6_SaIS6_EEEppEv = comdat any

$_ZNSt6vectorISt4pairIN4cvc58internal12NodeTemplateILb1EEES4_ESaIS5_EE5beginEv = comdat any

$_ZNSt6vectorISt4pairIN4cvc58internal12NodeTemplateILb1EEES4_ESaIS5_EE3endEv = comdat any

$_ZN9__gnu_cxxneIPSt4pairIN4cvc58internal12NodeTemplateILb1EEES5_ESt6vectorIS6_SaIS6_EEEEbRKNS_17__normal_iteratorIT_T0_EESG_ = comdat any

$_ZNK9__gnu_cxx17__normal_iteratorIPSt4pairIN4cvc58internal12NodeTemplateILb1EEES5_ESt6vectorIS6_SaIS6_EEEdeEv = comdat any

$_ZNSt3mapIN4cvc58internal12NodeTemplateILb1EEES3_St4lessIS3_ESaISt4pairIKS3_S3_EEEixERS7_ = comdat any

$_ZN4cvc58internal12NodeTemplateILb1EEaSERKS2_ = comdat any

$_ZN9__gnu_cxx17__normal_iteratorIPSt4pairIN4cvc58internal12NodeTemplateILb1EEES5_ESt6vectorIS6_SaIS6_EEEppEv = comdat any

$_ZN4cvc58internal11NodeManager6mkNodeENS0_4kind6Kind_tENS0_12NodeTemplateILb0EEE = comdat any

$_ZNK4cvc58internal12NodeTemplateILb1EE6isNullEv = comdat any

$_ZNK4cvc58internal12NodeTemplateILb1EE8getConstINS0_8RationalEEERKT_v = comdat any

$_ZN4cvc58internal11Cvc5ostreamlsINS0_8RationalEEERS1_RKT_ = comdat any

$_ZN4cvc58internal11Cvc5ostreamlsIA17_cEERS1_RKT_ = comdat any

$_ZNK4cvc58internal8RationalltERKS1_ = comdat any

$_ZNK4cvc58internal8RationalmiERKS1_ = comdat any

$_ZNSt6vectorIN4cvc58internal12NodeTemplateILb1EEESaIS3_EE5beginEv = comdat any

$_ZNSt6vectorIN4cvc58internal12NodeTemplateILb1EEESaIS3_EE3endEv = comdat any

$_ZN9__gnu_cxxneIPN4cvc58internal12NodeTemplateILb1EEESt6vectorIS4_SaIS4_EEEEbRKNS_17__normal_iteratorIT_T0_EESE_ = comdat any

$_ZNK9__gnu_cxx17__normal_iteratorIPN4cvc58internal12NodeTemplateILb1EEESt6vectorIS4_SaIS4_EEEdeEv = comdat any

$_ZN9__gnu_cxx17__normal_iteratorIPN4cvc58internal12NodeTemplateILb1EEESt6vectorIS4_SaIS4_EEEppEv = comdat any

$_ZNSt3mapIN4cvc58internal12NodeTemplateILb1EEES3_St4lessIS3_ESaISt4pairIKS3_S3_EEED2Ev = comdat any

$_ZNSt6vectorISt4pairIN4cvc58internal12NodeTemplateILb1EEES4_ESaIS5_EED2Ev = comdat any

$_ZNSt23_Rb_tree_const_iteratorIN4cvc58internal12NodeTemplateILb1EEEEppEv = comdat any

$_ZN4cvc58internal11Cvc5ostreamlsISt3mapINS0_12NodeTemplateILb1EEES5_St4lessIS5_ESaISt4pairIKS5_S5_EEEEERS1_RKT_ = comdat any

$_ZN4cvc58internal12NodeTemplateILb1EE4nullEv = comdat any

$_ZN4cvc58internal11Cvc5ostreamlsIA29_cEERS1_RKT_ = comdat any

$_ZN4cvc58internal14LogicExceptionC2ERKNSt7__cxx1112basic_stringIcSt11char_traitsIcESaIcEEE = comdat any

$_ZN4cvc58internal14LogicExceptionD2Ev = comdat any

$_ZN4cvc58internal6theory2eq14EqualityEngine7addTermENS0_12NodeTemplateILb0EEE = comdat any

$_ZN4cvc58internal11Cvc5ostreamlsIA18_cEERS1_RKT_ = comdat any

$_ZN4cvc58internal11Cvc5ostreamlsIA28_cEERS1_RKT_ = comdat any

$_ZNSt3mapIN4cvc58internal4kind6Kind_tESt6vectorINS1_12NodeTemplateILb1EEESaIS6_EESt4lessIS3_ESaISt4pairIKS3_S8_EEE5beginEv = comdat any

$_ZNSt3mapIN4cvc58internal4kind6Kind_tESt6vectorINS1_12NodeTemplateILb1EEESaIS6_EESt4lessIS3_ESaISt4pairIKS3_S8_EEE3endEv = comdat any

$_ZStneRKSt17_Rb_tree_iteratorISt4pairIKN4cvc58internal4kind6Kind_tESt6vectorINS2_12NodeTemplateILb1EEESaIS8_EEEESE_ = comdat any

$_ZNKSt17_Rb_tree_iteratorISt4pairIKN4cvc58internal4kind6Kind_tESt6vectorINS2_12NodeTemplateILb1EEESaIS8_EEEEdeEv = comdat any

$_ZN4cvc58internal11Cvc5ostreamlsINS0_4kind6Kind_tEEERS1_RKT_ = comdat any

$_ZN4cvc58internal11Cvc5ostreamlsIA10_cEERS1_RKT_ = comdat any

$_ZN4cvc58internal11Cvc5ostreamlsImEERS1_RKT_ = comdat any

$_ZNKSt6vectorIN4cvc58internal12NodeTemplateILb1EEESaIS3_EE4sizeEv = comdat any

$_ZNSt3mapIN4cvc58internal8TypeNodeENS1_16NodeTemplateTrieILb0EEESt4lessIS2_ESaISt4pairIKS2_S4_EEEC2Ev = comdat any

$_ZNKSt6vectorIN4cvc58internal12NodeTemplateILb1EEESaIS3_EE5beginEv = comdat any

$_ZNKSt6vectorIN4cvc58internal12NodeTemplateILb1EEESaIS3_EE3endEv = comdat any

$_ZN9__gnu_cxxneIPKN4cvc58internal12NodeTemplateILb1EEESt6vectorIS4_SaIS4_EEEEbRKNS_17__normal_iteratorIT_T0_EESF_ = comdat any

$_ZNK9__gnu_cxx17__normal_iteratorIPKN4cvc58internal12NodeTemplateILb1EEESt6vectorIS4_SaIS4_EEEdeEv = comdat any

$_ZN4cvc58internal8TypeNodeC2Ev = comdat any

$_ZNK4cvc58internal12NodeTemplateILb0EE7getTypeEb = comdat any

$_ZN4cvc58internal8TypeNodeaSERKS1_ = comdat any

$_ZNK4cvc58internal12NodeTemplateILb0EEixEi = comdat any

$_ZNSt6vectorIN4cvc58internal12NodeTemplateILb0EEESaIS3_EEC2Ev = comdat any

$_ZNK4cvc58internal12NodeTemplateILb0EE14getNumChildrenEv = comdat any

$_ZNSt6vectorIN4cvc58internal12NodeTemplateILb0EEESaIS3_EE9push_backEOS3_ = comdat any

$_ZN4cvc58internal11Cvc5ostreamlsIA3_cEERS1_RKT_ = comdat any

$_ZN4cvc58internal11Cvc5ostreamlsISt6vectorINS0_12NodeTemplateILb0EEESaIS5_EEEERS1_RKT_ = comdat any

$_ZNSt3mapIN4cvc58internal8TypeNodeENS1_16NodeTemplateTrieILb0EEESt4lessIS2_ESaISt4pairIKS2_S4_EEEixERS8_ = comdat any

$_ZN4cvc58internal16NodeTemplateTrieILb0EE7addTermENS0_12NodeTemplateILb0EEERKSt6vectorIS4_SaIS4_EE = comdat any

$_ZNKSt6vectorIN4cvc58internal12NodeTemplateILb0EEESaIS3_EE4sizeEv = comdat any

$_ZNSt6vectorIN4cvc58internal12NodeTemplateILb0EEESaIS3_EED2Ev = comdat any

$_ZN9__gnu_cxx17__normal_iteratorIPKN4cvc58internal12NodeTemplateILb1EEESt6vectorIS4_SaIS4_EEEppEv = comdat any

$_ZNSt3mapIN4cvc58internal8TypeNodeENS1_16NodeTemplateTrieILb0EEESt4lessIS2_ESaISt4pairIKS2_S4_EEE5beginEv = comdat any

$_ZNSt3mapIN4cvc58internal8TypeNodeENS1_16NodeTemplateTrieILb0EEESt4lessIS2_ESaISt4pairIKS2_S4_EEE3endEv = comdat any

$_ZStneRKSt17_Rb_tree_iteratorISt4pairIKN4cvc58internal8TypeNodeENS2_16NodeTemplateTrieILb0EEEEESA_ = comdat any

$_ZNKSt17_Rb_tree_iteratorISt4pairIKN4cvc58internal8TypeNodeENS2_16NodeTemplateTrieILb0EEEEEdeEv = comdat any

$_ZN4cvc58internal11Cvc5ostreamlsINS0_8TypeNodeEEERS1_RKT_ = comdat any

$_ZNSt17_Rb_tree_iteratorISt4pairIKN4cvc58internal8TypeNodeENS2_16NodeTemplateTrieILb0EEEEEppEv = comdat any

$_ZNSt3mapIN4cvc58internal8TypeNodeENS1_16NodeTemplateTrieILb0EEESt4lessIS2_ESaISt4pairIKS2_S4_EEED2Ev = comdat any

$_ZNSt17_Rb_tree_iteratorISt4pairIKN4cvc58internal4kind6Kind_tESt6vectorINS2_12NodeTemplateILb1EEESaIS8_EEEEppEv = comdat any

$_ZN4cvc58internal11Cvc5ostreamlsIA19_cEERS1_RKT_ = comdat any

$_ZNK4cvc58internal12NodeTemplateILb0EE6eqNodeILb0EEENS1_ILb1EEERKNS1_IXT_EEE = comdat any

$_ZNK4cvc58internal12NodeTemplateILb1EE6orNodeILb1EEES2_RKNS1_IXT_EEE = comdat any

$_ZNK4cvc58internal12NodeTemplateILb1EE7notNodeEv = comdat any

$_ZN4cvc58internal6theory4bags10TheoryBags11NotifyClassD0Ev = comdat any

$_ZN4cvc58internal6theory19TheoryEqNotifyClass24eqNotifyTriggerPredicateENS0_12NodeTemplateILb0EEEb = comdat any

$_ZN4cvc58internal6theory19TheoryEqNotifyClass27eqNotifyTriggerTermEqualityENS1_8TheoryIdENS0_12NodeTemplateILb0EEES5_b = comdat any

$_ZN4cvc58internal6theory19TheoryEqNotifyClass25eqNotifyConstantTermMergeENS0_12NodeTemplateILb0EEES4_ = comdat any

$_ZN4cvc58internal6theory6Theory9propagateENS2_6EffortE = comdat any

$_ZN4cvc58internal6theory6Theory20needsCheckLastEffortEv = comdat any

$_ZN4cvc58internal6theory6Theory16postProcessModelEPNS1_11TheoryModelE = comdat any

$_ZN4cvc58internal6theory6Theory13ppStaticLearnENS0_12NodeTemplateILb0EEERNS0_11NodeBuilderE = comdat any

$_ZN4cvc58internal6theory6Theory15ppStaticRewriteENS0_12NodeTemplateILb0EEE = comdat any

$_ZN4cvc58internal6theory6Theory18ppNotifyAssertionsERKSt6vectorINS0_12NodeTemplateILb1EEESaIS5_EE = comdat any

$_ZN4cvc58internal6theory6Theory13notifyRestartEv = comdat any

$_ZNK4cvc58internal6theory4bags10TheoryBags8identifyB5cxx11Ev = comdat any

$_ZN4cvc58internal12NodeTemplateILb1EE6s_nullE = comdat any

$_ZN4cvc58internal4expr9NodeValue4nullEv = comdat any

$_ZN4cvc58internal12NodeTemplateILb1EEC2EPKNS0_4expr9NodeValueE = comdat any

$_ZN4cvc58internal6theory19TheoryEqNotifyClassC2ERNS1_22TheoryInferenceManagerE = comdat any

$_ZN4cvc58internal6theory2eq20EqualityEngineNotifyC2Ev = comdat any

$_ZN4cvc58internal6theory19TheoryEqNotifyClassD2Ev = comdat any

$_ZN4cvc58internal6theory19TheoryEqNotifyClassD0Ev = comdat any

$_ZN4cvc58internal6theory19TheoryEqNotifyClass16eqNotifyNewClassENS0_12NodeTemplateILb0EEE = comdat any

$_ZN4cvc58internal6theory19TheoryEqNotifyClass13eqNotifyMergeENS0_12NodeTemplateILb0EEES4_ = comdat any

$_ZN4cvc58internal6theory19TheoryEqNotifyClass16eqNotifyDisequalENS0_12NodeTemplateILb0EEES4_S4_ = comdat any

$_ZN4cvc58internal6theory2eq20EqualityEngineNotifyD2Ev = comdat any

$_ZN4cvc58internal6theory2eq20EqualityEngineNotifyD0Ev = comdat any

$_ZNSt8_Rb_treeIN4cvc58internal4kind6Kind_tESt4pairIKS3_St6vectorINS1_12NodeTemplateILb1EEESaIS8_EEESt10_Select1stISB_ESt4lessIS3_ESaISB_EEC2Ev = comdat any

$_ZNSt8_Rb_treeIN4cvc58internal4kind6Kind_tESt4pairIKS3_St6vectorINS1_12NodeTemplateILb1EEESaIS8_EEESt10_Select1stISB_ESt4lessIS3_ESaISB_EE13_Rb_tree_implISF_Lb1EEC2Ev = comdat any

$_ZNSaISt13_Rb_tree_nodeISt4pairIKN4cvc58internal4kind6Kind_tESt6vectorINS2_12NodeTemplateILb1EEESaIS8_EEEEEC2Ev = comdat any

$_ZNSt20_Rb_tree_key_compareISt4lessIN4cvc58internal4kind6Kind_tEEEC2Ev = comdat any

$_ZNSt15_Rb_tree_headerC2Ev = comdat any

$_ZNSt15__new_allocatorISt13_Rb_tree_nodeISt4pairIKN4cvc58internal4kind6Kind_tESt6vectorINS3_12NodeTemplateILb1EEESaIS9_EEEEEC2Ev = comdat any

$_ZNSt15_Rb_tree_header8_M_resetEv = comdat any

$__clang_call_terminate = comdat any

$_ZNSt8_Rb_treeIN4cvc58internal4kind6Kind_tESt4pairIKS3_St6vectorINS1_12NodeTemplateILb1EEESaIS8_EEESt10_Select1stISB_ESt4lessIS3_ESaISB_EED2Ev = comdat any

$_ZNSt8_Rb_treeIN4cvc58internal4kind6Kind_tESt4pairIKS3_St6vectorINS1_12NodeTemplateILb1EEESaIS8_EEESt10_Select1stISB_ESt4lessIS3_ESaISB_EE8_M_eraseEPSt13_Rb_tree_nodeISB_E = comdat any

$_ZNSt8_Rb_treeIN4cvc58internal4kind6Kind_tESt4pairIKS3_St6vectorINS1_12NodeTemplateILb1EEESaIS8_EEESt10_Select1stISB_ESt4lessIS3_ESaISB_EE8_M_beginEv = comdat any

$_ZNSt8_Rb_treeIN4cvc58internal4kind6Kind_tESt4pairIKS3_St6vectorINS1_12NodeTemplateILb1EEESaIS8_EEESt10_Select1stISB_ESt4lessIS3_ESaISB_EE13_Rb_tree_implISF_Lb1EED2Ev = comdat any

$_ZNSt8_Rb_treeIN4cvc58internal4kind6Kind_tESt4pairIKS3_St6vectorINS1_12NodeTemplateILb1EEESaIS8_EEESt10_Select1stISB_ESt4lessIS3_ESaISB_EE8_S_rightEPSt18_Rb_tree_node_base = comdat any

$_ZNSt8_Rb_treeIN4cvc58internal4kind6Kind_tESt4pairIKS3_St6vectorINS1_12NodeTemplateILb1EEESaIS8_EEESt10_Select1stISB_ESt4lessIS3_ESaISB_EE7_S_leftEPSt18_Rb_tree_node_base = comdat any

$_ZNSt8_Rb_treeIN4cvc58internal4kind6Kind_tESt4pairIKS3_St6vectorINS1_12NodeTemplateILb1EEESaIS8_EEESt10_Select1stISB_ESt4lessIS3_ESaISB_EE12_M_drop_nodeEPSt13_Rb_tree_nodeISB_E = comdat any

$_ZNSt8_Rb_treeIN4cvc58internal4kind6Kind_tESt4pairIKS3_St6vectorINS1_12NodeTemplateILb1EEESaIS8_EEESt10_Select1stISB_ESt4lessIS3_ESaISB_EE15_M_destroy_nodeEPSt13_Rb_tree_nodeISB_E = comdat any

$_ZNSt8_Rb_treeIN4cvc58internal4kind6Kind_tESt4pairIKS3_St6vectorINS1_12NodeTemplateILb1EEESaIS8_EEESt10_Select1stISB_ESt4lessIS3_ESaISB_EE11_M_put_nodeEPSt13_Rb_tree_nodeISB_E = comdat any

$_ZNSt16allocator_traitsISaISt13_Rb_tree_nodeISt4pairIKN4cvc58internal4kind6Kind_tESt6vectorINS3_12NodeTemplateILb1EEESaIS9_EEEEEE7destroyISC_EEvRSE_PT_ = comdat any

$_ZNSt8_Rb_treeIN4cvc58internal4kind6Kind_tESt4pairIKS3_St6vectorINS1_12NodeTemplateILb1EEESaIS8_EEESt10_Select1stISB_ESt4lessIS3_ESaISB_EE21_M_get_Node_allocatorEv = comdat any

$_ZNSt13_Rb_tree_nodeISt4pairIKN4cvc58internal4kind6Kind_tESt6vectorINS2_12NodeTemplateILb1EEESaIS8_EEEE9_M_valptrEv = comdat any

$_ZNSt15__new_allocatorISt13_Rb_tree_nodeISt4pairIKN4cvc58internal4kind6Kind_tESt6vectorINS3_12NodeTemplateILb1EEESaIS9_EEEEE7destroyISC_EEvPT_ = comdat any

$_ZNSt4pairIKN4cvc58internal4kind6Kind_tESt6vectorINS1_12NodeTemplateILb1EEESaIS7_EEED2Ev = comdat any

$_ZN9__gnu_cxx16__aligned_membufISt4pairIKN4cvc58internal4kind6Kind_tESt6vectorINS3_12NodeTemplateILb1EEESaIS9_EEEE6_M_ptrEv = comdat any

$_ZN9__gnu_cxx16__aligned_membufISt4pairIKN4cvc58internal4kind6Kind_tESt6vectorINS3_12NodeTemplateILb1EEESaIS9_EEEE7_M_addrEv = comdat any

$_ZNSt16allocator_traitsISaISt13_Rb_tree_nodeISt4pairIKN4cvc58internal4kind6Kind_tESt6vectorINS3_12NodeTemplateILb1EEESaIS9_EEEEEE10deallocateERSE_PSD_m = comdat any

$_ZNSt15__new_allocatorISt13_Rb_tree_nodeISt4pairIKN4cvc58internal4kind6Kind_tESt6vectorINS3_12NodeTemplateILb1EEESaIS9_EEEEE10deallocateEPSD_m = comdat any

$_ZNKSt8_Rb_treeIN4cvc58internal4kind6Kind_tESt4pairIKS3_St6vectorINS1_12NodeTemplateILb1EEESaIS8_EEESt10_Select1stISB_ESt4lessIS3_ESaISB_EE9_M_mbeginEv = comdat any

$_ZNSaISt13_Rb_tree_nodeISt4pairIKN4cvc58internal4kind6Kind_tESt6vectorINS2_12NodeTemplateILb1EEESaIS8_EEEEED2Ev = comdat any

$_ZNSt15__new_allocatorISt13_Rb_tree_nodeISt4pairIKN4cvc58internal4kind6Kind_tESt6vectorINS3_12NodeTemplateILb1EEESaIS9_EEEEED2Ev = comdat any

$_ZN4cvc58internal31NodeTriePathPairProcessCallbackD2Ev = comdat any

$_ZNSt3mapIN4cvc58internal8TypeNodeENS1_12NodeTemplateILb1EEESt4lessIS2_ESaISt4pairIKS2_S4_EEED2Ev = comdat any

$_ZN4cvc57context9CDHashMapINS_8internal12NodeTemplateILb1EEES4_St4hashIS4_EED2Ev = comdat any

$_ZN4cvc58internal6EnvObjD2Ev = comdat any

$_ZN4cvc58internal6theory4bags12TermRegistryD0Ev = comdat any

$_ZNSt8_Rb_treeIN4cvc58internal8TypeNodeESt4pairIKS2_NS1_12NodeTemplateILb1EEEESt10_Select1stIS7_ESt4lessIS2_ESaIS7_EED2Ev = comdat any

$_ZNSt8_Rb_treeIN4cvc58internal8TypeNodeESt4pairIKS2_NS1_12NodeTemplateILb1EEEESt10_Select1stIS7_ESt4lessIS2_ESaIS7_EE8_M_eraseEPSt13_Rb_tree_nodeIS7_E = comdat any

$_ZNSt8_Rb_treeIN4cvc58internal8TypeNodeESt4pairIKS2_NS1_12NodeTemplateILb1EEEESt10_Select1stIS7_ESt4lessIS2_ESaIS7_EE8_M_beginEv = comdat any

$_ZNSt8_Rb_treeIN4cvc58internal8TypeNodeESt4pairIKS2_NS1_12NodeTemplateILb1EEEESt10_Select1stIS7_ESt4lessIS2_ESaIS7_EE13_Rb_tree_implISB_Lb1EED2Ev = comdat any

$_ZNSt8_Rb_treeIN4cvc58internal8TypeNodeESt4pairIKS2_NS1_12NodeTemplateILb1EEEESt10_Select1stIS7_ESt4lessIS2_ESaIS7_EE8_S_rightEPSt18_Rb_tree_node_base = comdat any

$_ZNSt8_Rb_treeIN4cvc58internal8TypeNodeESt4pairIKS2_NS1_12NodeTemplateILb1EEEESt10_Select1stIS7_ESt4lessIS2_ESaIS7_EE7_S_leftEPSt18_Rb_tree_node_base = comdat any

$_ZNSt8_Rb_treeIN4cvc58internal8TypeNodeESt4pairIKS2_NS1_12NodeTemplateILb1EEEESt10_Select1stIS7_ESt4lessIS2_ESaIS7_EE12_M_drop_nodeEPSt13_Rb_tree_nodeIS7_E = comdat any

$_ZNSt8_Rb_treeIN4cvc58internal8TypeNodeESt4pairIKS2_NS1_12NodeTemplateILb1EEEESt10_Select1stIS7_ESt4lessIS2_ESaIS7_EE15_M_destroy_nodeEPSt13_Rb_tree_nodeIS7_E = comdat any

$_ZNSt8_Rb_treeIN4cvc58internal8TypeNodeESt4pairIKS2_NS1_12NodeTemplateILb1EEEESt10_Select1stIS7_ESt4lessIS2_ESaIS7_EE11_M_put_nodeEPSt13_Rb_tree_nodeIS7_E = comdat any

$_ZNSt16allocator_traitsISaISt13_Rb_tree_nodeISt4pairIKN4cvc58internal8TypeNodeENS3_12NodeTemplateILb1EEEEEEE7destroyIS8_EEvRSA_PT_ = comdat any

$_ZNSt8_Rb_treeIN4cvc58internal8TypeNodeESt4pairIKS2_NS1_12NodeTemplateILb1EEEESt10_Select1stIS7_ESt4lessIS2_ESaIS7_EE21_M_get_Node_allocatorEv = comdat any

$_ZNSt13_Rb_tree_nodeISt4pairIKN4cvc58internal8TypeNodeENS2_12NodeTemplateILb1EEEEE9_M_valptrEv = comdat any

$_ZNSt15__new_allocatorISt13_Rb_tree_nodeISt4pairIKN4cvc58internal8TypeNodeENS3_12NodeTemplateILb1EEEEEE7destroyIS8_EEvPT_ = comdat any

$_ZNSt4pairIKN4cvc58internal8TypeNodeENS1_12NodeTemplateILb1EEEED2Ev = comdat any

$_ZN9__gnu_cxx16__aligned_membufISt4pairIKN4cvc58internal8TypeNodeENS3_12NodeTemplateILb1EEEEE6_M_ptrEv = comdat any

$_ZN9__gnu_cxx16__aligned_membufISt4pairIKN4cvc58internal8TypeNodeENS3_12NodeTemplateILb1EEEEE7_M_addrEv = comdat any

$_ZNSt16allocator_traitsISaISt13_Rb_tree_nodeISt4pairIKN4cvc58internal8TypeNodeENS3_12NodeTemplateILb1EEEEEEE10deallocateERSA_PS9_m = comdat any

$_ZNSt15__new_allocatorISt13_Rb_tree_nodeISt4pairIKN4cvc58internal8TypeNodeENS3_12NodeTemplateILb1EEEEEE10deallocateEPS9_m = comdat any

$_ZNKSt8_Rb_treeIN4cvc58internal8TypeNodeESt4pairIKS2_NS1_12NodeTemplateILb1EEEESt10_Select1stIS7_ESt4lessIS2_ESaIS7_EE9_M_mbeginEv = comdat any

$_ZNSaISt13_Rb_tree_nodeISt4pairIKN4cvc58internal8TypeNodeENS2_12NodeTemplateILb1EEEEEED2Ev = comdat any

$_ZNSt15__new_allocatorISt13_Rb_tree_nodeISt4pairIKN4cvc58internal8TypeNodeENS3_12NodeTemplateILb1EEEEEED2Ev = comdat any

$_ZN4cvc57context9CDHashMapINS_8internal12NodeTemplateILb1EEES4_St4hashIS4_EE5clearEv = comdat any

$_ZNSt13unordered_mapIN4cvc58internal12NodeTemplateILb1EEEPNS0_7context11CDOhash_mapIS3_S3_St4hashIS3_EEES7_St8equal_toIS3_ESaISt4pairIKS3_S9_EEED2Ev = comdat any

$_ZN4cvc57context9CDHashMapINS_8internal12NodeTemplateILb1EEES4_St4hashIS4_EE4saveEPNS0_20ContextMemoryManagerE = comdat any

$_ZN4cvc57context9CDHashMapINS_8internal12NodeTemplateILb1EEES4_St4hashIS4_EE7restoreEPNS0_10ContextObjE = comdat any

$_ZN4cvc57context9CDHashMapINS_8internal12NodeTemplateILb1EEES4_St4hashIS4_EED0Ev = comdat any

$_ZNSt13unordered_mapIN4cvc58internal12NodeTemplateILb1EEEPNS0_7context11CDOhash_mapIS3_S3_St4hashIS3_EEES7_St8equal_toIS3_ESaISt4pairIKS3_S9_EEE5beginEv = comdat any

$_ZNSt13unordered_mapIN4cvc58internal12NodeTemplateILb1EEEPNS0_7context11CDOhash_mapIS3_S3_St4hashIS3_EEES7_St8equal_toIS3_ESaISt4pairIKS3_S9_EEE3endEv = comdat any

$_ZNSt8__detailneERKNS_19_Node_iterator_baseISt4pairIKN4cvc58internal12NodeTemplateILb1EEEPNS2_7context11CDOhash_mapIS5_S5_St4hashIS5_EEEELb1EEESG_ = comdat any

$_ZNKSt8__detail14_Node_iteratorISt4pairIKN4cvc58internal12NodeTemplateILb1EEEPNS2_7context11CDOhash_mapIS5_S5_St4hashIS5_EEEELb0ELb1EEdeEv = comdat any

$_ZN4cvc57context10ContextObj10deleteSelfEv = comdat any

$_ZNSt8__detail14_Node_iteratorISt4pairIKN4cvc58internal12NodeTemplateILb1EEEPNS2_7context11CDOhash_mapIS5_S5_St4hashIS5_EEEELb0ELb1EEppEv = comdat any

$_ZNSt13unordered_mapIN4cvc58internal12NodeTemplateILb1EEEPNS0_7context11CDOhash_mapIS3_S3_St4hashIS3_EEES7_St8equal_toIS3_ESaISt4pairIKS3_S9_EEE5clearEv = comdat any

$_ZNSt10_HashtableIN4cvc58internal12NodeTemplateILb1EEESt4pairIKS3_PNS0_7context11CDOhash_mapIS3_S3_St4hashIS3_EEEESaISC_ENSt8__detail10_Select1stESt8equal_toIS3_ES9_NSE_18_Mod_range_hashingENSE_20_Default_ranged_hashENSE_20_Prime_rehash_policyENSE_17_Hashtable_traitsILb1ELb0ELb1EEEE5beginEv = comdat any

$_ZNKSt10_HashtableIN4cvc58internal12NodeTemplateILb1EEESt4pairIKS3_PNS0_7context11CDOhash_mapIS3_S3_St4hashIS3_EEEESaISC_ENSt8__detail10_Select1stESt8equal_toIS3_ES9_NSE_18_Mod_range_hashingENSE_20_Default_ranged_hashENSE_20_Prime_rehash_policyENSE_17_Hashtable_traitsILb1ELb0ELb1EEEE8_M_beginEv = comdat any

$_ZNSt8__detail14_Node_iteratorISt4pairIKN4cvc58internal12NodeTemplateILb1EEEPNS2_7context11CDOhash_mapIS5_S5_St4hashIS5_EEEELb0ELb1EEC2EPNS_10_Hash_nodeISD_Lb1EEE = comdat any

$_ZNSt8__detail19_Node_iterator_baseISt4pairIKN4cvc58internal12NodeTemplateILb1EEEPNS2_7context11CDOhash_mapIS5_S5_St4hashIS5_EEEELb1EEC2EPNS_10_Hash_nodeISD_Lb1EEE = comdat any

$_ZNSt10_HashtableIN4cvc58internal12NodeTemplateILb1EEESt4pairIKS3_PNS0_7context11CDOhash_mapIS3_S3_St4hashIS3_EEEESaISC_ENSt8__detail10_Select1stESt8equal_toIS3_ES9_NSE_18_Mod_range_hashingENSE_20_Default_ranged_hashENSE_20_Prime_rehash_policyENSE_17_Hashtable_traitsILb1ELb0ELb1EEEE3endEv = comdat any

$_ZNSt8__detail21_Hash_node_value_baseISt4pairIKN4cvc58internal12NodeTemplateILb1EEEPNS2_7context11CDOhash_mapIS5_S5_St4hashIS5_EEEEE4_M_vEv = comdat any

$_ZNSt8__detail21_Hash_node_value_baseISt4pairIKN4cvc58internal12NodeTemplateILb1EEEPNS2_7context11CDOhash_mapIS5_S5_St4hashIS5_EEEEE9_M_valptrEv = comdat any

$_ZN9__gnu_cxx16__aligned_bufferISt4pairIKN4cvc58internal12NodeTemplateILb1EEEPNS2_7context11CDOhash_mapIS5_S5_St4hashIS5_EEEEE6_M_ptrEv = comdat any

$_ZN9__gnu_cxx16__aligned_bufferISt4pairIKN4cvc58internal12NodeTemplateILb1EEEPNS2_7context11CDOhash_mapIS5_S5_St4hashIS5_EEEEE7_M_addrEv = comdat any

$_ZNSt8__detail19_Node_iterator_baseISt4pairIKN4cvc58internal12NodeTemplateILb1EEEPNS2_7context11CDOhash_mapIS5_S5_St4hashIS5_EEEELb1EE7_M_incrEv = comdat any

$_ZNKSt8__detail10_Hash_nodeISt4pairIKN4cvc58internal12NodeTemplateILb1EEEPNS2_7context11CDOhash_mapIS5_S5_St4hashIS5_EEEELb1EE7_M_nextEv = comdat any

$_ZNSt10_HashtableIN4cvc58internal12NodeTemplateILb1EEESt4pairIKS3_PNS0_7context11CDOhash_mapIS3_S3_St4hashIS3_EEEESaISC_ENSt8__detail10_Select1stESt8equal_toIS3_ES9_NSE_18_Mod_range_hashingENSE_20_Default_ranged_hashENSE_20_Prime_rehash_policyENSE_17_Hashtable_traitsILb1ELb0ELb1EEEE5clearEv = comdat any

$_ZNSt8__detail16_Hashtable_allocISaINS_10_Hash_nodeISt4pairIKN4cvc58internal12NodeTemplateILb1EEEPNS3_7context11CDOhash_mapIS6_S6_St4hashIS6_EEEELb1EEEEE19_M_deallocate_nodesEPSF_ = comdat any

$_ZNSt8__detail16_Hashtable_allocISaINS_10_Hash_nodeISt4pairIKN4cvc58internal12NodeTemplateILb1EEEPNS3_7context11CDOhash_mapIS6_S6_St4hashIS6_EEEELb1EEEEE18_M_deallocate_nodeEPSF_ = comdat any

$_ZNSt16allocator_traitsISaINSt8__detail10_Hash_nodeISt4pairIKN4cvc58internal12NodeTemplateILb1EEEPNS3_7context11CDOhash_mapIS6_S6_St4hashIS6_EEEELb1EEEEE7destroyISE_EEvRSG_PT_ = comdat any

$_ZNSt8__detail16_Hashtable_allocISaINS_10_Hash_nodeISt4pairIKN4cvc58internal12NodeTemplateILb1EEEPNS3_7context11CDOhash_mapIS6_S6_St4hashIS6_EEEELb1EEEEE17_M_node_allocatorEv = comdat any

$_ZNSt8__detail16_Hashtable_allocISaINS_10_Hash_nodeISt4pairIKN4cvc58internal12NodeTemplateILb1EEEPNS3_7context11CDOhash_mapIS6_S6_St4hashIS6_EEEELb1EEEEE22_M_deallocate_node_ptrEPSF_ = comdat any

$_ZNSt15__new_allocatorINSt8__detail10_Hash_nodeISt4pairIKN4cvc58internal12NodeTemplateILb1EEEPNS3_7context11CDOhash_mapIS6_S6_St4hashIS6_EEEELb1EEEE7destroyISE_EEvPT_ = comdat any

$_ZNSt4pairIKN4cvc58internal12NodeTemplateILb1EEEPNS0_7context11CDOhash_mapIS3_S3_St4hashIS3_EEEED2Ev = comdat any

$_ZNSt8__detail21_Hashtable_ebo_helperILi0ESaINS_10_Hash_nodeISt4pairIKN4cvc58internal12NodeTemplateILb1EEEPNS3_7context11CDOhash_mapIS6_S6_St4hashIS6_EEEELb1EEEELb1EE6_M_getEv = comdat any

$_ZNSt19__ptr_traits_ptr_toIPNSt8__detail10_Hash_nodeISt4pairIKN4cvc58internal12NodeTemplateILb1EEEPNS3_7context11CDOhash_mapIS6_S6_St4hashIS6_EEEELb1EEESF_Lb0EE10pointer_toERSF_ = comdat any

$_ZNSt16allocator_traitsISaINSt8__detail10_Hash_nodeISt4pairIKN4cvc58internal12NodeTemplateILb1EEEPNS3_7context11CDOhash_mapIS6_S6_St4hashIS6_EEEELb1EEEEE10deallocateERSG_PSF_m = comdat any

$_ZNSt15__new_allocatorINSt8__detail10_Hash_nodeISt4pairIKN4cvc58internal12NodeTemplateILb1EEEPNS3_7context11CDOhash_mapIS6_S6_St4hashIS6_EEEELb1EEEE10deallocateEPSF_m = comdat any

$_ZNSt10_HashtableIN4cvc58internal12NodeTemplateILb1EEESt4pairIKS3_PNS0_7context11CDOhash_mapIS3_S3_St4hashIS3_EEEESaISC_ENSt8__detail10_Select1stESt8equal_toIS3_ES9_NSE_18_Mod_range_hashingENSE_20_Default_ranged_hashENSE_20_Prime_rehash_policyENSE_17_Hashtable_traitsILb1ELb0ELb1EEEED2Ev = comdat any

$_ZNSt10_HashtableIN4cvc58internal12NodeTemplateILb1EEESt4pairIKS3_PNS0_7context11CDOhash_mapIS3_S3_St4hashIS3_EEEESaISC_ENSt8__detail10_Select1stESt8equal_toIS3_ES9_NSE_18_Mod_range_hashingENSE_20_Default_ranged_hashENSE_20_Prime_rehash_policyENSE_17_Hashtable_traitsILb1ELb0ELb1EEEE21_M_deallocate_bucketsEv = comdat any

$_ZNSt8__detail16_Hashtable_allocISaINS_10_Hash_nodeISt4pairIKN4cvc58internal12NodeTemplateILb1EEEPNS3_7context11CDOhash_mapIS6_S6_St4hashIS6_EEEELb1EEEEED2Ev = comdat any

$_ZNSt10_HashtableIN4cvc58internal12NodeTemplateILb1EEESt4pairIKS3_PNS0_7context11CDOhash_mapIS3_S3_St4hashIS3_EEEESaISC_ENSt8__detail10_Select1stESt8equal_toIS3_ES9_NSE_18_Mod_range_hashingENSE_20_Default_ranged_hashENSE_20_Prime_rehash_policyENSE_17_Hashtable_traitsILb1ELb0ELb1EEEE21_M_deallocate_bucketsEPPNSE_15_Hash_node_baseEm = comdat any

$_ZNKSt10_HashtableIN4cvc58internal12NodeTemplateILb1EEESt4pairIKS3_PNS0_7context11CDOhash_mapIS3_S3_St4hashIS3_EEEESaISC_ENSt8__detail10_Select1stESt8equal_toIS3_ES9_NSE_18_Mod_range_hashingENSE_20_Default_ranged_hashENSE_20_Prime_rehash_policyENSE_17_Hashtable_traitsILb1ELb0ELb1EEEE21_M_uses_single_bucketEPPNSE_15_Hash_node_baseE = comdat any

$_ZNSt8__detail16_Hashtable_allocISaINS_10_Hash_nodeISt4pairIKN4cvc58internal12NodeTemplateILb1EEEPNS3_7context11CDOhash_mapIS6_S6_St4hashIS6_EEEELb1EEEEE21_M_deallocate_bucketsEPPNS_15_Hash_node_baseEm = comdat any

$_ZNSt19__ptr_traits_ptr_toIPPNSt8__detail15_Hash_node_baseES2_Lb0EE10pointer_toERS2_ = comdat any

$_ZNSaIPNSt8__detail15_Hash_node_baseEEC2INS_10_Hash_nodeISt4pairIKN4cvc58internal12NodeTemplateILb1EEEPNS6_7context11CDOhash_mapIS9_S9_St4hashIS9_EEEELb1EEEEERKSaIT_E = comdat any

$_ZNSt16allocator_traitsISaIPNSt8__detail15_Hash_node_baseEEE10deallocateERS3_PS2_m = comdat any

$_ZNSaIPNSt8__detail15_Hash_node_baseEED2Ev = comdat any

$_ZNSt15__new_allocatorIPNSt8__detail15_Hash_node_baseEEC2Ev = comdat any

$_ZNSt15__new_allocatorIPNSt8__detail15_Hash_node_baseEE10deallocateEPS2_m = comdat any

$_ZNSt15__new_allocatorIPNSt8__detail15_Hash_node_baseEED2Ev = comdat any

$_ZNSt8__detail21_Hashtable_ebo_helperILi0ESaINS_10_Hash_nodeISt4pairIKN4cvc58internal12NodeTemplateILb1EEEPNS3_7context11CDOhash_mapIS6_S6_St4hashIS6_EEEELb1EEEELb1EED2Ev = comdat any

$_ZNSaINSt8__detail10_Hash_nodeISt4pairIKN4cvc58internal12NodeTemplateILb1EEEPNS2_7context11CDOhash_mapIS5_S5_St4hashIS5_EEEELb1EEEED2Ev = comdat any

$_ZNSt15__new_allocatorINSt8__detail10_Hash_nodeISt4pairIKN4cvc58internal12NodeTemplateILb1EEEPNS3_7context11CDOhash_mapIS6_S6_St4hashIS6_EEEELb1EEEED2Ev = comdat any

$_ZN4cvc57context10ContextObjdlEPv = comdat any

$_ZN4cvc58internal13OstreamVoiderC2Ev = comdat any

$_ZN4cvc58internal13OstreamVoideranERSo = comdat any

$_ZN4cvc58internal6theory14TheoryRewriterD2Ev = comdat any

$_ZN4cvc58internal6theory24InferenceManagerBufferedD2Ev = comdat any

$_ZN4cvc58internal6theory4bags16InferenceManagerD0Ev = comdat any

$_ZNSt3mapIN4cvc58internal12NodeTemplateILb1EEEbSt4lessIS3_ESaISt4pairIKS3_bEEED2Ev = comdat any

$_ZNSt6vectorISt10unique_ptrIN4cvc58internal6theory15TheoryInferenceESt14default_deleteIS4_EESaIS7_EED2Ev = comdat any

$_ZNSt8_Rb_treeIN4cvc58internal12NodeTemplateILb1EEESt4pairIKS3_bESt10_Select1stIS6_ESt4lessIS3_ESaIS6_EED2Ev = comdat any

$_ZNSt8_Rb_treeIN4cvc58internal12NodeTemplateILb1EEESt4pairIKS3_bESt10_Select1stIS6_ESt4lessIS3_ESaIS6_EE8_M_eraseEPSt13_Rb_tree_nodeIS6_E = comdat any

$_ZNSt8_Rb_treeIN4cvc58internal12NodeTemplateILb1EEESt4pairIKS3_bESt10_Select1stIS6_ESt4lessIS3_ESaIS6_EE8_M_beginEv = comdat any

$_ZNSt8_Rb_treeIN4cvc58internal12NodeTemplateILb1EEESt4pairIKS3_bESt10_Select1stIS6_ESt4lessIS3_ESaIS6_EE13_Rb_tree_implISA_Lb1EED2Ev = comdat any

$_ZNSt8_Rb_treeIN4cvc58internal12NodeTemplateILb1EEESt4pairIKS3_bESt10_Select1stIS6_ESt4lessIS3_ESaIS6_EE8_S_rightEPSt18_Rb_tree_node_base = comdat any

$_ZNSt8_Rb_treeIN4cvc58internal12NodeTemplateILb1EEESt4pairIKS3_bESt10_Select1stIS6_ESt4lessIS3_ESaIS6_EE7_S_leftEPSt18_Rb_tree_node_base = comdat any

$_ZNSt8_Rb_treeIN4cvc58internal12NodeTemplateILb1EEESt4pairIKS3_bESt10_Select1stIS6_ESt4lessIS3_ESaIS6_EE12_M_drop_nodeEPSt13_Rb_tree_nodeIS6_E = comdat any

$_ZNSt8_Rb_treeIN4cvc58internal12NodeTemplateILb1EEESt4pairIKS3_bESt10_Select1stIS6_ESt4lessIS3_ESaIS6_EE15_M_destroy_nodeEPSt13_Rb_tree_nodeIS6_E = comdat any

$_ZNSt8_Rb_treeIN4cvc58internal12NodeTemplateILb1EEESt4pairIKS3_bESt10_Select1stIS6_ESt4lessIS3_ESaIS6_EE11_M_put_nodeEPSt13_Rb_tree_nodeIS6_E = comdat any

$_ZNSt16allocator_traitsISaISt13_Rb_tree_nodeISt4pairIKN4cvc58internal12NodeTemplateILb1EEEbEEEE7destroyIS7_EEvRS9_PT_ = comdat any

$_ZNSt8_Rb_treeIN4cvc58internal12NodeTemplateILb1EEESt4pairIKS3_bESt10_Select1stIS6_ESt4lessIS3_ESaIS6_EE21_M_get_Node_allocatorEv = comdat any

$_ZNSt13_Rb_tree_nodeISt4pairIKN4cvc58internal12NodeTemplateILb1EEEbEE9_M_valptrEv = comdat any

$_ZNSt15__new_allocatorISt13_Rb_tree_nodeISt4pairIKN4cvc58internal12NodeTemplateILb1EEEbEEE7destroyIS7_EEvPT_ = comdat any

$_ZNSt4pairIKN4cvc58internal12NodeTemplateILb1EEEbED2Ev = comdat any

$_ZN9__gnu_cxx16__aligned_membufISt4pairIKN4cvc58internal12NodeTemplateILb1EEEbEE6_M_ptrEv = comdat any

$_ZN9__gnu_cxx16__aligned_membufISt4pairIKN4cvc58internal12NodeTemplateILb1EEEbEE7_M_addrEv = comdat any

$_ZNSt16allocator_traitsISaISt13_Rb_tree_nodeISt4pairIKN4cvc58internal12NodeTemplateILb1EEEbEEEE10deallocateERS9_PS8_m = comdat any

$_ZNSt15__new_allocatorISt13_Rb_tree_nodeISt4pairIKN4cvc58internal12NodeTemplateILb1EEEbEEE10deallocateEPS8_m = comdat any

$_ZNKSt8_Rb_treeIN4cvc58internal12NodeTemplateILb1EEESt4pairIKS3_bESt10_Select1stIS6_ESt4lessIS3_ESaIS6_EE9_M_mbeginEv = comdat any

$_ZNSaISt13_Rb_tree_nodeISt4pairIKN4cvc58internal12NodeTemplateILb1EEEbEEED2Ev = comdat any

$_ZNSt15__new_allocatorISt13_Rb_tree_nodeISt4pairIKN4cvc58internal12NodeTemplateILb1EEEbEEED2Ev = comdat any

$_ZSt8_DestroyIPSt10unique_ptrIN4cvc58internal6theory15TheoryInferenceESt14default_deleteIS4_EES7_EvT_S9_RSaIT0_E = comdat any

$_ZNSt12_Vector_baseISt10unique_ptrIN4cvc58internal6theory15TheoryInferenceESt14default_deleteIS4_EESaIS7_EE19_M_get_Tp_allocatorEv = comdat any

$_ZNSt12_Vector_baseISt10unique_ptrIN4cvc58internal6theory15TheoryInferenceESt14default_deleteIS4_EESaIS7_EED2Ev = comdat any

$_ZSt8_DestroyIPSt10unique_ptrIN4cvc58internal6theory15TheoryInferenceESt14default_deleteIS4_EEEvT_S9_ = comdat any

$_ZNSt12_Destroy_auxILb0EE9__destroyIPSt10unique_ptrIN4cvc58internal6theory15TheoryInferenceESt14default_deleteIS6_EEEEvT_SB_ = comdat any

$_ZSt8_DestroyISt10unique_ptrIN4cvc58internal6theory15TheoryInferenceESt14default_deleteIS4_EEEvPT_ = comdat any

$_ZNSt10unique_ptrIN4cvc58internal6theory15TheoryInferenceESt14default_deleteIS3_EED2Ev = comdat any

$_ZNSt15__uniq_ptr_implIN4cvc58internal6theory15TheoryInferenceESt14default_deleteIS3_EE6_M_ptrEv = comdat any

$_ZNSt10unique_ptrIN4cvc58internal6theory15TheoryInferenceESt14default_deleteIS3_EE11get_deleterEv = comdat any

$_ZNKSt14default_deleteIN4cvc58internal6theory15TheoryInferenceEEclEPS3_ = comdat any

$_ZSt3getILm0EJPN4cvc58internal6theory15TheoryInferenceESt14default_deleteIS3_EEERNSt13tuple_elementIXT_ESt5tupleIJDpT0_EEE4typeERSB_ = comdat any

$_ZSt12__get_helperILm0EPN4cvc58internal6theory15TheoryInferenceEJSt14default_deleteIS3_EEERT0_RSt11_Tuple_implIXT_EJS7_DpT1_EE = comdat any

$_ZNSt11_Tuple_implILm0EJPN4cvc58internal6theory15TheoryInferenceESt14default_deleteIS3_EEE7_M_headERS7_ = comdat any

$_ZNSt10_Head_baseILm0EPN4cvc58internal6theory15TheoryInferenceELb0EE7_M_headERS5_ = comdat any

$_ZNSt15__uniq_ptr_implIN4cvc58internal6theory15TheoryInferenceESt14default_deleteIS3_EE10_M_deleterEv = comdat any

$_ZSt3getILm1EJPN4cvc58internal6theory15TheoryInferenceESt14default_deleteIS3_EEERNSt13tuple_elementIXT_ESt5tupleIJDpT0_EEE4typeERSB_ = comdat any

$_ZSt12__get_helperILm1ESt14default_deleteIN4cvc58internal6theory15TheoryInferenceEEJEERT0_RSt11_Tuple_implIXT_EJS6_DpT1_EE = comdat any

$_ZNSt11_Tuple_implILm1EJSt14default_deleteIN4cvc58internal6theory15TheoryInferenceEEEE7_M_headERS6_ = comdat any

$_ZNSt10_Head_baseILm1ESt14default_deleteIN4cvc58internal6theory15TheoryInferenceEELb1EE7_M_headERS6_ = comdat any

$_ZNSt12_Vector_baseISt10unique_ptrIN4cvc58internal6theory15TheoryInferenceESt14default_deleteIS4_EESaIS7_EE13_M_deallocateEPS7_m = comdat any

$_ZNSt12_Vector_baseISt10unique_ptrIN4cvc58internal6theory15TheoryInferenceESt14default_deleteIS4_EESaIS7_EE12_Vector_implD2Ev = comdat any

$_ZNSt16allocator_traitsISaISt10unique_ptrIN4cvc58internal6theory15TheoryInferenceESt14default_deleteIS4_EEEE10deallocateERS8_PS7_m = comdat any

$_ZNSt15__new_allocatorISt10unique_ptrIN4cvc58internal6theory15TheoryInferenceESt14default_deleteIS4_EEE10deallocateEPS7_m = comdat any

$_ZNSaISt10unique_ptrIN4cvc58internal6theory15TheoryInferenceESt14default_deleteIS3_EEED2Ev = comdat any

$_ZNSt15__new_allocatorISt10unique_ptrIN4cvc58internal6theory15TheoryInferenceESt14default_deleteIS4_EEED2Ev = comdat any

$_ZN4cvc57context9CDHashMapINS_8internal12NodeTemplateILb1EEESt10shared_ptrINS0_9CDHashSetIS4_St4hashIS4_EEEES8_ED2Ev = comdat any

$_ZNSt3mapIN4cvc58internal12NodeTemplateILb1EEESt6vectorISt4pairIS3_S3_ESaIS6_EESt4lessIS3_ESaIS5_IKS3_S8_EEED2Ev = comdat any

$_ZNSt3setIN4cvc58internal12NodeTemplateILb1EEESt4lessIS3_ESaIS3_EED2Ev = comdat any

$_ZN4cvc58internal6theory11TheoryStateD2Ev = comdat any

$_ZN4cvc58internal6theory4bags11SolverStateD0Ev = comdat any

$_ZN4cvc57context9CDHashMapINS_8internal12NodeTemplateILb1EEESt10shared_ptrINS0_9CDHashSetIS4_St4hashIS4_EEEES8_E5clearEv = comdat any

$_ZNSt13unordered_mapIN4cvc58internal12NodeTemplateILb1EEEPNS0_7context11CDOhash_mapIS3_St10shared_ptrINS4_9CDHashSetIS3_St4hashIS3_EEEES9_EES9_St8equal_toIS3_ESaISt4pairIKS3_SD_EEED2Ev = comdat any

$_ZN4cvc57context9CDHashMapINS_8internal12NodeTemplateILb1EEESt10shared_ptrINS0_9CDHashSetIS4_St4hashIS4_EEEES8_E4saveEPNS0_20ContextMemoryManagerE = comdat any

$_ZN4cvc57context9CDHashMapINS_8internal12NodeTemplateILb1EEESt10shared_ptrINS0_9CDHashSetIS4_St4hashIS4_EEEES8_E7restoreEPNS0_10ContextObjE = comdat any

$_ZN4cvc57context9CDHashMapINS_8internal12NodeTemplateILb1EEESt10shared_ptrINS0_9CDHashSetIS4_St4hashIS4_EEEES8_ED0Ev = comdat any

$_ZNSt13unordered_mapIN4cvc58internal12NodeTemplateILb1EEEPNS0_7context11CDOhash_mapIS3_St10shared_ptrINS4_9CDHashSetIS3_St4hashIS3_EEEES9_EES9_St8equal_toIS3_ESaISt4pairIKS3_SD_EEE5beginEv = comdat any

$_ZNSt13unordered_mapIN4cvc58internal12NodeTemplateILb1EEEPNS0_7context11CDOhash_mapIS3_St10shared_ptrINS4_9CDHashSetIS3_St4hashIS3_EEEES9_EES9_St8equal_toIS3_ESaISt4pairIKS3_SD_EEE3endEv = comdat any

$_ZNSt8__detailneERKNS_19_Node_iterator_baseISt4pairIKN4cvc58internal12NodeTemplateILb1EEEPNS2_7context11CDOhash_mapIS5_St10shared_ptrINS7_9CDHashSetIS5_St4hashIS5_EEEESC_EEELb1EEESK_ = comdat any

$_ZNKSt8__detail14_Node_iteratorISt4pairIKN4cvc58internal12NodeTemplateILb1EEEPNS2_7context11CDOhash_mapIS5_St10shared_ptrINS7_9CDHashSetIS5_St4hashIS5_EEEESC_EEELb0ELb1EEdeEv = comdat any

$_ZNSt8__detail14_Node_iteratorISt4pairIKN4cvc58internal12NodeTemplateILb1EEEPNS2_7context11CDOhash_mapIS5_St10shared_ptrINS7_9CDHashSetIS5_St4hashIS5_EEEESC_EEELb0ELb1EEppEv = comdat any

$_ZNSt13unordered_mapIN4cvc58internal12NodeTemplateILb1EEEPNS0_7context11CDOhash_mapIS3_St10shared_ptrINS4_9CDHashSetIS3_St4hashIS3_EEEES9_EES9_St8equal_toIS3_ESaISt4pairIKS3_SD_EEE5clearEv = comdat any

$_ZNSt10_HashtableIN4cvc58internal12NodeTemplateILb1EEESt4pairIKS3_PNS0_7context11CDOhash_mapIS3_St10shared_ptrINS6_9CDHashSetIS3_St4hashIS3_EEEESB_EEESaISG_ENSt8__detail10_Select1stESt8equal_toIS3_ESB_NSI_18_Mod_range_hashingENSI_20_Default_ranged_hashENSI_20_Prime_rehash_policyENSI_17_Hashtable_traitsILb1ELb0ELb1EEEE5beginEv = comdat any

$_ZNKSt10_HashtableIN4cvc58internal12NodeTemplateILb1EEESt4pairIKS3_PNS0_7context11CDOhash_mapIS3_St10shared_ptrINS6_9CDHashSetIS3_St4hashIS3_EEEESB_EEESaISG_ENSt8__detail10_Select1stESt8equal_toIS3_ESB_NSI_18_Mod_range_hashingENSI_20_Default_ranged_hashENSI_20_Prime_rehash_policyENSI_17_Hashtable_traitsILb1ELb0ELb1EEEE8_M_beginEv = comdat any

$_ZNSt8__detail14_Node_iteratorISt4pairIKN4cvc58internal12NodeTemplateILb1EEEPNS2_7context11CDOhash_mapIS5_St10shared_ptrINS7_9CDHashSetIS5_St4hashIS5_EEEESC_EEELb0ELb1EEC2EPNS_10_Hash_nodeISH_Lb1EEE = comdat any

$_ZNSt8__detail19_Node_iterator_baseISt4pairIKN4cvc58internal12NodeTemplateILb1EEEPNS2_7context11CDOhash_mapIS5_St10shared_ptrINS7_9CDHashSetIS5_St4hashIS5_EEEESC_EEELb1EEC2EPNS_10_Hash_nodeISH_Lb1EEE = comdat any

$_ZNSt10_HashtableIN4cvc58internal12NodeTemplateILb1EEESt4pairIKS3_PNS0_7context11CDOhash_mapIS3_St10shared_ptrINS6_9CDHashSetIS3_St4hashIS3_EEEESB_EEESaISG_ENSt8__detail10_Select1stESt8equal_toIS3_ESB_NSI_18_Mod_range_hashingENSI_20_Default_ranged_hashENSI_20_Prime_rehash_policyENSI_17_Hashtable_traitsILb1ELb0ELb1EEEE3endEv = comdat any

$_ZNSt8__detail21_Hash_node_value_baseISt4pairIKN4cvc58internal12NodeTemplateILb1EEEPNS2_7context11CDOhash_mapIS5_St10shared_ptrINS7_9CDHashSetIS5_St4hashIS5_EEEESC_EEEE4_M_vEv = comdat any

$_ZNSt8__detail21_Hash_node_value_baseISt4pairIKN4cvc58internal12NodeTemplateILb1EEEPNS2_7context11CDOhash_mapIS5_St10shared_ptrINS7_9CDHashSetIS5_St4hashIS5_EEEESC_EEEE9_M_valptrEv = comdat any

$_ZN9__gnu_cxx16__aligned_bufferISt4pairIKN4cvc58internal12NodeTemplateILb1EEEPNS2_7context11CDOhash_mapIS5_St10shared_ptrINS7_9CDHashSetIS5_St4hashIS5_EEEESC_EEEE6_M_ptrEv = comdat any

$_ZN9__gnu_cxx16__aligned_bufferISt4pairIKN4cvc58internal12NodeTemplateILb1EEEPNS2_7context11CDOhash_mapIS5_St10shared_ptrINS7_9CDHashSetIS5_St4hashIS5_EEEESC_EEEE7_M_addrEv = comdat any

$_ZNSt8__detail19_Node_iterator_baseISt4pairIKN4cvc58internal12NodeTemplateILb1EEEPNS2_7context11CDOhash_mapIS5_St10shared_ptrINS7_9CDHashSetIS5_St4hashIS5_EEEESC_EEELb1EE7_M_incrEv = comdat any

$_ZNKSt8__detail10_Hash_nodeISt4pairIKN4cvc58internal12NodeTemplateILb1EEEPNS2_7context11CDOhash_mapIS5_St10shared_ptrINS7_9CDHashSetIS5_St4hashIS5_EEEESC_EEELb1EE7_M_nextEv = comdat any

$_ZNSt10_HashtableIN4cvc58internal12NodeTemplateILb1EEESt4pairIKS3_PNS0_7context11CDOhash_mapIS3_St10shared_ptrINS6_9CDHashSetIS3_St4hashIS3_EEEESB_EEESaISG_ENSt8__detail10_Select1stESt8equal_toIS3_ESB_NSI_18_Mod_range_hashingENSI_20_Default_ranged_hashENSI_20_Prime_rehash_policyENSI_17_Hashtable_traitsILb1ELb0ELb1EEEE5clearEv = comdat any

$_ZNSt8__detail16_Hashtable_allocISaINS_10_Hash_nodeISt4pairIKN4cvc58internal12NodeTemplateILb1EEEPNS3_7context11CDOhash_mapIS6_St10shared_ptrINS8_9CDHashSetIS6_St4hashIS6_EEEESD_EEELb1EEEEE19_M_deallocate_nodesEPSJ_ = comdat any

$_ZNSt8__detail16_Hashtable_allocISaINS_10_Hash_nodeISt4pairIKN4cvc58internal12NodeTemplateILb1EEEPNS3_7context11CDOhash_mapIS6_St10shared_ptrINS8_9CDHashSetIS6_St4hashIS6_EEEESD_EEELb1EEEEE18_M_deallocate_nodeEPSJ_ = comdat any

$_ZNSt16allocator_traitsISaINSt8__detail10_Hash_nodeISt4pairIKN4cvc58internal12NodeTemplateILb1EEEPNS3_7context11CDOhash_mapIS6_St10shared_ptrINS8_9CDHashSetIS6_St4hashIS6_EEEESD_EEELb1EEEEE7destroyISI_EEvRSK_PT_ = comdat any

$_ZNSt8__detail16_Hashtable_allocISaINS_10_Hash_nodeISt4pairIKN4cvc58internal12NodeTemplateILb1EEEPNS3_7context11CDOhash_mapIS6_St10shared_ptrINS8_9CDHashSetIS6_St4hashIS6_EEEESD_EEELb1EEEEE17_M_node_allocatorEv = comdat any

$_ZNSt8__detail16_Hashtable_allocISaINS_10_Hash_nodeISt4pairIKN4cvc58internal12NodeTemplateILb1EEEPNS3_7context11CDOhash_mapIS6_St10shared_ptrINS8_9CDHashSetIS6_St4hashIS6_EEEESD_EEELb1EEEEE22_M_deallocate_node_ptrEPSJ_ = comdat any

$_ZNSt15__new_allocatorINSt8__detail10_Hash_nodeISt4pairIKN4cvc58internal12NodeTemplateILb1EEEPNS3_7context11CDOhash_mapIS6_St10shared_ptrINS8_9CDHashSetIS6_St4hashIS6_EEEESD_EEELb1EEEE7destroyISI_EEvPT_ = comdat any

$_ZNSt4pairIKN4cvc58internal12NodeTemplateILb1EEEPNS0_7context11CDOhash_mapIS3_St10shared_ptrINS5_9CDHashSetIS3_St4hashIS3_EEEESA_EEED2Ev = comdat any

$_ZNSt8__detail21_Hashtable_ebo_helperILi0ESaINS_10_Hash_nodeISt4pairIKN4cvc58internal12NodeTemplateILb1EEEPNS3_7context11CDOhash_mapIS6_St10shared_ptrINS8_9CDHashSetIS6_St4hashIS6_EEEESD_EEELb1EEEELb1EE6_M_getEv = comdat any

$_ZNSt19__ptr_traits_ptr_toIPNSt8__detail10_Hash_nodeISt4pairIKN4cvc58internal12NodeTemplateILb1EEEPNS3_7context11CDOhash_mapIS6_St10shared_ptrINS8_9CDHashSetIS6_St4hashIS6_EEEESD_EEELb1EEESJ_Lb0EE10pointer_toERSJ_ = comdat any

$_ZNSt16allocator_traitsISaINSt8__detail10_Hash_nodeISt4pairIKN4cvc58internal12NodeTemplateILb1EEEPNS3_7context11CDOhash_mapIS6_St10shared_ptrINS8_9CDHashSetIS6_St4hashIS6_EEEESD_EEELb1EEEEE10deallocateERSK_PSJ_m = comdat any

$_ZNSt15__new_allocatorINSt8__detail10_Hash_nodeISt4pairIKN4cvc58internal12NodeTemplateILb1EEEPNS3_7context11CDOhash_mapIS6_St10shared_ptrINS8_9CDHashSetIS6_St4hashIS6_EEEESD_EEELb1EEEE10deallocateEPSJ_m = comdat any

$_ZNSt10_HashtableIN4cvc58internal12NodeTemplateILb1EEESt4pairIKS3_PNS0_7context11CDOhash_mapIS3_St10shared_ptrINS6_9CDHashSetIS3_St4hashIS3_EEEESB_EEESaISG_ENSt8__detail10_Select1stESt8equal_toIS3_ESB_NSI_18_Mod_range_hashingENSI_20_Default_ranged_hashENSI_20_Prime_rehash_policyENSI_17_Hashtable_traitsILb1ELb0ELb1EEEED2Ev = comdat any

$_ZNSt10_HashtableIN4cvc58internal12NodeTemplateILb1EEESt4pairIKS3_PNS0_7context11CDOhash_mapIS3_St10shared_ptrINS6_9CDHashSetIS3_St4hashIS3_EEEESB_EEESaISG_ENSt8__detail10_Select1stESt8equal_toIS3_ESB_NSI_18_Mod_range_hashingENSI_20_Default_ranged_hashENSI_20_Prime_rehash_policyENSI_17_Hashtable_traitsILb1ELb0ELb1EEEE21_M_deallocate_bucketsEv = comdat any

$_ZNSt8__detail16_Hashtable_allocISaINS_10_Hash_nodeISt4pairIKN4cvc58internal12NodeTemplateILb1EEEPNS3_7context11CDOhash_mapIS6_St10shared_ptrINS8_9CDHashSetIS6_St4hashIS6_EEEESD_EEELb1EEEEED2Ev = comdat any

$_ZNSt10_HashtableIN4cvc58internal12NodeTemplateILb1EEESt4pairIKS3_PNS0_7context11CDOhash_mapIS3_St10shared_ptrINS6_9CDHashSetIS3_St4hashIS3_EEEESB_EEESaISG_ENSt8__detail10_Select1stESt8equal_toIS3_ESB_NSI_18_Mod_range_hashingENSI_20_Default_ranged_hashENSI_20_Prime_rehash_policyENSI_17_Hashtable_traitsILb1ELb0ELb1EEEE21_M_deallocate_bucketsEPPNSI_15_Hash_node_baseEm = comdat any

$_ZNKSt10_HashtableIN4cvc58internal12NodeTemplateILb1EEESt4pairIKS3_PNS0_7context11CDOhash_mapIS3_St10shared_ptrINS6_9CDHashSetIS3_St4hashIS3_EEEESB_EEESaISG_ENSt8__detail10_Select1stESt8equal_toIS3_ESB_NSI_18_Mod_range_hashingENSI_20_Default_ranged_hashENSI_20_Prime_rehash_policyENSI_17_Hashtable_traitsILb1ELb0ELb1EEEE21_M_uses_single_bucketEPPNSI_15_Hash_node_baseE = comdat any

$_ZNSt8__detail16_Hashtable_allocISaINS_10_Hash_nodeISt4pairIKN4cvc58internal12NodeTemplateILb1EEEPNS3_7context11CDOhash_mapIS6_St10shared_ptrINS8_9CDHashSetIS6_St4hashIS6_EEEESD_EEELb1EEEEE21_M_deallocate_bucketsEPPNS_15_Hash_node_baseEm = comdat any

$_ZNSaIPNSt8__detail15_Hash_node_baseEEC2INS_10_Hash_nodeISt4pairIKN4cvc58internal12NodeTemplateILb1EEEPNS6_7context11CDOhash_mapIS9_St10shared_ptrINSB_9CDHashSetIS9_St4hashIS9_EEEESG_EEELb1EEEEERKSaIT_E = comdat any

$_ZNSt8__detail21_Hashtable_ebo_helperILi0ESaINS_10_Hash_nodeISt4pairIKN4cvc58internal12NodeTemplateILb1EEEPNS3_7context11CDOhash_mapIS6_St10shared_ptrINS8_9CDHashSetIS6_St4hashIS6_EEEESD_EEELb1EEEELb1EED2Ev = comdat any

$_ZNSaINSt8__detail10_Hash_nodeISt4pairIKN4cvc58internal12NodeTemplateILb1EEEPNS2_7context11CDOhash_mapIS5_St10shared_ptrINS7_9CDHashSetIS5_St4hashIS5_EEEESC_EEELb1EEEED2Ev = comdat any

$_ZNSt15__new_allocatorINSt8__detail10_Hash_nodeISt4pairIKN4cvc58internal12NodeTemplateILb1EEEPNS3_7context11CDOhash_mapIS6_St10shared_ptrINS8_9CDHashSetIS6_St4hashIS6_EEEESD_EEELb1EEEED2Ev = comdat any

$_ZNSt8_Rb_treeIN4cvc58internal12NodeTemplateILb1EEESt4pairIKS3_St6vectorIS4_IS3_S3_ESaIS7_EEESt10_Select1stISA_ESt4lessIS3_ESaISA_EED2Ev = comdat any

$_ZNSt8_Rb_treeIN4cvc58internal12NodeTemplateILb1EEESt4pairIKS3_St6vectorIS4_IS3_S3_ESaIS7_EEESt10_Select1stISA_ESt4lessIS3_ESaISA_EE8_M_eraseEPSt13_Rb_tree_nodeISA_E = comdat any

$_ZNSt8_Rb_treeIN4cvc58internal12NodeTemplateILb1EEESt4pairIKS3_St6vectorIS4_IS3_S3_ESaIS7_EEESt10_Select1stISA_ESt4lessIS3_ESaISA_EE8_M_beginEv = comdat any

$_ZNSt8_Rb_treeIN4cvc58internal12NodeTemplateILb1EEESt4pairIKS3_St6vectorIS4_IS3_S3_ESaIS7_EEESt10_Select1stISA_ESt4lessIS3_ESaISA_EE13_Rb_tree_implISE_Lb1EED2Ev = comdat any

$_ZNSt8_Rb_treeIN4cvc58internal12NodeTemplateILb1EEESt4pairIKS3_St6vectorIS4_IS3_S3_ESaIS7_EEESt10_Select1stISA_ESt4lessIS3_ESaISA_EE8_S_rightEPSt18_Rb_tree_node_base = comdat any

$_ZNSt8_Rb_treeIN4cvc58internal12NodeTemplateILb1EEESt4pairIKS3_St6vectorIS4_IS3_S3_ESaIS7_EEESt10_Select1stISA_ESt4lessIS3_ESaISA_EE7_S_leftEPSt18_Rb_tree_node_base = comdat any

$_ZNSt8_Rb_treeIN4cvc58internal12NodeTemplateILb1EEESt4pairIKS3_St6vectorIS4_IS3_S3_ESaIS7_EEESt10_Select1stISA_ESt4lessIS3_ESaISA_EE12_M_drop_nodeEPSt13_Rb_tree_nodeISA_E = comdat any

$_ZNSt8_Rb_treeIN4cvc58internal12NodeTemplateILb1EEESt4pairIKS3_St6vectorIS4_IS3_S3_ESaIS7_EEESt10_Select1stISA_ESt4lessIS3_ESaISA_EE15_M_destroy_nodeEPSt13_Rb_tree_nodeISA_E = comdat any

$_ZNSt8_Rb_treeIN4cvc58internal12NodeTemplateILb1EEESt4pairIKS3_St6vectorIS4_IS3_S3_ESaIS7_EEESt10_Select1stISA_ESt4lessIS3_ESaISA_EE11_M_put_nodeEPSt13_Rb_tree_nodeISA_E = comdat any

$_ZNSt16allocator_traitsISaISt13_Rb_tree_nodeISt4pairIKN4cvc58internal12NodeTemplateILb1EEESt6vectorIS1_IS5_S5_ESaIS8_EEEEEE7destroyISB_EEvRSD_PT_ = comdat any

$_ZNSt8_Rb_treeIN4cvc58internal12NodeTemplateILb1EEESt4pairIKS3_St6vectorIS4_IS3_S3_ESaIS7_EEESt10_Select1stISA_ESt4lessIS3_ESaISA_EE21_M_get_Node_allocatorEv = comdat any

$_ZNSt13_Rb_tree_nodeISt4pairIKN4cvc58internal12NodeTemplateILb1EEESt6vectorIS0_IS4_S4_ESaIS7_EEEE9_M_valptrEv = comdat any

$_ZNSt15__new_allocatorISt13_Rb_tree_nodeISt4pairIKN4cvc58internal12NodeTemplateILb1EEESt6vectorIS1_IS5_S5_ESaIS8_EEEEE7destroyISB_EEvPT_ = comdat any

$_ZNSt4pairIKN4cvc58internal12NodeTemplateILb1EEESt6vectorIS_IS3_S3_ESaIS6_EEED2Ev = comdat any

$_ZN9__gnu_cxx16__aligned_membufISt4pairIKN4cvc58internal12NodeTemplateILb1EEESt6vectorIS1_IS5_S5_ESaIS8_EEEE6_M_ptrEv = comdat any

$_ZN9__gnu_cxx16__aligned_membufISt4pairIKN4cvc58internal12NodeTemplateILb1EEESt6vectorIS1_IS5_S5_ESaIS8_EEEE7_M_addrEv = comdat any

$_ZNSt16allocator_traitsISaISt13_Rb_tree_nodeISt4pairIKN4cvc58internal12NodeTemplateILb1EEESt6vectorIS1_IS5_S5_ESaIS8_EEEEEE10deallocateERSD_PSC_m = comdat any

$_ZNSt15__new_allocatorISt13_Rb_tree_nodeISt4pairIKN4cvc58internal12NodeTemplateILb1EEESt6vectorIS1_IS5_S5_ESaIS8_EEEEE10deallocateEPSC_m = comdat any

$_ZNKSt8_Rb_treeIN4cvc58internal12NodeTemplateILb1EEESt4pairIKS3_St6vectorIS4_IS3_S3_ESaIS7_EEESt10_Select1stISA_ESt4lessIS3_ESaISA_EE9_M_mbeginEv = comdat any

$_ZNSaISt13_Rb_tree_nodeISt4pairIKN4cvc58internal12NodeTemplateILb1EEESt6vectorIS0_IS4_S4_ESaIS7_EEEEED2Ev = comdat any

$_ZNSt15__new_allocatorISt13_Rb_tree_nodeISt4pairIKN4cvc58internal12NodeTemplateILb1EEESt6vectorIS1_IS5_S5_ESaIS8_EEEEED2Ev = comdat any

$_ZNSt8_Rb_treeIN4cvc58internal12NodeTemplateILb1EEES3_St9_IdentityIS3_ESt4lessIS3_ESaIS3_EED2Ev = comdat any

$_ZNSt8_Rb_treeIN4cvc58internal12NodeTemplateILb1EEES3_St9_IdentityIS3_ESt4lessIS3_ESaIS3_EE8_M_eraseEPSt13_Rb_tree_nodeIS3_E = comdat any

$_ZNSt8_Rb_treeIN4cvc58internal12NodeTemplateILb1EEES3_St9_IdentityIS3_ESt4lessIS3_ESaIS3_EE8_M_beginEv = comdat any

$_ZNSt8_Rb_treeIN4cvc58internal12NodeTemplateILb1EEES3_St9_IdentityIS3_ESt4lessIS3_ESaIS3_EE13_Rb_tree_implIS7_Lb1EED2Ev = comdat any

$_ZNSt8_Rb_treeIN4cvc58internal12NodeTemplateILb1EEES3_St9_IdentityIS3_ESt4lessIS3_ESaIS3_EE8_S_rightEPSt18_Rb_tree_node_base = comdat any

$_ZNSt8_Rb_treeIN4cvc58internal12NodeTemplateILb1EEES3_St9_IdentityIS3_ESt4lessIS3_ESaIS3_EE7_S_leftEPSt18_Rb_tree_node_base = comdat any

$_ZNSt8_Rb_treeIN4cvc58internal12NodeTemplateILb1EEES3_St9_IdentityIS3_ESt4lessIS3_ESaIS3_EE12_M_drop_nodeEPSt13_Rb_tree_nodeIS3_E = comdat any

$_ZNSt8_Rb_treeIN4cvc58internal12NodeTemplateILb1EEES3_St9_IdentityIS3_ESt4lessIS3_ESaIS3_EE15_M_destroy_nodeEPSt13_Rb_tree_nodeIS3_E = comdat any

$_ZNSt8_Rb_treeIN4cvc58internal12NodeTemplateILb1EEES3_St9_IdentityIS3_ESt4lessIS3_ESaIS3_EE11_M_put_nodeEPSt13_Rb_tree_nodeIS3_E = comdat any

$_ZNSt16allocator_traitsISaISt13_Rb_tree_nodeIN4cvc58internal12NodeTemplateILb1EEEEEE7destroyIS4_EEvRS6_PT_ = comdat any

$_ZNSt8_Rb_treeIN4cvc58internal12NodeTemplateILb1EEES3_St9_IdentityIS3_ESt4lessIS3_ESaIS3_EE21_M_get_Node_allocatorEv = comdat any

$_ZNSt13_Rb_tree_nodeIN4cvc58internal12NodeTemplateILb1EEEE9_M_valptrEv = comdat any

$_ZNSt15__new_allocatorISt13_Rb_tree_nodeIN4cvc58internal12NodeTemplateILb1EEEEE7destroyIS4_EEvPT_ = comdat any

$_ZN9__gnu_cxx16__aligned_membufIN4cvc58internal12NodeTemplateILb1EEEE6_M_ptrEv = comdat any

$_ZN9__gnu_cxx16__aligned_membufIN4cvc58internal12NodeTemplateILb1EEEE7_M_addrEv = comdat any

$_ZNSt16allocator_traitsISaISt13_Rb_tree_nodeIN4cvc58internal12NodeTemplateILb1EEEEEE10deallocateERS6_PS5_m = comdat any

$_ZNSt15__new_allocatorISt13_Rb_tree_nodeIN4cvc58internal12NodeTemplateILb1EEEEE10deallocateEPS5_m = comdat any

$_ZNKSt8_Rb_treeIN4cvc58internal12NodeTemplateILb1EEES3_St9_IdentityIS3_ESt4lessIS3_ESaIS3_EE9_M_mbeginEv = comdat any

$_ZNSaISt13_Rb_tree_nodeIN4cvc58internal12NodeTemplateILb1EEEEED2Ev = comdat any

$_ZNSt15__new_allocatorISt13_Rb_tree_nodeIN4cvc58internal12NodeTemplateILb1EEEEED2Ev = comdat any

$_ZN4cvc57context3CDOIbED2Ev = comdat any

$_ZN4cvc57context3CDOIbE4saveEPNS0_20ContextMemoryManagerE = comdat any

$_ZN4cvc57context3CDOIbE7restoreEPNS0_10ContextObjE = comdat any

$_ZN4cvc57context3CDOIbED0Ev = comdat any

$_ZN4cvc57context10ContextObjnwEmPNS0_20ContextMemoryManagerE = comdat any

$_ZN4cvc57context3CDOIbEC2ERKS2_ = comdat any

$_ZN4cvc57context10ContextObjdlEPvPNS0_20ContextMemoryManagerE = comdat any

$_ZN4cvc57context10ContextObjC2ERKS1_ = comdat any

$_ZN4cvc57context10ContextObjD2Ev = comdat any

$_ZN4cvc57context10ContextObjD0Ev = comdat any

$_ZN4cvc58internal11Cvc5ostreamC2Ev = comdat any

$_ZN4cvc58internal11Cvc5ostreamC2EPSo = comdat any

$_ZNSt12_Vector_baseIN4cvc58internal12NodeTemplateILb1EEESaIS3_EEC2Ev = comdat any

$_ZNSt12_Vector_baseIN4cvc58internal12NodeTemplateILb1EEESaIS3_EE12_Vector_implC2Ev = comdat any

$_ZNSaIN4cvc58internal12NodeTemplateILb1EEEEC2Ev = comdat any

$_ZNSt12_Vector_baseIN4cvc58internal12NodeTemplateILb1EEESaIS3_EE17_Vector_impl_dataC2Ev = comdat any

$_ZNSt15__new_allocatorIN4cvc58internal12NodeTemplateILb1EEEEC2Ev = comdat any

$_ZNKSt10unique_ptrIN4cvc58internal13SkolemManagerESt14default_deleteIS2_EE3getEv = comdat any

$_ZNKSt15__uniq_ptr_implIN4cvc58internal13SkolemManagerESt14default_deleteIS2_EE6_M_ptrEv = comdat any

$_ZSt3getILm0EJPN4cvc58internal13SkolemManagerESt14default_deleteIS2_EEERKNSt13tuple_elementIXT_ESt5tupleIJDpT0_EEE4typeERKSA_ = comdat any

$_ZSt12__get_helperILm0EPN4cvc58internal13SkolemManagerEJSt14default_deleteIS2_EEERKT0_RKSt11_Tuple_implIXT_EJS6_DpT1_EE = comdat any

$_ZNSt11_Tuple_implILm0EJPN4cvc58internal13SkolemManagerESt14default_deleteIS2_EEE7_M_headERKS6_ = comdat any

$_ZNSt10_Head_baseILm0EPN4cvc58internal13SkolemManagerELb0EE7_M_headERKS4_ = comdat any

$_ZN4cvc58internal4expr9NodeValue3decEv = comdat any

$_ZN4cvc58internal4expr9NodeValue3incEv = comdat any

$_ZN10__gmp_exprIA1_12__mpz_structS1_EC2Ei = comdat any

$_ZN10__gmp_exprIA1_12__mpq_structS1_EC2ERKS_IA1_12__mpz_structS4_ES7_ = comdat any

$_ZN10__gmp_exprIA1_12__mpz_structS1_ED2Ev = comdat any

$_ZN10__gmp_exprIA1_12__mpq_structS1_E12canonicalizeEv = comdat any

$_ZN10__gmp_exprIA1_12__mpq_structS1_ED2Ev = comdat any

$_ZN10__gmp_exprIA1_12__mpz_structS1_E7init_siEl = comdat any

$_ZN10__gmp_exprIA1_12__mpz_structS1_E7init_uiEm = comdat any

$_ZNK10__gmp_exprIA1_12__mpz_structS1_E9get_mpz_tEv = comdat any

$_ZNKSt6vectorINSt7__cxx1112basic_stringIcSt11char_traitsIcESaIcEEESaIS5_EE5emptyEv = comdat any

$_ZN9__gnu_cxxneIPKNSt7__cxx1112basic_stringIcSt11char_traitsIcESaIcEEESt6vectorIS6_SaIS6_EEEEbRKNS_17__normal_iteratorIT_T0_EESH_ = comdat any

$_ZSt4findIN9__gnu_cxx17__normal_iteratorIPKNSt7__cxx1112basic_stringIcSt11char_traitsIcESaIcEEESt6vectorIS7_SaIS7_EEEES7_ET_SE_SE_RKT0_ = comdat any

$_ZNKSt6vectorINSt7__cxx1112basic_stringIcSt11char_traitsIcESaIcEEESaIS5_EE5beginEv = comdat any

$_ZNKSt6vectorINSt7__cxx1112basic_stringIcSt11char_traitsIcESaIcEEESaIS5_EE3endEv = comdat any

$_ZN9__gnu_cxxeqIPKNSt7__cxx1112basic_stringIcSt11char_traitsIcESaIcEEESt6vectorIS6_SaIS6_EEEEbRKNS_17__normal_iteratorIT_T0_EESH_ = comdat any

$_ZNK9__gnu_cxx17__normal_iteratorIPKNSt7__cxx1112basic_stringIcSt11char_traitsIcESaIcEEESt6vectorIS6_SaIS6_EEE4baseEv = comdat any

$_ZSt9__find_ifIN9__gnu_cxx17__normal_iteratorIPKNSt7__cxx1112basic_stringIcSt11char_traitsIcESaIcEEESt6vectorIS7_SaIS7_EEEENS0_5__ops16_Iter_equals_valIS8_EEET_SH_SH_T0_ = comdat any

$_ZN9__gnu_cxx5__ops17__iter_equals_valIKNSt7__cxx1112basic_stringIcSt11char_traitsIcESaIcEEEEENS0_16_Iter_equals_valIT_EERSA_ = comdat any

$_ZSt9__find_ifIN9__gnu_cxx17__normal_iteratorIPKNSt7__cxx1112basic_stringIcSt11char_traitsIcESaIcEEESt6vectorIS7_SaIS7_EEEENS0_5__ops16_Iter_equals_valIS8_EEET_SH_SH_T0_St26random_access_iterator_tag = comdat any

$_ZSt19__iterator_categoryIN9__gnu_cxx17__normal_iteratorIPKNSt7__cxx1112basic_stringIcSt11char_traitsIcESaIcEEESt6vectorIS7_SaIS7_EEEEENSt15iterator_traitsIT_E17iterator_categoryERKSF_ = comdat any

$_ZN9__gnu_cxxmiIPKNSt7__cxx1112basic_stringIcSt11char_traitsIcESaIcEEESt6vectorIS6_SaIS6_EEEENS_17__normal_iteratorIT_T0_E15difference_typeERKSF_SI_ = comdat any

$_ZN9__gnu_cxx5__ops16_Iter_equals_valIKNSt7__cxx1112basic_stringIcSt11char_traitsIcESaIcEEEEclINS_17__normal_iteratorIPS8_St6vectorIS7_SaIS7_EEEEEEbT_ = comdat any

$_ZN9__gnu_cxx17__normal_iteratorIPKNSt7__cxx1112basic_stringIcSt11char_traitsIcESaIcEEESt6vectorIS6_SaIS6_EEEppEv = comdat any

$_ZSteqIcEN9__gnu_cxx11__enable_ifIXsr9__is_charIT_EE7__valueEbE6__typeERKNSt7__cxx1112basic_stringIS2_St11char_traitsIS2_ESaIS2_EEESC_ = comdat any

$_ZNK9__gnu_cxx17__normal_iteratorIPKNSt7__cxx1112basic_stringIcSt11char_traitsIcESaIcEEESt6vectorIS6_SaIS6_EEEdeEv = comdat any

$_ZNSt11char_traitsIcE7compareEPKcS2_m = comdat any

$_ZN9__gnu_cxx5__ops16_Iter_equals_valIKNSt7__cxx1112basic_stringIcSt11char_traitsIcESaIcEEEEC2ERS8_ = comdat any

$_ZN9__gnu_cxx17__normal_iteratorIPKNSt7__cxx1112basic_stringIcSt11char_traitsIcESaIcEEESt6vectorIS6_SaIS6_EEEC2ERKS8_ = comdat any

$_ZNSt8_Rb_treeIN4cvc58internal12NodeTemplateILb1EEESt4pairIKS3_S3_ESt10_Select1stIS6_ESt4lessIS3_ESaIS6_EEC2Ev = comdat any

$_ZNSt8_Rb_treeIN4cvc58internal12NodeTemplateILb1EEESt4pairIKS3_S3_ESt10_Select1stIS6_ESt4lessIS3_ESaIS6_EE13_Rb_tree_implISA_Lb1EEC2Ev = comdat any

$_ZNSaISt13_Rb_tree_nodeISt4pairIKN4cvc58internal12NodeTemplateILb1EEES4_EEEC2Ev = comdat any

$_ZNSt20_Rb_tree_key_compareISt4lessIN4cvc58internal12NodeTemplateILb1EEEEEC2Ev = comdat any

$_ZNSt15__new_allocatorISt13_Rb_tree_nodeISt4pairIKN4cvc58internal12NodeTemplateILb1EEES5_EEEC2Ev = comdat any

$_ZNSt12_Vector_baseISt4pairIN4cvc58internal12NodeTemplateILb1EEES4_ESaIS5_EEC2Ev = comdat any

$_ZNSt12_Vector_baseISt4pairIN4cvc58internal12NodeTemplateILb1EEES4_ESaIS5_EE12_Vector_implC2Ev = comdat any

$_ZNSaISt4pairIN4cvc58internal12NodeTemplateILb1EEES3_EEC2Ev = comdat any

$_ZNSt12_Vector_baseISt4pairIN4cvc58internal12NodeTemplateILb1EEES4_ESaIS5_EE17_Vector_impl_dataC2Ev = comdat any

$_ZNSt15__new_allocatorISt4pairIN4cvc58internal12NodeTemplateILb1EEES4_EEC2Ev = comdat any

$_ZltIA1_12__mpq_structS1_S1_S1_EbRK10__gmp_exprIT_T0_ERKS2_IT1_T2_E = comdat any

$_ZN17__gmp_binary_less4evalEPK12__mpq_structS2_ = comdat any

$_ZNK10__gmp_exprIA1_12__mpq_structS1_E8__get_mpEv = comdat any

$_ZmiIA1_12__mpq_structS1_S1_S1_E10__gmp_exprIN18__gmp_resolve_exprIT_T1_E10value_typeE17__gmp_binary_exprIS2_IS4_T0_ES2_IS5_T2_E18__gmp_binary_minusEERKSA_RKSC_ = comdat any

$_ZN10__gmp_exprIA1_12__mpq_structS1_EC2I17__gmp_binary_exprIS2_S2_18__gmp_binary_minusEEERKS_IS1_T_E = comdat any

$_ZN4cvc58internal8RationalC2ERK10__gmp_exprIA1_12__mpq_structS4_E = comdat any

$_ZN10__gmp_exprIA1_12__mpq_struct17__gmp_binary_exprIS_IS1_S1_ES3_18__gmp_binary_minusEEC2ERKS3_S8_ = comdat any

$_ZN17__gmp_binary_exprI10__gmp_exprIA1_12__mpq_structS2_ES3_18__gmp_binary_minusEC2ERKS3_S7_ = comdat any

$_Z14__gmp_set_exprI17__gmp_binary_exprI10__gmp_exprIA1_12__mpq_structS3_ES4_18__gmp_binary_minusEEvPS2_RKS1_IS3_T_E = comdat any

$_ZNK10__gmp_exprIA1_12__mpq_struct17__gmp_binary_exprIS_IS1_S1_ES3_18__gmp_binary_minusEE4evalEPS0_ = comdat any

$_ZN18__gmp_binary_minus4evalEP12__mpq_structPKS0_S3_ = comdat any

$_ZN10__gmp_exprIA1_12__mpq_structS1_EC2ERKS2_ = comdat any

$_ZNSt8_Rb_treeIN4cvc58internal12NodeTemplateILb1EEESt4pairIKS3_S3_ESt10_Select1stIS6_ESt4lessIS3_ESaIS6_EED2Ev = comdat any

$_ZNSt8_Rb_treeIN4cvc58internal12NodeTemplateILb1EEESt4pairIKS3_S3_ESt10_Select1stIS6_ESt4lessIS3_ESaIS6_EE8_M_eraseEPSt13_Rb_tree_nodeIS6_E = comdat any

$_ZNSt8_Rb_treeIN4cvc58internal12NodeTemplateILb1EEESt4pairIKS3_S3_ESt10_Select1stIS6_ESt4lessIS3_ESaIS6_EE8_M_beginEv = comdat any

$_ZNSt8_Rb_treeIN4cvc58internal12NodeTemplateILb1EEESt4pairIKS3_S3_ESt10_Select1stIS6_ESt4lessIS3_ESaIS6_EE13_Rb_tree_implISA_Lb1EED2Ev = comdat any

$_ZNSt8_Rb_treeIN4cvc58internal12NodeTemplateILb1EEESt4pairIKS3_S3_ESt10_Select1stIS6_ESt4lessIS3_ESaIS6_EE8_S_rightEPSt18_Rb_tree_node_base = comdat any

$_ZNSt8_Rb_treeIN4cvc58internal12NodeTemplateILb1EEESt4pairIKS3_S3_ESt10_Select1stIS6_ESt4lessIS3_ESaIS6_EE7_S_leftEPSt18_Rb_tree_node_base = comdat any

$_ZNSt8_Rb_treeIN4cvc58internal12NodeTemplateILb1EEESt4pairIKS3_S3_ESt10_Select1stIS6_ESt4lessIS3_ESaIS6_EE12_M_drop_nodeEPSt13_Rb_tree_nodeIS6_E = comdat any

$_ZNSt8_Rb_treeIN4cvc58internal12NodeTemplateILb1EEESt4pairIKS3_S3_ESt10_Select1stIS6_ESt4lessIS3_ESaIS6_EE15_M_destroy_nodeEPSt13_Rb_tree_nodeIS6_E = comdat any

$_ZNSt8_Rb_treeIN4cvc58internal12NodeTemplateILb1EEESt4pairIKS3_S3_ESt10_Select1stIS6_ESt4lessIS3_ESaIS6_EE11_M_put_nodeEPSt13_Rb_tree_nodeIS6_E = comdat any

$_ZNSt16allocator_traitsISaISt13_Rb_tree_nodeISt4pairIKN4cvc58internal12NodeTemplateILb1EEES5_EEEE7destroyIS7_EEvRS9_PT_ = comdat any

$_ZNSt8_Rb_treeIN4cvc58internal12NodeTemplateILb1EEESt4pairIKS3_S3_ESt10_Select1stIS6_ESt4lessIS3_ESaIS6_EE21_M_get_Node_allocatorEv = comdat any

$_ZNSt13_Rb_tree_nodeISt4pairIKN4cvc58internal12NodeTemplateILb1EEES4_EE9_M_valptrEv = comdat any

$_ZNSt15__new_allocatorISt13_Rb_tree_nodeISt4pairIKN4cvc58internal12NodeTemplateILb1EEES5_EEE7destroyIS7_EEvPT_ = comdat any

$_ZNSt4pairIKN4cvc58internal12NodeTemplateILb1EEES3_ED2Ev = comdat any

$_ZN9__gnu_cxx16__aligned_membufISt4pairIKN4cvc58internal12NodeTemplateILb1EEES5_EE6_M_ptrEv = comdat any

$_ZN9__gnu_cxx16__aligned_membufISt4pairIKN4cvc58internal12NodeTemplateILb1EEES5_EE7_M_addrEv = comdat any

$_ZNSt16allocator_traitsISaISt13_Rb_tree_nodeISt4pairIKN4cvc58internal12NodeTemplateILb1EEES5_EEEE10deallocateERS9_PS8_m = comdat any

$_ZNSt15__new_allocatorISt13_Rb_tree_nodeISt4pairIKN4cvc58internal12NodeTemplateILb1EEES5_EEE10deallocateEPS8_m = comdat any

$_ZNKSt8_Rb_treeIN4cvc58internal12NodeTemplateILb1EEESt4pairIKS3_S3_ESt10_Select1stIS6_ESt4lessIS3_ESaIS6_EE9_M_mbeginEv = comdat any

$_ZNSaISt13_Rb_tree_nodeISt4pairIKN4cvc58internal12NodeTemplateILb1EEES4_EEED2Ev = comdat any

$_ZNSt15__new_allocatorISt13_Rb_tree_nodeISt4pairIKN4cvc58internal12NodeTemplateILb1EEES5_EEED2Ev = comdat any

$_ZN4cvc58internal9ExceptionC2ERKNSt7__cxx1112basic_stringIcSt11char_traitsIcESaIcEEE = comdat any

$_ZN4cvc58internal14LogicExceptionD0Ev = comdat any

$_ZNK4cvc58internal9Exception4whatEv = comdat any

$_ZNSt9exceptionC2Ev = comdat any

$_ZN4cvc58internal9ExceptionD2Ev = comdat any

$_ZNSt8_Rb_treeIN4cvc58internal8TypeNodeESt4pairIKS2_NS1_16NodeTemplateTrieILb0EEEESt10_Select1stIS7_ESt4lessIS2_ESaIS7_EEC2Ev = comdat any

$_ZNSt8_Rb_treeIN4cvc58internal8TypeNodeESt4pairIKS2_NS1_16NodeTemplateTrieILb0EEEESt10_Select1stIS7_ESt4lessIS2_ESaIS7_EE13_Rb_tree_implISB_Lb1EEC2Ev = comdat any

$_ZNSaISt13_Rb_tree_nodeISt4pairIKN4cvc58internal8TypeNodeENS2_16NodeTemplateTrieILb0EEEEEEC2Ev = comdat any

$_ZNSt20_Rb_tree_key_compareISt4lessIN4cvc58internal8TypeNodeEEEC2Ev = comdat any

$_ZNSt15__new_allocatorISt13_Rb_tree_nodeISt4pairIKN4cvc58internal8TypeNodeENS3_16NodeTemplateTrieILb0EEEEEEC2Ev = comdat any

$_ZNSt12_Vector_baseIN4cvc58internal12NodeTemplateILb0EEESaIS3_EEC2Ev = comdat any

$_ZNSt12_Vector_baseIN4cvc58internal12NodeTemplateILb0EEESaIS3_EE12_Vector_implC2Ev = comdat any

$_ZNSaIN4cvc58internal12NodeTemplateILb0EEEEC2Ev = comdat any

$_ZNSt12_Vector_baseIN4cvc58internal12NodeTemplateILb0EEESaIS3_EE17_Vector_impl_dataC2Ev = comdat any

$_ZNSt15__new_allocatorIN4cvc58internal12NodeTemplateILb0EEEEC2Ev = comdat any

$_ZNSt8_Rb_treeIN4cvc58internal8TypeNodeESt4pairIKS2_NS1_16NodeTemplateTrieILb0EEEESt10_Select1stIS7_ESt4lessIS2_ESaIS7_EED2Ev = comdat any

$_ZNSt8_Rb_treeIN4cvc58internal8TypeNodeESt4pairIKS2_NS1_16NodeTemplateTrieILb0EEEESt10_Select1stIS7_ESt4lessIS2_ESaIS7_EE8_M_eraseEPSt13_Rb_tree_nodeIS7_E = comdat any

$_ZNSt8_Rb_treeIN4cvc58internal8TypeNodeESt4pairIKS2_NS1_16NodeTemplateTrieILb0EEEESt10_Select1stIS7_ESt4lessIS2_ESaIS7_EE8_M_beginEv = comdat any

$_ZNSt8_Rb_treeIN4cvc58internal8TypeNodeESt4pairIKS2_NS1_16NodeTemplateTrieILb0EEEESt10_Select1stIS7_ESt4lessIS2_ESaIS7_EE13_Rb_tree_implISB_Lb1EED2Ev = comdat any

$_ZNSt8_Rb_treeIN4cvc58internal8TypeNodeESt4pairIKS2_NS1_16NodeTemplateTrieILb0EEEESt10_Select1stIS7_ESt4lessIS2_ESaIS7_EE8_S_rightEPSt18_Rb_tree_node_base = comdat any

$_ZNSt8_Rb_treeIN4cvc58internal8TypeNodeESt4pairIKS2_NS1_16NodeTemplateTrieILb0EEEESt10_Select1stIS7_ESt4lessIS2_ESaIS7_EE7_S_leftEPSt18_Rb_tree_node_base = comdat any

$_ZNSt8_Rb_treeIN4cvc58internal8TypeNodeESt4pairIKS2_NS1_16NodeTemplateTrieILb0EEEESt10_Select1stIS7_ESt4lessIS2_ESaIS7_EE12_M_drop_nodeEPSt13_Rb_tree_nodeIS7_E = comdat any

$_ZNSt8_Rb_treeIN4cvc58internal8TypeNodeESt4pairIKS2_NS1_16NodeTemplateTrieILb0EEEESt10_Select1stIS7_ESt4lessIS2_ESaIS7_EE15_M_destroy_nodeEPSt13_Rb_tree_nodeIS7_E = comdat any

$_ZNSt8_Rb_treeIN4cvc58internal8TypeNodeESt4pairIKS2_NS1_16NodeTemplateTrieILb0EEEESt10_Select1stIS7_ESt4lessIS2_ESaIS7_EE11_M_put_nodeEPSt13_Rb_tree_nodeIS7_E = comdat any

$_ZNSt16allocator_traitsISaISt13_Rb_tree_nodeISt4pairIKN4cvc58internal8TypeNodeENS3_16NodeTemplateTrieILb0EEEEEEE7destroyIS8_EEvRSA_PT_ = comdat any

$_ZNSt8_Rb_treeIN4cvc58internal8TypeNodeESt4pairIKS2_NS1_16NodeTemplateTrieILb0EEEESt10_Select1stIS7_ESt4lessIS2_ESaIS7_EE21_M_get_Node_allocatorEv = comdat any

$_ZNSt13_Rb_tree_nodeISt4pairIKN4cvc58internal8TypeNodeENS2_16NodeTemplateTrieILb0EEEEE9_M_valptrEv = comdat any

$_ZNSt15__new_allocatorISt13_Rb_tree_nodeISt4pairIKN4cvc58internal8TypeNodeENS3_16NodeTemplateTrieILb0EEEEEE7destroyIS8_EEvPT_ = comdat any

$_ZNSt4pairIKN4cvc58internal8TypeNodeENS1_16NodeTemplateTrieILb0EEEED2Ev = comdat any

$_ZN4cvc58internal16NodeTemplateTrieILb0EED2Ev = comdat any

$_ZNSt3mapIN4cvc58internal12NodeTemplateILb0EEENS1_16NodeTemplateTrieILb0EEESt4lessIS3_ESaISt4pairIKS3_S5_EEED2Ev = comdat any

$_ZNSt8_Rb_treeIN4cvc58internal12NodeTemplateILb0EEESt4pairIKS3_NS1_16NodeTemplateTrieILb0EEEESt10_Select1stIS8_ESt4lessIS3_ESaIS8_EED2Ev = comdat any

$_ZNSt8_Rb_treeIN4cvc58internal12NodeTemplateILb0EEESt4pairIKS3_NS1_16NodeTemplateTrieILb0EEEESt10_Select1stIS8_ESt4lessIS3_ESaIS8_EE8_M_eraseEPSt13_Rb_tree_nodeIS8_E = comdat any

$_ZNSt8_Rb_treeIN4cvc58internal12NodeTemplateILb0EEESt4pairIKS3_NS1_16NodeTemplateTrieILb0EEEESt10_Select1stIS8_ESt4lessIS3_ESaIS8_EE8_M_beginEv = comdat any

$_ZNSt8_Rb_treeIN4cvc58internal12NodeTemplateILb0EEESt4pairIKS3_NS1_16NodeTemplateTrieILb0EEEESt10_Select1stIS8_ESt4lessIS3_ESaIS8_EE13_Rb_tree_implISC_Lb1EED2Ev = comdat any

$_ZNSt8_Rb_treeIN4cvc58internal12NodeTemplateILb0EEESt4pairIKS3_NS1_16NodeTemplateTrieILb0EEEESt10_Select1stIS8_ESt4lessIS3_ESaIS8_EE8_S_rightEPSt18_Rb_tree_node_base = comdat any

$_ZNSt8_Rb_treeIN4cvc58internal12NodeTemplateILb0EEESt4pairIKS3_NS1_16NodeTemplateTrieILb0EEEESt10_Select1stIS8_ESt4lessIS3_ESaIS8_EE7_S_leftEPSt18_Rb_tree_node_base = comdat any

$_ZNSt8_Rb_treeIN4cvc58internal12NodeTemplateILb0EEESt4pairIKS3_NS1_16NodeTemplateTrieILb0EEEESt10_Select1stIS8_ESt4lessIS3_ESaIS8_EE12_M_drop_nodeEPSt13_Rb_tree_nodeIS8_E = comdat any

$_ZNSt8_Rb_treeIN4cvc58internal12NodeTemplateILb0EEESt4pairIKS3_NS1_16NodeTemplateTrieILb0EEEESt10_Select1stIS8_ESt4lessIS3_ESaIS8_EE15_M_destroy_nodeEPSt13_Rb_tree_nodeIS8_E = comdat any

$_ZNSt8_Rb_treeIN4cvc58internal12NodeTemplateILb0EEESt4pairIKS3_NS1_16NodeTemplateTrieILb0EEEESt10_Select1stIS8_ESt4lessIS3_ESaIS8_EE11_M_put_nodeEPSt13_Rb_tree_nodeIS8_E = comdat any

$_ZNSt16allocator_traitsISaISt13_Rb_tree_nodeISt4pairIKN4cvc58internal12NodeTemplateILb0EEENS3_16NodeTemplateTrieILb0EEEEEEE7destroyIS9_EEvRSB_PT_ = comdat any

$_ZNSt8_Rb_treeIN4cvc58internal12NodeTemplateILb0EEESt4pairIKS3_NS1_16NodeTemplateTrieILb0EEEESt10_Select1stIS8_ESt4lessIS3_ESaIS8_EE21_M_get_Node_allocatorEv = comdat any

$_ZNSt13_Rb_tree_nodeISt4pairIKN4cvc58internal12NodeTemplateILb0EEENS2_16NodeTemplateTrieILb0EEEEE9_M_valptrEv = comdat any

$_ZNSt15__new_allocatorISt13_Rb_tree_nodeISt4pairIKN4cvc58internal12NodeTemplateILb0EEENS3_16NodeTemplateTrieILb0EEEEEE7destroyIS9_EEvPT_ = comdat any

$_ZNSt4pairIKN4cvc58internal12NodeTemplateILb0EEENS1_16NodeTemplateTrieILb0EEEED2Ev = comdat any

$_ZN9__gnu_cxx16__aligned_membufISt4pairIKN4cvc58internal12NodeTemplateILb0EEENS3_16NodeTemplateTrieILb0EEEEE6_M_ptrEv = comdat any

$_ZN9__gnu_cxx16__aligned_membufISt4pairIKN4cvc58internal12NodeTemplateILb0EEENS3_16NodeTemplateTrieILb0EEEEE7_M_addrEv = comdat any

$_ZNSt16allocator_traitsISaISt13_Rb_tree_nodeISt4pairIKN4cvc58internal12NodeTemplateILb0EEENS3_16NodeTemplateTrieILb0EEEEEEE10deallocateERSB_PSA_m = comdat any

$_ZNSt15__new_allocatorISt13_Rb_tree_nodeISt4pairIKN4cvc58internal12NodeTemplateILb0EEENS3_16NodeTemplateTrieILb0EEEEEE10deallocateEPSA_m = comdat any

$_ZNKSt8_Rb_treeIN4cvc58internal12NodeTemplateILb0EEESt4pairIKS3_NS1_16NodeTemplateTrieILb0EEEESt10_Select1stIS8_ESt4lessIS3_ESaIS8_EE9_M_mbeginEv = comdat any

$_ZNSaISt13_Rb_tree_nodeISt4pairIKN4cvc58internal12NodeTemplateILb0EEENS2_16NodeTemplateTrieILb0EEEEEED2Ev = comdat any

$_ZNSt15__new_allocatorISt13_Rb_tree_nodeISt4pairIKN4cvc58internal12NodeTemplateILb0EEENS3_16NodeTemplateTrieILb0EEEEEED2Ev = comdat any

$_ZN9__gnu_cxx16__aligned_membufISt4pairIKN4cvc58internal8TypeNodeENS3_16NodeTemplateTrieILb0EEEEE6_M_ptrEv = comdat any

$_ZN9__gnu_cxx16__aligned_membufISt4pairIKN4cvc58internal8TypeNodeENS3_16NodeTemplateTrieILb0EEEEE7_M_addrEv = comdat any

$_ZNSt16allocator_traitsISaISt13_Rb_tree_nodeISt4pairIKN4cvc58internal8TypeNodeENS3_16NodeTemplateTrieILb0EEEEEEE10deallocateERSA_PS9_m = comdat any

$_ZNSt15__new_allocatorISt13_Rb_tree_nodeISt4pairIKN4cvc58internal8TypeNodeENS3_16NodeTemplateTrieILb0EEEEEE10deallocateEPS9_m = comdat any

$_ZNKSt8_Rb_treeIN4cvc58internal8TypeNodeESt4pairIKS2_NS1_16NodeTemplateTrieILb0EEEESt10_Select1stIS7_ESt4lessIS2_ESaIS7_EE9_M_mbeginEv = comdat any

$_ZNSaISt13_Rb_tree_nodeISt4pairIKN4cvc58internal8TypeNodeENS2_16NodeTemplateTrieILb0EEEEEED2Ev = comdat any

$_ZNSt15__new_allocatorISt13_Rb_tree_nodeISt4pairIKN4cvc58internal8TypeNodeENS3_16NodeTemplateTrieILb0EEEEEED2Ev = comdat any

$_ZNK4cvc58internal12NodeTemplateILb0EE7notNodeEv = comdat any

$_ZNK4cvc58internal12NodeTemplateILb0EE21assertTNodeNotExpiredEv = comdat any

$_ZNSt11char_traitsIcE6lengthEPKc = comdat any

$_ZNSt7__cxx1112basic_stringIcSt11char_traitsIcESaIcEE12_M_constructIPKcEEvT_S8_St20forward_iterator_tag = comdat any

$_ZNSt7__cxx1112basic_stringIcSt11char_traitsIcESaIcEE12_Alloc_hiderD2Ev = comdat any

$_ZSt8distanceIPKcENSt15iterator_traitsIT_E15difference_typeES3_S3_ = comdat any

$_ZZNSt7__cxx1112basic_stringIcSt11char_traitsIcESaIcEE12_M_constructIPKcEEvT_S8_St20forward_iterator_tagEN6_GuardC2EPS4_ = comdat any

$_ZZNSt7__cxx1112basic_stringIcSt11char_traitsIcESaIcEE12_M_constructIPKcEEvT_S8_St20forward_iterator_tagEN6_GuardD2Ev = comdat any

$_ZSt10__distanceIPKcENSt15iterator_traitsIT_E15difference_typeES3_S3_St26random_access_iterator_tag = comdat any

$_ZSt19__iterator_categoryIPKcENSt15iterator_traitsIT_E17iterator_categoryERKS3_ = comdat any

$_ZNSt8ios_base5iwordEi = comdat any

$_ZN4cvc58internallsERSoRKNS0_8TypeNodeE = comdat any

$_ZNK4cvc58internal8TypeNode8toStreamERSo = comdat any

$_ZN4cvc58internal4expr9NodeValueC2Ei = comdat any

$_ZSt8_DestroyIPN4cvc58internal12NodeTemplateILb1EEES3_EvT_S5_RSaIT0_E = comdat any

$_ZNSt12_Vector_baseIN4cvc58internal12NodeTemplateILb1EEESaIS3_EE19_M_get_Tp_allocatorEv = comdat any

$_ZNSt12_Vector_baseIN4cvc58internal12NodeTemplateILb1EEESaIS3_EED2Ev = comdat any

$_ZSt8_DestroyIPN4cvc58internal12NodeTemplateILb1EEEEvT_S5_ = comdat any

$_ZNSt12_Destroy_auxILb0EE9__destroyIPN4cvc58internal12NodeTemplateILb1EEEEEvT_S7_ = comdat any

$_ZSt8_DestroyIN4cvc58internal12NodeTemplateILb1EEEEvPT_ = comdat any

$_ZNSt12_Vector_baseIN4cvc58internal12NodeTemplateILb1EEESaIS3_EE13_M_deallocateEPS3_m = comdat any

$_ZNSt12_Vector_baseIN4cvc58internal12NodeTemplateILb1EEESaIS3_EE12_Vector_implD2Ev = comdat any

$_ZNSt16allocator_traitsISaIN4cvc58internal12NodeTemplateILb1EEEEE10deallocateERS4_PS3_m = comdat any

$_ZNSt15__new_allocatorIN4cvc58internal12NodeTemplateILb1EEEE10deallocateEPS3_m = comdat any

$_ZNSaIN4cvc58internal12NodeTemplateILb1EEEED2Ev = comdat any

$_ZNSt15__new_allocatorIN4cvc58internal12NodeTemplateILb1EEEED2Ev = comdat any

$_ZNK4cvc58internal4expr9NodeValue14getNumChildrenEv = comdat any

$_ZNK4cvc58internal4expr9NodeValue11getMetaKindEv = comdat any

$_ZNK4cvc58internal4expr9NodeValue7getKindEv = comdat any

$_ZN4cvc58internal4expr9NodeValue11dKindToKindEj = comdat any

$_ZN4cvc58internallsERSoNS0_12NodeTemplateILb0EEE = comdat any

$_ZNK4cvc58internal12NodeTemplateILb0EE8toStreamERSo = comdat any

$_ZNK4cvc58internal12NodeTemplateILb1EE21assertTNodeNotExpiredEv = comdat any

$_ZNK4cvc58internal8TypeNode6isNullEv = comdat any

$_ZNSt3mapIN4cvc58internal12NodeTemplateILb1EEES3_St4lessIS3_ESaISt4pairIKS3_S3_EEE11lower_boundERS7_ = comdat any

$_ZSteqRKSt17_Rb_tree_iteratorISt4pairIKN4cvc58internal12NodeTemplateILb1EEES4_EES9_ = comdat any

$_ZNKSt3mapIN4cvc58internal12NodeTemplateILb1EEES3_St4lessIS3_ESaISt4pairIKS3_S3_EEE8key_compEv = comdat any

$_ZNKSt4lessIN4cvc58internal12NodeTemplateILb1EEEEclERKS3_S6_ = comdat any

$_ZNKSt17_Rb_tree_iteratorISt4pairIKN4cvc58internal12NodeTemplateILb1EEES4_EEdeEv = comdat any

$_ZNSt8_Rb_treeIN4cvc58internal12NodeTemplateILb1EEESt4pairIKS3_S3_ESt10_Select1stIS6_ESt4lessIS3_ESaIS6_EE22_M_emplace_hint_uniqueIJRKSt21piecewise_construct_tSt5tupleIJRS5_EESH_IJEEEEESt17_Rb_tree_iteratorIS6_ESt23_Rb_tree_const_iteratorIS6_EDpOT_ = comdat any

$_ZNSt23_Rb_tree_const_iteratorISt4pairIKN4cvc58internal12NodeTemplateILb1EEES4_EEC2ERKSt17_Rb_tree_iteratorIS6_E = comdat any

$_ZNSt5tupleIJRKN4cvc58internal12NodeTemplateILb1EEEEEC2ILb1ETnNSt9enable_ifIXclsr4_TCCIXT_EEE29__is_implicitly_constructibleIS5_EEEbE4typeELb1EEES5_ = comdat any

$_ZNSt8_Rb_treeIN4cvc58internal12NodeTemplateILb1EEESt4pairIKS3_S3_ESt10_Select1stIS6_ESt4lessIS3_ESaIS6_EE11lower_boundERS5_ = comdat any

$_ZNSt8_Rb_treeIN4cvc58internal12NodeTemplateILb1EEESt4pairIKS3_S3_ESt10_Select1stIS6_ESt4lessIS3_ESaIS6_EE14_M_lower_boundEPSt13_Rb_tree_nodeIS6_EPSt18_Rb_tree_node_baseRS5_ = comdat any

$_ZNSt8_Rb_treeIN4cvc58internal12NodeTemplateILb1EEESt4pairIKS3_S3_ESt10_Select1stIS6_ESt4lessIS3_ESaIS6_EE6_M_endEv = comdat any

$_ZNSt8_Rb_treeIN4cvc58internal12NodeTemplateILb1EEESt4pairIKS3_S3_ESt10_Select1stIS6_ESt4lessIS3_ESaIS6_EE6_S_keyEPKSt13_Rb_tree_nodeIS6_E = comdat any

$_ZNSt17_Rb_tree_iteratorISt4pairIKN4cvc58internal12NodeTemplateILb1EEES4_EEC2EPSt18_Rb_tree_node_base = comdat any

$_ZNKSt10_Select1stISt4pairIKN4cvc58internal12NodeTemplateILb1EEES4_EEclERKS6_ = comdat any

$_ZNKSt13_Rb_tree_nodeISt4pairIKN4cvc58internal12NodeTemplateILb1EEES4_EE9_M_valptrEv = comdat any

$_ZNK9__gnu_cxx16__aligned_membufISt4pairIKN4cvc58internal12NodeTemplateILb1EEES5_EE6_M_ptrEv = comdat any

$_ZNK9__gnu_cxx16__aligned_membufISt4pairIKN4cvc58internal12NodeTemplateILb1EEES5_EE7_M_addrEv = comdat any

$_ZNKSt8_Rb_treeIN4cvc58internal12NodeTemplateILb1EEESt4pairIKS3_S3_ESt10_Select1stIS6_ESt4lessIS3_ESaIS6_EE8key_compEv = comdat any

$_ZNK4cvc58internal12NodeTemplateILb1EEltILb1EEEbRKNS1_IXT_EEE = comdat any

$_ZNSt8_Rb_treeIN4cvc58internal12NodeTemplateILb1EEESt4pairIKS3_S3_ESt10_Select1stIS6_ESt4lessIS3_ESaIS6_EE10_Auto_nodeC2IJRKSt21piecewise_construct_tSt5tupleIJRS5_EESI_IJEEEEERSC_DpOT_ = comdat any

$_ZNSt8_Rb_treeIN4cvc58internal12NodeTemplateILb1EEESt4pairIKS3_S3_ESt10_Select1stIS6_ESt4lessIS3_ESaIS6_EE29_M_get_insert_hint_unique_posESt23_Rb_tree_const_iteratorIS6_ERS5_ = comdat any

$_ZNKSt8_Rb_treeIN4cvc58internal12NodeTemplateILb1EEESt4pairIKS3_S3_ESt10_Select1stIS6_ESt4lessIS3_ESaIS6_EE10_Auto_node6_M_keyEv = comdat any

$_ZNSt8_Rb_treeIN4cvc58internal12NodeTemplateILb1EEESt4pairIKS3_S3_ESt10_Select1stIS6_ESt4lessIS3_ESaIS6_EE10_Auto_node9_M_insertES4_IPSt18_Rb_tree_node_baseSF_E = comdat any

$_ZNSt8_Rb_treeIN4cvc58internal12NodeTemplateILb1EEESt4pairIKS3_S3_ESt10_Select1stIS6_ESt4lessIS3_ESaIS6_EE10_Auto_nodeD2Ev = comdat any

$_ZNSt8_Rb_treeIN4cvc58internal12NodeTemplateILb1EEESt4pairIKS3_S3_ESt10_Select1stIS6_ESt4lessIS3_ESaIS6_EE14_M_create_nodeIJRKSt21piecewise_construct_tSt5tupleIJRS5_EESH_IJEEEEEPSt13_Rb_tree_nodeIS6_EDpOT_ = comdat any

$_ZNSt8_Rb_treeIN4cvc58internal12NodeTemplateILb1EEESt4pairIKS3_S3_ESt10_Select1stIS6_ESt4lessIS3_ESaIS6_EE11_M_get_nodeEv = comdat any

$_ZNSt8_Rb_treeIN4cvc58internal12NodeTemplateILb1EEESt4pairIKS3_S3_ESt10_Select1stIS6_ESt4lessIS3_ESaIS6_EE17_M_construct_nodeIJRKSt21piecewise_construct_tSt5tupleIJRS5_EESH_IJEEEEEvPSt13_Rb_tree_nodeIS6_EDpOT_ = comdat any

$_ZNSt16allocator_traitsISaISt13_Rb_tree_nodeISt4pairIKN4cvc58internal12NodeTemplateILb1EEES5_EEEE8allocateERS9_m = comdat any

$_ZNSt15__new_allocatorISt13_Rb_tree_nodeISt4pairIKN4cvc58internal12NodeTemplateILb1EEES5_EEE8allocateEmPKv = comdat any

$_ZNKSt15__new_allocatorISt13_Rb_tree_nodeISt4pairIKN4cvc58internal12NodeTemplateILb1EEES5_EEE11_M_max_sizeEv = comdat any

$_ZNSt16allocator_traitsISaISt13_Rb_tree_nodeISt4pairIKN4cvc58internal12NodeTemplateILb1EEES5_EEEE9constructIS7_JRKSt21piecewise_construct_tSt5tupleIJRS6_EESF_IJEEEEEvRS9_PT_DpOT0_ = comdat any

$_ZNSt15__new_allocatorISt13_Rb_tree_nodeISt4pairIKN4cvc58internal12NodeTemplateILb1EEES5_EEE9constructIS7_JRKSt21piecewise_construct_tSt5tupleIJRS6_EESE_IJEEEEEvPT_DpOT0_ = comdat any

$_ZNSt5tupleIJRKN4cvc58internal12NodeTemplateILb1EEEEEC2EOS6_ = comdat any

$_ZNSt4pairIKN4cvc58internal12NodeTemplateILb1EEES3_EC2IJRS4_EJEEESt21piecewise_construct_tSt5tupleIJDpT_EES9_IJDpT0_EE = comdat any

$_ZNSt11_Tuple_implILm0EJRKN4cvc58internal12NodeTemplateILb1EEEEEC2EOS6_ = comdat any

$_ZNSt4pairIKN4cvc58internal12NodeTemplateILb1EEES3_EC2IJRS4_EJLm0EEJETpTnmJEEERSt5tupleIJDpT_EERS8_IJDpT1_EESt12_Index_tupleIJXspT0_EEESH_IJXspT2_EEE = comdat any

$_ZSt3getILm0EJRKN4cvc58internal12NodeTemplateILb1EEEEERNSt13tuple_elementIXT_ESt5tupleIJDpT0_EEE4typeERSA_ = comdat any

$_ZSt12__get_helperILm0ERKN4cvc58internal12NodeTemplateILb1EEEJEERT0_RSt11_Tuple_implIXT_EJS6_DpT1_EE = comdat any

$_ZNSt11_Tuple_implILm0EJRKN4cvc58internal12NodeTemplateILb1EEEEE7_M_headERS6_ = comdat any

$_ZNSt10_Head_baseILm0ERKN4cvc58internal12NodeTemplateILb1EEELb0EE7_M_headERS6_ = comdat any

$_ZNKSt23_Rb_tree_const_iteratorISt4pairIKN4cvc58internal12NodeTemplateILb1EEES4_EE13_M_const_castEv = comdat any

$_ZNKSt8_Rb_treeIN4cvc58internal12NodeTemplateILb1EEESt4pairIKS3_S3_ESt10_Select1stIS6_ESt4lessIS3_ESaIS6_EE4sizeEv = comdat any

$_ZNSt8_Rb_treeIN4cvc58internal12NodeTemplateILb1EEESt4pairIKS3_S3_ESt10_Select1stIS6_ESt4lessIS3_ESaIS6_EE6_S_keyEPKSt18_Rb_tree_node_base = comdat any

$_ZNSt8_Rb_treeIN4cvc58internal12NodeTemplateILb1EEESt4pairIKS3_S3_ESt10_Select1stIS6_ESt4lessIS3_ESaIS6_EE12_M_rightmostEv = comdat any

$_ZNSt4pairIPSt18_Rb_tree_node_baseS1_EC2IS1_S1_TnNSt9enable_ifIXaaclsr5_PCCPE18_ConstructiblePairIT_T0_EEclsr5_PCCPE26_ImplicitlyConvertiblePairIS5_S6_EEEbE4typeELb1EEERKS1_SA_ = comdat any

$_ZNSt8_Rb_treeIN4cvc58internal12NodeTemplateILb1EEESt4pairIKS3_S3_ESt10_Select1stIS6_ESt4lessIS3_ESaIS6_EE24_M_get_insert_unique_posERS5_ = comdat any

$_ZNSt8_Rb_treeIN4cvc58internal12NodeTemplateILb1EEESt4pairIKS3_S3_ESt10_Select1stIS6_ESt4lessIS3_ESaIS6_EE11_M_leftmostEv = comdat any

$_ZNSt4pairIPSt18_Rb_tree_node_baseS1_EC2IRS1_S4_TnNSt9enable_ifIXaaclsr5_PCCPE22_MoveConstructiblePairIT_T0_EEclsr5_PCCPE30_ImplicitlyMoveConvertiblePairIS6_S7_EEEbE4typeELb1EEEOS6_OS7_ = comdat any

$_ZNSt17_Rb_tree_iteratorISt4pairIKN4cvc58internal12NodeTemplateILb1EEES4_EEmmEv = comdat any

$_ZNSt17_Rb_tree_iteratorISt4pairIKN4cvc58internal12NodeTemplateILb1EEES4_EEppEv = comdat any

$_ZNSt8_Rb_treeIN4cvc58internal12NodeTemplateILb1EEESt4pairIKS3_S3_ESt10_Select1stIS6_ESt4lessIS3_ESaIS6_EE5beginEv = comdat any

$_ZNSt4pairIPSt18_Rb_tree_node_baseS1_EC2IRPSt13_Rb_tree_nodeIS_IKN4cvc58internal12NodeTemplateILb1EEES8_EERS1_TnNSt9enable_ifIXaaclsr5_PCCPE22_MoveConstructiblePairIT_T0_EEclsr5_PCCPE30_ImplicitlyMoveConvertiblePairISG_SH_EEEbE4typeELb1EEEOSG_OSH_ = comdat any

$_ZNSt8_Rb_treeIN4cvc58internal12NodeTemplateILb1EEESt4pairIKS3_S3_ESt10_Select1stIS6_ESt4lessIS3_ESaIS6_EE14_M_insert_nodeEPSt18_Rb_tree_node_baseSE_PSt13_Rb_tree_nodeIS6_E = comdat any

$_ZNSt11_Tuple_implILm0EJRKN4cvc58internal12NodeTemplateILb1EEEEEC2ES5_ = comdat any

$_ZNSt10_Head_baseILm0ERKN4cvc58internal12NodeTemplateILb1EEELb0EEC2ES5_ = comdat any

$_ZN4cvc58internal11NodeBuilder6appendILb1EEERS1_RKSt6vectorINS0_12NodeTemplateIXT_EEESaIS6_EE = comdat any

$_ZN4cvc58internal11NodeBuilder6appendIN9__gnu_cxx17__normal_iteratorIPKNS0_12NodeTemplateILb1EEESt6vectorIS6_SaIS6_EEEEEERS1_RKT_SG_ = comdat any

$_ZNK4cvc58internal4expr9NodeValue8getChildEi = comdat any

$_ZNSt6vectorIN4cvc58internal6theory11SkolemLemmaESaIS3_EE12emplace_backIJS3_EEERS3_DpOT_ = comdat any

$_ZNSt16allocator_traitsISaIN4cvc58internal6theory11SkolemLemmaEEE9constructIS3_JS3_EEEvRS4_PT_DpOT0_ = comdat any

$_ZNSt6vectorIN4cvc58internal6theory11SkolemLemmaESaIS3_EE17_M_realloc_insertIJS3_EEEvN9__gnu_cxx17__normal_iteratorIPS3_S5_EEDpOT_ = comdat any

$_ZNSt6vectorIN4cvc58internal6theory11SkolemLemmaESaIS3_EE3endEv = comdat any

$_ZNSt6vectorIN4cvc58internal6theory11SkolemLemmaESaIS3_EE4backEv = comdat any

$_ZNSt15__new_allocatorIN4cvc58internal6theory11SkolemLemmaEE9constructIS3_JS3_EEEvPT_DpOT0_ = comdat any

$_ZN4cvc58internal6theory11SkolemLemmaC2EOS2_ = comdat any

$_ZNKSt6vectorIN4cvc58internal6theory11SkolemLemmaESaIS3_EE12_M_check_lenEmPKc = comdat any

$_ZN9__gnu_cxxmiIPN4cvc58internal6theory11SkolemLemmaESt6vectorIS4_SaIS4_EEEENS_17__normal_iteratorIT_T0_E15difference_typeERKSC_SF_ = comdat any

$_ZNSt6vectorIN4cvc58internal6theory11SkolemLemmaESaIS3_EE5beginEv = comdat any

$_ZNSt12_Vector_baseIN4cvc58internal6theory11SkolemLemmaESaIS3_EE11_M_allocateEm = comdat any

$_ZSt34__uninitialized_move_if_noexcept_aIPN4cvc58internal6theory11SkolemLemmaES4_SaIS3_EET0_T_S7_S6_RT1_ = comdat any

$_ZNK9__gnu_cxx17__normal_iteratorIPN4cvc58internal6theory11SkolemLemmaESt6vectorIS4_SaIS4_EEE4baseEv = comdat any

$_ZNSt12_Vector_baseIN4cvc58internal6theory11SkolemLemmaESaIS3_EE19_M_get_Tp_allocatorEv = comdat any

$_ZNSt16allocator_traitsISaIN4cvc58internal6theory11SkolemLemmaEEE7destroyIS3_EEvRS4_PT_ = comdat any

$_ZSt8_DestroyIPN4cvc58internal6theory11SkolemLemmaES3_EvT_S5_RSaIT0_E = comdat any

$_ZNSt12_Vector_baseIN4cvc58internal6theory11SkolemLemmaESaIS3_EE13_M_deallocateEPS3_m = comdat any

$_ZNKSt6vectorIN4cvc58internal6theory11SkolemLemmaESaIS3_EE8max_sizeEv = comdat any

$_ZNKSt6vectorIN4cvc58internal6theory11SkolemLemmaESaIS3_EE4sizeEv = comdat any

$_ZSt3maxImERKT_S2_S2_ = comdat any

$_ZNSt6vectorIN4cvc58internal6theory11SkolemLemmaESaIS3_EE11_S_max_sizeERKS4_ = comdat any

$_ZNKSt12_Vector_baseIN4cvc58internal6theory11SkolemLemmaESaIS3_EE19_M_get_Tp_allocatorEv = comdat any

$_ZNSt16allocator_traitsISaIN4cvc58internal6theory11SkolemLemmaEEE8max_sizeERKS4_ = comdat any

$_ZSt3minImERKT_S2_S2_ = comdat any

$_ZNKSt15__new_allocatorIN4cvc58internal6theory11SkolemLemmaEE8max_sizeEv = comdat any

$_ZNKSt15__new_allocatorIN4cvc58internal6theory11SkolemLemmaEE11_M_max_sizeEv = comdat any

$_ZN9__gnu_cxx17__normal_iteratorIPN4cvc58internal6theory11SkolemLemmaESt6vectorIS4_SaIS4_EEEC2ERKS5_ = comdat any

$_ZNSt16allocator_traitsISaIN4cvc58internal6theory11SkolemLemmaEEE8allocateERS4_m = comdat any

$_ZNSt15__new_allocatorIN4cvc58internal6theory11SkolemLemmaEE8allocateEmPKv = comdat any

$_ZSt22__uninitialized_copy_aIPKN4cvc58internal6theory11SkolemLemmaEPS3_S3_ET0_T_S8_S7_RSaIT1_E = comdat any

$_ZSt32__make_move_if_noexcept_iteratorIN4cvc58internal6theory11SkolemLemmaEPKS3_ET0_PT_ = comdat any

$_ZSt18uninitialized_copyIPKN4cvc58internal6theory11SkolemLemmaEPS3_ET0_T_S8_S7_ = comdat any

$_ZNSt20__uninitialized_copyILb0EE13__uninit_copyIPKN4cvc58internal6theory11SkolemLemmaEPS5_EET0_T_SA_S9_ = comdat any

$_ZSt16__do_uninit_copyIPKN4cvc58internal6theory11SkolemLemmaEPS3_ET0_T_S8_S7_ = comdat any

$_ZSt10_ConstructIN4cvc58internal6theory11SkolemLemmaEJRKS3_EEvPT_DpOT0_ = comdat any

$_ZSt8_DestroyIPN4cvc58internal6theory11SkolemLemmaEEvT_S5_ = comdat any

$_ZN4cvc58internal6theory11SkolemLemmaC2ERKS2_ = comdat any

$_ZNSt12_Destroy_auxILb0EE9__destroyIPN4cvc58internal6theory11SkolemLemmaEEEvT_S7_ = comdat any

$_ZSt8_DestroyIN4cvc58internal6theory11SkolemLemmaEEvPT_ = comdat any

$_ZNSt15__new_allocatorIN4cvc58internal6theory11SkolemLemmaEE7destroyIS3_EEvPT_ = comdat any

$_ZNSt16allocator_traitsISaIN4cvc58internal6theory11SkolemLemmaEEE10deallocateERS4_PS3_m = comdat any

$_ZNSt15__new_allocatorIN4cvc58internal6theory11SkolemLemmaEE10deallocateEPS3_m = comdat any

$_ZNK9__gnu_cxx17__normal_iteratorIPN4cvc58internal6theory11SkolemLemmaESt6vectorIS4_SaIS4_EEEmiEl = comdat any

$_ZNK9__gnu_cxx17__normal_iteratorIPN4cvc58internal6theory11SkolemLemmaESt6vectorIS4_SaIS4_EEEdeEv = comdat any

$_ZNSt8_Rb_treeIN4cvc58internal4kind6Kind_tESt4pairIKS3_St6vectorINS1_12NodeTemplateILb1EEESaIS8_EEESt10_Select1stISB_ESt4lessIS3_ESaISB_EE5clearEv = comdat any

$_ZNSt3mapIN4cvc58internal4kind6Kind_tESt6vectorINS1_12NodeTemplateILb1EEESaIS6_EESt4lessIS3_ESaISt4pairIKS3_S8_EEE11lower_boundERSC_ = comdat any

$_ZSteqRKSt17_Rb_tree_iteratorISt4pairIKN4cvc58internal4kind6Kind_tESt6vectorINS2_12NodeTemplateILb1EEESaIS8_EEEESE_ = comdat any

$_ZNKSt3mapIN4cvc58internal4kind6Kind_tESt6vectorINS1_12NodeTemplateILb1EEESaIS6_EESt4lessIS3_ESaISt4pairIKS3_S8_EEE8key_compEv = comdat any

$_ZNKSt4lessIN4cvc58internal4kind6Kind_tEEclERKS3_S6_ = comdat any

$_ZNSt8_Rb_treeIN4cvc58internal4kind6Kind_tESt4pairIKS3_St6vectorINS1_12NodeTemplateILb1EEESaIS8_EEESt10_Select1stISB_ESt4lessIS3_ESaISB_EE22_M_emplace_hint_uniqueIJRKSt21piecewise_construct_tSt5tupleIJOS3_EESM_IJEEEEESt17_Rb_tree_iteratorISB_ESt23_Rb_tree_const_iteratorISB_EDpOT_ = comdat any

$_ZNSt23_Rb_tree_const_iteratorISt4pairIKN4cvc58internal4kind6Kind_tESt6vectorINS2_12NodeTemplateILb1EEESaIS8_EEEEC2ERKSt17_Rb_tree_iteratorISB_E = comdat any

$_ZSt16forward_as_tupleIJN4cvc58internal4kind6Kind_tEEESt5tupleIJDpOT_EES7_ = comdat any

$_ZNSt8_Rb_treeIN4cvc58internal4kind6Kind_tESt4pairIKS3_St6vectorINS1_12NodeTemplateILb1EEESaIS8_EEESt10_Select1stISB_ESt4lessIS3_ESaISB_EE11lower_boundERS5_ = comdat any

$_ZNSt8_Rb_treeIN4cvc58internal4kind6Kind_tESt4pairIKS3_St6vectorINS1_12NodeTemplateILb1EEESaIS8_EEESt10_Select1stISB_ESt4lessIS3_ESaISB_EE14_M_lower_boundEPSt13_Rb_tree_nodeISB_EPSt18_Rb_tree_node_baseRS5_ = comdat any

$_ZNSt8_Rb_treeIN4cvc58internal4kind6Kind_tESt4pairIKS3_St6vectorINS1_12NodeTemplateILb1EEESaIS8_EEESt10_Select1stISB_ESt4lessIS3_ESaISB_EE6_M_endEv = comdat any

$_ZNSt8_Rb_treeIN4cvc58internal4kind6Kind_tESt4pairIKS3_St6vectorINS1_12NodeTemplateILb1EEESaIS8_EEESt10_Select1stISB_ESt4lessIS3_ESaISB_EE6_S_keyEPKSt13_Rb_tree_nodeISB_E = comdat any

$_ZNSt17_Rb_tree_iteratorISt4pairIKN4cvc58internal4kind6Kind_tESt6vectorINS2_12NodeTemplateILb1EEESaIS8_EEEEC2EPSt18_Rb_tree_node_base = comdat any

$_ZNKSt10_Select1stISt4pairIKN4cvc58internal4kind6Kind_tESt6vectorINS2_12NodeTemplateILb1EEESaIS8_EEEEclERKSB_ = comdat any

$_ZNKSt13_Rb_tree_nodeISt4pairIKN4cvc58internal4kind6Kind_tESt6vectorINS2_12NodeTemplateILb1EEESaIS8_EEEE9_M_valptrEv = comdat any

$_ZNK9__gnu_cxx16__aligned_membufISt4pairIKN4cvc58internal4kind6Kind_tESt6vectorINS3_12NodeTemplateILb1EEESaIS9_EEEE6_M_ptrEv = comdat any

$_ZNK9__gnu_cxx16__aligned_membufISt4pairIKN4cvc58internal4kind6Kind_tESt6vectorINS3_12NodeTemplateILb1EEESaIS9_EEEE7_M_addrEv = comdat any

$_ZNKSt8_Rb_treeIN4cvc58internal4kind6Kind_tESt4pairIKS3_St6vectorINS1_12NodeTemplateILb1EEESaIS8_EEESt10_Select1stISB_ESt4lessIS3_ESaISB_EE8key_compEv = comdat any

$_ZNSt8_Rb_treeIN4cvc58internal4kind6Kind_tESt4pairIKS3_St6vectorINS1_12NodeTemplateILb1EEESaIS8_EEESt10_Select1stISB_ESt4lessIS3_ESaISB_EE10_Auto_nodeC2IJRKSt21piecewise_construct_tSt5tupleIJOS3_EESN_IJEEEEERSH_DpOT_ = comdat any

$_ZNSt8_Rb_treeIN4cvc58internal4kind6Kind_tESt4pairIKS3_St6vectorINS1_12NodeTemplateILb1EEESaIS8_EEESt10_Select1stISB_ESt4lessIS3_ESaISB_EE29_M_get_insert_hint_unique_posESt23_Rb_tree_const_iteratorISB_ERS5_ = comdat any

$_ZNKSt8_Rb_treeIN4cvc58internal4kind6Kind_tESt4pairIKS3_St6vectorINS1_12NodeTemplateILb1EEESaIS8_EEESt10_Select1stISB_ESt4lessIS3_ESaISB_EE10_Auto_node6_M_keyEv = comdat any

$_ZNSt8_Rb_treeIN4cvc58internal4kind6Kind_tESt4pairIKS3_St6vectorINS1_12NodeTemplateILb1EEESaIS8_EEESt10_Select1stISB_ESt4lessIS3_ESaISB_EE10_Auto_node9_M_insertES4_IPSt18_Rb_tree_node_baseSK_E = comdat any

$_ZNSt8_Rb_treeIN4cvc58internal4kind6Kind_tESt4pairIKS3_St6vectorINS1_12NodeTemplateILb1EEESaIS8_EEESt10_Select1stISB_ESt4lessIS3_ESaISB_EE10_Auto_nodeD2Ev = comdat any

$_ZNSt8_Rb_treeIN4cvc58internal4kind6Kind_tESt4pairIKS3_St6vectorINS1_12NodeTemplateILb1EEESaIS8_EEESt10_Select1stISB_ESt4lessIS3_ESaISB_EE14_M_create_nodeIJRKSt21piecewise_construct_tSt5tupleIJOS3_EESM_IJEEEEEPSt13_Rb_tree_nodeISB_EDpOT_ = comdat any

$_ZNSt8_Rb_treeIN4cvc58internal4kind6Kind_tESt4pairIKS3_St6vectorINS1_12NodeTemplateILb1EEESaIS8_EEESt10_Select1stISB_ESt4lessIS3_ESaISB_EE11_M_get_nodeEv = comdat any

$_ZNSt8_Rb_treeIN4cvc58internal4kind6Kind_tESt4pairIKS3_St6vectorINS1_12NodeTemplateILb1EEESaIS8_EEESt10_Select1stISB_ESt4lessIS3_ESaISB_EE17_M_construct_nodeIJRKSt21piecewise_construct_tSt5tupleIJOS3_EESM_IJEEEEEvPSt13_Rb_tree_nodeISB_EDpOT_ = comdat any

$_ZNSt16allocator_traitsISaISt13_Rb_tree_nodeISt4pairIKN4cvc58internal4kind6Kind_tESt6vectorINS3_12NodeTemplateILb1EEESaIS9_EEEEEE8allocateERSE_m = comdat any

$_ZNSt15__new_allocatorISt13_Rb_tree_nodeISt4pairIKN4cvc58internal4kind6Kind_tESt6vectorINS3_12NodeTemplateILb1EEESaIS9_EEEEE8allocateEmPKv = comdat any

$_ZNKSt15__new_allocatorISt13_Rb_tree_nodeISt4pairIKN4cvc58internal4kind6Kind_tESt6vectorINS3_12NodeTemplateILb1EEESaIS9_EEEEE11_M_max_sizeEv = comdat any

$_ZNSt16allocator_traitsISaISt13_Rb_tree_nodeISt4pairIKN4cvc58internal4kind6Kind_tESt6vectorINS3_12NodeTemplateILb1EEESaIS9_EEEEEE9constructISC_JRKSt21piecewise_construct_tSt5tupleIJOS5_EESK_IJEEEEEvRSE_PT_DpOT0_ = comdat any

$_ZNSt15__new_allocatorISt13_Rb_tree_nodeISt4pairIKN4cvc58internal4kind6Kind_tESt6vectorINS3_12NodeTemplateILb1EEESaIS9_EEEEE9constructISC_JRKSt21piecewise_construct_tSt5tupleIJOS5_EESJ_IJEEEEEvPT_DpOT0_ = comdat any

$_ZNSt5tupleIJON4cvc58internal4kind6Kind_tEEEC2EOS5_ = comdat any

$_ZNSt4pairIKN4cvc58internal4kind6Kind_tESt6vectorINS1_12NodeTemplateILb1EEESaIS7_EEEC2IJOS3_EJEEESt21piecewise_construct_tSt5tupleIJDpT_EESE_IJDpT0_EE = comdat any

$_ZNSt11_Tuple_implILm0EJON4cvc58internal4kind6Kind_tEEEC2EOS5_ = comdat any

$_ZNSt4pairIKN4cvc58internal4kind6Kind_tESt6vectorINS1_12NodeTemplateILb1EEESaIS7_EEEC2IJOS3_EJLm0EEJETpTnmJEEERSt5tupleIJDpT_EERSD_IJDpT1_EESt12_Index_tupleIJXspT0_EEESM_IJXspT2_EEE = comdat any

$_ZSt3getILm0EJON4cvc58internal4kind6Kind_tEEERNSt13tuple_elementIXT_ESt5tupleIJDpT0_EEE4typeERS9_ = comdat any

$_ZSt12__get_helperILm0EON4cvc58internal4kind6Kind_tEJEERT0_RSt11_Tuple_implIXT_EJS5_DpT1_EE = comdat any

$_ZNSt11_Tuple_implILm0EJON4cvc58internal4kind6Kind_tEEE7_M_headERS5_ = comdat any

$_ZNSt10_Head_baseILm0EON4cvc58internal4kind6Kind_tELb0EE7_M_headERS5_ = comdat any

$_ZNKSt23_Rb_tree_const_iteratorISt4pairIKN4cvc58internal4kind6Kind_tESt6vectorINS2_12NodeTemplateILb1EEESaIS8_EEEE13_M_const_castEv = comdat any

$_ZNKSt8_Rb_treeIN4cvc58internal4kind6Kind_tESt4pairIKS3_St6vectorINS1_12NodeTemplateILb1EEESaIS8_EEESt10_Select1stISB_ESt4lessIS3_ESaISB_EE4sizeEv = comdat any

$_ZNSt8_Rb_treeIN4cvc58internal4kind6Kind_tESt4pairIKS3_St6vectorINS1_12NodeTemplateILb1EEESaIS8_EEESt10_Select1stISB_ESt4lessIS3_ESaISB_EE6_S_keyEPKSt18_Rb_tree_node_base = comdat any

$_ZNSt8_Rb_treeIN4cvc58internal4kind6Kind_tESt4pairIKS3_St6vectorINS1_12NodeTemplateILb1EEESaIS8_EEESt10_Select1stISB_ESt4lessIS3_ESaISB_EE12_M_rightmostEv = comdat any

$_ZNSt8_Rb_treeIN4cvc58internal4kind6Kind_tESt4pairIKS3_St6vectorINS1_12NodeTemplateILb1EEESaIS8_EEESt10_Select1stISB_ESt4lessIS3_ESaISB_EE24_M_get_insert_unique_posERS5_ = comdat any

$_ZNSt8_Rb_treeIN4cvc58internal4kind6Kind_tESt4pairIKS3_St6vectorINS1_12NodeTemplateILb1EEESaIS8_EEESt10_Select1stISB_ESt4lessIS3_ESaISB_EE11_M_leftmostEv = comdat any

$_ZNSt17_Rb_tree_iteratorISt4pairIKN4cvc58internal4kind6Kind_tESt6vectorINS2_12NodeTemplateILb1EEESaIS8_EEEEmmEv = comdat any

$_ZNSt8_Rb_treeIN4cvc58internal4kind6Kind_tESt4pairIKS3_St6vectorINS1_12NodeTemplateILb1EEESaIS8_EEESt10_Select1stISB_ESt4lessIS3_ESaISB_EE5beginEv = comdat any

$_ZNSt4pairIPSt18_Rb_tree_node_baseS1_EC2IRPSt13_Rb_tree_nodeIS_IKN4cvc58internal4kind6Kind_tESt6vectorINS6_12NodeTemplateILb1EEESaISC_EEEERS1_TnNSt9enable_ifIXaaclsr5_PCCPE22_MoveConstructiblePairIT_T0_EEclsr5_PCCPE30_ImplicitlyMoveConvertiblePairISL_SM_EEEbE4typeELb1EEEOSL_OSM_ = comdat any

$_ZNSt8_Rb_treeIN4cvc58internal4kind6Kind_tESt4pairIKS3_St6vectorINS1_12NodeTemplateILb1EEESaIS8_EEESt10_Select1stISB_ESt4lessIS3_ESaISB_EE14_M_insert_nodeEPSt18_Rb_tree_node_baseSJ_PSt13_Rb_tree_nodeISB_E = comdat any

$_ZNSt5tupleIJON4cvc58internal4kind6Kind_tEEEC2IJS3_ELb1ETnNSt9enable_ifIXclsr4_TCCIXT0_EEE29__is_implicitly_constructibleIDpT_EEEbE4typeELb1EEEDpOS8_ = comdat any

$_ZNSt11_Tuple_implILm0EJON4cvc58internal4kind6Kind_tEEEC2IS3_EEOT_ = comdat any

$_ZNSt10_Head_baseILm0EON4cvc58internal4kind6Kind_tELb0EEC2IS3_EEOT_ = comdat any

$_ZNSt16allocator_traitsISaIN4cvc58internal12NodeTemplateILb1EEEEE9constructIS3_JRKS3_EEEvRS4_PT_DpOT0_ = comdat any

$_ZNSt6vectorIN4cvc58internal12NodeTemplateILb1EEESaIS3_EE17_M_realloc_insertIJRKS3_EEEvN9__gnu_cxx17__normal_iteratorIPS3_S5_EEDpOT_ = comdat any

$_ZNSt15__new_allocatorIN4cvc58internal12NodeTemplateILb1EEEE9constructIS3_JRKS3_EEEvPT_DpOT0_ = comdat any

$_ZNKSt6vectorIN4cvc58internal12NodeTemplateILb1EEESaIS3_EE12_M_check_lenEmPKc = comdat any

$_ZN9__gnu_cxxmiIPN4cvc58internal12NodeTemplateILb1EEESt6vectorIS4_SaIS4_EEEENS_17__normal_iteratorIT_T0_E15difference_typeERKSC_SF_ = comdat any

$_ZNSt12_Vector_baseIN4cvc58internal12NodeTemplateILb1EEESaIS3_EE11_M_allocateEm = comdat any

$_ZSt34__uninitialized_move_if_noexcept_aIPN4cvc58internal12NodeTemplateILb1EEES4_SaIS3_EET0_T_S7_S6_RT1_ = comdat any

$_ZNK9__gnu_cxx17__normal_iteratorIPN4cvc58internal12NodeTemplateILb1EEESt6vectorIS4_SaIS4_EEE4baseEv = comdat any

$_ZNSt16allocator_traitsISaIN4cvc58internal12NodeTemplateILb1EEEEE7destroyIS3_EEvRS4_PT_ = comdat any

$_ZNKSt6vectorIN4cvc58internal12NodeTemplateILb1EEESaIS3_EE8max_sizeEv = comdat any

$_ZNSt6vectorIN4cvc58internal12NodeTemplateILb1EEESaIS3_EE11_S_max_sizeERKS4_ = comdat any

$_ZNKSt12_Vector_baseIN4cvc58internal12NodeTemplateILb1EEESaIS3_EE19_M_get_Tp_allocatorEv = comdat any

$_ZNSt16allocator_traitsISaIN4cvc58internal12NodeTemplateILb1EEEEE8max_sizeERKS4_ = comdat any

$_ZNKSt15__new_allocatorIN4cvc58internal12NodeTemplateILb1EEEE8max_sizeEv = comdat any

$_ZNKSt15__new_allocatorIN4cvc58internal12NodeTemplateILb1EEEE11_M_max_sizeEv = comdat any

$_ZNSt16allocator_traitsISaIN4cvc58internal12NodeTemplateILb1EEEEE8allocateERS4_m = comdat any

$_ZNSt15__new_allocatorIN4cvc58internal12NodeTemplateILb1EEEE8allocateEmPKv = comdat any

$_ZSt22__uninitialized_copy_aIPKN4cvc58internal12NodeTemplateILb1EEEPS3_S3_ET0_T_S8_S7_RSaIT1_E = comdat any

$_ZSt32__make_move_if_noexcept_iteratorIN4cvc58internal12NodeTemplateILb1EEEPKS3_ET0_PT_ = comdat any

$_ZSt18uninitialized_copyIPKN4cvc58internal12NodeTemplateILb1EEEPS3_ET0_T_S8_S7_ = comdat any

$_ZNSt20__uninitialized_copyILb0EE13__uninit_copyIPKN4cvc58internal12NodeTemplateILb1EEEPS5_EET0_T_SA_S9_ = comdat any

$_ZSt16__do_uninit_copyIPKN4cvc58internal12NodeTemplateILb1EEEPS3_ET0_T_S8_S7_ = comdat any

$_ZSt10_ConstructIN4cvc58internal12NodeTemplateILb1EEEJRKS3_EEvPT_DpOT0_ = comdat any

$_ZNSt15__new_allocatorIN4cvc58internal12NodeTemplateILb1EEEE7destroyIS3_EEvPT_ = comdat any

$_ZNK9__gnu_cxx17__normal_iteratorIPSt4pairIN4cvc58internal6theory4bags9InferStepEmESt6vectorIS7_SaIS7_EEE4baseEv = comdat any

$_ZN4cvc58internallsILb1EEERSoS2_RKSt3setINS0_12NodeTemplateIXT_EEESt4lessIS5_ESaIS5_EE = comdat any

$_ZN4cvc58internal19container_to_streamISt3setINS0_12NodeTemplateILb1EEESt4lessIS4_ESaIS4_EEEEvRSoRKT_PKcSE_SE_ = comdat any

$_ZNKSt8_Rb_treeIN4cvc58internal12NodeTemplateILb1EEES3_St9_IdentityIS3_ESt4lessIS3_ESaIS3_EE5beginEv = comdat any

$_ZNSt23_Rb_tree_const_iteratorIN4cvc58internal12NodeTemplateILb1EEEEC2EPKSt18_Rb_tree_node_base = comdat any

$_ZNKSt8_Rb_treeIN4cvc58internal12NodeTemplateILb1EEES3_St9_IdentityIS3_ESt4lessIS3_ESaIS3_EE3endEv = comdat any

$_ZNKSt13_Rb_tree_nodeIN4cvc58internal12NodeTemplateILb1EEEE9_M_valptrEv = comdat any

$_ZNK9__gnu_cxx16__aligned_membufIN4cvc58internal12NodeTemplateILb1EEEE6_M_ptrEv = comdat any

$_ZNK9__gnu_cxx16__aligned_membufIN4cvc58internal12NodeTemplateILb1EEEE7_M_addrEv = comdat any

$_ZNSt8_Rb_treeIN4cvc58internal12NodeTemplateILb1EEESt4pairIKS3_S3_ESt10_Select1stIS6_ESt4lessIS3_ESaIS6_EE4findERS5_ = comdat any

$_ZNSt8_Rb_treeIN4cvc58internal12NodeTemplateILb1EEESt4pairIKS3_S3_ESt10_Select1stIS6_ESt4lessIS3_ESaIS6_EE3endEv = comdat any

$_ZSt8_DestroyIPSt4pairIN4cvc58internal12NodeTemplateILb1EEES4_ES5_EvT_S7_RSaIT0_E = comdat any

$_ZNSt12_Vector_baseISt4pairIN4cvc58internal12NodeTemplateILb1EEES4_ESaIS5_EE19_M_get_Tp_allocatorEv = comdat any

$_ZNSt12_Vector_baseISt4pairIN4cvc58internal12NodeTemplateILb1EEES4_ESaIS5_EED2Ev = comdat any

$_ZSt8_DestroyIPSt4pairIN4cvc58internal12NodeTemplateILb1EEES4_EEvT_S7_ = comdat any

$_ZNSt12_Destroy_auxILb0EE9__destroyIPSt4pairIN4cvc58internal12NodeTemplateILb1EEES6_EEEvT_S9_ = comdat any

$_ZSt8_DestroyISt4pairIN4cvc58internal12NodeTemplateILb1EEES4_EEvPT_ = comdat any

$_ZNSt12_Vector_baseISt4pairIN4cvc58internal12NodeTemplateILb1EEES4_ESaIS5_EE13_M_deallocateEPS5_m = comdat any

$_ZNSt12_Vector_baseISt4pairIN4cvc58internal12NodeTemplateILb1EEES4_ESaIS5_EE12_Vector_implD2Ev = comdat any

$_ZNSt16allocator_traitsISaISt4pairIN4cvc58internal12NodeTemplateILb1EEES4_EEE10deallocateERS6_PS5_m = comdat any

$_ZNSt15__new_allocatorISt4pairIN4cvc58internal12NodeTemplateILb1EEES4_EE10deallocateEPS5_m = comdat any

$_ZNSaISt4pairIN4cvc58internal12NodeTemplateILb1EEES3_EED2Ev = comdat any

$_ZNSt15__new_allocatorISt4pairIN4cvc58internal12NodeTemplateILb1EEES4_EED2Ev = comdat any

$_ZN9__gnu_cxx17__normal_iteratorIPKSt4pairIN4cvc58internal12NodeTemplateILb1EEES5_ESt6vectorIS6_SaIS6_EEEC2ERKS8_ = comdat any

$_ZNK9__gnu_cxx17__normal_iteratorIPKSt4pairIN4cvc58internal12NodeTemplateILb1EEES5_ESt6vectorIS6_SaIS6_EEE4baseEv = comdat any

$_ZNKSt8_Rb_treeIN4cvc58internal12NodeTemplateILb1EEES3_St9_IdentityIS3_ESt4lessIS3_ESaIS3_EE4findERKS3_ = comdat any

$_ZNKSt8_Rb_treeIN4cvc58internal12NodeTemplateILb1EEES3_St9_IdentityIS3_ESt4lessIS3_ESaIS3_EE14_M_lower_boundEPKSt13_Rb_tree_nodeIS3_EPKSt18_Rb_tree_node_baseRKS3_ = comdat any

$_ZNKSt8_Rb_treeIN4cvc58internal12NodeTemplateILb1EEES3_St9_IdentityIS3_ESt4lessIS3_ESaIS3_EE8_M_beginEv = comdat any

$_ZNKSt8_Rb_treeIN4cvc58internal12NodeTemplateILb1EEES3_St9_IdentityIS3_ESt4lessIS3_ESaIS3_EE6_M_endEv = comdat any

$_ZNSt8_Rb_treeIN4cvc58internal12NodeTemplateILb1EEES3_St9_IdentityIS3_ESt4lessIS3_ESaIS3_EE6_S_keyEPKSt18_Rb_tree_node_base = comdat any

$_ZNSt8_Rb_treeIN4cvc58internal12NodeTemplateILb1EEES3_St9_IdentityIS3_ESt4lessIS3_ESaIS3_EE6_S_keyEPKSt13_Rb_tree_nodeIS3_E = comdat any

$_ZNSt8_Rb_treeIN4cvc58internal12NodeTemplateILb1EEES3_St9_IdentityIS3_ESt4lessIS3_ESaIS3_EE7_S_leftEPKSt18_Rb_tree_node_base = comdat any

$_ZNSt8_Rb_treeIN4cvc58internal12NodeTemplateILb1EEES3_St9_IdentityIS3_ESt4lessIS3_ESaIS3_EE8_S_rightEPKSt18_Rb_tree_node_base = comdat any

$_ZNKSt9_IdentityIN4cvc58internal12NodeTemplateILb1EEEEclERKS3_ = comdat any

$_ZNSt16allocator_traitsISaISt4pairIN4cvc58internal12NodeTemplateILb1EEES4_EEE9constructIS5_JRKS5_EEEvRS6_PT_DpOT0_ = comdat any

$_ZNSt6vectorISt4pairIN4cvc58internal12NodeTemplateILb1EEES4_ESaIS5_EE17_M_realloc_insertIJRKS5_EEEvN9__gnu_cxx17__normal_iteratorIPS5_S7_EEDpOT_ = comdat any

$_ZNSt15__new_allocatorISt4pairIN4cvc58internal12NodeTemplateILb1EEES4_EE9constructIS5_JRKS5_EEEvPT_DpOT0_ = comdat any

$_ZNKSt6vectorISt4pairIN4cvc58internal12NodeTemplateILb1EEES4_ESaIS5_EE12_M_check_lenEmPKc = comdat any

$_ZN9__gnu_cxxmiIPSt4pairIN4cvc58internal12NodeTemplateILb1EEES5_ESt6vectorIS6_SaIS6_EEEENS_17__normal_iteratorIT_T0_E15difference_typeERKSE_SH_ = comdat any

$_ZNSt12_Vector_baseISt4pairIN4cvc58internal12NodeTemplateILb1EEES4_ESaIS5_EE11_M_allocateEm = comdat any

$_ZSt34__uninitialized_move_if_noexcept_aIPSt4pairIN4cvc58internal12NodeTemplateILb1EEES4_ES6_SaIS5_EET0_T_S9_S8_RT1_ = comdat any

$_ZNK9__gnu_cxx17__normal_iteratorIPSt4pairIN4cvc58internal12NodeTemplateILb1EEES5_ESt6vectorIS6_SaIS6_EEE4baseEv = comdat any

$_ZNSt16allocator_traitsISaISt4pairIN4cvc58internal12NodeTemplateILb1EEES4_EEE7destroyIS5_EEvRS6_PT_ = comdat any

$_ZNKSt6vectorISt4pairIN4cvc58internal12NodeTemplateILb1EEES4_ESaIS5_EE8max_sizeEv = comdat any

$_ZNKSt6vectorISt4pairIN4cvc58internal12NodeTemplateILb1EEES4_ESaIS5_EE4sizeEv = comdat any

$_ZNSt6vectorISt4pairIN4cvc58internal12NodeTemplateILb1EEES4_ESaIS5_EE11_S_max_sizeERKS6_ = comdat any

$_ZNKSt12_Vector_baseISt4pairIN4cvc58internal12NodeTemplateILb1EEES4_ESaIS5_EE19_M_get_Tp_allocatorEv = comdat any

$_ZNSt16allocator_traitsISaISt4pairIN4cvc58internal12NodeTemplateILb1EEES4_EEE8max_sizeERKS6_ = comdat any

$_ZNKSt15__new_allocatorISt4pairIN4cvc58internal12NodeTemplateILb1EEES4_EE8max_sizeEv = comdat any

$_ZNKSt15__new_allocatorISt4pairIN4cvc58internal12NodeTemplateILb1EEES4_EE11_M_max_sizeEv = comdat any

$_ZNSt16allocator_traitsISaISt4pairIN4cvc58internal12NodeTemplateILb1EEES4_EEE8allocateERS6_m = comdat any

$_ZNSt15__new_allocatorISt4pairIN4cvc58internal12NodeTemplateILb1EEES4_EE8allocateEmPKv = comdat any

$_ZSt22__uninitialized_copy_aIPKSt4pairIN4cvc58internal12NodeTemplateILb1EEES4_EPS5_S5_ET0_T_SA_S9_RSaIT1_E = comdat any

$_ZSt32__make_move_if_noexcept_iteratorISt4pairIN4cvc58internal12NodeTemplateILb1EEES4_EPKS5_ET0_PT_ = comdat any

$_ZSt18uninitialized_copyIPKSt4pairIN4cvc58internal12NodeTemplateILb1EEES4_EPS5_ET0_T_SA_S9_ = comdat any

$_ZNSt20__uninitialized_copyILb0EE13__uninit_copyIPKSt4pairIN4cvc58internal12NodeTemplateILb1EEES6_EPS7_EET0_T_SC_SB_ = comdat any

$_ZSt16__do_uninit_copyIPKSt4pairIN4cvc58internal12NodeTemplateILb1EEES4_EPS5_ET0_T_SA_S9_ = comdat any

$_ZSt10_ConstructISt4pairIN4cvc58internal12NodeTemplateILb1EEES4_EJRKS5_EEvPT_DpOT0_ = comdat any

$_ZNSt15__new_allocatorISt4pairIN4cvc58internal12NodeTemplateILb1EEES4_EE7destroyIS5_EEvPT_ = comdat any

$_ZN9__gnu_cxx17__normal_iteratorIPSt4pairIN4cvc58internal12NodeTemplateILb1EEES5_ESt6vectorIS6_SaIS6_EEEC2ERKS7_ = comdat any

$_ZN9__gnu_cxx17__normal_iteratorIPN4cvc58internal12NodeTemplateILb1EEESt6vectorIS4_SaIS4_EEEC2ERKS5_ = comdat any

$_ZN4cvc58internallsILb1ENS0_12NodeTemplateILb1EEEEERSoS4_RKSt3mapINS2_IXT_EEET0_St4lessIS6_ESaISt4pairIKS6_S7_EEE = comdat any

$_ZN4cvc58internal19container_to_streamISt3mapINS0_12NodeTemplateILb1EEES4_St4lessIS4_ESaISt4pairIKS4_S4_EEEEEvRSoRKT_PKcSH_SH_ = comdat any

$_ZNKSt3mapIN4cvc58internal12NodeTemplateILb1EEES3_St4lessIS3_ESaISt4pairIKS3_S3_EEE5beginEv = comdat any

$_ZNKSt3mapIN4cvc58internal12NodeTemplateILb1EEES3_St4lessIS3_ESaISt4pairIKS3_S3_EEE3endEv = comdat any

$_ZStneRKSt23_Rb_tree_const_iteratorISt4pairIKN4cvc58internal12NodeTemplateILb1EEES4_EES9_ = comdat any

$_ZNKSt23_Rb_tree_const_iteratorISt4pairIKN4cvc58internal12NodeTemplateILb1EEES4_EEdeEv = comdat any

$_ZN4cvc58internallsIKNS0_12NodeTemplateILb1EEES3_EERSoS5_RKSt4pairIT_T0_E = comdat any

$_ZNSt23_Rb_tree_const_iteratorISt4pairIKN4cvc58internal12NodeTemplateILb1EEES4_EEppEv = comdat any

$_ZNKSt8_Rb_treeIN4cvc58internal12NodeTemplateILb1EEESt4pairIKS3_S3_ESt10_Select1stIS6_ESt4lessIS3_ESaIS6_EE5beginEv = comdat any

$_ZNSt23_Rb_tree_const_iteratorISt4pairIKN4cvc58internal12NodeTemplateILb1EEES4_EEC2EPKSt18_Rb_tree_node_base = comdat any

$_ZNKSt8_Rb_treeIN4cvc58internal12NodeTemplateILb1EEESt4pairIKS3_S3_ESt10_Select1stIS6_ESt4lessIS3_ESaIS6_EE3endEv = comdat any

$_ZNSt8_Rb_treeIN4cvc58internal4kind6Kind_tESt4pairIKS3_St6vectorINS1_12NodeTemplateILb1EEESaIS8_EEESt10_Select1stISB_ESt4lessIS3_ESaISB_EE3endEv = comdat any

$_ZN9__gnu_cxx17__normal_iteratorIPKN4cvc58internal12NodeTemplateILb1EEESt6vectorIS4_SaIS4_EEEC2ERKS6_ = comdat any

$_ZNK9__gnu_cxx17__normal_iteratorIPKN4cvc58internal12NodeTemplateILb1EEESt6vectorIS4_SaIS4_EEE4baseEv = comdat any

$_ZN4cvc58internal12NodeTemplateILb0EEC2EPKNS0_4expr9NodeValueE = comdat any

$_ZSt8_DestroyIPN4cvc58internal12NodeTemplateILb0EEES3_EvT_S5_RSaIT0_E = comdat any

$_ZNSt12_Vector_baseIN4cvc58internal12NodeTemplateILb0EEESaIS3_EE19_M_get_Tp_allocatorEv = comdat any

$_ZNSt12_Vector_baseIN4cvc58internal12NodeTemplateILb0EEESaIS3_EED2Ev = comdat any

$_ZSt8_DestroyIPN4cvc58internal12NodeTemplateILb0EEEEvT_S5_ = comdat any

$_ZNSt12_Destroy_auxILb0EE9__destroyIPN4cvc58internal12NodeTemplateILb0EEEEEvT_S7_ = comdat any

$_ZSt8_DestroyIN4cvc58internal12NodeTemplateILb0EEEEvPT_ = comdat any

$_ZNSt12_Vector_baseIN4cvc58internal12NodeTemplateILb0EEESaIS3_EE13_M_deallocateEPS3_m = comdat any

$_ZNSt12_Vector_baseIN4cvc58internal12NodeTemplateILb0EEESaIS3_EE12_Vector_implD2Ev = comdat any

$_ZNSt16allocator_traitsISaIN4cvc58internal12NodeTemplateILb0EEEEE10deallocateERS4_PS3_m = comdat any

$_ZNSt15__new_allocatorIN4cvc58internal12NodeTemplateILb0EEEE10deallocateEPS3_m = comdat any

$_ZNSaIN4cvc58internal12NodeTemplateILb0EEEED2Ev = comdat any

$_ZNSt15__new_allocatorIN4cvc58internal12NodeTemplateILb0EEEED2Ev = comdat any

$_ZNSt6vectorIN4cvc58internal12NodeTemplateILb0EEESaIS3_EE12emplace_backIJS3_EEERS3_DpOT_ = comdat any

$_ZNSt16allocator_traitsISaIN4cvc58internal12NodeTemplateILb0EEEEE9constructIS3_JS3_EEEvRS4_PT_DpOT0_ = comdat any

$_ZNSt6vectorIN4cvc58internal12NodeTemplateILb0EEESaIS3_EE17_M_realloc_insertIJS3_EEEvN9__gnu_cxx17__normal_iteratorIPS3_S5_EEDpOT_ = comdat any

$_ZNSt6vectorIN4cvc58internal12NodeTemplateILb0EEESaIS3_EE3endEv = comdat any

$_ZNSt6vectorIN4cvc58internal12NodeTemplateILb0EEESaIS3_EE4backEv = comdat any

$_ZNSt15__new_allocatorIN4cvc58internal12NodeTemplateILb0EEEE9constructIS3_JS3_EEEvPT_DpOT0_ = comdat any

$_ZNKSt6vectorIN4cvc58internal12NodeTemplateILb0EEESaIS3_EE12_M_check_lenEmPKc = comdat any

$_ZN9__gnu_cxxmiIPN4cvc58internal12NodeTemplateILb0EEESt6vectorIS4_SaIS4_EEEENS_17__normal_iteratorIT_T0_E15difference_typeERKSC_SF_ = comdat any

$_ZNSt6vectorIN4cvc58internal12NodeTemplateILb0EEESaIS3_EE5beginEv = comdat any

$_ZNSt12_Vector_baseIN4cvc58internal12NodeTemplateILb0EEESaIS3_EE11_M_allocateEm = comdat any

$_ZSt34__uninitialized_move_if_noexcept_aIPN4cvc58internal12NodeTemplateILb0EEES4_SaIS3_EET0_T_S7_S6_RT1_ = comdat any

$_ZNK9__gnu_cxx17__normal_iteratorIPN4cvc58internal12NodeTemplateILb0EEESt6vectorIS4_SaIS4_EEE4baseEv = comdat any

$_ZNSt16allocator_traitsISaIN4cvc58internal12NodeTemplateILb0EEEEE7destroyIS3_EEvRS4_PT_ = comdat any

$_ZNKSt6vectorIN4cvc58internal12NodeTemplateILb0EEESaIS3_EE8max_sizeEv = comdat any

$_ZNSt6vectorIN4cvc58internal12NodeTemplateILb0EEESaIS3_EE11_S_max_sizeERKS4_ = comdat any

$_ZNKSt12_Vector_baseIN4cvc58internal12NodeTemplateILb0EEESaIS3_EE19_M_get_Tp_allocatorEv = comdat any

$_ZNSt16allocator_traitsISaIN4cvc58internal12NodeTemplateILb0EEEEE8max_sizeERKS4_ = comdat any

$_ZNKSt15__new_allocatorIN4cvc58internal12NodeTemplateILb0EEEE8max_sizeEv = comdat any

$_ZNKSt15__new_allocatorIN4cvc58internal12NodeTemplateILb0EEEE11_M_max_sizeEv = comdat any

$_ZN9__gnu_cxx17__normal_iteratorIPN4cvc58internal12NodeTemplateILb0EEESt6vectorIS4_SaIS4_EEEC2ERKS5_ = comdat any

$_ZNSt16allocator_traitsISaIN4cvc58internal12NodeTemplateILb0EEEEE8allocateERS4_m = comdat any

$_ZNSt15__new_allocatorIN4cvc58internal12NodeTemplateILb0EEEE8allocateEmPKv = comdat any

$_ZSt22__uninitialized_copy_aIPKN4cvc58internal12NodeTemplateILb0EEEPS3_S3_ET0_T_S8_S7_RSaIT1_E = comdat any

$_ZSt32__make_move_if_noexcept_iteratorIN4cvc58internal12NodeTemplateILb0EEEPKS3_ET0_PT_ = comdat any

$_ZSt18uninitialized_copyIPKN4cvc58internal12NodeTemplateILb0EEEPS3_ET0_T_S8_S7_ = comdat any

$_ZNSt20__uninitialized_copyILb0EE13__uninit_copyIPKN4cvc58internal12NodeTemplateILb0EEEPS5_EET0_T_SA_S9_ = comdat any

$_ZSt16__do_uninit_copyIPKN4cvc58internal12NodeTemplateILb0EEEPS3_ET0_T_S8_S7_ = comdat any

$_ZSt10_ConstructIN4cvc58internal12NodeTemplateILb0EEEJRKS3_EEvPT_DpOT0_ = comdat any

$_ZNSt15__new_allocatorIN4cvc58internal12NodeTemplateILb0EEEE7destroyIS3_EEvPT_ = comdat any

$_ZNK9__gnu_cxx17__normal_iteratorIPN4cvc58internal12NodeTemplateILb0EEESt6vectorIS4_SaIS4_EEEmiEl = comdat any

$_ZNK9__gnu_cxx17__normal_iteratorIPN4cvc58internal12NodeTemplateILb0EEESt6vectorIS4_SaIS4_EEEdeEv = comdat any

$_ZN4cvc58internallsILb0EEERSoS2_RKSt6vectorINS0_12NodeTemplateIXT_EEESaIS5_EE = comdat any

$_ZN4cvc58internal19container_to_streamISt6vectorINS0_12NodeTemplateILb0EEESaIS4_EEEEvRSoRKT_PKcSC_SC_ = comdat any

$_ZNKSt6vectorIN4cvc58internal12NodeTemplateILb0EEESaIS3_EE5beginEv = comdat any

$_ZNKSt6vectorIN4cvc58internal12NodeTemplateILb0EEESaIS3_EE3endEv = comdat any

$_ZN9__gnu_cxxneIPKN4cvc58internal12NodeTemplateILb0EEESt6vectorIS4_SaIS4_EEEEbRKNS_17__normal_iteratorIT_T0_EESF_ = comdat any

$_ZNK9__gnu_cxx17__normal_iteratorIPKN4cvc58internal12NodeTemplateILb0EEESt6vectorIS4_SaIS4_EEEdeEv = comdat any

$_ZN9__gnu_cxx17__normal_iteratorIPKN4cvc58internal12NodeTemplateILb0EEESt6vectorIS4_SaIS4_EEEppEv = comdat any

$_ZN9__gnu_cxx17__normal_iteratorIPKN4cvc58internal12NodeTemplateILb0EEESt6vectorIS4_SaIS4_EEEC2ERKS6_ = comdat any

$_ZNK9__gnu_cxx17__normal_iteratorIPKN4cvc58internal12NodeTemplateILb0EEESt6vectorIS4_SaIS4_EEE4baseEv = comdat any

$_ZNSt3mapIN4cvc58internal8TypeNodeENS1_16NodeTemplateTrieILb0EEESt4lessIS2_ESaISt4pairIKS2_S4_EEE11lower_boundERS8_ = comdat any

$_ZSteqRKSt17_Rb_tree_iteratorISt4pairIKN4cvc58internal8TypeNodeENS2_16NodeTemplateTrieILb0EEEEESA_ = comdat any

$_ZNKSt3mapIN4cvc58internal8TypeNodeENS1_16NodeTemplateTrieILb0EEESt4lessIS2_ESaISt4pairIKS2_S4_EEE8key_compEv = comdat any

$_ZNKSt4lessIN4cvc58internal8TypeNodeEEclERKS2_S5_ = comdat any

$_ZNSt8_Rb_treeIN4cvc58internal8TypeNodeESt4pairIKS2_NS1_16NodeTemplateTrieILb0EEEESt10_Select1stIS7_ESt4lessIS2_ESaIS7_EE22_M_emplace_hint_uniqueIJRKSt21piecewise_construct_tSt5tupleIJRS4_EESI_IJEEEEESt17_Rb_tree_iteratorIS7_ESt23_Rb_tree_const_iteratorIS7_EDpOT_ = comdat any

$_ZNSt23_Rb_tree_const_iteratorISt4pairIKN4cvc58internal8TypeNodeENS2_16NodeTemplateTrieILb0EEEEEC2ERKSt17_Rb_tree_iteratorIS7_E = comdat any

$_ZNSt5tupleIJRKN4cvc58internal8TypeNodeEEEC2ILb1ETnNSt9enable_ifIXclsr4_TCCIXT_EEE29__is_implicitly_constructibleIS4_EEEbE4typeELb1EEES4_ = comdat any

$_ZNSt8_Rb_treeIN4cvc58internal8TypeNodeESt4pairIKS2_NS1_16NodeTemplateTrieILb0EEEESt10_Select1stIS7_ESt4lessIS2_ESaIS7_EE11lower_boundERS4_ = comdat any

$_ZNSt8_Rb_treeIN4cvc58internal8TypeNodeESt4pairIKS2_NS1_16NodeTemplateTrieILb0EEEESt10_Select1stIS7_ESt4lessIS2_ESaIS7_EE14_M_lower_boundEPSt13_Rb_tree_nodeIS7_EPSt18_Rb_tree_node_baseRS4_ = comdat any

$_ZNSt8_Rb_treeIN4cvc58internal8TypeNodeESt4pairIKS2_NS1_16NodeTemplateTrieILb0EEEESt10_Select1stIS7_ESt4lessIS2_ESaIS7_EE6_M_endEv = comdat any

$_ZNSt8_Rb_treeIN4cvc58internal8TypeNodeESt4pairIKS2_NS1_16NodeTemplateTrieILb0EEEESt10_Select1stIS7_ESt4lessIS2_ESaIS7_EE6_S_keyEPKSt13_Rb_tree_nodeIS7_E = comdat any

$_ZNSt17_Rb_tree_iteratorISt4pairIKN4cvc58internal8TypeNodeENS2_16NodeTemplateTrieILb0EEEEEC2EPSt18_Rb_tree_node_base = comdat any

$_ZNKSt10_Select1stISt4pairIKN4cvc58internal8TypeNodeENS2_16NodeTemplateTrieILb0EEEEEclERKS7_ = comdat any

$_ZNKSt13_Rb_tree_nodeISt4pairIKN4cvc58internal8TypeNodeENS2_16NodeTemplateTrieILb0EEEEE9_M_valptrEv = comdat any

$_ZNK9__gnu_cxx16__aligned_membufISt4pairIKN4cvc58internal8TypeNodeENS3_16NodeTemplateTrieILb0EEEEE6_M_ptrEv = comdat any

$_ZNK9__gnu_cxx16__aligned_membufISt4pairIKN4cvc58internal8TypeNodeENS3_16NodeTemplateTrieILb0EEEEE7_M_addrEv = comdat any

$_ZNKSt8_Rb_treeIN4cvc58internal8TypeNodeESt4pairIKS2_NS1_16NodeTemplateTrieILb0EEEESt10_Select1stIS7_ESt4lessIS2_ESaIS7_EE8key_compEv = comdat any

$_ZNK4cvc58internal8TypeNodeltERKS1_ = comdat any

$_ZNSt8_Rb_treeIN4cvc58internal8TypeNodeESt4pairIKS2_NS1_16NodeTemplateTrieILb0EEEESt10_Select1stIS7_ESt4lessIS2_ESaIS7_EE10_Auto_nodeC2IJRKSt21piecewise_construct_tSt5tupleIJRS4_EESJ_IJEEEEERSD_DpOT_ = comdat any

$_ZNSt8_Rb_treeIN4cvc58internal8TypeNodeESt4pairIKS2_NS1_16NodeTemplateTrieILb0EEEESt10_Select1stIS7_ESt4lessIS2_ESaIS7_EE29_M_get_insert_hint_unique_posESt23_Rb_tree_const_iteratorIS7_ERS4_ = comdat any

$_ZNKSt8_Rb_treeIN4cvc58internal8TypeNodeESt4pairIKS2_NS1_16NodeTemplateTrieILb0EEEESt10_Select1stIS7_ESt4lessIS2_ESaIS7_EE10_Auto_node6_M_keyEv = comdat any

$_ZNSt8_Rb_treeIN4cvc58internal8TypeNodeESt4pairIKS2_NS1_16NodeTemplateTrieILb0EEEESt10_Select1stIS7_ESt4lessIS2_ESaIS7_EE10_Auto_node9_M_insertES3_IPSt18_Rb_tree_node_baseSG_E = comdat any

$_ZNSt8_Rb_treeIN4cvc58internal8TypeNodeESt4pairIKS2_NS1_16NodeTemplateTrieILb0EEEESt10_Select1stIS7_ESt4lessIS2_ESaIS7_EE10_Auto_nodeD2Ev = comdat any

$_ZNSt8_Rb_treeIN4cvc58internal8TypeNodeESt4pairIKS2_NS1_16NodeTemplateTrieILb0EEEESt10_Select1stIS7_ESt4lessIS2_ESaIS7_EE14_M_create_nodeIJRKSt21piecewise_construct_tSt5tupleIJRS4_EESI_IJEEEEEPSt13_Rb_tree_nodeIS7_EDpOT_ = comdat any

$_ZNSt8_Rb_treeIN4cvc58internal8TypeNodeESt4pairIKS2_NS1_16NodeTemplateTrieILb0EEEESt10_Select1stIS7_ESt4lessIS2_ESaIS7_EE11_M_get_nodeEv = comdat any

$_ZNSt8_Rb_treeIN4cvc58internal8TypeNodeESt4pairIKS2_NS1_16NodeTemplateTrieILb0EEEESt10_Select1stIS7_ESt4lessIS2_ESaIS7_EE17_M_construct_nodeIJRKSt21piecewise_construct_tSt5tupleIJRS4_EESI_IJEEEEEvPSt13_Rb_tree_nodeIS7_EDpOT_ = comdat any

$_ZNSt16allocator_traitsISaISt13_Rb_tree_nodeISt4pairIKN4cvc58internal8TypeNodeENS3_16NodeTemplateTrieILb0EEEEEEE8allocateERSA_m = comdat any

$_ZNSt15__new_allocatorISt13_Rb_tree_nodeISt4pairIKN4cvc58internal8TypeNodeENS3_16NodeTemplateTrieILb0EEEEEE8allocateEmPKv = comdat any

$_ZNKSt15__new_allocatorISt13_Rb_tree_nodeISt4pairIKN4cvc58internal8TypeNodeENS3_16NodeTemplateTrieILb0EEEEEE11_M_max_sizeEv = comdat any

$_ZNSt16allocator_traitsISaISt13_Rb_tree_nodeISt4pairIKN4cvc58internal8TypeNodeENS3_16NodeTemplateTrieILb0EEEEEEE9constructIS8_JRKSt21piecewise_construct_tSt5tupleIJRS5_EESG_IJEEEEEvRSA_PT_DpOT0_ = comdat any

$_ZNSt15__new_allocatorISt13_Rb_tree_nodeISt4pairIKN4cvc58internal8TypeNodeENS3_16NodeTemplateTrieILb0EEEEEE9constructIS8_JRKSt21piecewise_construct_tSt5tupleIJRS5_EESF_IJEEEEEvPT_DpOT0_ = comdat any

$_ZNSt5tupleIJRKN4cvc58internal8TypeNodeEEEC2EOS5_ = comdat any

$_ZNSt4pairIKN4cvc58internal8TypeNodeENS1_16NodeTemplateTrieILb0EEEEC2IJRS3_EJEEESt21piecewise_construct_tSt5tupleIJDpT_EESA_IJDpT0_EE = comdat any

$_ZNSt11_Tuple_implILm0EJRKN4cvc58internal8TypeNodeEEEC2EOS5_ = comdat any

$_ZNSt4pairIKN4cvc58internal8TypeNodeENS1_16NodeTemplateTrieILb0EEEEC2IJRS3_EJLm0EEJETpTnmJEEERSt5tupleIJDpT_EERS9_IJDpT1_EESt12_Index_tupleIJXspT0_EEESI_IJXspT2_EEE = comdat any

$_ZSt3getILm0EJRKN4cvc58internal8TypeNodeEEERNSt13tuple_elementIXT_ESt5tupleIJDpT0_EEE4typeERS9_ = comdat any

$_ZN4cvc58internal16NodeTemplateTrieILb0EEC2Ev = comdat any

$_ZSt12__get_helperILm0ERKN4cvc58internal8TypeNodeEJEERT0_RSt11_Tuple_implIXT_EJS5_DpT1_EE = comdat any

$_ZNSt11_Tuple_implILm0EJRKN4cvc58internal8TypeNodeEEE7_M_headERS5_ = comdat any

$_ZNSt10_Head_baseILm0ERKN4cvc58internal8TypeNodeELb0EE7_M_headERS5_ = comdat any

$_ZNSt3mapIN4cvc58internal12NodeTemplateILb0EEENS1_16NodeTemplateTrieILb0EEESt4lessIS3_ESaISt4pairIKS3_S5_EEEC2Ev = comdat any

$_ZNSt8_Rb_treeIN4cvc58internal12NodeTemplateILb0EEESt4pairIKS3_NS1_16NodeTemplateTrieILb0EEEESt10_Select1stIS8_ESt4lessIS3_ESaIS8_EEC2Ev = comdat any

$_ZNSt8_Rb_treeIN4cvc58internal12NodeTemplateILb0EEESt4pairIKS3_NS1_16NodeTemplateTrieILb0EEEESt10_Select1stIS8_ESt4lessIS3_ESaIS8_EE13_Rb_tree_implISC_Lb1EEC2Ev = comdat any

$_ZNSaISt13_Rb_tree_nodeISt4pairIKN4cvc58internal12NodeTemplateILb0EEENS2_16NodeTemplateTrieILb0EEEEEEC2Ev = comdat any

$_ZNSt20_Rb_tree_key_compareISt4lessIN4cvc58internal12NodeTemplateILb0EEEEEC2Ev = comdat any

$_ZNSt15__new_allocatorISt13_Rb_tree_nodeISt4pairIKN4cvc58internal12NodeTemplateILb0EEENS3_16NodeTemplateTrieILb0EEEEEEC2Ev = comdat any

$_ZNKSt23_Rb_tree_const_iteratorISt4pairIKN4cvc58internal8TypeNodeENS2_16NodeTemplateTrieILb0EEEEE13_M_const_castEv = comdat any

$_ZNKSt8_Rb_treeIN4cvc58internal8TypeNodeESt4pairIKS2_NS1_16NodeTemplateTrieILb0EEEESt10_Select1stIS7_ESt4lessIS2_ESaIS7_EE4sizeEv = comdat any

$_ZNSt8_Rb_treeIN4cvc58internal8TypeNodeESt4pairIKS2_NS1_16NodeTemplateTrieILb0EEEESt10_Select1stIS7_ESt4lessIS2_ESaIS7_EE6_S_keyEPKSt18_Rb_tree_node_base = comdat any

$_ZNSt8_Rb_treeIN4cvc58internal8TypeNodeESt4pairIKS2_NS1_16NodeTemplateTrieILb0EEEESt10_Select1stIS7_ESt4lessIS2_ESaIS7_EE12_M_rightmostEv = comdat any

$_ZNSt8_Rb_treeIN4cvc58internal8TypeNodeESt4pairIKS2_NS1_16NodeTemplateTrieILb0EEEESt10_Select1stIS7_ESt4lessIS2_ESaIS7_EE24_M_get_insert_unique_posERS4_ = comdat any

$_ZNSt8_Rb_treeIN4cvc58internal8TypeNodeESt4pairIKS2_NS1_16NodeTemplateTrieILb0EEEESt10_Select1stIS7_ESt4lessIS2_ESaIS7_EE11_M_leftmostEv = comdat any

$_ZNSt17_Rb_tree_iteratorISt4pairIKN4cvc58internal8TypeNodeENS2_16NodeTemplateTrieILb0EEEEEmmEv = comdat any

$_ZNSt8_Rb_treeIN4cvc58internal8TypeNodeESt4pairIKS2_NS1_16NodeTemplateTrieILb0EEEESt10_Select1stIS7_ESt4lessIS2_ESaIS7_EE5beginEv = comdat any

$_ZNSt4pairIPSt18_Rb_tree_node_baseS1_EC2IRPSt13_Rb_tree_nodeIS_IKN4cvc58internal8TypeNodeENS6_16NodeTemplateTrieILb0EEEEERS1_TnNSt9enable_ifIXaaclsr5_PCCPE22_MoveConstructiblePairIT_T0_EEclsr5_PCCPE30_ImplicitlyMoveConvertiblePairISH_SI_EEEbE4typeELb1EEEOSH_OSI_ = comdat any

$_ZNSt8_Rb_treeIN4cvc58internal8TypeNodeESt4pairIKS2_NS1_16NodeTemplateTrieILb0EEEESt10_Select1stIS7_ESt4lessIS2_ESaIS7_EE14_M_insert_nodeEPSt18_Rb_tree_node_baseSF_PSt13_Rb_tree_nodeIS7_E = comdat any

$_ZNSt11_Tuple_implILm0EJRKN4cvc58internal8TypeNodeEEEC2ES4_ = comdat any

$_ZNSt10_Head_baseILm0ERKN4cvc58internal8TypeNodeELb0EEC2ES4_ = comdat any

$_ZNK4cvc58internal12NodeTemplateILb0EEeqILb0EEEbRKNS1_IXT_EEE = comdat any

$_ZNSt8_Rb_treeIN4cvc58internal8TypeNodeESt4pairIKS2_NS1_16NodeTemplateTrieILb0EEEESt10_Select1stIS7_ESt4lessIS2_ESaIS7_EE3endEv = comdat any

$_ZTSN4cvc58internal14LogicExceptionE = comdat any

$_ZTIN4cvc58internal14LogicExceptionE = comdat any

$_ZTSN4cvc58internal6theory19TheoryEqNotifyClassE = comdat any

$_ZTSN4cvc58internal6theory2eq20EqualityEngineNotifyE = comdat any

$_ZTIN4cvc58internal6theory2eq20EqualityEngineNotifyE = comdat any

$_ZTIN4cvc58internal6theory19TheoryEqNotifyClassE = comdat any

$_ZTVN4cvc58internal6theory19TheoryEqNotifyClassE = comdat any

$_ZTVN4cvc58internal6theory2eq20EqualityEngineNotifyE = comdat any

$_ZTVN4cvc58internal6theory4bags12TermRegistryE = comdat any

$_ZTSN4cvc58internal6theory4bags12TermRegistryE = comdat any

$_ZTSN4cvc58internal6EnvObjE = comdat any

$_ZTIN4cvc58internal6EnvObjE = comdat any

$_ZTIN4cvc58internal6theory4bags12TermRegistryE = comdat any

$_ZTVN4cvc57context9CDHashMapINS_8internal12NodeTemplateILb1EEES4_St4hashIS4_EEE = comdat any

$_ZTSN4cvc57context9CDHashMapINS_8internal12NodeTemplateILb1EEES4_St4hashIS4_EEE = comdat any

$_ZTSN4cvc57context10ContextObjE = comdat any

$_ZTIN4cvc57context10ContextObjE = comdat any

$_ZTIN4cvc57context9CDHashMapINS_8internal12NodeTemplateILb1EEES4_St4hashIS4_EEE = comdat any

$_ZTVN4cvc58internal6theory4bags16InferenceManagerE = comdat any

$_ZTSN4cvc58internal6theory4bags16InferenceManagerE = comdat any

$_ZTIN4cvc58internal6theory4bags16InferenceManagerE = comdat any

$_ZTVN4cvc58internal6theory4bags11SolverStateE = comdat any

$_ZTSN4cvc58internal6theory4bags11SolverStateE = comdat any

$_ZTIN4cvc58internal6theory4bags11SolverStateE = comdat any

$_ZTVN4cvc57context9CDHashMapINS_8internal12NodeTemplateILb1EEESt10shared_ptrINS0_9CDHashSetIS4_St4hashIS4_EEEES8_EE = comdat any

$_ZTSN4cvc57context9CDHashMapINS_8internal12NodeTemplateILb1EEESt10shared_ptrINS0_9CDHashSetIS4_St4hashIS4_EEEES8_EE = comdat any

$_ZTIN4cvc57context9CDHashMapINS_8internal12NodeTemplateILb1EEESt10shared_ptrINS0_9CDHashSetIS4_St4hashIS4_EEEES8_EE = comdat any

$_ZTVN4cvc57context3CDOIbEE = comdat any

$_ZTSN4cvc57context3CDOIbEE = comdat any

$_ZTIN4cvc57context3CDOIbEE = comdat any

$_ZTVN4cvc57context10ContextObjE = comdat any

$_ZTVN4cvc58internal14LogicExceptionE = comdat any

$_ZZN4cvc58internal4expr9NodeValue4nullEvE6s_null = comdat any

$_ZGVZN4cvc58internal4expr9NodeValue4nullEvE6s_null = comdat any

$_ZSt19piecewise_construct = comdat any

@_ZStL8__ioinit = internal global %"class.std::ios_base::Init" zeroinitializer, align 1
@__dso_handle = external hidden global i8
@.str = private unnamed_addr constant [1 x i8] zeroinitializer, align 1
@_ZTVN4cvc58internal6theory4bags10TheoryBagsE = hidden unnamed_addr constant { [36 x ptr] } { [36 x ptr] [ptr null, ptr @_ZTIN4cvc58internal6theory4bags10TheoryBagsE, ptr @_ZN4cvc58internal6theory4bags10TheoryBagsD1Ev, ptr @_ZN4cvc58internal6theory4bags10TheoryBagsD0Ev, ptr @_ZN4cvc58internal6theory4bags10TheoryBags19processCarePairArgsENS0_12NodeTemplateILb0EEES5_, ptr @_ZN4cvc58internal6theory6Theory15areCareDisequalENS0_12NodeTemplateILb0EEES4_, ptr @_ZN4cvc58internal6theory4bags10TheoryBags16computeCareGraphEv, ptr @_ZN4cvc58internal6theory4bags10TheoryBags10finishInitEv, ptr @_ZN4cvc58internal6theory6Theory16notifySharedTermENS0_12NodeTemplateILb0EEE, ptr @_ZN4cvc58internal6theory6Theory16notifyInConflictEv, ptr @_ZN4cvc58internal6theory4bags10TheoryBags17getTheoryRewriterEv, ptr @_ZN4cvc58internal6theory4bags10TheoryBags15getProofCheckerEv, ptr @_ZN4cvc58internal6theory4bags10TheoryBags19needsEqualityEngineERNS1_11EeSetupInfoE, ptr @_ZN4cvc58internal6theory4bags10TheoryBags15preRegisterTermENS0_12NodeTemplateILb0EEE, ptr @_ZN4cvc58internal6theory6Theory17getEqualityStatusENS0_12NodeTemplateILb0EEES4_, ptr @_ZN4cvc58internal6theory4bags10TheoryBags22getCandidateModelValueENS0_12NodeTemplateILb0EEE, ptr @_ZN4cvc58internal6theory6Theory9propagateENS2_6EffortE, ptr @_ZN4cvc58internal6theory4bags10TheoryBags7explainENS0_12NodeTemplateILb0EEE, ptr @_ZN4cvc58internal6theory6Theory20needsCheckLastEffortEv, ptr @_ZN4cvc58internal6theory6Theory8preCheckENS2_6EffortE, ptr @_ZN4cvc58internal6theory4bags10TheoryBags9postCheckENS1_6Theory6EffortE, ptr @_ZN4cvc58internal6theory6Theory13preNotifyFactENS0_12NodeTemplateILb0EEEbS4_bb, ptr @_ZN4cvc58internal6theory4bags10TheoryBags10notifyFactENS0_12NodeTemplateILb0EEEbS5_b, ptr @_ZN4cvc58internal6theory6Theory16collectModelInfoEPNS1_11TheoryModelERKSt3setINS0_12NodeTemplateILb1EEESt4lessIS7_ESaIS7_EE, ptr @_ZN4cvc58internal6theory6Theory20computeRelevantTermsERSt3setINS0_12NodeTemplateILb1EEESt4lessIS5_ESaIS5_EE, ptr @_ZN4cvc58internal6theory4bags10TheoryBags18collectModelValuesEPNS1_11TheoryModelERKSt3setINS0_12NodeTemplateILb1EEESt4lessIS8_ESaIS8_EE, ptr @_ZN4cvc58internal6theory6Theory16postProcessModelEPNS1_11TheoryModelE, ptr @_ZN4cvc58internal6theory6Theory13ppStaticLearnENS0_12NodeTemplateILb0EEERNS0_11NodeBuilderE, ptr @_ZN4cvc58internal6theory6Theory8ppAssertENS0_9TrustNodeERNS1_20TrustSubstitutionMapE, ptr @_ZN4cvc58internal6theory4bags10TheoryBags9ppRewriteENS0_12NodeTemplateILb0EEERSt6vectorINS1_11SkolemLemmaESaIS7_EE, ptr @_ZN4cvc58internal6theory6Theory15ppStaticRewriteENS0_12NodeTemplateILb0EEE, ptr @_ZN4cvc58internal6theory6Theory18ppNotifyAssertionsERKSt6vectorINS0_12NodeTemplateILb1EEESaIS5_EE, ptr @_ZN4cvc58internal6theory4bags10TheoryBags8presolveEv, ptr @_ZN4cvc58internal6theory6Theory13notifyRestartEv, ptr @_ZNK4cvc58internal6theory4bags10TheoryBags8identifyB5cxx11Ev, ptr @_ZN4cvc58internal6theory6Theory15entailmentCheckENS0_12NodeTemplateILb0EEE] }, align 8
@.str.1 = private unnamed_addr constant [17 x i8] c"theory::bags::ee\00", align 1
@_ZN4cvc58internal10nullStreamE = external global %"class.cvc5::internal::NullC", align 1
@_ZN4cvc58internal12TraceChannelE = external global %"class.cvc5::internal::TraceC", align 8
@.str.2 = private unnamed_addr constant [23 x i8] c"TheoryBags::ppRewrite \00", align 1
@.str.3 = private unnamed_addr constant [8 x i8] c"reduce(\00", align 1
@.str.4 = private unnamed_addr constant [5 x i8] c") = \00", align 1
@.str.5 = private unnamed_addr constant [12 x i8] c" such that:\00", align 1
@.str.6 = private unnamed_addr constant [11 x i8] c"ppRewrite(\00", align 1
@.str.7 = private unnamed_addr constant [7 x i8] c"Eqc [ \00", align 1
@.str.8 = private unnamed_addr constant [8 x i8] c" ] = { \00", align 1
@.str.9 = private unnamed_addr constant [2 x i8] c" \00", align 1
@.str.10 = private unnamed_addr constant [4 x i8] c" } \00", align 1
@.str.11 = private unnamed_addr constant [9 x i8] c"effort: \00", align 1
@.str.12 = private unnamed_addr constant [21 x i8] c"Full effort check...\00", align 1
@.str.13 = private unnamed_addr constant [20 x i8] c"  * Run strategy...\00", align 1
@.str.14 = private unnamed_addr constant [11 x i8] c"bags-check\00", align 1
@.str.15 = private unnamed_addr constant [27 x i8] c"  ...finish run strategy: \00", align 1
@.str.16 = private unnamed_addr constant [12 x i8] c"hadPending \00", align 1
@.str.17 = private unnamed_addr constant [11 x i8] c"sentLemma \00", align 1
@.str.18 = private unnamed_addr constant [10 x i8] c"conflict \00", align 1
@.str.19 = private unnamed_addr constant [7 x i8] c"(none)\00", align 1
@.str.20 = private unnamed_addr constant [30 x i8] c"Theory of bags, done check : \00", align 1
@.str.21 = private unnamed_addr constant [25 x i8] c"----check, next round---\00", align 1
@.str.22 = private unnamed_addr constant [22 x i8] c"----finished round---\00", align 1
@.str.23 = private unnamed_addr constant [5 x i8] c"Run \00", align 1
@.str.24 = private unnamed_addr constant [12 x i8] c", effort = \00", align 1
@.str.25 = private unnamed_addr constant [4 x i8] c"...\00", align 1
@__PRETTY_FUNCTION__._ZN4cvc58internal6theory4bags10TheoryBags12runInferStepENS2_9InferStepEi = private unnamed_addr constant [76 x i8] c"bool cvc5::internal::theory::bags::TheoryBags::runInferStep(InferStep, int)\00", align 1
@.str.26 = private unnamed_addr constant [119 x i8] c"generated/home/dtcxzyw/WorkSpace/Projects/compilers/llvm-opt-benchmark/bench/cvc5/cvc5/src/theory/bags/theory_bags.cpp\00", align 1
@.str.27 = private unnamed_addr constant [26 x i8] c"Unreachable code reached \00", align 1
@.str.28 = private unnamed_addr constant [6 x i8] c"Done \00", align 1
@.str.29 = private unnamed_addr constant [15 x i8] c", addedFact = \00", align 1
@.str.30 = private unnamed_addr constant [16 x i8] c", addedLemma = \00", align 1
@.str.31 = private unnamed_addr constant [14 x i8] c", conflict = \00", align 1
@.str.32 = private unnamed_addr constant [34 x i8] c"TheoryBags : Collect model values\00", align 1
@.str.33 = private unnamed_addr constant [11 x i8] c"Term set: \00", align 1
@.str.34 = private unnamed_addr constant [30 x i8] c"constructed bag cardinality: \00", align 1
@.str.35 = private unnamed_addr constant [15 x i8] c"rCardSkolem : \00", align 1
@.str.36 = private unnamed_addr constant [23 x i8] c"constructedRational : \00", align 1
@.str.37 = private unnamed_addr constant [17 x i8] c"rCardRational : \00", align 1
@.str.38 = private unnamed_addr constant [6 x i8] c"slack\00", align 1
@.str.39 = private unnamed_addr constant [15 x i8] c"newElement is \00", align 1
@.str.40 = private unnamed_addr constant [15 x i8] c"child bag for \00", align 1
@.str.41 = private unnamed_addr constant [6 x i8] c" is: \00", align 1
@.str.42 = private unnamed_addr constant [21 x i8] c"constructed bag for \00", align 1
@.str.43 = private unnamed_addr constant [17 x i8] c"processedBags:  \00", align 1
@.str.44 = private unnamed_addr constant [29 x i8] c"TheoryBags::preRegisterTerm(\00", align 1
@.str.45 = private unnamed_addr constant [2 x i8] c")\00", align 1
@.str.46 = private unnamed_addr constant [14 x i8] c"Term of kind \00", align 1
@.str.47 = private unnamed_addr constant [22 x i8] c" is not supported yet\00", align 1
@_ZTVN10__cxxabiv120__si_class_type_infoE = external global [0 x ptr]
@_ZTSN4cvc58internal14LogicExceptionE = linkonce_odr hidden constant [33 x i8] c"N4cvc58internal14LogicExceptionE\00", comdat, align 1
@_ZTIN4cvc58internal9ExceptionE = external constant ptr
@_ZTIN4cvc58internal14LogicExceptionE = linkonce_odr hidden constant { ptr, ptr, ptr } { ptr getelementptr inbounds (ptr, ptr @_ZTVN10__cxxabiv120__si_class_type_infoE, i64 2), ptr @_ZTSN4cvc58internal14LogicExceptionE, ptr @_ZTIN4cvc58internal9ExceptionE }, comdat, align 8
@.str.48 = private unnamed_addr constant [17 x i8] c"Started presolve\00", align 1
@.str.49 = private unnamed_addr constant [18 x i8] c"Finished presolve\00", align 1
@.str.50 = private unnamed_addr constant [28 x i8] c"[bags-eq] eqNotifyNewClass:\00", align 1
@.str.51 = private unnamed_addr constant [6 x i8] c" n = \00", align 1
@.str.52 = private unnamed_addr constant [25 x i8] c"[bags-eq] eqNotifyMerge:\00", align 1
@.str.53 = private unnamed_addr constant [7 x i8] c" n1 = \00", align 1
@.str.54 = private unnamed_addr constant [7 x i8] c" n2 = \00", align 1
@.str.55 = private unnamed_addr constant [28 x i8] c"[bags-eq] eqNotifyDisequal:\00", align 1
@.str.56 = private unnamed_addr constant [11 x i8] c" reason = \00", align 1
@.str.57 = private unnamed_addr constant [23 x i8] c"Compute graph for bags\00", align 1
@.str.58 = private unnamed_addr constant [7 x i8] c"kind: \00", align 1
@.str.59 = private unnamed_addr constant [10 x i8] c", size = \00", align 1
@.str.60 = private unnamed_addr constant [15 x i8] c"computing n:  \00", align 1
@.str.61 = private unnamed_addr constant [9 x i8] c"addTerm(\00", align 1
@.str.62 = private unnamed_addr constant [3 x i8] c", \00", align 1
@.str.63 = private unnamed_addr constant [12 x i8] c"......skip.\00", align 1
@.str.64 = private unnamed_addr constant [15 x i8] c"Process index \00", align 1
@.str.65 = private unnamed_addr constant [8 x i8] c"...done\00", align 1
@.str.66 = private unnamed_addr constant [19 x i8] c"Should split on : \00", align 1
@.str.67 = private unnamed_addr constant [3 x i8] c"==\00", align 1
@_ZTVN4cvc58internal6theory4bags10TheoryBags11NotifyClassE = hidden unnamed_addr constant { [10 x ptr] } { [10 x ptr] [ptr null, ptr @_ZTIN4cvc58internal6theory4bags10TheoryBags11NotifyClassE, ptr @_ZN4cvc58internal6theory4bags10TheoryBags11NotifyClassD2Ev, ptr @_ZN4cvc58internal6theory4bags10TheoryBags11NotifyClassD0Ev, ptr @_ZN4cvc58internal6theory19TheoryEqNotifyClass24eqNotifyTriggerPredicateENS0_12NodeTemplateILb0EEEb, ptr @_ZN4cvc58internal6theory19TheoryEqNotifyClass27eqNotifyTriggerTermEqualityENS1_8TheoryIdENS0_12NodeTemplateILb0EEES5_b, ptr @_ZN4cvc58internal6theory19TheoryEqNotifyClass25eqNotifyConstantTermMergeENS0_12NodeTemplateILb0EEES4_, ptr @_ZN4cvc58internal6theory4bags10TheoryBags11NotifyClass16eqNotifyNewClassENS0_12NodeTemplateILb0EEE, ptr @_ZN4cvc58internal6theory4bags10TheoryBags11NotifyClass13eqNotifyMergeENS0_12NodeTemplateILb0EEES6_, ptr @_ZN4cvc58internal6theory4bags10TheoryBags11NotifyClass16eqNotifyDisequalENS0_12NodeTemplateILb0EEES6_S6_] }, align 8
@_ZTSN4cvc58internal6theory4bags10TheoryBags11NotifyClassE = hidden constant [54 x i8] c"N4cvc58internal6theory4bags10TheoryBags11NotifyClassE\00", align 1
@_ZTSN4cvc58internal6theory19TheoryEqNotifyClassE = linkonce_odr hidden constant [45 x i8] c"N4cvc58internal6theory19TheoryEqNotifyClassE\00", comdat, align 1
@_ZTVN10__cxxabiv117__class_type_infoE = external global [0 x ptr]
@_ZTSN4cvc58internal6theory2eq20EqualityEngineNotifyE = linkonce_odr hidden constant [49 x i8] c"N4cvc58internal6theory2eq20EqualityEngineNotifyE\00", comdat, align 1
@_ZTIN4cvc58internal6theory2eq20EqualityEngineNotifyE = linkonce_odr hidden constant { ptr, ptr } { ptr getelementptr inbounds (ptr, ptr @_ZTVN10__cxxabiv117__class_type_infoE, i64 2), ptr @_ZTSN4cvc58internal6theory2eq20EqualityEngineNotifyE }, comdat, align 8
@_ZTIN4cvc58internal6theory19TheoryEqNotifyClassE = linkonce_odr hidden constant { ptr, ptr, ptr } { ptr getelementptr inbounds (ptr, ptr @_ZTVN10__cxxabiv120__si_class_type_infoE, i64 2), ptr @_ZTSN4cvc58internal6theory19TheoryEqNotifyClassE, ptr @_ZTIN4cvc58internal6theory2eq20EqualityEngineNotifyE }, comdat, align 8
@_ZTIN4cvc58internal6theory4bags10TheoryBags11NotifyClassE = hidden constant { ptr, ptr, ptr } { ptr getelementptr inbounds (ptr, ptr @_ZTVN10__cxxabiv120__si_class_type_infoE, i64 2), ptr @_ZTSN4cvc58internal6theory4bags10TheoryBags11NotifyClassE, ptr @_ZTIN4cvc58internal6theory19TheoryEqNotifyClassE }, align 8
@_ZTSN4cvc58internal6theory4bags10TheoryBagsE = hidden constant [41 x i8] c"N4cvc58internal6theory4bags10TheoryBagsE\00", align 1
@_ZTIN4cvc58internal6theory6TheoryE = external constant ptr
@_ZTIN4cvc58internal6theory4bags10TheoryBagsE = hidden constant { ptr, ptr, ptr } { ptr getelementptr inbounds (ptr, ptr @_ZTVN10__cxxabiv120__si_class_type_infoE, i64 2), ptr @_ZTSN4cvc58internal6theory4bags10TheoryBagsE, ptr @_ZTIN4cvc58internal6theory6TheoryE }, align 8
@_ZN4cvc58internal12NodeTemplateILb1EE6s_nullE = linkonce_odr hidden global %"class.cvc5::internal::NodeTemplate" zeroinitializer, comdat, align 8
@_ZGVN4cvc58internal12NodeTemplateILb1EE6s_nullE = linkonce_odr hidden global i64 0, comdat($_ZN4cvc58internal12NodeTemplateILb1EE6s_nullE), align 8
@_ZTVN4cvc58internal6theory19TheoryEqNotifyClassE = linkonce_odr hidden unnamed_addr constant { [10 x ptr] } { [10 x ptr] [ptr null, ptr @_ZTIN4cvc58internal6theory19TheoryEqNotifyClassE, ptr @_ZN4cvc58internal6theory19TheoryEqNotifyClassD2Ev, ptr @_ZN4cvc58internal6theory19TheoryEqNotifyClassD0Ev, ptr @_ZN4cvc58internal6theory19TheoryEqNotifyClass24eqNotifyTriggerPredicateENS0_12NodeTemplateILb0EEEb, ptr @_ZN4cvc58internal6theory19TheoryEqNotifyClass27eqNotifyTriggerTermEqualityENS1_8TheoryIdENS0_12NodeTemplateILb0EEES5_b, ptr @_ZN4cvc58internal6theory19TheoryEqNotifyClass25eqNotifyConstantTermMergeENS0_12NodeTemplateILb0EEES4_, ptr @_ZN4cvc58internal6theory19TheoryEqNotifyClass16eqNotifyNewClassENS0_12NodeTemplateILb0EEE, ptr @_ZN4cvc58internal6theory19TheoryEqNotifyClass13eqNotifyMergeENS0_12NodeTemplateILb0EEES4_, ptr @_ZN4cvc58internal6theory19TheoryEqNotifyClass16eqNotifyDisequalENS0_12NodeTemplateILb0EEES4_S4_] }, comdat, align 8
@_ZTVN4cvc58internal6theory2eq20EqualityEngineNotifyE = linkonce_odr hidden unnamed_addr constant { [10 x ptr] } { [10 x ptr] [ptr null, ptr @_ZTIN4cvc58internal6theory2eq20EqualityEngineNotifyE, ptr @_ZN4cvc58internal6theory2eq20EqualityEngineNotifyD2Ev, ptr @_ZN4cvc58internal6theory2eq20EqualityEngineNotifyD0Ev, ptr @__cxa_pure_virtual, ptr @__cxa_pure_virtual, ptr @__cxa_pure_virtual, ptr @__cxa_pure_virtual, ptr @__cxa_pure_virtual, ptr @__cxa_pure_virtual] }, comdat, align 8
@_ZTVN4cvc58internal6theory4bags12TermRegistryE = linkonce_odr hidden unnamed_addr constant { [4 x ptr] } { [4 x ptr] [ptr null, ptr @_ZTIN4cvc58internal6theory4bags12TermRegistryE, ptr @_ZN4cvc58internal6theory4bags12TermRegistryD2Ev, ptr @_ZN4cvc58internal6theory4bags12TermRegistryD0Ev] }, comdat, align 8
@_ZTVN10__cxxabiv121__vmi_class_type_infoE = external global [0 x ptr]
@_ZTSN4cvc58internal6theory4bags12TermRegistryE = linkonce_odr hidden constant [43 x i8] c"N4cvc58internal6theory4bags12TermRegistryE\00", comdat, align 1
@_ZTSN4cvc58internal6EnvObjE = linkonce_odr hidden constant [24 x i8] c"N4cvc58internal6EnvObjE\00", comdat, align 1
@_ZTIN4cvc58internal6EnvObjE = linkonce_odr hidden constant { ptr, ptr } { ptr getelementptr inbounds (ptr, ptr @_ZTVN10__cxxabiv117__class_type_infoE, i64 2), ptr @_ZTSN4cvc58internal6EnvObjE }, comdat, align 8
@_ZTIN4cvc58internal6theory4bags12TermRegistryE = linkonce_odr hidden constant { ptr, ptr, i32, i32, ptr, i64 } { ptr getelementptr inbounds (ptr, ptr @_ZTVN10__cxxabiv121__vmi_class_type_infoE, i64 2), ptr @_ZTSN4cvc58internal6theory4bags12TermRegistryE, i32 0, i32 1, ptr @_ZTIN4cvc58internal6EnvObjE, i64 0 }, comdat, align 8
@_ZTVN4cvc57context9CDHashMapINS_8internal12NodeTemplateILb1EEES4_St4hashIS4_EEE = linkonce_odr hidden unnamed_addr constant { [6 x ptr] } { [6 x ptr] [ptr null, ptr @_ZTIN4cvc57context9CDHashMapINS_8internal12NodeTemplateILb1EEES4_St4hashIS4_EEE, ptr @_ZN4cvc57context9CDHashMapINS_8internal12NodeTemplateILb1EEES4_St4hashIS4_EE4saveEPNS0_20ContextMemoryManagerE, ptr @_ZN4cvc57context9CDHashMapINS_8internal12NodeTemplateILb1EEES4_St4hashIS4_EE7restoreEPNS0_10ContextObjE, ptr @_ZN4cvc57context9CDHashMapINS_8internal12NodeTemplateILb1EEES4_St4hashIS4_EED2Ev, ptr @_ZN4cvc57context9CDHashMapINS_8internal12NodeTemplateILb1EEES4_St4hashIS4_EED0Ev] }, comdat, align 8
@_ZTSN4cvc57context9CDHashMapINS_8internal12NodeTemplateILb1EEES4_St4hashIS4_EEE = linkonce_odr hidden constant [76 x i8] c"N4cvc57context9CDHashMapINS_8internal12NodeTemplateILb1EEES4_St4hashIS4_EEE\00", comdat, align 1
@_ZTSN4cvc57context10ContextObjE = linkonce_odr constant [28 x i8] c"N4cvc57context10ContextObjE\00", comdat, align 1
@_ZTIN4cvc57context10ContextObjE = linkonce_odr constant { ptr, ptr } { ptr getelementptr inbounds (ptr, ptr @_ZTVN10__cxxabiv117__class_type_infoE, i64 2), ptr @_ZTSN4cvc57context10ContextObjE }, comdat, align 8
@_ZTIN4cvc57context9CDHashMapINS_8internal12NodeTemplateILb1EEES4_St4hashIS4_EEE = linkonce_odr hidden constant { ptr, ptr, ptr } { ptr getelementptr inbounds (ptr, ptr @_ZTVN10__cxxabiv120__si_class_type_infoE, i64 2), ptr @_ZTSN4cvc57context9CDHashMapINS_8internal12NodeTemplateILb1EEES4_St4hashIS4_EEE, ptr @_ZTIN4cvc57context10ContextObjE }, comdat, align 8
@__PRETTY_FUNCTION__._ZN4cvc57context9CDHashMapINS_8internal12NodeTemplateILb1EEES4_St4hashIS4_EE4saveEPNS0_20ContextMemoryManagerE = private unnamed_addr constant [276 x i8] c"virtual ContextObj *cvc5::context::CDHashMap<cvc5::internal::NodeTemplate<true>, cvc5::internal::NodeTemplate<true>>::save(ContextMemoryManager *) [Key = cvc5::internal::NodeTemplate<true>, Data = cvc5::internal::NodeTemplate<true>, HashFcn = std::hash<cvc5::internal::Node>]\00", align 1
@.str.69 = private unnamed_addr constant [111 x i8] c"generated/home/dtcxzyw/WorkSpace/Projects/compilers/llvm-opt-benchmark/bench/cvc5/cvc5/src/context/cdhashmap.h\00", align 1
@__PRETTY_FUNCTION__._ZN4cvc57context9CDHashMapINS_8internal12NodeTemplateILb1EEES4_St4hashIS4_EE7restoreEPNS0_10ContextObjE = private unnamed_addr constant [262 x i8] c"virtual void cvc5::context::CDHashMap<cvc5::internal::NodeTemplate<true>, cvc5::internal::NodeTemplate<true>>::restore(ContextObj *) [Key = cvc5::internal::NodeTemplate<true>, Data = cvc5::internal::NodeTemplate<true>, HashFcn = std::hash<cvc5::internal::Node>]\00", align 1
@__PRETTY_FUNCTION__._ZN4cvc57context10ContextObjdlEPv = private unnamed_addr constant [63 x i8] c"static void cvc5::context::ContextObj::operator delete(void *)\00", align 1
@.str.70 = private unnamed_addr constant [109 x i8] c"generated/home/dtcxzyw/WorkSpace/Projects/compilers/llvm-opt-benchmark/bench/cvc5/cvc5/src/context/context.h\00", align 1
@.str.71 = private unnamed_addr constant [17 x i8] c"Check failure\0A\0A \00", align 1
@.str.72 = private unnamed_addr constant [6 x i8] c"false\00", align 1
@.str.73 = private unnamed_addr constant [2 x i8] c"\0A\00", align 1
@.str.74 = private unnamed_addr constant [51 x i8] c"It is not allowed to delete a ContextObj this way!\00", align 1
@_ZTVN4cvc58internal6theory4bags12BagsRewriterE = external unnamed_addr constant { [12 x ptr] }, align 8
@_ZTVN4cvc58internal6theory4bags16InferenceManagerE = linkonce_odr hidden unnamed_addr constant { [10 x ptr] } { [10 x ptr] [ptr null, ptr @_ZTIN4cvc58internal6theory4bags16InferenceManagerE, ptr @_ZN4cvc58internal6theory4bags16InferenceManagerD2Ev, ptr @_ZN4cvc58internal6theory4bags16InferenceManagerD0Ev, ptr @_ZN4cvc58internal6theory22TheoryInferenceManager12propagateLitENS0_12NodeTemplateILb0EEE, ptr @_ZN4cvc58internal6theory22TheoryInferenceManager10explainLitENS0_12NodeTemplateILb0EEE, ptr @_ZN4cvc58internal6theory22TheoryInferenceManager14hasCachedLemmaENS0_12NodeTemplateILb0EEENS1_13LemmaPropertyE, ptr @_ZN4cvc58internal6theory24InferenceManagerBuffered16notifyInConflictEv, ptr @_ZN4cvc58internal6theory22TheoryInferenceManager30explainConflictEqConstantMergeENS0_12NodeTemplateILb0EEES4_, ptr @_ZN4cvc58internal6theory22TheoryInferenceManager10cacheLemmaENS0_12NodeTemplateILb0EEENS1_13LemmaPropertyE] }, comdat, align 8
@_ZTSN4cvc58internal6theory4bags16InferenceManagerE = linkonce_odr hidden constant [47 x i8] c"N4cvc58internal6theory4bags16InferenceManagerE\00", comdat, align 1
@_ZTIN4cvc58internal6theory24InferenceManagerBufferedE = external constant ptr
@_ZTIN4cvc58internal6theory4bags16InferenceManagerE = linkonce_odr hidden constant { ptr, ptr, ptr } { ptr getelementptr inbounds (ptr, ptr @_ZTVN10__cxxabiv120__si_class_type_infoE, i64 2), ptr @_ZTSN4cvc58internal6theory4bags16InferenceManagerE, ptr @_ZTIN4cvc58internal6theory24InferenceManagerBufferedE }, comdat, align 8
@_ZTVN4cvc58internal6theory24InferenceManagerBufferedE = external unnamed_addr constant { [10 x ptr] }, align 8
@_ZTVN4cvc58internal6theory4bags11SolverStateE = linkonce_odr hidden unnamed_addr constant { [14 x ptr] } { [14 x ptr] [ptr null, ptr @_ZTIN4cvc58internal6theory4bags11SolverStateE, ptr @_ZN4cvc58internal6theory4bags11SolverStateD2Ev, ptr @_ZN4cvc58internal6theory4bags11SolverStateD0Ev, ptr @_ZNK4cvc58internal6theory11TheoryState7hasTermENS0_12NodeTemplateILb0EEE, ptr @_ZN4cvc58internal6theory11TheoryState7addTermENS0_12NodeTemplateILb0EEE, ptr @_ZNK4cvc58internal6theory11TheoryState17getRepresentativeENS0_12NodeTemplateILb0EEE, ptr @_ZNK4cvc58internal6theory11TheoryState8areEqualENS0_12NodeTemplateILb0EEES4_, ptr @_ZNK4cvc58internal6theory11TheoryState11areDisequalENS0_12NodeTemplateILb0EEES4_, ptr @_ZNK4cvc58internal6theory11TheoryState19getEquivalenceClassENS0_12NodeTemplateILb1EEERSt6vectorIS4_SaIS4_EE, ptr @_ZN4cvc58internal6theory11TheoryState16notifyInConflictEv, ptr @_ZNK4cvc58internal6theory11TheoryState12isInConflictEv, ptr @_ZNK4cvc58internal6theory11TheoryState12isSatLiteralENS0_12NodeTemplateILb0EEE, ptr @_ZNK4cvc58internal6theory11TheoryState11hasSatValueENS0_12NodeTemplateILb0EEERb] }, comdat, align 8
@_ZTSN4cvc58internal6theory4bags11SolverStateE = linkonce_odr hidden constant [42 x i8] c"N4cvc58internal6theory4bags11SolverStateE\00", comdat, align 1
@_ZTIN4cvc58internal6theory11TheoryStateE = external constant ptr
@_ZTIN4cvc58internal6theory4bags11SolverStateE = linkonce_odr hidden constant { ptr, ptr, ptr } { ptr getelementptr inbounds (ptr, ptr @_ZTVN10__cxxabiv120__si_class_type_infoE, i64 2), ptr @_ZTSN4cvc58internal6theory4bags11SolverStateE, ptr @_ZTIN4cvc58internal6theory11TheoryStateE }, comdat, align 8
@_ZTVN4cvc57context9CDHashMapINS_8internal12NodeTemplateILb1EEESt10shared_ptrINS0_9CDHashSetIS4_St4hashIS4_EEEES8_EE = linkonce_odr hidden unnamed_addr constant { [6 x ptr] } { [6 x ptr] [ptr null, ptr @_ZTIN4cvc57context9CDHashMapINS_8internal12NodeTemplateILb1EEESt10shared_ptrINS0_9CDHashSetIS4_St4hashIS4_EEEES8_EE, ptr @_ZN4cvc57context9CDHashMapINS_8internal12NodeTemplateILb1EEESt10shared_ptrINS0_9CDHashSetIS4_St4hashIS4_EEEES8_E4saveEPNS0_20ContextMemoryManagerE, ptr @_ZN4cvc57context9CDHashMapINS_8internal12NodeTemplateILb1EEESt10shared_ptrINS0_9CDHashSetIS4_St4hashIS4_EEEES8_E7restoreEPNS0_10ContextObjE, ptr @_ZN4cvc57context9CDHashMapINS_8internal12NodeTemplateILb1EEESt10shared_ptrINS0_9CDHashSetIS4_St4hashIS4_EEEES8_ED2Ev, ptr @_ZN4cvc57context9CDHashMapINS_8internal12NodeTemplateILb1EEESt10shared_ptrINS0_9CDHashSetIS4_St4hashIS4_EEEES8_ED0Ev] }, comdat, align 8
@_ZTSN4cvc57context9CDHashMapINS_8internal12NodeTemplateILb1EEESt10shared_ptrINS0_9CDHashSetIS4_St4hashIS4_EEEES8_EE = linkonce_odr hidden constant [112 x i8] c"N4cvc57context9CDHashMapINS_8internal12NodeTemplateILb1EEESt10shared_ptrINS0_9CDHashSetIS4_St4hashIS4_EEEES8_EE\00", comdat, align 1
@_ZTIN4cvc57context9CDHashMapINS_8internal12NodeTemplateILb1EEESt10shared_ptrINS0_9CDHashSetIS4_St4hashIS4_EEEES8_EE = linkonce_odr hidden constant { ptr, ptr, ptr } { ptr getelementptr inbounds (ptr, ptr @_ZTVN10__cxxabiv120__si_class_type_infoE, i64 2), ptr @_ZTSN4cvc57context9CDHashMapINS_8internal12NodeTemplateILb1EEESt10shared_ptrINS0_9CDHashSetIS4_St4hashIS4_EEEES8_EE, ptr @_ZTIN4cvc57context10ContextObjE }, comdat, align 8
@__PRETTY_FUNCTION__._ZN4cvc57context9CDHashMapINS_8internal12NodeTemplateILb1EEESt10shared_ptrINS0_9CDHashSetIS4_St4hashIS4_EEEES8_E4saveEPNS0_20ContextMemoryManagerE = private unnamed_addr constant [362 x i8] c"virtual ContextObj *cvc5::context::CDHashMap<cvc5::internal::NodeTemplate<true>, std::shared_ptr<cvc5::context::CDHashSet<cvc5::internal::NodeTemplate<true>>>>::save(ContextMemoryManager *) [Key = cvc5::internal::NodeTemplate<true>, Data = std::shared_ptr<cvc5::context::CDHashSet<cvc5::internal::NodeTemplate<true>>>, HashFcn = std::hash<cvc5::internal::Node>]\00", align 1
@__PRETTY_FUNCTION__._ZN4cvc57context9CDHashMapINS_8internal12NodeTemplateILb1EEESt10shared_ptrINS0_9CDHashSetIS4_St4hashIS4_EEEES8_E7restoreEPNS0_10ContextObjE = private unnamed_addr constant [348 x i8] c"virtual void cvc5::context::CDHashMap<cvc5::internal::NodeTemplate<true>, std::shared_ptr<cvc5::context::CDHashSet<cvc5::internal::NodeTemplate<true>>>>::restore(ContextObj *) [Key = cvc5::internal::NodeTemplate<true>, Data = std::shared_ptr<cvc5::context::CDHashSet<cvc5::internal::NodeTemplate<true>>>, HashFcn = std::hash<cvc5::internal::Node>]\00", align 1
@_ZTVN4cvc58internal6theory11TheoryStateE = external unnamed_addr constant { [14 x ptr] }, align 8
@_ZTVN4cvc57context3CDOIbEE = linkonce_odr hidden unnamed_addr constant { [6 x ptr] } { [6 x ptr] [ptr null, ptr @_ZTIN4cvc57context3CDOIbEE, ptr @_ZN4cvc57context3CDOIbE4saveEPNS0_20ContextMemoryManagerE, ptr @_ZN4cvc57context3CDOIbE7restoreEPNS0_10ContextObjE, ptr @_ZN4cvc57context3CDOIbED2Ev, ptr @_ZN4cvc57context3CDOIbED0Ev] }, comdat, align 8
@_ZTSN4cvc57context3CDOIbEE = linkonce_odr hidden constant [23 x i8] c"N4cvc57context3CDOIbEE\00", comdat, align 1
@_ZTIN4cvc57context3CDOIbEE = linkonce_odr hidden constant { ptr, ptr, ptr } { ptr getelementptr inbounds (ptr, ptr @_ZTVN10__cxxabiv120__si_class_type_infoE, i64 2), ptr @_ZTSN4cvc57context3CDOIbEE, ptr @_ZTIN4cvc57context10ContextObjE }, comdat, align 8
@_ZTVN4cvc57context10ContextObjE = linkonce_odr unnamed_addr constant { [6 x ptr] } { [6 x ptr] [ptr null, ptr @_ZTIN4cvc57context10ContextObjE, ptr @__cxa_pure_virtual, ptr @__cxa_pure_virtual, ptr @_ZN4cvc57context10ContextObjD2Ev, ptr @_ZN4cvc57context10ContextObjD0Ev] }, comdat, align 8
@_ZTVN4cvc58internal14LogicExceptionE = linkonce_odr hidden unnamed_addr constant { [6 x ptr] } { [6 x ptr] [ptr null, ptr @_ZTIN4cvc58internal14LogicExceptionE, ptr @_ZN4cvc58internal14LogicExceptionD2Ev, ptr @_ZN4cvc58internal14LogicExceptionD0Ev, ptr @_ZNK4cvc58internal9Exception4whatEv, ptr @_ZNK4cvc58internal9Exception8toStreamERSo] }, comdat, align 8
@_ZTVN4cvc58internal9ExceptionE = external unnamed_addr constant { [6 x ptr] }, align 8
@_ZTVSt9exception = external unnamed_addr constant { [5 x ptr] }, align 8
@.str.75 = private unnamed_addr constant [12 x i8] c"THEORY_BAGS\00", align 1
@.str.76 = private unnamed_addr constant [50 x i8] c"basic_string: construction from null is not valid\00", align 1
@_ZN4cvc58internal11Cvc5ostream16s_indentIosIndexE = external constant i32, align 4
@_ZN4cvc58internal11Cvc5ostream5s_tabB5cxx11E = external global %"class.std::__cxx11::basic_string", align 8
@_ZZN4cvc58internal4expr9NodeValue4nullEvE6s_null = linkonce_odr global ptr null, comdat, align 8
@_ZGVZN4cvc58internal4expr9NodeValue4nullEvE6s_null = linkonce_odr global i64 0, comdat, align 8
@_ZTIN4cvc58internal28TypeCheckingExceptionPrivateE = external constant ptr
@_ZSt19piecewise_construct = linkonce_odr constant %"struct.std::piecewise_construct_t" zeroinitializer, comdat, align 1
@.str.77 = private unnamed_addr constant [26 x i8] c"vector::_M_realloc_insert\00", align 1
@.str.78 = private unnamed_addr constant [2 x i8] c"[\00", align 1
@.str.79 = private unnamed_addr constant [2 x i8] c"]\00", align 1
@.str.80 = private unnamed_addr constant [2 x i8] c",\00", align 1
@llvm.global_ctors = appending global [2 x { i32, ptr, ptr }] [{ i32, ptr, ptr } { i32 65535, ptr @__cxx_global_var_init.68, ptr @_ZN4cvc58internal12NodeTemplateILb1EE6s_nullE }, { i32, ptr, ptr } { i32 65535, ptr @_GLOBAL__sub_I_theory_bags.cpp, ptr null }]
@llvm.used = appending global [1 x ptr] [ptr @_ZN4cvc58internal12NodeTemplateILb1EE6s_nullE], section "llvm.metadata"

@_ZN4cvc58internal6theory4bags10TheoryBagsC1ERNS0_3EnvERNS1_13OutputChannelENS1_9ValuationE = hidden unnamed_addr alias void (ptr, ptr, ptr, ptr), ptr @_ZN4cvc58internal6theory4bags10TheoryBagsC2ERNS0_3EnvERNS1_13OutputChannelENS1_9ValuationE
@_ZN4cvc58internal6theory4bags10TheoryBagsD1Ev = hidden unnamed_addr alias void (ptr), ptr @_ZN4cvc58internal6theory4bags10TheoryBagsD2Ev

; Function Attrs: uwtable
define internal void @__cxx_global_var_init() #0 section ".text.startup" {
entry:
  call void @_ZNSt8ios_base4InitC1Ev(ptr noundef nonnull align 1 dereferenceable(1) @_ZStL8__ioinit)
  %0 = call i32 @__cxa_atexit(ptr @_ZNSt8ios_base4InitD1Ev, ptr @_ZStL8__ioinit, ptr @__dso_handle) #3
  ret void
}

declare void @_ZNSt8ios_base4InitC1Ev(ptr noundef nonnull align 1 dereferenceable(1)) unnamed_addr #1

; Function Attrs: nounwind
declare void @_ZNSt8ios_base4InitD1Ev(ptr noundef nonnull align 1 dereferenceable(1)) unnamed_addr #2

; Function Attrs: nounwind
declare i32 @__cxa_atexit(ptr, ptr, ptr) #3

; Function Attrs: mustprogress uwtable
define hidden void @_ZN4cvc58internal6theory4bags10TheoryBagsC2ERNS0_3EnvERNS1_13OutputChannelENS1_9ValuationE(ptr noundef nonnull align 8 dereferenceable(2192) %this, ptr noundef nonnull align 8 dereferenceable(576) %env, ptr noundef nonnull align 8 dereferenceable(100) %out, ptr %valuation.coerce) unnamed_addr #4 align 2 personality ptr @__gxx_personality_v0 {
entry:
  %valuation = alloca %"class.cvc5::internal::theory::Valuation", align 8
  %this.addr = alloca ptr, align 8
  %env.addr = alloca ptr, align 8
  %out.addr = alloca ptr, align 8
  %agg.tmp = alloca %"class.cvc5::internal::theory::Valuation", align 8
  %agg.tmp2 = alloca %"class.std::__cxx11::basic_string", align 8
  %ref.tmp = alloca %"class.std::allocator", align 1
  %exn.slot = alloca ptr, align 8
  %ehselector.slot = alloca i32, align 4
  %agg.tmp6 = alloca %"class.cvc5::internal::theory::Valuation", align 8
  %coerce.dive = getelementptr inbounds %"class.cvc5::internal::theory::Valuation", ptr %valuation, i32 0, i32 0
  store ptr %valuation.coerce, ptr %coerce.dive, align 8
  store ptr %this, ptr %this.addr, align 8
  store ptr %env, ptr %env.addr, align 8
  store ptr %out, ptr %out.addr, align 8
  %this1 = load ptr, ptr %this.addr, align 8
  %0 = load ptr, ptr %env.addr, align 8
  %1 = load ptr, ptr %out.addr, align 8
  call void @llvm.memcpy.p0.p0.i64(ptr align 8 %agg.tmp, ptr align 8 %valuation, i64 8, i1 false)
  call void @_ZNSaIcEC1Ev(ptr noundef nonnull align 1 dereferenceable(1) %ref.tmp) #3
  invoke void @_ZNSt7__cxx1112basic_stringIcSt11char_traitsIcESaIcEEC2IS3_EEPKcRKS3_(ptr noundef nonnull align 8 dereferenceable(32) %agg.tmp2, ptr noundef @.str, ptr noundef nonnull align 1 dereferenceable(1) %ref.tmp)
          to label %invoke.cont unwind label %lpad

invoke.cont:                                      ; preds = %entry
  %coerce.dive3 = getelementptr inbounds %"class.cvc5::internal::theory::Valuation", ptr %agg.tmp, i32 0, i32 0
  %2 = load ptr, ptr %coerce.dive3, align 8
  invoke void @_ZN4cvc58internal6theory6TheoryC2ENS1_8TheoryIdERNS0_3EnvERNS1_13OutputChannelENS1_9ValuationENSt7__cxx1112basic_stringIcSt11char_traitsIcESaIcEEE(ptr noundef nonnull align 8 dereferenceable(408) %this1, i32 noundef 11, ptr noundef nonnull align 8 dereferenceable(576) %0, ptr noundef nonnull align 8 dereferenceable(100) %1, ptr %2, ptr noundef %agg.tmp2)
          to label %invoke.cont5 unwind label %lpad4

invoke.cont5:                                     ; preds = %invoke.cont
  call void @_ZNSt7__cxx1112basic_stringIcSt11char_traitsIcESaIcEED1Ev(ptr noundef nonnull align 8 dereferenceable(32) %agg.tmp2) #3
  call void @_ZNSaIcED1Ev(ptr noundef nonnull align 1 dereferenceable(1) %ref.tmp) #3
  store ptr getelementptr inbounds ({ [36 x ptr] }, ptr @_ZTVN4cvc58internal6theory4bags10TheoryBagsE, i32 0, inrange i32 0, i32 2), ptr %this1, align 8
  %d_state = getelementptr inbounds %"class.cvc5::internal::theory::bags::TheoryBags", ptr %this1, i32 0, i32 1
  %3 = load ptr, ptr %env.addr, align 8
  call void @llvm.memcpy.p0.p0.i64(ptr align 8 %agg.tmp6, ptr align 8 %valuation, i64 8, i1 false)
  %coerce.dive7 = getelementptr inbounds %"class.cvc5::internal::theory::Valuation", ptr %agg.tmp6, i32 0, i32 0
  %4 = load ptr, ptr %coerce.dive7, align 8
  invoke void @_ZN4cvc58internal6theory4bags11SolverStateC1ERNS0_3EnvENS1_9ValuationE(ptr noundef nonnull align 8 dereferenceable(408) %d_state, ptr noundef nonnull align 8 dereferenceable(576) %3, ptr %4)
          to label %invoke.cont9 unwind label %lpad8

invoke.cont9:                                     ; preds = %invoke.cont5
  %d_im = getelementptr inbounds %"class.cvc5::internal::theory::bags::TheoryBags", ptr %this1, i32 0, i32 2
  %5 = load ptr, ptr %env.addr, align 8
  %d_state10 = getelementptr inbounds %"class.cvc5::internal::theory::bags::TheoryBags", ptr %this1, i32 0, i32 1
  invoke void @_ZN4cvc58internal6theory4bags16InferenceManagerC1ERNS0_3EnvERNS1_6TheoryERNS2_11SolverStateE(ptr noundef nonnull align 8 dereferenceable(384) %d_im, ptr noundef nonnull align 8 dereferenceable(576) %5, ptr noundef nonnull align 8 dereferenceable(408) %this1, ptr noundef nonnull align 8 dereferenceable(408) %d_state10)
          to label %invoke.cont12 unwind label %lpad11

invoke.cont12:                                    ; preds = %invoke.cont9
  %d_ig = getelementptr inbounds %"class.cvc5::internal::theory::bags::TheoryBags", ptr %this1, i32 0, i32 3
  %d_state13 = getelementptr inbounds %"class.cvc5::internal::theory::bags::TheoryBags", ptr %this1, i32 0, i32 1
  %d_im14 = getelementptr inbounds %"class.cvc5::internal::theory::bags::TheoryBags", ptr %this1, i32 0, i32 2
  invoke void @_ZN4cvc58internal6theory4bags18InferenceGeneratorC1EPNS2_11SolverStateEPNS2_16InferenceManagerE(ptr noundef nonnull align 8 dereferenceable(56) %d_ig, ptr noundef %d_state13, ptr noundef %d_im14)
          to label %invoke.cont16 unwind label %lpad15

invoke.cont16:                                    ; preds = %invoke.cont12
  %d_notify = getelementptr inbounds %"class.cvc5::internal::theory::bags::TheoryBags", ptr %this1, i32 0, i32 4
  %d_im17 = getelementptr inbounds %"class.cvc5::internal::theory::bags::TheoryBags", ptr %this1, i32 0, i32 2
  invoke void @_ZN4cvc58internal6theory4bags10TheoryBags11NotifyClassC2ERS3_RNS1_22TheoryInferenceManagerE(ptr noundef nonnull align 8 dereferenceable(24) %d_notify, ptr noundef nonnull align 8 dereferenceable(2192) %this1, ptr noundef nonnull align 8 dereferenceable(256) %d_im17)
          to label %invoke.cont19 unwind label %lpad18

invoke.cont19:                                    ; preds = %invoke.cont16
  %d_statistics = getelementptr inbounds %"class.cvc5::internal::theory::bags::TheoryBags", ptr %this1, i32 0, i32 5
  %call = invoke noundef nonnull align 8 dereferenceable(72) ptr @_ZNK4cvc58internal6EnvObj18statisticsRegistryEv(ptr noundef nonnull align 8 dereferenceable(16) %this1)
          to label %invoke.cont21 unwind label %lpad20

invoke.cont21:                                    ; preds = %invoke.cont19
  invoke void @_ZN4cvc58internal6theory4bags14BagsStatisticsC1ERNS0_18StatisticsRegistryE(ptr noundef nonnull align 8 dereferenceable(8) %d_statistics, ptr noundef nonnull align 8 dereferenceable(72) %call)
          to label %invoke.cont22 unwind label %lpad20

invoke.cont22:                                    ; preds = %invoke.cont21
  %d_rewriter = getelementptr inbounds %"class.cvc5::internal::theory::bags::TheoryBags", ptr %this1, i32 0, i32 6
  %6 = load ptr, ptr %env.addr, align 8
  %call24 = invoke noundef ptr @_ZN4cvc58internal3Env11getRewriterEv(ptr noundef nonnull align 8 dereferenceable(576) %6)
          to label %invoke.cont23 unwind label %lpad20

invoke.cont23:                                    ; preds = %invoke.cont22
  %d_statistics25 = getelementptr inbounds %"class.cvc5::internal::theory::bags::TheoryBags", ptr %this1, i32 0, i32 5
  %d_rewrites = getelementptr inbounds %"class.cvc5::internal::theory::bags::BagsStatistics", ptr %d_statistics25, i32 0, i32 0
  invoke void @_ZN4cvc58internal6theory4bags12BagsRewriterC1EPNS1_8RewriterEPNS0_13HistogramStatINS2_7RewriteEEE(ptr noundef nonnull align 8 dereferenceable(48) %d_rewriter, ptr noundef %call24, ptr noundef %d_rewrites)
          to label %invoke.cont26 unwind label %lpad20

invoke.cont26:                                    ; preds = %invoke.cont23
  %d_termReg = getelementptr inbounds %"class.cvc5::internal::theory::bags::TheoryBags", ptr %this1, i32 0, i32 7
  %7 = load ptr, ptr %env.addr, align 8
  %d_state27 = getelementptr inbounds %"class.cvc5::internal::theory::bags::TheoryBags", ptr %this1, i32 0, i32 1
  %d_im28 = getelementptr inbounds %"class.cvc5::internal::theory::bags::TheoryBags", ptr %this1, i32 0, i32 2
  invoke void @_ZN4cvc58internal6theory4bags12TermRegistryC1ERNS0_3EnvERNS2_11SolverStateERNS2_16InferenceManagerE(ptr noundef nonnull align 8 dereferenceable(296) %d_termReg, ptr noundef nonnull align 8 dereferenceable(576) %7, ptr noundef nonnull align 8 dereferenceable(408) %d_state27, ptr noundef nonnull align 8 dereferenceable(384) %d_im28)
          to label %invoke.cont30 unwind label %lpad29

invoke.cont30:                                    ; preds = %invoke.cont26
  %d_solver = getelementptr inbounds %"class.cvc5::internal::theory::bags::TheoryBags", ptr %this1, i32 0, i32 8
  %8 = load ptr, ptr %env.addr, align 8
  %d_state31 = getelementptr inbounds %"class.cvc5::internal::theory::bags::TheoryBags", ptr %this1, i32 0, i32 1
  %d_im32 = getelementptr inbounds %"class.cvc5::internal::theory::bags::TheoryBags", ptr %this1, i32 0, i32 2
  %d_termReg33 = getelementptr inbounds %"class.cvc5::internal::theory::bags::TheoryBags", ptr %this1, i32 0, i32 7
  invoke void @_ZN4cvc58internal6theory4bags9BagSolverC1ERNS0_3EnvERNS2_11SolverStateERNS2_16InferenceManagerERNS2_12TermRegistryE(ptr noundef nonnull align 8 dereferenceable(240) %d_solver, ptr noundef nonnull align 8 dereferenceable(576) %8, ptr noundef nonnull align 8 dereferenceable(408) %d_state31, ptr noundef nonnull align 8 dereferenceable(384) %d_im32, ptr noundef nonnull align 8 dereferenceable(296) %d_termReg33)
          to label %invoke.cont35 unwind label %lpad34

invoke.cont35:                                    ; preds = %invoke.cont30
  %d_cardSolver = getelementptr inbounds %"class.cvc5::internal::theory::bags::TheoryBags", ptr %this1, i32 0, i32 9
  %9 = load ptr, ptr %env.addr, align 8
  %d_state36 = getelementptr inbounds %"class.cvc5::internal::theory::bags::TheoryBags", ptr %this1, i32 0, i32 1
  %d_im37 = getelementptr inbounds %"class.cvc5::internal::theory::bags::TheoryBags", ptr %this1, i32 0, i32 2
  invoke void @_ZN4cvc58internal6theory4bags10CardSolverC1ERNS0_3EnvERNS2_11SolverStateERNS2_16InferenceManagerE(ptr noundef nonnull align 8 dereferenceable(176) %d_cardSolver, ptr noundef nonnull align 8 dereferenceable(576) %9, ptr noundef nonnull align 8 dereferenceable(408) %d_state36, ptr noundef nonnull align 8 dereferenceable(384) %d_im37)
          to label %invoke.cont39 unwind label %lpad38

invoke.cont39:                                    ; preds = %invoke.cont35
  %d_cpacb = getelementptr inbounds %"class.cvc5::internal::theory::bags::TheoryBags", ptr %this1, i32 0, i32 10
  invoke void @_ZN4cvc58internal6theory24CarePairArgumentCallbackC1ERNS1_6TheoryE(ptr noundef nonnull align 8 dereferenceable(16) %d_cpacb, ptr noundef nonnull align 8 dereferenceable(408) %this1)
          to label %invoke.cont41 unwind label %lpad40

invoke.cont41:                                    ; preds = %invoke.cont39
  %d_opMap = getelementptr inbounds %"class.cvc5::internal::theory::bags::TheoryBags", ptr %this1, i32 0, i32 11
  call void @_ZNSt3mapIN4cvc58internal4kind6Kind_tESt6vectorINS1_12NodeTemplateILb1EEESaIS6_EESt4lessIS3_ESaISt4pairIKS3_S8_EEEC2Ev(ptr noundef nonnull align 8 dereferenceable(48) %d_opMap) #3
  %d_strat = getelementptr inbounds %"class.cvc5::internal::theory::bags::TheoryBags", ptr %this1, i32 0, i32 12
  invoke void @_ZN4cvc58internal6theory4bags8StrategyC1Ev(ptr noundef nonnull align 8 dereferenceable(80) %d_strat)
          to label %invoke.cont43 unwind label %lpad42

invoke.cont43:                                    ; preds = %invoke.cont41
  %d_state44 = getelementptr inbounds %"class.cvc5::internal::theory::bags::TheoryBags", ptr %this1, i32 0, i32 1
  %d_theoryState = getelementptr inbounds %"class.cvc5::internal::theory::Theory", ptr %this1, i32 0, i32 9
  store ptr %d_state44, ptr %d_theoryState, align 8
  %d_im45 = getelementptr inbounds %"class.cvc5::internal::theory::bags::TheoryBags", ptr %this1, i32 0, i32 2
  %d_inferManager = getelementptr inbounds %"class.cvc5::internal::theory::Theory", ptr %this1, i32 0, i32 10
  store ptr %d_im45, ptr %d_inferManager, align 8
  ret void

lpad:                                             ; preds = %entry
  %10 = landingpad { ptr, i32 }
          cleanup
  %11 = extractvalue { ptr, i32 } %10, 0
  store ptr %11, ptr %exn.slot, align 8
  %12 = extractvalue { ptr, i32 } %10, 1
  store i32 %12, ptr %ehselector.slot, align 4
  br label %ehcleanup

lpad4:                                            ; preds = %invoke.cont
  %13 = landingpad { ptr, i32 }
          cleanup
  %14 = extractvalue { ptr, i32 } %13, 0
  store ptr %14, ptr %exn.slot, align 8
  %15 = extractvalue { ptr, i32 } %13, 1
  store i32 %15, ptr %ehselector.slot, align 4
  call void @_ZNSt7__cxx1112basic_stringIcSt11char_traitsIcESaIcEED1Ev(ptr noundef nonnull align 8 dereferenceable(32) %agg.tmp2) #3
  br label %ehcleanup

ehcleanup:                                        ; preds = %lpad4, %lpad
  call void @_ZNSaIcED1Ev(ptr noundef nonnull align 1 dereferenceable(1) %ref.tmp) #3
  br label %eh.resume

lpad8:                                            ; preds = %invoke.cont5
  %16 = landingpad { ptr, i32 }
          cleanup
  %17 = extractvalue { ptr, i32 } %16, 0
  store ptr %17, ptr %exn.slot, align 8
  %18 = extractvalue { ptr, i32 } %16, 1
  store i32 %18, ptr %ehselector.slot, align 4
  br label %ehcleanup56

lpad11:                                           ; preds = %invoke.cont9
  %19 = landingpad { ptr, i32 }
          cleanup
  %20 = extractvalue { ptr, i32 } %19, 0
  store ptr %20, ptr %exn.slot, align 8
  %21 = extractvalue { ptr, i32 } %19, 1
  store i32 %21, ptr %ehselector.slot, align 4
  br label %ehcleanup55

lpad15:                                           ; preds = %invoke.cont12
  %22 = landingpad { ptr, i32 }
          cleanup
  %23 = extractvalue { ptr, i32 } %22, 0
  store ptr %23, ptr %exn.slot, align 8
  %24 = extractvalue { ptr, i32 } %22, 1
  store i32 %24, ptr %ehselector.slot, align 4
  br label %ehcleanup54

lpad18:                                           ; preds = %invoke.cont16
  %25 = landingpad { ptr, i32 }
          cleanup
  %26 = extractvalue { ptr, i32 } %25, 0
  store ptr %26, ptr %exn.slot, align 8
  %27 = extractvalue { ptr, i32 } %25, 1
  store i32 %27, ptr %ehselector.slot, align 4
  br label %ehcleanup53

lpad20:                                           ; preds = %invoke.cont23, %invoke.cont22, %invoke.cont21, %invoke.cont19
  %28 = landingpad { ptr, i32 }
          cleanup
  %29 = extractvalue { ptr, i32 } %28, 0
  store ptr %29, ptr %exn.slot, align 8
  %30 = extractvalue { ptr, i32 } %28, 1
  store i32 %30, ptr %ehselector.slot, align 4
  br label %ehcleanup52

lpad29:                                           ; preds = %invoke.cont26
  %31 = landingpad { ptr, i32 }
          cleanup
  %32 = extractvalue { ptr, i32 } %31, 0
  store ptr %32, ptr %exn.slot, align 8
  %33 = extractvalue { ptr, i32 } %31, 1
  store i32 %33, ptr %ehselector.slot, align 4
  br label %ehcleanup51

lpad34:                                           ; preds = %invoke.cont30
  %34 = landingpad { ptr, i32 }
          cleanup
  %35 = extractvalue { ptr, i32 } %34, 0
  store ptr %35, ptr %exn.slot, align 8
  %36 = extractvalue { ptr, i32 } %34, 1
  store i32 %36, ptr %ehselector.slot, align 4
  br label %ehcleanup50

lpad38:                                           ; preds = %invoke.cont35
  %37 = landingpad { ptr, i32 }
          cleanup
  %38 = extractvalue { ptr, i32 } %37, 0
  store ptr %38, ptr %exn.slot, align 8
  %39 = extractvalue { ptr, i32 } %37, 1
  store i32 %39, ptr %ehselector.slot, align 4
  br label %ehcleanup49

lpad40:                                           ; preds = %invoke.cont39
  %40 = landingpad { ptr, i32 }
          cleanup
  %41 = extractvalue { ptr, i32 } %40, 0
  store ptr %41, ptr %exn.slot, align 8
  %42 = extractvalue { ptr, i32 } %40, 1
  store i32 %42, ptr %ehselector.slot, align 4
  br label %ehcleanup48

lpad42:                                           ; preds = %invoke.cont41
  %43 = landingpad { ptr, i32 }
          cleanup
  %44 = extractvalue { ptr, i32 } %43, 0
  store ptr %44, ptr %exn.slot, align 8
  %45 = extractvalue { ptr, i32 } %43, 1
  store i32 %45, ptr %ehselector.slot, align 4
  call void @_ZNSt3mapIN4cvc58internal4kind6Kind_tESt6vectorINS1_12NodeTemplateILb1EEESaIS6_EESt4lessIS3_ESaISt4pairIKS3_S8_EEED2Ev(ptr noundef nonnull align 8 dereferenceable(48) %d_opMap) #3
  call void @_ZN4cvc58internal6theory24CarePairArgumentCallbackD2Ev(ptr noundef nonnull align 8 dereferenceable(16) %d_cpacb) #3
  br label %ehcleanup48

ehcleanup48:                                      ; preds = %lpad42, %lpad40
  call void @_ZN4cvc58internal6theory4bags10CardSolverD1Ev(ptr noundef nonnull align 8 dereferenceable(176) %d_cardSolver) #3
  br label %ehcleanup49

ehcleanup49:                                      ; preds = %ehcleanup48, %lpad38
  call void @_ZN4cvc58internal6theory4bags9BagSolverD1Ev(ptr noundef nonnull align 8 dereferenceable(240) %d_solver) #3
  br label %ehcleanup50

ehcleanup50:                                      ; preds = %ehcleanup49, %lpad34
  call void @_ZN4cvc58internal6theory4bags12TermRegistryD2Ev(ptr noundef nonnull align 8 dereferenceable(296) %d_termReg) #3
  br label %ehcleanup51

ehcleanup51:                                      ; preds = %ehcleanup50, %lpad29
  call void @_ZN4cvc58internal6theory4bags12BagsRewriterD2Ev(ptr noundef nonnull align 8 dereferenceable(48) %d_rewriter) #3
  br label %ehcleanup52

ehcleanup52:                                      ; preds = %ehcleanup51, %lpad20
  call void @_ZN4cvc58internal6theory4bags10TheoryBags11NotifyClassD2Ev(ptr noundef nonnull align 8 dereferenceable(24) %d_notify) #3
  br label %ehcleanup53

ehcleanup53:                                      ; preds = %ehcleanup52, %lpad18
  call void @_ZN4cvc58internal6theory4bags18InferenceGeneratorD2Ev(ptr noundef nonnull align 8 dereferenceable(56) %d_ig) #3
  br label %ehcleanup54

ehcleanup54:                                      ; preds = %ehcleanup53, %lpad15
  call void @_ZN4cvc58internal6theory4bags16InferenceManagerD2Ev(ptr noundef nonnull align 8 dereferenceable(384) %d_im) #3
  br label %ehcleanup55

ehcleanup55:                                      ; preds = %ehcleanup54, %lpad11
  call void @_ZN4cvc58internal6theory4bags11SolverStateD2Ev(ptr noundef nonnull align 8 dereferenceable(408) %d_state) #3
  br label %ehcleanup56

ehcleanup56:                                      ; preds = %ehcleanup55, %lpad8
  call void @_ZN4cvc58internal6theory6TheoryD2Ev(ptr noundef nonnull align 8 dereferenceable(408) %this1) #3
  br label %eh.resume

eh.resume:                                        ; preds = %ehcleanup56, %ehcleanup
  %exn = load ptr, ptr %exn.slot, align 8
  %sel = load i32, ptr %ehselector.slot, align 4
  %lpad.val = insertvalue { ptr, i32 } poison, ptr %exn, 0
  %lpad.val57 = insertvalue { ptr, i32 } %lpad.val, i32 %sel, 1
  resume { ptr, i32 } %lpad.val57
}

; Function Attrs: nocallback nofree nounwind willreturn memory(argmem: readwrite)
declare void @llvm.memcpy.p0.p0.i64(ptr noalias nocapture writeonly, ptr noalias nocapture readonly, i64, i1 immarg) #5

; Function Attrs: nounwind
declare void @_ZNSaIcEC1Ev(ptr noundef nonnull align 1 dereferenceable(1)) unnamed_addr #2

; Function Attrs: mustprogress uwtable
define linkonce_odr hidden void @_ZNSt7__cxx1112basic_stringIcSt11char_traitsIcESaIcEEC2IS3_EEPKcRKS3_(ptr noundef nonnull align 8 dereferenceable(32) %this, ptr noundef %__s, ptr noundef nonnull align 1 dereferenceable(1) %__a) unnamed_addr #4 comdat align 2 personality ptr @__gxx_personality_v0 {
entry:
  %this.addr = alloca ptr, align 8
  %__s.addr = alloca ptr, align 8
  %__a.addr = alloca ptr, align 8
  %exn.slot = alloca ptr, align 8
  %ehselector.slot = alloca i32, align 4
  %__end = alloca ptr, align 8
  store ptr %this, ptr %this.addr, align 8
  store ptr %__s, ptr %__s.addr, align 8
  store ptr %__a, ptr %__a.addr, align 8
  %this1 = load ptr, ptr %this.addr, align 8
  %_M_dataplus = getelementptr inbounds %"class.std::__cxx11::basic_string", ptr %this1, i32 0, i32 0
  %call = call noundef ptr @_ZNSt7__cxx1112basic_stringIcSt11char_traitsIcESaIcEE13_M_local_dataEv(ptr noundef nonnull align 8 dereferenceable(32) %this1)
  %0 = load ptr, ptr %__a.addr, align 8
  call void @_ZNSt7__cxx1112basic_stringIcSt11char_traitsIcESaIcEE12_Alloc_hiderC1EPcRKS3_(ptr noundef nonnull align 8 dereferenceable(8) %_M_dataplus, ptr noundef %call, ptr noundef nonnull align 1 dereferenceable(1) %0)
  %1 = load ptr, ptr %__s.addr, align 8
  %cmp = icmp eq ptr %1, null
  br i1 %cmp, label %if.then, label %if.end

if.then:                                          ; preds = %entry
  invoke void @_ZSt19__throw_logic_errorPKc(ptr noundef @.str.76) #16
          to label %invoke.cont unwind label %lpad

invoke.cont:                                      ; preds = %if.then
  unreachable

lpad:                                             ; preds = %invoke.cont2, %if.end, %if.then
  %2 = landingpad { ptr, i32 }
          cleanup
  %3 = extractvalue { ptr, i32 } %2, 0
  store ptr %3, ptr %exn.slot, align 8
  %4 = extractvalue { ptr, i32 } %2, 1
  store i32 %4, ptr %ehselector.slot, align 4
  call void @_ZNSt7__cxx1112basic_stringIcSt11char_traitsIcESaIcEE12_Alloc_hiderD2Ev(ptr noundef nonnull align 8 dereferenceable(8) %_M_dataplus) #3
  br label %eh.resume

if.end:                                           ; preds = %entry
  %5 = load ptr, ptr %__s.addr, align 8
  %6 = load ptr, ptr %__s.addr, align 8
  %call3 = invoke noundef i64 @_ZNSt11char_traitsIcE6lengthEPKc(ptr noundef %6)
          to label %invoke.cont2 unwind label %lpad

invoke.cont2:                                     ; preds = %if.end
  %add.ptr = getelementptr inbounds i8, ptr %5, i64 %call3
  store ptr %add.ptr, ptr %__end, align 8
  %7 = load ptr, ptr %__s.addr, align 8
  %8 = load ptr, ptr %__end, align 8
  invoke void @_ZNSt7__cxx1112basic_stringIcSt11char_traitsIcESaIcEE12_M_constructIPKcEEvT_S8_St20forward_iterator_tag(ptr noundef nonnull align 8 dereferenceable(32) %this1, ptr noundef %7, ptr noundef %8)
          to label %invoke.cont4 unwind label %lpad

invoke.cont4:                                     ; preds = %invoke.cont2
  ret void

eh.resume:                                        ; preds = %lpad
  %exn = load ptr, ptr %exn.slot, align 8
  %sel = load i32, ptr %ehselector.slot, align 4
  %lpad.val = insertvalue { ptr, i32 } poison, ptr %exn, 0
  %lpad.val5 = insertvalue { ptr, i32 } %lpad.val, i32 %sel, 1
  resume { ptr, i32 } %lpad.val5
}

declare i32 @__gxx_personality_v0(...)

declare void @_ZN4cvc58internal6theory6TheoryC2ENS1_8TheoryIdERNS0_3EnvERNS1_13OutputChannelENS1_9ValuationENSt7__cxx1112basic_stringIcSt11char_traitsIcESaIcEEE(ptr noundef nonnull align 8 dereferenceable(408), i32 noundef, ptr noundef nonnull align 8 dereferenceable(576), ptr noundef nonnull align 8 dereferenceable(100), ptr, ptr noundef) unnamed_addr #1

; Function Attrs: nounwind
declare void @_ZNSt7__cxx1112basic_stringIcSt11char_traitsIcESaIcEED1Ev(ptr noundef nonnull align 8 dereferenceable(32)) unnamed_addr #2

; Function Attrs: nounwind
declare void @_ZNSaIcED1Ev(ptr noundef nonnull align 1 dereferenceable(1)) unnamed_addr #2

declare void @_ZN4cvc58internal6theory4bags11SolverStateC1ERNS0_3EnvENS1_9ValuationE(ptr noundef nonnull align 8 dereferenceable(408), ptr noundef nonnull align 8 dereferenceable(576), ptr) unnamed_addr #1

declare void @_ZN4cvc58internal6theory4bags16InferenceManagerC1ERNS0_3EnvERNS1_6TheoryERNS2_11SolverStateE(ptr noundef nonnull align 8 dereferenceable(384), ptr noundef nonnull align 8 dereferenceable(576), ptr noundef nonnull align 8 dereferenceable(408), ptr noundef nonnull align 8 dereferenceable(408)) unnamed_addr #1

declare void @_ZN4cvc58internal6theory4bags18InferenceGeneratorC1EPNS2_11SolverStateEPNS2_16InferenceManagerE(ptr noundef nonnull align 8 dereferenceable(56), ptr noundef, ptr noundef) unnamed_addr #1

; Function Attrs: mustprogress uwtable
define linkonce_odr hidden void @_ZN4cvc58internal6theory4bags10TheoryBags11NotifyClassC2ERS3_RNS1_22TheoryInferenceManagerE(ptr noundef nonnull align 8 dereferenceable(24) %this, ptr noundef nonnull align 8 dereferenceable(2192) %theory, ptr noundef nonnull align 8 dereferenceable(256) %inferenceManager) unnamed_addr #4 comdat align 2 {
entry:
  %this.addr = alloca ptr, align 8
  %theory.addr = alloca ptr, align 8
  %inferenceManager.addr = alloca ptr, align 8
  store ptr %this, ptr %this.addr, align 8
  store ptr %theory, ptr %theory.addr, align 8
  store ptr %inferenceManager, ptr %inferenceManager.addr, align 8
  %this1 = load ptr, ptr %this.addr, align 8
  %0 = load ptr, ptr %inferenceManager.addr, align 8
  call void @_ZN4cvc58internal6theory19TheoryEqNotifyClassC2ERNS1_22TheoryInferenceManagerE(ptr noundef nonnull align 8 dereferenceable(16) %this1, ptr noundef nonnull align 8 dereferenceable(256) %0)
  store ptr getelementptr inbounds ({ [10 x ptr] }, ptr @_ZTVN4cvc58internal6theory4bags10TheoryBags11NotifyClassE, i32 0, inrange i32 0, i32 2), ptr %this1, align 8
  %d_theory = getelementptr inbounds %"class.cvc5::internal::theory::bags::TheoryBags::NotifyClass", ptr %this1, i32 0, i32 1
  %1 = load ptr, ptr %theory.addr, align 8
  store ptr %1, ptr %d_theory, align 8
  ret void
}

declare noundef nonnull align 8 dereferenceable(72) ptr @_ZNK4cvc58internal6EnvObj18statisticsRegistryEv(ptr noundef nonnull align 8 dereferenceable(16)) #1

declare void @_ZN4cvc58internal6theory4bags14BagsStatisticsC1ERNS0_18StatisticsRegistryE(ptr noundef nonnull align 8 dereferenceable(8), ptr noundef nonnull align 8 dereferenceable(72)) unnamed_addr #1

declare noundef ptr @_ZN4cvc58internal3Env11getRewriterEv(ptr noundef nonnull align 8 dereferenceable(576)) #1

declare void @_ZN4cvc58internal6theory4bags12BagsRewriterC1EPNS1_8RewriterEPNS0_13HistogramStatINS2_7RewriteEEE(ptr noundef nonnull align 8 dereferenceable(48), ptr noundef, ptr noundef) unnamed_addr #1

declare void @_ZN4cvc58internal6theory4bags12TermRegistryC1ERNS0_3EnvERNS2_11SolverStateERNS2_16InferenceManagerE(ptr noundef nonnull align 8 dereferenceable(296), ptr noundef nonnull align 8 dereferenceable(576), ptr noundef nonnull align 8 dereferenceable(408), ptr noundef nonnull align 8 dereferenceable(384)) unnamed_addr #1

declare void @_ZN4cvc58internal6theory4bags9BagSolverC1ERNS0_3EnvERNS2_11SolverStateERNS2_16InferenceManagerERNS2_12TermRegistryE(ptr noundef nonnull align 8 dereferenceable(240), ptr noundef nonnull align 8 dereferenceable(576), ptr noundef nonnull align 8 dereferenceable(408), ptr noundef nonnull align 8 dereferenceable(384), ptr noundef nonnull align 8 dereferenceable(296)) unnamed_addr #1

declare void @_ZN4cvc58internal6theory4bags10CardSolverC1ERNS0_3EnvERNS2_11SolverStateERNS2_16InferenceManagerE(ptr noundef nonnull align 8 dereferenceable(176), ptr noundef nonnull align 8 dereferenceable(576), ptr noundef nonnull align 8 dereferenceable(408), ptr noundef nonnull align 8 dereferenceable(384)) unnamed_addr #1

declare void @_ZN4cvc58internal6theory24CarePairArgumentCallbackC1ERNS1_6TheoryE(ptr noundef nonnull align 8 dereferenceable(16), ptr noundef nonnull align 8 dereferenceable(408)) unnamed_addr #1

; Function Attrs: mustprogress nounwind uwtable
define linkonce_odr hidden void @_ZNSt3mapIN4cvc58internal4kind6Kind_tESt6vectorINS1_12NodeTemplateILb1EEESaIS6_EESt4lessIS3_ESaISt4pairIKS3_S8_EEEC2Ev(ptr noundef nonnull align 8 dereferenceable(48) %this) unnamed_addr #6 comdat align 2 {
entry:
  %this.addr = alloca ptr, align 8
  store ptr %this, ptr %this.addr, align 8
  %this1 = load ptr, ptr %this.addr, align 8
  %_M_t = getelementptr inbounds %"class.std::map.118", ptr %this1, i32 0, i32 0
  call void @_ZNSt8_Rb_treeIN4cvc58internal4kind6Kind_tESt4pairIKS3_St6vectorINS1_12NodeTemplateILb1EEESaIS8_EEESt10_Select1stISB_ESt4lessIS3_ESaISB_EEC2Ev(ptr noundef nonnull align 8 dereferenceable(48) %_M_t) #3
  ret void
}

declare void @_ZN4cvc58internal6theory4bags8StrategyC1Ev(ptr noundef nonnull align 8 dereferenceable(80)) unnamed_addr #1

; Function Attrs: mustprogress nounwind uwtable
define linkonce_odr hidden void @_ZNSt3mapIN4cvc58internal4kind6Kind_tESt6vectorINS1_12NodeTemplateILb1EEESaIS6_EESt4lessIS3_ESaISt4pairIKS3_S8_EEED2Ev(ptr noundef nonnull align 8 dereferenceable(48) %this) unnamed_addr #6 comdat align 2 {
entry:
  %this.addr = alloca ptr, align 8
  store ptr %this, ptr %this.addr, align 8
  %this1 = load ptr, ptr %this.addr, align 8
  %_M_t = getelementptr inbounds %"class.std::map.118", ptr %this1, i32 0, i32 0
  call void @_ZNSt8_Rb_treeIN4cvc58internal4kind6Kind_tESt4pairIKS3_St6vectorINS1_12NodeTemplateILb1EEESaIS8_EEESt10_Select1stISB_ESt4lessIS3_ESaISB_EED2Ev(ptr noundef nonnull align 8 dereferenceable(48) %_M_t) #3
  ret void
}

; Function Attrs: mustprogress nounwind uwtable
define linkonce_odr hidden void @_ZN4cvc58internal6theory24CarePairArgumentCallbackD2Ev(ptr noundef nonnull align 8 dereferenceable(16) %this) unnamed_addr #6 comdat align 2 {
entry:
  %this.addr = alloca ptr, align 8
  store ptr %this, ptr %this.addr, align 8
  %this1 = load ptr, ptr %this.addr, align 8
  call void @_ZN4cvc58internal31NodeTriePathPairProcessCallbackD2Ev(ptr noundef nonnull align 8 dereferenceable(8) %this1) #3
  ret void
}

; Function Attrs: nounwind
declare void @_ZN4cvc58internal6theory4bags10CardSolverD1Ev(ptr noundef nonnull align 8 dereferenceable(176)) unnamed_addr #2

; Function Attrs: nounwind
declare void @_ZN4cvc58internal6theory4bags9BagSolverD1Ev(ptr noundef nonnull align 8 dereferenceable(240)) unnamed_addr #2

; Function Attrs: mustprogress nounwind uwtable
define linkonce_odr hidden void @_ZN4cvc58internal6theory4bags12TermRegistryD2Ev(ptr noundef nonnull align 8 dereferenceable(296) %this) unnamed_addr #6 comdat align 2 {
entry:
  %this.addr = alloca ptr, align 8
  store ptr %this, ptr %this.addr, align 8
  %this1 = load ptr, ptr %this.addr, align 8
  store ptr getelementptr inbounds ({ [4 x ptr] }, ptr @_ZTVN4cvc58internal6theory4bags12TermRegistryE, i32 0, inrange i32 0, i32 2), ptr %this1, align 8
  %d_emptybag = getelementptr inbounds %"class.cvc5::internal::theory::bags::TermRegistry", ptr %this1, i32 0, i32 4
  call void @_ZNSt3mapIN4cvc58internal8TypeNodeENS1_12NodeTemplateILb1EEESt4lessIS2_ESaISt4pairIKS2_S4_EEED2Ev(ptr noundef nonnull align 8 dereferenceable(48) %d_emptybag) #3
  %d_proxy_to_term = getelementptr inbounds %"class.cvc5::internal::theory::bags::TermRegistry", ptr %this1, i32 0, i32 3
  call void @_ZN4cvc57context9CDHashMapINS_8internal12NodeTemplateILb1EEES4_St4hashIS4_EED2Ev(ptr noundef nonnull align 8 dereferenceable(112) %d_proxy_to_term) #3
  %d_proxy = getelementptr inbounds %"class.cvc5::internal::theory::bags::TermRegistry", ptr %this1, i32 0, i32 2
  call void @_ZN4cvc57context9CDHashMapINS_8internal12NodeTemplateILb1EEES4_St4hashIS4_EED2Ev(ptr noundef nonnull align 8 dereferenceable(112) %d_proxy) #3
  call void @_ZN4cvc58internal6EnvObjD2Ev(ptr noundef nonnull align 8 dereferenceable(16) %this1) #3
  ret void
}

; Function Attrs: mustprogress nounwind uwtable
define linkonce_odr hidden void @_ZN4cvc58internal6theory4bags12BagsRewriterD2Ev(ptr noundef nonnull align 8 dereferenceable(48) %this) unnamed_addr #6 comdat align 2 {
entry:
  %this.addr = alloca ptr, align 8
  store ptr %this, ptr %this.addr, align 8
  %this1 = load ptr, ptr %this.addr, align 8
  store ptr getelementptr inbounds ({ [12 x ptr] }, ptr @_ZTVN4cvc58internal6theory4bags12BagsRewriterE, i32 0, inrange i32 0, i32 2), ptr %this1, align 8
  %d_one = getelementptr inbounds %"class.cvc5::internal::theory::bags::BagsRewriter", ptr %this1, i32 0, i32 3
  call void @_ZN4cvc58internal12NodeTemplateILb1EED2Ev(ptr noundef nonnull align 8 dereferenceable(8) %d_one) #3
  %d_zero = getelementptr inbounds %"class.cvc5::internal::theory::bags::BagsRewriter", ptr %this1, i32 0, i32 2
  call void @_ZN4cvc58internal12NodeTemplateILb1EED2Ev(ptr noundef nonnull align 8 dereferenceable(8) %d_zero) #3
  call void @_ZN4cvc58internal6theory14TheoryRewriterD2Ev(ptr noundef nonnull align 8 dereferenceable(8) %this1) #3
  ret void
}

; Function Attrs: mustprogress nounwind uwtable
define linkonce_odr hidden void @_ZN4cvc58internal6theory4bags10TheoryBags11NotifyClassD2Ev(ptr noundef nonnull align 8 dereferenceable(24) %this) unnamed_addr #6 comdat align 2 {
entry:
  %this.addr = alloca ptr, align 8
  store ptr %this, ptr %this.addr, align 8
  %this1 = load ptr, ptr %this.addr, align 8
  call void @_ZN4cvc58internal6theory19TheoryEqNotifyClassD2Ev(ptr noundef nonnull align 8 dereferenceable(16) %this1) #3
  ret void
}

; Function Attrs: mustprogress nounwind uwtable
define linkonce_odr hidden void @_ZN4cvc58internal6theory4bags18InferenceGeneratorD2Ev(ptr noundef nonnull align 8 dereferenceable(56) %this) unnamed_addr #6 comdat align 2 {
entry:
  %this.addr = alloca ptr, align 8
  store ptr %this, ptr %this.addr, align 8
  %this1 = load ptr, ptr %this.addr, align 8
  %d_one = getelementptr inbounds %"class.cvc5::internal::theory::bags::InferenceGenerator", ptr %this1, i32 0, i32 6
  call void @_ZN4cvc58internal12NodeTemplateILb1EED2Ev(ptr noundef nonnull align 8 dereferenceable(8) %d_one) #3
  %d_zero = getelementptr inbounds %"class.cvc5::internal::theory::bags::InferenceGenerator", ptr %this1, i32 0, i32 5
  call void @_ZN4cvc58internal12NodeTemplateILb1EED2Ev(ptr noundef nonnull align 8 dereferenceable(8) %d_zero) #3
  %d_true = getelementptr inbounds %"class.cvc5::internal::theory::bags::InferenceGenerator", ptr %this1, i32 0, i32 4
  call void @_ZN4cvc58internal12NodeTemplateILb1EED2Ev(ptr noundef nonnull align 8 dereferenceable(8) %d_true) #3
  ret void
}

; Function Attrs: mustprogress nounwind uwtable
define linkonce_odr hidden void @_ZN4cvc58internal6theory4bags16InferenceManagerD2Ev(ptr noundef nonnull align 8 dereferenceable(384) %this) unnamed_addr #6 comdat align 2 {
entry:
  %this.addr = alloca ptr, align 8
  store ptr %this, ptr %this.addr, align 8
  %this1 = load ptr, ptr %this.addr, align 8
  store ptr getelementptr inbounds ({ [10 x ptr] }, ptr @_ZTVN4cvc58internal6theory4bags16InferenceManagerE, i32 0, inrange i32 0, i32 2), ptr %this1, align 8
  %d_false = getelementptr inbounds %"class.cvc5::internal::theory::bags::InferenceManager", ptr %this1, i32 0, i32 2
  call void @_ZN4cvc58internal12NodeTemplateILb1EED2Ev(ptr noundef nonnull align 8 dereferenceable(8) %d_false) #3
  %d_true = getelementptr inbounds %"class.cvc5::internal::theory::bags::InferenceManager", ptr %this1, i32 0, i32 1
  call void @_ZN4cvc58internal12NodeTemplateILb1EED2Ev(ptr noundef nonnull align 8 dereferenceable(8) %d_true) #3
  call void @_ZN4cvc58internal6theory24InferenceManagerBufferedD2Ev(ptr noundef nonnull align 8 dereferenceable(353) %this1) #3
  ret void
}

; Function Attrs: mustprogress nounwind uwtable
define linkonce_odr hidden void @_ZN4cvc58internal6theory4bags11SolverStateD2Ev(ptr noundef nonnull align 8 dereferenceable(408) %this) unnamed_addr #6 comdat align 2 {
entry:
  %this.addr = alloca ptr, align 8
  store ptr %this, ptr %this.addr, align 8
  %this1 = load ptr, ptr %this.addr, align 8
  store ptr getelementptr inbounds ({ [14 x ptr] }, ptr @_ZTVN4cvc58internal6theory4bags11SolverStateE, i32 0, inrange i32 0, i32 2), ptr %this1, align 8
  %d_partElementSkolems = getelementptr inbounds %"class.cvc5::internal::theory::bags::SolverState", ptr %this1, i32 0, i32 8
  call void @_ZN4cvc57context9CDHashMapINS_8internal12NodeTemplateILb1EEESt10shared_ptrINS0_9CDHashSetIS4_St4hashIS4_EEEES8_ED2Ev(ptr noundef nonnull align 8 dereferenceable(112) %d_partElementSkolems) #3
  %d_cardTerms = getelementptr inbounds %"class.cvc5::internal::theory::bags::SolverState", ptr %this1, i32 0, i32 7
  call void @_ZNSt3mapIN4cvc58internal12NodeTemplateILb1EEES3_St4lessIS3_ESaISt4pairIKS3_S3_EEED2Ev(ptr noundef nonnull align 8 dereferenceable(48) %d_cardTerms) #3
  %d_deq = getelementptr inbounds %"class.cvc5::internal::theory::bags::SolverState", ptr %this1, i32 0, i32 6
  call void @_ZNSt3mapIN4cvc58internal12NodeTemplateILb1EEES3_St4lessIS3_ESaISt4pairIKS3_S3_EEED2Ev(ptr noundef nonnull align 8 dereferenceable(48) %d_deq) #3
  %d_bagElements = getelementptr inbounds %"class.cvc5::internal::theory::bags::SolverState", ptr %this1, i32 0, i32 5
  call void @_ZNSt3mapIN4cvc58internal12NodeTemplateILb1EEESt6vectorISt4pairIS3_S3_ESaIS6_EESt4lessIS3_ESaIS5_IKS3_S8_EEED2Ev(ptr noundef nonnull align 8 dereferenceable(48) %d_bagElements) #3
  %d_bags = getelementptr inbounds %"class.cvc5::internal::theory::bags::SolverState", ptr %this1, i32 0, i32 4
  call void @_ZNSt3setIN4cvc58internal12NodeTemplateILb1EEESt4lessIS3_ESaIS3_EED2Ev(ptr noundef nonnull align 8 dereferenceable(48) %d_bags) #3
  %d_false = getelementptr inbounds %"class.cvc5::internal::theory::bags::SolverState", ptr %this1, i32 0, i32 2
  call void @_ZN4cvc58internal12NodeTemplateILb1EED2Ev(ptr noundef nonnull align 8 dereferenceable(8) %d_false) #3
  %d_true = getelementptr inbounds %"class.cvc5::internal::theory::bags::SolverState", ptr %this1, i32 0, i32 1
  call void @_ZN4cvc58internal12NodeTemplateILb1EED2Ev(ptr noundef nonnull align 8 dereferenceable(8) %d_true) #3
  call void @_ZN4cvc58internal6theory11TheoryStateD2Ev(ptr noundef nonnull align 8 dereferenceable(80) %this1) #3
  ret void
}

; Function Attrs: nounwind
declare void @_ZN4cvc58internal6theory6TheoryD2Ev(ptr noundef nonnull align 8 dereferenceable(408)) unnamed_addr #2

; Function Attrs: mustprogress nounwind uwtable
define hidden void @_ZN4cvc58internal6theory4bags10TheoryBagsD2Ev(ptr noundef nonnull align 8 dereferenceable(2192) %this) unnamed_addr #6 align 2 {
entry:
  %this.addr = alloca ptr, align 8
  store ptr %this, ptr %this.addr, align 8
  %this1 = load ptr, ptr %this.addr, align 8
  store ptr getelementptr inbounds ({ [36 x ptr] }, ptr @_ZTVN4cvc58internal6theory4bags10TheoryBagsE, i32 0, inrange i32 0, i32 2), ptr %this1, align 8
  %d_strat = getelementptr inbounds %"class.cvc5::internal::theory::bags::TheoryBags", ptr %this1, i32 0, i32 12
  call void @_ZN4cvc58internal6theory4bags8StrategyD1Ev(ptr noundef nonnull align 8 dereferenceable(80) %d_strat) #3
  %d_opMap = getelementptr inbounds %"class.cvc5::internal::theory::bags::TheoryBags", ptr %this1, i32 0, i32 11
  call void @_ZNSt3mapIN4cvc58internal4kind6Kind_tESt6vectorINS1_12NodeTemplateILb1EEESaIS6_EESt4lessIS3_ESaISt4pairIKS3_S8_EEED2Ev(ptr noundef nonnull align 8 dereferenceable(48) %d_opMap) #3
  %d_cpacb = getelementptr inbounds %"class.cvc5::internal::theory::bags::TheoryBags", ptr %this1, i32 0, i32 10
  call void @_ZN4cvc58internal6theory24CarePairArgumentCallbackD2Ev(ptr noundef nonnull align 8 dereferenceable(16) %d_cpacb) #3
  %d_cardSolver = getelementptr inbounds %"class.cvc5::internal::theory::bags::TheoryBags", ptr %this1, i32 0, i32 9
  call void @_ZN4cvc58internal6theory4bags10CardSolverD1Ev(ptr noundef nonnull align 8 dereferenceable(176) %d_cardSolver) #3
  %d_solver = getelementptr inbounds %"class.cvc5::internal::theory::bags::TheoryBags", ptr %this1, i32 0, i32 8
  call void @_ZN4cvc58internal6theory4bags9BagSolverD1Ev(ptr noundef nonnull align 8 dereferenceable(240) %d_solver) #3
  %d_termReg = getelementptr inbounds %"class.cvc5::internal::theory::bags::TheoryBags", ptr %this1, i32 0, i32 7
  call void @_ZN4cvc58internal6theory4bags12TermRegistryD2Ev(ptr noundef nonnull align 8 dereferenceable(296) %d_termReg) #3
  %d_rewriter = getelementptr inbounds %"class.cvc5::internal::theory::bags::TheoryBags", ptr %this1, i32 0, i32 6
  call void @_ZN4cvc58internal6theory4bags12BagsRewriterD2Ev(ptr noundef nonnull align 8 dereferenceable(48) %d_rewriter) #3
  %d_notify = getelementptr inbounds %"class.cvc5::internal::theory::bags::TheoryBags", ptr %this1, i32 0, i32 4
  call void @_ZN4cvc58internal6theory4bags10TheoryBags11NotifyClassD2Ev(ptr noundef nonnull align 8 dereferenceable(24) %d_notify) #3
  %d_ig = getelementptr inbounds %"class.cvc5::internal::theory::bags::TheoryBags", ptr %this1, i32 0, i32 3
  call void @_ZN4cvc58internal6theory4bags18InferenceGeneratorD2Ev(ptr noundef nonnull align 8 dereferenceable(56) %d_ig) #3
  %d_im = getelementptr inbounds %"class.cvc5::internal::theory::bags::TheoryBags", ptr %this1, i32 0, i32 2
  call void @_ZN4cvc58internal6theory4bags16InferenceManagerD2Ev(ptr noundef nonnull align 8 dereferenceable(384) %d_im) #3
  %d_state = getelementptr inbounds %"class.cvc5::internal::theory::bags::TheoryBags", ptr %this1, i32 0, i32 1
  call void @_ZN4cvc58internal6theory4bags11SolverStateD2Ev(ptr noundef nonnull align 8 dereferenceable(408) %d_state) #3
  call void @_ZN4cvc58internal6theory6TheoryD2Ev(ptr noundef nonnull align 8 dereferenceable(408) %this1) #3
  ret void
}

; Function Attrs: nounwind
declare void @_ZN4cvc58internal6theory4bags8StrategyD1Ev(ptr noundef nonnull align 8 dereferenceable(80)) unnamed_addr #2

; Function Attrs: mustprogress nounwind uwtable
define hidden void @_ZN4cvc58internal6theory4bags10TheoryBagsD0Ev(ptr noundef nonnull align 8 dereferenceable(2192) %this) unnamed_addr #6 align 2 {
entry:
  %this.addr = alloca ptr, align 8
  store ptr %this, ptr %this.addr, align 8
  %this1 = load ptr, ptr %this.addr, align 8
  call void @_ZN4cvc58internal6theory4bags10TheoryBagsD1Ev(ptr noundef nonnull align 8 dereferenceable(2192) %this1) #3
  call void @_ZdlPv(ptr noundef %this1) #17
  ret void
}

; Function Attrs: nobuiltin nounwind
declare void @_ZdlPv(ptr noundef) #7

; Function Attrs: mustprogress nounwind uwtable
define hidden noundef ptr @_ZN4cvc58internal6theory4bags10TheoryBags17getTheoryRewriterEv(ptr noundef nonnull align 8 dereferenceable(2192) %this) unnamed_addr #6 align 2 {
entry:
  %this.addr = alloca ptr, align 8
  store ptr %this, ptr %this.addr, align 8
  %this1 = load ptr, ptr %this.addr, align 8
  %d_rewriter = getelementptr inbounds %"class.cvc5::internal::theory::bags::TheoryBags", ptr %this1, i32 0, i32 6
  ret ptr %d_rewriter
}

; Function Attrs: mustprogress nounwind uwtable
define hidden noundef ptr @_ZN4cvc58internal6theory4bags10TheoryBags15getProofCheckerEv(ptr noundef nonnull align 8 dereferenceable(2192) %this) unnamed_addr #6 align 2 {
entry:
  %this.addr = alloca ptr, align 8
  store ptr %this, ptr %this.addr, align 8
  ret ptr null
}

; Function Attrs: mustprogress uwtable
define hidden noundef zeroext i1 @_ZN4cvc58internal6theory4bags10TheoryBags19needsEqualityEngineERNS1_11EeSetupInfoE(ptr noundef nonnull align 8 dereferenceable(2192) %this, ptr noundef nonnull align 8 dereferenceable(45) %esi) unnamed_addr #4 align 2 {
entry:
  %this.addr = alloca ptr, align 8
  %esi.addr = alloca ptr, align 8
  store ptr %this, ptr %this.addr, align 8
  store ptr %esi, ptr %esi.addr, align 8
  %this1 = load ptr, ptr %this.addr, align 8
  %d_notify = getelementptr inbounds %"class.cvc5::internal::theory::bags::TheoryBags", ptr %this1, i32 0, i32 4
  %0 = load ptr, ptr %esi.addr, align 8
  %d_notify2 = getelementptr inbounds %"struct.cvc5::internal::theory::EeSetupInfo", ptr %0, i32 0, i32 0
  store ptr %d_notify, ptr %d_notify2, align 8
  %1 = load ptr, ptr %esi.addr, align 8
  %d_name = getelementptr inbounds %"struct.cvc5::internal::theory::EeSetupInfo", ptr %1, i32 0, i32 1
  %call = call noundef nonnull align 8 dereferenceable(32) ptr @_ZNSt7__cxx1112basic_stringIcSt11char_traitsIcESaIcEEaSEPKc(ptr noundef nonnull align 8 dereferenceable(32) %d_name, ptr noundef @.str.1)
  ret i1 true
}

declare noundef nonnull align 8 dereferenceable(32) ptr @_ZNSt7__cxx1112basic_stringIcSt11char_traitsIcESaIcEEaSEPKc(ptr noundef nonnull align 8 dereferenceable(32), ptr noundef) #1

; Function Attrs: mustprogress uwtable
define hidden void @_ZN4cvc58internal6theory4bags10TheoryBags10finishInitEv(ptr noundef nonnull align 8 dereferenceable(2192) %this) unnamed_addr #4 align 2 {
entry:
  %this.addr = alloca ptr, align 8
  store ptr %this, ptr %this.addr, align 8
  %this1 = load ptr, ptr %this.addr, align 8
  %d_valuation = getelementptr inbounds %"class.cvc5::internal::theory::Theory", ptr %this1, i32 0, i32 6
  call void @_ZN4cvc58internal6theory9Valuation18setUnevaluatedKindENS0_4kind6Kind_tE(ptr noundef nonnull align 8 dereferenceable(8) %d_valuation, i32 noundef 11)
  %d_equalityEngine = getelementptr inbounds %"class.cvc5::internal::theory::Theory", ptr %this1, i32 0, i32 7
  %0 = load ptr, ptr %d_equalityEngine, align 8
  call void @_ZN4cvc58internal6theory2eq14EqualityEngine15addFunctionKindENS0_4kind6Kind_tEbb(ptr noundef nonnull align 8 dereferenceable(1784) %0, i32 noundef 275, i1 noundef zeroext false, i1 noundef zeroext false)
  %d_equalityEngine2 = getelementptr inbounds %"class.cvc5::internal::theory::Theory", ptr %this1, i32 0, i32 7
  %1 = load ptr, ptr %d_equalityEngine2, align 8
  call void @_ZN4cvc58internal6theory2eq14EqualityEngine15addFunctionKindENS0_4kind6Kind_tEbb(ptr noundef nonnull align 8 dereferenceable(1784) %1, i32 noundef 276, i1 noundef zeroext false, i1 noundef zeroext false)
  %d_equalityEngine3 = getelementptr inbounds %"class.cvc5::internal::theory::Theory", ptr %this1, i32 0, i32 7
  %2 = load ptr, ptr %d_equalityEngine3, align 8
  call void @_ZN4cvc58internal6theory2eq14EqualityEngine15addFunctionKindENS0_4kind6Kind_tEbb(ptr noundef nonnull align 8 dereferenceable(1784) %2, i32 noundef 277, i1 noundef zeroext false, i1 noundef zeroext false)
  %d_equalityEngine4 = getelementptr inbounds %"class.cvc5::internal::theory::Theory", ptr %this1, i32 0, i32 7
  %3 = load ptr, ptr %d_equalityEngine4, align 8
  call void @_ZN4cvc58internal6theory2eq14EqualityEngine15addFunctionKindENS0_4kind6Kind_tEbb(ptr noundef nonnull align 8 dereferenceable(1784) %3, i32 noundef 278, i1 noundef zeroext false, i1 noundef zeroext false)
  %d_equalityEngine5 = getelementptr inbounds %"class.cvc5::internal::theory::Theory", ptr %this1, i32 0, i32 7
  %4 = load ptr, ptr %d_equalityEngine5, align 8
  call void @_ZN4cvc58internal6theory2eq14EqualityEngine15addFunctionKindENS0_4kind6Kind_tEbb(ptr noundef nonnull align 8 dereferenceable(1784) %4, i32 noundef 279, i1 noundef zeroext false, i1 noundef zeroext false)
  %d_equalityEngine6 = getelementptr inbounds %"class.cvc5::internal::theory::Theory", ptr %this1, i32 0, i32 7
  %5 = load ptr, ptr %d_equalityEngine6, align 8
  call void @_ZN4cvc58internal6theory2eq14EqualityEngine15addFunctionKindENS0_4kind6Kind_tEbb(ptr noundef nonnull align 8 dereferenceable(1784) %5, i32 noundef 281, i1 noundef zeroext false, i1 noundef zeroext false)
  %d_equalityEngine7 = getelementptr inbounds %"class.cvc5::internal::theory::Theory", ptr %this1, i32 0, i32 7
  %6 = load ptr, ptr %d_equalityEngine7, align 8
  call void @_ZN4cvc58internal6theory2eq14EqualityEngine15addFunctionKindENS0_4kind6Kind_tEbb(ptr noundef nonnull align 8 dereferenceable(1784) %6, i32 noundef 283, i1 noundef zeroext false, i1 noundef zeroext false)
  %d_equalityEngine8 = getelementptr inbounds %"class.cvc5::internal::theory::Theory", ptr %this1, i32 0, i32 7
  %7 = load ptr, ptr %d_equalityEngine8, align 8
  call void @_ZN4cvc58internal6theory2eq14EqualityEngine15addFunctionKindENS0_4kind6Kind_tEbb(ptr noundef nonnull align 8 dereferenceable(1784) %7, i32 noundef 284, i1 noundef zeroext false, i1 noundef zeroext false)
  %d_equalityEngine9 = getelementptr inbounds %"class.cvc5::internal::theory::Theory", ptr %this1, i32 0, i32 7
  %8 = load ptr, ptr %d_equalityEngine9, align 8
  call void @_ZN4cvc58internal6theory2eq14EqualityEngine15addFunctionKindENS0_4kind6Kind_tEbb(ptr noundef nonnull align 8 dereferenceable(1784) %8, i32 noundef 286, i1 noundef zeroext false, i1 noundef zeroext false)
  %d_equalityEngine10 = getelementptr inbounds %"class.cvc5::internal::theory::Theory", ptr %this1, i32 0, i32 7
  %9 = load ptr, ptr %d_equalityEngine10, align 8
  call void @_ZN4cvc58internal6theory2eq14EqualityEngine15addFunctionKindENS0_4kind6Kind_tEbb(ptr noundef nonnull align 8 dereferenceable(1784) %9, i32 noundef 287, i1 noundef zeroext false, i1 noundef zeroext false)
  %d_equalityEngine11 = getelementptr inbounds %"class.cvc5::internal::theory::Theory", ptr %this1, i32 0, i32 7
  %10 = load ptr, ptr %d_equalityEngine11, align 8
  call void @_ZN4cvc58internal6theory2eq14EqualityEngine15addFunctionKindENS0_4kind6Kind_tEbb(ptr noundef nonnull align 8 dereferenceable(1784) %10, i32 noundef 288, i1 noundef zeroext false, i1 noundef zeroext false)
  %d_equalityEngine12 = getelementptr inbounds %"class.cvc5::internal::theory::Theory", ptr %this1, i32 0, i32 7
  %11 = load ptr, ptr %d_equalityEngine12, align 8
  call void @_ZN4cvc58internal6theory2eq14EqualityEngine15addFunctionKindENS0_4kind6Kind_tEbb(ptr noundef nonnull align 8 dereferenceable(1784) %11, i32 noundef 293, i1 noundef zeroext false, i1 noundef zeroext false)
  %d_equalityEngine13 = getelementptr inbounds %"class.cvc5::internal::theory::Theory", ptr %this1, i32 0, i32 7
  %12 = load ptr, ptr %d_equalityEngine13, align 8
  call void @_ZN4cvc58internal6theory2eq14EqualityEngine15addFunctionKindENS0_4kind6Kind_tEbb(ptr noundef nonnull align 8 dereferenceable(1784) %12, i32 noundef 294, i1 noundef zeroext false, i1 noundef zeroext false)
  %d_equalityEngine14 = getelementptr inbounds %"class.cvc5::internal::theory::Theory", ptr %this1, i32 0, i32 7
  %13 = load ptr, ptr %d_equalityEngine14, align 8
  call void @_ZN4cvc58internal6theory2eq14EqualityEngine15addFunctionKindENS0_4kind6Kind_tEbb(ptr noundef nonnull align 8 dereferenceable(1784) %13, i32 noundef 296, i1 noundef zeroext false, i1 noundef zeroext false)
  %d_equalityEngine15 = getelementptr inbounds %"class.cvc5::internal::theory::Theory", ptr %this1, i32 0, i32 7
  %14 = load ptr, ptr %d_equalityEngine15, align 8
  call void @_ZN4cvc58internal6theory2eq14EqualityEngine15addFunctionKindENS0_4kind6Kind_tEbb(ptr noundef nonnull align 8 dereferenceable(1784) %14, i32 noundef 298, i1 noundef zeroext false, i1 noundef zeroext false)
  %d_equalityEngine16 = getelementptr inbounds %"class.cvc5::internal::theory::Theory", ptr %this1, i32 0, i32 7
  %15 = load ptr, ptr %d_equalityEngine16, align 8
  call void @_ZN4cvc58internal6theory2eq14EqualityEngine15addFunctionKindENS0_4kind6Kind_tEbb(ptr noundef nonnull align 8 dereferenceable(1784) %15, i32 noundef 300, i1 noundef zeroext false, i1 noundef zeroext false)
  %d_equalityEngine17 = getelementptr inbounds %"class.cvc5::internal::theory::Theory", ptr %this1, i32 0, i32 7
  %16 = load ptr, ptr %d_equalityEngine17, align 8
  call void @_ZN4cvc58internal6theory2eq14EqualityEngine15addFunctionKindENS0_4kind6Kind_tEbb(ptr noundef nonnull align 8 dereferenceable(1784) %16, i32 noundef 302, i1 noundef zeroext false, i1 noundef zeroext false)
  ret void
}

declare void @_ZN4cvc58internal6theory9Valuation18setUnevaluatedKindENS0_4kind6Kind_tE(ptr noundef nonnull align 8 dereferenceable(8), i32 noundef) #1

declare void @_ZN4cvc58internal6theory2eq14EqualityEngine15addFunctionKindENS0_4kind6Kind_tEbb(ptr noundef nonnull align 8 dereferenceable(1784), i32 noundef, i1 noundef zeroext, i1 noundef zeroext) #1

; Function Attrs: mustprogress uwtable
define hidden void @_ZN4cvc58internal6theory4bags10TheoryBags9ppRewriteENS0_12NodeTemplateILb0EEERSt6vectorINS1_11SkolemLemmaESaIS7_EE(ptr noalias sret(%"class.cvc5::internal::TrustNode") align 8 %agg.result, ptr noundef nonnull align 8 dereferenceable(2192) %this, ptr noundef %atom, ptr noundef nonnull align 8 dereferenceable(24) %lems) unnamed_addr #4 align 2 personality ptr @__gxx_personality_v0 {
entry:
  %result.ptr = alloca ptr, align 8
  %this.addr = alloca ptr, align 8
  %atom.indirect_addr = alloca ptr, align 8
  %lems.addr = alloca ptr, align 8
  %ref.tmp = alloca %"class.cvc5::internal::__cvc5_true", align 1
  %tmp = alloca %"class.cvc5::internal::Cvc5ostream", align 8
  %agg.tmp.ensured = alloca %"class.cvc5::internal::Cvc5ostream", align 8
  %ref.tmp2 = alloca %"class.cvc5::internal::Cvc5ostream", align 8
  %ref.tmp7 = alloca %"class.cvc5::internal::NodeTemplate", align 8
  %exn.slot = alloca ptr, align 8
  %ehselector.slot = alloca i32, align 4
  %asserts = alloca %"class.std::vector.457", align 8
  %ret = alloca %"class.cvc5::internal::NodeTemplate", align 8
  %agg.tmp = alloca %"class.cvc5::internal::NodeTemplate", align 8
  %nm = alloca ptr, align 8
  %andNode = alloca %"class.cvc5::internal::NodeTemplate", align 8
  %agg.tmp17 = alloca %"class.cvc5::internal::NodeTemplate.552", align 8
  %ref.tmp23 = alloca %"class.cvc5::internal::__cvc5_true", align 1
  %tmp27 = alloca %"class.cvc5::internal::Cvc5ostream", align 8
  %agg.tmp.ensured30 = alloca %"class.cvc5::internal::Cvc5ostream", align 8
  %ref.tmp31 = alloca %"class.cvc5::internal::Cvc5ostream", align 8
  %agg.tmp50 = alloca %"class.cvc5::internal::NodeTemplate.552", align 8
  %agg.tmp52 = alloca %"class.cvc5::internal::NodeTemplate", align 8
  %ret61 = alloca %"class.cvc5::internal::NodeTemplate", align 8
  %agg.tmp62 = alloca %"class.cvc5::internal::NodeTemplate", align 8
  %ref.tmp66 = alloca %"class.cvc5::internal::__cvc5_true", align 1
  %tmp71 = alloca %"class.cvc5::internal::Cvc5ostream", align 8
  %agg.tmp.ensured74 = alloca %"class.cvc5::internal::Cvc5ostream", align 8
  %ref.tmp75 = alloca %"class.cvc5::internal::Cvc5ostream", align 8
  %agg.tmp88 = alloca %"class.cvc5::internal::NodeTemplate.552", align 8
  %agg.tmp90 = alloca %"class.cvc5::internal::NodeTemplate", align 8
  %ret99 = alloca %"class.cvc5::internal::NodeTemplate", align 8
  %agg.tmp100 = alloca %"class.cvc5::internal::NodeTemplate", align 8
  %ref.tmp104 = alloca %"class.cvc5::internal::__cvc5_true", align 1
  %tmp109 = alloca %"class.cvc5::internal::Cvc5ostream", align 8
  %agg.tmp.ensured112 = alloca %"class.cvc5::internal::Cvc5ostream", align 8
  %ref.tmp113 = alloca %"class.cvc5::internal::Cvc5ostream", align 8
  %agg.tmp126 = alloca %"class.cvc5::internal::NodeTemplate.552", align 8
  %agg.tmp128 = alloca %"class.cvc5::internal::NodeTemplate", align 8
  store ptr %agg.result, ptr %result.ptr, align 8
  store ptr %this, ptr %this.addr, align 8
  store ptr %atom, ptr %atom.indirect_addr, align 8
  store ptr %lems, ptr %lems.addr, align 8
  %this1 = load ptr, ptr %this.addr, align 8
  %call = call noundef zeroext i1 @_ZN4cvc58internal11__cvc5_truecvbEv(ptr noundef nonnull align 1 dereferenceable(1) %ref.tmp)
  br i1 %call, label %cond.true, label %cond.false

cond.true:                                        ; preds = %entry
  call void @_ZNK4cvc58internal5NullCcvNS0_11Cvc5ostreamEEv(ptr sret(%"class.cvc5::internal::Cvc5ostream") align 8 %tmp, ptr noundef nonnull align 1 dereferenceable(1) @_ZN4cvc58internal10nullStreamE)
  br label %cond.end

cond.false:                                       ; preds = %entry
  call void @_ZNK4cvc58internal6TraceCclEv(ptr sret(%"class.cvc5::internal::Cvc5ostream") align 8 %ref.tmp2, ptr noundef nonnull align 8 dereferenceable(32) @_ZN4cvc58internal12TraceChannelE)
  %call3 = call noundef nonnull align 8 dereferenceable(24) ptr @_ZN4cvc58internal11Cvc5ostreamlsIA23_cEERS1_RKT_(ptr noundef nonnull align 8 dereferenceable(24) %ref.tmp2, ptr noundef nonnull align 1 dereferenceable(23) @.str.2)
  %call4 = call noundef nonnull align 8 dereferenceable(24) ptr @_ZN4cvc58internal11Cvc5ostreamlsINS0_12NodeTemplateILb0EEEEERS1_RKT_(ptr noundef nonnull align 8 dereferenceable(24) %call3, ptr noundef nonnull align 8 dereferenceable(8) %atom)
  %call5 = call noundef nonnull align 8 dereferenceable(24) ptr @_ZN4cvc58internal11Cvc5ostreamlsEPFRSoS2_E(ptr noundef nonnull align 8 dereferenceable(24) %call4, ptr noundef @_ZSt4endlIcSt11char_traitsIcEERSt13basic_ostreamIT_T0_ES6_)
  call void @llvm.memcpy.p0.p0.i64(ptr align 8 %agg.tmp.ensured, ptr align 8 %call5, i64 24, i1 false)
  br label %cond.end

cond.end:                                         ; preds = %cond.false, %cond.true
  %call6 = call noundef i32 @_ZNK4cvc58internal12NodeTemplateILb0EE7getKindEv(ptr noundef nonnull align 8 dereferenceable(8) %atom)
  switch i32 %call6, label %sw.default [
    i32 289, label %sw.bb
    i32 292, label %sw.bb8
    i32 298, label %sw.bb60
    i32 296, label %sw.bb98
  ]

sw.bb:                                            ; preds = %cond.end
  call void @_ZN4cvc58internal12NodeTemplateILb1EEC2ERKNS1_ILb0EEE(ptr noundef nonnull align 8 dereferenceable(8) %ref.tmp7, ptr noundef nonnull align 8 dereferenceable(8) %atom)
  %0 = load ptr, ptr %lems.addr, align 8
  invoke void @_ZN4cvc58internal6theory4bags10TheoryBags20expandChooseOperatorERKNS0_12NodeTemplateILb1EEERSt6vectorINS1_11SkolemLemmaESaIS9_EE(ptr sret(%"class.cvc5::internal::TrustNode") align 8 %agg.result, ptr noundef nonnull align 8 dereferenceable(2192) %this1, ptr noundef nonnull align 8 dereferenceable(8) %ref.tmp7, ptr noundef nonnull align 8 dereferenceable(24) %0)
          to label %invoke.cont unwind label %lpad

invoke.cont:                                      ; preds = %sw.bb
  call void @_ZN4cvc58internal12NodeTemplateILb1EED2Ev(ptr noundef nonnull align 8 dereferenceable(8) %ref.tmp7) #3
  br label %return

lpad:                                             ; preds = %sw.bb
  %1 = landingpad { ptr, i32 }
          cleanup
  %2 = extractvalue { ptr, i32 } %1, 0
  store ptr %2, ptr %exn.slot, align 8
  %3 = extractvalue { ptr, i32 } %1, 1
  store i32 %3, ptr %ehselector.slot, align 4
  call void @_ZN4cvc58internal12NodeTemplateILb1EED2Ev(ptr noundef nonnull align 8 dereferenceable(8) %ref.tmp7) #3
  br label %eh.resume

sw.bb8:                                           ; preds = %cond.end
  call void @_ZNSt6vectorIN4cvc58internal12NodeTemplateILb1EEESaIS3_EEC2Ev(ptr noundef nonnull align 8 dereferenceable(24) %asserts) #3
  invoke void @_ZN4cvc58internal12NodeTemplateILb1EEC2ERKNS1_ILb0EEE(ptr noundef nonnull align 8 dereferenceable(8) %agg.tmp, ptr noundef nonnull align 8 dereferenceable(8) %atom)
          to label %invoke.cont10 unwind label %lpad9

invoke.cont10:                                    ; preds = %sw.bb8
  invoke void @_ZN4cvc58internal6theory4bags12BagReduction18reduceFoldOperatorENS0_12NodeTemplateILb1EEERSt6vectorIS5_SaIS5_EE(ptr sret(%"class.cvc5::internal::NodeTemplate") align 8 %ret, ptr noundef %agg.tmp, ptr noundef nonnull align 8 dereferenceable(24) %asserts)
          to label %invoke.cont12 unwind label %lpad11

invoke.cont12:                                    ; preds = %invoke.cont10
  call void @_ZN4cvc58internal12NodeTemplateILb1EED2Ev(ptr noundef nonnull align 8 dereferenceable(8) %agg.tmp) #3
  %call15 = invoke noundef ptr @_ZN4cvc58internal11NodeManager9currentNMEv()
          to label %invoke.cont14 unwind label %lpad13

invoke.cont14:                                    ; preds = %invoke.cont12
  store ptr %call15, ptr %nm, align 8
  %4 = load ptr, ptr %nm, align 8
  invoke void @_ZN4cvc58internal11NodeManager6mkNodeILb1EEENS0_12NodeTemplateILb1EEENS0_4kind6Kind_tERKSt6vectorINS3_IXT_EEESaIS8_EE(ptr sret(%"class.cvc5::internal::NodeTemplate") align 8 %andNode, ptr noundef nonnull align 8 dereferenceable(3360) %4, i32 noundef 19, ptr noundef nonnull align 8 dereferenceable(24) %asserts)
          to label %invoke.cont16 unwind label %lpad13

invoke.cont16:                                    ; preds = %invoke.cont14
  %d_im = getelementptr inbounds %"class.cvc5::internal::theory::bags::TheoryBags", ptr %this1, i32 0, i32 2
  invoke void @_ZN4cvc58internal12NodeTemplateILb0EEC2ERKNS1_ILb1EEE(ptr noundef nonnull align 8 dereferenceable(8) %agg.tmp17, ptr noundef nonnull align 8 dereferenceable(8) %andNode)
          to label %invoke.cont19 unwind label %lpad18

invoke.cont19:                                    ; preds = %invoke.cont16
  %call22 = invoke noundef zeroext i1 @_ZN4cvc58internal6theory22TheoryInferenceManager5lemmaENS0_12NodeTemplateILb0EEENS1_11InferenceIdENS1_13LemmaPropertyE(ptr noundef nonnull align 8 dereferenceable(256) %d_im, ptr noundef %agg.tmp17, i32 noundef 89, i32 noundef 0)
          to label %invoke.cont21 unwind label %lpad20

invoke.cont21:                                    ; preds = %invoke.cont19
  call void @_ZN4cvc58internal12NodeTemplateILb0EED2Ev(ptr noundef nonnull align 8 dereferenceable(8) %agg.tmp17) #3
  %call25 = invoke noundef zeroext i1 @_ZN4cvc58internal11__cvc5_truecvbEv(ptr noundef nonnull align 1 dereferenceable(1) %ref.tmp23)
          to label %invoke.cont24 unwind label %lpad18

invoke.cont24:                                    ; preds = %invoke.cont21
  br i1 %call25, label %cond.true26, label %cond.false29

cond.true26:                                      ; preds = %invoke.cont24
  invoke void @_ZNK4cvc58internal5NullCcvNS0_11Cvc5ostreamEEv(ptr sret(%"class.cvc5::internal::Cvc5ostream") align 8 %tmp27, ptr noundef nonnull align 1 dereferenceable(1) @_ZN4cvc58internal10nullStreamE)
          to label %invoke.cont28 unwind label %lpad18

invoke.cont28:                                    ; preds = %cond.true26
  br label %cond.end49

cond.false29:                                     ; preds = %invoke.cont24
  invoke void @_ZNK4cvc58internal6TraceCclEv(ptr sret(%"class.cvc5::internal::Cvc5ostream") align 8 %ref.tmp31, ptr noundef nonnull align 8 dereferenceable(32) @_ZN4cvc58internal12TraceChannelE)
          to label %invoke.cont32 unwind label %lpad18

invoke.cont32:                                    ; preds = %cond.false29
  %call34 = invoke noundef nonnull align 8 dereferenceable(24) ptr @_ZN4cvc58internal11Cvc5ostreamlsIA8_cEERS1_RKT_(ptr noundef nonnull align 8 dereferenceable(24) %ref.tmp31, ptr noundef nonnull align 1 dereferenceable(8) @.str.3)
          to label %invoke.cont33 unwind label %lpad18

invoke.cont33:                                    ; preds = %invoke.cont32
  %call36 = invoke noundef nonnull align 8 dereferenceable(24) ptr @_ZN4cvc58internal11Cvc5ostreamlsINS0_12NodeTemplateILb0EEEEERS1_RKT_(ptr noundef nonnull align 8 dereferenceable(24) %call34, ptr noundef nonnull align 8 dereferenceable(8) %atom)
          to label %invoke.cont35 unwind label %lpad18

invoke.cont35:                                    ; preds = %invoke.cont33
  %call38 = invoke noundef nonnull align 8 dereferenceable(24) ptr @_ZN4cvc58internal11Cvc5ostreamlsIA5_cEERS1_RKT_(ptr noundef nonnull align 8 dereferenceable(24) %call36, ptr noundef nonnull align 1 dereferenceable(5) @.str.4)
          to label %invoke.cont37 unwind label %lpad18

invoke.cont37:                                    ; preds = %invoke.cont35
  %call40 = invoke noundef nonnull align 8 dereferenceable(24) ptr @_ZN4cvc58internal11Cvc5ostreamlsINS0_12NodeTemplateILb1EEEEERS1_RKT_(ptr noundef nonnull align 8 dereferenceable(24) %call38, ptr noundef nonnull align 8 dereferenceable(8) %ret)
          to label %invoke.cont39 unwind label %lpad18

invoke.cont39:                                    ; preds = %invoke.cont37
  %call42 = invoke noundef nonnull align 8 dereferenceable(24) ptr @_ZN4cvc58internal11Cvc5ostreamlsIA12_cEERS1_RKT_(ptr noundef nonnull align 8 dereferenceable(24) %call40, ptr noundef nonnull align 1 dereferenceable(12) @.str.5)
          to label %invoke.cont41 unwind label %lpad18

invoke.cont41:                                    ; preds = %invoke.cont39
  %call44 = invoke noundef nonnull align 8 dereferenceable(24) ptr @_ZN4cvc58internal11Cvc5ostreamlsEPFRSoS2_E(ptr noundef nonnull align 8 dereferenceable(24) %call42, ptr noundef @_ZSt4endlIcSt11char_traitsIcEERSt13basic_ostreamIT_T0_ES6_)
          to label %invoke.cont43 unwind label %lpad18

invoke.cont43:                                    ; preds = %invoke.cont41
  %call46 = invoke noundef nonnull align 8 dereferenceable(24) ptr @_ZN4cvc58internal11Cvc5ostreamlsINS0_12NodeTemplateILb1EEEEERS1_RKT_(ptr noundef nonnull align 8 dereferenceable(24) %call44, ptr noundef nonnull align 8 dereferenceable(8) %andNode)
          to label %invoke.cont45 unwind label %lpad18

invoke.cont45:                                    ; preds = %invoke.cont43
  %call48 = invoke noundef nonnull align 8 dereferenceable(24) ptr @_ZN4cvc58internal11Cvc5ostreamlsEPFRSoS2_E(ptr noundef nonnull align 8 dereferenceable(24) %call46, ptr noundef @_ZSt4endlIcSt11char_traitsIcEERSt13basic_ostreamIT_T0_ES6_)
          to label %invoke.cont47 unwind label %lpad18

invoke.cont47:                                    ; preds = %invoke.cont45
  call void @llvm.memcpy.p0.p0.i64(ptr align 8 %agg.tmp.ensured30, ptr align 8 %call48, i64 24, i1 false)
  br label %cond.end49

cond.end49:                                       ; preds = %invoke.cont47, %invoke.cont28
  invoke void @_ZN4cvc58internal12NodeTemplateILb0EEC2ERKS2_(ptr noundef nonnull align 8 dereferenceable(8) %agg.tmp50, ptr noundef nonnull align 8 dereferenceable(8) %atom)
          to label %invoke.cont51 unwind label %lpad18

invoke.cont51:                                    ; preds = %cond.end49
  invoke void @_ZN4cvc58internal12NodeTemplateILb1EEC2ERKS2_(ptr noundef nonnull align 8 dereferenceable(8) %agg.tmp52, ptr noundef nonnull align 8 dereferenceable(8) %ret)
          to label %invoke.cont54 unwind label %lpad53

invoke.cont54:                                    ; preds = %invoke.cont51
  invoke void @_ZN4cvc58internal9TrustNode14mkTrustRewriteENS0_12NodeTemplateILb0EEENS2_ILb1EEEPNS0_14ProofGeneratorE(ptr sret(%"class.cvc5::internal::TrustNode") align 8 %agg.result, ptr noundef %agg.tmp50, ptr noundef %agg.tmp52, ptr noundef null)
          to label %invoke.cont56 unwind label %lpad55

invoke.cont56:                                    ; preds = %invoke.cont54
  call void @_ZN4cvc58internal12NodeTemplateILb1EED2Ev(ptr noundef nonnull align 8 dereferenceable(8) %agg.tmp52) #3
  call void @_ZN4cvc58internal12NodeTemplateILb0EED2Ev(ptr noundef nonnull align 8 dereferenceable(8) %agg.tmp50) #3
  call void @_ZN4cvc58internal12NodeTemplateILb1EED2Ev(ptr noundef nonnull align 8 dereferenceable(8) %andNode) #3
  call void @_ZN4cvc58internal12NodeTemplateILb1EED2Ev(ptr noundef nonnull align 8 dereferenceable(8) %ret) #3
  call void @_ZNSt6vectorIN4cvc58internal12NodeTemplateILb1EEESaIS3_EED2Ev(ptr noundef nonnull align 8 dereferenceable(24) %asserts) #3
  br label %return

lpad9:                                            ; preds = %sw.bb8
  %5 = landingpad { ptr, i32 }
          cleanup
  %6 = extractvalue { ptr, i32 } %5, 0
  store ptr %6, ptr %exn.slot, align 8
  %7 = extractvalue { ptr, i32 } %5, 1
  store i32 %7, ptr %ehselector.slot, align 4
  br label %ehcleanup59

lpad11:                                           ; preds = %invoke.cont10
  %8 = landingpad { ptr, i32 }
          cleanup
  %9 = extractvalue { ptr, i32 } %8, 0
  store ptr %9, ptr %exn.slot, align 8
  %10 = extractvalue { ptr, i32 } %8, 1
  store i32 %10, ptr %ehselector.slot, align 4
  call void @_ZN4cvc58internal12NodeTemplateILb1EED2Ev(ptr noundef nonnull align 8 dereferenceable(8) %agg.tmp) #3
  br label %ehcleanup59

lpad13:                                           ; preds = %invoke.cont14, %invoke.cont12
  %11 = landingpad { ptr, i32 }
          cleanup
  %12 = extractvalue { ptr, i32 } %11, 0
  store ptr %12, ptr %exn.slot, align 8
  %13 = extractvalue { ptr, i32 } %11, 1
  store i32 %13, ptr %ehselector.slot, align 4
  br label %ehcleanup58

lpad18:                                           ; preds = %cond.end49, %invoke.cont45, %invoke.cont43, %invoke.cont41, %invoke.cont39, %invoke.cont37, %invoke.cont35, %invoke.cont33, %invoke.cont32, %cond.false29, %cond.true26, %invoke.cont21, %invoke.cont16
  %14 = landingpad { ptr, i32 }
          cleanup
  %15 = extractvalue { ptr, i32 } %14, 0
  store ptr %15, ptr %exn.slot, align 8
  %16 = extractvalue { ptr, i32 } %14, 1
  store i32 %16, ptr %ehselector.slot, align 4
  br label %ehcleanup57

lpad20:                                           ; preds = %invoke.cont19
  %17 = landingpad { ptr, i32 }
          cleanup
  %18 = extractvalue { ptr, i32 } %17, 0
  store ptr %18, ptr %exn.slot, align 8
  %19 = extractvalue { ptr, i32 } %17, 1
  store i32 %19, ptr %ehselector.slot, align 4
  call void @_ZN4cvc58internal12NodeTemplateILb0EED2Ev(ptr noundef nonnull align 8 dereferenceable(8) %agg.tmp17) #3
  br label %ehcleanup57

lpad53:                                           ; preds = %invoke.cont51
  %20 = landingpad { ptr, i32 }
          cleanup
  %21 = extractvalue { ptr, i32 } %20, 0
  store ptr %21, ptr %exn.slot, align 8
  %22 = extractvalue { ptr, i32 } %20, 1
  store i32 %22, ptr %ehselector.slot, align 4
  br label %ehcleanup

lpad55:                                           ; preds = %invoke.cont54
  %23 = landingpad { ptr, i32 }
          cleanup
  %24 = extractvalue { ptr, i32 } %23, 0
  store ptr %24, ptr %exn.slot, align 8
  %25 = extractvalue { ptr, i32 } %23, 1
  store i32 %25, ptr %ehselector.slot, align 4
  call void @_ZN4cvc58internal12NodeTemplateILb1EED2Ev(ptr noundef nonnull align 8 dereferenceable(8) %agg.tmp52) #3
  br label %ehcleanup

ehcleanup:                                        ; preds = %lpad55, %lpad53
  call void @_ZN4cvc58internal12NodeTemplateILb0EED2Ev(ptr noundef nonnull align 8 dereferenceable(8) %agg.tmp50) #3
  br label %ehcleanup57

ehcleanup57:                                      ; preds = %ehcleanup, %lpad20, %lpad18
  call void @_ZN4cvc58internal12NodeTemplateILb1EED2Ev(ptr noundef nonnull align 8 dereferenceable(8) %andNode) #3
  br label %ehcleanup58

ehcleanup58:                                      ; preds = %ehcleanup57, %lpad13
  call void @_ZN4cvc58internal12NodeTemplateILb1EED2Ev(ptr noundef nonnull align 8 dereferenceable(8) %ret) #3
  br label %ehcleanup59

ehcleanup59:                                      ; preds = %ehcleanup58, %lpad11, %lpad9
  call void @_ZNSt6vectorIN4cvc58internal12NodeTemplateILb1EEESaIS3_EED2Ev(ptr noundef nonnull align 8 dereferenceable(24) %asserts) #3
  br label %eh.resume

sw.bb60:                                          ; preds = %cond.end
  call void @_ZN4cvc58internal12NodeTemplateILb1EEC2ERKNS1_ILb0EEE(ptr noundef nonnull align 8 dereferenceable(8) %agg.tmp62, ptr noundef nonnull align 8 dereferenceable(8) %atom)
  invoke void @_ZN4cvc58internal6theory4bags12BagReduction23reduceAggregateOperatorENS0_12NodeTemplateILb1EEE(ptr sret(%"class.cvc5::internal::NodeTemplate") align 8 %ret61, ptr noundef %agg.tmp62)
          to label %invoke.cont64 unwind label %lpad63

invoke.cont64:                                    ; preds = %sw.bb60
  call void @_ZN4cvc58internal12NodeTemplateILb1EED2Ev(ptr noundef nonnull align 8 dereferenceable(8) %agg.tmp62) #3
  %call69 = invoke noundef zeroext i1 @_ZN4cvc58internal11__cvc5_truecvbEv(ptr noundef nonnull align 1 dereferenceable(1) %ref.tmp66)
          to label %invoke.cont68 unwind label %lpad67

invoke.cont68:                                    ; preds = %invoke.cont64
  br i1 %call69, label %cond.true70, label %cond.false73

cond.true70:                                      ; preds = %invoke.cont68
  invoke void @_ZNK4cvc58internal5NullCcvNS0_11Cvc5ostreamEEv(ptr sret(%"class.cvc5::internal::Cvc5ostream") align 8 %tmp71, ptr noundef nonnull align 1 dereferenceable(1) @_ZN4cvc58internal10nullStreamE)
          to label %invoke.cont72 unwind label %lpad67

invoke.cont72:                                    ; preds = %cond.true70
  br label %cond.end87

cond.false73:                                     ; preds = %invoke.cont68
  invoke void @_ZNK4cvc58internal6TraceCclEv(ptr sret(%"class.cvc5::internal::Cvc5ostream") align 8 %ref.tmp75, ptr noundef nonnull align 8 dereferenceable(32) @_ZN4cvc58internal12TraceChannelE)
          to label %invoke.cont76 unwind label %lpad67

invoke.cont76:                                    ; preds = %cond.false73
  %call78 = invoke noundef nonnull align 8 dereferenceable(24) ptr @_ZN4cvc58internal11Cvc5ostreamlsIA8_cEERS1_RKT_(ptr noundef nonnull align 8 dereferenceable(24) %ref.tmp75, ptr noundef nonnull align 1 dereferenceable(8) @.str.3)
          to label %invoke.cont77 unwind label %lpad67

invoke.cont77:                                    ; preds = %invoke.cont76
  %call80 = invoke noundef nonnull align 8 dereferenceable(24) ptr @_ZN4cvc58internal11Cvc5ostreamlsINS0_12NodeTemplateILb0EEEEERS1_RKT_(ptr noundef nonnull align 8 dereferenceable(24) %call78, ptr noundef nonnull align 8 dereferenceable(8) %atom)
          to label %invoke.cont79 unwind label %lpad67

invoke.cont79:                                    ; preds = %invoke.cont77
  %call82 = invoke noundef nonnull align 8 dereferenceable(24) ptr @_ZN4cvc58internal11Cvc5ostreamlsIA5_cEERS1_RKT_(ptr noundef nonnull align 8 dereferenceable(24) %call80, ptr noundef nonnull align 1 dereferenceable(5) @.str.4)
          to label %invoke.cont81 unwind label %lpad67

invoke.cont81:                                    ; preds = %invoke.cont79
  %call84 = invoke noundef nonnull align 8 dereferenceable(24) ptr @_ZN4cvc58internal11Cvc5ostreamlsINS0_12NodeTemplateILb1EEEEERS1_RKT_(ptr noundef nonnull align 8 dereferenceable(24) %call82, ptr noundef nonnull align 8 dereferenceable(8) %ret61)
          to label %invoke.cont83 unwind label %lpad67

invoke.cont83:                                    ; preds = %invoke.cont81
  %call86 = invoke noundef nonnull align 8 dereferenceable(24) ptr @_ZN4cvc58internal11Cvc5ostreamlsEPFRSoS2_E(ptr noundef nonnull align 8 dereferenceable(24) %call84, ptr noundef @_ZSt4endlIcSt11char_traitsIcEERSt13basic_ostreamIT_T0_ES6_)
          to label %invoke.cont85 unwind label %lpad67

invoke.cont85:                                    ; preds = %invoke.cont83
  call void @llvm.memcpy.p0.p0.i64(ptr align 8 %agg.tmp.ensured74, ptr align 8 %call86, i64 24, i1 false)
  br label %cond.end87

cond.end87:                                       ; preds = %invoke.cont85, %invoke.cont72
  invoke void @_ZN4cvc58internal12NodeTemplateILb0EEC2ERKS2_(ptr noundef nonnull align 8 dereferenceable(8) %agg.tmp88, ptr noundef nonnull align 8 dereferenceable(8) %atom)
          to label %invoke.cont89 unwind label %lpad67

invoke.cont89:                                    ; preds = %cond.end87
  invoke void @_ZN4cvc58internal12NodeTemplateILb1EEC2ERKS2_(ptr noundef nonnull align 8 dereferenceable(8) %agg.tmp90, ptr noundef nonnull align 8 dereferenceable(8) %ret61)
          to label %invoke.cont92 unwind label %lpad91

invoke.cont92:                                    ; preds = %invoke.cont89
  invoke void @_ZN4cvc58internal9TrustNode14mkTrustRewriteENS0_12NodeTemplateILb0EEENS2_ILb1EEEPNS0_14ProofGeneratorE(ptr sret(%"class.cvc5::internal::TrustNode") align 8 %agg.result, ptr noundef %agg.tmp88, ptr noundef %agg.tmp90, ptr noundef null)
          to label %invoke.cont94 unwind label %lpad93

invoke.cont94:                                    ; preds = %invoke.cont92
  call void @_ZN4cvc58internal12NodeTemplateILb1EED2Ev(ptr noundef nonnull align 8 dereferenceable(8) %agg.tmp90) #3
  call void @_ZN4cvc58internal12NodeTemplateILb0EED2Ev(ptr noundef nonnull align 8 dereferenceable(8) %agg.tmp88) #3
  call void @_ZN4cvc58internal12NodeTemplateILb1EED2Ev(ptr noundef nonnull align 8 dereferenceable(8) %ret61) #3
  br label %return

lpad63:                                           ; preds = %sw.bb60
  %26 = landingpad { ptr, i32 }
          cleanup
  %27 = extractvalue { ptr, i32 } %26, 0
  store ptr %27, ptr %exn.slot, align 8
  %28 = extractvalue { ptr, i32 } %26, 1
  store i32 %28, ptr %ehselector.slot, align 4
  call void @_ZN4cvc58internal12NodeTemplateILb1EED2Ev(ptr noundef nonnull align 8 dereferenceable(8) %agg.tmp62) #3
  br label %eh.resume

lpad67:                                           ; preds = %cond.end87, %invoke.cont83, %invoke.cont81, %invoke.cont79, %invoke.cont77, %invoke.cont76, %cond.false73, %cond.true70, %invoke.cont64
  %29 = landingpad { ptr, i32 }
          cleanup
  %30 = extractvalue { ptr, i32 } %29, 0
  store ptr %30, ptr %exn.slot, align 8
  %31 = extractvalue { ptr, i32 } %29, 1
  store i32 %31, ptr %ehselector.slot, align 4
  br label %ehcleanup97

lpad91:                                           ; preds = %invoke.cont89
  %32 = landingpad { ptr, i32 }
          cleanup
  %33 = extractvalue { ptr, i32 } %32, 0
  store ptr %33, ptr %exn.slot, align 8
  %34 = extractvalue { ptr, i32 } %32, 1
  store i32 %34, ptr %ehselector.slot, align 4
  br label %ehcleanup96

lpad93:                                           ; preds = %invoke.cont92
  %35 = landingpad { ptr, i32 }
          cleanup
  %36 = extractvalue { ptr, i32 } %35, 0
  store ptr %36, ptr %exn.slot, align 8
  %37 = extractvalue { ptr, i32 } %35, 1
  store i32 %37, ptr %ehselector.slot, align 4
  call void @_ZN4cvc58internal12NodeTemplateILb1EED2Ev(ptr noundef nonnull align 8 dereferenceable(8) %agg.tmp90) #3
  br label %ehcleanup96

ehcleanup96:                                      ; preds = %lpad93, %lpad91
  call void @_ZN4cvc58internal12NodeTemplateILb0EED2Ev(ptr noundef nonnull align 8 dereferenceable(8) %agg.tmp88) #3
  br label %ehcleanup97

ehcleanup97:                                      ; preds = %ehcleanup96, %lpad67
  call void @_ZN4cvc58internal12NodeTemplateILb1EED2Ev(ptr noundef nonnull align 8 dereferenceable(8) %ret61) #3
  br label %eh.resume

sw.bb98:                                          ; preds = %cond.end
  call void @_ZN4cvc58internal12NodeTemplateILb1EEC2ERKNS1_ILb0EEE(ptr noundef nonnull align 8 dereferenceable(8) %agg.tmp100, ptr noundef nonnull align 8 dereferenceable(8) %atom)
  invoke void @_ZN4cvc58internal6theory4bags12BagReduction21reduceProjectOperatorENS0_12NodeTemplateILb1EEE(ptr sret(%"class.cvc5::internal::NodeTemplate") align 8 %ret99, ptr noundef %agg.tmp100)
          to label %invoke.cont102 unwind label %lpad101

invoke.cont102:                                   ; preds = %sw.bb98
  call void @_ZN4cvc58internal12NodeTemplateILb1EED2Ev(ptr noundef nonnull align 8 dereferenceable(8) %agg.tmp100) #3
  %call107 = invoke noundef zeroext i1 @_ZN4cvc58internal11__cvc5_truecvbEv(ptr noundef nonnull align 1 dereferenceable(1) %ref.tmp104)
          to label %invoke.cont106 unwind label %lpad105

invoke.cont106:                                   ; preds = %invoke.cont102
  br i1 %call107, label %cond.true108, label %cond.false111

cond.true108:                                     ; preds = %invoke.cont106
  invoke void @_ZNK4cvc58internal5NullCcvNS0_11Cvc5ostreamEEv(ptr sret(%"class.cvc5::internal::Cvc5ostream") align 8 %tmp109, ptr noundef nonnull align 1 dereferenceable(1) @_ZN4cvc58internal10nullStreamE)
          to label %invoke.cont110 unwind label %lpad105

invoke.cont110:                                   ; preds = %cond.true108
  br label %cond.end125

cond.false111:                                    ; preds = %invoke.cont106
  invoke void @_ZNK4cvc58internal6TraceCclEv(ptr sret(%"class.cvc5::internal::Cvc5ostream") align 8 %ref.tmp113, ptr noundef nonnull align 8 dereferenceable(32) @_ZN4cvc58internal12TraceChannelE)
          to label %invoke.cont114 unwind label %lpad105

invoke.cont114:                                   ; preds = %cond.false111
  %call116 = invoke noundef nonnull align 8 dereferenceable(24) ptr @_ZN4cvc58internal11Cvc5ostreamlsIA8_cEERS1_RKT_(ptr noundef nonnull align 8 dereferenceable(24) %ref.tmp113, ptr noundef nonnull align 1 dereferenceable(8) @.str.3)
          to label %invoke.cont115 unwind label %lpad105

invoke.cont115:                                   ; preds = %invoke.cont114
  %call118 = invoke noundef nonnull align 8 dereferenceable(24) ptr @_ZN4cvc58internal11Cvc5ostreamlsINS0_12NodeTemplateILb0EEEEERS1_RKT_(ptr noundef nonnull align 8 dereferenceable(24) %call116, ptr noundef nonnull align 8 dereferenceable(8) %atom)
          to label %invoke.cont117 unwind label %lpad105

invoke.cont117:                                   ; preds = %invoke.cont115
  %call120 = invoke noundef nonnull align 8 dereferenceable(24) ptr @_ZN4cvc58internal11Cvc5ostreamlsIA5_cEERS1_RKT_(ptr noundef nonnull align 8 dereferenceable(24) %call118, ptr noundef nonnull align 1 dereferenceable(5) @.str.4)
          to label %invoke.cont119 unwind label %lpad105

invoke.cont119:                                   ; preds = %invoke.cont117
  %call122 = invoke noundef nonnull align 8 dereferenceable(24) ptr @_ZN4cvc58internal11Cvc5ostreamlsINS0_12NodeTemplateILb1EEEEERS1_RKT_(ptr noundef nonnull align 8 dereferenceable(24) %call120, ptr noundef nonnull align 8 dereferenceable(8) %ret99)
          to label %invoke.cont121 unwind label %lpad105

invoke.cont121:                                   ; preds = %invoke.cont119
  %call124 = invoke noundef nonnull align 8 dereferenceable(24) ptr @_ZN4cvc58internal11Cvc5ostreamlsEPFRSoS2_E(ptr noundef nonnull align 8 dereferenceable(24) %call122, ptr noundef @_ZSt4endlIcSt11char_traitsIcEERSt13basic_ostreamIT_T0_ES6_)
          to label %invoke.cont123 unwind label %lpad105

invoke.cont123:                                   ; preds = %invoke.cont121
  call void @llvm.memcpy.p0.p0.i64(ptr align 8 %agg.tmp.ensured112, ptr align 8 %call124, i64 24, i1 false)
  br label %cond.end125

cond.end125:                                      ; preds = %invoke.cont123, %invoke.cont110
  invoke void @_ZN4cvc58internal12NodeTemplateILb0EEC2ERKS2_(ptr noundef nonnull align 8 dereferenceable(8) %agg.tmp126, ptr noundef nonnull align 8 dereferenceable(8) %atom)
          to label %invoke.cont127 unwind label %lpad105

invoke.cont127:                                   ; preds = %cond.end125
  invoke void @_ZN4cvc58internal12NodeTemplateILb1EEC2ERKS2_(ptr noundef nonnull align 8 dereferenceable(8) %agg.tmp128, ptr noundef nonnull align 8 dereferenceable(8) %ret99)
          to label %invoke.cont130 unwind label %lpad129

invoke.cont130:                                   ; preds = %invoke.cont127
  invoke void @_ZN4cvc58internal9TrustNode14mkTrustRewriteENS0_12NodeTemplateILb0EEENS2_ILb1EEEPNS0_14ProofGeneratorE(ptr sret(%"class.cvc5::internal::TrustNode") align 8 %agg.result, ptr noundef %agg.tmp126, ptr noundef %agg.tmp128, ptr noundef null)
          to label %invoke.cont132 unwind label %lpad131

invoke.cont132:                                   ; preds = %invoke.cont130
  call void @_ZN4cvc58internal12NodeTemplateILb1EED2Ev(ptr noundef nonnull align 8 dereferenceable(8) %agg.tmp128) #3
  call void @_ZN4cvc58internal12NodeTemplateILb0EED2Ev(ptr noundef nonnull align 8 dereferenceable(8) %agg.tmp126) #3
  call void @_ZN4cvc58internal12NodeTemplateILb1EED2Ev(ptr noundef nonnull align 8 dereferenceable(8) %ret99) #3
  br label %return

lpad101:                                          ; preds = %sw.bb98
  %38 = landingpad { ptr, i32 }
          cleanup
  %39 = extractvalue { ptr, i32 } %38, 0
  store ptr %39, ptr %exn.slot, align 8
  %40 = extractvalue { ptr, i32 } %38, 1
  store i32 %40, ptr %ehselector.slot, align 4
  call void @_ZN4cvc58internal12NodeTemplateILb1EED2Ev(ptr noundef nonnull align 8 dereferenceable(8) %agg.tmp100) #3
  br label %eh.resume

lpad105:                                          ; preds = %cond.end125, %invoke.cont121, %invoke.cont119, %invoke.cont117, %invoke.cont115, %invoke.cont114, %cond.false111, %cond.true108, %invoke.cont102
  %41 = landingpad { ptr, i32 }
          cleanup
  %42 = extractvalue { ptr, i32 } %41, 0
  store ptr %42, ptr %exn.slot, align 8
  %43 = extractvalue { ptr, i32 } %41, 1
  store i32 %43, ptr %ehselector.slot, align 4
  br label %ehcleanup135

lpad129:                                          ; preds = %invoke.cont127
  %44 = landingpad { ptr, i32 }
          cleanup
  %45 = extractvalue { ptr, i32 } %44, 0
  store ptr %45, ptr %exn.slot, align 8
  %46 = extractvalue { ptr, i32 } %44, 1
  store i32 %46, ptr %ehselector.slot, align 4
  br label %ehcleanup134

lpad131:                                          ; preds = %invoke.cont130
  %47 = landingpad { ptr, i32 }
          cleanup
  %48 = extractvalue { ptr, i32 } %47, 0
  store ptr %48, ptr %exn.slot, align 8
  %49 = extractvalue { ptr, i32 } %47, 1
  store i32 %49, ptr %ehselector.slot, align 4
  call void @_ZN4cvc58internal12NodeTemplateILb1EED2Ev(ptr noundef nonnull align 8 dereferenceable(8) %agg.tmp128) #3
  br label %ehcleanup134

ehcleanup134:                                     ; preds = %lpad131, %lpad129
  call void @_ZN4cvc58internal12NodeTemplateILb0EED2Ev(ptr noundef nonnull align 8 dereferenceable(8) %agg.tmp126) #3
  br label %ehcleanup135

ehcleanup135:                                     ; preds = %ehcleanup134, %lpad105
  call void @_ZN4cvc58internal12NodeTemplateILb1EED2Ev(ptr noundef nonnull align 8 dereferenceable(8) %ret99) #3
  br label %eh.resume

sw.default:                                       ; preds = %cond.end
  call void @_ZN4cvc58internal9TrustNode4nullEv(ptr sret(%"class.cvc5::internal::TrustNode") align 8 %agg.result)
  br label %return

return:                                           ; preds = %sw.default, %invoke.cont132, %invoke.cont94, %invoke.cont56, %invoke.cont
  ret void

eh.resume:                                        ; preds = %ehcleanup135, %lpad101, %ehcleanup97, %lpad63, %ehcleanup59, %lpad
  %exn = load ptr, ptr %exn.slot, align 8
  %sel = load i32, ptr %ehselector.slot, align 4
  %lpad.val = insertvalue { ptr, i32 } poison, ptr %exn, 0
  %lpad.val136 = insertvalue { ptr, i32 } %lpad.val, i32 %sel, 1
  resume { ptr, i32 } %lpad.val136
}

; Function Attrs: mustprogress nounwind uwtable
define linkonce_odr hidden noundef zeroext i1 @_ZN4cvc58internal11__cvc5_truecvbEv(ptr noundef nonnull align 1 dereferenceable(1) %this) #6 comdat align 2 {
entry:
  %this.addr = alloca ptr, align 8
  store ptr %this, ptr %this.addr, align 8
  ret i1 true
}

; Function Attrs: mustprogress uwtable
define linkonce_odr hidden void @_ZNK4cvc58internal5NullCcvNS0_11Cvc5ostreamEEv(ptr noalias sret(%"class.cvc5::internal::Cvc5ostream") align 8 %agg.result, ptr noundef nonnull align 1 dereferenceable(1) %this) #4 comdat align 2 {
entry:
  %this.addr = alloca ptr, align 8
  store ptr %this, ptr %this.addr, align 8
  call void @_ZN4cvc58internal11Cvc5ostreamC2Ev(ptr noundef nonnull align 8 dereferenceable(24) %agg.result)
  ret void
}

; Function Attrs: mustprogress uwtable
define linkonce_odr hidden void @_ZNK4cvc58internal6TraceCclEv(ptr noalias sret(%"class.cvc5::internal::Cvc5ostream") align 8 %agg.result, ptr noundef nonnull align 8 dereferenceable(32) %this) #4 comdat align 2 {
entry:
  %this.addr = alloca ptr, align 8
  store ptr %this, ptr %this.addr, align 8
  %this1 = load ptr, ptr %this.addr, align 8
  %d_os = getelementptr inbounds %"class.cvc5::internal::TraceC", ptr %this1, i32 0, i32 0
  %0 = load ptr, ptr %d_os, align 8
  call void @_ZN4cvc58internal11Cvc5ostreamC2EPSo(ptr noundef nonnull align 8 dereferenceable(24) %agg.result, ptr noundef %0)
  ret void
}

; Function Attrs: mustprogress uwtable
define linkonce_odr hidden noundef nonnull align 8 dereferenceable(24) ptr @_ZN4cvc58internal11Cvc5ostreamlsIA23_cEERS1_RKT_(ptr noundef nonnull align 8 dereferenceable(24) %this, ptr noundef nonnull align 1 dereferenceable(23) %t) #4 comdat align 2 {
entry:
  %this.addr = alloca ptr, align 8
  %t.addr = alloca ptr, align 8
  %indent = alloca i64, align 8
  %i = alloca i64, align 8
  store ptr %this, ptr %this.addr, align 8
  store ptr %t, ptr %t.addr, align 8
  %this1 = load ptr, ptr %this.addr, align 8
  %d_os = getelementptr inbounds %"class.cvc5::internal::Cvc5ostream", ptr %this1, i32 0, i32 0
  %0 = load ptr, ptr %d_os, align 8
  %cmp = icmp ne ptr %0, null
  br i1 %cmp, label %if.then, label %if.end11

if.then:                                          ; preds = %entry
  %d_firstColumn = getelementptr inbounds %"class.cvc5::internal::Cvc5ostream", ptr %this1, i32 0, i32 1
  %1 = load i8, ptr %d_firstColumn, align 8
  %tobool = trunc i8 %1 to i1
  br i1 %tobool, label %if.then2, label %if.end

if.then2:                                         ; preds = %if.then
  %d_firstColumn3 = getelementptr inbounds %"class.cvc5::internal::Cvc5ostream", ptr %this1, i32 0, i32 1
  store i8 0, ptr %d_firstColumn3, align 8
  %d_os4 = getelementptr inbounds %"class.cvc5::internal::Cvc5ostream", ptr %this1, i32 0, i32 0
  %2 = load ptr, ptr %d_os4, align 8
  %vtable = load ptr, ptr %2, align 8
  %vbase.offset.ptr = getelementptr i8, ptr %vtable, i64 -24
  %vbase.offset = load i64, ptr %vbase.offset.ptr, align 8
  %add.ptr = getelementptr inbounds i8, ptr %2, i64 %vbase.offset
  %3 = load i32, ptr @_ZN4cvc58internal11Cvc5ostream16s_indentIosIndexE, align 4
  %call = call noundef nonnull align 8 dereferenceable(8) ptr @_ZNSt8ios_base5iwordEi(ptr noundef nonnull align 8 dereferenceable(216) %add.ptr, i32 noundef %3)
  %4 = load i64, ptr %call, align 8
  store i64 %4, ptr %indent, align 8
  store i64 0, ptr %i, align 8
  br label %for.cond

for.cond:                                         ; preds = %for.inc, %if.then2
  %5 = load i64, ptr %i, align 8
  %6 = load i64, ptr %indent, align 8
  %cmp5 = icmp slt i64 %5, %6
  br i1 %cmp5, label %for.body, label %for.end

for.body:                                         ; preds = %for.cond
  %d_os6 = getelementptr inbounds %"class.cvc5::internal::Cvc5ostream", ptr %this1, i32 0, i32 0
  %7 = load ptr, ptr %d_os6, align 8
  %call7 = call noundef nonnull align 8 dereferenceable(8) ptr @_ZStlsIcSt11char_traitsIcESaIcEERSt13basic_ostreamIT_T0_ES7_RKNSt7__cxx1112basic_stringIS4_S5_T1_EE(ptr noundef nonnull align 8 dereferenceable(8) %7, ptr noundef nonnull align 8 dereferenceable(32) @_ZN4cvc58internal11Cvc5ostream5s_tabB5cxx11E)
  %d_os8 = getelementptr inbounds %"class.cvc5::internal::Cvc5ostream", ptr %this1, i32 0, i32 0
  store ptr %call7, ptr %d_os8, align 8
  br label %for.inc

for.inc:                                          ; preds = %for.body
  %8 = load i64, ptr %i, align 8
  %inc = add nsw i64 %8, 1
  store i64 %inc, ptr %i, align 8
  br label %for.cond, !llvm.loop !4

for.end:                                          ; preds = %for.cond
  br label %if.end

if.end:                                           ; preds = %for.end, %if.then
  %d_os9 = getelementptr inbounds %"class.cvc5::internal::Cvc5ostream", ptr %this1, i32 0, i32 0
  %9 = load ptr, ptr %d_os9, align 8
  %10 = load ptr, ptr %t.addr, align 8
  %arraydecay = getelementptr inbounds [23 x i8], ptr %10, i64 0, i64 0
  %call10 = call noundef nonnull align 8 dereferenceable(8) ptr @_ZStlsISt11char_traitsIcEERSt13basic_ostreamIcT_ES5_PKc(ptr noundef nonnull align 8 dereferenceable(8) %9, ptr noundef %arraydecay)
  br label %if.end11

if.end11:                                         ; preds = %if.end, %entry
  ret ptr %this1
}

; Function Attrs: mustprogress uwtable
define linkonce_odr hidden noundef nonnull align 8 dereferenceable(24) ptr @_ZN4cvc58internal11Cvc5ostreamlsINS0_12NodeTemplateILb0EEEEERS1_RKT_(ptr noundef nonnull align 8 dereferenceable(24) %this, ptr noundef nonnull align 8 dereferenceable(8) %t) #4 comdat align 2 personality ptr @__gxx_personality_v0 {
entry:
  %this.addr = alloca ptr, align 8
  %t.addr = alloca ptr, align 8
  %indent = alloca i64, align 8
  %i = alloca i64, align 8
  %agg.tmp = alloca %"class.cvc5::internal::NodeTemplate.552", align 8
  %exn.slot = alloca ptr, align 8
  %ehselector.slot = alloca i32, align 4
  store ptr %this, ptr %this.addr, align 8
  store ptr %t, ptr %t.addr, align 8
  %this1 = load ptr, ptr %this.addr, align 8
  %d_os = getelementptr inbounds %"class.cvc5::internal::Cvc5ostream", ptr %this1, i32 0, i32 0
  %0 = load ptr, ptr %d_os, align 8
  %cmp = icmp ne ptr %0, null
  br i1 %cmp, label %if.then, label %if.end11

if.then:                                          ; preds = %entry
  %d_firstColumn = getelementptr inbounds %"class.cvc5::internal::Cvc5ostream", ptr %this1, i32 0, i32 1
  %1 = load i8, ptr %d_firstColumn, align 8
  %tobool = trunc i8 %1 to i1
  br i1 %tobool, label %if.then2, label %if.end

if.then2:                                         ; preds = %if.then
  %d_firstColumn3 = getelementptr inbounds %"class.cvc5::internal::Cvc5ostream", ptr %this1, i32 0, i32 1
  store i8 0, ptr %d_firstColumn3, align 8
  %d_os4 = getelementptr inbounds %"class.cvc5::internal::Cvc5ostream", ptr %this1, i32 0, i32 0
  %2 = load ptr, ptr %d_os4, align 8
  %vtable = load ptr, ptr %2, align 8
  %vbase.offset.ptr = getelementptr i8, ptr %vtable, i64 -24
  %vbase.offset = load i64, ptr %vbase.offset.ptr, align 8
  %add.ptr = getelementptr inbounds i8, ptr %2, i64 %vbase.offset
  %3 = load i32, ptr @_ZN4cvc58internal11Cvc5ostream16s_indentIosIndexE, align 4
  %call = call noundef nonnull align 8 dereferenceable(8) ptr @_ZNSt8ios_base5iwordEi(ptr noundef nonnull align 8 dereferenceable(216) %add.ptr, i32 noundef %3)
  %4 = load i64, ptr %call, align 8
  store i64 %4, ptr %indent, align 8
  store i64 0, ptr %i, align 8
  br label %for.cond

for.cond:                                         ; preds = %for.inc, %if.then2
  %5 = load i64, ptr %i, align 8
  %6 = load i64, ptr %indent, align 8
  %cmp5 = icmp slt i64 %5, %6
  br i1 %cmp5, label %for.body, label %for.end

for.body:                                         ; preds = %for.cond
  %d_os6 = getelementptr inbounds %"class.cvc5::internal::Cvc5ostream", ptr %this1, i32 0, i32 0
  %7 = load ptr, ptr %d_os6, align 8
  %call7 = call noundef nonnull align 8 dereferenceable(8) ptr @_ZStlsIcSt11char_traitsIcESaIcEERSt13basic_ostreamIT_T0_ES7_RKNSt7__cxx1112basic_stringIS4_S5_T1_EE(ptr noundef nonnull align 8 dereferenceable(8) %7, ptr noundef nonnull align 8 dereferenceable(32) @_ZN4cvc58internal11Cvc5ostream5s_tabB5cxx11E)
  %d_os8 = getelementptr inbounds %"class.cvc5::internal::Cvc5ostream", ptr %this1, i32 0, i32 0
  store ptr %call7, ptr %d_os8, align 8
  br label %for.inc

for.inc:                                          ; preds = %for.body
  %8 = load i64, ptr %i, align 8
  %inc = add nsw i64 %8, 1
  store i64 %inc, ptr %i, align 8
  br label %for.cond, !llvm.loop !6

for.end:                                          ; preds = %for.cond
  br label %if.end

if.end:                                           ; preds = %for.end, %if.then
  %d_os9 = getelementptr inbounds %"class.cvc5::internal::Cvc5ostream", ptr %this1, i32 0, i32 0
  %9 = load ptr, ptr %d_os9, align 8
  %10 = load ptr, ptr %t.addr, align 8
  call void @_ZN4cvc58internal12NodeTemplateILb0EEC2ERKS2_(ptr noundef nonnull align 8 dereferenceable(8) %agg.tmp, ptr noundef nonnull align 8 dereferenceable(8) %10)
  %call10 = invoke noundef nonnull align 8 dereferenceable(8) ptr @_ZN4cvc58internallsERSoNS0_12NodeTemplateILb0EEE(ptr noundef nonnull align 8 dereferenceable(8) %9, ptr noundef %agg.tmp)
          to label %invoke.cont unwind label %lpad

invoke.cont:                                      ; preds = %if.end
  call void @_ZN4cvc58internal12NodeTemplateILb0EED2Ev(ptr noundef nonnull align 8 dereferenceable(8) %agg.tmp) #3
  br label %if.end11

lpad:                                             ; preds = %if.end
  %11 = landingpad { ptr, i32 }
          cleanup
  %12 = extractvalue { ptr, i32 } %11, 0
  store ptr %12, ptr %exn.slot, align 8
  %13 = extractvalue { ptr, i32 } %11, 1
  store i32 %13, ptr %ehselector.slot, align 4
  call void @_ZN4cvc58internal12NodeTemplateILb0EED2Ev(ptr noundef nonnull align 8 dereferenceable(8) %agg.tmp) #3
  br label %eh.resume

if.end11:                                         ; preds = %invoke.cont, %entry
  ret ptr %this1

eh.resume:                                        ; preds = %lpad
  %exn = load ptr, ptr %exn.slot, align 8
  %sel = load i32, ptr %ehselector.slot, align 4
  %lpad.val = insertvalue { ptr, i32 } poison, ptr %exn, 0
  %lpad.val12 = insertvalue { ptr, i32 } %lpad.val, i32 %sel, 1
  resume { ptr, i32 } %lpad.val12
}

; Function Attrs: mustprogress uwtable
define linkonce_odr hidden noundef nonnull align 8 dereferenceable(24) ptr @_ZN4cvc58internal11Cvc5ostreamlsEPFRSoS2_E(ptr noundef nonnull align 8 dereferenceable(24) %this, ptr noundef %pf) #4 comdat align 2 {
entry:
  %this.addr = alloca ptr, align 8
  %pf.addr = alloca ptr, align 8
  store ptr %this, ptr %this.addr, align 8
  store ptr %pf, ptr %pf.addr, align 8
  %this1 = load ptr, ptr %this.addr, align 8
  %d_os = getelementptr inbounds %"class.cvc5::internal::Cvc5ostream", ptr %this1, i32 0, i32 0
  %0 = load ptr, ptr %d_os, align 8
  %cmp = icmp ne ptr %0, null
  br i1 %cmp, label %if.then, label %if.end6

if.then:                                          ; preds = %entry
  %d_os2 = getelementptr inbounds %"class.cvc5::internal::Cvc5ostream", ptr %this1, i32 0, i32 0
  %1 = load ptr, ptr %d_os2, align 8
  %2 = load ptr, ptr %pf.addr, align 8
  %call = call noundef nonnull align 8 dereferenceable(8) ptr @_ZNSolsEPFRSoS_E(ptr noundef nonnull align 8 dereferenceable(8) %1, ptr noundef %2)
  %d_os3 = getelementptr inbounds %"class.cvc5::internal::Cvc5ostream", ptr %this1, i32 0, i32 0
  store ptr %call, ptr %d_os3, align 8
  %3 = load ptr, ptr %pf.addr, align 8
  %d_endl = getelementptr inbounds %"class.cvc5::internal::Cvc5ostream", ptr %this1, i32 0, i32 2
  %4 = load ptr, ptr %d_endl, align 8
  %cmp4 = icmp eq ptr %3, %4
  br i1 %cmp4, label %if.then5, label %if.end

if.then5:                                         ; preds = %if.then
  %d_firstColumn = getelementptr inbounds %"class.cvc5::internal::Cvc5ostream", ptr %this1, i32 0, i32 1
  store i8 1, ptr %d_firstColumn, align 8
  br label %if.end

if.end:                                           ; preds = %if.then5, %if.then
  br label %if.end6

if.end6:                                          ; preds = %if.end, %entry
  ret ptr %this1
}

declare noundef nonnull align 8 dereferenceable(8) ptr @_ZSt4endlIcSt11char_traitsIcEERSt13basic_ostreamIT_T0_ES6_(ptr noundef nonnull align 8 dereferenceable(8)) #1

; Function Attrs: mustprogress nounwind uwtable
define linkonce_odr hidden noundef i32 @_ZNK4cvc58internal12NodeTemplateILb0EE7getKindEv(ptr noundef nonnull align 8 dereferenceable(8) %this) #6 comdat align 2 {
entry:
  %this.addr = alloca ptr, align 8
  store ptr %this, ptr %this.addr, align 8
  %this1 = load ptr, ptr %this.addr, align 8
  call void @_ZNK4cvc58internal12NodeTemplateILb0EE21assertTNodeNotExpiredEv(ptr noundef nonnull align 8 dereferenceable(8) %this1)
  %d_nv = getelementptr inbounds %"class.cvc5::internal::NodeTemplate.552", ptr %this1, i32 0, i32 0
  %0 = load ptr, ptr %d_nv, align 8
  %d_kind = getelementptr inbounds %"class.cvc5::internal::expr::NodeValue", ptr %0, i32 0, i32 1
  %bf.load = load i16, ptr %d_kind, align 8
  %bf.clear = and i16 %bf.load, 1023
  %bf.cast = zext i16 %bf.clear to i32
  ret i32 %bf.cast
}

; Function Attrs: mustprogress uwtable
define hidden void @_ZN4cvc58internal6theory4bags10TheoryBags20expandChooseOperatorERKNS0_12NodeTemplateILb1EEERSt6vectorINS1_11SkolemLemmaESaIS9_EE(ptr noalias sret(%"class.cvc5::internal::TrustNode") align 8 %agg.result, ptr noundef nonnull align 8 dereferenceable(2192) %this, ptr noundef nonnull align 8 dereferenceable(8) %node, ptr noundef nonnull align 8 dereferenceable(24) %lems) #4 align 2 personality ptr @__gxx_personality_v0 {
entry:
  %result.ptr = alloca ptr, align 8
  %this.addr = alloca ptr, align 8
  %node.addr = alloca ptr, align 8
  %lems.addr = alloca ptr, align 8
  %nm = alloca ptr, align 8
  %sm = alloca ptr, align 8
  %x = alloca %"class.cvc5::internal::NodeTemplate", align 8
  %agg.tmp = alloca %"class.cvc5::internal::NodeTemplate", align 8
  %exn.slot = alloca ptr, align 8
  %ehselector.slot = alloca i32, align 4
  %A = alloca %"class.cvc5::internal::NodeTemplate", align 8
  %bagType = alloca %"class.cvc5::internal::TypeNode", align 8
  %ufType = alloca %"class.cvc5::internal::TypeNode", align 8
  %ref.tmp = alloca %"class.cvc5::internal::TypeNode", align 8
  %uf = alloca %"class.cvc5::internal::NodeTemplate", align 8
  %agg.tmp11 = alloca %"class.cvc5::internal::TypeNode", align 8
  %agg.tmp14 = alloca %"class.cvc5::internal::NodeTemplate", align 8
  %ufA = alloca %"class.cvc5::internal::NodeTemplate", align 8
  %agg.tmp22 = alloca %"class.cvc5::internal::NodeTemplate.552", align 8
  %agg.tmp24 = alloca %"class.cvc5::internal::NodeTemplate.552", align 8
  %equal = alloca %"class.cvc5::internal::NodeTemplate", align 8
  %emptyBag = alloca %"class.cvc5::internal::NodeTemplate", align 8
  %ref.tmp33 = alloca %"class.cvc5::internal::EmptyBag", align 8
  %isEmpty = alloca %"class.cvc5::internal::NodeTemplate", align 8
  %count = alloca %"class.cvc5::internal::NodeTemplate", align 8
  %agg.tmp41 = alloca %"class.cvc5::internal::NodeTemplate.552", align 8
  %agg.tmp44 = alloca %"class.cvc5::internal::NodeTemplate.552", align 8
  %one = alloca %"class.cvc5::internal::NodeTemplate", align 8
  %ref.tmp51 = alloca %"class.cvc5::internal::Rational", align 8
  %geqOne = alloca %"class.cvc5::internal::NodeTemplate", align 8
  %agg.tmp57 = alloca %"class.cvc5::internal::NodeTemplate.552", align 8
  %agg.tmp60 = alloca %"class.cvc5::internal::NodeTemplate.552", align 8
  %lem = alloca %"class.cvc5::internal::NodeTemplate", align 8
  %agg.tmp67 = alloca %"class.cvc5::internal::NodeTemplate.552", align 8
  %agg.tmp70 = alloca %"class.cvc5::internal::NodeTemplate.552", align 8
  %ref.tmp71 = alloca %"class.cvc5::internal::NodeTemplate", align 8
  %agg.tmp72 = alloca %"class.cvc5::internal::NodeTemplate.552", align 8
  %agg.tmp75 = alloca %"class.cvc5::internal::NodeTemplate.552", align 8
  %tlem = alloca %"class.cvc5::internal::TrustNode", align 8
  %agg.tmp89 = alloca %"class.cvc5::internal::NodeTemplate", align 8
  %ref.tmp95 = alloca %"class.cvc5::internal::theory::SkolemLemma", align 8
  %agg.tmp96 = alloca %"class.cvc5::internal::TrustNode", align 8
  %agg.tmp99 = alloca %"class.cvc5::internal::NodeTemplate", align 8
  %ref.tmp109 = alloca %"class.cvc5::internal::__cvc5_true", align 1
  %tmp = alloca %"class.cvc5::internal::Cvc5ostream", align 8
  %agg.tmp.ensured = alloca %"class.cvc5::internal::Cvc5ostream", align 8
  %ref.tmp113 = alloca %"class.cvc5::internal::Cvc5ostream", align 8
  %agg.tmp125 = alloca %"class.cvc5::internal::NodeTemplate.552", align 8
  %agg.tmp127 = alloca %"class.cvc5::internal::NodeTemplate", align 8
  store ptr %agg.result, ptr %result.ptr, align 8
  store ptr %this, ptr %this.addr, align 8
  store ptr %node, ptr %node.addr, align 8
  store ptr %lems, ptr %lems.addr, align 8
  %call = call noundef ptr @_ZN4cvc58internal11NodeManager9currentNMEv()
  store ptr %call, ptr %nm, align 8
  %0 = load ptr, ptr %nm, align 8
  %call2 = call noundef ptr @_ZN4cvc58internal11NodeManager16getSkolemManagerEv(ptr noundef nonnull align 8 dereferenceable(3360) %0)
  store ptr %call2, ptr %sm, align 8
  %1 = load ptr, ptr %sm, align 8
  %2 = load ptr, ptr %node.addr, align 8
  call void @_ZN4cvc58internal12NodeTemplateILb1EEC2ERKS2_(ptr noundef nonnull align 8 dereferenceable(8) %agg.tmp, ptr noundef nonnull align 8 dereferenceable(8) %2)
  invoke void @_ZN4cvc58internal13SkolemManager14mkPurifySkolemENS0_12NodeTemplateILb1EEEPNS0_14ProofGeneratorE(ptr sret(%"class.cvc5::internal::NodeTemplate") align 8 %x, ptr noundef nonnull align 8 dereferenceable(152) %1, ptr noundef %agg.tmp, ptr noundef null)
          to label %invoke.cont unwind label %lpad

invoke.cont:                                      ; preds = %entry
  call void @_ZN4cvc58internal12NodeTemplateILb1EED2Ev(ptr noundef nonnull align 8 dereferenceable(8) %agg.tmp) #3
  %3 = load ptr, ptr %node.addr, align 8
  invoke void @_ZNK4cvc58internal12NodeTemplateILb1EEixEi(ptr sret(%"class.cvc5::internal::NodeTemplate") align 8 %A, ptr noundef nonnull align 8 dereferenceable(8) %3, i32 noundef 0)
          to label %invoke.cont4 unwind label %lpad3

invoke.cont4:                                     ; preds = %invoke.cont
  invoke void @_ZNK4cvc58internal12NodeTemplateILb1EE7getTypeEb(ptr sret(%"class.cvc5::internal::TypeNode") align 8 %bagType, ptr noundef nonnull align 8 dereferenceable(8) %A, i1 noundef zeroext false)
          to label %invoke.cont6 unwind label %lpad5

invoke.cont6:                                     ; preds = %invoke.cont4
  %4 = load ptr, ptr %nm, align 8
  invoke void @_ZNK4cvc58internal8TypeNode17getBagElementTypeEv(ptr sret(%"class.cvc5::internal::TypeNode") align 8 %ref.tmp, ptr noundef nonnull align 8 dereferenceable(8) %bagType)
          to label %invoke.cont8 unwind label %lpad7

invoke.cont8:                                     ; preds = %invoke.cont6
  invoke void @_ZN4cvc58internal11NodeManager14mkFunctionTypeERKNS0_8TypeNodeES4_(ptr sret(%"class.cvc5::internal::TypeNode") align 8 %ufType, ptr noundef nonnull align 8 dereferenceable(3360) %4, ptr noundef nonnull align 8 dereferenceable(8) %bagType, ptr noundef nonnull align 8 dereferenceable(8) %ref.tmp)
          to label %invoke.cont10 unwind label %lpad9

invoke.cont10:                                    ; preds = %invoke.cont8
  call void @_ZN4cvc58internal8TypeNodeD2Ev(ptr noundef nonnull align 8 dereferenceable(8) %ref.tmp) #3
  %5 = load ptr, ptr %sm, align 8
  invoke void @_ZN4cvc58internal8TypeNodeC2ERKS1_(ptr noundef nonnull align 8 dereferenceable(8) %agg.tmp11, ptr noundef nonnull align 8 dereferenceable(8) %ufType)
          to label %invoke.cont13 unwind label %lpad12

invoke.cont13:                                    ; preds = %invoke.cont10
  invoke void @_ZN4cvc58internal12NodeTemplateILb1EEC2Ev(ptr noundef nonnull align 8 dereferenceable(8) %agg.tmp14)
          to label %invoke.cont16 unwind label %lpad15

invoke.cont16:                                    ; preds = %invoke.cont13
  invoke void @_ZN4cvc58internal13SkolemManager16mkSkolemFunctionENS0_11SkolemFunIdENS0_8TypeNodeENS0_12NodeTemplateILb1EEE(ptr sret(%"class.cvc5::internal::NodeTemplate") align 8 %uf, ptr noundef nonnull align 8 dereferenceable(152) %5, i32 noundef 36, ptr noundef %agg.tmp11, ptr noundef %agg.tmp14)
          to label %invoke.cont18 unwind label %lpad17

invoke.cont18:                                    ; preds = %invoke.cont16
  call void @_ZN4cvc58internal12NodeTemplateILb1EED2Ev(ptr noundef nonnull align 8 dereferenceable(8) %agg.tmp14) #3
  call void @_ZN4cvc58internal8TypeNodeD2Ev(ptr noundef nonnull align 8 dereferenceable(8) %agg.tmp11) #3
  %call21 = invoke noundef ptr @_ZN4cvc58internal11NodeManager9currentNMEv()
          to label %invoke.cont20 unwind label %lpad19

invoke.cont20:                                    ; preds = %invoke.cont18
  invoke void @_ZN4cvc58internal12NodeTemplateILb0EEC2ERKNS1_ILb1EEE(ptr noundef nonnull align 8 dereferenceable(8) %agg.tmp22, ptr noundef nonnull align 8 dereferenceable(8) %uf)
          to label %invoke.cont23 unwind label %lpad19

invoke.cont23:                                    ; preds = %invoke.cont20
  invoke void @_ZN4cvc58internal12NodeTemplateILb0EEC2ERKNS1_ILb1EEE(ptr noundef nonnull align 8 dereferenceable(8) %agg.tmp24, ptr noundef nonnull align 8 dereferenceable(8) %A)
          to label %invoke.cont26 unwind label %lpad25

invoke.cont26:                                    ; preds = %invoke.cont23
  invoke void @_ZN4cvc58internal11NodeManager6mkNodeENS0_4kind6Kind_tENS0_12NodeTemplateILb0EEES5_(ptr sret(%"class.cvc5::internal::NodeTemplate") align 8 %ufA, ptr noundef nonnull align 8 dereferenceable(3360) %call21, i32 noundef 24, ptr noundef %agg.tmp22, ptr noundef %agg.tmp24)
          to label %invoke.cont28 unwind label %lpad27

invoke.cont28:                                    ; preds = %invoke.cont26
  call void @_ZN4cvc58internal12NodeTemplateILb0EED2Ev(ptr noundef nonnull align 8 dereferenceable(8) %agg.tmp24) #3
  call void @_ZN4cvc58internal12NodeTemplateILb0EED2Ev(ptr noundef nonnull align 8 dereferenceable(8) %agg.tmp22) #3
  invoke void @_ZNK4cvc58internal12NodeTemplateILb1EE6eqNodeILb1EEES2_RKNS1_IXT_EEE(ptr sret(%"class.cvc5::internal::NodeTemplate") align 8 %equal, ptr noundef nonnull align 8 dereferenceable(8) %x, ptr noundef nonnull align 8 dereferenceable(8) %ufA)
          to label %invoke.cont32 unwind label %lpad31

invoke.cont32:                                    ; preds = %invoke.cont28
  %6 = load ptr, ptr %nm, align 8
  invoke void @_ZN4cvc58internal8EmptyBagC1ERKNS0_8TypeNodeE(ptr noundef nonnull align 8 dereferenceable(8) %ref.tmp33, ptr noundef nonnull align 8 dereferenceable(8) %bagType)
          to label %invoke.cont35 unwind label %lpad34

invoke.cont35:                                    ; preds = %invoke.cont32
  invoke void @_ZN4cvc58internal11NodeManager7mkConstINS0_8EmptyBagEEENS0_12NodeTemplateILb1EEERKT_(ptr sret(%"class.cvc5::internal::NodeTemplate") align 8 %emptyBag, ptr noundef nonnull align 8 dereferenceable(3360) %6, ptr noundef nonnull align 8 dereferenceable(8) %ref.tmp33)
          to label %invoke.cont37 unwind label %lpad36

invoke.cont37:                                    ; preds = %invoke.cont35
  call void @_ZN4cvc58internal8EmptyBagD1Ev(ptr noundef nonnull align 8 dereferenceable(8) %ref.tmp33) #3
  invoke void @_ZNK4cvc58internal12NodeTemplateILb1EE6eqNodeILb1EEES2_RKNS1_IXT_EEE(ptr sret(%"class.cvc5::internal::NodeTemplate") align 8 %isEmpty, ptr noundef nonnull align 8 dereferenceable(8) %A, ptr noundef nonnull align 8 dereferenceable(8) %emptyBag)
          to label %invoke.cont40 unwind label %lpad39

invoke.cont40:                                    ; preds = %invoke.cont37
  %7 = load ptr, ptr %nm, align 8
  invoke void @_ZN4cvc58internal12NodeTemplateILb0EEC2ERKNS1_ILb1EEE(ptr noundef nonnull align 8 dereferenceable(8) %agg.tmp41, ptr noundef nonnull align 8 dereferenceable(8) %x)
          to label %invoke.cont43 unwind label %lpad42

invoke.cont43:                                    ; preds = %invoke.cont40
  invoke void @_ZN4cvc58internal12NodeTemplateILb0EEC2ERKNS1_ILb1EEE(ptr noundef nonnull align 8 dereferenceable(8) %agg.tmp44, ptr noundef nonnull align 8 dereferenceable(8) %A)
          to label %invoke.cont46 unwind label %lpad45

invoke.cont46:                                    ; preds = %invoke.cont43
  invoke void @_ZN4cvc58internal11NodeManager6mkNodeENS0_4kind6Kind_tENS0_12NodeTemplateILb0EEES5_(ptr sret(%"class.cvc5::internal::NodeTemplate") align 8 %count, ptr noundef nonnull align 8 dereferenceable(3360) %7, i32 noundef 281, ptr noundef %agg.tmp41, ptr noundef %agg.tmp44)
          to label %invoke.cont48 unwind label %lpad47

invoke.cont48:                                    ; preds = %invoke.cont46
  call void @_ZN4cvc58internal12NodeTemplateILb0EED2Ev(ptr noundef nonnull align 8 dereferenceable(8) %agg.tmp44) #3
  call void @_ZN4cvc58internal12NodeTemplateILb0EED2Ev(ptr noundef nonnull align 8 dereferenceable(8) %agg.tmp41) #3
  %8 = load ptr, ptr %nm, align 8
  invoke void @_ZN4cvc58internal8RationalC2Ei(ptr noundef nonnull align 8 dereferenceable(32) %ref.tmp51, i32 noundef 1)
          to label %invoke.cont53 unwind label %lpad52

invoke.cont53:                                    ; preds = %invoke.cont48
  invoke void @_ZN4cvc58internal11NodeManager10mkConstIntERKNS0_8RationalE(ptr sret(%"class.cvc5::internal::NodeTemplate") align 8 %one, ptr noundef nonnull align 8 dereferenceable(3360) %8, ptr noundef nonnull align 8 dereferenceable(32) %ref.tmp51)
          to label %invoke.cont55 unwind label %lpad54

invoke.cont55:                                    ; preds = %invoke.cont53
  call void @_ZN4cvc58internal8RationalD2Ev(ptr noundef nonnull align 8 dereferenceable(32) %ref.tmp51) #3
  %9 = load ptr, ptr %nm, align 8
  invoke void @_ZN4cvc58internal12NodeTemplateILb0EEC2ERKNS1_ILb1EEE(ptr noundef nonnull align 8 dereferenceable(8) %agg.tmp57, ptr noundef nonnull align 8 dereferenceable(8) %count)
          to label %invoke.cont59 unwind label %lpad58

invoke.cont59:                                    ; preds = %invoke.cont55
  invoke void @_ZN4cvc58internal12NodeTemplateILb0EEC2ERKNS1_ILb1EEE(ptr noundef nonnull align 8 dereferenceable(8) %agg.tmp60, ptr noundef nonnull align 8 dereferenceable(8) %one)
          to label %invoke.cont62 unwind label %lpad61

invoke.cont62:                                    ; preds = %invoke.cont59
  invoke void @_ZN4cvc58internal11NodeManager6mkNodeENS0_4kind6Kind_tENS0_12NodeTemplateILb0EEES5_(ptr sret(%"class.cvc5::internal::NodeTemplate") align 8 %geqOne, ptr noundef nonnull align 8 dereferenceable(3360) %9, i32 noundef 73, ptr noundef %agg.tmp57, ptr noundef %agg.tmp60)
          to label %invoke.cont64 unwind label %lpad63

invoke.cont64:                                    ; preds = %invoke.cont62
  call void @_ZN4cvc58internal12NodeTemplateILb0EED2Ev(ptr noundef nonnull align 8 dereferenceable(8) %agg.tmp60) #3
  call void @_ZN4cvc58internal12NodeTemplateILb0EED2Ev(ptr noundef nonnull align 8 dereferenceable(8) %agg.tmp57) #3
  %10 = load ptr, ptr %nm, align 8
  invoke void @_ZN4cvc58internal12NodeTemplateILb0EEC2ERKNS1_ILb1EEE(ptr noundef nonnull align 8 dereferenceable(8) %agg.tmp67, ptr noundef nonnull align 8 dereferenceable(8) %equal)
          to label %invoke.cont69 unwind label %lpad68

invoke.cont69:                                    ; preds = %invoke.cont64
  %11 = load ptr, ptr %nm, align 8
  invoke void @_ZN4cvc58internal12NodeTemplateILb0EEC2ERKNS1_ILb1EEE(ptr noundef nonnull align 8 dereferenceable(8) %agg.tmp72, ptr noundef nonnull align 8 dereferenceable(8) %isEmpty)
          to label %invoke.cont74 unwind label %lpad73

invoke.cont74:                                    ; preds = %invoke.cont69
  invoke void @_ZN4cvc58internal12NodeTemplateILb0EEC2ERKNS1_ILb1EEE(ptr noundef nonnull align 8 dereferenceable(8) %agg.tmp75, ptr noundef nonnull align 8 dereferenceable(8) %geqOne)
          to label %invoke.cont77 unwind label %lpad76

invoke.cont77:                                    ; preds = %invoke.cont74
  invoke void @_ZN4cvc58internal11NodeManager6mkNodeENS0_4kind6Kind_tENS0_12NodeTemplateILb0EEES5_(ptr sret(%"class.cvc5::internal::NodeTemplate") align 8 %ref.tmp71, ptr noundef nonnull align 8 dereferenceable(3360) %11, i32 noundef 21, ptr noundef %agg.tmp72, ptr noundef %agg.tmp75)
          to label %invoke.cont79 unwind label %lpad78

invoke.cont79:                                    ; preds = %invoke.cont77
  invoke void @_ZN4cvc58internal12NodeTemplateILb0EEC2ERKNS1_ILb1EEE(ptr noundef nonnull align 8 dereferenceable(8) %agg.tmp70, ptr noundef nonnull align 8 dereferenceable(8) %ref.tmp71)
          to label %invoke.cont81 unwind label %lpad80

invoke.cont81:                                    ; preds = %invoke.cont79
  invoke void @_ZN4cvc58internal11NodeManager6mkNodeENS0_4kind6Kind_tENS0_12NodeTemplateILb0EEES5_(ptr sret(%"class.cvc5::internal::NodeTemplate") align 8 %lem, ptr noundef nonnull align 8 dereferenceable(3360) %10, i32 noundef 19, ptr noundef %agg.tmp67, ptr noundef %agg.tmp70)
          to label %invoke.cont83 unwind label %lpad82

invoke.cont83:                                    ; preds = %invoke.cont81
  call void @_ZN4cvc58internal12NodeTemplateILb0EED2Ev(ptr noundef nonnull align 8 dereferenceable(8) %agg.tmp70) #3
  call void @_ZN4cvc58internal12NodeTemplateILb1EED2Ev(ptr noundef nonnull align 8 dereferenceable(8) %ref.tmp71) #3
  call void @_ZN4cvc58internal12NodeTemplateILb0EED2Ev(ptr noundef nonnull align 8 dereferenceable(8) %agg.tmp75) #3
  call void @_ZN4cvc58internal12NodeTemplateILb0EED2Ev(ptr noundef nonnull align 8 dereferenceable(8) %agg.tmp72) #3
  call void @_ZN4cvc58internal12NodeTemplateILb0EED2Ev(ptr noundef nonnull align 8 dereferenceable(8) %agg.tmp67) #3
  invoke void @_ZN4cvc58internal12NodeTemplateILb1EEC2ERKS2_(ptr noundef nonnull align 8 dereferenceable(8) %agg.tmp89, ptr noundef nonnull align 8 dereferenceable(8) %lem)
          to label %invoke.cont91 unwind label %lpad90

invoke.cont91:                                    ; preds = %invoke.cont83
  invoke void @_ZN4cvc58internal9TrustNode12mkTrustLemmaENS0_12NodeTemplateILb1EEEPNS0_14ProofGeneratorE(ptr sret(%"class.cvc5::internal::TrustNode") align 8 %tlem, ptr noundef %agg.tmp89, ptr noundef null)
          to label %invoke.cont93 unwind label %lpad92

invoke.cont93:                                    ; preds = %invoke.cont91
  call void @_ZN4cvc58internal12NodeTemplateILb1EED2Ev(ptr noundef nonnull align 8 dereferenceable(8) %agg.tmp89) #3
  %12 = load ptr, ptr %lems.addr, align 8
  invoke void @_ZN4cvc58internal9TrustNodeC2ERKS1_(ptr noundef nonnull align 8 dereferenceable(24) %agg.tmp96, ptr noundef nonnull align 8 dereferenceable(24) %tlem)
          to label %invoke.cont98 unwind label %lpad97

invoke.cont98:                                    ; preds = %invoke.cont93
  invoke void @_ZN4cvc58internal12NodeTemplateILb1EEC2ERKS2_(ptr noundef nonnull align 8 dereferenceable(8) %agg.tmp99, ptr noundef nonnull align 8 dereferenceable(8) %x)
          to label %invoke.cont101 unwind label %lpad100

invoke.cont101:                                   ; preds = %invoke.cont98
  invoke void @_ZN4cvc58internal6theory11SkolemLemmaC1ENS0_9TrustNodeENS0_12NodeTemplateILb1EEE(ptr noundef nonnull align 8 dereferenceable(32) %ref.tmp95, ptr noundef %agg.tmp96, ptr noundef %agg.tmp99)
          to label %invoke.cont103 unwind label %lpad102

invoke.cont103:                                   ; preds = %invoke.cont101
  invoke void @_ZNSt6vectorIN4cvc58internal6theory11SkolemLemmaESaIS3_EE9push_backEOS3_(ptr noundef nonnull align 8 dereferenceable(24) %12, ptr noundef nonnull align 8 dereferenceable(32) %ref.tmp95)
          to label %invoke.cont105 unwind label %lpad104

invoke.cont105:                                   ; preds = %invoke.cont103
  call void @_ZN4cvc58internal6theory11SkolemLemmaD2Ev(ptr noundef nonnull align 8 dereferenceable(32) %ref.tmp95) #3
  call void @_ZN4cvc58internal12NodeTemplateILb1EED2Ev(ptr noundef nonnull align 8 dereferenceable(8) %agg.tmp99) #3
  call void @_ZN4cvc58internal9TrustNodeD2Ev(ptr noundef nonnull align 8 dereferenceable(24) %agg.tmp96) #3
  %call111 = invoke noundef zeroext i1 @_ZN4cvc58internal11__cvc5_truecvbEv(ptr noundef nonnull align 1 dereferenceable(1) %ref.tmp109)
          to label %invoke.cont110 unwind label %lpad97

invoke.cont110:                                   ; preds = %invoke.cont105
  br i1 %call111, label %cond.true, label %cond.false

cond.true:                                        ; preds = %invoke.cont110
  invoke void @_ZNK4cvc58internal5NullCcvNS0_11Cvc5ostreamEEv(ptr sret(%"class.cvc5::internal::Cvc5ostream") align 8 %tmp, ptr noundef nonnull align 1 dereferenceable(1) @_ZN4cvc58internal10nullStreamE)
          to label %invoke.cont112 unwind label %lpad97

invoke.cont112:                                   ; preds = %cond.true
  br label %cond.end

cond.false:                                       ; preds = %invoke.cont110
  invoke void @_ZNK4cvc58internal6TraceCclEv(ptr sret(%"class.cvc5::internal::Cvc5ostream") align 8 %ref.tmp113, ptr noundef nonnull align 8 dereferenceable(32) @_ZN4cvc58internal12TraceChannelE)
          to label %invoke.cont114 unwind label %lpad97

invoke.cont114:                                   ; preds = %cond.false
  %call116 = invoke noundef nonnull align 8 dereferenceable(24) ptr @_ZN4cvc58internal11Cvc5ostreamlsIA11_cEERS1_RKT_(ptr noundef nonnull align 8 dereferenceable(24) %ref.tmp113, ptr noundef nonnull align 1 dereferenceable(11) @.str.6)
          to label %invoke.cont115 unwind label %lpad97

invoke.cont115:                                   ; preds = %invoke.cont114
  %13 = load ptr, ptr %node.addr, align 8
  %call118 = invoke noundef nonnull align 8 dereferenceable(24) ptr @_ZN4cvc58internal11Cvc5ostreamlsINS0_12NodeTemplateILb1EEEEERS1_RKT_(ptr noundef nonnull align 8 dereferenceable(24) %call116, ptr noundef nonnull align 8 dereferenceable(8) %13)
          to label %invoke.cont117 unwind label %lpad97

invoke.cont117:                                   ; preds = %invoke.cont115
  %call120 = invoke noundef nonnull align 8 dereferenceable(24) ptr @_ZN4cvc58internal11Cvc5ostreamlsIA5_cEERS1_RKT_(ptr noundef nonnull align 8 dereferenceable(24) %call118, ptr noundef nonnull align 1 dereferenceable(5) @.str.4)
          to label %invoke.cont119 unwind label %lpad97

invoke.cont119:                                   ; preds = %invoke.cont117
  %call122 = invoke noundef nonnull align 8 dereferenceable(24) ptr @_ZN4cvc58internal11Cvc5ostreamlsINS0_12NodeTemplateILb1EEEEERS1_RKT_(ptr noundef nonnull align 8 dereferenceable(24) %call120, ptr noundef nonnull align 8 dereferenceable(8) %x)
          to label %invoke.cont121 unwind label %lpad97

invoke.cont121:                                   ; preds = %invoke.cont119
  %call124 = invoke noundef nonnull align 8 dereferenceable(24) ptr @_ZN4cvc58internal11Cvc5ostreamlsEPFRSoS2_E(ptr noundef nonnull align 8 dereferenceable(24) %call122, ptr noundef @_ZSt4endlIcSt11char_traitsIcEERSt13basic_ostreamIT_T0_ES6_)
          to label %invoke.cont123 unwind label %lpad97

invoke.cont123:                                   ; preds = %invoke.cont121
  call void @llvm.memcpy.p0.p0.i64(ptr align 8 %agg.tmp.ensured, ptr align 8 %call124, i64 24, i1 false)
  br label %cond.end

cond.end:                                         ; preds = %invoke.cont123, %invoke.cont112
  %14 = load ptr, ptr %node.addr, align 8
  invoke void @_ZN4cvc58internal12NodeTemplateILb0EEC2ERKNS1_ILb1EEE(ptr noundef nonnull align 8 dereferenceable(8) %agg.tmp125, ptr noundef nonnull align 8 dereferenceable(8) %14)
          to label %invoke.cont126 unwind label %lpad97

invoke.cont126:                                   ; preds = %cond.end
  invoke void @_ZN4cvc58internal12NodeTemplateILb1EEC2ERKS2_(ptr noundef nonnull align 8 dereferenceable(8) %agg.tmp127, ptr noundef nonnull align 8 dereferenceable(8) %x)
          to label %invoke.cont129 unwind label %lpad128

invoke.cont129:                                   ; preds = %invoke.cont126
  invoke void @_ZN4cvc58internal9TrustNode14mkTrustRewriteENS0_12NodeTemplateILb0EEENS2_ILb1EEEPNS0_14ProofGeneratorE(ptr sret(%"class.cvc5::internal::TrustNode") align 8 %agg.result, ptr noundef %agg.tmp125, ptr noundef %agg.tmp127, ptr noundef null)
          to label %invoke.cont131 unwind label %lpad130

invoke.cont131:                                   ; preds = %invoke.cont129
  call void @_ZN4cvc58internal12NodeTemplateILb1EED2Ev(ptr noundef nonnull align 8 dereferenceable(8) %agg.tmp127) #3
  call void @_ZN4cvc58internal12NodeTemplateILb0EED2Ev(ptr noundef nonnull align 8 dereferenceable(8) %agg.tmp125) #3
  call void @_ZN4cvc58internal9TrustNodeD2Ev(ptr noundef nonnull align 8 dereferenceable(24) %tlem) #3
  call void @_ZN4cvc58internal12NodeTemplateILb1EED2Ev(ptr noundef nonnull align 8 dereferenceable(8) %lem) #3
  call void @_ZN4cvc58internal12NodeTemplateILb1EED2Ev(ptr noundef nonnull align 8 dereferenceable(8) %geqOne) #3
  call void @_ZN4cvc58internal12NodeTemplateILb1EED2Ev(ptr noundef nonnull align 8 dereferenceable(8) %one) #3
  call void @_ZN4cvc58internal12NodeTemplateILb1EED2Ev(ptr noundef nonnull align 8 dereferenceable(8) %count) #3
  call void @_ZN4cvc58internal12NodeTemplateILb1EED2Ev(ptr noundef nonnull align 8 dereferenceable(8) %isEmpty) #3
  call void @_ZN4cvc58internal12NodeTemplateILb1EED2Ev(ptr noundef nonnull align 8 dereferenceable(8) %emptyBag) #3
  call void @_ZN4cvc58internal12NodeTemplateILb1EED2Ev(ptr noundef nonnull align 8 dereferenceable(8) %equal) #3
  call void @_ZN4cvc58internal12NodeTemplateILb1EED2Ev(ptr noundef nonnull align 8 dereferenceable(8) %ufA) #3
  call void @_ZN4cvc58internal12NodeTemplateILb1EED2Ev(ptr noundef nonnull align 8 dereferenceable(8) %uf) #3
  call void @_ZN4cvc58internal8TypeNodeD2Ev(ptr noundef nonnull align 8 dereferenceable(8) %ufType) #3
  call void @_ZN4cvc58internal8TypeNodeD2Ev(ptr noundef nonnull align 8 dereferenceable(8) %bagType) #3
  call void @_ZN4cvc58internal12NodeTemplateILb1EED2Ev(ptr noundef nonnull align 8 dereferenceable(8) %A) #3
  call void @_ZN4cvc58internal12NodeTemplateILb1EED2Ev(ptr noundef nonnull align 8 dereferenceable(8) %x) #3
  ret void

lpad:                                             ; preds = %entry
  %15 = landingpad { ptr, i32 }
          cleanup
  %16 = extractvalue { ptr, i32 } %15, 0
  store ptr %16, ptr %exn.slot, align 8
  %17 = extractvalue { ptr, i32 } %15, 1
  store i32 %17, ptr %ehselector.slot, align 4
  call void @_ZN4cvc58internal12NodeTemplateILb1EED2Ev(ptr noundef nonnull align 8 dereferenceable(8) %agg.tmp) #3
  br label %eh.resume

lpad3:                                            ; preds = %invoke.cont
  %18 = landingpad { ptr, i32 }
          cleanup
  %19 = extractvalue { ptr, i32 } %18, 0
  store ptr %19, ptr %exn.slot, align 8
  %20 = extractvalue { ptr, i32 } %18, 1
  store i32 %20, ptr %ehselector.slot, align 4
  br label %ehcleanup147

lpad5:                                            ; preds = %invoke.cont4
  %21 = landingpad { ptr, i32 }
          cleanup
  %22 = extractvalue { ptr, i32 } %21, 0
  store ptr %22, ptr %exn.slot, align 8
  %23 = extractvalue { ptr, i32 } %21, 1
  store i32 %23, ptr %ehselector.slot, align 4
  br label %ehcleanup146

lpad7:                                            ; preds = %invoke.cont6
  %24 = landingpad { ptr, i32 }
          cleanup
  %25 = extractvalue { ptr, i32 } %24, 0
  store ptr %25, ptr %exn.slot, align 8
  %26 = extractvalue { ptr, i32 } %24, 1
  store i32 %26, ptr %ehselector.slot, align 4
  br label %ehcleanup145

lpad9:                                            ; preds = %invoke.cont8
  %27 = landingpad { ptr, i32 }
          cleanup
  %28 = extractvalue { ptr, i32 } %27, 0
  store ptr %28, ptr %exn.slot, align 8
  %29 = extractvalue { ptr, i32 } %27, 1
  store i32 %29, ptr %ehselector.slot, align 4
  call void @_ZN4cvc58internal8TypeNodeD2Ev(ptr noundef nonnull align 8 dereferenceable(8) %ref.tmp) #3
  br label %ehcleanup145

lpad12:                                           ; preds = %invoke.cont10
  %30 = landingpad { ptr, i32 }
          cleanup
  %31 = extractvalue { ptr, i32 } %30, 0
  store ptr %31, ptr %exn.slot, align 8
  %32 = extractvalue { ptr, i32 } %30, 1
  store i32 %32, ptr %ehselector.slot, align 4
  br label %ehcleanup144

lpad15:                                           ; preds = %invoke.cont13
  %33 = landingpad { ptr, i32 }
          cleanup
  %34 = extractvalue { ptr, i32 } %33, 0
  store ptr %34, ptr %exn.slot, align 8
  %35 = extractvalue { ptr, i32 } %33, 1
  store i32 %35, ptr %ehselector.slot, align 4
  br label %ehcleanup

lpad17:                                           ; preds = %invoke.cont16
  %36 = landingpad { ptr, i32 }
          cleanup
  %37 = extractvalue { ptr, i32 } %36, 0
  store ptr %37, ptr %exn.slot, align 8
  %38 = extractvalue { ptr, i32 } %36, 1
  store i32 %38, ptr %ehselector.slot, align 4
  call void @_ZN4cvc58internal12NodeTemplateILb1EED2Ev(ptr noundef nonnull align 8 dereferenceable(8) %agg.tmp14) #3
  br label %ehcleanup

ehcleanup:                                        ; preds = %lpad17, %lpad15
  call void @_ZN4cvc58internal8TypeNodeD2Ev(ptr noundef nonnull align 8 dereferenceable(8) %agg.tmp11) #3
  br label %ehcleanup144

lpad19:                                           ; preds = %invoke.cont20, %invoke.cont18
  %39 = landingpad { ptr, i32 }
          cleanup
  %40 = extractvalue { ptr, i32 } %39, 0
  store ptr %40, ptr %exn.slot, align 8
  %41 = extractvalue { ptr, i32 } %39, 1
  store i32 %41, ptr %ehselector.slot, align 4
  br label %ehcleanup143

lpad25:                                           ; preds = %invoke.cont23
  %42 = landingpad { ptr, i32 }
          cleanup
  %43 = extractvalue { ptr, i32 } %42, 0
  store ptr %43, ptr %exn.slot, align 8
  %44 = extractvalue { ptr, i32 } %42, 1
  store i32 %44, ptr %ehselector.slot, align 4
  br label %ehcleanup30

lpad27:                                           ; preds = %invoke.cont26
  %45 = landingpad { ptr, i32 }
          cleanup
  %46 = extractvalue { ptr, i32 } %45, 0
  store ptr %46, ptr %exn.slot, align 8
  %47 = extractvalue { ptr, i32 } %45, 1
  store i32 %47, ptr %ehselector.slot, align 4
  call void @_ZN4cvc58internal12NodeTemplateILb0EED2Ev(ptr noundef nonnull align 8 dereferenceable(8) %agg.tmp24) #3
  br label %ehcleanup30

ehcleanup30:                                      ; preds = %lpad27, %lpad25
  call void @_ZN4cvc58internal12NodeTemplateILb0EED2Ev(ptr noundef nonnull align 8 dereferenceable(8) %agg.tmp22) #3
  br label %ehcleanup143

lpad31:                                           ; preds = %invoke.cont28
  %48 = landingpad { ptr, i32 }
          cleanup
  %49 = extractvalue { ptr, i32 } %48, 0
  store ptr %49, ptr %exn.slot, align 8
  %50 = extractvalue { ptr, i32 } %48, 1
  store i32 %50, ptr %ehselector.slot, align 4
  br label %ehcleanup142

lpad34:                                           ; preds = %invoke.cont32
  %51 = landingpad { ptr, i32 }
          cleanup
  %52 = extractvalue { ptr, i32 } %51, 0
  store ptr %52, ptr %exn.slot, align 8
  %53 = extractvalue { ptr, i32 } %51, 1
  store i32 %53, ptr %ehselector.slot, align 4
  br label %ehcleanup141

lpad36:                                           ; preds = %invoke.cont35
  %54 = landingpad { ptr, i32 }
          cleanup
  %55 = extractvalue { ptr, i32 } %54, 0
  store ptr %55, ptr %exn.slot, align 8
  %56 = extractvalue { ptr, i32 } %54, 1
  store i32 %56, ptr %ehselector.slot, align 4
  call void @_ZN4cvc58internal8EmptyBagD1Ev(ptr noundef nonnull align 8 dereferenceable(8) %ref.tmp33) #3
  br label %ehcleanup141

lpad39:                                           ; preds = %invoke.cont37
  %57 = landingpad { ptr, i32 }
          cleanup
  %58 = extractvalue { ptr, i32 } %57, 0
  store ptr %58, ptr %exn.slot, align 8
  %59 = extractvalue { ptr, i32 } %57, 1
  store i32 %59, ptr %ehselector.slot, align 4
  br label %ehcleanup140

lpad42:                                           ; preds = %invoke.cont40
  %60 = landingpad { ptr, i32 }
          cleanup
  %61 = extractvalue { ptr, i32 } %60, 0
  store ptr %61, ptr %exn.slot, align 8
  %62 = extractvalue { ptr, i32 } %60, 1
  store i32 %62, ptr %ehselector.slot, align 4
  br label %ehcleanup139

lpad45:                                           ; preds = %invoke.cont43
  %63 = landingpad { ptr, i32 }
          cleanup
  %64 = extractvalue { ptr, i32 } %63, 0
  store ptr %64, ptr %exn.slot, align 8
  %65 = extractvalue { ptr, i32 } %63, 1
  store i32 %65, ptr %ehselector.slot, align 4
  br label %ehcleanup50

lpad47:                                           ; preds = %invoke.cont46
  %66 = landingpad { ptr, i32 }
          cleanup
  %67 = extractvalue { ptr, i32 } %66, 0
  store ptr %67, ptr %exn.slot, align 8
  %68 = extractvalue { ptr, i32 } %66, 1
  store i32 %68, ptr %ehselector.slot, align 4
  call void @_ZN4cvc58internal12NodeTemplateILb0EED2Ev(ptr noundef nonnull align 8 dereferenceable(8) %agg.tmp44) #3
  br label %ehcleanup50

ehcleanup50:                                      ; preds = %lpad47, %lpad45
  call void @_ZN4cvc58internal12NodeTemplateILb0EED2Ev(ptr noundef nonnull align 8 dereferenceable(8) %agg.tmp41) #3
  br label %ehcleanup139

lpad52:                                           ; preds = %invoke.cont48
  %69 = landingpad { ptr, i32 }
          cleanup
  %70 = extractvalue { ptr, i32 } %69, 0
  store ptr %70, ptr %exn.slot, align 8
  %71 = extractvalue { ptr, i32 } %69, 1
  store i32 %71, ptr %ehselector.slot, align 4
  br label %ehcleanup138

lpad54:                                           ; preds = %invoke.cont53
  %72 = landingpad { ptr, i32 }
          cleanup
  %73 = extractvalue { ptr, i32 } %72, 0
  store ptr %73, ptr %exn.slot, align 8
  %74 = extractvalue { ptr, i32 } %72, 1
  store i32 %74, ptr %ehselector.slot, align 4
  call void @_ZN4cvc58internal8RationalD2Ev(ptr noundef nonnull align 8 dereferenceable(32) %ref.tmp51) #3
  br label %ehcleanup138

lpad58:                                           ; preds = %invoke.cont55
  %75 = landingpad { ptr, i32 }
          cleanup
  %76 = extractvalue { ptr, i32 } %75, 0
  store ptr %76, ptr %exn.slot, align 8
  %77 = extractvalue { ptr, i32 } %75, 1
  store i32 %77, ptr %ehselector.slot, align 4
  br label %ehcleanup137

lpad61:                                           ; preds = %invoke.cont59
  %78 = landingpad { ptr, i32 }
          cleanup
  %79 = extractvalue { ptr, i32 } %78, 0
  store ptr %79, ptr %exn.slot, align 8
  %80 = extractvalue { ptr, i32 } %78, 1
  store i32 %80, ptr %ehselector.slot, align 4
  br label %ehcleanup66

lpad63:                                           ; preds = %invoke.cont62
  %81 = landingpad { ptr, i32 }
          cleanup
  %82 = extractvalue { ptr, i32 } %81, 0
  store ptr %82, ptr %exn.slot, align 8
  %83 = extractvalue { ptr, i32 } %81, 1
  store i32 %83, ptr %ehselector.slot, align 4
  call void @_ZN4cvc58internal12NodeTemplateILb0EED2Ev(ptr noundef nonnull align 8 dereferenceable(8) %agg.tmp60) #3
  br label %ehcleanup66

ehcleanup66:                                      ; preds = %lpad63, %lpad61
  call void @_ZN4cvc58internal12NodeTemplateILb0EED2Ev(ptr noundef nonnull align 8 dereferenceable(8) %agg.tmp57) #3
  br label %ehcleanup137

lpad68:                                           ; preds = %invoke.cont64
  %84 = landingpad { ptr, i32 }
          cleanup
  %85 = extractvalue { ptr, i32 } %84, 0
  store ptr %85, ptr %exn.slot, align 8
  %86 = extractvalue { ptr, i32 } %84, 1
  store i32 %86, ptr %ehselector.slot, align 4
  br label %ehcleanup136

lpad73:                                           ; preds = %invoke.cont69
  %87 = landingpad { ptr, i32 }
          cleanup
  %88 = extractvalue { ptr, i32 } %87, 0
  store ptr %88, ptr %exn.slot, align 8
  %89 = extractvalue { ptr, i32 } %87, 1
  store i32 %89, ptr %ehselector.slot, align 4
  br label %ehcleanup88

lpad76:                                           ; preds = %invoke.cont74
  %90 = landingpad { ptr, i32 }
          cleanup
  %91 = extractvalue { ptr, i32 } %90, 0
  store ptr %91, ptr %exn.slot, align 8
  %92 = extractvalue { ptr, i32 } %90, 1
  store i32 %92, ptr %ehselector.slot, align 4
  br label %ehcleanup87

lpad78:                                           ; preds = %invoke.cont77
  %93 = landingpad { ptr, i32 }
          cleanup
  %94 = extractvalue { ptr, i32 } %93, 0
  store ptr %94, ptr %exn.slot, align 8
  %95 = extractvalue { ptr, i32 } %93, 1
  store i32 %95, ptr %ehselector.slot, align 4
  br label %ehcleanup86

lpad80:                                           ; preds = %invoke.cont79
  %96 = landingpad { ptr, i32 }
          cleanup
  %97 = extractvalue { ptr, i32 } %96, 0
  store ptr %97, ptr %exn.slot, align 8
  %98 = extractvalue { ptr, i32 } %96, 1
  store i32 %98, ptr %ehselector.slot, align 4
  br label %ehcleanup85

lpad82:                                           ; preds = %invoke.cont81
  %99 = landingpad { ptr, i32 }
          cleanup
  %100 = extractvalue { ptr, i32 } %99, 0
  store ptr %100, ptr %exn.slot, align 8
  %101 = extractvalue { ptr, i32 } %99, 1
  store i32 %101, ptr %ehselector.slot, align 4
  call void @_ZN4cvc58internal12NodeTemplateILb0EED2Ev(ptr noundef nonnull align 8 dereferenceable(8) %agg.tmp70) #3
  br label %ehcleanup85

ehcleanup85:                                      ; preds = %lpad82, %lpad80
  call void @_ZN4cvc58internal12NodeTemplateILb1EED2Ev(ptr noundef nonnull align 8 dereferenceable(8) %ref.tmp71) #3
  br label %ehcleanup86

ehcleanup86:                                      ; preds = %ehcleanup85, %lpad78
  call void @_ZN4cvc58internal12NodeTemplateILb0EED2Ev(ptr noundef nonnull align 8 dereferenceable(8) %agg.tmp75) #3
  br label %ehcleanup87

ehcleanup87:                                      ; preds = %ehcleanup86, %lpad76
  call void @_ZN4cvc58internal12NodeTemplateILb0EED2Ev(ptr noundef nonnull align 8 dereferenceable(8) %agg.tmp72) #3
  br label %ehcleanup88

ehcleanup88:                                      ; preds = %ehcleanup87, %lpad73
  call void @_ZN4cvc58internal12NodeTemplateILb0EED2Ev(ptr noundef nonnull align 8 dereferenceable(8) %agg.tmp67) #3
  br label %ehcleanup136

lpad90:                                           ; preds = %invoke.cont83
  %102 = landingpad { ptr, i32 }
          cleanup
  %103 = extractvalue { ptr, i32 } %102, 0
  store ptr %103, ptr %exn.slot, align 8
  %104 = extractvalue { ptr, i32 } %102, 1
  store i32 %104, ptr %ehselector.slot, align 4
  br label %ehcleanup135

lpad92:                                           ; preds = %invoke.cont91
  %105 = landingpad { ptr, i32 }
          cleanup
  %106 = extractvalue { ptr, i32 } %105, 0
  store ptr %106, ptr %exn.slot, align 8
  %107 = extractvalue { ptr, i32 } %105, 1
  store i32 %107, ptr %ehselector.slot, align 4
  call void @_ZN4cvc58internal12NodeTemplateILb1EED2Ev(ptr noundef nonnull align 8 dereferenceable(8) %agg.tmp89) #3
  br label %ehcleanup135

lpad97:                                           ; preds = %cond.end, %invoke.cont121, %invoke.cont119, %invoke.cont117, %invoke.cont115, %invoke.cont114, %cond.false, %cond.true, %invoke.cont105, %invoke.cont93
  %108 = landingpad { ptr, i32 }
          cleanup
  %109 = extractvalue { ptr, i32 } %108, 0
  store ptr %109, ptr %exn.slot, align 8
  %110 = extractvalue { ptr, i32 } %108, 1
  store i32 %110, ptr %ehselector.slot, align 4
  br label %ehcleanup134

lpad100:                                          ; preds = %invoke.cont98
  %111 = landingpad { ptr, i32 }
          cleanup
  %112 = extractvalue { ptr, i32 } %111, 0
  store ptr %112, ptr %exn.slot, align 8
  %113 = extractvalue { ptr, i32 } %111, 1
  store i32 %113, ptr %ehselector.slot, align 4
  br label %ehcleanup108

lpad102:                                          ; preds = %invoke.cont101
  %114 = landingpad { ptr, i32 }
          cleanup
  %115 = extractvalue { ptr, i32 } %114, 0
  store ptr %115, ptr %exn.slot, align 8
  %116 = extractvalue { ptr, i32 } %114, 1
  store i32 %116, ptr %ehselector.slot, align 4
  br label %ehcleanup107

lpad104:                                          ; preds = %invoke.cont103
  %117 = landingpad { ptr, i32 }
          cleanup
  %118 = extractvalue { ptr, i32 } %117, 0
  store ptr %118, ptr %exn.slot, align 8
  %119 = extractvalue { ptr, i32 } %117, 1
  store i32 %119, ptr %ehselector.slot, align 4
  call void @_ZN4cvc58internal6theory11SkolemLemmaD2Ev(ptr noundef nonnull align 8 dereferenceable(32) %ref.tmp95) #3
  br label %ehcleanup107

ehcleanup107:                                     ; preds = %lpad104, %lpad102
  call void @_ZN4cvc58internal12NodeTemplateILb1EED2Ev(ptr noundef nonnull align 8 dereferenceable(8) %agg.tmp99) #3
  br label %ehcleanup108

ehcleanup108:                                     ; preds = %ehcleanup107, %lpad100
  call void @_ZN4cvc58internal9TrustNodeD2Ev(ptr noundef nonnull align 8 dereferenceable(24) %agg.tmp96) #3
  br label %ehcleanup134

lpad128:                                          ; preds = %invoke.cont126
  %120 = landingpad { ptr, i32 }
          cleanup
  %121 = extractvalue { ptr, i32 } %120, 0
  store ptr %121, ptr %exn.slot, align 8
  %122 = extractvalue { ptr, i32 } %120, 1
  store i32 %122, ptr %ehselector.slot, align 4
  br label %ehcleanup133

lpad130:                                          ; preds = %invoke.cont129
  %123 = landingpad { ptr, i32 }
          cleanup
  %124 = extractvalue { ptr, i32 } %123, 0
  store ptr %124, ptr %exn.slot, align 8
  %125 = extractvalue { ptr, i32 } %123, 1
  store i32 %125, ptr %ehselector.slot, align 4
  call void @_ZN4cvc58internal12NodeTemplateILb1EED2Ev(ptr noundef nonnull align 8 dereferenceable(8) %agg.tmp127) #3
  br label %ehcleanup133

ehcleanup133:                                     ; preds = %lpad130, %lpad128
  call void @_ZN4cvc58internal12NodeTemplateILb0EED2Ev(ptr noundef nonnull align 8 dereferenceable(8) %agg.tmp125) #3
  br label %ehcleanup134

ehcleanup134:                                     ; preds = %ehcleanup133, %ehcleanup108, %lpad97
  call void @_ZN4cvc58internal9TrustNodeD2Ev(ptr noundef nonnull align 8 dereferenceable(24) %tlem) #3
  br label %ehcleanup135

ehcleanup135:                                     ; preds = %ehcleanup134, %lpad92, %lpad90
  call void @_ZN4cvc58internal12NodeTemplateILb1EED2Ev(ptr noundef nonnull align 8 dereferenceable(8) %lem) #3
  br label %ehcleanup136

ehcleanup136:                                     ; preds = %ehcleanup135, %ehcleanup88, %lpad68
  call void @_ZN4cvc58internal12NodeTemplateILb1EED2Ev(ptr noundef nonnull align 8 dereferenceable(8) %geqOne) #3
  br label %ehcleanup137

ehcleanup137:                                     ; preds = %ehcleanup136, %ehcleanup66, %lpad58
  call void @_ZN4cvc58internal12NodeTemplateILb1EED2Ev(ptr noundef nonnull align 8 dereferenceable(8) %one) #3
  br label %ehcleanup138

ehcleanup138:                                     ; preds = %ehcleanup137, %lpad54, %lpad52
  call void @_ZN4cvc58internal12NodeTemplateILb1EED2Ev(ptr noundef nonnull align 8 dereferenceable(8) %count) #3
  br label %ehcleanup139

ehcleanup139:                                     ; preds = %ehcleanup138, %ehcleanup50, %lpad42
  call void @_ZN4cvc58internal12NodeTemplateILb1EED2Ev(ptr noundef nonnull align 8 dereferenceable(8) %isEmpty) #3
  br label %ehcleanup140

ehcleanup140:                                     ; preds = %ehcleanup139, %lpad39
  call void @_ZN4cvc58internal12NodeTemplateILb1EED2Ev(ptr noundef nonnull align 8 dereferenceable(8) %emptyBag) #3
  br label %ehcleanup141

ehcleanup141:                                     ; preds = %ehcleanup140, %lpad36, %lpad34
  call void @_ZN4cvc58internal12NodeTemplateILb1EED2Ev(ptr noundef nonnull align 8 dereferenceable(8) %equal) #3
  br label %ehcleanup142

ehcleanup142:                                     ; preds = %ehcleanup141, %lpad31
  call void @_ZN4cvc58internal12NodeTemplateILb1EED2Ev(ptr noundef nonnull align 8 dereferenceable(8) %ufA) #3
  br label %ehcleanup143

ehcleanup143:                                     ; preds = %ehcleanup142, %ehcleanup30, %lpad19
  call void @_ZN4cvc58internal12NodeTemplateILb1EED2Ev(ptr noundef nonnull align 8 dereferenceable(8) %uf) #3
  br label %ehcleanup144

ehcleanup144:                                     ; preds = %ehcleanup143, %ehcleanup, %lpad12
  call void @_ZN4cvc58internal8TypeNodeD2Ev(ptr noundef nonnull align 8 dereferenceable(8) %ufType) #3
  br label %ehcleanup145

ehcleanup145:                                     ; preds = %ehcleanup144, %lpad9, %lpad7
  call void @_ZN4cvc58internal8TypeNodeD2Ev(ptr noundef nonnull align 8 dereferenceable(8) %bagType) #3
  br label %ehcleanup146

ehcleanup146:                                     ; preds = %ehcleanup145, %lpad5
  call void @_ZN4cvc58internal12NodeTemplateILb1EED2Ev(ptr noundef nonnull align 8 dereferenceable(8) %A) #3
  br label %ehcleanup147

ehcleanup147:                                     ; preds = %ehcleanup146, %lpad3
  call void @_ZN4cvc58internal12NodeTemplateILb1EED2Ev(ptr noundef nonnull align 8 dereferenceable(8) %x) #3
  br label %eh.resume

eh.resume:                                        ; preds = %ehcleanup147, %lpad
  %exn = load ptr, ptr %exn.slot, align 8
  %sel = load i32, ptr %ehselector.slot, align 4
  %lpad.val = insertvalue { ptr, i32 } poison, ptr %exn, 0
  %lpad.val148 = insertvalue { ptr, i32 } %lpad.val, i32 %sel, 1
  resume { ptr, i32 } %lpad.val148
}

; Function Attrs: mustprogress uwtable
define linkonce_odr hidden void @_ZN4cvc58internal12NodeTemplateILb1EEC2ERKNS1_ILb0EEE(ptr noundef nonnull align 8 dereferenceable(8) %this, ptr noundef nonnull align 8 dereferenceable(8) %e) unnamed_addr #4 comdat align 2 {
entry:
  %this.addr = alloca ptr, align 8
  %e.addr = alloca ptr, align 8
  store ptr %this, ptr %this.addr, align 8
  store ptr %e, ptr %e.addr, align 8
  %this1 = load ptr, ptr %this.addr, align 8
  %0 = load ptr, ptr %e.addr, align 8
  %d_nv = getelementptr inbounds %"class.cvc5::internal::NodeTemplate.552", ptr %0, i32 0, i32 0
  %1 = load ptr, ptr %d_nv, align 8
  %d_nv2 = getelementptr inbounds %"class.cvc5::internal::NodeTemplate", ptr %this1, i32 0, i32 0
  store ptr %1, ptr %d_nv2, align 8
  %d_nv3 = getelementptr inbounds %"class.cvc5::internal::NodeTemplate", ptr %this1, i32 0, i32 0
  %2 = load ptr, ptr %d_nv3, align 8
  call void @_ZN4cvc58internal4expr9NodeValue3incEv(ptr noundef nonnull align 8 dereferenceable(16) %2)
  ret void
}

; Function Attrs: mustprogress nounwind uwtable
define linkonce_odr hidden void @_ZN4cvc58internal12NodeTemplateILb1EED2Ev(ptr noundef nonnull align 8 dereferenceable(8) %this) unnamed_addr #6 comdat align 2 personality ptr @__gxx_personality_v0 {
entry:
  %this.addr = alloca ptr, align 8
  store ptr %this, ptr %this.addr, align 8
  %this1 = load ptr, ptr %this.addr, align 8
  %d_nv = getelementptr inbounds %"class.cvc5::internal::NodeTemplate", ptr %this1, i32 0, i32 0
  %0 = load ptr, ptr %d_nv, align 8
  invoke void @_ZN4cvc58internal4expr9NodeValue3decEv(ptr noundef nonnull align 8 dereferenceable(16) %0)
          to label %invoke.cont unwind label %terminate.lpad

invoke.cont:                                      ; preds = %entry
  ret void

terminate.lpad:                                   ; preds = %entry
  %1 = landingpad { ptr, i32 }
          catch ptr null
  %2 = extractvalue { ptr, i32 } %1, 0
  call void @__clang_call_terminate(ptr %2) #18
  unreachable
}

; Function Attrs: mustprogress nounwind uwtable
define linkonce_odr hidden void @_ZNSt6vectorIN4cvc58internal12NodeTemplateILb1EEESaIS3_EEC2Ev(ptr noundef nonnull align 8 dereferenceable(24) %this) unnamed_addr #6 comdat align 2 {
entry:
  %this.addr = alloca ptr, align 8
  store ptr %this, ptr %this.addr, align 8
  %this1 = load ptr, ptr %this.addr, align 8
  call void @_ZNSt12_Vector_baseIN4cvc58internal12NodeTemplateILb1EEESaIS3_EEC2Ev(ptr noundef nonnull align 8 dereferenceable(24) %this1) #3
  ret void
}

declare void @_ZN4cvc58internal6theory4bags12BagReduction18reduceFoldOperatorENS0_12NodeTemplateILb1EEERSt6vectorIS5_SaIS5_EE(ptr sret(%"class.cvc5::internal::NodeTemplate") align 8, ptr noundef, ptr noundef nonnull align 8 dereferenceable(24)) #1

declare noundef ptr @_ZN4cvc58internal11NodeManager9currentNMEv() #1

; Function Attrs: mustprogress uwtable
define linkonce_odr hidden void @_ZN4cvc58internal11NodeManager6mkNodeILb1EEENS0_12NodeTemplateILb1EEENS0_4kind6Kind_tERKSt6vectorINS3_IXT_EEESaIS8_EE(ptr noalias sret(%"class.cvc5::internal::NodeTemplate") align 8 %agg.result, ptr noundef nonnull align 8 dereferenceable(3360) %this, i32 noundef %kind, ptr noundef nonnull align 8 dereferenceable(24) %children) #4 comdat align 2 personality ptr @__gxx_personality_v0 {
entry:
  %result.ptr = alloca ptr, align 8
  %this.addr = alloca ptr, align 8
  %kind.addr = alloca i32, align 4
  %children.addr = alloca ptr, align 8
  %nb = alloca %"class.cvc5::internal::NodeBuilder", align 8
  %exn.slot = alloca ptr, align 8
  %ehselector.slot = alloca i32, align 4
  store ptr %agg.result, ptr %result.ptr, align 8
  store ptr %this, ptr %this.addr, align 8
  store i32 %kind, ptr %kind.addr, align 4
  store ptr %children, ptr %children.addr, align 8
  %this1 = load ptr, ptr %this.addr, align 8
  %0 = load i32, ptr %kind.addr, align 4
  call void @_ZN4cvc58internal11NodeBuilderC1EPNS0_11NodeManagerENS0_4kind6Kind_tE(ptr noundef nonnull align 8 dereferenceable(116) %nb, ptr noundef %this1, i32 noundef %0)
  %1 = load ptr, ptr %children.addr, align 8
  %call = invoke noundef nonnull align 8 dereferenceable(116) ptr @_ZN4cvc58internal11NodeBuilder6appendILb1EEERS1_RKSt6vectorINS0_12NodeTemplateIXT_EEESaIS6_EE(ptr noundef nonnull align 8 dereferenceable(116) %nb, ptr noundef nonnull align 8 dereferenceable(24) %1)
          to label %invoke.cont unwind label %lpad

invoke.cont:                                      ; preds = %entry
  invoke void @_ZN4cvc58internal11NodeBuilder13constructNodeEv(ptr sret(%"class.cvc5::internal::NodeTemplate") align 8 %agg.result, ptr noundef nonnull align 8 dereferenceable(116) %nb)
          to label %invoke.cont2 unwind label %lpad

invoke.cont2:                                     ; preds = %invoke.cont
  call void @_ZN4cvc58internal11NodeBuilderD1Ev(ptr noundef nonnull align 8 dereferenceable(116) %nb) #3
  ret void

lpad:                                             ; preds = %invoke.cont, %entry
  %2 = landingpad { ptr, i32 }
          cleanup
  %3 = extractvalue { ptr, i32 } %2, 0
  store ptr %3, ptr %exn.slot, align 8
  %4 = extractvalue { ptr, i32 } %2, 1
  store i32 %4, ptr %ehselector.slot, align 4
  call void @_ZN4cvc58internal11NodeBuilderD1Ev(ptr noundef nonnull align 8 dereferenceable(116) %nb) #3
  br label %eh.resume

eh.resume:                                        ; preds = %lpad
  %exn = load ptr, ptr %exn.slot, align 8
  %sel = load i32, ptr %ehselector.slot, align 4
  %lpad.val = insertvalue { ptr, i32 } poison, ptr %exn, 0
  %lpad.val3 = insertvalue { ptr, i32 } %lpad.val, i32 %sel, 1
  resume { ptr, i32 } %lpad.val3
}

declare noundef zeroext i1 @_ZN4cvc58internal6theory22TheoryInferenceManager5lemmaENS0_12NodeTemplateILb0EEENS1_11InferenceIdENS1_13LemmaPropertyE(ptr noundef nonnull align 8 dereferenceable(256), ptr noundef, i32 noundef, i32 noundef) #1

; Function Attrs: mustprogress nounwind uwtable
define linkonce_odr hidden void @_ZN4cvc58internal12NodeTemplateILb0EEC2ERKNS1_ILb1EEE(ptr noundef nonnull align 8 dereferenceable(8) %this, ptr noundef nonnull align 8 dereferenceable(8) %e) unnamed_addr #6 comdat align 2 {
entry:
  %this.addr = alloca ptr, align 8
  %e.addr = alloca ptr, align 8
  store ptr %this, ptr %this.addr, align 8
  store ptr %e, ptr %e.addr, align 8
  %this1 = load ptr, ptr %this.addr, align 8
  %0 = load ptr, ptr %e.addr, align 8
  %d_nv = getelementptr inbounds %"class.cvc5::internal::NodeTemplate", ptr %0, i32 0, i32 0
  %1 = load ptr, ptr %d_nv, align 8
  %d_nv2 = getelementptr inbounds %"class.cvc5::internal::NodeTemplate.552", ptr %this1, i32 0, i32 0
  store ptr %1, ptr %d_nv2, align 8
  ret void
}

; Function Attrs: mustprogress nounwind uwtable
define linkonce_odr hidden void @_ZN4cvc58internal12NodeTemplateILb0EED2Ev(ptr noundef nonnull align 8 dereferenceable(8) %this) unnamed_addr #6 comdat align 2 {
entry:
  %this.addr = alloca ptr, align 8
  store ptr %this, ptr %this.addr, align 8
  ret void
}

; Function Attrs: mustprogress uwtable
define linkonce_odr hidden noundef nonnull align 8 dereferenceable(24) ptr @_ZN4cvc58internal11Cvc5ostreamlsIA8_cEERS1_RKT_(ptr noundef nonnull align 8 dereferenceable(24) %this, ptr noundef nonnull align 1 dereferenceable(8) %t) #4 comdat align 2 {
entry:
  %this.addr = alloca ptr, align 8
  %t.addr = alloca ptr, align 8
  %indent = alloca i64, align 8
  %i = alloca i64, align 8
  store ptr %this, ptr %this.addr, align 8
  store ptr %t, ptr %t.addr, align 8
  %this1 = load ptr, ptr %this.addr, align 8
  %d_os = getelementptr inbounds %"class.cvc5::internal::Cvc5ostream", ptr %this1, i32 0, i32 0
  %0 = load ptr, ptr %d_os, align 8
  %cmp = icmp ne ptr %0, null
  br i1 %cmp, label %if.then, label %if.end11

if.then:                                          ; preds = %entry
  %d_firstColumn = getelementptr inbounds %"class.cvc5::internal::Cvc5ostream", ptr %this1, i32 0, i32 1
  %1 = load i8, ptr %d_firstColumn, align 8
  %tobool = trunc i8 %1 to i1
  br i1 %tobool, label %if.then2, label %if.end

if.then2:                                         ; preds = %if.then
  %d_firstColumn3 = getelementptr inbounds %"class.cvc5::internal::Cvc5ostream", ptr %this1, i32 0, i32 1
  store i8 0, ptr %d_firstColumn3, align 8
  %d_os4 = getelementptr inbounds %"class.cvc5::internal::Cvc5ostream", ptr %this1, i32 0, i32 0
  %2 = load ptr, ptr %d_os4, align 8
  %vtable = load ptr, ptr %2, align 8
  %vbase.offset.ptr = getelementptr i8, ptr %vtable, i64 -24
  %vbase.offset = load i64, ptr %vbase.offset.ptr, align 8
  %add.ptr = getelementptr inbounds i8, ptr %2, i64 %vbase.offset
  %3 = load i32, ptr @_ZN4cvc58internal11Cvc5ostream16s_indentIosIndexE, align 4
  %call = call noundef nonnull align 8 dereferenceable(8) ptr @_ZNSt8ios_base5iwordEi(ptr noundef nonnull align 8 dereferenceable(216) %add.ptr, i32 noundef %3)
  %4 = load i64, ptr %call, align 8
  store i64 %4, ptr %indent, align 8
  store i64 0, ptr %i, align 8
  br label %for.cond

for.cond:                                         ; preds = %for.inc, %if.then2
  %5 = load i64, ptr %i, align 8
  %6 = load i64, ptr %indent, align 8
  %cmp5 = icmp slt i64 %5, %6
  br i1 %cmp5, label %for.body, label %for.end

for.body:                                         ; preds = %for.cond
  %d_os6 = getelementptr inbounds %"class.cvc5::internal::Cvc5ostream", ptr %this1, i32 0, i32 0
  %7 = load ptr, ptr %d_os6, align 8
  %call7 = call noundef nonnull align 8 dereferenceable(8) ptr @_ZStlsIcSt11char_traitsIcESaIcEERSt13basic_ostreamIT_T0_ES7_RKNSt7__cxx1112basic_stringIS4_S5_T1_EE(ptr noundef nonnull align 8 dereferenceable(8) %7, ptr noundef nonnull align 8 dereferenceable(32) @_ZN4cvc58internal11Cvc5ostream5s_tabB5cxx11E)
  %d_os8 = getelementptr inbounds %"class.cvc5::internal::Cvc5ostream", ptr %this1, i32 0, i32 0
  store ptr %call7, ptr %d_os8, align 8
  br label %for.inc

for.inc:                                          ; preds = %for.body
  %8 = load i64, ptr %i, align 8
  %inc = add nsw i64 %8, 1
  store i64 %inc, ptr %i, align 8
  br label %for.cond, !llvm.loop !7

for.end:                                          ; preds = %for.cond
  br label %if.end

if.end:                                           ; preds = %for.end, %if.then
  %d_os9 = getelementptr inbounds %"class.cvc5::internal::Cvc5ostream", ptr %this1, i32 0, i32 0
  %9 = load ptr, ptr %d_os9, align 8
  %10 = load ptr, ptr %t.addr, align 8
  %arraydecay = getelementptr inbounds [8 x i8], ptr %10, i64 0, i64 0
  %call10 = call noundef nonnull align 8 dereferenceable(8) ptr @_ZStlsISt11char_traitsIcEERSt13basic_ostreamIcT_ES5_PKc(ptr noundef nonnull align 8 dereferenceable(8) %9, ptr noundef %arraydecay)
  br label %if.end11

if.end11:                                         ; preds = %if.end, %entry
  ret ptr %this1
}

; Function Attrs: mustprogress uwtable
define linkonce_odr hidden noundef nonnull align 8 dereferenceable(24) ptr @_ZN4cvc58internal11Cvc5ostreamlsIA5_cEERS1_RKT_(ptr noundef nonnull align 8 dereferenceable(24) %this, ptr noundef nonnull align 1 dereferenceable(5) %t) #4 comdat align 2 {
entry:
  %this.addr = alloca ptr, align 8
  %t.addr = alloca ptr, align 8
  %indent = alloca i64, align 8
  %i = alloca i64, align 8
  store ptr %this, ptr %this.addr, align 8
  store ptr %t, ptr %t.addr, align 8
  %this1 = load ptr, ptr %this.addr, align 8
  %d_os = getelementptr inbounds %"class.cvc5::internal::Cvc5ostream", ptr %this1, i32 0, i32 0
  %0 = load ptr, ptr %d_os, align 8
  %cmp = icmp ne ptr %0, null
  br i1 %cmp, label %if.then, label %if.end11

if.then:                                          ; preds = %entry
  %d_firstColumn = getelementptr inbounds %"class.cvc5::internal::Cvc5ostream", ptr %this1, i32 0, i32 1
  %1 = load i8, ptr %d_firstColumn, align 8
  %tobool = trunc i8 %1 to i1
  br i1 %tobool, label %if.then2, label %if.end

if.then2:                                         ; preds = %if.then
  %d_firstColumn3 = getelementptr inbounds %"class.cvc5::internal::Cvc5ostream", ptr %this1, i32 0, i32 1
  store i8 0, ptr %d_firstColumn3, align 8
  %d_os4 = getelementptr inbounds %"class.cvc5::internal::Cvc5ostream", ptr %this1, i32 0, i32 0
  %2 = load ptr, ptr %d_os4, align 8
  %vtable = load ptr, ptr %2, align 8
  %vbase.offset.ptr = getelementptr i8, ptr %vtable, i64 -24
  %vbase.offset = load i64, ptr %vbase.offset.ptr, align 8
  %add.ptr = getelementptr inbounds i8, ptr %2, i64 %vbase.offset
  %3 = load i32, ptr @_ZN4cvc58internal11Cvc5ostream16s_indentIosIndexE, align 4
  %call = call noundef nonnull align 8 dereferenceable(8) ptr @_ZNSt8ios_base5iwordEi(ptr noundef nonnull align 8 dereferenceable(216) %add.ptr, i32 noundef %3)
  %4 = load i64, ptr %call, align 8
  store i64 %4, ptr %indent, align 8
  store i64 0, ptr %i, align 8
  br label %for.cond

for.cond:                                         ; preds = %for.inc, %if.then2
  %5 = load i64, ptr %i, align 8
  %6 = load i64, ptr %indent, align 8
  %cmp5 = icmp slt i64 %5, %6
  br i1 %cmp5, label %for.body, label %for.end

for.body:                                         ; preds = %for.cond
  %d_os6 = getelementptr inbounds %"class.cvc5::internal::Cvc5ostream", ptr %this1, i32 0, i32 0
  %7 = load ptr, ptr %d_os6, align 8
  %call7 = call noundef nonnull align 8 dereferenceable(8) ptr @_ZStlsIcSt11char_traitsIcESaIcEERSt13basic_ostreamIT_T0_ES7_RKNSt7__cxx1112basic_stringIS4_S5_T1_EE(ptr noundef nonnull align 8 dereferenceable(8) %7, ptr noundef nonnull align 8 dereferenceable(32) @_ZN4cvc58internal11Cvc5ostream5s_tabB5cxx11E)
  %d_os8 = getelementptr inbounds %"class.cvc5::internal::Cvc5ostream", ptr %this1, i32 0, i32 0
  store ptr %call7, ptr %d_os8, align 8
  br label %for.inc

for.inc:                                          ; preds = %for.body
  %8 = load i64, ptr %i, align 8
  %inc = add nsw i64 %8, 1
  store i64 %inc, ptr %i, align 8
  br label %for.cond, !llvm.loop !8

for.end:                                          ; preds = %for.cond
  br label %if.end

if.end:                                           ; preds = %for.end, %if.then
  %d_os9 = getelementptr inbounds %"class.cvc5::internal::Cvc5ostream", ptr %this1, i32 0, i32 0
  %9 = load ptr, ptr %d_os9, align 8
  %10 = load ptr, ptr %t.addr, align 8
  %arraydecay = getelementptr inbounds [5 x i8], ptr %10, i64 0, i64 0
  %call10 = call noundef nonnull align 8 dereferenceable(8) ptr @_ZStlsISt11char_traitsIcEERSt13basic_ostreamIcT_ES5_PKc(ptr noundef nonnull align 8 dereferenceable(8) %9, ptr noundef %arraydecay)
  br label %if.end11

if.end11:                                         ; preds = %if.end, %entry
  ret ptr %this1
}

; Function Attrs: mustprogress uwtable
define linkonce_odr hidden noundef nonnull align 8 dereferenceable(24) ptr @_ZN4cvc58internal11Cvc5ostreamlsINS0_12NodeTemplateILb1EEEEERS1_RKT_(ptr noundef nonnull align 8 dereferenceable(24) %this, ptr noundef nonnull align 8 dereferenceable(8) %t) #4 comdat align 2 personality ptr @__gxx_personality_v0 {
entry:
  %this.addr = alloca ptr, align 8
  %t.addr = alloca ptr, align 8
  %indent = alloca i64, align 8
  %i = alloca i64, align 8
  %agg.tmp = alloca %"class.cvc5::internal::NodeTemplate.552", align 8
  %exn.slot = alloca ptr, align 8
  %ehselector.slot = alloca i32, align 4
  store ptr %this, ptr %this.addr, align 8
  store ptr %t, ptr %t.addr, align 8
  %this1 = load ptr, ptr %this.addr, align 8
  %d_os = getelementptr inbounds %"class.cvc5::internal::Cvc5ostream", ptr %this1, i32 0, i32 0
  %0 = load ptr, ptr %d_os, align 8
  %cmp = icmp ne ptr %0, null
  br i1 %cmp, label %if.then, label %if.end11

if.then:                                          ; preds = %entry
  %d_firstColumn = getelementptr inbounds %"class.cvc5::internal::Cvc5ostream", ptr %this1, i32 0, i32 1
  %1 = load i8, ptr %d_firstColumn, align 8
  %tobool = trunc i8 %1 to i1
  br i1 %tobool, label %if.then2, label %if.end

if.then2:                                         ; preds = %if.then
  %d_firstColumn3 = getelementptr inbounds %"class.cvc5::internal::Cvc5ostream", ptr %this1, i32 0, i32 1
  store i8 0, ptr %d_firstColumn3, align 8
  %d_os4 = getelementptr inbounds %"class.cvc5::internal::Cvc5ostream", ptr %this1, i32 0, i32 0
  %2 = load ptr, ptr %d_os4, align 8
  %vtable = load ptr, ptr %2, align 8
  %vbase.offset.ptr = getelementptr i8, ptr %vtable, i64 -24
  %vbase.offset = load i64, ptr %vbase.offset.ptr, align 8
  %add.ptr = getelementptr inbounds i8, ptr %2, i64 %vbase.offset
  %3 = load i32, ptr @_ZN4cvc58internal11Cvc5ostream16s_indentIosIndexE, align 4
  %call = call noundef nonnull align 8 dereferenceable(8) ptr @_ZNSt8ios_base5iwordEi(ptr noundef nonnull align 8 dereferenceable(216) %add.ptr, i32 noundef %3)
  %4 = load i64, ptr %call, align 8
  store i64 %4, ptr %indent, align 8
  store i64 0, ptr %i, align 8
  br label %for.cond

for.cond:                                         ; preds = %for.inc, %if.then2
  %5 = load i64, ptr %i, align 8
  %6 = load i64, ptr %indent, align 8
  %cmp5 = icmp slt i64 %5, %6
  br i1 %cmp5, label %for.body, label %for.end

for.body:                                         ; preds = %for.cond
  %d_os6 = getelementptr inbounds %"class.cvc5::internal::Cvc5ostream", ptr %this1, i32 0, i32 0
  %7 = load ptr, ptr %d_os6, align 8
  %call7 = call noundef nonnull align 8 dereferenceable(8) ptr @_ZStlsIcSt11char_traitsIcESaIcEERSt13basic_ostreamIT_T0_ES7_RKNSt7__cxx1112basic_stringIS4_S5_T1_EE(ptr noundef nonnull align 8 dereferenceable(8) %7, ptr noundef nonnull align 8 dereferenceable(32) @_ZN4cvc58internal11Cvc5ostream5s_tabB5cxx11E)
  %d_os8 = getelementptr inbounds %"class.cvc5::internal::Cvc5ostream", ptr %this1, i32 0, i32 0
  store ptr %call7, ptr %d_os8, align 8
  br label %for.inc

for.inc:                                          ; preds = %for.body
  %8 = load i64, ptr %i, align 8
  %inc = add nsw i64 %8, 1
  store i64 %inc, ptr %i, align 8
  br label %for.cond, !llvm.loop !9

for.end:                                          ; preds = %for.cond
  br label %if.end

if.end:                                           ; preds = %for.end, %if.then
  %d_os9 = getelementptr inbounds %"class.cvc5::internal::Cvc5ostream", ptr %this1, i32 0, i32 0
  %9 = load ptr, ptr %d_os9, align 8
  %10 = load ptr, ptr %t.addr, align 8
  call void @_ZN4cvc58internal12NodeTemplateILb0EEC2ERKNS1_ILb1EEE(ptr noundef nonnull align 8 dereferenceable(8) %agg.tmp, ptr noundef nonnull align 8 dereferenceable(8) %10)
  %call10 = invoke noundef nonnull align 8 dereferenceable(8) ptr @_ZN4cvc58internallsERSoNS0_12NodeTemplateILb0EEE(ptr noundef nonnull align 8 dereferenceable(8) %9, ptr noundef %agg.tmp)
          to label %invoke.cont unwind label %lpad

invoke.cont:                                      ; preds = %if.end
  call void @_ZN4cvc58internal12NodeTemplateILb0EED2Ev(ptr noundef nonnull align 8 dereferenceable(8) %agg.tmp) #3
  br label %if.end11

lpad:                                             ; preds = %if.end
  %11 = landingpad { ptr, i32 }
          cleanup
  %12 = extractvalue { ptr, i32 } %11, 0
  store ptr %12, ptr %exn.slot, align 8
  %13 = extractvalue { ptr, i32 } %11, 1
  store i32 %13, ptr %ehselector.slot, align 4
  call void @_ZN4cvc58internal12NodeTemplateILb0EED2Ev(ptr noundef nonnull align 8 dereferenceable(8) %agg.tmp) #3
  br label %eh.resume

if.end11:                                         ; preds = %invoke.cont, %entry
  ret ptr %this1

eh.resume:                                        ; preds = %lpad
  %exn = load ptr, ptr %exn.slot, align 8
  %sel = load i32, ptr %ehselector.slot, align 4
  %lpad.val = insertvalue { ptr, i32 } poison, ptr %exn, 0
  %lpad.val12 = insertvalue { ptr, i32 } %lpad.val, i32 %sel, 1
  resume { ptr, i32 } %lpad.val12
}

; Function Attrs: mustprogress uwtable
define linkonce_odr hidden noundef nonnull align 8 dereferenceable(24) ptr @_ZN4cvc58internal11Cvc5ostreamlsIA12_cEERS1_RKT_(ptr noundef nonnull align 8 dereferenceable(24) %this, ptr noundef nonnull align 1 dereferenceable(12) %t) #4 comdat align 2 {
entry:
  %this.addr = alloca ptr, align 8
  %t.addr = alloca ptr, align 8
  %indent = alloca i64, align 8
  %i = alloca i64, align 8
  store ptr %this, ptr %this.addr, align 8
  store ptr %t, ptr %t.addr, align 8
  %this1 = load ptr, ptr %this.addr, align 8
  %d_os = getelementptr inbounds %"class.cvc5::internal::Cvc5ostream", ptr %this1, i32 0, i32 0
  %0 = load ptr, ptr %d_os, align 8
  %cmp = icmp ne ptr %0, null
  br i1 %cmp, label %if.then, label %if.end11

if.then:                                          ; preds = %entry
  %d_firstColumn = getelementptr inbounds %"class.cvc5::internal::Cvc5ostream", ptr %this1, i32 0, i32 1
  %1 = load i8, ptr %d_firstColumn, align 8
  %tobool = trunc i8 %1 to i1
  br i1 %tobool, label %if.then2, label %if.end

if.then2:                                         ; preds = %if.then
  %d_firstColumn3 = getelementptr inbounds %"class.cvc5::internal::Cvc5ostream", ptr %this1, i32 0, i32 1
  store i8 0, ptr %d_firstColumn3, align 8
  %d_os4 = getelementptr inbounds %"class.cvc5::internal::Cvc5ostream", ptr %this1, i32 0, i32 0
  %2 = load ptr, ptr %d_os4, align 8
  %vtable = load ptr, ptr %2, align 8
  %vbase.offset.ptr = getelementptr i8, ptr %vtable, i64 -24
  %vbase.offset = load i64, ptr %vbase.offset.ptr, align 8
  %add.ptr = getelementptr inbounds i8, ptr %2, i64 %vbase.offset
  %3 = load i32, ptr @_ZN4cvc58internal11Cvc5ostream16s_indentIosIndexE, align 4
  %call = call noundef nonnull align 8 dereferenceable(8) ptr @_ZNSt8ios_base5iwordEi(ptr noundef nonnull align 8 dereferenceable(216) %add.ptr, i32 noundef %3)
  %4 = load i64, ptr %call, align 8
  store i64 %4, ptr %indent, align 8
  store i64 0, ptr %i, align 8
  br label %for.cond

for.cond:                                         ; preds = %for.inc, %if.then2
  %5 = load i64, ptr %i, align 8
  %6 = load i64, ptr %indent, align 8
  %cmp5 = icmp slt i64 %5, %6
  br i1 %cmp5, label %for.body, label %for.end

for.body:                                         ; preds = %for.cond
  %d_os6 = getelementptr inbounds %"class.cvc5::internal::Cvc5ostream", ptr %this1, i32 0, i32 0
  %7 = load ptr, ptr %d_os6, align 8
  %call7 = call noundef nonnull align 8 dereferenceable(8) ptr @_ZStlsIcSt11char_traitsIcESaIcEERSt13basic_ostreamIT_T0_ES7_RKNSt7__cxx1112basic_stringIS4_S5_T1_EE(ptr noundef nonnull align 8 dereferenceable(8) %7, ptr noundef nonnull align 8 dereferenceable(32) @_ZN4cvc58internal11Cvc5ostream5s_tabB5cxx11E)
  %d_os8 = getelementptr inbounds %"class.cvc5::internal::Cvc5ostream", ptr %this1, i32 0, i32 0
  store ptr %call7, ptr %d_os8, align 8
  br label %for.inc

for.inc:                                          ; preds = %for.body
  %8 = load i64, ptr %i, align 8
  %inc = add nsw i64 %8, 1
  store i64 %inc, ptr %i, align 8
  br label %for.cond, !llvm.loop !10

for.end:                                          ; preds = %for.cond
  br label %if.end

if.end:                                           ; preds = %for.end, %if.then
  %d_os9 = getelementptr inbounds %"class.cvc5::internal::Cvc5ostream", ptr %this1, i32 0, i32 0
  %9 = load ptr, ptr %d_os9, align 8
  %10 = load ptr, ptr %t.addr, align 8
  %arraydecay = getelementptr inbounds [12 x i8], ptr %10, i64 0, i64 0
  %call10 = call noundef nonnull align 8 dereferenceable(8) ptr @_ZStlsISt11char_traitsIcEERSt13basic_ostreamIcT_ES5_PKc(ptr noundef nonnull align 8 dereferenceable(8) %9, ptr noundef %arraydecay)
  br label %if.end11

if.end11:                                         ; preds = %if.end, %entry
  ret ptr %this1
}

declare void @_ZN4cvc58internal9TrustNode14mkTrustRewriteENS0_12NodeTemplateILb0EEENS2_ILb1EEEPNS0_14ProofGeneratorE(ptr sret(%"class.cvc5::internal::TrustNode") align 8, ptr noundef, ptr noundef, ptr noundef) #1

; Function Attrs: mustprogress nounwind uwtable
define linkonce_odr hidden void @_ZN4cvc58internal12NodeTemplateILb0EEC2ERKS2_(ptr noundef nonnull align 8 dereferenceable(8) %this, ptr noundef nonnull align 8 dereferenceable(8) %e) unnamed_addr #6 comdat align 2 {
entry:
  %this.addr = alloca ptr, align 8
  %e.addr = alloca ptr, align 8
  store ptr %this, ptr %this.addr, align 8
  store ptr %e, ptr %e.addr, align 8
  %this1 = load ptr, ptr %this.addr, align 8
  %0 = load ptr, ptr %e.addr, align 8
  %d_nv = getelementptr inbounds %"class.cvc5::internal::NodeTemplate.552", ptr %0, i32 0, i32 0
  %1 = load ptr, ptr %d_nv, align 8
  %d_nv2 = getelementptr inbounds %"class.cvc5::internal::NodeTemplate.552", ptr %this1, i32 0, i32 0
  store ptr %1, ptr %d_nv2, align 8
  ret void
}

; Function Attrs: mustprogress uwtable
define linkonce_odr hidden void @_ZN4cvc58internal12NodeTemplateILb1EEC2ERKS2_(ptr noundef nonnull align 8 dereferenceable(8) %this, ptr noundef nonnull align 8 dereferenceable(8) %e) unnamed_addr #4 comdat align 2 {
entry:
  %this.addr = alloca ptr, align 8
  %e.addr = alloca ptr, align 8
  store ptr %this, ptr %this.addr, align 8
  store ptr %e, ptr %e.addr, align 8
  %this1 = load ptr, ptr %this.addr, align 8
  %0 = load ptr, ptr %e.addr, align 8
  %d_nv = getelementptr inbounds %"class.cvc5::internal::NodeTemplate", ptr %0, i32 0, i32 0
  %1 = load ptr, ptr %d_nv, align 8
  %d_nv2 = getelementptr inbounds %"class.cvc5::internal::NodeTemplate", ptr %this1, i32 0, i32 0
  store ptr %1, ptr %d_nv2, align 8
  %d_nv3 = getelementptr inbounds %"class.cvc5::internal::NodeTemplate", ptr %this1, i32 0, i32 0
  %2 = load ptr, ptr %d_nv3, align 8
  call void @_ZN4cvc58internal4expr9NodeValue3incEv(ptr noundef nonnull align 8 dereferenceable(16) %2)
  ret void
}

; Function Attrs: mustprogress nounwind uwtable
define linkonce_odr hidden void @_ZNSt6vectorIN4cvc58internal12NodeTemplateILb1EEESaIS3_EED2Ev(ptr noundef nonnull align 8 dereferenceable(24) %this) unnamed_addr #6 comdat align 2 personality ptr @__gxx_personality_v0 {
entry:
  %this.addr = alloca ptr, align 8
  store ptr %this, ptr %this.addr, align 8
  %this1 = load ptr, ptr %this.addr, align 8
  %_M_impl = getelementptr inbounds %"struct.std::_Vector_base.458", ptr %this1, i32 0, i32 0
  %_M_start = getelementptr inbounds %"struct.std::_Vector_base<cvc5::internal::NodeTemplate<true>, std::allocator<cvc5::internal::NodeTemplate<true>>>::_Vector_impl_data", ptr %_M_impl, i32 0, i32 0
  %0 = load ptr, ptr %_M_start, align 8
  %_M_impl2 = getelementptr inbounds %"struct.std::_Vector_base.458", ptr %this1, i32 0, i32 0
  %_M_finish = getelementptr inbounds %"struct.std::_Vector_base<cvc5::internal::NodeTemplate<true>, std::allocator<cvc5::internal::NodeTemplate<true>>>::_Vector_impl_data", ptr %_M_impl2, i32 0, i32 1
  %1 = load ptr, ptr %_M_finish, align 8
  %call = call noundef nonnull align 1 dereferenceable(1) ptr @_ZNSt12_Vector_baseIN4cvc58internal12NodeTemplateILb1EEESaIS3_EE19_M_get_Tp_allocatorEv(ptr noundef nonnull align 8 dereferenceable(24) %this1) #3
  invoke void @_ZSt8_DestroyIPN4cvc58internal12NodeTemplateILb1EEES3_EvT_S5_RSaIT0_E(ptr noundef %0, ptr noundef %1, ptr noundef nonnull align 1 dereferenceable(1) %call)
          to label %invoke.cont unwind label %terminate.lpad

invoke.cont:                                      ; preds = %entry
  call void @_ZNSt12_Vector_baseIN4cvc58internal12NodeTemplateILb1EEESaIS3_EED2Ev(ptr noundef nonnull align 8 dereferenceable(24) %this1) #3
  ret void

terminate.lpad:                                   ; preds = %entry
  %2 = landingpad { ptr, i32 }
          catch ptr null
  %3 = extractvalue { ptr, i32 } %2, 0
  call void @__clang_call_terminate(ptr %3) #18
  unreachable
}

declare void @_ZN4cvc58internal6theory4bags12BagReduction23reduceAggregateOperatorENS0_12NodeTemplateILb1EEE(ptr sret(%"class.cvc5::internal::NodeTemplate") align 8, ptr noundef) #1

declare void @_ZN4cvc58internal6theory4bags12BagReduction21reduceProjectOperatorENS0_12NodeTemplateILb1EEE(ptr sret(%"class.cvc5::internal::NodeTemplate") align 8, ptr noundef) #1

declare void @_ZN4cvc58internal9TrustNode4nullEv(ptr sret(%"class.cvc5::internal::TrustNode") align 8) #1

; Function Attrs: mustprogress nounwind uwtable
define linkonce_odr hidden noundef ptr @_ZN4cvc58internal11NodeManager16getSkolemManagerEv(ptr noundef nonnull align 8 dereferenceable(3360) %this) #6 comdat align 2 {
entry:
  %this.addr = alloca ptr, align 8
  store ptr %this, ptr %this.addr, align 8
  %this1 = load ptr, ptr %this.addr, align 8
  %d_skManager = getelementptr inbounds %"class.cvc5::internal::NodeManager", ptr %this1, i32 0, i32 0
  %call = call noundef ptr @_ZNKSt10unique_ptrIN4cvc58internal13SkolemManagerESt14default_deleteIS2_EE3getEv(ptr noundef nonnull align 8 dereferenceable(8) %d_skManager) #3
  ret ptr %call
}

declare void @_ZN4cvc58internal13SkolemManager14mkPurifySkolemENS0_12NodeTemplateILb1EEEPNS0_14ProofGeneratorE(ptr sret(%"class.cvc5::internal::NodeTemplate") align 8, ptr noundef nonnull align 8 dereferenceable(152), ptr noundef, ptr noundef) #1

; Function Attrs: mustprogress uwtable
define linkonce_odr hidden void @_ZNK4cvc58internal12NodeTemplateILb1EEixEi(ptr noalias sret(%"class.cvc5::internal::NodeTemplate") align 8 %agg.result, ptr noundef nonnull align 8 dereferenceable(8) %this, i32 noundef %i) #4 comdat align 2 {
entry:
  %result.ptr = alloca ptr, align 8
  %this.addr = alloca ptr, align 8
  %i.addr = alloca i32, align 4
  store ptr %agg.result, ptr %result.ptr, align 8
  store ptr %this, ptr %this.addr, align 8
  store i32 %i, ptr %i.addr, align 4
  %this1 = load ptr, ptr %this.addr, align 8
  call void @_ZNK4cvc58internal12NodeTemplateILb1EE21assertTNodeNotExpiredEv(ptr noundef nonnull align 8 dereferenceable(8) %this1)
  %d_nv = getelementptr inbounds %"class.cvc5::internal::NodeTemplate", ptr %this1, i32 0, i32 0
  %0 = load ptr, ptr %d_nv, align 8
  %1 = load i32, ptr %i.addr, align 4
  %call = call noundef ptr @_ZNK4cvc58internal4expr9NodeValue8getChildEi(ptr noundef nonnull align 8 dereferenceable(16) %0, i32 noundef %1)
  call void @_ZN4cvc58internal12NodeTemplateILb1EEC2EPKNS0_4expr9NodeValueE(ptr noundef nonnull align 8 dereferenceable(8) %agg.result, ptr noundef %call)
  ret void
}

; Function Attrs: mustprogress uwtable
define linkonce_odr hidden void @_ZNK4cvc58internal12NodeTemplateILb1EE7getTypeEb(ptr noalias sret(%"class.cvc5::internal::TypeNode") align 8 %agg.result, ptr noundef nonnull align 8 dereferenceable(8) %this, i1 noundef zeroext %check) #4 comdat align 2 personality ptr @__gxx_personality_v0 {
entry:
  %result.ptr = alloca ptr, align 8
  %this.addr = alloca ptr, align 8
  %check.addr = alloca i8, align 1
  %nrvo = alloca i1, align 1
  %agg.tmp = alloca %"class.cvc5::internal::NodeTemplate.552", align 8
  %exn.slot = alloca ptr, align 8
  %ehselector.slot = alloca i32, align 4
  %errOutTmp = alloca %"class.std::__cxx11::basic_stringstream", align 8
  %ref.tmp = alloca %"class.cvc5::internal::TypeNode", align 8
  %agg.tmp9 = alloca %"class.cvc5::internal::NodeTemplate.552", align 8
  %agg.tmp17 = alloca %"class.cvc5::internal::NodeTemplate.552", align 8
  %agg.tmp20 = alloca %"class.std::__cxx11::basic_string", align 8
  %cleanup.isactive = alloca i1, align 1
  store ptr %agg.result, ptr %result.ptr, align 8
  store ptr %this, ptr %this.addr, align 8
  %frombool = zext i1 %check to i8
  store i8 %frombool, ptr %check.addr, align 1
  %this1 = load ptr, ptr %this.addr, align 8
  call void @_ZNK4cvc58internal12NodeTemplateILb1EE21assertTNodeNotExpiredEv(ptr noundef nonnull align 8 dereferenceable(8) %this1)
  store i1 false, ptr %nrvo, align 1
  %call = call noundef ptr @_ZN4cvc58internal11NodeManager9currentNMEv()
  call void @_ZN4cvc58internal12NodeTemplateILb0EEC2ERKNS1_ILb1EEE(ptr noundef nonnull align 8 dereferenceable(8) %agg.tmp, ptr noundef nonnull align 8 dereferenceable(8) %this1)
  %0 = load i8, ptr %check.addr, align 1
  %tobool = trunc i8 %0 to i1
  invoke void @_ZN4cvc58internal11NodeManager7getTypeENS0_12NodeTemplateILb0EEEbPSo(ptr sret(%"class.cvc5::internal::TypeNode") align 8 %agg.result, ptr noundef nonnull align 8 dereferenceable(3360) %call, ptr noundef %agg.tmp, i1 noundef zeroext %tobool, ptr noundef null)
          to label %invoke.cont unwind label %lpad

invoke.cont:                                      ; preds = %entry
  call void @_ZN4cvc58internal12NodeTemplateILb0EED2Ev(ptr noundef nonnull align 8 dereferenceable(8) %agg.tmp) #3
  %call4 = invoke noundef zeroext i1 @_ZNK4cvc58internal8TypeNode6isNullEv(ptr noundef nonnull align 8 dereferenceable(8) %agg.result)
          to label %invoke.cont3 unwind label %lpad2

invoke.cont3:                                     ; preds = %invoke.cont
  br i1 %call4, label %if.then, label %if.end

if.then:                                          ; preds = %invoke.cont3
  invoke void @_ZNSt7__cxx1118basic_stringstreamIcSt11char_traitsIcESaIcEEC1Ev(ptr noundef nonnull align 8 dereferenceable(128) %errOutTmp)
          to label %invoke.cont5 unwind label %lpad2

invoke.cont5:                                     ; preds = %if.then
  %call8 = invoke noundef ptr @_ZN4cvc58internal11NodeManager9currentNMEv()
          to label %invoke.cont7 unwind label %lpad6

invoke.cont7:                                     ; preds = %invoke.cont5
  invoke void @_ZN4cvc58internal12NodeTemplateILb0EEC2ERKNS1_ILb1EEE(ptr noundef nonnull align 8 dereferenceable(8) %agg.tmp9, ptr noundef nonnull align 8 dereferenceable(8) %this1)
          to label %invoke.cont10 unwind label %lpad6

invoke.cont10:                                    ; preds = %invoke.cont7
  %1 = load i8, ptr %check.addr, align 1
  %tobool11 = trunc i8 %1 to i1
  %2 = icmp eq ptr %errOutTmp, null
  br i1 %2, label %cast.end, label %cast.notnull

cast.notnull:                                     ; preds = %invoke.cont10
  %add.ptr = getelementptr inbounds i8, ptr %errOutTmp, i64 16
  br label %cast.end

cast.end:                                         ; preds = %cast.notnull, %invoke.cont10
  %cast.result = phi ptr [ %add.ptr, %cast.notnull ], [ null, %invoke.cont10 ]
  invoke void @_ZN4cvc58internal11NodeManager7getTypeENS0_12NodeTemplateILb0EEEbPSo(ptr sret(%"class.cvc5::internal::TypeNode") align 8 %ref.tmp, ptr noundef nonnull align 8 dereferenceable(3360) %call8, ptr noundef %agg.tmp9, i1 noundef zeroext %tobool11, ptr noundef %cast.result)
          to label %invoke.cont13 unwind label %lpad12

invoke.cont13:                                    ; preds = %cast.end
  %call16 = invoke noundef nonnull align 8 dereferenceable(8) ptr @_ZN4cvc58internal8TypeNodeaSERKS1_(ptr noundef nonnull align 8 dereferenceable(8) %agg.result, ptr noundef nonnull align 8 dereferenceable(8) %ref.tmp)
          to label %invoke.cont15 unwind label %lpad14

invoke.cont15:                                    ; preds = %invoke.cont13
  call void @_ZN4cvc58internal8TypeNodeD2Ev(ptr noundef nonnull align 8 dereferenceable(8) %ref.tmp) #3
  call void @_ZN4cvc58internal12NodeTemplateILb0EED2Ev(ptr noundef nonnull align 8 dereferenceable(8) %agg.tmp9) #3
  store i1 true, ptr %cleanup.isactive, align 1
  %exception = call ptr @__cxa_allocate_exception(i64 48) #3
  invoke void @_ZN4cvc58internal12NodeTemplateILb0EEC2ERKNS1_ILb1EEE(ptr noundef nonnull align 8 dereferenceable(8) %agg.tmp17, ptr noundef nonnull align 8 dereferenceable(8) %this1)
          to label %invoke.cont19 unwind label %lpad18

invoke.cont19:                                    ; preds = %invoke.cont15
  invoke void @_ZNKSt7__cxx1118basic_stringstreamIcSt11char_traitsIcESaIcEE3strEv(ptr sret(%"class.std::__cxx11::basic_string") align 8 %agg.tmp20, ptr noundef nonnull align 8 dereferenceable(128) %errOutTmp)
          to label %invoke.cont22 unwind label %lpad21

invoke.cont22:                                    ; preds = %invoke.cont19
  invoke void @_ZN4cvc58internal28TypeCheckingExceptionPrivateC1ENS0_12NodeTemplateILb0EEENSt7__cxx1112basic_stringIcSt11char_traitsIcESaIcEEE(ptr noundef nonnull align 8 dereferenceable(48) %exception, ptr noundef %agg.tmp17, ptr noundef %agg.tmp20)
          to label %invoke.cont24 unwind label %lpad23

invoke.cont24:                                    ; preds = %invoke.cont22
  store i1 false, ptr %cleanup.isactive, align 1
  invoke void @__cxa_throw(ptr %exception, ptr @_ZTIN4cvc58internal28TypeCheckingExceptionPrivateE, ptr @_ZN4cvc58internal28TypeCheckingExceptionPrivateD1Ev) #16
          to label %unreachable unwind label %lpad23

lpad:                                             ; preds = %entry
  %3 = landingpad { ptr, i32 }
          cleanup
  %4 = extractvalue { ptr, i32 } %3, 0
  store ptr %4, ptr %exn.slot, align 8
  %5 = extractvalue { ptr, i32 } %3, 1
  store i32 %5, ptr %ehselector.slot, align 4
  call void @_ZN4cvc58internal12NodeTemplateILb0EED2Ev(ptr noundef nonnull align 8 dereferenceable(8) %agg.tmp) #3
  br label %eh.resume

lpad2:                                            ; preds = %if.then, %invoke.cont
  %6 = landingpad { ptr, i32 }
          cleanup
  %7 = extractvalue { ptr, i32 } %6, 0
  store ptr %7, ptr %exn.slot, align 8
  %8 = extractvalue { ptr, i32 } %6, 1
  store i32 %8, ptr %ehselector.slot, align 4
  br label %ehcleanup29

lpad6:                                            ; preds = %invoke.cont7, %invoke.cont5
  %9 = landingpad { ptr, i32 }
          cleanup
  %10 = extractvalue { ptr, i32 } %9, 0
  store ptr %10, ptr %exn.slot, align 8
  %11 = extractvalue { ptr, i32 } %9, 1
  store i32 %11, ptr %ehselector.slot, align 4
  br label %ehcleanup28

lpad12:                                           ; preds = %cast.end
  %12 = landingpad { ptr, i32 }
          cleanup
  %13 = extractvalue { ptr, i32 } %12, 0
  store ptr %13, ptr %exn.slot, align 8
  %14 = extractvalue { ptr, i32 } %12, 1
  store i32 %14, ptr %ehselector.slot, align 4
  br label %ehcleanup

lpad14:                                           ; preds = %invoke.cont13
  %15 = landingpad { ptr, i32 }
          cleanup
  %16 = extractvalue { ptr, i32 } %15, 0
  store ptr %16, ptr %exn.slot, align 8
  %17 = extractvalue { ptr, i32 } %15, 1
  store i32 %17, ptr %ehselector.slot, align 4
  call void @_ZN4cvc58internal8TypeNodeD2Ev(ptr noundef nonnull align 8 dereferenceable(8) %ref.tmp) #3
  br label %ehcleanup

ehcleanup:                                        ; preds = %lpad14, %lpad12
  call void @_ZN4cvc58internal12NodeTemplateILb0EED2Ev(ptr noundef nonnull align 8 dereferenceable(8) %agg.tmp9) #3
  br label %ehcleanup28

lpad18:                                           ; preds = %invoke.cont15
  %18 = landingpad { ptr, i32 }
          cleanup
  %19 = extractvalue { ptr, i32 } %18, 0
  store ptr %19, ptr %exn.slot, align 8
  %20 = extractvalue { ptr, i32 } %18, 1
  store i32 %20, ptr %ehselector.slot, align 4
  br label %ehcleanup27

lpad21:                                           ; preds = %invoke.cont19
  %21 = landingpad { ptr, i32 }
          cleanup
  %22 = extractvalue { ptr, i32 } %21, 0
  store ptr %22, ptr %exn.slot, align 8
  %23 = extractvalue { ptr, i32 } %21, 1
  store i32 %23, ptr %ehselector.slot, align 4
  br label %ehcleanup26

lpad23:                                           ; preds = %invoke.cont24, %invoke.cont22
  %24 = landingpad { ptr, i32 }
          cleanup
  %25 = extractvalue { ptr, i32 } %24, 0
  store ptr %25, ptr %exn.slot, align 8
  %26 = extractvalue { ptr, i32 } %24, 1
  store i32 %26, ptr %ehselector.slot, align 4
  call void @_ZNSt7__cxx1112basic_stringIcSt11char_traitsIcESaIcEED1Ev(ptr noundef nonnull align 8 dereferenceable(32) %agg.tmp20) #3
  br label %ehcleanup26

ehcleanup26:                                      ; preds = %lpad23, %lpad21
  call void @_ZN4cvc58internal12NodeTemplateILb0EED2Ev(ptr noundef nonnull align 8 dereferenceable(8) %agg.tmp17) #3
  br label %ehcleanup27

ehcleanup27:                                      ; preds = %ehcleanup26, %lpad18
  %cleanup.is_active = load i1, ptr %cleanup.isactive, align 1
  br i1 %cleanup.is_active, label %cleanup.action, label %cleanup.done

cleanup.action:                                   ; preds = %ehcleanup27
  call void @__cxa_free_exception(ptr %exception) #3
  br label %cleanup.done

cleanup.done:                                     ; preds = %cleanup.action, %ehcleanup27
  br label %ehcleanup28

ehcleanup28:                                      ; preds = %cleanup.done, %ehcleanup, %lpad6
  call void @_ZNSt7__cxx1118basic_stringstreamIcSt11char_traitsIcESaIcEED1Ev(ptr noundef nonnull align 8 dereferenceable(128) %errOutTmp) #3
  br label %ehcleanup29

if.end:                                           ; preds = %invoke.cont3
  store i1 true, ptr %nrvo, align 1
  %nrvo.val = load i1, ptr %nrvo, align 1
  br i1 %nrvo.val, label %nrvo.skipdtor, label %nrvo.unused

nrvo.unused:                                      ; preds = %if.end
  call void @_ZN4cvc58internal8TypeNodeD2Ev(ptr noundef nonnull align 8 dereferenceable(8) %agg.result) #3
  br label %nrvo.skipdtor

nrvo.skipdtor:                                    ; preds = %nrvo.unused, %if.end
  ret void

ehcleanup29:                                      ; preds = %ehcleanup28, %lpad2
  call void @_ZN4cvc58internal8TypeNodeD2Ev(ptr noundef nonnull align 8 dereferenceable(8) %agg.result) #3
  br label %eh.resume

eh.resume:                                        ; preds = %ehcleanup29, %lpad
  %exn = load ptr, ptr %exn.slot, align 8
  %sel = load i32, ptr %ehselector.slot, align 4
  %lpad.val = insertvalue { ptr, i32 } poison, ptr %exn, 0
  %lpad.val30 = insertvalue { ptr, i32 } %lpad.val, i32 %sel, 1
  resume { ptr, i32 } %lpad.val30

unreachable:                                      ; preds = %invoke.cont24
  unreachable
}

declare void @_ZN4cvc58internal11NodeManager14mkFunctionTypeERKNS0_8TypeNodeES4_(ptr sret(%"class.cvc5::internal::TypeNode") align 8, ptr noundef nonnull align 8 dereferenceable(3360), ptr noundef nonnull align 8 dereferenceable(8), ptr noundef nonnull align 8 dereferenceable(8)) #1

declare void @_ZNK4cvc58internal8TypeNode17getBagElementTypeEv(ptr sret(%"class.cvc5::internal::TypeNode") align 8, ptr noundef nonnull align 8 dereferenceable(8)) #1

; Function Attrs: mustprogress nounwind uwtable
define linkonce_odr hidden void @_ZN4cvc58internal8TypeNodeD2Ev(ptr noundef nonnull align 8 dereferenceable(8) %this) unnamed_addr #6 comdat align 2 personality ptr @__gxx_personality_v0 {
entry:
  %this.addr = alloca ptr, align 8
  store ptr %this, ptr %this.addr, align 8
  %this1 = load ptr, ptr %this.addr, align 8
  %d_nv = getelementptr inbounds %"class.cvc5::internal::TypeNode", ptr %this1, i32 0, i32 0
  %0 = load ptr, ptr %d_nv, align 8
  invoke void @_ZN4cvc58internal4expr9NodeValue3decEv(ptr noundef nonnull align 8 dereferenceable(16) %0)
          to label %invoke.cont unwind label %terminate.lpad

invoke.cont:                                      ; preds = %entry
  ret void

terminate.lpad:                                   ; preds = %entry
  %1 = landingpad { ptr, i32 }
          catch ptr null
  %2 = extractvalue { ptr, i32 } %1, 0
  call void @__clang_call_terminate(ptr %2) #18
  unreachable
}

declare void @_ZN4cvc58internal13SkolemManager16mkSkolemFunctionENS0_11SkolemFunIdENS0_8TypeNodeENS0_12NodeTemplateILb1EEE(ptr sret(%"class.cvc5::internal::NodeTemplate") align 8, ptr noundef nonnull align 8 dereferenceable(152), i32 noundef, ptr noundef, ptr noundef) #1

; Function Attrs: mustprogress uwtable
define linkonce_odr hidden void @_ZN4cvc58internal8TypeNodeC2ERKS1_(ptr noundef nonnull align 8 dereferenceable(8) %this, ptr noundef nonnull align 8 dereferenceable(8) %typeNode) unnamed_addr #4 comdat align 2 {
entry:
  %this.addr = alloca ptr, align 8
  %typeNode.addr = alloca ptr, align 8
  store ptr %this, ptr %this.addr, align 8
  store ptr %typeNode, ptr %typeNode.addr, align 8
  %this1 = load ptr, ptr %this.addr, align 8
  %0 = load ptr, ptr %typeNode.addr, align 8
  %d_nv = getelementptr inbounds %"class.cvc5::internal::TypeNode", ptr %0, i32 0, i32 0
  %1 = load ptr, ptr %d_nv, align 8
  %d_nv2 = getelementptr inbounds %"class.cvc5::internal::TypeNode", ptr %this1, i32 0, i32 0
  store ptr %1, ptr %d_nv2, align 8
  %d_nv3 = getelementptr inbounds %"class.cvc5::internal::TypeNode", ptr %this1, i32 0, i32 0
  %2 = load ptr, ptr %d_nv3, align 8
  call void @_ZN4cvc58internal4expr9NodeValue3incEv(ptr noundef nonnull align 8 dereferenceable(16) %2)
  ret void
}

; Function Attrs: mustprogress uwtable
define linkonce_odr hidden void @_ZN4cvc58internal12NodeTemplateILb1EEC2Ev(ptr noundef nonnull align 8 dereferenceable(8) %this) unnamed_addr #4 comdat align 2 {
entry:
  %this.addr = alloca ptr, align 8
  store ptr %this, ptr %this.addr, align 8
  %this1 = load ptr, ptr %this.addr, align 8
  %d_nv = getelementptr inbounds %"class.cvc5::internal::NodeTemplate", ptr %this1, i32 0, i32 0
  %call = call noundef nonnull align 8 dereferenceable(16) ptr @_ZN4cvc58internal4expr9NodeValue4nullEv()
  store ptr %call, ptr %d_nv, align 8
  ret void
}

; Function Attrs: mustprogress uwtable
define linkonce_odr hidden void @_ZN4cvc58internal11NodeManager6mkNodeENS0_4kind6Kind_tENS0_12NodeTemplateILb0EEES5_(ptr noalias sret(%"class.cvc5::internal::NodeTemplate") align 8 %agg.result, ptr noundef nonnull align 8 dereferenceable(3360) %this, i32 noundef %kind, ptr noundef %child1, ptr noundef %child2) #4 comdat align 2 personality ptr @__gxx_personality_v0 {
entry:
  %result.ptr = alloca ptr, align 8
  %this.addr = alloca ptr, align 8
  %kind.addr = alloca i32, align 4
  %child1.indirect_addr = alloca ptr, align 8
  %child2.indirect_addr = alloca ptr, align 8
  %nb = alloca %"class.cvc5::internal::NodeBuilder", align 8
  %agg.tmp = alloca %"class.cvc5::internal::NodeTemplate.552", align 8
  %exn.slot = alloca ptr, align 8
  %ehselector.slot = alloca i32, align 4
  %agg.tmp4 = alloca %"class.cvc5::internal::NodeTemplate.552", align 8
  store ptr %agg.result, ptr %result.ptr, align 8
  store ptr %this, ptr %this.addr, align 8
  store i32 %kind, ptr %kind.addr, align 4
  store ptr %child1, ptr %child1.indirect_addr, align 8
  store ptr %child2, ptr %child2.indirect_addr, align 8
  %this1 = load ptr, ptr %this.addr, align 8
  %0 = load i32, ptr %kind.addr, align 4
  call void @_ZN4cvc58internal11NodeBuilderC1EPNS0_11NodeManagerENS0_4kind6Kind_tE(ptr noundef nonnull align 8 dereferenceable(116) %nb, ptr noundef %this1, i32 noundef %0)
  invoke void @_ZN4cvc58internal12NodeTemplateILb0EEC2ERKS2_(ptr noundef nonnull align 8 dereferenceable(8) %agg.tmp, ptr noundef nonnull align 8 dereferenceable(8) %child1)
          to label %invoke.cont unwind label %lpad

invoke.cont:                                      ; preds = %entry
  %call = invoke noundef nonnull align 8 dereferenceable(116) ptr @_ZN4cvc58internal11NodeBuilderlsENS0_12NodeTemplateILb0EEE(ptr noundef nonnull align 8 dereferenceable(116) %nb, ptr noundef %agg.tmp)
          to label %invoke.cont3 unwind label %lpad2

invoke.cont3:                                     ; preds = %invoke.cont
  invoke void @_ZN4cvc58internal12NodeTemplateILb0EEC2ERKS2_(ptr noundef nonnull align 8 dereferenceable(8) %agg.tmp4, ptr noundef nonnull align 8 dereferenceable(8) %child2)
          to label %invoke.cont5 unwind label %lpad2

invoke.cont5:                                     ; preds = %invoke.cont3
  %call8 = invoke noundef nonnull align 8 dereferenceable(116) ptr @_ZN4cvc58internal11NodeBuilderlsENS0_12NodeTemplateILb0EEE(ptr noundef nonnull align 8 dereferenceable(116) %call, ptr noundef %agg.tmp4)
          to label %invoke.cont7 unwind label %lpad6

invoke.cont7:                                     ; preds = %invoke.cont5
  call void @_ZN4cvc58internal12NodeTemplateILb0EED2Ev(ptr noundef nonnull align 8 dereferenceable(8) %agg.tmp4) #3
  call void @_ZN4cvc58internal12NodeTemplateILb0EED2Ev(ptr noundef nonnull align 8 dereferenceable(8) %agg.tmp) #3
  invoke void @_ZN4cvc58internal11NodeBuilder13constructNodeEv(ptr sret(%"class.cvc5::internal::NodeTemplate") align 8 %agg.result, ptr noundef nonnull align 8 dereferenceable(116) %nb)
          to label %invoke.cont9 unwind label %lpad

invoke.cont9:                                     ; preds = %invoke.cont7
  call void @_ZN4cvc58internal11NodeBuilderD1Ev(ptr noundef nonnull align 8 dereferenceable(116) %nb) #3
  ret void

lpad:                                             ; preds = %invoke.cont7, %entry
  %1 = landingpad { ptr, i32 }
          cleanup
  %2 = extractvalue { ptr, i32 } %1, 0
  store ptr %2, ptr %exn.slot, align 8
  %3 = extractvalue { ptr, i32 } %1, 1
  store i32 %3, ptr %ehselector.slot, align 4
  br label %ehcleanup10

lpad2:                                            ; preds = %invoke.cont3, %invoke.cont
  %4 = landingpad { ptr, i32 }
          cleanup
  %5 = extractvalue { ptr, i32 } %4, 0
  store ptr %5, ptr %exn.slot, align 8
  %6 = extractvalue { ptr, i32 } %4, 1
  store i32 %6, ptr %ehselector.slot, align 4
  br label %ehcleanup

lpad6:                                            ; preds = %invoke.cont5
  %7 = landingpad { ptr, i32 }
          cleanup
  %8 = extractvalue { ptr, i32 } %7, 0
  store ptr %8, ptr %exn.slot, align 8
  %9 = extractvalue { ptr, i32 } %7, 1
  store i32 %9, ptr %ehselector.slot, align 4
  call void @_ZN4cvc58internal12NodeTemplateILb0EED2Ev(ptr noundef nonnull align 8 dereferenceable(8) %agg.tmp4) #3
  br label %ehcleanup

ehcleanup:                                        ; preds = %lpad6, %lpad2
  call void @_ZN4cvc58internal12NodeTemplateILb0EED2Ev(ptr noundef nonnull align 8 dereferenceable(8) %agg.tmp) #3
  br label %ehcleanup10

ehcleanup10:                                      ; preds = %ehcleanup, %lpad
  call void @_ZN4cvc58internal11NodeBuilderD1Ev(ptr noundef nonnull align 8 dereferenceable(116) %nb) #3
  br label %eh.resume

eh.resume:                                        ; preds = %ehcleanup10
  %exn = load ptr, ptr %exn.slot, align 8
  %sel = load i32, ptr %ehselector.slot, align 4
  %lpad.val = insertvalue { ptr, i32 } poison, ptr %exn, 0
  %lpad.val11 = insertvalue { ptr, i32 } %lpad.val, i32 %sel, 1
  resume { ptr, i32 } %lpad.val11
}

; Function Attrs: mustprogress uwtable
define linkonce_odr hidden void @_ZNK4cvc58internal12NodeTemplateILb1EE6eqNodeILb1EEES2_RKNS1_IXT_EEE(ptr noalias sret(%"class.cvc5::internal::NodeTemplate") align 8 %agg.result, ptr noundef nonnull align 8 dereferenceable(8) %this, ptr noundef nonnull align 8 dereferenceable(8) %right) #4 comdat align 2 personality ptr @__gxx_personality_v0 {
entry:
  %result.ptr = alloca ptr, align 8
  %this.addr = alloca ptr, align 8
  %right.addr = alloca ptr, align 8
  %agg.tmp = alloca %"class.cvc5::internal::NodeTemplate.552", align 8
  %agg.tmp2 = alloca %"class.cvc5::internal::NodeTemplate.552", align 8
  %exn.slot = alloca ptr, align 8
  %ehselector.slot = alloca i32, align 4
  store ptr %agg.result, ptr %result.ptr, align 8
  store ptr %this, ptr %this.addr, align 8
  store ptr %right, ptr %right.addr, align 8
  %this1 = load ptr, ptr %this.addr, align 8
  call void @_ZNK4cvc58internal12NodeTemplateILb1EE21assertTNodeNotExpiredEv(ptr noundef nonnull align 8 dereferenceable(8) %this1)
  %call = call noundef ptr @_ZN4cvc58internal11NodeManager9currentNMEv()
  call void @_ZN4cvc58internal12NodeTemplateILb0EEC2ERKNS1_ILb1EEE(ptr noundef nonnull align 8 dereferenceable(8) %agg.tmp, ptr noundef nonnull align 8 dereferenceable(8) %this1)
  %0 = load ptr, ptr %right.addr, align 8
  invoke void @_ZN4cvc58internal12NodeTemplateILb0EEC2ERKNS1_ILb1EEE(ptr noundef nonnull align 8 dereferenceable(8) %agg.tmp2, ptr noundef nonnull align 8 dereferenceable(8) %0)
          to label %invoke.cont unwind label %lpad

invoke.cont:                                      ; preds = %entry
  invoke void @_ZN4cvc58internal11NodeManager6mkNodeENS0_4kind6Kind_tENS0_12NodeTemplateILb0EEES5_(ptr sret(%"class.cvc5::internal::NodeTemplate") align 8 %agg.result, ptr noundef nonnull align 8 dereferenceable(3360) %call, i32 noundef 5, ptr noundef %agg.tmp, ptr noundef %agg.tmp2)
          to label %invoke.cont4 unwind label %lpad3

invoke.cont4:                                     ; preds = %invoke.cont
  call void @_ZN4cvc58internal12NodeTemplateILb0EED2Ev(ptr noundef nonnull align 8 dereferenceable(8) %agg.tmp2) #3
  call void @_ZN4cvc58internal12NodeTemplateILb0EED2Ev(ptr noundef nonnull align 8 dereferenceable(8) %agg.tmp) #3
  ret void

lpad:                                             ; preds = %entry
  %1 = landingpad { ptr, i32 }
          cleanup
  %2 = extractvalue { ptr, i32 } %1, 0
  store ptr %2, ptr %exn.slot, align 8
  %3 = extractvalue { ptr, i32 } %1, 1
  store i32 %3, ptr %ehselector.slot, align 4
  br label %ehcleanup

lpad3:                                            ; preds = %invoke.cont
  %4 = landingpad { ptr, i32 }
          cleanup
  %5 = extractvalue { ptr, i32 } %4, 0
  store ptr %5, ptr %exn.slot, align 8
  %6 = extractvalue { ptr, i32 } %4, 1
  store i32 %6, ptr %ehselector.slot, align 4
  call void @_ZN4cvc58internal12NodeTemplateILb0EED2Ev(ptr noundef nonnull align 8 dereferenceable(8) %agg.tmp2) #3
  br label %ehcleanup

ehcleanup:                                        ; preds = %lpad3, %lpad
  call void @_ZN4cvc58internal12NodeTemplateILb0EED2Ev(ptr noundef nonnull align 8 dereferenceable(8) %agg.tmp) #3
  br label %eh.resume

eh.resume:                                        ; preds = %ehcleanup
  %exn = load ptr, ptr %exn.slot, align 8
  %sel = load i32, ptr %ehselector.slot, align 4
  %lpad.val = insertvalue { ptr, i32 } poison, ptr %exn, 0
  %lpad.val5 = insertvalue { ptr, i32 } %lpad.val, i32 %sel, 1
  resume { ptr, i32 } %lpad.val5
}

declare void @_ZN4cvc58internal11NodeManager7mkConstINS0_8EmptyBagEEENS0_12NodeTemplateILb1EEERKT_(ptr sret(%"class.cvc5::internal::NodeTemplate") align 8, ptr noundef nonnull align 8 dereferenceable(3360), ptr noundef nonnull align 8 dereferenceable(8)) #1

declare void @_ZN4cvc58internal8EmptyBagC1ERKNS0_8TypeNodeE(ptr noundef nonnull align 8 dereferenceable(8), ptr noundef nonnull align 8 dereferenceable(8)) unnamed_addr #1

; Function Attrs: nounwind
declare void @_ZN4cvc58internal8EmptyBagD1Ev(ptr noundef nonnull align 8 dereferenceable(8)) unnamed_addr #2

declare void @_ZN4cvc58internal11NodeManager10mkConstIntERKNS0_8RationalE(ptr sret(%"class.cvc5::internal::NodeTemplate") align 8, ptr noundef nonnull align 8 dereferenceable(3360), ptr noundef nonnull align 8 dereferenceable(32)) #1

; Function Attrs: mustprogress uwtable
define linkonce_odr hidden void @_ZN4cvc58internal8RationalC2Ei(ptr noundef nonnull align 8 dereferenceable(32) %this, i32 noundef %n) unnamed_addr #4 comdat align 2 personality ptr @__gxx_personality_v0 {
entry:
  %this.addr = alloca ptr, align 8
  %n.addr = alloca i32, align 4
  %ref.tmp = alloca %class.__gmp_expr.816, align 8
  %ref.tmp2 = alloca %class.__gmp_expr.816, align 8
  %exn.slot = alloca ptr, align 8
  %ehselector.slot = alloca i32, align 4
  store ptr %this, ptr %this.addr, align 8
  store i32 %n, ptr %n.addr, align 4
  %this1 = load ptr, ptr %this.addr, align 8
  %d_value = getelementptr inbounds %"class.cvc5::internal::Rational", ptr %this1, i32 0, i32 0
  %0 = load i32, ptr %n.addr, align 4
  call void @_ZN10__gmp_exprIA1_12__mpz_structS1_EC2Ei(ptr noundef nonnull align 8 dereferenceable(16) %ref.tmp, i32 noundef %0)
  invoke void @_ZN10__gmp_exprIA1_12__mpz_structS1_EC2Ei(ptr noundef nonnull align 8 dereferenceable(16) %ref.tmp2, i32 noundef 1)
          to label %invoke.cont unwind label %lpad

invoke.cont:                                      ; preds = %entry
  invoke void @_ZN10__gmp_exprIA1_12__mpq_structS1_EC2ERKS_IA1_12__mpz_structS4_ES7_(ptr noundef nonnull align 8 dereferenceable(32) %d_value, ptr noundef nonnull align 8 dereferenceable(16) %ref.tmp, ptr noundef nonnull align 8 dereferenceable(16) %ref.tmp2)
          to label %invoke.cont4 unwind label %lpad3

invoke.cont4:                                     ; preds = %invoke.cont
  call void @_ZN10__gmp_exprIA1_12__mpz_structS1_ED2Ev(ptr noundef nonnull align 8 dereferenceable(16) %ref.tmp2) #3
  call void @_ZN10__gmp_exprIA1_12__mpz_structS1_ED2Ev(ptr noundef nonnull align 8 dereferenceable(16) %ref.tmp) #3
  %d_value5 = getelementptr inbounds %"class.cvc5::internal::Rational", ptr %this1, i32 0, i32 0
  invoke void @_ZN10__gmp_exprIA1_12__mpq_structS1_E12canonicalizeEv(ptr noundef nonnull align 8 dereferenceable(32) %d_value5)
          to label %invoke.cont7 unwind label %lpad6

invoke.cont7:                                     ; preds = %invoke.cont4
  ret void

lpad:                                             ; preds = %entry
  %1 = landingpad { ptr, i32 }
          cleanup
  %2 = extractvalue { ptr, i32 } %1, 0
  store ptr %2, ptr %exn.slot, align 8
  %3 = extractvalue { ptr, i32 } %1, 1
  store i32 %3, ptr %ehselector.slot, align 4
  br label %ehcleanup

lpad3:                                            ; preds = %invoke.cont
  %4 = landingpad { ptr, i32 }
          cleanup
  %5 = extractvalue { ptr, i32 } %4, 0
  store ptr %5, ptr %exn.slot, align 8
  %6 = extractvalue { ptr, i32 } %4, 1
  store i32 %6, ptr %ehselector.slot, align 4
  call void @_ZN10__gmp_exprIA1_12__mpz_structS1_ED2Ev(ptr noundef nonnull align 8 dereferenceable(16) %ref.tmp2) #3
  br label %ehcleanup

ehcleanup:                                        ; preds = %lpad3, %lpad
  call void @_ZN10__gmp_exprIA1_12__mpz_structS1_ED2Ev(ptr noundef nonnull align 8 dereferenceable(16) %ref.tmp) #3
  br label %eh.resume

lpad6:                                            ; preds = %invoke.cont4
  %7 = landingpad { ptr, i32 }
          cleanup
  %8 = extractvalue { ptr, i32 } %7, 0
  store ptr %8, ptr %exn.slot, align 8
  %9 = extractvalue { ptr, i32 } %7, 1
  store i32 %9, ptr %ehselector.slot, align 4
  call void @_ZN10__gmp_exprIA1_12__mpq_structS1_ED2Ev(ptr noundef nonnull align 8 dereferenceable(32) %d_value) #3
  br label %eh.resume

eh.resume:                                        ; preds = %lpad6, %ehcleanup
  %exn = load ptr, ptr %exn.slot, align 8
  %sel = load i32, ptr %ehselector.slot, align 4
  %lpad.val = insertvalue { ptr, i32 } poison, ptr %exn, 0
  %lpad.val9 = insertvalue { ptr, i32 } %lpad.val, i32 %sel, 1
  resume { ptr, i32 } %lpad.val9
}

; Function Attrs: mustprogress nounwind uwtable
define linkonce_odr hidden void @_ZN4cvc58internal8RationalD2Ev(ptr noundef nonnull align 8 dereferenceable(32) %this) unnamed_addr #6 comdat align 2 {
entry:
  %this.addr = alloca ptr, align 8
  store ptr %this, ptr %this.addr, align 8
  %this1 = load ptr, ptr %this.addr, align 8
  %d_value = getelementptr inbounds %"class.cvc5::internal::Rational", ptr %this1, i32 0, i32 0
  call void @_ZN10__gmp_exprIA1_12__mpq_structS1_ED2Ev(ptr noundef nonnull align 8 dereferenceable(32) %d_value) #3
  ret void
}

declare void @_ZN4cvc58internal9TrustNode12mkTrustLemmaENS0_12NodeTemplateILb1EEEPNS0_14ProofGeneratorE(ptr sret(%"class.cvc5::internal::TrustNode") align 8, ptr noundef, ptr noundef) #1

; Function Attrs: mustprogress uwtable
define linkonce_odr hidden void @_ZNSt6vectorIN4cvc58internal6theory11SkolemLemmaESaIS3_EE9push_backEOS3_(ptr noundef nonnull align 8 dereferenceable(24) %this, ptr noundef nonnull align 8 dereferenceable(32) %__x) #4 comdat align 2 {
entry:
  %this.addr = alloca ptr, align 8
  %__x.addr = alloca ptr, align 8
  store ptr %this, ptr %this.addr, align 8
  store ptr %__x, ptr %__x.addr, align 8
  %this1 = load ptr, ptr %this.addr, align 8
  %0 = load ptr, ptr %__x.addr, align 8
  %call = call noundef nonnull align 8 dereferenceable(32) ptr @_ZNSt6vectorIN4cvc58internal6theory11SkolemLemmaESaIS3_EE12emplace_backIJS3_EEERS3_DpOT_(ptr noundef nonnull align 8 dereferenceable(24) %this1, ptr noundef nonnull align 8 dereferenceable(32) %0)
  ret void
}

; Function Attrs: mustprogress uwtable
define linkonce_odr hidden void @_ZN4cvc58internal9TrustNodeC2ERKS1_(ptr noundef nonnull align 8 dereferenceable(24) %this, ptr noundef nonnull align 8 dereferenceable(24) %0) unnamed_addr #4 comdat align 2 {
entry:
  %this.addr = alloca ptr, align 8
  %.addr = alloca ptr, align 8
  store ptr %this, ptr %this.addr, align 8
  store ptr %0, ptr %.addr, align 8
  %this1 = load ptr, ptr %this.addr, align 8
  %d_tnk = getelementptr inbounds %"class.cvc5::internal::TrustNode", ptr %this1, i32 0, i32 0
  %1 = load ptr, ptr %.addr, align 8
  %d_tnk2 = getelementptr inbounds %"class.cvc5::internal::TrustNode", ptr %1, i32 0, i32 0
  %2 = load i32, ptr %d_tnk2, align 8
  store i32 %2, ptr %d_tnk, align 8
  %d_proven = getelementptr inbounds %"class.cvc5::internal::TrustNode", ptr %this1, i32 0, i32 1
  %3 = load ptr, ptr %.addr, align 8
  %d_proven3 = getelementptr inbounds %"class.cvc5::internal::TrustNode", ptr %3, i32 0, i32 1
  call void @_ZN4cvc58internal12NodeTemplateILb1EEC2ERKS2_(ptr noundef nonnull align 8 dereferenceable(8) %d_proven, ptr noundef nonnull align 8 dereferenceable(8) %d_proven3)
  %d_gen = getelementptr inbounds %"class.cvc5::internal::TrustNode", ptr %this1, i32 0, i32 2
  %4 = load ptr, ptr %.addr, align 8
  %d_gen4 = getelementptr inbounds %"class.cvc5::internal::TrustNode", ptr %4, i32 0, i32 2
  %5 = load ptr, ptr %d_gen4, align 8
  store ptr %5, ptr %d_gen, align 8
  ret void
}

declare void @_ZN4cvc58internal6theory11SkolemLemmaC1ENS0_9TrustNodeENS0_12NodeTemplateILb1EEE(ptr noundef nonnull align 8 dereferenceable(32), ptr noundef, ptr noundef) unnamed_addr #1

; Function Attrs: mustprogress nounwind uwtable
define linkonce_odr hidden void @_ZN4cvc58internal6theory11SkolemLemmaD2Ev(ptr noundef nonnull align 8 dereferenceable(32) %this) unnamed_addr #6 comdat align 2 {
entry:
  %this.addr = alloca ptr, align 8
  store ptr %this, ptr %this.addr, align 8
  %this1 = load ptr, ptr %this.addr, align 8
  %d_skolem = getelementptr inbounds %"class.cvc5::internal::theory::SkolemLemma", ptr %this1, i32 0, i32 1
  call void @_ZN4cvc58internal12NodeTemplateILb1EED2Ev(ptr noundef nonnull align 8 dereferenceable(8) %d_skolem) #3
  %d_lemma = getelementptr inbounds %"class.cvc5::internal::theory::SkolemLemma", ptr %this1, i32 0, i32 0
  call void @_ZN4cvc58internal9TrustNodeD2Ev(ptr noundef nonnull align 8 dereferenceable(24) %d_lemma) #3
  ret void
}

; Function Attrs: mustprogress nounwind uwtable
define linkonce_odr hidden void @_ZN4cvc58internal9TrustNodeD2Ev(ptr noundef nonnull align 8 dereferenceable(24) %this) unnamed_addr #6 comdat align 2 {
entry:
  %this.addr = alloca ptr, align 8
  store ptr %this, ptr %this.addr, align 8
  %this1 = load ptr, ptr %this.addr, align 8
  %d_proven = getelementptr inbounds %"class.cvc5::internal::TrustNode", ptr %this1, i32 0, i32 1
  call void @_ZN4cvc58internal12NodeTemplateILb1EED2Ev(ptr noundef nonnull align 8 dereferenceable(8) %d_proven) #3
  ret void
}

; Function Attrs: mustprogress uwtable
define linkonce_odr hidden noundef nonnull align 8 dereferenceable(24) ptr @_ZN4cvc58internal11Cvc5ostreamlsIA11_cEERS1_RKT_(ptr noundef nonnull align 8 dereferenceable(24) %this, ptr noundef nonnull align 1 dereferenceable(11) %t) #4 comdat align 2 {
entry:
  %this.addr = alloca ptr, align 8
  %t.addr = alloca ptr, align 8
  %indent = alloca i64, align 8
  %i = alloca i64, align 8
  store ptr %this, ptr %this.addr, align 8
  store ptr %t, ptr %t.addr, align 8
  %this1 = load ptr, ptr %this.addr, align 8
  %d_os = getelementptr inbounds %"class.cvc5::internal::Cvc5ostream", ptr %this1, i32 0, i32 0
  %0 = load ptr, ptr %d_os, align 8
  %cmp = icmp ne ptr %0, null
  br i1 %cmp, label %if.then, label %if.end11

if.then:                                          ; preds = %entry
  %d_firstColumn = getelementptr inbounds %"class.cvc5::internal::Cvc5ostream", ptr %this1, i32 0, i32 1
  %1 = load i8, ptr %d_firstColumn, align 8
  %tobool = trunc i8 %1 to i1
  br i1 %tobool, label %if.then2, label %if.end

if.then2:                                         ; preds = %if.then
  %d_firstColumn3 = getelementptr inbounds %"class.cvc5::internal::Cvc5ostream", ptr %this1, i32 0, i32 1
  store i8 0, ptr %d_firstColumn3, align 8
  %d_os4 = getelementptr inbounds %"class.cvc5::internal::Cvc5ostream", ptr %this1, i32 0, i32 0
  %2 = load ptr, ptr %d_os4, align 8
  %vtable = load ptr, ptr %2, align 8
  %vbase.offset.ptr = getelementptr i8, ptr %vtable, i64 -24
  %vbase.offset = load i64, ptr %vbase.offset.ptr, align 8
  %add.ptr = getelementptr inbounds i8, ptr %2, i64 %vbase.offset
  %3 = load i32, ptr @_ZN4cvc58internal11Cvc5ostream16s_indentIosIndexE, align 4
  %call = call noundef nonnull align 8 dereferenceable(8) ptr @_ZNSt8ios_base5iwordEi(ptr noundef nonnull align 8 dereferenceable(216) %add.ptr, i32 noundef %3)
  %4 = load i64, ptr %call, align 8
  store i64 %4, ptr %indent, align 8
  store i64 0, ptr %i, align 8
  br label %for.cond

for.cond:                                         ; preds = %for.inc, %if.then2
  %5 = load i64, ptr %i, align 8
  %6 = load i64, ptr %indent, align 8
  %cmp5 = icmp slt i64 %5, %6
  br i1 %cmp5, label %for.body, label %for.end

for.body:                                         ; preds = %for.cond
  %d_os6 = getelementptr inbounds %"class.cvc5::internal::Cvc5ostream", ptr %this1, i32 0, i32 0
  %7 = load ptr, ptr %d_os6, align 8
  %call7 = call noundef nonnull align 8 dereferenceable(8) ptr @_ZStlsIcSt11char_traitsIcESaIcEERSt13basic_ostreamIT_T0_ES7_RKNSt7__cxx1112basic_stringIS4_S5_T1_EE(ptr noundef nonnull align 8 dereferenceable(8) %7, ptr noundef nonnull align 8 dereferenceable(32) @_ZN4cvc58internal11Cvc5ostream5s_tabB5cxx11E)
  %d_os8 = getelementptr inbounds %"class.cvc5::internal::Cvc5ostream", ptr %this1, i32 0, i32 0
  store ptr %call7, ptr %d_os8, align 8
  br label %for.inc

for.inc:                                          ; preds = %for.body
  %8 = load i64, ptr %i, align 8
  %inc = add nsw i64 %8, 1
  store i64 %inc, ptr %i, align 8
  br label %for.cond, !llvm.loop !11

for.end:                                          ; preds = %for.cond
  br label %if.end

if.end:                                           ; preds = %for.end, %if.then
  %d_os9 = getelementptr inbounds %"class.cvc5::internal::Cvc5ostream", ptr %this1, i32 0, i32 0
  %9 = load ptr, ptr %d_os9, align 8
  %10 = load ptr, ptr %t.addr, align 8
  %arraydecay = getelementptr inbounds [11 x i8], ptr %10, i64 0, i64 0
  %call10 = call noundef nonnull align 8 dereferenceable(8) ptr @_ZStlsISt11char_traitsIcEERSt13basic_ostreamIcT_ES5_PKc(ptr noundef nonnull align 8 dereferenceable(8) %9, ptr noundef %arraydecay)
  br label %if.end11

if.end11:                                         ; preds = %if.end, %entry
  ret ptr %this1
}

; Function Attrs: mustprogress uwtable
define hidden void @_ZN4cvc58internal6theory4bags10TheoryBags10initializeEv(ptr noundef nonnull align 8 dereferenceable(2192) %this) #4 align 2 {
entry:
  %this.addr = alloca ptr, align 8
  store ptr %this, ptr %this.addr, align 8
  %this1 = load ptr, ptr %this.addr, align 8
  %d_state = getelementptr inbounds %"class.cvc5::internal::theory::bags::TheoryBags", ptr %this1, i32 0, i32 1
  call void @_ZN4cvc58internal6theory4bags11SolverState5resetEv(ptr noundef nonnull align 8 dereferenceable(408) %d_state)
  %d_opMap = getelementptr inbounds %"class.cvc5::internal::theory::bags::TheoryBags", ptr %this1, i32 0, i32 11
  call void @_ZNSt3mapIN4cvc58internal4kind6Kind_tESt6vectorINS1_12NodeTemplateILb1EEESaIS6_EESt4lessIS3_ESaISt4pairIKS3_S8_EEE5clearEv(ptr noundef nonnull align 8 dereferenceable(48) %d_opMap) #3
  %d_state2 = getelementptr inbounds %"class.cvc5::internal::theory::bags::TheoryBags", ptr %this1, i32 0, i32 1
  call void @_ZN4cvc58internal6theory4bags11SolverState23collectDisequalBagTermsEv(ptr noundef nonnull align 8 dereferenceable(408) %d_state2)
  call void @_ZN4cvc58internal6theory4bags10TheoryBags24collectBagsAndCountTermsEv(ptr noundef nonnull align 8 dereferenceable(2192) %this1)
  ret void
}

declare void @_ZN4cvc58internal6theory4bags11SolverState5resetEv(ptr noundef nonnull align 8 dereferenceable(408)) #1

; Function Attrs: mustprogress nounwind uwtable
define linkonce_odr hidden void @_ZNSt3mapIN4cvc58internal4kind6Kind_tESt6vectorINS1_12NodeTemplateILb1EEESaIS6_EESt4lessIS3_ESaISt4pairIKS3_S8_EEE5clearEv(ptr noundef nonnull align 8 dereferenceable(48) %this) #6 comdat align 2 {
entry:
  %this.addr = alloca ptr, align 8
  store ptr %this, ptr %this.addr, align 8
  %this1 = load ptr, ptr %this.addr, align 8
  %_M_t = getelementptr inbounds %"class.std::map.118", ptr %this1, i32 0, i32 0
  call void @_ZNSt8_Rb_treeIN4cvc58internal4kind6Kind_tESt4pairIKS3_St6vectorINS1_12NodeTemplateILb1EEESaIS8_EEESt10_Select1stISB_ESt4lessIS3_ESaISB_EE5clearEv(ptr noundef nonnull align 8 dereferenceable(48) %_M_t) #3
  ret void
}

declare void @_ZN4cvc58internal6theory4bags11SolverState23collectDisequalBagTermsEv(ptr noundef nonnull align 8 dereferenceable(408)) #1

; Function Attrs: mustprogress uwtable
define hidden void @_ZN4cvc58internal6theory4bags10TheoryBags24collectBagsAndCountTermsEv(ptr noundef nonnull align 8 dereferenceable(2192) %this) #4 align 2 personality ptr @__gxx_personality_v0 {
entry:
  %this.addr = alloca ptr, align 8
  %ee = alloca ptr, align 8
  %repIt = alloca %"class.cvc5::internal::theory::eq::EqClassesIterator", align 8
  %eqc = alloca %"class.cvc5::internal::NodeTemplate", align 8
  %ref.tmp = alloca %"class.cvc5::internal::__cvc5_true", align 1
  %exn.slot = alloca ptr, align 8
  %ehselector.slot = alloca i32, align 4
  %tmp = alloca %"class.cvc5::internal::Cvc5ostream", align 8
  %agg.tmp.ensured = alloca %"class.cvc5::internal::Cvc5ostream", align 8
  %ref.tmp5 = alloca %"class.cvc5::internal::Cvc5ostream", align 8
  %ref.tmp13 = alloca %"class.cvc5::internal::TypeNode", align 8
  %agg.tmp = alloca %"class.cvc5::internal::NodeTemplate.552", align 8
  %it = alloca %"class.cvc5::internal::theory::eq::EqClassIterator", align 8
  %agg.tmp22 = alloca %"class.cvc5::internal::NodeTemplate", align 8
  %n = alloca %"class.cvc5::internal::NodeTemplate", align 8
  %ref.tmp32 = alloca i32, align 4
  %ref.tmp39 = alloca %"class.cvc5::internal::__cvc5_true", align 1
  %tmp43 = alloca %"class.cvc5::internal::Cvc5ostream", align 8
  %agg.tmp.ensured46 = alloca %"class.cvc5::internal::Cvc5ostream", align 8
  %ref.tmp47 = alloca %"class.cvc5::internal::Cvc5ostream", align 8
  %ref.tmp49 = alloca %"class.cvc5::internal::NodeTemplate", align 8
  %cleanup.cond = alloca i1, align 1
  %k = alloca i32, align 4
  %nm = alloca ptr, align 8
  %count = alloca %"class.cvc5::internal::NodeTemplate", align 8
  %agg.tmp65 = alloca %"class.cvc5::internal::NodeTemplate.552", align 8
  %ref.tmp66 = alloca %"class.cvc5::internal::NodeTemplate", align 8
  %agg.tmp70 = alloca %"class.cvc5::internal::NodeTemplate.552", align 8
  %agg.tmp76 = alloca %"class.cvc5::internal::NodeTemplate", align 8
  %agg.tmp87 = alloca %"class.cvc5::internal::NodeTemplate", align 8
  %agg.tmp96 = alloca %"class.cvc5::internal::NodeTemplate", align 8
  %agg.tmp105 = alloca %"class.cvc5::internal::NodeTemplate", align 8
  %ref.tmp114 = alloca %"class.cvc5::internal::__cvc5_true", align 1
  %tmp118 = alloca %"class.cvc5::internal::Cvc5ostream", align 8
  %agg.tmp.ensured121 = alloca %"class.cvc5::internal::Cvc5ostream", align 8
  %ref.tmp122 = alloca %"class.cvc5::internal::Cvc5ostream", align 8
  store ptr %this, ptr %this.addr, align 8
  %this1 = load ptr, ptr %this.addr, align 8
  %d_state = getelementptr inbounds %"class.cvc5::internal::theory::bags::TheoryBags", ptr %this1, i32 0, i32 1
  %call = call noundef ptr @_ZNK4cvc58internal6theory11TheoryState17getEqualityEngineEv(ptr noundef nonnull align 8 dereferenceable(80) %d_state)
  store ptr %call, ptr %ee, align 8
  %0 = load ptr, ptr %ee, align 8
  call void @_ZN4cvc58internal6theory2eq17EqClassesIteratorC1EPKNS2_14EqualityEngineE(ptr noundef nonnull align 8 dereferenceable(16) %repIt, ptr noundef %0)
  br label %while.cond

while.cond:                                       ; preds = %invoke.cont129, %entry
  %call2 = call noundef zeroext i1 @_ZNK4cvc58internal6theory2eq17EqClassesIterator10isFinishedEv(ptr noundef nonnull align 8 dereferenceable(16) %repIt)
  %lnot = xor i1 %call2, true
  br i1 %lnot, label %while.body, label %while.end132

while.body:                                       ; preds = %while.cond
  call void @_ZNK4cvc58internal6theory2eq17EqClassesIteratordeEv(ptr sret(%"class.cvc5::internal::NodeTemplate") align 8 %eqc, ptr noundef nonnull align 8 dereferenceable(16) %repIt)
  %call3 = invoke noundef zeroext i1 @_ZN4cvc58internal11__cvc5_truecvbEv(ptr noundef nonnull align 1 dereferenceable(1) %ref.tmp)
          to label %invoke.cont unwind label %lpad

invoke.cont:                                      ; preds = %while.body
  br i1 %call3, label %cond.true, label %cond.false

cond.true:                                        ; preds = %invoke.cont
  invoke void @_ZNK4cvc58internal5NullCcvNS0_11Cvc5ostreamEEv(ptr sret(%"class.cvc5::internal::Cvc5ostream") align 8 %tmp, ptr noundef nonnull align 1 dereferenceable(1) @_ZN4cvc58internal10nullStreamE)
          to label %invoke.cont4 unwind label %lpad

invoke.cont4:                                     ; preds = %cond.true
  br label %cond.end

cond.false:                                       ; preds = %invoke.cont
  invoke void @_ZNK4cvc58internal6TraceCclEv(ptr sret(%"class.cvc5::internal::Cvc5ostream") align 8 %ref.tmp5, ptr noundef nonnull align 8 dereferenceable(32) @_ZN4cvc58internal12TraceChannelE)
          to label %invoke.cont6 unwind label %lpad

invoke.cont6:                                     ; preds = %cond.false
  %call8 = invoke noundef nonnull align 8 dereferenceable(24) ptr @_ZN4cvc58internal11Cvc5ostreamlsIA7_cEERS1_RKT_(ptr noundef nonnull align 8 dereferenceable(24) %ref.tmp5, ptr noundef nonnull align 1 dereferenceable(7) @.str.7)
          to label %invoke.cont7 unwind label %lpad

invoke.cont7:                                     ; preds = %invoke.cont6
  %call10 = invoke noundef nonnull align 8 dereferenceable(24) ptr @_ZN4cvc58internal11Cvc5ostreamlsINS0_12NodeTemplateILb1EEEEERS1_RKT_(ptr noundef nonnull align 8 dereferenceable(24) %call8, ptr noundef nonnull align 8 dereferenceable(8) %eqc)
          to label %invoke.cont9 unwind label %lpad

invoke.cont9:                                     ; preds = %invoke.cont7
  %call12 = invoke noundef nonnull align 8 dereferenceable(24) ptr @_ZN4cvc58internal11Cvc5ostreamlsIA8_cEERS1_RKT_(ptr noundef nonnull align 8 dereferenceable(24) %call10, ptr noundef nonnull align 1 dereferenceable(8) @.str.8)
          to label %invoke.cont11 unwind label %lpad

invoke.cont11:                                    ; preds = %invoke.cont9
  call void @llvm.memcpy.p0.p0.i64(ptr align 8 %agg.tmp.ensured, ptr align 8 %call12, i64 24, i1 false)
  br label %cond.end

cond.end:                                         ; preds = %invoke.cont11, %invoke.cont4
  invoke void @_ZNK4cvc58internal12NodeTemplateILb1EE7getTypeEb(ptr sret(%"class.cvc5::internal::TypeNode") align 8 %ref.tmp13, ptr noundef nonnull align 8 dereferenceable(8) %eqc, i1 noundef zeroext false)
          to label %invoke.cont14 unwind label %lpad

invoke.cont14:                                    ; preds = %cond.end
  %call17 = invoke noundef zeroext i1 @_ZNK4cvc58internal8TypeNode5isBagEv(ptr noundef nonnull align 8 dereferenceable(8) %ref.tmp13)
          to label %invoke.cont16 unwind label %lpad15

invoke.cont16:                                    ; preds = %invoke.cont14
  call void @_ZN4cvc58internal8TypeNodeD2Ev(ptr noundef nonnull align 8 dereferenceable(8) %ref.tmp13) #3
  br i1 %call17, label %if.then, label %if.end

if.then:                                          ; preds = %invoke.cont16
  %d_state18 = getelementptr inbounds %"class.cvc5::internal::theory::bags::TheoryBags", ptr %this1, i32 0, i32 1
  invoke void @_ZN4cvc58internal12NodeTemplateILb0EEC2ERKNS1_ILb1EEE(ptr noundef nonnull align 8 dereferenceable(8) %agg.tmp, ptr noundef nonnull align 8 dereferenceable(8) %eqc)
          to label %invoke.cont19 unwind label %lpad

invoke.cont19:                                    ; preds = %if.then
  invoke void @_ZN4cvc58internal6theory4bags11SolverState11registerBagENS0_12NodeTemplateILb0EEE(ptr noundef nonnull align 8 dereferenceable(408) %d_state18, ptr noundef %agg.tmp)
          to label %invoke.cont21 unwind label %lpad20

invoke.cont21:                                    ; preds = %invoke.cont19
  call void @_ZN4cvc58internal12NodeTemplateILb0EED2Ev(ptr noundef nonnull align 8 dereferenceable(8) %agg.tmp) #3
  br label %if.end

lpad:                                             ; preds = %cond.end128, %invoke.cont124, %invoke.cont123, %cond.false120, %cond.true117, %while.end, %while.body30, %while.cond26, %if.end, %if.then, %cond.end, %invoke.cont9, %invoke.cont7, %invoke.cont6, %cond.false, %cond.true, %while.body
  %1 = landingpad { ptr, i32 }
          cleanup
  %2 = extractvalue { ptr, i32 } %1, 0
  store ptr %2, ptr %exn.slot, align 8
  %3 = extractvalue { ptr, i32 } %1, 1
  store i32 %3, ptr %ehselector.slot, align 4
  br label %ehcleanup131

lpad15:                                           ; preds = %invoke.cont14
  %4 = landingpad { ptr, i32 }
          cleanup
  %5 = extractvalue { ptr, i32 } %4, 0
  store ptr %5, ptr %exn.slot, align 8
  %6 = extractvalue { ptr, i32 } %4, 1
  store i32 %6, ptr %ehselector.slot, align 4
  call void @_ZN4cvc58internal8TypeNodeD2Ev(ptr noundef nonnull align 8 dereferenceable(8) %ref.tmp13) #3
  br label %ehcleanup131

lpad20:                                           ; preds = %invoke.cont19
  %7 = landingpad { ptr, i32 }
          cleanup
  %8 = extractvalue { ptr, i32 } %7, 0
  store ptr %8, ptr %exn.slot, align 8
  %9 = extractvalue { ptr, i32 } %7, 1
  store i32 %9, ptr %ehselector.slot, align 4
  call void @_ZN4cvc58internal12NodeTemplateILb0EED2Ev(ptr noundef nonnull align 8 dereferenceable(8) %agg.tmp) #3
  br label %ehcleanup131

if.end:                                           ; preds = %invoke.cont21, %invoke.cont16
  invoke void @_ZN4cvc58internal12NodeTemplateILb1EEC2ERKS2_(ptr noundef nonnull align 8 dereferenceable(8) %agg.tmp22, ptr noundef nonnull align 8 dereferenceable(8) %eqc)
          to label %invoke.cont23 unwind label %lpad

invoke.cont23:                                    ; preds = %if.end
  %10 = load ptr, ptr %ee, align 8
  invoke void @_ZN4cvc58internal6theory2eq15EqClassIteratorC1ENS0_12NodeTemplateILb1EEEPKNS2_14EqualityEngineE(ptr noundef nonnull align 8 dereferenceable(16) %it, ptr noundef %agg.tmp22, ptr noundef %10)
          to label %invoke.cont25 unwind label %lpad24

invoke.cont25:                                    ; preds = %invoke.cont23
  call void @_ZN4cvc58internal12NodeTemplateILb1EED2Ev(ptr noundef nonnull align 8 dereferenceable(8) %agg.tmp22) #3
  br label %while.cond26

while.cond26:                                     ; preds = %invoke.cont111, %invoke.cont25
  %call28 = invoke noundef zeroext i1 @_ZNK4cvc58internal6theory2eq15EqClassIterator10isFinishedEv(ptr noundef nonnull align 8 dereferenceable(16) %it)
          to label %invoke.cont27 unwind label %lpad

invoke.cont27:                                    ; preds = %while.cond26
  %lnot29 = xor i1 %call28, true
  br i1 %lnot29, label %while.body30, label %while.end

while.body30:                                     ; preds = %invoke.cont27
  invoke void @_ZNK4cvc58internal6theory2eq15EqClassIteratordeEv(ptr sret(%"class.cvc5::internal::NodeTemplate") align 8 %n, ptr noundef nonnull align 8 dereferenceable(16) %it)
          to label %invoke.cont31 unwind label %lpad

invoke.cont31:                                    ; preds = %while.body30
  %d_opMap = getelementptr inbounds %"class.cvc5::internal::theory::bags::TheoryBags", ptr %this1, i32 0, i32 11
  %call35 = invoke noundef i32 @_ZNK4cvc58internal12NodeTemplateILb1EE7getKindEv(ptr noundef nonnull align 8 dereferenceable(8) %n)
          to label %invoke.cont34 unwind label %lpad33

invoke.cont34:                                    ; preds = %invoke.cont31
  store i32 %call35, ptr %ref.tmp32, align 4
  %call37 = invoke noundef nonnull align 8 dereferenceable(24) ptr @_ZNSt3mapIN4cvc58internal4kind6Kind_tESt6vectorINS1_12NodeTemplateILb1EEESaIS6_EESt4lessIS3_ESaISt4pairIKS3_S8_EEEixEOS3_(ptr noundef nonnull align 8 dereferenceable(48) %d_opMap, ptr noundef nonnull align 4 dereferenceable(4) %ref.tmp32)
          to label %invoke.cont36 unwind label %lpad33

invoke.cont36:                                    ; preds = %invoke.cont34
  invoke void @_ZNSt6vectorIN4cvc58internal12NodeTemplateILb1EEESaIS3_EE9push_backERKS3_(ptr noundef nonnull align 8 dereferenceable(24) %call37, ptr noundef nonnull align 8 dereferenceable(8) %n)
          to label %invoke.cont38 unwind label %lpad33

invoke.cont38:                                    ; preds = %invoke.cont36
  store i1 false, ptr %cleanup.cond, align 1
  %call41 = invoke noundef zeroext i1 @_ZN4cvc58internal11__cvc5_truecvbEv(ptr noundef nonnull align 1 dereferenceable(1) %ref.tmp39)
          to label %invoke.cont40 unwind label %lpad33

invoke.cont40:                                    ; preds = %invoke.cont38
  br i1 %call41, label %cond.true42, label %cond.false45

cond.true42:                                      ; preds = %invoke.cont40
  invoke void @_ZNK4cvc58internal5NullCcvNS0_11Cvc5ostreamEEv(ptr sret(%"class.cvc5::internal::Cvc5ostream") align 8 %tmp43, ptr noundef nonnull align 1 dereferenceable(1) @_ZN4cvc58internal10nullStreamE)
          to label %invoke.cont44 unwind label %lpad33

invoke.cont44:                                    ; preds = %cond.true42
  br label %cond.end56

cond.false45:                                     ; preds = %invoke.cont40
  invoke void @_ZNK4cvc58internal6TraceCclEv(ptr sret(%"class.cvc5::internal::Cvc5ostream") align 8 %ref.tmp47, ptr noundef nonnull align 8 dereferenceable(32) @_ZN4cvc58internal12TraceChannelE)
          to label %invoke.cont48 unwind label %lpad33

invoke.cont48:                                    ; preds = %cond.false45
  invoke void @_ZNK4cvc58internal6theory2eq15EqClassIteratordeEv(ptr sret(%"class.cvc5::internal::NodeTemplate") align 8 %ref.tmp49, ptr noundef nonnull align 8 dereferenceable(16) %it)
          to label %invoke.cont50 unwind label %lpad33

invoke.cont50:                                    ; preds = %invoke.cont48
  store i1 true, ptr %cleanup.cond, align 1
  %call53 = invoke noundef nonnull align 8 dereferenceable(24) ptr @_ZN4cvc58internal11Cvc5ostreamlsINS0_12NodeTemplateILb1EEEEERS1_RKT_(ptr noundef nonnull align 8 dereferenceable(24) %ref.tmp47, ptr noundef nonnull align 8 dereferenceable(8) %ref.tmp49)
          to label %invoke.cont52 unwind label %lpad51

invoke.cont52:                                    ; preds = %invoke.cont50
  %call55 = invoke noundef nonnull align 8 dereferenceable(24) ptr @_ZN4cvc58internal11Cvc5ostreamlsIA2_cEERS1_RKT_(ptr noundef nonnull align 8 dereferenceable(24) %call53, ptr noundef nonnull align 1 dereferenceable(2) @.str.9)
          to label %invoke.cont54 unwind label %lpad51

invoke.cont54:                                    ; preds = %invoke.cont52
  call void @llvm.memcpy.p0.p0.i64(ptr align 8 %agg.tmp.ensured46, ptr align 8 %call55, i64 24, i1 false)
  br label %cond.end56

cond.end56:                                       ; preds = %invoke.cont54, %invoke.cont44
  %cleanup.is_active = load i1, ptr %cleanup.cond, align 1
  br i1 %cleanup.is_active, label %cleanup.action, label %cleanup.done

cleanup.action:                                   ; preds = %cond.end56
  call void @_ZN4cvc58internal12NodeTemplateILb1EED2Ev(ptr noundef nonnull align 8 dereferenceable(8) %ref.tmp49) #3
  br label %cleanup.done

cleanup.done:                                     ; preds = %cleanup.action, %cond.end56
  %call61 = invoke noundef i32 @_ZNK4cvc58internal12NodeTemplateILb1EE7getKindEv(ptr noundef nonnull align 8 dereferenceable(8) %n)
          to label %invoke.cont60 unwind label %lpad33

invoke.cont60:                                    ; preds = %cleanup.done
  store i32 %call61, ptr %k, align 4
  %11 = load i32, ptr %k, align 4
  %cmp = icmp eq i32 %11, 284
  br i1 %cmp, label %if.then62, label %if.end83

if.then62:                                        ; preds = %invoke.cont60
  %call64 = invoke noundef ptr @_ZN4cvc58internal11NodeManager9currentNMEv()
          to label %invoke.cont63 unwind label %lpad33

invoke.cont63:                                    ; preds = %if.then62
  store ptr %call64, ptr %nm, align 8
  %12 = load ptr, ptr %nm, align 8
  invoke void @_ZNK4cvc58internal12NodeTemplateILb1EEixEi(ptr sret(%"class.cvc5::internal::NodeTemplate") align 8 %ref.tmp66, ptr noundef nonnull align 8 dereferenceable(8) %n, i32 noundef 0)
          to label %invoke.cont67 unwind label %lpad33

invoke.cont67:                                    ; preds = %invoke.cont63
  invoke void @_ZN4cvc58internal12NodeTemplateILb0EEC2ERKNS1_ILb1EEE(ptr noundef nonnull align 8 dereferenceable(8) %agg.tmp65, ptr noundef nonnull align 8 dereferenceable(8) %ref.tmp66)
          to label %invoke.cont69 unwind label %lpad68

invoke.cont69:                                    ; preds = %invoke.cont67
  invoke void @_ZN4cvc58internal12NodeTemplateILb0EEC2ERKNS1_ILb1EEE(ptr noundef nonnull align 8 dereferenceable(8) %agg.tmp70, ptr noundef nonnull align 8 dereferenceable(8) %n)
          to label %invoke.cont72 unwind label %lpad71

invoke.cont72:                                    ; preds = %invoke.cont69
  invoke void @_ZN4cvc58internal11NodeManager6mkNodeENS0_4kind6Kind_tENS0_12NodeTemplateILb0EEES5_(ptr sret(%"class.cvc5::internal::NodeTemplate") align 8 %count, ptr noundef nonnull align 8 dereferenceable(3360) %12, i32 noundef 281, ptr noundef %agg.tmp65, ptr noundef %agg.tmp70)
          to label %invoke.cont74 unwind label %lpad73

invoke.cont74:                                    ; preds = %invoke.cont72
  call void @_ZN4cvc58internal12NodeTemplateILb0EED2Ev(ptr noundef nonnull align 8 dereferenceable(8) %agg.tmp70) #3
  call void @_ZN4cvc58internal12NodeTemplateILb0EED2Ev(ptr noundef nonnull align 8 dereferenceable(8) %agg.tmp65) #3
  call void @_ZN4cvc58internal12NodeTemplateILb1EED2Ev(ptr noundef nonnull align 8 dereferenceable(8) %ref.tmp66) #3
  %d_ig = getelementptr inbounds %"class.cvc5::internal::theory::bags::TheoryBags", ptr %this1, i32 0, i32 3
  invoke void @_ZN4cvc58internal12NodeTemplateILb1EEC2ERKS2_(ptr noundef nonnull align 8 dereferenceable(8) %agg.tmp76, ptr noundef nonnull align 8 dereferenceable(8) %count)
          to label %invoke.cont78 unwind label %lpad77

invoke.cont78:                                    ; preds = %invoke.cont74
  invoke void @_ZN4cvc58internal6theory4bags18InferenceGenerator17registerCountTermENS0_12NodeTemplateILb1EEE(ptr noundef nonnull align 8 dereferenceable(56) %d_ig, ptr noundef %agg.tmp76)
          to label %invoke.cont80 unwind label %lpad79

invoke.cont80:                                    ; preds = %invoke.cont78
  call void @_ZN4cvc58internal12NodeTemplateILb1EED2Ev(ptr noundef nonnull align 8 dereferenceable(8) %agg.tmp76) #3
  call void @_ZN4cvc58internal12NodeTemplateILb1EED2Ev(ptr noundef nonnull align 8 dereferenceable(8) %count) #3
  br label %if.end83

lpad24:                                           ; preds = %invoke.cont23
  %13 = landingpad { ptr, i32 }
          cleanup
  %14 = extractvalue { ptr, i32 } %13, 0
  store ptr %14, ptr %exn.slot, align 8
  %15 = extractvalue { ptr, i32 } %13, 1
  store i32 %15, ptr %ehselector.slot, align 4
  call void @_ZN4cvc58internal12NodeTemplateILb1EED2Ev(ptr noundef nonnull align 8 dereferenceable(8) %agg.tmp22) #3
  br label %ehcleanup131

lpad33:                                           ; preds = %if.end110, %if.then103, %if.then94, %if.then85, %invoke.cont63, %if.then62, %cleanup.done, %invoke.cont48, %cond.false45, %cond.true42, %invoke.cont38, %invoke.cont36, %invoke.cont34, %invoke.cont31
  %16 = landingpad { ptr, i32 }
          cleanup
  %17 = extractvalue { ptr, i32 } %16, 0
  store ptr %17, ptr %exn.slot, align 8
  %18 = extractvalue { ptr, i32 } %16, 1
  store i32 %18, ptr %ehselector.slot, align 4
  br label %ehcleanup113

lpad51:                                           ; preds = %invoke.cont52, %invoke.cont50
  %19 = landingpad { ptr, i32 }
          cleanup
  %20 = extractvalue { ptr, i32 } %19, 0
  store ptr %20, ptr %exn.slot, align 8
  %21 = extractvalue { ptr, i32 } %19, 1
  store i32 %21, ptr %ehselector.slot, align 4
  %cleanup.is_active57 = load i1, ptr %cleanup.cond, align 1
  br i1 %cleanup.is_active57, label %cleanup.action58, label %cleanup.done59

cleanup.action58:                                 ; preds = %lpad51
  call void @_ZN4cvc58internal12NodeTemplateILb1EED2Ev(ptr noundef nonnull align 8 dereferenceable(8) %ref.tmp49) #3
  br label %cleanup.done59

cleanup.done59:                                   ; preds = %cleanup.action58, %lpad51
  br label %ehcleanup113

lpad68:                                           ; preds = %invoke.cont67
  %22 = landingpad { ptr, i32 }
          cleanup
  %23 = extractvalue { ptr, i32 } %22, 0
  store ptr %23, ptr %exn.slot, align 8
  %24 = extractvalue { ptr, i32 } %22, 1
  store i32 %24, ptr %ehselector.slot, align 4
  br label %ehcleanup75

lpad71:                                           ; preds = %invoke.cont69
  %25 = landingpad { ptr, i32 }
          cleanup
  %26 = extractvalue { ptr, i32 } %25, 0
  store ptr %26, ptr %exn.slot, align 8
  %27 = extractvalue { ptr, i32 } %25, 1
  store i32 %27, ptr %ehselector.slot, align 4
  br label %ehcleanup

lpad73:                                           ; preds = %invoke.cont72
  %28 = landingpad { ptr, i32 }
          cleanup
  %29 = extractvalue { ptr, i32 } %28, 0
  store ptr %29, ptr %exn.slot, align 8
  %30 = extractvalue { ptr, i32 } %28, 1
  store i32 %30, ptr %ehselector.slot, align 4
  call void @_ZN4cvc58internal12NodeTemplateILb0EED2Ev(ptr noundef nonnull align 8 dereferenceable(8) %agg.tmp70) #3
  br label %ehcleanup

ehcleanup:                                        ; preds = %lpad73, %lpad71
  call void @_ZN4cvc58internal12NodeTemplateILb0EED2Ev(ptr noundef nonnull align 8 dereferenceable(8) %agg.tmp65) #3
  br label %ehcleanup75

ehcleanup75:                                      ; preds = %ehcleanup, %lpad68
  call void @_ZN4cvc58internal12NodeTemplateILb1EED2Ev(ptr noundef nonnull align 8 dereferenceable(8) %ref.tmp66) #3
  br label %ehcleanup113

lpad77:                                           ; preds = %invoke.cont74
  %31 = landingpad { ptr, i32 }
          cleanup
  %32 = extractvalue { ptr, i32 } %31, 0
  store ptr %32, ptr %exn.slot, align 8
  %33 = extractvalue { ptr, i32 } %31, 1
  store i32 %33, ptr %ehselector.slot, align 4
  br label %ehcleanup82

lpad79:                                           ; preds = %invoke.cont78
  %34 = landingpad { ptr, i32 }
          cleanup
  %35 = extractvalue { ptr, i32 } %34, 0
  store ptr %35, ptr %exn.slot, align 8
  %36 = extractvalue { ptr, i32 } %34, 1
  store i32 %36, ptr %ehselector.slot, align 4
  call void @_ZN4cvc58internal12NodeTemplateILb1EED2Ev(ptr noundef nonnull align 8 dereferenceable(8) %agg.tmp76) #3
  br label %ehcleanup82

ehcleanup82:                                      ; preds = %lpad79, %lpad77
  call void @_ZN4cvc58internal12NodeTemplateILb1EED2Ev(ptr noundef nonnull align 8 dereferenceable(8) %count) #3
  br label %ehcleanup113

if.end83:                                         ; preds = %invoke.cont80, %invoke.cont60
  %37 = load i32, ptr %k, align 4
  %cmp84 = icmp eq i32 %37, 281
  br i1 %cmp84, label %if.then85, label %if.end92

if.then85:                                        ; preds = %if.end83
  %d_ig86 = getelementptr inbounds %"class.cvc5::internal::theory::bags::TheoryBags", ptr %this1, i32 0, i32 3
  invoke void @_ZN4cvc58internal12NodeTemplateILb1EEC2ERKS2_(ptr noundef nonnull align 8 dereferenceable(8) %agg.tmp87, ptr noundef nonnull align 8 dereferenceable(8) %n)
          to label %invoke.cont88 unwind label %lpad33

invoke.cont88:                                    ; preds = %if.then85
  invoke void @_ZN4cvc58internal6theory4bags18InferenceGenerator17registerCountTermENS0_12NodeTemplateILb1EEE(ptr noundef nonnull align 8 dereferenceable(56) %d_ig86, ptr noundef %agg.tmp87)
          to label %invoke.cont90 unwind label %lpad89

invoke.cont90:                                    ; preds = %invoke.cont88
  call void @_ZN4cvc58internal12NodeTemplateILb1EED2Ev(ptr noundef nonnull align 8 dereferenceable(8) %agg.tmp87) #3
  br label %if.end92

lpad89:                                           ; preds = %invoke.cont88
  %38 = landingpad { ptr, i32 }
          cleanup
  %39 = extractvalue { ptr, i32 } %38, 0
  store ptr %39, ptr %exn.slot, align 8
  %40 = extractvalue { ptr, i32 } %38, 1
  store i32 %40, ptr %ehselector.slot, align 4
  call void @_ZN4cvc58internal12NodeTemplateILb1EED2Ev(ptr noundef nonnull align 8 dereferenceable(8) %agg.tmp87) #3
  br label %ehcleanup113

if.end92:                                         ; preds = %invoke.cont90, %if.end83
  %41 = load i32, ptr %k, align 4
  %cmp93 = icmp eq i32 %41, 286
  br i1 %cmp93, label %if.then94, label %if.end101

if.then94:                                        ; preds = %if.end92
  %d_ig95 = getelementptr inbounds %"class.cvc5::internal::theory::bags::TheoryBags", ptr %this1, i32 0, i32 3
  invoke void @_ZN4cvc58internal12NodeTemplateILb1EEC2ERKS2_(ptr noundef nonnull align 8 dereferenceable(8) %agg.tmp96, ptr noundef nonnull align 8 dereferenceable(8) %n)
          to label %invoke.cont97 unwind label %lpad33

invoke.cont97:                                    ; preds = %if.then94
  invoke void @_ZN4cvc58internal6theory4bags18InferenceGenerator23registerCardinalityTermENS0_12NodeTemplateILb1EEE(ptr noundef nonnull align 8 dereferenceable(56) %d_ig95, ptr noundef %agg.tmp96)
          to label %invoke.cont99 unwind label %lpad98

invoke.cont99:                                    ; preds = %invoke.cont97
  call void @_ZN4cvc58internal12NodeTemplateILb1EED2Ev(ptr noundef nonnull align 8 dereferenceable(8) %agg.tmp96) #3
  br label %if.end101

lpad98:                                           ; preds = %invoke.cont97
  %42 = landingpad { ptr, i32 }
          cleanup
  %43 = extractvalue { ptr, i32 } %42, 0
  store ptr %43, ptr %exn.slot, align 8
  %44 = extractvalue { ptr, i32 } %42, 1
  store i32 %44, ptr %ehselector.slot, align 4
  call void @_ZN4cvc58internal12NodeTemplateILb1EED2Ev(ptr noundef nonnull align 8 dereferenceable(8) %agg.tmp96) #3
  br label %ehcleanup113

if.end101:                                        ; preds = %invoke.cont99, %if.end92
  %45 = load i32, ptr %k, align 4
  %cmp102 = icmp eq i32 %45, 302
  br i1 %cmp102, label %if.then103, label %if.end110

if.then103:                                       ; preds = %if.end101
  %d_state104 = getelementptr inbounds %"class.cvc5::internal::theory::bags::TheoryBags", ptr %this1, i32 0, i32 1
  invoke void @_ZN4cvc58internal12NodeTemplateILb1EEC2ERKS2_(ptr noundef nonnull align 8 dereferenceable(8) %agg.tmp105, ptr noundef nonnull align 8 dereferenceable(8) %n)
          to label %invoke.cont106 unwind label %lpad33

invoke.cont106:                                   ; preds = %if.then103
  invoke void @_ZN4cvc58internal6theory4bags11SolverState17registerGroupTermENS0_12NodeTemplateILb1EEE(ptr noundef nonnull align 8 dereferenceable(408) %d_state104, ptr noundef %agg.tmp105)
          to label %invoke.cont108 unwind label %lpad107

invoke.cont108:                                   ; preds = %invoke.cont106
  call void @_ZN4cvc58internal12NodeTemplateILb1EED2Ev(ptr noundef nonnull align 8 dereferenceable(8) %agg.tmp105) #3
  br label %if.end110

lpad107:                                          ; preds = %invoke.cont106
  %46 = landingpad { ptr, i32 }
          cleanup
  %47 = extractvalue { ptr, i32 } %46, 0
  store ptr %47, ptr %exn.slot, align 8
  %48 = extractvalue { ptr, i32 } %46, 1
  store i32 %48, ptr %ehselector.slot, align 4
  call void @_ZN4cvc58internal12NodeTemplateILb1EED2Ev(ptr noundef nonnull align 8 dereferenceable(8) %agg.tmp105) #3
  br label %ehcleanup113

if.end110:                                        ; preds = %invoke.cont108, %if.end101
  %call112 = invoke noundef nonnull align 8 dereferenceable(16) ptr @_ZN4cvc58internal6theory2eq15EqClassIteratorppEv(ptr noundef nonnull align 8 dereferenceable(16) %it)
          to label %invoke.cont111 unwind label %lpad33

invoke.cont111:                                   ; preds = %if.end110
  call void @_ZN4cvc58internal12NodeTemplateILb1EED2Ev(ptr noundef nonnull align 8 dereferenceable(8) %n) #3
  br label %while.cond26, !llvm.loop !12

ehcleanup113:                                     ; preds = %lpad107, %lpad98, %lpad89, %ehcleanup82, %ehcleanup75, %cleanup.done59, %lpad33
  call void @_ZN4cvc58internal12NodeTemplateILb1EED2Ev(ptr noundef nonnull align 8 dereferenceable(8) %n) #3
  br label %ehcleanup131

while.end:                                        ; preds = %invoke.cont27
  %call116 = invoke noundef zeroext i1 @_ZN4cvc58internal11__cvc5_truecvbEv(ptr noundef nonnull align 1 dereferenceable(1) %ref.tmp114)
          to label %invoke.cont115 unwind label %lpad

invoke.cont115:                                   ; preds = %while.end
  br i1 %call116, label %cond.true117, label %cond.false120

cond.true117:                                     ; preds = %invoke.cont115
  invoke void @_ZNK4cvc58internal5NullCcvNS0_11Cvc5ostreamEEv(ptr sret(%"class.cvc5::internal::Cvc5ostream") align 8 %tmp118, ptr noundef nonnull align 1 dereferenceable(1) @_ZN4cvc58internal10nullStreamE)
          to label %invoke.cont119 unwind label %lpad

invoke.cont119:                                   ; preds = %cond.true117
  br label %cond.end128

cond.false120:                                    ; preds = %invoke.cont115
  invoke void @_ZNK4cvc58internal6TraceCclEv(ptr sret(%"class.cvc5::internal::Cvc5ostream") align 8 %ref.tmp122, ptr noundef nonnull align 8 dereferenceable(32) @_ZN4cvc58internal12TraceChannelE)
          to label %invoke.cont123 unwind label %lpad

invoke.cont123:                                   ; preds = %cond.false120
  %call125 = invoke noundef nonnull align 8 dereferenceable(24) ptr @_ZN4cvc58internal11Cvc5ostreamlsIA4_cEERS1_RKT_(ptr noundef nonnull align 8 dereferenceable(24) %ref.tmp122, ptr noundef nonnull align 1 dereferenceable(4) @.str.10)
          to label %invoke.cont124 unwind label %lpad

invoke.cont124:                                   ; preds = %invoke.cont123
  %call127 = invoke noundef nonnull align 8 dereferenceable(24) ptr @_ZN4cvc58internal11Cvc5ostreamlsEPFRSoS2_E(ptr noundef nonnull align 8 dereferenceable(24) %call125, ptr noundef @_ZSt4endlIcSt11char_traitsIcEERSt13basic_ostreamIT_T0_ES6_)
          to label %invoke.cont126 unwind label %lpad

invoke.cont126:                                   ; preds = %invoke.cont124
  call void @llvm.memcpy.p0.p0.i64(ptr align 8 %agg.tmp.ensured121, ptr align 8 %call127, i64 24, i1 false)
  br label %cond.end128

cond.end128:                                      ; preds = %invoke.cont126, %invoke.cont119
  %call130 = invoke noundef nonnull align 8 dereferenceable(16) ptr @_ZN4cvc58internal6theory2eq17EqClassesIteratorppEv(ptr noundef nonnull align 8 dereferenceable(16) %repIt)
          to label %invoke.cont129 unwind label %lpad

invoke.cont129:                                   ; preds = %cond.end128
  call void @_ZN4cvc58internal12NodeTemplateILb1EED2Ev(ptr noundef nonnull align 8 dereferenceable(8) %eqc) #3
  br label %while.cond, !llvm.loop !13

ehcleanup131:                                     ; preds = %ehcleanup113, %lpad24, %lpad20, %lpad15, %lpad
  call void @_ZN4cvc58internal12NodeTemplateILb1EED2Ev(ptr noundef nonnull align 8 dereferenceable(8) %eqc) #3
  br label %eh.resume

while.end132:                                     ; preds = %while.cond
  ret void

eh.resume:                                        ; preds = %ehcleanup131
  %exn = load ptr, ptr %exn.slot, align 8
  %sel = load i32, ptr %ehselector.slot, align 4
  %lpad.val = insertvalue { ptr, i32 } poison, ptr %exn, 0
  %lpad.val133 = insertvalue { ptr, i32 } %lpad.val, i32 %sel, 1
  resume { ptr, i32 } %lpad.val133
}

declare noundef ptr @_ZNK4cvc58internal6theory11TheoryState17getEqualityEngineEv(ptr noundef nonnull align 8 dereferenceable(80)) #1

declare void @_ZN4cvc58internal6theory2eq17EqClassesIteratorC1EPKNS2_14EqualityEngineE(ptr noundef nonnull align 8 dereferenceable(16), ptr noundef) unnamed_addr #1

declare noundef zeroext i1 @_ZNK4cvc58internal6theory2eq17EqClassesIterator10isFinishedEv(ptr noundef nonnull align 8 dereferenceable(16)) #1

declare void @_ZNK4cvc58internal6theory2eq17EqClassesIteratordeEv(ptr sret(%"class.cvc5::internal::NodeTemplate") align 8, ptr noundef nonnull align 8 dereferenceable(16)) #1

; Function Attrs: mustprogress uwtable
define linkonce_odr hidden noundef nonnull align 8 dereferenceable(24) ptr @_ZN4cvc58internal11Cvc5ostreamlsIA7_cEERS1_RKT_(ptr noundef nonnull align 8 dereferenceable(24) %this, ptr noundef nonnull align 1 dereferenceable(7) %t) #4 comdat align 2 {
entry:
  %this.addr = alloca ptr, align 8
  %t.addr = alloca ptr, align 8
  %indent = alloca i64, align 8
  %i = alloca i64, align 8
  store ptr %this, ptr %this.addr, align 8
  store ptr %t, ptr %t.addr, align 8
  %this1 = load ptr, ptr %this.addr, align 8
  %d_os = getelementptr inbounds %"class.cvc5::internal::Cvc5ostream", ptr %this1, i32 0, i32 0
  %0 = load ptr, ptr %d_os, align 8
  %cmp = icmp ne ptr %0, null
  br i1 %cmp, label %if.then, label %if.end11

if.then:                                          ; preds = %entry
  %d_firstColumn = getelementptr inbounds %"class.cvc5::internal::Cvc5ostream", ptr %this1, i32 0, i32 1
  %1 = load i8, ptr %d_firstColumn, align 8
  %tobool = trunc i8 %1 to i1
  br i1 %tobool, label %if.then2, label %if.end

if.then2:                                         ; preds = %if.then
  %d_firstColumn3 = getelementptr inbounds %"class.cvc5::internal::Cvc5ostream", ptr %this1, i32 0, i32 1
  store i8 0, ptr %d_firstColumn3, align 8
  %d_os4 = getelementptr inbounds %"class.cvc5::internal::Cvc5ostream", ptr %this1, i32 0, i32 0
  %2 = load ptr, ptr %d_os4, align 8
  %vtable = load ptr, ptr %2, align 8
  %vbase.offset.ptr = getelementptr i8, ptr %vtable, i64 -24
  %vbase.offset = load i64, ptr %vbase.offset.ptr, align 8
  %add.ptr = getelementptr inbounds i8, ptr %2, i64 %vbase.offset
  %3 = load i32, ptr @_ZN4cvc58internal11Cvc5ostream16s_indentIosIndexE, align 4
  %call = call noundef nonnull align 8 dereferenceable(8) ptr @_ZNSt8ios_base5iwordEi(ptr noundef nonnull align 8 dereferenceable(216) %add.ptr, i32 noundef %3)
  %4 = load i64, ptr %call, align 8
  store i64 %4, ptr %indent, align 8
  store i64 0, ptr %i, align 8
  br label %for.cond

for.cond:                                         ; preds = %for.inc, %if.then2
  %5 = load i64, ptr %i, align 8
  %6 = load i64, ptr %indent, align 8
  %cmp5 = icmp slt i64 %5, %6
  br i1 %cmp5, label %for.body, label %for.end

for.body:                                         ; preds = %for.cond
  %d_os6 = getelementptr inbounds %"class.cvc5::internal::Cvc5ostream", ptr %this1, i32 0, i32 0
  %7 = load ptr, ptr %d_os6, align 8
  %call7 = call noundef nonnull align 8 dereferenceable(8) ptr @_ZStlsIcSt11char_traitsIcESaIcEERSt13basic_ostreamIT_T0_ES7_RKNSt7__cxx1112basic_stringIS4_S5_T1_EE(ptr noundef nonnull align 8 dereferenceable(8) %7, ptr noundef nonnull align 8 dereferenceable(32) @_ZN4cvc58internal11Cvc5ostream5s_tabB5cxx11E)
  %d_os8 = getelementptr inbounds %"class.cvc5::internal::Cvc5ostream", ptr %this1, i32 0, i32 0
  store ptr %call7, ptr %d_os8, align 8
  br label %for.inc

for.inc:                                          ; preds = %for.body
  %8 = load i64, ptr %i, align 8
  %inc = add nsw i64 %8, 1
  store i64 %inc, ptr %i, align 8
  br label %for.cond, !llvm.loop !14

for.end:                                          ; preds = %for.cond
  br label %if.end

if.end:                                           ; preds = %for.end, %if.then
  %d_os9 = getelementptr inbounds %"class.cvc5::internal::Cvc5ostream", ptr %this1, i32 0, i32 0
  %9 = load ptr, ptr %d_os9, align 8
  %10 = load ptr, ptr %t.addr, align 8
  %arraydecay = getelementptr inbounds [7 x i8], ptr %10, i64 0, i64 0
  %call10 = call noundef nonnull align 8 dereferenceable(8) ptr @_ZStlsISt11char_traitsIcEERSt13basic_ostreamIcT_ES5_PKc(ptr noundef nonnull align 8 dereferenceable(8) %9, ptr noundef %arraydecay)
  br label %if.end11

if.end11:                                         ; preds = %if.end, %entry
  ret ptr %this1
}

declare noundef zeroext i1 @_ZNK4cvc58internal8TypeNode5isBagEv(ptr noundef nonnull align 8 dereferenceable(8)) #1

declare void @_ZN4cvc58internal6theory4bags11SolverState11registerBagENS0_12NodeTemplateILb0EEE(ptr noundef nonnull align 8 dereferenceable(408), ptr noundef) #1

declare void @_ZN4cvc58internal6theory2eq15EqClassIteratorC1ENS0_12NodeTemplateILb1EEEPKNS2_14EqualityEngineE(ptr noundef nonnull align 8 dereferenceable(16), ptr noundef, ptr noundef) unnamed_addr #1

declare noundef zeroext i1 @_ZNK4cvc58internal6theory2eq15EqClassIterator10isFinishedEv(ptr noundef nonnull align 8 dereferenceable(16)) #1

declare void @_ZNK4cvc58internal6theory2eq15EqClassIteratordeEv(ptr sret(%"class.cvc5::internal::NodeTemplate") align 8, ptr noundef nonnull align 8 dereferenceable(16)) #1

; Function Attrs: mustprogress uwtable
define linkonce_odr hidden noundef nonnull align 8 dereferenceable(24) ptr @_ZNSt3mapIN4cvc58internal4kind6Kind_tESt6vectorINS1_12NodeTemplateILb1EEESaIS6_EESt4lessIS3_ESaISt4pairIKS3_S8_EEEixEOS3_(ptr noundef nonnull align 8 dereferenceable(48) %this, ptr noundef nonnull align 4 dereferenceable(4) %__k) #4 comdat align 2 {
entry:
  %this.addr = alloca ptr, align 8
  %__k.addr = alloca ptr, align 8
  %__i = alloca %"struct.std::_Rb_tree_iterator.749", align 8
  %ref.tmp = alloca %"struct.std::_Rb_tree_iterator.749", align 8
  %ref.tmp5 = alloca %"struct.std::less.124", align 1
  %ref.tmp8 = alloca %"struct.std::_Rb_tree_iterator.749", align 8
  %agg.tmp = alloca %"struct.std::_Rb_tree_const_iterator.838", align 8
  %ref.tmp9 = alloca %"class.std::tuple.839", align 8
  %ref.tmp10 = alloca %"class.std::tuple.833", align 1
  store ptr %this, ptr %this.addr, align 8
  store ptr %__k, ptr %__k.addr, align 8
  %this1 = load ptr, ptr %this.addr, align 8
  %0 = load ptr, ptr %__k.addr, align 8
  %call = call ptr @_ZNSt3mapIN4cvc58internal4kind6Kind_tESt6vectorINS1_12NodeTemplateILb1EEESaIS6_EESt4lessIS3_ESaISt4pairIKS3_S8_EEE11lower_boundERSC_(ptr noundef nonnull align 8 dereferenceable(48) %this1, ptr noundef nonnull align 4 dereferenceable(4) %0)
  %coerce.dive = getelementptr inbounds %"struct.std::_Rb_tree_iterator.749", ptr %__i, i32 0, i32 0
  store ptr %call, ptr %coerce.dive, align 8
  %call2 = call ptr @_ZNSt3mapIN4cvc58internal4kind6Kind_tESt6vectorINS1_12NodeTemplateILb1EEESaIS6_EESt4lessIS3_ESaISt4pairIKS3_S8_EEE3endEv(ptr noundef nonnull align 8 dereferenceable(48) %this1) #3
  %coerce.dive3 = getelementptr inbounds %"struct.std::_Rb_tree_iterator.749", ptr %ref.tmp, i32 0, i32 0
  store ptr %call2, ptr %coerce.dive3, align 8
  %call4 = call noundef zeroext i1 @_ZSteqRKSt17_Rb_tree_iteratorISt4pairIKN4cvc58internal4kind6Kind_tESt6vectorINS2_12NodeTemplateILb1EEESaIS8_EEEESE_(ptr noundef nonnull align 8 dereferenceable(8) %__i, ptr noundef nonnull align 8 dereferenceable(8) %ref.tmp) #3
  br i1 %call4, label %lor.end, label %lor.rhs

lor.rhs:                                          ; preds = %entry
  call void @_ZNKSt3mapIN4cvc58internal4kind6Kind_tESt6vectorINS1_12NodeTemplateILb1EEESaIS6_EESt4lessIS3_ESaISt4pairIKS3_S8_EEE8key_compEv(ptr noundef nonnull align 8 dereferenceable(48) %this1)
  %1 = load ptr, ptr %__k.addr, align 8
  %call6 = call noundef nonnull align 8 dereferenceable(32) ptr @_ZNKSt17_Rb_tree_iteratorISt4pairIKN4cvc58internal4kind6Kind_tESt6vectorINS2_12NodeTemplateILb1EEESaIS8_EEEEdeEv(ptr noundef nonnull align 8 dereferenceable(8) %__i) #3
  %first = getelementptr inbounds %"struct.std::pair.750", ptr %call6, i32 0, i32 0
  %call7 = call noundef zeroext i1 @_ZNKSt4lessIN4cvc58internal4kind6Kind_tEEclERKS3_S6_(ptr noundef nonnull align 1 dereferenceable(1) %ref.tmp5, ptr noundef nonnull align 4 dereferenceable(4) %1, ptr noundef nonnull align 4 dereferenceable(4) %first)
  br label %lor.end

lor.end:                                          ; preds = %lor.rhs, %entry
  %2 = phi i1 [ true, %entry ], [ %call7, %lor.rhs ]
  br i1 %2, label %if.then, label %if.end

if.then:                                          ; preds = %lor.end
  %_M_t = getelementptr inbounds %"class.std::map.118", ptr %this1, i32 0, i32 0
  call void @_ZNSt23_Rb_tree_const_iteratorISt4pairIKN4cvc58internal4kind6Kind_tESt6vectorINS2_12NodeTemplateILb1EEESaIS8_EEEEC2ERKSt17_Rb_tree_iteratorISB_E(ptr noundef nonnull align 8 dereferenceable(8) %agg.tmp, ptr noundef nonnull align 8 dereferenceable(8) %__i) #3
  %3 = load ptr, ptr %__k.addr, align 8
  call void @_ZSt16forward_as_tupleIJN4cvc58internal4kind6Kind_tEEESt5tupleIJDpOT_EES7_(ptr sret(%"class.std::tuple.839") align 8 %ref.tmp9, ptr noundef nonnull align 4 dereferenceable(4) %3) #3
  %coerce.dive11 = getelementptr inbounds %"struct.std::_Rb_tree_const_iterator.838", ptr %agg.tmp, i32 0, i32 0
  %4 = load ptr, ptr %coerce.dive11, align 8
  %call12 = call ptr @_ZNSt8_Rb_treeIN4cvc58internal4kind6Kind_tESt4pairIKS3_St6vectorINS1_12NodeTemplateILb1EEESaIS8_EEESt10_Select1stISB_ESt4lessIS3_ESaISB_EE22_M_emplace_hint_uniqueIJRKSt21piecewise_construct_tSt5tupleIJOS3_EESM_IJEEEEESt17_Rb_tree_iteratorISB_ESt23_Rb_tree_const_iteratorISB_EDpOT_(ptr noundef nonnull align 8 dereferenceable(48) %_M_t, ptr %4, ptr noundef nonnull align 1 dereferenceable(1) @_ZSt19piecewise_construct, ptr noundef nonnull align 8 dereferenceable(8) %ref.tmp9, ptr noundef nonnull align 1 dereferenceable(1) %ref.tmp10)
  %coerce.dive13 = getelementptr inbounds %"struct.std::_Rb_tree_iterator.749", ptr %ref.tmp8, i32 0, i32 0
  store ptr %call12, ptr %coerce.dive13, align 8
  call void @llvm.memcpy.p0.p0.i64(ptr align 8 %__i, ptr align 8 %ref.tmp8, i64 8, i1 false)
  br label %if.end

if.end:                                           ; preds = %if.then, %lor.end
  %call14 = call noundef nonnull align 8 dereferenceable(32) ptr @_ZNKSt17_Rb_tree_iteratorISt4pairIKN4cvc58internal4kind6Kind_tESt6vectorINS2_12NodeTemplateILb1EEESaIS8_EEEEdeEv(ptr noundef nonnull align 8 dereferenceable(8) %__i) #3
  %second = getelementptr inbounds %"struct.std::pair.750", ptr %call14, i32 0, i32 1
  ret ptr %second
}

; Function Attrs: mustprogress nounwind uwtable
define linkonce_odr hidden noundef i32 @_ZNK4cvc58internal12NodeTemplateILb1EE7getKindEv(ptr noundef nonnull align 8 dereferenceable(8) %this) #6 comdat align 2 {
entry:
  %this.addr = alloca ptr, align 8
  store ptr %this, ptr %this.addr, align 8
  %this1 = load ptr, ptr %this.addr, align 8
  call void @_ZNK4cvc58internal12NodeTemplateILb1EE21assertTNodeNotExpiredEv(ptr noundef nonnull align 8 dereferenceable(8) %this1)
  %d_nv = getelementptr inbounds %"class.cvc5::internal::NodeTemplate", ptr %this1, i32 0, i32 0
  %0 = load ptr, ptr %d_nv, align 8
  %d_kind = getelementptr inbounds %"class.cvc5::internal::expr::NodeValue", ptr %0, i32 0, i32 1
  %bf.load = load i16, ptr %d_kind, align 8
  %bf.clear = and i16 %bf.load, 1023
  %bf.cast = zext i16 %bf.clear to i32
  ret i32 %bf.cast
}

; Function Attrs: mustprogress uwtable
define linkonce_odr hidden void @_ZNSt6vectorIN4cvc58internal12NodeTemplateILb1EEESaIS3_EE9push_backERKS3_(ptr noundef nonnull align 8 dereferenceable(24) %this, ptr noundef nonnull align 8 dereferenceable(8) %__x) #4 comdat align 2 {
entry:
  %this.addr = alloca ptr, align 8
  %__x.addr = alloca ptr, align 8
  %agg.tmp = alloca %"class.__gnu_cxx::__normal_iterator.748", align 8
  store ptr %this, ptr %this.addr, align 8
  store ptr %__x, ptr %__x.addr, align 8
  %this1 = load ptr, ptr %this.addr, align 8
  %_M_impl = getelementptr inbounds %"struct.std::_Vector_base.458", ptr %this1, i32 0, i32 0
  %_M_finish = getelementptr inbounds %"struct.std::_Vector_base<cvc5::internal::NodeTemplate<true>, std::allocator<cvc5::internal::NodeTemplate<true>>>::_Vector_impl_data", ptr %_M_impl, i32 0, i32 1
  %0 = load ptr, ptr %_M_finish, align 8
  %_M_impl2 = getelementptr inbounds %"struct.std::_Vector_base.458", ptr %this1, i32 0, i32 0
  %_M_end_of_storage = getelementptr inbounds %"struct.std::_Vector_base<cvc5::internal::NodeTemplate<true>, std::allocator<cvc5::internal::NodeTemplate<true>>>::_Vector_impl_data", ptr %_M_impl2, i32 0, i32 2
  %1 = load ptr, ptr %_M_end_of_storage, align 8
  %cmp = icmp ne ptr %0, %1
  br i1 %cmp, label %if.then, label %if.else

if.then:                                          ; preds = %entry
  %_M_impl3 = getelementptr inbounds %"struct.std::_Vector_base.458", ptr %this1, i32 0, i32 0
  %_M_impl4 = getelementptr inbounds %"struct.std::_Vector_base.458", ptr %this1, i32 0, i32 0
  %_M_finish5 = getelementptr inbounds %"struct.std::_Vector_base<cvc5::internal::NodeTemplate<true>, std::allocator<cvc5::internal::NodeTemplate<true>>>::_Vector_impl_data", ptr %_M_impl4, i32 0, i32 1
  %2 = load ptr, ptr %_M_finish5, align 8
  %3 = load ptr, ptr %__x.addr, align 8
  call void @_ZNSt16allocator_traitsISaIN4cvc58internal12NodeTemplateILb1EEEEE9constructIS3_JRKS3_EEEvRS4_PT_DpOT0_(ptr noundef nonnull align 1 dereferenceable(1) %_M_impl3, ptr noundef %2, ptr noundef nonnull align 8 dereferenceable(8) %3)
  %_M_impl6 = getelementptr inbounds %"struct.std::_Vector_base.458", ptr %this1, i32 0, i32 0
  %_M_finish7 = getelementptr inbounds %"struct.std::_Vector_base<cvc5::internal::NodeTemplate<true>, std::allocator<cvc5::internal::NodeTemplate<true>>>::_Vector_impl_data", ptr %_M_impl6, i32 0, i32 1
  %4 = load ptr, ptr %_M_finish7, align 8
  %incdec.ptr = getelementptr inbounds %"class.cvc5::internal::NodeTemplate", ptr %4, i32 1
  store ptr %incdec.ptr, ptr %_M_finish7, align 8
  br label %if.end

if.else:                                          ; preds = %entry
  %call = call ptr @_ZNSt6vectorIN4cvc58internal12NodeTemplateILb1EEESaIS3_EE3endEv(ptr noundef nonnull align 8 dereferenceable(24) %this1) #3
  %coerce.dive = getelementptr inbounds %"class.__gnu_cxx::__normal_iterator.748", ptr %agg.tmp, i32 0, i32 0
  store ptr %call, ptr %coerce.dive, align 8
  %5 = load ptr, ptr %__x.addr, align 8
  %coerce.dive8 = getelementptr inbounds %"class.__gnu_cxx::__normal_iterator.748", ptr %agg.tmp, i32 0, i32 0
  %6 = load ptr, ptr %coerce.dive8, align 8
  call void @_ZNSt6vectorIN4cvc58internal12NodeTemplateILb1EEESaIS3_EE17_M_realloc_insertIJRKS3_EEEvN9__gnu_cxx17__normal_iteratorIPS3_S5_EEDpOT_(ptr noundef nonnull align 8 dereferenceable(24) %this1, ptr %6, ptr noundef nonnull align 8 dereferenceable(8) %5)
  br label %if.end

if.end:                                           ; preds = %if.else, %if.then
  ret void
}

; Function Attrs: mustprogress uwtable
define linkonce_odr hidden noundef nonnull align 8 dereferenceable(24) ptr @_ZN4cvc58internal11Cvc5ostreamlsIA2_cEERS1_RKT_(ptr noundef nonnull align 8 dereferenceable(24) %this, ptr noundef nonnull align 1 dereferenceable(2) %t) #4 comdat align 2 {
entry:
  %this.addr = alloca ptr, align 8
  %t.addr = alloca ptr, align 8
  %indent = alloca i64, align 8
  %i = alloca i64, align 8
  store ptr %this, ptr %this.addr, align 8
  store ptr %t, ptr %t.addr, align 8
  %this1 = load ptr, ptr %this.addr, align 8
  %d_os = getelementptr inbounds %"class.cvc5::internal::Cvc5ostream", ptr %this1, i32 0, i32 0
  %0 = load ptr, ptr %d_os, align 8
  %cmp = icmp ne ptr %0, null
  br i1 %cmp, label %if.then, label %if.end11

if.then:                                          ; preds = %entry
  %d_firstColumn = getelementptr inbounds %"class.cvc5::internal::Cvc5ostream", ptr %this1, i32 0, i32 1
  %1 = load i8, ptr %d_firstColumn, align 8
  %tobool = trunc i8 %1 to i1
  br i1 %tobool, label %if.then2, label %if.end

if.then2:                                         ; preds = %if.then
  %d_firstColumn3 = getelementptr inbounds %"class.cvc5::internal::Cvc5ostream", ptr %this1, i32 0, i32 1
  store i8 0, ptr %d_firstColumn3, align 8
  %d_os4 = getelementptr inbounds %"class.cvc5::internal::Cvc5ostream", ptr %this1, i32 0, i32 0
  %2 = load ptr, ptr %d_os4, align 8
  %vtable = load ptr, ptr %2, align 8
  %vbase.offset.ptr = getelementptr i8, ptr %vtable, i64 -24
  %vbase.offset = load i64, ptr %vbase.offset.ptr, align 8
  %add.ptr = getelementptr inbounds i8, ptr %2, i64 %vbase.offset
  %3 = load i32, ptr @_ZN4cvc58internal11Cvc5ostream16s_indentIosIndexE, align 4
  %call = call noundef nonnull align 8 dereferenceable(8) ptr @_ZNSt8ios_base5iwordEi(ptr noundef nonnull align 8 dereferenceable(216) %add.ptr, i32 noundef %3)
  %4 = load i64, ptr %call, align 8
  store i64 %4, ptr %indent, align 8
  store i64 0, ptr %i, align 8
  br label %for.cond

for.cond:                                         ; preds = %for.inc, %if.then2
  %5 = load i64, ptr %i, align 8
  %6 = load i64, ptr %indent, align 8
  %cmp5 = icmp slt i64 %5, %6
  br i1 %cmp5, label %for.body, label %for.end

for.body:                                         ; preds = %for.cond
  %d_os6 = getelementptr inbounds %"class.cvc5::internal::Cvc5ostream", ptr %this1, i32 0, i32 0
  %7 = load ptr, ptr %d_os6, align 8
  %call7 = call noundef nonnull align 8 dereferenceable(8) ptr @_ZStlsIcSt11char_traitsIcESaIcEERSt13basic_ostreamIT_T0_ES7_RKNSt7__cxx1112basic_stringIS4_S5_T1_EE(ptr noundef nonnull align 8 dereferenceable(8) %7, ptr noundef nonnull align 8 dereferenceable(32) @_ZN4cvc58internal11Cvc5ostream5s_tabB5cxx11E)
  %d_os8 = getelementptr inbounds %"class.cvc5::internal::Cvc5ostream", ptr %this1, i32 0, i32 0
  store ptr %call7, ptr %d_os8, align 8
  br label %for.inc

for.inc:                                          ; preds = %for.body
  %8 = load i64, ptr %i, align 8
  %inc = add nsw i64 %8, 1
  store i64 %inc, ptr %i, align 8
  br label %for.cond, !llvm.loop !15

for.end:                                          ; preds = %for.cond
  br label %if.end

if.end:                                           ; preds = %for.end, %if.then
  %d_os9 = getelementptr inbounds %"class.cvc5::internal::Cvc5ostream", ptr %this1, i32 0, i32 0
  %9 = load ptr, ptr %d_os9, align 8
  %10 = load ptr, ptr %t.addr, align 8
  %arraydecay = getelementptr inbounds [2 x i8], ptr %10, i64 0, i64 0
  %call10 = call noundef nonnull align 8 dereferenceable(8) ptr @_ZStlsISt11char_traitsIcEERSt13basic_ostreamIcT_ES5_PKc(ptr noundef nonnull align 8 dereferenceable(8) %9, ptr noundef %arraydecay)
  br label %if.end11

if.end11:                                         ; preds = %if.end, %entry
  ret ptr %this1
}

declare void @_ZN4cvc58internal6theory4bags18InferenceGenerator17registerCountTermENS0_12NodeTemplateILb1EEE(ptr noundef nonnull align 8 dereferenceable(56), ptr noundef) #1

declare void @_ZN4cvc58internal6theory4bags18InferenceGenerator23registerCardinalityTermENS0_12NodeTemplateILb1EEE(ptr noundef nonnull align 8 dereferenceable(56), ptr noundef) #1

declare void @_ZN4cvc58internal6theory4bags11SolverState17registerGroupTermENS0_12NodeTemplateILb1EEE(ptr noundef nonnull align 8 dereferenceable(408), ptr noundef) #1

declare noundef nonnull align 8 dereferenceable(16) ptr @_ZN4cvc58internal6theory2eq15EqClassIteratorppEv(ptr noundef nonnull align 8 dereferenceable(16)) #1

; Function Attrs: mustprogress uwtable
define linkonce_odr hidden noundef nonnull align 8 dereferenceable(24) ptr @_ZN4cvc58internal11Cvc5ostreamlsIA4_cEERS1_RKT_(ptr noundef nonnull align 8 dereferenceable(24) %this, ptr noundef nonnull align 1 dereferenceable(4) %t) #4 comdat align 2 {
entry:
  %this.addr = alloca ptr, align 8
  %t.addr = alloca ptr, align 8
  %indent = alloca i64, align 8
  %i = alloca i64, align 8
  store ptr %this, ptr %this.addr, align 8
  store ptr %t, ptr %t.addr, align 8
  %this1 = load ptr, ptr %this.addr, align 8
  %d_os = getelementptr inbounds %"class.cvc5::internal::Cvc5ostream", ptr %this1, i32 0, i32 0
  %0 = load ptr, ptr %d_os, align 8
  %cmp = icmp ne ptr %0, null
  br i1 %cmp, label %if.then, label %if.end11

if.then:                                          ; preds = %entry
  %d_firstColumn = getelementptr inbounds %"class.cvc5::internal::Cvc5ostream", ptr %this1, i32 0, i32 1
  %1 = load i8, ptr %d_firstColumn, align 8
  %tobool = trunc i8 %1 to i1
  br i1 %tobool, label %if.then2, label %if.end

if.then2:                                         ; preds = %if.then
  %d_firstColumn3 = getelementptr inbounds %"class.cvc5::internal::Cvc5ostream", ptr %this1, i32 0, i32 1
  store i8 0, ptr %d_firstColumn3, align 8
  %d_os4 = getelementptr inbounds %"class.cvc5::internal::Cvc5ostream", ptr %this1, i32 0, i32 0
  %2 = load ptr, ptr %d_os4, align 8
  %vtable = load ptr, ptr %2, align 8
  %vbase.offset.ptr = getelementptr i8, ptr %vtable, i64 -24
  %vbase.offset = load i64, ptr %vbase.offset.ptr, align 8
  %add.ptr = getelementptr inbounds i8, ptr %2, i64 %vbase.offset
  %3 = load i32, ptr @_ZN4cvc58internal11Cvc5ostream16s_indentIosIndexE, align 4
  %call = call noundef nonnull align 8 dereferenceable(8) ptr @_ZNSt8ios_base5iwordEi(ptr noundef nonnull align 8 dereferenceable(216) %add.ptr, i32 noundef %3)
  %4 = load i64, ptr %call, align 8
  store i64 %4, ptr %indent, align 8
  store i64 0, ptr %i, align 8
  br label %for.cond

for.cond:                                         ; preds = %for.inc, %if.then2
  %5 = load i64, ptr %i, align 8
  %6 = load i64, ptr %indent, align 8
  %cmp5 = icmp slt i64 %5, %6
  br i1 %cmp5, label %for.body, label %for.end

for.body:                                         ; preds = %for.cond
  %d_os6 = getelementptr inbounds %"class.cvc5::internal::Cvc5ostream", ptr %this1, i32 0, i32 0
  %7 = load ptr, ptr %d_os6, align 8
  %call7 = call noundef nonnull align 8 dereferenceable(8) ptr @_ZStlsIcSt11char_traitsIcESaIcEERSt13basic_ostreamIT_T0_ES7_RKNSt7__cxx1112basic_stringIS4_S5_T1_EE(ptr noundef nonnull align 8 dereferenceable(8) %7, ptr noundef nonnull align 8 dereferenceable(32) @_ZN4cvc58internal11Cvc5ostream5s_tabB5cxx11E)
  %d_os8 = getelementptr inbounds %"class.cvc5::internal::Cvc5ostream", ptr %this1, i32 0, i32 0
  store ptr %call7, ptr %d_os8, align 8
  br label %for.inc

for.inc:                                          ; preds = %for.body
  %8 = load i64, ptr %i, align 8
  %inc = add nsw i64 %8, 1
  store i64 %inc, ptr %i, align 8
  br label %for.cond, !llvm.loop !16

for.end:                                          ; preds = %for.cond
  br label %if.end

if.end:                                           ; preds = %for.end, %if.then
  %d_os9 = getelementptr inbounds %"class.cvc5::internal::Cvc5ostream", ptr %this1, i32 0, i32 0
  %9 = load ptr, ptr %d_os9, align 8
  %10 = load ptr, ptr %t.addr, align 8
  %arraydecay = getelementptr inbounds [4 x i8], ptr %10, i64 0, i64 0
  %call10 = call noundef nonnull align 8 dereferenceable(8) ptr @_ZStlsISt11char_traitsIcEERSt13basic_ostreamIcT_ES5_PKc(ptr noundef nonnull align 8 dereferenceable(8) %9, ptr noundef %arraydecay)
  br label %if.end11

if.end11:                                         ; preds = %if.end, %entry
  ret ptr %this1
}

declare noundef nonnull align 8 dereferenceable(16) ptr @_ZN4cvc58internal6theory2eq17EqClassesIteratorppEv(ptr noundef nonnull align 8 dereferenceable(16)) #1

; Function Attrs: mustprogress uwtable
define hidden void @_ZN4cvc58internal6theory4bags10TheoryBags9postCheckENS1_6Theory6EffortE(ptr noundef nonnull align 8 dereferenceable(2192) %this, i32 noundef %effort) unnamed_addr #4 align 2 personality ptr @__gxx_personality_v0 {
entry:
  %this.addr = alloca ptr, align 8
  %effort.addr = alloca i32, align 4
  %ref.tmp = alloca %"class.cvc5::internal::__cvc5_true", align 1
  %tmp = alloca %"class.cvc5::internal::Cvc5ostream", align 8
  %agg.tmp.ensured = alloca %"class.cvc5::internal::Cvc5ostream", align 8
  %ref.tmp6 = alloca %"class.cvc5::internal::Cvc5ostream", align 8
  %sentLemma = alloca i8, align 1
  %hadPending = alloca i8, align 1
  %ref.tmp10 = alloca %"class.cvc5::internal::__cvc5_true", align 1
  %tmp13 = alloca %"class.cvc5::internal::Cvc5ostream", align 8
  %agg.tmp.ensured15 = alloca %"class.cvc5::internal::Cvc5ostream", align 8
  %ref.tmp16 = alloca %"class.cvc5::internal::Cvc5ostream", align 8
  %ref.tmp21 = alloca %"class.cvc5::internal::__cvc5_true", align 1
  %tmp24 = alloca %"class.cvc5::internal::Cvc5ostream", align 8
  %agg.tmp.ensured26 = alloca %"class.cvc5::internal::Cvc5ostream", align 8
  %ref.tmp27 = alloca %"class.cvc5::internal::Cvc5ostream", align 8
  %ref.tmp37 = alloca %"class.cvc5::internal::__cvc5_true", align 1
  %ref.tmp41 = alloca %"class.std::__cxx11::basic_string", align 8
  %ref.tmp42 = alloca %"class.std::allocator", align 1
  %cleanup.cond = alloca i1, align 1
  %exn.slot = alloca ptr, align 8
  %ehselector.slot = alloca i32, align 4
  %cleanup.cond43 = alloca i1, align 1
  %ref.tmp58 = alloca %"class.cvc5::internal::__cvc5_true", align 1
  %tmp61 = alloca %"class.cvc5::internal::Cvc5ostream", align 8
  %agg.tmp.ensured63 = alloca %"class.cvc5::internal::Cvc5ostream", align 8
  %ref.tmp64 = alloca %"class.cvc5::internal::Cvc5ostream", align 8
  %ref.tmp67 = alloca %"class.cvc5::internal::__cvc5_true", align 1
  %tmp70 = alloca %"class.cvc5::internal::Cvc5ostream", align 8
  %agg.tmp.ensured72 = alloca %"class.cvc5::internal::Cvc5ostream", align 8
  %ref.tmp73 = alloca %"class.cvc5::internal::Cvc5ostream", align 8
  %ref.tmp74 = alloca ptr, align 8
  %ref.tmp78 = alloca %"class.cvc5::internal::__cvc5_true", align 1
  %tmp81 = alloca %"class.cvc5::internal::Cvc5ostream", align 8
  %agg.tmp.ensured83 = alloca %"class.cvc5::internal::Cvc5ostream", align 8
  %ref.tmp84 = alloca %"class.cvc5::internal::Cvc5ostream", align 8
  %ref.tmp85 = alloca ptr, align 8
  %ref.tmp90 = alloca %"class.cvc5::internal::__cvc5_true", align 1
  %tmp93 = alloca %"class.cvc5::internal::Cvc5ostream", align 8
  %agg.tmp.ensured95 = alloca %"class.cvc5::internal::Cvc5ostream", align 8
  %ref.tmp96 = alloca %"class.cvc5::internal::Cvc5ostream", align 8
  %ref.tmp97 = alloca ptr, align 8
  %ref.tmp110 = alloca %"class.cvc5::internal::__cvc5_true", align 1
  %tmp113 = alloca %"class.cvc5::internal::Cvc5ostream", align 8
  %agg.tmp.ensured115 = alloca %"class.cvc5::internal::Cvc5ostream", align 8
  %ref.tmp116 = alloca %"class.cvc5::internal::Cvc5ostream", align 8
  %ref.tmp119 = alloca %"class.cvc5::internal::__cvc5_true", align 1
  %tmp122 = alloca %"class.cvc5::internal::Cvc5ostream", align 8
  %agg.tmp.ensured124 = alloca %"class.cvc5::internal::Cvc5ostream", align 8
  %ref.tmp125 = alloca %"class.cvc5::internal::Cvc5ostream", align 8
  %ref.tmp135 = alloca %"class.cvc5::internal::__cvc5_true", align 1
  %tmp138 = alloca %"class.cvc5::internal::Cvc5ostream", align 8
  %agg.tmp.ensured140 = alloca %"class.cvc5::internal::Cvc5ostream", align 8
  %ref.tmp141 = alloca %"class.cvc5::internal::Cvc5ostream", align 8
  store ptr %this, ptr %this.addr, align 8
  store i32 %effort, ptr %effort.addr, align 4
  %this1 = load ptr, ptr %this.addr, align 8
  %d_im = getelementptr inbounds %"class.cvc5::internal::theory::bags::TheoryBags", ptr %this1, i32 0, i32 2
  call void @_ZN4cvc58internal6theory24InferenceManagerBuffered14doPendingFactsEv(ptr noundef nonnull align 8 dereferenceable(353) %d_im)
  %d_state = getelementptr inbounds %"class.cvc5::internal::theory::bags::TheoryBags", ptr %this1, i32 0, i32 1
  %call = call noundef zeroext i1 @_ZNK4cvc58internal6theory11TheoryState12isInConflictEv(ptr noundef nonnull align 8 dereferenceable(80) %d_state)
  br i1 %call, label %if.end134, label %land.lhs.true

land.lhs.true:                                    ; preds = %entry
  %d_valuation = getelementptr inbounds %"class.cvc5::internal::theory::Theory", ptr %this1, i32 0, i32 6
  %call2 = call noundef zeroext i1 @_ZNK4cvc58internal6theory9Valuation9needCheckEv(ptr noundef nonnull align 8 dereferenceable(8) %d_valuation)
  br i1 %call2, label %if.end134, label %land.lhs.true3

land.lhs.true3:                                   ; preds = %land.lhs.true
  %d_strat = getelementptr inbounds %"class.cvc5::internal::theory::bags::TheoryBags", ptr %this1, i32 0, i32 12
  %0 = load i32, ptr %effort.addr, align 4
  %call4 = call noundef zeroext i1 @_ZNK4cvc58internal6theory4bags8Strategy17hasStrategyEffortENS1_6Theory6EffortE(ptr noundef nonnull align 8 dereferenceable(80) %d_strat, i32 noundef %0)
  br i1 %call4, label %if.then, label %if.end134

if.then:                                          ; preds = %land.lhs.true3
  %call5 = call noundef zeroext i1 @_ZN4cvc58internal11__cvc5_truecvbEv(ptr noundef nonnull align 1 dereferenceable(1) %ref.tmp)
  br i1 %call5, label %cond.true, label %cond.false

cond.true:                                        ; preds = %if.then
  call void @_ZNK4cvc58internal5NullCcvNS0_11Cvc5ostreamEEv(ptr sret(%"class.cvc5::internal::Cvc5ostream") align 8 %tmp, ptr noundef nonnull align 1 dereferenceable(1) @_ZN4cvc58internal10nullStreamE)
  br label %cond.end

cond.false:                                       ; preds = %if.then
  call void @_ZNK4cvc58internal6TraceCclEv(ptr sret(%"class.cvc5::internal::Cvc5ostream") align 8 %ref.tmp6, ptr noundef nonnull align 8 dereferenceable(32) @_ZN4cvc58internal12TraceChannelE)
  %call7 = call noundef nonnull align 8 dereferenceable(24) ptr @_ZN4cvc58internal11Cvc5ostreamlsIA9_cEERS1_RKT_(ptr noundef nonnull align 8 dereferenceable(24) %ref.tmp6, ptr noundef nonnull align 1 dereferenceable(9) @.str.11)
  %call8 = call noundef nonnull align 8 dereferenceable(24) ptr @_ZN4cvc58internal11Cvc5ostreamlsINS0_6theory6Theory6EffortEEERS1_RKT_(ptr noundef nonnull align 8 dereferenceable(24) %call7, ptr noundef nonnull align 4 dereferenceable(4) %effort.addr)
  %call9 = call noundef nonnull align 8 dereferenceable(24) ptr @_ZN4cvc58internal11Cvc5ostreamlsEPFRSoS2_E(ptr noundef nonnull align 8 dereferenceable(24) %call8, ptr noundef @_ZSt4endlIcSt11char_traitsIcEERSt13basic_ostreamIT_T0_ES6_)
  call void @llvm.memcpy.p0.p0.i64(ptr align 8 %agg.tmp.ensured, ptr align 8 %call9, i64 24, i1 false)
  br label %cond.end

cond.end:                                         ; preds = %cond.false, %cond.true
  store i8 0, ptr %sentLemma, align 1
  store i8 0, ptr %hadPending, align 1
  %call11 = call noundef zeroext i1 @_ZN4cvc58internal11__cvc5_truecvbEv(ptr noundef nonnull align 1 dereferenceable(1) %ref.tmp10)
  br i1 %call11, label %cond.true12, label %cond.false14

cond.true12:                                      ; preds = %cond.end
  call void @_ZNK4cvc58internal5NullCcvNS0_11Cvc5ostreamEEv(ptr sret(%"class.cvc5::internal::Cvc5ostream") align 8 %tmp13, ptr noundef nonnull align 1 dereferenceable(1) @_ZN4cvc58internal10nullStreamE)
  br label %cond.end19

cond.false14:                                     ; preds = %cond.end
  call void @_ZNK4cvc58internal6TraceCclEv(ptr sret(%"class.cvc5::internal::Cvc5ostream") align 8 %ref.tmp16, ptr noundef nonnull align 8 dereferenceable(32) @_ZN4cvc58internal12TraceChannelE)
  %call17 = call noundef nonnull align 8 dereferenceable(24) ptr @_ZN4cvc58internal11Cvc5ostreamlsIA21_cEERS1_RKT_(ptr noundef nonnull align 8 dereferenceable(24) %ref.tmp16, ptr noundef nonnull align 1 dereferenceable(21) @.str.12)
  %call18 = call noundef nonnull align 8 dereferenceable(24) ptr @_ZN4cvc58internal11Cvc5ostreamlsEPFRSoS2_E(ptr noundef nonnull align 8 dereferenceable(24) %call17, ptr noundef @_ZSt4endlIcSt11char_traitsIcEERSt13basic_ostreamIT_T0_ES6_)
  call void @llvm.memcpy.p0.p0.i64(ptr align 8 %agg.tmp.ensured15, ptr align 8 %call18, i64 24, i1 false)
  br label %cond.end19

cond.end19:                                       ; preds = %cond.false14, %cond.true12
  br label %do.body

do.body:                                          ; preds = %land.end, %cond.end19
  %d_im20 = getelementptr inbounds %"class.cvc5::internal::theory::bags::TheoryBags", ptr %this1, i32 0, i32 2
  call void @_ZN4cvc58internal6theory22TheoryInferenceManager5resetEv(ptr noundef nonnull align 8 dereferenceable(256) %d_im20)
  %call22 = call noundef zeroext i1 @_ZN4cvc58internal11__cvc5_truecvbEv(ptr noundef nonnull align 1 dereferenceable(1) %ref.tmp21)
  br i1 %call22, label %cond.true23, label %cond.false25

cond.true23:                                      ; preds = %do.body
  call void @_ZNK4cvc58internal5NullCcvNS0_11Cvc5ostreamEEv(ptr sret(%"class.cvc5::internal::Cvc5ostream") align 8 %tmp24, ptr noundef nonnull align 1 dereferenceable(1) @_ZN4cvc58internal10nullStreamE)
  br label %cond.end30

cond.false25:                                     ; preds = %do.body
  call void @_ZNK4cvc58internal6TraceCclEv(ptr sret(%"class.cvc5::internal::Cvc5ostream") align 8 %ref.tmp27, ptr noundef nonnull align 8 dereferenceable(32) @_ZN4cvc58internal12TraceChannelE)
  %call28 = call noundef nonnull align 8 dereferenceable(24) ptr @_ZN4cvc58internal11Cvc5ostreamlsIA20_cEERS1_RKT_(ptr noundef nonnull align 8 dereferenceable(24) %ref.tmp27, ptr noundef nonnull align 1 dereferenceable(20) @.str.13)
  %call29 = call noundef nonnull align 8 dereferenceable(24) ptr @_ZN4cvc58internal11Cvc5ostreamlsEPFRSoS2_E(ptr noundef nonnull align 8 dereferenceable(24) %call28, ptr noundef @_ZSt4endlIcSt11char_traitsIcEERSt13basic_ostreamIT_T0_ES6_)
  call void @llvm.memcpy.p0.p0.i64(ptr align 8 %agg.tmp.ensured26, ptr align 8 %call29, i64 24, i1 false)
  br label %cond.end30

cond.end30:                                       ; preds = %cond.false25, %cond.true23
  call void @_ZN4cvc58internal6theory4bags10TheoryBags10initializeEv(ptr noundef nonnull align 8 dereferenceable(2192) %this1)
  %d_cardSolver = getelementptr inbounds %"class.cvc5::internal::theory::bags::TheoryBags", ptr %this1, i32 0, i32 9
  call void @_ZN4cvc58internal6theory4bags10CardSolver5resetEv(ptr noundef nonnull align 8 dereferenceable(176) %d_cardSolver)
  %1 = load i32, ptr %effort.addr, align 4
  call void @_ZN4cvc58internal6theory4bags10TheoryBags11runStrategyENS1_6Theory6EffortE(ptr noundef nonnull align 8 dereferenceable(2192) %this1, i32 noundef %1)
  %d_im31 = getelementptr inbounds %"class.cvc5::internal::theory::bags::TheoryBags", ptr %this1, i32 0, i32 2
  %call32 = call noundef zeroext i1 @_ZNK4cvc58internal6theory24InferenceManagerBuffered10hasPendingEv(ptr noundef nonnull align 8 dereferenceable(353) %d_im31)
  %frombool = zext i1 %call32 to i8
  store i8 %frombool, ptr %hadPending, align 1
  %d_im33 = getelementptr inbounds %"class.cvc5::internal::theory::bags::TheoryBags", ptr %this1, i32 0, i32 2
  call void @_ZN4cvc58internal6theory4bags16InferenceManager9doPendingEv(ptr noundef nonnull align 8 dereferenceable(384) %d_im33)
  %d_im34 = getelementptr inbounds %"class.cvc5::internal::theory::bags::TheoryBags", ptr %this1, i32 0, i32 2
  %call35 = call noundef zeroext i1 @_ZNK4cvc58internal6theory22TheoryInferenceManager12hasSentLemmaEv(ptr noundef nonnull align 8 dereferenceable(256) %d_im34)
  %frombool36 = zext i1 %call35 to i8
  store i8 %frombool36, ptr %sentLemma, align 1
  %call38 = call noundef zeroext i1 @_ZN4cvc58internal11__cvc5_truecvbEv(ptr noundef nonnull align 1 dereferenceable(1) %ref.tmp37)
  store i1 false, ptr %cleanup.cond, align 1
  store i1 false, ptr %cleanup.cond43, align 1
  br i1 %call38, label %cond.true39, label %cond.false40

cond.true39:                                      ; preds = %cond.end30
  br label %cond.end47

cond.false40:                                     ; preds = %cond.end30
  call void @_ZNSaIcEC1Ev(ptr noundef nonnull align 1 dereferenceable(1) %ref.tmp42) #3
  store i1 true, ptr %cleanup.cond, align 1
  invoke void @_ZNSt7__cxx1112basic_stringIcSt11char_traitsIcESaIcEEC2IS3_EEPKcRKS3_(ptr noundef nonnull align 8 dereferenceable(32) %ref.tmp41, ptr noundef @.str.14, ptr noundef nonnull align 1 dereferenceable(1) %ref.tmp42)
          to label %invoke.cont unwind label %lpad

invoke.cont:                                      ; preds = %cond.false40
  store i1 true, ptr %cleanup.cond43, align 1
  %call46 = invoke noundef zeroext i1 @_ZNK4cvc58internal6TraceC4isOnERKNSt7__cxx1112basic_stringIcSt11char_traitsIcESaIcEEE(ptr noundef nonnull align 8 dereferenceable(32) @_ZN4cvc58internal12TraceChannelE, ptr noundef nonnull align 8 dereferenceable(32) %ref.tmp41)
          to label %invoke.cont45 unwind label %lpad44

invoke.cont45:                                    ; preds = %invoke.cont
  br label %cond.end47

cond.end47:                                       ; preds = %invoke.cont45, %cond.true39
  %cond = phi i1 [ false, %cond.true39 ], [ %call46, %invoke.cont45 ]
  %cleanup.is_active = load i1, ptr %cleanup.cond43, align 1
  br i1 %cleanup.is_active, label %cleanup.action, label %cleanup.done

cleanup.action:                                   ; preds = %cond.end47
  call void @_ZNSt7__cxx1112basic_stringIcSt11char_traitsIcESaIcEED1Ev(ptr noundef nonnull align 8 dereferenceable(32) %ref.tmp41) #3
  br label %cleanup.done

cleanup.done:                                     ; preds = %cleanup.action, %cond.end47
  %cleanup.is_active51 = load i1, ptr %cleanup.cond, align 1
  br i1 %cleanup.is_active51, label %cleanup.action52, label %cleanup.done53

cleanup.action52:                                 ; preds = %cleanup.done
  call void @_ZNSaIcED1Ev(ptr noundef nonnull align 1 dereferenceable(1) %ref.tmp42) #3
  br label %cleanup.done53

cleanup.done53:                                   ; preds = %cleanup.action52, %cleanup.done
  br i1 %cond, label %if.then57, label %if.end128

if.then57:                                        ; preds = %cleanup.done53
  %call59 = call noundef zeroext i1 @_ZN4cvc58internal11__cvc5_truecvbEv(ptr noundef nonnull align 1 dereferenceable(1) %ref.tmp58)
  br i1 %call59, label %cond.true60, label %cond.false62

cond.true60:                                      ; preds = %if.then57
  call void @_ZNK4cvc58internal5NullCcvNS0_11Cvc5ostreamEEv(ptr sret(%"class.cvc5::internal::Cvc5ostream") align 8 %tmp61, ptr noundef nonnull align 1 dereferenceable(1) @_ZN4cvc58internal10nullStreamE)
  br label %cond.end66

cond.false62:                                     ; preds = %if.then57
  call void @_ZNK4cvc58internal6TraceCclEv(ptr sret(%"class.cvc5::internal::Cvc5ostream") align 8 %ref.tmp64, ptr noundef nonnull align 8 dereferenceable(32) @_ZN4cvc58internal12TraceChannelE)
  %call65 = call noundef nonnull align 8 dereferenceable(24) ptr @_ZN4cvc58internal11Cvc5ostreamlsIA27_cEERS1_RKT_(ptr noundef nonnull align 8 dereferenceable(24) %ref.tmp64, ptr noundef nonnull align 1 dereferenceable(27) @.str.15)
  call void @llvm.memcpy.p0.p0.i64(ptr align 8 %agg.tmp.ensured63, ptr align 8 %call65, i64 24, i1 false)
  br label %cond.end66

cond.end66:                                       ; preds = %cond.false62, %cond.true60
  %call68 = call noundef zeroext i1 @_ZN4cvc58internal11__cvc5_truecvbEv(ptr noundef nonnull align 1 dereferenceable(1) %ref.tmp67)
  br i1 %call68, label %cond.true69, label %cond.false71

cond.true69:                                      ; preds = %cond.end66
  call void @_ZNK4cvc58internal5NullCcvNS0_11Cvc5ostreamEEv(ptr sret(%"class.cvc5::internal::Cvc5ostream") align 8 %tmp70, ptr noundef nonnull align 1 dereferenceable(1) @_ZN4cvc58internal10nullStreamE)
  br label %cond.end77

cond.false71:                                     ; preds = %cond.end66
  call void @_ZNK4cvc58internal6TraceCclEv(ptr sret(%"class.cvc5::internal::Cvc5ostream") align 8 %ref.tmp73, ptr noundef nonnull align 8 dereferenceable(32) @_ZN4cvc58internal12TraceChannelE)
  %2 = load i8, ptr %hadPending, align 1
  %tobool = trunc i8 %2 to i1
  %cond75 = select i1 %tobool, ptr @.str.16, ptr @.str
  store ptr %cond75, ptr %ref.tmp74, align 8
  %call76 = call noundef nonnull align 8 dereferenceable(24) ptr @_ZN4cvc58internal11Cvc5ostreamlsIPKcEERS1_RKT_(ptr noundef nonnull align 8 dereferenceable(24) %ref.tmp73, ptr noundef nonnull align 8 dereferenceable(8) %ref.tmp74)
  call void @llvm.memcpy.p0.p0.i64(ptr align 8 %agg.tmp.ensured72, ptr align 8 %call76, i64 24, i1 false)
  br label %cond.end77

cond.end77:                                       ; preds = %cond.false71, %cond.true69
  %call79 = call noundef zeroext i1 @_ZN4cvc58internal11__cvc5_truecvbEv(ptr noundef nonnull align 1 dereferenceable(1) %ref.tmp78)
  br i1 %call79, label %cond.true80, label %cond.false82

cond.true80:                                      ; preds = %cond.end77
  call void @_ZNK4cvc58internal5NullCcvNS0_11Cvc5ostreamEEv(ptr sret(%"class.cvc5::internal::Cvc5ostream") align 8 %tmp81, ptr noundef nonnull align 1 dereferenceable(1) @_ZN4cvc58internal10nullStreamE)
  br label %cond.end89

cond.false82:                                     ; preds = %cond.end77
  call void @_ZNK4cvc58internal6TraceCclEv(ptr sret(%"class.cvc5::internal::Cvc5ostream") align 8 %ref.tmp84, ptr noundef nonnull align 8 dereferenceable(32) @_ZN4cvc58internal12TraceChannelE)
  %3 = load i8, ptr %sentLemma, align 1
  %tobool86 = trunc i8 %3 to i1
  %cond87 = select i1 %tobool86, ptr @.str.17, ptr @.str
  store ptr %cond87, ptr %ref.tmp85, align 8
  %call88 = call noundef nonnull align 8 dereferenceable(24) ptr @_ZN4cvc58internal11Cvc5ostreamlsIPKcEERS1_RKT_(ptr noundef nonnull align 8 dereferenceable(24) %ref.tmp84, ptr noundef nonnull align 8 dereferenceable(8) %ref.tmp85)
  call void @llvm.memcpy.p0.p0.i64(ptr align 8 %agg.tmp.ensured83, ptr align 8 %call88, i64 24, i1 false)
  br label %cond.end89

cond.end89:                                       ; preds = %cond.false82, %cond.true80
  %call91 = call noundef zeroext i1 @_ZN4cvc58internal11__cvc5_truecvbEv(ptr noundef nonnull align 1 dereferenceable(1) %ref.tmp90)
  br i1 %call91, label %cond.true92, label %cond.false94

cond.true92:                                      ; preds = %cond.end89
  call void @_ZNK4cvc58internal5NullCcvNS0_11Cvc5ostreamEEv(ptr sret(%"class.cvc5::internal::Cvc5ostream") align 8 %tmp93, ptr noundef nonnull align 1 dereferenceable(1) @_ZN4cvc58internal10nullStreamE)
  br label %cond.end102

cond.false94:                                     ; preds = %cond.end89
  call void @_ZNK4cvc58internal6TraceCclEv(ptr sret(%"class.cvc5::internal::Cvc5ostream") align 8 %ref.tmp96, ptr noundef nonnull align 8 dereferenceable(32) @_ZN4cvc58internal12TraceChannelE)
  %d_state98 = getelementptr inbounds %"class.cvc5::internal::theory::bags::TheoryBags", ptr %this1, i32 0, i32 1
  %call99 = call noundef zeroext i1 @_ZNK4cvc58internal6theory11TheoryState12isInConflictEv(ptr noundef nonnull align 8 dereferenceable(80) %d_state98)
  %cond100 = select i1 %call99, ptr @.str.18, ptr @.str
  store ptr %cond100, ptr %ref.tmp97, align 8
  %call101 = call noundef nonnull align 8 dereferenceable(24) ptr @_ZN4cvc58internal11Cvc5ostreamlsIPKcEERS1_RKT_(ptr noundef nonnull align 8 dereferenceable(24) %ref.tmp96, ptr noundef nonnull align 8 dereferenceable(8) %ref.tmp97)
  call void @llvm.memcpy.p0.p0.i64(ptr align 8 %agg.tmp.ensured95, ptr align 8 %call101, i64 24, i1 false)
  br label %cond.end102

cond.end102:                                      ; preds = %cond.false94, %cond.true92
  %4 = load i8, ptr %hadPending, align 1
  %tobool103 = trunc i8 %4 to i1
  br i1 %tobool103, label %if.end, label %land.lhs.true104

land.lhs.true104:                                 ; preds = %cond.end102
  %5 = load i8, ptr %sentLemma, align 1
  %tobool105 = trunc i8 %5 to i1
  br i1 %tobool105, label %if.end, label %land.lhs.true106

land.lhs.true106:                                 ; preds = %land.lhs.true104
  %d_state107 = getelementptr inbounds %"class.cvc5::internal::theory::bags::TheoryBags", ptr %this1, i32 0, i32 1
  %call108 = call noundef zeroext i1 @_ZNK4cvc58internal6theory11TheoryState12isInConflictEv(ptr noundef nonnull align 8 dereferenceable(80) %d_state107)
  br i1 %call108, label %if.end, label %if.then109

if.then109:                                       ; preds = %land.lhs.true106
  %call111 = call noundef zeroext i1 @_ZN4cvc58internal11__cvc5_truecvbEv(ptr noundef nonnull align 1 dereferenceable(1) %ref.tmp110)
  br i1 %call111, label %cond.true112, label %cond.false114

cond.true112:                                     ; preds = %if.then109
  call void @_ZNK4cvc58internal5NullCcvNS0_11Cvc5ostreamEEv(ptr sret(%"class.cvc5::internal::Cvc5ostream") align 8 %tmp113, ptr noundef nonnull align 1 dereferenceable(1) @_ZN4cvc58internal10nullStreamE)
  br label %cond.end118

cond.false114:                                    ; preds = %if.then109
  call void @_ZNK4cvc58internal6TraceCclEv(ptr sret(%"class.cvc5::internal::Cvc5ostream") align 8 %ref.tmp116, ptr noundef nonnull align 8 dereferenceable(32) @_ZN4cvc58internal12TraceChannelE)
  %call117 = call noundef nonnull align 8 dereferenceable(24) ptr @_ZN4cvc58internal11Cvc5ostreamlsIA7_cEERS1_RKT_(ptr noundef nonnull align 8 dereferenceable(24) %ref.tmp116, ptr noundef nonnull align 1 dereferenceable(7) @.str.19)
  call void @llvm.memcpy.p0.p0.i64(ptr align 8 %agg.tmp.ensured115, ptr align 8 %call117, i64 24, i1 false)
  br label %cond.end118

cond.end118:                                      ; preds = %cond.false114, %cond.true112
  br label %if.end

lpad:                                             ; preds = %cond.false40
  %6 = landingpad { ptr, i32 }
          cleanup
  %7 = extractvalue { ptr, i32 } %6, 0
  store ptr %7, ptr %exn.slot, align 8
  %8 = extractvalue { ptr, i32 } %6, 1
  store i32 %8, ptr %ehselector.slot, align 4
  br label %ehcleanup

lpad44:                                           ; preds = %invoke.cont
  %9 = landingpad { ptr, i32 }
          cleanup
  %10 = extractvalue { ptr, i32 } %9, 0
  store ptr %10, ptr %exn.slot, align 8
  %11 = extractvalue { ptr, i32 } %9, 1
  store i32 %11, ptr %ehselector.slot, align 4
  %cleanup.is_active48 = load i1, ptr %cleanup.cond43, align 1
  br i1 %cleanup.is_active48, label %cleanup.action49, label %cleanup.done50

cleanup.action49:                                 ; preds = %lpad44
  call void @_ZNSt7__cxx1112basic_stringIcSt11char_traitsIcESaIcEED1Ev(ptr noundef nonnull align 8 dereferenceable(32) %ref.tmp41) #3
  br label %cleanup.done50

cleanup.done50:                                   ; preds = %cleanup.action49, %lpad44
  br label %ehcleanup

ehcleanup:                                        ; preds = %cleanup.done50, %lpad
  %cleanup.is_active54 = load i1, ptr %cleanup.cond, align 1
  br i1 %cleanup.is_active54, label %cleanup.action55, label %cleanup.done56

cleanup.action55:                                 ; preds = %ehcleanup
  call void @_ZNSaIcED1Ev(ptr noundef nonnull align 1 dereferenceable(1) %ref.tmp42) #3
  br label %cleanup.done56

cleanup.done56:                                   ; preds = %cleanup.action55, %ehcleanup
  br label %eh.resume

if.end:                                           ; preds = %cond.end118, %land.lhs.true106, %land.lhs.true104, %cond.end102
  %call120 = call noundef zeroext i1 @_ZN4cvc58internal11__cvc5_truecvbEv(ptr noundef nonnull align 1 dereferenceable(1) %ref.tmp119)
  br i1 %call120, label %cond.true121, label %cond.false123

cond.true121:                                     ; preds = %if.end
  call void @_ZNK4cvc58internal5NullCcvNS0_11Cvc5ostreamEEv(ptr sret(%"class.cvc5::internal::Cvc5ostream") align 8 %tmp122, ptr noundef nonnull align 1 dereferenceable(1) @_ZN4cvc58internal10nullStreamE)
  br label %cond.end127

cond.false123:                                    ; preds = %if.end
  call void @_ZNK4cvc58internal6TraceCclEv(ptr sret(%"class.cvc5::internal::Cvc5ostream") align 8 %ref.tmp125, ptr noundef nonnull align 8 dereferenceable(32) @_ZN4cvc58internal12TraceChannelE)
  %call126 = call noundef nonnull align 8 dereferenceable(24) ptr @_ZN4cvc58internal11Cvc5ostreamlsEPFRSoS2_E(ptr noundef nonnull align 8 dereferenceable(24) %ref.tmp125, ptr noundef @_ZSt4endlIcSt11char_traitsIcEERSt13basic_ostreamIT_T0_ES6_)
  call void @llvm.memcpy.p0.p0.i64(ptr align 8 %agg.tmp.ensured124, ptr align 8 %call126, i64 24, i1 false)
  br label %cond.end127

cond.end127:                                      ; preds = %cond.false123, %cond.true121
  br label %if.end128

if.end128:                                        ; preds = %cond.end127, %cleanup.done53
  br label %do.cond

do.cond:                                          ; preds = %if.end128
  %d_state129 = getelementptr inbounds %"class.cvc5::internal::theory::bags::TheoryBags", ptr %this1, i32 0, i32 1
  %call130 = call noundef zeroext i1 @_ZNK4cvc58internal6theory11TheoryState12isInConflictEv(ptr noundef nonnull align 8 dereferenceable(80) %d_state129)
  br i1 %call130, label %land.end, label %land.lhs.true131

land.lhs.true131:                                 ; preds = %do.cond
  %12 = load i8, ptr %sentLemma, align 1
  %tobool132 = trunc i8 %12 to i1
  br i1 %tobool132, label %land.end, label %land.rhs

land.rhs:                                         ; preds = %land.lhs.true131
  %13 = load i8, ptr %hadPending, align 1
  %tobool133 = trunc i8 %13 to i1
  br label %land.end

land.end:                                         ; preds = %land.rhs, %land.lhs.true131, %do.cond
  %14 = phi i1 [ false, %land.lhs.true131 ], [ false, %do.cond ], [ %tobool133, %land.rhs ]
  br i1 %14, label %do.body, label %do.end, !llvm.loop !17

do.end:                                           ; preds = %land.end
  br label %if.end134

if.end134:                                        ; preds = %do.end, %land.lhs.true3, %land.lhs.true, %entry
  %call136 = call noundef zeroext i1 @_ZN4cvc58internal11__cvc5_truecvbEv(ptr noundef nonnull align 1 dereferenceable(1) %ref.tmp135)
  br i1 %call136, label %cond.true137, label %cond.false139

cond.true137:                                     ; preds = %if.end134
  call void @_ZNK4cvc58internal5NullCcvNS0_11Cvc5ostreamEEv(ptr sret(%"class.cvc5::internal::Cvc5ostream") align 8 %tmp138, ptr noundef nonnull align 1 dereferenceable(1) @_ZN4cvc58internal10nullStreamE)
  br label %cond.end145

cond.false139:                                    ; preds = %if.end134
  call void @_ZNK4cvc58internal6TraceCclEv(ptr sret(%"class.cvc5::internal::Cvc5ostream") align 8 %ref.tmp141, ptr noundef nonnull align 8 dereferenceable(32) @_ZN4cvc58internal12TraceChannelE)
  %call142 = call noundef nonnull align 8 dereferenceable(24) ptr @_ZN4cvc58internal11Cvc5ostreamlsIA30_cEERS1_RKT_(ptr noundef nonnull align 8 dereferenceable(24) %ref.tmp141, ptr noundef nonnull align 1 dereferenceable(30) @.str.20)
  %call143 = call noundef nonnull align 8 dereferenceable(24) ptr @_ZN4cvc58internal11Cvc5ostreamlsINS0_6theory6Theory6EffortEEERS1_RKT_(ptr noundef nonnull align 8 dereferenceable(24) %call142, ptr noundef nonnull align 4 dereferenceable(4) %effort.addr)
  %call144 = call noundef nonnull align 8 dereferenceable(24) ptr @_ZN4cvc58internal11Cvc5ostreamlsEPFRSoS2_E(ptr noundef nonnull align 8 dereferenceable(24) %call143, ptr noundef @_ZSt4endlIcSt11char_traitsIcEERSt13basic_ostreamIT_T0_ES6_)
  call void @llvm.memcpy.p0.p0.i64(ptr align 8 %agg.tmp.ensured140, ptr align 8 %call144, i64 24, i1 false)
  br label %cond.end145

cond.end145:                                      ; preds = %cond.false139, %cond.true137
  ret void

eh.resume:                                        ; preds = %cleanup.done56
  %exn = load ptr, ptr %exn.slot, align 8
  %sel = load i32, ptr %ehselector.slot, align 4
  %lpad.val = insertvalue { ptr, i32 } poison, ptr %exn, 0
  %lpad.val146 = insertvalue { ptr, i32 } %lpad.val, i32 %sel, 1
  resume { ptr, i32 } %lpad.val146
}

declare void @_ZN4cvc58internal6theory24InferenceManagerBuffered14doPendingFactsEv(ptr noundef nonnull align 8 dereferenceable(353)) #1

declare noundef zeroext i1 @_ZNK4cvc58internal6theory11TheoryState12isInConflictEv(ptr noundef nonnull align 8 dereferenceable(80)) unnamed_addr #1

declare noundef zeroext i1 @_ZNK4cvc58internal6theory9Valuation9needCheckEv(ptr noundef nonnull align 8 dereferenceable(8)) #1

declare noundef zeroext i1 @_ZNK4cvc58internal6theory4bags8Strategy17hasStrategyEffortENS1_6Theory6EffortE(ptr noundef nonnull align 8 dereferenceable(80), i32 noundef) #1

; Function Attrs: mustprogress uwtable
define linkonce_odr hidden noundef nonnull align 8 dereferenceable(24) ptr @_ZN4cvc58internal11Cvc5ostreamlsIA9_cEERS1_RKT_(ptr noundef nonnull align 8 dereferenceable(24) %this, ptr noundef nonnull align 1 dereferenceable(9) %t) #4 comdat align 2 {
entry:
  %this.addr = alloca ptr, align 8
  %t.addr = alloca ptr, align 8
  %indent = alloca i64, align 8
  %i = alloca i64, align 8
  store ptr %this, ptr %this.addr, align 8
  store ptr %t, ptr %t.addr, align 8
  %this1 = load ptr, ptr %this.addr, align 8
  %d_os = getelementptr inbounds %"class.cvc5::internal::Cvc5ostream", ptr %this1, i32 0, i32 0
  %0 = load ptr, ptr %d_os, align 8
  %cmp = icmp ne ptr %0, null
  br i1 %cmp, label %if.then, label %if.end11

if.then:                                          ; preds = %entry
  %d_firstColumn = getelementptr inbounds %"class.cvc5::internal::Cvc5ostream", ptr %this1, i32 0, i32 1
  %1 = load i8, ptr %d_firstColumn, align 8
  %tobool = trunc i8 %1 to i1
  br i1 %tobool, label %if.then2, label %if.end

if.then2:                                         ; preds = %if.then
  %d_firstColumn3 = getelementptr inbounds %"class.cvc5::internal::Cvc5ostream", ptr %this1, i32 0, i32 1
  store i8 0, ptr %d_firstColumn3, align 8
  %d_os4 = getelementptr inbounds %"class.cvc5::internal::Cvc5ostream", ptr %this1, i32 0, i32 0
  %2 = load ptr, ptr %d_os4, align 8
  %vtable = load ptr, ptr %2, align 8
  %vbase.offset.ptr = getelementptr i8, ptr %vtable, i64 -24
  %vbase.offset = load i64, ptr %vbase.offset.ptr, align 8
  %add.ptr = getelementptr inbounds i8, ptr %2, i64 %vbase.offset
  %3 = load i32, ptr @_ZN4cvc58internal11Cvc5ostream16s_indentIosIndexE, align 4
  %call = call noundef nonnull align 8 dereferenceable(8) ptr @_ZNSt8ios_base5iwordEi(ptr noundef nonnull align 8 dereferenceable(216) %add.ptr, i32 noundef %3)
  %4 = load i64, ptr %call, align 8
  store i64 %4, ptr %indent, align 8
  store i64 0, ptr %i, align 8
  br label %for.cond

for.cond:                                         ; preds = %for.inc, %if.then2
  %5 = load i64, ptr %i, align 8
  %6 = load i64, ptr %indent, align 8
  %cmp5 = icmp slt i64 %5, %6
  br i1 %cmp5, label %for.body, label %for.end

for.body:                                         ; preds = %for.cond
  %d_os6 = getelementptr inbounds %"class.cvc5::internal::Cvc5ostream", ptr %this1, i32 0, i32 0
  %7 = load ptr, ptr %d_os6, align 8
  %call7 = call noundef nonnull align 8 dereferenceable(8) ptr @_ZStlsIcSt11char_traitsIcESaIcEERSt13basic_ostreamIT_T0_ES7_RKNSt7__cxx1112basic_stringIS4_S5_T1_EE(ptr noundef nonnull align 8 dereferenceable(8) %7, ptr noundef nonnull align 8 dereferenceable(32) @_ZN4cvc58internal11Cvc5ostream5s_tabB5cxx11E)
  %d_os8 = getelementptr inbounds %"class.cvc5::internal::Cvc5ostream", ptr %this1, i32 0, i32 0
  store ptr %call7, ptr %d_os8, align 8
  br label %for.inc

for.inc:                                          ; preds = %for.body
  %8 = load i64, ptr %i, align 8
  %inc = add nsw i64 %8, 1
  store i64 %inc, ptr %i, align 8
  br label %for.cond, !llvm.loop !18

for.end:                                          ; preds = %for.cond
  br label %if.end

if.end:                                           ; preds = %for.end, %if.then
  %d_os9 = getelementptr inbounds %"class.cvc5::internal::Cvc5ostream", ptr %this1, i32 0, i32 0
  %9 = load ptr, ptr %d_os9, align 8
  %10 = load ptr, ptr %t.addr, align 8
  %arraydecay = getelementptr inbounds [9 x i8], ptr %10, i64 0, i64 0
  %call10 = call noundef nonnull align 8 dereferenceable(8) ptr @_ZStlsISt11char_traitsIcEERSt13basic_ostreamIcT_ES5_PKc(ptr noundef nonnull align 8 dereferenceable(8) %9, ptr noundef %arraydecay)
  br label %if.end11

if.end11:                                         ; preds = %if.end, %entry
  ret ptr %this1
}

; Function Attrs: mustprogress uwtable
define linkonce_odr hidden noundef nonnull align 8 dereferenceable(24) ptr @_ZN4cvc58internal11Cvc5ostreamlsINS0_6theory6Theory6EffortEEERS1_RKT_(ptr noundef nonnull align 8 dereferenceable(24) %this, ptr noundef nonnull align 4 dereferenceable(4) %t) #4 comdat align 2 {
entry:
  %this.addr = alloca ptr, align 8
  %t.addr = alloca ptr, align 8
  %indent = alloca i64, align 8
  %i = alloca i64, align 8
  store ptr %this, ptr %this.addr, align 8
  store ptr %t, ptr %t.addr, align 8
  %this1 = load ptr, ptr %this.addr, align 8
  %d_os = getelementptr inbounds %"class.cvc5::internal::Cvc5ostream", ptr %this1, i32 0, i32 0
  %0 = load ptr, ptr %d_os, align 8
  %cmp = icmp ne ptr %0, null
  br i1 %cmp, label %if.then, label %if.end11

if.then:                                          ; preds = %entry
  %d_firstColumn = getelementptr inbounds %"class.cvc5::internal::Cvc5ostream", ptr %this1, i32 0, i32 1
  %1 = load i8, ptr %d_firstColumn, align 8
  %tobool = trunc i8 %1 to i1
  br i1 %tobool, label %if.then2, label %if.end

if.then2:                                         ; preds = %if.then
  %d_firstColumn3 = getelementptr inbounds %"class.cvc5::internal::Cvc5ostream", ptr %this1, i32 0, i32 1
  store i8 0, ptr %d_firstColumn3, align 8
  %d_os4 = getelementptr inbounds %"class.cvc5::internal::Cvc5ostream", ptr %this1, i32 0, i32 0
  %2 = load ptr, ptr %d_os4, align 8
  %vtable = load ptr, ptr %2, align 8
  %vbase.offset.ptr = getelementptr i8, ptr %vtable, i64 -24
  %vbase.offset = load i64, ptr %vbase.offset.ptr, align 8
  %add.ptr = getelementptr inbounds i8, ptr %2, i64 %vbase.offset
  %3 = load i32, ptr @_ZN4cvc58internal11Cvc5ostream16s_indentIosIndexE, align 4
  %call = call noundef nonnull align 8 dereferenceable(8) ptr @_ZNSt8ios_base5iwordEi(ptr noundef nonnull align 8 dereferenceable(216) %add.ptr, i32 noundef %3)
  %4 = load i64, ptr %call, align 8
  store i64 %4, ptr %indent, align 8
  store i64 0, ptr %i, align 8
  br label %for.cond

for.cond:                                         ; preds = %for.inc, %if.then2
  %5 = load i64, ptr %i, align 8
  %6 = load i64, ptr %indent, align 8
  %cmp5 = icmp slt i64 %5, %6
  br i1 %cmp5, label %for.body, label %for.end

for.body:                                         ; preds = %for.cond
  %d_os6 = getelementptr inbounds %"class.cvc5::internal::Cvc5ostream", ptr %this1, i32 0, i32 0
  %7 = load ptr, ptr %d_os6, align 8
  %call7 = call noundef nonnull align 8 dereferenceable(8) ptr @_ZStlsIcSt11char_traitsIcESaIcEERSt13basic_ostreamIT_T0_ES7_RKNSt7__cxx1112basic_stringIS4_S5_T1_EE(ptr noundef nonnull align 8 dereferenceable(8) %7, ptr noundef nonnull align 8 dereferenceable(32) @_ZN4cvc58internal11Cvc5ostream5s_tabB5cxx11E)
  %d_os8 = getelementptr inbounds %"class.cvc5::internal::Cvc5ostream", ptr %this1, i32 0, i32 0
  store ptr %call7, ptr %d_os8, align 8
  br label %for.inc

for.inc:                                          ; preds = %for.body
  %8 = load i64, ptr %i, align 8
  %inc = add nsw i64 %8, 1
  store i64 %inc, ptr %i, align 8
  br label %for.cond, !llvm.loop !19

for.end:                                          ; preds = %for.cond
  br label %if.end

if.end:                                           ; preds = %for.end, %if.then
  %d_os9 = getelementptr inbounds %"class.cvc5::internal::Cvc5ostream", ptr %this1, i32 0, i32 0
  %9 = load ptr, ptr %d_os9, align 8
  %10 = load ptr, ptr %t.addr, align 8
  %11 = load i32, ptr %10, align 4
  %call10 = call noundef nonnull align 8 dereferenceable(8) ptr @_ZN4cvc58internal6theorylsERSoNS1_6Theory6EffortE(ptr noundef nonnull align 8 dereferenceable(8) %9, i32 noundef %11)
  br label %if.end11

if.end11:                                         ; preds = %if.end, %entry
  ret ptr %this1
}

; Function Attrs: mustprogress uwtable
define linkonce_odr hidden noundef nonnull align 8 dereferenceable(24) ptr @_ZN4cvc58internal11Cvc5ostreamlsIA21_cEERS1_RKT_(ptr noundef nonnull align 8 dereferenceable(24) %this, ptr noundef nonnull align 1 dereferenceable(21) %t) #4 comdat align 2 {
entry:
  %this.addr = alloca ptr, align 8
  %t.addr = alloca ptr, align 8
  %indent = alloca i64, align 8
  %i = alloca i64, align 8
  store ptr %this, ptr %this.addr, align 8
  store ptr %t, ptr %t.addr, align 8
  %this1 = load ptr, ptr %this.addr, align 8
  %d_os = getelementptr inbounds %"class.cvc5::internal::Cvc5ostream", ptr %this1, i32 0, i32 0
  %0 = load ptr, ptr %d_os, align 8
  %cmp = icmp ne ptr %0, null
  br i1 %cmp, label %if.then, label %if.end11

if.then:                                          ; preds = %entry
  %d_firstColumn = getelementptr inbounds %"class.cvc5::internal::Cvc5ostream", ptr %this1, i32 0, i32 1
  %1 = load i8, ptr %d_firstColumn, align 8
  %tobool = trunc i8 %1 to i1
  br i1 %tobool, label %if.then2, label %if.end

if.then2:                                         ; preds = %if.then
  %d_firstColumn3 = getelementptr inbounds %"class.cvc5::internal::Cvc5ostream", ptr %this1, i32 0, i32 1
  store i8 0, ptr %d_firstColumn3, align 8
